ARM GAS  C:\Users\8bit\AppData\Local\Temp\ccxohMxd.s 			page 1


   1              		.cpu cortex-m4
   2              		.arch armv7e-m
   3              		.fpu fpv4-sp-d16
   4              		.eabi_attribute 27, 1
   5              		.eabi_attribute 28, 1
   6              		.eabi_attribute 20, 1
   7              		.eabi_attribute 21, 1
   8              		.eabi_attribute 23, 3
   9              		.eabi_attribute 24, 1
  10              		.eabi_attribute 25, 1
  11              		.eabi_attribute 26, 1
  12              		.eabi_attribute 30, 1
  13              		.eabi_attribute 34, 1
  14              		.eabi_attribute 18, 4
  15              		.file	"adrc.c"
  16              		.text
  17              	.Ltext0:
  18              		.cfi_sections	.debug_frame
  19              		.section	.text.adrc_sign,"ax",%progbits
  20              		.align	1
  21              		.syntax unified
  22              		.thumb
  23              		.thumb_func
  25              	adrc_sign:
  26              	.LVL0:
  27              	.LFB0:
  28              		.file 1 "Algorithm/Control_Dep/adrc.c"
   1:Algorithm/Control_Dep/adrc.c **** /*
   2:Algorithm/Control_Dep/adrc.c ****  * File      : adrc.c
   3:Algorithm/Control_Dep/adrc.c ****  *
   4:Algorithm/Control_Dep/adrc.c ****  *
   5:Algorithm/Control_Dep/adrc.c ****  * Change Logs:
   6:Algorithm/Control_Dep/adrc.c ****  * Date           Author       	Notes
   7:Algorithm/Control_Dep/adrc.c ****  * 2018-03-18     zoujiachi   	the first version
   8:Algorithm/Control_Dep/adrc.c ****  */
   9:Algorithm/Control_Dep/adrc.c **** 
  10:Algorithm/Control_Dep/adrc.c **** #include <stdlib.h>
  11:Algorithm/Control_Dep/adrc.c **** #include <math.h>
  12:Algorithm/Control_Dep/adrc.c **** #include "adrc.h"
  13:Algorithm/Control_Dep/adrc.c **** 
  14:Algorithm/Control_Dep/adrc.c **** static float adrc_sign(float val)
  15:Algorithm/Control_Dep/adrc.c **** {
  29              		.loc 1 15 1 view -0
  30              		.cfi_startproc
  31              		@ args = 0, pretend = 0, frame = 0
  32              		@ frame_needed = 0, uses_anonymous_args = 0
  33              		@ link register save eliminated.
  16:Algorithm/Control_Dep/adrc.c ****     if (val >= 0.0f)
  34              		.loc 1 16 5 view .LVU1
  35              		.loc 1 16 8 is_stmt 0 view .LVU2
  36 0000 B5EEC00A 		vcmpe.f32	s0, #0
  37 0004 F1EE10FA 		vmrs	APSR_nzcv, FPSCR
  38 0008 02DA     		bge	.L3
  17:Algorithm/Control_Dep/adrc.c ****         return 1.0f;
  18:Algorithm/Control_Dep/adrc.c ****     
  19:Algorithm/Control_Dep/adrc.c ****     return -1.0f;
  39              		.loc 1 19 12 view .LVU3
ARM GAS  C:\Users\8bit\AppData\Local\Temp\ccxohMxd.s 			page 2


  40 000a BFEE000A 		vmov.f32	s0, #-1.0e+0
  41              	.LVL1:
  42              		.loc 1 19 12 view .LVU4
  43 000e 7047     		bx	lr
  44              	.LVL2:
  45              	.L3:
  17:Algorithm/Control_Dep/adrc.c ****         return 1.0f;
  46              		.loc 1 17 16 view .LVU5
  47 0010 B7EE000A 		vmov.f32	s0, #1.0e+0
  48              	.LVL3:
  20:Algorithm/Control_Dep/adrc.c **** }
  49              		.loc 1 20 1 view .LVU6
  50 0014 7047     		bx	lr
  51              		.cfi_endproc
  52              	.LFE0:
  54              		.section	.text.adrc_fhan,"ax",%progbits
  55              		.align	1
  56              		.global	adrc_fhan
  57              		.syntax unified
  58              		.thumb
  59              		.thumb_func
  61              	adrc_fhan:
  62              	.LVL4:
  63              	.LFB1:
  21:Algorithm/Control_Dep/adrc.c **** 
  22:Algorithm/Control_Dep/adrc.c **** float adrc_fhan(float v1, float v2, float r0, float h0)
  23:Algorithm/Control_Dep/adrc.c **** {
  64              		.loc 1 23 1 is_stmt 1 view -0
  65              		.cfi_startproc
  66              		@ args = 0, pretend = 0, frame = 0
  67              		@ frame_needed = 0, uses_anonymous_args = 0
  68              		.loc 1 23 1 is_stmt 0 view .LVU8
  69 0000 08B5     		push	{r3, lr}
  70              	.LCFI0:
  71              		.cfi_def_cfa_offset 8
  72              		.cfi_offset 3, -8
  73              		.cfi_offset 14, -4
  74 0002 2DED088B 		vpush.64	{d8, d9, d10, d11}
  75              	.LCFI1:
  76              		.cfi_def_cfa_offset 40
  77              		.cfi_offset 80, -40
  78              		.cfi_offset 81, -36
  79              		.cfi_offset 82, -32
  80              		.cfi_offset 83, -28
  81              		.cfi_offset 84, -24
  82              		.cfi_offset 85, -20
  83              		.cfi_offset 86, -16
  84              		.cfi_offset 87, -12
  85 0006 F0EE41AA 		vmov.f32	s21, s2
  24:Algorithm/Control_Dep/adrc.c ****     float d = h0 * h0 * r0;
  86              		.loc 1 24 5 is_stmt 1 view .LVU9
  87              		.loc 1 24 18 is_stmt 0 view .LVU10
  88 000a 21EEA19A 		vmul.f32	s18, s3, s3
  89              		.loc 1 24 11 view .LVU11
  90 000e 29EE019A 		vmul.f32	s18, s18, s2
  91              	.LVL5:
  25:Algorithm/Control_Dep/adrc.c ****     float a0 = h0 * v2;
ARM GAS  C:\Users\8bit\AppData\Local\Temp\ccxohMxd.s 			page 3


  92              		.loc 1 25 5 is_stmt 1 view .LVU12
  93              		.loc 1 25 11 is_stmt 0 view .LVU13
  94 0012 61EEA08A 		vmul.f32	s17, s3, s1
  95              	.LVL6:
  26:Algorithm/Control_Dep/adrc.c ****     float y = v1 + a0;
  96              		.loc 1 26 5 is_stmt 1 view .LVU14
  97              		.loc 1 26 11 is_stmt 0 view .LVU15
  98 0016 38EE808A 		vadd.f32	s16, s17, s0
  99              	.LVL7:
  27:Algorithm/Control_Dep/adrc.c ****     float a1 = sqrtf(d * (d + 8.0f * fabsf(y)));
 100              		.loc 1 27 5 is_stmt 1 view .LVU16
 101              		.loc 1 27 38 is_stmt 0 view .LVU17
 102 001a B0EEC80A 		vabs.f32	s0, s16
 103              	.LVL8:
 104              		.loc 1 27 36 view .LVU18
 105 001e F2EE007A 		vmov.f32	s15, #8.0e+0
 106 0022 20EE270A 		vmul.f32	s0, s0, s15
 107              		.loc 1 27 29 view .LVU19
 108 0026 30EE090A 		vadd.f32	s0, s0, s18
 109              		.loc 1 27 16 view .LVU20
 110 002a 20EE090A 		vmul.f32	s0, s0, s18
 111 002e FFF7FEFF 		bl	sqrtf
 112              	.LVL9:
 113              		.loc 1 27 16 view .LVU21
 114 0032 F0EE409A 		vmov.f32	s19, s0
 115              	.LVL10:
  28:Algorithm/Control_Dep/adrc.c ****     float a2 = a0 + adrc_sign(y) * (a1 - d) * 0.5f;
 116              		.loc 1 28 5 is_stmt 1 view .LVU22
 117              		.loc 1 28 21 is_stmt 0 view .LVU23
 118 0036 B0EE480A 		vmov.f32	s0, s16
 119              	.LVL11:
 120              		.loc 1 28 21 view .LVU24
 121 003a FFF7FEFF 		bl	adrc_sign
 122              	.LVL12:
 123              		.loc 1 28 40 view .LVU25
 124 003e 79EEC99A 		vsub.f32	s19, s19, s18
 125              	.LVL13:
 126              		.loc 1 28 34 view .LVU26
 127 0042 60EE299A 		vmul.f32	s19, s0, s19
 128              		.loc 1 28 45 view .LVU27
 129 0046 B6EE00BA 		vmov.f32	s22, #5.0e-1
 130 004a 69EE8B9A 		vmul.f32	s19, s19, s22
 131              		.loc 1 28 11 view .LVU28
 132 004e 79EEA89A 		vadd.f32	s19, s19, s17
 133              	.LVL14:
  29:Algorithm/Control_Dep/adrc.c ****     float sy = (adrc_sign(y + d) - adrc_sign(y - d)) * 0.5f;
 134              		.loc 1 29 5 is_stmt 1 view .LVU29
 135              		.loc 1 29 17 is_stmt 0 view .LVU30
 136 0052 39EE080A 		vadd.f32	s0, s18, s16
 137 0056 FFF7FEFF 		bl	adrc_sign
 138              	.LVL15:
 139 005a B0EE40AA 		vmov.f32	s20, s0
 140              		.loc 1 29 36 view .LVU31
 141 005e 38EE490A 		vsub.f32	s0, s16, s18
 142 0062 FFF7FEFF 		bl	adrc_sign
 143              	.LVL16:
 144              		.loc 1 29 34 view .LVU32
ARM GAS  C:\Users\8bit\AppData\Local\Temp\ccxohMxd.s 			page 4


 145 0066 3AEE40AA 		vsub.f32	s20, s20, s0
 146              		.loc 1 29 11 view .LVU33
 147 006a 2AEE0BAA 		vmul.f32	s20, s20, s22
 148              	.LVL17:
  30:Algorithm/Control_Dep/adrc.c ****     float a = (a0 + y - a2) * sy + a2;
 149              		.loc 1 30 5 is_stmt 1 view .LVU34
 150              		.loc 1 30 19 is_stmt 0 view .LVU35
 151 006e 38EE888A 		vadd.f32	s16, s17, s16
 152              	.LVL18:
 153              		.loc 1 30 23 view .LVU36
 154 0072 38EE698A 		vsub.f32	s16, s16, s19
 155              		.loc 1 30 29 view .LVU37
 156 0076 28EE0A8A 		vmul.f32	s16, s16, s20
 157              		.loc 1 30 11 view .LVU38
 158 007a 38EE298A 		vadd.f32	s16, s16, s19
 159              	.LVL19:
  31:Algorithm/Control_Dep/adrc.c ****     float sa = (adrc_sign(a + d) - adrc_sign(a - d)) * 0.5f;
 160              		.loc 1 31 5 is_stmt 1 view .LVU39
 161              		.loc 1 31 17 is_stmt 0 view .LVU40
 162 007e 39EE080A 		vadd.f32	s0, s18, s16
 163 0082 FFF7FEFF 		bl	adrc_sign
 164              	.LVL20:
 165 0086 F0EE408A 		vmov.f32	s17, s0
 166              	.LVL21:
 167              		.loc 1 31 36 view .LVU41
 168 008a 38EE490A 		vsub.f32	s0, s16, s18
 169 008e FFF7FEFF 		bl	adrc_sign
 170              	.LVL22:
 171              		.loc 1 31 34 view .LVU42
 172 0092 78EEC08A 		vsub.f32	s17, s17, s0
 173              		.loc 1 31 11 view .LVU43
 174 0096 68EE8B8A 		vmul.f32	s17, s17, s22
 175              	.LVL23:
  32:Algorithm/Control_Dep/adrc.c **** 
  33:Algorithm/Control_Dep/adrc.c ****     return -r0 * (a / d - adrc_sign(a)) * sa - r0 * adrc_sign(a);
 176              		.loc 1 33 5 is_stmt 1 view .LVU44
 177              		.loc 1 33 12 is_stmt 0 view .LVU45
 178 009a F1EE6A9A 		vneg.f32	s19, s21
 179              	.LVL24:
 180              		.loc 1 33 21 view .LVU46
 181 009e 88EE09AA 		vdiv.f32	s20, s16, s18
 182              	.LVL25:
 183              		.loc 1 33 27 view .LVU47
 184 00a2 B0EE480A 		vmov.f32	s0, s16
 185 00a6 FFF7FEFF 		bl	adrc_sign
 186              	.LVL26:
 187              		.loc 1 33 25 view .LVU48
 188 00aa 3AEE40AA 		vsub.f32	s20, s20, s0
 189              		.loc 1 33 16 view .LVU49
 190 00ae 69EE8A9A 		vmul.f32	s19, s19, s20
 191              		.loc 1 33 41 view .LVU50
 192 00b2 69EEA88A 		vmul.f32	s17, s19, s17
 193              	.LVL27:
 194              		.loc 1 33 51 view .LVU51
 195 00b6 20EE2A0A 		vmul.f32	s0, s0, s21
  34:Algorithm/Control_Dep/adrc.c **** }
 196              		.loc 1 34 1 view .LVU52
ARM GAS  C:\Users\8bit\AppData\Local\Temp\ccxohMxd.s 			page 5


 197 00ba 38EEC00A 		vsub.f32	s0, s17, s0
 198 00be BDEC088B 		vldm	sp!, {d8-d11}
 199              	.LCFI2:
 200              		.cfi_restore 86
 201              		.cfi_restore 87
 202              		.cfi_restore 84
 203              		.cfi_restore 85
 204              		.cfi_restore 82
 205              		.cfi_restore 83
 206              		.cfi_restore 80
 207              		.cfi_restore 81
 208              		.cfi_def_cfa_offset 8
 209              	.LVL28:
 210              		.loc 1 34 1 view .LVU53
 211 00c2 08BD     		pop	{r3, pc}
 212              		.cfi_endproc
 213              	.LFE1:
 215              		.section	.text.adrc_fal,"ax",%progbits
 216              		.align	1
 217              		.global	adrc_fal
 218              		.syntax unified
 219              		.thumb
 220              		.thumb_func
 222              	adrc_fal:
 223              	.LVL29:
 224              	.LFB2:
  35:Algorithm/Control_Dep/adrc.c **** 
  36:Algorithm/Control_Dep/adrc.c **** float adrc_fal(float e, float alpha, float delta)
  37:Algorithm/Control_Dep/adrc.c **** {
 225              		.loc 1 37 1 is_stmt 1 view -0
 226              		.cfi_startproc
 227              		@ args = 0, pretend = 0, frame = 0
 228              		@ frame_needed = 0, uses_anonymous_args = 0
 229              		.loc 1 37 1 is_stmt 0 view .LVU55
 230 0000 08B5     		push	{r3, lr}
 231              	.LCFI3:
 232              		.cfi_def_cfa_offset 8
 233              		.cfi_offset 3, -8
 234              		.cfi_offset 14, -4
 235 0002 2DED028B 		vpush.64	{d8}
 236              	.LCFI4:
 237              		.cfi_def_cfa_offset 16
 238              		.cfi_offset 80, -16
 239              		.cfi_offset 81, -12
 240 0006 B0EE408A 		vmov.f32	s16, s0
  38:Algorithm/Control_Dep/adrc.c ****     if (fabsf(e) <= delta)
 241              		.loc 1 38 5 is_stmt 1 view .LVU56
 242              		.loc 1 38 9 is_stmt 0 view .LVU57
 243 000a B0EEC00A 		vabs.f32	s0, s0
 244              	.LVL30:
 245              		.loc 1 38 8 view .LVU58
 246 000e B4EEC10A 		vcmpe.f32	s0, s2
 247 0012 F1EE10FA 		vmrs	APSR_nzcv, FPSCR
 248 0016 0CD9     		bls	.L13
  39:Algorithm/Control_Dep/adrc.c ****     {
  40:Algorithm/Control_Dep/adrc.c ****         return e / (powf(delta, 1.0f - alpha));
  41:Algorithm/Control_Dep/adrc.c ****     }
ARM GAS  C:\Users\8bit\AppData\Local\Temp\ccxohMxd.s 			page 6


  42:Algorithm/Control_Dep/adrc.c **** 
  43:Algorithm/Control_Dep/adrc.c ****     return powf(fabsf(e), alpha) * adrc_sign(e);
 249              		.loc 1 43 5 is_stmt 1 view .LVU59
 250              		.loc 1 43 12 is_stmt 0 view .LVU60
 251 0018 FFF7FEFF 		bl	powf
 252              	.LVL31:
 253              		.loc 1 43 12 view .LVU61
 254 001c F0EE408A 		vmov.f32	s17, s0
 255              		.loc 1 43 36 view .LVU62
 256 0020 B0EE480A 		vmov.f32	s0, s16
 257 0024 FFF7FEFF 		bl	adrc_sign
 258              	.LVL32:
 259              		.loc 1 43 34 view .LVU63
 260 0028 28EE800A 		vmul.f32	s0, s17, s0
 261              	.L6:
  44:Algorithm/Control_Dep/adrc.c **** }
 262              		.loc 1 44 1 view .LVU64
 263 002c BDEC028B 		vldm	sp!, {d8}
 264              	.LCFI5:
 265              		.cfi_remember_state
 266              		.cfi_restore 80
 267              		.cfi_restore 81
 268              		.cfi_def_cfa_offset 8
 269              	.LVL33:
 270              		.loc 1 44 1 view .LVU65
 271 0030 08BD     		pop	{r3, pc}
 272              	.LVL34:
 273              	.L13:
 274              	.LCFI6:
 275              		.cfi_restore_state
  40:Algorithm/Control_Dep/adrc.c ****     }
 276              		.loc 1 40 9 is_stmt 1 view .LVU66
  40:Algorithm/Control_Dep/adrc.c ****     }
 277              		.loc 1 40 21 is_stmt 0 view .LVU67
 278 0032 F7EE007A 		vmov.f32	s15, #1.0e+0
 279 0036 77EEE00A 		vsub.f32	s1, s15, s1
 280              	.LVL35:
  40:Algorithm/Control_Dep/adrc.c ****     }
 281              		.loc 1 40 21 view .LVU68
 282 003a B0EE410A 		vmov.f32	s0, s2
 283 003e FFF7FEFF 		bl	powf
 284              	.LVL36:
  40:Algorithm/Control_Dep/adrc.c ****     }
 285              		.loc 1 40 21 view .LVU69
 286 0042 F0EE407A 		vmov.f32	s15, s0
  40:Algorithm/Control_Dep/adrc.c ****     }
 287              		.loc 1 40 18 view .LVU70
 288 0046 88EE270A 		vdiv.f32	s0, s16, s15
 289 004a EFE7     		b	.L6
 290              		.cfi_endproc
 291              	.LFE2:
 293              		.section	.text.adrc_td_init,"ax",%progbits
 294              		.align	1
 295              		.global	adrc_td_init
 296              		.syntax unified
 297              		.thumb
 298              		.thumb_func
ARM GAS  C:\Users\8bit\AppData\Local\Temp\ccxohMxd.s 			page 7


 300              	adrc_td_init:
 301              	.LVL37:
 302              	.LFB3:
  45:Algorithm/Control_Dep/adrc.c **** 
  46:Algorithm/Control_Dep/adrc.c **** void adrc_td_init(ADRC_TD_Def *td_t, float h, float r0, float h0)
  47:Algorithm/Control_Dep/adrc.c **** {
 303              		.loc 1 47 1 is_stmt 1 view -0
 304              		.cfi_startproc
 305              		@ args = 0, pretend = 0, frame = 0
 306              		@ frame_needed = 0, uses_anonymous_args = 0
 307              		@ link register save eliminated.
  48:Algorithm/Control_Dep/adrc.c ****     td_t->h = h;
 308              		.loc 1 48 5 view .LVU72
 309              		.loc 1 48 13 is_stmt 0 view .LVU73
 310 0000 80ED040A 		vstr.32	s0, [r0, #16]
  49:Algorithm/Control_Dep/adrc.c ****     td_t->r0 = r0;
 311              		.loc 1 49 5 is_stmt 1 view .LVU74
 312              		.loc 1 49 14 is_stmt 0 view .LVU75
 313 0004 C0ED020A 		vstr.32	s1, [r0, #8]
  50:Algorithm/Control_Dep/adrc.c ****     td_t->h0 = h0;
 314              		.loc 1 50 5 is_stmt 1 view .LVU76
 315              		.loc 1 50 14 is_stmt 0 view .LVU77
 316 0008 80ED031A 		vstr.32	s2, [r0, #12]
  51:Algorithm/Control_Dep/adrc.c ****     td_t->v1 = td_t->v2 = 0.0f;
 317              		.loc 1 51 5 is_stmt 1 view .LVU78
 318              		.loc 1 51 25 is_stmt 0 view .LVU79
 319 000c 0023     		movs	r3, #0
 320 000e 4360     		str	r3, [r0, #4]	@ float
 321              		.loc 1 51 14 view .LVU80
 322 0010 0360     		str	r3, [r0]	@ float
  52:Algorithm/Control_Dep/adrc.c **** }
 323              		.loc 1 52 1 view .LVU81
 324 0012 7047     		bx	lr
 325              		.cfi_endproc
 326              	.LFE3:
 328              		.section	.text.adrc_td,"ax",%progbits
 329              		.align	1
 330              		.global	adrc_td
 331              		.syntax unified
 332              		.thumb
 333              		.thumb_func
 335              	adrc_td:
 336              	.LVL38:
 337              	.LFB4:
  53:Algorithm/Control_Dep/adrc.c **** 
  54:Algorithm/Control_Dep/adrc.c **** void adrc_td(ADRC_TD_Def *td, float v)
  55:Algorithm/Control_Dep/adrc.c **** {
 338              		.loc 1 55 1 is_stmt 1 view -0
 339              		.cfi_startproc
 340              		@ args = 0, pretend = 0, frame = 0
 341              		@ frame_needed = 0, uses_anonymous_args = 0
 342              		.loc 1 55 1 is_stmt 0 view .LVU83
 343 0000 10B5     		push	{r4, lr}
 344              	.LCFI7:
 345              		.cfi_def_cfa_offset 8
 346              		.cfi_offset 4, -8
 347              		.cfi_offset 14, -4
ARM GAS  C:\Users\8bit\AppData\Local\Temp\ccxohMxd.s 			page 8


 348 0002 0446     		mov	r4, r0
  56:Algorithm/Control_Dep/adrc.c ****     float fv = adrc_fhan(td->v1 - v, td->v2, td->r0, td->h0);
 349              		.loc 1 56 5 is_stmt 1 view .LVU84
 350              		.loc 1 56 28 is_stmt 0 view .LVU85
 351 0004 D0ED007A 		vldr.32	s15, [r0]
 352              		.loc 1 56 16 view .LVU86
 353 0008 D0ED031A 		vldr.32	s3, [r0, #12]
 354 000c 90ED021A 		vldr.32	s2, [r0, #8]
 355 0010 D0ED010A 		vldr.32	s1, [r0, #4]
 356 0014 37EEC00A 		vsub.f32	s0, s15, s0
 357              	.LVL39:
 358              		.loc 1 56 16 view .LVU87
 359 0018 FFF7FEFF 		bl	adrc_fhan
 360              	.LVL40:
  57:Algorithm/Control_Dep/adrc.c **** 
  58:Algorithm/Control_Dep/adrc.c ****     td->v1 += td->h * td->v2;
 361              		.loc 1 58 5 is_stmt 1 view .LVU88
 362              		.loc 1 58 17 is_stmt 0 view .LVU89
 363 001c 94ED047A 		vldr.32	s14, [r4, #16]
 364              		.loc 1 58 25 view .LVU90
 365 0020 D4ED017A 		vldr.32	s15, [r4, #4]
 366              		.loc 1 58 21 view .LVU91
 367 0024 27EE276A 		vmul.f32	s12, s14, s15
 368              		.loc 1 58 12 view .LVU92
 369 0028 D4ED006A 		vldr.32	s13, [r4]
 370 002c 76EE866A 		vadd.f32	s13, s13, s12
 371 0030 C4ED006A 		vstr.32	s13, [r4]
  59:Algorithm/Control_Dep/adrc.c ****     td->v2 += td->h * fv;
 372              		.loc 1 59 5 is_stmt 1 view .LVU93
 373              		.loc 1 59 21 is_stmt 0 view .LVU94
 374 0034 27EE007A 		vmul.f32	s14, s14, s0
 375              		.loc 1 59 12 view .LVU95
 376 0038 77EE877A 		vadd.f32	s15, s15, s14
 377 003c C4ED017A 		vstr.32	s15, [r4, #4]
  60:Algorithm/Control_Dep/adrc.c **** }
 378              		.loc 1 60 1 view .LVU96
 379 0040 10BD     		pop	{r4, pc}
 380              		.loc 1 60 1 view .LVU97
 381              		.cfi_endproc
 382              	.LFE4:
 384              		.section	.text.adrc_td_control_init,"ax",%progbits
 385              		.align	1
 386              		.global	adrc_td_control_init
 387              		.syntax unified
 388              		.thumb
 389              		.thumb_func
 391              	adrc_td_control_init:
 392              	.LVL41:
 393              	.LFB5:
  61:Algorithm/Control_Dep/adrc.c **** 
  62:Algorithm/Control_Dep/adrc.c **** void adrc_td_control_init(TD_Controller_Def *td_controller, float h, float r2, float h2)
  63:Algorithm/Control_Dep/adrc.c **** {
 394              		.loc 1 63 1 is_stmt 1 view -0
 395              		.cfi_startproc
 396              		@ args = 0, pretend = 0, frame = 0
 397              		@ frame_needed = 0, uses_anonymous_args = 0
 398              		@ link register save eliminated.
ARM GAS  C:\Users\8bit\AppData\Local\Temp\ccxohMxd.s 			page 9


  64:Algorithm/Control_Dep/adrc.c ****     td_controller->v1 = 0.0f;
 399              		.loc 1 64 5 view .LVU99
 400              		.loc 1 64 23 is_stmt 0 view .LVU100
 401 0000 0023     		movs	r3, #0
 402 0002 0360     		str	r3, [r0]	@ float
  65:Algorithm/Control_Dep/adrc.c ****     td_controller->v2 = 0.0f;
 403              		.loc 1 65 5 is_stmt 1 view .LVU101
 404              		.loc 1 65 23 is_stmt 0 view .LVU102
 405 0004 4360     		str	r3, [r0, #4]	@ float
  66:Algorithm/Control_Dep/adrc.c ****     td_controller->r2 = r2;
 406              		.loc 1 66 5 is_stmt 1 view .LVU103
 407              		.loc 1 66 23 is_stmt 0 view .LVU104
 408 0006 C0ED020A 		vstr.32	s1, [r0, #8]
  67:Algorithm/Control_Dep/adrc.c ****     td_controller->h2 = h2;
 409              		.loc 1 67 5 is_stmt 1 view .LVU105
 410              		.loc 1 67 23 is_stmt 0 view .LVU106
 411 000a 80ED031A 		vstr.32	s2, [r0, #12]
  68:Algorithm/Control_Dep/adrc.c ****     td_controller->h = h;
 412              		.loc 1 68 5 is_stmt 1 view .LVU107
 413              		.loc 1 68 22 is_stmt 0 view .LVU108
 414 000e 80ED040A 		vstr.32	s0, [r0, #16]
  69:Algorithm/Control_Dep/adrc.c **** }
 415              		.loc 1 69 1 view .LVU109
 416 0012 7047     		bx	lr
 417              		.cfi_endproc
 418              	.LFE5:
 420              		.section	.text.adrc_td_control,"ax",%progbits
 421              		.align	1
 422              		.global	adrc_td_control
 423              		.syntax unified
 424              		.thumb
 425              		.thumb_func
 427              	adrc_td_control:
 428              	.LVL42:
 429              	.LFB6:
  70:Algorithm/Control_Dep/adrc.c **** 
  71:Algorithm/Control_Dep/adrc.c **** float adrc_td_control(TD_Controller_Def *td_controller, float err)
  72:Algorithm/Control_Dep/adrc.c **** {
 430              		.loc 1 72 1 is_stmt 1 view -0
 431              		.cfi_startproc
 432              		@ args = 0, pretend = 0, frame = 0
 433              		@ frame_needed = 0, uses_anonymous_args = 0
 434              		.loc 1 72 1 is_stmt 0 view .LVU111
 435 0000 10B5     		push	{r4, lr}
 436              	.LCFI8:
 437              		.cfi_def_cfa_offset 8
 438              		.cfi_offset 4, -8
 439              		.cfi_offset 14, -4
 440 0002 0446     		mov	r4, r0
  73:Algorithm/Control_Dep/adrc.c ****     float fv = adrc_fhan(-err, td_controller->v2, td_controller->r2, td_controller->h2);
 441              		.loc 1 73 5 is_stmt 1 view .LVU112
 442              		.loc 1 73 16 is_stmt 0 view .LVU113
 443 0004 D0ED031A 		vldr.32	s3, [r0, #12]
 444 0008 90ED021A 		vldr.32	s2, [r0, #8]
 445 000c D0ED010A 		vldr.32	s1, [r0, #4]
 446 0010 B1EE400A 		vneg.f32	s0, s0
 447              	.LVL43:
ARM GAS  C:\Users\8bit\AppData\Local\Temp\ccxohMxd.s 			page 10


 448              		.loc 1 73 16 view .LVU114
 449 0014 FFF7FEFF 		bl	adrc_fhan
 450              	.LVL44:
  74:Algorithm/Control_Dep/adrc.c ****     td_controller->v1 += td_controller->h * td_controller->v2;
 451              		.loc 1 74 5 is_stmt 1 view .LVU115
 452              		.loc 1 74 39 is_stmt 0 view .LVU116
 453 0018 94ED047A 		vldr.32	s14, [r4, #16]
 454              		.loc 1 74 58 view .LVU117
 455 001c D4ED017A 		vldr.32	s15, [r4, #4]
 456              		.loc 1 74 43 view .LVU118
 457 0020 27EE276A 		vmul.f32	s12, s14, s15
 458              		.loc 1 74 23 view .LVU119
 459 0024 D4ED006A 		vldr.32	s13, [r4]
 460 0028 76EE866A 		vadd.f32	s13, s13, s12
 461 002c C4ED006A 		vstr.32	s13, [r4]
  75:Algorithm/Control_Dep/adrc.c ****     td_controller->v2 += td_controller->h * fv;
 462              		.loc 1 75 5 is_stmt 1 view .LVU120
 463              		.loc 1 75 43 is_stmt 0 view .LVU121
 464 0030 27EE000A 		vmul.f32	s0, s14, s0
 465              	.LVL45:
 466              		.loc 1 75 23 view .LVU122
 467 0034 37EE800A 		vadd.f32	s0, s15, s0
 468 0038 84ED010A 		vstr.32	s0, [r4, #4]
  76:Algorithm/Control_Dep/adrc.c **** 
  77:Algorithm/Control_Dep/adrc.c ****     return td_controller->v2;
 469              		.loc 1 77 5 is_stmt 1 view .LVU123
  78:Algorithm/Control_Dep/adrc.c **** }
 470              		.loc 1 78 1 is_stmt 0 view .LVU124
 471 003c 10BD     		pop	{r4, pc}
 472              		.loc 1 78 1 view .LVU125
 473              		.cfi_endproc
 474              	.LFE6:
 476              		.section	.text.adrc_eso_init,"ax",%progbits
 477              		.align	1
 478              		.global	adrc_eso_init
 479              		.syntax unified
 480              		.thumb
 481              		.thumb_func
 483              	adrc_eso_init:
 484              	.LVL46:
 485              	.LFB7:
  79:Algorithm/Control_Dep/adrc.c **** 
  80:Algorithm/Control_Dep/adrc.c **** void adrc_eso_init(ADRC_ESO_Def *eso_t, float h, float beta1, float beta2, float alpha, float delta
  81:Algorithm/Control_Dep/adrc.c **** {
 486              		.loc 1 81 1 is_stmt 1 view -0
 487              		.cfi_startproc
 488              		@ args = 0, pretend = 0, frame = 0
 489              		@ frame_needed = 0, uses_anonymous_args = 0
 490              		@ link register save eliminated.
  82:Algorithm/Control_Dep/adrc.c ****     eso_t->h = h;
 491              		.loc 1 82 5 view .LVU127
 492              		.loc 1 82 14 is_stmt 0 view .LVU128
 493 0000 80ED000A 		vstr.32	s0, [r0]
  83:Algorithm/Control_Dep/adrc.c ****     eso_t->beta1 = beta1;
 494              		.loc 1 83 5 is_stmt 1 view .LVU129
 495              		.loc 1 83 18 is_stmt 0 view .LVU130
 496 0004 C0ED010A 		vstr.32	s1, [r0, #4]
ARM GAS  C:\Users\8bit\AppData\Local\Temp\ccxohMxd.s 			page 11


  84:Algorithm/Control_Dep/adrc.c ****     eso_t->beta2 = beta2;
 497              		.loc 1 84 5 is_stmt 1 view .LVU131
 498              		.loc 1 84 18 is_stmt 0 view .LVU132
 499 0008 80ED021A 		vstr.32	s2, [r0, #8]
  85:Algorithm/Control_Dep/adrc.c ****     eso_t->u = 0.0f;
 500              		.loc 1 85 5 is_stmt 1 view .LVU133
 501              		.loc 1 85 14 is_stmt 0 view .LVU134
 502 000c 0023     		movs	r3, #0
 503 000e 4361     		str	r3, [r0, #20]	@ float
  86:Algorithm/Control_Dep/adrc.c ****     eso_t->alpha = alpha;
 504              		.loc 1 86 5 is_stmt 1 view .LVU135
 505              		.loc 1 86 18 is_stmt 0 view .LVU136
 506 0010 C0ED031A 		vstr.32	s3, [r0, #12]
  87:Algorithm/Control_Dep/adrc.c ****     eso_t->delta = delta;
 507              		.loc 1 87 5 is_stmt 1 view .LVU137
 508              		.loc 1 87 18 is_stmt 0 view .LVU138
 509 0014 80ED042A 		vstr.32	s4, [r0, #16]
  88:Algorithm/Control_Dep/adrc.c ****     eso_t->b0 = b0;
 510              		.loc 1 88 5 is_stmt 1 view .LVU139
 511              		.loc 1 88 15 is_stmt 0 view .LVU140
 512 0018 C0ED062A 		vstr.32	s5, [r0, #24]
  89:Algorithm/Control_Dep/adrc.c **** 
  90:Algorithm/Control_Dep/adrc.c ****     eso_t->z1 = eso_t->z2 = 0.0f;
 513              		.loc 1 90 5 is_stmt 1 view .LVU141
 514              		.loc 1 90 27 is_stmt 0 view .LVU142
 515 001c 0362     		str	r3, [r0, #32]	@ float
 516              		.loc 1 90 15 view .LVU143
 517 001e C361     		str	r3, [r0, #28]	@ float
  91:Algorithm/Control_Dep/adrc.c **** }
 518              		.loc 1 91 1 view .LVU144
 519 0020 7047     		bx	lr
 520              		.cfi_endproc
 521              	.LFE7:
 523              		.section	.text.adrc_eso,"ax",%progbits
 524              		.align	1
 525              		.global	adrc_eso
 526              		.syntax unified
 527              		.thumb
 528              		.thumb_func
 530              	adrc_eso:
 531              	.LVL47:
 532              	.LFB8:
  92:Algorithm/Control_Dep/adrc.c **** 
  93:Algorithm/Control_Dep/adrc.c **** void adrc_eso(ADRC_ESO_Def *eso_t, float y)
  94:Algorithm/Control_Dep/adrc.c **** {
 533              		.loc 1 94 1 is_stmt 1 view -0
 534              		.cfi_startproc
 535              		@ args = 0, pretend = 0, frame = 0
 536              		@ frame_needed = 0, uses_anonymous_args = 0
 537              		.loc 1 94 1 is_stmt 0 view .LVU146
 538 0000 10B5     		push	{r4, lr}
 539              	.LCFI9:
 540              		.cfi_def_cfa_offset 8
 541              		.cfi_offset 4, -8
 542              		.cfi_offset 14, -4
 543 0002 2DED028B 		vpush.64	{d8}
 544              	.LCFI10:
ARM GAS  C:\Users\8bit\AppData\Local\Temp\ccxohMxd.s 			page 12


 545              		.cfi_def_cfa_offset 16
 546              		.cfi_offset 80, -16
 547              		.cfi_offset 81, -12
 548 0006 0446     		mov	r4, r0
  95:Algorithm/Control_Dep/adrc.c ****     float e = eso_t->z1 - y;
 549              		.loc 1 95 5 is_stmt 1 view .LVU147
 550              		.loc 1 95 20 is_stmt 0 view .LVU148
 551 0008 90ED078A 		vldr.32	s16, [r0, #28]
 552              		.loc 1 95 11 view .LVU149
 553 000c 38EE408A 		vsub.f32	s16, s16, s0
 554              	.LVL48:
  96:Algorithm/Control_Dep/adrc.c ****     float fe = adrc_fal(e, eso_t->alpha, eso_t->delta);
 555              		.loc 1 96 5 is_stmt 1 view .LVU150
 556              		.loc 1 96 16 is_stmt 0 view .LVU151
 557 0010 90ED041A 		vldr.32	s2, [r0, #16]
 558 0014 D0ED030A 		vldr.32	s1, [r0, #12]
 559 0018 B0EE480A 		vmov.f32	s0, s16
 560              	.LVL49:
 561              		.loc 1 96 16 view .LVU152
 562 001c FFF7FEFF 		bl	adrc_fal
 563              	.LVL50:
  97:Algorithm/Control_Dep/adrc.c **** 
  98:Algorithm/Control_Dep/adrc.c ****     eso_t->z1 += eso_t->h * (eso_t->z2 + eso_t->b0 * eso_t->u - eso_t->beta1 * e);
 564              		.loc 1 98 5 is_stmt 1 view .LVU153
 565              		.loc 1 98 23 is_stmt 0 view .LVU154
 566 0020 94ED007A 		vldr.32	s14, [r4]
 567              		.loc 1 98 35 view .LVU155
 568 0024 D4ED086A 		vldr.32	s13, [r4, #32]
 569              		.loc 1 98 47 view .LVU156
 570 0028 D4ED067A 		vldr.32	s15, [r4, #24]
 571              		.loc 1 98 59 view .LVU157
 572 002c 94ED056A 		vldr.32	s12, [r4, #20]
 573              		.loc 1 98 52 view .LVU158
 574 0030 67EE867A 		vmul.f32	s15, s15, s12
 575              		.loc 1 98 40 view .LVU159
 576 0034 76EEA77A 		vadd.f32	s15, s13, s15
 577              		.loc 1 98 70 view .LVU160
 578 0038 94ED016A 		vldr.32	s12, [r4, #4]
 579              		.loc 1 98 78 view .LVU161
 580 003c 26EE088A 		vmul.f32	s16, s12, s16
 581              	.LVL51:
 582              		.loc 1 98 63 view .LVU162
 583 0040 77EEC87A 		vsub.f32	s15, s15, s16
 584              		.loc 1 98 27 view .LVU163
 585 0044 67EE277A 		vmul.f32	s15, s14, s15
 586              		.loc 1 98 15 view .LVU164
 587 0048 94ED076A 		vldr.32	s12, [r4, #28]
 588 004c 76EE277A 		vadd.f32	s15, s12, s15
 589 0050 C4ED077A 		vstr.32	s15, [r4, #28]
  99:Algorithm/Control_Dep/adrc.c ****     eso_t->z2 -= eso_t->h * eso_t->beta2 * fe;
 590              		.loc 1 99 5 is_stmt 1 view .LVU165
 591              		.loc 1 99 34 is_stmt 0 view .LVU166
 592 0054 D4ED027A 		vldr.32	s15, [r4, #8]
 593              		.loc 1 99 27 view .LVU167
 594 0058 27EE277A 		vmul.f32	s14, s14, s15
 595              		.loc 1 99 42 view .LVU168
 596 005c 27EE007A 		vmul.f32	s14, s14, s0
ARM GAS  C:\Users\8bit\AppData\Local\Temp\ccxohMxd.s 			page 13


 597              		.loc 1 99 15 view .LVU169
 598 0060 36EEC77A 		vsub.f32	s14, s13, s14
 599 0064 84ED087A 		vstr.32	s14, [r4, #32]
 100:Algorithm/Control_Dep/adrc.c **** }
 600              		.loc 1 100 1 view .LVU170
 601 0068 BDEC028B 		vldm	sp!, {d8}
 602              	.LCFI11:
 603              		.cfi_restore 80
 604              		.cfi_restore 81
 605              		.cfi_def_cfa_offset 8
 606 006c 10BD     		pop	{r4, pc}
 607              		.loc 1 100 1 view .LVU171
 608              		.cfi_endproc
 609              	.LFE8:
 611              		.section	.text.adrc_leso_init,"ax",%progbits
 612              		.align	1
 613              		.global	adrc_leso_init
 614              		.syntax unified
 615              		.thumb
 616              		.thumb_func
 618              	adrc_leso_init:
 619              	.LVL52:
 620              	.LFB9:
 101:Algorithm/Control_Dep/adrc.c **** 
 102:Algorithm/Control_Dep/adrc.c **** void adrc_leso_init(ADRC_LESO_Def *leso_t, float h, float w, float b0)
 103:Algorithm/Control_Dep/adrc.c **** {
 621              		.loc 1 103 1 is_stmt 1 view -0
 622              		.cfi_startproc
 623              		@ args = 0, pretend = 0, frame = 0
 624              		@ frame_needed = 0, uses_anonymous_args = 0
 625              		@ link register save eliminated.
 104:Algorithm/Control_Dep/adrc.c ****     leso_t->h = h;
 626              		.loc 1 104 5 view .LVU173
 627              		.loc 1 104 15 is_stmt 0 view .LVU174
 628 0000 80ED000A 		vstr.32	s0, [r0]
 105:Algorithm/Control_Dep/adrc.c ****     // (s + w)^2 = s^2 + beta_1 * s + beta_2
 106:Algorithm/Control_Dep/adrc.c ****     leso_t->beta1 = 2.0f * w;
 629              		.loc 1 106 5 is_stmt 1 view .LVU175
 630              		.loc 1 106 26 is_stmt 0 view .LVU176
 631 0004 70EEA07A 		vadd.f32	s15, s1, s1
 632              		.loc 1 106 19 view .LVU177
 633 0008 C0ED017A 		vstr.32	s15, [r0, #4]
 107:Algorithm/Control_Dep/adrc.c ****     leso_t->beta2 = w * w;
 634              		.loc 1 107 5 is_stmt 1 view .LVU178
 635              		.loc 1 107 23 is_stmt 0 view .LVU179
 636 000c 60EEA00A 		vmul.f32	s1, s1, s1
 637              	.LVL53:
 638              		.loc 1 107 19 view .LVU180
 639 0010 C0ED020A 		vstr.32	s1, [r0, #8]
 108:Algorithm/Control_Dep/adrc.c ****     leso_t->u = 0.0f;
 640              		.loc 1 108 5 is_stmt 1 view .LVU181
 641              		.loc 1 108 15 is_stmt 0 view .LVU182
 642 0014 0023     		movs	r3, #0
 643 0016 C360     		str	r3, [r0, #12]	@ float
 109:Algorithm/Control_Dep/adrc.c ****     leso_t->b0 = b0;
 644              		.loc 1 109 5 is_stmt 1 view .LVU183
 645              		.loc 1 109 16 is_stmt 0 view .LVU184
ARM GAS  C:\Users\8bit\AppData\Local\Temp\ccxohMxd.s 			page 14


 646 0018 80ED041A 		vstr.32	s2, [r0, #16]
 110:Algorithm/Control_Dep/adrc.c **** 
 111:Algorithm/Control_Dep/adrc.c ****     leso_t->z1 = leso_t->z2 = 0.0f;
 647              		.loc 1 111 5 is_stmt 1 view .LVU185
 648              		.loc 1 111 29 is_stmt 0 view .LVU186
 649 001c 8361     		str	r3, [r0, #24]	@ float
 650              		.loc 1 111 16 view .LVU187
 651 001e 4361     		str	r3, [r0, #20]	@ float
 112:Algorithm/Control_Dep/adrc.c **** }
 652              		.loc 1 112 1 view .LVU188
 653 0020 7047     		bx	lr
 654              		.cfi_endproc
 655              	.LFE9:
 657              		.section	.text.adrc_leso,"ax",%progbits
 658              		.align	1
 659              		.global	adrc_leso
 660              		.syntax unified
 661              		.thumb
 662              		.thumb_func
 664              	adrc_leso:
 665              	.LVL54:
 666              	.LFB10:
 113:Algorithm/Control_Dep/adrc.c **** 
 114:Algorithm/Control_Dep/adrc.c **** void adrc_leso(ADRC_LESO_Def *leso_t, float y)
 115:Algorithm/Control_Dep/adrc.c **** {
 667              		.loc 1 115 1 is_stmt 1 view -0
 668              		.cfi_startproc
 669              		@ args = 0, pretend = 0, frame = 0
 670              		@ frame_needed = 0, uses_anonymous_args = 0
 671              		@ link register save eliminated.
 116:Algorithm/Control_Dep/adrc.c ****     float e = leso_t->z1 - y;
 672              		.loc 1 116 5 view .LVU190
 673              		.loc 1 116 21 is_stmt 0 view .LVU191
 674 0000 90ED056A 		vldr.32	s12, [r0, #20]
 675              		.loc 1 116 11 view .LVU192
 676 0004 36EE400A 		vsub.f32	s0, s12, s0
 677              	.LVL55:
 117:Algorithm/Control_Dep/adrc.c **** 
 118:Algorithm/Control_Dep/adrc.c ****     leso_t->z1 += leso_t->h * (leso_t->z2 + leso_t->b0 * leso_t->u - leso_t->beta1 * e);
 678              		.loc 1 118 5 is_stmt 1 view .LVU193
 679              		.loc 1 118 25 is_stmt 0 view .LVU194
 680 0008 90ED007A 		vldr.32	s14, [r0]
 681              		.loc 1 118 38 view .LVU195
 682 000c D0ED066A 		vldr.32	s13, [r0, #24]
 683              		.loc 1 118 51 view .LVU196
 684 0010 D0ED047A 		vldr.32	s15, [r0, #16]
 685              		.loc 1 118 64 view .LVU197
 686 0014 D0ED035A 		vldr.32	s11, [r0, #12]
 687              		.loc 1 118 56 view .LVU198
 688 0018 67EEA57A 		vmul.f32	s15, s15, s11
 689              		.loc 1 118 43 view .LVU199
 690 001c 76EEA77A 		vadd.f32	s15, s13, s15
 691              		.loc 1 118 76 view .LVU200
 692 0020 D0ED015A 		vldr.32	s11, [r0, #4]
 693              		.loc 1 118 84 view .LVU201
 694 0024 65EE805A 		vmul.f32	s11, s11, s0
 695              		.loc 1 118 68 view .LVU202
ARM GAS  C:\Users\8bit\AppData\Local\Temp\ccxohMxd.s 			page 15


 696 0028 77EEE57A 		vsub.f32	s15, s15, s11
 697              		.loc 1 118 29 view .LVU203
 698 002c 67EE277A 		vmul.f32	s15, s14, s15
 699              		.loc 1 118 16 view .LVU204
 700 0030 76EE277A 		vadd.f32	s15, s12, s15
 701 0034 C0ED057A 		vstr.32	s15, [r0, #20]
 119:Algorithm/Control_Dep/adrc.c ****     leso_t->z2 -= leso_t->h * leso_t->beta2 * e;
 702              		.loc 1 119 5 is_stmt 1 view .LVU205
 703              		.loc 1 119 37 is_stmt 0 view .LVU206
 704 0038 D0ED027A 		vldr.32	s15, [r0, #8]
 705              		.loc 1 119 29 view .LVU207
 706 003c 27EE277A 		vmul.f32	s14, s14, s15
 707              		.loc 1 119 45 view .LVU208
 708 0040 27EE007A 		vmul.f32	s14, s14, s0
 709              		.loc 1 119 16 view .LVU209
 710 0044 36EEC77A 		vsub.f32	s14, s13, s14
 711 0048 80ED067A 		vstr.32	s14, [r0, #24]
 120:Algorithm/Control_Dep/adrc.c **** }
 712              		.loc 1 120 1 view .LVU210
 713 004c 7047     		bx	lr
 714              		.cfi_endproc
 715              	.LFE10:
 717              		.section	.text.adrc_nlsef_init,"ax",%progbits
 718              		.align	1
 719              		.global	adrc_nlsef_init
 720              		.syntax unified
 721              		.thumb
 722              		.thumb_func
 724              	adrc_nlsef_init:
 725              	.LVL56:
 726              	.LFB11:
 121:Algorithm/Control_Dep/adrc.c **** 
 122:Algorithm/Control_Dep/adrc.c **** void adrc_nlsef_init(ADRC_NLSEF_Def *nlsef_t, float h, float r1, float h1, float c)
 123:Algorithm/Control_Dep/adrc.c **** {
 727              		.loc 1 123 1 is_stmt 1 view -0
 728              		.cfi_startproc
 729              		@ args = 0, pretend = 0, frame = 0
 730              		@ frame_needed = 0, uses_anonymous_args = 0
 731              		@ link register save eliminated.
 124:Algorithm/Control_Dep/adrc.c ****     nlsef_t->h = h;
 732              		.loc 1 124 5 view .LVU212
 733              		.loc 1 124 16 is_stmt 0 view .LVU213
 734 0000 80ED000A 		vstr.32	s0, [r0]
 125:Algorithm/Control_Dep/adrc.c ****     nlsef_t->h1 = h1;
 735              		.loc 1 125 5 is_stmt 1 view .LVU214
 736              		.loc 1 125 17 is_stmt 0 view .LVU215
 737 0004 80ED011A 		vstr.32	s2, [r0, #4]
 126:Algorithm/Control_Dep/adrc.c ****     nlsef_t->r1 = r1;
 738              		.loc 1 126 5 is_stmt 1 view .LVU216
 739              		.loc 1 126 17 is_stmt 0 view .LVU217
 740 0008 C0ED020A 		vstr.32	s1, [r0, #8]
 127:Algorithm/Control_Dep/adrc.c ****     nlsef_t->c = c;
 741              		.loc 1 127 5 is_stmt 1 view .LVU218
 742              		.loc 1 127 16 is_stmt 0 view .LVU219
 743 000c C0ED031A 		vstr.32	s3, [r0, #12]
 128:Algorithm/Control_Dep/adrc.c **** }
 744              		.loc 1 128 1 view .LVU220
ARM GAS  C:\Users\8bit\AppData\Local\Temp\ccxohMxd.s 			page 16


 745 0010 7047     		bx	lr
 746              		.cfi_endproc
 747              	.LFE11:
 749              		.section	.text.adrc_nlsef,"ax",%progbits
 750              		.align	1
 751              		.global	adrc_nlsef
 752              		.syntax unified
 753              		.thumb
 754              		.thumb_func
 756              	adrc_nlsef:
 757              	.LVL57:
 758              	.LFB12:
 129:Algorithm/Control_Dep/adrc.c **** 
 130:Algorithm/Control_Dep/adrc.c **** float adrc_nlsef(ADRC_NLSEF_Def *nlsef_t, float e1, float e2)
 131:Algorithm/Control_Dep/adrc.c **** {
 759              		.loc 1 131 1 is_stmt 1 view -0
 760              		.cfi_startproc
 761              		@ args = 0, pretend = 0, frame = 0
 762              		@ frame_needed = 0, uses_anonymous_args = 0
 763              		.loc 1 131 1 is_stmt 0 view .LVU222
 764 0000 08B5     		push	{r3, lr}
 765              	.LCFI12:
 766              		.cfi_def_cfa_offset 8
 767              		.cfi_offset 3, -8
 768              		.cfi_offset 14, -4
 132:Algorithm/Control_Dep/adrc.c ****     return -adrc_fhan(e1, nlsef_t->c * e2, nlsef_t->r1, nlsef_t->h1);
 769              		.loc 1 132 5 is_stmt 1 view .LVU223
 770              		.loc 1 132 34 is_stmt 0 view .LVU224
 771 0002 D0ED037A 		vldr.32	s15, [r0, #12]
 772              		.loc 1 132 13 view .LVU225
 773 0006 D0ED011A 		vldr.32	s3, [r0, #4]
 774 000a 90ED021A 		vldr.32	s2, [r0, #8]
 775 000e 67EEA00A 		vmul.f32	s1, s15, s1
 776              	.LVL58:
 777              		.loc 1 132 13 view .LVU226
 778 0012 FFF7FEFF 		bl	adrc_fhan
 779              	.LVL59:
 133:Algorithm/Control_Dep/adrc.c **** }
 780              		.loc 1 133 1 view .LVU227
 781 0016 B1EE400A 		vneg.f32	s0, s0
 782 001a 08BD     		pop	{r3, pc}
 783              		.cfi_endproc
 784              	.LFE12:
 786              		.text
 787              	.Letext0:
 788              		.file 2 "Algorithm/Control_Dep/adrc.h"
 789              		.file 3 "c:\\program files (x86)\\gnu arm embedded toolchain\\10 2021.10\\arm-none-eabi\\include\\
ARM GAS  C:\Users\8bit\AppData\Local\Temp\ccxohMxd.s 			page 17


DEFINED SYMBOLS
                            *ABS*:00000000 adrc.c
C:\Users\8bit\AppData\Local\Temp\ccxohMxd.s:20     .text.adrc_sign:00000000 $t
C:\Users\8bit\AppData\Local\Temp\ccxohMxd.s:25     .text.adrc_sign:00000000 adrc_sign
C:\Users\8bit\AppData\Local\Temp\ccxohMxd.s:55     .text.adrc_fhan:00000000 $t
C:\Users\8bit\AppData\Local\Temp\ccxohMxd.s:61     .text.adrc_fhan:00000000 adrc_fhan
C:\Users\8bit\AppData\Local\Temp\ccxohMxd.s:216    .text.adrc_fal:00000000 $t
C:\Users\8bit\AppData\Local\Temp\ccxohMxd.s:222    .text.adrc_fal:00000000 adrc_fal
C:\Users\8bit\AppData\Local\Temp\ccxohMxd.s:294    .text.adrc_td_init:00000000 $t
C:\Users\8bit\AppData\Local\Temp\ccxohMxd.s:300    .text.adrc_td_init:00000000 adrc_td_init
C:\Users\8bit\AppData\Local\Temp\ccxohMxd.s:329    .text.adrc_td:00000000 $t
C:\Users\8bit\AppData\Local\Temp\ccxohMxd.s:335    .text.adrc_td:00000000 adrc_td
C:\Users\8bit\AppData\Local\Temp\ccxohMxd.s:385    .text.adrc_td_control_init:00000000 $t
C:\Users\8bit\AppData\Local\Temp\ccxohMxd.s:391    .text.adrc_td_control_init:00000000 adrc_td_control_init
C:\Users\8bit\AppData\Local\Temp\ccxohMxd.s:421    .text.adrc_td_control:00000000 $t
C:\Users\8bit\AppData\Local\Temp\ccxohMxd.s:427    .text.adrc_td_control:00000000 adrc_td_control
C:\Users\8bit\AppData\Local\Temp\ccxohMxd.s:477    .text.adrc_eso_init:00000000 $t
C:\Users\8bit\AppData\Local\Temp\ccxohMxd.s:483    .text.adrc_eso_init:00000000 adrc_eso_init
C:\Users\8bit\AppData\Local\Temp\ccxohMxd.s:524    .text.adrc_eso:00000000 $t
C:\Users\8bit\AppData\Local\Temp\ccxohMxd.s:530    .text.adrc_eso:00000000 adrc_eso
C:\Users\8bit\AppData\Local\Temp\ccxohMxd.s:612    .text.adrc_leso_init:00000000 $t
C:\Users\8bit\AppData\Local\Temp\ccxohMxd.s:618    .text.adrc_leso_init:00000000 adrc_leso_init
C:\Users\8bit\AppData\Local\Temp\ccxohMxd.s:658    .text.adrc_leso:00000000 $t
C:\Users\8bit\AppData\Local\Temp\ccxohMxd.s:664    .text.adrc_leso:00000000 adrc_leso
C:\Users\8bit\AppData\Local\Temp\ccxohMxd.s:718    .text.adrc_nlsef_init:00000000 $t
C:\Users\8bit\AppData\Local\Temp\ccxohMxd.s:724    .text.adrc_nlsef_init:00000000 adrc_nlsef_init
C:\Users\8bit\AppData\Local\Temp\ccxohMxd.s:750    .text.adrc_nlsef:00000000 $t
C:\Users\8bit\AppData\Local\Temp\ccxohMxd.s:756    .text.adrc_nlsef:00000000 adrc_nlsef

UNDEFINED SYMBOLS
sqrtf
powf
