ARM GAS  C:\Users\8bit\AppData\Local\Temp\ccwaFnug.s 			page 1


   1              		.cpu cortex-m4
   2              		.arch armv7e-m
   3              		.fpu fpv4-sp-d16
   4              		.eabi_attribute 27, 1
   5              		.eabi_attribute 28, 1
   6              		.eabi_attribute 20, 1
   7              		.eabi_attribute 21, 1
   8              		.eabi_attribute 23, 3
   9              		.eabi_attribute 24, 1
  10              		.eabi_attribute 25, 1
  11              		.eabi_attribute 26, 1
  12              		.eabi_attribute 30, 1
  13              		.eabi_attribute 34, 1
  14              		.eabi_attribute 18, 4
  15              		.file	"at32f435_437_tmr.c"
  16              		.text
  17              	.Ltext0:
  18              		.cfi_sections	.debug_frame
  19              		.section	.text.tmr_reset,"ax",%progbits
  20              		.align	1
  21              		.global	tmr_reset
  22              		.syntax unified
  23              		.thumb
  24              		.thumb_func
  26              	tmr_reset:
  27              	.LVL0:
  28              	.LFB133:
  29              		.file 1 "HW_Lib/AT32F435/drivers/src/at32f435_437_tmr.c"
   1:HW_Lib/AT32F435/drivers/src/at32f435_437_tmr.c **** /**
   2:HW_Lib/AT32F435/drivers/src/at32f435_437_tmr.c ****   **************************************************************************
   3:HW_Lib/AT32F435/drivers/src/at32f435_437_tmr.c ****   * @file     at32f435_437_tmr.c
   4:HW_Lib/AT32F435/drivers/src/at32f435_437_tmr.c ****   * @version  v2.1.0
   5:HW_Lib/AT32F435/drivers/src/at32f435_437_tmr.c ****   * @date     2022-08-16
   6:HW_Lib/AT32F435/drivers/src/at32f435_437_tmr.c ****   * @brief    contains all the functions for the tmr firmware library
   7:HW_Lib/AT32F435/drivers/src/at32f435_437_tmr.c ****   **************************************************************************
   8:HW_Lib/AT32F435/drivers/src/at32f435_437_tmr.c ****   *                       Copyright notice & Disclaimer
   9:HW_Lib/AT32F435/drivers/src/at32f435_437_tmr.c ****   *
  10:HW_Lib/AT32F435/drivers/src/at32f435_437_tmr.c ****   * The software Board Support Package (BSP) that is made available to
  11:HW_Lib/AT32F435/drivers/src/at32f435_437_tmr.c ****   * download from Artery official website is the copyrighted work of Artery.
  12:HW_Lib/AT32F435/drivers/src/at32f435_437_tmr.c ****   * Artery authorizes customers to use, copy, and distribute the BSP
  13:HW_Lib/AT32F435/drivers/src/at32f435_437_tmr.c ****   * software and its related documentation for the purpose of design and
  14:HW_Lib/AT32F435/drivers/src/at32f435_437_tmr.c ****   * development in conjunction with Artery microcontrollers. Use of the
  15:HW_Lib/AT32F435/drivers/src/at32f435_437_tmr.c ****   * software is governed by this copyright notice and the following disclaimer.
  16:HW_Lib/AT32F435/drivers/src/at32f435_437_tmr.c ****   *
  17:HW_Lib/AT32F435/drivers/src/at32f435_437_tmr.c ****   * THIS SOFTWARE IS PROVIDED ON "AS IS" BASIS WITHOUT WARRANTIES,
  18:HW_Lib/AT32F435/drivers/src/at32f435_437_tmr.c ****   * GUARANTEES OR REPRESENTATIONS OF ANY KIND. ARTERY EXPRESSLY DISCLAIMS,
  19:HW_Lib/AT32F435/drivers/src/at32f435_437_tmr.c ****   * TO THE FULLEST EXTENT PERMITTED BY LAW, ALL EXPRESS, IMPLIED OR
  20:HW_Lib/AT32F435/drivers/src/at32f435_437_tmr.c ****   * STATUTORY OR OTHER WARRANTIES, GUARANTEES OR REPRESENTATIONS,
  21:HW_Lib/AT32F435/drivers/src/at32f435_437_tmr.c ****   * INCLUDING BUT NOT LIMITED TO, THE IMPLIED WARRANTIES OF MERCHANTABILITY,
  22:HW_Lib/AT32F435/drivers/src/at32f435_437_tmr.c ****   * FITNESS FOR A PARTICULAR PURPOSE, OR NON-INFRINGEMENT.
  23:HW_Lib/AT32F435/drivers/src/at32f435_437_tmr.c ****   *
  24:HW_Lib/AT32F435/drivers/src/at32f435_437_tmr.c ****   **************************************************************************
  25:HW_Lib/AT32F435/drivers/src/at32f435_437_tmr.c ****   */
  26:HW_Lib/AT32F435/drivers/src/at32f435_437_tmr.c **** 
  27:HW_Lib/AT32F435/drivers/src/at32f435_437_tmr.c **** #include "at32f435_437_conf.h"
  28:HW_Lib/AT32F435/drivers/src/at32f435_437_tmr.c **** 
  29:HW_Lib/AT32F435/drivers/src/at32f435_437_tmr.c **** /** @addtogroup AT32F435_437_periph_driver
ARM GAS  C:\Users\8bit\AppData\Local\Temp\ccwaFnug.s 			page 2


  30:HW_Lib/AT32F435/drivers/src/at32f435_437_tmr.c ****   * @{
  31:HW_Lib/AT32F435/drivers/src/at32f435_437_tmr.c ****   */
  32:HW_Lib/AT32F435/drivers/src/at32f435_437_tmr.c **** 
  33:HW_Lib/AT32F435/drivers/src/at32f435_437_tmr.c **** /** @defgroup TMR
  34:HW_Lib/AT32F435/drivers/src/at32f435_437_tmr.c ****   * @brief TMR driver modules
  35:HW_Lib/AT32F435/drivers/src/at32f435_437_tmr.c ****   * @{
  36:HW_Lib/AT32F435/drivers/src/at32f435_437_tmr.c ****   */
  37:HW_Lib/AT32F435/drivers/src/at32f435_437_tmr.c **** 
  38:HW_Lib/AT32F435/drivers/src/at32f435_437_tmr.c **** #ifdef TMR_MODULE_ENABLED
  39:HW_Lib/AT32F435/drivers/src/at32f435_437_tmr.c **** 
  40:HW_Lib/AT32F435/drivers/src/at32f435_437_tmr.c **** /** @defgroup TMR_private_functions
  41:HW_Lib/AT32F435/drivers/src/at32f435_437_tmr.c ****   * @{
  42:HW_Lib/AT32F435/drivers/src/at32f435_437_tmr.c ****   */
  43:HW_Lib/AT32F435/drivers/src/at32f435_437_tmr.c **** 
  44:HW_Lib/AT32F435/drivers/src/at32f435_437_tmr.c **** /**
  45:HW_Lib/AT32F435/drivers/src/at32f435_437_tmr.c ****   * @brief  tmr reset by crm reset register
  46:HW_Lib/AT32F435/drivers/src/at32f435_437_tmr.c ****   * @param  tmr_x: select the tmr peripheral.
  47:HW_Lib/AT32F435/drivers/src/at32f435_437_tmr.c ****   *         this parameter can be one of the following values:
  48:HW_Lib/AT32F435/drivers/src/at32f435_437_tmr.c ****   *         TMR1, TMR2, TMR3, TMR4, TMR5, TMR6, TMR7, TMR8,
  49:HW_Lib/AT32F435/drivers/src/at32f435_437_tmr.c ****   *         TMR9, TMR10, TMR11, TMR12, TMR13, TMR14, TMR20
  50:HW_Lib/AT32F435/drivers/src/at32f435_437_tmr.c ****   * @retval none
  51:HW_Lib/AT32F435/drivers/src/at32f435_437_tmr.c ****   */
  52:HW_Lib/AT32F435/drivers/src/at32f435_437_tmr.c **** void tmr_reset(tmr_type *tmr_x)
  53:HW_Lib/AT32F435/drivers/src/at32f435_437_tmr.c **** {
  30              		.loc 1 53 1 view -0
  31              		.cfi_startproc
  32              		@ args = 0, pretend = 0, frame = 0
  33              		@ frame_needed = 0, uses_anonymous_args = 0
  34              		.loc 1 53 1 is_stmt 0 view .LVU1
  35 0000 10B5     		push	{r4, lr}
  36              	.LCFI0:
  37              		.cfi_def_cfa_offset 8
  38              		.cfi_offset 4, -8
  39              		.cfi_offset 14, -4
  54:HW_Lib/AT32F435/drivers/src/at32f435_437_tmr.c ****   if(tmr_x == TMR1)
  40              		.loc 1 54 3 is_stmt 1 view .LVU2
  41              		.loc 1 54 5 is_stmt 0 view .LVU3
  42 0002 644B     		ldr	r3, .L32
  43 0004 9842     		cmp	r0, r3
  44 0006 36D0     		beq	.L18
  55:HW_Lib/AT32F435/drivers/src/at32f435_437_tmr.c ****   {
  56:HW_Lib/AT32F435/drivers/src/at32f435_437_tmr.c ****     crm_periph_reset(CRM_TMR1_PERIPH_RESET, TRUE);
  57:HW_Lib/AT32F435/drivers/src/at32f435_437_tmr.c ****     crm_periph_reset(CRM_TMR1_PERIPH_RESET, FALSE);
  58:HW_Lib/AT32F435/drivers/src/at32f435_437_tmr.c ****   }
  59:HW_Lib/AT32F435/drivers/src/at32f435_437_tmr.c ****   else if(tmr_x == TMR2)
  45              		.loc 1 59 8 is_stmt 1 view .LVU4
  46              		.loc 1 59 10 is_stmt 0 view .LVU5
  47 0008 B0F1804F 		cmp	r0, #1073741824
  48 000c 3ED0     		beq	.L19
  60:HW_Lib/AT32F435/drivers/src/at32f435_437_tmr.c ****   {
  61:HW_Lib/AT32F435/drivers/src/at32f435_437_tmr.c ****     crm_periph_reset(CRM_TMR2_PERIPH_RESET, TRUE);
  62:HW_Lib/AT32F435/drivers/src/at32f435_437_tmr.c ****     crm_periph_reset(CRM_TMR2_PERIPH_RESET, FALSE);
  63:HW_Lib/AT32F435/drivers/src/at32f435_437_tmr.c ****   }
  64:HW_Lib/AT32F435/drivers/src/at32f435_437_tmr.c ****   else if(tmr_x == TMR3)
  49              		.loc 1 64 8 is_stmt 1 view .LVU6
  50              		.loc 1 64 10 is_stmt 0 view .LVU7
  51 000e 624B     		ldr	r3, .L32+4
ARM GAS  C:\Users\8bit\AppData\Local\Temp\ccwaFnug.s 			page 3


  52 0010 9842     		cmp	r0, r3
  53 0012 46D0     		beq	.L20
  65:HW_Lib/AT32F435/drivers/src/at32f435_437_tmr.c ****   {
  66:HW_Lib/AT32F435/drivers/src/at32f435_437_tmr.c ****     crm_periph_reset(CRM_TMR3_PERIPH_RESET, TRUE);
  67:HW_Lib/AT32F435/drivers/src/at32f435_437_tmr.c ****     crm_periph_reset(CRM_TMR3_PERIPH_RESET, FALSE);
  68:HW_Lib/AT32F435/drivers/src/at32f435_437_tmr.c ****   }
  69:HW_Lib/AT32F435/drivers/src/at32f435_437_tmr.c ****   else if(tmr_x == TMR4)
  54              		.loc 1 69 8 is_stmt 1 view .LVU8
  55              		.loc 1 69 10 is_stmt 0 view .LVU9
  56 0014 614B     		ldr	r3, .L32+8
  57 0016 9842     		cmp	r0, r3
  58 0018 4DD0     		beq	.L21
  70:HW_Lib/AT32F435/drivers/src/at32f435_437_tmr.c ****   {
  71:HW_Lib/AT32F435/drivers/src/at32f435_437_tmr.c ****     crm_periph_reset(CRM_TMR4_PERIPH_RESET, TRUE);
  72:HW_Lib/AT32F435/drivers/src/at32f435_437_tmr.c ****     crm_periph_reset(CRM_TMR4_PERIPH_RESET, FALSE);
  73:HW_Lib/AT32F435/drivers/src/at32f435_437_tmr.c ****   }
  74:HW_Lib/AT32F435/drivers/src/at32f435_437_tmr.c ****   else if(tmr_x == TMR5)
  59              		.loc 1 74 8 is_stmt 1 view .LVU10
  60              		.loc 1 74 10 is_stmt 0 view .LVU11
  61 001a 614B     		ldr	r3, .L32+12
  62 001c 9842     		cmp	r0, r3
  63 001e 54D0     		beq	.L22
  75:HW_Lib/AT32F435/drivers/src/at32f435_437_tmr.c ****   {
  76:HW_Lib/AT32F435/drivers/src/at32f435_437_tmr.c ****     crm_periph_reset(CRM_TMR5_PERIPH_RESET, TRUE);
  77:HW_Lib/AT32F435/drivers/src/at32f435_437_tmr.c ****     crm_periph_reset(CRM_TMR5_PERIPH_RESET, FALSE);
  78:HW_Lib/AT32F435/drivers/src/at32f435_437_tmr.c ****   }
  79:HW_Lib/AT32F435/drivers/src/at32f435_437_tmr.c ****   else if(tmr_x == TMR6)
  64              		.loc 1 79 8 is_stmt 1 view .LVU12
  65              		.loc 1 79 10 is_stmt 0 view .LVU13
  66 0020 604B     		ldr	r3, .L32+16
  67 0022 9842     		cmp	r0, r3
  68 0024 5BD0     		beq	.L23
  80:HW_Lib/AT32F435/drivers/src/at32f435_437_tmr.c ****   {
  81:HW_Lib/AT32F435/drivers/src/at32f435_437_tmr.c ****     crm_periph_reset(CRM_TMR6_PERIPH_RESET, TRUE);
  82:HW_Lib/AT32F435/drivers/src/at32f435_437_tmr.c ****     crm_periph_reset(CRM_TMR6_PERIPH_RESET, FALSE);
  83:HW_Lib/AT32F435/drivers/src/at32f435_437_tmr.c ****   }
  84:HW_Lib/AT32F435/drivers/src/at32f435_437_tmr.c ****   else if(tmr_x == TMR7)
  69              		.loc 1 84 8 is_stmt 1 view .LVU14
  70              		.loc 1 84 10 is_stmt 0 view .LVU15
  71 0026 604B     		ldr	r3, .L32+20
  72 0028 9842     		cmp	r0, r3
  73 002a 62D0     		beq	.L24
  85:HW_Lib/AT32F435/drivers/src/at32f435_437_tmr.c ****   {
  86:HW_Lib/AT32F435/drivers/src/at32f435_437_tmr.c ****     crm_periph_reset(CRM_TMR7_PERIPH_RESET, TRUE);
  87:HW_Lib/AT32F435/drivers/src/at32f435_437_tmr.c ****     crm_periph_reset(CRM_TMR7_PERIPH_RESET, FALSE);
  88:HW_Lib/AT32F435/drivers/src/at32f435_437_tmr.c ****   }
  89:HW_Lib/AT32F435/drivers/src/at32f435_437_tmr.c ****   else if(tmr_x == TMR8)
  74              		.loc 1 89 8 is_stmt 1 view .LVU16
  75              		.loc 1 89 10 is_stmt 0 view .LVU17
  76 002c 5F4B     		ldr	r3, .L32+24
  77 002e 9842     		cmp	r0, r3
  78 0030 69D0     		beq	.L25
  90:HW_Lib/AT32F435/drivers/src/at32f435_437_tmr.c ****   {
  91:HW_Lib/AT32F435/drivers/src/at32f435_437_tmr.c ****     crm_periph_reset(CRM_TMR8_PERIPH_RESET, TRUE);
  92:HW_Lib/AT32F435/drivers/src/at32f435_437_tmr.c ****     crm_periph_reset(CRM_TMR8_PERIPH_RESET, FALSE);
  93:HW_Lib/AT32F435/drivers/src/at32f435_437_tmr.c ****   }
  94:HW_Lib/AT32F435/drivers/src/at32f435_437_tmr.c ****   else if(tmr_x == TMR9)
ARM GAS  C:\Users\8bit\AppData\Local\Temp\ccwaFnug.s 			page 4


  79              		.loc 1 94 8 is_stmt 1 view .LVU18
  80              		.loc 1 94 10 is_stmt 0 view .LVU19
  81 0032 5F4B     		ldr	r3, .L32+28
  82 0034 9842     		cmp	r0, r3
  83 0036 70D0     		beq	.L26
  95:HW_Lib/AT32F435/drivers/src/at32f435_437_tmr.c ****   {
  96:HW_Lib/AT32F435/drivers/src/at32f435_437_tmr.c ****     crm_periph_reset(CRM_TMR9_PERIPH_RESET, TRUE);
  97:HW_Lib/AT32F435/drivers/src/at32f435_437_tmr.c ****     crm_periph_reset(CRM_TMR9_PERIPH_RESET, FALSE);
  98:HW_Lib/AT32F435/drivers/src/at32f435_437_tmr.c ****   }
  99:HW_Lib/AT32F435/drivers/src/at32f435_437_tmr.c ****   else if(tmr_x == TMR10)
  84              		.loc 1 99 8 is_stmt 1 view .LVU20
  85              		.loc 1 99 10 is_stmt 0 view .LVU21
  86 0038 5E4B     		ldr	r3, .L32+32
  87 003a 9842     		cmp	r0, r3
  88 003c 77D0     		beq	.L27
 100:HW_Lib/AT32F435/drivers/src/at32f435_437_tmr.c ****   {
 101:HW_Lib/AT32F435/drivers/src/at32f435_437_tmr.c ****     crm_periph_reset(CRM_TMR10_PERIPH_RESET, TRUE);
 102:HW_Lib/AT32F435/drivers/src/at32f435_437_tmr.c ****     crm_periph_reset(CRM_TMR10_PERIPH_RESET, FALSE);
 103:HW_Lib/AT32F435/drivers/src/at32f435_437_tmr.c ****   }
 104:HW_Lib/AT32F435/drivers/src/at32f435_437_tmr.c ****   else if(tmr_x == TMR11)
  89              		.loc 1 104 8 is_stmt 1 view .LVU22
  90              		.loc 1 104 10 is_stmt 0 view .LVU23
  91 003e 5E4B     		ldr	r3, .L32+36
  92 0040 9842     		cmp	r0, r3
  93 0042 7ED0     		beq	.L28
 105:HW_Lib/AT32F435/drivers/src/at32f435_437_tmr.c ****   {
 106:HW_Lib/AT32F435/drivers/src/at32f435_437_tmr.c ****     crm_periph_reset(CRM_TMR11_PERIPH_RESET, TRUE);
 107:HW_Lib/AT32F435/drivers/src/at32f435_437_tmr.c ****     crm_periph_reset(CRM_TMR11_PERIPH_RESET, FALSE);
 108:HW_Lib/AT32F435/drivers/src/at32f435_437_tmr.c ****   }
 109:HW_Lib/AT32F435/drivers/src/at32f435_437_tmr.c ****   else if(tmr_x == TMR12)
  94              		.loc 1 109 8 is_stmt 1 view .LVU24
  95              		.loc 1 109 10 is_stmt 0 view .LVU25
  96 0044 5D4B     		ldr	r3, .L32+40
  97 0046 9842     		cmp	r0, r3
  98 0048 00F08580 		beq	.L29
 110:HW_Lib/AT32F435/drivers/src/at32f435_437_tmr.c ****   {
 111:HW_Lib/AT32F435/drivers/src/at32f435_437_tmr.c ****     crm_periph_reset(CRM_TMR12_PERIPH_RESET, TRUE);
 112:HW_Lib/AT32F435/drivers/src/at32f435_437_tmr.c ****     crm_periph_reset(CRM_TMR12_PERIPH_RESET, FALSE);
 113:HW_Lib/AT32F435/drivers/src/at32f435_437_tmr.c ****   }
 114:HW_Lib/AT32F435/drivers/src/at32f435_437_tmr.c ****   else if(tmr_x == TMR13)
  99              		.loc 1 114 8 is_stmt 1 view .LVU26
 100              		.loc 1 114 10 is_stmt 0 view .LVU27
 101 004c 5C4B     		ldr	r3, .L32+44
 102 004e 9842     		cmp	r0, r3
 103 0050 00F08B80 		beq	.L30
 115:HW_Lib/AT32F435/drivers/src/at32f435_437_tmr.c ****   {
 116:HW_Lib/AT32F435/drivers/src/at32f435_437_tmr.c ****     crm_periph_reset(CRM_TMR13_PERIPH_RESET, TRUE);
 117:HW_Lib/AT32F435/drivers/src/at32f435_437_tmr.c ****     crm_periph_reset(CRM_TMR13_PERIPH_RESET, FALSE);
 118:HW_Lib/AT32F435/drivers/src/at32f435_437_tmr.c ****   }
 119:HW_Lib/AT32F435/drivers/src/at32f435_437_tmr.c ****   else if(tmr_x == TMR14)
 104              		.loc 1 119 8 is_stmt 1 view .LVU28
 105              		.loc 1 119 10 is_stmt 0 view .LVU29
 106 0054 5B4B     		ldr	r3, .L32+48
 107 0056 9842     		cmp	r0, r3
 108 0058 00F09180 		beq	.L31
 120:HW_Lib/AT32F435/drivers/src/at32f435_437_tmr.c ****   {
 121:HW_Lib/AT32F435/drivers/src/at32f435_437_tmr.c ****     crm_periph_reset(CRM_TMR14_PERIPH_RESET, TRUE);
ARM GAS  C:\Users\8bit\AppData\Local\Temp\ccwaFnug.s 			page 5


 122:HW_Lib/AT32F435/drivers/src/at32f435_437_tmr.c ****     crm_periph_reset(CRM_TMR14_PERIPH_RESET, FALSE);
 123:HW_Lib/AT32F435/drivers/src/at32f435_437_tmr.c ****   }
 124:HW_Lib/AT32F435/drivers/src/at32f435_437_tmr.c ****   else if(tmr_x == TMR20)
 109              		.loc 1 124 8 is_stmt 1 view .LVU30
 110              		.loc 1 124 10 is_stmt 0 view .LVU31
 111 005c 5A4B     		ldr	r3, .L32+52
 112 005e 9842     		cmp	r0, r3
 113 0060 13D1     		bne	.L1
 125:HW_Lib/AT32F435/drivers/src/at32f435_437_tmr.c ****   {
 126:HW_Lib/AT32F435/drivers/src/at32f435_437_tmr.c ****     crm_periph_reset(CRM_TMR20_PERIPH_RESET, TRUE);
 114              		.loc 1 126 5 is_stmt 1 view .LVU32
 115 0062 5A4C     		ldr	r4, .L32+56
 116 0064 0121     		movs	r1, #1
 117 0066 2046     		mov	r0, r4
 118              	.LVL1:
 119              		.loc 1 126 5 is_stmt 0 view .LVU33
 120 0068 FFF7FEFF 		bl	crm_periph_reset
 121              	.LVL2:
 127:HW_Lib/AT32F435/drivers/src/at32f435_437_tmr.c ****     crm_periph_reset(CRM_TMR20_PERIPH_RESET, FALSE);
 122              		.loc 1 127 5 is_stmt 1 view .LVU34
 123 006c 0021     		movs	r1, #0
 124 006e 2046     		mov	r0, r4
 125 0070 FFF7FEFF 		bl	crm_periph_reset
 126              	.LVL3:
 128:HW_Lib/AT32F435/drivers/src/at32f435_437_tmr.c ****   }
 129:HW_Lib/AT32F435/drivers/src/at32f435_437_tmr.c **** }
 127              		.loc 1 129 1 is_stmt 0 view .LVU35
 128 0074 09E0     		b	.L1
 129              	.LVL4:
 130              	.L18:
  56:HW_Lib/AT32F435/drivers/src/at32f435_437_tmr.c ****     crm_periph_reset(CRM_TMR1_PERIPH_RESET, FALSE);
 131              		.loc 1 56 5 is_stmt 1 view .LVU36
 132 0076 0121     		movs	r1, #1
 133 0078 4FF41010 		mov	r0, #2359296
 134              	.LVL5:
  56:HW_Lib/AT32F435/drivers/src/at32f435_437_tmr.c ****     crm_periph_reset(CRM_TMR1_PERIPH_RESET, FALSE);
 135              		.loc 1 56 5 is_stmt 0 view .LVU37
 136 007c FFF7FEFF 		bl	crm_periph_reset
 137              	.LVL6:
  57:HW_Lib/AT32F435/drivers/src/at32f435_437_tmr.c ****   }
 138              		.loc 1 57 5 is_stmt 1 view .LVU38
 139 0080 0021     		movs	r1, #0
 140 0082 4FF41010 		mov	r0, #2359296
 141 0086 FFF7FEFF 		bl	crm_periph_reset
 142              	.LVL7:
 143              	.L1:
 144              		.loc 1 129 1 is_stmt 0 view .LVU39
 145 008a 10BD     		pop	{r4, pc}
 146              	.LVL8:
 147              	.L19:
  61:HW_Lib/AT32F435/drivers/src/at32f435_437_tmr.c ****     crm_periph_reset(CRM_TMR2_PERIPH_RESET, FALSE);
 148              		.loc 1 61 5 is_stmt 1 view .LVU40
 149 008c 0121     		movs	r1, #1
 150 008e 4FF40010 		mov	r0, #2097152
 151              	.LVL9:
  61:HW_Lib/AT32F435/drivers/src/at32f435_437_tmr.c ****     crm_periph_reset(CRM_TMR2_PERIPH_RESET, FALSE);
 152              		.loc 1 61 5 is_stmt 0 view .LVU41
ARM GAS  C:\Users\8bit\AppData\Local\Temp\ccwaFnug.s 			page 6


 153 0092 FFF7FEFF 		bl	crm_periph_reset
 154              	.LVL10:
  62:HW_Lib/AT32F435/drivers/src/at32f435_437_tmr.c ****   }
 155              		.loc 1 62 5 is_stmt 1 view .LVU42
 156 0096 0021     		movs	r1, #0
 157 0098 4FF40010 		mov	r0, #2097152
 158 009c FFF7FEFF 		bl	crm_periph_reset
 159              	.LVL11:
 160 00a0 F3E7     		b	.L1
 161              	.LVL12:
 162              	.L20:
  66:HW_Lib/AT32F435/drivers/src/at32f435_437_tmr.c ****     crm_periph_reset(CRM_TMR3_PERIPH_RESET, FALSE);
 163              		.loc 1 66 5 view .LVU43
 164 00a2 4B4C     		ldr	r4, .L32+60
 165 00a4 0121     		movs	r1, #1
 166 00a6 2046     		mov	r0, r4
 167              	.LVL13:
  66:HW_Lib/AT32F435/drivers/src/at32f435_437_tmr.c ****     crm_periph_reset(CRM_TMR3_PERIPH_RESET, FALSE);
 168              		.loc 1 66 5 is_stmt 0 view .LVU44
 169 00a8 FFF7FEFF 		bl	crm_periph_reset
 170              	.LVL14:
  67:HW_Lib/AT32F435/drivers/src/at32f435_437_tmr.c ****   }
 171              		.loc 1 67 5 is_stmt 1 view .LVU45
 172 00ac 0021     		movs	r1, #0
 173 00ae 2046     		mov	r0, r4
 174 00b0 FFF7FEFF 		bl	crm_periph_reset
 175              	.LVL15:
 176 00b4 E9E7     		b	.L1
 177              	.LVL16:
 178              	.L21:
  71:HW_Lib/AT32F435/drivers/src/at32f435_437_tmr.c ****     crm_periph_reset(CRM_TMR4_PERIPH_RESET, FALSE);
 179              		.loc 1 71 5 view .LVU46
 180 00b6 474C     		ldr	r4, .L32+64
 181 00b8 0121     		movs	r1, #1
 182 00ba 2046     		mov	r0, r4
 183              	.LVL17:
  71:HW_Lib/AT32F435/drivers/src/at32f435_437_tmr.c ****     crm_periph_reset(CRM_TMR4_PERIPH_RESET, FALSE);
 184              		.loc 1 71 5 is_stmt 0 view .LVU47
 185 00bc FFF7FEFF 		bl	crm_periph_reset
 186              	.LVL18:
  72:HW_Lib/AT32F435/drivers/src/at32f435_437_tmr.c ****   }
 187              		.loc 1 72 5 is_stmt 1 view .LVU48
 188 00c0 0021     		movs	r1, #0
 189 00c2 2046     		mov	r0, r4
 190 00c4 FFF7FEFF 		bl	crm_periph_reset
 191              	.LVL19:
 192 00c8 DFE7     		b	.L1
 193              	.LVL20:
 194              	.L22:
  76:HW_Lib/AT32F435/drivers/src/at32f435_437_tmr.c ****     crm_periph_reset(CRM_TMR5_PERIPH_RESET, FALSE);
 195              		.loc 1 76 5 view .LVU49
 196 00ca 434C     		ldr	r4, .L32+68
 197 00cc 0121     		movs	r1, #1
 198 00ce 2046     		mov	r0, r4
 199              	.LVL21:
  76:HW_Lib/AT32F435/drivers/src/at32f435_437_tmr.c ****     crm_periph_reset(CRM_TMR5_PERIPH_RESET, FALSE);
 200              		.loc 1 76 5 is_stmt 0 view .LVU50
ARM GAS  C:\Users\8bit\AppData\Local\Temp\ccwaFnug.s 			page 7


 201 00d0 FFF7FEFF 		bl	crm_periph_reset
 202              	.LVL22:
  77:HW_Lib/AT32F435/drivers/src/at32f435_437_tmr.c ****   }
 203              		.loc 1 77 5 is_stmt 1 view .LVU51
 204 00d4 0021     		movs	r1, #0
 205 00d6 2046     		mov	r0, r4
 206 00d8 FFF7FEFF 		bl	crm_periph_reset
 207              	.LVL23:
 208 00dc D5E7     		b	.L1
 209              	.LVL24:
 210              	.L23:
  81:HW_Lib/AT32F435/drivers/src/at32f435_437_tmr.c ****     crm_periph_reset(CRM_TMR6_PERIPH_RESET, FALSE);
 211              		.loc 1 81 5 view .LVU52
 212 00de 3F4C     		ldr	r4, .L32+72
 213 00e0 0121     		movs	r1, #1
 214 00e2 2046     		mov	r0, r4
 215              	.LVL25:
  81:HW_Lib/AT32F435/drivers/src/at32f435_437_tmr.c ****     crm_periph_reset(CRM_TMR6_PERIPH_RESET, FALSE);
 216              		.loc 1 81 5 is_stmt 0 view .LVU53
 217 00e4 FFF7FEFF 		bl	crm_periph_reset
 218              	.LVL26:
  82:HW_Lib/AT32F435/drivers/src/at32f435_437_tmr.c ****   }
 219              		.loc 1 82 5 is_stmt 1 view .LVU54
 220 00e8 0021     		movs	r1, #0
 221 00ea 2046     		mov	r0, r4
 222 00ec FFF7FEFF 		bl	crm_periph_reset
 223              	.LVL27:
 224 00f0 CBE7     		b	.L1
 225              	.LVL28:
 226              	.L24:
  86:HW_Lib/AT32F435/drivers/src/at32f435_437_tmr.c ****     crm_periph_reset(CRM_TMR7_PERIPH_RESET, FALSE);
 227              		.loc 1 86 5 view .LVU55
 228 00f2 3B4C     		ldr	r4, .L32+76
 229 00f4 0121     		movs	r1, #1
 230 00f6 2046     		mov	r0, r4
 231              	.LVL29:
  86:HW_Lib/AT32F435/drivers/src/at32f435_437_tmr.c ****     crm_periph_reset(CRM_TMR7_PERIPH_RESET, FALSE);
 232              		.loc 1 86 5 is_stmt 0 view .LVU56
 233 00f8 FFF7FEFF 		bl	crm_periph_reset
 234              	.LVL30:
  87:HW_Lib/AT32F435/drivers/src/at32f435_437_tmr.c ****   }
 235              		.loc 1 87 5 is_stmt 1 view .LVU57
 236 00fc 0021     		movs	r1, #0
 237 00fe 2046     		mov	r0, r4
 238 0100 FFF7FEFF 		bl	crm_periph_reset
 239              	.LVL31:
 240 0104 C1E7     		b	.L1
 241              	.LVL32:
 242              	.L25:
  91:HW_Lib/AT32F435/drivers/src/at32f435_437_tmr.c ****     crm_periph_reset(CRM_TMR8_PERIPH_RESET, FALSE);
 243              		.loc 1 91 5 view .LVU58
 244 0106 374C     		ldr	r4, .L32+80
 245 0108 0121     		movs	r1, #1
 246 010a 2046     		mov	r0, r4
 247              	.LVL33:
  91:HW_Lib/AT32F435/drivers/src/at32f435_437_tmr.c ****     crm_periph_reset(CRM_TMR8_PERIPH_RESET, FALSE);
 248              		.loc 1 91 5 is_stmt 0 view .LVU59
ARM GAS  C:\Users\8bit\AppData\Local\Temp\ccwaFnug.s 			page 8


 249 010c FFF7FEFF 		bl	crm_periph_reset
 250              	.LVL34:
  92:HW_Lib/AT32F435/drivers/src/at32f435_437_tmr.c ****   }
 251              		.loc 1 92 5 is_stmt 1 view .LVU60
 252 0110 0021     		movs	r1, #0
 253 0112 2046     		mov	r0, r4
 254 0114 FFF7FEFF 		bl	crm_periph_reset
 255              	.LVL35:
 256 0118 B7E7     		b	.L1
 257              	.LVL36:
 258              	.L26:
  96:HW_Lib/AT32F435/drivers/src/at32f435_437_tmr.c ****     crm_periph_reset(CRM_TMR9_PERIPH_RESET, FALSE);
 259              		.loc 1 96 5 view .LVU61
 260 011a 334C     		ldr	r4, .L32+84
 261 011c 0121     		movs	r1, #1
 262 011e 2046     		mov	r0, r4
 263              	.LVL37:
  96:HW_Lib/AT32F435/drivers/src/at32f435_437_tmr.c ****     crm_periph_reset(CRM_TMR9_PERIPH_RESET, FALSE);
 264              		.loc 1 96 5 is_stmt 0 view .LVU62
 265 0120 FFF7FEFF 		bl	crm_periph_reset
 266              	.LVL38:
  97:HW_Lib/AT32F435/drivers/src/at32f435_437_tmr.c ****   }
 267              		.loc 1 97 5 is_stmt 1 view .LVU63
 268 0124 0021     		movs	r1, #0
 269 0126 2046     		mov	r0, r4
 270 0128 FFF7FEFF 		bl	crm_periph_reset
 271              	.LVL39:
 272 012c ADE7     		b	.L1
 273              	.LVL40:
 274              	.L27:
 101:HW_Lib/AT32F435/drivers/src/at32f435_437_tmr.c ****     crm_periph_reset(CRM_TMR10_PERIPH_RESET, FALSE);
 275              		.loc 1 101 5 view .LVU64
 276 012e 2F4C     		ldr	r4, .L32+88
 277 0130 0121     		movs	r1, #1
 278 0132 2046     		mov	r0, r4
 279              	.LVL41:
 101:HW_Lib/AT32F435/drivers/src/at32f435_437_tmr.c ****     crm_periph_reset(CRM_TMR10_PERIPH_RESET, FALSE);
 280              		.loc 1 101 5 is_stmt 0 view .LVU65
 281 0134 FFF7FEFF 		bl	crm_periph_reset
 282              	.LVL42:
 102:HW_Lib/AT32F435/drivers/src/at32f435_437_tmr.c ****   }
 283              		.loc 1 102 5 is_stmt 1 view .LVU66
 284 0138 0021     		movs	r1, #0
 285 013a 2046     		mov	r0, r4
 286 013c FFF7FEFF 		bl	crm_periph_reset
 287              	.LVL43:
 288 0140 A3E7     		b	.L1
 289              	.LVL44:
 290              	.L28:
 106:HW_Lib/AT32F435/drivers/src/at32f435_437_tmr.c ****     crm_periph_reset(CRM_TMR11_PERIPH_RESET, FALSE);
 291              		.loc 1 106 5 view .LVU67
 292 0142 2B4C     		ldr	r4, .L32+92
 293 0144 0121     		movs	r1, #1
 294 0146 2046     		mov	r0, r4
 295              	.LVL45:
 106:HW_Lib/AT32F435/drivers/src/at32f435_437_tmr.c ****     crm_periph_reset(CRM_TMR11_PERIPH_RESET, FALSE);
 296              		.loc 1 106 5 is_stmt 0 view .LVU68
ARM GAS  C:\Users\8bit\AppData\Local\Temp\ccwaFnug.s 			page 9


 297 0148 FFF7FEFF 		bl	crm_periph_reset
 298              	.LVL46:
 107:HW_Lib/AT32F435/drivers/src/at32f435_437_tmr.c ****   }
 299              		.loc 1 107 5 is_stmt 1 view .LVU69
 300 014c 0021     		movs	r1, #0
 301 014e 2046     		mov	r0, r4
 302 0150 FFF7FEFF 		bl	crm_periph_reset
 303              	.LVL47:
 304 0154 99E7     		b	.L1
 305              	.LVL48:
 306              	.L29:
 111:HW_Lib/AT32F435/drivers/src/at32f435_437_tmr.c ****     crm_periph_reset(CRM_TMR12_PERIPH_RESET, FALSE);
 307              		.loc 1 111 5 view .LVU70
 308 0156 274C     		ldr	r4, .L32+96
 309 0158 0121     		movs	r1, #1
 310 015a 2046     		mov	r0, r4
 311              	.LVL49:
 111:HW_Lib/AT32F435/drivers/src/at32f435_437_tmr.c ****     crm_periph_reset(CRM_TMR12_PERIPH_RESET, FALSE);
 312              		.loc 1 111 5 is_stmt 0 view .LVU71
 313 015c FFF7FEFF 		bl	crm_periph_reset
 314              	.LVL50:
 112:HW_Lib/AT32F435/drivers/src/at32f435_437_tmr.c ****   }
 315              		.loc 1 112 5 is_stmt 1 view .LVU72
 316 0160 0021     		movs	r1, #0
 317 0162 2046     		mov	r0, r4
 318 0164 FFF7FEFF 		bl	crm_periph_reset
 319              	.LVL51:
 320 0168 8FE7     		b	.L1
 321              	.LVL52:
 322              	.L30:
 116:HW_Lib/AT32F435/drivers/src/at32f435_437_tmr.c ****     crm_periph_reset(CRM_TMR13_PERIPH_RESET, FALSE);
 323              		.loc 1 116 5 view .LVU73
 324 016a 234C     		ldr	r4, .L32+100
 325 016c 0121     		movs	r1, #1
 326 016e 2046     		mov	r0, r4
 327              	.LVL53:
 116:HW_Lib/AT32F435/drivers/src/at32f435_437_tmr.c ****     crm_periph_reset(CRM_TMR13_PERIPH_RESET, FALSE);
 328              		.loc 1 116 5 is_stmt 0 view .LVU74
 329 0170 FFF7FEFF 		bl	crm_periph_reset
 330              	.LVL54:
 117:HW_Lib/AT32F435/drivers/src/at32f435_437_tmr.c ****   }
 331              		.loc 1 117 5 is_stmt 1 view .LVU75
 332 0174 0021     		movs	r1, #0
 333 0176 2046     		mov	r0, r4
 334 0178 FFF7FEFF 		bl	crm_periph_reset
 335              	.LVL55:
 336 017c 85E7     		b	.L1
 337              	.LVL56:
 338              	.L31:
 121:HW_Lib/AT32F435/drivers/src/at32f435_437_tmr.c ****     crm_periph_reset(CRM_TMR14_PERIPH_RESET, FALSE);
 339              		.loc 1 121 5 view .LVU76
 340 017e 1F4C     		ldr	r4, .L32+104
 341 0180 0121     		movs	r1, #1
 342 0182 2046     		mov	r0, r4
 343              	.LVL57:
 121:HW_Lib/AT32F435/drivers/src/at32f435_437_tmr.c ****     crm_periph_reset(CRM_TMR14_PERIPH_RESET, FALSE);
 344              		.loc 1 121 5 is_stmt 0 view .LVU77
ARM GAS  C:\Users\8bit\AppData\Local\Temp\ccwaFnug.s 			page 10


 345 0184 FFF7FEFF 		bl	crm_periph_reset
 346              	.LVL58:
 122:HW_Lib/AT32F435/drivers/src/at32f435_437_tmr.c ****   }
 347              		.loc 1 122 5 is_stmt 1 view .LVU78
 348 0188 0021     		movs	r1, #0
 349 018a 2046     		mov	r0, r4
 350 018c FFF7FEFF 		bl	crm_periph_reset
 351              	.LVL59:
 352 0190 7BE7     		b	.L1
 353              	.L33:
 354 0192 00BF     		.align	2
 355              	.L32:
 356 0194 00000140 		.word	1073807360
 357 0198 00040040 		.word	1073742848
 358 019c 00080040 		.word	1073743872
 359 01a0 000C0040 		.word	1073744896
 360 01a4 00100040 		.word	1073745920
 361 01a8 00140040 		.word	1073746944
 362 01ac 00040140 		.word	1073808384
 363 01b0 00400140 		.word	1073823744
 364 01b4 00440140 		.word	1073824768
 365 01b8 00480140 		.word	1073825792
 366 01bc 00180040 		.word	1073747968
 367 01c0 001C0040 		.word	1073748992
 368 01c4 00200040 		.word	1073750016
 369 01c8 004C0140 		.word	1073826816
 370 01cc 14002400 		.word	2359316
 371 01d0 01002000 		.word	2097153
 372 01d4 02002000 		.word	2097154
 373 01d8 03002000 		.word	2097155
 374 01dc 04002000 		.word	2097156
 375 01e0 05002000 		.word	2097157
 376 01e4 01002400 		.word	2359297
 377 01e8 10002400 		.word	2359312
 378 01ec 11002400 		.word	2359313
 379 01f0 12002400 		.word	2359314
 380 01f4 06002000 		.word	2097158
 381 01f8 07002000 		.word	2097159
 382 01fc 08002000 		.word	2097160
 383              		.cfi_endproc
 384              	.LFE133:
 386              		.section	.text.tmr_counter_enable,"ax",%progbits
 387              		.align	1
 388              		.global	tmr_counter_enable
 389              		.syntax unified
 390              		.thumb
 391              		.thumb_func
 393              	tmr_counter_enable:
 394              	.LVL60:
 395              	.LFB134:
 130:HW_Lib/AT32F435/drivers/src/at32f435_437_tmr.c **** 
 131:HW_Lib/AT32F435/drivers/src/at32f435_437_tmr.c **** /**
 132:HW_Lib/AT32F435/drivers/src/at32f435_437_tmr.c ****   * @brief  enable or disable tmr counter
 133:HW_Lib/AT32F435/drivers/src/at32f435_437_tmr.c ****   * @param  tmr_x: select the tmr peripheral.
 134:HW_Lib/AT32F435/drivers/src/at32f435_437_tmr.c ****   *         this parameter can be one of the following values:
 135:HW_Lib/AT32F435/drivers/src/at32f435_437_tmr.c ****   *         TMR1, TMR2, TMR3, TMR4, TMR5, TMR6, TMR7, TMR8,
 136:HW_Lib/AT32F435/drivers/src/at32f435_437_tmr.c ****   *         TMR9, TMR10, TMR11, TMR12, TMR13, TMR14, TMR20
ARM GAS  C:\Users\8bit\AppData\Local\Temp\ccwaFnug.s 			page 11


 137:HW_Lib/AT32F435/drivers/src/at32f435_437_tmr.c ****   * @param  new_state (TRUE or FALSE)
 138:HW_Lib/AT32F435/drivers/src/at32f435_437_tmr.c ****   * @retval none
 139:HW_Lib/AT32F435/drivers/src/at32f435_437_tmr.c ****   */
 140:HW_Lib/AT32F435/drivers/src/at32f435_437_tmr.c **** void tmr_counter_enable(tmr_type *tmr_x, confirm_state new_state)
 141:HW_Lib/AT32F435/drivers/src/at32f435_437_tmr.c **** {
 396              		.loc 1 141 1 view -0
 397              		.cfi_startproc
 398              		@ args = 0, pretend = 0, frame = 0
 399              		@ frame_needed = 0, uses_anonymous_args = 0
 400              		@ link register save eliminated.
 142:HW_Lib/AT32F435/drivers/src/at32f435_437_tmr.c ****   /* tmr counter enable  */
 143:HW_Lib/AT32F435/drivers/src/at32f435_437_tmr.c ****   tmr_x->ctrl1_bit.tmren = new_state;
 401              		.loc 1 143 3 view .LVU80
 402              		.loc 1 143 26 is_stmt 0 view .LVU81
 403 0000 0368     		ldr	r3, [r0]
 404 0002 61F30003 		bfi	r3, r1, #0, #1
 405 0006 0360     		str	r3, [r0]
 144:HW_Lib/AT32F435/drivers/src/at32f435_437_tmr.c **** }
 406              		.loc 1 144 1 view .LVU82
 407 0008 7047     		bx	lr
 408              		.cfi_endproc
 409              	.LFE134:
 411              		.section	.text.tmr_output_default_para_init,"ax",%progbits
 412              		.align	1
 413              		.global	tmr_output_default_para_init
 414              		.syntax unified
 415              		.thumb
 416              		.thumb_func
 418              	tmr_output_default_para_init:
 419              	.LVL61:
 420              	.LFB135:
 145:HW_Lib/AT32F435/drivers/src/at32f435_437_tmr.c **** 
 146:HW_Lib/AT32F435/drivers/src/at32f435_437_tmr.c **** /**
 147:HW_Lib/AT32F435/drivers/src/at32f435_437_tmr.c ****   * @brief  init tmr output default para
 148:HW_Lib/AT32F435/drivers/src/at32f435_437_tmr.c ****   * @param  tmr_output_struct
 149:HW_Lib/AT32F435/drivers/src/at32f435_437_tmr.c ****   *         - to the structure of tmr_output_config_type
 150:HW_Lib/AT32F435/drivers/src/at32f435_437_tmr.c ****   * @retval none
 151:HW_Lib/AT32F435/drivers/src/at32f435_437_tmr.c ****   */
 152:HW_Lib/AT32F435/drivers/src/at32f435_437_tmr.c **** void tmr_output_default_para_init(tmr_output_config_type *tmr_output_struct)
 153:HW_Lib/AT32F435/drivers/src/at32f435_437_tmr.c **** {
 421              		.loc 1 153 1 is_stmt 1 view -0
 422              		.cfi_startproc
 423              		@ args = 0, pretend = 0, frame = 0
 424              		@ frame_needed = 0, uses_anonymous_args = 0
 425              		@ link register save eliminated.
 154:HW_Lib/AT32F435/drivers/src/at32f435_437_tmr.c ****   tmr_output_struct->oc_mode = TMR_OUTPUT_CONTROL_OFF;
 426              		.loc 1 154 3 view .LVU84
 427              		.loc 1 154 30 is_stmt 0 view .LVU85
 428 0000 0023     		movs	r3, #0
 429 0002 0370     		strb	r3, [r0]
 155:HW_Lib/AT32F435/drivers/src/at32f435_437_tmr.c ****   tmr_output_struct->oc_idle_state = FALSE;
 430              		.loc 1 155 3 is_stmt 1 view .LVU86
 431              		.loc 1 155 36 is_stmt 0 view .LVU87
 432 0004 4370     		strb	r3, [r0, #1]
 156:HW_Lib/AT32F435/drivers/src/at32f435_437_tmr.c ****   tmr_output_struct->occ_idle_state = FALSE;
 433              		.loc 1 156 3 is_stmt 1 view .LVU88
 434              		.loc 1 156 37 is_stmt 0 view .LVU89
ARM GAS  C:\Users\8bit\AppData\Local\Temp\ccwaFnug.s 			page 12


 435 0006 8370     		strb	r3, [r0, #2]
 157:HW_Lib/AT32F435/drivers/src/at32f435_437_tmr.c ****   tmr_output_struct->oc_polarity = TMR_OUTPUT_ACTIVE_HIGH;
 436              		.loc 1 157 3 is_stmt 1 view .LVU90
 437              		.loc 1 157 34 is_stmt 0 view .LVU91
 438 0008 C370     		strb	r3, [r0, #3]
 158:HW_Lib/AT32F435/drivers/src/at32f435_437_tmr.c ****   tmr_output_struct->occ_polarity = TMR_OUTPUT_ACTIVE_HIGH;
 439              		.loc 1 158 3 is_stmt 1 view .LVU92
 440              		.loc 1 158 35 is_stmt 0 view .LVU93
 441 000a 0371     		strb	r3, [r0, #4]
 159:HW_Lib/AT32F435/drivers/src/at32f435_437_tmr.c ****   tmr_output_struct->oc_output_state = FALSE;
 442              		.loc 1 159 3 is_stmt 1 view .LVU94
 443              		.loc 1 159 38 is_stmt 0 view .LVU95
 444 000c 4371     		strb	r3, [r0, #5]
 160:HW_Lib/AT32F435/drivers/src/at32f435_437_tmr.c ****   tmr_output_struct->occ_output_state = FALSE;
 445              		.loc 1 160 3 is_stmt 1 view .LVU96
 446              		.loc 1 160 39 is_stmt 0 view .LVU97
 447 000e 8371     		strb	r3, [r0, #6]
 161:HW_Lib/AT32F435/drivers/src/at32f435_437_tmr.c **** }
 448              		.loc 1 161 1 view .LVU98
 449 0010 7047     		bx	lr
 450              		.cfi_endproc
 451              	.LFE135:
 453              		.section	.text.tmr_input_default_para_init,"ax",%progbits
 454              		.align	1
 455              		.global	tmr_input_default_para_init
 456              		.syntax unified
 457              		.thumb
 458              		.thumb_func
 460              	tmr_input_default_para_init:
 461              	.LVL62:
 462              	.LFB136:
 162:HW_Lib/AT32F435/drivers/src/at32f435_437_tmr.c **** 
 163:HW_Lib/AT32F435/drivers/src/at32f435_437_tmr.c **** /**
 164:HW_Lib/AT32F435/drivers/src/at32f435_437_tmr.c ****   * @brief  init tmr input default para
 165:HW_Lib/AT32F435/drivers/src/at32f435_437_tmr.c ****   * @param  tmr_input_struct
 166:HW_Lib/AT32F435/drivers/src/at32f435_437_tmr.c ****   *         - to the structure of tmr_input_config_type
 167:HW_Lib/AT32F435/drivers/src/at32f435_437_tmr.c ****   * @retval none
 168:HW_Lib/AT32F435/drivers/src/at32f435_437_tmr.c ****   */
 169:HW_Lib/AT32F435/drivers/src/at32f435_437_tmr.c **** void tmr_input_default_para_init(tmr_input_config_type *tmr_input_struct)
 170:HW_Lib/AT32F435/drivers/src/at32f435_437_tmr.c **** {
 463              		.loc 1 170 1 is_stmt 1 view -0
 464              		.cfi_startproc
 465              		@ args = 0, pretend = 0, frame = 0
 466              		@ frame_needed = 0, uses_anonymous_args = 0
 467              		@ link register save eliminated.
 171:HW_Lib/AT32F435/drivers/src/at32f435_437_tmr.c ****   tmr_input_struct->input_channel_select = TMR_SELECT_CHANNEL_1;
 468              		.loc 1 171 3 view .LVU100
 469              		.loc 1 171 42 is_stmt 0 view .LVU101
 470 0000 0023     		movs	r3, #0
 471 0002 0370     		strb	r3, [r0]
 172:HW_Lib/AT32F435/drivers/src/at32f435_437_tmr.c ****   tmr_input_struct->input_polarity_select = TMR_INPUT_RISING_EDGE;
 472              		.loc 1 172 3 is_stmt 1 view .LVU102
 473              		.loc 1 172 43 is_stmt 0 view .LVU103
 474 0004 4370     		strb	r3, [r0, #1]
 173:HW_Lib/AT32F435/drivers/src/at32f435_437_tmr.c ****   tmr_input_struct->input_mapped_select = TMR_CC_CHANNEL_MAPPED_DIRECT;
 475              		.loc 1 173 3 is_stmt 1 view .LVU104
 476              		.loc 1 173 41 is_stmt 0 view .LVU105
ARM GAS  C:\Users\8bit\AppData\Local\Temp\ccwaFnug.s 			page 13


 477 0006 0122     		movs	r2, #1
 478 0008 8270     		strb	r2, [r0, #2]
 174:HW_Lib/AT32F435/drivers/src/at32f435_437_tmr.c ****   tmr_input_struct->input_filter_value = 0x0;
 479              		.loc 1 174 3 is_stmt 1 view .LVU106
 480              		.loc 1 174 40 is_stmt 0 view .LVU107
 481 000a C370     		strb	r3, [r0, #3]
 175:HW_Lib/AT32F435/drivers/src/at32f435_437_tmr.c **** }
 482              		.loc 1 175 1 view .LVU108
 483 000c 7047     		bx	lr
 484              		.cfi_endproc
 485              	.LFE136:
 487              		.section	.text.tmr_brkdt_default_para_init,"ax",%progbits
 488              		.align	1
 489              		.global	tmr_brkdt_default_para_init
 490              		.syntax unified
 491              		.thumb
 492              		.thumb_func
 494              	tmr_brkdt_default_para_init:
 495              	.LVL63:
 496              	.LFB137:
 176:HW_Lib/AT32F435/drivers/src/at32f435_437_tmr.c **** 
 177:HW_Lib/AT32F435/drivers/src/at32f435_437_tmr.c **** /**
 178:HW_Lib/AT32F435/drivers/src/at32f435_437_tmr.c ****   * @brief  init tmr brkdt default para
 179:HW_Lib/AT32F435/drivers/src/at32f435_437_tmr.c ****   * @param  tmr_brkdt_struct
 180:HW_Lib/AT32F435/drivers/src/at32f435_437_tmr.c ****   *         - to the structure of tmr_brkdt_config_type
 181:HW_Lib/AT32F435/drivers/src/at32f435_437_tmr.c ****   * @retval none
 182:HW_Lib/AT32F435/drivers/src/at32f435_437_tmr.c ****   */
 183:HW_Lib/AT32F435/drivers/src/at32f435_437_tmr.c **** void tmr_brkdt_default_para_init(tmr_brkdt_config_type *tmr_brkdt_struct)
 184:HW_Lib/AT32F435/drivers/src/at32f435_437_tmr.c **** {
 497              		.loc 1 184 1 is_stmt 1 view -0
 498              		.cfi_startproc
 499              		@ args = 0, pretend = 0, frame = 0
 500              		@ frame_needed = 0, uses_anonymous_args = 0
 501              		@ link register save eliminated.
 185:HW_Lib/AT32F435/drivers/src/at32f435_437_tmr.c ****   tmr_brkdt_struct->deadtime = 0x0;
 502              		.loc 1 185 3 view .LVU110
 503              		.loc 1 185 30 is_stmt 0 view .LVU111
 504 0000 0023     		movs	r3, #0
 505 0002 0370     		strb	r3, [r0]
 186:HW_Lib/AT32F435/drivers/src/at32f435_437_tmr.c ****   tmr_brkdt_struct->brk_polarity = TMR_BRK_INPUT_ACTIVE_LOW;
 506              		.loc 1 186 3 is_stmt 1 view .LVU112
 507              		.loc 1 186 34 is_stmt 0 view .LVU113
 508 0004 4370     		strb	r3, [r0, #1]
 187:HW_Lib/AT32F435/drivers/src/at32f435_437_tmr.c ****   tmr_brkdt_struct->wp_level = TMR_WP_OFF;
 509              		.loc 1 187 3 is_stmt 1 view .LVU114
 510              		.loc 1 187 30 is_stmt 0 view .LVU115
 511 0006 8370     		strb	r3, [r0, #2]
 188:HW_Lib/AT32F435/drivers/src/at32f435_437_tmr.c ****   tmr_brkdt_struct->auto_output_enable = FALSE ;
 512              		.loc 1 188 3 is_stmt 1 view .LVU116
 513              		.loc 1 188 40 is_stmt 0 view .LVU117
 514 0008 C370     		strb	r3, [r0, #3]
 189:HW_Lib/AT32F435/drivers/src/at32f435_437_tmr.c ****   tmr_brkdt_struct->fcsoen_state = FALSE ;
 515              		.loc 1 189 3 is_stmt 1 view .LVU118
 516              		.loc 1 189 34 is_stmt 0 view .LVU119
 517 000a 0371     		strb	r3, [r0, #4]
 190:HW_Lib/AT32F435/drivers/src/at32f435_437_tmr.c ****   tmr_brkdt_struct->fcsodis_state = FALSE ;
 518              		.loc 1 190 3 is_stmt 1 view .LVU120
ARM GAS  C:\Users\8bit\AppData\Local\Temp\ccwaFnug.s 			page 14


 519              		.loc 1 190 35 is_stmt 0 view .LVU121
 520 000c 4371     		strb	r3, [r0, #5]
 191:HW_Lib/AT32F435/drivers/src/at32f435_437_tmr.c ****   tmr_brkdt_struct->brk_enable = FALSE ;
 521              		.loc 1 191 3 is_stmt 1 view .LVU122
 522              		.loc 1 191 32 is_stmt 0 view .LVU123
 523 000e 8371     		strb	r3, [r0, #6]
 192:HW_Lib/AT32F435/drivers/src/at32f435_437_tmr.c **** }
 524              		.loc 1 192 1 view .LVU124
 525 0010 7047     		bx	lr
 526              		.cfi_endproc
 527              	.LFE137:
 529              		.section	.text.tmr_base_init,"ax",%progbits
 530              		.align	1
 531              		.global	tmr_base_init
 532              		.syntax unified
 533              		.thumb
 534              		.thumb_func
 536              	tmr_base_init:
 537              	.LVL64:
 538              	.LFB138:
 193:HW_Lib/AT32F435/drivers/src/at32f435_437_tmr.c **** 
 194:HW_Lib/AT32F435/drivers/src/at32f435_437_tmr.c **** /**
 195:HW_Lib/AT32F435/drivers/src/at32f435_437_tmr.c ****   * @brief  init tmr base
 196:HW_Lib/AT32F435/drivers/src/at32f435_437_tmr.c ****   * @param  tmr_x: select the tmr peripheral.
 197:HW_Lib/AT32F435/drivers/src/at32f435_437_tmr.c ****   *         this parameter can be one of the following values:
 198:HW_Lib/AT32F435/drivers/src/at32f435_437_tmr.c ****   *         TMR1, TMR2, TMR3, TMR4, TMR5, TMR6, TMR7, TMR8,
 199:HW_Lib/AT32F435/drivers/src/at32f435_437_tmr.c ****   *         TMR9, TMR10, TMR11, TMR12, TMR13, TMR14, TMR20
 200:HW_Lib/AT32F435/drivers/src/at32f435_437_tmr.c ****   * @param  tmr_pr (for 16 bit tmr 0x0000~0xFFFF,
 201:HW_Lib/AT32F435/drivers/src/at32f435_437_tmr.c ****   *                  for 32 bit tmr 0x0000_0000~0xFFFF_FFFF)
 202:HW_Lib/AT32F435/drivers/src/at32f435_437_tmr.c ****   * @param  tmr_div (timer div value:0x0000~0xFFFF)
 203:HW_Lib/AT32F435/drivers/src/at32f435_437_tmr.c ****   * @retval none
 204:HW_Lib/AT32F435/drivers/src/at32f435_437_tmr.c ****   */
 205:HW_Lib/AT32F435/drivers/src/at32f435_437_tmr.c **** void tmr_base_init(tmr_type* tmr_x, uint32_t tmr_pr, uint32_t tmr_div)
 206:HW_Lib/AT32F435/drivers/src/at32f435_437_tmr.c **** {
 539              		.loc 1 206 1 is_stmt 1 view -0
 540              		.cfi_startproc
 541              		@ args = 0, pretend = 0, frame = 0
 542              		@ frame_needed = 0, uses_anonymous_args = 0
 543              		@ link register save eliminated.
 207:HW_Lib/AT32F435/drivers/src/at32f435_437_tmr.c ****   /* set the pr value */
 208:HW_Lib/AT32F435/drivers/src/at32f435_437_tmr.c ****   tmr_x->pr = tmr_pr;
 544              		.loc 1 208 3 view .LVU126
 545              		.loc 1 208 13 is_stmt 0 view .LVU127
 546 0000 C162     		str	r1, [r0, #44]
 209:HW_Lib/AT32F435/drivers/src/at32f435_437_tmr.c **** 
 210:HW_Lib/AT32F435/drivers/src/at32f435_437_tmr.c ****   /* set the div value */
 211:HW_Lib/AT32F435/drivers/src/at32f435_437_tmr.c ****   tmr_x->div = tmr_div;
 547              		.loc 1 211 3 is_stmt 1 view .LVU128
 548              		.loc 1 211 14 is_stmt 0 view .LVU129
 549 0002 8262     		str	r2, [r0, #40]
 212:HW_Lib/AT32F435/drivers/src/at32f435_437_tmr.c **** 
 213:HW_Lib/AT32F435/drivers/src/at32f435_437_tmr.c ****   /* trigger the overflow event to immediately reload pr value and div value */
 214:HW_Lib/AT32F435/drivers/src/at32f435_437_tmr.c ****   tmr_x->swevt_bit.ovfswtr = TRUE;
 550              		.loc 1 214 3 is_stmt 1 view .LVU130
 551              		.loc 1 214 28 is_stmt 0 view .LVU131
 552 0004 4369     		ldr	r3, [r0, #20]
 553 0006 43F00103 		orr	r3, r3, #1
ARM GAS  C:\Users\8bit\AppData\Local\Temp\ccwaFnug.s 			page 15


 554 000a 4361     		str	r3, [r0, #20]
 215:HW_Lib/AT32F435/drivers/src/at32f435_437_tmr.c **** }
 555              		.loc 1 215 1 view .LVU132
 556 000c 7047     		bx	lr
 557              		.cfi_endproc
 558              	.LFE138:
 560              		.section	.text.tmr_clock_source_div_set,"ax",%progbits
 561              		.align	1
 562              		.global	tmr_clock_source_div_set
 563              		.syntax unified
 564              		.thumb
 565              		.thumb_func
 567              	tmr_clock_source_div_set:
 568              	.LVL65:
 569              	.LFB139:
 216:HW_Lib/AT32F435/drivers/src/at32f435_437_tmr.c **** 
 217:HW_Lib/AT32F435/drivers/src/at32f435_437_tmr.c **** /**
 218:HW_Lib/AT32F435/drivers/src/at32f435_437_tmr.c ****   * @brief  set tmr clock source division
 219:HW_Lib/AT32F435/drivers/src/at32f435_437_tmr.c ****   * @param  tmr_x: select the tmr peripheral.
 220:HW_Lib/AT32F435/drivers/src/at32f435_437_tmr.c ****   *         this parameter can be one of the following values:
 221:HW_Lib/AT32F435/drivers/src/at32f435_437_tmr.c ****   *         TMR1, TMR2, TMR3, TMR4, TMR5, TMR8, TMR9, TMR10,
 222:HW_Lib/AT32F435/drivers/src/at32f435_437_tmr.c ****   *         TMR11, TMR12, TMR13, TMR14, TMR20
 223:HW_Lib/AT32F435/drivers/src/at32f435_437_tmr.c ****   * @param  tmr_clock_div
 224:HW_Lib/AT32F435/drivers/src/at32f435_437_tmr.c ****   *         this parameter can be one of the following values:
 225:HW_Lib/AT32F435/drivers/src/at32f435_437_tmr.c ****   *         - TMR_CLOCK_DIV1
 226:HW_Lib/AT32F435/drivers/src/at32f435_437_tmr.c ****   *         - TMR_CLOCK_DIV2
 227:HW_Lib/AT32F435/drivers/src/at32f435_437_tmr.c ****   *         - TMR_CLOCK_DIV4
 228:HW_Lib/AT32F435/drivers/src/at32f435_437_tmr.c ****   * @retval none
 229:HW_Lib/AT32F435/drivers/src/at32f435_437_tmr.c ****   */
 230:HW_Lib/AT32F435/drivers/src/at32f435_437_tmr.c **** void tmr_clock_source_div_set(tmr_type *tmr_x, tmr_clock_division_type tmr_clock_div)
 231:HW_Lib/AT32F435/drivers/src/at32f435_437_tmr.c **** {
 570              		.loc 1 231 1 is_stmt 1 view -0
 571              		.cfi_startproc
 572              		@ args = 0, pretend = 0, frame = 0
 573              		@ frame_needed = 0, uses_anonymous_args = 0
 574              		@ link register save eliminated.
 232:HW_Lib/AT32F435/drivers/src/at32f435_437_tmr.c ****   /* set tmr clock source division */
 233:HW_Lib/AT32F435/drivers/src/at32f435_437_tmr.c ****   tmr_x->ctrl1_bit.clkdiv = tmr_clock_div;
 575              		.loc 1 233 3 view .LVU134
 576              		.loc 1 233 27 is_stmt 0 view .LVU135
 577 0000 0368     		ldr	r3, [r0]
 578 0002 61F30923 		bfi	r3, r1, #8, #2
 579 0006 0360     		str	r3, [r0]
 234:HW_Lib/AT32F435/drivers/src/at32f435_437_tmr.c **** }
 580              		.loc 1 234 1 view .LVU136
 581 0008 7047     		bx	lr
 582              		.cfi_endproc
 583              	.LFE139:
 585              		.section	.text.tmr_cnt_dir_set,"ax",%progbits
 586              		.align	1
 587              		.global	tmr_cnt_dir_set
 588              		.syntax unified
 589              		.thumb
 590              		.thumb_func
 592              	tmr_cnt_dir_set:
 593              	.LVL66:
 594              	.LFB140:
ARM GAS  C:\Users\8bit\AppData\Local\Temp\ccwaFnug.s 			page 16


 235:HW_Lib/AT32F435/drivers/src/at32f435_437_tmr.c **** 
 236:HW_Lib/AT32F435/drivers/src/at32f435_437_tmr.c **** /**
 237:HW_Lib/AT32F435/drivers/src/at32f435_437_tmr.c ****   * @brief  set tmr counter count direction
 238:HW_Lib/AT32F435/drivers/src/at32f435_437_tmr.c ****   * @param  tmr_x: select the tmr peripheral.
 239:HW_Lib/AT32F435/drivers/src/at32f435_437_tmr.c ****   *         this parameter can be one of the following values:
 240:HW_Lib/AT32F435/drivers/src/at32f435_437_tmr.c ****   *         TMR1, TMR2, TMR3, TMR4, TMR5, TMR8, TMR9, TMR10,
 241:HW_Lib/AT32F435/drivers/src/at32f435_437_tmr.c ****   *         TMR11, TMR12, TMR13, TMR14, TMR20
 242:HW_Lib/AT32F435/drivers/src/at32f435_437_tmr.c ****   * @param  tmr_cnt_dir
 243:HW_Lib/AT32F435/drivers/src/at32f435_437_tmr.c ****   *         this parameter can be one of the following values:
 244:HW_Lib/AT32F435/drivers/src/at32f435_437_tmr.c ****   *         - TMR_COUNT_UP
 245:HW_Lib/AT32F435/drivers/src/at32f435_437_tmr.c ****   *         - TMR_COUNT_DOWN
 246:HW_Lib/AT32F435/drivers/src/at32f435_437_tmr.c ****   *         - TMR_COUNT_TWO_WAY_1
 247:HW_Lib/AT32F435/drivers/src/at32f435_437_tmr.c ****   *         - TMR_COUNT_TWO_WAY_2
 248:HW_Lib/AT32F435/drivers/src/at32f435_437_tmr.c ****   *         - TMR_COUNT_TWO_WAY_3
 249:HW_Lib/AT32F435/drivers/src/at32f435_437_tmr.c ****   * @retval none
 250:HW_Lib/AT32F435/drivers/src/at32f435_437_tmr.c ****   */
 251:HW_Lib/AT32F435/drivers/src/at32f435_437_tmr.c **** void tmr_cnt_dir_set(tmr_type *tmr_x, tmr_count_mode_type tmr_cnt_dir)
 252:HW_Lib/AT32F435/drivers/src/at32f435_437_tmr.c **** {
 595              		.loc 1 252 1 is_stmt 1 view -0
 596              		.cfi_startproc
 597              		@ args = 0, pretend = 0, frame = 0
 598              		@ frame_needed = 0, uses_anonymous_args = 0
 599              		@ link register save eliminated.
 253:HW_Lib/AT32F435/drivers/src/at32f435_437_tmr.c ****   /* set the cnt direct */
 254:HW_Lib/AT32F435/drivers/src/at32f435_437_tmr.c ****   tmr_x->ctrl1_bit.cnt_dir = tmr_cnt_dir;
 600              		.loc 1 254 3 view .LVU138
 601              		.loc 1 254 28 is_stmt 0 view .LVU139
 602 0000 0368     		ldr	r3, [r0]
 603 0002 61F30613 		bfi	r3, r1, #4, #3
 604 0006 0360     		str	r3, [r0]
 255:HW_Lib/AT32F435/drivers/src/at32f435_437_tmr.c **** }
 605              		.loc 1 255 1 view .LVU140
 606 0008 7047     		bx	lr
 607              		.cfi_endproc
 608              	.LFE140:
 610              		.section	.text.tmr_repetition_counter_set,"ax",%progbits
 611              		.align	1
 612              		.global	tmr_repetition_counter_set
 613              		.syntax unified
 614              		.thumb
 615              		.thumb_func
 617              	tmr_repetition_counter_set:
 618              	.LVL67:
 619              	.LFB141:
 256:HW_Lib/AT32F435/drivers/src/at32f435_437_tmr.c **** 
 257:HW_Lib/AT32F435/drivers/src/at32f435_437_tmr.c **** /**
 258:HW_Lib/AT32F435/drivers/src/at32f435_437_tmr.c ****   * @brief  set the repetition counter register(rpr) value
 259:HW_Lib/AT32F435/drivers/src/at32f435_437_tmr.c ****   * @param  tmr_x: select the tmr peripheral.
 260:HW_Lib/AT32F435/drivers/src/at32f435_437_tmr.c ****   *         this parameter can be one of the following values:
 261:HW_Lib/AT32F435/drivers/src/at32f435_437_tmr.c ****   *         TMR1, TMR8, TMR20
 262:HW_Lib/AT32F435/drivers/src/at32f435_437_tmr.c ****   * @param  tmr_rpr_value (0x0000~0xFFFF)
 263:HW_Lib/AT32F435/drivers/src/at32f435_437_tmr.c ****   * @retval none
 264:HW_Lib/AT32F435/drivers/src/at32f435_437_tmr.c ****   */
 265:HW_Lib/AT32F435/drivers/src/at32f435_437_tmr.c **** void tmr_repetition_counter_set(tmr_type *tmr_x, uint8_t tmr_rpr_value)
 266:HW_Lib/AT32F435/drivers/src/at32f435_437_tmr.c **** {
 620              		.loc 1 266 1 is_stmt 1 view -0
 621              		.cfi_startproc
ARM GAS  C:\Users\8bit\AppData\Local\Temp\ccwaFnug.s 			page 17


 622              		@ args = 0, pretend = 0, frame = 0
 623              		@ frame_needed = 0, uses_anonymous_args = 0
 624              		@ link register save eliminated.
 267:HW_Lib/AT32F435/drivers/src/at32f435_437_tmr.c ****   /* set the repetition counter value */
 268:HW_Lib/AT32F435/drivers/src/at32f435_437_tmr.c ****   tmr_x->rpr_bit.rpr = tmr_rpr_value;
 625              		.loc 1 268 3 view .LVU142
 626              		.loc 1 268 22 is_stmt 0 view .LVU143
 627 0000 036B     		ldr	r3, [r0, #48]
 628 0002 61F30F03 		bfi	r3, r1, #0, #16
 629 0006 0363     		str	r3, [r0, #48]
 269:HW_Lib/AT32F435/drivers/src/at32f435_437_tmr.c **** }
 630              		.loc 1 269 1 view .LVU144
 631 0008 7047     		bx	lr
 632              		.cfi_endproc
 633              	.LFE141:
 635              		.section	.text.tmr_counter_value_set,"ax",%progbits
 636              		.align	1
 637              		.global	tmr_counter_value_set
 638              		.syntax unified
 639              		.thumb
 640              		.thumb_func
 642              	tmr_counter_value_set:
 643              	.LVL68:
 644              	.LFB142:
 270:HW_Lib/AT32F435/drivers/src/at32f435_437_tmr.c **** 
 271:HW_Lib/AT32F435/drivers/src/at32f435_437_tmr.c **** /**
 272:HW_Lib/AT32F435/drivers/src/at32f435_437_tmr.c ****   * @brief  set tmr counter value
 273:HW_Lib/AT32F435/drivers/src/at32f435_437_tmr.c ****   * @param  tmr_x: select the tmr peripheral.
 274:HW_Lib/AT32F435/drivers/src/at32f435_437_tmr.c ****   *         this parameter can be one of the following values:
 275:HW_Lib/AT32F435/drivers/src/at32f435_437_tmr.c ****   *         TMR1, TMR2, TMR3, TMR4, TMR5, TMR6, TMR7, TMR8,
 276:HW_Lib/AT32F435/drivers/src/at32f435_437_tmr.c ****   *         TMR9, TMR10, TMR11, TMR12, TMR13, TMR14, TMR20
 277:HW_Lib/AT32F435/drivers/src/at32f435_437_tmr.c ****   * @param  tmr_cnt_value (for 16 bit tmr 0x0000~0xFFFF,
 278:HW_Lib/AT32F435/drivers/src/at32f435_437_tmr.c ****   *                        for 32 bit tmr 0x0000_0000~0xFFFF_FFFF)
 279:HW_Lib/AT32F435/drivers/src/at32f435_437_tmr.c ****   * @retval none
 280:HW_Lib/AT32F435/drivers/src/at32f435_437_tmr.c ****   */
 281:HW_Lib/AT32F435/drivers/src/at32f435_437_tmr.c **** void tmr_counter_value_set(tmr_type *tmr_x, uint32_t tmr_cnt_value)
 282:HW_Lib/AT32F435/drivers/src/at32f435_437_tmr.c **** {
 645              		.loc 1 282 1 is_stmt 1 view -0
 646              		.cfi_startproc
 647              		@ args = 0, pretend = 0, frame = 0
 648              		@ frame_needed = 0, uses_anonymous_args = 0
 649              		@ link register save eliminated.
 283:HW_Lib/AT32F435/drivers/src/at32f435_437_tmr.c ****   /* set the tmr counter value */
 284:HW_Lib/AT32F435/drivers/src/at32f435_437_tmr.c ****   tmr_x->cval = tmr_cnt_value;
 650              		.loc 1 284 3 view .LVU146
 651              		.loc 1 284 15 is_stmt 0 view .LVU147
 652 0000 4162     		str	r1, [r0, #36]
 285:HW_Lib/AT32F435/drivers/src/at32f435_437_tmr.c **** }
 653              		.loc 1 285 1 view .LVU148
 654 0002 7047     		bx	lr
 655              		.cfi_endproc
 656              	.LFE142:
 658              		.section	.text.tmr_counter_value_get,"ax",%progbits
 659              		.align	1
 660              		.global	tmr_counter_value_get
 661              		.syntax unified
 662              		.thumb
ARM GAS  C:\Users\8bit\AppData\Local\Temp\ccwaFnug.s 			page 18


 663              		.thumb_func
 665              	tmr_counter_value_get:
 666              	.LVL69:
 667              	.LFB143:
 286:HW_Lib/AT32F435/drivers/src/at32f435_437_tmr.c **** 
 287:HW_Lib/AT32F435/drivers/src/at32f435_437_tmr.c **** /**
 288:HW_Lib/AT32F435/drivers/src/at32f435_437_tmr.c ****   * @brief  get tmr counter value
 289:HW_Lib/AT32F435/drivers/src/at32f435_437_tmr.c ****   * @param  tmr_x: select the tmr peripheral.
 290:HW_Lib/AT32F435/drivers/src/at32f435_437_tmr.c ****   *         this parameter can be one of the following values:
 291:HW_Lib/AT32F435/drivers/src/at32f435_437_tmr.c ****   *         TMR1, TMR2, TMR3, TMR4, TMR5, TMR6, TMR7, TMR8,
 292:HW_Lib/AT32F435/drivers/src/at32f435_437_tmr.c ****   *         TMR9, TMR10, TMR11, TMR12, TMR13, TMR14, TMR20
 293:HW_Lib/AT32F435/drivers/src/at32f435_437_tmr.c ****   * @retval tmr counter value
 294:HW_Lib/AT32F435/drivers/src/at32f435_437_tmr.c ****   */
 295:HW_Lib/AT32F435/drivers/src/at32f435_437_tmr.c **** uint32_t tmr_counter_value_get(tmr_type *tmr_x)
 296:HW_Lib/AT32F435/drivers/src/at32f435_437_tmr.c **** {
 668              		.loc 1 296 1 is_stmt 1 view -0
 669              		.cfi_startproc
 670              		@ args = 0, pretend = 0, frame = 0
 671              		@ frame_needed = 0, uses_anonymous_args = 0
 672              		@ link register save eliminated.
 297:HW_Lib/AT32F435/drivers/src/at32f435_437_tmr.c ****   return tmr_x->cval;
 673              		.loc 1 297 3 view .LVU150
 674              		.loc 1 297 15 is_stmt 0 view .LVU151
 675 0000 406A     		ldr	r0, [r0, #36]
 676              	.LVL70:
 298:HW_Lib/AT32F435/drivers/src/at32f435_437_tmr.c **** }
 677              		.loc 1 298 1 view .LVU152
 678 0002 7047     		bx	lr
 679              		.cfi_endproc
 680              	.LFE143:
 682              		.section	.text.tmr_div_value_set,"ax",%progbits
 683              		.align	1
 684              		.global	tmr_div_value_set
 685              		.syntax unified
 686              		.thumb
 687              		.thumb_func
 689              	tmr_div_value_set:
 690              	.LVL71:
 691              	.LFB144:
 299:HW_Lib/AT32F435/drivers/src/at32f435_437_tmr.c **** 
 300:HW_Lib/AT32F435/drivers/src/at32f435_437_tmr.c **** /**
 301:HW_Lib/AT32F435/drivers/src/at32f435_437_tmr.c ****   * @brief  set tmr div value
 302:HW_Lib/AT32F435/drivers/src/at32f435_437_tmr.c ****   * @param  tmr_x: select the tmr peripheral.
 303:HW_Lib/AT32F435/drivers/src/at32f435_437_tmr.c ****   *         this parameter can be one of the following values:
 304:HW_Lib/AT32F435/drivers/src/at32f435_437_tmr.c ****   *         TMR1, TMR2, TMR3, TMR4, TMR5, TMR6, TMR7, TMR8,
 305:HW_Lib/AT32F435/drivers/src/at32f435_437_tmr.c ****   *         TMR9, TMR10, TMR11, TMR12, TMR13, TMR14, TMR20
 306:HW_Lib/AT32F435/drivers/src/at32f435_437_tmr.c ****   * @param  tmr_div_value (for 16 bit tmr 0x0000~0xFFFF,
 307:HW_Lib/AT32F435/drivers/src/at32f435_437_tmr.c ****   *                        for 32 bit tmr 0x0000_0000~0xFFFF_FFFF)
 308:HW_Lib/AT32F435/drivers/src/at32f435_437_tmr.c ****   * @retval none
 309:HW_Lib/AT32F435/drivers/src/at32f435_437_tmr.c ****   */
 310:HW_Lib/AT32F435/drivers/src/at32f435_437_tmr.c **** void tmr_div_value_set(tmr_type *tmr_x, uint32_t tmr_div_value)
 311:HW_Lib/AT32F435/drivers/src/at32f435_437_tmr.c **** {
 692              		.loc 1 311 1 is_stmt 1 view -0
 693              		.cfi_startproc
 694              		@ args = 0, pretend = 0, frame = 0
 695              		@ frame_needed = 0, uses_anonymous_args = 0
 696              		@ link register save eliminated.
ARM GAS  C:\Users\8bit\AppData\Local\Temp\ccwaFnug.s 			page 19


 312:HW_Lib/AT32F435/drivers/src/at32f435_437_tmr.c ****   /* set the tmr div value */
 313:HW_Lib/AT32F435/drivers/src/at32f435_437_tmr.c ****   tmr_x->div = tmr_div_value;
 697              		.loc 1 313 3 view .LVU154
 698              		.loc 1 313 14 is_stmt 0 view .LVU155
 699 0000 8162     		str	r1, [r0, #40]
 314:HW_Lib/AT32F435/drivers/src/at32f435_437_tmr.c **** }
 700              		.loc 1 314 1 view .LVU156
 701 0002 7047     		bx	lr
 702              		.cfi_endproc
 703              	.LFE144:
 705              		.section	.text.tmr_div_value_get,"ax",%progbits
 706              		.align	1
 707              		.global	tmr_div_value_get
 708              		.syntax unified
 709              		.thumb
 710              		.thumb_func
 712              	tmr_div_value_get:
 713              	.LVL72:
 714              	.LFB145:
 315:HW_Lib/AT32F435/drivers/src/at32f435_437_tmr.c **** 
 316:HW_Lib/AT32F435/drivers/src/at32f435_437_tmr.c **** /**
 317:HW_Lib/AT32F435/drivers/src/at32f435_437_tmr.c ****   * @brief  get tmr div value
 318:HW_Lib/AT32F435/drivers/src/at32f435_437_tmr.c ****   * @param  tmr_x: select the tmr peripheral.
 319:HW_Lib/AT32F435/drivers/src/at32f435_437_tmr.c ****   *         this parameter can be one of the following values:
 320:HW_Lib/AT32F435/drivers/src/at32f435_437_tmr.c ****   *         TMR1, TMR2, TMR3, TMR4, TMR5, TMR6, TMR7, TMR8,
 321:HW_Lib/AT32F435/drivers/src/at32f435_437_tmr.c ****   *         TMR9, TMR10, TMR11, TMR12, TMR13, TMR14, TMR20
 322:HW_Lib/AT32F435/drivers/src/at32f435_437_tmr.c ****   * @retval tmr div value
 323:HW_Lib/AT32F435/drivers/src/at32f435_437_tmr.c ****   */
 324:HW_Lib/AT32F435/drivers/src/at32f435_437_tmr.c **** uint32_t tmr_div_value_get(tmr_type *tmr_x)
 325:HW_Lib/AT32F435/drivers/src/at32f435_437_tmr.c **** {
 715              		.loc 1 325 1 is_stmt 1 view -0
 716              		.cfi_startproc
 717              		@ args = 0, pretend = 0, frame = 0
 718              		@ frame_needed = 0, uses_anonymous_args = 0
 719              		@ link register save eliminated.
 326:HW_Lib/AT32F435/drivers/src/at32f435_437_tmr.c ****   return tmr_x->div;
 720              		.loc 1 326 3 view .LVU158
 721              		.loc 1 326 15 is_stmt 0 view .LVU159
 722 0000 806A     		ldr	r0, [r0, #40]
 723              	.LVL73:
 327:HW_Lib/AT32F435/drivers/src/at32f435_437_tmr.c **** }
 724              		.loc 1 327 1 view .LVU160
 725 0002 7047     		bx	lr
 726              		.cfi_endproc
 727              	.LFE145:
 729              		.section	.text.tmr_output_channel_config,"ax",%progbits
 730              		.align	1
 731              		.global	tmr_output_channel_config
 732              		.syntax unified
 733              		.thumb
 734              		.thumb_func
 736              	tmr_output_channel_config:
 737              	.LVL74:
 738              	.LFB146:
 328:HW_Lib/AT32F435/drivers/src/at32f435_437_tmr.c **** 
 329:HW_Lib/AT32F435/drivers/src/at32f435_437_tmr.c **** /**
 330:HW_Lib/AT32F435/drivers/src/at32f435_437_tmr.c ****   * @brief  config tmr output channel
ARM GAS  C:\Users\8bit\AppData\Local\Temp\ccwaFnug.s 			page 20


 331:HW_Lib/AT32F435/drivers/src/at32f435_437_tmr.c ****   * @param  tmr_x: select the tmr peripheral.
 332:HW_Lib/AT32F435/drivers/src/at32f435_437_tmr.c ****   *         this parameter can be one of the following values:
 333:HW_Lib/AT32F435/drivers/src/at32f435_437_tmr.c ****   *         TMR1, TMR2, TMR3, TMR4, TMR5, TMR8, TMR9, TMR10,
 334:HW_Lib/AT32F435/drivers/src/at32f435_437_tmr.c ****   *         TMR11, TMR12, TMR13, TMR14, TMR20
 335:HW_Lib/AT32F435/drivers/src/at32f435_437_tmr.c ****   * @param  tmr_channel
 336:HW_Lib/AT32F435/drivers/src/at32f435_437_tmr.c ****   *         this parameter can be one of the following values:
 337:HW_Lib/AT32F435/drivers/src/at32f435_437_tmr.c ****   *         - TMR_SELECT_CHANNEL_1
 338:HW_Lib/AT32F435/drivers/src/at32f435_437_tmr.c ****   *         - TMR_SELECT_CHANNEL_2
 339:HW_Lib/AT32F435/drivers/src/at32f435_437_tmr.c ****   *         - TMR_SELECT_CHANNEL_3
 340:HW_Lib/AT32F435/drivers/src/at32f435_437_tmr.c ****   *         - TMR_SELECT_CHANNEL_4
 341:HW_Lib/AT32F435/drivers/src/at32f435_437_tmr.c ****   *         - TMR_SELECT_CHANNEL_5
 342:HW_Lib/AT32F435/drivers/src/at32f435_437_tmr.c ****   * @param  tmr_output_struct
 343:HW_Lib/AT32F435/drivers/src/at32f435_437_tmr.c ****   *         - to the structure of tmr_output_config_type
 344:HW_Lib/AT32F435/drivers/src/at32f435_437_tmr.c ****   * @retval none
 345:HW_Lib/AT32F435/drivers/src/at32f435_437_tmr.c ****   */
 346:HW_Lib/AT32F435/drivers/src/at32f435_437_tmr.c **** void tmr_output_channel_config(tmr_type *tmr_x, tmr_channel_select_type tmr_channel, \
 347:HW_Lib/AT32F435/drivers/src/at32f435_437_tmr.c ****                                tmr_output_config_type *tmr_output_struct)
 348:HW_Lib/AT32F435/drivers/src/at32f435_437_tmr.c **** {
 739              		.loc 1 348 1 is_stmt 1 view -0
 740              		.cfi_startproc
 741              		@ args = 0, pretend = 0, frame = 0
 742              		@ frame_needed = 0, uses_anonymous_args = 0
 743              		.loc 1 348 1 is_stmt 0 view .LVU162
 744 0000 F0B5     		push	{r4, r5, r6, r7, lr}
 745              	.LCFI1:
 746              		.cfi_def_cfa_offset 20
 747              		.cfi_offset 4, -20
 748              		.cfi_offset 5, -16
 749              		.cfi_offset 6, -12
 750              		.cfi_offset 7, -8
 751              		.cfi_offset 14, -4
 349:HW_Lib/AT32F435/drivers/src/at32f435_437_tmr.c ****   uint16_t channel_index = 0, channel_c_index = 0, channel = 0, chx_offset, chcx_offset;
 752              		.loc 1 349 3 is_stmt 1 view .LVU163
 753              	.LVL75:
 350:HW_Lib/AT32F435/drivers/src/at32f435_437_tmr.c **** 
 351:HW_Lib/AT32F435/drivers/src/at32f435_437_tmr.c ****   chx_offset = (8 + tmr_channel);
 754              		.loc 1 351 3 view .LVU164
 755              		.loc 1 351 19 is_stmt 0 view .LVU165
 756 0002 1FFA81FC 		uxth	ip, r1
 757              		.loc 1 351 14 view .LVU166
 758 0006 01F1080E 		add	lr, r1, #8
 759              	.LVL76:
 352:HW_Lib/AT32F435/drivers/src/at32f435_437_tmr.c ****   chcx_offset = (9 + tmr_channel);
 760              		.loc 1 352 3 is_stmt 1 view .LVU167
 761              		.loc 1 352 15 is_stmt 0 view .LVU168
 762 000a 01F10906 		add	r6, r1, #9
 763              	.LVL77:
 353:HW_Lib/AT32F435/drivers/src/at32f435_437_tmr.c ****   
 354:HW_Lib/AT32F435/drivers/src/at32f435_437_tmr.c ****   /* get channel idle state bit position in ctrl2 register */
 355:HW_Lib/AT32F435/drivers/src/at32f435_437_tmr.c ****   channel_index = (uint16_t)(tmr_output_struct->oc_idle_state << chx_offset);
 764              		.loc 1 355 3 is_stmt 1 view .LVU169
 765              		.loc 1 355 47 is_stmt 0 view .LVU170
 766 000e 5478     		ldrb	r4, [r2, #1]	@ zero_extendqisi2
 767              		.loc 1 355 63 view .LVU171
 768 0010 04FA0EF7 		lsl	r7, r4, lr
 769              	.LVL78:
 356:HW_Lib/AT32F435/drivers/src/at32f435_437_tmr.c **** 
ARM GAS  C:\Users\8bit\AppData\Local\Temp\ccwaFnug.s 			page 21


 357:HW_Lib/AT32F435/drivers/src/at32f435_437_tmr.c ****   /* get channel complementary idle state bit position in ctrl2 register */
 358:HW_Lib/AT32F435/drivers/src/at32f435_437_tmr.c ****   channel_c_index = (uint16_t)(tmr_output_struct->occ_idle_state << chcx_offset);
 770              		.loc 1 358 3 is_stmt 1 view .LVU172
 771              		.loc 1 358 49 is_stmt 0 view .LVU173
 772 0014 9478     		ldrb	r4, [r2, #2]	@ zero_extendqisi2
 773              		.loc 1 358 66 view .LVU174
 774 0016 B440     		lsls	r4, r4, r6
 775              	.LVL79:
 359:HW_Lib/AT32F435/drivers/src/at32f435_437_tmr.c **** 
 360:HW_Lib/AT32F435/drivers/src/at32f435_437_tmr.c ****   /* set output channel complementary idle state */
 361:HW_Lib/AT32F435/drivers/src/at32f435_437_tmr.c ****   tmr_x->ctrl2 &= ~(1<<chcx_offset);
 776              		.loc 1 361 3 is_stmt 1 view .LVU175
 777              		.loc 1 361 16 is_stmt 0 view .LVU176
 778 0018 4368     		ldr	r3, [r0, #4]
 779              		.loc 1 361 22 view .LVU177
 780 001a 0125     		movs	r5, #1
 781 001c 05FA06F6 		lsl	r6, r5, r6
 782              	.LVL80:
 783              		.loc 1 361 16 view .LVU178
 784 0020 23EA0606 		bic	r6, r3, r6
 785 0024 4660     		str	r6, [r0, #4]
 362:HW_Lib/AT32F435/drivers/src/at32f435_437_tmr.c ****   tmr_x->ctrl2 |= channel_c_index;
 786              		.loc 1 362 3 is_stmt 1 view .LVU179
 787              		.loc 1 362 16 is_stmt 0 view .LVU180
 788 0026 4368     		ldr	r3, [r0, #4]
 789 0028 A4B2     		uxth	r4, r4
 790              		.loc 1 362 16 view .LVU181
 791 002a 1C43     		orrs	r4, r4, r3
 792              	.LVL81:
 793              		.loc 1 362 16 view .LVU182
 794 002c 4460     		str	r4, [r0, #4]
 363:HW_Lib/AT32F435/drivers/src/at32f435_437_tmr.c **** 
 364:HW_Lib/AT32F435/drivers/src/at32f435_437_tmr.c ****   /* set output channel idle state */
 365:HW_Lib/AT32F435/drivers/src/at32f435_437_tmr.c ****   tmr_x->ctrl2 &= ~(1<<chx_offset);
 795              		.loc 1 365 3 is_stmt 1 view .LVU183
 796              		.loc 1 365 16 is_stmt 0 view .LVU184
 797 002e 4368     		ldr	r3, [r0, #4]
 798              		.loc 1 365 22 view .LVU185
 799 0030 05FA0EF5 		lsl	r5, r5, lr
 800              		.loc 1 365 16 view .LVU186
 801 0034 23EA0505 		bic	r5, r3, r5
 802 0038 4560     		str	r5, [r0, #4]
 366:HW_Lib/AT32F435/drivers/src/at32f435_437_tmr.c ****   tmr_x->ctrl2 |= channel_index;
 803              		.loc 1 366 3 is_stmt 1 view .LVU187
 804              		.loc 1 366 16 is_stmt 0 view .LVU188
 805 003a 4368     		ldr	r3, [r0, #4]
 806 003c BCB2     		uxth	r4, r7
 807 003e 1C43     		orrs	r4, r4, r3
 808 0040 4460     		str	r4, [r0, #4]
 367:HW_Lib/AT32F435/drivers/src/at32f435_437_tmr.c **** 
 368:HW_Lib/AT32F435/drivers/src/at32f435_437_tmr.c ****   /* set channel output mode */
 369:HW_Lib/AT32F435/drivers/src/at32f435_437_tmr.c ****   channel = tmr_channel;
 809              		.loc 1 369 3 is_stmt 1 view .LVU189
 810              	.LVL82:
 370:HW_Lib/AT32F435/drivers/src/at32f435_437_tmr.c **** 
 371:HW_Lib/AT32F435/drivers/src/at32f435_437_tmr.c ****   switch(channel)
 811              		.loc 1 371 3 view .LVU190
ARM GAS  C:\Users\8bit\AppData\Local\Temp\ccwaFnug.s 			page 22


 812 0042 0729     		cmp	r1, #7
 813 0044 0AD8     		bhi	.L47
 814 0046 DFE801F0 		tbb	[pc, r1]
 815              	.L49:
 816 004a 04       		.byte	(.L53-.L49)/2
 817 004b 09       		.byte	(.L47-.L49)/2
 818 004c 43       		.byte	(.L52-.L49)/2
 819 004d 09       		.byte	(.L47-.L49)/2
 820 004e 49       		.byte	(.L51-.L49)/2
 821 004f 09       		.byte	(.L47-.L49)/2
 822 0050 4F       		.byte	(.L50-.L49)/2
 823 0051 55       		.byte	(.L48-.L49)/2
 824              		.p2align 1
 825              	.L53:
 372:HW_Lib/AT32F435/drivers/src/at32f435_437_tmr.c ****   {
 373:HW_Lib/AT32F435/drivers/src/at32f435_437_tmr.c ****     case TMR_SELECT_CHANNEL_1:
 374:HW_Lib/AT32F435/drivers/src/at32f435_437_tmr.c ****       tmr_x->cm1_output_bit.c1octrl = tmr_output_struct->oc_mode;
 826              		.loc 1 374 7 view .LVU191
 827              		.loc 1 374 56 is_stmt 0 view .LVU192
 828 0052 1478     		ldrb	r4, [r2]	@ zero_extendqisi2
 829              		.loc 1 374 37 view .LVU193
 830 0054 8369     		ldr	r3, [r0, #24]
 831 0056 64F30613 		bfi	r3, r4, #4, #3
 832 005a 8361     		str	r3, [r0, #24]
 375:HW_Lib/AT32F435/drivers/src/at32f435_437_tmr.c ****       break;
 833              		.loc 1 375 7 is_stmt 1 view .LVU194
 834              	.L47:
 376:HW_Lib/AT32F435/drivers/src/at32f435_437_tmr.c **** 
 377:HW_Lib/AT32F435/drivers/src/at32f435_437_tmr.c ****     case TMR_SELECT_CHANNEL_2:
 378:HW_Lib/AT32F435/drivers/src/at32f435_437_tmr.c ****       tmr_x->cm1_output_bit.c2octrl = tmr_output_struct->oc_mode;
 379:HW_Lib/AT32F435/drivers/src/at32f435_437_tmr.c ****       break;
 380:HW_Lib/AT32F435/drivers/src/at32f435_437_tmr.c **** 
 381:HW_Lib/AT32F435/drivers/src/at32f435_437_tmr.c ****     case TMR_SELECT_CHANNEL_3:
 382:HW_Lib/AT32F435/drivers/src/at32f435_437_tmr.c ****       tmr_x->cm2_output_bit.c3octrl = tmr_output_struct->oc_mode;
 383:HW_Lib/AT32F435/drivers/src/at32f435_437_tmr.c ****       break;
 384:HW_Lib/AT32F435/drivers/src/at32f435_437_tmr.c **** 
 385:HW_Lib/AT32F435/drivers/src/at32f435_437_tmr.c ****     case TMR_SELECT_CHANNEL_4:
 386:HW_Lib/AT32F435/drivers/src/at32f435_437_tmr.c ****       tmr_x->cm2_output_bit.c4octrl = tmr_output_struct->oc_mode;
 387:HW_Lib/AT32F435/drivers/src/at32f435_437_tmr.c ****       break;
 388:HW_Lib/AT32F435/drivers/src/at32f435_437_tmr.c **** 
 389:HW_Lib/AT32F435/drivers/src/at32f435_437_tmr.c ****     case TMR_SELECT_CHANNEL_5:
 390:HW_Lib/AT32F435/drivers/src/at32f435_437_tmr.c ****       tmr_x->cm3_output_bit.c5octrl = tmr_output_struct->oc_mode;
 391:HW_Lib/AT32F435/drivers/src/at32f435_437_tmr.c ****       break;
 392:HW_Lib/AT32F435/drivers/src/at32f435_437_tmr.c **** 
 393:HW_Lib/AT32F435/drivers/src/at32f435_437_tmr.c ****     default:
 394:HW_Lib/AT32F435/drivers/src/at32f435_437_tmr.c ****       break;
 395:HW_Lib/AT32F435/drivers/src/at32f435_437_tmr.c ****   }
 396:HW_Lib/AT32F435/drivers/src/at32f435_437_tmr.c **** 
 397:HW_Lib/AT32F435/drivers/src/at32f435_437_tmr.c ****   chx_offset = ((tmr_channel * 2) + 1);
 835              		.loc 1 397 3 view .LVU195
 836              		.loc 1 397 35 is_stmt 0 view .LVU196
 837 005c 4FEA4C0C 		lsl	ip, ip, #1
 838              	.LVL83:
 839              		.loc 1 397 14 view .LVU197
 840 0060 0CF10106 		add	r6, ip, #1
 841              	.LVL84:
 398:HW_Lib/AT32F435/drivers/src/at32f435_437_tmr.c ****   chcx_offset = ((tmr_channel * 2) + 3);
ARM GAS  C:\Users\8bit\AppData\Local\Temp\ccwaFnug.s 			page 23


 842              		.loc 1 398 3 is_stmt 1 view .LVU198
 843              		.loc 1 398 15 is_stmt 0 view .LVU199
 844 0064 0CF10305 		add	r5, ip, #3
 845              	.LVL85:
 399:HW_Lib/AT32F435/drivers/src/at32f435_437_tmr.c **** 
 400:HW_Lib/AT32F435/drivers/src/at32f435_437_tmr.c ****   /* get channel polarity bit position in cctrl register */
 401:HW_Lib/AT32F435/drivers/src/at32f435_437_tmr.c ****   channel_index = (uint16_t)(tmr_output_struct->oc_polarity << chx_offset);
 846              		.loc 1 401 3 is_stmt 1 view .LVU200
 847              		.loc 1 401 47 is_stmt 0 view .LVU201
 848 0068 D378     		ldrb	r3, [r2, #3]	@ zero_extendqisi2
 849              		.loc 1 401 61 view .LVU202
 850 006a B340     		lsls	r3, r3, r6
 851              	.LVL86:
 402:HW_Lib/AT32F435/drivers/src/at32f435_437_tmr.c **** 
 403:HW_Lib/AT32F435/drivers/src/at32f435_437_tmr.c ****   /* get channel complementary polarity bit position in cctrl register */
 404:HW_Lib/AT32F435/drivers/src/at32f435_437_tmr.c ****   channel_c_index = (uint16_t)(tmr_output_struct->occ_polarity << chcx_offset);
 852              		.loc 1 404 3 is_stmt 1 view .LVU203
 853              		.loc 1 404 49 is_stmt 0 view .LVU204
 854 006c 1479     		ldrb	r4, [r2, #4]	@ zero_extendqisi2
 855              		.loc 1 404 64 view .LVU205
 856 006e AC40     		lsls	r4, r4, r5
 857              	.LVL87:
 405:HW_Lib/AT32F435/drivers/src/at32f435_437_tmr.c **** 
 406:HW_Lib/AT32F435/drivers/src/at32f435_437_tmr.c ****   /* set output channel complementary polarity */
 407:HW_Lib/AT32F435/drivers/src/at32f435_437_tmr.c ****   tmr_x->cctrl &= ~(1<<chcx_offset);
 858              		.loc 1 407 3 is_stmt 1 view .LVU206
 859              		.loc 1 407 22 is_stmt 0 view .LVU207
 860 0070 4FF0010E 		mov	lr, #1
 861 0074 0EFA05F7 		lsl	r7, lr, r5
 862              		.loc 1 407 16 view .LVU208
 863 0078 056A     		ldr	r5, [r0, #32]
 864              	.LVL88:
 865              		.loc 1 407 16 view .LVU209
 866 007a 25EA0705 		bic	r5, r5, r7
 867 007e 0562     		str	r5, [r0, #32]
 408:HW_Lib/AT32F435/drivers/src/at32f435_437_tmr.c ****   tmr_x->cctrl |= channel_c_index;
 868              		.loc 1 408 3 is_stmt 1 view .LVU210
 869              		.loc 1 408 16 is_stmt 0 view .LVU211
 870 0080 A4B2     		uxth	r4, r4
 871              		.loc 1 408 16 view .LVU212
 872 0082 2C43     		orrs	r4, r4, r5
 873              	.LVL89:
 874              		.loc 1 408 16 view .LVU213
 875 0084 0462     		str	r4, [r0, #32]
 409:HW_Lib/AT32F435/drivers/src/at32f435_437_tmr.c **** 
 410:HW_Lib/AT32F435/drivers/src/at32f435_437_tmr.c ****   /* set output channel polarity */
 411:HW_Lib/AT32F435/drivers/src/at32f435_437_tmr.c ****   tmr_x->cctrl &= ~(1<<chx_offset);
 876              		.loc 1 411 3 is_stmt 1 view .LVU214
 877              		.loc 1 411 22 is_stmt 0 view .LVU215
 878 0086 0EFA06F6 		lsl	r6, lr, r6
 879              	.LVL90:
 880              		.loc 1 411 16 view .LVU216
 881 008a 24EA0604 		bic	r4, r4, r6
 882 008e 0462     		str	r4, [r0, #32]
 412:HW_Lib/AT32F435/drivers/src/at32f435_437_tmr.c ****   tmr_x->cctrl |= channel_index;
 883              		.loc 1 412 3 is_stmt 1 view .LVU217
 884              		.loc 1 412 16 is_stmt 0 view .LVU218
ARM GAS  C:\Users\8bit\AppData\Local\Temp\ccwaFnug.s 			page 24


 885 0090 9BB2     		uxth	r3, r3
 886              		.loc 1 412 16 view .LVU219
 887 0092 1C43     		orrs	r4, r4, r3
 888 0094 0462     		str	r4, [r0, #32]
 413:HW_Lib/AT32F435/drivers/src/at32f435_437_tmr.c **** 
 414:HW_Lib/AT32F435/drivers/src/at32f435_437_tmr.c ****   chx_offset = (tmr_channel * 2);
 889              		.loc 1 414 3 is_stmt 1 view .LVU220
 890              	.LVL91:
 415:HW_Lib/AT32F435/drivers/src/at32f435_437_tmr.c ****   chcx_offset = ((tmr_channel * 2) + 2);
 891              		.loc 1 415 3 view .LVU221
 892              		.loc 1 415 36 is_stmt 0 view .LVU222
 893 0096 01EB0E05 		add	r5, r1, lr
 894              	.LVL92:
 416:HW_Lib/AT32F435/drivers/src/at32f435_437_tmr.c **** 
 417:HW_Lib/AT32F435/drivers/src/at32f435_437_tmr.c ****   /* get channel enable bit position in cctrl register */
 418:HW_Lib/AT32F435/drivers/src/at32f435_437_tmr.c ****   channel_index = (uint16_t)(tmr_output_struct->oc_output_state << (tmr_channel * 2));
 895              		.loc 1 418 3 is_stmt 1 view .LVU223
 896              		.loc 1 418 47 is_stmt 0 view .LVU224
 897 009a 5379     		ldrb	r3, [r2, #5]	@ zero_extendqisi2
 898              	.LVL93:
 899              		.loc 1 418 81 view .LVU225
 900 009c 01FA0EF1 		lsl	r1, r1, lr
 901              	.LVL94:
 902              		.loc 1 418 65 view .LVU226
 903 00a0 03FA01F1 		lsl	r1, r3, r1
 904              	.LVL95:
 419:HW_Lib/AT32F435/drivers/src/at32f435_437_tmr.c **** 
 420:HW_Lib/AT32F435/drivers/src/at32f435_437_tmr.c ****   /* get channel complementary enable bit position in cctrl register */
 421:HW_Lib/AT32F435/drivers/src/at32f435_437_tmr.c ****   channel_c_index = (uint16_t)(tmr_output_struct->occ_output_state << ((tmr_channel * 2) + 2));
 905              		.loc 1 421 3 is_stmt 1 view .LVU227
 906              		.loc 1 421 49 is_stmt 0 view .LVU228
 907 00a4 9379     		ldrb	r3, [r2, #6]	@ zero_extendqisi2
 908              		.loc 1 421 90 view .LVU229
 909 00a6 05FA0EF2 		lsl	r2, r5, lr
 910              	.LVL96:
 911              		.loc 1 421 68 view .LVU230
 912 00aa 9340     		lsls	r3, r3, r2
 913              	.LVL97:
 422:HW_Lib/AT32F435/drivers/src/at32f435_437_tmr.c **** 
 423:HW_Lib/AT32F435/drivers/src/at32f435_437_tmr.c ****   /* set output channel complementary enable bit */
 424:HW_Lib/AT32F435/drivers/src/at32f435_437_tmr.c ****   tmr_x->cctrl &= ~(1<<chcx_offset);
 914              		.loc 1 424 3 is_stmt 1 view .LVU231
 915              		.loc 1 424 22 is_stmt 0 view .LVU232
 916 00ac 92B2     		uxth	r2, r2
 917 00ae 0EFA02F2 		lsl	r2, lr, r2
 918              		.loc 1 424 16 view .LVU233
 919 00b2 24EA0202 		bic	r2, r4, r2
 920 00b6 0262     		str	r2, [r0, #32]
 425:HW_Lib/AT32F435/drivers/src/at32f435_437_tmr.c ****   tmr_x->cctrl |= channel_c_index;
 921              		.loc 1 425 3 is_stmt 1 view .LVU234
 922              		.loc 1 425 16 is_stmt 0 view .LVU235
 923 00b8 9BB2     		uxth	r3, r3
 924              		.loc 1 425 16 view .LVU236
 925 00ba 1343     		orrs	r3, r3, r2
 926              	.LVL98:
 927              		.loc 1 425 16 view .LVU237
 928 00bc 0362     		str	r3, [r0, #32]
ARM GAS  C:\Users\8bit\AppData\Local\Temp\ccwaFnug.s 			page 25


 426:HW_Lib/AT32F435/drivers/src/at32f435_437_tmr.c **** 
 427:HW_Lib/AT32F435/drivers/src/at32f435_437_tmr.c ****   /* set output channel enable bit */
 428:HW_Lib/AT32F435/drivers/src/at32f435_437_tmr.c ****   tmr_x->cctrl &= ~(1<<chx_offset);
 929              		.loc 1 428 3 is_stmt 1 view .LVU238
 930              		.loc 1 428 22 is_stmt 0 view .LVU239
 931 00be 0EFA0CFC 		lsl	ip, lr, ip
 932              	.LVL99:
 933              		.loc 1 428 16 view .LVU240
 934 00c2 23EA0C03 		bic	r3, r3, ip
 935 00c6 0362     		str	r3, [r0, #32]
 429:HW_Lib/AT32F435/drivers/src/at32f435_437_tmr.c ****   tmr_x->cctrl |= channel_index;
 936              		.loc 1 429 3 is_stmt 1 view .LVU241
 937              		.loc 1 429 16 is_stmt 0 view .LVU242
 938 00c8 89B2     		uxth	r1, r1
 939              		.loc 1 429 16 view .LVU243
 940 00ca 0B43     		orrs	r3, r3, r1
 941 00cc 0362     		str	r3, [r0, #32]
 430:HW_Lib/AT32F435/drivers/src/at32f435_437_tmr.c **** }
 942              		.loc 1 430 1 view .LVU244
 943 00ce F0BD     		pop	{r4, r5, r6, r7, pc}
 944              	.LVL100:
 945              	.L52:
 378:HW_Lib/AT32F435/drivers/src/at32f435_437_tmr.c ****       break;
 946              		.loc 1 378 7 is_stmt 1 view .LVU245
 378:HW_Lib/AT32F435/drivers/src/at32f435_437_tmr.c ****       break;
 947              		.loc 1 378 56 is_stmt 0 view .LVU246
 948 00d0 1478     		ldrb	r4, [r2]	@ zero_extendqisi2
 378:HW_Lib/AT32F435/drivers/src/at32f435_437_tmr.c ****       break;
 949              		.loc 1 378 37 view .LVU247
 950 00d2 8369     		ldr	r3, [r0, #24]
 951 00d4 64F30E33 		bfi	r3, r4, #12, #3
 952 00d8 8361     		str	r3, [r0, #24]
 379:HW_Lib/AT32F435/drivers/src/at32f435_437_tmr.c **** 
 953              		.loc 1 379 7 is_stmt 1 view .LVU248
 954 00da BFE7     		b	.L47
 955              	.L51:
 382:HW_Lib/AT32F435/drivers/src/at32f435_437_tmr.c ****       break;
 956              		.loc 1 382 7 view .LVU249
 382:HW_Lib/AT32F435/drivers/src/at32f435_437_tmr.c ****       break;
 957              		.loc 1 382 56 is_stmt 0 view .LVU250
 958 00dc 1478     		ldrb	r4, [r2]	@ zero_extendqisi2
 382:HW_Lib/AT32F435/drivers/src/at32f435_437_tmr.c ****       break;
 959              		.loc 1 382 37 view .LVU251
 960 00de C369     		ldr	r3, [r0, #28]
 961 00e0 64F30613 		bfi	r3, r4, #4, #3
 962 00e4 C361     		str	r3, [r0, #28]
 383:HW_Lib/AT32F435/drivers/src/at32f435_437_tmr.c **** 
 963              		.loc 1 383 7 is_stmt 1 view .LVU252
 964 00e6 B9E7     		b	.L47
 965              	.L50:
 386:HW_Lib/AT32F435/drivers/src/at32f435_437_tmr.c ****       break;
 966              		.loc 1 386 7 view .LVU253
 386:HW_Lib/AT32F435/drivers/src/at32f435_437_tmr.c ****       break;
 967              		.loc 1 386 56 is_stmt 0 view .LVU254
 968 00e8 1478     		ldrb	r4, [r2]	@ zero_extendqisi2
 386:HW_Lib/AT32F435/drivers/src/at32f435_437_tmr.c ****       break;
 969              		.loc 1 386 37 view .LVU255
ARM GAS  C:\Users\8bit\AppData\Local\Temp\ccwaFnug.s 			page 26


 970 00ea C369     		ldr	r3, [r0, #28]
 971 00ec 64F30E33 		bfi	r3, r4, #12, #3
 972 00f0 C361     		str	r3, [r0, #28]
 387:HW_Lib/AT32F435/drivers/src/at32f435_437_tmr.c **** 
 973              		.loc 1 387 7 is_stmt 1 view .LVU256
 974 00f2 B3E7     		b	.L47
 975              	.L48:
 390:HW_Lib/AT32F435/drivers/src/at32f435_437_tmr.c ****       break;
 976              		.loc 1 390 7 view .LVU257
 390:HW_Lib/AT32F435/drivers/src/at32f435_437_tmr.c ****       break;
 977              		.loc 1 390 56 is_stmt 0 view .LVU258
 978 00f4 1478     		ldrb	r4, [r2]	@ zero_extendqisi2
 390:HW_Lib/AT32F435/drivers/src/at32f435_437_tmr.c ****       break;
 979              		.loc 1 390 37 view .LVU259
 980 00f6 036F     		ldr	r3, [r0, #112]
 981 00f8 64F30613 		bfi	r3, r4, #4, #3
 982 00fc 0367     		str	r3, [r0, #112]
 391:HW_Lib/AT32F435/drivers/src/at32f435_437_tmr.c **** 
 983              		.loc 1 391 7 is_stmt 1 view .LVU260
 984 00fe ADE7     		b	.L47
 985              		.cfi_endproc
 986              	.LFE146:
 988              		.section	.text.tmr_output_channel_mode_select,"ax",%progbits
 989              		.align	1
 990              		.global	tmr_output_channel_mode_select
 991              		.syntax unified
 992              		.thumb
 993              		.thumb_func
 995              	tmr_output_channel_mode_select:
 996              	.LVL101:
 997              	.LFB147:
 431:HW_Lib/AT32F435/drivers/src/at32f435_437_tmr.c **** 
 432:HW_Lib/AT32F435/drivers/src/at32f435_437_tmr.c **** /**
 433:HW_Lib/AT32F435/drivers/src/at32f435_437_tmr.c ****   * @brief  select tmr output channel mode
 434:HW_Lib/AT32F435/drivers/src/at32f435_437_tmr.c ****   * @param  tmr_x: select the tmr peripheral.
 435:HW_Lib/AT32F435/drivers/src/at32f435_437_tmr.c ****   *         this parameter can be one of the following values:
 436:HW_Lib/AT32F435/drivers/src/at32f435_437_tmr.c ****   *         TMR1, TMR2, TMR3, TMR4, TMR5, TMR8, TMR9, TMR10,
 437:HW_Lib/AT32F435/drivers/src/at32f435_437_tmr.c ****   *         TMR11, TMR12, TMR13, TMR14, TMR20
 438:HW_Lib/AT32F435/drivers/src/at32f435_437_tmr.c ****   * @param  tmr_channel
 439:HW_Lib/AT32F435/drivers/src/at32f435_437_tmr.c ****   *         this parameter can be one of the following values:
 440:HW_Lib/AT32F435/drivers/src/at32f435_437_tmr.c ****   *         - TMR_SELECT_CHANNEL_1
 441:HW_Lib/AT32F435/drivers/src/at32f435_437_tmr.c ****   *         - TMR_SELECT_CHANNEL_2
 442:HW_Lib/AT32F435/drivers/src/at32f435_437_tmr.c ****   *         - TMR_SELECT_CHANNEL_3
 443:HW_Lib/AT32F435/drivers/src/at32f435_437_tmr.c ****   *         - TMR_SELECT_CHANNEL_4
 444:HW_Lib/AT32F435/drivers/src/at32f435_437_tmr.c ****   *         - TMR_SELECT_CHANNEL_5
 445:HW_Lib/AT32F435/drivers/src/at32f435_437_tmr.c ****   * @param  oc_mode
 446:HW_Lib/AT32F435/drivers/src/at32f435_437_tmr.c ****   *         this parameter can be one of the following values:
 447:HW_Lib/AT32F435/drivers/src/at32f435_437_tmr.c ****   *         - TMR_OUTPUT_CONTROL_OFF
 448:HW_Lib/AT32F435/drivers/src/at32f435_437_tmr.c ****   *         - TMR_OUTPUT_CONTROL_HIGH
 449:HW_Lib/AT32F435/drivers/src/at32f435_437_tmr.c ****   *         - TMR_OUTPUT_CONTROL_LOW
 450:HW_Lib/AT32F435/drivers/src/at32f435_437_tmr.c ****   *         - TMR_OUTPUT_CONTROL_SWITCH
 451:HW_Lib/AT32F435/drivers/src/at32f435_437_tmr.c ****   *         - TMR_OUTPUT_CONTROL_FORCE_HIGH
 452:HW_Lib/AT32F435/drivers/src/at32f435_437_tmr.c ****   *         - TMR_OUTPUT_CONTROL_FORCE_LOW
 453:HW_Lib/AT32F435/drivers/src/at32f435_437_tmr.c ****   *         - TMR_OUTPUT_CONTROL_PWM_MODE_A
 454:HW_Lib/AT32F435/drivers/src/at32f435_437_tmr.c ****   *         - TMR_OUTPUT_CONTROL_PWM_MODE_B
 455:HW_Lib/AT32F435/drivers/src/at32f435_437_tmr.c ****   * @retval none
 456:HW_Lib/AT32F435/drivers/src/at32f435_437_tmr.c ****   */
ARM GAS  C:\Users\8bit\AppData\Local\Temp\ccwaFnug.s 			page 27


 457:HW_Lib/AT32F435/drivers/src/at32f435_437_tmr.c **** void tmr_output_channel_mode_select(tmr_type *tmr_x, tmr_channel_select_type tmr_channel, \
 458:HW_Lib/AT32F435/drivers/src/at32f435_437_tmr.c ****                                     tmr_output_control_mode_type oc_mode)
 459:HW_Lib/AT32F435/drivers/src/at32f435_437_tmr.c **** {
 998              		.loc 1 459 1 view -0
 999              		.cfi_startproc
 1000              		@ args = 0, pretend = 0, frame = 0
 1001              		@ frame_needed = 0, uses_anonymous_args = 0
 1002              		@ link register save eliminated.
 460:HW_Lib/AT32F435/drivers/src/at32f435_437_tmr.c ****   uint16_t channel;
 1003              		.loc 1 460 3 view .LVU262
 461:HW_Lib/AT32F435/drivers/src/at32f435_437_tmr.c **** 
 462:HW_Lib/AT32F435/drivers/src/at32f435_437_tmr.c ****   channel = tmr_channel;
 1004              		.loc 1 462 3 view .LVU263
 463:HW_Lib/AT32F435/drivers/src/at32f435_437_tmr.c **** 
 464:HW_Lib/AT32F435/drivers/src/at32f435_437_tmr.c ****   switch(channel)
 1005              		.loc 1 464 3 view .LVU264
 1006 0000 0729     		cmp	r1, #7
 1007 0002 1DD8     		bhi	.L55
 1008 0004 DFE801F0 		tbb	[pc, r1]
 1009              	.L58:
 1010 0008 04       		.byte	(.L62-.L58)/2
 1011 0009 1C       		.byte	(.L55-.L58)/2
 1012 000a 09       		.byte	(.L61-.L58)/2
 1013 000b 1C       		.byte	(.L55-.L58)/2
 1014 000c 0E       		.byte	(.L60-.L58)/2
 1015 000d 1C       		.byte	(.L55-.L58)/2
 1016 000e 13       		.byte	(.L59-.L58)/2
 1017 000f 18       		.byte	(.L57-.L58)/2
 1018              		.p2align 1
 1019              	.L62:
 465:HW_Lib/AT32F435/drivers/src/at32f435_437_tmr.c ****   {
 466:HW_Lib/AT32F435/drivers/src/at32f435_437_tmr.c ****     case TMR_SELECT_CHANNEL_1:
 467:HW_Lib/AT32F435/drivers/src/at32f435_437_tmr.c ****       tmr_x->cm1_output_bit.c1octrl = oc_mode;
 1020              		.loc 1 467 7 view .LVU265
 1021              		.loc 1 467 37 is_stmt 0 view .LVU266
 1022 0010 8369     		ldr	r3, [r0, #24]
 1023 0012 62F30613 		bfi	r3, r2, #4, #3
 1024 0016 8361     		str	r3, [r0, #24]
 468:HW_Lib/AT32F435/drivers/src/at32f435_437_tmr.c ****       break;
 1025              		.loc 1 468 7 is_stmt 1 view .LVU267
 1026 0018 7047     		bx	lr
 1027              	.L61:
 469:HW_Lib/AT32F435/drivers/src/at32f435_437_tmr.c **** 
 470:HW_Lib/AT32F435/drivers/src/at32f435_437_tmr.c ****     case TMR_SELECT_CHANNEL_2:
 471:HW_Lib/AT32F435/drivers/src/at32f435_437_tmr.c ****       tmr_x->cm1_output_bit.c2octrl = oc_mode;
 1028              		.loc 1 471 7 view .LVU268
 1029              		.loc 1 471 37 is_stmt 0 view .LVU269
 1030 001a 8369     		ldr	r3, [r0, #24]
 1031 001c 62F30E33 		bfi	r3, r2, #12, #3
 1032 0020 8361     		str	r3, [r0, #24]
 472:HW_Lib/AT32F435/drivers/src/at32f435_437_tmr.c ****       break;
 1033              		.loc 1 472 7 is_stmt 1 view .LVU270
 1034 0022 7047     		bx	lr
 1035              	.L60:
 473:HW_Lib/AT32F435/drivers/src/at32f435_437_tmr.c **** 
 474:HW_Lib/AT32F435/drivers/src/at32f435_437_tmr.c ****     case TMR_SELECT_CHANNEL_3:
 475:HW_Lib/AT32F435/drivers/src/at32f435_437_tmr.c ****       tmr_x->cm2_output_bit.c3octrl = oc_mode;
ARM GAS  C:\Users\8bit\AppData\Local\Temp\ccwaFnug.s 			page 28


 1036              		.loc 1 475 7 view .LVU271
 1037              		.loc 1 475 37 is_stmt 0 view .LVU272
 1038 0024 C369     		ldr	r3, [r0, #28]
 1039 0026 62F30613 		bfi	r3, r2, #4, #3
 1040 002a C361     		str	r3, [r0, #28]
 476:HW_Lib/AT32F435/drivers/src/at32f435_437_tmr.c ****       break;
 1041              		.loc 1 476 7 is_stmt 1 view .LVU273
 1042 002c 7047     		bx	lr
 1043              	.L59:
 477:HW_Lib/AT32F435/drivers/src/at32f435_437_tmr.c **** 
 478:HW_Lib/AT32F435/drivers/src/at32f435_437_tmr.c ****     case TMR_SELECT_CHANNEL_4:
 479:HW_Lib/AT32F435/drivers/src/at32f435_437_tmr.c ****       tmr_x->cm2_output_bit.c4octrl = oc_mode;
 1044              		.loc 1 479 7 view .LVU274
 1045              		.loc 1 479 37 is_stmt 0 view .LVU275
 1046 002e C369     		ldr	r3, [r0, #28]
 1047 0030 62F30E33 		bfi	r3, r2, #12, #3
 1048 0034 C361     		str	r3, [r0, #28]
 480:HW_Lib/AT32F435/drivers/src/at32f435_437_tmr.c ****       break;
 1049              		.loc 1 480 7 is_stmt 1 view .LVU276
 1050 0036 7047     		bx	lr
 1051              	.L57:
 481:HW_Lib/AT32F435/drivers/src/at32f435_437_tmr.c **** 
 482:HW_Lib/AT32F435/drivers/src/at32f435_437_tmr.c ****     case TMR_SELECT_CHANNEL_5:
 483:HW_Lib/AT32F435/drivers/src/at32f435_437_tmr.c ****       tmr_x->cm3_output_bit.c5octrl = oc_mode;
 1052              		.loc 1 483 7 view .LVU277
 1053              		.loc 1 483 37 is_stmt 0 view .LVU278
 1054 0038 036F     		ldr	r3, [r0, #112]
 1055 003a 62F30613 		bfi	r3, r2, #4, #3
 1056 003e 0367     		str	r3, [r0, #112]
 484:HW_Lib/AT32F435/drivers/src/at32f435_437_tmr.c ****       break;
 1057              		.loc 1 484 7 is_stmt 1 view .LVU279
 1058              	.L55:
 485:HW_Lib/AT32F435/drivers/src/at32f435_437_tmr.c **** 
 486:HW_Lib/AT32F435/drivers/src/at32f435_437_tmr.c ****     default:
 487:HW_Lib/AT32F435/drivers/src/at32f435_437_tmr.c ****       break;
 488:HW_Lib/AT32F435/drivers/src/at32f435_437_tmr.c ****   }
 489:HW_Lib/AT32F435/drivers/src/at32f435_437_tmr.c **** }
 1059              		.loc 1 489 1 is_stmt 0 view .LVU280
 1060 0040 7047     		bx	lr
 1061              		.cfi_endproc
 1062              	.LFE147:
 1064              		.section	.text.tmr_period_value_set,"ax",%progbits
 1065              		.align	1
 1066              		.global	tmr_period_value_set
 1067              		.syntax unified
 1068              		.thumb
 1069              		.thumb_func
 1071              	tmr_period_value_set:
 1072              	.LVL102:
 1073              	.LFB148:
 490:HW_Lib/AT32F435/drivers/src/at32f435_437_tmr.c **** /**
 491:HW_Lib/AT32F435/drivers/src/at32f435_437_tmr.c ****   * @brief  set tmr period value
 492:HW_Lib/AT32F435/drivers/src/at32f435_437_tmr.c ****   * @param  tmr_x: select the tmr peripheral.
 493:HW_Lib/AT32F435/drivers/src/at32f435_437_tmr.c ****   *         this parameter can be one of the following values:
 494:HW_Lib/AT32F435/drivers/src/at32f435_437_tmr.c ****   *         TMR1, TMR2, TMR3, TMR4, TMR5, TMR6, TMR7, TMR8,
 495:HW_Lib/AT32F435/drivers/src/at32f435_437_tmr.c ****   *         TMR9, TMR10, TMR11, TMR12, TMR13, TMR14, TMR20
 496:HW_Lib/AT32F435/drivers/src/at32f435_437_tmr.c ****   * @param  tmr_pr_value: timer period register value of counter
ARM GAS  C:\Users\8bit\AppData\Local\Temp\ccwaFnug.s 			page 29


 497:HW_Lib/AT32F435/drivers/src/at32f435_437_tmr.c ****   *                       (for 16 bit tmr 0x0000~0xFFFF,
 498:HW_Lib/AT32F435/drivers/src/at32f435_437_tmr.c ****   *                       for 32 bit tmr 0x0000_0000~0xFFFF_FFFF)
 499:HW_Lib/AT32F435/drivers/src/at32f435_437_tmr.c ****   * @retval none
 500:HW_Lib/AT32F435/drivers/src/at32f435_437_tmr.c ****   */
 501:HW_Lib/AT32F435/drivers/src/at32f435_437_tmr.c **** void tmr_period_value_set(tmr_type *tmr_x, uint32_t tmr_pr_value)
 502:HW_Lib/AT32F435/drivers/src/at32f435_437_tmr.c **** {
 1074              		.loc 1 502 1 is_stmt 1 view -0
 1075              		.cfi_startproc
 1076              		@ args = 0, pretend = 0, frame = 0
 1077              		@ frame_needed = 0, uses_anonymous_args = 0
 1078              		@ link register save eliminated.
 503:HW_Lib/AT32F435/drivers/src/at32f435_437_tmr.c ****   /* set tmr period value */
 504:HW_Lib/AT32F435/drivers/src/at32f435_437_tmr.c ****   tmr_x->pr = tmr_pr_value;
 1079              		.loc 1 504 3 view .LVU282
 1080              		.loc 1 504 13 is_stmt 0 view .LVU283
 1081 0000 C162     		str	r1, [r0, #44]
 505:HW_Lib/AT32F435/drivers/src/at32f435_437_tmr.c **** }
 1082              		.loc 1 505 1 view .LVU284
 1083 0002 7047     		bx	lr
 1084              		.cfi_endproc
 1085              	.LFE148:
 1087              		.section	.text.tmr_period_value_get,"ax",%progbits
 1088              		.align	1
 1089              		.global	tmr_period_value_get
 1090              		.syntax unified
 1091              		.thumb
 1092              		.thumb_func
 1094              	tmr_period_value_get:
 1095              	.LVL103:
 1096              	.LFB149:
 506:HW_Lib/AT32F435/drivers/src/at32f435_437_tmr.c **** 
 507:HW_Lib/AT32F435/drivers/src/at32f435_437_tmr.c **** /**
 508:HW_Lib/AT32F435/drivers/src/at32f435_437_tmr.c ****   * @brief  get tmr period value
 509:HW_Lib/AT32F435/drivers/src/at32f435_437_tmr.c ****   * @param  tmr_x: select the tmr peripheral.
 510:HW_Lib/AT32F435/drivers/src/at32f435_437_tmr.c ****   *         this parameter can be one of the following values:
 511:HW_Lib/AT32F435/drivers/src/at32f435_437_tmr.c ****   *         TMR1, TMR2, TMR3, TMR4, TMR5, TMR6, TMR7, TMR8,
 512:HW_Lib/AT32F435/drivers/src/at32f435_437_tmr.c ****   *         TMR9, TMR10, TMR11, TMR12, TMR13, TMR14, TMR20
 513:HW_Lib/AT32F435/drivers/src/at32f435_437_tmr.c ****   * @retval timer period register value of counter
 514:HW_Lib/AT32F435/drivers/src/at32f435_437_tmr.c ****   *         (for 16 bit tmr 0x0000~0xFFFF, for 32 bit tmr
 515:HW_Lib/AT32F435/drivers/src/at32f435_437_tmr.c ****   *         0x0000_0000~0xFFFF_FFFF)
 516:HW_Lib/AT32F435/drivers/src/at32f435_437_tmr.c ****   */
 517:HW_Lib/AT32F435/drivers/src/at32f435_437_tmr.c **** uint32_t tmr_period_value_get(tmr_type *tmr_x)
 518:HW_Lib/AT32F435/drivers/src/at32f435_437_tmr.c **** {
 1097              		.loc 1 518 1 is_stmt 1 view -0
 1098              		.cfi_startproc
 1099              		@ args = 0, pretend = 0, frame = 0
 1100              		@ frame_needed = 0, uses_anonymous_args = 0
 1101              		@ link register save eliminated.
 519:HW_Lib/AT32F435/drivers/src/at32f435_437_tmr.c ****   return tmr_x->pr;
 1102              		.loc 1 519 3 view .LVU286
 1103              		.loc 1 519 15 is_stmt 0 view .LVU287
 1104 0000 C06A     		ldr	r0, [r0, #44]
 1105              	.LVL104:
 520:HW_Lib/AT32F435/drivers/src/at32f435_437_tmr.c **** }
 1106              		.loc 1 520 1 view .LVU288
 1107 0002 7047     		bx	lr
 1108              		.cfi_endproc
ARM GAS  C:\Users\8bit\AppData\Local\Temp\ccwaFnug.s 			page 30


 1109              	.LFE149:
 1111              		.section	.text.tmr_channel_value_set,"ax",%progbits
 1112              		.align	1
 1113              		.global	tmr_channel_value_set
 1114              		.syntax unified
 1115              		.thumb
 1116              		.thumb_func
 1118              	tmr_channel_value_set:
 1119              	.LVL105:
 1120              	.LFB150:
 521:HW_Lib/AT32F435/drivers/src/at32f435_437_tmr.c **** 
 522:HW_Lib/AT32F435/drivers/src/at32f435_437_tmr.c **** /**
 523:HW_Lib/AT32F435/drivers/src/at32f435_437_tmr.c ****   * @brief  set tmr channel value
 524:HW_Lib/AT32F435/drivers/src/at32f435_437_tmr.c ****   * @param  tmr_x: select the tmr peripheral.
 525:HW_Lib/AT32F435/drivers/src/at32f435_437_tmr.c ****   *         this parameter can be one of the following values:
 526:HW_Lib/AT32F435/drivers/src/at32f435_437_tmr.c ****   *         TMR1, TMR2, TMR3, TMR4, TMR5, TMR8, TMR9, TMR10,
 527:HW_Lib/AT32F435/drivers/src/at32f435_437_tmr.c ****   *         TMR11, TMR12, TMR13, TMR14, TMR20
 528:HW_Lib/AT32F435/drivers/src/at32f435_437_tmr.c ****   * @param  tmr_channel
 529:HW_Lib/AT32F435/drivers/src/at32f435_437_tmr.c ****   *         this parameter can be one of the following values:
 530:HW_Lib/AT32F435/drivers/src/at32f435_437_tmr.c ****   *         - TMR_SELECT_CHANNEL_1
 531:HW_Lib/AT32F435/drivers/src/at32f435_437_tmr.c ****   *         - TMR_SELECT_CHANNEL_2
 532:HW_Lib/AT32F435/drivers/src/at32f435_437_tmr.c ****   *         - TMR_SELECT_CHANNEL_3
 533:HW_Lib/AT32F435/drivers/src/at32f435_437_tmr.c ****   *         - TMR_SELECT_CHANNEL_4
 534:HW_Lib/AT32F435/drivers/src/at32f435_437_tmr.c ****   *         - TMR_SELECT_CHANNEL_5
 535:HW_Lib/AT32F435/drivers/src/at32f435_437_tmr.c ****   * @param  tmr_channel_value (for 16 bit tmr 0x0000~0xFFFF,
 536:HW_Lib/AT32F435/drivers/src/at32f435_437_tmr.c ****   *                       for 32 bit tmr 0x0000_0000~0xFFFF_FFFF)
 537:HW_Lib/AT32F435/drivers/src/at32f435_437_tmr.c ****   * @retval none
 538:HW_Lib/AT32F435/drivers/src/at32f435_437_tmr.c ****   */
 539:HW_Lib/AT32F435/drivers/src/at32f435_437_tmr.c **** void tmr_channel_value_set(tmr_type *tmr_x, tmr_channel_select_type tmr_channel, \
 540:HW_Lib/AT32F435/drivers/src/at32f435_437_tmr.c ****                            uint32_t tmr_channel_value)
 541:HW_Lib/AT32F435/drivers/src/at32f435_437_tmr.c **** {
 1121              		.loc 1 541 1 is_stmt 1 view -0
 1122              		.cfi_startproc
 1123              		@ args = 0, pretend = 0, frame = 0
 1124              		@ frame_needed = 0, uses_anonymous_args = 0
 1125              		@ link register save eliminated.
 542:HW_Lib/AT32F435/drivers/src/at32f435_437_tmr.c ****   uint16_t channel;
 1126              		.loc 1 542 3 view .LVU290
 543:HW_Lib/AT32F435/drivers/src/at32f435_437_tmr.c **** 
 544:HW_Lib/AT32F435/drivers/src/at32f435_437_tmr.c ****   channel = tmr_channel;
 1127              		.loc 1 544 3 view .LVU291
 545:HW_Lib/AT32F435/drivers/src/at32f435_437_tmr.c **** 
 546:HW_Lib/AT32F435/drivers/src/at32f435_437_tmr.c ****   /* set tmr channel value */
 547:HW_Lib/AT32F435/drivers/src/at32f435_437_tmr.c ****   switch(channel)
 1128              		.loc 1 547 3 view .LVU292
 1129 0000 0729     		cmp	r1, #7
 1130 0002 0ED8     		bhi	.L65
 1131 0004 DFE801F0 		tbb	[pc, r1]
 1132              	.L68:
 1133 0008 04       		.byte	(.L72-.L68)/2
 1134 0009 0D       		.byte	(.L65-.L68)/2
 1135 000a 06       		.byte	(.L71-.L68)/2
 1136 000b 0D       		.byte	(.L65-.L68)/2
 1137 000c 08       		.byte	(.L70-.L68)/2
 1138 000d 0D       		.byte	(.L65-.L68)/2
 1139 000e 0A       		.byte	(.L69-.L68)/2
 1140 000f 0C       		.byte	(.L67-.L68)/2
ARM GAS  C:\Users\8bit\AppData\Local\Temp\ccwaFnug.s 			page 31


 1141              		.p2align 1
 1142              	.L72:
 548:HW_Lib/AT32F435/drivers/src/at32f435_437_tmr.c ****   {
 549:HW_Lib/AT32F435/drivers/src/at32f435_437_tmr.c ****     case TMR_SELECT_CHANNEL_1:
 550:HW_Lib/AT32F435/drivers/src/at32f435_437_tmr.c ****       tmr_x->c1dt = tmr_channel_value;
 1143              		.loc 1 550 7 view .LVU293
 1144              		.loc 1 550 19 is_stmt 0 view .LVU294
 1145 0010 4263     		str	r2, [r0, #52]
 551:HW_Lib/AT32F435/drivers/src/at32f435_437_tmr.c ****       break;
 1146              		.loc 1 551 7 is_stmt 1 view .LVU295
 1147 0012 7047     		bx	lr
 1148              	.L71:
 552:HW_Lib/AT32F435/drivers/src/at32f435_437_tmr.c **** 
 553:HW_Lib/AT32F435/drivers/src/at32f435_437_tmr.c ****     case TMR_SELECT_CHANNEL_2:
 554:HW_Lib/AT32F435/drivers/src/at32f435_437_tmr.c ****       tmr_x->c2dt = tmr_channel_value;
 1149              		.loc 1 554 7 view .LVU296
 1150              		.loc 1 554 19 is_stmt 0 view .LVU297
 1151 0014 8263     		str	r2, [r0, #56]
 555:HW_Lib/AT32F435/drivers/src/at32f435_437_tmr.c ****       break;
 1152              		.loc 1 555 7 is_stmt 1 view .LVU298
 1153 0016 7047     		bx	lr
 1154              	.L70:
 556:HW_Lib/AT32F435/drivers/src/at32f435_437_tmr.c **** 
 557:HW_Lib/AT32F435/drivers/src/at32f435_437_tmr.c ****     case TMR_SELECT_CHANNEL_3:
 558:HW_Lib/AT32F435/drivers/src/at32f435_437_tmr.c ****       tmr_x->c3dt = tmr_channel_value;
 1155              		.loc 1 558 7 view .LVU299
 1156              		.loc 1 558 19 is_stmt 0 view .LVU300
 1157 0018 C263     		str	r2, [r0, #60]
 559:HW_Lib/AT32F435/drivers/src/at32f435_437_tmr.c ****       break;
 1158              		.loc 1 559 7 is_stmt 1 view .LVU301
 1159 001a 7047     		bx	lr
 1160              	.L69:
 560:HW_Lib/AT32F435/drivers/src/at32f435_437_tmr.c **** 
 561:HW_Lib/AT32F435/drivers/src/at32f435_437_tmr.c ****     case TMR_SELECT_CHANNEL_4:
 562:HW_Lib/AT32F435/drivers/src/at32f435_437_tmr.c ****       tmr_x->c4dt = tmr_channel_value;
 1161              		.loc 1 562 7 view .LVU302
 1162              		.loc 1 562 19 is_stmt 0 view .LVU303
 1163 001c 0264     		str	r2, [r0, #64]
 563:HW_Lib/AT32F435/drivers/src/at32f435_437_tmr.c ****       break;
 1164              		.loc 1 563 7 is_stmt 1 view .LVU304
 1165 001e 7047     		bx	lr
 1166              	.L67:
 564:HW_Lib/AT32F435/drivers/src/at32f435_437_tmr.c **** 
 565:HW_Lib/AT32F435/drivers/src/at32f435_437_tmr.c ****     case TMR_SELECT_CHANNEL_5:
 566:HW_Lib/AT32F435/drivers/src/at32f435_437_tmr.c ****       tmr_x->c5dt = tmr_channel_value;
 1167              		.loc 1 566 7 view .LVU305
 1168              		.loc 1 566 19 is_stmt 0 view .LVU306
 1169 0020 4267     		str	r2, [r0, #116]
 567:HW_Lib/AT32F435/drivers/src/at32f435_437_tmr.c ****       break;
 1170              		.loc 1 567 7 is_stmt 1 view .LVU307
 1171              	.L65:
 568:HW_Lib/AT32F435/drivers/src/at32f435_437_tmr.c **** 
 569:HW_Lib/AT32F435/drivers/src/at32f435_437_tmr.c ****     default:
 570:HW_Lib/AT32F435/drivers/src/at32f435_437_tmr.c ****       break;
 571:HW_Lib/AT32F435/drivers/src/at32f435_437_tmr.c ****   }
 572:HW_Lib/AT32F435/drivers/src/at32f435_437_tmr.c **** }
 1172              		.loc 1 572 1 is_stmt 0 view .LVU308
ARM GAS  C:\Users\8bit\AppData\Local\Temp\ccwaFnug.s 			page 32


 1173 0022 7047     		bx	lr
 1174              		.cfi_endproc
 1175              	.LFE150:
 1177              		.section	.text.tmr_channel_value_get,"ax",%progbits
 1178              		.align	1
 1179              		.global	tmr_channel_value_get
 1180              		.syntax unified
 1181              		.thumb
 1182              		.thumb_func
 1184              	tmr_channel_value_get:
 1185              	.LVL106:
 1186              	.LFB151:
 573:HW_Lib/AT32F435/drivers/src/at32f435_437_tmr.c **** 
 574:HW_Lib/AT32F435/drivers/src/at32f435_437_tmr.c **** /**
 575:HW_Lib/AT32F435/drivers/src/at32f435_437_tmr.c ****   * @brief  get tmr channel value
 576:HW_Lib/AT32F435/drivers/src/at32f435_437_tmr.c ****   * @param  tmr_x: select the tmr peripheral.
 577:HW_Lib/AT32F435/drivers/src/at32f435_437_tmr.c ****   *         this parameter can be one of the following values:
 578:HW_Lib/AT32F435/drivers/src/at32f435_437_tmr.c ****   *         TMR1, TMR2, TMR3, TMR4, TMR5, TMR8, TMR9, TMR10,
 579:HW_Lib/AT32F435/drivers/src/at32f435_437_tmr.c ****   *         TMR11, TMR12, TMR13, TMR14, TMR20
 580:HW_Lib/AT32F435/drivers/src/at32f435_437_tmr.c ****   * @param  tmr_channel
 581:HW_Lib/AT32F435/drivers/src/at32f435_437_tmr.c ****   *         this parameter can be one of the following values:
 582:HW_Lib/AT32F435/drivers/src/at32f435_437_tmr.c ****   *         - TMR_SELECT_CHANNEL_1
 583:HW_Lib/AT32F435/drivers/src/at32f435_437_tmr.c ****   *         - TMR_SELECT_CHANNEL_2
 584:HW_Lib/AT32F435/drivers/src/at32f435_437_tmr.c ****   *         - TMR_SELECT_CHANNEL_3
 585:HW_Lib/AT32F435/drivers/src/at32f435_437_tmr.c ****   *         - TMR_SELECT_CHANNEL_4
 586:HW_Lib/AT32F435/drivers/src/at32f435_437_tmr.c ****   *         - TMR_SELECT_CHANNEL_5
 587:HW_Lib/AT32F435/drivers/src/at32f435_437_tmr.c ****   * @retval tmr channel value
 588:HW_Lib/AT32F435/drivers/src/at32f435_437_tmr.c ****   */
 589:HW_Lib/AT32F435/drivers/src/at32f435_437_tmr.c **** uint32_t tmr_channel_value_get(tmr_type *tmr_x, tmr_channel_select_type tmr_channel)
 590:HW_Lib/AT32F435/drivers/src/at32f435_437_tmr.c **** {
 1187              		.loc 1 590 1 is_stmt 1 view -0
 1188              		.cfi_startproc
 1189              		@ args = 0, pretend = 0, frame = 0
 1190              		@ frame_needed = 0, uses_anonymous_args = 0
 1191              		@ link register save eliminated.
 591:HW_Lib/AT32F435/drivers/src/at32f435_437_tmr.c ****   uint32_t cc_value_get = 0;
 1192              		.loc 1 591 3 view .LVU310
 592:HW_Lib/AT32F435/drivers/src/at32f435_437_tmr.c ****   uint16_t channel;
 1193              		.loc 1 592 3 view .LVU311
 593:HW_Lib/AT32F435/drivers/src/at32f435_437_tmr.c **** 
 594:HW_Lib/AT32F435/drivers/src/at32f435_437_tmr.c ****   channel = tmr_channel;
 1194              		.loc 1 594 3 view .LVU312
 595:HW_Lib/AT32F435/drivers/src/at32f435_437_tmr.c **** 
 596:HW_Lib/AT32F435/drivers/src/at32f435_437_tmr.c ****   /* get tmr channel value */
 597:HW_Lib/AT32F435/drivers/src/at32f435_437_tmr.c ****   switch(channel)
 1195              		.loc 1 597 3 view .LVU313
 1196 0000 0729     		cmp	r1, #7
 1197 0002 0FD8     		bhi	.L81
 1198 0004 DFE801F0 		tbb	[pc, r1]
 1199              	.L76:
 1200 0008 04       		.byte	(.L80-.L76)/2
 1201 0009 0E       		.byte	(.L81-.L76)/2
 1202 000a 06       		.byte	(.L79-.L76)/2
 1203 000b 0E       		.byte	(.L81-.L76)/2
 1204 000c 08       		.byte	(.L78-.L76)/2
 1205 000d 0E       		.byte	(.L81-.L76)/2
 1206 000e 0A       		.byte	(.L77-.L76)/2
ARM GAS  C:\Users\8bit\AppData\Local\Temp\ccwaFnug.s 			page 33


 1207 000f 0C       		.byte	(.L75-.L76)/2
 1208              		.p2align 1
 1209              	.L80:
 598:HW_Lib/AT32F435/drivers/src/at32f435_437_tmr.c ****   {
 599:HW_Lib/AT32F435/drivers/src/at32f435_437_tmr.c ****     case TMR_SELECT_CHANNEL_1:
 600:HW_Lib/AT32F435/drivers/src/at32f435_437_tmr.c ****       cc_value_get = tmr_x->c1dt;
 1210              		.loc 1 600 7 view .LVU314
 1211              		.loc 1 600 20 is_stmt 0 view .LVU315
 1212 0010 406B     		ldr	r0, [r0, #52]
 1213              	.LVL107:
 601:HW_Lib/AT32F435/drivers/src/at32f435_437_tmr.c ****       break;
 1214              		.loc 1 601 7 is_stmt 1 view .LVU316
 1215 0012 7047     		bx	lr
 1216              	.LVL108:
 1217              	.L79:
 602:HW_Lib/AT32F435/drivers/src/at32f435_437_tmr.c **** 
 603:HW_Lib/AT32F435/drivers/src/at32f435_437_tmr.c ****     case TMR_SELECT_CHANNEL_2:
 604:HW_Lib/AT32F435/drivers/src/at32f435_437_tmr.c ****       cc_value_get = tmr_x->c2dt;
 1218              		.loc 1 604 7 view .LVU317
 1219              		.loc 1 604 20 is_stmt 0 view .LVU318
 1220 0014 806B     		ldr	r0, [r0, #56]
 1221              	.LVL109:
 605:HW_Lib/AT32F435/drivers/src/at32f435_437_tmr.c ****       break;
 1222              		.loc 1 605 7 is_stmt 1 view .LVU319
 1223 0016 7047     		bx	lr
 1224              	.LVL110:
 1225              	.L78:
 606:HW_Lib/AT32F435/drivers/src/at32f435_437_tmr.c **** 
 607:HW_Lib/AT32F435/drivers/src/at32f435_437_tmr.c ****     case TMR_SELECT_CHANNEL_3:
 608:HW_Lib/AT32F435/drivers/src/at32f435_437_tmr.c ****       cc_value_get = tmr_x->c3dt;
 1226              		.loc 1 608 7 view .LVU320
 1227              		.loc 1 608 20 is_stmt 0 view .LVU321
 1228 0018 C06B     		ldr	r0, [r0, #60]
 1229              	.LVL111:
 609:HW_Lib/AT32F435/drivers/src/at32f435_437_tmr.c ****       break;
 1230              		.loc 1 609 7 is_stmt 1 view .LVU322
 1231 001a 7047     		bx	lr
 1232              	.LVL112:
 1233              	.L77:
 610:HW_Lib/AT32F435/drivers/src/at32f435_437_tmr.c **** 
 611:HW_Lib/AT32F435/drivers/src/at32f435_437_tmr.c ****     case TMR_SELECT_CHANNEL_4:
 612:HW_Lib/AT32F435/drivers/src/at32f435_437_tmr.c ****       cc_value_get = tmr_x->c4dt;
 1234              		.loc 1 612 7 view .LVU323
 1235              		.loc 1 612 20 is_stmt 0 view .LVU324
 1236 001c 006C     		ldr	r0, [r0, #64]
 1237              	.LVL113:
 613:HW_Lib/AT32F435/drivers/src/at32f435_437_tmr.c ****       break;
 1238              		.loc 1 613 7 is_stmt 1 view .LVU325
 1239 001e 7047     		bx	lr
 1240              	.LVL114:
 1241              	.L75:
 614:HW_Lib/AT32F435/drivers/src/at32f435_437_tmr.c **** 
 615:HW_Lib/AT32F435/drivers/src/at32f435_437_tmr.c ****     case TMR_SELECT_CHANNEL_5:
 616:HW_Lib/AT32F435/drivers/src/at32f435_437_tmr.c ****       cc_value_get = tmr_x->c5dt;
 1242              		.loc 1 616 7 view .LVU326
 1243              		.loc 1 616 20 is_stmt 0 view .LVU327
 1244 0020 406F     		ldr	r0, [r0, #116]
ARM GAS  C:\Users\8bit\AppData\Local\Temp\ccwaFnug.s 			page 34


 1245              	.LVL115:
 617:HW_Lib/AT32F435/drivers/src/at32f435_437_tmr.c ****       break;
 1246              		.loc 1 617 7 is_stmt 1 view .LVU328
 1247 0022 7047     		bx	lr
 1248              	.LVL116:
 1249              	.L81:
 597:HW_Lib/AT32F435/drivers/src/at32f435_437_tmr.c ****   {
 1250              		.loc 1 597 3 is_stmt 0 view .LVU329
 1251 0024 0020     		movs	r0, #0
 1252              	.LVL117:
 618:HW_Lib/AT32F435/drivers/src/at32f435_437_tmr.c **** 
 619:HW_Lib/AT32F435/drivers/src/at32f435_437_tmr.c ****     default:
 620:HW_Lib/AT32F435/drivers/src/at32f435_437_tmr.c ****       break;
 621:HW_Lib/AT32F435/drivers/src/at32f435_437_tmr.c ****   }
 622:HW_Lib/AT32F435/drivers/src/at32f435_437_tmr.c **** 
 623:HW_Lib/AT32F435/drivers/src/at32f435_437_tmr.c ****   return cc_value_get;
 1253              		.loc 1 623 3 is_stmt 1 view .LVU330
 624:HW_Lib/AT32F435/drivers/src/at32f435_437_tmr.c **** }
 1254              		.loc 1 624 1 is_stmt 0 view .LVU331
 1255 0026 7047     		bx	lr
 1256              		.cfi_endproc
 1257              	.LFE151:
 1259              		.section	.text.tmr_period_buffer_enable,"ax",%progbits
 1260              		.align	1
 1261              		.global	tmr_period_buffer_enable
 1262              		.syntax unified
 1263              		.thumb
 1264              		.thumb_func
 1266              	tmr_period_buffer_enable:
 1267              	.LVL118:
 1268              	.LFB152:
 625:HW_Lib/AT32F435/drivers/src/at32f435_437_tmr.c **** /**
 626:HW_Lib/AT32F435/drivers/src/at32f435_437_tmr.c ****   * @brief  set tmr period buffer
 627:HW_Lib/AT32F435/drivers/src/at32f435_437_tmr.c ****   * @param  tmr_x: select the tmr peripheral.
 628:HW_Lib/AT32F435/drivers/src/at32f435_437_tmr.c ****   *         this parameter can be one of the following values:
 629:HW_Lib/AT32F435/drivers/src/at32f435_437_tmr.c ****   *         TMR1, TMR2, TMR3, TMR4, TMR5, TMR6, TMR7, TMR8,
 630:HW_Lib/AT32F435/drivers/src/at32f435_437_tmr.c ****   *         TMR9, TMR10, TMR11, TMR12, TMR13, TMR14, TMR20
 631:HW_Lib/AT32F435/drivers/src/at32f435_437_tmr.c ****   * @param  new_state (TRUE or FALSE)
 632:HW_Lib/AT32F435/drivers/src/at32f435_437_tmr.c ****   * @retval none
 633:HW_Lib/AT32F435/drivers/src/at32f435_437_tmr.c ****   */
 634:HW_Lib/AT32F435/drivers/src/at32f435_437_tmr.c **** void tmr_period_buffer_enable(tmr_type *tmr_x, confirm_state new_state)
 635:HW_Lib/AT32F435/drivers/src/at32f435_437_tmr.c **** {
 1269              		.loc 1 635 1 is_stmt 1 view -0
 1270              		.cfi_startproc
 1271              		@ args = 0, pretend = 0, frame = 0
 1272              		@ frame_needed = 0, uses_anonymous_args = 0
 1273              		@ link register save eliminated.
 636:HW_Lib/AT32F435/drivers/src/at32f435_437_tmr.c ****   /* tmr period buffer set */
 637:HW_Lib/AT32F435/drivers/src/at32f435_437_tmr.c ****   tmr_x->ctrl1_bit.prben = new_state;
 1274              		.loc 1 637 3 view .LVU333
 1275              		.loc 1 637 26 is_stmt 0 view .LVU334
 1276 0000 0368     		ldr	r3, [r0]
 1277 0002 61F3C713 		bfi	r3, r1, #7, #1
 1278 0006 0360     		str	r3, [r0]
 638:HW_Lib/AT32F435/drivers/src/at32f435_437_tmr.c **** }
 1279              		.loc 1 638 1 view .LVU335
 1280 0008 7047     		bx	lr
ARM GAS  C:\Users\8bit\AppData\Local\Temp\ccwaFnug.s 			page 35


 1281              		.cfi_endproc
 1282              	.LFE152:
 1284              		.section	.text.tmr_output_channel_buffer_enable,"ax",%progbits
 1285              		.align	1
 1286              		.global	tmr_output_channel_buffer_enable
 1287              		.syntax unified
 1288              		.thumb
 1289              		.thumb_func
 1291              	tmr_output_channel_buffer_enable:
 1292              	.LVL119:
 1293              	.LFB153:
 639:HW_Lib/AT32F435/drivers/src/at32f435_437_tmr.c **** 
 640:HW_Lib/AT32F435/drivers/src/at32f435_437_tmr.c **** /**
 641:HW_Lib/AT32F435/drivers/src/at32f435_437_tmr.c ****   * @brief  set tmr output channel buffer
 642:HW_Lib/AT32F435/drivers/src/at32f435_437_tmr.c ****   * @param  tmr_x: select the tmr peripheral.
 643:HW_Lib/AT32F435/drivers/src/at32f435_437_tmr.c ****   *         this parameter can be one of the following values:
 644:HW_Lib/AT32F435/drivers/src/at32f435_437_tmr.c ****   *         TMR1, TMR2, TMR3, TMR4, TMR5, TMR8, TMR9, TMR10,
 645:HW_Lib/AT32F435/drivers/src/at32f435_437_tmr.c ****   *         TMR11, TMR12, TMR13, TMR14, TMR20
 646:HW_Lib/AT32F435/drivers/src/at32f435_437_tmr.c ****   * @param  tmr_channel
 647:HW_Lib/AT32F435/drivers/src/at32f435_437_tmr.c ****   *         this parameter can be one of the following values:
 648:HW_Lib/AT32F435/drivers/src/at32f435_437_tmr.c ****   *         - TMR_SELECT_CHANNEL_1
 649:HW_Lib/AT32F435/drivers/src/at32f435_437_tmr.c ****   *         - TMR_SELECT_CHANNEL_2
 650:HW_Lib/AT32F435/drivers/src/at32f435_437_tmr.c ****   *         - TMR_SELECT_CHANNEL_3
 651:HW_Lib/AT32F435/drivers/src/at32f435_437_tmr.c ****   *         - TMR_SELECT_CHANNEL_4
 652:HW_Lib/AT32F435/drivers/src/at32f435_437_tmr.c ****   *         - TMR_SELECT_CHANNEL_5
 653:HW_Lib/AT32F435/drivers/src/at32f435_437_tmr.c ****   * @param  new_state (TRUE or FALSE)
 654:HW_Lib/AT32F435/drivers/src/at32f435_437_tmr.c ****   * @retval none
 655:HW_Lib/AT32F435/drivers/src/at32f435_437_tmr.c ****   */
 656:HW_Lib/AT32F435/drivers/src/at32f435_437_tmr.c **** void tmr_output_channel_buffer_enable(tmr_type *tmr_x, tmr_channel_select_type tmr_channel, \
 657:HW_Lib/AT32F435/drivers/src/at32f435_437_tmr.c ****                                    confirm_state new_state)
 658:HW_Lib/AT32F435/drivers/src/at32f435_437_tmr.c **** {
 1294              		.loc 1 658 1 is_stmt 1 view -0
 1295              		.cfi_startproc
 1296              		@ args = 0, pretend = 0, frame = 0
 1297              		@ frame_needed = 0, uses_anonymous_args = 0
 1298              		@ link register save eliminated.
 659:HW_Lib/AT32F435/drivers/src/at32f435_437_tmr.c ****   uint16_t channel;
 1299              		.loc 1 659 3 view .LVU337
 660:HW_Lib/AT32F435/drivers/src/at32f435_437_tmr.c **** 
 661:HW_Lib/AT32F435/drivers/src/at32f435_437_tmr.c ****   channel = tmr_channel;
 1300              		.loc 1 661 3 view .LVU338
 662:HW_Lib/AT32F435/drivers/src/at32f435_437_tmr.c **** 
 663:HW_Lib/AT32F435/drivers/src/at32f435_437_tmr.c ****   /* get tmr channel value */
 664:HW_Lib/AT32F435/drivers/src/at32f435_437_tmr.c ****   switch(channel)
 1301              		.loc 1 664 3 view .LVU339
 1302 0000 0729     		cmp	r1, #7
 1303 0002 1DD8     		bhi	.L83
 1304 0004 DFE801F0 		tbb	[pc, r1]
 1305              	.L86:
 1306 0008 04       		.byte	(.L90-.L86)/2
 1307 0009 1C       		.byte	(.L83-.L86)/2
 1308 000a 09       		.byte	(.L89-.L86)/2
 1309 000b 1C       		.byte	(.L83-.L86)/2
 1310 000c 0E       		.byte	(.L88-.L86)/2
 1311 000d 1C       		.byte	(.L83-.L86)/2
 1312 000e 13       		.byte	(.L87-.L86)/2
 1313 000f 18       		.byte	(.L85-.L86)/2
ARM GAS  C:\Users\8bit\AppData\Local\Temp\ccwaFnug.s 			page 36


 1314              		.p2align 1
 1315              	.L90:
 665:HW_Lib/AT32F435/drivers/src/at32f435_437_tmr.c ****   {
 666:HW_Lib/AT32F435/drivers/src/at32f435_437_tmr.c ****     case TMR_SELECT_CHANNEL_1:
 667:HW_Lib/AT32F435/drivers/src/at32f435_437_tmr.c ****       tmr_x->cm1_output_bit.c1oben = new_state;
 1316              		.loc 1 667 7 view .LVU340
 1317              		.loc 1 667 36 is_stmt 0 view .LVU341
 1318 0010 8369     		ldr	r3, [r0, #24]
 1319 0012 62F3C303 		bfi	r3, r2, #3, #1
 1320 0016 8361     		str	r3, [r0, #24]
 668:HW_Lib/AT32F435/drivers/src/at32f435_437_tmr.c ****       break;
 1321              		.loc 1 668 7 is_stmt 1 view .LVU342
 1322 0018 7047     		bx	lr
 1323              	.L89:
 669:HW_Lib/AT32F435/drivers/src/at32f435_437_tmr.c **** 
 670:HW_Lib/AT32F435/drivers/src/at32f435_437_tmr.c ****     case TMR_SELECT_CHANNEL_2:
 671:HW_Lib/AT32F435/drivers/src/at32f435_437_tmr.c ****       tmr_x->cm1_output_bit.c2oben = new_state;
 1324              		.loc 1 671 7 view .LVU343
 1325              		.loc 1 671 36 is_stmt 0 view .LVU344
 1326 001a 8369     		ldr	r3, [r0, #24]
 1327 001c 62F3CB23 		bfi	r3, r2, #11, #1
 1328 0020 8361     		str	r3, [r0, #24]
 672:HW_Lib/AT32F435/drivers/src/at32f435_437_tmr.c ****       break;
 1329              		.loc 1 672 7 is_stmt 1 view .LVU345
 1330 0022 7047     		bx	lr
 1331              	.L88:
 673:HW_Lib/AT32F435/drivers/src/at32f435_437_tmr.c **** 
 674:HW_Lib/AT32F435/drivers/src/at32f435_437_tmr.c ****     case TMR_SELECT_CHANNEL_3:
 675:HW_Lib/AT32F435/drivers/src/at32f435_437_tmr.c ****       tmr_x->cm2_output_bit.c3oben = new_state;
 1332              		.loc 1 675 7 view .LVU346
 1333              		.loc 1 675 36 is_stmt 0 view .LVU347
 1334 0024 C369     		ldr	r3, [r0, #28]
 1335 0026 62F3C303 		bfi	r3, r2, #3, #1
 1336 002a C361     		str	r3, [r0, #28]
 676:HW_Lib/AT32F435/drivers/src/at32f435_437_tmr.c ****       break;
 1337              		.loc 1 676 7 is_stmt 1 view .LVU348
 1338 002c 7047     		bx	lr
 1339              	.L87:
 677:HW_Lib/AT32F435/drivers/src/at32f435_437_tmr.c **** 
 678:HW_Lib/AT32F435/drivers/src/at32f435_437_tmr.c ****     case TMR_SELECT_CHANNEL_4:
 679:HW_Lib/AT32F435/drivers/src/at32f435_437_tmr.c ****       tmr_x->cm2_output_bit.c4oben = new_state;
 1340              		.loc 1 679 7 view .LVU349
 1341              		.loc 1 679 36 is_stmt 0 view .LVU350
 1342 002e C369     		ldr	r3, [r0, #28]
 1343 0030 62F3CB23 		bfi	r3, r2, #11, #1
 1344 0034 C361     		str	r3, [r0, #28]
 680:HW_Lib/AT32F435/drivers/src/at32f435_437_tmr.c ****       break;
 1345              		.loc 1 680 7 is_stmt 1 view .LVU351
 1346 0036 7047     		bx	lr
 1347              	.L85:
 681:HW_Lib/AT32F435/drivers/src/at32f435_437_tmr.c **** 
 682:HW_Lib/AT32F435/drivers/src/at32f435_437_tmr.c ****     case TMR_SELECT_CHANNEL_5:
 683:HW_Lib/AT32F435/drivers/src/at32f435_437_tmr.c ****       tmr_x->cm3_output_bit.c5oben = new_state;
 1348              		.loc 1 683 7 view .LVU352
 1349              		.loc 1 683 36 is_stmt 0 view .LVU353
 1350 0038 036F     		ldr	r3, [r0, #112]
 1351 003a 62F3C303 		bfi	r3, r2, #3, #1
ARM GAS  C:\Users\8bit\AppData\Local\Temp\ccwaFnug.s 			page 37


 1352 003e 0367     		str	r3, [r0, #112]
 684:HW_Lib/AT32F435/drivers/src/at32f435_437_tmr.c ****       break;
 1353              		.loc 1 684 7 is_stmt 1 view .LVU354
 1354              	.L83:
 685:HW_Lib/AT32F435/drivers/src/at32f435_437_tmr.c **** 
 686:HW_Lib/AT32F435/drivers/src/at32f435_437_tmr.c ****     default:
 687:HW_Lib/AT32F435/drivers/src/at32f435_437_tmr.c ****       break;
 688:HW_Lib/AT32F435/drivers/src/at32f435_437_tmr.c ****   }
 689:HW_Lib/AT32F435/drivers/src/at32f435_437_tmr.c **** }
 1355              		.loc 1 689 1 is_stmt 0 view .LVU355
 1356 0040 7047     		bx	lr
 1357              		.cfi_endproc
 1358              	.LFE153:
 1360              		.section	.text.tmr_output_channel_immediately_set,"ax",%progbits
 1361              		.align	1
 1362              		.global	tmr_output_channel_immediately_set
 1363              		.syntax unified
 1364              		.thumb
 1365              		.thumb_func
 1367              	tmr_output_channel_immediately_set:
 1368              	.LVL120:
 1369              	.LFB154:
 690:HW_Lib/AT32F435/drivers/src/at32f435_437_tmr.c **** 
 691:HW_Lib/AT32F435/drivers/src/at32f435_437_tmr.c **** /**
 692:HW_Lib/AT32F435/drivers/src/at32f435_437_tmr.c ****   * @brief  set tmr output channel immediately
 693:HW_Lib/AT32F435/drivers/src/at32f435_437_tmr.c ****   * @param  tmr_x: select the tmr peripheral.
 694:HW_Lib/AT32F435/drivers/src/at32f435_437_tmr.c ****   *         this parameter can be one of the following values:
 695:HW_Lib/AT32F435/drivers/src/at32f435_437_tmr.c ****   *         TMR1, TMR2, TMR3, TMR4, TMR5, TMR8, TMR9, TMR10,
 696:HW_Lib/AT32F435/drivers/src/at32f435_437_tmr.c ****   *         TMR11, TMR12, TMR13, TMR14, TMR20
 697:HW_Lib/AT32F435/drivers/src/at32f435_437_tmr.c ****   * @param  tmr_channel
 698:HW_Lib/AT32F435/drivers/src/at32f435_437_tmr.c ****   *         this parameter can be one of the following values:
 699:HW_Lib/AT32F435/drivers/src/at32f435_437_tmr.c ****   *         - TMR_SELECT_CHANNEL_1
 700:HW_Lib/AT32F435/drivers/src/at32f435_437_tmr.c ****   *         - TMR_SELECT_CHANNEL_2
 701:HW_Lib/AT32F435/drivers/src/at32f435_437_tmr.c ****   *         - TMR_SELECT_CHANNEL_3
 702:HW_Lib/AT32F435/drivers/src/at32f435_437_tmr.c ****   *         - TMR_SELECT_CHANNEL_4
 703:HW_Lib/AT32F435/drivers/src/at32f435_437_tmr.c ****   *         - TMR_SELECT_CHANNEL_5
 704:HW_Lib/AT32F435/drivers/src/at32f435_437_tmr.c ****   * @param  new_state (TRUE or FALSE)
 705:HW_Lib/AT32F435/drivers/src/at32f435_437_tmr.c ****   * @retval none
 706:HW_Lib/AT32F435/drivers/src/at32f435_437_tmr.c ****   */
 707:HW_Lib/AT32F435/drivers/src/at32f435_437_tmr.c **** void tmr_output_channel_immediately_set(tmr_type *tmr_x, tmr_channel_select_type tmr_channel, \
 708:HW_Lib/AT32F435/drivers/src/at32f435_437_tmr.c ****                                         confirm_state new_state)
 709:HW_Lib/AT32F435/drivers/src/at32f435_437_tmr.c **** {
 1370              		.loc 1 709 1 is_stmt 1 view -0
 1371              		.cfi_startproc
 1372              		@ args = 0, pretend = 0, frame = 0
 1373              		@ frame_needed = 0, uses_anonymous_args = 0
 1374              		@ link register save eliminated.
 710:HW_Lib/AT32F435/drivers/src/at32f435_437_tmr.c ****   uint16_t channel;
 1375              		.loc 1 710 3 view .LVU357
 711:HW_Lib/AT32F435/drivers/src/at32f435_437_tmr.c **** 
 712:HW_Lib/AT32F435/drivers/src/at32f435_437_tmr.c ****   channel = tmr_channel;
 1376              		.loc 1 712 3 view .LVU358
 713:HW_Lib/AT32F435/drivers/src/at32f435_437_tmr.c **** 
 714:HW_Lib/AT32F435/drivers/src/at32f435_437_tmr.c ****   /* get tmr channel value */
 715:HW_Lib/AT32F435/drivers/src/at32f435_437_tmr.c ****   switch(channel)
 1377              		.loc 1 715 3 view .LVU359
 1378 0000 0729     		cmp	r1, #7
ARM GAS  C:\Users\8bit\AppData\Local\Temp\ccwaFnug.s 			page 38


 1379 0002 1DD8     		bhi	.L91
 1380 0004 DFE801F0 		tbb	[pc, r1]
 1381              	.L94:
 1382 0008 04       		.byte	(.L98-.L94)/2
 1383 0009 1C       		.byte	(.L91-.L94)/2
 1384 000a 09       		.byte	(.L97-.L94)/2
 1385 000b 1C       		.byte	(.L91-.L94)/2
 1386 000c 0E       		.byte	(.L96-.L94)/2
 1387 000d 1C       		.byte	(.L91-.L94)/2
 1388 000e 13       		.byte	(.L95-.L94)/2
 1389 000f 18       		.byte	(.L93-.L94)/2
 1390              		.p2align 1
 1391              	.L98:
 716:HW_Lib/AT32F435/drivers/src/at32f435_437_tmr.c ****   {
 717:HW_Lib/AT32F435/drivers/src/at32f435_437_tmr.c ****     case TMR_SELECT_CHANNEL_1:
 718:HW_Lib/AT32F435/drivers/src/at32f435_437_tmr.c ****       tmr_x->cm1_output_bit.c1oien = new_state;
 1392              		.loc 1 718 7 view .LVU360
 1393              		.loc 1 718 36 is_stmt 0 view .LVU361
 1394 0010 8369     		ldr	r3, [r0, #24]
 1395 0012 62F38203 		bfi	r3, r2, #2, #1
 1396 0016 8361     		str	r3, [r0, #24]
 719:HW_Lib/AT32F435/drivers/src/at32f435_437_tmr.c ****       break;
 1397              		.loc 1 719 7 is_stmt 1 view .LVU362
 1398 0018 7047     		bx	lr
 1399              	.L97:
 720:HW_Lib/AT32F435/drivers/src/at32f435_437_tmr.c **** 
 721:HW_Lib/AT32F435/drivers/src/at32f435_437_tmr.c ****     case TMR_SELECT_CHANNEL_2:
 722:HW_Lib/AT32F435/drivers/src/at32f435_437_tmr.c ****       tmr_x->cm1_output_bit.c2oien = new_state;
 1400              		.loc 1 722 7 view .LVU363
 1401              		.loc 1 722 36 is_stmt 0 view .LVU364
 1402 001a 8369     		ldr	r3, [r0, #24]
 1403 001c 62F38A23 		bfi	r3, r2, #10, #1
 1404 0020 8361     		str	r3, [r0, #24]
 723:HW_Lib/AT32F435/drivers/src/at32f435_437_tmr.c ****       break;
 1405              		.loc 1 723 7 is_stmt 1 view .LVU365
 1406 0022 7047     		bx	lr
 1407              	.L96:
 724:HW_Lib/AT32F435/drivers/src/at32f435_437_tmr.c **** 
 725:HW_Lib/AT32F435/drivers/src/at32f435_437_tmr.c ****     case TMR_SELECT_CHANNEL_3:
 726:HW_Lib/AT32F435/drivers/src/at32f435_437_tmr.c ****       tmr_x->cm2_output_bit.c3oien = new_state;
 1408              		.loc 1 726 7 view .LVU366
 1409              		.loc 1 726 36 is_stmt 0 view .LVU367
 1410 0024 C369     		ldr	r3, [r0, #28]
 1411 0026 62F38203 		bfi	r3, r2, #2, #1
 1412 002a C361     		str	r3, [r0, #28]
 727:HW_Lib/AT32F435/drivers/src/at32f435_437_tmr.c ****       break;
 1413              		.loc 1 727 7 is_stmt 1 view .LVU368
 1414 002c 7047     		bx	lr
 1415              	.L95:
 728:HW_Lib/AT32F435/drivers/src/at32f435_437_tmr.c **** 
 729:HW_Lib/AT32F435/drivers/src/at32f435_437_tmr.c ****     case TMR_SELECT_CHANNEL_4:
 730:HW_Lib/AT32F435/drivers/src/at32f435_437_tmr.c ****       tmr_x->cm2_output_bit.c4oien = new_state;
 1416              		.loc 1 730 7 view .LVU369
 1417              		.loc 1 730 36 is_stmt 0 view .LVU370
 1418 002e C369     		ldr	r3, [r0, #28]
 1419 0030 62F38A23 		bfi	r3, r2, #10, #1
 1420 0034 C361     		str	r3, [r0, #28]
ARM GAS  C:\Users\8bit\AppData\Local\Temp\ccwaFnug.s 			page 39


 731:HW_Lib/AT32F435/drivers/src/at32f435_437_tmr.c ****       break;
 1421              		.loc 1 731 7 is_stmt 1 view .LVU371
 1422 0036 7047     		bx	lr
 1423              	.L93:
 732:HW_Lib/AT32F435/drivers/src/at32f435_437_tmr.c **** 
 733:HW_Lib/AT32F435/drivers/src/at32f435_437_tmr.c ****     case TMR_SELECT_CHANNEL_5:
 734:HW_Lib/AT32F435/drivers/src/at32f435_437_tmr.c ****       tmr_x->cm3_output_bit.c5oien = new_state;
 1424              		.loc 1 734 7 view .LVU372
 1425              		.loc 1 734 36 is_stmt 0 view .LVU373
 1426 0038 036F     		ldr	r3, [r0, #112]
 1427 003a 62F38203 		bfi	r3, r2, #2, #1
 1428 003e 0367     		str	r3, [r0, #112]
 735:HW_Lib/AT32F435/drivers/src/at32f435_437_tmr.c ****       break;
 1429              		.loc 1 735 7 is_stmt 1 view .LVU374
 1430              	.L91:
 736:HW_Lib/AT32F435/drivers/src/at32f435_437_tmr.c **** 
 737:HW_Lib/AT32F435/drivers/src/at32f435_437_tmr.c ****     default:
 738:HW_Lib/AT32F435/drivers/src/at32f435_437_tmr.c ****       break;
 739:HW_Lib/AT32F435/drivers/src/at32f435_437_tmr.c ****   }
 740:HW_Lib/AT32F435/drivers/src/at32f435_437_tmr.c **** }
 1431              		.loc 1 740 1 is_stmt 0 view .LVU375
 1432 0040 7047     		bx	lr
 1433              		.cfi_endproc
 1434              	.LFE154:
 1436              		.section	.text.tmr_output_channel_switch_set,"ax",%progbits
 1437              		.align	1
 1438              		.global	tmr_output_channel_switch_set
 1439              		.syntax unified
 1440              		.thumb
 1441              		.thumb_func
 1443              	tmr_output_channel_switch_set:
 1444              	.LVL121:
 1445              	.LFB155:
 741:HW_Lib/AT32F435/drivers/src/at32f435_437_tmr.c **** 
 742:HW_Lib/AT32F435/drivers/src/at32f435_437_tmr.c **** /**
 743:HW_Lib/AT32F435/drivers/src/at32f435_437_tmr.c ****   * @brief  set tmr output channel switch
 744:HW_Lib/AT32F435/drivers/src/at32f435_437_tmr.c ****   * @param  tmr_x: select the tmr peripheral.
 745:HW_Lib/AT32F435/drivers/src/at32f435_437_tmr.c ****   *         this parameter can be one of the following values:
 746:HW_Lib/AT32F435/drivers/src/at32f435_437_tmr.c ****   *         TMR1, TMR2, TMR3, TMR4, TMR5, TMR8, TMR9, TMR10,
 747:HW_Lib/AT32F435/drivers/src/at32f435_437_tmr.c ****   *         TMR11, TMR12, TMR13, TMR14, TMR20
 748:HW_Lib/AT32F435/drivers/src/at32f435_437_tmr.c ****   * @param  tmr_channel
 749:HW_Lib/AT32F435/drivers/src/at32f435_437_tmr.c ****   *         this parameter can be one of the following values:
 750:HW_Lib/AT32F435/drivers/src/at32f435_437_tmr.c ****   *         - TMR_SELECT_CHANNEL_1
 751:HW_Lib/AT32F435/drivers/src/at32f435_437_tmr.c ****   *         - TMR_SELECT_CHANNEL_2
 752:HW_Lib/AT32F435/drivers/src/at32f435_437_tmr.c ****   *         - TMR_SELECT_CHANNEL_3
 753:HW_Lib/AT32F435/drivers/src/at32f435_437_tmr.c ****   *         - TMR_SELECT_CHANNEL_4
 754:HW_Lib/AT32F435/drivers/src/at32f435_437_tmr.c ****   *         - TMR_SELECT_CHANNEL_5
 755:HW_Lib/AT32F435/drivers/src/at32f435_437_tmr.c ****   * @param  new_state (TRUE or FALSE)
 756:HW_Lib/AT32F435/drivers/src/at32f435_437_tmr.c ****   * @retval none
 757:HW_Lib/AT32F435/drivers/src/at32f435_437_tmr.c ****   */
 758:HW_Lib/AT32F435/drivers/src/at32f435_437_tmr.c **** void tmr_output_channel_switch_set(tmr_type *tmr_x, tmr_channel_select_type tmr_channel, \
 759:HW_Lib/AT32F435/drivers/src/at32f435_437_tmr.c ****                                    confirm_state new_state)
 760:HW_Lib/AT32F435/drivers/src/at32f435_437_tmr.c **** {
 1446              		.loc 1 760 1 is_stmt 1 view -0
 1447              		.cfi_startproc
 1448              		@ args = 0, pretend = 0, frame = 0
 1449              		@ frame_needed = 0, uses_anonymous_args = 0
ARM GAS  C:\Users\8bit\AppData\Local\Temp\ccwaFnug.s 			page 40


 1450              		@ link register save eliminated.
 761:HW_Lib/AT32F435/drivers/src/at32f435_437_tmr.c ****   uint16_t channel;
 1451              		.loc 1 761 3 view .LVU377
 762:HW_Lib/AT32F435/drivers/src/at32f435_437_tmr.c **** 
 763:HW_Lib/AT32F435/drivers/src/at32f435_437_tmr.c ****   channel = tmr_channel;
 1452              		.loc 1 763 3 view .LVU378
 764:HW_Lib/AT32F435/drivers/src/at32f435_437_tmr.c **** 
 765:HW_Lib/AT32F435/drivers/src/at32f435_437_tmr.c ****   /* get tmr channel value */
 766:HW_Lib/AT32F435/drivers/src/at32f435_437_tmr.c ****   switch(channel)
 1453              		.loc 1 766 3 view .LVU379
 1454 0000 0729     		cmp	r1, #7
 1455 0002 1DD8     		bhi	.L99
 1456 0004 DFE801F0 		tbb	[pc, r1]
 1457              	.L102:
 1458 0008 04       		.byte	(.L106-.L102)/2
 1459 0009 1C       		.byte	(.L99-.L102)/2
 1460 000a 09       		.byte	(.L105-.L102)/2
 1461 000b 1C       		.byte	(.L99-.L102)/2
 1462 000c 0E       		.byte	(.L104-.L102)/2
 1463 000d 1C       		.byte	(.L99-.L102)/2
 1464 000e 13       		.byte	(.L103-.L102)/2
 1465 000f 18       		.byte	(.L101-.L102)/2
 1466              		.p2align 1
 1467              	.L106:
 767:HW_Lib/AT32F435/drivers/src/at32f435_437_tmr.c ****   {
 768:HW_Lib/AT32F435/drivers/src/at32f435_437_tmr.c ****     case TMR_SELECT_CHANNEL_1:
 769:HW_Lib/AT32F435/drivers/src/at32f435_437_tmr.c ****       tmr_x->cm1_output_bit.c1osen = new_state;
 1468              		.loc 1 769 7 view .LVU380
 1469              		.loc 1 769 36 is_stmt 0 view .LVU381
 1470 0010 8369     		ldr	r3, [r0, #24]
 1471 0012 62F3C713 		bfi	r3, r2, #7, #1
 1472 0016 8361     		str	r3, [r0, #24]
 770:HW_Lib/AT32F435/drivers/src/at32f435_437_tmr.c ****       break;
 1473              		.loc 1 770 7 is_stmt 1 view .LVU382
 1474 0018 7047     		bx	lr
 1475              	.L105:
 771:HW_Lib/AT32F435/drivers/src/at32f435_437_tmr.c **** 
 772:HW_Lib/AT32F435/drivers/src/at32f435_437_tmr.c ****     case TMR_SELECT_CHANNEL_2:
 773:HW_Lib/AT32F435/drivers/src/at32f435_437_tmr.c ****       tmr_x->cm1_output_bit.c2osen = new_state;
 1476              		.loc 1 773 7 view .LVU383
 1477              		.loc 1 773 36 is_stmt 0 view .LVU384
 1478 001a 8369     		ldr	r3, [r0, #24]
 1479 001c 62F3CF33 		bfi	r3, r2, #15, #1
 1480 0020 8361     		str	r3, [r0, #24]
 774:HW_Lib/AT32F435/drivers/src/at32f435_437_tmr.c ****       break;
 1481              		.loc 1 774 7 is_stmt 1 view .LVU385
 1482 0022 7047     		bx	lr
 1483              	.L104:
 775:HW_Lib/AT32F435/drivers/src/at32f435_437_tmr.c **** 
 776:HW_Lib/AT32F435/drivers/src/at32f435_437_tmr.c ****     case TMR_SELECT_CHANNEL_3:
 777:HW_Lib/AT32F435/drivers/src/at32f435_437_tmr.c ****       tmr_x->cm2_output_bit.c3osen = new_state;
 1484              		.loc 1 777 7 view .LVU386
 1485              		.loc 1 777 36 is_stmt 0 view .LVU387
 1486 0024 C369     		ldr	r3, [r0, #28]
 1487 0026 62F3C713 		bfi	r3, r2, #7, #1
 1488 002a C361     		str	r3, [r0, #28]
 778:HW_Lib/AT32F435/drivers/src/at32f435_437_tmr.c ****       break;
ARM GAS  C:\Users\8bit\AppData\Local\Temp\ccwaFnug.s 			page 41


 1489              		.loc 1 778 7 is_stmt 1 view .LVU388
 1490 002c 7047     		bx	lr
 1491              	.L103:
 779:HW_Lib/AT32F435/drivers/src/at32f435_437_tmr.c **** 
 780:HW_Lib/AT32F435/drivers/src/at32f435_437_tmr.c ****     case TMR_SELECT_CHANNEL_4:
 781:HW_Lib/AT32F435/drivers/src/at32f435_437_tmr.c ****       tmr_x->cm2_output_bit.c4osen = new_state;
 1492              		.loc 1 781 7 view .LVU389
 1493              		.loc 1 781 36 is_stmt 0 view .LVU390
 1494 002e C369     		ldr	r3, [r0, #28]
 1495 0030 62F3CF33 		bfi	r3, r2, #15, #1
 1496 0034 C361     		str	r3, [r0, #28]
 782:HW_Lib/AT32F435/drivers/src/at32f435_437_tmr.c ****       break;
 1497              		.loc 1 782 7 is_stmt 1 view .LVU391
 1498 0036 7047     		bx	lr
 1499              	.L101:
 783:HW_Lib/AT32F435/drivers/src/at32f435_437_tmr.c **** 
 784:HW_Lib/AT32F435/drivers/src/at32f435_437_tmr.c ****     case TMR_SELECT_CHANNEL_5:
 785:HW_Lib/AT32F435/drivers/src/at32f435_437_tmr.c ****       tmr_x->cm3_output_bit.c5osen = new_state;
 1500              		.loc 1 785 7 view .LVU392
 1501              		.loc 1 785 36 is_stmt 0 view .LVU393
 1502 0038 036F     		ldr	r3, [r0, #112]
 1503 003a 62F3C713 		bfi	r3, r2, #7, #1
 1504 003e 0367     		str	r3, [r0, #112]
 786:HW_Lib/AT32F435/drivers/src/at32f435_437_tmr.c ****       break;
 1505              		.loc 1 786 7 is_stmt 1 view .LVU394
 1506              	.L99:
 787:HW_Lib/AT32F435/drivers/src/at32f435_437_tmr.c **** 
 788:HW_Lib/AT32F435/drivers/src/at32f435_437_tmr.c ****     default:
 789:HW_Lib/AT32F435/drivers/src/at32f435_437_tmr.c ****       break;
 790:HW_Lib/AT32F435/drivers/src/at32f435_437_tmr.c ****   }
 791:HW_Lib/AT32F435/drivers/src/at32f435_437_tmr.c **** }
 1507              		.loc 1 791 1 is_stmt 0 view .LVU395
 1508 0040 7047     		bx	lr
 1509              		.cfi_endproc
 1510              	.LFE155:
 1512              		.section	.text.tmr_one_cycle_mode_enable,"ax",%progbits
 1513              		.align	1
 1514              		.global	tmr_one_cycle_mode_enable
 1515              		.syntax unified
 1516              		.thumb
 1517              		.thumb_func
 1519              	tmr_one_cycle_mode_enable:
 1520              	.LVL122:
 1521              	.LFB156:
 792:HW_Lib/AT32F435/drivers/src/at32f435_437_tmr.c **** 
 793:HW_Lib/AT32F435/drivers/src/at32f435_437_tmr.c **** /**
 794:HW_Lib/AT32F435/drivers/src/at32f435_437_tmr.c ****   * @brief  enable or disable tmr one cycle mode
 795:HW_Lib/AT32F435/drivers/src/at32f435_437_tmr.c ****   * @param  tmr_x: select the tmr peripheral.
 796:HW_Lib/AT32F435/drivers/src/at32f435_437_tmr.c ****   *         this parameter can be one of the following values:
 797:HW_Lib/AT32F435/drivers/src/at32f435_437_tmr.c ****   *         TMR1, TMR2, TMR3, TMR4, TMR5, TMR6, TMR7, TMR8, TMR9, TMR12, TMR20
 798:HW_Lib/AT32F435/drivers/src/at32f435_437_tmr.c ****   * @param  new_state (TRUE or FALSE)
 799:HW_Lib/AT32F435/drivers/src/at32f435_437_tmr.c ****   * @retval none
 800:HW_Lib/AT32F435/drivers/src/at32f435_437_tmr.c ****   */
 801:HW_Lib/AT32F435/drivers/src/at32f435_437_tmr.c **** void tmr_one_cycle_mode_enable(tmr_type *tmr_x, confirm_state new_state)
 802:HW_Lib/AT32F435/drivers/src/at32f435_437_tmr.c **** {
 1522              		.loc 1 802 1 is_stmt 1 view -0
 1523              		.cfi_startproc
ARM GAS  C:\Users\8bit\AppData\Local\Temp\ccwaFnug.s 			page 42


 1524              		@ args = 0, pretend = 0, frame = 0
 1525              		@ frame_needed = 0, uses_anonymous_args = 0
 1526              		@ link register save eliminated.
 803:HW_Lib/AT32F435/drivers/src/at32f435_437_tmr.c ****   /* tmr one cycle mode enable */
 804:HW_Lib/AT32F435/drivers/src/at32f435_437_tmr.c ****   tmr_x->ctrl1_bit.ocmen = new_state;
 1527              		.loc 1 804 3 view .LVU397
 1528              		.loc 1 804 26 is_stmt 0 view .LVU398
 1529 0000 0368     		ldr	r3, [r0]
 1530 0002 61F3C303 		bfi	r3, r1, #3, #1
 1531 0006 0360     		str	r3, [r0]
 805:HW_Lib/AT32F435/drivers/src/at32f435_437_tmr.c **** }
 1532              		.loc 1 805 1 view .LVU399
 1533 0008 7047     		bx	lr
 1534              		.cfi_endproc
 1535              	.LFE156:
 1537              		.section	.text.tmr_32_bit_function_enable,"ax",%progbits
 1538              		.align	1
 1539              		.global	tmr_32_bit_function_enable
 1540              		.syntax unified
 1541              		.thumb
 1542              		.thumb_func
 1544              	tmr_32_bit_function_enable:
 1545              	.LVL123:
 1546              	.LFB157:
 806:HW_Lib/AT32F435/drivers/src/at32f435_437_tmr.c **** 
 807:HW_Lib/AT32F435/drivers/src/at32f435_437_tmr.c **** /**
 808:HW_Lib/AT32F435/drivers/src/at32f435_437_tmr.c ****   * @brief  enable or disable  tmr 32 bit function(plus mode)
 809:HW_Lib/AT32F435/drivers/src/at32f435_437_tmr.c ****   * @param  tmr_x: select the tmr peripheral.
 810:HW_Lib/AT32F435/drivers/src/at32f435_437_tmr.c ****   *         this parameter can be one of the following values:
 811:HW_Lib/AT32F435/drivers/src/at32f435_437_tmr.c ****   *         TMR2, TMR5
 812:HW_Lib/AT32F435/drivers/src/at32f435_437_tmr.c ****   * @param  new_state (TRUE or FALSE)
 813:HW_Lib/AT32F435/drivers/src/at32f435_437_tmr.c ****   * @retval none
 814:HW_Lib/AT32F435/drivers/src/at32f435_437_tmr.c ****   */
 815:HW_Lib/AT32F435/drivers/src/at32f435_437_tmr.c **** void tmr_32_bit_function_enable (tmr_type *tmr_x, confirm_state new_state)
 816:HW_Lib/AT32F435/drivers/src/at32f435_437_tmr.c **** {
 1547              		.loc 1 816 1 is_stmt 1 view -0
 1548              		.cfi_startproc
 1549              		@ args = 0, pretend = 0, frame = 0
 1550              		@ frame_needed = 0, uses_anonymous_args = 0
 1551              		@ link register save eliminated.
 817:HW_Lib/AT32F435/drivers/src/at32f435_437_tmr.c ****   /* tmr 32 bit function(plus mode) enable,only for TMR2/TMR5 */
 818:HW_Lib/AT32F435/drivers/src/at32f435_437_tmr.c ****   if((tmr_x == TMR2) || (tmr_x == TMR5))
 1552              		.loc 1 818 3 view .LVU401
 1553              		.loc 1 818 5 is_stmt 0 view .LVU402
 1554 0000 B0F1804F 		cmp	r0, #1073741824
 1555 0004 02D0     		beq	.L109
 1556              		.loc 1 818 22 discriminator 1 view .LVU403
 1557 0006 044B     		ldr	r3, .L111
 1558 0008 9842     		cmp	r0, r3
 1559 000a 03D1     		bne	.L108
 1560              	.L109:
 819:HW_Lib/AT32F435/drivers/src/at32f435_437_tmr.c ****   {
 820:HW_Lib/AT32F435/drivers/src/at32f435_437_tmr.c ****     tmr_x->ctrl1_bit.pmen = new_state;
 1561              		.loc 1 820 5 is_stmt 1 view .LVU404
 1562              		.loc 1 820 27 is_stmt 0 view .LVU405
 1563 000c 0368     		ldr	r3, [r0]
 1564 000e 61F38A23 		bfi	r3, r1, #10, #1
ARM GAS  C:\Users\8bit\AppData\Local\Temp\ccwaFnug.s 			page 43


 1565 0012 0360     		str	r3, [r0]
 1566              	.L108:
 821:HW_Lib/AT32F435/drivers/src/at32f435_437_tmr.c ****   }
 822:HW_Lib/AT32F435/drivers/src/at32f435_437_tmr.c **** }
 1567              		.loc 1 822 1 view .LVU406
 1568 0014 7047     		bx	lr
 1569              	.L112:
 1570 0016 00BF     		.align	2
 1571              	.L111:
 1572 0018 000C0040 		.word	1073744896
 1573              		.cfi_endproc
 1574              	.LFE157:
 1576              		.section	.text.tmr_overflow_request_source_set,"ax",%progbits
 1577              		.align	1
 1578              		.global	tmr_overflow_request_source_set
 1579              		.syntax unified
 1580              		.thumb
 1581              		.thumb_func
 1583              	tmr_overflow_request_source_set:
 1584              	.LVL124:
 1585              	.LFB158:
 823:HW_Lib/AT32F435/drivers/src/at32f435_437_tmr.c **** 
 824:HW_Lib/AT32F435/drivers/src/at32f435_437_tmr.c **** /**
 825:HW_Lib/AT32F435/drivers/src/at32f435_437_tmr.c ****   * @brief  select tmr the overflow event sources
 826:HW_Lib/AT32F435/drivers/src/at32f435_437_tmr.c ****   * @param  tmr_x: select the tmr peripheral.
 827:HW_Lib/AT32F435/drivers/src/at32f435_437_tmr.c ****   *         this parameter can be one of the following values:
 828:HW_Lib/AT32F435/drivers/src/at32f435_437_tmr.c ****   *         TMR1, TMR2, TMR3, TMR4, TMR5, TMR6, TMR7, TMR8,
 829:HW_Lib/AT32F435/drivers/src/at32f435_437_tmr.c ****   *         TMR9, TMR10, TMR11, TMR12, TMR13, TMR14, TMR20
 830:HW_Lib/AT32F435/drivers/src/at32f435_437_tmr.c ****   * @param  new_state (TRUE or FALSE)
 831:HW_Lib/AT32F435/drivers/src/at32f435_437_tmr.c ****   * @retval none
 832:HW_Lib/AT32F435/drivers/src/at32f435_437_tmr.c ****   */
 833:HW_Lib/AT32F435/drivers/src/at32f435_437_tmr.c **** void tmr_overflow_request_source_set(tmr_type *tmr_x, confirm_state new_state)
 834:HW_Lib/AT32F435/drivers/src/at32f435_437_tmr.c **** {
 1586              		.loc 1 834 1 is_stmt 1 view -0
 1587              		.cfi_startproc
 1588              		@ args = 0, pretend = 0, frame = 0
 1589              		@ frame_needed = 0, uses_anonymous_args = 0
 1590              		@ link register save eliminated.
 835:HW_Lib/AT32F435/drivers/src/at32f435_437_tmr.c ****   tmr_x->ctrl1_bit.ovfs = new_state;
 1591              		.loc 1 835 3 view .LVU408
 1592              		.loc 1 835 25 is_stmt 0 view .LVU409
 1593 0000 0368     		ldr	r3, [r0]
 1594 0002 61F38203 		bfi	r3, r1, #2, #1
 1595 0006 0360     		str	r3, [r0]
 836:HW_Lib/AT32F435/drivers/src/at32f435_437_tmr.c **** }
 1596              		.loc 1 836 1 view .LVU410
 1597 0008 7047     		bx	lr
 1598              		.cfi_endproc
 1599              	.LFE158:
 1601              		.section	.text.tmr_overflow_event_disable,"ax",%progbits
 1602              		.align	1
 1603              		.global	tmr_overflow_event_disable
 1604              		.syntax unified
 1605              		.thumb
 1606              		.thumb_func
 1608              	tmr_overflow_event_disable:
 1609              	.LVL125:
ARM GAS  C:\Users\8bit\AppData\Local\Temp\ccwaFnug.s 			page 44


 1610              	.LFB159:
 837:HW_Lib/AT32F435/drivers/src/at32f435_437_tmr.c **** 
 838:HW_Lib/AT32F435/drivers/src/at32f435_437_tmr.c **** /**
 839:HW_Lib/AT32F435/drivers/src/at32f435_437_tmr.c ****   * @brief  enable or disable tmr overflow event generation
 840:HW_Lib/AT32F435/drivers/src/at32f435_437_tmr.c ****   * @param  tmr_x: select the tmr peripheral.
 841:HW_Lib/AT32F435/drivers/src/at32f435_437_tmr.c ****   *         this parameter can be one of the following values:
 842:HW_Lib/AT32F435/drivers/src/at32f435_437_tmr.c ****   *         TMR1, TMR2, TMR3, TMR4, TMR5, TMR6, TMR7, TMR8,
 843:HW_Lib/AT32F435/drivers/src/at32f435_437_tmr.c ****   *         TMR9, TMR10, TMR11, TMR12, TMR13, TMR14, TMR20
 844:HW_Lib/AT32F435/drivers/src/at32f435_437_tmr.c ****   * @param  new_state (TRUE or FALSE)
 845:HW_Lib/AT32F435/drivers/src/at32f435_437_tmr.c ****   * @retval none
 846:HW_Lib/AT32F435/drivers/src/at32f435_437_tmr.c ****   */
 847:HW_Lib/AT32F435/drivers/src/at32f435_437_tmr.c **** void tmr_overflow_event_disable(tmr_type *tmr_x, confirm_state new_state)
 848:HW_Lib/AT32F435/drivers/src/at32f435_437_tmr.c **** {
 1611              		.loc 1 848 1 is_stmt 1 view -0
 1612              		.cfi_startproc
 1613              		@ args = 0, pretend = 0, frame = 0
 1614              		@ frame_needed = 0, uses_anonymous_args = 0
 1615              		@ link register save eliminated.
 849:HW_Lib/AT32F435/drivers/src/at32f435_437_tmr.c ****   tmr_x->ctrl1_bit.ovfen = new_state;
 1616              		.loc 1 849 3 view .LVU412
 1617              		.loc 1 849 26 is_stmt 0 view .LVU413
 1618 0000 0368     		ldr	r3, [r0]
 1619 0002 61F34103 		bfi	r3, r1, #1, #1
 1620 0006 0360     		str	r3, [r0]
 850:HW_Lib/AT32F435/drivers/src/at32f435_437_tmr.c **** }
 1621              		.loc 1 850 1 view .LVU414
 1622 0008 7047     		bx	lr
 1623              		.cfi_endproc
 1624              	.LFE159:
 1626              		.section	.text.tmr_input_channel_init,"ax",%progbits
 1627              		.align	1
 1628              		.global	tmr_input_channel_init
 1629              		.syntax unified
 1630              		.thumb
 1631              		.thumb_func
 1633              	tmr_input_channel_init:
 1634              	.LVL126:
 1635              	.LFB160:
 851:HW_Lib/AT32F435/drivers/src/at32f435_437_tmr.c **** 
 852:HW_Lib/AT32F435/drivers/src/at32f435_437_tmr.c **** /**
 853:HW_Lib/AT32F435/drivers/src/at32f435_437_tmr.c ****   * @brief  init tmr input channel
 854:HW_Lib/AT32F435/drivers/src/at32f435_437_tmr.c ****   * @param  tmr_x: select the tmr peripheral.
 855:HW_Lib/AT32F435/drivers/src/at32f435_437_tmr.c ****   *         this parameter can be one of the following values:
 856:HW_Lib/AT32F435/drivers/src/at32f435_437_tmr.c ****   *         TMR1, TMR2, TMR3, TMR4, TMR5, TMR8, TMR9, TMR10,
 857:HW_Lib/AT32F435/drivers/src/at32f435_437_tmr.c ****   *         TMR11, TMR12, TMR13, TMR14, TMR20
 858:HW_Lib/AT32F435/drivers/src/at32f435_437_tmr.c ****   * @param  input_struct
 859:HW_Lib/AT32F435/drivers/src/at32f435_437_tmr.c ****   *         - to the structure of tmr_input_config_type
 860:HW_Lib/AT32F435/drivers/src/at32f435_437_tmr.c ****   * @param  divider_factor
 861:HW_Lib/AT32F435/drivers/src/at32f435_437_tmr.c ****   *         this parameter can be one of the following values:
 862:HW_Lib/AT32F435/drivers/src/at32f435_437_tmr.c ****   *         - TMR_CHANNEL_INPUT_DIV_1
 863:HW_Lib/AT32F435/drivers/src/at32f435_437_tmr.c ****   *         - TMR_CHANNEL_INPUT_DIV_2
 864:HW_Lib/AT32F435/drivers/src/at32f435_437_tmr.c ****   *         - TMR_CHANNEL_INPUT_DIV_4
 865:HW_Lib/AT32F435/drivers/src/at32f435_437_tmr.c ****   *         - TMR_CHANNEL_INPUT_DIV_8
 866:HW_Lib/AT32F435/drivers/src/at32f435_437_tmr.c ****   * @retval none
 867:HW_Lib/AT32F435/drivers/src/at32f435_437_tmr.c ****   */
 868:HW_Lib/AT32F435/drivers/src/at32f435_437_tmr.c **** void tmr_input_channel_init(tmr_type *tmr_x, tmr_input_config_type *input_struct, \
 869:HW_Lib/AT32F435/drivers/src/at32f435_437_tmr.c ****                             tmr_channel_input_divider_type divider_factor)
ARM GAS  C:\Users\8bit\AppData\Local\Temp\ccwaFnug.s 			page 45


 870:HW_Lib/AT32F435/drivers/src/at32f435_437_tmr.c **** {
 1636              		.loc 1 870 1 is_stmt 1 view -0
 1637              		.cfi_startproc
 1638              		@ args = 0, pretend = 0, frame = 0
 1639              		@ frame_needed = 0, uses_anonymous_args = 0
 1640              		@ link register save eliminated.
 1641              		.loc 1 870 1 is_stmt 0 view .LVU416
 1642 0000 10B4     		push	{r4}
 1643              	.LCFI2:
 1644              		.cfi_def_cfa_offset 4
 1645              		.cfi_offset 4, -4
 871:HW_Lib/AT32F435/drivers/src/at32f435_437_tmr.c ****   uint16_t channel = 0;
 1646              		.loc 1 871 3 is_stmt 1 view .LVU417
 1647              	.LVL127:
 872:HW_Lib/AT32F435/drivers/src/at32f435_437_tmr.c **** 
 873:HW_Lib/AT32F435/drivers/src/at32f435_437_tmr.c ****   /* get channel selected */
 874:HW_Lib/AT32F435/drivers/src/at32f435_437_tmr.c ****   channel = input_struct->input_channel_select;
 1648              		.loc 1 874 3 view .LVU418
 1649              		.loc 1 874 25 is_stmt 0 view .LVU419
 1650 0002 0B78     		ldrb	r3, [r1]	@ zero_extendqisi2
 1651              	.LVL128:
 875:HW_Lib/AT32F435/drivers/src/at32f435_437_tmr.c **** 
 876:HW_Lib/AT32F435/drivers/src/at32f435_437_tmr.c ****   switch(channel)
 1652              		.loc 1 876 3 is_stmt 1 view .LVU420
 1653 0004 062B     		cmp	r3, #6
 1654 0006 27D8     		bhi	.L115
 1655 0008 DFE803F0 		tbb	[pc, r3]
 1656              	.L118:
 1657 000c 04       		.byte	(.L121-.L118)/2
 1658 000d 26       		.byte	(.L115-.L118)/2
 1659 000e 29       		.byte	(.L120-.L118)/2
 1660 000f 26       		.byte	(.L115-.L118)/2
 1661 0010 4C       		.byte	(.L119-.L118)/2
 1662 0011 26       		.byte	(.L115-.L118)/2
 1663 0012 6F       		.byte	(.L117-.L118)/2
 1664 0013 00       		.p2align 1
 1665              	.L121:
 877:HW_Lib/AT32F435/drivers/src/at32f435_437_tmr.c ****   {
 878:HW_Lib/AT32F435/drivers/src/at32f435_437_tmr.c ****     case TMR_SELECT_CHANNEL_1:
 879:HW_Lib/AT32F435/drivers/src/at32f435_437_tmr.c **** 			tmr_x->cctrl_bit.c1en       = FALSE;
 1666              		.loc 1 879 4 view .LVU421
 1667              		.loc 1 879 32 is_stmt 0 view .LVU422
 1668 0014 036A     		ldr	r3, [r0, #32]
 1669              	.LVL129:
 1670              		.loc 1 879 32 view .LVU423
 1671 0016 6FF30003 		bfc	r3, #0, #1
 1672 001a 0362     		str	r3, [r0, #32]
 1673              	.LVL130:
 880:HW_Lib/AT32F435/drivers/src/at32f435_437_tmr.c ****       tmr_x->cctrl_bit.c1p        = (uint32_t)input_struct->input_polarity_select;
 1674              		.loc 1 880 7 is_stmt 1 view .LVU424
 1675              		.loc 1 880 59 is_stmt 0 view .LVU425
 1676 001c 4C78     		ldrb	r4, [r1, #1]	@ zero_extendqisi2
 1677              		.loc 1 880 35 view .LVU426
 1678 001e 036A     		ldr	r3, [r0, #32]
 1679 0020 64F34103 		bfi	r3, r4, #1, #1
 1680 0024 0362     		str	r3, [r0, #32]
 881:HW_Lib/AT32F435/drivers/src/at32f435_437_tmr.c ****       tmr_x->cctrl_bit.c1cp       = (input_struct->input_polarity_select & 0x2) >> 1;
ARM GAS  C:\Users\8bit\AppData\Local\Temp\ccwaFnug.s 			page 46


 1681              		.loc 1 881 7 is_stmt 1 view .LVU427
 1682              		.loc 1 881 50 is_stmt 0 view .LVU428
 1683 0026 4B78     		ldrb	r3, [r1, #1]	@ zero_extendqisi2
 1684              		.loc 1 881 81 view .LVU429
 1685 0028 C3F34003 		ubfx	r3, r3, #1, #1
 1686              		.loc 1 881 35 view .LVU430
 1687 002c 046A     		ldr	r4, [r0, #32]
 1688 002e 63F3C304 		bfi	r4, r3, #3, #1
 1689 0032 0462     		str	r4, [r0, #32]
 882:HW_Lib/AT32F435/drivers/src/at32f435_437_tmr.c ****       tmr_x->cm1_input_bit.c1c    = input_struct->input_mapped_select;
 1690              		.loc 1 882 7 is_stmt 1 view .LVU431
 1691              		.loc 1 882 49 is_stmt 0 view .LVU432
 1692 0034 8C78     		ldrb	r4, [r1, #2]	@ zero_extendqisi2
 1693              		.loc 1 882 35 view .LVU433
 1694 0036 8369     		ldr	r3, [r0, #24]
 1695 0038 64F30103 		bfi	r3, r4, #0, #2
 1696 003c 8361     		str	r3, [r0, #24]
 883:HW_Lib/AT32F435/drivers/src/at32f435_437_tmr.c ****       tmr_x->cm1_input_bit.c1df   = input_struct->input_filter_value;
 1697              		.loc 1 883 7 is_stmt 1 view .LVU434
 1698              		.loc 1 883 49 is_stmt 0 view .LVU435
 1699 003e C978     		ldrb	r1, [r1, #3]	@ zero_extendqisi2
 1700              	.LVL131:
 1701              		.loc 1 883 35 view .LVU436
 1702 0040 8369     		ldr	r3, [r0, #24]
 1703 0042 61F30713 		bfi	r3, r1, #4, #4
 1704 0046 8361     		str	r3, [r0, #24]
 884:HW_Lib/AT32F435/drivers/src/at32f435_437_tmr.c ****       tmr_x->cm1_input_bit.c1idiv = divider_factor;
 1705              		.loc 1 884 7 is_stmt 1 view .LVU437
 1706              		.loc 1 884 35 is_stmt 0 view .LVU438
 1707 0048 8369     		ldr	r3, [r0, #24]
 1708 004a 62F38303 		bfi	r3, r2, #2, #2
 1709 004e 8361     		str	r3, [r0, #24]
 885:HW_Lib/AT32F435/drivers/src/at32f435_437_tmr.c ****       tmr_x->cctrl_bit.c1en       = TRUE;
 1710              		.loc 1 885 7 is_stmt 1 view .LVU439
 1711              		.loc 1 885 35 is_stmt 0 view .LVU440
 1712 0050 036A     		ldr	r3, [r0, #32]
 1713 0052 43F00103 		orr	r3, r3, #1
 1714 0056 0362     		str	r3, [r0, #32]
 886:HW_Lib/AT32F435/drivers/src/at32f435_437_tmr.c ****       break;
 1715              		.loc 1 886 7 is_stmt 1 view .LVU441
 1716              	.L115:
 887:HW_Lib/AT32F435/drivers/src/at32f435_437_tmr.c **** 
 888:HW_Lib/AT32F435/drivers/src/at32f435_437_tmr.c ****     case TMR_SELECT_CHANNEL_2:
 889:HW_Lib/AT32F435/drivers/src/at32f435_437_tmr.c **** 			tmr_x->cctrl_bit.c2en       = FALSE;
 890:HW_Lib/AT32F435/drivers/src/at32f435_437_tmr.c ****       tmr_x->cctrl_bit.c2p        = (uint32_t)input_struct->input_polarity_select;
 891:HW_Lib/AT32F435/drivers/src/at32f435_437_tmr.c ****       tmr_x->cctrl_bit.c2cp       = (input_struct->input_polarity_select & 0x2) >> 1;
 892:HW_Lib/AT32F435/drivers/src/at32f435_437_tmr.c ****       tmr_x->cm1_input_bit.c2c    = input_struct->input_mapped_select;
 893:HW_Lib/AT32F435/drivers/src/at32f435_437_tmr.c ****       tmr_x->cm1_input_bit.c2df   = input_struct->input_filter_value;
 894:HW_Lib/AT32F435/drivers/src/at32f435_437_tmr.c ****       tmr_x->cm1_input_bit.c2idiv = divider_factor;
 895:HW_Lib/AT32F435/drivers/src/at32f435_437_tmr.c ****       tmr_x->cctrl_bit.c2en       = TRUE;
 896:HW_Lib/AT32F435/drivers/src/at32f435_437_tmr.c ****       break;
 897:HW_Lib/AT32F435/drivers/src/at32f435_437_tmr.c **** 
 898:HW_Lib/AT32F435/drivers/src/at32f435_437_tmr.c ****     case TMR_SELECT_CHANNEL_3:
 899:HW_Lib/AT32F435/drivers/src/at32f435_437_tmr.c **** 			tmr_x->cctrl_bit.c3en       = FALSE;
 900:HW_Lib/AT32F435/drivers/src/at32f435_437_tmr.c ****       tmr_x->cctrl_bit.c3p        = (uint32_t)input_struct->input_polarity_select;
 901:HW_Lib/AT32F435/drivers/src/at32f435_437_tmr.c ****       tmr_x->cctrl_bit.c3cp       = (input_struct->input_polarity_select & 0x2) >> 1;
 902:HW_Lib/AT32F435/drivers/src/at32f435_437_tmr.c ****       tmr_x->cm2_input_bit.c3c    = input_struct->input_mapped_select;
ARM GAS  C:\Users\8bit\AppData\Local\Temp\ccwaFnug.s 			page 47


 903:HW_Lib/AT32F435/drivers/src/at32f435_437_tmr.c ****       tmr_x->cm2_input_bit.c3df   = input_struct->input_filter_value;
 904:HW_Lib/AT32F435/drivers/src/at32f435_437_tmr.c ****       tmr_x->cm2_input_bit.c3idiv = divider_factor;
 905:HW_Lib/AT32F435/drivers/src/at32f435_437_tmr.c ****       tmr_x->cctrl_bit.c3en       = TRUE;
 906:HW_Lib/AT32F435/drivers/src/at32f435_437_tmr.c ****       break;
 907:HW_Lib/AT32F435/drivers/src/at32f435_437_tmr.c **** 
 908:HW_Lib/AT32F435/drivers/src/at32f435_437_tmr.c ****     case TMR_SELECT_CHANNEL_4:
 909:HW_Lib/AT32F435/drivers/src/at32f435_437_tmr.c **** 			tmr_x->cctrl_bit.c4en       = FALSE;
 910:HW_Lib/AT32F435/drivers/src/at32f435_437_tmr.c ****       tmr_x->cctrl_bit.c4p        = (uint32_t)input_struct->input_polarity_select;
 911:HW_Lib/AT32F435/drivers/src/at32f435_437_tmr.c ****       tmr_x->cm2_input_bit.c4c    = input_struct->input_mapped_select;
 912:HW_Lib/AT32F435/drivers/src/at32f435_437_tmr.c ****       tmr_x->cm2_input_bit.c4df   = input_struct->input_filter_value;
 913:HW_Lib/AT32F435/drivers/src/at32f435_437_tmr.c ****       tmr_x->cm2_input_bit.c4idiv = divider_factor;
 914:HW_Lib/AT32F435/drivers/src/at32f435_437_tmr.c ****       tmr_x->cctrl_bit.c4en       = TRUE;
 915:HW_Lib/AT32F435/drivers/src/at32f435_437_tmr.c ****       break;
 916:HW_Lib/AT32F435/drivers/src/at32f435_437_tmr.c **** 
 917:HW_Lib/AT32F435/drivers/src/at32f435_437_tmr.c ****     default:
 918:HW_Lib/AT32F435/drivers/src/at32f435_437_tmr.c ****       break;
 919:HW_Lib/AT32F435/drivers/src/at32f435_437_tmr.c ****   }
 920:HW_Lib/AT32F435/drivers/src/at32f435_437_tmr.c **** }
 1717              		.loc 1 920 1 is_stmt 0 view .LVU442
 1718 0058 5DF8044B 		ldr	r4, [sp], #4
 1719              	.LCFI3:
 1720              		.cfi_remember_state
 1721              		.cfi_restore 4
 1722              		.cfi_def_cfa_offset 0
 1723 005c 7047     		bx	lr
 1724              	.LVL132:
 1725              	.L120:
 1726              	.LCFI4:
 1727              		.cfi_restore_state
 889:HW_Lib/AT32F435/drivers/src/at32f435_437_tmr.c ****       tmr_x->cctrl_bit.c2p        = (uint32_t)input_struct->input_polarity_select;
 1728              		.loc 1 889 4 is_stmt 1 view .LVU443
 889:HW_Lib/AT32F435/drivers/src/at32f435_437_tmr.c ****       tmr_x->cctrl_bit.c2p        = (uint32_t)input_struct->input_polarity_select;
 1729              		.loc 1 889 32 is_stmt 0 view .LVU444
 1730 005e 036A     		ldr	r3, [r0, #32]
 1731              	.LVL133:
 889:HW_Lib/AT32F435/drivers/src/at32f435_437_tmr.c ****       tmr_x->cctrl_bit.c2p        = (uint32_t)input_struct->input_polarity_select;
 1732              		.loc 1 889 32 view .LVU445
 1733 0060 6FF30413 		bfc	r3, #4, #1
 1734 0064 0362     		str	r3, [r0, #32]
 1735              	.LVL134:
 890:HW_Lib/AT32F435/drivers/src/at32f435_437_tmr.c ****       tmr_x->cctrl_bit.c2cp       = (input_struct->input_polarity_select & 0x2) >> 1;
 1736              		.loc 1 890 7 is_stmt 1 view .LVU446
 890:HW_Lib/AT32F435/drivers/src/at32f435_437_tmr.c ****       tmr_x->cctrl_bit.c2cp       = (input_struct->input_polarity_select & 0x2) >> 1;
 1737              		.loc 1 890 59 is_stmt 0 view .LVU447
 1738 0066 4C78     		ldrb	r4, [r1, #1]	@ zero_extendqisi2
 890:HW_Lib/AT32F435/drivers/src/at32f435_437_tmr.c ****       tmr_x->cctrl_bit.c2cp       = (input_struct->input_polarity_select & 0x2) >> 1;
 1739              		.loc 1 890 35 view .LVU448
 1740 0068 036A     		ldr	r3, [r0, #32]
 1741 006a 64F34513 		bfi	r3, r4, #5, #1
 1742 006e 0362     		str	r3, [r0, #32]
 891:HW_Lib/AT32F435/drivers/src/at32f435_437_tmr.c ****       tmr_x->cm1_input_bit.c2c    = input_struct->input_mapped_select;
 1743              		.loc 1 891 7 is_stmt 1 view .LVU449
 891:HW_Lib/AT32F435/drivers/src/at32f435_437_tmr.c ****       tmr_x->cm1_input_bit.c2c    = input_struct->input_mapped_select;
 1744              		.loc 1 891 50 is_stmt 0 view .LVU450
 1745 0070 4B78     		ldrb	r3, [r1, #1]	@ zero_extendqisi2
 891:HW_Lib/AT32F435/drivers/src/at32f435_437_tmr.c ****       tmr_x->cm1_input_bit.c2c    = input_struct->input_mapped_select;
 1746              		.loc 1 891 81 view .LVU451
ARM GAS  C:\Users\8bit\AppData\Local\Temp\ccwaFnug.s 			page 48


 1747 0072 C3F34003 		ubfx	r3, r3, #1, #1
 891:HW_Lib/AT32F435/drivers/src/at32f435_437_tmr.c ****       tmr_x->cm1_input_bit.c2c    = input_struct->input_mapped_select;
 1748              		.loc 1 891 35 view .LVU452
 1749 0076 046A     		ldr	r4, [r0, #32]
 1750 0078 63F3C714 		bfi	r4, r3, #7, #1
 1751 007c 0462     		str	r4, [r0, #32]
 892:HW_Lib/AT32F435/drivers/src/at32f435_437_tmr.c ****       tmr_x->cm1_input_bit.c2df   = input_struct->input_filter_value;
 1752              		.loc 1 892 7 is_stmt 1 view .LVU453
 892:HW_Lib/AT32F435/drivers/src/at32f435_437_tmr.c ****       tmr_x->cm1_input_bit.c2df   = input_struct->input_filter_value;
 1753              		.loc 1 892 49 is_stmt 0 view .LVU454
 1754 007e 8C78     		ldrb	r4, [r1, #2]	@ zero_extendqisi2
 892:HW_Lib/AT32F435/drivers/src/at32f435_437_tmr.c ****       tmr_x->cm1_input_bit.c2df   = input_struct->input_filter_value;
 1755              		.loc 1 892 35 view .LVU455
 1756 0080 8369     		ldr	r3, [r0, #24]
 1757 0082 64F30923 		bfi	r3, r4, #8, #2
 1758 0086 8361     		str	r3, [r0, #24]
 893:HW_Lib/AT32F435/drivers/src/at32f435_437_tmr.c ****       tmr_x->cm1_input_bit.c2idiv = divider_factor;
 1759              		.loc 1 893 7 is_stmt 1 view .LVU456
 893:HW_Lib/AT32F435/drivers/src/at32f435_437_tmr.c ****       tmr_x->cm1_input_bit.c2idiv = divider_factor;
 1760              		.loc 1 893 49 is_stmt 0 view .LVU457
 1761 0088 C978     		ldrb	r1, [r1, #3]	@ zero_extendqisi2
 1762              	.LVL135:
 893:HW_Lib/AT32F435/drivers/src/at32f435_437_tmr.c ****       tmr_x->cm1_input_bit.c2idiv = divider_factor;
 1763              		.loc 1 893 35 view .LVU458
 1764 008a 8369     		ldr	r3, [r0, #24]
 1765 008c 61F30F33 		bfi	r3, r1, #12, #4
 1766 0090 8361     		str	r3, [r0, #24]
 894:HW_Lib/AT32F435/drivers/src/at32f435_437_tmr.c ****       tmr_x->cctrl_bit.c2en       = TRUE;
 1767              		.loc 1 894 7 is_stmt 1 view .LVU459
 894:HW_Lib/AT32F435/drivers/src/at32f435_437_tmr.c ****       tmr_x->cctrl_bit.c2en       = TRUE;
 1768              		.loc 1 894 35 is_stmt 0 view .LVU460
 1769 0092 8369     		ldr	r3, [r0, #24]
 1770 0094 62F38B23 		bfi	r3, r2, #10, #2
 1771 0098 8361     		str	r3, [r0, #24]
 895:HW_Lib/AT32F435/drivers/src/at32f435_437_tmr.c ****       break;
 1772              		.loc 1 895 7 is_stmt 1 view .LVU461
 895:HW_Lib/AT32F435/drivers/src/at32f435_437_tmr.c ****       break;
 1773              		.loc 1 895 35 is_stmt 0 view .LVU462
 1774 009a 036A     		ldr	r3, [r0, #32]
 1775 009c 43F01003 		orr	r3, r3, #16
 1776 00a0 0362     		str	r3, [r0, #32]
 896:HW_Lib/AT32F435/drivers/src/at32f435_437_tmr.c **** 
 1777              		.loc 1 896 7 is_stmt 1 view .LVU463
 1778 00a2 D9E7     		b	.L115
 1779              	.LVL136:
 1780              	.L119:
 899:HW_Lib/AT32F435/drivers/src/at32f435_437_tmr.c ****       tmr_x->cctrl_bit.c3p        = (uint32_t)input_struct->input_polarity_select;
 1781              		.loc 1 899 4 view .LVU464
 899:HW_Lib/AT32F435/drivers/src/at32f435_437_tmr.c ****       tmr_x->cctrl_bit.c3p        = (uint32_t)input_struct->input_polarity_select;
 1782              		.loc 1 899 32 is_stmt 0 view .LVU465
 1783 00a4 036A     		ldr	r3, [r0, #32]
 1784              	.LVL137:
 899:HW_Lib/AT32F435/drivers/src/at32f435_437_tmr.c ****       tmr_x->cctrl_bit.c3p        = (uint32_t)input_struct->input_polarity_select;
 1785              		.loc 1 899 32 view .LVU466
 1786 00a6 6FF30823 		bfc	r3, #8, #1
 1787 00aa 0362     		str	r3, [r0, #32]
 1788              	.LVL138:
ARM GAS  C:\Users\8bit\AppData\Local\Temp\ccwaFnug.s 			page 49


 900:HW_Lib/AT32F435/drivers/src/at32f435_437_tmr.c ****       tmr_x->cctrl_bit.c3cp       = (input_struct->input_polarity_select & 0x2) >> 1;
 1789              		.loc 1 900 7 is_stmt 1 view .LVU467
 900:HW_Lib/AT32F435/drivers/src/at32f435_437_tmr.c ****       tmr_x->cctrl_bit.c3cp       = (input_struct->input_polarity_select & 0x2) >> 1;
 1790              		.loc 1 900 59 is_stmt 0 view .LVU468
 1791 00ac 4C78     		ldrb	r4, [r1, #1]	@ zero_extendqisi2
 900:HW_Lib/AT32F435/drivers/src/at32f435_437_tmr.c ****       tmr_x->cctrl_bit.c3cp       = (input_struct->input_polarity_select & 0x2) >> 1;
 1792              		.loc 1 900 35 view .LVU469
 1793 00ae 036A     		ldr	r3, [r0, #32]
 1794 00b0 64F34923 		bfi	r3, r4, #9, #1
 1795 00b4 0362     		str	r3, [r0, #32]
 901:HW_Lib/AT32F435/drivers/src/at32f435_437_tmr.c ****       tmr_x->cm2_input_bit.c3c    = input_struct->input_mapped_select;
 1796              		.loc 1 901 7 is_stmt 1 view .LVU470
 901:HW_Lib/AT32F435/drivers/src/at32f435_437_tmr.c ****       tmr_x->cm2_input_bit.c3c    = input_struct->input_mapped_select;
 1797              		.loc 1 901 50 is_stmt 0 view .LVU471
 1798 00b6 4B78     		ldrb	r3, [r1, #1]	@ zero_extendqisi2
 901:HW_Lib/AT32F435/drivers/src/at32f435_437_tmr.c ****       tmr_x->cm2_input_bit.c3c    = input_struct->input_mapped_select;
 1799              		.loc 1 901 81 view .LVU472
 1800 00b8 C3F34003 		ubfx	r3, r3, #1, #1
 901:HW_Lib/AT32F435/drivers/src/at32f435_437_tmr.c ****       tmr_x->cm2_input_bit.c3c    = input_struct->input_mapped_select;
 1801              		.loc 1 901 35 view .LVU473
 1802 00bc 046A     		ldr	r4, [r0, #32]
 1803 00be 63F3CB24 		bfi	r4, r3, #11, #1
 1804 00c2 0462     		str	r4, [r0, #32]
 902:HW_Lib/AT32F435/drivers/src/at32f435_437_tmr.c ****       tmr_x->cm2_input_bit.c3df   = input_struct->input_filter_value;
 1805              		.loc 1 902 7 is_stmt 1 view .LVU474
 902:HW_Lib/AT32F435/drivers/src/at32f435_437_tmr.c ****       tmr_x->cm2_input_bit.c3df   = input_struct->input_filter_value;
 1806              		.loc 1 902 49 is_stmt 0 view .LVU475
 1807 00c4 8C78     		ldrb	r4, [r1, #2]	@ zero_extendqisi2
 902:HW_Lib/AT32F435/drivers/src/at32f435_437_tmr.c ****       tmr_x->cm2_input_bit.c3df   = input_struct->input_filter_value;
 1808              		.loc 1 902 35 view .LVU476
 1809 00c6 C369     		ldr	r3, [r0, #28]
 1810 00c8 64F30103 		bfi	r3, r4, #0, #2
 1811 00cc C361     		str	r3, [r0, #28]
 903:HW_Lib/AT32F435/drivers/src/at32f435_437_tmr.c ****       tmr_x->cm2_input_bit.c3idiv = divider_factor;
 1812              		.loc 1 903 7 is_stmt 1 view .LVU477
 903:HW_Lib/AT32F435/drivers/src/at32f435_437_tmr.c ****       tmr_x->cm2_input_bit.c3idiv = divider_factor;
 1813              		.loc 1 903 49 is_stmt 0 view .LVU478
 1814 00ce C978     		ldrb	r1, [r1, #3]	@ zero_extendqisi2
 1815              	.LVL139:
 903:HW_Lib/AT32F435/drivers/src/at32f435_437_tmr.c ****       tmr_x->cm2_input_bit.c3idiv = divider_factor;
 1816              		.loc 1 903 35 view .LVU479
 1817 00d0 C369     		ldr	r3, [r0, #28]
 1818 00d2 61F30713 		bfi	r3, r1, #4, #4
 1819 00d6 C361     		str	r3, [r0, #28]
 904:HW_Lib/AT32F435/drivers/src/at32f435_437_tmr.c ****       tmr_x->cctrl_bit.c3en       = TRUE;
 1820              		.loc 1 904 7 is_stmt 1 view .LVU480
 904:HW_Lib/AT32F435/drivers/src/at32f435_437_tmr.c ****       tmr_x->cctrl_bit.c3en       = TRUE;
 1821              		.loc 1 904 35 is_stmt 0 view .LVU481
 1822 00d8 C369     		ldr	r3, [r0, #28]
 1823 00da 62F38303 		bfi	r3, r2, #2, #2
 1824 00de C361     		str	r3, [r0, #28]
 905:HW_Lib/AT32F435/drivers/src/at32f435_437_tmr.c ****       break;
 1825              		.loc 1 905 7 is_stmt 1 view .LVU482
 905:HW_Lib/AT32F435/drivers/src/at32f435_437_tmr.c ****       break;
 1826              		.loc 1 905 35 is_stmt 0 view .LVU483
 1827 00e0 036A     		ldr	r3, [r0, #32]
 1828 00e2 43F48073 		orr	r3, r3, #256
ARM GAS  C:\Users\8bit\AppData\Local\Temp\ccwaFnug.s 			page 50


 1829 00e6 0362     		str	r3, [r0, #32]
 906:HW_Lib/AT32F435/drivers/src/at32f435_437_tmr.c **** 
 1830              		.loc 1 906 7 is_stmt 1 view .LVU484
 1831 00e8 B6E7     		b	.L115
 1832              	.LVL140:
 1833              	.L117:
 909:HW_Lib/AT32F435/drivers/src/at32f435_437_tmr.c ****       tmr_x->cctrl_bit.c4p        = (uint32_t)input_struct->input_polarity_select;
 1834              		.loc 1 909 4 view .LVU485
 909:HW_Lib/AT32F435/drivers/src/at32f435_437_tmr.c ****       tmr_x->cctrl_bit.c4p        = (uint32_t)input_struct->input_polarity_select;
 1835              		.loc 1 909 32 is_stmt 0 view .LVU486
 1836 00ea 036A     		ldr	r3, [r0, #32]
 1837              	.LVL141:
 909:HW_Lib/AT32F435/drivers/src/at32f435_437_tmr.c ****       tmr_x->cctrl_bit.c4p        = (uint32_t)input_struct->input_polarity_select;
 1838              		.loc 1 909 32 view .LVU487
 1839 00ec 6FF30C33 		bfc	r3, #12, #1
 1840 00f0 0362     		str	r3, [r0, #32]
 1841              	.LVL142:
 910:HW_Lib/AT32F435/drivers/src/at32f435_437_tmr.c ****       tmr_x->cm2_input_bit.c4c    = input_struct->input_mapped_select;
 1842              		.loc 1 910 7 is_stmt 1 view .LVU488
 910:HW_Lib/AT32F435/drivers/src/at32f435_437_tmr.c ****       tmr_x->cm2_input_bit.c4c    = input_struct->input_mapped_select;
 1843              		.loc 1 910 59 is_stmt 0 view .LVU489
 1844 00f2 4C78     		ldrb	r4, [r1, #1]	@ zero_extendqisi2
 910:HW_Lib/AT32F435/drivers/src/at32f435_437_tmr.c ****       tmr_x->cm2_input_bit.c4c    = input_struct->input_mapped_select;
 1845              		.loc 1 910 35 view .LVU490
 1846 00f4 036A     		ldr	r3, [r0, #32]
 1847 00f6 64F34D33 		bfi	r3, r4, #13, #1
 1848 00fa 0362     		str	r3, [r0, #32]
 911:HW_Lib/AT32F435/drivers/src/at32f435_437_tmr.c ****       tmr_x->cm2_input_bit.c4df   = input_struct->input_filter_value;
 1849              		.loc 1 911 7 is_stmt 1 view .LVU491
 911:HW_Lib/AT32F435/drivers/src/at32f435_437_tmr.c ****       tmr_x->cm2_input_bit.c4df   = input_struct->input_filter_value;
 1850              		.loc 1 911 49 is_stmt 0 view .LVU492
 1851 00fc 8C78     		ldrb	r4, [r1, #2]	@ zero_extendqisi2
 911:HW_Lib/AT32F435/drivers/src/at32f435_437_tmr.c ****       tmr_x->cm2_input_bit.c4df   = input_struct->input_filter_value;
 1852              		.loc 1 911 35 view .LVU493
 1853 00fe C369     		ldr	r3, [r0, #28]
 1854 0100 64F30923 		bfi	r3, r4, #8, #2
 1855 0104 C361     		str	r3, [r0, #28]
 912:HW_Lib/AT32F435/drivers/src/at32f435_437_tmr.c ****       tmr_x->cm2_input_bit.c4idiv = divider_factor;
 1856              		.loc 1 912 7 is_stmt 1 view .LVU494
 912:HW_Lib/AT32F435/drivers/src/at32f435_437_tmr.c ****       tmr_x->cm2_input_bit.c4idiv = divider_factor;
 1857              		.loc 1 912 49 is_stmt 0 view .LVU495
 1858 0106 C978     		ldrb	r1, [r1, #3]	@ zero_extendqisi2
 1859              	.LVL143:
 912:HW_Lib/AT32F435/drivers/src/at32f435_437_tmr.c ****       tmr_x->cm2_input_bit.c4idiv = divider_factor;
 1860              		.loc 1 912 35 view .LVU496
 1861 0108 C369     		ldr	r3, [r0, #28]
 1862 010a 61F30F33 		bfi	r3, r1, #12, #4
 1863 010e C361     		str	r3, [r0, #28]
 913:HW_Lib/AT32F435/drivers/src/at32f435_437_tmr.c ****       tmr_x->cctrl_bit.c4en       = TRUE;
 1864              		.loc 1 913 7 is_stmt 1 view .LVU497
 913:HW_Lib/AT32F435/drivers/src/at32f435_437_tmr.c ****       tmr_x->cctrl_bit.c4en       = TRUE;
 1865              		.loc 1 913 35 is_stmt 0 view .LVU498
 1866 0110 C369     		ldr	r3, [r0, #28]
 1867 0112 62F38B23 		bfi	r3, r2, #10, #2
 1868 0116 C361     		str	r3, [r0, #28]
 914:HW_Lib/AT32F435/drivers/src/at32f435_437_tmr.c ****       break;
 1869              		.loc 1 914 7 is_stmt 1 view .LVU499
ARM GAS  C:\Users\8bit\AppData\Local\Temp\ccwaFnug.s 			page 51


 914:HW_Lib/AT32F435/drivers/src/at32f435_437_tmr.c ****       break;
 1870              		.loc 1 914 35 is_stmt 0 view .LVU500
 1871 0118 036A     		ldr	r3, [r0, #32]
 1872 011a 43F48053 		orr	r3, r3, #4096
 1873 011e 0362     		str	r3, [r0, #32]
 915:HW_Lib/AT32F435/drivers/src/at32f435_437_tmr.c **** 
 1874              		.loc 1 915 7 is_stmt 1 view .LVU501
 1875              		.loc 1 920 1 is_stmt 0 view .LVU502
 1876 0120 9AE7     		b	.L115
 1877              		.cfi_endproc
 1878              	.LFE160:
 1880              		.section	.text.tmr_channel_enable,"ax",%progbits
 1881              		.align	1
 1882              		.global	tmr_channel_enable
 1883              		.syntax unified
 1884              		.thumb
 1885              		.thumb_func
 1887              	tmr_channel_enable:
 1888              	.LVL144:
 1889              	.LFB161:
 921:HW_Lib/AT32F435/drivers/src/at32f435_437_tmr.c **** 
 922:HW_Lib/AT32F435/drivers/src/at32f435_437_tmr.c **** /**
 923:HW_Lib/AT32F435/drivers/src/at32f435_437_tmr.c ****   * @brief  tmr channel enable
 924:HW_Lib/AT32F435/drivers/src/at32f435_437_tmr.c ****   * @param  tmr_x: select the tmr peripheral.
 925:HW_Lib/AT32F435/drivers/src/at32f435_437_tmr.c ****   *         this parameter can be one of the following values:
 926:HW_Lib/AT32F435/drivers/src/at32f435_437_tmr.c ****   *         TMR1, TMR2, TMR3, TMR4, TMR5, TMR8, TMR9, TMR10,
 927:HW_Lib/AT32F435/drivers/src/at32f435_437_tmr.c ****   *         TMR11, TMR12, TMR13, TMR14, TMR20
 928:HW_Lib/AT32F435/drivers/src/at32f435_437_tmr.c ****   * @param  tmr_channel
 929:HW_Lib/AT32F435/drivers/src/at32f435_437_tmr.c ****   *         this parameter can be one of the following values:
 930:HW_Lib/AT32F435/drivers/src/at32f435_437_tmr.c ****   *         - TMR_SELECT_CHANNEL_1
 931:HW_Lib/AT32F435/drivers/src/at32f435_437_tmr.c ****   *         - TMR_SELECT_CHANNEL_1C
 932:HW_Lib/AT32F435/drivers/src/at32f435_437_tmr.c ****   *         - TMR_SELECT_CHANNEL_2
 933:HW_Lib/AT32F435/drivers/src/at32f435_437_tmr.c ****   *         - TMR_SELECT_CHANNEL_2C
 934:HW_Lib/AT32F435/drivers/src/at32f435_437_tmr.c ****   *         - TMR_SELECT_CHANNEL_3
 935:HW_Lib/AT32F435/drivers/src/at32f435_437_tmr.c ****   *         - TMR_SELECT_CHANNEL_3C
 936:HW_Lib/AT32F435/drivers/src/at32f435_437_tmr.c ****   *         - TMR_SELECT_CHANNEL_4
 937:HW_Lib/AT32F435/drivers/src/at32f435_437_tmr.c ****   * @param  new_state (TRUE or FALSE)
 938:HW_Lib/AT32F435/drivers/src/at32f435_437_tmr.c ****   * @retval none
 939:HW_Lib/AT32F435/drivers/src/at32f435_437_tmr.c ****   */
 940:HW_Lib/AT32F435/drivers/src/at32f435_437_tmr.c **** void tmr_channel_enable(tmr_type *tmr_x, tmr_channel_select_type tmr_channel, confirm_state new_sta
 941:HW_Lib/AT32F435/drivers/src/at32f435_437_tmr.c **** {
 1890              		.loc 1 941 1 is_stmt 1 view -0
 1891              		.cfi_startproc
 1892              		@ args = 0, pretend = 0, frame = 0
 1893              		@ frame_needed = 0, uses_anonymous_args = 0
 1894              		@ link register save eliminated.
 942:HW_Lib/AT32F435/drivers/src/at32f435_437_tmr.c ****   uint16_t channel;
 1895              		.loc 1 942 3 view .LVU504
 943:HW_Lib/AT32F435/drivers/src/at32f435_437_tmr.c **** 
 944:HW_Lib/AT32F435/drivers/src/at32f435_437_tmr.c ****   channel = tmr_channel;
 1896              		.loc 1 944 3 view .LVU505
 945:HW_Lib/AT32F435/drivers/src/at32f435_437_tmr.c **** 
 946:HW_Lib/AT32F435/drivers/src/at32f435_437_tmr.c ****   switch(channel)
 1897              		.loc 1 946 3 view .LVU506
 1898 0000 0629     		cmp	r1, #6
 1899 0002 27D8     		bhi	.L123
 1900 0004 DFE801F0 		tbb	[pc, r1]
ARM GAS  C:\Users\8bit\AppData\Local\Temp\ccwaFnug.s 			page 52


 1901              	.L126:
 1902 0008 04       		.byte	(.L132-.L126)/2
 1903 0009 09       		.byte	(.L131-.L126)/2
 1904 000a 0E       		.byte	(.L130-.L126)/2
 1905 000b 13       		.byte	(.L129-.L126)/2
 1906 000c 18       		.byte	(.L128-.L126)/2
 1907 000d 1D       		.byte	(.L127-.L126)/2
 1908 000e 22       		.byte	(.L125-.L126)/2
 1909 000f 00       		.p2align 1
 1910              	.L132:
 947:HW_Lib/AT32F435/drivers/src/at32f435_437_tmr.c ****   {
 948:HW_Lib/AT32F435/drivers/src/at32f435_437_tmr.c ****     case TMR_SELECT_CHANNEL_1:
 949:HW_Lib/AT32F435/drivers/src/at32f435_437_tmr.c ****       tmr_x->cctrl_bit.c1en         = new_state;
 1911              		.loc 1 949 7 view .LVU507
 1912              		.loc 1 949 37 is_stmt 0 view .LVU508
 1913 0010 036A     		ldr	r3, [r0, #32]
 1914 0012 62F30003 		bfi	r3, r2, #0, #1
 1915 0016 0362     		str	r3, [r0, #32]
 950:HW_Lib/AT32F435/drivers/src/at32f435_437_tmr.c ****       break;
 1916              		.loc 1 950 7 is_stmt 1 view .LVU509
 1917 0018 7047     		bx	lr
 1918              	.L131:
 951:HW_Lib/AT32F435/drivers/src/at32f435_437_tmr.c **** 
 952:HW_Lib/AT32F435/drivers/src/at32f435_437_tmr.c ****     case TMR_SELECT_CHANNEL_1C:
 953:HW_Lib/AT32F435/drivers/src/at32f435_437_tmr.c ****       tmr_x->cctrl_bit.c1cen        = new_state;
 1919              		.loc 1 953 7 view .LVU510
 1920              		.loc 1 953 37 is_stmt 0 view .LVU511
 1921 001a 036A     		ldr	r3, [r0, #32]
 1922 001c 62F38203 		bfi	r3, r2, #2, #1
 1923 0020 0362     		str	r3, [r0, #32]
 954:HW_Lib/AT32F435/drivers/src/at32f435_437_tmr.c ****       break;
 1924              		.loc 1 954 7 is_stmt 1 view .LVU512
 1925 0022 7047     		bx	lr
 1926              	.L130:
 955:HW_Lib/AT32F435/drivers/src/at32f435_437_tmr.c **** 
 956:HW_Lib/AT32F435/drivers/src/at32f435_437_tmr.c ****     case TMR_SELECT_CHANNEL_2:
 957:HW_Lib/AT32F435/drivers/src/at32f435_437_tmr.c ****       tmr_x->cctrl_bit.c2en         = new_state;
 1927              		.loc 1 957 7 view .LVU513
 1928              		.loc 1 957 37 is_stmt 0 view .LVU514
 1929 0024 036A     		ldr	r3, [r0, #32]
 1930 0026 62F30413 		bfi	r3, r2, #4, #1
 1931 002a 0362     		str	r3, [r0, #32]
 958:HW_Lib/AT32F435/drivers/src/at32f435_437_tmr.c ****       break;
 1932              		.loc 1 958 7 is_stmt 1 view .LVU515
 1933 002c 7047     		bx	lr
 1934              	.L129:
 959:HW_Lib/AT32F435/drivers/src/at32f435_437_tmr.c **** 
 960:HW_Lib/AT32F435/drivers/src/at32f435_437_tmr.c ****     case TMR_SELECT_CHANNEL_2C:
 961:HW_Lib/AT32F435/drivers/src/at32f435_437_tmr.c ****       tmr_x->cctrl_bit.c2cen        = new_state;
 1935              		.loc 1 961 7 view .LVU516
 1936              		.loc 1 961 37 is_stmt 0 view .LVU517
 1937 002e 036A     		ldr	r3, [r0, #32]
 1938 0030 62F38613 		bfi	r3, r2, #6, #1
 1939 0034 0362     		str	r3, [r0, #32]
 962:HW_Lib/AT32F435/drivers/src/at32f435_437_tmr.c ****       break;
 1940              		.loc 1 962 7 is_stmt 1 view .LVU518
 1941 0036 7047     		bx	lr
ARM GAS  C:\Users\8bit\AppData\Local\Temp\ccwaFnug.s 			page 53


 1942              	.L128:
 963:HW_Lib/AT32F435/drivers/src/at32f435_437_tmr.c **** 
 964:HW_Lib/AT32F435/drivers/src/at32f435_437_tmr.c ****     case TMR_SELECT_CHANNEL_3:
 965:HW_Lib/AT32F435/drivers/src/at32f435_437_tmr.c ****       tmr_x->cctrl_bit.c3en         = new_state;
 1943              		.loc 1 965 7 view .LVU519
 1944              		.loc 1 965 37 is_stmt 0 view .LVU520
 1945 0038 036A     		ldr	r3, [r0, #32]
 1946 003a 62F30823 		bfi	r3, r2, #8, #1
 1947 003e 0362     		str	r3, [r0, #32]
 966:HW_Lib/AT32F435/drivers/src/at32f435_437_tmr.c ****       break;
 1948              		.loc 1 966 7 is_stmt 1 view .LVU521
 1949 0040 7047     		bx	lr
 1950              	.L127:
 967:HW_Lib/AT32F435/drivers/src/at32f435_437_tmr.c **** 
 968:HW_Lib/AT32F435/drivers/src/at32f435_437_tmr.c ****     case TMR_SELECT_CHANNEL_3C:
 969:HW_Lib/AT32F435/drivers/src/at32f435_437_tmr.c ****       tmr_x->cctrl_bit.c3cen        = new_state;
 1951              		.loc 1 969 7 view .LVU522
 1952              		.loc 1 969 37 is_stmt 0 view .LVU523
 1953 0042 036A     		ldr	r3, [r0, #32]
 1954 0044 62F38A23 		bfi	r3, r2, #10, #1
 1955 0048 0362     		str	r3, [r0, #32]
 970:HW_Lib/AT32F435/drivers/src/at32f435_437_tmr.c ****       break;
 1956              		.loc 1 970 7 is_stmt 1 view .LVU524
 1957 004a 7047     		bx	lr
 1958              	.L125:
 971:HW_Lib/AT32F435/drivers/src/at32f435_437_tmr.c **** 
 972:HW_Lib/AT32F435/drivers/src/at32f435_437_tmr.c ****     case TMR_SELECT_CHANNEL_4:
 973:HW_Lib/AT32F435/drivers/src/at32f435_437_tmr.c ****       tmr_x->cctrl_bit.c4en         = new_state;
 1959              		.loc 1 973 7 view .LVU525
 1960              		.loc 1 973 37 is_stmt 0 view .LVU526
 1961 004c 036A     		ldr	r3, [r0, #32]
 1962 004e 62F30C33 		bfi	r3, r2, #12, #1
 1963 0052 0362     		str	r3, [r0, #32]
 974:HW_Lib/AT32F435/drivers/src/at32f435_437_tmr.c ****       break;
 1964              		.loc 1 974 7 is_stmt 1 view .LVU527
 1965              	.L123:
 975:HW_Lib/AT32F435/drivers/src/at32f435_437_tmr.c **** 
 976:HW_Lib/AT32F435/drivers/src/at32f435_437_tmr.c ****     default:
 977:HW_Lib/AT32F435/drivers/src/at32f435_437_tmr.c ****       break;
 978:HW_Lib/AT32F435/drivers/src/at32f435_437_tmr.c ****   }
 979:HW_Lib/AT32F435/drivers/src/at32f435_437_tmr.c **** }
 1966              		.loc 1 979 1 is_stmt 0 view .LVU528
 1967 0054 7047     		bx	lr
 1968              		.cfi_endproc
 1969              	.LFE161:
 1971              		.section	.text.tmr_input_channel_filter_set,"ax",%progbits
 1972              		.align	1
 1973              		.global	tmr_input_channel_filter_set
 1974              		.syntax unified
 1975              		.thumb
 1976              		.thumb_func
 1978              	tmr_input_channel_filter_set:
 1979              	.LVL145:
 1980              	.LFB162:
 980:HW_Lib/AT32F435/drivers/src/at32f435_437_tmr.c **** 
 981:HW_Lib/AT32F435/drivers/src/at32f435_437_tmr.c **** /**
 982:HW_Lib/AT32F435/drivers/src/at32f435_437_tmr.c ****   * @brief  set tmr input channel filter
ARM GAS  C:\Users\8bit\AppData\Local\Temp\ccwaFnug.s 			page 54


 983:HW_Lib/AT32F435/drivers/src/at32f435_437_tmr.c ****   * @param  tmr_x: select the tmr peripheral.
 984:HW_Lib/AT32F435/drivers/src/at32f435_437_tmr.c ****   *         this parameter can be one of the following values:
 985:HW_Lib/AT32F435/drivers/src/at32f435_437_tmr.c ****   *         TMR1, TMR2, TMR3, TMR4, TMR5, TMR8, TMR9, TMR10,
 986:HW_Lib/AT32F435/drivers/src/at32f435_437_tmr.c ****   *         TMR11, TMR12, TMR13, TMR14, TMR20
 987:HW_Lib/AT32F435/drivers/src/at32f435_437_tmr.c ****   * @param  tmr_channel
 988:HW_Lib/AT32F435/drivers/src/at32f435_437_tmr.c ****   *         this parameter can be one of the following values:
 989:HW_Lib/AT32F435/drivers/src/at32f435_437_tmr.c ****   *         - TMR_SELECT_CHANNEL_1
 990:HW_Lib/AT32F435/drivers/src/at32f435_437_tmr.c ****   *         - TMR_SELECT_CHANNEL_2
 991:HW_Lib/AT32F435/drivers/src/at32f435_437_tmr.c ****   *         - TMR_SELECT_CHANNEL_3
 992:HW_Lib/AT32F435/drivers/src/at32f435_437_tmr.c ****   *         - TMR_SELECT_CHANNEL_4
 993:HW_Lib/AT32F435/drivers/src/at32f435_437_tmr.c ****   * @param  filter_value (0x0~0xf)
 994:HW_Lib/AT32F435/drivers/src/at32f435_437_tmr.c ****   * @retval none
 995:HW_Lib/AT32F435/drivers/src/at32f435_437_tmr.c ****   */
 996:HW_Lib/AT32F435/drivers/src/at32f435_437_tmr.c **** void tmr_input_channel_filter_set(tmr_type *tmr_x, tmr_channel_select_type tmr_channel, \
 997:HW_Lib/AT32F435/drivers/src/at32f435_437_tmr.c ****                                   uint16_t filter_value)
 998:HW_Lib/AT32F435/drivers/src/at32f435_437_tmr.c **** {
 1981              		.loc 1 998 1 is_stmt 1 view -0
 1982              		.cfi_startproc
 1983              		@ args = 0, pretend = 0, frame = 0
 1984              		@ frame_needed = 0, uses_anonymous_args = 0
 1985              		@ link register save eliminated.
 999:HW_Lib/AT32F435/drivers/src/at32f435_437_tmr.c ****   uint16_t channel;
 1986              		.loc 1 999 3 view .LVU530
1000:HW_Lib/AT32F435/drivers/src/at32f435_437_tmr.c **** 
1001:HW_Lib/AT32F435/drivers/src/at32f435_437_tmr.c ****   channel = tmr_channel;
 1987              		.loc 1 1001 3 view .LVU531
1002:HW_Lib/AT32F435/drivers/src/at32f435_437_tmr.c **** 
1003:HW_Lib/AT32F435/drivers/src/at32f435_437_tmr.c ****   switch(channel)
 1988              		.loc 1 1003 3 view .LVU532
 1989 0000 0629     		cmp	r1, #6
 1990 0002 18D8     		bhi	.L133
 1991 0004 DFE801F0 		tbb	[pc, r1]
 1992              	.L136:
 1993 0008 04       		.byte	(.L139-.L136)/2
 1994 0009 17       		.byte	(.L133-.L136)/2
 1995 000a 09       		.byte	(.L138-.L136)/2
 1996 000b 17       		.byte	(.L133-.L136)/2
 1997 000c 0E       		.byte	(.L137-.L136)/2
 1998 000d 17       		.byte	(.L133-.L136)/2
 1999 000e 13       		.byte	(.L135-.L136)/2
 2000 000f 00       		.p2align 1
 2001              	.L139:
1004:HW_Lib/AT32F435/drivers/src/at32f435_437_tmr.c ****   {
1005:HW_Lib/AT32F435/drivers/src/at32f435_437_tmr.c ****     case TMR_SELECT_CHANNEL_1:
1006:HW_Lib/AT32F435/drivers/src/at32f435_437_tmr.c ****       tmr_x->cm1_input_bit.c1df = filter_value;
 2002              		.loc 1 1006 7 view .LVU533
 2003              		.loc 1 1006 33 is_stmt 0 view .LVU534
 2004 0010 8369     		ldr	r3, [r0, #24]
 2005 0012 62F30713 		bfi	r3, r2, #4, #4
 2006 0016 8361     		str	r3, [r0, #24]
1007:HW_Lib/AT32F435/drivers/src/at32f435_437_tmr.c ****       break;
 2007              		.loc 1 1007 7 is_stmt 1 view .LVU535
 2008 0018 7047     		bx	lr
 2009              	.L138:
1008:HW_Lib/AT32F435/drivers/src/at32f435_437_tmr.c **** 
1009:HW_Lib/AT32F435/drivers/src/at32f435_437_tmr.c ****     case TMR_SELECT_CHANNEL_2:
1010:HW_Lib/AT32F435/drivers/src/at32f435_437_tmr.c ****       tmr_x->cm1_input_bit.c2df = filter_value;
ARM GAS  C:\Users\8bit\AppData\Local\Temp\ccwaFnug.s 			page 55


 2010              		.loc 1 1010 7 view .LVU536
 2011              		.loc 1 1010 33 is_stmt 0 view .LVU537
 2012 001a 8369     		ldr	r3, [r0, #24]
 2013 001c 62F30F33 		bfi	r3, r2, #12, #4
 2014 0020 8361     		str	r3, [r0, #24]
1011:HW_Lib/AT32F435/drivers/src/at32f435_437_tmr.c ****       break;
 2015              		.loc 1 1011 7 is_stmt 1 view .LVU538
 2016 0022 7047     		bx	lr
 2017              	.L137:
1012:HW_Lib/AT32F435/drivers/src/at32f435_437_tmr.c **** 
1013:HW_Lib/AT32F435/drivers/src/at32f435_437_tmr.c ****     case TMR_SELECT_CHANNEL_3:
1014:HW_Lib/AT32F435/drivers/src/at32f435_437_tmr.c ****       tmr_x->cm2_input_bit.c3df = filter_value;
 2018              		.loc 1 1014 7 view .LVU539
 2019              		.loc 1 1014 33 is_stmt 0 view .LVU540
 2020 0024 C369     		ldr	r3, [r0, #28]
 2021 0026 62F30713 		bfi	r3, r2, #4, #4
 2022 002a C361     		str	r3, [r0, #28]
1015:HW_Lib/AT32F435/drivers/src/at32f435_437_tmr.c ****       break;
 2023              		.loc 1 1015 7 is_stmt 1 view .LVU541
 2024 002c 7047     		bx	lr
 2025              	.L135:
1016:HW_Lib/AT32F435/drivers/src/at32f435_437_tmr.c **** 
1017:HW_Lib/AT32F435/drivers/src/at32f435_437_tmr.c ****     case TMR_SELECT_CHANNEL_4:
1018:HW_Lib/AT32F435/drivers/src/at32f435_437_tmr.c ****       tmr_x->cm2_input_bit.c4df = filter_value;
 2026              		.loc 1 1018 7 view .LVU542
 2027              		.loc 1 1018 33 is_stmt 0 view .LVU543
 2028 002e C369     		ldr	r3, [r0, #28]
 2029 0030 62F30F33 		bfi	r3, r2, #12, #4
 2030 0034 C361     		str	r3, [r0, #28]
1019:HW_Lib/AT32F435/drivers/src/at32f435_437_tmr.c ****       break;
 2031              		.loc 1 1019 7 is_stmt 1 view .LVU544
 2032              	.L133:
1020:HW_Lib/AT32F435/drivers/src/at32f435_437_tmr.c **** 
1021:HW_Lib/AT32F435/drivers/src/at32f435_437_tmr.c ****     default:
1022:HW_Lib/AT32F435/drivers/src/at32f435_437_tmr.c ****       break;
1023:HW_Lib/AT32F435/drivers/src/at32f435_437_tmr.c ****   }
1024:HW_Lib/AT32F435/drivers/src/at32f435_437_tmr.c **** }
 2033              		.loc 1 1024 1 is_stmt 0 view .LVU545
 2034 0036 7047     		bx	lr
 2035              		.cfi_endproc
 2036              	.LFE162:
 2038              		.section	.text.tmr_pwm_input_config,"ax",%progbits
 2039              		.align	1
 2040              		.global	tmr_pwm_input_config
 2041              		.syntax unified
 2042              		.thumb
 2043              		.thumb_func
 2045              	tmr_pwm_input_config:
 2046              	.LVL146:
 2047              	.LFB163:
1025:HW_Lib/AT32F435/drivers/src/at32f435_437_tmr.c **** 
1026:HW_Lib/AT32F435/drivers/src/at32f435_437_tmr.c **** /**
1027:HW_Lib/AT32F435/drivers/src/at32f435_437_tmr.c ****   * @brief  config tmr pwm input
1028:HW_Lib/AT32F435/drivers/src/at32f435_437_tmr.c ****   * @param  tmr_x: select the tmr peripheral.
1029:HW_Lib/AT32F435/drivers/src/at32f435_437_tmr.c ****   *         this parameter can be one of the following values:
1030:HW_Lib/AT32F435/drivers/src/at32f435_437_tmr.c ****   *         TMR1, TMR2, TMR3, TMR4, TMR5, TMR8, TMR9, TMR10,
1031:HW_Lib/AT32F435/drivers/src/at32f435_437_tmr.c ****   *         TMR11, TMR12, TMR13, TMR14, TMR20
ARM GAS  C:\Users\8bit\AppData\Local\Temp\ccwaFnug.s 			page 56


1032:HW_Lib/AT32F435/drivers/src/at32f435_437_tmr.c ****   * @param  input_struct
1033:HW_Lib/AT32F435/drivers/src/at32f435_437_tmr.c ****   *         - to the structure of tmr_input_config_type
1034:HW_Lib/AT32F435/drivers/src/at32f435_437_tmr.c ****   * @param  divider_factor
1035:HW_Lib/AT32F435/drivers/src/at32f435_437_tmr.c ****   *         this parameter can be one of the following values:
1036:HW_Lib/AT32F435/drivers/src/at32f435_437_tmr.c ****   *         - TMR_CHANNEL_INPUT_DIV_1
1037:HW_Lib/AT32F435/drivers/src/at32f435_437_tmr.c ****   *         - TMR_CHANNEL_INPUT_DIV_2
1038:HW_Lib/AT32F435/drivers/src/at32f435_437_tmr.c ****   *         - TMR_CHANNEL_INPUT_DIV_4
1039:HW_Lib/AT32F435/drivers/src/at32f435_437_tmr.c ****   *         - TMR_CHANNEL_INPUT_DIV_8
1040:HW_Lib/AT32F435/drivers/src/at32f435_437_tmr.c ****   * @retval none
1041:HW_Lib/AT32F435/drivers/src/at32f435_437_tmr.c ****   */
1042:HW_Lib/AT32F435/drivers/src/at32f435_437_tmr.c **** void tmr_pwm_input_config(tmr_type *tmr_x, tmr_input_config_type *input_struct, \
1043:HW_Lib/AT32F435/drivers/src/at32f435_437_tmr.c ****                           tmr_channel_input_divider_type divider_factor)
1044:HW_Lib/AT32F435/drivers/src/at32f435_437_tmr.c **** {
 2048              		.loc 1 1044 1 is_stmt 1 view -0
 2049              		.cfi_startproc
 2050              		@ args = 0, pretend = 0, frame = 0
 2051              		@ frame_needed = 0, uses_anonymous_args = 0
 2052              		@ link register save eliminated.
1045:HW_Lib/AT32F435/drivers/src/at32f435_437_tmr.c ****   uint16_t channel = 0;
 2053              		.loc 1 1045 3 view .LVU547
1046:HW_Lib/AT32F435/drivers/src/at32f435_437_tmr.c **** 
1047:HW_Lib/AT32F435/drivers/src/at32f435_437_tmr.c ****   /* get channel selected */
1048:HW_Lib/AT32F435/drivers/src/at32f435_437_tmr.c ****   channel = input_struct->input_channel_select;
 2054              		.loc 1 1048 3 view .LVU548
 2055              		.loc 1 1048 25 is_stmt 0 view .LVU549
 2056 0000 0B78     		ldrb	r3, [r1]	@ zero_extendqisi2
 2057              	.LVL147:
1049:HW_Lib/AT32F435/drivers/src/at32f435_437_tmr.c **** 
1050:HW_Lib/AT32F435/drivers/src/at32f435_437_tmr.c ****   switch(channel)
 2058              		.loc 1 1050 3 is_stmt 1 view .LVU550
 2059 0002 13B1     		cbz	r3, .L141
 2060 0004 022B     		cmp	r3, #2
 2061 0006 52D0     		beq	.L142
 2062 0008 7047     		bx	lr
 2063              	.L141:
1051:HW_Lib/AT32F435/drivers/src/at32f435_437_tmr.c ****   {
1052:HW_Lib/AT32F435/drivers/src/at32f435_437_tmr.c ****     case TMR_SELECT_CHANNEL_1:
1053:HW_Lib/AT32F435/drivers/src/at32f435_437_tmr.c ****       if(input_struct->input_polarity_select == TMR_INPUT_RISING_EDGE)
 2064              		.loc 1 1053 7 view .LVU551
 2065              		.loc 1 1053 22 is_stmt 0 view .LVU552
 2066 000a 4B78     		ldrb	r3, [r1, #1]	@ zero_extendqisi2
 2067              	.LVL148:
 2068              		.loc 1 1053 9 view .LVU553
 2069 000c 53BB     		cbnz	r3, .L144
1054:HW_Lib/AT32F435/drivers/src/at32f435_437_tmr.c ****       {
1055:HW_Lib/AT32F435/drivers/src/at32f435_437_tmr.c ****         /* set channel polarity */
1056:HW_Lib/AT32F435/drivers/src/at32f435_437_tmr.c ****         tmr_x->cctrl_bit.c1p          = TMR_INPUT_RISING_EDGE;
 2070              		.loc 1 1056 9 is_stmt 1 view .LVU554
 2071              		.loc 1 1056 39 is_stmt 0 view .LVU555
 2072 000e 036A     		ldr	r3, [r0, #32]
 2073 0010 6FF34103 		bfc	r3, #1, #1
 2074 0014 0362     		str	r3, [r0, #32]
 2075              	.LVL149:
1057:HW_Lib/AT32F435/drivers/src/at32f435_437_tmr.c ****         tmr_x->cctrl_bit.c2p          = TMR_INPUT_FALLING_EDGE;
 2076              		.loc 1 1057 9 is_stmt 1 view .LVU556
 2077              		.loc 1 1057 39 is_stmt 0 view .LVU557
 2078 0016 036A     		ldr	r3, [r0, #32]
ARM GAS  C:\Users\8bit\AppData\Local\Temp\ccwaFnug.s 			page 57


 2079 0018 43F02003 		orr	r3, r3, #32
 2080 001c 0362     		str	r3, [r0, #32]
 2081              	.L145:
1058:HW_Lib/AT32F435/drivers/src/at32f435_437_tmr.c ****       }
1059:HW_Lib/AT32F435/drivers/src/at32f435_437_tmr.c ****       else if(input_struct->input_polarity_select == TMR_INPUT_FALLING_EDGE)
1060:HW_Lib/AT32F435/drivers/src/at32f435_437_tmr.c ****       {
1061:HW_Lib/AT32F435/drivers/src/at32f435_437_tmr.c ****         /* set channel polarity */
1062:HW_Lib/AT32F435/drivers/src/at32f435_437_tmr.c ****         tmr_x->cctrl_bit.c1p          = TMR_INPUT_FALLING_EDGE;
1063:HW_Lib/AT32F435/drivers/src/at32f435_437_tmr.c ****         tmr_x->cctrl_bit.c2p          = TMR_INPUT_RISING_EDGE;
1064:HW_Lib/AT32F435/drivers/src/at32f435_437_tmr.c ****       }
1065:HW_Lib/AT32F435/drivers/src/at32f435_437_tmr.c **** 
1066:HW_Lib/AT32F435/drivers/src/at32f435_437_tmr.c ****       if(input_struct->input_mapped_select == TMR_CC_CHANNEL_MAPPED_DIRECT)
 2082              		.loc 1 1066 7 is_stmt 1 view .LVU558
 2083              		.loc 1 1066 22 is_stmt 0 view .LVU559
 2084 001e 8B78     		ldrb	r3, [r1, #2]	@ zero_extendqisi2
 2085              		.loc 1 1066 9 view .LVU560
 2086 0020 012B     		cmp	r3, #1
 2087 0022 2AD0     		beq	.L152
1067:HW_Lib/AT32F435/drivers/src/at32f435_437_tmr.c ****       {
1068:HW_Lib/AT32F435/drivers/src/at32f435_437_tmr.c ****         /* ic1 is mapped on ti1 */
1069:HW_Lib/AT32F435/drivers/src/at32f435_437_tmr.c ****         tmr_x->cm1_input_bit.c1c = TMR_CC_CHANNEL_MAPPED_DIRECT;
1070:HW_Lib/AT32F435/drivers/src/at32f435_437_tmr.c **** 
1071:HW_Lib/AT32F435/drivers/src/at32f435_437_tmr.c ****         /* ic1 is mapped on ti2 */
1072:HW_Lib/AT32F435/drivers/src/at32f435_437_tmr.c ****         tmr_x->cm1_input_bit.c2c = TMR_CC_CHANNEL_MAPPED_INDIRECT;
1073:HW_Lib/AT32F435/drivers/src/at32f435_437_tmr.c ****       }
1074:HW_Lib/AT32F435/drivers/src/at32f435_437_tmr.c ****       else if(input_struct->input_mapped_select == TMR_CC_CHANNEL_MAPPED_INDIRECT)
 2088              		.loc 1 1074 12 is_stmt 1 view .LVU561
 2089              		.loc 1 1074 14 is_stmt 0 view .LVU562
 2090 0024 022B     		cmp	r3, #2
 2091 0026 35D0     		beq	.L153
 2092              	.L147:
1075:HW_Lib/AT32F435/drivers/src/at32f435_437_tmr.c ****       {
1076:HW_Lib/AT32F435/drivers/src/at32f435_437_tmr.c ****         /* ic1 is mapped on ti1 */
1077:HW_Lib/AT32F435/drivers/src/at32f435_437_tmr.c ****         tmr_x->cm1_input_bit.c1c = TMR_CC_CHANNEL_MAPPED_INDIRECT;
1078:HW_Lib/AT32F435/drivers/src/at32f435_437_tmr.c **** 
1079:HW_Lib/AT32F435/drivers/src/at32f435_437_tmr.c ****         /* ic1 is mapped on ti2 */
1080:HW_Lib/AT32F435/drivers/src/at32f435_437_tmr.c ****         tmr_x->cm1_input_bit.c2c = TMR_CC_CHANNEL_MAPPED_DIRECT;
1081:HW_Lib/AT32F435/drivers/src/at32f435_437_tmr.c ****       }
1082:HW_Lib/AT32F435/drivers/src/at32f435_437_tmr.c **** 
1083:HW_Lib/AT32F435/drivers/src/at32f435_437_tmr.c ****       /* set input ch1 and ch2 filter value*/
1084:HW_Lib/AT32F435/drivers/src/at32f435_437_tmr.c ****       tmr_x->cm1_input_bit.c1df = input_struct->input_filter_value;
 2093              		.loc 1 1084 7 is_stmt 1 view .LVU563
 2094              		.loc 1 1084 47 is_stmt 0 view .LVU564
 2095 0028 91F803C0 		ldrb	ip, [r1, #3]	@ zero_extendqisi2
 2096              		.loc 1 1084 33 view .LVU565
 2097 002c 8369     		ldr	r3, [r0, #24]
 2098 002e 6CF30713 		bfi	r3, ip, #4, #4
 2099 0032 8361     		str	r3, [r0, #24]
1085:HW_Lib/AT32F435/drivers/src/at32f435_437_tmr.c ****       tmr_x->cm1_input_bit.c2df = input_struct->input_filter_value;
 2100              		.loc 1 1085 7 is_stmt 1 view .LVU566
 2101              		.loc 1 1085 47 is_stmt 0 view .LVU567
 2102 0034 C978     		ldrb	r1, [r1, #3]	@ zero_extendqisi2
 2103              	.LVL150:
 2104              		.loc 1 1085 33 view .LVU568
 2105 0036 8369     		ldr	r3, [r0, #24]
 2106 0038 61F30F33 		bfi	r3, r1, #12, #4
 2107 003c 8361     		str	r3, [r0, #24]
ARM GAS  C:\Users\8bit\AppData\Local\Temp\ccwaFnug.s 			page 58


1086:HW_Lib/AT32F435/drivers/src/at32f435_437_tmr.c **** 
1087:HW_Lib/AT32F435/drivers/src/at32f435_437_tmr.c ****       /*set input ch1 and ch2 divider value*/
1088:HW_Lib/AT32F435/drivers/src/at32f435_437_tmr.c ****       tmr_x->cm1_input_bit.c1idiv = divider_factor;
 2108              		.loc 1 1088 7 is_stmt 1 view .LVU569
 2109              		.loc 1 1088 35 is_stmt 0 view .LVU570
 2110 003e 02F00302 		and	r2, r2, #3
 2111              	.LVL151:
 2112              		.loc 1 1088 35 view .LVU571
 2113 0042 8369     		ldr	r3, [r0, #24]
 2114 0044 62F38303 		bfi	r3, r2, #2, #2
 2115 0048 8361     		str	r3, [r0, #24]
1089:HW_Lib/AT32F435/drivers/src/at32f435_437_tmr.c ****       tmr_x->cm1_input_bit.c2idiv = divider_factor;
 2116              		.loc 1 1089 7 is_stmt 1 view .LVU572
 2117              		.loc 1 1089 35 is_stmt 0 view .LVU573
 2118 004a 8369     		ldr	r3, [r0, #24]
 2119 004c 62F38B23 		bfi	r3, r2, #10, #2
 2120 0050 8361     		str	r3, [r0, #24]
1090:HW_Lib/AT32F435/drivers/src/at32f435_437_tmr.c **** 
1091:HW_Lib/AT32F435/drivers/src/at32f435_437_tmr.c ****       tmr_x->cctrl_bit.c1en = TRUE;
 2121              		.loc 1 1091 7 is_stmt 1 view .LVU574
 2122              		.loc 1 1091 29 is_stmt 0 view .LVU575
 2123 0052 036A     		ldr	r3, [r0, #32]
 2124 0054 43F00103 		orr	r3, r3, #1
 2125 0058 0362     		str	r3, [r0, #32]
1092:HW_Lib/AT32F435/drivers/src/at32f435_437_tmr.c ****       tmr_x->cctrl_bit.c2en = TRUE;
 2126              		.loc 1 1092 7 is_stmt 1 view .LVU576
 2127              		.loc 1 1092 29 is_stmt 0 view .LVU577
 2128 005a 036A     		ldr	r3, [r0, #32]
 2129 005c 43F01003 		orr	r3, r3, #16
 2130 0060 0362     		str	r3, [r0, #32]
1093:HW_Lib/AT32F435/drivers/src/at32f435_437_tmr.c ****       break;
 2131              		.loc 1 1093 7 is_stmt 1 view .LVU578
 2132 0062 7047     		bx	lr
 2133              	.LVL152:
 2134              	.L144:
1059:HW_Lib/AT32F435/drivers/src/at32f435_437_tmr.c ****       {
 2135              		.loc 1 1059 12 view .LVU579
1059:HW_Lib/AT32F435/drivers/src/at32f435_437_tmr.c ****       {
 2136              		.loc 1 1059 14 is_stmt 0 view .LVU580
 2137 0064 012B     		cmp	r3, #1
 2138 0066 DAD1     		bne	.L145
1062:HW_Lib/AT32F435/drivers/src/at32f435_437_tmr.c ****         tmr_x->cctrl_bit.c2p          = TMR_INPUT_RISING_EDGE;
 2139              		.loc 1 1062 9 is_stmt 1 view .LVU581
1062:HW_Lib/AT32F435/drivers/src/at32f435_437_tmr.c ****         tmr_x->cctrl_bit.c2p          = TMR_INPUT_RISING_EDGE;
 2140              		.loc 1 1062 39 is_stmt 0 view .LVU582
 2141 0068 036A     		ldr	r3, [r0, #32]
 2142 006a 43F00203 		orr	r3, r3, #2
 2143 006e 0362     		str	r3, [r0, #32]
 2144              	.LVL153:
1063:HW_Lib/AT32F435/drivers/src/at32f435_437_tmr.c ****       }
 2145              		.loc 1 1063 9 is_stmt 1 view .LVU583
1063:HW_Lib/AT32F435/drivers/src/at32f435_437_tmr.c ****       }
 2146              		.loc 1 1063 39 is_stmt 0 view .LVU584
 2147 0070 036A     		ldr	r3, [r0, #32]
 2148 0072 6FF34513 		bfc	r3, #5, #1
 2149 0076 0362     		str	r3, [r0, #32]
 2150 0078 D1E7     		b	.L145
ARM GAS  C:\Users\8bit\AppData\Local\Temp\ccwaFnug.s 			page 59


 2151              	.L152:
1069:HW_Lib/AT32F435/drivers/src/at32f435_437_tmr.c **** 
 2152              		.loc 1 1069 9 is_stmt 1 view .LVU585
1069:HW_Lib/AT32F435/drivers/src/at32f435_437_tmr.c **** 
 2153              		.loc 1 1069 34 is_stmt 0 view .LVU586
 2154 007a 8369     		ldr	r3, [r0, #24]
 2155 007c 4FF0010C 		mov	ip, #1
 2156 0080 6CF30103 		bfi	r3, ip, #0, #2
 2157 0084 8361     		str	r3, [r0, #24]
1072:HW_Lib/AT32F435/drivers/src/at32f435_437_tmr.c ****       }
 2158              		.loc 1 1072 9 is_stmt 1 view .LVU587
1072:HW_Lib/AT32F435/drivers/src/at32f435_437_tmr.c ****       }
 2159              		.loc 1 1072 34 is_stmt 0 view .LVU588
 2160 0086 8369     		ldr	r3, [r0, #24]
 2161 0088 4FF0020C 		mov	ip, #2
 2162 008c 6CF30923 		bfi	r3, ip, #8, #2
 2163 0090 8361     		str	r3, [r0, #24]
 2164 0092 C9E7     		b	.L147
 2165              	.L153:
1077:HW_Lib/AT32F435/drivers/src/at32f435_437_tmr.c **** 
 2166              		.loc 1 1077 9 is_stmt 1 view .LVU589
1077:HW_Lib/AT32F435/drivers/src/at32f435_437_tmr.c **** 
 2167              		.loc 1 1077 34 is_stmt 0 view .LVU590
 2168 0094 8369     		ldr	r3, [r0, #24]
 2169 0096 4FF0020C 		mov	ip, #2
 2170 009a 6CF30103 		bfi	r3, ip, #0, #2
 2171 009e 8361     		str	r3, [r0, #24]
1080:HW_Lib/AT32F435/drivers/src/at32f435_437_tmr.c ****       }
 2172              		.loc 1 1080 9 is_stmt 1 view .LVU591
1080:HW_Lib/AT32F435/drivers/src/at32f435_437_tmr.c ****       }
 2173              		.loc 1 1080 34 is_stmt 0 view .LVU592
 2174 00a0 8369     		ldr	r3, [r0, #24]
 2175 00a2 4FF0010C 		mov	ip, #1
 2176 00a6 6CF30923 		bfi	r3, ip, #8, #2
 2177 00aa 8361     		str	r3, [r0, #24]
 2178 00ac BCE7     		b	.L147
 2179              	.LVL154:
 2180              	.L142:
1094:HW_Lib/AT32F435/drivers/src/at32f435_437_tmr.c **** 
1095:HW_Lib/AT32F435/drivers/src/at32f435_437_tmr.c ****     case TMR_SELECT_CHANNEL_2:
1096:HW_Lib/AT32F435/drivers/src/at32f435_437_tmr.c ****       if(input_struct->input_polarity_select == TMR_INPUT_RISING_EDGE)
 2181              		.loc 1 1096 7 is_stmt 1 view .LVU593
 2182              		.loc 1 1096 22 is_stmt 0 view .LVU594
 2183 00ae 4B78     		ldrb	r3, [r1, #1]	@ zero_extendqisi2
 2184              	.LVL155:
 2185              		.loc 1 1096 9 view .LVU595
 2186 00b0 53BB     		cbnz	r3, .L148
1097:HW_Lib/AT32F435/drivers/src/at32f435_437_tmr.c ****       {
1098:HW_Lib/AT32F435/drivers/src/at32f435_437_tmr.c ****         /* set channel polarity */
1099:HW_Lib/AT32F435/drivers/src/at32f435_437_tmr.c ****         tmr_x->cctrl_bit.c2p          = TMR_INPUT_RISING_EDGE;
 2187              		.loc 1 1099 9 is_stmt 1 view .LVU596
 2188              		.loc 1 1099 39 is_stmt 0 view .LVU597
 2189 00b2 036A     		ldr	r3, [r0, #32]
 2190 00b4 6FF34513 		bfc	r3, #5, #1
 2191 00b8 0362     		str	r3, [r0, #32]
 2192              	.LVL156:
1100:HW_Lib/AT32F435/drivers/src/at32f435_437_tmr.c ****         tmr_x->cctrl_bit.c1p          = TMR_INPUT_FALLING_EDGE;
ARM GAS  C:\Users\8bit\AppData\Local\Temp\ccwaFnug.s 			page 60


 2193              		.loc 1 1100 9 is_stmt 1 view .LVU598
 2194              		.loc 1 1100 39 is_stmt 0 view .LVU599
 2195 00ba 036A     		ldr	r3, [r0, #32]
 2196 00bc 43F00203 		orr	r3, r3, #2
 2197 00c0 0362     		str	r3, [r0, #32]
 2198              	.L149:
1101:HW_Lib/AT32F435/drivers/src/at32f435_437_tmr.c ****       }
1102:HW_Lib/AT32F435/drivers/src/at32f435_437_tmr.c ****       else if(input_struct->input_polarity_select == TMR_INPUT_FALLING_EDGE)
1103:HW_Lib/AT32F435/drivers/src/at32f435_437_tmr.c ****       {
1104:HW_Lib/AT32F435/drivers/src/at32f435_437_tmr.c ****         /* set channel polarity */
1105:HW_Lib/AT32F435/drivers/src/at32f435_437_tmr.c ****         tmr_x->cctrl_bit.c2p          = TMR_INPUT_FALLING_EDGE;
1106:HW_Lib/AT32F435/drivers/src/at32f435_437_tmr.c ****         tmr_x->cctrl_bit.c1p          = TMR_INPUT_RISING_EDGE;
1107:HW_Lib/AT32F435/drivers/src/at32f435_437_tmr.c ****       }
1108:HW_Lib/AT32F435/drivers/src/at32f435_437_tmr.c **** 
1109:HW_Lib/AT32F435/drivers/src/at32f435_437_tmr.c ****       if(input_struct->input_mapped_select == TMR_CC_CHANNEL_MAPPED_DIRECT)
 2199              		.loc 1 1109 7 is_stmt 1 view .LVU600
 2200              		.loc 1 1109 22 is_stmt 0 view .LVU601
 2201 00c2 8B78     		ldrb	r3, [r1, #2]	@ zero_extendqisi2
 2202              		.loc 1 1109 9 view .LVU602
 2203 00c4 012B     		cmp	r3, #1
 2204 00c6 2AD0     		beq	.L154
1110:HW_Lib/AT32F435/drivers/src/at32f435_437_tmr.c ****       {
1111:HW_Lib/AT32F435/drivers/src/at32f435_437_tmr.c ****         /* set mapped direct */
1112:HW_Lib/AT32F435/drivers/src/at32f435_437_tmr.c ****         tmr_x->cm1_input_bit.c2c = TMR_CC_CHANNEL_MAPPED_DIRECT;
1113:HW_Lib/AT32F435/drivers/src/at32f435_437_tmr.c ****         tmr_x->cm1_input_bit.c1c = TMR_CC_CHANNEL_MAPPED_INDIRECT;
1114:HW_Lib/AT32F435/drivers/src/at32f435_437_tmr.c ****       }
1115:HW_Lib/AT32F435/drivers/src/at32f435_437_tmr.c ****       else if(input_struct->input_mapped_select == TMR_CC_CHANNEL_MAPPED_INDIRECT)
 2205              		.loc 1 1115 12 is_stmt 1 view .LVU603
 2206              		.loc 1 1115 14 is_stmt 0 view .LVU604
 2207 00c8 022B     		cmp	r3, #2
 2208 00ca 35D0     		beq	.L155
 2209              	.L151:
1116:HW_Lib/AT32F435/drivers/src/at32f435_437_tmr.c ****       {
1117:HW_Lib/AT32F435/drivers/src/at32f435_437_tmr.c ****         /* set mapped direct */
1118:HW_Lib/AT32F435/drivers/src/at32f435_437_tmr.c ****         tmr_x->cm1_input_bit.c2c = TMR_CC_CHANNEL_MAPPED_INDIRECT;
1119:HW_Lib/AT32F435/drivers/src/at32f435_437_tmr.c ****         tmr_x->cm1_input_bit.c1c = TMR_CC_CHANNEL_MAPPED_DIRECT;
1120:HW_Lib/AT32F435/drivers/src/at32f435_437_tmr.c ****       }
1121:HW_Lib/AT32F435/drivers/src/at32f435_437_tmr.c **** 
1122:HW_Lib/AT32F435/drivers/src/at32f435_437_tmr.c ****       /* set input ch1 and ch2 filter value*/
1123:HW_Lib/AT32F435/drivers/src/at32f435_437_tmr.c ****       tmr_x->cm1_input_bit.c1df = input_struct->input_filter_value;
 2210              		.loc 1 1123 7 is_stmt 1 view .LVU605
 2211              		.loc 1 1123 47 is_stmt 0 view .LVU606
 2212 00cc 91F803C0 		ldrb	ip, [r1, #3]	@ zero_extendqisi2
 2213              		.loc 1 1123 33 view .LVU607
 2214 00d0 8369     		ldr	r3, [r0, #24]
 2215 00d2 6CF30713 		bfi	r3, ip, #4, #4
 2216 00d6 8361     		str	r3, [r0, #24]
1124:HW_Lib/AT32F435/drivers/src/at32f435_437_tmr.c ****       tmr_x->cm1_input_bit.c2df = input_struct->input_filter_value;
 2217              		.loc 1 1124 7 is_stmt 1 view .LVU608
 2218              		.loc 1 1124 47 is_stmt 0 view .LVU609
 2219 00d8 C978     		ldrb	r1, [r1, #3]	@ zero_extendqisi2
 2220              	.LVL157:
 2221              		.loc 1 1124 33 view .LVU610
 2222 00da 8369     		ldr	r3, [r0, #24]
 2223 00dc 61F30F33 		bfi	r3, r1, #12, #4
 2224 00e0 8361     		str	r3, [r0, #24]
1125:HW_Lib/AT32F435/drivers/src/at32f435_437_tmr.c **** 
ARM GAS  C:\Users\8bit\AppData\Local\Temp\ccwaFnug.s 			page 61


1126:HW_Lib/AT32F435/drivers/src/at32f435_437_tmr.c ****       /*set input ch1 and ch2 divider value*/
1127:HW_Lib/AT32F435/drivers/src/at32f435_437_tmr.c ****       tmr_x->cm1_input_bit.c1idiv = divider_factor;
 2225              		.loc 1 1127 7 is_stmt 1 view .LVU611
 2226              		.loc 1 1127 35 is_stmt 0 view .LVU612
 2227 00e2 02F00302 		and	r2, r2, #3
 2228              	.LVL158:
 2229              		.loc 1 1127 35 view .LVU613
 2230 00e6 8369     		ldr	r3, [r0, #24]
 2231 00e8 62F38303 		bfi	r3, r2, #2, #2
 2232 00ec 8361     		str	r3, [r0, #24]
1128:HW_Lib/AT32F435/drivers/src/at32f435_437_tmr.c ****       tmr_x->cm1_input_bit.c2idiv = divider_factor;
 2233              		.loc 1 1128 7 is_stmt 1 view .LVU614
 2234              		.loc 1 1128 35 is_stmt 0 view .LVU615
 2235 00ee 8369     		ldr	r3, [r0, #24]
 2236 00f0 62F38B23 		bfi	r3, r2, #10, #2
 2237 00f4 8361     		str	r3, [r0, #24]
1129:HW_Lib/AT32F435/drivers/src/at32f435_437_tmr.c **** 
1130:HW_Lib/AT32F435/drivers/src/at32f435_437_tmr.c ****       tmr_x->cctrl_bit.c1en = TRUE;
 2238              		.loc 1 1130 7 is_stmt 1 view .LVU616
 2239              		.loc 1 1130 29 is_stmt 0 view .LVU617
 2240 00f6 036A     		ldr	r3, [r0, #32]
 2241 00f8 43F00103 		orr	r3, r3, #1
 2242 00fc 0362     		str	r3, [r0, #32]
1131:HW_Lib/AT32F435/drivers/src/at32f435_437_tmr.c ****       tmr_x->cctrl_bit.c2en = TRUE;
 2243              		.loc 1 1131 7 is_stmt 1 view .LVU618
 2244              		.loc 1 1131 29 is_stmt 0 view .LVU619
 2245 00fe 036A     		ldr	r3, [r0, #32]
 2246 0100 43F01003 		orr	r3, r3, #16
 2247 0104 0362     		str	r3, [r0, #32]
1132:HW_Lib/AT32F435/drivers/src/at32f435_437_tmr.c ****       break;
 2248              		.loc 1 1132 7 is_stmt 1 view .LVU620
1133:HW_Lib/AT32F435/drivers/src/at32f435_437_tmr.c **** 
1134:HW_Lib/AT32F435/drivers/src/at32f435_437_tmr.c ****     default:
1135:HW_Lib/AT32F435/drivers/src/at32f435_437_tmr.c ****       break;
1136:HW_Lib/AT32F435/drivers/src/at32f435_437_tmr.c ****   }
1137:HW_Lib/AT32F435/drivers/src/at32f435_437_tmr.c **** }
 2249              		.loc 1 1137 1 is_stmt 0 view .LVU621
 2250 0106 7047     		bx	lr
 2251              	.LVL159:
 2252              	.L148:
1102:HW_Lib/AT32F435/drivers/src/at32f435_437_tmr.c ****       {
 2253              		.loc 1 1102 12 is_stmt 1 view .LVU622
1102:HW_Lib/AT32F435/drivers/src/at32f435_437_tmr.c ****       {
 2254              		.loc 1 1102 14 is_stmt 0 view .LVU623
 2255 0108 012B     		cmp	r3, #1
 2256 010a DAD1     		bne	.L149
1105:HW_Lib/AT32F435/drivers/src/at32f435_437_tmr.c ****         tmr_x->cctrl_bit.c1p          = TMR_INPUT_RISING_EDGE;
 2257              		.loc 1 1105 9 is_stmt 1 view .LVU624
1105:HW_Lib/AT32F435/drivers/src/at32f435_437_tmr.c ****         tmr_x->cctrl_bit.c1p          = TMR_INPUT_RISING_EDGE;
 2258              		.loc 1 1105 39 is_stmt 0 view .LVU625
 2259 010c 036A     		ldr	r3, [r0, #32]
 2260 010e 43F02003 		orr	r3, r3, #32
 2261 0112 0362     		str	r3, [r0, #32]
 2262              	.LVL160:
1106:HW_Lib/AT32F435/drivers/src/at32f435_437_tmr.c ****       }
 2263              		.loc 1 1106 9 is_stmt 1 view .LVU626
1106:HW_Lib/AT32F435/drivers/src/at32f435_437_tmr.c ****       }
ARM GAS  C:\Users\8bit\AppData\Local\Temp\ccwaFnug.s 			page 62


 2264              		.loc 1 1106 39 is_stmt 0 view .LVU627
 2265 0114 036A     		ldr	r3, [r0, #32]
 2266 0116 6FF34103 		bfc	r3, #1, #1
 2267 011a 0362     		str	r3, [r0, #32]
 2268 011c D1E7     		b	.L149
 2269              	.L154:
1112:HW_Lib/AT32F435/drivers/src/at32f435_437_tmr.c ****         tmr_x->cm1_input_bit.c1c = TMR_CC_CHANNEL_MAPPED_INDIRECT;
 2270              		.loc 1 1112 9 is_stmt 1 view .LVU628
1112:HW_Lib/AT32F435/drivers/src/at32f435_437_tmr.c ****         tmr_x->cm1_input_bit.c1c = TMR_CC_CHANNEL_MAPPED_INDIRECT;
 2271              		.loc 1 1112 34 is_stmt 0 view .LVU629
 2272 011e 8369     		ldr	r3, [r0, #24]
 2273 0120 4FF0010C 		mov	ip, #1
 2274 0124 6CF30923 		bfi	r3, ip, #8, #2
 2275 0128 8361     		str	r3, [r0, #24]
1113:HW_Lib/AT32F435/drivers/src/at32f435_437_tmr.c ****       }
 2276              		.loc 1 1113 9 is_stmt 1 view .LVU630
1113:HW_Lib/AT32F435/drivers/src/at32f435_437_tmr.c ****       }
 2277              		.loc 1 1113 34 is_stmt 0 view .LVU631
 2278 012a 8369     		ldr	r3, [r0, #24]
 2279 012c 4FF0020C 		mov	ip, #2
 2280 0130 6CF30103 		bfi	r3, ip, #0, #2
 2281 0134 8361     		str	r3, [r0, #24]
 2282 0136 C9E7     		b	.L151
 2283              	.L155:
1118:HW_Lib/AT32F435/drivers/src/at32f435_437_tmr.c ****         tmr_x->cm1_input_bit.c1c = TMR_CC_CHANNEL_MAPPED_DIRECT;
 2284              		.loc 1 1118 9 is_stmt 1 view .LVU632
1118:HW_Lib/AT32F435/drivers/src/at32f435_437_tmr.c ****         tmr_x->cm1_input_bit.c1c = TMR_CC_CHANNEL_MAPPED_DIRECT;
 2285              		.loc 1 1118 34 is_stmt 0 view .LVU633
 2286 0138 8369     		ldr	r3, [r0, #24]
 2287 013a 4FF0020C 		mov	ip, #2
 2288 013e 6CF30923 		bfi	r3, ip, #8, #2
 2289 0142 8361     		str	r3, [r0, #24]
1119:HW_Lib/AT32F435/drivers/src/at32f435_437_tmr.c ****       }
 2290              		.loc 1 1119 9 is_stmt 1 view .LVU634
1119:HW_Lib/AT32F435/drivers/src/at32f435_437_tmr.c ****       }
 2291              		.loc 1 1119 34 is_stmt 0 view .LVU635
 2292 0144 8369     		ldr	r3, [r0, #24]
 2293 0146 4FF0010C 		mov	ip, #1
 2294 014a 6CF30103 		bfi	r3, ip, #0, #2
 2295 014e 8361     		str	r3, [r0, #24]
 2296 0150 BCE7     		b	.L151
 2297              		.cfi_endproc
 2298              	.LFE163:
 2300              		.section	.text.tmr_channel1_input_select,"ax",%progbits
 2301              		.align	1
 2302              		.global	tmr_channel1_input_select
 2303              		.syntax unified
 2304              		.thumb
 2305              		.thumb_func
 2307              	tmr_channel1_input_select:
 2308              	.LVL161:
 2309              	.LFB164:
1138:HW_Lib/AT32F435/drivers/src/at32f435_437_tmr.c **** 
1139:HW_Lib/AT32F435/drivers/src/at32f435_437_tmr.c **** /**
1140:HW_Lib/AT32F435/drivers/src/at32f435_437_tmr.c ****   * @brief  select tmr channel1 input
1141:HW_Lib/AT32F435/drivers/src/at32f435_437_tmr.c ****   * @param  tmr_x: select the tmr peripheral.
1142:HW_Lib/AT32F435/drivers/src/at32f435_437_tmr.c ****   *         this parameter can be one of the following values:
ARM GAS  C:\Users\8bit\AppData\Local\Temp\ccwaFnug.s 			page 63


1143:HW_Lib/AT32F435/drivers/src/at32f435_437_tmr.c ****   *         TMR1, TMR2, TMR3, TMR4, TMR5, TMR8, TMR20
1144:HW_Lib/AT32F435/drivers/src/at32f435_437_tmr.c ****   * @param  ch1_connect
1145:HW_Lib/AT32F435/drivers/src/at32f435_437_tmr.c ****   *         this parameter can be one of the following values:
1146:HW_Lib/AT32F435/drivers/src/at32f435_437_tmr.c ****   *         - TMR_CHANEL1_CONNECTED_C1IRAW
1147:HW_Lib/AT32F435/drivers/src/at32f435_437_tmr.c ****   *         - TMR_CHANEL1_2_3_CONNECTED_C1IRAW_XOR
1148:HW_Lib/AT32F435/drivers/src/at32f435_437_tmr.c ****   * @retval none
1149:HW_Lib/AT32F435/drivers/src/at32f435_437_tmr.c ****   */
1150:HW_Lib/AT32F435/drivers/src/at32f435_437_tmr.c **** void tmr_channel1_input_select(tmr_type *tmr_x, tmr_channel1_input_connected_type ch1_connect)
1151:HW_Lib/AT32F435/drivers/src/at32f435_437_tmr.c **** {
 2310              		.loc 1 1151 1 is_stmt 1 view -0
 2311              		.cfi_startproc
 2312              		@ args = 0, pretend = 0, frame = 0
 2313              		@ frame_needed = 0, uses_anonymous_args = 0
 2314              		@ link register save eliminated.
1152:HW_Lib/AT32F435/drivers/src/at32f435_437_tmr.c ****   tmr_x->ctrl2_bit.c1insel = ch1_connect;
 2315              		.loc 1 1152 3 view .LVU637
 2316              		.loc 1 1152 28 is_stmt 0 view .LVU638
 2317 0000 4368     		ldr	r3, [r0, #4]
 2318 0002 61F3C713 		bfi	r3, r1, #7, #1
 2319 0006 4360     		str	r3, [r0, #4]
1153:HW_Lib/AT32F435/drivers/src/at32f435_437_tmr.c **** }
 2320              		.loc 1 1153 1 view .LVU639
 2321 0008 7047     		bx	lr
 2322              		.cfi_endproc
 2323              	.LFE164:
 2325              		.section	.text.tmr_input_channel_divider_set,"ax",%progbits
 2326              		.align	1
 2327              		.global	tmr_input_channel_divider_set
 2328              		.syntax unified
 2329              		.thumb
 2330              		.thumb_func
 2332              	tmr_input_channel_divider_set:
 2333              	.LVL162:
 2334              	.LFB165:
1154:HW_Lib/AT32F435/drivers/src/at32f435_437_tmr.c **** 
1155:HW_Lib/AT32F435/drivers/src/at32f435_437_tmr.c **** /**
1156:HW_Lib/AT32F435/drivers/src/at32f435_437_tmr.c ****   * @brief  set tmr input channel divider
1157:HW_Lib/AT32F435/drivers/src/at32f435_437_tmr.c ****   * @param  tmr_x: select the tmr peripheral.
1158:HW_Lib/AT32F435/drivers/src/at32f435_437_tmr.c ****   *         this parameter can be one of the following values:
1159:HW_Lib/AT32F435/drivers/src/at32f435_437_tmr.c ****   *         TMR1, TMR2, TMR3, TMR4, TMR5, TMR8, TMR9, TMR10,
1160:HW_Lib/AT32F435/drivers/src/at32f435_437_tmr.c ****   *         TMR11, TMR12, TMR13, TMR14, TMR20
1161:HW_Lib/AT32F435/drivers/src/at32f435_437_tmr.c ****   * @param  tmr_channel
1162:HW_Lib/AT32F435/drivers/src/at32f435_437_tmr.c ****   *         this parameter can be one of the following values:
1163:HW_Lib/AT32F435/drivers/src/at32f435_437_tmr.c ****   *         - TMR_SELECT_CHANNEL_1
1164:HW_Lib/AT32F435/drivers/src/at32f435_437_tmr.c ****   *         - TMR_SELECT_CHANNEL_2
1165:HW_Lib/AT32F435/drivers/src/at32f435_437_tmr.c ****   *         - TMR_SELECT_CHANNEL_3
1166:HW_Lib/AT32F435/drivers/src/at32f435_437_tmr.c ****   *         - TMR_SELECT_CHANNEL_4
1167:HW_Lib/AT32F435/drivers/src/at32f435_437_tmr.c ****   * @param  divider_factor
1168:HW_Lib/AT32F435/drivers/src/at32f435_437_tmr.c ****   *         this parameter can be one of the following values:
1169:HW_Lib/AT32F435/drivers/src/at32f435_437_tmr.c ****   *         - TMR_CHANNEL_INPUT_DIV_1
1170:HW_Lib/AT32F435/drivers/src/at32f435_437_tmr.c ****   *         - TMR_CHANNEL_INPUT_DIV_2
1171:HW_Lib/AT32F435/drivers/src/at32f435_437_tmr.c ****   *         - TMR_CHANNEL_INPUT_DIV_4
1172:HW_Lib/AT32F435/drivers/src/at32f435_437_tmr.c ****   *         - TMR_CHANNEL_INPUT_DIV_8
1173:HW_Lib/AT32F435/drivers/src/at32f435_437_tmr.c ****   * @retval none
1174:HW_Lib/AT32F435/drivers/src/at32f435_437_tmr.c ****   */
1175:HW_Lib/AT32F435/drivers/src/at32f435_437_tmr.c **** void tmr_input_channel_divider_set(tmr_type *tmr_x, tmr_channel_select_type tmr_channel, \
1176:HW_Lib/AT32F435/drivers/src/at32f435_437_tmr.c ****                                    tmr_channel_input_divider_type divider_factor)
ARM GAS  C:\Users\8bit\AppData\Local\Temp\ccwaFnug.s 			page 64


1177:HW_Lib/AT32F435/drivers/src/at32f435_437_tmr.c **** {
 2335              		.loc 1 1177 1 is_stmt 1 view -0
 2336              		.cfi_startproc
 2337              		@ args = 0, pretend = 0, frame = 0
 2338              		@ frame_needed = 0, uses_anonymous_args = 0
 2339              		@ link register save eliminated.
1178:HW_Lib/AT32F435/drivers/src/at32f435_437_tmr.c ****   uint16_t channel;
 2340              		.loc 1 1178 3 view .LVU641
1179:HW_Lib/AT32F435/drivers/src/at32f435_437_tmr.c **** 
1180:HW_Lib/AT32F435/drivers/src/at32f435_437_tmr.c ****   channel = tmr_channel;
 2341              		.loc 1 1180 3 view .LVU642
1181:HW_Lib/AT32F435/drivers/src/at32f435_437_tmr.c **** 
1182:HW_Lib/AT32F435/drivers/src/at32f435_437_tmr.c ****   switch(channel)
 2342              		.loc 1 1182 3 view .LVU643
 2343 0000 0629     		cmp	r1, #6
 2344 0002 18D8     		bhi	.L157
 2345 0004 DFE801F0 		tbb	[pc, r1]
 2346              	.L160:
 2347 0008 04       		.byte	(.L163-.L160)/2
 2348 0009 17       		.byte	(.L157-.L160)/2
 2349 000a 09       		.byte	(.L162-.L160)/2
 2350 000b 17       		.byte	(.L157-.L160)/2
 2351 000c 0E       		.byte	(.L161-.L160)/2
 2352 000d 17       		.byte	(.L157-.L160)/2
 2353 000e 13       		.byte	(.L159-.L160)/2
 2354 000f 00       		.p2align 1
 2355              	.L163:
1183:HW_Lib/AT32F435/drivers/src/at32f435_437_tmr.c ****   {
1184:HW_Lib/AT32F435/drivers/src/at32f435_437_tmr.c ****     case TMR_SELECT_CHANNEL_1:
1185:HW_Lib/AT32F435/drivers/src/at32f435_437_tmr.c ****       tmr_x->cm1_input_bit.c1idiv = divider_factor;
 2356              		.loc 1 1185 7 view .LVU644
 2357              		.loc 1 1185 35 is_stmt 0 view .LVU645
 2358 0010 8369     		ldr	r3, [r0, #24]
 2359 0012 62F38303 		bfi	r3, r2, #2, #2
 2360 0016 8361     		str	r3, [r0, #24]
1186:HW_Lib/AT32F435/drivers/src/at32f435_437_tmr.c ****       break;
 2361              		.loc 1 1186 7 is_stmt 1 view .LVU646
 2362 0018 7047     		bx	lr
 2363              	.L162:
1187:HW_Lib/AT32F435/drivers/src/at32f435_437_tmr.c **** 
1188:HW_Lib/AT32F435/drivers/src/at32f435_437_tmr.c ****     case TMR_SELECT_CHANNEL_2:
1189:HW_Lib/AT32F435/drivers/src/at32f435_437_tmr.c ****       tmr_x->cm1_input_bit.c2idiv = divider_factor;
 2364              		.loc 1 1189 7 view .LVU647
 2365              		.loc 1 1189 35 is_stmt 0 view .LVU648
 2366 001a 8369     		ldr	r3, [r0, #24]
 2367 001c 62F38B23 		bfi	r3, r2, #10, #2
 2368 0020 8361     		str	r3, [r0, #24]
1190:HW_Lib/AT32F435/drivers/src/at32f435_437_tmr.c ****       break;
 2369              		.loc 1 1190 7 is_stmt 1 view .LVU649
 2370 0022 7047     		bx	lr
 2371              	.L161:
1191:HW_Lib/AT32F435/drivers/src/at32f435_437_tmr.c **** 
1192:HW_Lib/AT32F435/drivers/src/at32f435_437_tmr.c ****     case TMR_SELECT_CHANNEL_3:
1193:HW_Lib/AT32F435/drivers/src/at32f435_437_tmr.c ****       tmr_x->cm2_input_bit.c3idiv = divider_factor;
 2372              		.loc 1 1193 7 view .LVU650
 2373              		.loc 1 1193 35 is_stmt 0 view .LVU651
 2374 0024 C369     		ldr	r3, [r0, #28]
ARM GAS  C:\Users\8bit\AppData\Local\Temp\ccwaFnug.s 			page 65


 2375 0026 62F38303 		bfi	r3, r2, #2, #2
 2376 002a C361     		str	r3, [r0, #28]
1194:HW_Lib/AT32F435/drivers/src/at32f435_437_tmr.c ****       break;
 2377              		.loc 1 1194 7 is_stmt 1 view .LVU652
 2378 002c 7047     		bx	lr
 2379              	.L159:
1195:HW_Lib/AT32F435/drivers/src/at32f435_437_tmr.c **** 
1196:HW_Lib/AT32F435/drivers/src/at32f435_437_tmr.c ****     case TMR_SELECT_CHANNEL_4:
1197:HW_Lib/AT32F435/drivers/src/at32f435_437_tmr.c ****       tmr_x->cm2_input_bit.c4idiv = divider_factor;
 2380              		.loc 1 1197 7 view .LVU653
 2381              		.loc 1 1197 35 is_stmt 0 view .LVU654
 2382 002e C369     		ldr	r3, [r0, #28]
 2383 0030 62F38B23 		bfi	r3, r2, #10, #2
 2384 0034 C361     		str	r3, [r0, #28]
1198:HW_Lib/AT32F435/drivers/src/at32f435_437_tmr.c ****       break;
 2385              		.loc 1 1198 7 is_stmt 1 view .LVU655
 2386              	.L157:
1199:HW_Lib/AT32F435/drivers/src/at32f435_437_tmr.c **** 
1200:HW_Lib/AT32F435/drivers/src/at32f435_437_tmr.c ****     default:
1201:HW_Lib/AT32F435/drivers/src/at32f435_437_tmr.c ****       break;
1202:HW_Lib/AT32F435/drivers/src/at32f435_437_tmr.c ****   }
1203:HW_Lib/AT32F435/drivers/src/at32f435_437_tmr.c **** }
 2387              		.loc 1 1203 1 is_stmt 0 view .LVU656
 2388 0036 7047     		bx	lr
 2389              		.cfi_endproc
 2390              	.LFE165:
 2392              		.section	.text.tmr_primary_mode_select,"ax",%progbits
 2393              		.align	1
 2394              		.global	tmr_primary_mode_select
 2395              		.syntax unified
 2396              		.thumb
 2397              		.thumb_func
 2399              	tmr_primary_mode_select:
 2400              	.LVL163:
 2401              	.LFB166:
1204:HW_Lib/AT32F435/drivers/src/at32f435_437_tmr.c **** 
1205:HW_Lib/AT32F435/drivers/src/at32f435_437_tmr.c **** /**
1206:HW_Lib/AT32F435/drivers/src/at32f435_437_tmr.c ****   * @brief  select tmr primary mode
1207:HW_Lib/AT32F435/drivers/src/at32f435_437_tmr.c ****   * @param  tmr_x: select the tmr peripheral.
1208:HW_Lib/AT32F435/drivers/src/at32f435_437_tmr.c ****   *         this parameter can be one of the following values:
1209:HW_Lib/AT32F435/drivers/src/at32f435_437_tmr.c ****   *         TMR1, TMR2, TMR3, TMR4, TMR5, TMR6, TMR7, TMR8, TMR20
1210:HW_Lib/AT32F435/drivers/src/at32f435_437_tmr.c ****   * @param  primary_mode
1211:HW_Lib/AT32F435/drivers/src/at32f435_437_tmr.c ****   *         this parameter can be one of the following values:
1212:HW_Lib/AT32F435/drivers/src/at32f435_437_tmr.c ****   *         - TMR_PRIMARY_SEL_RESET
1213:HW_Lib/AT32F435/drivers/src/at32f435_437_tmr.c ****   *         - TMR_PRIMARY_SEL_ENABLE
1214:HW_Lib/AT32F435/drivers/src/at32f435_437_tmr.c ****   *         - TMR_PRIMARY_SEL_OVERFLOW
1215:HW_Lib/AT32F435/drivers/src/at32f435_437_tmr.c ****   *         - TMR_PRIMARY_SEL_COMPARE
1216:HW_Lib/AT32F435/drivers/src/at32f435_437_tmr.c ****   *         - TMR_PRIMARY_SEL_C1ORAW
1217:HW_Lib/AT32F435/drivers/src/at32f435_437_tmr.c ****   *         - TMR_PRIMARY_SEL_C2ORAW
1218:HW_Lib/AT32F435/drivers/src/at32f435_437_tmr.c ****   *         - TMR_PRIMARY_SEL_C3ORAW
1219:HW_Lib/AT32F435/drivers/src/at32f435_437_tmr.c ****   *         - TMR_PRIMARY_SEL_C4ORAW
1220:HW_Lib/AT32F435/drivers/src/at32f435_437_tmr.c ****   * @retval none
1221:HW_Lib/AT32F435/drivers/src/at32f435_437_tmr.c ****   */
1222:HW_Lib/AT32F435/drivers/src/at32f435_437_tmr.c **** void tmr_primary_mode_select(tmr_type *tmr_x, tmr_primary_select_type primary_mode)
1223:HW_Lib/AT32F435/drivers/src/at32f435_437_tmr.c **** {
 2402              		.loc 1 1223 1 is_stmt 1 view -0
 2403              		.cfi_startproc
ARM GAS  C:\Users\8bit\AppData\Local\Temp\ccwaFnug.s 			page 66


 2404              		@ args = 0, pretend = 0, frame = 0
 2405              		@ frame_needed = 0, uses_anonymous_args = 0
 2406              		@ link register save eliminated.
1224:HW_Lib/AT32F435/drivers/src/at32f435_437_tmr.c ****   tmr_x->ctrl2_bit.ptos = primary_mode;
 2407              		.loc 1 1224 3 view .LVU658
 2408              		.loc 1 1224 25 is_stmt 0 view .LVU659
 2409 0000 4368     		ldr	r3, [r0, #4]
 2410 0002 61F30613 		bfi	r3, r1, #4, #3
 2411 0006 4360     		str	r3, [r0, #4]
1225:HW_Lib/AT32F435/drivers/src/at32f435_437_tmr.c **** }
 2412              		.loc 1 1225 1 view .LVU660
 2413 0008 7047     		bx	lr
 2414              		.cfi_endproc
 2415              	.LFE166:
 2417              		.section	.text.tmr_sub_mode_select,"ax",%progbits
 2418              		.align	1
 2419              		.global	tmr_sub_mode_select
 2420              		.syntax unified
 2421              		.thumb
 2422              		.thumb_func
 2424              	tmr_sub_mode_select:
 2425              	.LVL164:
 2426              	.LFB167:
1226:HW_Lib/AT32F435/drivers/src/at32f435_437_tmr.c **** 
1227:HW_Lib/AT32F435/drivers/src/at32f435_437_tmr.c **** /**
1228:HW_Lib/AT32F435/drivers/src/at32f435_437_tmr.c ****   * @brief  select tmr subordinate mode
1229:HW_Lib/AT32F435/drivers/src/at32f435_437_tmr.c ****   * @param  tmr_x: select the tmr peripheral.
1230:HW_Lib/AT32F435/drivers/src/at32f435_437_tmr.c ****   *         this parameter can be one of the following values:
1231:HW_Lib/AT32F435/drivers/src/at32f435_437_tmr.c ****   *         TMR1, TMR2, TMR3, TMR4, TMR5, TMR8, TMR9, TMR12, TMR20
1232:HW_Lib/AT32F435/drivers/src/at32f435_437_tmr.c ****   * @param  sub_mode
1233:HW_Lib/AT32F435/drivers/src/at32f435_437_tmr.c ****   *         this parameter can be one of the following values:
1234:HW_Lib/AT32F435/drivers/src/at32f435_437_tmr.c ****   *         - TMR_SUB_MODE_DIABLE
1235:HW_Lib/AT32F435/drivers/src/at32f435_437_tmr.c ****   *         - TMR_SUB_ENCODER_MODE_A
1236:HW_Lib/AT32F435/drivers/src/at32f435_437_tmr.c ****   *         - TMR_SUB_ENCODER_MODE_B
1237:HW_Lib/AT32F435/drivers/src/at32f435_437_tmr.c ****   *         - TMR_SUB_ENCODER_MODE_C
1238:HW_Lib/AT32F435/drivers/src/at32f435_437_tmr.c ****   *         - TMR_SUB_RESET_MODE
1239:HW_Lib/AT32F435/drivers/src/at32f435_437_tmr.c ****   *         - TMR_SUB_HANG_MODE
1240:HW_Lib/AT32F435/drivers/src/at32f435_437_tmr.c ****   *         - TMR_SUB_TRIGGER_MODE
1241:HW_Lib/AT32F435/drivers/src/at32f435_437_tmr.c ****   *         - TMR_SUB_EXTERNAL_CLOCK_MODE_A
1242:HW_Lib/AT32F435/drivers/src/at32f435_437_tmr.c **** 
1243:HW_Lib/AT32F435/drivers/src/at32f435_437_tmr.c ****   * @retval none
1244:HW_Lib/AT32F435/drivers/src/at32f435_437_tmr.c ****   */
1245:HW_Lib/AT32F435/drivers/src/at32f435_437_tmr.c **** void tmr_sub_mode_select(tmr_type *tmr_x, tmr_sub_mode_select_type sub_mode)
1246:HW_Lib/AT32F435/drivers/src/at32f435_437_tmr.c **** {
 2427              		.loc 1 1246 1 is_stmt 1 view -0
 2428              		.cfi_startproc
 2429              		@ args = 0, pretend = 0, frame = 0
 2430              		@ frame_needed = 0, uses_anonymous_args = 0
 2431              		@ link register save eliminated.
1247:HW_Lib/AT32F435/drivers/src/at32f435_437_tmr.c ****   tmr_x->stctrl_bit.smsel = sub_mode;
 2432              		.loc 1 1247 3 view .LVU662
 2433              		.loc 1 1247 27 is_stmt 0 view .LVU663
 2434 0000 8368     		ldr	r3, [r0, #8]
 2435 0002 61F30203 		bfi	r3, r1, #0, #3
 2436 0006 8360     		str	r3, [r0, #8]
1248:HW_Lib/AT32F435/drivers/src/at32f435_437_tmr.c **** }
 2437              		.loc 1 1248 1 view .LVU664
ARM GAS  C:\Users\8bit\AppData\Local\Temp\ccwaFnug.s 			page 67


 2438 0008 7047     		bx	lr
 2439              		.cfi_endproc
 2440              	.LFE167:
 2442              		.section	.text.tmr_channel_dma_select,"ax",%progbits
 2443              		.align	1
 2444              		.global	tmr_channel_dma_select
 2445              		.syntax unified
 2446              		.thumb
 2447              		.thumb_func
 2449              	tmr_channel_dma_select:
 2450              	.LVL165:
 2451              	.LFB168:
1249:HW_Lib/AT32F435/drivers/src/at32f435_437_tmr.c **** 
1250:HW_Lib/AT32F435/drivers/src/at32f435_437_tmr.c **** /**
1251:HW_Lib/AT32F435/drivers/src/at32f435_437_tmr.c ****   * @brief  select tmr channel dma
1252:HW_Lib/AT32F435/drivers/src/at32f435_437_tmr.c ****   * @param  tmr_x: select the tmr peripheral.
1253:HW_Lib/AT32F435/drivers/src/at32f435_437_tmr.c ****   *         this parameter can be one of the following values:
1254:HW_Lib/AT32F435/drivers/src/at32f435_437_tmr.c ****   *         TMR1, TMR2, TMR3, TMR4, TMR5, TMR8, TMR9, TMR12, TMR20
1255:HW_Lib/AT32F435/drivers/src/at32f435_437_tmr.c ****   * @param  cc_dma_select
1256:HW_Lib/AT32F435/drivers/src/at32f435_437_tmr.c ****   *         this parameter can be one of the following values:
1257:HW_Lib/AT32F435/drivers/src/at32f435_437_tmr.c ****   *         - TMR_DMA_REQUEST_BY_CHANNEL
1258:HW_Lib/AT32F435/drivers/src/at32f435_437_tmr.c ****   *         - TMR_DMA_REQUEST_BY_OVERFLOW
1259:HW_Lib/AT32F435/drivers/src/at32f435_437_tmr.c ****   * @retval none
1260:HW_Lib/AT32F435/drivers/src/at32f435_437_tmr.c ****   */
1261:HW_Lib/AT32F435/drivers/src/at32f435_437_tmr.c **** void tmr_channel_dma_select(tmr_type *tmr_x, tmr_dma_request_source_type cc_dma_select)
1262:HW_Lib/AT32F435/drivers/src/at32f435_437_tmr.c **** {
 2452              		.loc 1 1262 1 is_stmt 1 view -0
 2453              		.cfi_startproc
 2454              		@ args = 0, pretend = 0, frame = 0
 2455              		@ frame_needed = 0, uses_anonymous_args = 0
 2456              		@ link register save eliminated.
1263:HW_Lib/AT32F435/drivers/src/at32f435_437_tmr.c ****   tmr_x->ctrl2_bit.drs = cc_dma_select;
 2457              		.loc 1 1263 3 view .LVU666
 2458              		.loc 1 1263 24 is_stmt 0 view .LVU667
 2459 0000 4368     		ldr	r3, [r0, #4]
 2460 0002 61F3C303 		bfi	r3, r1, #3, #1
 2461 0006 4360     		str	r3, [r0, #4]
1264:HW_Lib/AT32F435/drivers/src/at32f435_437_tmr.c **** }
 2462              		.loc 1 1264 1 view .LVU668
 2463 0008 7047     		bx	lr
 2464              		.cfi_endproc
 2465              	.LFE168:
 2467              		.section	.text.tmr_hall_select,"ax",%progbits
 2468              		.align	1
 2469              		.global	tmr_hall_select
 2470              		.syntax unified
 2471              		.thumb
 2472              		.thumb_func
 2474              	tmr_hall_select:
 2475              	.LVL166:
 2476              	.LFB169:
1265:HW_Lib/AT32F435/drivers/src/at32f435_437_tmr.c **** 
1266:HW_Lib/AT32F435/drivers/src/at32f435_437_tmr.c **** /**
1267:HW_Lib/AT32F435/drivers/src/at32f435_437_tmr.c ****   * @brief  select tmr hall
1268:HW_Lib/AT32F435/drivers/src/at32f435_437_tmr.c ****   * @param  tmr_x: select the tmr peripheral.
1269:HW_Lib/AT32F435/drivers/src/at32f435_437_tmr.c ****   *         this parameter can be one of the following values:
1270:HW_Lib/AT32F435/drivers/src/at32f435_437_tmr.c ****   *         TMR1, TMR8, TMR20
ARM GAS  C:\Users\8bit\AppData\Local\Temp\ccwaFnug.s 			page 68


1271:HW_Lib/AT32F435/drivers/src/at32f435_437_tmr.c ****   * @param  new_state (TRUE or FALSE)
1272:HW_Lib/AT32F435/drivers/src/at32f435_437_tmr.c ****   * @retval none
1273:HW_Lib/AT32F435/drivers/src/at32f435_437_tmr.c ****   */
1274:HW_Lib/AT32F435/drivers/src/at32f435_437_tmr.c **** void tmr_hall_select(tmr_type *tmr_x,  confirm_state new_state)
1275:HW_Lib/AT32F435/drivers/src/at32f435_437_tmr.c **** {
 2477              		.loc 1 1275 1 is_stmt 1 view -0
 2478              		.cfi_startproc
 2479              		@ args = 0, pretend = 0, frame = 0
 2480              		@ frame_needed = 0, uses_anonymous_args = 0
 2481              		@ link register save eliminated.
1276:HW_Lib/AT32F435/drivers/src/at32f435_437_tmr.c ****   tmr_x->ctrl2_bit.ccfs = new_state;
 2482              		.loc 1 1276 3 view .LVU670
 2483              		.loc 1 1276 25 is_stmt 0 view .LVU671
 2484 0000 4368     		ldr	r3, [r0, #4]
 2485 0002 61F38203 		bfi	r3, r1, #2, #1
 2486 0006 4360     		str	r3, [r0, #4]
1277:HW_Lib/AT32F435/drivers/src/at32f435_437_tmr.c **** }
 2487              		.loc 1 1277 1 view .LVU672
 2488 0008 7047     		bx	lr
 2489              		.cfi_endproc
 2490              	.LFE169:
 2492              		.section	.text.tmr_channel_buffer_enable,"ax",%progbits
 2493              		.align	1
 2494              		.global	tmr_channel_buffer_enable
 2495              		.syntax unified
 2496              		.thumb
 2497              		.thumb_func
 2499              	tmr_channel_buffer_enable:
 2500              	.LVL167:
 2501              	.LFB170:
1278:HW_Lib/AT32F435/drivers/src/at32f435_437_tmr.c **** 
1279:HW_Lib/AT32F435/drivers/src/at32f435_437_tmr.c **** /**
1280:HW_Lib/AT32F435/drivers/src/at32f435_437_tmr.c ****   * @brief  select tmr channel buffer
1281:HW_Lib/AT32F435/drivers/src/at32f435_437_tmr.c ****   * @param  tmr_x: select the tmr peripheral.
1282:HW_Lib/AT32F435/drivers/src/at32f435_437_tmr.c ****   *         this parameter can be one of the following values:
1283:HW_Lib/AT32F435/drivers/src/at32f435_437_tmr.c ****   *         TMR1, TMR8, TMR20
1284:HW_Lib/AT32F435/drivers/src/at32f435_437_tmr.c ****   * @param  new_state (TRUE or FALSE)
1285:HW_Lib/AT32F435/drivers/src/at32f435_437_tmr.c ****   * @retval none
1286:HW_Lib/AT32F435/drivers/src/at32f435_437_tmr.c ****   */
1287:HW_Lib/AT32F435/drivers/src/at32f435_437_tmr.c **** void tmr_channel_buffer_enable(tmr_type *tmr_x, confirm_state new_state)
1288:HW_Lib/AT32F435/drivers/src/at32f435_437_tmr.c **** {
 2502              		.loc 1 1288 1 is_stmt 1 view -0
 2503              		.cfi_startproc
 2504              		@ args = 0, pretend = 0, frame = 0
 2505              		@ frame_needed = 0, uses_anonymous_args = 0
 2506              		@ link register save eliminated.
1289:HW_Lib/AT32F435/drivers/src/at32f435_437_tmr.c ****   tmr_x->ctrl2_bit.cbctrl = new_state;
 2507              		.loc 1 1289 3 view .LVU674
 2508              		.loc 1 1289 27 is_stmt 0 view .LVU675
 2509 0000 4368     		ldr	r3, [r0, #4]
 2510 0002 61F30003 		bfi	r3, r1, #0, #1
 2511 0006 4360     		str	r3, [r0, #4]
1290:HW_Lib/AT32F435/drivers/src/at32f435_437_tmr.c **** }
 2512              		.loc 1 1290 1 view .LVU676
 2513 0008 7047     		bx	lr
 2514              		.cfi_endproc
 2515              	.LFE170:
ARM GAS  C:\Users\8bit\AppData\Local\Temp\ccwaFnug.s 			page 69


 2517              		.section	.text.tmr_trgout2_enable,"ax",%progbits
 2518              		.align	1
 2519              		.global	tmr_trgout2_enable
 2520              		.syntax unified
 2521              		.thumb
 2522              		.thumb_func
 2524              	tmr_trgout2_enable:
 2525              	.LVL168:
 2526              	.LFB171:
1291:HW_Lib/AT32F435/drivers/src/at32f435_437_tmr.c **** 
1292:HW_Lib/AT32F435/drivers/src/at32f435_437_tmr.c **** /**
1293:HW_Lib/AT32F435/drivers/src/at32f435_437_tmr.c ****   * @brief  select tmr trgout2
1294:HW_Lib/AT32F435/drivers/src/at32f435_437_tmr.c ****   * @param  tmr_x: select the tmr peripheral.
1295:HW_Lib/AT32F435/drivers/src/at32f435_437_tmr.c ****   *         this parameter can be one of the following values:
1296:HW_Lib/AT32F435/drivers/src/at32f435_437_tmr.c ****   *         TMR1, TMR8, TMR20
1297:HW_Lib/AT32F435/drivers/src/at32f435_437_tmr.c ****   * @param  new_state (TRUE or FALSE)
1298:HW_Lib/AT32F435/drivers/src/at32f435_437_tmr.c ****   * @retval none
1299:HW_Lib/AT32F435/drivers/src/at32f435_437_tmr.c ****   */
1300:HW_Lib/AT32F435/drivers/src/at32f435_437_tmr.c **** void tmr_trgout2_enable(tmr_type *tmr_x, confirm_state new_state)
1301:HW_Lib/AT32F435/drivers/src/at32f435_437_tmr.c **** {
 2527              		.loc 1 1301 1 is_stmt 1 view -0
 2528              		.cfi_startproc
 2529              		@ args = 0, pretend = 0, frame = 0
 2530              		@ frame_needed = 0, uses_anonymous_args = 0
 2531              		@ link register save eliminated.
1302:HW_Lib/AT32F435/drivers/src/at32f435_437_tmr.c ****   tmr_x->ctrl2_bit.trgout2en = new_state;
 2532              		.loc 1 1302 3 view .LVU678
 2533              		.loc 1 1302 30 is_stmt 0 view .LVU679
 2534 0000 4368     		ldr	r3, [r0, #4]
 2535 0002 61F3DF73 		bfi	r3, r1, #31, #1
 2536 0006 4360     		str	r3, [r0, #4]
1303:HW_Lib/AT32F435/drivers/src/at32f435_437_tmr.c **** }
 2537              		.loc 1 1303 1 view .LVU680
 2538 0008 7047     		bx	lr
 2539              		.cfi_endproc
 2540              	.LFE171:
 2542              		.section	.text.tmr_trigger_input_select,"ax",%progbits
 2543              		.align	1
 2544              		.global	tmr_trigger_input_select
 2545              		.syntax unified
 2546              		.thumb
 2547              		.thumb_func
 2549              	tmr_trigger_input_select:
 2550              	.LVL169:
 2551              	.LFB172:
1304:HW_Lib/AT32F435/drivers/src/at32f435_437_tmr.c **** 
1305:HW_Lib/AT32F435/drivers/src/at32f435_437_tmr.c **** /**
1306:HW_Lib/AT32F435/drivers/src/at32f435_437_tmr.c ****   * @brief  select tmr sub-trigger
1307:HW_Lib/AT32F435/drivers/src/at32f435_437_tmr.c ****   * @param  tmr_x: select the tmr peripheral.
1308:HW_Lib/AT32F435/drivers/src/at32f435_437_tmr.c ****   *         this parameter can be one of the following values:
1309:HW_Lib/AT32F435/drivers/src/at32f435_437_tmr.c ****   *         TMR1, TMR2, TMR3, TMR4, TMR5, TMR8, TMR9, TMR12, TMR20
1310:HW_Lib/AT32F435/drivers/src/at32f435_437_tmr.c ****   * @param  trigger_select
1311:HW_Lib/AT32F435/drivers/src/at32f435_437_tmr.c ****   *         this parameter can be one of the following values:
1312:HW_Lib/AT32F435/drivers/src/at32f435_437_tmr.c ****   *         - TMR_SUB_INPUT_SEL_IS0
1313:HW_Lib/AT32F435/drivers/src/at32f435_437_tmr.c ****   *         - TMR_SUB_INPUT_SEL_IS1
1314:HW_Lib/AT32F435/drivers/src/at32f435_437_tmr.c ****   *         - TMR_SUB_INPUT_SEL_IS2
1315:HW_Lib/AT32F435/drivers/src/at32f435_437_tmr.c ****   *         - TMR_SUB_INPUT_SEL_IS3
ARM GAS  C:\Users\8bit\AppData\Local\Temp\ccwaFnug.s 			page 70


1316:HW_Lib/AT32F435/drivers/src/at32f435_437_tmr.c ****   *         - TMR_SUB_INPUT_SEL_C1INC
1317:HW_Lib/AT32F435/drivers/src/at32f435_437_tmr.c ****   *         - TMR_SUB_INPUT_SEL_C1DF1
1318:HW_Lib/AT32F435/drivers/src/at32f435_437_tmr.c ****   *         - TMR_SUB_INPUT_SEL_C2DF2
1319:HW_Lib/AT32F435/drivers/src/at32f435_437_tmr.c ****   *         - TMR_SUB_INPUT_SEL_EXTIN
1320:HW_Lib/AT32F435/drivers/src/at32f435_437_tmr.c ****   * @retval none
1321:HW_Lib/AT32F435/drivers/src/at32f435_437_tmr.c ****   */
1322:HW_Lib/AT32F435/drivers/src/at32f435_437_tmr.c **** void tmr_trigger_input_select(tmr_type *tmr_x, sub_tmr_input_sel_type trigger_select)
1323:HW_Lib/AT32F435/drivers/src/at32f435_437_tmr.c **** {
 2552              		.loc 1 1323 1 is_stmt 1 view -0
 2553              		.cfi_startproc
 2554              		@ args = 0, pretend = 0, frame = 0
 2555              		@ frame_needed = 0, uses_anonymous_args = 0
 2556              		@ link register save eliminated.
1324:HW_Lib/AT32F435/drivers/src/at32f435_437_tmr.c ****   tmr_x->stctrl_bit.stis = trigger_select;
 2557              		.loc 1 1324 3 view .LVU682
 2558              		.loc 1 1324 26 is_stmt 0 view .LVU683
 2559 0000 8368     		ldr	r3, [r0, #8]
 2560 0002 61F30613 		bfi	r3, r1, #4, #3
 2561 0006 8360     		str	r3, [r0, #8]
1325:HW_Lib/AT32F435/drivers/src/at32f435_437_tmr.c **** }
 2562              		.loc 1 1325 1 view .LVU684
 2563 0008 7047     		bx	lr
 2564              		.cfi_endproc
 2565              	.LFE172:
 2567              		.section	.text.tmr_sub_sync_mode_set,"ax",%progbits
 2568              		.align	1
 2569              		.global	tmr_sub_sync_mode_set
 2570              		.syntax unified
 2571              		.thumb
 2572              		.thumb_func
 2574              	tmr_sub_sync_mode_set:
 2575              	.LVL170:
 2576              	.LFB173:
1326:HW_Lib/AT32F435/drivers/src/at32f435_437_tmr.c **** 
1327:HW_Lib/AT32F435/drivers/src/at32f435_437_tmr.c **** /**
1328:HW_Lib/AT32F435/drivers/src/at32f435_437_tmr.c ****   * @brief  set tmr subordinate synchronization mode
1329:HW_Lib/AT32F435/drivers/src/at32f435_437_tmr.c ****   * @param  tmr_x: select the tmr peripheral.
1330:HW_Lib/AT32F435/drivers/src/at32f435_437_tmr.c ****   *         this parameter can be one of the following values:
1331:HW_Lib/AT32F435/drivers/src/at32f435_437_tmr.c ****   *         TMR1, TMR2, TMR3, TMR4, TMR5, TMR8, TMR9, TMR12, TMR20
1332:HW_Lib/AT32F435/drivers/src/at32f435_437_tmr.c ****   * @param  new_state (TRUE or FALSE)
1333:HW_Lib/AT32F435/drivers/src/at32f435_437_tmr.c ****   * @retval none
1334:HW_Lib/AT32F435/drivers/src/at32f435_437_tmr.c ****   */
1335:HW_Lib/AT32F435/drivers/src/at32f435_437_tmr.c **** void tmr_sub_sync_mode_set(tmr_type *tmr_x, confirm_state new_state)
1336:HW_Lib/AT32F435/drivers/src/at32f435_437_tmr.c **** {
 2577              		.loc 1 1336 1 is_stmt 1 view -0
 2578              		.cfi_startproc
 2579              		@ args = 0, pretend = 0, frame = 0
 2580              		@ frame_needed = 0, uses_anonymous_args = 0
 2581              		@ link register save eliminated.
1337:HW_Lib/AT32F435/drivers/src/at32f435_437_tmr.c ****   tmr_x->stctrl_bit.sts = new_state;
 2582              		.loc 1 1337 3 view .LVU686
 2583              		.loc 1 1337 25 is_stmt 0 view .LVU687
 2584 0000 8368     		ldr	r3, [r0, #8]
 2585 0002 61F3C713 		bfi	r3, r1, #7, #1
 2586 0006 8360     		str	r3, [r0, #8]
1338:HW_Lib/AT32F435/drivers/src/at32f435_437_tmr.c **** }
 2587              		.loc 1 1338 1 view .LVU688
ARM GAS  C:\Users\8bit\AppData\Local\Temp\ccwaFnug.s 			page 71


 2588 0008 7047     		bx	lr
 2589              		.cfi_endproc
 2590              	.LFE173:
 2592              		.section	.text.tmr_dma_request_enable,"ax",%progbits
 2593              		.align	1
 2594              		.global	tmr_dma_request_enable
 2595              		.syntax unified
 2596              		.thumb
 2597              		.thumb_func
 2599              	tmr_dma_request_enable:
 2600              	.LVL171:
 2601              	.LFB174:
1339:HW_Lib/AT32F435/drivers/src/at32f435_437_tmr.c **** 
1340:HW_Lib/AT32F435/drivers/src/at32f435_437_tmr.c **** /**
1341:HW_Lib/AT32F435/drivers/src/at32f435_437_tmr.c ****   * @brief  enable or disable tmr dma request
1342:HW_Lib/AT32F435/drivers/src/at32f435_437_tmr.c ****   * @param  tmr_x: select the tmr peripheral.
1343:HW_Lib/AT32F435/drivers/src/at32f435_437_tmr.c ****   *         this parameter can be one of the following values:
1344:HW_Lib/AT32F435/drivers/src/at32f435_437_tmr.c ****   *         TMR1, TMR2, TMR3, TMR4, TMR5, TMR6, TMR7, TMR8,
1345:HW_Lib/AT32F435/drivers/src/at32f435_437_tmr.c ****   *         TMR9, TMR10, TMR11, TMR12, TMR13, TMR14, TMR20
1346:HW_Lib/AT32F435/drivers/src/at32f435_437_tmr.c ****   * @param  dma_request
1347:HW_Lib/AT32F435/drivers/src/at32f435_437_tmr.c ****   *         this parameter can be one of the following values:
1348:HW_Lib/AT32F435/drivers/src/at32f435_437_tmr.c ****   *         - TMR_OVERFLOW_DMA_REQUEST
1349:HW_Lib/AT32F435/drivers/src/at32f435_437_tmr.c ****   *         - TMR_C1_DMA_REQUEST
1350:HW_Lib/AT32F435/drivers/src/at32f435_437_tmr.c ****   *         - TMR_C2_DMA_REQUEST
1351:HW_Lib/AT32F435/drivers/src/at32f435_437_tmr.c ****   *         - TMR_C3_DMA_REQUEST
1352:HW_Lib/AT32F435/drivers/src/at32f435_437_tmr.c ****   *         - TMR_C4_DMA_REQUEST
1353:HW_Lib/AT32F435/drivers/src/at32f435_437_tmr.c ****   *         - TMR_HALL_DMA_REQUEST
1354:HW_Lib/AT32F435/drivers/src/at32f435_437_tmr.c ****   *         - TMR_TRIGGER_DMA_REQUEST
1355:HW_Lib/AT32F435/drivers/src/at32f435_437_tmr.c ****   * @param  new_state (TRUE or FALSE)
1356:HW_Lib/AT32F435/drivers/src/at32f435_437_tmr.c ****   * @retval none
1357:HW_Lib/AT32F435/drivers/src/at32f435_437_tmr.c ****   */
1358:HW_Lib/AT32F435/drivers/src/at32f435_437_tmr.c **** void tmr_dma_request_enable(tmr_type *tmr_x, tmr_dma_request_type dma_request, confirm_state new_st
1359:HW_Lib/AT32F435/drivers/src/at32f435_437_tmr.c **** {
 2602              		.loc 1 1359 1 is_stmt 1 view -0
 2603              		.cfi_startproc
 2604              		@ args = 0, pretend = 0, frame = 0
 2605              		@ frame_needed = 0, uses_anonymous_args = 0
 2606              		@ link register save eliminated.
1360:HW_Lib/AT32F435/drivers/src/at32f435_437_tmr.c ****   if(new_state == TRUE)
 2607              		.loc 1 1360 3 view .LVU690
 2608              		.loc 1 1360 5 is_stmt 0 view .LVU691
 2609 0000 012A     		cmp	r2, #1
 2610 0002 05D0     		beq	.L175
1361:HW_Lib/AT32F435/drivers/src/at32f435_437_tmr.c ****   {
1362:HW_Lib/AT32F435/drivers/src/at32f435_437_tmr.c ****     tmr_x->iden |= dma_request;
1363:HW_Lib/AT32F435/drivers/src/at32f435_437_tmr.c ****   }
1364:HW_Lib/AT32F435/drivers/src/at32f435_437_tmr.c ****   else if(new_state == FALSE)
 2611              		.loc 1 1364 8 is_stmt 1 view .LVU692
 2612              		.loc 1 1364 10 is_stmt 0 view .LVU693
 2613 0004 1AB9     		cbnz	r2, .L172
1365:HW_Lib/AT32F435/drivers/src/at32f435_437_tmr.c ****   {
1366:HW_Lib/AT32F435/drivers/src/at32f435_437_tmr.c ****     tmr_x->iden &= ~dma_request;
 2614              		.loc 1 1366 5 is_stmt 1 view .LVU694
 2615              		.loc 1 1366 17 is_stmt 0 view .LVU695
 2616 0006 C368     		ldr	r3, [r0, #12]
 2617 0008 23EA0101 		bic	r1, r3, r1
 2618              	.LVL172:
ARM GAS  C:\Users\8bit\AppData\Local\Temp\ccwaFnug.s 			page 72


 2619              		.loc 1 1366 17 view .LVU696
 2620 000c C160     		str	r1, [r0, #12]
 2621              	.L172:
1367:HW_Lib/AT32F435/drivers/src/at32f435_437_tmr.c ****   }
1368:HW_Lib/AT32F435/drivers/src/at32f435_437_tmr.c **** }
 2622              		.loc 1 1368 1 view .LVU697
 2623 000e 7047     		bx	lr
 2624              	.LVL173:
 2625              	.L175:
1362:HW_Lib/AT32F435/drivers/src/at32f435_437_tmr.c ****   }
 2626              		.loc 1 1362 5 is_stmt 1 view .LVU698
1362:HW_Lib/AT32F435/drivers/src/at32f435_437_tmr.c ****   }
 2627              		.loc 1 1362 17 is_stmt 0 view .LVU699
 2628 0010 C368     		ldr	r3, [r0, #12]
 2629 0012 1943     		orrs	r1, r1, r3
 2630              	.LVL174:
1362:HW_Lib/AT32F435/drivers/src/at32f435_437_tmr.c ****   }
 2631              		.loc 1 1362 17 view .LVU700
 2632 0014 C160     		str	r1, [r0, #12]
 2633 0016 7047     		bx	lr
 2634              		.cfi_endproc
 2635              	.LFE174:
 2637              		.section	.text.tmr_interrupt_enable,"ax",%progbits
 2638              		.align	1
 2639              		.global	tmr_interrupt_enable
 2640              		.syntax unified
 2641              		.thumb
 2642              		.thumb_func
 2644              	tmr_interrupt_enable:
 2645              	.LVL175:
 2646              	.LFB175:
1369:HW_Lib/AT32F435/drivers/src/at32f435_437_tmr.c **** 
1370:HW_Lib/AT32F435/drivers/src/at32f435_437_tmr.c **** /**
1371:HW_Lib/AT32F435/drivers/src/at32f435_437_tmr.c ****   * @brief  enable or disable tmr interrupt
1372:HW_Lib/AT32F435/drivers/src/at32f435_437_tmr.c ****   * @param  tmr_x: select the tmr peripheral.
1373:HW_Lib/AT32F435/drivers/src/at32f435_437_tmr.c ****   *         this parameter can be one of the following values:
1374:HW_Lib/AT32F435/drivers/src/at32f435_437_tmr.c ****   *         TMR1, TMR2, TMR3, TMR4, TMR5, TMR6, TMR7, TMR8,
1375:HW_Lib/AT32F435/drivers/src/at32f435_437_tmr.c ****   *         TMR9, TMR10, TMR11, TMR12, TMR13, TMR14, TMR20
1376:HW_Lib/AT32F435/drivers/src/at32f435_437_tmr.c ****   * @param  tmr_interrupt
1377:HW_Lib/AT32F435/drivers/src/at32f435_437_tmr.c ****   *         this parameter can be one of the following values:
1378:HW_Lib/AT32F435/drivers/src/at32f435_437_tmr.c ****   *         - TMR_OVF_INT
1379:HW_Lib/AT32F435/drivers/src/at32f435_437_tmr.c ****   *         - TMR_C1_INT
1380:HW_Lib/AT32F435/drivers/src/at32f435_437_tmr.c ****   *         - TMR_C2_INT
1381:HW_Lib/AT32F435/drivers/src/at32f435_437_tmr.c ****   *         - TMR_C3_INT
1382:HW_Lib/AT32F435/drivers/src/at32f435_437_tmr.c ****   *         - TMR_C4_INT
1383:HW_Lib/AT32F435/drivers/src/at32f435_437_tmr.c ****   *         - TMR_HALL_INT
1384:HW_Lib/AT32F435/drivers/src/at32f435_437_tmr.c ****   *         - TMR_TRIGGER_INT
1385:HW_Lib/AT32F435/drivers/src/at32f435_437_tmr.c ****   *         - TMR_BRK_INT
1386:HW_Lib/AT32F435/drivers/src/at32f435_437_tmr.c ****   * @param  new_state (TRUE or FALSE)
1387:HW_Lib/AT32F435/drivers/src/at32f435_437_tmr.c ****   * @retval none
1388:HW_Lib/AT32F435/drivers/src/at32f435_437_tmr.c ****   */
1389:HW_Lib/AT32F435/drivers/src/at32f435_437_tmr.c **** void tmr_interrupt_enable(tmr_type *tmr_x, uint32_t tmr_interrupt, confirm_state new_state)
1390:HW_Lib/AT32F435/drivers/src/at32f435_437_tmr.c **** {
 2647              		.loc 1 1390 1 is_stmt 1 view -0
 2648              		.cfi_startproc
 2649              		@ args = 0, pretend = 0, frame = 0
 2650              		@ frame_needed = 0, uses_anonymous_args = 0
ARM GAS  C:\Users\8bit\AppData\Local\Temp\ccwaFnug.s 			page 73


 2651              		@ link register save eliminated.
1391:HW_Lib/AT32F435/drivers/src/at32f435_437_tmr.c ****   if(new_state == TRUE)
 2652              		.loc 1 1391 3 view .LVU702
 2653              		.loc 1 1391 5 is_stmt 0 view .LVU703
 2654 0000 012A     		cmp	r2, #1
 2655 0002 05D0     		beq	.L179
1392:HW_Lib/AT32F435/drivers/src/at32f435_437_tmr.c ****   {
1393:HW_Lib/AT32F435/drivers/src/at32f435_437_tmr.c ****     tmr_x->iden |= tmr_interrupt;
1394:HW_Lib/AT32F435/drivers/src/at32f435_437_tmr.c ****   }
1395:HW_Lib/AT32F435/drivers/src/at32f435_437_tmr.c ****   else if(new_state == FALSE)
 2656              		.loc 1 1395 8 is_stmt 1 view .LVU704
 2657              		.loc 1 1395 10 is_stmt 0 view .LVU705
 2658 0004 1AB9     		cbnz	r2, .L176
1396:HW_Lib/AT32F435/drivers/src/at32f435_437_tmr.c ****   {
1397:HW_Lib/AT32F435/drivers/src/at32f435_437_tmr.c ****     tmr_x->iden &= ~tmr_interrupt;
 2659              		.loc 1 1397 5 is_stmt 1 view .LVU706
 2660              		.loc 1 1397 17 is_stmt 0 view .LVU707
 2661 0006 C368     		ldr	r3, [r0, #12]
