ARM GAS  C:\Users\8bit\AppData\Local\Temp\cc28Qo3v.s 			page 1


   1              		.cpu cortex-m4
   2              		.arch armv7e-m
   3              		.fpu fpv4-sp-d16
   4              		.eabi_attribute 27, 1
   5              		.eabi_attribute 28, 1
   6              		.eabi_attribute 20, 1
   7              		.eabi_attribute 21, 1
   8              		.eabi_attribute 23, 3
   9              		.eabi_attribute 24, 1
  10              		.eabi_attribute 25, 1
  11              		.eabi_attribute 26, 1
  12              		.eabi_attribute 30, 1
  13              		.eabi_attribute 34, 1
  14              		.eabi_attribute 18, 4
  15              		.file	"at32f435_437_spi.c"
  16              		.text
  17              	.Ltext0:
  18              		.cfi_sections	.debug_frame
  19              		.section	.text.spi_i2s_reset,"ax",%progbits
  20              		.align	1
  21              		.global	spi_i2s_reset
  22              		.syntax unified
  23              		.thumb
  24              		.thumb_func
  26              	spi_i2s_reset:
  27              	.LVL0:
  28              	.LFB133:
  29              		.file 1 "HW_Lib/AT32F435/drivers/src/at32f435_437_spi.c"
   1:HW_Lib/AT32F435/drivers/src/at32f435_437_spi.c **** /**
   2:HW_Lib/AT32F435/drivers/src/at32f435_437_spi.c ****   **************************************************************************
   3:HW_Lib/AT32F435/drivers/src/at32f435_437_spi.c ****   * @file     at32f435_437_spi.c
   4:HW_Lib/AT32F435/drivers/src/at32f435_437_spi.c ****   * @version  v2.1.0
   5:HW_Lib/AT32F435/drivers/src/at32f435_437_spi.c ****   * @date     2022-08-16
   6:HW_Lib/AT32F435/drivers/src/at32f435_437_spi.c ****   * @brief    contains all the functions for the spi firmware library
   7:HW_Lib/AT32F435/drivers/src/at32f435_437_spi.c ****   **************************************************************************
   8:HW_Lib/AT32F435/drivers/src/at32f435_437_spi.c ****   *                       Copyright notice & Disclaimer
   9:HW_Lib/AT32F435/drivers/src/at32f435_437_spi.c ****   *
  10:HW_Lib/AT32F435/drivers/src/at32f435_437_spi.c ****   * The software Board Support Package (BSP) that is made available to
  11:HW_Lib/AT32F435/drivers/src/at32f435_437_spi.c ****   * download from Artery official website is the copyrighted work of Artery.
  12:HW_Lib/AT32F435/drivers/src/at32f435_437_spi.c ****   * Artery authorizes customers to use, copy, and distribute the BSP
  13:HW_Lib/AT32F435/drivers/src/at32f435_437_spi.c ****   * software and its related documentation for the purpose of design and
  14:HW_Lib/AT32F435/drivers/src/at32f435_437_spi.c ****   * development in conjunction with Artery microcontrollers. Use of the
  15:HW_Lib/AT32F435/drivers/src/at32f435_437_spi.c ****   * software is governed by this copyright notice and the following disclaimer.
  16:HW_Lib/AT32F435/drivers/src/at32f435_437_spi.c ****   *
  17:HW_Lib/AT32F435/drivers/src/at32f435_437_spi.c ****   * THIS SOFTWARE IS PROVIDED ON "AS IS" BASIS WITHOUT WARRANTIES,
  18:HW_Lib/AT32F435/drivers/src/at32f435_437_spi.c ****   * GUARANTEES OR REPRESENTATIONS OF ANY KIND. ARTERY EXPRESSLY DISCLAIMS,
  19:HW_Lib/AT32F435/drivers/src/at32f435_437_spi.c ****   * TO THE FULLEST EXTENT PERMITTED BY LAW, ALL EXPRESS, IMPLIED OR
  20:HW_Lib/AT32F435/drivers/src/at32f435_437_spi.c ****   * STATUTORY OR OTHER WARRANTIES, GUARANTEES OR REPRESENTATIONS,
  21:HW_Lib/AT32F435/drivers/src/at32f435_437_spi.c ****   * INCLUDING BUT NOT LIMITED TO, THE IMPLIED WARRANTIES OF MERCHANTABILITY,
  22:HW_Lib/AT32F435/drivers/src/at32f435_437_spi.c ****   * FITNESS FOR A PARTICULAR PURPOSE, OR NON-INFRINGEMENT.
  23:HW_Lib/AT32F435/drivers/src/at32f435_437_spi.c ****   *
  24:HW_Lib/AT32F435/drivers/src/at32f435_437_spi.c ****   **************************************************************************
  25:HW_Lib/AT32F435/drivers/src/at32f435_437_spi.c ****   */
  26:HW_Lib/AT32F435/drivers/src/at32f435_437_spi.c **** 
  27:HW_Lib/AT32F435/drivers/src/at32f435_437_spi.c **** #include "at32f435_437_conf.h"
  28:HW_Lib/AT32F435/drivers/src/at32f435_437_spi.c **** 
  29:HW_Lib/AT32F435/drivers/src/at32f435_437_spi.c **** /** @addtogroup AT32F435_437_periph_driver
ARM GAS  C:\Users\8bit\AppData\Local\Temp\cc28Qo3v.s 			page 2


  30:HW_Lib/AT32F435/drivers/src/at32f435_437_spi.c ****   * @{
  31:HW_Lib/AT32F435/drivers/src/at32f435_437_spi.c ****   */
  32:HW_Lib/AT32F435/drivers/src/at32f435_437_spi.c **** 
  33:HW_Lib/AT32F435/drivers/src/at32f435_437_spi.c **** /** @defgroup SPI
  34:HW_Lib/AT32F435/drivers/src/at32f435_437_spi.c ****   * @brief SPI driver modules
  35:HW_Lib/AT32F435/drivers/src/at32f435_437_spi.c ****   * @{
  36:HW_Lib/AT32F435/drivers/src/at32f435_437_spi.c ****   */
  37:HW_Lib/AT32F435/drivers/src/at32f435_437_spi.c **** 
  38:HW_Lib/AT32F435/drivers/src/at32f435_437_spi.c **** #ifdef SPI_MODULE_ENABLED
  39:HW_Lib/AT32F435/drivers/src/at32f435_437_spi.c **** 
  40:HW_Lib/AT32F435/drivers/src/at32f435_437_spi.c **** /** @defgroup SPI_private_functions
  41:HW_Lib/AT32F435/drivers/src/at32f435_437_spi.c ****   * @{
  42:HW_Lib/AT32F435/drivers/src/at32f435_437_spi.c ****   */
  43:HW_Lib/AT32F435/drivers/src/at32f435_437_spi.c **** 
  44:HW_Lib/AT32F435/drivers/src/at32f435_437_spi.c **** /**
  45:HW_Lib/AT32F435/drivers/src/at32f435_437_spi.c ****   * @brief  spi reset by crm reset register
  46:HW_Lib/AT32F435/drivers/src/at32f435_437_spi.c ****   * @param  spi_x: select the spi peripheral.
  47:HW_Lib/AT32F435/drivers/src/at32f435_437_spi.c ****   *         this parameter can be one of the following values:
  48:HW_Lib/AT32F435/drivers/src/at32f435_437_spi.c ****   *         SPI1, SPI2, SPI3 ,SPI4
  49:HW_Lib/AT32F435/drivers/src/at32f435_437_spi.c ****   * @retval none
  50:HW_Lib/AT32F435/drivers/src/at32f435_437_spi.c ****   */
  51:HW_Lib/AT32F435/drivers/src/at32f435_437_spi.c **** void spi_i2s_reset(spi_type *spi_x)
  52:HW_Lib/AT32F435/drivers/src/at32f435_437_spi.c **** {
  30              		.loc 1 52 1 view -0
  31              		.cfi_startproc
  32              		@ args = 0, pretend = 0, frame = 0
  33              		@ frame_needed = 0, uses_anonymous_args = 0
  34              		.loc 1 52 1 is_stmt 0 view .LVU1
  35 0000 10B5     		push	{r4, lr}
  36              	.LCFI0:
  37              		.cfi_def_cfa_offset 8
  38              		.cfi_offset 4, -8
  39              		.cfi_offset 14, -4
  53:HW_Lib/AT32F435/drivers/src/at32f435_437_spi.c ****   if(spi_x == SPI1)
  40              		.loc 1 53 3 is_stmt 1 view .LVU2
  41              		.loc 1 53 5 is_stmt 0 view .LVU3
  42 0002 1A4B     		ldr	r3, .L11
  43 0004 9842     		cmp	r0, r3
  44 0006 09D0     		beq	.L7
  54:HW_Lib/AT32F435/drivers/src/at32f435_437_spi.c ****   {
  55:HW_Lib/AT32F435/drivers/src/at32f435_437_spi.c ****     crm_periph_reset(CRM_SPI1_PERIPH_RESET, TRUE);
  56:HW_Lib/AT32F435/drivers/src/at32f435_437_spi.c ****     crm_periph_reset(CRM_SPI1_PERIPH_RESET, FALSE);
  57:HW_Lib/AT32F435/drivers/src/at32f435_437_spi.c ****   }
  58:HW_Lib/AT32F435/drivers/src/at32f435_437_spi.c ****   else if(spi_x == SPI2)
  45              		.loc 1 58 8 is_stmt 1 view .LVU4
  46              		.loc 1 58 10 is_stmt 0 view .LVU5
  47 0008 194B     		ldr	r3, .L11+4
  48 000a 9842     		cmp	r0, r3
  49 000c 10D0     		beq	.L8
  59:HW_Lib/AT32F435/drivers/src/at32f435_437_spi.c ****   {
  60:HW_Lib/AT32F435/drivers/src/at32f435_437_spi.c ****     crm_periph_reset(CRM_SPI2_PERIPH_RESET, TRUE);
  61:HW_Lib/AT32F435/drivers/src/at32f435_437_spi.c ****     crm_periph_reset(CRM_SPI2_PERIPH_RESET, FALSE);
  62:HW_Lib/AT32F435/drivers/src/at32f435_437_spi.c ****   }
  63:HW_Lib/AT32F435/drivers/src/at32f435_437_spi.c ****   else if(spi_x == SPI3)
  50              		.loc 1 63 8 is_stmt 1 view .LVU6
  51              		.loc 1 63 10 is_stmt 0 view .LVU7
  52 000e 194B     		ldr	r3, .L11+8
ARM GAS  C:\Users\8bit\AppData\Local\Temp\cc28Qo3v.s 			page 3


  53 0010 9842     		cmp	r0, r3
  54 0012 17D0     		beq	.L9
  64:HW_Lib/AT32F435/drivers/src/at32f435_437_spi.c ****   {
  65:HW_Lib/AT32F435/drivers/src/at32f435_437_spi.c ****     crm_periph_reset(CRM_SPI3_PERIPH_RESET, TRUE);
  66:HW_Lib/AT32F435/drivers/src/at32f435_437_spi.c ****     crm_periph_reset(CRM_SPI3_PERIPH_RESET, FALSE);
  67:HW_Lib/AT32F435/drivers/src/at32f435_437_spi.c ****   }
  68:HW_Lib/AT32F435/drivers/src/at32f435_437_spi.c ****   else if(spi_x == SPI4)
  55              		.loc 1 68 8 is_stmt 1 view .LVU8
  56              		.loc 1 68 10 is_stmt 0 view .LVU9
  57 0014 184B     		ldr	r3, .L11+12
  58 0016 9842     		cmp	r0, r3
  59 0018 1ED0     		beq	.L10
  60              	.LVL1:
  61              	.L1:
  69:HW_Lib/AT32F435/drivers/src/at32f435_437_spi.c ****   {
  70:HW_Lib/AT32F435/drivers/src/at32f435_437_spi.c ****     crm_periph_reset(CRM_SPI4_PERIPH_RESET, TRUE);
  71:HW_Lib/AT32F435/drivers/src/at32f435_437_spi.c ****     crm_periph_reset(CRM_SPI4_PERIPH_RESET, FALSE);
  72:HW_Lib/AT32F435/drivers/src/at32f435_437_spi.c ****   }
  73:HW_Lib/AT32F435/drivers/src/at32f435_437_spi.c **** }
  62              		.loc 1 73 1 view .LVU10
  63 001a 10BD     		pop	{r4, pc}
  64              	.LVL2:
  65              	.L7:
  55:HW_Lib/AT32F435/drivers/src/at32f435_437_spi.c ****     crm_periph_reset(CRM_SPI1_PERIPH_RESET, FALSE);
  66              		.loc 1 55 5 is_stmt 1 view .LVU11
  67 001c 174C     		ldr	r4, .L11+16
  68 001e 0121     		movs	r1, #1
  69 0020 2046     		mov	r0, r4
  70              	.LVL3:
  55:HW_Lib/AT32F435/drivers/src/at32f435_437_spi.c ****     crm_periph_reset(CRM_SPI1_PERIPH_RESET, FALSE);
  71              		.loc 1 55 5 is_stmt 0 view .LVU12
  72 0022 FFF7FEFF 		bl	crm_periph_reset
  73              	.LVL4:
  56:HW_Lib/AT32F435/drivers/src/at32f435_437_spi.c ****   }
  74              		.loc 1 56 5 is_stmt 1 view .LVU13
  75 0026 0021     		movs	r1, #0
  76 0028 2046     		mov	r0, r4
  77 002a FFF7FEFF 		bl	crm_periph_reset
  78              	.LVL5:
  79 002e F4E7     		b	.L1
  80              	.LVL6:
  81              	.L8:
  60:HW_Lib/AT32F435/drivers/src/at32f435_437_spi.c ****     crm_periph_reset(CRM_SPI2_PERIPH_RESET, FALSE);
  82              		.loc 1 60 5 view .LVU14
  83 0030 134C     		ldr	r4, .L11+20
  84 0032 0121     		movs	r1, #1
  85 0034 2046     		mov	r0, r4
  86              	.LVL7:
  60:HW_Lib/AT32F435/drivers/src/at32f435_437_spi.c ****     crm_periph_reset(CRM_SPI2_PERIPH_RESET, FALSE);
  87              		.loc 1 60 5 is_stmt 0 view .LVU15
  88 0036 FFF7FEFF 		bl	crm_periph_reset
  89              	.LVL8:
  61:HW_Lib/AT32F435/drivers/src/at32f435_437_spi.c ****   }
  90              		.loc 1 61 5 is_stmt 1 view .LVU16
  91 003a 0021     		movs	r1, #0
  92 003c 2046     		mov	r0, r4
  93 003e FFF7FEFF 		bl	crm_periph_reset
ARM GAS  C:\Users\8bit\AppData\Local\Temp\cc28Qo3v.s 			page 4


  94              	.LVL9:
  95 0042 EAE7     		b	.L1
  96              	.LVL10:
  97              	.L9:
  65:HW_Lib/AT32F435/drivers/src/at32f435_437_spi.c ****     crm_periph_reset(CRM_SPI3_PERIPH_RESET, FALSE);
  98              		.loc 1 65 5 view .LVU17
  99 0044 0F4C     		ldr	r4, .L11+24
 100 0046 0121     		movs	r1, #1
 101 0048 2046     		mov	r0, r4
 102              	.LVL11:
  65:HW_Lib/AT32F435/drivers/src/at32f435_437_spi.c ****     crm_periph_reset(CRM_SPI3_PERIPH_RESET, FALSE);
 103              		.loc 1 65 5 is_stmt 0 view .LVU18
 104 004a FFF7FEFF 		bl	crm_periph_reset
 105              	.LVL12:
  66:HW_Lib/AT32F435/drivers/src/at32f435_437_spi.c ****   }
 106              		.loc 1 66 5 is_stmt 1 view .LVU19
 107 004e 0021     		movs	r1, #0
 108 0050 2046     		mov	r0, r4
 109 0052 FFF7FEFF 		bl	crm_periph_reset
 110              	.LVL13:
 111 0056 E0E7     		b	.L1
 112              	.LVL14:
 113              	.L10:
  70:HW_Lib/AT32F435/drivers/src/at32f435_437_spi.c ****     crm_periph_reset(CRM_SPI4_PERIPH_RESET, FALSE);
 114              		.loc 1 70 5 view .LVU20
 115 0058 0B4C     		ldr	r4, .L11+28
 116 005a 0121     		movs	r1, #1
 117 005c 2046     		mov	r0, r4
 118              	.LVL15:
  70:HW_Lib/AT32F435/drivers/src/at32f435_437_spi.c ****     crm_periph_reset(CRM_SPI4_PERIPH_RESET, FALSE);
 119              		.loc 1 70 5 is_stmt 0 view .LVU21
 120 005e FFF7FEFF 		bl	crm_periph_reset
 121              	.LVL16:
  71:HW_Lib/AT32F435/drivers/src/at32f435_437_spi.c ****   }
 122              		.loc 1 71 5 is_stmt 1 view .LVU22
 123 0062 0021     		movs	r1, #0
 124 0064 2046     		mov	r0, r4
 125 0066 FFF7FEFF 		bl	crm_periph_reset
 126              	.LVL17:
 127              		.loc 1 73 1 is_stmt 0 view .LVU23
 128 006a D6E7     		b	.L1
 129              	.L12:
 130              		.align	2
 131              	.L11:
 132 006c 00300140 		.word	1073819648
 133 0070 00380040 		.word	1073756160
 134 0074 003C0040 		.word	1073757184
 135 0078 00340140 		.word	1073820672
 136 007c 0C002400 		.word	2359308
 137 0080 0E002000 		.word	2097166
 138 0084 0F002000 		.word	2097167
 139 0088 0D002400 		.word	2359309
 140              		.cfi_endproc
 141              	.LFE133:
 143              		.section	.text.spi_default_para_init,"ax",%progbits
 144              		.align	1
 145              		.global	spi_default_para_init
ARM GAS  C:\Users\8bit\AppData\Local\Temp\cc28Qo3v.s 			page 5


 146              		.syntax unified
 147              		.thumb
 148              		.thumb_func
 150              	spi_default_para_init:
 151              	.LVL18:
 152              	.LFB134:
  74:HW_Lib/AT32F435/drivers/src/at32f435_437_spi.c **** 
  75:HW_Lib/AT32F435/drivers/src/at32f435_437_spi.c **** /**
  76:HW_Lib/AT32F435/drivers/src/at32f435_437_spi.c ****   * @brief  spi init config with its default value.
  77:HW_Lib/AT32F435/drivers/src/at32f435_437_spi.c ****   * @param  spi_init_struct : pointer to a spi_init_type structure which will
  78:HW_Lib/AT32F435/drivers/src/at32f435_437_spi.c ****   *         be initialized.
  79:HW_Lib/AT32F435/drivers/src/at32f435_437_spi.c ****   * @retval none
  80:HW_Lib/AT32F435/drivers/src/at32f435_437_spi.c ****   */
  81:HW_Lib/AT32F435/drivers/src/at32f435_437_spi.c **** void spi_default_para_init(spi_init_type* spi_init_struct)
  82:HW_Lib/AT32F435/drivers/src/at32f435_437_spi.c **** {
 153              		.loc 1 82 1 is_stmt 1 view -0
 154              		.cfi_startproc
 155              		@ args = 0, pretend = 0, frame = 0
 156              		@ frame_needed = 0, uses_anonymous_args = 0
 157              		@ link register save eliminated.
  83:HW_Lib/AT32F435/drivers/src/at32f435_437_spi.c ****   spi_init_struct->transmission_mode = SPI_TRANSMIT_FULL_DUPLEX;
 158              		.loc 1 83 3 view .LVU25
 159              		.loc 1 83 38 is_stmt 0 view .LVU26
 160 0000 0023     		movs	r3, #0
 161 0002 0370     		strb	r3, [r0]
  84:HW_Lib/AT32F435/drivers/src/at32f435_437_spi.c ****   spi_init_struct->master_slave_mode = SPI_MODE_SLAVE;
 162              		.loc 1 84 3 is_stmt 1 view .LVU27
 163              		.loc 1 84 38 is_stmt 0 view .LVU28
 164 0004 4370     		strb	r3, [r0, #1]
  85:HW_Lib/AT32F435/drivers/src/at32f435_437_spi.c ****   spi_init_struct->mclk_freq_division = SPI_MCLK_DIV_2;
 165              		.loc 1 85 3 is_stmt 1 view .LVU29
 166              		.loc 1 85 39 is_stmt 0 view .LVU30
 167 0006 8370     		strb	r3, [r0, #2]
  86:HW_Lib/AT32F435/drivers/src/at32f435_437_spi.c ****   spi_init_struct->first_bit_transmission = SPI_FIRST_BIT_MSB;
 168              		.loc 1 86 3 is_stmt 1 view .LVU31
 169              		.loc 1 86 43 is_stmt 0 view .LVU32
 170 0008 C370     		strb	r3, [r0, #3]
  87:HW_Lib/AT32F435/drivers/src/at32f435_437_spi.c ****   spi_init_struct->frame_bit_num = SPI_FRAME_8BIT;
 171              		.loc 1 87 3 is_stmt 1 view .LVU33
 172              		.loc 1 87 34 is_stmt 0 view .LVU34
 173 000a 0371     		strb	r3, [r0, #4]
  88:HW_Lib/AT32F435/drivers/src/at32f435_437_spi.c ****   spi_init_struct->clock_polarity = SPI_CLOCK_POLARITY_LOW;
 174              		.loc 1 88 3 is_stmt 1 view .LVU35
 175              		.loc 1 88 35 is_stmt 0 view .LVU36
 176 000c 4371     		strb	r3, [r0, #5]
  89:HW_Lib/AT32F435/drivers/src/at32f435_437_spi.c ****   spi_init_struct->clock_phase = SPI_CLOCK_PHASE_1EDGE;
 177              		.loc 1 89 3 is_stmt 1 view .LVU37
 178              		.loc 1 89 32 is_stmt 0 view .LVU38
 179 000e 8371     		strb	r3, [r0, #6]
  90:HW_Lib/AT32F435/drivers/src/at32f435_437_spi.c ****   spi_init_struct->cs_mode_selection = SPI_CS_SOFTWARE_MODE;
 180              		.loc 1 90 3 is_stmt 1 view .LVU39
 181              		.loc 1 90 38 is_stmt 0 view .LVU40
 182 0010 0123     		movs	r3, #1
 183 0012 C371     		strb	r3, [r0, #7]
  91:HW_Lib/AT32F435/drivers/src/at32f435_437_spi.c **** }
 184              		.loc 1 91 1 view .LVU41
 185 0014 7047     		bx	lr
ARM GAS  C:\Users\8bit\AppData\Local\Temp\cc28Qo3v.s 			page 6


 186              		.cfi_endproc
 187              	.LFE134:
 189              		.section	.text.spi_init,"ax",%progbits
 190              		.align	1
 191              		.global	spi_init
 192              		.syntax unified
 193              		.thumb
 194              		.thumb_func
 196              	spi_init:
 197              	.LVL19:
 198              	.LFB135:
  92:HW_Lib/AT32F435/drivers/src/at32f435_437_spi.c **** 
  93:HW_Lib/AT32F435/drivers/src/at32f435_437_spi.c **** /**
  94:HW_Lib/AT32F435/drivers/src/at32f435_437_spi.c ****   * @brief  spi init config with its setting value.
  95:HW_Lib/AT32F435/drivers/src/at32f435_437_spi.c ****   * @param  spi_x: select the spi peripheral.
  96:HW_Lib/AT32F435/drivers/src/at32f435_437_spi.c ****   *         this parameter can be one of the following values:
  97:HW_Lib/AT32F435/drivers/src/at32f435_437_spi.c ****   *         SPI1, SPI2, SPI3 ,SPI4
  98:HW_Lib/AT32F435/drivers/src/at32f435_437_spi.c ****   * @param  spi_init_struct : pointer to a spi_init_type structure which will be initialized.
  99:HW_Lib/AT32F435/drivers/src/at32f435_437_spi.c ****   * @retval none
 100:HW_Lib/AT32F435/drivers/src/at32f435_437_spi.c ****   */
 101:HW_Lib/AT32F435/drivers/src/at32f435_437_spi.c **** void spi_init(spi_type* spi_x, spi_init_type* spi_init_struct)
 102:HW_Lib/AT32F435/drivers/src/at32f435_437_spi.c **** {
 199              		.loc 1 102 1 is_stmt 1 view -0
 200              		.cfi_startproc
 201              		@ args = 0, pretend = 0, frame = 0
 202              		@ frame_needed = 0, uses_anonymous_args = 0
 203              		@ link register save eliminated.
 103:HW_Lib/AT32F435/drivers/src/at32f435_437_spi.c ****   spi_x->i2sctrl_bit.i2smsel = FALSE;
 204              		.loc 1 103 3 view .LVU43
 205              		.loc 1 103 30 is_stmt 0 view .LVU44
 206 0000 C369     		ldr	r3, [r0, #28]
 207 0002 6FF3CB23 		bfc	r3, #11, #1
 208 0006 C361     		str	r3, [r0, #28]
 104:HW_Lib/AT32F435/drivers/src/at32f435_437_spi.c ****   if(spi_init_struct->transmission_mode == SPI_TRANSMIT_FULL_DUPLEX)
 209              		.loc 1 104 3 is_stmt 1 view .LVU45
 210              		.loc 1 104 21 is_stmt 0 view .LVU46
 211 0008 0B78     		ldrb	r3, [r1]	@ zero_extendqisi2
 212              		.loc 1 104 5 view .LVU47
 213 000a 002B     		cmp	r3, #0
 214 000c 41D1     		bne	.L15
 105:HW_Lib/AT32F435/drivers/src/at32f435_437_spi.c ****   {
 106:HW_Lib/AT32F435/drivers/src/at32f435_437_spi.c ****     spi_x->ctrl1_bit.slben = FALSE;
 215              		.loc 1 106 5 is_stmt 1 view .LVU48
 216              		.loc 1 106 28 is_stmt 0 view .LVU49
 217 000e 0368     		ldr	r3, [r0]
 218 0010 6FF3CF33 		bfc	r3, #15, #1
 219 0014 0360     		str	r3, [r0]
 107:HW_Lib/AT32F435/drivers/src/at32f435_437_spi.c ****     spi_x->ctrl1_bit.slbtd = FALSE;
 220              		.loc 1 107 5 is_stmt 1 view .LVU50
 221              		.loc 1 107 28 is_stmt 0 view .LVU51
 222 0016 0368     		ldr	r3, [r0]
 223 0018 6FF38E33 		bfc	r3, #14, #1
 224 001c 0360     		str	r3, [r0]
 108:HW_Lib/AT32F435/drivers/src/at32f435_437_spi.c ****     spi_x->ctrl1_bit.ora = FALSE;
 225              		.loc 1 108 5 is_stmt 1 view .LVU52
 226              		.loc 1 108 26 is_stmt 0 view .LVU53
 227 001e 0368     		ldr	r3, [r0]
ARM GAS  C:\Users\8bit\AppData\Local\Temp\cc28Qo3v.s 			page 7


 228 0020 6FF38A23 		bfc	r3, #10, #1
 229 0024 0360     		str	r3, [r0]
 230              	.L16:
 109:HW_Lib/AT32F435/drivers/src/at32f435_437_spi.c ****   }
 110:HW_Lib/AT32F435/drivers/src/at32f435_437_spi.c ****   else if(spi_init_struct->transmission_mode == SPI_TRANSMIT_SIMPLEX_RX)
 111:HW_Lib/AT32F435/drivers/src/at32f435_437_spi.c ****   {
 112:HW_Lib/AT32F435/drivers/src/at32f435_437_spi.c ****     spi_x->ctrl1_bit.slben = FALSE;
 113:HW_Lib/AT32F435/drivers/src/at32f435_437_spi.c ****     spi_x->ctrl1_bit.slbtd = FALSE;
 114:HW_Lib/AT32F435/drivers/src/at32f435_437_spi.c ****     spi_x->ctrl1_bit.ora = TRUE;
 115:HW_Lib/AT32F435/drivers/src/at32f435_437_spi.c ****   }
 116:HW_Lib/AT32F435/drivers/src/at32f435_437_spi.c ****   else if(spi_init_struct->transmission_mode == SPI_TRANSMIT_HALF_DUPLEX_RX)
 117:HW_Lib/AT32F435/drivers/src/at32f435_437_spi.c ****   {
 118:HW_Lib/AT32F435/drivers/src/at32f435_437_spi.c ****     spi_x->ctrl1_bit.slben = TRUE;
 119:HW_Lib/AT32F435/drivers/src/at32f435_437_spi.c ****     spi_x->ctrl1_bit.slbtd = FALSE;
 120:HW_Lib/AT32F435/drivers/src/at32f435_437_spi.c ****     spi_x->ctrl1_bit.ora = FALSE;
 121:HW_Lib/AT32F435/drivers/src/at32f435_437_spi.c ****   }
 122:HW_Lib/AT32F435/drivers/src/at32f435_437_spi.c ****   else if(spi_init_struct->transmission_mode == SPI_TRANSMIT_HALF_DUPLEX_TX)
 123:HW_Lib/AT32F435/drivers/src/at32f435_437_spi.c ****   {
 124:HW_Lib/AT32F435/drivers/src/at32f435_437_spi.c ****     spi_x->ctrl1_bit.slben = TRUE;
 125:HW_Lib/AT32F435/drivers/src/at32f435_437_spi.c ****     spi_x->ctrl1_bit.slbtd = TRUE;
 126:HW_Lib/AT32F435/drivers/src/at32f435_437_spi.c ****     spi_x->ctrl1_bit.ora = FALSE;
 127:HW_Lib/AT32F435/drivers/src/at32f435_437_spi.c ****   }
 128:HW_Lib/AT32F435/drivers/src/at32f435_437_spi.c **** 
 129:HW_Lib/AT32F435/drivers/src/at32f435_437_spi.c ****   spi_x->ctrl1_bit.swcsen = spi_init_struct->cs_mode_selection;
 231              		.loc 1 129 3 is_stmt 1 view .LVU54
 232              		.loc 1 129 44 is_stmt 0 view .LVU55
 233 0026 CA79     		ldrb	r2, [r1, #7]	@ zero_extendqisi2
 234              		.loc 1 129 27 view .LVU56
 235 0028 0368     		ldr	r3, [r0]
 236 002a 62F34923 		bfi	r3, r2, #9, #1
 237 002e 0360     		str	r3, [r0]
 130:HW_Lib/AT32F435/drivers/src/at32f435_437_spi.c ****   if((spi_init_struct->master_slave_mode == SPI_MODE_MASTER) && (spi_init_struct->cs_mode_selection
 238              		.loc 1 130 3 is_stmt 1 view .LVU57
 239              		.loc 1 130 22 is_stmt 0 view .LVU58
 240 0030 4B78     		ldrb	r3, [r1, #1]	@ zero_extendqisi2
 241              		.loc 1 130 5 view .LVU59
 242 0032 012B     		cmp	r3, #1
 243 0034 5AD0     		beq	.L24
 244              	.L19:
 131:HW_Lib/AT32F435/drivers/src/at32f435_437_spi.c ****   {
 132:HW_Lib/AT32F435/drivers/src/at32f435_437_spi.c ****     spi_x->ctrl1_bit.swcsil = TRUE;
 133:HW_Lib/AT32F435/drivers/src/at32f435_437_spi.c ****   }
 134:HW_Lib/AT32F435/drivers/src/at32f435_437_spi.c ****   else
 135:HW_Lib/AT32F435/drivers/src/at32f435_437_spi.c ****   {
 136:HW_Lib/AT32F435/drivers/src/at32f435_437_spi.c ****     spi_x->ctrl1_bit.swcsil = FALSE;
 245              		.loc 1 136 5 is_stmt 1 view .LVU60
 246              		.loc 1 136 29 is_stmt 0 view .LVU61
 247 0036 0368     		ldr	r3, [r0]
 248 0038 6FF30823 		bfc	r3, #8, #1
 249 003c 0360     		str	r3, [r0]
 250              	.L20:
 137:HW_Lib/AT32F435/drivers/src/at32f435_437_spi.c ****   }
 138:HW_Lib/AT32F435/drivers/src/at32f435_437_spi.c ****   spi_x->ctrl1_bit.msten = spi_init_struct->master_slave_mode;
 251              		.loc 1 138 3 is_stmt 1 view .LVU62
 252              		.loc 1 138 43 is_stmt 0 view .LVU63
 253 003e 4A78     		ldrb	r2, [r1, #1]	@ zero_extendqisi2
 254              		.loc 1 138 26 view .LVU64
ARM GAS  C:\Users\8bit\AppData\Local\Temp\cc28Qo3v.s 			page 8


 255 0040 0368     		ldr	r3, [r0]
 256 0042 62F38203 		bfi	r3, r2, #2, #1
 257 0046 0360     		str	r3, [r0]
 139:HW_Lib/AT32F435/drivers/src/at32f435_437_spi.c **** 
 140:HW_Lib/AT32F435/drivers/src/at32f435_437_spi.c ****   if(spi_init_struct->mclk_freq_division <= SPI_MCLK_DIV_256)
 258              		.loc 1 140 3 is_stmt 1 view .LVU65
 259              		.loc 1 140 21 is_stmt 0 view .LVU66
 260 0048 8B78     		ldrb	r3, [r1, #2]	@ zero_extendqisi2
 261              		.loc 1 140 5 view .LVU67
 262 004a 072B     		cmp	r3, #7
 263 004c 56D8     		bhi	.L21
 141:HW_Lib/AT32F435/drivers/src/at32f435_437_spi.c ****   {
 142:HW_Lib/AT32F435/drivers/src/at32f435_437_spi.c ****     spi_x->ctrl2_bit.mdiv3en = FALSE;
 264              		.loc 1 142 5 is_stmt 1 view .LVU68
 265              		.loc 1 142 30 is_stmt 0 view .LVU69
 266 004e 4368     		ldr	r3, [r0, #4]
 267 0050 6FF34923 		bfc	r3, #9, #1
 268 0054 4360     		str	r3, [r0, #4]
 143:HW_Lib/AT32F435/drivers/src/at32f435_437_spi.c ****     spi_x->ctrl2_bit.mdiv_h = FALSE;
 269              		.loc 1 143 5 is_stmt 1 view .LVU70
 270              		.loc 1 143 29 is_stmt 0 view .LVU71
 271 0056 4368     		ldr	r3, [r0, #4]
 272 0058 6FF30823 		bfc	r3, #8, #1
 273 005c 4360     		str	r3, [r0, #4]
 144:HW_Lib/AT32F435/drivers/src/at32f435_437_spi.c ****     spi_x->ctrl1_bit.mdiv_l = spi_init_struct->mclk_freq_division;
 274              		.loc 1 144 5 is_stmt 1 view .LVU72
 275              		.loc 1 144 46 is_stmt 0 view .LVU73
 276 005e 8A78     		ldrb	r2, [r1, #2]	@ zero_extendqisi2
 277              		.loc 1 144 29 view .LVU74
 278 0060 0368     		ldr	r3, [r0]
 279 0062 62F3C503 		bfi	r3, r2, #3, #3
 280 0066 0360     		str	r3, [r0]
 281              	.L22:
 145:HW_Lib/AT32F435/drivers/src/at32f435_437_spi.c ****   }
 146:HW_Lib/AT32F435/drivers/src/at32f435_437_spi.c ****   else if(spi_init_struct->mclk_freq_division == SPI_MCLK_DIV_3)
 147:HW_Lib/AT32F435/drivers/src/at32f435_437_spi.c ****   {
 148:HW_Lib/AT32F435/drivers/src/at32f435_437_spi.c ****     spi_x->ctrl2_bit.mdiv3en = TRUE;
 149:HW_Lib/AT32F435/drivers/src/at32f435_437_spi.c ****     spi_x->ctrl2_bit.mdiv_h = FALSE;
 150:HW_Lib/AT32F435/drivers/src/at32f435_437_spi.c ****     spi_x->ctrl1_bit.mdiv_l = 0;
 151:HW_Lib/AT32F435/drivers/src/at32f435_437_spi.c ****   }
 152:HW_Lib/AT32F435/drivers/src/at32f435_437_spi.c ****   else
 153:HW_Lib/AT32F435/drivers/src/at32f435_437_spi.c ****   {
 154:HW_Lib/AT32F435/drivers/src/at32f435_437_spi.c ****     spi_x->ctrl2_bit.mdiv3en = FALSE;
 155:HW_Lib/AT32F435/drivers/src/at32f435_437_spi.c ****     spi_x->ctrl2_bit.mdiv_h = TRUE;
 156:HW_Lib/AT32F435/drivers/src/at32f435_437_spi.c ****     spi_x->ctrl1_bit.mdiv_l = spi_init_struct->mclk_freq_division & 0x7;
 157:HW_Lib/AT32F435/drivers/src/at32f435_437_spi.c ****   }
 158:HW_Lib/AT32F435/drivers/src/at32f435_437_spi.c **** 
 159:HW_Lib/AT32F435/drivers/src/at32f435_437_spi.c ****   spi_x->ctrl1_bit.ltf = spi_init_struct->first_bit_transmission;
 282              		.loc 1 159 3 is_stmt 1 view .LVU75
 283              		.loc 1 159 41 is_stmt 0 view .LVU76
 284 0068 CA78     		ldrb	r2, [r1, #3]	@ zero_extendqisi2
 285              		.loc 1 159 24 view .LVU77
 286 006a 0368     		ldr	r3, [r0]
 287 006c 62F3C713 		bfi	r3, r2, #7, #1
 288 0070 0360     		str	r3, [r0]
 160:HW_Lib/AT32F435/drivers/src/at32f435_437_spi.c ****   spi_x->ctrl1_bit.fbn = spi_init_struct->frame_bit_num;
 289              		.loc 1 160 3 is_stmt 1 view .LVU78
ARM GAS  C:\Users\8bit\AppData\Local\Temp\cc28Qo3v.s 			page 9


 290              		.loc 1 160 41 is_stmt 0 view .LVU79
 291 0072 0A79     		ldrb	r2, [r1, #4]	@ zero_extendqisi2
 292              		.loc 1 160 24 view .LVU80
 293 0074 0368     		ldr	r3, [r0]
 294 0076 62F3CB23 		bfi	r3, r2, #11, #1
 295 007a 0360     		str	r3, [r0]
 161:HW_Lib/AT32F435/drivers/src/at32f435_437_spi.c ****   spi_x->ctrl1_bit.clkpol = spi_init_struct->clock_polarity;
 296              		.loc 1 161 3 is_stmt 1 view .LVU81
 297              		.loc 1 161 44 is_stmt 0 view .LVU82
 298 007c 4A79     		ldrb	r2, [r1, #5]	@ zero_extendqisi2
 299              		.loc 1 161 27 view .LVU83
 300 007e 0368     		ldr	r3, [r0]
 301 0080 62F34103 		bfi	r3, r2, #1, #1
 302 0084 0360     		str	r3, [r0]
 162:HW_Lib/AT32F435/drivers/src/at32f435_437_spi.c ****   spi_x->ctrl1_bit.clkpha = spi_init_struct->clock_phase;
 303              		.loc 1 162 3 is_stmt 1 view .LVU84
 304              		.loc 1 162 44 is_stmt 0 view .LVU85
 305 0086 8A79     		ldrb	r2, [r1, #6]	@ zero_extendqisi2
 306              		.loc 1 162 27 view .LVU86
 307 0088 0368     		ldr	r3, [r0]
 308 008a 62F30003 		bfi	r3, r2, #0, #1
 309 008e 0360     		str	r3, [r0]
 163:HW_Lib/AT32F435/drivers/src/at32f435_437_spi.c **** }
 310              		.loc 1 163 1 view .LVU87
 311 0090 7047     		bx	lr
 312              	.L15:
 110:HW_Lib/AT32F435/drivers/src/at32f435_437_spi.c ****   {
 313              		.loc 1 110 8 is_stmt 1 view .LVU88
 110:HW_Lib/AT32F435/drivers/src/at32f435_437_spi.c ****   {
 314              		.loc 1 110 10 is_stmt 0 view .LVU89
 315 0092 012B     		cmp	r3, #1
 316 0094 10D0     		beq	.L25
 116:HW_Lib/AT32F435/drivers/src/at32f435_437_spi.c ****   {
 317              		.loc 1 116 8 is_stmt 1 view .LVU90
 116:HW_Lib/AT32F435/drivers/src/at32f435_437_spi.c ****   {
 318              		.loc 1 116 10 is_stmt 0 view .LVU91
 319 0096 022B     		cmp	r3, #2
 320 0098 1BD0     		beq	.L26
 122:HW_Lib/AT32F435/drivers/src/at32f435_437_spi.c ****   {
 321              		.loc 1 122 8 is_stmt 1 view .LVU92
 122:HW_Lib/AT32F435/drivers/src/at32f435_437_spi.c ****   {
 322              		.loc 1 122 10 is_stmt 0 view .LVU93
 323 009a 032B     		cmp	r3, #3
 324 009c C3D1     		bne	.L16
 124:HW_Lib/AT32F435/drivers/src/at32f435_437_spi.c ****     spi_x->ctrl1_bit.slbtd = TRUE;
 325              		.loc 1 124 5 is_stmt 1 view .LVU94
 124:HW_Lib/AT32F435/drivers/src/at32f435_437_spi.c ****     spi_x->ctrl1_bit.slbtd = TRUE;
 326              		.loc 1 124 28 is_stmt 0 view .LVU95
 327 009e 0368     		ldr	r3, [r0]
 328 00a0 43F40043 		orr	r3, r3, #32768
 329 00a4 0360     		str	r3, [r0]
 125:HW_Lib/AT32F435/drivers/src/at32f435_437_spi.c ****     spi_x->ctrl1_bit.ora = FALSE;
 330              		.loc 1 125 5 is_stmt 1 view .LVU96
 125:HW_Lib/AT32F435/drivers/src/at32f435_437_spi.c ****     spi_x->ctrl1_bit.ora = FALSE;
 331              		.loc 1 125 28 is_stmt 0 view .LVU97
 332 00a6 0368     		ldr	r3, [r0]
 333 00a8 43F48043 		orr	r3, r3, #16384
ARM GAS  C:\Users\8bit\AppData\Local\Temp\cc28Qo3v.s 			page 10


 334 00ac 0360     		str	r3, [r0]
 126:HW_Lib/AT32F435/drivers/src/at32f435_437_spi.c ****   }
 335              		.loc 1 126 5 is_stmt 1 view .LVU98
 126:HW_Lib/AT32F435/drivers/src/at32f435_437_spi.c ****   }
 336              		.loc 1 126 26 is_stmt 0 view .LVU99
 337 00ae 0368     		ldr	r3, [r0]
 338 00b0 6FF38A23 		bfc	r3, #10, #1
 339 00b4 0360     		str	r3, [r0]
 340 00b6 B6E7     		b	.L16
 341              	.L25:
 112:HW_Lib/AT32F435/drivers/src/at32f435_437_spi.c ****     spi_x->ctrl1_bit.slbtd = FALSE;
 342              		.loc 1 112 5 is_stmt 1 view .LVU100
 112:HW_Lib/AT32F435/drivers/src/at32f435_437_spi.c ****     spi_x->ctrl1_bit.slbtd = FALSE;
 343              		.loc 1 112 28 is_stmt 0 view .LVU101
 344 00b8 0368     		ldr	r3, [r0]
 345 00ba 6FF3CF33 		bfc	r3, #15, #1
 346 00be 0360     		str	r3, [r0]
 113:HW_Lib/AT32F435/drivers/src/at32f435_437_spi.c ****     spi_x->ctrl1_bit.ora = TRUE;
 347              		.loc 1 113 5 is_stmt 1 view .LVU102
 113:HW_Lib/AT32F435/drivers/src/at32f435_437_spi.c ****     spi_x->ctrl1_bit.ora = TRUE;
 348              		.loc 1 113 28 is_stmt 0 view .LVU103
 349 00c0 0368     		ldr	r3, [r0]
 350 00c2 6FF38E33 		bfc	r3, #14, #1
 351 00c6 0360     		str	r3, [r0]
 114:HW_Lib/AT32F435/drivers/src/at32f435_437_spi.c ****   }
 352              		.loc 1 114 5 is_stmt 1 view .LVU104
 114:HW_Lib/AT32F435/drivers/src/at32f435_437_spi.c ****   }
 353              		.loc 1 114 26 is_stmt 0 view .LVU105
 354 00c8 0368     		ldr	r3, [r0]
 355 00ca 43F48063 		orr	r3, r3, #1024
 356 00ce 0360     		str	r3, [r0]
 357 00d0 A9E7     		b	.L16
 358              	.L26:
 118:HW_Lib/AT32F435/drivers/src/at32f435_437_spi.c ****     spi_x->ctrl1_bit.slbtd = FALSE;
 359              		.loc 1 118 5 is_stmt 1 view .LVU106
 118:HW_Lib/AT32F435/drivers/src/at32f435_437_spi.c ****     spi_x->ctrl1_bit.slbtd = FALSE;
 360              		.loc 1 118 28 is_stmt 0 view .LVU107
 361 00d2 0368     		ldr	r3, [r0]
 362 00d4 43F40043 		orr	r3, r3, #32768
 363 00d8 0360     		str	r3, [r0]
 119:HW_Lib/AT32F435/drivers/src/at32f435_437_spi.c ****     spi_x->ctrl1_bit.ora = FALSE;
 364              		.loc 1 119 5 is_stmt 1 view .LVU108
 119:HW_Lib/AT32F435/drivers/src/at32f435_437_spi.c ****     spi_x->ctrl1_bit.ora = FALSE;
 365              		.loc 1 119 28 is_stmt 0 view .LVU109
 366 00da 0368     		ldr	r3, [r0]
 367 00dc 6FF38E33 		bfc	r3, #14, #1
 368 00e0 0360     		str	r3, [r0]
 120:HW_Lib/AT32F435/drivers/src/at32f435_437_spi.c ****   }
 369              		.loc 1 120 5 is_stmt 1 view .LVU110
 120:HW_Lib/AT32F435/drivers/src/at32f435_437_spi.c ****   }
 370              		.loc 1 120 26 is_stmt 0 view .LVU111
 371 00e2 0368     		ldr	r3, [r0]
 372 00e4 6FF38A23 		bfc	r3, #10, #1
 373 00e8 0360     		str	r3, [r0]
 374 00ea 9CE7     		b	.L16
 375              	.L24:
 130:HW_Lib/AT32F435/drivers/src/at32f435_437_spi.c ****   {
ARM GAS  C:\Users\8bit\AppData\Local\Temp\cc28Qo3v.s 			page 11


 376              		.loc 1 130 81 discriminator 1 view .LVU112
 377 00ec CB79     		ldrb	r3, [r1, #7]	@ zero_extendqisi2
 130:HW_Lib/AT32F435/drivers/src/at32f435_437_spi.c ****   {
 378              		.loc 1 130 62 discriminator 1 view .LVU113
 379 00ee 012B     		cmp	r3, #1
 380 00f0 A1D1     		bne	.L19
 132:HW_Lib/AT32F435/drivers/src/at32f435_437_spi.c ****   }
 381              		.loc 1 132 5 is_stmt 1 view .LVU114
 132:HW_Lib/AT32F435/drivers/src/at32f435_437_spi.c ****   }
 382              		.loc 1 132 29 is_stmt 0 view .LVU115
 383 00f2 0368     		ldr	r3, [r0]
 384 00f4 43F48073 		orr	r3, r3, #256
 385 00f8 0360     		str	r3, [r0]
 386 00fa A0E7     		b	.L20
 387              	.L21:
 146:HW_Lib/AT32F435/drivers/src/at32f435_437_spi.c ****   {
 388              		.loc 1 146 8 is_stmt 1 view .LVU116
 146:HW_Lib/AT32F435/drivers/src/at32f435_437_spi.c ****   {
 389              		.loc 1 146 10 is_stmt 0 view .LVU117
 390 00fc 0A2B     		cmp	r3, #10
 391 00fe 0DD0     		beq	.L27
 154:HW_Lib/AT32F435/drivers/src/at32f435_437_spi.c ****     spi_x->ctrl2_bit.mdiv_h = TRUE;
 392              		.loc 1 154 5 is_stmt 1 view .LVU118
 154:HW_Lib/AT32F435/drivers/src/at32f435_437_spi.c ****     spi_x->ctrl2_bit.mdiv_h = TRUE;
 393              		.loc 1 154 30 is_stmt 0 view .LVU119
 394 0100 4368     		ldr	r3, [r0, #4]
 395 0102 6FF34923 		bfc	r3, #9, #1
 396 0106 4360     		str	r3, [r0, #4]
 155:HW_Lib/AT32F435/drivers/src/at32f435_437_spi.c ****     spi_x->ctrl1_bit.mdiv_l = spi_init_struct->mclk_freq_division & 0x7;
 397              		.loc 1 155 5 is_stmt 1 view .LVU120
 155:HW_Lib/AT32F435/drivers/src/at32f435_437_spi.c ****     spi_x->ctrl1_bit.mdiv_l = spi_init_struct->mclk_freq_division & 0x7;
 398              		.loc 1 155 29 is_stmt 0 view .LVU121
 399 0108 4368     		ldr	r3, [r0, #4]
 400 010a 43F48073 		orr	r3, r3, #256
 401 010e 4360     		str	r3, [r0, #4]
 156:HW_Lib/AT32F435/drivers/src/at32f435_437_spi.c ****   }
 402              		.loc 1 156 5 is_stmt 1 view .LVU122
 156:HW_Lib/AT32F435/drivers/src/at32f435_437_spi.c ****   }
 403              		.loc 1 156 46 is_stmt 0 view .LVU123
 404 0110 8A78     		ldrb	r2, [r1, #2]	@ zero_extendqisi2
 156:HW_Lib/AT32F435/drivers/src/at32f435_437_spi.c ****   }
 405              		.loc 1 156 29 view .LVU124
 406 0112 0368     		ldr	r3, [r0]
 407 0114 62F3C503 		bfi	r3, r2, #3, #3
 408 0118 0360     		str	r3, [r0]
 409 011a A5E7     		b	.L22
 410              	.L27:
 148:HW_Lib/AT32F435/drivers/src/at32f435_437_spi.c ****     spi_x->ctrl2_bit.mdiv_h = FALSE;
 411              		.loc 1 148 5 is_stmt 1 view .LVU125
 148:HW_Lib/AT32F435/drivers/src/at32f435_437_spi.c ****     spi_x->ctrl2_bit.mdiv_h = FALSE;
 412              		.loc 1 148 30 is_stmt 0 view .LVU126
 413 011c 4368     		ldr	r3, [r0, #4]
 414 011e 43F40073 		orr	r3, r3, #512
 415 0122 4360     		str	r3, [r0, #4]
 149:HW_Lib/AT32F435/drivers/src/at32f435_437_spi.c ****     spi_x->ctrl1_bit.mdiv_l = 0;
 416              		.loc 1 149 5 is_stmt 1 view .LVU127
 149:HW_Lib/AT32F435/drivers/src/at32f435_437_spi.c ****     spi_x->ctrl1_bit.mdiv_l = 0;
ARM GAS  C:\Users\8bit\AppData\Local\Temp\cc28Qo3v.s 			page 12


 417              		.loc 1 149 29 is_stmt 0 view .LVU128
 418 0124 4368     		ldr	r3, [r0, #4]
 419 0126 6FF30823 		bfc	r3, #8, #1
 420 012a 4360     		str	r3, [r0, #4]
 150:HW_Lib/AT32F435/drivers/src/at32f435_437_spi.c ****   }
 421              		.loc 1 150 5 is_stmt 1 view .LVU129
 150:HW_Lib/AT32F435/drivers/src/at32f435_437_spi.c ****   }
 422              		.loc 1 150 29 is_stmt 0 view .LVU130
 423 012c 0368     		ldr	r3, [r0]
 424 012e 6FF3C503 		bfc	r3, #3, #3
 425 0132 0360     		str	r3, [r0]
 426 0134 98E7     		b	.L22
 427              		.cfi_endproc
 428              	.LFE135:
 430              		.section	.text.spi_ti_mode_enable,"ax",%progbits
 431              		.align	1
 432              		.global	spi_ti_mode_enable
 433              		.syntax unified
 434              		.thumb
 435              		.thumb_func
 437              	spi_ti_mode_enable:
 438              	.LVL20:
 439              	.LFB136:
 164:HW_Lib/AT32F435/drivers/src/at32f435_437_spi.c **** 
 165:HW_Lib/AT32F435/drivers/src/at32f435_437_spi.c **** /**
 166:HW_Lib/AT32F435/drivers/src/at32f435_437_spi.c ****   * @brief  enable or disable the ti mode for the spi peripheral.
 167:HW_Lib/AT32F435/drivers/src/at32f435_437_spi.c ****   * @param  spi_x: select the spi peripheral.
 168:HW_Lib/AT32F435/drivers/src/at32f435_437_spi.c ****   *         this parameter can be one of the following values:
 169:HW_Lib/AT32F435/drivers/src/at32f435_437_spi.c ****   *         SPI1, SPI2, SPI3 ,SPI4
 170:HW_Lib/AT32F435/drivers/src/at32f435_437_spi.c ****   * @param  new_state: new state of ti mode.
 171:HW_Lib/AT32F435/drivers/src/at32f435_437_spi.c ****   *         this parameter can be: TRUE or FALSE.
 172:HW_Lib/AT32F435/drivers/src/at32f435_437_spi.c ****   * @retval none
 173:HW_Lib/AT32F435/drivers/src/at32f435_437_spi.c ****   */
 174:HW_Lib/AT32F435/drivers/src/at32f435_437_spi.c **** void spi_ti_mode_enable(spi_type* spi_x, confirm_state new_state)
 175:HW_Lib/AT32F435/drivers/src/at32f435_437_spi.c **** {
 440              		.loc 1 175 1 is_stmt 1 view -0
 441              		.cfi_startproc
 442              		@ args = 0, pretend = 0, frame = 0
 443              		@ frame_needed = 0, uses_anonymous_args = 0
 444              		@ link register save eliminated.
 176:HW_Lib/AT32F435/drivers/src/at32f435_437_spi.c ****   spi_x->ctrl2_bit.tien = new_state;
 445              		.loc 1 176 3 view .LVU132
 446              		.loc 1 176 25 is_stmt 0 view .LVU133
 447 0000 4368     		ldr	r3, [r0, #4]
 448 0002 61F30413 		bfi	r3, r1, #4, #1
 449 0006 4360     		str	r3, [r0, #4]
 177:HW_Lib/AT32F435/drivers/src/at32f435_437_spi.c **** }
 450              		.loc 1 177 1 view .LVU134
 451 0008 7047     		bx	lr
 452              		.cfi_endproc
 453              	.LFE136:
 455              		.section	.text.spi_crc_next_transmit,"ax",%progbits
 456              		.align	1
 457              		.global	spi_crc_next_transmit
 458              		.syntax unified
 459              		.thumb
 460              		.thumb_func
ARM GAS  C:\Users\8bit\AppData\Local\Temp\cc28Qo3v.s 			page 13


 462              	spi_crc_next_transmit:
 463              	.LVL21:
 464              	.LFB137:
 178:HW_Lib/AT32F435/drivers/src/at32f435_437_spi.c **** 
 179:HW_Lib/AT32F435/drivers/src/at32f435_437_spi.c **** /**
 180:HW_Lib/AT32F435/drivers/src/at32f435_437_spi.c ****   * @brief  spi next transmit crc for the spi peripheral.
 181:HW_Lib/AT32F435/drivers/src/at32f435_437_spi.c ****   * @param  spi_x: select the spi peripheral.
 182:HW_Lib/AT32F435/drivers/src/at32f435_437_spi.c ****   *         this parameter can be one of the following values:
 183:HW_Lib/AT32F435/drivers/src/at32f435_437_spi.c ****   *         SPI1, SPI2, SPI3 ,SPI4
 184:HW_Lib/AT32F435/drivers/src/at32f435_437_spi.c ****   * @retval none
 185:HW_Lib/AT32F435/drivers/src/at32f435_437_spi.c ****   */
 186:HW_Lib/AT32F435/drivers/src/at32f435_437_spi.c **** void spi_crc_next_transmit(spi_type* spi_x)
 187:HW_Lib/AT32F435/drivers/src/at32f435_437_spi.c **** {
 465              		.loc 1 187 1 is_stmt 1 view -0
 466              		.cfi_startproc
 467              		@ args = 0, pretend = 0, frame = 0
 468              		@ frame_needed = 0, uses_anonymous_args = 0
 469              		@ link register save eliminated.
 188:HW_Lib/AT32F435/drivers/src/at32f435_437_spi.c ****   spi_x->ctrl1_bit.ntc = TRUE;
 470              		.loc 1 188 3 view .LVU136
 471              		.loc 1 188 24 is_stmt 0 view .LVU137
 472 0000 0368     		ldr	r3, [r0]
 473 0002 43F48053 		orr	r3, r3, #4096
 474 0006 0360     		str	r3, [r0]
 189:HW_Lib/AT32F435/drivers/src/at32f435_437_spi.c **** }
 475              		.loc 1 189 1 view .LVU138
 476 0008 7047     		bx	lr
 477              		.cfi_endproc
 478              	.LFE137:
 480              		.section	.text.spi_crc_polynomial_set,"ax",%progbits
 481              		.align	1
 482              		.global	spi_crc_polynomial_set
 483              		.syntax unified
 484              		.thumb
 485              		.thumb_func
 487              	spi_crc_polynomial_set:
 488              	.LVL22:
 489              	.LFB138:
 190:HW_Lib/AT32F435/drivers/src/at32f435_437_spi.c **** 
 191:HW_Lib/AT32F435/drivers/src/at32f435_437_spi.c **** /**
 192:HW_Lib/AT32F435/drivers/src/at32f435_437_spi.c ****   * @brief  set the crc polynomial value for the spi peripheral.
 193:HW_Lib/AT32F435/drivers/src/at32f435_437_spi.c ****   * @param  spi_x: select the spi peripheral.
 194:HW_Lib/AT32F435/drivers/src/at32f435_437_spi.c ****   *         this parameter can be one of the following values:
 195:HW_Lib/AT32F435/drivers/src/at32f435_437_spi.c ****   *         SPI1, SPI2, SPI3 ,SPI4
 196:HW_Lib/AT32F435/drivers/src/at32f435_437_spi.c ****   * @param  crc_poly: crc polynomial value.
 197:HW_Lib/AT32F435/drivers/src/at32f435_437_spi.c ****   * @retval none
 198:HW_Lib/AT32F435/drivers/src/at32f435_437_spi.c ****   */
 199:HW_Lib/AT32F435/drivers/src/at32f435_437_spi.c **** void spi_crc_polynomial_set(spi_type* spi_x, uint16_t crc_poly)
 200:HW_Lib/AT32F435/drivers/src/at32f435_437_spi.c **** {
 490              		.loc 1 200 1 is_stmt 1 view -0
 491              		.cfi_startproc
 492              		@ args = 0, pretend = 0, frame = 0
 493              		@ frame_needed = 0, uses_anonymous_args = 0
 494              		@ link register save eliminated.
 201:HW_Lib/AT32F435/drivers/src/at32f435_437_spi.c ****   spi_x->cpoly_bit.cpoly = crc_poly;
 495              		.loc 1 201 3 view .LVU140
 496              		.loc 1 201 26 is_stmt 0 view .LVU141
ARM GAS  C:\Users\8bit\AppData\Local\Temp\cc28Qo3v.s 			page 14


 497 0000 0369     		ldr	r3, [r0, #16]
 498              	.LVL23:
 499              		.loc 1 201 26 view .LVU142
 500 0002 61F30F03 		bfi	r3, r1, #0, #16
 501 0006 0361     		str	r3, [r0, #16]
 202:HW_Lib/AT32F435/drivers/src/at32f435_437_spi.c **** }
 502              		.loc 1 202 1 view .LVU143
 503 0008 7047     		bx	lr
 504              		.cfi_endproc
 505              	.LFE138:
 507              		.section	.text.spi_crc_polynomial_get,"ax",%progbits
 508              		.align	1
 509              		.global	spi_crc_polynomial_get
 510              		.syntax unified
 511              		.thumb
 512              		.thumb_func
 514              	spi_crc_polynomial_get:
 515              	.LVL24:
 516              	.LFB139:
 203:HW_Lib/AT32F435/drivers/src/at32f435_437_spi.c **** 
 204:HW_Lib/AT32F435/drivers/src/at32f435_437_spi.c **** /**
 205:HW_Lib/AT32F435/drivers/src/at32f435_437_spi.c ****   * @brief  return the crc polynomial register value for the spi peripheral.
 206:HW_Lib/AT32F435/drivers/src/at32f435_437_spi.c ****   * @param  spi_x: select the spi peripheral.
 207:HW_Lib/AT32F435/drivers/src/at32f435_437_spi.c ****   *         this parameter can be one of the following values:
 208:HW_Lib/AT32F435/drivers/src/at32f435_437_spi.c ****   *         SPI1, SPI2, SPI3 ,SPI4
 209:HW_Lib/AT32F435/drivers/src/at32f435_437_spi.c ****   * @retval the select crc polynomial register value
 210:HW_Lib/AT32F435/drivers/src/at32f435_437_spi.c ****   */
 211:HW_Lib/AT32F435/drivers/src/at32f435_437_spi.c **** uint16_t spi_crc_polynomial_get(spi_type* spi_x)
 212:HW_Lib/AT32F435/drivers/src/at32f435_437_spi.c **** {
 517              		.loc 1 212 1 is_stmt 1 view -0
 518              		.cfi_startproc
 519              		@ args = 0, pretend = 0, frame = 0
 520              		@ frame_needed = 0, uses_anonymous_args = 0
 521              		@ link register save eliminated.
 213:HW_Lib/AT32F435/drivers/src/at32f435_437_spi.c ****   return spi_x->cpoly_bit.cpoly;
 522              		.loc 1 213 3 view .LVU145
 523              		.loc 1 213 26 is_stmt 0 view .LVU146
 524 0000 0069     		ldr	r0, [r0, #16]
 525              	.LVL25:
 214:HW_Lib/AT32F435/drivers/src/at32f435_437_spi.c **** }
 526              		.loc 1 214 1 view .LVU147
 527 0002 80B2     		uxth	r0, r0
 528 0004 7047     		bx	lr
 529              		.cfi_endproc
 530              	.LFE139:
 532              		.section	.text.spi_crc_enable,"ax",%progbits
 533              		.align	1
 534              		.global	spi_crc_enable
 535              		.syntax unified
 536              		.thumb
 537              		.thumb_func
 539              	spi_crc_enable:
 540              	.LVL26:
 541              	.LFB140:
 215:HW_Lib/AT32F435/drivers/src/at32f435_437_spi.c **** 
 216:HW_Lib/AT32F435/drivers/src/at32f435_437_spi.c **** /**
 217:HW_Lib/AT32F435/drivers/src/at32f435_437_spi.c ****   * @brief  enable or disable the hardware crc calculation for the spi peripheral.
ARM GAS  C:\Users\8bit\AppData\Local\Temp\cc28Qo3v.s 			page 15


 218:HW_Lib/AT32F435/drivers/src/at32f435_437_spi.c ****   * @param  spi_x: select the spi peripheral.
 219:HW_Lib/AT32F435/drivers/src/at32f435_437_spi.c ****   *         this parameter can be one of the following values:
 220:HW_Lib/AT32F435/drivers/src/at32f435_437_spi.c ****   *         SPI1, SPI2, SPI3 ,SPI4
 221:HW_Lib/AT32F435/drivers/src/at32f435_437_spi.c ****   * @param  new_state: new state of crc calculation.
 222:HW_Lib/AT32F435/drivers/src/at32f435_437_spi.c ****   *         this parameter can be: TRUE or FALSE.
 223:HW_Lib/AT32F435/drivers/src/at32f435_437_spi.c ****   * @retval none
 224:HW_Lib/AT32F435/drivers/src/at32f435_437_spi.c ****   */
 225:HW_Lib/AT32F435/drivers/src/at32f435_437_spi.c **** void spi_crc_enable(spi_type* spi_x, confirm_state new_state)
 226:HW_Lib/AT32F435/drivers/src/at32f435_437_spi.c **** {
 542              		.loc 1 226 1 is_stmt 1 view -0
 543              		.cfi_startproc
 544              		@ args = 0, pretend = 0, frame = 0
 545              		@ frame_needed = 0, uses_anonymous_args = 0
 546              		@ link register save eliminated.
 227:HW_Lib/AT32F435/drivers/src/at32f435_437_spi.c ****   spi_x->ctrl1_bit.ccen = new_state;
 547              		.loc 1 227 3 view .LVU149
 548              		.loc 1 227 25 is_stmt 0 view .LVU150
 549 0000 0368     		ldr	r3, [r0]
 550 0002 61F34D33 		bfi	r3, r1, #13, #1
 551 0006 0360     		str	r3, [r0]
 228:HW_Lib/AT32F435/drivers/src/at32f435_437_spi.c **** }
 552              		.loc 1 228 1 view .LVU151
 553 0008 7047     		bx	lr
 554              		.cfi_endproc
 555              	.LFE140:
 557              		.section	.text.spi_crc_value_get,"ax",%progbits
 558              		.align	1
 559              		.global	spi_crc_value_get
 560              		.syntax unified
 561              		.thumb
 562              		.thumb_func
 564              	spi_crc_value_get:
 565              	.LVL27:
 566              	.LFB141:
 229:HW_Lib/AT32F435/drivers/src/at32f435_437_spi.c **** 
 230:HW_Lib/AT32F435/drivers/src/at32f435_437_spi.c **** /**
 231:HW_Lib/AT32F435/drivers/src/at32f435_437_spi.c ****   * @brief  return the transmit or the receive crc value for the spi peripheral.
 232:HW_Lib/AT32F435/drivers/src/at32f435_437_spi.c ****   * @param  spi_x: select the spi peripheral.
 233:HW_Lib/AT32F435/drivers/src/at32f435_437_spi.c ****   *         this parameter can be one of the following values:
 234:HW_Lib/AT32F435/drivers/src/at32f435_437_spi.c ****   *         SPI1, SPI2, SPI3 ,SPI4
 235:HW_Lib/AT32F435/drivers/src/at32f435_437_spi.c ****   * @param  crc_direction: select transmit or receive crc value to be read
 236:HW_Lib/AT32F435/drivers/src/at32f435_437_spi.c ****   *         - SPI_CRC_RX
 237:HW_Lib/AT32F435/drivers/src/at32f435_437_spi.c ****   *         - SPI_CRC_TX
 238:HW_Lib/AT32F435/drivers/src/at32f435_437_spi.c ****   * @retval the select crc register value
 239:HW_Lib/AT32F435/drivers/src/at32f435_437_spi.c ****   */
 240:HW_Lib/AT32F435/drivers/src/at32f435_437_spi.c **** uint16_t spi_crc_value_get(spi_type* spi_x, spi_crc_direction_type crc_direction)
 241:HW_Lib/AT32F435/drivers/src/at32f435_437_spi.c **** {
 567              		.loc 1 241 1 is_stmt 1 view -0
 568              		.cfi_startproc
 569              		@ args = 0, pretend = 0, frame = 0
 570              		@ frame_needed = 0, uses_anonymous_args = 0
 571              		@ link register save eliminated.
 242:HW_Lib/AT32F435/drivers/src/at32f435_437_spi.c ****   if(crc_direction == SPI_CRC_RX)
 572              		.loc 1 242 3 view .LVU153
 573              		.loc 1 242 5 is_stmt 0 view .LVU154
 574 0000 1429     		cmp	r1, #20
 575 0002 02D0     		beq	.L36
ARM GAS  C:\Users\8bit\AppData\Local\Temp\cc28Qo3v.s 			page 16


 243:HW_Lib/AT32F435/drivers/src/at32f435_437_spi.c ****     return  spi_x->rcrc_bit.rcrc;
 244:HW_Lib/AT32F435/drivers/src/at32f435_437_spi.c ****   else
 245:HW_Lib/AT32F435/drivers/src/at32f435_437_spi.c ****     return  spi_x->tcrc_bit.tcrc;
 576              		.loc 1 245 5 is_stmt 1 view .LVU155
 577              		.loc 1 245 28 is_stmt 0 view .LVU156
 578 0004 8069     		ldr	r0, [r0, #24]
 579              	.LVL28:
 580              		.loc 1 245 28 view .LVU157
 581 0006 80B2     		uxth	r0, r0
 246:HW_Lib/AT32F435/drivers/src/at32f435_437_spi.c **** }
 582              		.loc 1 246 1 view .LVU158
 583 0008 7047     		bx	lr
 584              	.LVL29:
 585              	.L36:
 243:HW_Lib/AT32F435/drivers/src/at32f435_437_spi.c ****     return  spi_x->rcrc_bit.rcrc;
 586              		.loc 1 243 5 is_stmt 1 view .LVU159
 243:HW_Lib/AT32F435/drivers/src/at32f435_437_spi.c ****     return  spi_x->rcrc_bit.rcrc;
 587              		.loc 1 243 28 is_stmt 0 view .LVU160
 588 000a 4069     		ldr	r0, [r0, #20]
 589              	.LVL30:
 243:HW_Lib/AT32F435/drivers/src/at32f435_437_spi.c ****     return  spi_x->rcrc_bit.rcrc;
 590              		.loc 1 243 28 view .LVU161
 591 000c 80B2     		uxth	r0, r0
 592 000e 7047     		bx	lr
 593              		.cfi_endproc
 594              	.LFE141:
 596              		.section	.text.spi_hardware_cs_output_enable,"ax",%progbits
 597              		.align	1
 598              		.global	spi_hardware_cs_output_enable
 599              		.syntax unified
 600              		.thumb
 601              		.thumb_func
 603              	spi_hardware_cs_output_enable:
 604              	.LVL31:
 605              	.LFB142:
 247:HW_Lib/AT32F435/drivers/src/at32f435_437_spi.c **** 
 248:HW_Lib/AT32F435/drivers/src/at32f435_437_spi.c **** /**
 249:HW_Lib/AT32F435/drivers/src/at32f435_437_spi.c ****   * @brief  enable or disable the hardware cs output for the spi peripheral.
 250:HW_Lib/AT32F435/drivers/src/at32f435_437_spi.c ****   * @param  spi_x: select the spi peripheral.
 251:HW_Lib/AT32F435/drivers/src/at32f435_437_spi.c ****   *         this parameter can be one of the following values:
 252:HW_Lib/AT32F435/drivers/src/at32f435_437_spi.c ****   *         SPI1, SPI2, SPI3 ,SPI4
 253:HW_Lib/AT32F435/drivers/src/at32f435_437_spi.c ****   * @param  new_state: new state of spi master cs output.
 254:HW_Lib/AT32F435/drivers/src/at32f435_437_spi.c ****   *         this parameter can be: TRUE or FALSE.
 255:HW_Lib/AT32F435/drivers/src/at32f435_437_spi.c ****   *         note:the bit only use in spi master mode
 256:HW_Lib/AT32F435/drivers/src/at32f435_437_spi.c ****   * @retval none
 257:HW_Lib/AT32F435/drivers/src/at32f435_437_spi.c ****   */
 258:HW_Lib/AT32F435/drivers/src/at32f435_437_spi.c **** void spi_hardware_cs_output_enable(spi_type* spi_x, confirm_state new_state)
 259:HW_Lib/AT32F435/drivers/src/at32f435_437_spi.c **** {
 606              		.loc 1 259 1 is_stmt 1 view -0
 607              		.cfi_startproc
 608              		@ args = 0, pretend = 0, frame = 0
 609              		@ frame_needed = 0, uses_anonymous_args = 0
 610              		@ link register save eliminated.
 260:HW_Lib/AT32F435/drivers/src/at32f435_437_spi.c ****   spi_x->ctrl2_bit.hwcsoe = new_state;
 611              		.loc 1 260 3 view .LVU163
 612              		.loc 1 260 27 is_stmt 0 view .LVU164
 613 0000 4368     		ldr	r3, [r0, #4]
ARM GAS  C:\Users\8bit\AppData\Local\Temp\cc28Qo3v.s 			page 17


 614 0002 61F38203 		bfi	r3, r1, #2, #1
 615 0006 4360     		str	r3, [r0, #4]
 261:HW_Lib/AT32F435/drivers/src/at32f435_437_spi.c **** }
 616              		.loc 1 261 1 view .LVU165
 617 0008 7047     		bx	lr
 618              		.cfi_endproc
 619              	.LFE142:
 621              		.section	.text.spi_software_cs_internal_level_set,"ax",%progbits
 622              		.align	1
 623              		.global	spi_software_cs_internal_level_set
 624              		.syntax unified
 625              		.thumb
 626              		.thumb_func
 628              	spi_software_cs_internal_level_set:
 629              	.LVL32:
 630              	.LFB143:
 262:HW_Lib/AT32F435/drivers/src/at32f435_437_spi.c **** 
 263:HW_Lib/AT32F435/drivers/src/at32f435_437_spi.c **** /**
 264:HW_Lib/AT32F435/drivers/src/at32f435_437_spi.c ****   * @brief  set the software cs internal level for the spi peripheral.
 265:HW_Lib/AT32F435/drivers/src/at32f435_437_spi.c ****   * @param  spi_x: select the spi peripheral.
 266:HW_Lib/AT32F435/drivers/src/at32f435_437_spi.c ****   *         this parameter can be one of the following values:
 267:HW_Lib/AT32F435/drivers/src/at32f435_437_spi.c ****   *         SPI1, SPI2, SPI3 ,SPI4
 268:HW_Lib/AT32F435/drivers/src/at32f435_437_spi.c ****   * @param  level: set the state of spi cs level.
 269:HW_Lib/AT32F435/drivers/src/at32f435_437_spi.c ****   *         this parameter can be one of the following values:
 270:HW_Lib/AT32F435/drivers/src/at32f435_437_spi.c ****   *         - SPI_SWCS_INTERNAL_LEVEL_LOW
 271:HW_Lib/AT32F435/drivers/src/at32f435_437_spi.c ****   *         - SPI_SWCS_INTERNAL_LEVEL_HIGHT
 272:HW_Lib/AT32F435/drivers/src/at32f435_437_spi.c ****   *         note:the bit only use when swcsen bit is set.
 273:HW_Lib/AT32F435/drivers/src/at32f435_437_spi.c ****   *         note:when use this bit,io operation on the cs pin are invalid.
 274:HW_Lib/AT32F435/drivers/src/at32f435_437_spi.c ****   * @retval none
 275:HW_Lib/AT32F435/drivers/src/at32f435_437_spi.c ****   */
 276:HW_Lib/AT32F435/drivers/src/at32f435_437_spi.c **** void spi_software_cs_internal_level_set(spi_type* spi_x, spi_software_cs_level_type level)
 277:HW_Lib/AT32F435/drivers/src/at32f435_437_spi.c **** {
 631              		.loc 1 277 1 is_stmt 1 view -0
 632              		.cfi_startproc
 633              		@ args = 0, pretend = 0, frame = 0
 634              		@ frame_needed = 0, uses_anonymous_args = 0
 635              		@ link register save eliminated.
 278:HW_Lib/AT32F435/drivers/src/at32f435_437_spi.c ****   spi_x->ctrl1_bit.swcsil = level;
 636              		.loc 1 278 3 view .LVU167
 637              		.loc 1 278 27 is_stmt 0 view .LVU168
 638 0000 0368     		ldr	r3, [r0]
 639 0002 61F30823 		bfi	r3, r1, #8, #1
 640 0006 0360     		str	r3, [r0]
 279:HW_Lib/AT32F435/drivers/src/at32f435_437_spi.c **** }
 641              		.loc 1 279 1 view .LVU169
 642 0008 7047     		bx	lr
 643              		.cfi_endproc
 644              	.LFE143:
 646              		.section	.text.spi_frame_bit_num_set,"ax",%progbits
 647              		.align	1
 648              		.global	spi_frame_bit_num_set
 649              		.syntax unified
 650              		.thumb
 651              		.thumb_func
 653              	spi_frame_bit_num_set:
 654              	.LVL33:
 655              	.LFB144:
ARM GAS  C:\Users\8bit\AppData\Local\Temp\cc28Qo3v.s 			page 18


 280:HW_Lib/AT32F435/drivers/src/at32f435_437_spi.c **** 
 281:HW_Lib/AT32F435/drivers/src/at32f435_437_spi.c **** /**
 282:HW_Lib/AT32F435/drivers/src/at32f435_437_spi.c ****   * @brief  set the data frame bit num for the spi peripheral.
 283:HW_Lib/AT32F435/drivers/src/at32f435_437_spi.c ****   * @param  spi_x: select the spi peripheral.
 284:HW_Lib/AT32F435/drivers/src/at32f435_437_spi.c ****   *         this parameter can be one of the following values:
 285:HW_Lib/AT32F435/drivers/src/at32f435_437_spi.c ****   *         SPI1, SPI2, SPI3 ,SPI4
 286:HW_Lib/AT32F435/drivers/src/at32f435_437_spi.c ****   * @param  bit_num: set the data frame size
 287:HW_Lib/AT32F435/drivers/src/at32f435_437_spi.c ****   *         - SPI_FRAME_8BIT
 288:HW_Lib/AT32F435/drivers/src/at32f435_437_spi.c ****   *         - SPI_FRAME_16BIT
 289:HW_Lib/AT32F435/drivers/src/at32f435_437_spi.c ****   * @retval none
 290:HW_Lib/AT32F435/drivers/src/at32f435_437_spi.c ****   */
 291:HW_Lib/AT32F435/drivers/src/at32f435_437_spi.c **** void spi_frame_bit_num_set(spi_type* spi_x, spi_frame_bit_num_type bit_num)
 292:HW_Lib/AT32F435/drivers/src/at32f435_437_spi.c **** {
 656              		.loc 1 292 1 is_stmt 1 view -0
 657              		.cfi_startproc
 658              		@ args = 0, pretend = 0, frame = 0
 659              		@ frame_needed = 0, uses_anonymous_args = 0
 660              		@ link register save eliminated.
 293:HW_Lib/AT32F435/drivers/src/at32f435_437_spi.c ****   spi_x->ctrl1_bit.fbn = bit_num;
 661              		.loc 1 293 3 view .LVU171
 662              		.loc 1 293 24 is_stmt 0 view .LVU172
 663 0000 0368     		ldr	r3, [r0]
 664 0002 61F3CB23 		bfi	r3, r1, #11, #1
 665 0006 0360     		str	r3, [r0]
 294:HW_Lib/AT32F435/drivers/src/at32f435_437_spi.c **** }
 666              		.loc 1 294 1 view .LVU173
 667 0008 7047     		bx	lr
 668              		.cfi_endproc
 669              	.LFE144:
 671              		.section	.text.spi_half_duplex_direction_set,"ax",%progbits
 672              		.align	1
 673              		.global	spi_half_duplex_direction_set
 674              		.syntax unified
 675              		.thumb
 676              		.thumb_func
 678              	spi_half_duplex_direction_set:
 679              	.LVL34:
 680              	.LFB145:
 295:HW_Lib/AT32F435/drivers/src/at32f435_437_spi.c **** 
 296:HW_Lib/AT32F435/drivers/src/at32f435_437_spi.c **** /**
 297:HW_Lib/AT32F435/drivers/src/at32f435_437_spi.c ****   * @brief  set the data transmission direction in single line bidirectiona half duplex mode of the
 298:HW_Lib/AT32F435/drivers/src/at32f435_437_spi.c ****   * @param  spi_x: select the spi peripheral.
 299:HW_Lib/AT32F435/drivers/src/at32f435_437_spi.c ****   *         this parameter can be one of the following values:
 300:HW_Lib/AT32F435/drivers/src/at32f435_437_spi.c ****   *         SPI1, SPI2, SPI3 ,SPI4
 301:HW_Lib/AT32F435/drivers/src/at32f435_437_spi.c ****   * @param  direction: data transfer direction
 302:HW_Lib/AT32F435/drivers/src/at32f435_437_spi.c ****   *         this parameter can be one of the following values:
 303:HW_Lib/AT32F435/drivers/src/at32f435_437_spi.c ****   *         - SPI_HALF_DUPLEX_DIRECTION_RX
 304:HW_Lib/AT32F435/drivers/src/at32f435_437_spi.c ****   *         - SPI_HALF_DUPLEX_DIRECTION_TX
 305:HW_Lib/AT32F435/drivers/src/at32f435_437_spi.c ****   * @retval none
 306:HW_Lib/AT32F435/drivers/src/at32f435_437_spi.c ****   */
 307:HW_Lib/AT32F435/drivers/src/at32f435_437_spi.c **** void spi_half_duplex_direction_set(spi_type* spi_x, spi_half_duplex_direction_type direction)
 308:HW_Lib/AT32F435/drivers/src/at32f435_437_spi.c **** {
 681              		.loc 1 308 1 is_stmt 1 view -0
 682              		.cfi_startproc
 683              		@ args = 0, pretend = 0, frame = 0
 684              		@ frame_needed = 0, uses_anonymous_args = 0
 685              		@ link register save eliminated.
ARM GAS  C:\Users\8bit\AppData\Local\Temp\cc28Qo3v.s 			page 19


 309:HW_Lib/AT32F435/drivers/src/at32f435_437_spi.c ****     spi_x->ctrl1_bit.slbtd = direction;
 686              		.loc 1 309 5 view .LVU175
 687              		.loc 1 309 28 is_stmt 0 view .LVU176
 688 0000 0368     		ldr	r3, [r0]
 689 0002 61F38E33 		bfi	r3, r1, #14, #1
 690 0006 0360     		str	r3, [r0]
 310:HW_Lib/AT32F435/drivers/src/at32f435_437_spi.c **** }
 691              		.loc 1 310 1 view .LVU177
 692 0008 7047     		bx	lr
 693              		.cfi_endproc
 694              	.LFE145:
 696              		.section	.text.spi_enable,"ax",%progbits
 697              		.align	1
 698              		.global	spi_enable
 699              		.syntax unified
 700              		.thumb
 701              		.thumb_func
 703              	spi_enable:
 704              	.LVL35:
 705              	.LFB146:
 311:HW_Lib/AT32F435/drivers/src/at32f435_437_spi.c **** 
 312:HW_Lib/AT32F435/drivers/src/at32f435_437_spi.c **** /**
 313:HW_Lib/AT32F435/drivers/src/at32f435_437_spi.c ****   * @brief  enable or disable spi.
 314:HW_Lib/AT32F435/drivers/src/at32f435_437_spi.c ****   * @param  spi_x: select the spi peripheral.
 315:HW_Lib/AT32F435/drivers/src/at32f435_437_spi.c ****   *         this parameter can be one of the following values:
 316:HW_Lib/AT32F435/drivers/src/at32f435_437_spi.c ****   *         SPI1, SPI2, SPI3 ,SPI4
 317:HW_Lib/AT32F435/drivers/src/at32f435_437_spi.c ****   * @param  new_state: new state of spi.
 318:HW_Lib/AT32F435/drivers/src/at32f435_437_spi.c ****   *         this parameter can be: TRUE or FALSE.
 319:HW_Lib/AT32F435/drivers/src/at32f435_437_spi.c ****   * @retval none
 320:HW_Lib/AT32F435/drivers/src/at32f435_437_spi.c ****   */
 321:HW_Lib/AT32F435/drivers/src/at32f435_437_spi.c **** void spi_enable(spi_type* spi_x, confirm_state new_state)
 322:HW_Lib/AT32F435/drivers/src/at32f435_437_spi.c **** {
 706              		.loc 1 322 1 is_stmt 1 view -0
 707              		.cfi_startproc
 708              		@ args = 0, pretend = 0, frame = 0
 709              		@ frame_needed = 0, uses_anonymous_args = 0
 710              		@ link register save eliminated.
 323:HW_Lib/AT32F435/drivers/src/at32f435_437_spi.c ****   spi_x->ctrl1_bit.spien = new_state;
 711              		.loc 1 323 3 view .LVU179
 712              		.loc 1 323 26 is_stmt 0 view .LVU180
 713 0000 0368     		ldr	r3, [r0]
 714 0002 61F38613 		bfi	r3, r1, #6, #1
 715 0006 0360     		str	r3, [r0]
 324:HW_Lib/AT32F435/drivers/src/at32f435_437_spi.c **** }
 716              		.loc 1 324 1 view .LVU181
 717 0008 7047     		bx	lr
 718              		.cfi_endproc
 719              	.LFE146:
 721              		.section	.text.i2s_default_para_init,"ax",%progbits
 722              		.align	1
 723              		.global	i2s_default_para_init
 724              		.syntax unified
 725              		.thumb
 726              		.thumb_func
 728              	i2s_default_para_init:
 729              	.LVL36:
 730              	.LFB147:
ARM GAS  C:\Users\8bit\AppData\Local\Temp\cc28Qo3v.s 			page 20


 325:HW_Lib/AT32F435/drivers/src/at32f435_437_spi.c **** 
 326:HW_Lib/AT32F435/drivers/src/at32f435_437_spi.c **** /**
 327:HW_Lib/AT32F435/drivers/src/at32f435_437_spi.c ****   * @brief  i2s init config with its default value.
 328:HW_Lib/AT32F435/drivers/src/at32f435_437_spi.c ****   * @param  i2s_init_struct : pointer to a i2s_init_type structure which will
 329:HW_Lib/AT32F435/drivers/src/at32f435_437_spi.c ****   *         be initialized.
 330:HW_Lib/AT32F435/drivers/src/at32f435_437_spi.c ****   * @retval none
 331:HW_Lib/AT32F435/drivers/src/at32f435_437_spi.c ****   */
 332:HW_Lib/AT32F435/drivers/src/at32f435_437_spi.c **** void i2s_default_para_init(i2s_init_type* i2s_init_struct)
 333:HW_Lib/AT32F435/drivers/src/at32f435_437_spi.c **** {
 731              		.loc 1 333 1 is_stmt 1 view -0
 732              		.cfi_startproc
 733              		@ args = 0, pretend = 0, frame = 0
 734              		@ frame_needed = 0, uses_anonymous_args = 0
 735              		@ link register save eliminated.
 334:HW_Lib/AT32F435/drivers/src/at32f435_437_spi.c ****   i2s_init_struct->operation_mode = I2S_MODE_SLAVE_TX;
 736              		.loc 1 334 3 view .LVU183
 737              		.loc 1 334 35 is_stmt 0 view .LVU184
 738 0000 0023     		movs	r3, #0
 739 0002 0370     		strb	r3, [r0]
 335:HW_Lib/AT32F435/drivers/src/at32f435_437_spi.c ****   i2s_init_struct->audio_protocol = I2S_AUDIO_PROTOCOL_PHILLIPS;
 740              		.loc 1 335 3 is_stmt 1 view .LVU185
 741              		.loc 1 335 35 is_stmt 0 view .LVU186
 742 0004 4370     		strb	r3, [r0, #1]
 336:HW_Lib/AT32F435/drivers/src/at32f435_437_spi.c ****   i2s_init_struct->audio_sampling_freq = I2S_AUDIO_FREQUENCY_DEFAULT;
 743              		.loc 1 336 3 is_stmt 1 view .LVU187
 744              		.loc 1 336 40 is_stmt 0 view .LVU188
 745 0006 0222     		movs	r2, #2
 746 0008 4260     		str	r2, [r0, #4]
 337:HW_Lib/AT32F435/drivers/src/at32f435_437_spi.c ****   i2s_init_struct->data_channel_format = I2S_DATA_16BIT_CHANNEL_16BIT;
 747              		.loc 1 337 3 is_stmt 1 view .LVU189
 748              		.loc 1 337 40 is_stmt 0 view .LVU190
 749 000a 0122     		movs	r2, #1
 750 000c 0272     		strb	r2, [r0, #8]
 338:HW_Lib/AT32F435/drivers/src/at32f435_437_spi.c ****   i2s_init_struct->clock_polarity = I2S_CLOCK_POLARITY_LOW;
 751              		.loc 1 338 3 is_stmt 1 view .LVU191
 752              		.loc 1 338 35 is_stmt 0 view .LVU192
 753 000e 4372     		strb	r3, [r0, #9]
 339:HW_Lib/AT32F435/drivers/src/at32f435_437_spi.c ****   i2s_init_struct->mclk_output_enable = FALSE;
 754              		.loc 1 339 3 is_stmt 1 view .LVU193
 755              		.loc 1 339 39 is_stmt 0 view .LVU194
 756 0010 8372     		strb	r3, [r0, #10]
 340:HW_Lib/AT32F435/drivers/src/at32f435_437_spi.c **** }
 757              		.loc 1 340 1 view .LVU195
 758 0012 7047     		bx	lr
 759              		.cfi_endproc
 760              	.LFE147:
 762              		.section	.text.i2s_init,"ax",%progbits
 763              		.align	1
 764              		.global	i2s_init
 765              		.syntax unified
 766              		.thumb
 767              		.thumb_func
 769              	i2s_init:
 770              	.LVL37:
 771              	.LFB148:
 341:HW_Lib/AT32F435/drivers/src/at32f435_437_spi.c **** 
 342:HW_Lib/AT32F435/drivers/src/at32f435_437_spi.c **** /**
ARM GAS  C:\Users\8bit\AppData\Local\Temp\cc28Qo3v.s 			page 21


 343:HW_Lib/AT32F435/drivers/src/at32f435_437_spi.c ****   * @brief  i2s init config with its setting value.
 344:HW_Lib/AT32F435/drivers/src/at32f435_437_spi.c ****   * @param  spi_x: select the spi peripheral.
 345:HW_Lib/AT32F435/drivers/src/at32f435_437_spi.c ****   *         this parameter can be one of the following values:
 346:HW_Lib/AT32F435/drivers/src/at32f435_437_spi.c ****   *         SPI1, SPI2, SPI3 ,SPI4 , I2S2EXT, I2S3EXT
 347:HW_Lib/AT32F435/drivers/src/at32f435_437_spi.c ****   * @param  i2s_init_struct : pointer to a i2s_init_type structure which will be initialized.
 348:HW_Lib/AT32F435/drivers/src/at32f435_437_spi.c ****   * @retval none
 349:HW_Lib/AT32F435/drivers/src/at32f435_437_spi.c ****   */
 350:HW_Lib/AT32F435/drivers/src/at32f435_437_spi.c **** void i2s_init(spi_type* spi_x, i2s_init_type* i2s_init_struct)
 351:HW_Lib/AT32F435/drivers/src/at32f435_437_spi.c **** {
 772              		.loc 1 351 1 is_stmt 1 view -0
 773              		.cfi_startproc
 774              		@ args = 0, pretend = 0, frame = 16
 775              		@ frame_needed = 0, uses_anonymous_args = 0
 776              		.loc 1 351 1 is_stmt 0 view .LVU197
 777 0000 30B5     		push	{r4, r5, lr}
 778              	.LCFI1:
 779              		.cfi_def_cfa_offset 12
 780              		.cfi_offset 4, -12
 781              		.cfi_offset 5, -8
 782              		.cfi_offset 14, -4
 783 0002 85B0     		sub	sp, sp, #20
 784              	.LCFI2:
 785              		.cfi_def_cfa_offset 32
 786 0004 0446     		mov	r4, r0
 787 0006 0D46     		mov	r5, r1
 352:HW_Lib/AT32F435/drivers/src/at32f435_437_spi.c ****   crm_clocks_freq_type clocks_freq;
 788              		.loc 1 352 3 is_stmt 1 view .LVU198
 353:HW_Lib/AT32F435/drivers/src/at32f435_437_spi.c ****   uint32_t i2s_sclk_index = 0;
 789              		.loc 1 353 3 view .LVU199
 790              	.LVL38:
 354:HW_Lib/AT32F435/drivers/src/at32f435_437_spi.c ****   uint32_t i2sdiv_index = 2, i2sodd_index = 0, frequency_index = 0;
 791              		.loc 1 354 3 view .LVU200
 355:HW_Lib/AT32F435/drivers/src/at32f435_437_spi.c **** 
 356:HW_Lib/AT32F435/drivers/src/at32f435_437_spi.c ****   /* i2s audio frequency config */
 357:HW_Lib/AT32F435/drivers/src/at32f435_437_spi.c ****   if(i2s_init_struct->audio_sampling_freq == I2S_AUDIO_FREQUENCY_DEFAULT)
 792              		.loc 1 357 3 view .LVU201
 793              		.loc 1 357 21 is_stmt 0 view .LVU202
 794 0008 4B68     		ldr	r3, [r1, #4]
 795              		.loc 1 357 5 view .LVU203
 796 000a 022B     		cmp	r3, #2
 797 000c 37D1     		bne	.L65
 354:HW_Lib/AT32F435/drivers/src/at32f435_437_spi.c ****   uint32_t i2sdiv_index = 2, i2sodd_index = 0, frequency_index = 0;
 798              		.loc 1 354 48 view .LVU204
 799 000e 0023     		movs	r3, #0
 800              	.LVL39:
 801              	.L44:
 358:HW_Lib/AT32F435/drivers/src/at32f435_437_spi.c ****   {
 359:HW_Lib/AT32F435/drivers/src/at32f435_437_spi.c ****     i2sodd_index = 0;
 360:HW_Lib/AT32F435/drivers/src/at32f435_437_spi.c ****     i2sdiv_index = 2;
 361:HW_Lib/AT32F435/drivers/src/at32f435_437_spi.c ****   }
 362:HW_Lib/AT32F435/drivers/src/at32f435_437_spi.c ****   else
 363:HW_Lib/AT32F435/drivers/src/at32f435_437_spi.c ****   {
 364:HW_Lib/AT32F435/drivers/src/at32f435_437_spi.c ****     crm_clocks_freq_get(&clocks_freq);
 365:HW_Lib/AT32F435/drivers/src/at32f435_437_spi.c ****     i2s_sclk_index = clocks_freq.sclk_freq;
 366:HW_Lib/AT32F435/drivers/src/at32f435_437_spi.c ****     if((i2s_init_struct->audio_protocol == I2S_AUDIO_PROTOCOL_PCM_SHORT) || (i2s_init_struct->audio
 367:HW_Lib/AT32F435/drivers/src/at32f435_437_spi.c ****     {
 368:HW_Lib/AT32F435/drivers/src/at32f435_437_spi.c ****       if(i2s_init_struct->mclk_output_enable == TRUE)
ARM GAS  C:\Users\8bit\AppData\Local\Temp\cc28Qo3v.s 			page 22


 369:HW_Lib/AT32F435/drivers/src/at32f435_437_spi.c ****       {
 370:HW_Lib/AT32F435/drivers/src/at32f435_437_spi.c ****         frequency_index = (((i2s_sclk_index / 128) * 10) / i2s_init_struct->audio_sampling_freq) + 
 371:HW_Lib/AT32F435/drivers/src/at32f435_437_spi.c ****       }
 372:HW_Lib/AT32F435/drivers/src/at32f435_437_spi.c ****       else
 373:HW_Lib/AT32F435/drivers/src/at32f435_437_spi.c ****       {
 374:HW_Lib/AT32F435/drivers/src/at32f435_437_spi.c ****         if(i2s_init_struct->data_channel_format == I2S_DATA_16BIT_CHANNEL_16BIT)
 375:HW_Lib/AT32F435/drivers/src/at32f435_437_spi.c ****           frequency_index = (((i2s_sclk_index / 16) * 10) / i2s_init_struct->audio_sampling_freq) +
 376:HW_Lib/AT32F435/drivers/src/at32f435_437_spi.c ****         else
 377:HW_Lib/AT32F435/drivers/src/at32f435_437_spi.c ****           frequency_index = (((i2s_sclk_index / 32) * 10) / i2s_init_struct->audio_sampling_freq) +
 378:HW_Lib/AT32F435/drivers/src/at32f435_437_spi.c ****       }
 379:HW_Lib/AT32F435/drivers/src/at32f435_437_spi.c ****     }
 380:HW_Lib/AT32F435/drivers/src/at32f435_437_spi.c ****     else
 381:HW_Lib/AT32F435/drivers/src/at32f435_437_spi.c ****     {
 382:HW_Lib/AT32F435/drivers/src/at32f435_437_spi.c ****       if(i2s_init_struct->mclk_output_enable == TRUE)
 383:HW_Lib/AT32F435/drivers/src/at32f435_437_spi.c ****       {
 384:HW_Lib/AT32F435/drivers/src/at32f435_437_spi.c ****         frequency_index = (((i2s_sclk_index / 256) * 10) / i2s_init_struct->audio_sampling_freq) + 
 385:HW_Lib/AT32F435/drivers/src/at32f435_437_spi.c ****       }
 386:HW_Lib/AT32F435/drivers/src/at32f435_437_spi.c ****       else
 387:HW_Lib/AT32F435/drivers/src/at32f435_437_spi.c ****       {
 388:HW_Lib/AT32F435/drivers/src/at32f435_437_spi.c ****         if(i2s_init_struct->data_channel_format == I2S_DATA_16BIT_CHANNEL_16BIT)
 389:HW_Lib/AT32F435/drivers/src/at32f435_437_spi.c ****           frequency_index = (((i2s_sclk_index / 32) * 10) / i2s_init_struct->audio_sampling_freq) +
 390:HW_Lib/AT32F435/drivers/src/at32f435_437_spi.c ****         else
 391:HW_Lib/AT32F435/drivers/src/at32f435_437_spi.c ****           frequency_index = (((i2s_sclk_index / 64) * 10) / i2s_init_struct->audio_sampling_freq) +
 392:HW_Lib/AT32F435/drivers/src/at32f435_437_spi.c ****       }
 393:HW_Lib/AT32F435/drivers/src/at32f435_437_spi.c ****     }
 394:HW_Lib/AT32F435/drivers/src/at32f435_437_spi.c ****   }
 395:HW_Lib/AT32F435/drivers/src/at32f435_437_spi.c ****   frequency_index = frequency_index / 10;
 802              		.loc 1 395 3 is_stmt 1 view .LVU205
 803              		.loc 1 395 19 is_stmt 0 view .LVU206
 804 0010 794A     		ldr	r2, .L78
 805 0012 A2FB0323 		umull	r2, r3, r2, r3
 806              	.LVL40:
 396:HW_Lib/AT32F435/drivers/src/at32f435_437_spi.c ****   i2sodd_index = frequency_index & (uint16_t)0x0001;
 807              		.loc 1 396 3 is_stmt 1 view .LVU207
 808              		.loc 1 396 16 is_stmt 0 view .LVU208
 809 0016 C3F3C002 		ubfx	r2, r3, #3, #1
 810              	.LVL41:
 397:HW_Lib/AT32F435/drivers/src/at32f435_437_spi.c ****   i2sdiv_index = (frequency_index - i2sodd_index) / 2;
 811              		.loc 1 397 3 is_stmt 1 view .LVU209
 812              		.loc 1 397 35 is_stmt 0 view .LVU210
 813 001a C2EBD303 		rsb	r3, r2, r3, lsr #3
 814              	.LVL42:
 815              		.loc 1 397 16 view .LVU211
 816 001e 5B08     		lsrs	r3, r3, #1
 817              	.LVL43:
 398:HW_Lib/AT32F435/drivers/src/at32f435_437_spi.c ****   if((i2sdiv_index < 2) || (i2sdiv_index > 0x03FF))
 818              		.loc 1 398 3 is_stmt 1 view .LVU212
 819              		.loc 1 398 25 is_stmt 0 view .LVU213
 820 0020 981E     		subs	r0, r3, #2
 821              		.loc 1 398 5 view .LVU214
 822 0022 40F2FD31 		movw	r1, #1021
 823 0026 8842     		cmp	r0, r1
 824 0028 01D9     		bls	.L50
 399:HW_Lib/AT32F435/drivers/src/at32f435_437_spi.c ****   {
 400:HW_Lib/AT32F435/drivers/src/at32f435_437_spi.c ****     i2sodd_index = 0;
 825              		.loc 1 400 18 view .LVU215
 826 002a 0022     		movs	r2, #0
ARM GAS  C:\Users\8bit\AppData\Local\Temp\cc28Qo3v.s 			page 23


 827              	.LVL44:
 401:HW_Lib/AT32F435/drivers/src/at32f435_437_spi.c ****     i2sdiv_index = 2;
 828              		.loc 1 401 18 view .LVU216
 829 002c 0223     		movs	r3, #2
 830              	.LVL45:
 831              	.L50:
 402:HW_Lib/AT32F435/drivers/src/at32f435_437_spi.c ****   }
 403:HW_Lib/AT32F435/drivers/src/at32f435_437_spi.c ****   spi_x->i2sclk_bit.i2sodd = i2sodd_index;
 832              		.loc 1 403 3 is_stmt 1 view .LVU217
 833              		.loc 1 403 28 is_stmt 0 view .LVU218
 834 002e 216A     		ldr	r1, [r4, #32]
 835 0030 62F30821 		bfi	r1, r2, #8, #1
 836 0034 2162     		str	r1, [r4, #32]
 404:HW_Lib/AT32F435/drivers/src/at32f435_437_spi.c ****   if(i2sdiv_index > 0x00FF)
 837              		.loc 1 404 3 is_stmt 1 view .LVU219
 838              		.loc 1 404 5 is_stmt 0 view .LVU220
 839 0036 FF2B     		cmp	r3, #255
 840 0038 6CD9     		bls	.L51
 405:HW_Lib/AT32F435/drivers/src/at32f435_437_spi.c ****   {
 406:HW_Lib/AT32F435/drivers/src/at32f435_437_spi.c ****     spi_x->i2sclk_bit.i2sdiv_h = (i2sdiv_index >> 8) & 0x0003;
 841              		.loc 1 406 5 is_stmt 1 view .LVU221
 842              		.loc 1 406 54 is_stmt 0 view .LVU222
 843 003a C3F30121 		ubfx	r1, r3, #8, #2
 844              		.loc 1 406 32 view .LVU223
 845 003e 226A     		ldr	r2, [r4, #32]
 846              	.LVL46:
 847              		.loc 1 406 32 view .LVU224
 848 0040 61F38B22 		bfi	r2, r1, #10, #2
 849 0044 2262     		str	r2, [r4, #32]
 407:HW_Lib/AT32F435/drivers/src/at32f435_437_spi.c ****     spi_x->i2sclk_bit.i2sdiv_l = i2sdiv_index & 0x00FF;
 850              		.loc 1 407 5 is_stmt 1 view .LVU225
 851              		.loc 1 407 32 is_stmt 0 view .LVU226
 852 0046 DBB2     		uxtb	r3, r3
 853              	.LVL47:
 854              		.loc 1 407 32 view .LVU227
 855 0048 226A     		ldr	r2, [r4, #32]
 856 004a 63F30702 		bfi	r2, r3, #0, #8
 857 004e 2262     		str	r2, [r4, #32]
 858              	.L52:
 408:HW_Lib/AT32F435/drivers/src/at32f435_437_spi.c ****   }
 409:HW_Lib/AT32F435/drivers/src/at32f435_437_spi.c ****   else
 410:HW_Lib/AT32F435/drivers/src/at32f435_437_spi.c ****   {
 411:HW_Lib/AT32F435/drivers/src/at32f435_437_spi.c ****     spi_x->i2sclk_bit.i2sdiv_h = 0;
 412:HW_Lib/AT32F435/drivers/src/at32f435_437_spi.c ****     spi_x->i2sclk_bit.i2sdiv_l = i2sdiv_index;
 413:HW_Lib/AT32F435/drivers/src/at32f435_437_spi.c ****   }
 414:HW_Lib/AT32F435/drivers/src/at32f435_437_spi.c **** 
 415:HW_Lib/AT32F435/drivers/src/at32f435_437_spi.c ****   /* i2s audio_protocol set*/
 416:HW_Lib/AT32F435/drivers/src/at32f435_437_spi.c ****   if(i2s_init_struct->audio_protocol == I2S_AUDIO_PROTOCOL_PCM_LONG)
 859              		.loc 1 416 3 is_stmt 1 view .LVU228
 860              		.loc 1 416 21 is_stmt 0 view .LVU229
 861 0050 6B78     		ldrb	r3, [r5, #1]	@ zero_extendqisi2
 862              		.loc 1 416 5 view .LVU230
 863 0052 042B     		cmp	r3, #4
 864 0054 68D0     		beq	.L66
 417:HW_Lib/AT32F435/drivers/src/at32f435_437_spi.c ****   {
 418:HW_Lib/AT32F435/drivers/src/at32f435_437_spi.c ****     spi_x->i2sctrl_bit.pcmfssel = 1;
 419:HW_Lib/AT32F435/drivers/src/at32f435_437_spi.c ****     spi_x->i2sctrl_bit.stdsel = 3;
ARM GAS  C:\Users\8bit\AppData\Local\Temp\cc28Qo3v.s 			page 24


 420:HW_Lib/AT32F435/drivers/src/at32f435_437_spi.c ****   }
 421:HW_Lib/AT32F435/drivers/src/at32f435_437_spi.c ****   else if(i2s_init_struct->audio_protocol == I2S_AUDIO_PROTOCOL_PCM_SHORT)
 865              		.loc 1 421 8 is_stmt 1 view .LVU231
 866              		.loc 1 421 10 is_stmt 0 view .LVU232
 867 0056 032B     		cmp	r3, #3
 868 0058 00F08180 		beq	.L67
 422:HW_Lib/AT32F435/drivers/src/at32f435_437_spi.c ****   {
 423:HW_Lib/AT32F435/drivers/src/at32f435_437_spi.c ****     spi_x->i2sctrl_bit.pcmfssel = 0;
 424:HW_Lib/AT32F435/drivers/src/at32f435_437_spi.c ****     spi_x->i2sctrl_bit.stdsel = 3;
 425:HW_Lib/AT32F435/drivers/src/at32f435_437_spi.c ****   }
 426:HW_Lib/AT32F435/drivers/src/at32f435_437_spi.c ****   else if(i2s_init_struct->audio_protocol == I2S_AUDIO_PROTOCOL_LSB)
 869              		.loc 1 426 8 is_stmt 1 view .LVU233
 870              		.loc 1 426 10 is_stmt 0 view .LVU234
 871 005c 022B     		cmp	r3, #2
 872 005e 00F08780 		beq	.L68
 427:HW_Lib/AT32F435/drivers/src/at32f435_437_spi.c ****   {
 428:HW_Lib/AT32F435/drivers/src/at32f435_437_spi.c ****     spi_x->i2sctrl_bit.pcmfssel = 0;
 429:HW_Lib/AT32F435/drivers/src/at32f435_437_spi.c ****     spi_x->i2sctrl_bit.stdsel = 2;
 430:HW_Lib/AT32F435/drivers/src/at32f435_437_spi.c ****   }
 431:HW_Lib/AT32F435/drivers/src/at32f435_437_spi.c ****   else if(i2s_init_struct->audio_protocol == I2S_AUDIO_PROTOCOL_MSB)
 873              		.loc 1 431 8 is_stmt 1 view .LVU235
 874              		.loc 1 431 10 is_stmt 0 view .LVU236
 875 0062 012B     		cmp	r3, #1
 876 0064 00F08E80 		beq	.L69
 432:HW_Lib/AT32F435/drivers/src/at32f435_437_spi.c ****   {
 433:HW_Lib/AT32F435/drivers/src/at32f435_437_spi.c ****     spi_x->i2sctrl_bit.pcmfssel = 0;
 434:HW_Lib/AT32F435/drivers/src/at32f435_437_spi.c ****     spi_x->i2sctrl_bit.stdsel = 1;
 435:HW_Lib/AT32F435/drivers/src/at32f435_437_spi.c ****   }
 436:HW_Lib/AT32F435/drivers/src/at32f435_437_spi.c ****   else if(i2s_init_struct->audio_protocol == I2S_AUDIO_PROTOCOL_PHILLIPS)
 877              		.loc 1 436 8 is_stmt 1 view .LVU237
 878              		.loc 1 436 10 is_stmt 0 view .LVU238
 879 0068 002B     		cmp	r3, #0
 880 006a 65D1     		bne	.L54
 437:HW_Lib/AT32F435/drivers/src/at32f435_437_spi.c ****   {
 438:HW_Lib/AT32F435/drivers/src/at32f435_437_spi.c ****     spi_x->i2sctrl_bit.pcmfssel = 0;
 881              		.loc 1 438 5 is_stmt 1 view .LVU239
 882              		.loc 1 438 33 is_stmt 0 view .LVU240
 883 006c E369     		ldr	r3, [r4, #28]
 884 006e 6FF3C713 		bfc	r3, #7, #1
 885 0072 E361     		str	r3, [r4, #28]
 439:HW_Lib/AT32F435/drivers/src/at32f435_437_spi.c ****     spi_x->i2sctrl_bit.stdsel = 0;
 886              		.loc 1 439 5 is_stmt 1 view .LVU241
 887              		.loc 1 439 31 is_stmt 0 view .LVU242
 888 0074 E369     		ldr	r3, [r4, #28]
 889 0076 6FF30513 		bfc	r3, #4, #2
 890 007a E361     		str	r3, [r4, #28]
 891 007c 5CE0     		b	.L54
 892              	.LVL48:
 893              	.L65:
 364:HW_Lib/AT32F435/drivers/src/at32f435_437_spi.c ****     i2s_sclk_index = clocks_freq.sclk_freq;
 894              		.loc 1 364 5 is_stmt 1 view .LVU243
 895 007e 6846     		mov	r0, sp
 896              	.LVL49:
 364:HW_Lib/AT32F435/drivers/src/at32f435_437_spi.c ****     i2s_sclk_index = clocks_freq.sclk_freq;
 897              		.loc 1 364 5 is_stmt 0 view .LVU244
 898 0080 FFF7FEFF 		bl	crm_clocks_freq_get
 899              	.LVL50:
ARM GAS  C:\Users\8bit\AppData\Local\Temp\cc28Qo3v.s 			page 25


 365:HW_Lib/AT32F435/drivers/src/at32f435_437_spi.c ****     if((i2s_init_struct->audio_protocol == I2S_AUDIO_PROTOCOL_PCM_SHORT) || (i2s_init_struct->audio
 900              		.loc 1 365 5 is_stmt 1 view .LVU245
 365:HW_Lib/AT32F435/drivers/src/at32f435_437_spi.c ****     if((i2s_init_struct->audio_protocol == I2S_AUDIO_PROTOCOL_PCM_SHORT) || (i2s_init_struct->audio
 901              		.loc 1 365 20 is_stmt 0 view .LVU246
 902 0084 009B     		ldr	r3, [sp]
 903              	.LVL51:
 366:HW_Lib/AT32F435/drivers/src/at32f435_437_spi.c ****     {
 904              		.loc 1 366 5 is_stmt 1 view .LVU247
 366:HW_Lib/AT32F435/drivers/src/at32f435_437_spi.c ****     {
 905              		.loc 1 366 24 is_stmt 0 view .LVU248
 906 0086 6A78     		ldrb	r2, [r5, #1]	@ zero_extendqisi2
 366:HW_Lib/AT32F435/drivers/src/at32f435_437_spi.c ****     {
 907              		.loc 1 366 74 view .LVU249
 908 0088 033A     		subs	r2, r2, #3
 909 008a D2B2     		uxtb	r2, r2
 366:HW_Lib/AT32F435/drivers/src/at32f435_437_spi.c ****     {
 910              		.loc 1 366 7 view .LVU250
 911 008c 012A     		cmp	r2, #1
 912 008e 0ED9     		bls	.L70
 382:HW_Lib/AT32F435/drivers/src/at32f435_437_spi.c ****       {
 913              		.loc 1 382 7 is_stmt 1 view .LVU251
 382:HW_Lib/AT32F435/drivers/src/at32f435_437_spi.c ****       {
 914              		.loc 1 382 25 is_stmt 0 view .LVU252
 915 0090 AA7A     		ldrb	r2, [r5, #10]	@ zero_extendqisi2
 382:HW_Lib/AT32F435/drivers/src/at32f435_437_spi.c ****       {
 916              		.loc 1 382 9 view .LVU253
 917 0092 012A     		cmp	r2, #1
 918 0094 2CD0     		beq	.L71
 388:HW_Lib/AT32F435/drivers/src/at32f435_437_spi.c ****           frequency_index = (((i2s_sclk_index / 32) * 10) / i2s_init_struct->audio_sampling_freq) +
 919              		.loc 1 388 9 is_stmt 1 view .LVU254
 388:HW_Lib/AT32F435/drivers/src/at32f435_437_spi.c ****           frequency_index = (((i2s_sclk_index / 32) * 10) / i2s_init_struct->audio_sampling_freq) +
 920              		.loc 1 388 27 is_stmt 0 view .LVU255
 921 0096 2A7A     		ldrb	r2, [r5, #8]	@ zero_extendqisi2
 388:HW_Lib/AT32F435/drivers/src/at32f435_437_spi.c ****           frequency_index = (((i2s_sclk_index / 32) * 10) / i2s_init_struct->audio_sampling_freq) +
 922              		.loc 1 388 11 view .LVU256
 923 0098 012A     		cmp	r2, #1
 924 009a 32D0     		beq	.L72
 391:HW_Lib/AT32F435/drivers/src/at32f435_437_spi.c ****       }
 925              		.loc 1 391 11 is_stmt 1 view .LVU257
 391:HW_Lib/AT32F435/drivers/src/at32f435_437_spi.c ****       }
 926              		.loc 1 391 47 is_stmt 0 view .LVU258
 927 009c 9B09     		lsrs	r3, r3, #6
 928              	.LVL52:
 391:HW_Lib/AT32F435/drivers/src/at32f435_437_spi.c ****       }
 929              		.loc 1 391 53 view .LVU259
 930 009e 03EB8303 		add	r3, r3, r3, lsl #2
 931 00a2 5B00     		lsls	r3, r3, #1
 391:HW_Lib/AT32F435/drivers/src/at32f435_437_spi.c ****       }
 932              		.loc 1 391 76 view .LVU260
 933 00a4 6A68     		ldr	r2, [r5, #4]
 391:HW_Lib/AT32F435/drivers/src/at32f435_437_spi.c ****       }
 934              		.loc 1 391 59 view .LVU261
 935 00a6 B3FBF2F3 		udiv	r3, r3, r2
 391:HW_Lib/AT32F435/drivers/src/at32f435_437_spi.c ****       }
 936              		.loc 1 391 27 view .LVU262
 937 00aa 0533     		adds	r3, r3, #5
 938              	.LVL53:
ARM GAS  C:\Users\8bit\AppData\Local\Temp\cc28Qo3v.s 			page 26


 391:HW_Lib/AT32F435/drivers/src/at32f435_437_spi.c ****       }
 939              		.loc 1 391 27 view .LVU263
 940 00ac B0E7     		b	.L44
 941              	.LVL54:
 942              	.L70:
 368:HW_Lib/AT32F435/drivers/src/at32f435_437_spi.c ****       {
 943              		.loc 1 368 7 is_stmt 1 view .LVU264
 368:HW_Lib/AT32F435/drivers/src/at32f435_437_spi.c ****       {
 944              		.loc 1 368 25 is_stmt 0 view .LVU265
 945 00ae AA7A     		ldrb	r2, [r5, #10]	@ zero_extendqisi2
 368:HW_Lib/AT32F435/drivers/src/at32f435_437_spi.c ****       {
 946              		.loc 1 368 9 view .LVU266
 947 00b0 012A     		cmp	r2, #1
 948 00b2 0BD0     		beq	.L73
 374:HW_Lib/AT32F435/drivers/src/at32f435_437_spi.c ****           frequency_index = (((i2s_sclk_index / 16) * 10) / i2s_init_struct->audio_sampling_freq) +
 949              		.loc 1 374 9 is_stmt 1 view .LVU267
 374:HW_Lib/AT32F435/drivers/src/at32f435_437_spi.c ****           frequency_index = (((i2s_sclk_index / 16) * 10) / i2s_init_struct->audio_sampling_freq) +
 950              		.loc 1 374 27 is_stmt 0 view .LVU268
 951 00b4 2A7A     		ldrb	r2, [r5, #8]	@ zero_extendqisi2
 374:HW_Lib/AT32F435/drivers/src/at32f435_437_spi.c ****           frequency_index = (((i2s_sclk_index / 16) * 10) / i2s_init_struct->audio_sampling_freq) +
 952              		.loc 1 374 11 view .LVU269
 953 00b6 012A     		cmp	r2, #1
 954 00b8 11D0     		beq	.L74
 377:HW_Lib/AT32F435/drivers/src/at32f435_437_spi.c ****       }
 955              		.loc 1 377 11 is_stmt 1 view .LVU270
 377:HW_Lib/AT32F435/drivers/src/at32f435_437_spi.c ****       }
 956              		.loc 1 377 47 is_stmt 0 view .LVU271
 957 00ba 5B09     		lsrs	r3, r3, #5
 958              	.LVL55:
 377:HW_Lib/AT32F435/drivers/src/at32f435_437_spi.c ****       }
 959              		.loc 1 377 53 view .LVU272
 960 00bc 03EB8303 		add	r3, r3, r3, lsl #2
 961 00c0 5B00     		lsls	r3, r3, #1
 377:HW_Lib/AT32F435/drivers/src/at32f435_437_spi.c ****       }
 962              		.loc 1 377 76 view .LVU273
 963 00c2 6A68     		ldr	r2, [r5, #4]
 377:HW_Lib/AT32F435/drivers/src/at32f435_437_spi.c ****       }
 964              		.loc 1 377 59 view .LVU274
 965 00c4 B3FBF2F3 		udiv	r3, r3, r2
 377:HW_Lib/AT32F435/drivers/src/at32f435_437_spi.c ****       }
 966              		.loc 1 377 27 view .LVU275
 967 00c8 0533     		adds	r3, r3, #5
 968              	.LVL56:
 377:HW_Lib/AT32F435/drivers/src/at32f435_437_spi.c ****       }
 969              		.loc 1 377 27 view .LVU276
 970 00ca A1E7     		b	.L44
 971              	.LVL57:
 972              	.L73:
 370:HW_Lib/AT32F435/drivers/src/at32f435_437_spi.c ****       }
 973              		.loc 1 370 9 is_stmt 1 view .LVU277
 370:HW_Lib/AT32F435/drivers/src/at32f435_437_spi.c ****       }
 974              		.loc 1 370 45 is_stmt 0 view .LVU278
 975 00cc DB09     		lsrs	r3, r3, #7
 976              	.LVL58:
 370:HW_Lib/AT32F435/drivers/src/at32f435_437_spi.c ****       }
 977              		.loc 1 370 52 view .LVU279
 978 00ce 03EB8303 		add	r3, r3, r3, lsl #2
ARM GAS  C:\Users\8bit\AppData\Local\Temp\cc28Qo3v.s 			page 27


 979 00d2 5B00     		lsls	r3, r3, #1
 370:HW_Lib/AT32F435/drivers/src/at32f435_437_spi.c ****       }
 980              		.loc 1 370 75 view .LVU280
 981 00d4 6A68     		ldr	r2, [r5, #4]
 370:HW_Lib/AT32F435/drivers/src/at32f435_437_spi.c ****       }
 982              		.loc 1 370 58 view .LVU281
 983 00d6 B3FBF2F3 		udiv	r3, r3, r2
 370:HW_Lib/AT32F435/drivers/src/at32f435_437_spi.c ****       }
 984              		.loc 1 370 25 view .LVU282
 985 00da 0533     		adds	r3, r3, #5
 986              	.LVL59:
 370:HW_Lib/AT32F435/drivers/src/at32f435_437_spi.c ****       }
 987              		.loc 1 370 25 view .LVU283
 988 00dc 98E7     		b	.L44
 989              	.LVL60:
 990              	.L74:
 375:HW_Lib/AT32F435/drivers/src/at32f435_437_spi.c ****         else
 991              		.loc 1 375 11 is_stmt 1 view .LVU284
 375:HW_Lib/AT32F435/drivers/src/at32f435_437_spi.c ****         else
 992              		.loc 1 375 47 is_stmt 0 view .LVU285
 993 00de 1B09     		lsrs	r3, r3, #4
 994              	.LVL61:
 375:HW_Lib/AT32F435/drivers/src/at32f435_437_spi.c ****         else
 995              		.loc 1 375 53 view .LVU286
 996 00e0 03EB8303 		add	r3, r3, r3, lsl #2
 997 00e4 5B00     		lsls	r3, r3, #1
 375:HW_Lib/AT32F435/drivers/src/at32f435_437_spi.c ****         else
 998              		.loc 1 375 76 view .LVU287
 999 00e6 6A68     		ldr	r2, [r5, #4]
 375:HW_Lib/AT32F435/drivers/src/at32f435_437_spi.c ****         else
 1000              		.loc 1 375 59 view .LVU288
 1001 00e8 B3FBF2F3 		udiv	r3, r3, r2
 375:HW_Lib/AT32F435/drivers/src/at32f435_437_spi.c ****         else
 1002              		.loc 1 375 27 view .LVU289
 1003 00ec 0533     		adds	r3, r3, #5
 1004              	.LVL62:
 375:HW_Lib/AT32F435/drivers/src/at32f435_437_spi.c ****         else
 1005              		.loc 1 375 27 view .LVU290
 1006 00ee 8FE7     		b	.L44
 1007              	.LVL63:
 1008              	.L71:
 384:HW_Lib/AT32F435/drivers/src/at32f435_437_spi.c ****       }
 1009              		.loc 1 384 9 is_stmt 1 view .LVU291
 384:HW_Lib/AT32F435/drivers/src/at32f435_437_spi.c ****       }
 1010              		.loc 1 384 45 is_stmt 0 view .LVU292
 1011 00f0 1B0A     		lsrs	r3, r3, #8
 1012              	.LVL64:
 384:HW_Lib/AT32F435/drivers/src/at32f435_437_spi.c ****       }
 1013              		.loc 1 384 52 view .LVU293
 1014 00f2 03EB8303 		add	r3, r3, r3, lsl #2
 1015 00f6 5B00     		lsls	r3, r3, #1
 384:HW_Lib/AT32F435/drivers/src/at32f435_437_spi.c ****       }
 1016              		.loc 1 384 75 view .LVU294
 1017 00f8 6A68     		ldr	r2, [r5, #4]
 384:HW_Lib/AT32F435/drivers/src/at32f435_437_spi.c ****       }
 1018              		.loc 1 384 58 view .LVU295
 1019 00fa B3FBF2F3 		udiv	r3, r3, r2
ARM GAS  C:\Users\8bit\AppData\Local\Temp\cc28Qo3v.s 			page 28


 384:HW_Lib/AT32F435/drivers/src/at32f435_437_spi.c ****       }
 1020              		.loc 1 384 25 view .LVU296
 1021 00fe 0533     		adds	r3, r3, #5
 1022              	.LVL65:
 384:HW_Lib/AT32F435/drivers/src/at32f435_437_spi.c ****       }
 1023              		.loc 1 384 25 view .LVU297
 1024 0100 86E7     		b	.L44
 1025              	.LVL66:
 1026              	.L72:
 389:HW_Lib/AT32F435/drivers/src/at32f435_437_spi.c ****         else
 1027              		.loc 1 389 11 is_stmt 1 view .LVU298
 389:HW_Lib/AT32F435/drivers/src/at32f435_437_spi.c ****         else
 1028              		.loc 1 389 47 is_stmt 0 view .LVU299
 1029 0102 5B09     		lsrs	r3, r3, #5
 1030              	.LVL67:
 389:HW_Lib/AT32F435/drivers/src/at32f435_437_spi.c ****         else
 1031              		.loc 1 389 53 view .LVU300
 1032 0104 03EB8303 		add	r3, r3, r3, lsl #2
 1033 0108 5B00     		lsls	r3, r3, #1
 389:HW_Lib/AT32F435/drivers/src/at32f435_437_spi.c ****         else
 1034              		.loc 1 389 76 view .LVU301
 1035 010a 6A68     		ldr	r2, [r5, #4]
 389:HW_Lib/AT32F435/drivers/src/at32f435_437_spi.c ****         else
 1036              		.loc 1 389 59 view .LVU302
 1037 010c B3FBF2F3 		udiv	r3, r3, r2
 389:HW_Lib/AT32F435/drivers/src/at32f435_437_spi.c ****         else
 1038              		.loc 1 389 27 view .LVU303
 1039 0110 0533     		adds	r3, r3, #5
 1040              	.LVL68:
 389:HW_Lib/AT32F435/drivers/src/at32f435_437_spi.c ****         else
 1041              		.loc 1 389 27 view .LVU304
 1042 0112 7DE7     		b	.L44
 1043              	.LVL69:
 1044              	.L51:
 411:HW_Lib/AT32F435/drivers/src/at32f435_437_spi.c ****     spi_x->i2sclk_bit.i2sdiv_l = i2sdiv_index;
 1045              		.loc 1 411 5 is_stmt 1 view .LVU305
 411:HW_Lib/AT32F435/drivers/src/at32f435_437_spi.c ****     spi_x->i2sclk_bit.i2sdiv_l = i2sdiv_index;
 1046              		.loc 1 411 32 is_stmt 0 view .LVU306
 1047 0114 226A     		ldr	r2, [r4, #32]
 1048              	.LVL70:
 411:HW_Lib/AT32F435/drivers/src/at32f435_437_spi.c ****     spi_x->i2sclk_bit.i2sdiv_l = i2sdiv_index;
 1049              		.loc 1 411 32 view .LVU307
 1050 0116 6FF38B22 		bfc	r2, #10, #2
 1051 011a 2262     		str	r2, [r4, #32]
 412:HW_Lib/AT32F435/drivers/src/at32f435_437_spi.c ****   }
 1052              		.loc 1 412 5 is_stmt 1 view .LVU308
 412:HW_Lib/AT32F435/drivers/src/at32f435_437_spi.c ****   }
 1053              		.loc 1 412 32 is_stmt 0 view .LVU309
 1054 011c DBB2     		uxtb	r3, r3
 1055              	.LVL71:
 412:HW_Lib/AT32F435/drivers/src/at32f435_437_spi.c ****   }
 1056              		.loc 1 412 32 view .LVU310
 1057 011e 226A     		ldr	r2, [r4, #32]
 1058 0120 63F30702 		bfi	r2, r3, #0, #8
 1059 0124 2262     		str	r2, [r4, #32]
 1060 0126 93E7     		b	.L52
 1061              	.L66:
ARM GAS  C:\Users\8bit\AppData\Local\Temp\cc28Qo3v.s 			page 29


 418:HW_Lib/AT32F435/drivers/src/at32f435_437_spi.c ****     spi_x->i2sctrl_bit.stdsel = 3;
 1062              		.loc 1 418 5 is_stmt 1 view .LVU311
 418:HW_Lib/AT32F435/drivers/src/at32f435_437_spi.c ****     spi_x->i2sctrl_bit.stdsel = 3;
 1063              		.loc 1 418 33 is_stmt 0 view .LVU312
 1064 0128 E369     		ldr	r3, [r4, #28]
 1065 012a 43F08003 		orr	r3, r3, #128
 1066 012e E361     		str	r3, [r4, #28]
 419:HW_Lib/AT32F435/drivers/src/at32f435_437_spi.c ****   }
 1067              		.loc 1 419 5 is_stmt 1 view .LVU313
 419:HW_Lib/AT32F435/drivers/src/at32f435_437_spi.c ****   }
 1068              		.loc 1 419 31 is_stmt 0 view .LVU314
 1069 0130 E369     		ldr	r3, [r4, #28]
 1070 0132 43F03003 		orr	r3, r3, #48
 1071 0136 E361     		str	r3, [r4, #28]
 1072              	.L54:
 440:HW_Lib/AT32F435/drivers/src/at32f435_437_spi.c ****   }
 441:HW_Lib/AT32F435/drivers/src/at32f435_437_spi.c **** 
 442:HW_Lib/AT32F435/drivers/src/at32f435_437_spi.c ****   /* i2s data_channel_format set*/
 443:HW_Lib/AT32F435/drivers/src/at32f435_437_spi.c ****   if(i2s_init_struct->data_channel_format == I2S_DATA_16BIT_CHANNEL_16BIT)
 1073              		.loc 1 443 3 is_stmt 1 view .LVU315
 1074              		.loc 1 443 21 is_stmt 0 view .LVU316
 1075 0138 2B7A     		ldrb	r3, [r5, #8]	@ zero_extendqisi2
 1076              		.loc 1 443 5 view .LVU317
 1077 013a 012B     		cmp	r3, #1
 1078 013c 2CD0     		beq	.L75
 444:HW_Lib/AT32F435/drivers/src/at32f435_437_spi.c ****   {
 445:HW_Lib/AT32F435/drivers/src/at32f435_437_spi.c ****     spi_x->i2sctrl_bit.i2scbn = 0;
 446:HW_Lib/AT32F435/drivers/src/at32f435_437_spi.c ****     spi_x->i2sctrl_bit.i2sdbn = 0;
 447:HW_Lib/AT32F435/drivers/src/at32f435_437_spi.c ****   }
 448:HW_Lib/AT32F435/drivers/src/at32f435_437_spi.c ****   else if(i2s_init_struct->data_channel_format == I2S_DATA_16BIT_CHANNEL_32BIT)
 1079              		.loc 1 448 8 is_stmt 1 view .LVU318
 1080              		.loc 1 448 10 is_stmt 0 view .LVU319
 1081 013e 022B     		cmp	r3, #2
 1082 0140 47D0     		beq	.L76
 449:HW_Lib/AT32F435/drivers/src/at32f435_437_spi.c ****   {
 450:HW_Lib/AT32F435/drivers/src/at32f435_437_spi.c ****     spi_x->i2sctrl_bit.i2scbn = 1;
 451:HW_Lib/AT32F435/drivers/src/at32f435_437_spi.c ****     spi_x->i2sctrl_bit.i2sdbn = 0;
 452:HW_Lib/AT32F435/drivers/src/at32f435_437_spi.c ****   }
 453:HW_Lib/AT32F435/drivers/src/at32f435_437_spi.c ****   else if(i2s_init_struct->data_channel_format == I2S_DATA_24BIT_CHANNEL_32BIT)
 1083              		.loc 1 453 8 is_stmt 1 view .LVU320
 1084              		.loc 1 453 10 is_stmt 0 view .LVU321
 1085 0142 032B     		cmp	r3, #3
 1086 0144 4ED0     		beq	.L77
 454:HW_Lib/AT32F435/drivers/src/at32f435_437_spi.c ****   {
 455:HW_Lib/AT32F435/drivers/src/at32f435_437_spi.c ****     spi_x->i2sctrl_bit.i2scbn = 1;
 456:HW_Lib/AT32F435/drivers/src/at32f435_437_spi.c ****     spi_x->i2sctrl_bit.i2sdbn = 1;
 457:HW_Lib/AT32F435/drivers/src/at32f435_437_spi.c ****   }
 458:HW_Lib/AT32F435/drivers/src/at32f435_437_spi.c ****   else if(i2s_init_struct->data_channel_format == I2S_DATA_32BIT_CHANNEL_32BIT)
 1087              		.loc 1 458 8 is_stmt 1 view .LVU322
 1088              		.loc 1 458 10 is_stmt 0 view .LVU323
 1089 0146 042B     		cmp	r3, #4
 1090 0148 2ED1     		bne	.L59
 459:HW_Lib/AT32F435/drivers/src/at32f435_437_spi.c ****   {
 460:HW_Lib/AT32F435/drivers/src/at32f435_437_spi.c ****     spi_x->i2sctrl_bit.i2scbn = 1;
 1091              		.loc 1 460 5 is_stmt 1 view .LVU324
 1092              		.loc 1 460 31 is_stmt 0 view .LVU325
 1093 014a E369     		ldr	r3, [r4, #28]
ARM GAS  C:\Users\8bit\AppData\Local\Temp\cc28Qo3v.s 			page 30


 1094 014c 43F00103 		orr	r3, r3, #1
 1095 0150 E361     		str	r3, [r4, #28]
 461:HW_Lib/AT32F435/drivers/src/at32f435_437_spi.c ****     spi_x->i2sctrl_bit.i2sdbn = 2;
 1096              		.loc 1 461 5 is_stmt 1 view .LVU326
 1097              		.loc 1 461 31 is_stmt 0 view .LVU327
 1098 0152 E369     		ldr	r3, [r4, #28]
 1099 0154 0222     		movs	r2, #2
 1100 0156 62F34203 		bfi	r3, r2, #1, #2
 1101 015a E361     		str	r3, [r4, #28]
 1102 015c 24E0     		b	.L59
 1103              	.L67:
 423:HW_Lib/AT32F435/drivers/src/at32f435_437_spi.c ****     spi_x->i2sctrl_bit.stdsel = 3;
 1104              		.loc 1 423 5 is_stmt 1 view .LVU328
 423:HW_Lib/AT32F435/drivers/src/at32f435_437_spi.c ****     spi_x->i2sctrl_bit.stdsel = 3;
 1105              		.loc 1 423 33 is_stmt 0 view .LVU329
 1106 015e E369     		ldr	r3, [r4, #28]
 1107 0160 6FF3C713 		bfc	r3, #7, #1
 1108 0164 E361     		str	r3, [r4, #28]
 424:HW_Lib/AT32F435/drivers/src/at32f435_437_spi.c ****   }
 1109              		.loc 1 424 5 is_stmt 1 view .LVU330
 424:HW_Lib/AT32F435/drivers/src/at32f435_437_spi.c ****   }
 1110              		.loc 1 424 31 is_stmt 0 view .LVU331
 1111 0166 E369     		ldr	r3, [r4, #28]
 1112 0168 43F03003 		orr	r3, r3, #48
 1113 016c E361     		str	r3, [r4, #28]
 1114 016e E3E7     		b	.L54
 1115              	.L68:
 428:HW_Lib/AT32F435/drivers/src/at32f435_437_spi.c ****     spi_x->i2sctrl_bit.stdsel = 2;
 1116              		.loc 1 428 5 is_stmt 1 view .LVU332
 428:HW_Lib/AT32F435/drivers/src/at32f435_437_spi.c ****     spi_x->i2sctrl_bit.stdsel = 2;
 1117              		.loc 1 428 33 is_stmt 0 view .LVU333
 1118 0170 E369     		ldr	r3, [r4, #28]
 1119 0172 6FF3C713 		bfc	r3, #7, #1
 1120 0176 E361     		str	r3, [r4, #28]
 429:HW_Lib/AT32F435/drivers/src/at32f435_437_spi.c ****   }
 1121              		.loc 1 429 5 is_stmt 1 view .LVU334
 429:HW_Lib/AT32F435/drivers/src/at32f435_437_spi.c ****   }
 1122              		.loc 1 429 31 is_stmt 0 view .LVU335
 1123 0178 E369     		ldr	r3, [r4, #28]
 1124 017a 0222     		movs	r2, #2
 1125 017c 62F30513 		bfi	r3, r2, #4, #2
 1126 0180 E361     		str	r3, [r4, #28]
 1127 0182 D9E7     		b	.L54
 1128              	.L69:
 433:HW_Lib/AT32F435/drivers/src/at32f435_437_spi.c ****     spi_x->i2sctrl_bit.stdsel = 1;
 1129              		.loc 1 433 5 is_stmt 1 view .LVU336
 433:HW_Lib/AT32F435/drivers/src/at32f435_437_spi.c ****     spi_x->i2sctrl_bit.stdsel = 1;
 1130              		.loc 1 433 33 is_stmt 0 view .LVU337
 1131 0184 E369     		ldr	r3, [r4, #28]
 1132 0186 6FF3C713 		bfc	r3, #7, #1
 1133 018a E361     		str	r3, [r4, #28]
 434:HW_Lib/AT32F435/drivers/src/at32f435_437_spi.c ****   }
 1134              		.loc 1 434 5 is_stmt 1 view .LVU338
 434:HW_Lib/AT32F435/drivers/src/at32f435_437_spi.c ****   }
 1135              		.loc 1 434 31 is_stmt 0 view .LVU339
 1136 018c E369     		ldr	r3, [r4, #28]
 1137 018e 0122     		movs	r2, #1
ARM GAS  C:\Users\8bit\AppData\Local\Temp\cc28Qo3v.s 			page 31


 1138 0190 62F30513 		bfi	r3, r2, #4, #2
 1139 0194 E361     		str	r3, [r4, #28]
 1140 0196 CFE7     		b	.L54
 1141              	.L75:
 445:HW_Lib/AT32F435/drivers/src/at32f435_437_spi.c ****     spi_x->i2sctrl_bit.i2sdbn = 0;
 1142              		.loc 1 445 5 is_stmt 1 view .LVU340
 445:HW_Lib/AT32F435/drivers/src/at32f435_437_spi.c ****     spi_x->i2sctrl_bit.i2sdbn = 0;
 1143              		.loc 1 445 31 is_stmt 0 view .LVU341
 1144 0198 E369     		ldr	r3, [r4, #28]
 1145 019a 6FF30003 		bfc	r3, #0, #1
 1146 019e E361     		str	r3, [r4, #28]
 446:HW_Lib/AT32F435/drivers/src/at32f435_437_spi.c ****   }
 1147              		.loc 1 446 5 is_stmt 1 view .LVU342
 446:HW_Lib/AT32F435/drivers/src/at32f435_437_spi.c ****   }
 1148              		.loc 1 446 31 is_stmt 0 view .LVU343
 1149 01a0 E369     		ldr	r3, [r4, #28]
 1150 01a2 6FF34203 		bfc	r3, #1, #2
 1151 01a6 E361     		str	r3, [r4, #28]
 1152              	.L59:
 462:HW_Lib/AT32F435/drivers/src/at32f435_437_spi.c ****   }
 463:HW_Lib/AT32F435/drivers/src/at32f435_437_spi.c **** 
 464:HW_Lib/AT32F435/drivers/src/at32f435_437_spi.c ****   spi_x->i2sctrl_bit.i2sclkpol = i2s_init_struct->clock_polarity;
 1153              		.loc 1 464 3 is_stmt 1 view .LVU344
 1154              		.loc 1 464 49 is_stmt 0 view .LVU345
 1155 01a8 6A7A     		ldrb	r2, [r5, #9]	@ zero_extendqisi2
 1156              		.loc 1 464 32 view .LVU346
 1157 01aa E369     		ldr	r3, [r4, #28]
 1158 01ac 62F3C303 		bfi	r3, r2, #3, #1
 1159 01b0 E361     		str	r3, [r4, #28]
 465:HW_Lib/AT32F435/drivers/src/at32f435_437_spi.c ****   spi_x->i2sclk_bit.i2smclkoe = i2s_init_struct->mclk_output_enable;
 1160              		.loc 1 465 3 is_stmt 1 view .LVU347
 1161              		.loc 1 465 48 is_stmt 0 view .LVU348
 1162 01b2 AA7A     		ldrb	r2, [r5, #10]	@ zero_extendqisi2
 1163              		.loc 1 465 31 view .LVU349
 1164 01b4 236A     		ldr	r3, [r4, #32]
 1165 01b6 62F34923 		bfi	r3, r2, #9, #1
 1166 01ba 2362     		str	r3, [r4, #32]
 466:HW_Lib/AT32F435/drivers/src/at32f435_437_spi.c ****   spi_x->i2sctrl_bit.opersel = i2s_init_struct->operation_mode;
 1167              		.loc 1 466 3 is_stmt 1 view .LVU350
 1168              		.loc 1 466 47 is_stmt 0 view .LVU351
 1169 01bc 2A78     		ldrb	r2, [r5]	@ zero_extendqisi2
 1170              		.loc 1 466 30 view .LVU352
 1171 01be E369     		ldr	r3, [r4, #28]
 1172 01c0 62F30923 		bfi	r3, r2, #8, #2
 1173 01c4 E361     		str	r3, [r4, #28]
 467:HW_Lib/AT32F435/drivers/src/at32f435_437_spi.c ****   spi_x->i2sctrl_bit.i2smsel = TRUE;
 1174              		.loc 1 467 3 is_stmt 1 view .LVU353
 1175              		.loc 1 467 30 is_stmt 0 view .LVU354
 1176 01c6 E369     		ldr	r3, [r4, #28]
 1177 01c8 43F40063 		orr	r3, r3, #2048
 1178 01cc E361     		str	r3, [r4, #28]
 468:HW_Lib/AT32F435/drivers/src/at32f435_437_spi.c **** }
 1179              		.loc 1 468 1 view .LVU355
 1180 01ce 05B0     		add	sp, sp, #20
 1181              	.LCFI3:
 1182              		.cfi_remember_state
 1183              		.cfi_def_cfa_offset 12
ARM GAS  C:\Users\8bit\AppData\Local\Temp\cc28Qo3v.s 			page 32


 1184              		@ sp needed
 1185 01d0 30BD     		pop	{r4, r5, pc}
 1186              	.LVL72:
 1187              	.L76:
 1188              	.LCFI4:
 1189              		.cfi_restore_state
 450:HW_Lib/AT32F435/drivers/src/at32f435_437_spi.c ****     spi_x->i2sctrl_bit.i2sdbn = 0;
 1190              		.loc 1 450 5 is_stmt 1 view .LVU356
 450:HW_Lib/AT32F435/drivers/src/at32f435_437_spi.c ****     spi_x->i2sctrl_bit.i2sdbn = 0;
 1191              		.loc 1 450 31 is_stmt 0 view .LVU357
 1192 01d2 E369     		ldr	r3, [r4, #28]
 1193 01d4 43F00103 		orr	r3, r3, #1
 1194 01d8 E361     		str	r3, [r4, #28]
 451:HW_Lib/AT32F435/drivers/src/at32f435_437_spi.c ****   }
 1195              		.loc 1 451 5 is_stmt 1 view .LVU358
 451:HW_Lib/AT32F435/drivers/src/at32f435_437_spi.c ****   }
 1196              		.loc 1 451 31 is_stmt 0 view .LVU359
 1197 01da E369     		ldr	r3, [r4, #28]
 1198 01dc 6FF34203 		bfc	r3, #1, #2
 1199 01e0 E361     		str	r3, [r4, #28]
 1200 01e2 E1E7     		b	.L59
 1201              	.L77:
 455:HW_Lib/AT32F435/drivers/src/at32f435_437_spi.c ****     spi_x->i2sctrl_bit.i2sdbn = 1;
 1202              		.loc 1 455 5 is_stmt 1 view .LVU360
 455:HW_Lib/AT32F435/drivers/src/at32f435_437_spi.c ****     spi_x->i2sctrl_bit.i2sdbn = 1;
 1203              		.loc 1 455 31 is_stmt 0 view .LVU361
 1204 01e4 E369     		ldr	r3, [r4, #28]
 1205 01e6 43F00103 		orr	r3, r3, #1
 1206 01ea E361     		str	r3, [r4, #28]
 456:HW_Lib/AT32F435/drivers/src/at32f435_437_spi.c ****   }
 1207              		.loc 1 456 5 is_stmt 1 view .LVU362
 456:HW_Lib/AT32F435/drivers/src/at32f435_437_spi.c ****   }
 1208              		.loc 1 456 31 is_stmt 0 view .LVU363
 1209 01ec E369     		ldr	r3, [r4, #28]
 1210 01ee 0122     		movs	r2, #1
 1211 01f0 62F34203 		bfi	r3, r2, #1, #2
 1212 01f4 E361     		str	r3, [r4, #28]
 1213 01f6 D7E7     		b	.L59
 1214              	.L79:
 1215              		.align	2
 1216              	.L78:
 1217 01f8 CDCCCCCC 		.word	-858993459
 1218              		.cfi_endproc
 1219              	.LFE148:
 1221              		.section	.text.i2s_enable,"ax",%progbits
 1222              		.align	1
 1223              		.global	i2s_enable
 1224              		.syntax unified
 1225              		.thumb
 1226              		.thumb_func
 1228              	i2s_enable:
 1229              	.LVL73:
 1230              	.LFB149:
 469:HW_Lib/AT32F435/drivers/src/at32f435_437_spi.c **** 
 470:HW_Lib/AT32F435/drivers/src/at32f435_437_spi.c **** /**
 471:HW_Lib/AT32F435/drivers/src/at32f435_437_spi.c ****   * @brief  enable or disable i2s.
 472:HW_Lib/AT32F435/drivers/src/at32f435_437_spi.c ****   * @param  spi_x: select the i2s peripheral.
ARM GAS  C:\Users\8bit\AppData\Local\Temp\cc28Qo3v.s 			page 33


 473:HW_Lib/AT32F435/drivers/src/at32f435_437_spi.c ****   *         this parameter can be one of the following values:
 474:HW_Lib/AT32F435/drivers/src/at32f435_437_spi.c ****   *         SPI1, SPI2, SPI3 ,SPI4 , I2S2EXT, I2S3EXT
 475:HW_Lib/AT32F435/drivers/src/at32f435_437_spi.c ****   * @param  new_state: new state of i2s.
 476:HW_Lib/AT32F435/drivers/src/at32f435_437_spi.c ****   *         this parameter can be: TRUE or FALSE.
 477:HW_Lib/AT32F435/drivers/src/at32f435_437_spi.c ****   * @retval none
 478:HW_Lib/AT32F435/drivers/src/at32f435_437_spi.c ****   */
 479:HW_Lib/AT32F435/drivers/src/at32f435_437_spi.c **** void i2s_enable(spi_type* spi_x, confirm_state new_state)
 480:HW_Lib/AT32F435/drivers/src/at32f435_437_spi.c **** {
 1231              		.loc 1 480 1 is_stmt 1 view -0
 1232              		.cfi_startproc
 1233              		@ args = 0, pretend = 0, frame = 0
 1234              		@ frame_needed = 0, uses_anonymous_args = 0
 1235              		@ link register save eliminated.
 481:HW_Lib/AT32F435/drivers/src/at32f435_437_spi.c ****   spi_x->i2sctrl_bit.i2sen = new_state;
 1236              		.loc 1 481 3 view .LVU365
 1237              		.loc 1 481 28 is_stmt 0 view .LVU366
 1238 0000 C369     		ldr	r3, [r0, #28]
 1239 0002 61F38A23 		bfi	r3, r1, #10, #1
 1240 0006 C361     		str	r3, [r0, #28]
 482:HW_Lib/AT32F435/drivers/src/at32f435_437_spi.c **** }
 1241              		.loc 1 482 1 view .LVU367
 1242 0008 7047     		bx	lr
 1243              		.cfi_endproc
 1244              	.LFE149:
 1246              		.section	.text.spi_i2s_interrupt_enable,"ax",%progbits
 1247              		.align	1
 1248              		.global	spi_i2s_interrupt_enable
 1249              		.syntax unified
 1250              		.thumb
 1251              		.thumb_func
 1253              	spi_i2s_interrupt_enable:
 1254              	.LVL74:
 1255              	.LFB150:
 483:HW_Lib/AT32F435/drivers/src/at32f435_437_spi.c **** 
 484:HW_Lib/AT32F435/drivers/src/at32f435_437_spi.c **** /**
 485:HW_Lib/AT32F435/drivers/src/at32f435_437_spi.c ****   * @brief  enable or disable the specified spi/i2s interrupts.
 486:HW_Lib/AT32F435/drivers/src/at32f435_437_spi.c ****   * @param  spi_x: select the spi/i2s peripheral.
 487:HW_Lib/AT32F435/drivers/src/at32f435_437_spi.c ****   *         this parameter can be one of the following values:
 488:HW_Lib/AT32F435/drivers/src/at32f435_437_spi.c ****   *         SPI1, SPI2, SPI3 ,SPI4 , I2S2EXT, I2S3EXT
 489:HW_Lib/AT32F435/drivers/src/at32f435_437_spi.c ****   * @param  spi_i2s_int: specifies the spi/i2s interrupt sources to be enabled or disabled.
 490:HW_Lib/AT32F435/drivers/src/at32f435_437_spi.c ****   *         this parameter can be one of the following values:
 491:HW_Lib/AT32F435/drivers/src/at32f435_437_spi.c ****   *         - SPI_I2S_ERROR_INT
 492:HW_Lib/AT32F435/drivers/src/at32f435_437_spi.c ****   *         - SPI_I2S_RDBF_INT
 493:HW_Lib/AT32F435/drivers/src/at32f435_437_spi.c ****   *         - SPI_I2S_TDBE_INT
 494:HW_Lib/AT32F435/drivers/src/at32f435_437_spi.c ****   * @param  new_state: new state of the specified spi/i2s interrupts.
 495:HW_Lib/AT32F435/drivers/src/at32f435_437_spi.c ****   *         this parameter can be: TRUE or FALSE.
 496:HW_Lib/AT32F435/drivers/src/at32f435_437_spi.c ****   * @retval none
 497:HW_Lib/AT32F435/drivers/src/at32f435_437_spi.c ****   */
 498:HW_Lib/AT32F435/drivers/src/at32f435_437_spi.c **** void spi_i2s_interrupt_enable(spi_type* spi_x, uint32_t spi_i2s_int, confirm_state new_state)
 499:HW_Lib/AT32F435/drivers/src/at32f435_437_spi.c **** {
 1256              		.loc 1 499 1 is_stmt 1 view -0
 1257              		.cfi_startproc
 1258              		@ args = 0, pretend = 0, frame = 0
 1259              		@ frame_needed = 0, uses_anonymous_args = 0
 1260              		@ link register save eliminated.
 500:HW_Lib/AT32F435/drivers/src/at32f435_437_spi.c ****   if(new_state != FALSE)
 1261              		.loc 1 500 3 view .LVU369
ARM GAS  C:\Users\8bit\AppData\Local\Temp\cc28Qo3v.s 			page 34


 1262              		.loc 1 500 5 is_stmt 0 view .LVU370
 1263 0000 1AB1     		cbz	r2, .L82
 501:HW_Lib/AT32F435/drivers/src/at32f435_437_spi.c ****   {
 502:HW_Lib/AT32F435/drivers/src/at32f435_437_spi.c ****     spi_x->ctrl2 |= spi_i2s_int;
 1264              		.loc 1 502 5 is_stmt 1 view .LVU371
 1265              		.loc 1 502 18 is_stmt 0 view .LVU372
 1266 0002 4368     		ldr	r3, [r0, #4]
 1267 0004 1943     		orrs	r1, r1, r3
 1268              	.LVL75:
 1269              		.loc 1 502 18 view .LVU373
 1270 0006 4160     		str	r1, [r0, #4]
 1271 0008 7047     		bx	lr
 1272              	.LVL76:
 1273              	.L82:
 503:HW_Lib/AT32F435/drivers/src/at32f435_437_spi.c ****   }
 504:HW_Lib/AT32F435/drivers/src/at32f435_437_spi.c ****   else
 505:HW_Lib/AT32F435/drivers/src/at32f435_437_spi.c ****   {
 506:HW_Lib/AT32F435/drivers/src/at32f435_437_spi.c ****     spi_x->ctrl2 &= ~spi_i2s_int;
 1274              		.loc 1 506 5 is_stmt 1 view .LVU374
 1275              		.loc 1 506 18 is_stmt 0 view .LVU375
 1276 000a 4368     		ldr	r3, [r0, #4]
 1277 000c 23EA0101 		bic	r1, r3, r1
 1278              	.LVL77:
 1279              		.loc 1 506 18 view .LVU376
 1280 0010 4160     		str	r1, [r0, #4]
 507:HW_Lib/AT32F435/drivers/src/at32f435_437_spi.c ****   }
 508:HW_Lib/AT32F435/drivers/src/at32f435_437_spi.c **** }
 1281              		.loc 1 508 1 view .LVU377
 1282 0012 7047     		bx	lr
 1283              		.cfi_endproc
 1284              	.LFE150:
 1286              		.section	.text.spi_i2s_dma_transmitter_enable,"ax",%progbits
 1287              		.align	1
 1288              		.global	spi_i2s_dma_transmitter_enable
 1289              		.syntax unified
 1290              		.thumb
 1291              		.thumb_func
 1293              	spi_i2s_dma_transmitter_enable:
 1294              	.LVL78:
 1295              	.LFB151:
 509:HW_Lib/AT32F435/drivers/src/at32f435_437_spi.c **** 
 510:HW_Lib/AT32F435/drivers/src/at32f435_437_spi.c **** /**
 511:HW_Lib/AT32F435/drivers/src/at32f435_437_spi.c ****   * @brief  enable or disable the spi/i2s dma transmitter mode.
 512:HW_Lib/AT32F435/drivers/src/at32f435_437_spi.c ****   * @param  spi_x: select the spi/i2s peripheral.
 513:HW_Lib/AT32F435/drivers/src/at32f435_437_spi.c ****   *         this parameter can be one of the following values:
 514:HW_Lib/AT32F435/drivers/src/at32f435_437_spi.c ****   *         SPI1, SPI2, SPI3 ,SPI4 , I2S2EXT, I2S3EXT
 515:HW_Lib/AT32F435/drivers/src/at32f435_437_spi.c ****   * @param  new_state: new state of the dma request.
 516:HW_Lib/AT32F435/drivers/src/at32f435_437_spi.c ****   *         this parameter can be: TRUE or FALSE.
 517:HW_Lib/AT32F435/drivers/src/at32f435_437_spi.c ****   * @retval none
 518:HW_Lib/AT32F435/drivers/src/at32f435_437_spi.c ****   */
 519:HW_Lib/AT32F435/drivers/src/at32f435_437_spi.c **** void spi_i2s_dma_transmitter_enable(spi_type* spi_x, confirm_state new_state)
 520:HW_Lib/AT32F435/drivers/src/at32f435_437_spi.c **** {
 1296              		.loc 1 520 1 is_stmt 1 view -0
 1297              		.cfi_startproc
 1298              		@ args = 0, pretend = 0, frame = 0
 1299              		@ frame_needed = 0, uses_anonymous_args = 0
 1300              		@ link register save eliminated.
ARM GAS  C:\Users\8bit\AppData\Local\Temp\cc28Qo3v.s 			page 35


 521:HW_Lib/AT32F435/drivers/src/at32f435_437_spi.c ****   spi_x->ctrl2_bit.dmaten = new_state;
 1301              		.loc 1 521 3 view .LVU379
 1302              		.loc 1 521 27 is_stmt 0 view .LVU380
 1303 0000 4368     		ldr	r3, [r0, #4]
 1304 0002 61F34103 		bfi	r3, r1, #1, #1
 1305 0006 4360     		str	r3, [r0, #4]
 522:HW_Lib/AT32F435/drivers/src/at32f435_437_spi.c **** }
 1306              		.loc 1 522 1 view .LVU381
 1307 0008 7047     		bx	lr
 1308              		.cfi_endproc
 1309              	.LFE151:
 1311              		.section	.text.spi_i2s_dma_receiver_enable,"ax",%progbits
 1312              		.align	1
 1313              		.global	spi_i2s_dma_receiver_enable
 1314              		.syntax unified
 1315              		.thumb
 1316              		.thumb_func
 1318              	spi_i2s_dma_receiver_enable:
 1319              	.LVL79:
 1320              	.LFB152:
 523:HW_Lib/AT32F435/drivers/src/at32f435_437_spi.c **** 
 524:HW_Lib/AT32F435/drivers/src/at32f435_437_spi.c **** /**
 525:HW_Lib/AT32F435/drivers/src/at32f435_437_spi.c ****   * @brief  enable or disable the spi/i2s dma receiver mode.
 526:HW_Lib/AT32F435/drivers/src/at32f435_437_spi.c ****   * @param  spi_x: select the spi/i2s peripheral.
 527:HW_Lib/AT32F435/drivers/src/at32f435_437_spi.c ****   *         this parameter can be one of the following values:
 528:HW_Lib/AT32F435/drivers/src/at32f435_437_spi.c ****   *         SPI1, SPI2, SPI3 ,SPI4 , I2S2EXT, I2S3EXT
 529:HW_Lib/AT32F435/drivers/src/at32f435_437_spi.c ****   * @param  new_state: new state of the dma request.
 530:HW_Lib/AT32F435/drivers/src/at32f435_437_spi.c ****   *         this parameter can be: TRUE or FALSE.
 531:HW_Lib/AT32F435/drivers/src/at32f435_437_spi.c ****   * @retval none
 532:HW_Lib/AT32F435/drivers/src/at32f435_437_spi.c ****   */
 533:HW_Lib/AT32F435/drivers/src/at32f435_437_spi.c **** void spi_i2s_dma_receiver_enable(spi_type* spi_x, confirm_state new_state)
 534:HW_Lib/AT32F435/drivers/src/at32f435_437_spi.c **** {
 1321              		.loc 1 534 1 is_stmt 1 view -0
 1322              		.cfi_startproc
 1323              		@ args = 0, pretend = 0, frame = 0
 1324              		@ frame_needed = 0, uses_anonymous_args = 0
 1325              		@ link register save eliminated.
 535:HW_Lib/AT32F435/drivers/src/at32f435_437_spi.c ****   spi_x->ctrl2_bit.dmaren = new_state;
 1326              		.loc 1 535 3 view .LVU383
 1327              		.loc 1 535 27 is_stmt 0 view .LVU384
 1328 0000 4368     		ldr	r3, [r0, #4]
 1329 0002 61F30003 		bfi	r3, r1, #0, #1
 1330 0006 4360     		str	r3, [r0, #4]
 536:HW_Lib/AT32F435/drivers/src/at32f435_437_spi.c **** }
 1331              		.loc 1 536 1 view .LVU385
 1332 0008 7047     		bx	lr
 1333              		.cfi_endproc
 1334              	.LFE152:
 1336              		.section	.text.spi_i2s_data_transmit,"ax",%progbits
 1337              		.align	1
 1338              		.global	spi_i2s_data_transmit
 1339              		.syntax unified
 1340              		.thumb
 1341              		.thumb_func
 1343              	spi_i2s_data_transmit:
 1344              	.LVL80:
 1345              	.LFB153:
ARM GAS  C:\Users\8bit\AppData\Local\Temp\cc28Qo3v.s 			page 36


 537:HW_Lib/AT32F435/drivers/src/at32f435_437_spi.c **** 
 538:HW_Lib/AT32F435/drivers/src/at32f435_437_spi.c **** /**
 539:HW_Lib/AT32F435/drivers/src/at32f435_437_spi.c ****   * @brief  spi/i2s data transmit
 540:HW_Lib/AT32F435/drivers/src/at32f435_437_spi.c ****   * @param  spi_x: select the spi/i2s peripheral.
 541:HW_Lib/AT32F435/drivers/src/at32f435_437_spi.c ****   *         this parameter can be one of the following values:
 542:HW_Lib/AT32F435/drivers/src/at32f435_437_spi.c ****   *         SPI1, SPI2, SPI3 ,SPI4 , I2S2EXT, I2S3EXT
 543:HW_Lib/AT32F435/drivers/src/at32f435_437_spi.c ****   * @param  tx_data: the data to be transmit.
 544:HW_Lib/AT32F435/drivers/src/at32f435_437_spi.c ****   *         this parameter can be:
 545:HW_Lib/AT32F435/drivers/src/at32f435_437_spi.c ****   *         - (0x0000~0xFFFF)
 546:HW_Lib/AT32F435/drivers/src/at32f435_437_spi.c ****   * @retval none
 547:HW_Lib/AT32F435/drivers/src/at32f435_437_spi.c ****   */
 548:HW_Lib/AT32F435/drivers/src/at32f435_437_spi.c **** void spi_i2s_data_transmit(spi_type* spi_x, uint16_t tx_data)
 549:HW_Lib/AT32F435/drivers/src/at32f435_437_spi.c **** {
 1346              		.loc 1 549 1 is_stmt 1 view -0
 1347              		.cfi_startproc
 1348              		@ args = 0, pretend = 0, frame = 0
 1349              		@ frame_needed = 0, uses_anonymous_args = 0
 1350              		@ link register save eliminated.
 550:HW_Lib/AT32F435/drivers/src/at32f435_437_spi.c ****   spi_x->dt = tx_data;
 1351              		.loc 1 550 3 view .LVU387
 1352              		.loc 1 550 13 is_stmt 0 view .LVU388
 1353 0000 C160     		str	r1, [r0, #12]
 551:HW_Lib/AT32F435/drivers/src/at32f435_437_spi.c **** }
 1354              		.loc 1 551 1 view .LVU389
 1355 0002 7047     		bx	lr
 1356              		.cfi_endproc
 1357              	.LFE153:
 1359              		.section	.text.spi_i2s_data_receive,"ax",%progbits
 1360              		.align	1
 1361              		.global	spi_i2s_data_receive
 1362              		.syntax unified
 1363              		.thumb
 1364              		.thumb_func
 1366              	spi_i2s_data_receive:
 1367              	.LVL81:
 1368              	.LFB154:
 552:HW_Lib/AT32F435/drivers/src/at32f435_437_spi.c **** 
 553:HW_Lib/AT32F435/drivers/src/at32f435_437_spi.c **** /**
 554:HW_Lib/AT32F435/drivers/src/at32f435_437_spi.c ****   * @brief  spi/i2s data receive
 555:HW_Lib/AT32F435/drivers/src/at32f435_437_spi.c ****   * @param  spi_x: select the spi/i2s peripheral.
 556:HW_Lib/AT32F435/drivers/src/at32f435_437_spi.c ****   *         this parameter can be one of the following values:
 557:HW_Lib/AT32F435/drivers/src/at32f435_437_spi.c ****   *         SPI1, SPI2, SPI3 ,SPI4 , I2S2EXT, I2S3EXT
 558:HW_Lib/AT32F435/drivers/src/at32f435_437_spi.c ****   * @retval the received data value
 559:HW_Lib/AT32F435/drivers/src/at32f435_437_spi.c ****   */
 560:HW_Lib/AT32F435/drivers/src/at32f435_437_spi.c **** uint16_t spi_i2s_data_receive(spi_type* spi_x)
 561:HW_Lib/AT32F435/drivers/src/at32f435_437_spi.c **** {
 1369              		.loc 1 561 1 is_stmt 1 view -0
 1370              		.cfi_startproc
 1371              		@ args = 0, pretend = 0, frame = 0
 1372              		@ frame_needed = 0, uses_anonymous_args = 0
 1373              		@ link register save eliminated.
 562:HW_Lib/AT32F435/drivers/src/at32f435_437_spi.c ****   return (uint16_t)spi_x->dt;
 1374              		.loc 1 562 3 view .LVU391
 1375              		.loc 1 562 25 is_stmt 0 view .LVU392
 1376 0000 C068     		ldr	r0, [r0, #12]
 1377              	.LVL82:
 563:HW_Lib/AT32F435/drivers/src/at32f435_437_spi.c **** }
ARM GAS  C:\Users\8bit\AppData\Local\Temp\cc28Qo3v.s 			page 37


 1378              		.loc 1 563 1 view .LVU393
 1379 0002 80B2     		uxth	r0, r0
 1380 0004 7047     		bx	lr
 1381              		.cfi_endproc
 1382              	.LFE154:
 1384              		.section	.text.spi_i2s_flag_get,"ax",%progbits
 1385              		.align	1
 1386              		.global	spi_i2s_flag_get
 1387              		.syntax unified
 1388              		.thumb
 1389              		.thumb_func
 1391              	spi_i2s_flag_get:
 1392              	.LVL83:
 1393              	.LFB155:
 564:HW_Lib/AT32F435/drivers/src/at32f435_437_spi.c **** 
 565:HW_Lib/AT32F435/drivers/src/at32f435_437_spi.c **** /**
 566:HW_Lib/AT32F435/drivers/src/at32f435_437_spi.c ****   * @brief  get flag of the specified spi/i2s peripheral.
 567:HW_Lib/AT32F435/drivers/src/at32f435_437_spi.c ****   * @param  spi_x: select the spi/i2s peripheral.
 568:HW_Lib/AT32F435/drivers/src/at32f435_437_spi.c ****   *         this parameter can be one of the following values:
 569:HW_Lib/AT32F435/drivers/src/at32f435_437_spi.c ****   *         SPI1, SPI2, SPI3 ,SPI4 , I2S2EXT, I2S3EXT
 570:HW_Lib/AT32F435/drivers/src/at32f435_437_spi.c ****   * @param  spi_i2s_flag: select the spi/i2s flag
 571:HW_Lib/AT32F435/drivers/src/at32f435_437_spi.c ****   *         this parameter can be one of the following values:
 572:HW_Lib/AT32F435/drivers/src/at32f435_437_spi.c ****   *         - SPI_I2S_RDBF_FLAG
 573:HW_Lib/AT32F435/drivers/src/at32f435_437_spi.c ****   *         - SPI_I2S_TDBE_FLAG
 574:HW_Lib/AT32F435/drivers/src/at32f435_437_spi.c ****   *         - I2S_ACS_FLAG    (this flag only use in i2s mode)
 575:HW_Lib/AT32F435/drivers/src/at32f435_437_spi.c ****   *         - I2S_TUERR_FLAG  (this flag only use in i2s mode)
 576:HW_Lib/AT32F435/drivers/src/at32f435_437_spi.c ****   *         - SPI_CCERR_FLAG  (this flag only use in spi mode)
 577:HW_Lib/AT32F435/drivers/src/at32f435_437_spi.c ****   *         - SPI_MMERR_FLAG  (this flag only use in spi mode)
 578:HW_Lib/AT32F435/drivers/src/at32f435_437_spi.c ****   *         - SPI_I2S_ROERR_FLAG
 579:HW_Lib/AT32F435/drivers/src/at32f435_437_spi.c ****   *         - SPI_I2S_BF_FLAG
 580:HW_Lib/AT32F435/drivers/src/at32f435_437_spi.c ****   *         - SPI_CSPAS_FLAG
 581:HW_Lib/AT32F435/drivers/src/at32f435_437_spi.c ****   * @retval the new state of spi/i2s flag
 582:HW_Lib/AT32F435/drivers/src/at32f435_437_spi.c ****   */
 583:HW_Lib/AT32F435/drivers/src/at32f435_437_spi.c **** flag_status spi_i2s_flag_get(spi_type* spi_x, uint32_t spi_i2s_flag)
 584:HW_Lib/AT32F435/drivers/src/at32f435_437_spi.c **** {
 1394              		.loc 1 584 1 is_stmt 1 view -0
 1395              		.cfi_startproc
 1396              		@ args = 0, pretend = 0, frame = 0
 1397              		@ frame_needed = 0, uses_anonymous_args = 0
 1398              		@ link register save eliminated.
 585:HW_Lib/AT32F435/drivers/src/at32f435_437_spi.c ****   flag_status status = RESET;
 1399              		.loc 1 585 3 view .LVU395
 586:HW_Lib/AT32F435/drivers/src/at32f435_437_spi.c ****   if ((spi_x->sts & spi_i2s_flag) == RESET)
 1400              		.loc 1 586 3 view .LVU396
 1401              		.loc 1 586 13 is_stmt 0 view .LVU397
 1402 0000 8368     		ldr	r3, [r0, #8]
 1403              		.loc 1 586 6 view .LVU398
 1404 0002 0B42     		tst	r3, r1
 1405 0004 01D1     		bne	.L90
 587:HW_Lib/AT32F435/drivers/src/at32f435_437_spi.c ****   {
 588:HW_Lib/AT32F435/drivers/src/at32f435_437_spi.c ****     status = RESET;
 1406              		.loc 1 588 12 view .LVU399
 1407 0006 0020     		movs	r0, #0
 1408              	.LVL84:
 1409              		.loc 1 588 12 view .LVU400
 1410 0008 7047     		bx	lr
 1411              	.LVL85:
ARM GAS  C:\Users\8bit\AppData\Local\Temp\cc28Qo3v.s 			page 38


 1412              	.L90:
 589:HW_Lib/AT32F435/drivers/src/at32f435_437_spi.c ****   }
 590:HW_Lib/AT32F435/drivers/src/at32f435_437_spi.c ****   else
 591:HW_Lib/AT32F435/drivers/src/at32f435_437_spi.c ****   {
 592:HW_Lib/AT32F435/drivers/src/at32f435_437_spi.c ****     status = SET;
 1413              		.loc 1 592 12 view .LVU401
 1414 000a 0120     		movs	r0, #1
 1415              	.LVL86:
 593:HW_Lib/AT32F435/drivers/src/at32f435_437_spi.c ****   }
 594:HW_Lib/AT32F435/drivers/src/at32f435_437_spi.c ****   return status;
 1416              		.loc 1 594 3 is_stmt 1 view .LVU402
 595:HW_Lib/AT32F435/drivers/src/at32f435_437_spi.c **** }
 1417              		.loc 1 595 1 is_stmt 0 view .LVU403
 1418 000c 7047     		bx	lr
 1419              		.cfi_endproc
 1420              	.LFE155:
 1422              		.section	.text.spi_i2s_flag_clear,"ax",%progbits
 1423              		.align	1
 1424              		.global	spi_i2s_flag_clear
 1425              		.syntax unified
 1426              		.thumb
 1427              		.thumb_func
 1429              	spi_i2s_flag_clear:
 1430              	.LVL87:
 1431              	.LFB156:
 596:HW_Lib/AT32F435/drivers/src/at32f435_437_spi.c **** 
 597:HW_Lib/AT32F435/drivers/src/at32f435_437_spi.c **** /**
 598:HW_Lib/AT32F435/drivers/src/at32f435_437_spi.c ****   * @brief  clear flag of the specified spi/i2s peripheral.
 599:HW_Lib/AT32F435/drivers/src/at32f435_437_spi.c ****   * @param  spi_x: select the spi/i2s peripheral.
 600:HW_Lib/AT32F435/drivers/src/at32f435_437_spi.c ****   *         this parameter can be one of the following values:
 601:HW_Lib/AT32F435/drivers/src/at32f435_437_spi.c ****   *         SPI1, SPI2, SPI3 ,SPI4 , I2S2EXT, I2S3EXT
 602:HW_Lib/AT32F435/drivers/src/at32f435_437_spi.c ****   * @param  spi_i2s_flag: select the spi/i2s flag
 603:HW_Lib/AT32F435/drivers/src/at32f435_437_spi.c ****   *         this parameter can be one of the following values:
 604:HW_Lib/AT32F435/drivers/src/at32f435_437_spi.c ****   *         - SPI_CCERR_FLAG
 605:HW_Lib/AT32F435/drivers/src/at32f435_437_spi.c ****   *         - SPI_I2S_RDBF_FLAG
 606:HW_Lib/AT32F435/drivers/src/at32f435_437_spi.c ****   *         - I2S_TUERR_FLAG
 607:HW_Lib/AT32F435/drivers/src/at32f435_437_spi.c ****   *         - SPI_MMERR_FLAG
 608:HW_Lib/AT32F435/drivers/src/at32f435_437_spi.c ****   *         - SPI_I2S_ROERR_FLAG
 609:HW_Lib/AT32F435/drivers/src/at32f435_437_spi.c ****   *         - SPI_CSPAS_FLAG
 610:HW_Lib/AT32F435/drivers/src/at32f435_437_spi.c ****   * @note
 611:HW_Lib/AT32F435/drivers/src/at32f435_437_spi.c ****   *         SPI_I2S_TDBE_FLAG  this flag is cleared when the tx buffer already contain data to be t
 612:HW_Lib/AT32F435/drivers/src/at32f435_437_spi.c ****   *         I2S_ACS_FLAG       this flag cann't cleared by software,the flag indicate the channel s
 613:HW_Lib/AT32F435/drivers/src/at32f435_437_spi.c ****   *         SPI_I2S_BF_FLAG    this flag cann't cleared by software, it's set and cleared by hardwa
 614:HW_Lib/AT32F435/drivers/src/at32f435_437_spi.c ****   * @retval none
 615:HW_Lib/AT32F435/drivers/src/at32f435_437_spi.c ****   */
 616:HW_Lib/AT32F435/drivers/src/at32f435_437_spi.c **** void spi_i2s_flag_clear(spi_type* spi_x, uint32_t spi_i2s_flag)
 617:HW_Lib/AT32F435/drivers/src/at32f435_437_spi.c **** {
 1432              		.loc 1 617 1 is_stmt 1 view -0
 1433              		.cfi_startproc
 1434              		@ args = 0, pretend = 0, frame = 0
 1435              		@ frame_needed = 0, uses_anonymous_args = 0
 1436              		@ link register save eliminated.
 618:HW_Lib/AT32F435/drivers/src/at32f435_437_spi.c ****   if(spi_i2s_flag == SPI_CCERR_FLAG)
 1437              		.loc 1 618 3 view .LVU405
 1438              		.loc 1 618 5 is_stmt 0 view .LVU406
 1439 0000 1029     		cmp	r1, #16
 1440 0002 0BD0     		beq	.L98
ARM GAS  C:\Users\8bit\AppData\Local\Temp\cc28Qo3v.s 			page 39


 619:HW_Lib/AT32F435/drivers/src/at32f435_437_spi.c ****     spi_x->sts = ~SPI_CCERR_FLAG;
 620:HW_Lib/AT32F435/drivers/src/at32f435_437_spi.c ****   else if(spi_i2s_flag == SPI_I2S_RDBF_FLAG)
 1441              		.loc 1 620 8 is_stmt 1 view .LVU407
 1442              		.loc 1 620 10 is_stmt 0 view .LVU408
 1443 0004 0129     		cmp	r1, #1
 1444 0006 0DD0     		beq	.L99
 621:HW_Lib/AT32F435/drivers/src/at32f435_437_spi.c ****     UNUSED(spi_x->dt);
 622:HW_Lib/AT32F435/drivers/src/at32f435_437_spi.c ****   else if(spi_i2s_flag == I2S_TUERR_FLAG)
 1445              		.loc 1 622 8 is_stmt 1 view .LVU409
 1446              		.loc 1 622 10 is_stmt 0 view .LVU410
 1447 0008 0829     		cmp	r1, #8
 1448 000a 0DD0     		beq	.L100
 623:HW_Lib/AT32F435/drivers/src/at32f435_437_spi.c ****     UNUSED(spi_x->sts);
 624:HW_Lib/AT32F435/drivers/src/at32f435_437_spi.c ****   else if(spi_i2s_flag == SPI_CSPAS_FLAG)
 1449              		.loc 1 624 8 is_stmt 1 view .LVU411
 1450              		.loc 1 624 10 is_stmt 0 view .LVU412
 1451 000c B1F5807F 		cmp	r1, #256
 1452 0010 0CD0     		beq	.L101
 625:HW_Lib/AT32F435/drivers/src/at32f435_437_spi.c ****     UNUSED(spi_x->sts);
 626:HW_Lib/AT32F435/drivers/src/at32f435_437_spi.c ****   else if(spi_i2s_flag == SPI_MMERR_FLAG)
 1453              		.loc 1 626 8 is_stmt 1 view .LVU413
 1454              		.loc 1 626 10 is_stmt 0 view .LVU414
 1455 0012 2029     		cmp	r1, #32
 1456 0014 0CD0     		beq	.L102
 627:HW_Lib/AT32F435/drivers/src/at32f435_437_spi.c ****   {
 628:HW_Lib/AT32F435/drivers/src/at32f435_437_spi.c ****     UNUSED(spi_x->sts);
 629:HW_Lib/AT32F435/drivers/src/at32f435_437_spi.c ****     spi_x->ctrl1 = spi_x->ctrl1;
 630:HW_Lib/AT32F435/drivers/src/at32f435_437_spi.c ****   }
 631:HW_Lib/AT32F435/drivers/src/at32f435_437_spi.c ****   else if(spi_i2s_flag == SPI_I2S_ROERR_FLAG)
 1457              		.loc 1 631 8 is_stmt 1 view .LVU415
 1458              		.loc 1 631 10 is_stmt 0 view .LVU416
 1459 0016 4029     		cmp	r1, #64
 1460 0018 0ED0     		beq	.L103
 1461              	.L91:
 632:HW_Lib/AT32F435/drivers/src/at32f435_437_spi.c ****   {
 633:HW_Lib/AT32F435/drivers/src/at32f435_437_spi.c ****     UNUSED(spi_x->dt);
 634:HW_Lib/AT32F435/drivers/src/at32f435_437_spi.c ****     UNUSED(spi_x->sts);
 635:HW_Lib/AT32F435/drivers/src/at32f435_437_spi.c ****   }
 636:HW_Lib/AT32F435/drivers/src/at32f435_437_spi.c **** }
 1462              		.loc 1 636 1 view .LVU417
 1463 001a 7047     		bx	lr
 1464              	.L98:
 619:HW_Lib/AT32F435/drivers/src/at32f435_437_spi.c ****   else if(spi_i2s_flag == SPI_I2S_RDBF_FLAG)
 1465              		.loc 1 619 5 is_stmt 1 view .LVU418
 619:HW_Lib/AT32F435/drivers/src/at32f435_437_spi.c ****   else if(spi_i2s_flag == SPI_I2S_RDBF_FLAG)
 1466              		.loc 1 619 16 is_stmt 0 view .LVU419
 1467 001c 6FF01003 		mvn	r3, #16
 1468 0020 8360     		str	r3, [r0, #8]
 1469 0022 7047     		bx	lr
 1470              	.L99:
 621:HW_Lib/AT32F435/drivers/src/at32f435_437_spi.c ****   else if(spi_i2s_flag == I2S_TUERR_FLAG)
 1471              		.loc 1 621 5 is_stmt 1 view .LVU420
 1472 0024 C368     		ldr	r3, [r0, #12]
 1473 0026 7047     		bx	lr
 1474              	.L100:
 623:HW_Lib/AT32F435/drivers/src/at32f435_437_spi.c ****   else if(spi_i2s_flag == SPI_CSPAS_FLAG)
 1475              		.loc 1 623 5 view .LVU421
ARM GAS  C:\Users\8bit\AppData\Local\Temp\cc28Qo3v.s 			page 40


 1476 0028 8368     		ldr	r3, [r0, #8]
 1477 002a 7047     		bx	lr
 1478              	.L101:
 625:HW_Lib/AT32F435/drivers/src/at32f435_437_spi.c ****   else if(spi_i2s_flag == SPI_MMERR_FLAG)
 1479              		.loc 1 625 5 view .LVU422
 1480 002c 8368     		ldr	r3, [r0, #8]
 1481 002e 7047     		bx	lr
 1482              	.L102:
 628:HW_Lib/AT32F435/drivers/src/at32f435_437_spi.c ****     spi_x->ctrl1 = spi_x->ctrl1;
 1483              		.loc 1 628 5 view .LVU423
 1484 0030 8368     		ldr	r3, [r0, #8]
 629:HW_Lib/AT32F435/drivers/src/at32f435_437_spi.c ****   }
 1485              		.loc 1 629 5 view .LVU424
 629:HW_Lib/AT32F435/drivers/src/at32f435_437_spi.c ****   }
 1486              		.loc 1 629 25 is_stmt 0 view .LVU425
 1487 0032 0368     		ldr	r3, [r0]
 629:HW_Lib/AT32F435/drivers/src/at32f435_437_spi.c ****   }
 1488              		.loc 1 629 18 view .LVU426
 1489 0034 0360     		str	r3, [r0]
 1490 0036 7047     		bx	lr
 1491              	.L103:
 633:HW_Lib/AT32F435/drivers/src/at32f435_437_spi.c ****     UNUSED(spi_x->sts);
 1492              		.loc 1 633 5 is_stmt 1 view .LVU427
 1493 0038 C368     		ldr	r3, [r0, #12]
 634:HW_Lib/AT32F435/drivers/src/at32f435_437_spi.c ****   }
 1494              		.loc 1 634 5 view .LVU428
 1495 003a 8368     		ldr	r3, [r0, #8]
 1496              		.loc 1 636 1 is_stmt 0 view .LVU429
 1497 003c EDE7     		b	.L91
 1498              		.cfi_endproc
 1499              	.LFE156:
 1501              		.text
 1502              	.Letext0:
 1503              		.file 2 "c:\\program files (x86)\\gnu arm embedded toolchain\\10 2021.10\\arm-none-eabi\\include\\
 1504              		.file 3 "c:\\program files (x86)\\gnu arm embedded toolchain\\10 2021.10\\arm-none-eabi\\include\\
 1505              		.file 4 "HW_Lib/AT32F435/device_support/at32f435_437.h"
 1506              		.file 5 "HW_Lib/AT32F435/drivers/inc/at32f435_437_crm.h"
 1507              		.file 6 "HW_Lib/AT32F435/drivers/inc/at32f435_437_spi.h"
ARM GAS  C:\Users\8bit\AppData\Local\Temp\cc28Qo3v.s 			page 41

