ARM GAS  C:\Users\8bit\AppData\Local\Temp\cc5wUo7f.s 			page 1


   1              		.cpu cortex-m4
   2              		.arch armv7e-m
   3              		.fpu fpv4-sp-d16
   4              		.eabi_attribute 27, 1
   5              		.eabi_attribute 28, 1
   6              		.eabi_attribute 20, 1
   7              		.eabi_attribute 21, 1
   8              		.eabi_attribute 23, 3
   9              		.eabi_attribute 24, 1
  10              		.eabi_attribute 25, 1
  11              		.eabi_attribute 26, 1
  12              		.eabi_attribute 30, 1
  13              		.eabi_attribute 34, 1
  14              		.eabi_attribute 18, 4
  15              		.file	"at32f435_437_dma.c"
  16              		.text
  17              	.Ltext0:
  18              		.cfi_sections	.debug_frame
  19              		.section	.text.dma_reset,"ax",%progbits
  20              		.align	1
  21              		.global	dma_reset
  22              		.syntax unified
  23              		.thumb
  24              		.thumb_func
  26              	dma_reset:
  27              	.LVL0:
  28              	.LFB133:
  29              		.file 1 "HW_Lib/AT32F435/drivers/src/at32f435_437_dma.c"
   1:HW_Lib/AT32F435/drivers/src/at32f435_437_dma.c **** /**
   2:HW_Lib/AT32F435/drivers/src/at32f435_437_dma.c ****   **************************************************************************
   3:HW_Lib/AT32F435/drivers/src/at32f435_437_dma.c ****   * @file     at32f435_437_dma.c
   4:HW_Lib/AT32F435/drivers/src/at32f435_437_dma.c ****   * @version  v2.1.0
   5:HW_Lib/AT32F435/drivers/src/at32f435_437_dma.c ****   * @date     2022-08-16
   6:HW_Lib/AT32F435/drivers/src/at32f435_437_dma.c ****   * @brief    contains all the functions for the dma firmware library
   7:HW_Lib/AT32F435/drivers/src/at32f435_437_dma.c ****   **************************************************************************
   8:HW_Lib/AT32F435/drivers/src/at32f435_437_dma.c ****   *                       Copyright notice & Disclaimer
   9:HW_Lib/AT32F435/drivers/src/at32f435_437_dma.c ****   *
  10:HW_Lib/AT32F435/drivers/src/at32f435_437_dma.c ****   * The software Board Support Package (BSP) that is made available to
  11:HW_Lib/AT32F435/drivers/src/at32f435_437_dma.c ****   * download from Artery official website is the copyrighted work of Artery.
  12:HW_Lib/AT32F435/drivers/src/at32f435_437_dma.c ****   * Artery authorizes customers to use, copy, and distribute the BSP
  13:HW_Lib/AT32F435/drivers/src/at32f435_437_dma.c ****   * software and its related documentation for the purpose of design and
  14:HW_Lib/AT32F435/drivers/src/at32f435_437_dma.c ****   * development in conjunction with Artery microcontrollers. Use of the
  15:HW_Lib/AT32F435/drivers/src/at32f435_437_dma.c ****   * software is governed by this copyright notice and the following disclaimer.
  16:HW_Lib/AT32F435/drivers/src/at32f435_437_dma.c ****   *
  17:HW_Lib/AT32F435/drivers/src/at32f435_437_dma.c ****   * THIS SOFTWARE IS PROVIDED ON "AS IS" BASIS WITHOUT WARRANTIES,
  18:HW_Lib/AT32F435/drivers/src/at32f435_437_dma.c ****   * GUARANTEES OR REPRESENTATIONS OF ANY KIND. ARTERY EXPRESSLY DISCLAIMS,
  19:HW_Lib/AT32F435/drivers/src/at32f435_437_dma.c ****   * TO THE FULLEST EXTENT PERMITTED BY LAW, ALL EXPRESS, IMPLIED OR
  20:HW_Lib/AT32F435/drivers/src/at32f435_437_dma.c ****   * STATUTORY OR OTHER WARRANTIES, GUARANTEES OR REPRESENTATIONS,
  21:HW_Lib/AT32F435/drivers/src/at32f435_437_dma.c ****   * INCLUDING BUT NOT LIMITED TO, THE IMPLIED WARRANTIES OF MERCHANTABILITY,
  22:HW_Lib/AT32F435/drivers/src/at32f435_437_dma.c ****   * FITNESS FOR A PARTICULAR PURPOSE, OR NON-INFRINGEMENT.
  23:HW_Lib/AT32F435/drivers/src/at32f435_437_dma.c ****   *
  24:HW_Lib/AT32F435/drivers/src/at32f435_437_dma.c ****   **************************************************************************
  25:HW_Lib/AT32F435/drivers/src/at32f435_437_dma.c ****   */
  26:HW_Lib/AT32F435/drivers/src/at32f435_437_dma.c **** 
  27:HW_Lib/AT32F435/drivers/src/at32f435_437_dma.c **** #include "at32f435_437_conf.h"
  28:HW_Lib/AT32F435/drivers/src/at32f435_437_dma.c **** 
  29:HW_Lib/AT32F435/drivers/src/at32f435_437_dma.c **** /** @addtogroup AT32F435_437_periph_driver
ARM GAS  C:\Users\8bit\AppData\Local\Temp\cc5wUo7f.s 			page 2


  30:HW_Lib/AT32F435/drivers/src/at32f435_437_dma.c ****   * @{
  31:HW_Lib/AT32F435/drivers/src/at32f435_437_dma.c ****   */
  32:HW_Lib/AT32F435/drivers/src/at32f435_437_dma.c **** 
  33:HW_Lib/AT32F435/drivers/src/at32f435_437_dma.c **** /** @defgroup DMA
  34:HW_Lib/AT32F435/drivers/src/at32f435_437_dma.c ****   * @brief DMA driver modules
  35:HW_Lib/AT32F435/drivers/src/at32f435_437_dma.c ****   * @{
  36:HW_Lib/AT32F435/drivers/src/at32f435_437_dma.c ****   */
  37:HW_Lib/AT32F435/drivers/src/at32f435_437_dma.c **** 
  38:HW_Lib/AT32F435/drivers/src/at32f435_437_dma.c **** #ifdef DMA_MODULE_ENABLED
  39:HW_Lib/AT32F435/drivers/src/at32f435_437_dma.c **** 
  40:HW_Lib/AT32F435/drivers/src/at32f435_437_dma.c **** /** @defgroup DMA_private_functions
  41:HW_Lib/AT32F435/drivers/src/at32f435_437_dma.c ****   * @{
  42:HW_Lib/AT32F435/drivers/src/at32f435_437_dma.c ****   */
  43:HW_Lib/AT32F435/drivers/src/at32f435_437_dma.c **** 
  44:HW_Lib/AT32F435/drivers/src/at32f435_437_dma.c **** /**
  45:HW_Lib/AT32F435/drivers/src/at32f435_437_dma.c ****   * @brief  reset dmax channely register.
  46:HW_Lib/AT32F435/drivers/src/at32f435_437_dma.c ****   * @param  dmax_channely:
  47:HW_Lib/AT32F435/drivers/src/at32f435_437_dma.c ****   *         this parameter can be one of the following values:
  48:HW_Lib/AT32F435/drivers/src/at32f435_437_dma.c ****   *         - DMA1_CHANNEL1
  49:HW_Lib/AT32F435/drivers/src/at32f435_437_dma.c ****   *         - DMA1_CHANNEL2
  50:HW_Lib/AT32F435/drivers/src/at32f435_437_dma.c ****   *         - DMA1_CHANNEL3
  51:HW_Lib/AT32F435/drivers/src/at32f435_437_dma.c ****   *         - DMA1_CHANNEL4
  52:HW_Lib/AT32F435/drivers/src/at32f435_437_dma.c ****   *         - DMA1_CHANNEL5
  53:HW_Lib/AT32F435/drivers/src/at32f435_437_dma.c ****   *         - DMA1_CHANNEL6
  54:HW_Lib/AT32F435/drivers/src/at32f435_437_dma.c ****   *         - DMA1_CHANNEL7
  55:HW_Lib/AT32F435/drivers/src/at32f435_437_dma.c ****   *         - DMA2_CHANNEL1
  56:HW_Lib/AT32F435/drivers/src/at32f435_437_dma.c ****   *         - DMA2_CHANNEL2
  57:HW_Lib/AT32F435/drivers/src/at32f435_437_dma.c ****   *         - DMA2_CHANNEL3
  58:HW_Lib/AT32F435/drivers/src/at32f435_437_dma.c ****   *         - DMA2_CHANNEL4
  59:HW_Lib/AT32F435/drivers/src/at32f435_437_dma.c ****   *         - DMA2_CHANNEL5
  60:HW_Lib/AT32F435/drivers/src/at32f435_437_dma.c ****   *         - DMA2_CHANNEL6
  61:HW_Lib/AT32F435/drivers/src/at32f435_437_dma.c ****   *         - DMA2_CHANNEL7
  62:HW_Lib/AT32F435/drivers/src/at32f435_437_dma.c ****   * @retval none.
  63:HW_Lib/AT32F435/drivers/src/at32f435_437_dma.c ****   */
  64:HW_Lib/AT32F435/drivers/src/at32f435_437_dma.c **** void dma_reset(dma_channel_type *dmax_channely)
  65:HW_Lib/AT32F435/drivers/src/at32f435_437_dma.c **** {
  30              		.loc 1 65 1 view -0
  31              		.cfi_startproc
  32              		@ args = 0, pretend = 0, frame = 0
  33              		@ frame_needed = 0, uses_anonymous_args = 0
  34              		@ link register save eliminated.
  35              		.loc 1 65 1 is_stmt 0 view .LVU1
  36 0000 10B4     		push	{r4}
  37              	.LCFI0:
  38              		.cfi_def_cfa_offset 4
  39              		.cfi_offset 4, -4
  66:HW_Lib/AT32F435/drivers/src/at32f435_437_dma.c ****   uint32_t temp = 0;
  40              		.loc 1 66 3 is_stmt 1 view .LVU2
  41              	.LVL1:
  67:HW_Lib/AT32F435/drivers/src/at32f435_437_dma.c ****   dmax_channely->ctrl_bit.chen = FALSE;
  42              		.loc 1 67 3 view .LVU3
  43              		.loc 1 67 32 is_stmt 0 view .LVU4
  44 0002 0368     		ldr	r3, [r0]
  45 0004 6FF30003 		bfc	r3, #0, #1
  46 0008 0360     		str	r3, [r0]
  68:HW_Lib/AT32F435/drivers/src/at32f435_437_dma.c ****   dmax_channely->ctrl = 0;
  47              		.loc 1 68 3 is_stmt 1 view .LVU5
ARM GAS  C:\Users\8bit\AppData\Local\Temp\cc5wUo7f.s 			page 3


  48              		.loc 1 68 23 is_stmt 0 view .LVU6
  49 000a 0023     		movs	r3, #0
  50 000c 0360     		str	r3, [r0]
  69:HW_Lib/AT32F435/drivers/src/at32f435_437_dma.c ****   dmax_channely->dtcnt = 0;
  51              		.loc 1 69 3 is_stmt 1 view .LVU7
  52              		.loc 1 69 24 is_stmt 0 view .LVU8
  53 000e 4360     		str	r3, [r0, #4]
  70:HW_Lib/AT32F435/drivers/src/at32f435_437_dma.c ****   dmax_channely->paddr = 0;
  54              		.loc 1 70 3 is_stmt 1 view .LVU9
  55              		.loc 1 70 24 is_stmt 0 view .LVU10
  56 0010 8360     		str	r3, [r0, #8]
  71:HW_Lib/AT32F435/drivers/src/at32f435_437_dma.c ****   dmax_channely->maddr = 0;
  57              		.loc 1 71 3 is_stmt 1 view .LVU11
  58              		.loc 1 71 24 is_stmt 0 view .LVU12
  59 0012 C360     		str	r3, [r0, #12]
  72:HW_Lib/AT32F435/drivers/src/at32f435_437_dma.c **** 
  73:HW_Lib/AT32F435/drivers/src/at32f435_437_dma.c ****   temp = (uint32_t)dmax_channely;
  60              		.loc 1 73 3 is_stmt 1 view .LVU13
  61              	.LVL2:
  74:HW_Lib/AT32F435/drivers/src/at32f435_437_dma.c **** 
  75:HW_Lib/AT32F435/drivers/src/at32f435_437_dma.c ****   if((temp & 0x6FF) < 0x608)
  62              		.loc 1 75 3 view .LVU14
  63              		.loc 1 75 12 is_stmt 0 view .LVU15
  64 0014 40F2FF63 		movw	r3, #1791
  65 0018 0340     		ands	r3, r3, r0
  66              		.loc 1 75 5 view .LVU16
  67 001a B3F5C16F 		cmp	r3, #1544
  68 001e 10D2     		bcs	.L2
  76:HW_Lib/AT32F435/drivers/src/at32f435_437_dma.c ****   {
  77:HW_Lib/AT32F435/drivers/src/at32f435_437_dma.c ****     /* dma1 channel */
  78:HW_Lib/AT32F435/drivers/src/at32f435_437_dma.c ****     DMA1->clr |= (uint32_t)(0x0F << ((((temp & 0xFF) - 0x08) / 0x14) * 4));
  69              		.loc 1 78 5 is_stmt 1 view .LVU17
  70              		.loc 1 78 15 is_stmt 0 view .LVU18
  71 0020 114C     		ldr	r4, .L5
  72 0022 6268     		ldr	r2, [r4, #4]
  73              		.loc 1 78 46 view .LVU19
  74 0024 C3B2     		uxtb	r3, r0
  75              		.loc 1 78 54 view .LVU20
  76 0026 083B     		subs	r3, r3, #8
  77              		.loc 1 78 62 view .LVU21
  78 0028 1048     		ldr	r0, .L5+4
  79              	.LVL3:
  80              		.loc 1 78 62 view .LVU22
  81 002a A0FB0313 		umull	r1, r3, r0, r3
  82 002e 1B09     		lsrs	r3, r3, #4
  83              		.loc 1 78 70 view .LVU23
  84 0030 9B00     		lsls	r3, r3, #2
  85              		.loc 1 78 34 view .LVU24
  86 0032 0F21     		movs	r1, #15
  87 0034 01FA03F3 		lsl	r3, r1, r3
  88              		.loc 1 78 15 view .LVU25
  89 0038 1343     		orrs	r3, r3, r2
  90 003a 6360     		str	r3, [r4, #4]
  91              	.L1:
  79:HW_Lib/AT32F435/drivers/src/at32f435_437_dma.c ****   }
  80:HW_Lib/AT32F435/drivers/src/at32f435_437_dma.c ****   else if((temp & 0x6FF) < 0x688)
  81:HW_Lib/AT32F435/drivers/src/at32f435_437_dma.c ****   {
ARM GAS  C:\Users\8bit\AppData\Local\Temp\cc5wUo7f.s 			page 4


  82:HW_Lib/AT32F435/drivers/src/at32f435_437_dma.c ****     /* dma2 channel */
  83:HW_Lib/AT32F435/drivers/src/at32f435_437_dma.c ****     DMA2->clr |= (uint32_t)(0x0F << ((((temp & 0xFF) - 0x08) / 0x14) * 4));
  84:HW_Lib/AT32F435/drivers/src/at32f435_437_dma.c ****   }
  85:HW_Lib/AT32F435/drivers/src/at32f435_437_dma.c **** }
  92              		.loc 1 85 1 view .LVU26
  93 003c 5DF8044B 		ldr	r4, [sp], #4
  94              	.LCFI1:
  95              		.cfi_remember_state
  96              		.cfi_restore 4
  97              		.cfi_def_cfa_offset 0
  98 0040 7047     		bx	lr
  99              	.LVL4:
 100              	.L2:
 101              	.LCFI2:
 102              		.cfi_restore_state
  80:HW_Lib/AT32F435/drivers/src/at32f435_437_dma.c ****   {
 103              		.loc 1 80 8 is_stmt 1 view .LVU27
  80:HW_Lib/AT32F435/drivers/src/at32f435_437_dma.c ****   {
 104              		.loc 1 80 10 is_stmt 0 view .LVU28
 105 0042 B3F5D16F 		cmp	r3, #1672
 106 0046 F9D2     		bcs	.L1
  83:HW_Lib/AT32F435/drivers/src/at32f435_437_dma.c ****   }
 107              		.loc 1 83 5 is_stmt 1 view .LVU29
  83:HW_Lib/AT32F435/drivers/src/at32f435_437_dma.c ****   }
 108              		.loc 1 83 15 is_stmt 0 view .LVU30
 109 0048 094C     		ldr	r4, .L5+8
 110 004a 6268     		ldr	r2, [r4, #4]
  83:HW_Lib/AT32F435/drivers/src/at32f435_437_dma.c ****   }
 111              		.loc 1 83 46 view .LVU31
 112 004c C3B2     		uxtb	r3, r0
  83:HW_Lib/AT32F435/drivers/src/at32f435_437_dma.c ****   }
 113              		.loc 1 83 54 view .LVU32
 114 004e 083B     		subs	r3, r3, #8
  83:HW_Lib/AT32F435/drivers/src/at32f435_437_dma.c ****   }
 115              		.loc 1 83 62 view .LVU33
 116 0050 0648     		ldr	r0, .L5+4
 117              	.LVL5:
  83:HW_Lib/AT32F435/drivers/src/at32f435_437_dma.c ****   }
 118              		.loc 1 83 62 view .LVU34
 119 0052 A0FB0313 		umull	r1, r3, r0, r3
 120 0056 1B09     		lsrs	r3, r3, #4
  83:HW_Lib/AT32F435/drivers/src/at32f435_437_dma.c ****   }
 121              		.loc 1 83 70 view .LVU35
 122 0058 9B00     		lsls	r3, r3, #2
  83:HW_Lib/AT32F435/drivers/src/at32f435_437_dma.c ****   }
 123              		.loc 1 83 34 view .LVU36
 124 005a 0F21     		movs	r1, #15
 125 005c 01FA03F3 		lsl	r3, r1, r3
  83:HW_Lib/AT32F435/drivers/src/at32f435_437_dma.c ****   }
 126              		.loc 1 83 15 view .LVU37
 127 0060 1343     		orrs	r3, r3, r2
 128 0062 6360     		str	r3, [r4, #4]
 129              		.loc 1 85 1 view .LVU38
 130 0064 EAE7     		b	.L1
 131              	.L6:
 132 0066 00BF     		.align	2
 133              	.L5:
ARM GAS  C:\Users\8bit\AppData\Local\Temp\cc5wUo7f.s 			page 5


 134 0068 00640240 		.word	1073898496
 135 006c CDCCCCCC 		.word	-858993459
 136 0070 00660240 		.word	1073899008
 137              		.cfi_endproc
 138              	.LFE133:
 140              		.section	.text.dma_data_number_set,"ax",%progbits
 141              		.align	1
 142              		.global	dma_data_number_set
 143              		.syntax unified
 144              		.thumb
 145              		.thumb_func
 147              	dma_data_number_set:
 148              	.LVL6:
 149              	.LFB134:
  86:HW_Lib/AT32F435/drivers/src/at32f435_437_dma.c **** 
  87:HW_Lib/AT32F435/drivers/src/at32f435_437_dma.c **** /**
  88:HW_Lib/AT32F435/drivers/src/at32f435_437_dma.c ****   * @brief  set the number of data to be transferred.
  89:HW_Lib/AT32F435/drivers/src/at32f435_437_dma.c ****   * @param  dmax_channely:
  90:HW_Lib/AT32F435/drivers/src/at32f435_437_dma.c ****   *         this parameter can be one of the following values:
  91:HW_Lib/AT32F435/drivers/src/at32f435_437_dma.c ****   *         - DMA1_CHANNEL1
  92:HW_Lib/AT32F435/drivers/src/at32f435_437_dma.c ****   *         - DMA1_CHANNEL2
  93:HW_Lib/AT32F435/drivers/src/at32f435_437_dma.c ****   *         - DMA1_CHANNEL3
  94:HW_Lib/AT32F435/drivers/src/at32f435_437_dma.c ****   *         - DMA1_CHANNEL4
  95:HW_Lib/AT32F435/drivers/src/at32f435_437_dma.c ****   *         - DMA1_CHANNEL5
  96:HW_Lib/AT32F435/drivers/src/at32f435_437_dma.c ****   *         - DMA1_CHANNEL6
  97:HW_Lib/AT32F435/drivers/src/at32f435_437_dma.c ****   *         - DMA1_CHANNEL7
  98:HW_Lib/AT32F435/drivers/src/at32f435_437_dma.c ****   *         - DMA2_CHANNEL1
  99:HW_Lib/AT32F435/drivers/src/at32f435_437_dma.c ****   *         - DMA2_CHANNEL2
 100:HW_Lib/AT32F435/drivers/src/at32f435_437_dma.c ****   *         - DMA2_CHANNEL3
 101:HW_Lib/AT32F435/drivers/src/at32f435_437_dma.c ****   *         - DMA2_CHANNEL4
 102:HW_Lib/AT32F435/drivers/src/at32f435_437_dma.c ****   *         - DMA2_CHANNEL5
 103:HW_Lib/AT32F435/drivers/src/at32f435_437_dma.c ****   *         - DMA2_CHANNEL6
 104:HW_Lib/AT32F435/drivers/src/at32f435_437_dma.c ****   *         - DMA2_CHANNEL7
 105:HW_Lib/AT32F435/drivers/src/at32f435_437_dma.c ****   * @param  data_number: the number of data to be transferred (0x0000~0xFFFF).
 106:HW_Lib/AT32F435/drivers/src/at32f435_437_dma.c ****   * @retval none.
 107:HW_Lib/AT32F435/drivers/src/at32f435_437_dma.c ****   */
 108:HW_Lib/AT32F435/drivers/src/at32f435_437_dma.c **** void dma_data_number_set(dma_channel_type *dmax_channely, uint16_t data_number)
 109:HW_Lib/AT32F435/drivers/src/at32f435_437_dma.c **** {
 150              		.loc 1 109 1 is_stmt 1 view -0
 151              		.cfi_startproc
 152              		@ args = 0, pretend = 0, frame = 0
 153              		@ frame_needed = 0, uses_anonymous_args = 0
 154              		@ link register save eliminated.
 110:HW_Lib/AT32F435/drivers/src/at32f435_437_dma.c ****   dmax_channely->dtcnt = data_number;
 155              		.loc 1 110 3 view .LVU40
 156              		.loc 1 110 24 is_stmt 0 view .LVU41
 157 0000 4160     		str	r1, [r0, #4]
 111:HW_Lib/AT32F435/drivers/src/at32f435_437_dma.c **** }
 158              		.loc 1 111 1 view .LVU42
 159 0002 7047     		bx	lr
 160              		.cfi_endproc
 161              	.LFE134:
 163              		.section	.text.dma_data_number_get,"ax",%progbits
 164              		.align	1
 165              		.global	dma_data_number_get
 166              		.syntax unified
 167              		.thumb
ARM GAS  C:\Users\8bit\AppData\Local\Temp\cc5wUo7f.s 			page 6


 168              		.thumb_func
 170              	dma_data_number_get:
 171              	.LVL7:
 172              	.LFB135:
 112:HW_Lib/AT32F435/drivers/src/at32f435_437_dma.c **** 
 113:HW_Lib/AT32F435/drivers/src/at32f435_437_dma.c **** /**
 114:HW_Lib/AT32F435/drivers/src/at32f435_437_dma.c ****   * @brief  get the number of data to be transferred.
 115:HW_Lib/AT32F435/drivers/src/at32f435_437_dma.c ****   * @param  dmax_channely:
 116:HW_Lib/AT32F435/drivers/src/at32f435_437_dma.c ****   *         this parameter can be one of the following values:
 117:HW_Lib/AT32F435/drivers/src/at32f435_437_dma.c ****   *         - DMA1_CHANNEL1
 118:HW_Lib/AT32F435/drivers/src/at32f435_437_dma.c ****   *         - DMA1_CHANNEL2
 119:HW_Lib/AT32F435/drivers/src/at32f435_437_dma.c ****   *         - DMA1_CHANNEL3
 120:HW_Lib/AT32F435/drivers/src/at32f435_437_dma.c ****   *         - DMA1_CHANNEL4
 121:HW_Lib/AT32F435/drivers/src/at32f435_437_dma.c ****   *         - DMA1_CHANNEL5
 122:HW_Lib/AT32F435/drivers/src/at32f435_437_dma.c ****   *         - DMA1_CHANNEL6
 123:HW_Lib/AT32F435/drivers/src/at32f435_437_dma.c ****   *         - DMA1_CHANNEL7
 124:HW_Lib/AT32F435/drivers/src/at32f435_437_dma.c ****   *         - DMA2_CHANNEL1
 125:HW_Lib/AT32F435/drivers/src/at32f435_437_dma.c ****   *         - DMA2_CHANNEL2
 126:HW_Lib/AT32F435/drivers/src/at32f435_437_dma.c ****   *         - DMA2_CHANNEL3
 127:HW_Lib/AT32F435/drivers/src/at32f435_437_dma.c ****   *         - DMA2_CHANNEL4
 128:HW_Lib/AT32F435/drivers/src/at32f435_437_dma.c ****   *         - DMA2_CHANNEL5
 129:HW_Lib/AT32F435/drivers/src/at32f435_437_dma.c ****   *         - DMA2_CHANNEL6
 130:HW_Lib/AT32F435/drivers/src/at32f435_437_dma.c ****   *         - DMA2_CHANNEL7
 131:HW_Lib/AT32F435/drivers/src/at32f435_437_dma.c ****   * @retval the number value.
 132:HW_Lib/AT32F435/drivers/src/at32f435_437_dma.c ****   */
 133:HW_Lib/AT32F435/drivers/src/at32f435_437_dma.c **** uint16_t dma_data_number_get(dma_channel_type *dmax_channely)
 134:HW_Lib/AT32F435/drivers/src/at32f435_437_dma.c **** {
 173              		.loc 1 134 1 is_stmt 1 view -0
 174              		.cfi_startproc
 175              		@ args = 0, pretend = 0, frame = 0
 176              		@ frame_needed = 0, uses_anonymous_args = 0
 177              		@ link register save eliminated.
 135:HW_Lib/AT32F435/drivers/src/at32f435_437_dma.c ****   return (uint16_t)dmax_channely->dtcnt;
 178              		.loc 1 135 3 view .LVU44
 179              		.loc 1 135 33 is_stmt 0 view .LVU45
 180 0000 4068     		ldr	r0, [r0, #4]
 181              	.LVL8:
 136:HW_Lib/AT32F435/drivers/src/at32f435_437_dma.c **** }
 182              		.loc 1 136 1 view .LVU46
 183 0002 80B2     		uxth	r0, r0
 184 0004 7047     		bx	lr
 185              		.cfi_endproc
 186              	.LFE135:
 188              		.section	.text.dma_interrupt_enable,"ax",%progbits
 189              		.align	1
 190              		.global	dma_interrupt_enable
 191              		.syntax unified
 192              		.thumb
 193              		.thumb_func
 195              	dma_interrupt_enable:
 196              	.LVL9:
 197              	.LFB136:
 137:HW_Lib/AT32F435/drivers/src/at32f435_437_dma.c **** 
 138:HW_Lib/AT32F435/drivers/src/at32f435_437_dma.c **** /**
 139:HW_Lib/AT32F435/drivers/src/at32f435_437_dma.c ****   * @brief  enable or disable dma interrupt.
 140:HW_Lib/AT32F435/drivers/src/at32f435_437_dma.c ****   * @param  dmax_channely:
 141:HW_Lib/AT32F435/drivers/src/at32f435_437_dma.c ****   *         this parameter can be one of the following values:
ARM GAS  C:\Users\8bit\AppData\Local\Temp\cc5wUo7f.s 			page 7


 142:HW_Lib/AT32F435/drivers/src/at32f435_437_dma.c ****   *         - DMA1_CHANNEL1
 143:HW_Lib/AT32F435/drivers/src/at32f435_437_dma.c ****   *         - DMA1_CHANNEL2
 144:HW_Lib/AT32F435/drivers/src/at32f435_437_dma.c ****   *         - DMA1_CHANNEL3
 145:HW_Lib/AT32F435/drivers/src/at32f435_437_dma.c ****   *         - DMA1_CHANNEL4
 146:HW_Lib/AT32F435/drivers/src/at32f435_437_dma.c ****   *         - DMA1_CHANNEL5
 147:HW_Lib/AT32F435/drivers/src/at32f435_437_dma.c ****   *         - DMA1_CHANNEL6
 148:HW_Lib/AT32F435/drivers/src/at32f435_437_dma.c ****   *         - DMA1_CHANNEL7
 149:HW_Lib/AT32F435/drivers/src/at32f435_437_dma.c ****   *         - DMA2_CHANNEL1
 150:HW_Lib/AT32F435/drivers/src/at32f435_437_dma.c ****   *         - DMA2_CHANNEL2
 151:HW_Lib/AT32F435/drivers/src/at32f435_437_dma.c ****   *         - DMA2_CHANNEL3
 152:HW_Lib/AT32F435/drivers/src/at32f435_437_dma.c ****   *         - DMA2_CHANNEL4
 153:HW_Lib/AT32F435/drivers/src/at32f435_437_dma.c ****   *         - DMA2_CHANNEL5
 154:HW_Lib/AT32F435/drivers/src/at32f435_437_dma.c ****   *         - DMA2_CHANNEL6
 155:HW_Lib/AT32F435/drivers/src/at32f435_437_dma.c ****   *         - DMA2_CHANNEL7
 156:HW_Lib/AT32F435/drivers/src/at32f435_437_dma.c ****   * @param  dma_int:
 157:HW_Lib/AT32F435/drivers/src/at32f435_437_dma.c ****   *         this parameter can be any combination of the following values:
 158:HW_Lib/AT32F435/drivers/src/at32f435_437_dma.c ****   *         - DMA_FDT_INT
 159:HW_Lib/AT32F435/drivers/src/at32f435_437_dma.c ****   *         - DMA_HDT_INT
 160:HW_Lib/AT32F435/drivers/src/at32f435_437_dma.c ****   *         - DMA_DTERR_INT
 161:HW_Lib/AT32F435/drivers/src/at32f435_437_dma.c ****   * @param  new_state (TRUE or FALSE)
 162:HW_Lib/AT32F435/drivers/src/at32f435_437_dma.c ****   * @retval none.
 163:HW_Lib/AT32F435/drivers/src/at32f435_437_dma.c ****   */
 164:HW_Lib/AT32F435/drivers/src/at32f435_437_dma.c **** void dma_interrupt_enable(dma_channel_type *dmax_channely, uint32_t dma_int, confirm_state new_stat
 165:HW_Lib/AT32F435/drivers/src/at32f435_437_dma.c **** {
 198              		.loc 1 165 1 is_stmt 1 view -0
 199              		.cfi_startproc
 200              		@ args = 0, pretend = 0, frame = 0
 201              		@ frame_needed = 0, uses_anonymous_args = 0
 202              		@ link register save eliminated.
 166:HW_Lib/AT32F435/drivers/src/at32f435_437_dma.c ****   if(new_state != FALSE)
 203              		.loc 1 166 3 view .LVU48
 204              		.loc 1 166 5 is_stmt 0 view .LVU49
 205 0000 1AB1     		cbz	r2, .L10
 167:HW_Lib/AT32F435/drivers/src/at32f435_437_dma.c ****   {
 168:HW_Lib/AT32F435/drivers/src/at32f435_437_dma.c ****     dmax_channely->ctrl |= dma_int;
 206              		.loc 1 168 5 is_stmt 1 view .LVU50
 207              		.loc 1 168 25 is_stmt 0 view .LVU51
 208 0002 0368     		ldr	r3, [r0]
 209 0004 1943     		orrs	r1, r1, r3
 210              	.LVL10:
 211              		.loc 1 168 25 view .LVU52
 212 0006 0160     		str	r1, [r0]
 213 0008 7047     		bx	lr
 214              	.LVL11:
 215              	.L10:
 169:HW_Lib/AT32F435/drivers/src/at32f435_437_dma.c ****   }
 170:HW_Lib/AT32F435/drivers/src/at32f435_437_dma.c ****   else
 171:HW_Lib/AT32F435/drivers/src/at32f435_437_dma.c ****   {
 172:HW_Lib/AT32F435/drivers/src/at32f435_437_dma.c ****     dmax_channely->ctrl &= ~dma_int;
 216              		.loc 1 172 5 is_stmt 1 view .LVU53
 217              		.loc 1 172 25 is_stmt 0 view .LVU54
 218 000a 0368     		ldr	r3, [r0]
 219 000c 23EA0101 		bic	r1, r3, r1
 220              	.LVL12:
 221              		.loc 1 172 25 view .LVU55
 222 0010 0160     		str	r1, [r0]
 173:HW_Lib/AT32F435/drivers/src/at32f435_437_dma.c ****   }
ARM GAS  C:\Users\8bit\AppData\Local\Temp\cc5wUo7f.s 			page 8


 174:HW_Lib/AT32F435/drivers/src/at32f435_437_dma.c **** }
 223              		.loc 1 174 1 view .LVU56
 224 0012 7047     		bx	lr
 225              		.cfi_endproc
 226              	.LFE136:
 228              		.section	.text.dma_channel_enable,"ax",%progbits
 229              		.align	1
 230              		.global	dma_channel_enable
 231              		.syntax unified
 232              		.thumb
 233              		.thumb_func
 235              	dma_channel_enable:
 236              	.LVL13:
 237              	.LFB137:
 175:HW_Lib/AT32F435/drivers/src/at32f435_437_dma.c **** 
 176:HW_Lib/AT32F435/drivers/src/at32f435_437_dma.c **** /**
 177:HW_Lib/AT32F435/drivers/src/at32f435_437_dma.c ****   * @brief  enable or disable dma channel.
 178:HW_Lib/AT32F435/drivers/src/at32f435_437_dma.c ****   * @param  dmax_channely:
 179:HW_Lib/AT32F435/drivers/src/at32f435_437_dma.c ****   *         this parameter can be one of the following values:
 180:HW_Lib/AT32F435/drivers/src/at32f435_437_dma.c ****   *         - DMA1_CHANNEL1
 181:HW_Lib/AT32F435/drivers/src/at32f435_437_dma.c ****   *         - DMA1_CHANNEL2
 182:HW_Lib/AT32F435/drivers/src/at32f435_437_dma.c ****   *         - DMA1_CHANNEL3
 183:HW_Lib/AT32F435/drivers/src/at32f435_437_dma.c ****   *         - DMA1_CHANNEL4
 184:HW_Lib/AT32F435/drivers/src/at32f435_437_dma.c ****   *         - DMA1_CHANNEL5
 185:HW_Lib/AT32F435/drivers/src/at32f435_437_dma.c ****   *         - DMA1_CHANNEL6
 186:HW_Lib/AT32F435/drivers/src/at32f435_437_dma.c ****   *         - DMA1_CHANNEL7
 187:HW_Lib/AT32F435/drivers/src/at32f435_437_dma.c ****   *         - DMA2_CHANNEL1
 188:HW_Lib/AT32F435/drivers/src/at32f435_437_dma.c ****   *         - DMA2_CHANNEL2
 189:HW_Lib/AT32F435/drivers/src/at32f435_437_dma.c ****   *         - DMA2_CHANNEL3
 190:HW_Lib/AT32F435/drivers/src/at32f435_437_dma.c ****   *         - DMA2_CHANNEL4
 191:HW_Lib/AT32F435/drivers/src/at32f435_437_dma.c ****   *         - DMA2_CHANNEL5
 192:HW_Lib/AT32F435/drivers/src/at32f435_437_dma.c ****   *         - DMA2_CHANNEL6
 193:HW_Lib/AT32F435/drivers/src/at32f435_437_dma.c ****   *         - DMA2_CHANNEL7
 194:HW_Lib/AT32F435/drivers/src/at32f435_437_dma.c ****   * @param  new_state (TRUE or FALSE).
 195:HW_Lib/AT32F435/drivers/src/at32f435_437_dma.c ****   * @retval none.
 196:HW_Lib/AT32F435/drivers/src/at32f435_437_dma.c ****   */
 197:HW_Lib/AT32F435/drivers/src/at32f435_437_dma.c **** void dma_channel_enable(dma_channel_type *dmax_channely, confirm_state new_state)
 198:HW_Lib/AT32F435/drivers/src/at32f435_437_dma.c **** {
 238              		.loc 1 198 1 is_stmt 1 view -0
 239              		.cfi_startproc
 240              		@ args = 0, pretend = 0, frame = 0
 241              		@ frame_needed = 0, uses_anonymous_args = 0
 242              		@ link register save eliminated.
 199:HW_Lib/AT32F435/drivers/src/at32f435_437_dma.c ****   dmax_channely->ctrl_bit.chen = new_state;
 243              		.loc 1 199 3 view .LVU58
 244              		.loc 1 199 32 is_stmt 0 view .LVU59
 245 0000 0368     		ldr	r3, [r0]
 246 0002 61F30003 		bfi	r3, r1, #0, #1
 247 0006 0360     		str	r3, [r0]
 200:HW_Lib/AT32F435/drivers/src/at32f435_437_dma.c **** }
 248              		.loc 1 200 1 view .LVU60
 249 0008 7047     		bx	lr
 250              		.cfi_endproc
 251              	.LFE137:
 253              		.section	.text.dma_flag_get,"ax",%progbits
 254              		.align	1
 255              		.global	dma_flag_get
ARM GAS  C:\Users\8bit\AppData\Local\Temp\cc5wUo7f.s 			page 9


 256              		.syntax unified
 257              		.thumb
 258              		.thumb_func
 260              	dma_flag_get:
 261              	.LVL14:
 262              	.LFB138:
 201:HW_Lib/AT32F435/drivers/src/at32f435_437_dma.c **** 
 202:HW_Lib/AT32F435/drivers/src/at32f435_437_dma.c **** /**
 203:HW_Lib/AT32F435/drivers/src/at32f435_437_dma.c ****   * @brief  dma flag get.
 204:HW_Lib/AT32F435/drivers/src/at32f435_437_dma.c ****   * @param  dma_flag
 205:HW_Lib/AT32F435/drivers/src/at32f435_437_dma.c ****   *         - DMA1_GL1_FLAG        - DMA1_FDT1_FLAG        - DMA1_HDT1_FLAG        - DMA1_DTERR1_FL
 206:HW_Lib/AT32F435/drivers/src/at32f435_437_dma.c ****   *         - DMA1_GL2_FLAG        - DMA1_FDT2_FLAG        - DMA1_HDT2_FLAG        - DMA1_DTERR2_FL
 207:HW_Lib/AT32F435/drivers/src/at32f435_437_dma.c ****   *         - DMA1_GL3_FLAG        - DMA1_FDT3_FLAG        - DMA1_HDT3_FLAG        - DMA1_DTERR3_FL
 208:HW_Lib/AT32F435/drivers/src/at32f435_437_dma.c ****   *         - DMA1_GL4_FLAG        - DMA1_FDT4_FLAG        - DMA1_HDT4_FLAG        - DMA1_DTERR4_FL
 209:HW_Lib/AT32F435/drivers/src/at32f435_437_dma.c ****   *         - DMA1_GL5_FLAG        - DMA1_FDT5_FLAG        - DMA1_HDT5_FLAG        - DMA1_DTERR5_FL
 210:HW_Lib/AT32F435/drivers/src/at32f435_437_dma.c ****   *         - DMA1_GL6_FLAG        - DMA1_FDT6_FLAG        - DMA1_HDT6_FLAG        - DMA1_DTERR6_FL
 211:HW_Lib/AT32F435/drivers/src/at32f435_437_dma.c ****   *         - DMA1_GL7_FLAG        - DMA1_FDT7_FLAG        - DMA1_HDT7_FLAG        - DMA1_DTERR7_FL
 212:HW_Lib/AT32F435/drivers/src/at32f435_437_dma.c ****   *         - DMA2_GL1_FLAG        - DMA2_FDT1_FLAG        - DMA2_HDT1_FLAG        - DMA2_DTERR1_FL
 213:HW_Lib/AT32F435/drivers/src/at32f435_437_dma.c ****   *         - DMA2_GL2_FLAG        - DMA2_FDT2_FLAG        - DMA2_HDT2_FLAG        - DMA2_DTERR2_FL
 214:HW_Lib/AT32F435/drivers/src/at32f435_437_dma.c ****   *         - DMA2_GL3_FLAG        - DMA2_FDT3_FLAG        - DMA2_HDT3_FLAG        - DMA2_DTERR3_FL
 215:HW_Lib/AT32F435/drivers/src/at32f435_437_dma.c ****   *         - DMA2_GL4_FLAG        - DMA2_FDT4_FLAG        - DMA2_HDT4_FLAG        - DMA2_DTERR4_FL
 216:HW_Lib/AT32F435/drivers/src/at32f435_437_dma.c ****   *         - DMA2_GL5_FLAG        - DMA2_FDT5_FLAG        - DMA2_HDT5_FLAG        - DMA2_DTERR5_FL
 217:HW_Lib/AT32F435/drivers/src/at32f435_437_dma.c ****   *         - DMA2_GL6_FLAG        - DMA2_FDT6_FLAG        - DMA2_HDT6_FLAG        - DMA2_DTERR6_FL
 218:HW_Lib/AT32F435/drivers/src/at32f435_437_dma.c ****   *         - DMA2_GL7_FLAG        - DMA2_FDT7_FLAG        - DMA2_HDT7_FLAG        - DMA2_DTERR7_FL
 219:HW_Lib/AT32F435/drivers/src/at32f435_437_dma.c ****   * @retval state of dma flag.
 220:HW_Lib/AT32F435/drivers/src/at32f435_437_dma.c ****   */
 221:HW_Lib/AT32F435/drivers/src/at32f435_437_dma.c **** flag_status dma_flag_get(uint32_t dmax_flag)
 222:HW_Lib/AT32F435/drivers/src/at32f435_437_dma.c **** {
 263              		.loc 1 222 1 is_stmt 1 view -0
 264              		.cfi_startproc
 265              		@ args = 0, pretend = 0, frame = 0
 266              		@ frame_needed = 0, uses_anonymous_args = 0
 267              		@ link register save eliminated.
 223:HW_Lib/AT32F435/drivers/src/at32f435_437_dma.c ****   uint32_t temp = 0;
 268              		.loc 1 223 3 view .LVU62
 224:HW_Lib/AT32F435/drivers/src/at32f435_437_dma.c **** 
 225:HW_Lib/AT32F435/drivers/src/at32f435_437_dma.c ****   if(dmax_flag > 0x10000000)
 269              		.loc 1 225 3 view .LVU63
 270              		.loc 1 225 5 is_stmt 0 view .LVU64
 271 0000 B0F1805F 		cmp	r0, #268435456
 272 0004 05D9     		bls	.L14
 226:HW_Lib/AT32F435/drivers/src/at32f435_437_dma.c ****   {
 227:HW_Lib/AT32F435/drivers/src/at32f435_437_dma.c ****     temp = DMA2->sts;
 273              		.loc 1 227 5 is_stmt 1 view .LVU65
 274              		.loc 1 227 10 is_stmt 0 view .LVU66
 275 0006 054B     		ldr	r3, .L18
 276 0008 1B68     		ldr	r3, [r3]
 277              	.LVL15:
 278              	.L15:
 228:HW_Lib/AT32F435/drivers/src/at32f435_437_dma.c ****   }
 229:HW_Lib/AT32F435/drivers/src/at32f435_437_dma.c ****   else
 230:HW_Lib/AT32F435/drivers/src/at32f435_437_dma.c ****   {
 231:HW_Lib/AT32F435/drivers/src/at32f435_437_dma.c ****     temp = DMA1->sts;
 232:HW_Lib/AT32F435/drivers/src/at32f435_437_dma.c ****   }
 233:HW_Lib/AT32F435/drivers/src/at32f435_437_dma.c **** 
 234:HW_Lib/AT32F435/drivers/src/at32f435_437_dma.c ****   if((temp & dmax_flag) != RESET)
 279              		.loc 1 234 3 is_stmt 1 view .LVU67
ARM GAS  C:\Users\8bit\AppData\Local\Temp\cc5wUo7f.s 			page 10


 280              		.loc 1 234 5 is_stmt 0 view .LVU68
 281 000a 0342     		tst	r3, r0
 282 000c 04D0     		beq	.L17
 235:HW_Lib/AT32F435/drivers/src/at32f435_437_dma.c ****   {
 236:HW_Lib/AT32F435/drivers/src/at32f435_437_dma.c ****     return SET;
 283              		.loc 1 236 12 view .LVU69
 284 000e 0120     		movs	r0, #1
 285              	.LVL16:
 286              		.loc 1 236 12 view .LVU70
 287 0010 7047     		bx	lr
 288              	.LVL17:
 289              	.L14:
 231:HW_Lib/AT32F435/drivers/src/at32f435_437_dma.c ****   }
 290              		.loc 1 231 5 is_stmt 1 view .LVU71
 231:HW_Lib/AT32F435/drivers/src/at32f435_437_dma.c ****   }
 291              		.loc 1 231 10 is_stmt 0 view .LVU72
 292 0012 034B     		ldr	r3, .L18+4
 293 0014 1B68     		ldr	r3, [r3]
 294              	.LVL18:
 231:HW_Lib/AT32F435/drivers/src/at32f435_437_dma.c ****   }
 295              		.loc 1 231 10 view .LVU73
 296 0016 F8E7     		b	.L15
 297              	.L17:
 237:HW_Lib/AT32F435/drivers/src/at32f435_437_dma.c ****   }
 238:HW_Lib/AT32F435/drivers/src/at32f435_437_dma.c ****   else
 239:HW_Lib/AT32F435/drivers/src/at32f435_437_dma.c ****   {
 240:HW_Lib/AT32F435/drivers/src/at32f435_437_dma.c ****     return RESET;
 298              		.loc 1 240 12 view .LVU74
 299 0018 0020     		movs	r0, #0
 300              	.LVL19:
 241:HW_Lib/AT32F435/drivers/src/at32f435_437_dma.c ****   }
 242:HW_Lib/AT32F435/drivers/src/at32f435_437_dma.c **** }
 301              		.loc 1 242 1 view .LVU75
 302 001a 7047     		bx	lr
 303              	.L19:
 304              		.align	2
 305              	.L18:
 306 001c 00660240 		.word	1073899008
 307 0020 00640240 		.word	1073898496
 308              		.cfi_endproc
 309              	.LFE138:
 311              		.section	.text.dma_flag_clear,"ax",%progbits
 312              		.align	1
 313              		.global	dma_flag_clear
 314              		.syntax unified
 315              		.thumb
 316              		.thumb_func
 318              	dma_flag_clear:
 319              	.LVL20:
 320              	.LFB139:
 243:HW_Lib/AT32F435/drivers/src/at32f435_437_dma.c **** 
 244:HW_Lib/AT32F435/drivers/src/at32f435_437_dma.c **** /**
 245:HW_Lib/AT32F435/drivers/src/at32f435_437_dma.c ****   * @brief  dma flag clear.
 246:HW_Lib/AT32F435/drivers/src/at32f435_437_dma.c ****   * @param  dma_flag
 247:HW_Lib/AT32F435/drivers/src/at32f435_437_dma.c ****   *         this parameter can be one of the following values:
 248:HW_Lib/AT32F435/drivers/src/at32f435_437_dma.c ****   *         - DMA1_GL1_FLAG        - DMA1_FDT1_FLAG        - DMA1_HDT1_FLAG        - DMA1_DTERR1_FL
 249:HW_Lib/AT32F435/drivers/src/at32f435_437_dma.c ****   *         - DMA1_GL2_FLAG        - DMA1_FDT2_FLAG        - DMA1_HDT2_FLAG        - DMA1_DTERR2_FL
ARM GAS  C:\Users\8bit\AppData\Local\Temp\cc5wUo7f.s 			page 11


 250:HW_Lib/AT32F435/drivers/src/at32f435_437_dma.c ****   *         - DMA1_GL3_FLAG        - DMA1_FDT3_FLAG        - DMA1_HDT3_FLAG        - DMA1_DTERR3_FL
 251:HW_Lib/AT32F435/drivers/src/at32f435_437_dma.c ****   *         - DMA1_GL4_FLAG        - DMA1_FDT4_FLAG        - DMA1_HDT4_FLAG        - DMA1_DTERR4_FL
 252:HW_Lib/AT32F435/drivers/src/at32f435_437_dma.c ****   *         - DMA1_GL5_FLAG        - DMA1_FDT5_FLAG        - DMA1_HDT5_FLAG        - DMA1_DTERR5_FL
 253:HW_Lib/AT32F435/drivers/src/at32f435_437_dma.c ****   *         - DMA1_GL6_FLAG        - DMA1_FDT6_FLAG        - DMA1_HDT6_FLAG        - DMA1_DTERR6_FL
 254:HW_Lib/AT32F435/drivers/src/at32f435_437_dma.c ****   *         - DMA1_GL7_FLAG        - DMA1_FDT7_FLAG        - DMA1_HDT7_FLAG        - DMA1_DTERR7_FL
 255:HW_Lib/AT32F435/drivers/src/at32f435_437_dma.c ****   *         - DMA2_GL1_FLAG        - DMA2_FDT1_FLAG        - DMA2_HDT1_FLAG        - DMA2_DTERR1_FL
 256:HW_Lib/AT32F435/drivers/src/at32f435_437_dma.c ****   *         - DMA2_GL2_FLAG        - DMA2_FDT2_FLAG        - DMA2_HDT2_FLAG        - DMA2_DTERR2_FL
 257:HW_Lib/AT32F435/drivers/src/at32f435_437_dma.c ****   *         - DMA2_GL3_FLAG        - DMA2_FDT3_FLAG        - DMA2_HDT3_FLAG        - DMA2_DTERR3_FL
 258:HW_Lib/AT32F435/drivers/src/at32f435_437_dma.c ****   *         - DMA2_GL4_FLAG        - DMA2_FDT4_FLAG        - DMA2_HDT4_FLAG        - DMA2_DTERR4_FL
 259:HW_Lib/AT32F435/drivers/src/at32f435_437_dma.c ****   *         - DMA2_GL5_FLAG        - DMA2_FDT5_FLAG        - DMA2_HDT5_FLAG        - DMA2_DTERR5_FL
 260:HW_Lib/AT32F435/drivers/src/at32f435_437_dma.c ****   *         - DMA2_GL6_FLAG        - DMA2_FDT6_FLAG        - DMA2_HDT6_FLAG        - DMA2_DTERR6_FL
 261:HW_Lib/AT32F435/drivers/src/at32f435_437_dma.c ****   *         - DMA2_GL7_FLAG        - DMA2_FDT7_FLAG        - DMA2_HDT7_FLAG        - DMA2_DTERR7_FL
 262:HW_Lib/AT32F435/drivers/src/at32f435_437_dma.c ****   * @retval none.
 263:HW_Lib/AT32F435/drivers/src/at32f435_437_dma.c ****   */
 264:HW_Lib/AT32F435/drivers/src/at32f435_437_dma.c **** void dma_flag_clear(uint32_t dmax_flag)
 265:HW_Lib/AT32F435/drivers/src/at32f435_437_dma.c **** {
 321              		.loc 1 265 1 is_stmt 1 view -0
 322              		.cfi_startproc
 323              		@ args = 0, pretend = 0, frame = 0
 324              		@ frame_needed = 0, uses_anonymous_args = 0
 325              		@ link register save eliminated.
 266:HW_Lib/AT32F435/drivers/src/at32f435_437_dma.c ****   if(dmax_flag > ((uint32_t)0x10000000))
 326              		.loc 1 266 3 view .LVU77
 327              		.loc 1 266 5 is_stmt 0 view .LVU78
 328 0000 B0F1805F 		cmp	r0, #268435456
 329 0004 04D9     		bls	.L21
 267:HW_Lib/AT32F435/drivers/src/at32f435_437_dma.c ****   {
 268:HW_Lib/AT32F435/drivers/src/at32f435_437_dma.c ****     DMA2->clr = (uint32_t)(dmax_flag & 0x0FFFFFFF);
 330              		.loc 1 268 5 is_stmt 1 view .LVU79
 331              		.loc 1 268 17 is_stmt 0 view .LVU80
 332 0006 20F07040 		bic	r0, r0, #-268435456
 333              	.LVL21:
 334              		.loc 1 268 15 view .LVU81
 335 000a 034B     		ldr	r3, .L23
 336 000c 5860     		str	r0, [r3, #4]
 337 000e 7047     		bx	lr
 338              	.LVL22:
 339              	.L21:
 269:HW_Lib/AT32F435/drivers/src/at32f435_437_dma.c ****   }
 270:HW_Lib/AT32F435/drivers/src/at32f435_437_dma.c ****   else
 271:HW_Lib/AT32F435/drivers/src/at32f435_437_dma.c ****   {
 272:HW_Lib/AT32F435/drivers/src/at32f435_437_dma.c ****     DMA1->clr = dmax_flag;
 340              		.loc 1 272 5 is_stmt 1 view .LVU82
 341              		.loc 1 272 15 is_stmt 0 view .LVU83
 342 0010 024B     		ldr	r3, .L23+4
 343 0012 5860     		str	r0, [r3, #4]
 273:HW_Lib/AT32F435/drivers/src/at32f435_437_dma.c ****   }
 274:HW_Lib/AT32F435/drivers/src/at32f435_437_dma.c **** }
 344              		.loc 1 274 1 view .LVU84
 345 0014 7047     		bx	lr
 346              	.L24:
 347 0016 00BF     		.align	2
 348              	.L23:
 349 0018 00660240 		.word	1073899008
 350 001c 00640240 		.word	1073898496
 351              		.cfi_endproc
 352              	.LFE139:
ARM GAS  C:\Users\8bit\AppData\Local\Temp\cc5wUo7f.s 			page 12


 354              		.section	.text.dma_default_para_init,"ax",%progbits
 355              		.align	1
 356              		.global	dma_default_para_init
 357              		.syntax unified
 358              		.thumb
 359              		.thumb_func
 361              	dma_default_para_init:
 362              	.LVL23:
 363              	.LFB140:
 275:HW_Lib/AT32F435/drivers/src/at32f435_437_dma.c **** 
 276:HW_Lib/AT32F435/drivers/src/at32f435_437_dma.c **** /**
 277:HW_Lib/AT32F435/drivers/src/at32f435_437_dma.c ****   * @brief  dma init config with its default value.
 278:HW_Lib/AT32F435/drivers/src/at32f435_437_dma.c ****   * @param  dma_init_struct: pointer to a dma_init_type structure which will be initialized.
 279:HW_Lib/AT32F435/drivers/src/at32f435_437_dma.c ****   * @retval none.
 280:HW_Lib/AT32F435/drivers/src/at32f435_437_dma.c ****   */
 281:HW_Lib/AT32F435/drivers/src/at32f435_437_dma.c **** void dma_default_para_init(dma_init_type *dma_init_struct)
 282:HW_Lib/AT32F435/drivers/src/at32f435_437_dma.c **** {
 364              		.loc 1 282 1 is_stmt 1 view -0
 365              		.cfi_startproc
 366              		@ args = 0, pretend = 0, frame = 0
 367              		@ frame_needed = 0, uses_anonymous_args = 0
 368              		@ link register save eliminated.
 283:HW_Lib/AT32F435/drivers/src/at32f435_437_dma.c ****   dma_init_struct->peripheral_base_addr = 0;
 369              		.loc 1 283 3 view .LVU86
 370              		.loc 1 283 41 is_stmt 0 view .LVU87
 371 0000 0023     		movs	r3, #0
 372 0002 0360     		str	r3, [r0]
 284:HW_Lib/AT32F435/drivers/src/at32f435_437_dma.c ****   dma_init_struct->memory_base_addr = 0;
 373              		.loc 1 284 3 is_stmt 1 view .LVU88
 374              		.loc 1 284 37 is_stmt 0 view .LVU89
 375 0004 4360     		str	r3, [r0, #4]
 285:HW_Lib/AT32F435/drivers/src/at32f435_437_dma.c ****   dma_init_struct->direction = DMA_DIR_PERIPHERAL_TO_MEMORY;
 376              		.loc 1 285 3 is_stmt 1 view .LVU90
 377              		.loc 1 285 30 is_stmt 0 view .LVU91
 378 0006 0381     		strh	r3, [r0, #8]	@ movhi
 286:HW_Lib/AT32F435/drivers/src/at32f435_437_dma.c ****   dma_init_struct->buffer_size = 0;
 379              		.loc 1 286 3 is_stmt 1 view .LVU92
 380              		.loc 1 286 32 is_stmt 0 view .LVU93
 381 0008 4381     		strh	r3, [r0, #10]	@ movhi
 287:HW_Lib/AT32F435/drivers/src/at32f435_437_dma.c ****   dma_init_struct->peripheral_inc_enable = FALSE;
 382              		.loc 1 287 3 is_stmt 1 view .LVU94
 383              		.loc 1 287 42 is_stmt 0 view .LVU95
 384 000a 0373     		strb	r3, [r0, #12]
 288:HW_Lib/AT32F435/drivers/src/at32f435_437_dma.c ****   dma_init_struct->memory_inc_enable = FALSE;
 385              		.loc 1 288 3 is_stmt 1 view .LVU96
 386              		.loc 1 288 38 is_stmt 0 view .LVU97
 387 000c 4373     		strb	r3, [r0, #13]
 289:HW_Lib/AT32F435/drivers/src/at32f435_437_dma.c ****   dma_init_struct->peripheral_data_width = DMA_PERIPHERAL_DATA_WIDTH_BYTE;
 388              		.loc 1 289 3 is_stmt 1 view .LVU98
 389              		.loc 1 289 42 is_stmt 0 view .LVU99
 390 000e 8373     		strb	r3, [r0, #14]
 290:HW_Lib/AT32F435/drivers/src/at32f435_437_dma.c ****   dma_init_struct->memory_data_width = DMA_MEMORY_DATA_WIDTH_BYTE;
 391              		.loc 1 290 3 is_stmt 1 view .LVU100
 392              		.loc 1 290 38 is_stmt 0 view .LVU101
 393 0010 C373     		strb	r3, [r0, #15]
 291:HW_Lib/AT32F435/drivers/src/at32f435_437_dma.c ****   dma_init_struct->loop_mode_enable = FALSE;
 394              		.loc 1 291 3 is_stmt 1 view .LVU102
ARM GAS  C:\Users\8bit\AppData\Local\Temp\cc5wUo7f.s 			page 13


 395              		.loc 1 291 37 is_stmt 0 view .LVU103
 396 0012 0374     		strb	r3, [r0, #16]
 292:HW_Lib/AT32F435/drivers/src/at32f435_437_dma.c ****   dma_init_struct->priority = DMA_PRIORITY_LOW;
 397              		.loc 1 292 3 is_stmt 1 view .LVU104
 398              		.loc 1 292 29 is_stmt 0 view .LVU105
 399 0014 4374     		strb	r3, [r0, #17]
 293:HW_Lib/AT32F435/drivers/src/at32f435_437_dma.c **** }
 400              		.loc 1 293 1 view .LVU106
 401 0016 7047     		bx	lr
 402              		.cfi_endproc
 403              	.LFE140:
 405              		.section	.text.dma_init,"ax",%progbits
 406              		.align	1
 407              		.global	dma_init
 408              		.syntax unified
 409              		.thumb
 410              		.thumb_func
 412              	dma_init:
 413              	.LVL24:
 414              	.LFB141:
 294:HW_Lib/AT32F435/drivers/src/at32f435_437_dma.c **** 
 295:HW_Lib/AT32F435/drivers/src/at32f435_437_dma.c **** /**
 296:HW_Lib/AT32F435/drivers/src/at32f435_437_dma.c ****   * @brief  dma init.
 297:HW_Lib/AT32F435/drivers/src/at32f435_437_dma.c ****   * @param  dmax_channely:
 298:HW_Lib/AT32F435/drivers/src/at32f435_437_dma.c ****   *         this parameter can be one of the following values:
 299:HW_Lib/AT32F435/drivers/src/at32f435_437_dma.c ****   *         - DMA1_CHANNEL1
 300:HW_Lib/AT32F435/drivers/src/at32f435_437_dma.c ****   *         - DMA1_CHANNEL2
 301:HW_Lib/AT32F435/drivers/src/at32f435_437_dma.c ****   *         - DMA1_CHANNEL3
 302:HW_Lib/AT32F435/drivers/src/at32f435_437_dma.c ****   *         - DMA1_CHANNEL4
 303:HW_Lib/AT32F435/drivers/src/at32f435_437_dma.c ****   *         - DMA1_CHANNEL5
 304:HW_Lib/AT32F435/drivers/src/at32f435_437_dma.c ****   *         - DMA1_CHANNEL6
 305:HW_Lib/AT32F435/drivers/src/at32f435_437_dma.c ****   *         - DMA1_CHANNEL7
 306:HW_Lib/AT32F435/drivers/src/at32f435_437_dma.c ****   *         - DMA2_CHANNEL1
 307:HW_Lib/AT32F435/drivers/src/at32f435_437_dma.c ****   *         - DMA2_CHANNEL2
 308:HW_Lib/AT32F435/drivers/src/at32f435_437_dma.c ****   *         - DMA2_CHANNEL3
 309:HW_Lib/AT32F435/drivers/src/at32f435_437_dma.c ****   *         - DMA2_CHANNEL4
 310:HW_Lib/AT32F435/drivers/src/at32f435_437_dma.c ****   *         - DMA2_CHANNEL5
 311:HW_Lib/AT32F435/drivers/src/at32f435_437_dma.c ****   *         - DMA2_CHANNEL6
 312:HW_Lib/AT32F435/drivers/src/at32f435_437_dma.c ****   *         - DMA2_CHANNEL7
 313:HW_Lib/AT32F435/drivers/src/at32f435_437_dma.c ****   * @param  dma_init_struct: pointer to a dma_init_type structure.
 314:HW_Lib/AT32F435/drivers/src/at32f435_437_dma.c ****   * @retval none.
 315:HW_Lib/AT32F435/drivers/src/at32f435_437_dma.c ****   */
 316:HW_Lib/AT32F435/drivers/src/at32f435_437_dma.c **** void dma_init(dma_channel_type *dmax_channely, dma_init_type *dma_init_struct)
 317:HW_Lib/AT32F435/drivers/src/at32f435_437_dma.c **** {
 415              		.loc 1 317 1 is_stmt 1 view -0
 416              		.cfi_startproc
 417              		@ args = 0, pretend = 0, frame = 0
 418              		@ frame_needed = 0, uses_anonymous_args = 0
 419              		@ link register save eliminated.
 318:HW_Lib/AT32F435/drivers/src/at32f435_437_dma.c ****   /* clear ctrl register dtd bit and m2m bit */
 319:HW_Lib/AT32F435/drivers/src/at32f435_437_dma.c ****   dmax_channely->ctrl &= 0xbfef;
 420              		.loc 1 319 3 view .LVU108
 421              		.loc 1 319 23 is_stmt 0 view .LVU109
 422 0000 0368     		ldr	r3, [r0]
 423 0002 23F48043 		bic	r3, r3, #16384
 424 0006 23F01003 		bic	r3, r3, #16
 425 000a 1B04     		lsls	r3, r3, #16
ARM GAS  C:\Users\8bit\AppData\Local\Temp\cc5wUo7f.s 			page 14


 426 000c 1B0C     		lsrs	r3, r3, #16
 427 000e 0360     		str	r3, [r0]
 320:HW_Lib/AT32F435/drivers/src/at32f435_437_dma.c ****   dmax_channely->ctrl |= dma_init_struct->direction;
 428              		.loc 1 320 3 is_stmt 1 view .LVU110
 429              		.loc 1 320 23 is_stmt 0 view .LVU111
 430 0010 0368     		ldr	r3, [r0]
 431              		.loc 1 320 41 view .LVU112
 432 0012 0A89     		ldrh	r2, [r1, #8]
 433              		.loc 1 320 23 view .LVU113
 434 0014 1343     		orrs	r3, r3, r2
 435 0016 0360     		str	r3, [r0]
 321:HW_Lib/AT32F435/drivers/src/at32f435_437_dma.c **** 
 322:HW_Lib/AT32F435/drivers/src/at32f435_437_dma.c ****   dmax_channely->ctrl_bit.chpl = dma_init_struct->priority;
 436              		.loc 1 322 3 is_stmt 1 view .LVU114
 437              		.loc 1 322 49 is_stmt 0 view .LVU115
 438 0018 4A7C     		ldrb	r2, [r1, #17]	@ zero_extendqisi2
 439              		.loc 1 322 32 view .LVU116
 440 001a 0368     		ldr	r3, [r0]
 441 001c 62F30D33 		bfi	r3, r2, #12, #2
 442 0020 0360     		str	r3, [r0]
 323:HW_Lib/AT32F435/drivers/src/at32f435_437_dma.c ****   dmax_channely->ctrl_bit.mwidth = dma_init_struct->memory_data_width;
 443              		.loc 1 323 3 is_stmt 1 view .LVU117
 444              		.loc 1 323 51 is_stmt 0 view .LVU118
 445 0022 CA7B     		ldrb	r2, [r1, #15]	@ zero_extendqisi2
 446              		.loc 1 323 34 view .LVU119
 447 0024 0368     		ldr	r3, [r0]
 448 0026 62F38B23 		bfi	r3, r2, #10, #2
 449 002a 0360     		str	r3, [r0]
 324:HW_Lib/AT32F435/drivers/src/at32f435_437_dma.c ****   dmax_channely->ctrl_bit.pwidth = dma_init_struct->peripheral_data_width;
 450              		.loc 1 324 3 is_stmt 1 view .LVU120
 451              		.loc 1 324 51 is_stmt 0 view .LVU121
 452 002c 8A7B     		ldrb	r2, [r1, #14]	@ zero_extendqisi2
 453              		.loc 1 324 34 view .LVU122
 454 002e 0368     		ldr	r3, [r0]
 455 0030 62F30923 		bfi	r3, r2, #8, #2
 456 0034 0360     		str	r3, [r0]
 325:HW_Lib/AT32F435/drivers/src/at32f435_437_dma.c ****   dmax_channely->ctrl_bit.mincm = dma_init_struct->memory_inc_enable;
 457              		.loc 1 325 3 is_stmt 1 view .LVU123
 458              		.loc 1 325 50 is_stmt 0 view .LVU124
 459 0036 4A7B     		ldrb	r2, [r1, #13]	@ zero_extendqisi2
 460              		.loc 1 325 33 view .LVU125
 461 0038 0368     		ldr	r3, [r0]
 462 003a 62F3C713 		bfi	r3, r2, #7, #1
 463 003e 0360     		str	r3, [r0]
 326:HW_Lib/AT32F435/drivers/src/at32f435_437_dma.c ****   dmax_channely->ctrl_bit.pincm = dma_init_struct->peripheral_inc_enable;
 464              		.loc 1 326 3 is_stmt 1 view .LVU126
 465              		.loc 1 326 50 is_stmt 0 view .LVU127
 466 0040 0A7B     		ldrb	r2, [r1, #12]	@ zero_extendqisi2
 467              		.loc 1 326 33 view .LVU128
 468 0042 0368     		ldr	r3, [r0]
 469 0044 62F38613 		bfi	r3, r2, #6, #1
 470 0048 0360     		str	r3, [r0]
 327:HW_Lib/AT32F435/drivers/src/at32f435_437_dma.c ****   dmax_channely->ctrl_bit.lm = dma_init_struct->loop_mode_enable;
 471              		.loc 1 327 3 is_stmt 1 view .LVU129
 472              		.loc 1 327 47 is_stmt 0 view .LVU130
 473 004a 0A7C     		ldrb	r2, [r1, #16]	@ zero_extendqisi2
 474              		.loc 1 327 30 view .LVU131
ARM GAS  C:\Users\8bit\AppData\Local\Temp\cc5wUo7f.s 			page 15


 475 004c 0368     		ldr	r3, [r0]
 476 004e 62F34513 		bfi	r3, r2, #5, #1
 477 0052 0360     		str	r3, [r0]
 328:HW_Lib/AT32F435/drivers/src/at32f435_437_dma.c ****   dmax_channely->dtcnt_bit.cnt = dma_init_struct->buffer_size;
 478              		.loc 1 328 3 is_stmt 1 view .LVU132
 479              		.loc 1 328 49 is_stmt 0 view .LVU133
 480 0054 4A89     		ldrh	r2, [r1, #10]
 481              		.loc 1 328 32 view .LVU134
 482 0056 4368     		ldr	r3, [r0, #4]
 483 0058 62F30F03 		bfi	r3, r2, #0, #16
 484 005c 4360     		str	r3, [r0, #4]
 329:HW_Lib/AT32F435/drivers/src/at32f435_437_dma.c ****   dmax_channely->paddr = dma_init_struct->peripheral_base_addr;
 485              		.loc 1 329 3 is_stmt 1 view .LVU135
 486              		.loc 1 329 41 is_stmt 0 view .LVU136
 487 005e 0B68     		ldr	r3, [r1]
 488              		.loc 1 329 24 view .LVU137
 489 0060 8360     		str	r3, [r0, #8]
 330:HW_Lib/AT32F435/drivers/src/at32f435_437_dma.c ****   dmax_channely->maddr = dma_init_struct->memory_base_addr;
 490              		.loc 1 330 3 is_stmt 1 view .LVU138
 491              		.loc 1 330 41 is_stmt 0 view .LVU139
 492 0062 4B68     		ldr	r3, [r1, #4]
 493              		.loc 1 330 24 view .LVU140
 494 0064 C360     		str	r3, [r0, #12]
 331:HW_Lib/AT32F435/drivers/src/at32f435_437_dma.c **** }
 495              		.loc 1 331 1 view .LVU141
 496 0066 7047     		bx	lr
 497              		.cfi_endproc
 498              	.LFE141:
 500              		.section	.text.dma_flexible_config,"ax",%progbits
 501              		.align	1
 502              		.global	dma_flexible_config
 503              		.syntax unified
 504              		.thumb
 505              		.thumb_func
 507              	dma_flexible_config:
 508              	.LVL25:
 509              	.LFB142:
 332:HW_Lib/AT32F435/drivers/src/at32f435_437_dma.c **** /**
 333:HW_Lib/AT32F435/drivers/src/at32f435_437_dma.c ****   * @brief  dmamux init.
 334:HW_Lib/AT32F435/drivers/src/at32f435_437_dma.c ****   * @param  dma_x: pointer to a dma_type structure, can be DMA1 or DMA2.
 335:HW_Lib/AT32F435/drivers/src/at32f435_437_dma.c ****   * @param  dmamux_channelx:
 336:HW_Lib/AT32F435/drivers/src/at32f435_437_dma.c ****   *         this parameter can be one of the following values:
 337:HW_Lib/AT32F435/drivers/src/at32f435_437_dma.c ****   *         - DMA1MUX_CHANNEL1
 338:HW_Lib/AT32F435/drivers/src/at32f435_437_dma.c ****   *         - DMA1MUX_CHANNEL2
 339:HW_Lib/AT32F435/drivers/src/at32f435_437_dma.c ****   *         - DMA1MUX_CHANNEL3
 340:HW_Lib/AT32F435/drivers/src/at32f435_437_dma.c ****   *         - DMA1MUX_CHANNEL4
 341:HW_Lib/AT32F435/drivers/src/at32f435_437_dma.c ****   *         - DMA1MUX_CHANNEL5
 342:HW_Lib/AT32F435/drivers/src/at32f435_437_dma.c ****   *         - DMA1MUX_CHANNEL6
 343:HW_Lib/AT32F435/drivers/src/at32f435_437_dma.c ****   *         - DMA1MUX_CHANNEL7
 344:HW_Lib/AT32F435/drivers/src/at32f435_437_dma.c ****   *         - DMA2MUX_CHANNEL1
 345:HW_Lib/AT32F435/drivers/src/at32f435_437_dma.c ****   *         - DMA2MUX_CHANNEL2
 346:HW_Lib/AT32F435/drivers/src/at32f435_437_dma.c ****   *         - DMA2MUX_CHANNEL3
 347:HW_Lib/AT32F435/drivers/src/at32f435_437_dma.c ****   *         - DMA2MUX_CHANNEL4
 348:HW_Lib/AT32F435/drivers/src/at32f435_437_dma.c ****   *         - DMA2MUX_CHANNEL5
 349:HW_Lib/AT32F435/drivers/src/at32f435_437_dma.c ****   *         - DMA2MUX_CHANNEL6
 350:HW_Lib/AT32F435/drivers/src/at32f435_437_dma.c ****   *         - DMA2MUX_CHANNEL7
 351:HW_Lib/AT32F435/drivers/src/at32f435_437_dma.c ****   * @param  dmamux_req_sel:
ARM GAS  C:\Users\8bit\AppData\Local\Temp\cc5wUo7f.s 			page 16


 352:HW_Lib/AT32F435/drivers/src/at32f435_437_dma.c ****   *         this parameter can be one of the following values:
 353:HW_Lib/AT32F435/drivers/src/at32f435_437_dma.c ****   *         - DMAMUX_DMAREQ_ID_REQ_G1       - DMAMUX_DMAREQ_ID_REQ_G2       - DMAMUX_DMAREQ_ID_REQ_
 354:HW_Lib/AT32F435/drivers/src/at32f435_437_dma.c ****   *         - DMAMUX_DMAREQ_ID_ADC1         - DMAMUX_DMAREQ_ID_ADC2         - DMAMUX_DMAREQ_ID_ADC3
 355:HW_Lib/AT32F435/drivers/src/at32f435_437_dma.c ****   *         - DMAMUX_DMAREQ_ID_DAC2         - DMAMUX_DMAREQ_ID_TMR6_OVERFLOW- DMAMUX_DMAREQ_ID_TMR7
 356:HW_Lib/AT32F435/drivers/src/at32f435_437_dma.c ****   *         - DMAMUX_DMAREQ_ID_SPI1_TX      - DMAMUX_DMAREQ_ID_SPI2_RX      - DMAMUX_DMAREQ_ID_SPI2
 357:HW_Lib/AT32F435/drivers/src/at32f435_437_dma.c ****   *         - DMAMUX_DMAREQ_ID_SPI3_TX      - DMAMUX_DMAREQ_ID_SPI4_RX      - DMAMUX_DMAREQ_ID_SPI4
 358:HW_Lib/AT32F435/drivers/src/at32f435_437_dma.c ****   *         - DMAMUX_DMAREQ_ID_I2S2_EXT_TX  - DMAMUX_DMAREQ_ID_I2S3_EXT_RX  - DMAMUX_DMAREQ_ID_I2S3
 359:HW_Lib/AT32F435/drivers/src/at32f435_437_dma.c ****   *         - DMAMUX_DMAREQ_ID_I2C1_TX      - DMAMUX_DMAREQ_ID_I2C2_RX      - DMAMUX_DMAREQ_ID_I2C2
 360:HW_Lib/AT32F435/drivers/src/at32f435_437_dma.c ****   *         - DMAMUX_DMAREQ_ID_I2C3_TX      - DMAMUX_DMAREQ_ID_USART1_RX    - DMAMUX_DMAREQ_ID_USAR
 361:HW_Lib/AT32F435/drivers/src/at32f435_437_dma.c ****   *         - DMAMUX_DMAREQ_ID_USART2_TX    - DMAMUX_DMAREQ_ID_USART3_RX    - DMAMUX_DMAREQ_ID_USAR
 362:HW_Lib/AT32F435/drivers/src/at32f435_437_dma.c ****   *         - DMAMUX_DMAREQ_ID_UART4_TX     - DMAMUX_DMAREQ_ID_UART5_RX     - DMAMUX_DMAREQ_ID_UART
 363:HW_Lib/AT32F435/drivers/src/at32f435_437_dma.c ****   *         - DMAMUX_DMAREQ_ID_USART6_TX    - DMAMUX_DMAREQ_ID_UART7_RX     - DMAMUX_DMAREQ_ID_UART
 364:HW_Lib/AT32F435/drivers/src/at32f435_437_dma.c ****   *         - DMAMUX_DMAREQ_ID_UART8_TX     - DMAMUX_DMAREQ_ID_SDIO1        - DMAMUX_DMAREQ_ID_SDIO
 365:HW_Lib/AT32F435/drivers/src/at32f435_437_dma.c ****   *         - DMAMUX_DMAREQ_ID_QSPI2        - DMAMUX_DMAREQ_ID_TMR1_CH1     - DMAMUX_DMAREQ_ID_TMR1
 366:HW_Lib/AT32F435/drivers/src/at32f435_437_dma.c ****   *         - DMAMUX_DMAREQ_ID_TMR1_CH4     - DMAMUX_DMAREQ_ID_TMR1_OVERFLOW- DMAMUX_DMAREQ_ID_TMR1
 367:HW_Lib/AT32F435/drivers/src/at32f435_437_dma.c ****   *         - DMAMUX_DMAREQ_ID_TMR8_CH1     - DMAMUX_DMAREQ_ID_TMR8_CH2     - DMAMUX_DMAREQ_ID_TMR8
 368:HW_Lib/AT32F435/drivers/src/at32f435_437_dma.c ****   *         - DMAMUX_DMAREQ_ID_TMR8_UP      - DMAMUX_DMAREQ_ID_TMR8_TRIG    - DMAMUX_DMAREQ_ID_TMR8
 369:HW_Lib/AT32F435/drivers/src/at32f435_437_dma.c ****   *         - DMAMUX_DMAREQ_ID_TMR2_CH2     - DMAMUX_DMAREQ_ID_TMR2_CH3     - DMAMUX_DMAREQ_ID_TMR2
 370:HW_Lib/AT32F435/drivers/src/at32f435_437_dma.c ****   *         - DMAMUX_DMAREQ_ID_TMR2_TRIG    - DMAMUX_DMAREQ_ID_TMR3_CH1     - DMAMUX_DMAREQ_ID_TMR3
 371:HW_Lib/AT32F435/drivers/src/at32f435_437_dma.c ****   *         - DMAMUX_DMAREQ_ID_TMR3_CH4     - DMAMUX_DMAREQ_ID_TMR3_OVERFLOW- DMAMUX_DMAREQ_ID_TMR3
 372:HW_Lib/AT32F435/drivers/src/at32f435_437_dma.c ****   *         - DMAMUX_DMAREQ_ID_TMR4_CH2     - DMAMUX_DMAREQ_ID_TMR4_CH3     - DMAMUX_DMAREQ_ID_TMR4
 373:HW_Lib/AT32F435/drivers/src/at32f435_437_dma.c ****   *         - DMAMUX_DMAREQ_ID_TMR4_TRIG    - DMAMUX_DMAREQ_ID_TMR5_CH1     - DMAMUX_DMAREQ_ID_TMR5
 374:HW_Lib/AT32F435/drivers/src/at32f435_437_dma.c ****   *         - DMAMUX_DMAREQ_ID_TMR5_CH4     - DMAMUX_DMAREQ_ID_TMR5_OVERFLOW- DMAMUX_DMAREQ_ID_TMR5
 375:HW_Lib/AT32F435/drivers/src/at32f435_437_dma.c ****   *         - DMAMUX_DMAREQ_ID_TMR20_CH2    - DMAMUX_DMAREQ_ID_TMR20_CH3    - DMAMUX_DMAREQ_ID_TMR2
 376:HW_Lib/AT32F435/drivers/src/at32f435_437_dma.c ****   *         - DMAMUX_DMAREQ_ID_TMR20_TRIG   - DMAMUX_DMAREQ_ID_TMR20_HALL   - DMAMUX_DMAREQ_ID_DVP
 377:HW_Lib/AT32F435/drivers/src/at32f435_437_dma.c ****   * @retval none.
 378:HW_Lib/AT32F435/drivers/src/at32f435_437_dma.c ****   */
 379:HW_Lib/AT32F435/drivers/src/at32f435_437_dma.c **** void dma_flexible_config(dma_type* dma_x, dmamux_channel_type *dmamux_channelx, dmamux_requst_id_se
 380:HW_Lib/AT32F435/drivers/src/at32f435_437_dma.c **** {
 510              		.loc 1 380 1 is_stmt 1 view -0
 511              		.cfi_startproc
 512              		@ args = 0, pretend = 0, frame = 0
 513              		@ frame_needed = 0, uses_anonymous_args = 0
 514              		@ link register save eliminated.
 381:HW_Lib/AT32F435/drivers/src/at32f435_437_dma.c ****   dma_x->muxsel_bit.tblsel = TRUE;
 515              		.loc 1 381 3 view .LVU143
 516              		.loc 1 381 28 is_stmt 0 view .LVU144
 517 0000 D0F80031 		ldr	r3, [r0, #256]
 518 0004 43F00103 		orr	r3, r3, #1
 519 0008 C0F80031 		str	r3, [r0, #256]
 382:HW_Lib/AT32F435/drivers/src/at32f435_437_dma.c ****   dmamux_channelx->muxctrl_bit.reqsel = dmamux_req_sel;
 520              		.loc 1 382 3 is_stmt 1 view .LVU145
 521              		.loc 1 382 39 is_stmt 0 view .LVU146
 522 000c 0B68     		ldr	r3, [r1]
 523 000e 62F30603 		bfi	r3, r2, #0, #7
 524 0012 0B60     		str	r3, [r1]
 383:HW_Lib/AT32F435/drivers/src/at32f435_437_dma.c **** }
 525              		.loc 1 383 1 view .LVU147
 526 0014 7047     		bx	lr
 527              		.cfi_endproc
 528              	.LFE142:
 530              		.section	.text.dmamux_enable,"ax",%progbits
 531              		.align	1
 532              		.global	dmamux_enable
 533              		.syntax unified
 534              		.thumb
 535              		.thumb_func
ARM GAS  C:\Users\8bit\AppData\Local\Temp\cc5wUo7f.s 			page 17


 537              	dmamux_enable:
 538              	.LVL26:
 539              	.LFB143:
 384:HW_Lib/AT32F435/drivers/src/at32f435_437_dma.c **** 
 385:HW_Lib/AT32F435/drivers/src/at32f435_437_dma.c **** /**
 386:HW_Lib/AT32F435/drivers/src/at32f435_437_dma.c ****   * @brief  enable or disable the dmamux.
 387:HW_Lib/AT32F435/drivers/src/at32f435_437_dma.c ****   * @param  dma_x: pointer to a dma_type structure, can be DMA1 or DMA2.
 388:HW_Lib/AT32F435/drivers/src/at32f435_437_dma.c ****   * @param  new_state (TRUE or FALSE) .
 389:HW_Lib/AT32F435/drivers/src/at32f435_437_dma.c ****   * @retval none.
 390:HW_Lib/AT32F435/drivers/src/at32f435_437_dma.c ****   */
 391:HW_Lib/AT32F435/drivers/src/at32f435_437_dma.c **** void dmamux_enable(dma_type *dma_x, confirm_state new_state)
 392:HW_Lib/AT32F435/drivers/src/at32f435_437_dma.c **** {
 540              		.loc 1 392 1 is_stmt 1 view -0
 541              		.cfi_startproc
 542              		@ args = 0, pretend = 0, frame = 0
 543              		@ frame_needed = 0, uses_anonymous_args = 0
 544              		@ link register save eliminated.
 393:HW_Lib/AT32F435/drivers/src/at32f435_437_dma.c ****   dma_x->muxsel_bit.tblsel = new_state;
 545              		.loc 1 393 3 view .LVU149
 546              		.loc 1 393 28 is_stmt 0 view .LVU150
 547 0000 D0F80031 		ldr	r3, [r0, #256]
 548 0004 61F30003 		bfi	r3, r1, #0, #1
 549 0008 C0F80031 		str	r3, [r0, #256]
 394:HW_Lib/AT32F435/drivers/src/at32f435_437_dma.c **** }
 550              		.loc 1 394 1 view .LVU151
 551 000c 7047     		bx	lr
 552              		.cfi_endproc
 553              	.LFE143:
 555              		.section	.text.dmamux_init,"ax",%progbits
 556              		.align	1
 557              		.global	dmamux_init
 558              		.syntax unified
 559              		.thumb
 560              		.thumb_func
 562              	dmamux_init:
 563              	.LVL27:
 564              	.LFB144:
 395:HW_Lib/AT32F435/drivers/src/at32f435_437_dma.c **** 
 396:HW_Lib/AT32F435/drivers/src/at32f435_437_dma.c **** /**
 397:HW_Lib/AT32F435/drivers/src/at32f435_437_dma.c ****   * @brief  dmamux init.
 398:HW_Lib/AT32F435/drivers/src/at32f435_437_dma.c ****   * @param  dmamux_channelx:
 399:HW_Lib/AT32F435/drivers/src/at32f435_437_dma.c ****   *         this parameter can be one of the following values:
 400:HW_Lib/AT32F435/drivers/src/at32f435_437_dma.c ****   *         - DMA1MUX_CHANNEL1
 401:HW_Lib/AT32F435/drivers/src/at32f435_437_dma.c ****   *         - DMA1MUX_CHANNEL2
 402:HW_Lib/AT32F435/drivers/src/at32f435_437_dma.c ****   *         - DMA1MUX_CHANNEL3
 403:HW_Lib/AT32F435/drivers/src/at32f435_437_dma.c ****   *         - DMA1MUX_CHANNEL4
 404:HW_Lib/AT32F435/drivers/src/at32f435_437_dma.c ****   *         - DMA1MUX_CHANNEL5
 405:HW_Lib/AT32F435/drivers/src/at32f435_437_dma.c ****   *         - DMA1MUX_CHANNEL6
 406:HW_Lib/AT32F435/drivers/src/at32f435_437_dma.c ****   *         - DMA1MUX_CHANNEL7
 407:HW_Lib/AT32F435/drivers/src/at32f435_437_dma.c ****   *         - DMA2MUX_CHANNEL1
 408:HW_Lib/AT32F435/drivers/src/at32f435_437_dma.c ****   *         - DMA2MUX_CHANNEL2
 409:HW_Lib/AT32F435/drivers/src/at32f435_437_dma.c ****   *         - DMA2MUX_CHANNEL3
 410:HW_Lib/AT32F435/drivers/src/at32f435_437_dma.c ****   *         - DMA2MUX_CHANNEL4
 411:HW_Lib/AT32F435/drivers/src/at32f435_437_dma.c ****   *         - DMA2MUX_CHANNEL5
 412:HW_Lib/AT32F435/drivers/src/at32f435_437_dma.c ****   *         - DMA2MUX_CHANNEL6
 413:HW_Lib/AT32F435/drivers/src/at32f435_437_dma.c ****   *         - DMA2MUX_CHANNEL7
 414:HW_Lib/AT32F435/drivers/src/at32f435_437_dma.c ****   * @param  dmamux_req_sel:
ARM GAS  C:\Users\8bit\AppData\Local\Temp\cc5wUo7f.s 			page 18


 415:HW_Lib/AT32F435/drivers/src/at32f435_437_dma.c ****   *         this parameter can be one of the following values:
 416:HW_Lib/AT32F435/drivers/src/at32f435_437_dma.c ****   *         - DMAMUX_DMAREQ_ID_REQ_G1       - DMAMUX_DMAREQ_ID_REQ_G2       - DMAMUX_DMAREQ_ID_REQ_
 417:HW_Lib/AT32F435/drivers/src/at32f435_437_dma.c ****   *         - DMAMUX_DMAREQ_ID_ADC1         - DMAMUX_DMAREQ_ID_ADC2         - DMAMUX_DMAREQ_ID_ADC3
 418:HW_Lib/AT32F435/drivers/src/at32f435_437_dma.c ****   *         - DMAMUX_DMAREQ_ID_DAC2         - DMAMUX_DMAREQ_ID_TMR6_OVERFLOW- DMAMUX_DMAREQ_ID_TMR7
 419:HW_Lib/AT32F435/drivers/src/at32f435_437_dma.c ****   *         - DMAMUX_DMAREQ_ID_SPI1_TX      - DMAMUX_DMAREQ_ID_SPI2_RX      - DMAMUX_DMAREQ_ID_SPI2
 420:HW_Lib/AT32F435/drivers/src/at32f435_437_dma.c ****   *         - DMAMUX_DMAREQ_ID_SPI3_TX      - DMAMUX_DMAREQ_ID_SPI4_RX      - DMAMUX_DMAREQ_ID_SPI4
 421:HW_Lib/AT32F435/drivers/src/at32f435_437_dma.c ****   *         - DMAMUX_DMAREQ_ID_I2S2_EXT_TX  - DMAMUX_DMAREQ_ID_I2S3_EXT_RX  - DMAMUX_DMAREQ_ID_I2S3
 422:HW_Lib/AT32F435/drivers/src/at32f435_437_dma.c ****   *         - DMAMUX_DMAREQ_ID_I2C1_TX      - DMAMUX_DMAREQ_ID_I2C2_RX      - DMAMUX_DMAREQ_ID_I2C2
 423:HW_Lib/AT32F435/drivers/src/at32f435_437_dma.c ****   *         - DMAMUX_DMAREQ_ID_I2C3_TX      - DMAMUX_DMAREQ_ID_USART1_RX    - DMAMUX_DMAREQ_ID_USAR
 424:HW_Lib/AT32F435/drivers/src/at32f435_437_dma.c ****   *         - DMAMUX_DMAREQ_ID_USART2_TX    - DMAMUX_DMAREQ_ID_USART3_RX    - DMAMUX_DMAREQ_ID_USAR
 425:HW_Lib/AT32F435/drivers/src/at32f435_437_dma.c ****   *         - DMAMUX_DMAREQ_ID_UART4_TX     - DMAMUX_DMAREQ_ID_UART5_RX     - DMAMUX_DMAREQ_ID_UART
 426:HW_Lib/AT32F435/drivers/src/at32f435_437_dma.c ****   *         - DMAMUX_DMAREQ_ID_USART6_TX    - DMAMUX_DMAREQ_ID_UART7_RX     - DMAMUX_DMAREQ_ID_UART
 427:HW_Lib/AT32F435/drivers/src/at32f435_437_dma.c ****   *         - DMAMUX_DMAREQ_ID_UART8_TX     - DMAMUX_DMAREQ_ID_SDIO1        - DMAMUX_DMAREQ_ID_SDIO
 428:HW_Lib/AT32F435/drivers/src/at32f435_437_dma.c ****   *         - DMAMUX_DMAREQ_ID_QSPI2        - DMAMUX_DMAREQ_ID_TMR1_CH1     - DMAMUX_DMAREQ_ID_TMR1
 429:HW_Lib/AT32F435/drivers/src/at32f435_437_dma.c ****   *         - DMAMUX_DMAREQ_ID_TMR1_CH4     - DMAMUX_DMAREQ_ID_TMR1_OVERFLOW- DMAMUX_DMAREQ_ID_TMR1
 430:HW_Lib/AT32F435/drivers/src/at32f435_437_dma.c ****   *         - DMAMUX_DMAREQ_ID_TMR8_CH1     - DMAMUX_DMAREQ_ID_TMR8_CH2     - DMAMUX_DMAREQ_ID_TMR8
 431:HW_Lib/AT32F435/drivers/src/at32f435_437_dma.c ****   *         - DMAMUX_DMAREQ_ID_TMR8_UP      - DMAMUX_DMAREQ_ID_TMR8_TRIG    - DMAMUX_DMAREQ_ID_TMR8
 432:HW_Lib/AT32F435/drivers/src/at32f435_437_dma.c ****   *         - DMAMUX_DMAREQ_ID_TMR2_CH2     - DMAMUX_DMAREQ_ID_TMR2_CH3     - DMAMUX_DMAREQ_ID_TMR2
 433:HW_Lib/AT32F435/drivers/src/at32f435_437_dma.c ****   *         - DMAMUX_DMAREQ_ID_TMR2_TRIG    - DMAMUX_DMAREQ_ID_TMR3_CH1     - DMAMUX_DMAREQ_ID_TMR3
 434:HW_Lib/AT32F435/drivers/src/at32f435_437_dma.c ****   *         - DMAMUX_DMAREQ_ID_TMR3_CH4     - DMAMUX_DMAREQ_ID_TMR3_OVERFLOW- DMAMUX_DMAREQ_ID_TMR3
 435:HW_Lib/AT32F435/drivers/src/at32f435_437_dma.c ****   *         - DMAMUX_DMAREQ_ID_TMR4_CH2     - DMAMUX_DMAREQ_ID_TMR4_CH3     - DMAMUX_DMAREQ_ID_TMR4
 436:HW_Lib/AT32F435/drivers/src/at32f435_437_dma.c ****   *         - DMAMUX_DMAREQ_ID_TMR4_TRIG    - DMAMUX_DMAREQ_ID_TMR5_CH1     - DMAMUX_DMAREQ_ID_TMR5
 437:HW_Lib/AT32F435/drivers/src/at32f435_437_dma.c ****   *         - DMAMUX_DMAREQ_ID_TMR5_CH4     - DMAMUX_DMAREQ_ID_TMR5_OVERFLOW- DMAMUX_DMAREQ_ID_TMR5
 438:HW_Lib/AT32F435/drivers/src/at32f435_437_dma.c ****   *         - DMAMUX_DMAREQ_ID_TMR20_CH2    - DMAMUX_DMAREQ_ID_TMR20_CH3    - DMAMUX_DMAREQ_ID_TMR2
 439:HW_Lib/AT32F435/drivers/src/at32f435_437_dma.c ****   *         - DMAMUX_DMAREQ_ID_TMR20_TRIG   - DMAMUX_DMAREQ_ID_TMR20_HALL   - DMAMUX_DMAREQ_ID_DVP
 440:HW_Lib/AT32F435/drivers/src/at32f435_437_dma.c ****   * @retval none.
 441:HW_Lib/AT32F435/drivers/src/at32f435_437_dma.c ****   */
 442:HW_Lib/AT32F435/drivers/src/at32f435_437_dma.c **** void dmamux_init(dmamux_channel_type *dmamux_channelx, dmamux_requst_id_sel_type dmamux_req_sel)
 443:HW_Lib/AT32F435/drivers/src/at32f435_437_dma.c **** {
 565              		.loc 1 443 1 is_stmt 1 view -0
 566              		.cfi_startproc
 567              		@ args = 0, pretend = 0, frame = 0
 568              		@ frame_needed = 0, uses_anonymous_args = 0
 569              		@ link register save eliminated.
 444:HW_Lib/AT32F435/drivers/src/at32f435_437_dma.c ****   dmamux_channelx->muxctrl_bit.reqsel = dmamux_req_sel;
 570              		.loc 1 444 3 view .LVU153
 571              		.loc 1 444 39 is_stmt 0 view .LVU154
 572 0000 0368     		ldr	r3, [r0]
 573 0002 61F30603 		bfi	r3, r1, #0, #7
 574 0006 0360     		str	r3, [r0]
 445:HW_Lib/AT32F435/drivers/src/at32f435_437_dma.c **** }
 575              		.loc 1 445 1 view .LVU155
 576 0008 7047     		bx	lr
 577              		.cfi_endproc
 578              	.LFE144:
 580              		.section	.text.dmamux_sync_default_para_init,"ax",%progbits
 581              		.align	1
 582              		.global	dmamux_sync_default_para_init
 583              		.syntax unified
 584              		.thumb
 585              		.thumb_func
 587              	dmamux_sync_default_para_init:
 588              	.LVL28:
 589              	.LFB145:
 446:HW_Lib/AT32F435/drivers/src/at32f435_437_dma.c **** 
 447:HW_Lib/AT32F435/drivers/src/at32f435_437_dma.c **** /**
 448:HW_Lib/AT32F435/drivers/src/at32f435_437_dma.c ****   * @brief  dmamux sync init struct config with its default value.
ARM GAS  C:\Users\8bit\AppData\Local\Temp\cc5wUo7f.s 			page 19


 449:HW_Lib/AT32F435/drivers/src/at32f435_437_dma.c ****   * @param  dmamux_sync_init_struct: pointer to a dmamux_sync_init_type structure which will be ini
 450:HW_Lib/AT32F435/drivers/src/at32f435_437_dma.c ****   * @retval none.
 451:HW_Lib/AT32F435/drivers/src/at32f435_437_dma.c ****   */
 452:HW_Lib/AT32F435/drivers/src/at32f435_437_dma.c **** void dmamux_sync_default_para_init(dmamux_sync_init_type *dmamux_sync_init_struct)
 453:HW_Lib/AT32F435/drivers/src/at32f435_437_dma.c **** {
 590              		.loc 1 453 1 is_stmt 1 view -0
 591              		.cfi_startproc
 592              		@ args = 0, pretend = 0, frame = 0
 593              		@ frame_needed = 0, uses_anonymous_args = 0
 594              		@ link register save eliminated.
 454:HW_Lib/AT32F435/drivers/src/at32f435_437_dma.c ****   dmamux_sync_init_struct->sync_enable = FALSE;
 595              		.loc 1 454 3 view .LVU157
 596              		.loc 1 454 40 is_stmt 0 view .LVU158
 597 0000 0023     		movs	r3, #0
 598 0002 4373     		strb	r3, [r0, #13]
 455:HW_Lib/AT32F435/drivers/src/at32f435_437_dma.c ****   dmamux_sync_init_struct->sync_event_enable = FALSE;
 599              		.loc 1 455 3 is_stmt 1 view .LVU159
 600              		.loc 1 455 46 is_stmt 0 view .LVU160
 601 0004 0373     		strb	r3, [r0, #12]
 456:HW_Lib/AT32F435/drivers/src/at32f435_437_dma.c ****   dmamux_sync_init_struct->sync_polarity = DMAMUX_SYNC_POLARITY_DISABLE;
 602              		.loc 1 456 3 is_stmt 1 view .LVU161
 603              		.loc 1 456 42 is_stmt 0 view .LVU162
 604 0006 4360     		str	r3, [r0, #4]
 457:HW_Lib/AT32F435/drivers/src/at32f435_437_dma.c ****   dmamux_sync_init_struct->sync_request_number = 0x0;
 605              		.loc 1 457 3 is_stmt 1 view .LVU163
 606              		.loc 1 457 48 is_stmt 0 view .LVU164
 607 0008 8360     		str	r3, [r0, #8]
 458:HW_Lib/AT32F435/drivers/src/at32f435_437_dma.c ****   dmamux_sync_init_struct->sync_signal_sel = (dmamux_sync_id_sel_type)0;
 608              		.loc 1 458 3 is_stmt 1 view .LVU165
 609              		.loc 1 458 44 is_stmt 0 view .LVU166
 610 000a 0370     		strb	r3, [r0]
 459:HW_Lib/AT32F435/drivers/src/at32f435_437_dma.c **** }
 611              		.loc 1 459 1 view .LVU167
 612 000c 7047     		bx	lr
 613              		.cfi_endproc
 614              	.LFE145:
 616              		.section	.text.dmamux_sync_config,"ax",%progbits
 617              		.align	1
 618              		.global	dmamux_sync_config
 619              		.syntax unified
 620              		.thumb
 621              		.thumb_func
 623              	dmamux_sync_config:
 624              	.LVL29:
 625              	.LFB146:
 460:HW_Lib/AT32F435/drivers/src/at32f435_437_dma.c **** 
 461:HW_Lib/AT32F435/drivers/src/at32f435_437_dma.c **** /**
 462:HW_Lib/AT32F435/drivers/src/at32f435_437_dma.c ****   * @brief  dmamux synchronization config.
 463:HW_Lib/AT32F435/drivers/src/at32f435_437_dma.c ****   * @param  dmamux_channelx:
 464:HW_Lib/AT32F435/drivers/src/at32f435_437_dma.c ****   *         this parameter can be one of the following values:
 465:HW_Lib/AT32F435/drivers/src/at32f435_437_dma.c ****   *         - DMA1MUX_CHANNEL1
 466:HW_Lib/AT32F435/drivers/src/at32f435_437_dma.c ****   *         - DMA1MUX_CHANNEL2
 467:HW_Lib/AT32F435/drivers/src/at32f435_437_dma.c ****   *         - DMA1MUX_CHANNEL3
 468:HW_Lib/AT32F435/drivers/src/at32f435_437_dma.c ****   *         - DMA1MUX_CHANNEL4
 469:HW_Lib/AT32F435/drivers/src/at32f435_437_dma.c ****   *         - DMA1MUX_CHANNEL5
 470:HW_Lib/AT32F435/drivers/src/at32f435_437_dma.c ****   *         - DMA1MUX_CHANNEL6
 471:HW_Lib/AT32F435/drivers/src/at32f435_437_dma.c ****   *         - DMA1MUX_CHANNEL7
ARM GAS  C:\Users\8bit\AppData\Local\Temp\cc5wUo7f.s 			page 20


 472:HW_Lib/AT32F435/drivers/src/at32f435_437_dma.c ****   *         - DMA2MUX_CHANNEL1
 473:HW_Lib/AT32F435/drivers/src/at32f435_437_dma.c ****   *         - DMA2MUX_CHANNEL2
 474:HW_Lib/AT32F435/drivers/src/at32f435_437_dma.c ****   *         - DMA2MUX_CHANNEL3
 475:HW_Lib/AT32F435/drivers/src/at32f435_437_dma.c ****   *         - DMA2MUX_CHANNEL4
 476:HW_Lib/AT32F435/drivers/src/at32f435_437_dma.c ****   *         - DMA2MUX_CHANNEL5
 477:HW_Lib/AT32F435/drivers/src/at32f435_437_dma.c ****   *         - DMA2MUX_CHANNEL6
 478:HW_Lib/AT32F435/drivers/src/at32f435_437_dma.c ****   *         - DMA2MUX_CHANNEL7
 479:HW_Lib/AT32F435/drivers/src/at32f435_437_dma.c ****   * @param  dmamux_sync_init_struct: ointer to a dmamux_sync_init_type structure.
 480:HW_Lib/AT32F435/drivers/src/at32f435_437_dma.c ****   * @retval none.
 481:HW_Lib/AT32F435/drivers/src/at32f435_437_dma.c ****   */
 482:HW_Lib/AT32F435/drivers/src/at32f435_437_dma.c **** void dmamux_sync_config(dmamux_channel_type *dmamux_channelx, dmamux_sync_init_type *dmamux_sync_in
 483:HW_Lib/AT32F435/drivers/src/at32f435_437_dma.c **** {
 626              		.loc 1 483 1 is_stmt 1 view -0
 627              		.cfi_startproc
 628              		@ args = 0, pretend = 0, frame = 0
 629              		@ frame_needed = 0, uses_anonymous_args = 0
 630              		@ link register save eliminated.
 484:HW_Lib/AT32F435/drivers/src/at32f435_437_dma.c ****   dmamux_channelx->muxctrl_bit.syncsel = dmamux_sync_init_struct->sync_signal_sel;
 631              		.loc 1 484 3 view .LVU169
 632              		.loc 1 484 65 is_stmt 0 view .LVU170
 633 0000 0A78     		ldrb	r2, [r1]	@ zero_extendqisi2
 634              		.loc 1 484 40 view .LVU171
 635 0002 0368     		ldr	r3, [r0]
 636 0004 62F31C63 		bfi	r3, r2, #24, #5
 637 0008 0360     		str	r3, [r0]
 485:HW_Lib/AT32F435/drivers/src/at32f435_437_dma.c ****   dmamux_channelx->muxctrl_bit.syncpol = dmamux_sync_init_struct->sync_polarity;
 638              		.loc 1 485 3 is_stmt 1 view .LVU172
 639              		.loc 1 485 65 is_stmt 0 view .LVU173
 640 000a 4A68     		ldr	r2, [r1, #4]
 641              		.loc 1 485 40 view .LVU174
 642 000c 0368     		ldr	r3, [r0]
 643 000e 62F35243 		bfi	r3, r2, #17, #2
 644 0012 0360     		str	r3, [r0]
 486:HW_Lib/AT32F435/drivers/src/at32f435_437_dma.c ****   dmamux_channelx->muxctrl_bit.reqcnt  = dmamux_sync_init_struct->sync_request_number;
 645              		.loc 1 486 3 is_stmt 1 view .LVU175
 646              		.loc 1 486 65 is_stmt 0 view .LVU176
 647 0014 8A68     		ldr	r2, [r1, #8]
 648              		.loc 1 486 40 view .LVU177
 649 0016 0368     		ldr	r3, [r0]
 650 0018 62F3D743 		bfi	r3, r2, #19, #5
 651 001c 0360     		str	r3, [r0]
 487:HW_Lib/AT32F435/drivers/src/at32f435_437_dma.c ****   dmamux_channelx->muxctrl_bit.evtgen  = dmamux_sync_init_struct->sync_event_enable;
 652              		.loc 1 487 3 is_stmt 1 view .LVU178
 653              		.loc 1 487 65 is_stmt 0 view .LVU179
 654 001e 0A7B     		ldrb	r2, [r1, #12]	@ zero_extendqisi2
 655              		.loc 1 487 40 view .LVU180
 656 0020 0368     		ldr	r3, [r0]
 657 0022 62F34923 		bfi	r3, r2, #9, #1
 658 0026 0360     		str	r3, [r0]
 488:HW_Lib/AT32F435/drivers/src/at32f435_437_dma.c ****   dmamux_channelx->muxctrl_bit.syncen  = dmamux_sync_init_struct->sync_enable;
 659              		.loc 1 488 3 is_stmt 1 view .LVU181
 660              		.loc 1 488 65 is_stmt 0 view .LVU182
 661 0028 4A7B     		ldrb	r2, [r1, #13]	@ zero_extendqisi2
 662              		.loc 1 488 40 view .LVU183
 663 002a 0368     		ldr	r3, [r0]
 664 002c 62F31043 		bfi	r3, r2, #16, #1
 665 0030 0360     		str	r3, [r0]
ARM GAS  C:\Users\8bit\AppData\Local\Temp\cc5wUo7f.s 			page 21


 489:HW_Lib/AT32F435/drivers/src/at32f435_437_dma.c **** }
 666              		.loc 1 489 1 view .LVU184
 667 0032 7047     		bx	lr
 668              		.cfi_endproc
 669              	.LFE146:
 671              		.section	.text.dmamux_generator_default_para_init,"ax",%progbits
 672              		.align	1
 673              		.global	dmamux_generator_default_para_init
 674              		.syntax unified
 675              		.thumb
 676              		.thumb_func
 678              	dmamux_generator_default_para_init:
 679              	.LVL30:
 680              	.LFB147:
 490:HW_Lib/AT32F435/drivers/src/at32f435_437_dma.c **** 
 491:HW_Lib/AT32F435/drivers/src/at32f435_437_dma.c **** /**
 492:HW_Lib/AT32F435/drivers/src/at32f435_437_dma.c ****   * @brief  dmamux request generator init struct config with its default value.
 493:HW_Lib/AT32F435/drivers/src/at32f435_437_dma.c ****   * @param  dmamux_gen_init_struct: pointer to a dmamux_gen_init_type structure which will be initi
 494:HW_Lib/AT32F435/drivers/src/at32f435_437_dma.c ****   * @retval none.
 495:HW_Lib/AT32F435/drivers/src/at32f435_437_dma.c ****   */
 496:HW_Lib/AT32F435/drivers/src/at32f435_437_dma.c **** void dmamux_generator_default_para_init(dmamux_gen_init_type *dmamux_gen_init_struct)
 497:HW_Lib/AT32F435/drivers/src/at32f435_437_dma.c **** {
 681              		.loc 1 497 1 is_stmt 1 view -0
 682              		.cfi_startproc
 683              		@ args = 0, pretend = 0, frame = 0
 684              		@ frame_needed = 0, uses_anonymous_args = 0
 685              		@ link register save eliminated.
 498:HW_Lib/AT32F435/drivers/src/at32f435_437_dma.c ****   dmamux_gen_init_struct->gen_enable         = FALSE;
 686              		.loc 1 498 3 view .LVU186
 687              		.loc 1 498 46 is_stmt 0 view .LVU187
 688 0000 0023     		movs	r3, #0
 689 0002 0372     		strb	r3, [r0, #8]
 499:HW_Lib/AT32F435/drivers/src/at32f435_437_dma.c ****   dmamux_gen_init_struct->gen_polarity       = DMAMUX_GEN_POLARITY_DISABLE;
 690              		.loc 1 499 3 is_stmt 1 view .LVU188
 691              		.loc 1 499 46 is_stmt 0 view .LVU189
 692 0004 4370     		strb	r3, [r0, #1]
 500:HW_Lib/AT32F435/drivers/src/at32f435_437_dma.c ****   dmamux_gen_init_struct->gen_request_number = 0x0;
 693              		.loc 1 500 3 is_stmt 1 view .LVU190
 694              		.loc 1 500 46 is_stmt 0 view .LVU191
 695 0006 4360     		str	r3, [r0, #4]
 501:HW_Lib/AT32F435/drivers/src/at32f435_437_dma.c ****   dmamux_gen_init_struct->gen_signal_sel     = (dmamux_gen_id_sel_type)0x0;
 696              		.loc 1 501 3 is_stmt 1 view .LVU192
 697              		.loc 1 501 46 is_stmt 0 view .LVU193
 698 0008 0370     		strb	r3, [r0]
 502:HW_Lib/AT32F435/drivers/src/at32f435_437_dma.c **** }
 699              		.loc 1 502 1 view .LVU194
 700 000a 7047     		bx	lr
 701              		.cfi_endproc
 702              	.LFE147:
 704              		.section	.text.dmamux_generator_config,"ax",%progbits
 705              		.align	1
 706              		.global	dmamux_generator_config
 707              		.syntax unified
 708              		.thumb
 709              		.thumb_func
 711              	dmamux_generator_config:
 712              	.LVL31:
ARM GAS  C:\Users\8bit\AppData\Local\Temp\cc5wUo7f.s 			page 22


 713              	.LFB148:
 503:HW_Lib/AT32F435/drivers/src/at32f435_437_dma.c **** 
 504:HW_Lib/AT32F435/drivers/src/at32f435_437_dma.c **** /**
 505:HW_Lib/AT32F435/drivers/src/at32f435_437_dma.c ****   * @brief  dmamux request generator init.
 506:HW_Lib/AT32F435/drivers/src/at32f435_437_dma.c ****   * @param  dmamux_gen_x :
 507:HW_Lib/AT32F435/drivers/src/at32f435_437_dma.c ****   *         this parameter can be one of the following values:
 508:HW_Lib/AT32F435/drivers/src/at32f435_437_dma.c ****   *         - DMA1MUX_GENERATOR1
 509:HW_Lib/AT32F435/drivers/src/at32f435_437_dma.c ****   *         - DMA1MUX_GENERATOR2
 510:HW_Lib/AT32F435/drivers/src/at32f435_437_dma.c ****   *         - DMA1MUX_GENERATOR3
 511:HW_Lib/AT32F435/drivers/src/at32f435_437_dma.c ****   *         - DMA1MUX_GENERATOR4
 512:HW_Lib/AT32F435/drivers/src/at32f435_437_dma.c ****   *         - DMA2MUX_GENERATOR1
 513:HW_Lib/AT32F435/drivers/src/at32f435_437_dma.c ****   *         - DMA2MUX_GENERATOR2
 514:HW_Lib/AT32F435/drivers/src/at32f435_437_dma.c ****   *         - DMA2MUX_GENERATOR3
 515:HW_Lib/AT32F435/drivers/src/at32f435_437_dma.c ****   *         - DMA2MUX_GENERATOR4
 516:HW_Lib/AT32F435/drivers/src/at32f435_437_dma.c ****   * @param  dmamux_gen_init_struct: pointer to a dmamux_gen_init_type structure which will be initi
 517:HW_Lib/AT32F435/drivers/src/at32f435_437_dma.c ****   * @retval none.
 518:HW_Lib/AT32F435/drivers/src/at32f435_437_dma.c ****   */
 519:HW_Lib/AT32F435/drivers/src/at32f435_437_dma.c **** void dmamux_generator_config(dmamux_generator_type *dmamux_gen_x, dmamux_gen_init_type *dmamux_gen_
 520:HW_Lib/AT32F435/drivers/src/at32f435_437_dma.c **** {
 714              		.loc 1 520 1 is_stmt 1 view -0
 715              		.cfi_startproc
 716              		@ args = 0, pretend = 0, frame = 0
 717              		@ frame_needed = 0, uses_anonymous_args = 0
 718              		@ link register save eliminated.
 521:HW_Lib/AT32F435/drivers/src/at32f435_437_dma.c ****   dmamux_gen_x->gctrl_bit.sigsel  = dmamux_gen_init_struct->gen_signal_sel;
 719              		.loc 1 521 3 view .LVU196
 720              		.loc 1 521 59 is_stmt 0 view .LVU197
 721 0000 0A78     		ldrb	r2, [r1]	@ zero_extendqisi2
 722              		.loc 1 521 35 view .LVU198
 723 0002 0368     		ldr	r3, [r0]
 724 0004 62F30403 		bfi	r3, r2, #0, #5
 725 0008 0360     		str	r3, [r0]
 522:HW_Lib/AT32F435/drivers/src/at32f435_437_dma.c ****   dmamux_gen_x->gctrl_bit.gpol    = dmamux_gen_init_struct->gen_polarity;
 726              		.loc 1 522 3 is_stmt 1 view .LVU199
 727              		.loc 1 522 59 is_stmt 0 view .LVU200
 728 000a 4A78     		ldrb	r2, [r1, #1]	@ zero_extendqisi2
 729              		.loc 1 522 35 view .LVU201
 730 000c 0368     		ldr	r3, [r0]
 731 000e 62F35243 		bfi	r3, r2, #17, #2
 732 0012 0360     		str	r3, [r0]
 523:HW_Lib/AT32F435/drivers/src/at32f435_437_dma.c ****   dmamux_gen_x->gctrl_bit.greqcnt = dmamux_gen_init_struct->gen_request_number;
 733              		.loc 1 523 3 is_stmt 1 view .LVU202
 734              		.loc 1 523 59 is_stmt 0 view .LVU203
 735 0014 4A68     		ldr	r2, [r1, #4]
 736              		.loc 1 523 35 view .LVU204
 737 0016 0368     		ldr	r3, [r0]
 738 0018 62F3D743 		bfi	r3, r2, #19, #5
 739 001c 0360     		str	r3, [r0]
 524:HW_Lib/AT32F435/drivers/src/at32f435_437_dma.c ****   dmamux_gen_x->gctrl_bit.gen     = dmamux_gen_init_struct->gen_enable;
 740              		.loc 1 524 3 is_stmt 1 view .LVU205
 741              		.loc 1 524 59 is_stmt 0 view .LVU206
 742 001e 0A7A     		ldrb	r2, [r1, #8]	@ zero_extendqisi2
 743              		.loc 1 524 35 view .LVU207
 744 0020 0368     		ldr	r3, [r0]
 745 0022 62F31043 		bfi	r3, r2, #16, #1
 746 0026 0360     		str	r3, [r0]
 525:HW_Lib/AT32F435/drivers/src/at32f435_437_dma.c **** }
ARM GAS  C:\Users\8bit\AppData\Local\Temp\cc5wUo7f.s 			page 23


 747              		.loc 1 525 1 view .LVU208
 748 0028 7047     		bx	lr
 749              		.cfi_endproc
 750              	.LFE148:
 752              		.section	.text.dmamux_sync_interrupt_enable,"ax",%progbits
 753              		.align	1
 754              		.global	dmamux_sync_interrupt_enable
 755              		.syntax unified
 756              		.thumb
 757              		.thumb_func
 759              	dmamux_sync_interrupt_enable:
 760              	.LVL32:
 761              	.LFB149:
 526:HW_Lib/AT32F435/drivers/src/at32f435_437_dma.c **** 
 527:HW_Lib/AT32F435/drivers/src/at32f435_437_dma.c **** /**
 528:HW_Lib/AT32F435/drivers/src/at32f435_437_dma.c ****   * @brief  enable or disable the dmamux sync interrupts.
 529:HW_Lib/AT32F435/drivers/src/at32f435_437_dma.c ****   * @param  dmamux_channelx:
 530:HW_Lib/AT32F435/drivers/src/at32f435_437_dma.c ****   *         this parameter can be one of the following values:
 531:HW_Lib/AT32F435/drivers/src/at32f435_437_dma.c ****   *         - DMA1MUX_CHANNEL1
 532:HW_Lib/AT32F435/drivers/src/at32f435_437_dma.c ****   *         - DMA1MUX_CHANNEL2
 533:HW_Lib/AT32F435/drivers/src/at32f435_437_dma.c ****   *         - DMA1MUX_CHANNEL3
 534:HW_Lib/AT32F435/drivers/src/at32f435_437_dma.c ****   *         - DMA1MUX_CHANNEL4
 535:HW_Lib/AT32F435/drivers/src/at32f435_437_dma.c ****   *         - DMA1MUX_CHANNEL5
 536:HW_Lib/AT32F435/drivers/src/at32f435_437_dma.c ****   *         - DMA1MUX_CHANNEL6
 537:HW_Lib/AT32F435/drivers/src/at32f435_437_dma.c ****   *         - DMA1MUX_CHANNEL7
 538:HW_Lib/AT32F435/drivers/src/at32f435_437_dma.c ****   *         - DMA2MUX_CHANNEL1
 539:HW_Lib/AT32F435/drivers/src/at32f435_437_dma.c ****   *         - DMA2MUX_CHANNEL2
 540:HW_Lib/AT32F435/drivers/src/at32f435_437_dma.c ****   *         - DMA2MUX_CHANNEL3
 541:HW_Lib/AT32F435/drivers/src/at32f435_437_dma.c ****   *         - DMA2MUX_CHANNEL4
 542:HW_Lib/AT32F435/drivers/src/at32f435_437_dma.c ****   *         - DMA2MUX_CHANNEL5
 543:HW_Lib/AT32F435/drivers/src/at32f435_437_dma.c ****   *         - DMA2MUX_CHANNEL6
 544:HW_Lib/AT32F435/drivers/src/at32f435_437_dma.c ****   *         - DMA2MUX_CHANNEL7
 545:HW_Lib/AT32F435/drivers/src/at32f435_437_dma.c ****   * @param  new_state (TRUE or FALSE).
 546:HW_Lib/AT32F435/drivers/src/at32f435_437_dma.c ****   * @retval none.
 547:HW_Lib/AT32F435/drivers/src/at32f435_437_dma.c ****   */
 548:HW_Lib/AT32F435/drivers/src/at32f435_437_dma.c **** void dmamux_sync_interrupt_enable(dmamux_channel_type *dmamux_channelx, confirm_state new_state)
 549:HW_Lib/AT32F435/drivers/src/at32f435_437_dma.c **** {
 762              		.loc 1 549 1 is_stmt 1 view -0
 763              		.cfi_startproc
 764              		@ args = 0, pretend = 0, frame = 0
 765              		@ frame_needed = 0, uses_anonymous_args = 0
 766              		@ link register save eliminated.
 550:HW_Lib/AT32F435/drivers/src/at32f435_437_dma.c ****   if(new_state != FALSE)
 767              		.loc 1 550 3 view .LVU210
 768              		.loc 1 550 5 is_stmt 0 view .LVU211
 769 0000 21B1     		cbz	r1, .L35
 551:HW_Lib/AT32F435/drivers/src/at32f435_437_dma.c ****   {
 552:HW_Lib/AT32F435/drivers/src/at32f435_437_dma.c ****     dmamux_channelx->muxctrl_bit.syncovien = TRUE;
 770              		.loc 1 552 5 is_stmt 1 view .LVU212
 771              		.loc 1 552 44 is_stmt 0 view .LVU213
 772 0002 0368     		ldr	r3, [r0]
 773 0004 43F48073 		orr	r3, r3, #256
 774 0008 0360     		str	r3, [r0]
 775 000a 7047     		bx	lr
 776              	.L35:
 553:HW_Lib/AT32F435/drivers/src/at32f435_437_dma.c ****   }
 554:HW_Lib/AT32F435/drivers/src/at32f435_437_dma.c ****   else
ARM GAS  C:\Users\8bit\AppData\Local\Temp\cc5wUo7f.s 			page 24


 555:HW_Lib/AT32F435/drivers/src/at32f435_437_dma.c ****   {
 556:HW_Lib/AT32F435/drivers/src/at32f435_437_dma.c ****     dmamux_channelx->muxctrl_bit.syncovien = FALSE;
 777              		.loc 1 556 5 is_stmt 1 view .LVU214
 778              		.loc 1 556 44 is_stmt 0 view .LVU215
 779 000c 0368     		ldr	r3, [r0]
 780 000e 6FF30823 		bfc	r3, #8, #1
 781 0012 0360     		str	r3, [r0]
 557:HW_Lib/AT32F435/drivers/src/at32f435_437_dma.c ****   }
 558:HW_Lib/AT32F435/drivers/src/at32f435_437_dma.c **** }
 782              		.loc 1 558 1 view .LVU216
 783 0014 7047     		bx	lr
 784              		.cfi_endproc
 785              	.LFE149:
 787              		.section	.text.dmamux_generator_interrupt_enable,"ax",%progbits
 788              		.align	1
 789              		.global	dmamux_generator_interrupt_enable
 790              		.syntax unified
 791              		.thumb
 792              		.thumb_func
 794              	dmamux_generator_interrupt_enable:
 795              	.LVL33:
 796              	.LFB150:
 559:HW_Lib/AT32F435/drivers/src/at32f435_437_dma.c **** 
 560:HW_Lib/AT32F435/drivers/src/at32f435_437_dma.c **** /**
 561:HW_Lib/AT32F435/drivers/src/at32f435_437_dma.c ****   * @brief  enable or disable the dmamux request generator interrupts.
 562:HW_Lib/AT32F435/drivers/src/at32f435_437_dma.c ****   * @param  dmamux_gen_x : pointer to a dmamux_generator_type structure.
 563:HW_Lib/AT32F435/drivers/src/at32f435_437_dma.c ****   *         this parameter can be one of the following values:
 564:HW_Lib/AT32F435/drivers/src/at32f435_437_dma.c ****   *         - DMA1MUX_GENERATOR1
 565:HW_Lib/AT32F435/drivers/src/at32f435_437_dma.c ****   *         - DMA1MUX_GENERATOR2
 566:HW_Lib/AT32F435/drivers/src/at32f435_437_dma.c ****   *         - DMA1MUX_GENERATOR3
 567:HW_Lib/AT32F435/drivers/src/at32f435_437_dma.c ****   *         - DMA1MUX_GENERATOR4
 568:HW_Lib/AT32F435/drivers/src/at32f435_437_dma.c ****   *         - DMA2MUX_GENERATOR1
 569:HW_Lib/AT32F435/drivers/src/at32f435_437_dma.c ****   *         - DMA2MUX_GENERATOR2
 570:HW_Lib/AT32F435/drivers/src/at32f435_437_dma.c ****   *         - DMA2MUX_GENERATOR3
 571:HW_Lib/AT32F435/drivers/src/at32f435_437_dma.c ****   *         - DMA2MUX_GENERATOR4
 572:HW_Lib/AT32F435/drivers/src/at32f435_437_dma.c ****   * @param  new_state (TRUE or FALSE).
 573:HW_Lib/AT32F435/drivers/src/at32f435_437_dma.c ****   * @retval none.
 574:HW_Lib/AT32F435/drivers/src/at32f435_437_dma.c ****   */
 575:HW_Lib/AT32F435/drivers/src/at32f435_437_dma.c **** void dmamux_generator_interrupt_enable(dmamux_generator_type *dmamux_gen_x, confirm_state new_state
 576:HW_Lib/AT32F435/drivers/src/at32f435_437_dma.c **** {
 797              		.loc 1 576 1 is_stmt 1 view -0
 798              		.cfi_startproc
 799              		@ args = 0, pretend = 0, frame = 0
 800              		@ frame_needed = 0, uses_anonymous_args = 0
 801              		@ link register save eliminated.
 577:HW_Lib/AT32F435/drivers/src/at32f435_437_dma.c ****   if(new_state != FALSE)
 802              		.loc 1 577 3 view .LVU218
 803              		.loc 1 577 5 is_stmt 0 view .LVU219
 804 0000 21B1     		cbz	r1, .L38
 578:HW_Lib/AT32F435/drivers/src/at32f435_437_dma.c ****   {
 579:HW_Lib/AT32F435/drivers/src/at32f435_437_dma.c ****     dmamux_gen_x->gctrl_bit.trgovien = TRUE;
 805              		.loc 1 579 5 is_stmt 1 view .LVU220
 806              		.loc 1 579 38 is_stmt 0 view .LVU221
 807 0002 0368     		ldr	r3, [r0]
 808 0004 43F48073 		orr	r3, r3, #256
 809 0008 0360     		str	r3, [r0]
 810 000a 7047     		bx	lr
ARM GAS  C:\Users\8bit\AppData\Local\Temp\cc5wUo7f.s 			page 25


 811              	.L38:
 580:HW_Lib/AT32F435/drivers/src/at32f435_437_dma.c ****   }
 581:HW_Lib/AT32F435/drivers/src/at32f435_437_dma.c ****   else
 582:HW_Lib/AT32F435/drivers/src/at32f435_437_dma.c ****   {
 583:HW_Lib/AT32F435/drivers/src/at32f435_437_dma.c ****     dmamux_gen_x->gctrl_bit.trgovien = FALSE;
 812              		.loc 1 583 5 is_stmt 1 view .LVU222
 813              		.loc 1 583 38 is_stmt 0 view .LVU223
 814 000c 0368     		ldr	r3, [r0]
 815 000e 6FF30823 		bfc	r3, #8, #1
 816 0012 0360     		str	r3, [r0]
 584:HW_Lib/AT32F435/drivers/src/at32f435_437_dma.c ****   }
 585:HW_Lib/AT32F435/drivers/src/at32f435_437_dma.c **** }
 817              		.loc 1 585 1 view .LVU224
 818 0014 7047     		bx	lr
 819              		.cfi_endproc
 820              	.LFE150:
 822              		.section	.text.dmamux_sync_flag_get,"ax",%progbits
 823              		.align	1
 824              		.global	dmamux_sync_flag_get
 825              		.syntax unified
 826              		.thumb
 827              		.thumb_func
 829              	dmamux_sync_flag_get:
 830              	.LVL34:
 831              	.LFB151:
 586:HW_Lib/AT32F435/drivers/src/at32f435_437_dma.c **** 
 587:HW_Lib/AT32F435/drivers/src/at32f435_437_dma.c **** /**
 588:HW_Lib/AT32F435/drivers/src/at32f435_437_dma.c ****   * @brief  dmamux sync flag get.
 589:HW_Lib/AT32F435/drivers/src/at32f435_437_dma.c ****   * @param  dma_x : pointer to a dma_type structure, can be DMA1 or DMA2.
 590:HW_Lib/AT32F435/drivers/src/at32f435_437_dma.c ****   * @param  flag
 591:HW_Lib/AT32F435/drivers/src/at32f435_437_dma.c ****   *         this parameter can be any combination of the following values:
 592:HW_Lib/AT32F435/drivers/src/at32f435_437_dma.c ****   *         - DMAMUX_SYNC_OV1_FLAG
 593:HW_Lib/AT32F435/drivers/src/at32f435_437_dma.c ****   *         - DMAMUX_SYNC_OV2_FLAG
 594:HW_Lib/AT32F435/drivers/src/at32f435_437_dma.c ****   *         - DMAMUX_SYNC_OV3_FLAG
 595:HW_Lib/AT32F435/drivers/src/at32f435_437_dma.c ****   *         - DMAMUX_SYNC_OV4_FLAG
 596:HW_Lib/AT32F435/drivers/src/at32f435_437_dma.c ****   *         - DMAMUX_SYNC_OV5_FLAG
 597:HW_Lib/AT32F435/drivers/src/at32f435_437_dma.c ****   *         - DMAMUX_SYNC_OV6_FLAG
 598:HW_Lib/AT32F435/drivers/src/at32f435_437_dma.c ****   *         - DMAMUX_SYNC_OV7_FLAG
 599:HW_Lib/AT32F435/drivers/src/at32f435_437_dma.c ****   * @retval state of dmamux sync flag.
 600:HW_Lib/AT32F435/drivers/src/at32f435_437_dma.c ****   */
 601:HW_Lib/AT32F435/drivers/src/at32f435_437_dma.c **** flag_status dmamux_sync_flag_get(dma_type *dma_x, uint32_t flag)
 602:HW_Lib/AT32F435/drivers/src/at32f435_437_dma.c **** {
 832              		.loc 1 602 1 is_stmt 1 view -0
 833              		.cfi_startproc
 834              		@ args = 0, pretend = 0, frame = 0
 835              		@ frame_needed = 0, uses_anonymous_args = 0
 836              		@ link register save eliminated.
 603:HW_Lib/AT32F435/drivers/src/at32f435_437_dma.c ****   if((dma_x->muxsyncsts & flag) != RESET)
 837              		.loc 1 603 3 view .LVU226
 838              		.loc 1 603 12 is_stmt 0 view .LVU227
 839 0000 D0F83031 		ldr	r3, [r0, #304]
 840              		.loc 1 603 5 view .LVU228
 841 0004 0B42     		tst	r3, r1
 842 0006 01D0     		beq	.L42
 604:HW_Lib/AT32F435/drivers/src/at32f435_437_dma.c ****   {
 605:HW_Lib/AT32F435/drivers/src/at32f435_437_dma.c ****     return SET;
 843              		.loc 1 605 12 view .LVU229
ARM GAS  C:\Users\8bit\AppData\Local\Temp\cc5wUo7f.s 			page 26


 844 0008 0120     		movs	r0, #1
 845              	.LVL35:
 846              		.loc 1 605 12 view .LVU230
 847 000a 7047     		bx	lr
 848              	.LVL36:
 849              	.L42:
 606:HW_Lib/AT32F435/drivers/src/at32f435_437_dma.c ****   }
 607:HW_Lib/AT32F435/drivers/src/at32f435_437_dma.c ****   else
 608:HW_Lib/AT32F435/drivers/src/at32f435_437_dma.c ****   {
 609:HW_Lib/AT32F435/drivers/src/at32f435_437_dma.c ****     return RESET;
 850              		.loc 1 609 12 view .LVU231
 851 000c 0020     		movs	r0, #0
 852              	.LVL37:
 610:HW_Lib/AT32F435/drivers/src/at32f435_437_dma.c ****   }
 611:HW_Lib/AT32F435/drivers/src/at32f435_437_dma.c **** }
 853              		.loc 1 611 1 view .LVU232
 854 000e 7047     		bx	lr
 855              		.cfi_endproc
 856              	.LFE151:
 858              		.section	.text.dmamux_sync_flag_clear,"ax",%progbits
 859              		.align	1
 860              		.global	dmamux_sync_flag_clear
 861              		.syntax unified
 862              		.thumb
 863              		.thumb_func
 865              	dmamux_sync_flag_clear:
 866              	.LVL38:
 867              	.LFB152:
 612:HW_Lib/AT32F435/drivers/src/at32f435_437_dma.c **** 
 613:HW_Lib/AT32F435/drivers/src/at32f435_437_dma.c **** /**
 614:HW_Lib/AT32F435/drivers/src/at32f435_437_dma.c ****   * @brief  dmamux sync flag clear.
 615:HW_Lib/AT32F435/drivers/src/at32f435_437_dma.c ****   * @param  dma_x : pointer to a dma_type structure, can be DMA1 or DMA2.
 616:HW_Lib/AT32F435/drivers/src/at32f435_437_dma.c ****   * @param  flag
 617:HW_Lib/AT32F435/drivers/src/at32f435_437_dma.c ****   *         this parameter can be any combination of the following values:
 618:HW_Lib/AT32F435/drivers/src/at32f435_437_dma.c ****   *         - DMAMUX_SYNC_OV1_FLAG
 619:HW_Lib/AT32F435/drivers/src/at32f435_437_dma.c ****   *         - DMAMUX_SYNC_OV2_FLAG
 620:HW_Lib/AT32F435/drivers/src/at32f435_437_dma.c ****   *         - DMAMUX_SYNC_OV3_FLAG
 621:HW_Lib/AT32F435/drivers/src/at32f435_437_dma.c ****   *         - DMAMUX_SYNC_OV4_FLAG
 622:HW_Lib/AT32F435/drivers/src/at32f435_437_dma.c ****   *         - DMAMUX_SYNC_OV5_FLAG
 623:HW_Lib/AT32F435/drivers/src/at32f435_437_dma.c ****   *         - DMAMUX_SYNC_OV6_FLAG
 624:HW_Lib/AT32F435/drivers/src/at32f435_437_dma.c ****   *         - DMAMUX_SYNC_OV7_FLAG
 625:HW_Lib/AT32F435/drivers/src/at32f435_437_dma.c ****   * @retval none.
 626:HW_Lib/AT32F435/drivers/src/at32f435_437_dma.c ****   */
 627:HW_Lib/AT32F435/drivers/src/at32f435_437_dma.c **** void dmamux_sync_flag_clear(dma_type *dma_x, uint32_t flag)
 628:HW_Lib/AT32F435/drivers/src/at32f435_437_dma.c **** {
 868              		.loc 1 628 1 is_stmt 1 view -0
 869              		.cfi_startproc
 870              		@ args = 0, pretend = 0, frame = 0
 871              		@ frame_needed = 0, uses_anonymous_args = 0
 872              		@ link register save eliminated.
 629:HW_Lib/AT32F435/drivers/src/at32f435_437_dma.c ****   dma_x->muxsyncclr = flag;
 873              		.loc 1 629 3 view .LVU234
 874              		.loc 1 629 21 is_stmt 0 view .LVU235
 875 0000 C0F83411 		str	r1, [r0, #308]
 630:HW_Lib/AT32F435/drivers/src/at32f435_437_dma.c **** }
 876              		.loc 1 630 1 view .LVU236
 877 0004 7047     		bx	lr
ARM GAS  C:\Users\8bit\AppData\Local\Temp\cc5wUo7f.s 			page 27


 878              		.cfi_endproc
 879              	.LFE152:
 881              		.section	.text.dmamux_generator_flag_get,"ax",%progbits
 882              		.align	1
 883              		.global	dmamux_generator_flag_get
 884              		.syntax unified
 885              		.thumb
 886              		.thumb_func
 888              	dmamux_generator_flag_get:
 889              	.LVL39:
 890              	.LFB153:
 631:HW_Lib/AT32F435/drivers/src/at32f435_437_dma.c **** 
 632:HW_Lib/AT32F435/drivers/src/at32f435_437_dma.c **** /**
 633:HW_Lib/AT32F435/drivers/src/at32f435_437_dma.c ****   * @brief  dmamux request generator flag get.
 634:HW_Lib/AT32F435/drivers/src/at32f435_437_dma.c ****   * @param  dma_x : pointer to a dma_type structure, can be DMA1 or DMA2.
 635:HW_Lib/AT32F435/drivers/src/at32f435_437_dma.c ****   * @param  flag
 636:HW_Lib/AT32F435/drivers/src/at32f435_437_dma.c ****   *         this parameter can be any combination of the following values:
 637:HW_Lib/AT32F435/drivers/src/at32f435_437_dma.c ****   *         - DMAMUX_GEN_TRIG_OV1_FLAG
 638:HW_Lib/AT32F435/drivers/src/at32f435_437_dma.c ****   *         - DMAMUX_GEN_TRIG_OV2_FLAG
 639:HW_Lib/AT32F435/drivers/src/at32f435_437_dma.c ****   *         - DMAMUX_GEN_TRIG_OV3_FLAG
 640:HW_Lib/AT32F435/drivers/src/at32f435_437_dma.c ****   *         - DMAMUX_GEN_TRIG_OV4_FLAG
 641:HW_Lib/AT32F435/drivers/src/at32f435_437_dma.c ****   * @retval state of dmamux sync flag.
 642:HW_Lib/AT32F435/drivers/src/at32f435_437_dma.c ****   */
 643:HW_Lib/AT32F435/drivers/src/at32f435_437_dma.c **** flag_status dmamux_generator_flag_get(dma_type *dma_x, uint32_t flag)
 644:HW_Lib/AT32F435/drivers/src/at32f435_437_dma.c **** {
 891              		.loc 1 644 1 is_stmt 1 view -0
 892              		.cfi_startproc
 893              		@ args = 0, pretend = 0, frame = 0
 894              		@ frame_needed = 0, uses_anonymous_args = 0
 895              		@ link register save eliminated.
 645:HW_Lib/AT32F435/drivers/src/at32f435_437_dma.c ****   if((dma_x->muxgsts & flag) != RESET)
 896              		.loc 1 645 3 view .LVU238
 897              		.loc 1 645 12 is_stmt 0 view .LVU239
 898 0000 D0F83831 		ldr	r3, [r0, #312]
 899              		.loc 1 645 5 view .LVU240
 900 0004 0B42     		tst	r3, r1
 901 0006 01D0     		beq	.L46
 646:HW_Lib/AT32F435/drivers/src/at32f435_437_dma.c ****   {
 647:HW_Lib/AT32F435/drivers/src/at32f435_437_dma.c ****     return SET;
 902              		.loc 1 647 12 view .LVU241
 903 0008 0120     		movs	r0, #1
 904              	.LVL40:
 905              		.loc 1 647 12 view .LVU242
 906 000a 7047     		bx	lr
 907              	.LVL41:
 908              	.L46:
 648:HW_Lib/AT32F435/drivers/src/at32f435_437_dma.c ****   }
 649:HW_Lib/AT32F435/drivers/src/at32f435_437_dma.c ****   else
 650:HW_Lib/AT32F435/drivers/src/at32f435_437_dma.c ****   {
 651:HW_Lib/AT32F435/drivers/src/at32f435_437_dma.c ****     return RESET;
 909              		.loc 1 651 12 view .LVU243
 910 000c 0020     		movs	r0, #0
 911              	.LVL42:
 652:HW_Lib/AT32F435/drivers/src/at32f435_437_dma.c ****   }
 653:HW_Lib/AT32F435/drivers/src/at32f435_437_dma.c **** }
 912              		.loc 1 653 1 view .LVU244
 913 000e 7047     		bx	lr
ARM GAS  C:\Users\8bit\AppData\Local\Temp\cc5wUo7f.s 			page 28


 914              		.cfi_endproc
 915              	.LFE153:
 917              		.section	.text.dmamux_generator_flag_clear,"ax",%progbits
 918              		.align	1
 919              		.global	dmamux_generator_flag_clear
 920              		.syntax unified
 921              		.thumb
 922              		.thumb_func
 924              	dmamux_generator_flag_clear:
 925              	.LVL43:
 926              	.LFB154:
 654:HW_Lib/AT32F435/drivers/src/at32f435_437_dma.c **** 
 655:HW_Lib/AT32F435/drivers/src/at32f435_437_dma.c **** /**
 656:HW_Lib/AT32F435/drivers/src/at32f435_437_dma.c ****   * @brief  dmamux request generator flag clear.
 657:HW_Lib/AT32F435/drivers/src/at32f435_437_dma.c ****   * @param  dma_x : pointer to a dma_type structure, can be DMA1 or DMA2.
 658:HW_Lib/AT32F435/drivers/src/at32f435_437_dma.c ****   * @param  flag
 659:HW_Lib/AT32F435/drivers/src/at32f435_437_dma.c ****   *         this parameter can be any combination of the following values:
 660:HW_Lib/AT32F435/drivers/src/at32f435_437_dma.c ****   *         - DMAMUX_GEN_TRIG_OV1_FLAG
 661:HW_Lib/AT32F435/drivers/src/at32f435_437_dma.c ****   *         - DMAMUX_GEN_TRIG_OV2_FLAG
 662:HW_Lib/AT32F435/drivers/src/at32f435_437_dma.c ****   *         - DMAMUX_GEN_TRIG_OV3_FLAG
 663:HW_Lib/AT32F435/drivers/src/at32f435_437_dma.c ****   *         - DMAMUX_GEN_TRIG_OV4_FLAG
 664:HW_Lib/AT32F435/drivers/src/at32f435_437_dma.c ****   * @retval none.
 665:HW_Lib/AT32F435/drivers/src/at32f435_437_dma.c ****   */
 666:HW_Lib/AT32F435/drivers/src/at32f435_437_dma.c **** void dmamux_generator_flag_clear(dma_type *dma_x, uint32_t flag)
 667:HW_Lib/AT32F435/drivers/src/at32f435_437_dma.c **** {
 927              		.loc 1 667 1 is_stmt 1 view -0
 928              		.cfi_startproc
 929              		@ args = 0, pretend = 0, frame = 0
 930              		@ frame_needed = 0, uses_anonymous_args = 0
 931              		@ link register save eliminated.
 668:HW_Lib/AT32F435/drivers/src/at32f435_437_dma.c ****   dma_x->muxgclr = flag;
 932              		.loc 1 668 3 view .LVU246
 933              		.loc 1 668 18 is_stmt 0 view .LVU247
 934 0000 C0F83C11 		str	r1, [r0, #316]
 669:HW_Lib/AT32F435/drivers/src/at32f435_437_dma.c **** }
 935              		.loc 1 669 1 view .LVU248
 936 0004 7047     		bx	lr
 937              		.cfi_endproc
 938              	.LFE154:
 940              		.text
 941              	.Letext0:
 942              		.file 2 "c:\\program files (x86)\\gnu arm embedded toolchain\\10 2021.10\\arm-none-eabi\\include\\
 943              		.file 3 "c:\\program files (x86)\\gnu arm embedded toolchain\\10 2021.10\\arm-none-eabi\\include\\
 944              		.file 4 "HW_Lib/AT32F435/device_support/at32f435_437.h"
 945              		.file 5 "HW_Lib/AT32F435/drivers/inc/at32f435_437_dma.h"
ARM GAS  C:\Users\8bit\AppData\Local\Temp\cc5wUo7f.s 			page 29

