ARM GAS  C:\Users\8bit\AppData\Local\Temp\ccxgGzw4.s 			page 1


   1              		.cpu cortex-m4
   2              		.arch armv7e-m
   3              		.fpu fpv4-sp-d16
   4              		.eabi_attribute 27, 1
   5              		.eabi_attribute 28, 1
   6              		.eabi_attribute 20, 1
   7              		.eabi_attribute 21, 1
   8              		.eabi_attribute 23, 3
   9              		.eabi_attribute 24, 1
  10              		.eabi_attribute 25, 1
  11              		.eabi_attribute 26, 1
  12              		.eabi_attribute 30, 1
  13              		.eabi_attribute 34, 1
  14              		.eabi_attribute 18, 4
  15              		.file	"at32f435_437_gpio.c"
  16              		.text
  17              	.Ltext0:
  18              		.cfi_sections	.debug_frame
  19              		.section	.text.gpio_reset,"ax",%progbits
  20              		.align	1
  21              		.global	gpio_reset
  22              		.syntax unified
  23              		.thumb
  24              		.thumb_func
  26              	gpio_reset:
  27              	.LVL0:
  28              	.LFB133:
  29              		.file 1 "HW_Lib/AT32F435/drivers/src/at32f435_437_gpio.c"
   1:HW_Lib/AT32F435/drivers/src/at32f435_437_gpio.c **** /**
   2:HW_Lib/AT32F435/drivers/src/at32f435_437_gpio.c ****   **************************************************************************
   3:HW_Lib/AT32F435/drivers/src/at32f435_437_gpio.c ****   * @file     at32f435_437_gpio.c
   4:HW_Lib/AT32F435/drivers/src/at32f435_437_gpio.c ****   * @version  v2.1.0
   5:HW_Lib/AT32F435/drivers/src/at32f435_437_gpio.c ****   * @date     2022-08-16
   6:HW_Lib/AT32F435/drivers/src/at32f435_437_gpio.c ****   * @brief    contains all the functions for the gpio firmware library
   7:HW_Lib/AT32F435/drivers/src/at32f435_437_gpio.c ****   **************************************************************************
   8:HW_Lib/AT32F435/drivers/src/at32f435_437_gpio.c ****   *                       Copyright notice & Disclaimer
   9:HW_Lib/AT32F435/drivers/src/at32f435_437_gpio.c ****   *
  10:HW_Lib/AT32F435/drivers/src/at32f435_437_gpio.c ****   * The software Board Support Package (BSP) that is made available to
  11:HW_Lib/AT32F435/drivers/src/at32f435_437_gpio.c ****   * download from Artery official website is the copyrighted work of Artery.
  12:HW_Lib/AT32F435/drivers/src/at32f435_437_gpio.c ****   * Artery authorizes customers to use, copy, and distribute the BSP
  13:HW_Lib/AT32F435/drivers/src/at32f435_437_gpio.c ****   * software and its related documentation for the purpose of design and
  14:HW_Lib/AT32F435/drivers/src/at32f435_437_gpio.c ****   * development in conjunction with Artery microcontrollers. Use of the
  15:HW_Lib/AT32F435/drivers/src/at32f435_437_gpio.c ****   * software is governed by this copyright notice and the following disclaimer.
  16:HW_Lib/AT32F435/drivers/src/at32f435_437_gpio.c ****   *
  17:HW_Lib/AT32F435/drivers/src/at32f435_437_gpio.c ****   * THIS SOFTWARE IS PROVIDED ON "AS IS" BASIS WITHOUT WARRANTIES,
  18:HW_Lib/AT32F435/drivers/src/at32f435_437_gpio.c ****   * GUARANTEES OR REPRESENTATIONS OF ANY KIND. ARTERY EXPRESSLY DISCLAIMS,
  19:HW_Lib/AT32F435/drivers/src/at32f435_437_gpio.c ****   * TO THE FULLEST EXTENT PERMITTED BY LAW, ALL EXPRESS, IMPLIED OR
  20:HW_Lib/AT32F435/drivers/src/at32f435_437_gpio.c ****   * STATUTORY OR OTHER WARRANTIES, GUARANTEES OR REPRESENTATIONS,
  21:HW_Lib/AT32F435/drivers/src/at32f435_437_gpio.c ****   * INCLUDING BUT NOT LIMITED TO, THE IMPLIED WARRANTIES OF MERCHANTABILITY,
  22:HW_Lib/AT32F435/drivers/src/at32f435_437_gpio.c ****   * FITNESS FOR A PARTICULAR PURPOSE, OR NON-INFRINGEMENT.
  23:HW_Lib/AT32F435/drivers/src/at32f435_437_gpio.c ****   *
  24:HW_Lib/AT32F435/drivers/src/at32f435_437_gpio.c ****   **************************************************************************
  25:HW_Lib/AT32F435/drivers/src/at32f435_437_gpio.c ****   */
  26:HW_Lib/AT32F435/drivers/src/at32f435_437_gpio.c **** 
  27:HW_Lib/AT32F435/drivers/src/at32f435_437_gpio.c **** #include "at32f435_437_conf.h"
  28:HW_Lib/AT32F435/drivers/src/at32f435_437_gpio.c **** 
  29:HW_Lib/AT32F435/drivers/src/at32f435_437_gpio.c **** /** @addtogroup AT32F435_437_periph_driver
ARM GAS  C:\Users\8bit\AppData\Local\Temp\ccxgGzw4.s 			page 2


  30:HW_Lib/AT32F435/drivers/src/at32f435_437_gpio.c ****   * @{
  31:HW_Lib/AT32F435/drivers/src/at32f435_437_gpio.c ****   */
  32:HW_Lib/AT32F435/drivers/src/at32f435_437_gpio.c **** 
  33:HW_Lib/AT32F435/drivers/src/at32f435_437_gpio.c **** /** @defgroup GPIO
  34:HW_Lib/AT32F435/drivers/src/at32f435_437_gpio.c ****   * @brief GPIO driver modules
  35:HW_Lib/AT32F435/drivers/src/at32f435_437_gpio.c ****   * @{
  36:HW_Lib/AT32F435/drivers/src/at32f435_437_gpio.c ****   */
  37:HW_Lib/AT32F435/drivers/src/at32f435_437_gpio.c **** 
  38:HW_Lib/AT32F435/drivers/src/at32f435_437_gpio.c **** #ifdef GPIO_MODULE_ENABLED
  39:HW_Lib/AT32F435/drivers/src/at32f435_437_gpio.c **** 
  40:HW_Lib/AT32F435/drivers/src/at32f435_437_gpio.c **** /** @defgroup GPIO_private_functions
  41:HW_Lib/AT32F435/drivers/src/at32f435_437_gpio.c ****   * @{
  42:HW_Lib/AT32F435/drivers/src/at32f435_437_gpio.c ****   */
  43:HW_Lib/AT32F435/drivers/src/at32f435_437_gpio.c **** 
  44:HW_Lib/AT32F435/drivers/src/at32f435_437_gpio.c **** /**
  45:HW_Lib/AT32F435/drivers/src/at32f435_437_gpio.c ****   * @brief  reset the gpio register
  46:HW_Lib/AT32F435/drivers/src/at32f435_437_gpio.c ****   * @param  gpio_x: to select the gpio peripheral.
  47:HW_Lib/AT32F435/drivers/src/at32f435_437_gpio.c ****   *         this parameter can be one of the following values:
  48:HW_Lib/AT32F435/drivers/src/at32f435_437_gpio.c ****   *         GPIOA, GPIOB, GPIOC, GPIOD, GPIOE, GPIOF, GPIOG, GPIOH.
  49:HW_Lib/AT32F435/drivers/src/at32f435_437_gpio.c ****   * @retval none
  50:HW_Lib/AT32F435/drivers/src/at32f435_437_gpio.c ****   */
  51:HW_Lib/AT32F435/drivers/src/at32f435_437_gpio.c **** void gpio_reset(gpio_type *gpio_x)
  52:HW_Lib/AT32F435/drivers/src/at32f435_437_gpio.c **** {
  30              		.loc 1 52 1 view -0
  31              		.cfi_startproc
  32              		@ args = 0, pretend = 0, frame = 0
  33              		@ frame_needed = 0, uses_anonymous_args = 0
  34              		.loc 1 52 1 is_stmt 0 view .LVU1
  35 0000 10B5     		push	{r4, lr}
  36              	.LCFI0:
  37              		.cfi_def_cfa_offset 8
  38              		.cfi_offset 4, -8
  39              		.cfi_offset 14, -4
  53:HW_Lib/AT32F435/drivers/src/at32f435_437_gpio.c ****   if(gpio_x == GPIOA)
  40              		.loc 1 53 3 is_stmt 1 view .LVU2
  41              		.loc 1 53 5 is_stmt 0 view .LVU3
  42 0002 354B     		ldr	r3, .L19
  43 0004 9842     		cmp	r0, r3
  44 0006 15D0     		beq	.L11
  54:HW_Lib/AT32F435/drivers/src/at32f435_437_gpio.c ****   {
  55:HW_Lib/AT32F435/drivers/src/at32f435_437_gpio.c ****     crm_periph_reset(CRM_GPIOA_PERIPH_RESET, TRUE);
  56:HW_Lib/AT32F435/drivers/src/at32f435_437_gpio.c ****     crm_periph_reset(CRM_GPIOA_PERIPH_RESET, FALSE);
  57:HW_Lib/AT32F435/drivers/src/at32f435_437_gpio.c ****   }
  58:HW_Lib/AT32F435/drivers/src/at32f435_437_gpio.c ****   else if(gpio_x == GPIOB)
  45              		.loc 1 58 8 is_stmt 1 view .LVU4
  46              		.loc 1 58 10 is_stmt 0 view .LVU5
  47 0008 344B     		ldr	r3, .L19+4
  48 000a 9842     		cmp	r0, r3
  49 000c 1DD0     		beq	.L12
  59:HW_Lib/AT32F435/drivers/src/at32f435_437_gpio.c ****   {
  60:HW_Lib/AT32F435/drivers/src/at32f435_437_gpio.c ****     crm_periph_reset(CRM_GPIOB_PERIPH_RESET, TRUE);
  61:HW_Lib/AT32F435/drivers/src/at32f435_437_gpio.c ****     crm_periph_reset(CRM_GPIOB_PERIPH_RESET, FALSE);
  62:HW_Lib/AT32F435/drivers/src/at32f435_437_gpio.c ****   }
  63:HW_Lib/AT32F435/drivers/src/at32f435_437_gpio.c ****   else if(gpio_x == GPIOC)
  50              		.loc 1 63 8 is_stmt 1 view .LVU6
  51              		.loc 1 63 10 is_stmt 0 view .LVU7
  52 000e 344B     		ldr	r3, .L19+8
ARM GAS  C:\Users\8bit\AppData\Local\Temp\ccxgGzw4.s 			page 3


  53 0010 9842     		cmp	r0, r3
  54 0012 24D0     		beq	.L13
  64:HW_Lib/AT32F435/drivers/src/at32f435_437_gpio.c ****   {
  65:HW_Lib/AT32F435/drivers/src/at32f435_437_gpio.c ****     crm_periph_reset(CRM_GPIOC_PERIPH_RESET, TRUE);
  66:HW_Lib/AT32F435/drivers/src/at32f435_437_gpio.c ****     crm_periph_reset(CRM_GPIOC_PERIPH_RESET, FALSE);
  67:HW_Lib/AT32F435/drivers/src/at32f435_437_gpio.c ****   }
  68:HW_Lib/AT32F435/drivers/src/at32f435_437_gpio.c ****   else if(gpio_x == GPIOD)
  55              		.loc 1 68 8 is_stmt 1 view .LVU8
  56              		.loc 1 68 10 is_stmt 0 view .LVU9
  57 0014 334B     		ldr	r3, .L19+12
  58 0016 9842     		cmp	r0, r3
  59 0018 2BD0     		beq	.L14
  69:HW_Lib/AT32F435/drivers/src/at32f435_437_gpio.c ****   {
  70:HW_Lib/AT32F435/drivers/src/at32f435_437_gpio.c ****     crm_periph_reset(CRM_GPIOD_PERIPH_RESET, TRUE);
  71:HW_Lib/AT32F435/drivers/src/at32f435_437_gpio.c ****     crm_periph_reset(CRM_GPIOD_PERIPH_RESET, FALSE);
  72:HW_Lib/AT32F435/drivers/src/at32f435_437_gpio.c ****   }
  73:HW_Lib/AT32F435/drivers/src/at32f435_437_gpio.c ****   else if(gpio_x == GPIOE)
  60              		.loc 1 73 8 is_stmt 1 view .LVU10
  61              		.loc 1 73 10 is_stmt 0 view .LVU11
  62 001a 334B     		ldr	r3, .L19+16
  63 001c 9842     		cmp	r0, r3
  64 001e 32D0     		beq	.L15
  74:HW_Lib/AT32F435/drivers/src/at32f435_437_gpio.c ****   {
  75:HW_Lib/AT32F435/drivers/src/at32f435_437_gpio.c ****     crm_periph_reset(CRM_GPIOE_PERIPH_RESET, TRUE);
  76:HW_Lib/AT32F435/drivers/src/at32f435_437_gpio.c ****     crm_periph_reset(CRM_GPIOE_PERIPH_RESET, FALSE);
  77:HW_Lib/AT32F435/drivers/src/at32f435_437_gpio.c ****   }
  78:HW_Lib/AT32F435/drivers/src/at32f435_437_gpio.c ****   else if(gpio_x == GPIOF)
  65              		.loc 1 78 8 is_stmt 1 view .LVU12
  66              		.loc 1 78 10 is_stmt 0 view .LVU13
  67 0020 324B     		ldr	r3, .L19+20
  68 0022 9842     		cmp	r0, r3
  69 0024 39D0     		beq	.L16
  79:HW_Lib/AT32F435/drivers/src/at32f435_437_gpio.c ****   {
  80:HW_Lib/AT32F435/drivers/src/at32f435_437_gpio.c ****     crm_periph_reset(CRM_GPIOF_PERIPH_RESET, TRUE);
  81:HW_Lib/AT32F435/drivers/src/at32f435_437_gpio.c ****     crm_periph_reset(CRM_GPIOF_PERIPH_RESET, FALSE);
  82:HW_Lib/AT32F435/drivers/src/at32f435_437_gpio.c ****   }
  83:HW_Lib/AT32F435/drivers/src/at32f435_437_gpio.c ****   else if(gpio_x == GPIOG)
  70              		.loc 1 83 8 is_stmt 1 view .LVU14
  71              		.loc 1 83 10 is_stmt 0 view .LVU15
  72 0026 324B     		ldr	r3, .L19+24
  73 0028 9842     		cmp	r0, r3
  74 002a 40D0     		beq	.L17
  84:HW_Lib/AT32F435/drivers/src/at32f435_437_gpio.c ****   {
  85:HW_Lib/AT32F435/drivers/src/at32f435_437_gpio.c ****     crm_periph_reset(CRM_GPIOG_PERIPH_RESET, TRUE);
  86:HW_Lib/AT32F435/drivers/src/at32f435_437_gpio.c ****     crm_periph_reset(CRM_GPIOG_PERIPH_RESET, FALSE);
  87:HW_Lib/AT32F435/drivers/src/at32f435_437_gpio.c ****   }
  88:HW_Lib/AT32F435/drivers/src/at32f435_437_gpio.c ****   else if(gpio_x == GPIOH)
  75              		.loc 1 88 8 is_stmt 1 view .LVU16
  76              		.loc 1 88 10 is_stmt 0 view .LVU17
  77 002c 314B     		ldr	r3, .L19+28
  78 002e 9842     		cmp	r0, r3
  79 0030 47D0     		beq	.L18
  80              	.LVL1:
  81              	.L1:
  89:HW_Lib/AT32F435/drivers/src/at32f435_437_gpio.c ****   {
  90:HW_Lib/AT32F435/drivers/src/at32f435_437_gpio.c ****     crm_periph_reset(CRM_GPIOH_PERIPH_RESET, TRUE);
  91:HW_Lib/AT32F435/drivers/src/at32f435_437_gpio.c ****     crm_periph_reset(CRM_GPIOH_PERIPH_RESET, FALSE);
ARM GAS  C:\Users\8bit\AppData\Local\Temp\ccxgGzw4.s 			page 4


  92:HW_Lib/AT32F435/drivers/src/at32f435_437_gpio.c ****   }
  93:HW_Lib/AT32F435/drivers/src/at32f435_437_gpio.c **** }
  82              		.loc 1 93 1 view .LVU18
  83 0032 10BD     		pop	{r4, pc}
  84              	.LVL2:
  85              	.L11:
  55:HW_Lib/AT32F435/drivers/src/at32f435_437_gpio.c ****     crm_periph_reset(CRM_GPIOA_PERIPH_RESET, FALSE);
  86              		.loc 1 55 5 is_stmt 1 view .LVU19
  87 0034 0121     		movs	r1, #1
  88 0036 4FF48010 		mov	r0, #1048576
  89              	.LVL3:
  55:HW_Lib/AT32F435/drivers/src/at32f435_437_gpio.c ****     crm_periph_reset(CRM_GPIOA_PERIPH_RESET, FALSE);
  90              		.loc 1 55 5 is_stmt 0 view .LVU20
  91 003a FFF7FEFF 		bl	crm_periph_reset
  92              	.LVL4:
  56:HW_Lib/AT32F435/drivers/src/at32f435_437_gpio.c ****   }
  93              		.loc 1 56 5 is_stmt 1 view .LVU21
  94 003e 0021     		movs	r1, #0
  95 0040 4FF48010 		mov	r0, #1048576
  96 0044 FFF7FEFF 		bl	crm_periph_reset
  97              	.LVL5:
  98 0048 F3E7     		b	.L1
  99              	.LVL6:
 100              	.L12:
  60:HW_Lib/AT32F435/drivers/src/at32f435_437_gpio.c ****     crm_periph_reset(CRM_GPIOB_PERIPH_RESET, FALSE);
 101              		.loc 1 60 5 view .LVU22
 102 004a 2B4C     		ldr	r4, .L19+32
 103 004c 0121     		movs	r1, #1
 104 004e 2046     		mov	r0, r4
 105              	.LVL7:
  60:HW_Lib/AT32F435/drivers/src/at32f435_437_gpio.c ****     crm_periph_reset(CRM_GPIOB_PERIPH_RESET, FALSE);
 106              		.loc 1 60 5 is_stmt 0 view .LVU23
 107 0050 FFF7FEFF 		bl	crm_periph_reset
 108              	.LVL8:
  61:HW_Lib/AT32F435/drivers/src/at32f435_437_gpio.c ****   }
 109              		.loc 1 61 5 is_stmt 1 view .LVU24
 110 0054 0021     		movs	r1, #0
 111 0056 2046     		mov	r0, r4
 112 0058 FFF7FEFF 		bl	crm_periph_reset
 113              	.LVL9:
 114 005c E9E7     		b	.L1
 115              	.LVL10:
 116              	.L13:
  65:HW_Lib/AT32F435/drivers/src/at32f435_437_gpio.c ****     crm_periph_reset(CRM_GPIOC_PERIPH_RESET, FALSE);
 117              		.loc 1 65 5 view .LVU25
 118 005e 274C     		ldr	r4, .L19+36
 119 0060 0121     		movs	r1, #1
 120 0062 2046     		mov	r0, r4
 121              	.LVL11:
  65:HW_Lib/AT32F435/drivers/src/at32f435_437_gpio.c ****     crm_periph_reset(CRM_GPIOC_PERIPH_RESET, FALSE);
 122              		.loc 1 65 5 is_stmt 0 view .LVU26
 123 0064 FFF7FEFF 		bl	crm_periph_reset
 124              	.LVL12:
  66:HW_Lib/AT32F435/drivers/src/at32f435_437_gpio.c ****   }
 125              		.loc 1 66 5 is_stmt 1 view .LVU27
 126 0068 0021     		movs	r1, #0
 127 006a 2046     		mov	r0, r4
ARM GAS  C:\Users\8bit\AppData\Local\Temp\ccxgGzw4.s 			page 5


 128 006c FFF7FEFF 		bl	crm_periph_reset
 129              	.LVL13:
 130 0070 DFE7     		b	.L1
 131              	.LVL14:
 132              	.L14:
  70:HW_Lib/AT32F435/drivers/src/at32f435_437_gpio.c ****     crm_periph_reset(CRM_GPIOD_PERIPH_RESET, FALSE);
 133              		.loc 1 70 5 view .LVU28
 134 0072 234C     		ldr	r4, .L19+40
 135 0074 0121     		movs	r1, #1
 136 0076 2046     		mov	r0, r4
 137              	.LVL15:
  70:HW_Lib/AT32F435/drivers/src/at32f435_437_gpio.c ****     crm_periph_reset(CRM_GPIOD_PERIPH_RESET, FALSE);
 138              		.loc 1 70 5 is_stmt 0 view .LVU29
 139 0078 FFF7FEFF 		bl	crm_periph_reset
 140              	.LVL16:
  71:HW_Lib/AT32F435/drivers/src/at32f435_437_gpio.c ****   }
 141              		.loc 1 71 5 is_stmt 1 view .LVU30
 142 007c 0021     		movs	r1, #0
 143 007e 2046     		mov	r0, r4
 144 0080 FFF7FEFF 		bl	crm_periph_reset
 145              	.LVL17:
 146 0084 D5E7     		b	.L1
 147              	.LVL18:
 148              	.L15:
  75:HW_Lib/AT32F435/drivers/src/at32f435_437_gpio.c ****     crm_periph_reset(CRM_GPIOE_PERIPH_RESET, FALSE);
 149              		.loc 1 75 5 view .LVU31
 150 0086 1F4C     		ldr	r4, .L19+44
 151 0088 0121     		movs	r1, #1
 152 008a 2046     		mov	r0, r4
 153              	.LVL19:
  75:HW_Lib/AT32F435/drivers/src/at32f435_437_gpio.c ****     crm_periph_reset(CRM_GPIOE_PERIPH_RESET, FALSE);
 154              		.loc 1 75 5 is_stmt 0 view .LVU32
 155 008c FFF7FEFF 		bl	crm_periph_reset
 156              	.LVL20:
  76:HW_Lib/AT32F435/drivers/src/at32f435_437_gpio.c ****   }
 157              		.loc 1 76 5 is_stmt 1 view .LVU33
 158 0090 0021     		movs	r1, #0
 159 0092 2046     		mov	r0, r4
 160 0094 FFF7FEFF 		bl	crm_periph_reset
 161              	.LVL21:
 162 0098 CBE7     		b	.L1
 163              	.LVL22:
 164              	.L16:
  80:HW_Lib/AT32F435/drivers/src/at32f435_437_gpio.c ****     crm_periph_reset(CRM_GPIOF_PERIPH_RESET, FALSE);
 165              		.loc 1 80 5 view .LVU34
 166 009a 1B4C     		ldr	r4, .L19+48
 167 009c 0121     		movs	r1, #1
 168 009e 2046     		mov	r0, r4
 169              	.LVL23:
  80:HW_Lib/AT32F435/drivers/src/at32f435_437_gpio.c ****     crm_periph_reset(CRM_GPIOF_PERIPH_RESET, FALSE);
 170              		.loc 1 80 5 is_stmt 0 view .LVU35
 171 00a0 FFF7FEFF 		bl	crm_periph_reset
 172              	.LVL24:
  81:HW_Lib/AT32F435/drivers/src/at32f435_437_gpio.c ****   }
 173              		.loc 1 81 5 is_stmt 1 view .LVU36
 174 00a4 0021     		movs	r1, #0
 175 00a6 2046     		mov	r0, r4
ARM GAS  C:\Users\8bit\AppData\Local\Temp\ccxgGzw4.s 			page 6


 176 00a8 FFF7FEFF 		bl	crm_periph_reset
 177              	.LVL25:
 178 00ac C1E7     		b	.L1
 179              	.LVL26:
 180              	.L17:
  85:HW_Lib/AT32F435/drivers/src/at32f435_437_gpio.c ****     crm_periph_reset(CRM_GPIOG_PERIPH_RESET, FALSE);
 181              		.loc 1 85 5 view .LVU37
 182 00ae 174C     		ldr	r4, .L19+52
 183 00b0 0121     		movs	r1, #1
 184 00b2 2046     		mov	r0, r4
 185              	.LVL27:
  85:HW_Lib/AT32F435/drivers/src/at32f435_437_gpio.c ****     crm_periph_reset(CRM_GPIOG_PERIPH_RESET, FALSE);
 186              		.loc 1 85 5 is_stmt 0 view .LVU38
 187 00b4 FFF7FEFF 		bl	crm_periph_reset
 188              	.LVL28:
  86:HW_Lib/AT32F435/drivers/src/at32f435_437_gpio.c ****   }
 189              		.loc 1 86 5 is_stmt 1 view .LVU39
 190 00b8 0021     		movs	r1, #0
 191 00ba 2046     		mov	r0, r4
 192 00bc FFF7FEFF 		bl	crm_periph_reset
 193              	.LVL29:
 194 00c0 B7E7     		b	.L1
 195              	.LVL30:
 196              	.L18:
  90:HW_Lib/AT32F435/drivers/src/at32f435_437_gpio.c ****     crm_periph_reset(CRM_GPIOH_PERIPH_RESET, FALSE);
 197              		.loc 1 90 5 view .LVU40
 198 00c2 134C     		ldr	r4, .L19+56
 199 00c4 0121     		movs	r1, #1
 200 00c6 2046     		mov	r0, r4
 201              	.LVL31:
  90:HW_Lib/AT32F435/drivers/src/at32f435_437_gpio.c ****     crm_periph_reset(CRM_GPIOH_PERIPH_RESET, FALSE);
 202              		.loc 1 90 5 is_stmt 0 view .LVU41
 203 00c8 FFF7FEFF 		bl	crm_periph_reset
 204              	.LVL32:
  91:HW_Lib/AT32F435/drivers/src/at32f435_437_gpio.c ****   }
 205              		.loc 1 91 5 is_stmt 1 view .LVU42
 206 00cc 0021     		movs	r1, #0
 207 00ce 2046     		mov	r0, r4
 208 00d0 FFF7FEFF 		bl	crm_periph_reset
 209              	.LVL33:
 210              		.loc 1 93 1 is_stmt 0 view .LVU43
 211 00d4 ADE7     		b	.L1
 212              	.L20:
 213 00d6 00BF     		.align	2
 214              	.L19:
 215 00d8 00000240 		.word	1073872896
 216 00dc 00040240 		.word	1073873920
 217 00e0 00080240 		.word	1073874944
 218 00e4 000C0240 		.word	1073875968
 219 00e8 00100240 		.word	1073876992
 220 00ec 00140240 		.word	1073878016
 221 00f0 00180240 		.word	1073879040
 222 00f4 001C0240 		.word	1073880064
 223 00f8 01001000 		.word	1048577
 224 00fc 02001000 		.word	1048578
 225 0100 03001000 		.word	1048579
 226 0104 04001000 		.word	1048580
ARM GAS  C:\Users\8bit\AppData\Local\Temp\ccxgGzw4.s 			page 7


 227 0108 05001000 		.word	1048581
 228 010c 06001000 		.word	1048582
 229 0110 07001000 		.word	1048583
 230              		.cfi_endproc
 231              	.LFE133:
 233              		.section	.text.gpio_init,"ax",%progbits
 234              		.align	1
 235              		.global	gpio_init
 236              		.syntax unified
 237              		.thumb
 238              		.thumb_func
 240              	gpio_init:
 241              	.LVL34:
 242              	.LFB134:
  94:HW_Lib/AT32F435/drivers/src/at32f435_437_gpio.c **** 
  95:HW_Lib/AT32F435/drivers/src/at32f435_437_gpio.c **** /**
  96:HW_Lib/AT32F435/drivers/src/at32f435_437_gpio.c ****   * @brief  initialize the gpio peripheral.
  97:HW_Lib/AT32F435/drivers/src/at32f435_437_gpio.c ****   * @param  gpio_x: to select the gpio peripheral.
  98:HW_Lib/AT32F435/drivers/src/at32f435_437_gpio.c ****   *         this parameter can be one of the following values:
  99:HW_Lib/AT32F435/drivers/src/at32f435_437_gpio.c ****   *         GPIOA, GPIOB, GPIOC, GPIOD, GPIOE, GPIOF, GPIOG, GPIOH.
 100:HW_Lib/AT32F435/drivers/src/at32f435_437_gpio.c ****   * @param  gpio_init_struct: pointer to gpio init structure.
 101:HW_Lib/AT32F435/drivers/src/at32f435_437_gpio.c ****   * @retval none
 102:HW_Lib/AT32F435/drivers/src/at32f435_437_gpio.c ****   */
 103:HW_Lib/AT32F435/drivers/src/at32f435_437_gpio.c **** void gpio_init(gpio_type *gpio_x, gpio_init_type *gpio_init_struct)
 104:HW_Lib/AT32F435/drivers/src/at32f435_437_gpio.c **** {
 243              		.loc 1 104 1 is_stmt 1 view -0
 244              		.cfi_startproc
 245              		@ args = 0, pretend = 0, frame = 0
 246              		@ frame_needed = 0, uses_anonymous_args = 0
 247              		.loc 1 104 1 is_stmt 0 view .LVU45
 248 0000 30B5     		push	{r4, r5, lr}
 249              	.LCFI1:
 250              		.cfi_def_cfa_offset 12
 251              		.cfi_offset 4, -12
 252              		.cfi_offset 5, -8
 253              		.cfi_offset 14, -4
 105:HW_Lib/AT32F435/drivers/src/at32f435_437_gpio.c ****   uint16_t pinx_value, pin_index = 0;
 254              		.loc 1 105 3 is_stmt 1 view .LVU46
 255              	.LVL35:
 106:HW_Lib/AT32F435/drivers/src/at32f435_437_gpio.c **** 
 107:HW_Lib/AT32F435/drivers/src/at32f435_437_gpio.c ****   pinx_value = (uint16_t)gpio_init_struct->gpio_pins;
 256              		.loc 1 107 3 view .LVU47
 257              		.loc 1 107 14 is_stmt 0 view .LVU48
 258 0002 0C88     		ldrh	r4, [r1]
 259              	.LVL36:
 108:HW_Lib/AT32F435/drivers/src/at32f435_437_gpio.c **** 
 109:HW_Lib/AT32F435/drivers/src/at32f435_437_gpio.c ****   while(pinx_value > 0)
 260              		.loc 1 109 3 is_stmt 1 view .LVU49
 105:HW_Lib/AT32F435/drivers/src/at32f435_437_gpio.c **** 
 261              		.loc 1 105 24 is_stmt 0 view .LVU50
 262 0004 0023     		movs	r3, #0
 263              		.loc 1 109 8 view .LVU51
 264 0006 02E0     		b	.L22
 265              	.LVL37:
 266              	.L23:
 110:HW_Lib/AT32F435/drivers/src/at32f435_437_gpio.c ****   {
 111:HW_Lib/AT32F435/drivers/src/at32f435_437_gpio.c ****     if(pinx_value & 0x01)
ARM GAS  C:\Users\8bit\AppData\Local\Temp\ccxgGzw4.s 			page 8


 112:HW_Lib/AT32F435/drivers/src/at32f435_437_gpio.c ****     {
 113:HW_Lib/AT32F435/drivers/src/at32f435_437_gpio.c ****       gpio_x->cfgr  &= (uint32_t)~(0x03 << (pin_index * 2));
 114:HW_Lib/AT32F435/drivers/src/at32f435_437_gpio.c ****       gpio_x->cfgr  |= (uint32_t)(gpio_init_struct->gpio_mode << (pin_index * 2));
 115:HW_Lib/AT32F435/drivers/src/at32f435_437_gpio.c **** 
 116:HW_Lib/AT32F435/drivers/src/at32f435_437_gpio.c ****       gpio_x->omode &= (uint32_t)~(0x01 << (pin_index));
 117:HW_Lib/AT32F435/drivers/src/at32f435_437_gpio.c ****       gpio_x->omode |= (uint32_t)(gpio_init_struct->gpio_out_type << (pin_index));
 118:HW_Lib/AT32F435/drivers/src/at32f435_437_gpio.c **** 
 119:HW_Lib/AT32F435/drivers/src/at32f435_437_gpio.c ****       gpio_x->odrvr &= (uint32_t)~(0x03 << (pin_index * 2));
 120:HW_Lib/AT32F435/drivers/src/at32f435_437_gpio.c ****       gpio_x->odrvr |= (uint32_t)(gpio_init_struct->gpio_drive_strength << (pin_index * 2));
 121:HW_Lib/AT32F435/drivers/src/at32f435_437_gpio.c **** 
 122:HW_Lib/AT32F435/drivers/src/at32f435_437_gpio.c ****       gpio_x->pull  &= (uint32_t)~(0x03 << (pin_index * 2));
 123:HW_Lib/AT32F435/drivers/src/at32f435_437_gpio.c ****       gpio_x->pull  |= (uint32_t)(gpio_init_struct->gpio_pull << (pin_index * 2));
 124:HW_Lib/AT32F435/drivers/src/at32f435_437_gpio.c ****     }
 125:HW_Lib/AT32F435/drivers/src/at32f435_437_gpio.c ****     pinx_value >>= 1;
 267              		.loc 1 125 5 is_stmt 1 view .LVU52
 268              		.loc 1 125 16 is_stmt 0 view .LVU53
 269 0008 6408     		lsrs	r4, r4, #1
 270              	.LVL38:
 126:HW_Lib/AT32F435/drivers/src/at32f435_437_gpio.c ****     pin_index++;
 271              		.loc 1 126 5 is_stmt 1 view .LVU54
 272              		.loc 1 126 14 is_stmt 0 view .LVU55
 273 000a 0133     		adds	r3, r3, #1
 274              	.LVL39:
 275              		.loc 1 126 14 view .LVU56
 276 000c 9BB2     		uxth	r3, r3
 277              	.LVL40:
 278              	.L22:
 109:HW_Lib/AT32F435/drivers/src/at32f435_437_gpio.c ****   {
 279              		.loc 1 109 8 is_stmt 1 view .LVU57
 280 000e 002C     		cmp	r4, #0
 281 0010 3CD0     		beq	.L26
 111:HW_Lib/AT32F435/drivers/src/at32f435_437_gpio.c ****     {
 282              		.loc 1 111 5 view .LVU58
 111:HW_Lib/AT32F435/drivers/src/at32f435_437_gpio.c ****     {
 283              		.loc 1 111 7 is_stmt 0 view .LVU59
 284 0012 14F0010F 		tst	r4, #1
 285 0016 F7D0     		beq	.L23
 113:HW_Lib/AT32F435/drivers/src/at32f435_437_gpio.c ****       gpio_x->cfgr  |= (uint32_t)(gpio_init_struct->gpio_mode << (pin_index * 2));
 286              		.loc 1 113 7 is_stmt 1 view .LVU60
 113:HW_Lib/AT32F435/drivers/src/at32f435_437_gpio.c ****       gpio_x->cfgr  |= (uint32_t)(gpio_init_struct->gpio_mode << (pin_index * 2));
 287              		.loc 1 113 21 is_stmt 0 view .LVU61
 288 0018 0568     		ldr	r5, [r0]
 113:HW_Lib/AT32F435/drivers/src/at32f435_437_gpio.c ****       gpio_x->cfgr  |= (uint32_t)(gpio_init_struct->gpio_mode << (pin_index * 2));
 289              		.loc 1 113 55 view .LVU62
 290 001a 4FEA430C 		lsl	ip, r3, #1
 113:HW_Lib/AT32F435/drivers/src/at32f435_437_gpio.c ****       gpio_x->cfgr  |= (uint32_t)(gpio_init_struct->gpio_mode << (pin_index * 2));
 291              		.loc 1 113 41 view .LVU63
 292 001e 0322     		movs	r2, #3
 293 0020 02FA0CF2 		lsl	r2, r2, ip
 113:HW_Lib/AT32F435/drivers/src/at32f435_437_gpio.c ****       gpio_x->cfgr  |= (uint32_t)(gpio_init_struct->gpio_mode << (pin_index * 2));
 294              		.loc 1 113 21 view .LVU64
 295 0024 25EA0205 		bic	r5, r5, r2
 296 0028 0560     		str	r5, [r0]
 114:HW_Lib/AT32F435/drivers/src/at32f435_437_gpio.c **** 
 297              		.loc 1 114 7 is_stmt 1 view .LVU65
 114:HW_Lib/AT32F435/drivers/src/at32f435_437_gpio.c **** 
 298              		.loc 1 114 21 is_stmt 0 view .LVU66
ARM GAS  C:\Users\8bit\AppData\Local\Temp\ccxgGzw4.s 			page 9


 299 002a 0568     		ldr	r5, [r0]
 114:HW_Lib/AT32F435/drivers/src/at32f435_437_gpio.c **** 
 300              		.loc 1 114 51 view .LVU67
 301 002c 91F806E0 		ldrb	lr, [r1, #6]	@ zero_extendqisi2
 114:HW_Lib/AT32F435/drivers/src/at32f435_437_gpio.c **** 
 302              		.loc 1 114 63 view .LVU68
 303 0030 0EFA0CFE 		lsl	lr, lr, ip
 114:HW_Lib/AT32F435/drivers/src/at32f435_437_gpio.c **** 
 304              		.loc 1 114 21 view .LVU69
 305 0034 45EA0E05 		orr	r5, r5, lr
 306 0038 0560     		str	r5, [r0]
 116:HW_Lib/AT32F435/drivers/src/at32f435_437_gpio.c ****       gpio_x->omode |= (uint32_t)(gpio_init_struct->gpio_out_type << (pin_index));
 307              		.loc 1 116 7 is_stmt 1 view .LVU70
 116:HW_Lib/AT32F435/drivers/src/at32f435_437_gpio.c ****       gpio_x->omode |= (uint32_t)(gpio_init_struct->gpio_out_type << (pin_index));
 308              		.loc 1 116 21 is_stmt 0 view .LVU71
 309 003a 4568     		ldr	r5, [r0, #4]
 116:HW_Lib/AT32F435/drivers/src/at32f435_437_gpio.c ****       gpio_x->omode |= (uint32_t)(gpio_init_struct->gpio_out_type << (pin_index));
 310              		.loc 1 116 41 view .LVU72
 311 003c 4FF0010E 		mov	lr, #1
 312 0040 0EFA03FE 		lsl	lr, lr, r3
 116:HW_Lib/AT32F435/drivers/src/at32f435_437_gpio.c ****       gpio_x->omode |= (uint32_t)(gpio_init_struct->gpio_out_type << (pin_index));
 313              		.loc 1 116 21 view .LVU73
 314 0044 25EA0E05 		bic	r5, r5, lr
 315 0048 4560     		str	r5, [r0, #4]
 117:HW_Lib/AT32F435/drivers/src/at32f435_437_gpio.c **** 
 316              		.loc 1 117 7 is_stmt 1 view .LVU74
 117:HW_Lib/AT32F435/drivers/src/at32f435_437_gpio.c **** 
 317              		.loc 1 117 21 is_stmt 0 view .LVU75
 318 004a 4568     		ldr	r5, [r0, #4]
 117:HW_Lib/AT32F435/drivers/src/at32f435_437_gpio.c **** 
 319              		.loc 1 117 51 view .LVU76
 320 004c 91F804E0 		ldrb	lr, [r1, #4]	@ zero_extendqisi2
 117:HW_Lib/AT32F435/drivers/src/at32f435_437_gpio.c **** 
 321              		.loc 1 117 67 view .LVU77
 322 0050 0EFA03FE 		lsl	lr, lr, r3
 117:HW_Lib/AT32F435/drivers/src/at32f435_437_gpio.c **** 
 323              		.loc 1 117 21 view .LVU78
 324 0054 45EA0E05 		orr	r5, r5, lr
 325 0058 4560     		str	r5, [r0, #4]
 119:HW_Lib/AT32F435/drivers/src/at32f435_437_gpio.c ****       gpio_x->odrvr |= (uint32_t)(gpio_init_struct->gpio_drive_strength << (pin_index * 2));
 326              		.loc 1 119 7 is_stmt 1 view .LVU79
 119:HW_Lib/AT32F435/drivers/src/at32f435_437_gpio.c ****       gpio_x->odrvr |= (uint32_t)(gpio_init_struct->gpio_drive_strength << (pin_index * 2));
 327              		.loc 1 119 21 is_stmt 0 view .LVU80
 328 005a 8568     		ldr	r5, [r0, #8]
 329 005c 25EA0205 		bic	r5, r5, r2
 330 0060 8560     		str	r5, [r0, #8]
 120:HW_Lib/AT32F435/drivers/src/at32f435_437_gpio.c **** 
 331              		.loc 1 120 7 is_stmt 1 view .LVU81
 120:HW_Lib/AT32F435/drivers/src/at32f435_437_gpio.c **** 
 332              		.loc 1 120 21 is_stmt 0 view .LVU82
 333 0062 8568     		ldr	r5, [r0, #8]
 120:HW_Lib/AT32F435/drivers/src/at32f435_437_gpio.c **** 
 334              		.loc 1 120 51 view .LVU83
 335 0064 91F807E0 		ldrb	lr, [r1, #7]	@ zero_extendqisi2
 120:HW_Lib/AT32F435/drivers/src/at32f435_437_gpio.c **** 
 336              		.loc 1 120 73 view .LVU84
 337 0068 0EFA0CFE 		lsl	lr, lr, ip
ARM GAS  C:\Users\8bit\AppData\Local\Temp\ccxgGzw4.s 			page 10


 120:HW_Lib/AT32F435/drivers/src/at32f435_437_gpio.c **** 
 338              		.loc 1 120 21 view .LVU85
 339 006c 45EA0E05 		orr	r5, r5, lr
 340 0070 8560     		str	r5, [r0, #8]
 122:HW_Lib/AT32F435/drivers/src/at32f435_437_gpio.c ****       gpio_x->pull  |= (uint32_t)(gpio_init_struct->gpio_pull << (pin_index * 2));
 341              		.loc 1 122 7 is_stmt 1 view .LVU86
 122:HW_Lib/AT32F435/drivers/src/at32f435_437_gpio.c ****       gpio_x->pull  |= (uint32_t)(gpio_init_struct->gpio_pull << (pin_index * 2));
 342              		.loc 1 122 21 is_stmt 0 view .LVU87
 343 0072 C568     		ldr	r5, [r0, #12]
 344 0074 25EA0202 		bic	r2, r5, r2
 345 0078 C260     		str	r2, [r0, #12]
 123:HW_Lib/AT32F435/drivers/src/at32f435_437_gpio.c ****     }
 346              		.loc 1 123 7 is_stmt 1 view .LVU88
 123:HW_Lib/AT32F435/drivers/src/at32f435_437_gpio.c ****     }
 347              		.loc 1 123 21 is_stmt 0 view .LVU89
 348 007a C268     		ldr	r2, [r0, #12]
 123:HW_Lib/AT32F435/drivers/src/at32f435_437_gpio.c ****     }
 349              		.loc 1 123 51 view .LVU90
 350 007c 91F805E0 		ldrb	lr, [r1, #5]	@ zero_extendqisi2
 123:HW_Lib/AT32F435/drivers/src/at32f435_437_gpio.c ****     }
 351              		.loc 1 123 63 view .LVU91
 352 0080 0EFA0CFC 		lsl	ip, lr, ip
 123:HW_Lib/AT32F435/drivers/src/at32f435_437_gpio.c ****     }
 353              		.loc 1 123 21 view .LVU92
 354 0084 42EA0C02 		orr	r2, r2, ip
 355 0088 C260     		str	r2, [r0, #12]
 356 008a BDE7     		b	.L23
 357              	.L26:
 127:HW_Lib/AT32F435/drivers/src/at32f435_437_gpio.c ****   }
 128:HW_Lib/AT32F435/drivers/src/at32f435_437_gpio.c **** }
 358              		.loc 1 128 1 view .LVU93
 359 008c 30BD     		pop	{r4, r5, pc}
 360              		.loc 1 128 1 view .LVU94
 361              		.cfi_endproc
 362              	.LFE134:
 364              		.section	.text.gpio_default_para_init,"ax",%progbits
 365              		.align	1
 366              		.global	gpio_default_para_init
 367              		.syntax unified
 368              		.thumb
 369              		.thumb_func
 371              	gpio_default_para_init:
 372              	.LVL41:
 373              	.LFB135:
 129:HW_Lib/AT32F435/drivers/src/at32f435_437_gpio.c **** 
 130:HW_Lib/AT32F435/drivers/src/at32f435_437_gpio.c **** /**
 131:HW_Lib/AT32F435/drivers/src/at32f435_437_gpio.c ****   * @brief  fill each gpio_init_type member with its default value.
 132:HW_Lib/AT32F435/drivers/src/at32f435_437_gpio.c ****   * @param  gpio_init_struct : pointer to a gpio_init_type structure which will be initialized.
 133:HW_Lib/AT32F435/drivers/src/at32f435_437_gpio.c ****   * @retval none
 134:HW_Lib/AT32F435/drivers/src/at32f435_437_gpio.c ****   */
 135:HW_Lib/AT32F435/drivers/src/at32f435_437_gpio.c **** void gpio_default_para_init(gpio_init_type *gpio_init_struct)
 136:HW_Lib/AT32F435/drivers/src/at32f435_437_gpio.c **** {
 374              		.loc 1 136 1 is_stmt 1 view -0
 375              		.cfi_startproc
 376              		@ args = 0, pretend = 0, frame = 0
 377              		@ frame_needed = 0, uses_anonymous_args = 0
 378              		@ link register save eliminated.
ARM GAS  C:\Users\8bit\AppData\Local\Temp\ccxgGzw4.s 			page 11


 137:HW_Lib/AT32F435/drivers/src/at32f435_437_gpio.c ****   /* reset gpio init structure parameters values */
 138:HW_Lib/AT32F435/drivers/src/at32f435_437_gpio.c ****   gpio_init_struct->gpio_pins  = GPIO_PINS_ALL;
 379              		.loc 1 138 3 view .LVU96
 380              		.loc 1 138 32 is_stmt 0 view .LVU97
 381 0000 4FF6FF73 		movw	r3, #65535
 382 0004 0360     		str	r3, [r0]
 139:HW_Lib/AT32F435/drivers/src/at32f435_437_gpio.c ****   gpio_init_struct->gpio_mode = GPIO_MODE_INPUT;
 383              		.loc 1 139 3 is_stmt 1 view .LVU98
 384              		.loc 1 139 31 is_stmt 0 view .LVU99
 385 0006 0023     		movs	r3, #0
 386 0008 8371     		strb	r3, [r0, #6]
 140:HW_Lib/AT32F435/drivers/src/at32f435_437_gpio.c ****   gpio_init_struct->gpio_out_type = GPIO_OUTPUT_PUSH_PULL;
 387              		.loc 1 140 3 is_stmt 1 view .LVU100
 388              		.loc 1 140 35 is_stmt 0 view .LVU101
 389 000a 0371     		strb	r3, [r0, #4]
 141:HW_Lib/AT32F435/drivers/src/at32f435_437_gpio.c ****   gpio_init_struct->gpio_pull = GPIO_PULL_NONE;
 390              		.loc 1 141 3 is_stmt 1 view .LVU102
 391              		.loc 1 141 31 is_stmt 0 view .LVU103
 392 000c 4371     		strb	r3, [r0, #5]
 142:HW_Lib/AT32F435/drivers/src/at32f435_437_gpio.c ****   gpio_init_struct->gpio_drive_strength = GPIO_DRIVE_STRENGTH_STRONGER;
 393              		.loc 1 142 3 is_stmt 1 view .LVU104
 394              		.loc 1 142 41 is_stmt 0 view .LVU105
 395 000e 0123     		movs	r3, #1
 396 0010 C371     		strb	r3, [r0, #7]
 143:HW_Lib/AT32F435/drivers/src/at32f435_437_gpio.c **** }
 397              		.loc 1 143 1 view .LVU106
 398 0012 7047     		bx	lr
 399              		.cfi_endproc
 400              	.LFE135:
 402              		.section	.text.gpio_input_data_bit_read,"ax",%progbits
 403              		.align	1
 404              		.global	gpio_input_data_bit_read
 405              		.syntax unified
 406              		.thumb
 407              		.thumb_func
 409              	gpio_input_data_bit_read:
 410              	.LVL42:
 411              	.LFB136:
 144:HW_Lib/AT32F435/drivers/src/at32f435_437_gpio.c **** 
 145:HW_Lib/AT32F435/drivers/src/at32f435_437_gpio.c **** /**
 146:HW_Lib/AT32F435/drivers/src/at32f435_437_gpio.c ****   * @brief  read the specified input port pin.
 147:HW_Lib/AT32F435/drivers/src/at32f435_437_gpio.c ****   * @param  gpio_x: to select the gpio peripheral.
 148:HW_Lib/AT32F435/drivers/src/at32f435_437_gpio.c ****   *         this parameter can be one of the following values:
 149:HW_Lib/AT32F435/drivers/src/at32f435_437_gpio.c ****   *         GPIOA, GPIOB, GPIOC, GPIOD, GPIOE, GPIOF, GPIOG, GPIOH.
 150:HW_Lib/AT32F435/drivers/src/at32f435_437_gpio.c ****   * @param  pins: gpio pin number
 151:HW_Lib/AT32F435/drivers/src/at32f435_437_gpio.c ****   *         this parameter can be one of the following values:
 152:HW_Lib/AT32F435/drivers/src/at32f435_437_gpio.c ****   *         - GPIO_PINS_0
 153:HW_Lib/AT32F435/drivers/src/at32f435_437_gpio.c ****   *         - GPIO_PINS_1
 154:HW_Lib/AT32F435/drivers/src/at32f435_437_gpio.c ****   *         - GPIO_PINS_2
 155:HW_Lib/AT32F435/drivers/src/at32f435_437_gpio.c ****   *         - GPIO_PINS_3
 156:HW_Lib/AT32F435/drivers/src/at32f435_437_gpio.c ****   *         - GPIO_PINS_4
 157:HW_Lib/AT32F435/drivers/src/at32f435_437_gpio.c ****   *         - GPIO_PINS_5
 158:HW_Lib/AT32F435/drivers/src/at32f435_437_gpio.c ****   *         - GPIO_PINS_6
 159:HW_Lib/AT32F435/drivers/src/at32f435_437_gpio.c ****   *         - GPIO_PINS_7
 160:HW_Lib/AT32F435/drivers/src/at32f435_437_gpio.c ****   *         - GPIO_PINS_8
 161:HW_Lib/AT32F435/drivers/src/at32f435_437_gpio.c ****   *         - GPIO_PINS_9
 162:HW_Lib/AT32F435/drivers/src/at32f435_437_gpio.c ****   *         - GPIO_PINS_10
ARM GAS  C:\Users\8bit\AppData\Local\Temp\ccxgGzw4.s 			page 12


 163:HW_Lib/AT32F435/drivers/src/at32f435_437_gpio.c ****   *         - GPIO_PINS_11
 164:HW_Lib/AT32F435/drivers/src/at32f435_437_gpio.c ****   *         - GPIO_PINS_12
 165:HW_Lib/AT32F435/drivers/src/at32f435_437_gpio.c ****   *         - GPIO_PINS_13
 166:HW_Lib/AT32F435/drivers/src/at32f435_437_gpio.c ****   *         - GPIO_PINS_14
 167:HW_Lib/AT32F435/drivers/src/at32f435_437_gpio.c ****   *         - GPIO_PINS_15
 168:HW_Lib/AT32F435/drivers/src/at32f435_437_gpio.c ****   * @retval flag_status (SET or RESET)
 169:HW_Lib/AT32F435/drivers/src/at32f435_437_gpio.c ****   */
 170:HW_Lib/AT32F435/drivers/src/at32f435_437_gpio.c **** flag_status gpio_input_data_bit_read(gpio_type *gpio_x, uint16_t pins)
 171:HW_Lib/AT32F435/drivers/src/at32f435_437_gpio.c **** {
 412              		.loc 1 171 1 is_stmt 1 view -0
 413              		.cfi_startproc
 414              		@ args = 0, pretend = 0, frame = 0
 415              		@ frame_needed = 0, uses_anonymous_args = 0
 416              		@ link register save eliminated.
 172:HW_Lib/AT32F435/drivers/src/at32f435_437_gpio.c ****   flag_status status = RESET;
 417              		.loc 1 172 3 view .LVU108
 173:HW_Lib/AT32F435/drivers/src/at32f435_437_gpio.c **** 
 174:HW_Lib/AT32F435/drivers/src/at32f435_437_gpio.c ****   if(pins != (pins & gpio_x->idt))
 418              		.loc 1 174 3 view .LVU109
 419              		.loc 1 174 28 is_stmt 0 view .LVU110
 420 0000 0369     		ldr	r3, [r0, #16]
 421              		.loc 1 174 5 view .LVU111
 422 0002 31EA0303 		bics	r3, r1, r3
 423 0006 01D0     		beq	.L30
 175:HW_Lib/AT32F435/drivers/src/at32f435_437_gpio.c ****   {
 176:HW_Lib/AT32F435/drivers/src/at32f435_437_gpio.c ****     status = RESET;
 424              		.loc 1 176 12 view .LVU112
 425 0008 0020     		movs	r0, #0
 426              	.LVL43:
 427              		.loc 1 176 12 view .LVU113
 428 000a 7047     		bx	lr
 429              	.LVL44:
 430              	.L30:
 177:HW_Lib/AT32F435/drivers/src/at32f435_437_gpio.c ****   }
 178:HW_Lib/AT32F435/drivers/src/at32f435_437_gpio.c ****   else
 179:HW_Lib/AT32F435/drivers/src/at32f435_437_gpio.c ****   {
 180:HW_Lib/AT32F435/drivers/src/at32f435_437_gpio.c ****     status = SET;
 431              		.loc 1 180 12 view .LVU114
 432 000c 0120     		movs	r0, #1
 433              	.LVL45:
 181:HW_Lib/AT32F435/drivers/src/at32f435_437_gpio.c ****   }
 182:HW_Lib/AT32F435/drivers/src/at32f435_437_gpio.c **** 
 183:HW_Lib/AT32F435/drivers/src/at32f435_437_gpio.c ****   return status;
 434              		.loc 1 183 3 is_stmt 1 view .LVU115
 184:HW_Lib/AT32F435/drivers/src/at32f435_437_gpio.c **** }
 435              		.loc 1 184 1 is_stmt 0 view .LVU116
 436 000e 7047     		bx	lr
 437              		.cfi_endproc
 438              	.LFE136:
 440              		.section	.text.gpio_input_data_read,"ax",%progbits
 441              		.align	1
 442              		.global	gpio_input_data_read
 443              		.syntax unified
 444              		.thumb
 445              		.thumb_func
 447              	gpio_input_data_read:
 448              	.LVL46:
ARM GAS  C:\Users\8bit\AppData\Local\Temp\ccxgGzw4.s 			page 13


 449              	.LFB137:
 185:HW_Lib/AT32F435/drivers/src/at32f435_437_gpio.c **** 
 186:HW_Lib/AT32F435/drivers/src/at32f435_437_gpio.c **** /**
 187:HW_Lib/AT32F435/drivers/src/at32f435_437_gpio.c ****   * @brief  read the specified gpio input data port.
 188:HW_Lib/AT32F435/drivers/src/at32f435_437_gpio.c ****   * @param  gpio_x: to select the gpio peripheral.
 189:HW_Lib/AT32F435/drivers/src/at32f435_437_gpio.c ****   *         this parameter can be one of the following values:
 190:HW_Lib/AT32F435/drivers/src/at32f435_437_gpio.c ****   *         GPIOA, GPIOB, GPIOC, GPIOD, GPIOE, GPIOF, GPIOG, GPIOH.
 191:HW_Lib/AT32F435/drivers/src/at32f435_437_gpio.c ****   * @retval gpio input data port value.
 192:HW_Lib/AT32F435/drivers/src/at32f435_437_gpio.c ****   */
 193:HW_Lib/AT32F435/drivers/src/at32f435_437_gpio.c **** uint16_t gpio_input_data_read(gpio_type *gpio_x)
 194:HW_Lib/AT32F435/drivers/src/at32f435_437_gpio.c **** {
 450              		.loc 1 194 1 is_stmt 1 view -0
 451              		.cfi_startproc
 452              		@ args = 0, pretend = 0, frame = 0
 453              		@ frame_needed = 0, uses_anonymous_args = 0
 454              		@ link register save eliminated.
 195:HW_Lib/AT32F435/drivers/src/at32f435_437_gpio.c ****   return ((uint16_t)(gpio_x->idt));
 455              		.loc 1 195 3 view .LVU118
 456              		.loc 1 195 28 is_stmt 0 view .LVU119
 457 0000 0069     		ldr	r0, [r0, #16]
 458              	.LVL47:
 196:HW_Lib/AT32F435/drivers/src/at32f435_437_gpio.c **** }
 459              		.loc 1 196 1 view .LVU120
 460 0002 80B2     		uxth	r0, r0
 461 0004 7047     		bx	lr
 462              		.cfi_endproc
 463              	.LFE137:
 465              		.section	.text.gpio_output_data_bit_read,"ax",%progbits
 466              		.align	1
 467              		.global	gpio_output_data_bit_read
 468              		.syntax unified
 469              		.thumb
 470              		.thumb_func
 472              	gpio_output_data_bit_read:
 473              	.LVL48:
 474              	.LFB138:
 197:HW_Lib/AT32F435/drivers/src/at32f435_437_gpio.c **** 
 198:HW_Lib/AT32F435/drivers/src/at32f435_437_gpio.c **** /**
 199:HW_Lib/AT32F435/drivers/src/at32f435_437_gpio.c ****   * @brief  read the specified output port pin.
 200:HW_Lib/AT32F435/drivers/src/at32f435_437_gpio.c ****   * @param  gpio_x: to select the gpio peripheral.
 201:HW_Lib/AT32F435/drivers/src/at32f435_437_gpio.c ****   *         this parameter can be one of the following values:
 202:HW_Lib/AT32F435/drivers/src/at32f435_437_gpio.c ****   *         GPIOA, GPIOB, GPIOC, GPIOD, GPIOE, GPIOF, GPIOG, GPIOH.
 203:HW_Lib/AT32F435/drivers/src/at32f435_437_gpio.c ****   * @param  pins: gpio pin number
 204:HW_Lib/AT32F435/drivers/src/at32f435_437_gpio.c ****   *         this parameter can be one of the following values:
 205:HW_Lib/AT32F435/drivers/src/at32f435_437_gpio.c ****   *         - GPIO_PINS_0
 206:HW_Lib/AT32F435/drivers/src/at32f435_437_gpio.c ****   *         - GPIO_PINS_1
 207:HW_Lib/AT32F435/drivers/src/at32f435_437_gpio.c ****   *         - GPIO_PINS_2
 208:HW_Lib/AT32F435/drivers/src/at32f435_437_gpio.c ****   *         - GPIO_PINS_3
 209:HW_Lib/AT32F435/drivers/src/at32f435_437_gpio.c ****   *         - GPIO_PINS_4
 210:HW_Lib/AT32F435/drivers/src/at32f435_437_gpio.c ****   *         - GPIO_PINS_5
 211:HW_Lib/AT32F435/drivers/src/at32f435_437_gpio.c ****   *         - GPIO_PINS_6
 212:HW_Lib/AT32F435/drivers/src/at32f435_437_gpio.c ****   *         - GPIO_PINS_7
 213:HW_Lib/AT32F435/drivers/src/at32f435_437_gpio.c ****   *         - GPIO_PINS_8
 214:HW_Lib/AT32F435/drivers/src/at32f435_437_gpio.c ****   *         - GPIO_PINS_9
 215:HW_Lib/AT32F435/drivers/src/at32f435_437_gpio.c ****   *         - GPIO_PINS_10
 216:HW_Lib/AT32F435/drivers/src/at32f435_437_gpio.c ****   *         - GPIO_PINS_11
 217:HW_Lib/AT32F435/drivers/src/at32f435_437_gpio.c ****   *         - GPIO_PINS_12
ARM GAS  C:\Users\8bit\AppData\Local\Temp\ccxgGzw4.s 			page 14


 218:HW_Lib/AT32F435/drivers/src/at32f435_437_gpio.c ****   *         - GPIO_PINS_13
 219:HW_Lib/AT32F435/drivers/src/at32f435_437_gpio.c ****   *         - GPIO_PINS_14
 220:HW_Lib/AT32F435/drivers/src/at32f435_437_gpio.c ****   *         - GPIO_PINS_15
 221:HW_Lib/AT32F435/drivers/src/at32f435_437_gpio.c ****   * @retval flag_status (SET or RESET)
 222:HW_Lib/AT32F435/drivers/src/at32f435_437_gpio.c ****   */
 223:HW_Lib/AT32F435/drivers/src/at32f435_437_gpio.c **** flag_status gpio_output_data_bit_read(gpio_type *gpio_x, uint16_t pins)
 224:HW_Lib/AT32F435/drivers/src/at32f435_437_gpio.c **** {
 475              		.loc 1 224 1 is_stmt 1 view -0
 476              		.cfi_startproc
 477              		@ args = 0, pretend = 0, frame = 0
 478              		@ frame_needed = 0, uses_anonymous_args = 0
 479              		@ link register save eliminated.
 225:HW_Lib/AT32F435/drivers/src/at32f435_437_gpio.c ****   flag_status status = RESET;
 480              		.loc 1 225 3 view .LVU122
 226:HW_Lib/AT32F435/drivers/src/at32f435_437_gpio.c **** 
 227:HW_Lib/AT32F435/drivers/src/at32f435_437_gpio.c ****   if((gpio_x->odt & pins) != RESET)
 481              		.loc 1 227 3 view .LVU123
 482              		.loc 1 227 13 is_stmt 0 view .LVU124
 483 0000 4369     		ldr	r3, [r0, #20]
 484              		.loc 1 227 5 view .LVU125
 485 0002 1942     		tst	r1, r3
 486 0004 01D0     		beq	.L34
 228:HW_Lib/AT32F435/drivers/src/at32f435_437_gpio.c ****   {
 229:HW_Lib/AT32F435/drivers/src/at32f435_437_gpio.c ****     status = SET;
 487              		.loc 1 229 12 view .LVU126
 488 0006 0120     		movs	r0, #1
 489              	.LVL49:
 490              		.loc 1 229 12 view .LVU127
 491 0008 7047     		bx	lr
 492              	.LVL50:
 493              	.L34:
 230:HW_Lib/AT32F435/drivers/src/at32f435_437_gpio.c ****   }
 231:HW_Lib/AT32F435/drivers/src/at32f435_437_gpio.c ****   else
 232:HW_Lib/AT32F435/drivers/src/at32f435_437_gpio.c ****   {
 233:HW_Lib/AT32F435/drivers/src/at32f435_437_gpio.c ****     status = RESET;
 494              		.loc 1 233 12 view .LVU128
 495 000a 0020     		movs	r0, #0
 496              	.LVL51:
 234:HW_Lib/AT32F435/drivers/src/at32f435_437_gpio.c ****   }
 235:HW_Lib/AT32F435/drivers/src/at32f435_437_gpio.c **** 
 236:HW_Lib/AT32F435/drivers/src/at32f435_437_gpio.c ****   return status;
 497              		.loc 1 236 3 is_stmt 1 view .LVU129
 237:HW_Lib/AT32F435/drivers/src/at32f435_437_gpio.c **** }
 498              		.loc 1 237 1 is_stmt 0 view .LVU130
 499 000c 7047     		bx	lr
 500              		.cfi_endproc
 501              	.LFE138:
 503              		.section	.text.gpio_output_data_read,"ax",%progbits
 504              		.align	1
 505              		.global	gpio_output_data_read
 506              		.syntax unified
 507              		.thumb
 508              		.thumb_func
 510              	gpio_output_data_read:
 511              	.LVL52:
 512              	.LFB139:
 238:HW_Lib/AT32F435/drivers/src/at32f435_437_gpio.c **** 
ARM GAS  C:\Users\8bit\AppData\Local\Temp\ccxgGzw4.s 			page 15


 239:HW_Lib/AT32F435/drivers/src/at32f435_437_gpio.c **** /**
 240:HW_Lib/AT32F435/drivers/src/at32f435_437_gpio.c ****   * @brief  read the specified gpio ouput data port.
 241:HW_Lib/AT32F435/drivers/src/at32f435_437_gpio.c ****   * @param  gpio_x: to select the gpio peripheral.
 242:HW_Lib/AT32F435/drivers/src/at32f435_437_gpio.c ****   *         this parameter can be one of the following values:
 243:HW_Lib/AT32F435/drivers/src/at32f435_437_gpio.c ****   *         GPIOA, GPIOB, GPIOC, GPIOD, GPIOE, GPIOF, GPIOG, GPIOH.
 244:HW_Lib/AT32F435/drivers/src/at32f435_437_gpio.c ****   * @retval gpio input data port value.
 245:HW_Lib/AT32F435/drivers/src/at32f435_437_gpio.c ****   */
 246:HW_Lib/AT32F435/drivers/src/at32f435_437_gpio.c **** uint16_t gpio_output_data_read(gpio_type *gpio_x)
 247:HW_Lib/AT32F435/drivers/src/at32f435_437_gpio.c **** {
 513              		.loc 1 247 1 is_stmt 1 view -0
 514              		.cfi_startproc
 515              		@ args = 0, pretend = 0, frame = 0
 516              		@ frame_needed = 0, uses_anonymous_args = 0
 517              		@ link register save eliminated.
 248:HW_Lib/AT32F435/drivers/src/at32f435_437_gpio.c ****   return ((uint16_t)(gpio_x->odt));
 518              		.loc 1 248 3 view .LVU132
 519              		.loc 1 248 28 is_stmt 0 view .LVU133
 520 0000 4069     		ldr	r0, [r0, #20]
 521              	.LVL53:
 249:HW_Lib/AT32F435/drivers/src/at32f435_437_gpio.c **** }
 522              		.loc 1 249 1 view .LVU134
 523 0002 80B2     		uxth	r0, r0
 524 0004 7047     		bx	lr
 525              		.cfi_endproc
 526              	.LFE139:
 528              		.section	.text.gpio_bits_set,"ax",%progbits
 529              		.align	1
 530              		.global	gpio_bits_set
 531              		.syntax unified
 532              		.thumb
 533              		.thumb_func
 535              	gpio_bits_set:
 536              	.LVL54:
 537              	.LFB140:
 250:HW_Lib/AT32F435/drivers/src/at32f435_437_gpio.c **** 
 251:HW_Lib/AT32F435/drivers/src/at32f435_437_gpio.c **** /**
 252:HW_Lib/AT32F435/drivers/src/at32f435_437_gpio.c ****   * @brief  set the selected data port bits.
 253:HW_Lib/AT32F435/drivers/src/at32f435_437_gpio.c ****   * @param  gpio_x: to select the gpio peripheral.
 254:HW_Lib/AT32F435/drivers/src/at32f435_437_gpio.c ****   *         this parameter can be one of the following values:
 255:HW_Lib/AT32F435/drivers/src/at32f435_437_gpio.c ****   *         GPIOA, GPIOB, GPIOC, GPIOD, GPIOE, GPIOF, GPIOG, GPIOH.
 256:HW_Lib/AT32F435/drivers/src/at32f435_437_gpio.c ****   * @param  pins: gpio pin number
 257:HW_Lib/AT32F435/drivers/src/at32f435_437_gpio.c ****   *         parameter can be any combination of gpio_pin_x, gpio_pin_x as following values:
 258:HW_Lib/AT32F435/drivers/src/at32f435_437_gpio.c ****   *         - GPIO_PINS_0
 259:HW_Lib/AT32F435/drivers/src/at32f435_437_gpio.c ****   *         - GPIO_PINS_1
 260:HW_Lib/AT32F435/drivers/src/at32f435_437_gpio.c ****   *         - GPIO_PINS_2
 261:HW_Lib/AT32F435/drivers/src/at32f435_437_gpio.c ****   *         - GPIO_PINS_3
 262:HW_Lib/AT32F435/drivers/src/at32f435_437_gpio.c ****   *         - GPIO_PINS_4
 263:HW_Lib/AT32F435/drivers/src/at32f435_437_gpio.c ****   *         - GPIO_PINS_5
 264:HW_Lib/AT32F435/drivers/src/at32f435_437_gpio.c ****   *         - GPIO_PINS_6
 265:HW_Lib/AT32F435/drivers/src/at32f435_437_gpio.c ****   *         - GPIO_PINS_7
 266:HW_Lib/AT32F435/drivers/src/at32f435_437_gpio.c ****   *         - GPIO_PINS_8
 267:HW_Lib/AT32F435/drivers/src/at32f435_437_gpio.c ****   *         - GPIO_PINS_9
 268:HW_Lib/AT32F435/drivers/src/at32f435_437_gpio.c ****   *         - GPIO_PINS_10
 269:HW_Lib/AT32F435/drivers/src/at32f435_437_gpio.c ****   *         - GPIO_PINS_11
 270:HW_Lib/AT32F435/drivers/src/at32f435_437_gpio.c ****   *         - GPIO_PINS_12
 271:HW_Lib/AT32F435/drivers/src/at32f435_437_gpio.c ****   *         - GPIO_PINS_13
 272:HW_Lib/AT32F435/drivers/src/at32f435_437_gpio.c ****   *         - GPIO_PINS_14
ARM GAS  C:\Users\8bit\AppData\Local\Temp\ccxgGzw4.s 			page 16


 273:HW_Lib/AT32F435/drivers/src/at32f435_437_gpio.c ****   *         - GPIO_PINS_15
 274:HW_Lib/AT32F435/drivers/src/at32f435_437_gpio.c ****   *         - GPIO_PINS_ALL
 275:HW_Lib/AT32F435/drivers/src/at32f435_437_gpio.c ****   * @retval none
 276:HW_Lib/AT32F435/drivers/src/at32f435_437_gpio.c ****   */
 277:HW_Lib/AT32F435/drivers/src/at32f435_437_gpio.c **** void gpio_bits_set(gpio_type *gpio_x, uint16_t pins)
 278:HW_Lib/AT32F435/drivers/src/at32f435_437_gpio.c **** {
 538              		.loc 1 278 1 is_stmt 1 view -0
 539              		.cfi_startproc
 540              		@ args = 0, pretend = 0, frame = 0
 541              		@ frame_needed = 0, uses_anonymous_args = 0
 542              		@ link register save eliminated.
 279:HW_Lib/AT32F435/drivers/src/at32f435_437_gpio.c ****   gpio_x->scr = pins;
 543              		.loc 1 279 3 view .LVU136
 544              		.loc 1 279 15 is_stmt 0 view .LVU137
 545 0000 8161     		str	r1, [r0, #24]
 280:HW_Lib/AT32F435/drivers/src/at32f435_437_gpio.c **** }
 546              		.loc 1 280 1 view .LVU138
 547 0002 7047     		bx	lr
 548              		.cfi_endproc
 549              	.LFE140:
 551              		.section	.text.gpio_bits_reset,"ax",%progbits
 552              		.align	1
 553              		.global	gpio_bits_reset
 554              		.syntax unified
 555              		.thumb
 556              		.thumb_func
 558              	gpio_bits_reset:
 559              	.LVL55:
 560              	.LFB141:
 281:HW_Lib/AT32F435/drivers/src/at32f435_437_gpio.c **** 
 282:HW_Lib/AT32F435/drivers/src/at32f435_437_gpio.c **** /**
 283:HW_Lib/AT32F435/drivers/src/at32f435_437_gpio.c ****   * @brief  clear the selected data port bits.
 284:HW_Lib/AT32F435/drivers/src/at32f435_437_gpio.c ****   * @param  gpio_x: to select the gpio peripheral.
 285:HW_Lib/AT32F435/drivers/src/at32f435_437_gpio.c ****   *         this parameter can be one of the following values:
 286:HW_Lib/AT32F435/drivers/src/at32f435_437_gpio.c ****   *         GPIOA, GPIOB, GPIOC, GPIOD, GPIOE, GPIOF, GPIOG, GPIOH.
 287:HW_Lib/AT32F435/drivers/src/at32f435_437_gpio.c ****   * @param  pins: gpio pin number
 288:HW_Lib/AT32F435/drivers/src/at32f435_437_gpio.c ****   *         parameter can be any combination of gpio_pin_x, gpio_pin_x as following values:
 289:HW_Lib/AT32F435/drivers/src/at32f435_437_gpio.c ****   *         - GPIO_PINS_0
 290:HW_Lib/AT32F435/drivers/src/at32f435_437_gpio.c ****   *         - GPIO_PINS_1
 291:HW_Lib/AT32F435/drivers/src/at32f435_437_gpio.c ****   *         - GPIO_PINS_2
 292:HW_Lib/AT32F435/drivers/src/at32f435_437_gpio.c ****   *         - GPIO_PINS_3
 293:HW_Lib/AT32F435/drivers/src/at32f435_437_gpio.c ****   *         - GPIO_PINS_4
 294:HW_Lib/AT32F435/drivers/src/at32f435_437_gpio.c ****   *         - GPIO_PINS_5
 295:HW_Lib/AT32F435/drivers/src/at32f435_437_gpio.c ****   *         - GPIO_PINS_6
 296:HW_Lib/AT32F435/drivers/src/at32f435_437_gpio.c ****   *         - GPIO_PINS_7
 297:HW_Lib/AT32F435/drivers/src/at32f435_437_gpio.c ****   *         - GPIO_PINS_8
 298:HW_Lib/AT32F435/drivers/src/at32f435_437_gpio.c ****   *         - GPIO_PINS_9
 299:HW_Lib/AT32F435/drivers/src/at32f435_437_gpio.c ****   *         - GPIO_PINS_10
 300:HW_Lib/AT32F435/drivers/src/at32f435_437_gpio.c ****   *         - GPIO_PINS_11
 301:HW_Lib/AT32F435/drivers/src/at32f435_437_gpio.c ****   *         - GPIO_PINS_12
 302:HW_Lib/AT32F435/drivers/src/at32f435_437_gpio.c ****   *         - GPIO_PINS_13
 303:HW_Lib/AT32F435/drivers/src/at32f435_437_gpio.c ****   *         - GPIO_PINS_14
 304:HW_Lib/AT32F435/drivers/src/at32f435_437_gpio.c ****   *         - GPIO_PINS_15
 305:HW_Lib/AT32F435/drivers/src/at32f435_437_gpio.c ****   *         - GPIO_PINS_ALL
 306:HW_Lib/AT32F435/drivers/src/at32f435_437_gpio.c ****   * @retval none
 307:HW_Lib/AT32F435/drivers/src/at32f435_437_gpio.c ****   */
 308:HW_Lib/AT32F435/drivers/src/at32f435_437_gpio.c **** void gpio_bits_reset(gpio_type *gpio_x, uint16_t pins)
ARM GAS  C:\Users\8bit\AppData\Local\Temp\ccxgGzw4.s 			page 17


 309:HW_Lib/AT32F435/drivers/src/at32f435_437_gpio.c **** {
 561              		.loc 1 309 1 is_stmt 1 view -0
 562              		.cfi_startproc
 563              		@ args = 0, pretend = 0, frame = 0
 564              		@ frame_needed = 0, uses_anonymous_args = 0
 565              		@ link register save eliminated.
 310:HW_Lib/AT32F435/drivers/src/at32f435_437_gpio.c ****   gpio_x->clr = pins;
 566              		.loc 1 310 3 view .LVU140
 567              		.loc 1 310 15 is_stmt 0 view .LVU141
 568 0000 8162     		str	r1, [r0, #40]
 311:HW_Lib/AT32F435/drivers/src/at32f435_437_gpio.c **** }
 569              		.loc 1 311 1 view .LVU142
 570 0002 7047     		bx	lr
 571              		.cfi_endproc
 572              	.LFE141:
 574              		.section	.text.gpio_bits_write,"ax",%progbits
 575              		.align	1
 576              		.global	gpio_bits_write
 577              		.syntax unified
 578              		.thumb
 579              		.thumb_func
 581              	gpio_bits_write:
 582              	.LVL56:
 583              	.LFB142:
 312:HW_Lib/AT32F435/drivers/src/at32f435_437_gpio.c **** 
 313:HW_Lib/AT32F435/drivers/src/at32f435_437_gpio.c **** /**
 314:HW_Lib/AT32F435/drivers/src/at32f435_437_gpio.c ****   * @brief  set or clear the selected data port bit.
 315:HW_Lib/AT32F435/drivers/src/at32f435_437_gpio.c ****   * @param  gpio_x: to select the gpio peripheral.
 316:HW_Lib/AT32F435/drivers/src/at32f435_437_gpio.c ****   *         this parameter can be one of the following values:
 317:HW_Lib/AT32F435/drivers/src/at32f435_437_gpio.c ****   *         GPIOA, GPIOB, GPIOC, GPIOD, GPIOE, GPIOF, GPIOG, GPIOH.
 318:HW_Lib/AT32F435/drivers/src/at32f435_437_gpio.c ****   * @param  pins: gpio pin number
 319:HW_Lib/AT32F435/drivers/src/at32f435_437_gpio.c ****   *         parameter can be any combination of gpio_pin_x, gpio_pin_x as following values:
 320:HW_Lib/AT32F435/drivers/src/at32f435_437_gpio.c ****   *         - GPIO_PINS_0
 321:HW_Lib/AT32F435/drivers/src/at32f435_437_gpio.c ****   *         - GPIO_PINS_1
 322:HW_Lib/AT32F435/drivers/src/at32f435_437_gpio.c ****   *         - GPIO_PINS_2
 323:HW_Lib/AT32F435/drivers/src/at32f435_437_gpio.c ****   *         - GPIO_PINS_3
 324:HW_Lib/AT32F435/drivers/src/at32f435_437_gpio.c ****   *         - GPIO_PINS_4
 325:HW_Lib/AT32F435/drivers/src/at32f435_437_gpio.c ****   *         - GPIO_PINS_5
 326:HW_Lib/AT32F435/drivers/src/at32f435_437_gpio.c ****   *         - GPIO_PINS_6
 327:HW_Lib/AT32F435/drivers/src/at32f435_437_gpio.c ****   *         - GPIO_PINS_7
 328:HW_Lib/AT32F435/drivers/src/at32f435_437_gpio.c ****   *         - GPIO_PINS_8
 329:HW_Lib/AT32F435/drivers/src/at32f435_437_gpio.c ****   *         - GPIO_PINS_9
 330:HW_Lib/AT32F435/drivers/src/at32f435_437_gpio.c ****   *         - GPIO_PINS_10
 331:HW_Lib/AT32F435/drivers/src/at32f435_437_gpio.c ****   *         - GPIO_PINS_11
 332:HW_Lib/AT32F435/drivers/src/at32f435_437_gpio.c ****   *         - GPIO_PINS_12
 333:HW_Lib/AT32F435/drivers/src/at32f435_437_gpio.c ****   *         - GPIO_PINS_13
 334:HW_Lib/AT32F435/drivers/src/at32f435_437_gpio.c ****   *         - GPIO_PINS_14
 335:HW_Lib/AT32F435/drivers/src/at32f435_437_gpio.c ****   *         - GPIO_PINS_15
 336:HW_Lib/AT32F435/drivers/src/at32f435_437_gpio.c ****   *         - GPIO_PINS_ALL
 337:HW_Lib/AT32F435/drivers/src/at32f435_437_gpio.c ****   * @param  bit_state: specifies the value to be written to the selected bit (TRUE or FALSE).
 338:HW_Lib/AT32F435/drivers/src/at32f435_437_gpio.c ****   * @retval none
 339:HW_Lib/AT32F435/drivers/src/at32f435_437_gpio.c ****   */
 340:HW_Lib/AT32F435/drivers/src/at32f435_437_gpio.c **** void gpio_bits_write(gpio_type *gpio_x, uint16_t pins, confirm_state bit_state)
 341:HW_Lib/AT32F435/drivers/src/at32f435_437_gpio.c **** {
 584              		.loc 1 341 1 is_stmt 1 view -0
 585              		.cfi_startproc
 586              		@ args = 0, pretend = 0, frame = 0
ARM GAS  C:\Users\8bit\AppData\Local\Temp\ccxgGzw4.s 			page 18


 587              		@ frame_needed = 0, uses_anonymous_args = 0
 588              		@ link register save eliminated.
 342:HW_Lib/AT32F435/drivers/src/at32f435_437_gpio.c ****   if(bit_state != FALSE)
 589              		.loc 1 342 3 view .LVU144
 590              		.loc 1 342 5 is_stmt 0 view .LVU145
 591 0000 0AB1     		cbz	r2, .L39
 343:HW_Lib/AT32F435/drivers/src/at32f435_437_gpio.c ****   {
 344:HW_Lib/AT32F435/drivers/src/at32f435_437_gpio.c ****     gpio_x->scr = pins;
 592              		.loc 1 344 5 is_stmt 1 view .LVU146
 593              		.loc 1 344 17 is_stmt 0 view .LVU147
 594 0002 8161     		str	r1, [r0, #24]
 595 0004 7047     		bx	lr
 596              	.L39:
 345:HW_Lib/AT32F435/drivers/src/at32f435_437_gpio.c ****   }
 346:HW_Lib/AT32F435/drivers/src/at32f435_437_gpio.c ****   else
 347:HW_Lib/AT32F435/drivers/src/at32f435_437_gpio.c ****   {
 348:HW_Lib/AT32F435/drivers/src/at32f435_437_gpio.c ****     gpio_x->clr = pins;
 597              		.loc 1 348 5 is_stmt 1 view .LVU148
 598              		.loc 1 348 17 is_stmt 0 view .LVU149
 599 0006 8162     		str	r1, [r0, #40]
 349:HW_Lib/AT32F435/drivers/src/at32f435_437_gpio.c ****   }
 350:HW_Lib/AT32F435/drivers/src/at32f435_437_gpio.c **** }
 600              		.loc 1 350 1 view .LVU150
 601 0008 7047     		bx	lr
 602              		.cfi_endproc
 603              	.LFE142:
 605              		.section	.text.gpio_port_write,"ax",%progbits
 606              		.align	1
 607              		.global	gpio_port_write
 608              		.syntax unified
 609              		.thumb
 610              		.thumb_func
 612              	gpio_port_write:
 613              	.LVL57:
 614              	.LFB143:
 351:HW_Lib/AT32F435/drivers/src/at32f435_437_gpio.c **** 
 352:HW_Lib/AT32F435/drivers/src/at32f435_437_gpio.c **** /**
 353:HW_Lib/AT32F435/drivers/src/at32f435_437_gpio.c ****   * @brief  write data to the specified gpio data port.
 354:HW_Lib/AT32F435/drivers/src/at32f435_437_gpio.c ****   * @param  gpio_x: to select the gpio peripheral.
 355:HW_Lib/AT32F435/drivers/src/at32f435_437_gpio.c ****   *         this parameter can be one of the following values:
 356:HW_Lib/AT32F435/drivers/src/at32f435_437_gpio.c ****   *         GPIOA, GPIOB, GPIOC, GPIOD, GPIOE, GPIOF, GPIOG, GPIOH.
 357:HW_Lib/AT32F435/drivers/src/at32f435_437_gpio.c ****   * @param  port_value: specifies the value to be written to the port output data register.
 358:HW_Lib/AT32F435/drivers/src/at32f435_437_gpio.c ****   * @retval none
 359:HW_Lib/AT32F435/drivers/src/at32f435_437_gpio.c ****   */
 360:HW_Lib/AT32F435/drivers/src/at32f435_437_gpio.c **** void gpio_port_write(gpio_type *gpio_x, uint16_t port_value)
 361:HW_Lib/AT32F435/drivers/src/at32f435_437_gpio.c **** {
 615              		.loc 1 361 1 is_stmt 1 view -0
 616              		.cfi_startproc
 617              		@ args = 0, pretend = 0, frame = 0
 618              		@ frame_needed = 0, uses_anonymous_args = 0
 619              		@ link register save eliminated.
 362:HW_Lib/AT32F435/drivers/src/at32f435_437_gpio.c ****   gpio_x->odt = port_value;
 620              		.loc 1 362 3 view .LVU152
 621              		.loc 1 362 15 is_stmt 0 view .LVU153
 622 0000 4161     		str	r1, [r0, #20]
 363:HW_Lib/AT32F435/drivers/src/at32f435_437_gpio.c **** }
 623              		.loc 1 363 1 view .LVU154
ARM GAS  C:\Users\8bit\AppData\Local\Temp\ccxgGzw4.s 			page 19


 624 0002 7047     		bx	lr
 625              		.cfi_endproc
 626              	.LFE143:
 628              		.section	.text.gpio_pin_wp_config,"ax",%progbits
 629              		.align	1
 630              		.global	gpio_pin_wp_config
 631              		.syntax unified
 632              		.thumb
 633              		.thumb_func
 635              	gpio_pin_wp_config:
 636              	.LVL58:
 637              	.LFB144:
 364:HW_Lib/AT32F435/drivers/src/at32f435_437_gpio.c **** 
 365:HW_Lib/AT32F435/drivers/src/at32f435_437_gpio.c **** /**
 366:HW_Lib/AT32F435/drivers/src/at32f435_437_gpio.c ****   * @brief  write protect gpio pins configuration registers.
 367:HW_Lib/AT32F435/drivers/src/at32f435_437_gpio.c ****   * @param  gpio_x: to select the gpio peripheral.
 368:HW_Lib/AT32F435/drivers/src/at32f435_437_gpio.c ****   *         this parameter can be one of the following values:
 369:HW_Lib/AT32F435/drivers/src/at32f435_437_gpio.c ****   *         GPIOA, GPIOB, GPIOC, GPIOD, GPIOE, GPIOF, GPIOG, GPIOH.
 370:HW_Lib/AT32F435/drivers/src/at32f435_437_gpio.c ****   * @param  pins: gpio pin number
 371:HW_Lib/AT32F435/drivers/src/at32f435_437_gpio.c ****   *         this parameter can be any combination of the following:
 372:HW_Lib/AT32F435/drivers/src/at32f435_437_gpio.c ****   *         - GPIO_PINS_0
 373:HW_Lib/AT32F435/drivers/src/at32f435_437_gpio.c ****   *         - GPIO_PINS_1
 374:HW_Lib/AT32F435/drivers/src/at32f435_437_gpio.c ****   *         - GPIO_PINS_2
 375:HW_Lib/AT32F435/drivers/src/at32f435_437_gpio.c ****   *         - GPIO_PINS_3
 376:HW_Lib/AT32F435/drivers/src/at32f435_437_gpio.c ****   *         - GPIO_PINS_4
 377:HW_Lib/AT32F435/drivers/src/at32f435_437_gpio.c ****   *         - GPIO_PINS_5
 378:HW_Lib/AT32F435/drivers/src/at32f435_437_gpio.c ****   *         - GPIO_PINS_6
 379:HW_Lib/AT32F435/drivers/src/at32f435_437_gpio.c ****   *         - GPIO_PINS_7
 380:HW_Lib/AT32F435/drivers/src/at32f435_437_gpio.c ****   *         - GPIO_PINS_8
 381:HW_Lib/AT32F435/drivers/src/at32f435_437_gpio.c ****   *         - GPIO_PINS_9
 382:HW_Lib/AT32F435/drivers/src/at32f435_437_gpio.c ****   *         - GPIO_PINS_10
 383:HW_Lib/AT32F435/drivers/src/at32f435_437_gpio.c ****   *         - GPIO_PINS_11
 384:HW_Lib/AT32F435/drivers/src/at32f435_437_gpio.c ****   *         - GPIO_PINS_12
 385:HW_Lib/AT32F435/drivers/src/at32f435_437_gpio.c ****   *         - GPIO_PINS_13
 386:HW_Lib/AT32F435/drivers/src/at32f435_437_gpio.c ****   *         - GPIO_PINS_14
 387:HW_Lib/AT32F435/drivers/src/at32f435_437_gpio.c ****   *         - GPIO_PINS_15
 388:HW_Lib/AT32F435/drivers/src/at32f435_437_gpio.c ****   *         - GPIO_PINS_ALL
 389:HW_Lib/AT32F435/drivers/src/at32f435_437_gpio.c ****   * @retval none
 390:HW_Lib/AT32F435/drivers/src/at32f435_437_gpio.c ****   */
 391:HW_Lib/AT32F435/drivers/src/at32f435_437_gpio.c **** void gpio_pin_wp_config(gpio_type *gpio_x, uint16_t pins)
 392:HW_Lib/AT32F435/drivers/src/at32f435_437_gpio.c **** {
 638              		.loc 1 392 1 is_stmt 1 view -0
 639              		.cfi_startproc
 640              		@ args = 0, pretend = 0, frame = 0
 641              		@ frame_needed = 0, uses_anonymous_args = 0
 642              		@ link register save eliminated.
 393:HW_Lib/AT32F435/drivers/src/at32f435_437_gpio.c ****   uint32_t temp = 0x00010000;
 643              		.loc 1 393 3 view .LVU156
 394:HW_Lib/AT32F435/drivers/src/at32f435_437_gpio.c **** 
 395:HW_Lib/AT32F435/drivers/src/at32f435_437_gpio.c ****   temp |= pins;
 644              		.loc 1 395 3 view .LVU157
 645              		.loc 1 395 8 is_stmt 0 view .LVU158
 646 0000 41F48033 		orr	r3, r1, #65536
 647              	.LVL59:
 396:HW_Lib/AT32F435/drivers/src/at32f435_437_gpio.c ****   /* set wpen bit */
 397:HW_Lib/AT32F435/drivers/src/at32f435_437_gpio.c ****   gpio_x->wpr = temp;
 648              		.loc 1 397 3 is_stmt 1 view .LVU159
ARM GAS  C:\Users\8bit\AppData\Local\Temp\ccxgGzw4.s 			page 20


 649              		.loc 1 397 15 is_stmt 0 view .LVU160
 650 0004 C361     		str	r3, [r0, #28]
 398:HW_Lib/AT32F435/drivers/src/at32f435_437_gpio.c ****   /* reset wpen bit */
 399:HW_Lib/AT32F435/drivers/src/at32f435_437_gpio.c ****   gpio_x->wpr =  pins;
 651              		.loc 1 399 3 is_stmt 1 view .LVU161
 652              		.loc 1 399 15 is_stmt 0 view .LVU162
 653 0006 C161     		str	r1, [r0, #28]
 400:HW_Lib/AT32F435/drivers/src/at32f435_437_gpio.c ****   /* set wpen bit */
 401:HW_Lib/AT32F435/drivers/src/at32f435_437_gpio.c ****   gpio_x->wpr = temp;
 654              		.loc 1 401 3 is_stmt 1 view .LVU163
 655              		.loc 1 401 15 is_stmt 0 view .LVU164
 656 0008 C361     		str	r3, [r0, #28]
 402:HW_Lib/AT32F435/drivers/src/at32f435_437_gpio.c ****   /* read wpen bit*/
 403:HW_Lib/AT32F435/drivers/src/at32f435_437_gpio.c ****   temp = gpio_x->wpr;
 657              		.loc 1 403 3 is_stmt 1 view .LVU165
 658              		.loc 1 403 8 is_stmt 0 view .LVU166
 659 000a C369     		ldr	r3, [r0, #28]
 660              	.LVL60:
 404:HW_Lib/AT32F435/drivers/src/at32f435_437_gpio.c ****   /* read wpen bit*/
 405:HW_Lib/AT32F435/drivers/src/at32f435_437_gpio.c ****   temp = gpio_x->wpr;
 661              		.loc 1 405 3 is_stmt 1 view .LVU167
 662              		.loc 1 405 8 is_stmt 0 view .LVU168
 663 000c C369     		ldr	r3, [r0, #28]
 406:HW_Lib/AT32F435/drivers/src/at32f435_437_gpio.c **** }
 664              		.loc 1 406 1 view .LVU169
 665 000e 7047     		bx	lr
 666              		.cfi_endproc
 667              	.LFE144:
 669              		.section	.text.gpio_pins_huge_driven_config,"ax",%progbits
 670              		.align	1
 671              		.global	gpio_pins_huge_driven_config
 672              		.syntax unified
 673              		.thumb
 674              		.thumb_func
 676              	gpio_pins_huge_driven_config:
 677              	.LVL61:
 678              	.LFB145:
 407:HW_Lib/AT32F435/drivers/src/at32f435_437_gpio.c **** 
 408:HW_Lib/AT32F435/drivers/src/at32f435_437_gpio.c **** /**
 409:HW_Lib/AT32F435/drivers/src/at32f435_437_gpio.c ****   * @brief  enable or disable gpio pins huge driven.
 410:HW_Lib/AT32F435/drivers/src/at32f435_437_gpio.c ****   * @param  gpio_x: to select the gpio peripheral.
 411:HW_Lib/AT32F435/drivers/src/at32f435_437_gpio.c ****   *         this parameter can be one of the following values:
 412:HW_Lib/AT32F435/drivers/src/at32f435_437_gpio.c ****   *         GPIOA, GPIOB, GPIOC, GPIOD, GPIOE, GPIOF, GPIOG, GPIOH.
 413:HW_Lib/AT32F435/drivers/src/at32f435_437_gpio.c ****   * @param  pins: gpio pin number
 414:HW_Lib/AT32F435/drivers/src/at32f435_437_gpio.c ****   *         parameter can be any combination of gpio_pin_x, gpio_pin_x as following values:
 415:HW_Lib/AT32F435/drivers/src/at32f435_437_gpio.c ****   *         - GPIO_PINS_0
 416:HW_Lib/AT32F435/drivers/src/at32f435_437_gpio.c ****   *         - GPIO_PINS_1
 417:HW_Lib/AT32F435/drivers/src/at32f435_437_gpio.c ****   *         - GPIO_PINS_2
 418:HW_Lib/AT32F435/drivers/src/at32f435_437_gpio.c ****   *         - GPIO_PINS_3
 419:HW_Lib/AT32F435/drivers/src/at32f435_437_gpio.c ****   *         - GPIO_PINS_4
 420:HW_Lib/AT32F435/drivers/src/at32f435_437_gpio.c ****   *         - GPIO_PINS_5
 421:HW_Lib/AT32F435/drivers/src/at32f435_437_gpio.c ****   *         - GPIO_PINS_6
 422:HW_Lib/AT32F435/drivers/src/at32f435_437_gpio.c ****   *         - GPIO_PINS_7
 423:HW_Lib/AT32F435/drivers/src/at32f435_437_gpio.c ****   *         - GPIO_PINS_8
 424:HW_Lib/AT32F435/drivers/src/at32f435_437_gpio.c ****   *         - GPIO_PINS_9
 425:HW_Lib/AT32F435/drivers/src/at32f435_437_gpio.c ****   *         - GPIO_PINS_10
 426:HW_Lib/AT32F435/drivers/src/at32f435_437_gpio.c ****   *         - GPIO_PINS_11
ARM GAS  C:\Users\8bit\AppData\Local\Temp\ccxgGzw4.s 			page 21


 427:HW_Lib/AT32F435/drivers/src/at32f435_437_gpio.c ****   *         - GPIO_PINS_12
 428:HW_Lib/AT32F435/drivers/src/at32f435_437_gpio.c ****   *         - GPIO_PINS_13
 429:HW_Lib/AT32F435/drivers/src/at32f435_437_gpio.c ****   *         - GPIO_PINS_14
 430:HW_Lib/AT32F435/drivers/src/at32f435_437_gpio.c ****   *         - GPIO_PINS_15
 431:HW_Lib/AT32F435/drivers/src/at32f435_437_gpio.c ****   *         - GPIO_PINS_ALL
 432:HW_Lib/AT32F435/drivers/src/at32f435_437_gpio.c ****   * @param  new_state: new state of the slew rate.
 433:HW_Lib/AT32F435/drivers/src/at32f435_437_gpio.c ****   *         this parameter can be: true or false.
 434:HW_Lib/AT32F435/drivers/src/at32f435_437_gpio.c ****   * @retval none
 435:HW_Lib/AT32F435/drivers/src/at32f435_437_gpio.c ****   */
 436:HW_Lib/AT32F435/drivers/src/at32f435_437_gpio.c **** void gpio_pins_huge_driven_config(gpio_type *gpio_x, uint16_t pins, confirm_state new_state)
 437:HW_Lib/AT32F435/drivers/src/at32f435_437_gpio.c **** {
 679              		.loc 1 437 1 is_stmt 1 view -0
 680              		.cfi_startproc
 681              		@ args = 0, pretend = 0, frame = 0
 682              		@ frame_needed = 0, uses_anonymous_args = 0
 683              		@ link register save eliminated.
 438:HW_Lib/AT32F435/drivers/src/at32f435_437_gpio.c ****   if(new_state != FALSE)
 684              		.loc 1 438 3 view .LVU171
 685              		.loc 1 438 5 is_stmt 0 view .LVU172
 686 0000 1AB1     		cbz	r2, .L44
 439:HW_Lib/AT32F435/drivers/src/at32f435_437_gpio.c ****   {
 440:HW_Lib/AT32F435/drivers/src/at32f435_437_gpio.c ****     gpio_x->hdrv |= pins;
 687              		.loc 1 440 5 is_stmt 1 view .LVU173
 688              		.loc 1 440 18 is_stmt 0 view .LVU174
 689 0002 C36B     		ldr	r3, [r0, #60]
 690 0004 1943     		orrs	r1, r1, r3
 691              	.LVL62:
 692              		.loc 1 440 18 view .LVU175
 693 0006 C163     		str	r1, [r0, #60]
 694 0008 7047     		bx	lr
 695              	.LVL63:
 696              	.L44:
 441:HW_Lib/AT32F435/drivers/src/at32f435_437_gpio.c ****   }
 442:HW_Lib/AT32F435/drivers/src/at32f435_437_gpio.c ****   else
 443:HW_Lib/AT32F435/drivers/src/at32f435_437_gpio.c ****   {
 444:HW_Lib/AT32F435/drivers/src/at32f435_437_gpio.c ****     gpio_x->hdrv &= ~pins;
 697              		.loc 1 444 5 is_stmt 1 view .LVU176
 698              		.loc 1 444 18 is_stmt 0 view .LVU177
 699 000a C36B     		ldr	r3, [r0, #60]
 700 000c 23EA0101 		bic	r1, r3, r1
 701              	.LVL64:
 702              		.loc 1 444 18 view .LVU178
 703 0010 C163     		str	r1, [r0, #60]
 445:HW_Lib/AT32F435/drivers/src/at32f435_437_gpio.c ****   }
 446:HW_Lib/AT32F435/drivers/src/at32f435_437_gpio.c **** }
 704              		.loc 1 446 1 view .LVU179
 705 0012 7047     		bx	lr
 706              		.cfi_endproc
 707              	.LFE145:
 709              		.section	.text.gpio_pin_mux_config,"ax",%progbits
 710              		.align	1
 711              		.global	gpio_pin_mux_config
 712              		.syntax unified
 713              		.thumb
 714              		.thumb_func
 716              	gpio_pin_mux_config:
 717              	.LVL65:
ARM GAS  C:\Users\8bit\AppData\Local\Temp\ccxgGzw4.s 			page 22


 718              	.LFB146:
 447:HW_Lib/AT32F435/drivers/src/at32f435_437_gpio.c **** 
 448:HW_Lib/AT32F435/drivers/src/at32f435_437_gpio.c **** /**
 449:HW_Lib/AT32F435/drivers/src/at32f435_437_gpio.c ****   * @brief  configure the pin's muxing function.
 450:HW_Lib/AT32F435/drivers/src/at32f435_437_gpio.c ****   * @param  gpio_x: to select the gpio peripheral.
 451:HW_Lib/AT32F435/drivers/src/at32f435_437_gpio.c ****   *         this parameter can be one of the following values:
 452:HW_Lib/AT32F435/drivers/src/at32f435_437_gpio.c ****   *         GPIOA, GPIOB, GPIOC, GPIOD, GPIOE, GPIOF, GPIOG, GPIOH.
 453:HW_Lib/AT32F435/drivers/src/at32f435_437_gpio.c ****   * @param  gpio_pin_source: specifies the pin for the muxing function.
 454:HW_Lib/AT32F435/drivers/src/at32f435_437_gpio.c ****   *         this parameter can be one of the following values:
 455:HW_Lib/AT32F435/drivers/src/at32f435_437_gpio.c ****   *         - GPIO_PINS_SOURCE0
 456:HW_Lib/AT32F435/drivers/src/at32f435_437_gpio.c ****   *         - GPIO_PINS_SOURCE1
 457:HW_Lib/AT32F435/drivers/src/at32f435_437_gpio.c ****   *         - GPIO_PINS_SOURCE2
 458:HW_Lib/AT32F435/drivers/src/at32f435_437_gpio.c ****   *         - GPIO_PINS_SOURCE3
 459:HW_Lib/AT32F435/drivers/src/at32f435_437_gpio.c ****   *         - GPIO_PINS_SOURCE4
 460:HW_Lib/AT32F435/drivers/src/at32f435_437_gpio.c ****   *         - GPIO_PINS_SOURCE5
 461:HW_Lib/AT32F435/drivers/src/at32f435_437_gpio.c ****   *         - GPIO_PINS_SOURCE6
 462:HW_Lib/AT32F435/drivers/src/at32f435_437_gpio.c ****   *         - GPIO_PINS_SOURCE7
 463:HW_Lib/AT32F435/drivers/src/at32f435_437_gpio.c ****   *         - GPIO_PINS_SOURCE8
 464:HW_Lib/AT32F435/drivers/src/at32f435_437_gpio.c ****   *         - GPIO_PINS_SOURCE9
 465:HW_Lib/AT32F435/drivers/src/at32f435_437_gpio.c ****   *         - GPIO_PINS_SOURCE10
 466:HW_Lib/AT32F435/drivers/src/at32f435_437_gpio.c ****   *         - GPIO_PINS_SOURCE11
 467:HW_Lib/AT32F435/drivers/src/at32f435_437_gpio.c ****   *         - GPIO_PINS_SOURCE12
 468:HW_Lib/AT32F435/drivers/src/at32f435_437_gpio.c ****   *         - GPIO_PINS_SOURCE13
 469:HW_Lib/AT32F435/drivers/src/at32f435_437_gpio.c ****   *         - GPIO_PINS_SOURCE14
 470:HW_Lib/AT32F435/drivers/src/at32f435_437_gpio.c ****   *         - GPIO_PINS_SOURCE15
 471:HW_Lib/AT32F435/drivers/src/at32f435_437_gpio.c ****   * @param  gpio_mux: select the pin to used as muxing function.
 472:HW_Lib/AT32F435/drivers/src/at32f435_437_gpio.c ****   *         this parameter can be one of the following values:
 473:HW_Lib/AT32F435/drivers/src/at32f435_437_gpio.c ****   *         - GPIO_MUX_0
 474:HW_Lib/AT32F435/drivers/src/at32f435_437_gpio.c ****   *         - GPIO_MUX_1
 475:HW_Lib/AT32F435/drivers/src/at32f435_437_gpio.c ****   *         - GPIO_MUX_2
 476:HW_Lib/AT32F435/drivers/src/at32f435_437_gpio.c ****   *         - GPIO_MUX_3
 477:HW_Lib/AT32F435/drivers/src/at32f435_437_gpio.c ****   *         - GPIO_MUX_4
 478:HW_Lib/AT32F435/drivers/src/at32f435_437_gpio.c ****   *         - GPIO_MUX_5
 479:HW_Lib/AT32F435/drivers/src/at32f435_437_gpio.c ****   *         - GPIO_MUX_6
 480:HW_Lib/AT32F435/drivers/src/at32f435_437_gpio.c ****   *         - GPIO_MUX_7
 481:HW_Lib/AT32F435/drivers/src/at32f435_437_gpio.c ****   *         - GPIO_MUX_8
 482:HW_Lib/AT32F435/drivers/src/at32f435_437_gpio.c ****   *         - GPIO_MUX_9
 483:HW_Lib/AT32F435/drivers/src/at32f435_437_gpio.c ****   *         - GPIO_MUX_10
 484:HW_Lib/AT32F435/drivers/src/at32f435_437_gpio.c ****   *         - GPIO_MUX_11
 485:HW_Lib/AT32F435/drivers/src/at32f435_437_gpio.c ****   *         - GPIO_MUX_12
 486:HW_Lib/AT32F435/drivers/src/at32f435_437_gpio.c ****   *         - GPIO_MUX_13
 487:HW_Lib/AT32F435/drivers/src/at32f435_437_gpio.c ****   *         - GPIO_MUX_14
 488:HW_Lib/AT32F435/drivers/src/at32f435_437_gpio.c ****   *         - GPIO_MUX_15
 489:HW_Lib/AT32F435/drivers/src/at32f435_437_gpio.c ****   * @retval none
 490:HW_Lib/AT32F435/drivers/src/at32f435_437_gpio.c ****   */
 491:HW_Lib/AT32F435/drivers/src/at32f435_437_gpio.c **** void gpio_pin_mux_config(gpio_type *gpio_x, gpio_pins_source_type gpio_pin_source, gpio_mux_sel_typ
 492:HW_Lib/AT32F435/drivers/src/at32f435_437_gpio.c **** {
 719              		.loc 1 492 1 is_stmt 1 view -0
 720              		.cfi_startproc
 721              		@ args = 0, pretend = 0, frame = 0
 722              		@ frame_needed = 0, uses_anonymous_args = 0
 723              		@ link register save eliminated.
 493:HW_Lib/AT32F435/drivers/src/at32f435_437_gpio.c ****   uint32_t temp = 0x00;
 724              		.loc 1 493 3 view .LVU181
 494:HW_Lib/AT32F435/drivers/src/at32f435_437_gpio.c ****   uint32_t temp_2 = 0x00;
 725              		.loc 1 494 3 view .LVU182
 495:HW_Lib/AT32F435/drivers/src/at32f435_437_gpio.c **** 
ARM GAS  C:\Users\8bit\AppData\Local\Temp\ccxgGzw4.s 			page 23


 496:HW_Lib/AT32F435/drivers/src/at32f435_437_gpio.c ****   temp = ((uint32_t)(gpio_mux) << ((uint32_t)((uint32_t)gpio_pin_source & (uint32_t)0x07) * 4));
 726              		.loc 1 496 3 view .LVU183
 727              		.loc 1 496 36 is_stmt 0 view .LVU184
 728 0000 01F00703 		and	r3, r1, #7
 729              		.loc 1 496 91 view .LVU185
 730 0004 9B00     		lsls	r3, r3, #2
 731              		.loc 1 496 8 view .LVU186
 732 0006 9A40     		lsls	r2, r2, r3
 733              	.LVL66:
 497:HW_Lib/AT32F435/drivers/src/at32f435_437_gpio.c ****   if(gpio_pin_source >> 0x03)
 734              		.loc 1 497 3 is_stmt 1 view .LVU187
 735              		.loc 1 497 5 is_stmt 0 view .LVU188
 736 0008 C908     		lsrs	r1, r1, #3
 737              	.LVL67:
 738              		.loc 1 497 5 view .LVU189
 739 000a 0BD0     		beq	.L47
 498:HW_Lib/AT32F435/drivers/src/at32f435_437_gpio.c ****   {
 499:HW_Lib/AT32F435/drivers/src/at32f435_437_gpio.c ****     gpio_x->muxh &= ~((uint32_t)0xF << ((uint32_t)((uint32_t)gpio_pin_source & (uint32_t)0x07) * 4)
 740              		.loc 1 499 5 is_stmt 1 view .LVU190
 741              		.loc 1 499 18 is_stmt 0 view .LVU191
 742 000c 416A     		ldr	r1, [r0, #36]
 743              		.loc 1 499 37 view .LVU192
 744 000e 4FF00F0C 		mov	ip, #15
 745 0012 0CFA03F3 		lsl	r3, ip, r3
 746              		.loc 1 499 18 view .LVU193
 747 0016 21EA0303 		bic	r3, r1, r3
 748 001a 4362     		str	r3, [r0, #36]
 500:HW_Lib/AT32F435/drivers/src/at32f435_437_gpio.c ****     temp_2 = gpio_x->muxh | temp;
 749              		.loc 1 500 5 is_stmt 1 view .LVU194
 750              		.loc 1 500 20 is_stmt 0 view .LVU195
 751 001c 436A     		ldr	r3, [r0, #36]
 752              		.loc 1 500 12 view .LVU196
 753 001e 1A43     		orrs	r2, r2, r3
 754              	.LVL68:
 501:HW_Lib/AT32F435/drivers/src/at32f435_437_gpio.c ****     gpio_x->muxh = temp_2;
 755              		.loc 1 501 5 is_stmt 1 view .LVU197
 756              		.loc 1 501 18 is_stmt 0 view .LVU198
 757 0020 4262     		str	r2, [r0, #36]
 758 0022 7047     		bx	lr
 759              	.LVL69:
 760              	.L47:
 502:HW_Lib/AT32F435/drivers/src/at32f435_437_gpio.c ****   }
 503:HW_Lib/AT32F435/drivers/src/at32f435_437_gpio.c ****   else
 504:HW_Lib/AT32F435/drivers/src/at32f435_437_gpio.c ****   {
 505:HW_Lib/AT32F435/drivers/src/at32f435_437_gpio.c ****     gpio_x->muxl &= ~((uint32_t)0xF << ((uint32_t)((uint32_t)gpio_pin_source & (uint32_t)0x07) * 4)
 761              		.loc 1 505 5 is_stmt 1 view .LVU199
 762              		.loc 1 505 18 is_stmt 0 view .LVU200
 763 0024 016A     		ldr	r1, [r0, #32]
 764              		.loc 1 505 37 view .LVU201
 765 0026 4FF00F0C 		mov	ip, #15
 766 002a 0CFA03F3 		lsl	r3, ip, r3
 767              		.loc 1 505 18 view .LVU202
 768 002e 21EA0303 		bic	r3, r1, r3
 769 0032 0362     		str	r3, [r0, #32]
 506:HW_Lib/AT32F435/drivers/src/at32f435_437_gpio.c ****     temp_2 = gpio_x->muxl | temp;
 770              		.loc 1 506 5 is_stmt 1 view .LVU203
 771              		.loc 1 506 20 is_stmt 0 view .LVU204
ARM GAS  C:\Users\8bit\AppData\Local\Temp\ccxgGzw4.s 			page 24


 772 0034 036A     		ldr	r3, [r0, #32]
 773              		.loc 1 506 12 view .LVU205
 774 0036 1A43     		orrs	r2, r2, r3
 775              	.LVL70:
 507:HW_Lib/AT32F435/drivers/src/at32f435_437_gpio.c ****     gpio_x->muxl = temp_2;
 776              		.loc 1 507 5 is_stmt 1 view .LVU206
 777              		.loc 1 507 18 is_stmt 0 view .LVU207
 778 0038 0262     		str	r2, [r0, #32]
 508:HW_Lib/AT32F435/drivers/src/at32f435_437_gpio.c ****   }
 509:HW_Lib/AT32F435/drivers/src/at32f435_437_gpio.c **** }
 779              		.loc 1 509 1 view .LVU208
 780 003a 7047     		bx	lr
 781              		.cfi_endproc
 782              	.LFE146:
 784              		.text
 785              	.Letext0:
 786              		.file 2 "c:\\program files (x86)\\gnu arm embedded toolchain\\10 2021.10\\arm-none-eabi\\include\\
 787              		.file 3 "c:\\program files (x86)\\gnu arm embedded toolchain\\10 2021.10\\arm-none-eabi\\include\\
 788              		.file 4 "HW_Lib/AT32F435/device_support/at32f435_437.h"
 789              		.file 5 "HW_Lib/AT32F435/drivers/inc/at32f435_437_crm.h"
 790              		.file 6 "HW_Lib/AT32F435/drivers/inc/at32f435_437_gpio.h"
ARM GAS  C:\Users\8bit\AppData\Local\Temp\ccxgGzw4.s 			page 25

