ARM GAS  C:\Users\8bit\AppData\Local\Temp\ccAkw5rm.s 			page 1


   1              		.cpu cortex-m4
   2              		.arch armv7e-m
   3              		.fpu fpv4-sp-d16
   4              		.eabi_attribute 27, 1
   5              		.eabi_attribute 28, 1
   6              		.eabi_attribute 20, 1
   7              		.eabi_attribute 21, 1
   8              		.eabi_attribute 23, 3
   9              		.eabi_attribute 24, 1
  10              		.eabi_attribute 25, 1
  11              		.eabi_attribute 26, 1
  12              		.eabi_attribute 30, 1
  13              		.eabi_attribute 34, 1
  14              		.eabi_attribute 18, 4
  15              		.file	"at32f435_437_int.c"
  16              		.text
  17              	.Ltext0:
  18              		.cfi_sections	.debug_frame
  19              		.section	.text.NMI_Handler,"ax",%progbits
  20              		.align	1
  21              		.global	NMI_Handler
  22              		.syntax unified
  23              		.thumb
  24              		.thumb_func
  26              	NMI_Handler:
  27              	.LFB139:
  28              		.file 1 "HW_Lib/AT32F435/device_support/at32f435_437_int.c"
   1:HW_Lib/AT32F435/device_support/at32f435_437_int.c **** /**
   2:HW_Lib/AT32F435/device_support/at32f435_437_int.c ****   **************************************************************************
   3:HW_Lib/AT32F435/device_support/at32f435_437_int.c ****   * @file     at32f435_437_int.c
   4:HW_Lib/AT32F435/device_support/at32f435_437_int.c ****   * @version  v2.1.0
   5:HW_Lib/AT32F435/device_support/at32f435_437_int.c ****   * @date     2022-08-16
   6:HW_Lib/AT32F435/device_support/at32f435_437_int.c ****   * @brief    main interrupt service routines.
   7:HW_Lib/AT32F435/device_support/at32f435_437_int.c ****   **************************************************************************
   8:HW_Lib/AT32F435/device_support/at32f435_437_int.c ****   *                       Copyright notice & Disclaimer
   9:HW_Lib/AT32F435/device_support/at32f435_437_int.c ****   *
  10:HW_Lib/AT32F435/device_support/at32f435_437_int.c ****   * The software Board Support Package (BSP) that is made available to
  11:HW_Lib/AT32F435/device_support/at32f435_437_int.c ****   * download from Artery official website is the copyrighted work of Artery.
  12:HW_Lib/AT32F435/device_support/at32f435_437_int.c ****   * Artery authorizes customers to use, copy, and distribute the BSP
  13:HW_Lib/AT32F435/device_support/at32f435_437_int.c ****   * software and its related documentation for the purpose of design and
  14:HW_Lib/AT32F435/device_support/at32f435_437_int.c ****   * development in conjunction with Artery microcontrollers. Use of the
  15:HW_Lib/AT32F435/device_support/at32f435_437_int.c ****   * software is governed by this copyright notice and the following disclaimer.
  16:HW_Lib/AT32F435/device_support/at32f435_437_int.c ****   *
  17:HW_Lib/AT32F435/device_support/at32f435_437_int.c ****   * THIS SOFTWARE IS PROVIDED ON "AS IS" BASIS WITHOUT WARRANTIES,
  18:HW_Lib/AT32F435/device_support/at32f435_437_int.c ****   * GUARANTEES OR REPRESENTATIONS OF ANY KIND. ARTERY EXPRESSLY DISCLAIMS,
  19:HW_Lib/AT32F435/device_support/at32f435_437_int.c ****   * TO THE FULLEST EXTENT PERMITTED BY LAW, ALL EXPRESS, IMPLIED OR
  20:HW_Lib/AT32F435/device_support/at32f435_437_int.c ****   * STATUTORY OR OTHER WARRANTIES, GUARANTEES OR REPRESENTATIONS,
  21:HW_Lib/AT32F435/device_support/at32f435_437_int.c ****   * INCLUDING BUT NOT LIMITED TO, THE IMPLIED WARRANTIES OF MERCHANTABILITY,
  22:HW_Lib/AT32F435/device_support/at32f435_437_int.c ****   * FITNESS FOR A PARTICULAR PURPOSE, OR NON-INFRINGEMENT.
  23:HW_Lib/AT32F435/device_support/at32f435_437_int.c ****   *
  24:HW_Lib/AT32F435/device_support/at32f435_437_int.c ****   **************************************************************************
  25:HW_Lib/AT32F435/device_support/at32f435_437_int.c ****   */
  26:HW_Lib/AT32F435/device_support/at32f435_437_int.c **** 
  27:HW_Lib/AT32F435/device_support/at32f435_437_int.c **** /* includes ------------------------------------------------------------------*/
  28:HW_Lib/AT32F435/device_support/at32f435_437_int.c **** #include "at32f435_437_int.h"
  29:HW_Lib/AT32F435/device_support/at32f435_437_int.c **** #include "at32f435_437.h"
  30:HW_Lib/AT32F435/device_support/at32f435_437_int.c **** #include "Bsp_GPIO.h"
ARM GAS  C:\Users\8bit\AppData\Local\Temp\ccAkw5rm.s 			page 2


  31:HW_Lib/AT32F435/device_support/at32f435_437_int.c **** #include "Bsp_DMA.h"
  32:HW_Lib/AT32F435/device_support/at32f435_437_int.c **** #include "Bsp_Uart.h"
  33:HW_Lib/AT32F435/device_support/at32f435_437_int.c **** #include "Bsp_USB.h"
  34:HW_Lib/AT32F435/device_support/at32f435_437_int.c **** #include "Bsp_Timer.h"
  35:HW_Lib/AT32F435/device_support/at32f435_437_int.c **** #include "Bsp_IIC.h"
  36:HW_Lib/AT32F435/device_support/at32f435_437_int.c **** #include "FreeRTOS.h"
  37:HW_Lib/AT32F435/device_support/at32f435_437_int.c **** #include "HW_Def.h"
  38:HW_Lib/AT32F435/device_support/at32f435_437_int.c **** #include "debug_util.h"
  39:HW_Lib/AT32F435/device_support/at32f435_437_int.c **** #include "task.h"
  40:HW_Lib/AT32F435/device_support/at32f435_437_int.c **** 
  41:HW_Lib/AT32F435/device_support/at32f435_437_int.c **** /** @addtogroup UTILITIES_examples
  42:HW_Lib/AT32F435/device_support/at32f435_437_int.c ****   * @{
  43:HW_Lib/AT32F435/device_support/at32f435_437_int.c ****   */
  44:HW_Lib/AT32F435/device_support/at32f435_437_int.c **** 
  45:HW_Lib/AT32F435/device_support/at32f435_437_int.c **** /** @addtogroup FreeRTOS_demo
  46:HW_Lib/AT32F435/device_support/at32f435_437_int.c ****   * @{
  47:HW_Lib/AT32F435/device_support/at32f435_437_int.c ****   */
  48:HW_Lib/AT32F435/device_support/at32f435_437_int.c **** 
  49:HW_Lib/AT32F435/device_support/at32f435_437_int.c **** /**
  50:HW_Lib/AT32F435/device_support/at32f435_437_int.c ****   * @brief  this function handles nmi exception.
  51:HW_Lib/AT32F435/device_support/at32f435_437_int.c ****   * @param  none
  52:HW_Lib/AT32F435/device_support/at32f435_437_int.c ****   * @retval none
  53:HW_Lib/AT32F435/device_support/at32f435_437_int.c ****   */
  54:HW_Lib/AT32F435/device_support/at32f435_437_int.c **** void NMI_Handler(void)
  55:HW_Lib/AT32F435/device_support/at32f435_437_int.c **** {
  29              		.loc 1 55 1 view -0
  30              		.cfi_startproc
  31              		@ args = 0, pretend = 0, frame = 0
  32              		@ frame_needed = 0, uses_anonymous_args = 0
  33              		@ link register save eliminated.
  56:HW_Lib/AT32F435/device_support/at32f435_437_int.c **** }
  34              		.loc 1 56 1 view .LVU1
  35 0000 7047     		bx	lr
  36              		.cfi_endproc
  37              	.LFE139:
  39              		.section	.text.MemManage_Handler,"ax",%progbits
  40              		.align	1
  41              		.global	MemManage_Handler
  42              		.syntax unified
  43              		.thumb
  44              		.thumb_func
  46              	MemManage_Handler:
  47              	.LFB140:
  57:HW_Lib/AT32F435/device_support/at32f435_437_int.c **** 
  58:HW_Lib/AT32F435/device_support/at32f435_437_int.c **** /**
  59:HW_Lib/AT32F435/device_support/at32f435_437_int.c ****   * @brief  this function handles hard fault exception.
  60:HW_Lib/AT32F435/device_support/at32f435_437_int.c ****   * @param  none
  61:HW_Lib/AT32F435/device_support/at32f435_437_int.c ****   * @retval none
  62:HW_Lib/AT32F435/device_support/at32f435_437_int.c ****   */
  63:HW_Lib/AT32F435/device_support/at32f435_437_int.c **** // void HardFault_Handler(void)
  64:HW_Lib/AT32F435/device_support/at32f435_437_int.c **** // {
  65:HW_Lib/AT32F435/device_support/at32f435_437_int.c **** //   /* go to infinite loop when hard fault exception occurs */
  66:HW_Lib/AT32F435/device_support/at32f435_437_int.c **** //   while(1)
  67:HW_Lib/AT32F435/device_support/at32f435_437_int.c **** //   {
  68:HW_Lib/AT32F435/device_support/at32f435_437_int.c **** //   }
  69:HW_Lib/AT32F435/device_support/at32f435_437_int.c **** // }
  70:HW_Lib/AT32F435/device_support/at32f435_437_int.c **** 
ARM GAS  C:\Users\8bit\AppData\Local\Temp\ccAkw5rm.s 			page 3


  71:HW_Lib/AT32F435/device_support/at32f435_437_int.c **** /**
  72:HW_Lib/AT32F435/device_support/at32f435_437_int.c ****   * @brief  this function handles memory manage exception.
  73:HW_Lib/AT32F435/device_support/at32f435_437_int.c ****   * @param  none
  74:HW_Lib/AT32F435/device_support/at32f435_437_int.c ****   * @retval none
  75:HW_Lib/AT32F435/device_support/at32f435_437_int.c ****   */
  76:HW_Lib/AT32F435/device_support/at32f435_437_int.c **** void MemManage_Handler(void)
  77:HW_Lib/AT32F435/device_support/at32f435_437_int.c **** {
  48              		.loc 1 77 1 view -0
  49              		.cfi_startproc
  50              		@ Volatile: function does not return.
  51              		@ args = 0, pretend = 0, frame = 0
  52              		@ frame_needed = 0, uses_anonymous_args = 0
  53              		@ link register save eliminated.
  54              	.L3:
  78:HW_Lib/AT32F435/device_support/at32f435_437_int.c ****   /* go to infinite loop when memory manage exception occurs */
  79:HW_Lib/AT32F435/device_support/at32f435_437_int.c ****   while(1)
  55              		.loc 1 79 3 discriminator 1 view .LVU3
  80:HW_Lib/AT32F435/device_support/at32f435_437_int.c ****   {
  81:HW_Lib/AT32F435/device_support/at32f435_437_int.c ****   }
  56              		.loc 1 81 3 discriminator 1 view .LVU4
  79:HW_Lib/AT32F435/device_support/at32f435_437_int.c ****   {
  57              		.loc 1 79 8 discriminator 1 view .LVU5
  58 0000 FEE7     		b	.L3
  59              		.cfi_endproc
  60              	.LFE140:
  62              		.section	.text.BusFault_Handler,"ax",%progbits
  63              		.align	1
  64              		.global	BusFault_Handler
  65              		.syntax unified
  66              		.thumb
  67              		.thumb_func
  69              	BusFault_Handler:
  70              	.LFB141:
  82:HW_Lib/AT32F435/device_support/at32f435_437_int.c **** }
  83:HW_Lib/AT32F435/device_support/at32f435_437_int.c **** 
  84:HW_Lib/AT32F435/device_support/at32f435_437_int.c **** /**
  85:HW_Lib/AT32F435/device_support/at32f435_437_int.c ****   * @brief  this function handles bus fault exception.
  86:HW_Lib/AT32F435/device_support/at32f435_437_int.c ****   * @param  none
  87:HW_Lib/AT32F435/device_support/at32f435_437_int.c ****   * @retval none
  88:HW_Lib/AT32F435/device_support/at32f435_437_int.c ****   */
  89:HW_Lib/AT32F435/device_support/at32f435_437_int.c **** void BusFault_Handler(void)
  90:HW_Lib/AT32F435/device_support/at32f435_437_int.c **** {
  71              		.loc 1 90 1 view -0
  72              		.cfi_startproc
  73              		@ Volatile: function does not return.
  74              		@ args = 0, pretend = 0, frame = 0
  75              		@ frame_needed = 0, uses_anonymous_args = 0
  76              		@ link register save eliminated.
  77              	.L5:
  91:HW_Lib/AT32F435/device_support/at32f435_437_int.c ****   /* go to infinite loop when bus fault exception occurs */
  92:HW_Lib/AT32F435/device_support/at32f435_437_int.c ****   while(1)
  78              		.loc 1 92 3 discriminator 1 view .LVU7
  93:HW_Lib/AT32F435/device_support/at32f435_437_int.c ****   {
  94:HW_Lib/AT32F435/device_support/at32f435_437_int.c ****   }
  79              		.loc 1 94 3 discriminator 1 view .LVU8
  92:HW_Lib/AT32F435/device_support/at32f435_437_int.c ****   {
  80              		.loc 1 92 8 discriminator 1 view .LVU9
ARM GAS  C:\Users\8bit\AppData\Local\Temp\ccAkw5rm.s 			page 4


  81 0000 FEE7     		b	.L5
  82              		.cfi_endproc
  83              	.LFE141:
  85              		.section	.text.UsageFault_Handler,"ax",%progbits
  86              		.align	1
  87              		.global	UsageFault_Handler
  88              		.syntax unified
  89              		.thumb
  90              		.thumb_func
  92              	UsageFault_Handler:
  93              	.LFB142:
  95:HW_Lib/AT32F435/device_support/at32f435_437_int.c **** }
  96:HW_Lib/AT32F435/device_support/at32f435_437_int.c **** 
  97:HW_Lib/AT32F435/device_support/at32f435_437_int.c **** /**
  98:HW_Lib/AT32F435/device_support/at32f435_437_int.c ****   * @brief  this function handles usage fault exception.
  99:HW_Lib/AT32F435/device_support/at32f435_437_int.c ****   * @param  none
 100:HW_Lib/AT32F435/device_support/at32f435_437_int.c ****   * @retval none
 101:HW_Lib/AT32F435/device_support/at32f435_437_int.c ****   */
 102:HW_Lib/AT32F435/device_support/at32f435_437_int.c **** void UsageFault_Handler(void)
 103:HW_Lib/AT32F435/device_support/at32f435_437_int.c **** {
  94              		.loc 1 103 1 view -0
  95              		.cfi_startproc
  96              		@ Volatile: function does not return.
  97              		@ args = 0, pretend = 0, frame = 0
  98              		@ frame_needed = 0, uses_anonymous_args = 0
  99              		@ link register save eliminated.
 100              	.L7:
 104:HW_Lib/AT32F435/device_support/at32f435_437_int.c ****   /* go to infinite loop when usage fault exception occurs */
 105:HW_Lib/AT32F435/device_support/at32f435_437_int.c ****   while(1)
 101              		.loc 1 105 3 discriminator 1 view .LVU11
 106:HW_Lib/AT32F435/device_support/at32f435_437_int.c ****   {
 107:HW_Lib/AT32F435/device_support/at32f435_437_int.c ****   }
 102              		.loc 1 107 3 discriminator 1 view .LVU12
 105:HW_Lib/AT32F435/device_support/at32f435_437_int.c ****   {
 103              		.loc 1 105 8 discriminator 1 view .LVU13
 104 0000 FEE7     		b	.L7
 105              		.cfi_endproc
 106              	.LFE142:
 108              		.section	.text.DebugMon_Handler,"ax",%progbits
 109              		.align	1
 110              		.global	DebugMon_Handler
 111              		.syntax unified
 112              		.thumb
 113              		.thumb_func
 115              	DebugMon_Handler:
 116              	.LFB143:
 108:HW_Lib/AT32F435/device_support/at32f435_437_int.c **** }
 109:HW_Lib/AT32F435/device_support/at32f435_437_int.c **** 
 110:HW_Lib/AT32F435/device_support/at32f435_437_int.c **** /**
 111:HW_Lib/AT32F435/device_support/at32f435_437_int.c ****   * @brief  this function handles svcall exception.
 112:HW_Lib/AT32F435/device_support/at32f435_437_int.c ****   * @param  none
 113:HW_Lib/AT32F435/device_support/at32f435_437_int.c ****   * @retval none
 114:HW_Lib/AT32F435/device_support/at32f435_437_int.c ****   */
 115:HW_Lib/AT32F435/device_support/at32f435_437_int.c **** //void SVC_Handler(void)
 116:HW_Lib/AT32F435/device_support/at32f435_437_int.c **** //{
 117:HW_Lib/AT32F435/device_support/at32f435_437_int.c **** //}
 118:HW_Lib/AT32F435/device_support/at32f435_437_int.c **** 
ARM GAS  C:\Users\8bit\AppData\Local\Temp\ccAkw5rm.s 			page 5


 119:HW_Lib/AT32F435/device_support/at32f435_437_int.c **** /**
 120:HW_Lib/AT32F435/device_support/at32f435_437_int.c ****   * @brief  this function handles debug monitor exception.
 121:HW_Lib/AT32F435/device_support/at32f435_437_int.c ****   * @param  none
 122:HW_Lib/AT32F435/device_support/at32f435_437_int.c ****   * @retval none
 123:HW_Lib/AT32F435/device_support/at32f435_437_int.c ****   */
 124:HW_Lib/AT32F435/device_support/at32f435_437_int.c **** void DebugMon_Handler(void)
 125:HW_Lib/AT32F435/device_support/at32f435_437_int.c **** {
 117              		.loc 1 125 1 view -0
 118              		.cfi_startproc
 119              		@ args = 0, pretend = 0, frame = 0
 120              		@ frame_needed = 0, uses_anonymous_args = 0
 121              		@ link register save eliminated.
 126:HW_Lib/AT32F435/device_support/at32f435_437_int.c **** }
 122              		.loc 1 126 1 view .LVU15
 123 0000 7047     		bx	lr
 124              		.cfi_endproc
 125              	.LFE143:
 127              		.section	.text.EXINT0_IRQHandler,"ax",%progbits
 128              		.align	1
 129              		.global	EXINT0_IRQHandler
 130              		.syntax unified
 131              		.thumb
 132              		.thumb_func
 134              	EXINT0_IRQHandler:
 135              	.LFB144:
 127:HW_Lib/AT32F435/device_support/at32f435_437_int.c **** 
 128:HW_Lib/AT32F435/device_support/at32f435_437_int.c **** void EXINT0_IRQHandler(void)
 129:HW_Lib/AT32F435/device_support/at32f435_437_int.c **** {
 136              		.loc 1 129 1 view -0
 137              		.cfi_startproc
 138              		@ args = 0, pretend = 0, frame = 0
 139              		@ frame_needed = 0, uses_anonymous_args = 0
 140 0000 08B5     		push	{r3, lr}
 141              	.LCFI0:
 142              		.cfi_def_cfa_offset 8
 143              		.cfi_offset 3, -8
 144              		.cfi_offset 14, -4
 130:HW_Lib/AT32F435/device_support/at32f435_437_int.c ****   BspGPIO_IRQ_Polling(EXINT_LINE_0);
 145              		.loc 1 130 3 view .LVU17
 146 0002 0120     		movs	r0, #1
 147 0004 FFF7FEFF 		bl	BspGPIO_IRQ_Polling
 148              	.LVL0:
 131:HW_Lib/AT32F435/device_support/at32f435_437_int.c **** }
 149              		.loc 1 131 1 is_stmt 0 view .LVU18
 150 0008 08BD     		pop	{r3, pc}
 151              		.cfi_endproc
 152              	.LFE144:
 154              		.section	.text.EXINT1_IRQHandler,"ax",%progbits
 155              		.align	1
 156              		.global	EXINT1_IRQHandler
 157              		.syntax unified
 158              		.thumb
 159              		.thumb_func
 161              	EXINT1_IRQHandler:
 162              	.LFB145:
 132:HW_Lib/AT32F435/device_support/at32f435_437_int.c **** 
 133:HW_Lib/AT32F435/device_support/at32f435_437_int.c **** void EXINT1_IRQHandler(void)
ARM GAS  C:\Users\8bit\AppData\Local\Temp\ccAkw5rm.s 			page 6


 134:HW_Lib/AT32F435/device_support/at32f435_437_int.c **** {
 163              		.loc 1 134 1 is_stmt 1 view -0
 164              		.cfi_startproc
 165              		@ args = 0, pretend = 0, frame = 0
 166              		@ frame_needed = 0, uses_anonymous_args = 0
 167 0000 08B5     		push	{r3, lr}
 168              	.LCFI1:
 169              		.cfi_def_cfa_offset 8
 170              		.cfi_offset 3, -8
 171              		.cfi_offset 14, -4
 135:HW_Lib/AT32F435/device_support/at32f435_437_int.c ****   BspGPIO_IRQ_Polling(EXINT_LINE_1);
 172              		.loc 1 135 3 view .LVU20
 173 0002 0220     		movs	r0, #2
 174 0004 FFF7FEFF 		bl	BspGPIO_IRQ_Polling
 175              	.LVL1:
 136:HW_Lib/AT32F435/device_support/at32f435_437_int.c **** }
 176              		.loc 1 136 1 is_stmt 0 view .LVU21
 177 0008 08BD     		pop	{r3, pc}
 178              		.cfi_endproc
 179              	.LFE145:
 181              		.section	.text.EXINT2_IRQHandler,"ax",%progbits
 182              		.align	1
 183              		.global	EXINT2_IRQHandler
 184              		.syntax unified
 185              		.thumb
 186              		.thumb_func
 188              	EXINT2_IRQHandler:
 189              	.LFB146:
 137:HW_Lib/AT32F435/device_support/at32f435_437_int.c **** 
 138:HW_Lib/AT32F435/device_support/at32f435_437_int.c **** void EXINT2_IRQHandler(void)
 139:HW_Lib/AT32F435/device_support/at32f435_437_int.c **** {
 190              		.loc 1 139 1 is_stmt 1 view -0
 191              		.cfi_startproc
 192              		@ args = 0, pretend = 0, frame = 0
 193              		@ frame_needed = 0, uses_anonymous_args = 0
 194 0000 08B5     		push	{r3, lr}
 195              	.LCFI2:
 196              		.cfi_def_cfa_offset 8
 197              		.cfi_offset 3, -8
 198              		.cfi_offset 14, -4
 140:HW_Lib/AT32F435/device_support/at32f435_437_int.c ****   BspGPIO_IRQ_Polling(EXINT_LINE_2);
 199              		.loc 1 140 3 view .LVU23
 200 0002 0420     		movs	r0, #4
 201 0004 FFF7FEFF 		bl	BspGPIO_IRQ_Polling
 202              	.LVL2:
 141:HW_Lib/AT32F435/device_support/at32f435_437_int.c **** }
 203              		.loc 1 141 1 is_stmt 0 view .LVU24
 204 0008 08BD     		pop	{r3, pc}
 205              		.cfi_endproc
 206              	.LFE146:
 208              		.section	.text.EXINT3_IRQHandler,"ax",%progbits
 209              		.align	1
 210              		.global	EXINT3_IRQHandler
 211              		.syntax unified
 212              		.thumb
 213              		.thumb_func
 215              	EXINT3_IRQHandler:
ARM GAS  C:\Users\8bit\AppData\Local\Temp\ccAkw5rm.s 			page 7


 216              	.LFB147:
 142:HW_Lib/AT32F435/device_support/at32f435_437_int.c **** 
 143:HW_Lib/AT32F435/device_support/at32f435_437_int.c **** void EXINT3_IRQHandler(void)
 144:HW_Lib/AT32F435/device_support/at32f435_437_int.c **** {
 217              		.loc 1 144 1 is_stmt 1 view -0
 218              		.cfi_startproc
 219              		@ args = 0, pretend = 0, frame = 0
 220              		@ frame_needed = 0, uses_anonymous_args = 0
 221 0000 08B5     		push	{r3, lr}
 222              	.LCFI3:
 223              		.cfi_def_cfa_offset 8
 224              		.cfi_offset 3, -8
 225              		.cfi_offset 14, -4
 145:HW_Lib/AT32F435/device_support/at32f435_437_int.c ****   BspGPIO_IRQ_Polling(EXINT_LINE_3);
 226              		.loc 1 145 3 view .LVU26
 227 0002 0820     		movs	r0, #8
 228 0004 FFF7FEFF 		bl	BspGPIO_IRQ_Polling
 229              	.LVL3:
 146:HW_Lib/AT32F435/device_support/at32f435_437_int.c **** }
 230              		.loc 1 146 1 is_stmt 0 view .LVU27
 231 0008 08BD     		pop	{r3, pc}
 232              		.cfi_endproc
 233              	.LFE147:
 235              		.section	.text.EXINT4_IRQHandler,"ax",%progbits
 236              		.align	1
 237              		.global	EXINT4_IRQHandler
 238              		.syntax unified
 239              		.thumb
 240              		.thumb_func
 242              	EXINT4_IRQHandler:
 243              	.LFB148:
 147:HW_Lib/AT32F435/device_support/at32f435_437_int.c **** 
 148:HW_Lib/AT32F435/device_support/at32f435_437_int.c **** void EXINT4_IRQHandler(void)
 149:HW_Lib/AT32F435/device_support/at32f435_437_int.c **** {
 244              		.loc 1 149 1 is_stmt 1 view -0
 245              		.cfi_startproc
 246              		@ args = 0, pretend = 0, frame = 0
 247              		@ frame_needed = 0, uses_anonymous_args = 0
 248 0000 08B5     		push	{r3, lr}
 249              	.LCFI4:
 250              		.cfi_def_cfa_offset 8
 251              		.cfi_offset 3, -8
 252              		.cfi_offset 14, -4
 150:HW_Lib/AT32F435/device_support/at32f435_437_int.c ****   BspGPIO_IRQ_Polling(EXINT_LINE_4);
 253              		.loc 1 150 3 view .LVU29
 254 0002 1020     		movs	r0, #16
 255 0004 FFF7FEFF 		bl	BspGPIO_IRQ_Polling
 256              	.LVL4:
 151:HW_Lib/AT32F435/device_support/at32f435_437_int.c **** }
 257              		.loc 1 151 1 is_stmt 0 view .LVU30
 258 0008 08BD     		pop	{r3, pc}
 259              		.cfi_endproc
 260              	.LFE148:
 262              		.section	.text.EXINT9_5_IRQHandler,"ax",%progbits
 263              		.align	1
 264              		.global	EXINT9_5_IRQHandler
 265              		.syntax unified
ARM GAS  C:\Users\8bit\AppData\Local\Temp\ccAkw5rm.s 			page 8


 266              		.thumb
 267              		.thumb_func
 269              	EXINT9_5_IRQHandler:
 270              	.LFB149:
 152:HW_Lib/AT32F435/device_support/at32f435_437_int.c **** 
 153:HW_Lib/AT32F435/device_support/at32f435_437_int.c **** void EXINT9_5_IRQHandler(void)
 154:HW_Lib/AT32F435/device_support/at32f435_437_int.c **** {
 271              		.loc 1 154 1 is_stmt 1 view -0
 272              		.cfi_startproc
 273              		@ args = 0, pretend = 0, frame = 0
 274              		@ frame_needed = 0, uses_anonymous_args = 0
 275 0000 08B5     		push	{r3, lr}
 276              	.LCFI5:
 277              		.cfi_def_cfa_offset 8
 278              		.cfi_offset 3, -8
 279              		.cfi_offset 14, -4
 155:HW_Lib/AT32F435/device_support/at32f435_437_int.c ****   BspGPIO_IRQ_Polling(EXINT_LINE_5);
 280              		.loc 1 155 3 view .LVU32
 281 0002 2020     		movs	r0, #32
 282 0004 FFF7FEFF 		bl	BspGPIO_IRQ_Polling
 283              	.LVL5:
 156:HW_Lib/AT32F435/device_support/at32f435_437_int.c ****   BspGPIO_IRQ_Polling(EXINT_LINE_6);
 284              		.loc 1 156 3 view .LVU33
 285 0008 4020     		movs	r0, #64
 286 000a FFF7FEFF 		bl	BspGPIO_IRQ_Polling
 287              	.LVL6:
 157:HW_Lib/AT32F435/device_support/at32f435_437_int.c ****   BspGPIO_IRQ_Polling(EXINT_LINE_7);
 288              		.loc 1 157 3 view .LVU34
 289 000e 8020     		movs	r0, #128
 290 0010 FFF7FEFF 		bl	BspGPIO_IRQ_Polling
 291              	.LVL7:
 158:HW_Lib/AT32F435/device_support/at32f435_437_int.c ****   BspGPIO_IRQ_Polling(EXINT_LINE_8);
 292              		.loc 1 158 3 view .LVU35
 293 0014 4FF48070 		mov	r0, #256
 294 0018 FFF7FEFF 		bl	BspGPIO_IRQ_Polling
 295              	.LVL8:
 159:HW_Lib/AT32F435/device_support/at32f435_437_int.c ****   BspGPIO_IRQ_Polling(EXINT_LINE_9);
 296              		.loc 1 159 3 view .LVU36
 297 001c 4FF40070 		mov	r0, #512
 298 0020 FFF7FEFF 		bl	BspGPIO_IRQ_Polling
 299              	.LVL9:
 160:HW_Lib/AT32F435/device_support/at32f435_437_int.c **** }
 300              		.loc 1 160 1 is_stmt 0 view .LVU37
 301 0024 08BD     		pop	{r3, pc}
 302              		.cfi_endproc
 303              	.LFE149:
 305              		.section	.text.EXINT15_10_IRQHandler,"ax",%progbits
 306              		.align	1
 307              		.global	EXINT15_10_IRQHandler
 308              		.syntax unified
 309              		.thumb
 310              		.thumb_func
 312              	EXINT15_10_IRQHandler:
 313              	.LFB150:
 161:HW_Lib/AT32F435/device_support/at32f435_437_int.c **** 
 162:HW_Lib/AT32F435/device_support/at32f435_437_int.c **** void EXINT15_10_IRQHandler(void)
 163:HW_Lib/AT32F435/device_support/at32f435_437_int.c **** {
ARM GAS  C:\Users\8bit\AppData\Local\Temp\ccAkw5rm.s 			page 9


 314              		.loc 1 163 1 is_stmt 1 view -0
 315              		.cfi_startproc
 316              		@ args = 0, pretend = 0, frame = 0
 317              		@ frame_needed = 0, uses_anonymous_args = 0
 318 0000 08B5     		push	{r3, lr}
 319              	.LCFI6:
 320              		.cfi_def_cfa_offset 8
 321              		.cfi_offset 3, -8
 322              		.cfi_offset 14, -4
 164:HW_Lib/AT32F435/device_support/at32f435_437_int.c ****   BspGPIO_IRQ_Polling(EXINT_LINE_10);
 323              		.loc 1 164 3 view .LVU39
 324 0002 4FF48060 		mov	r0, #1024
 325 0006 FFF7FEFF 		bl	BspGPIO_IRQ_Polling
 326              	.LVL10:
 165:HW_Lib/AT32F435/device_support/at32f435_437_int.c ****   BspGPIO_IRQ_Polling(EXINT_LINE_11);
 327              		.loc 1 165 3 view .LVU40
 328 000a 4FF40060 		mov	r0, #2048
 329 000e FFF7FEFF 		bl	BspGPIO_IRQ_Polling
 330              	.LVL11:
 166:HW_Lib/AT32F435/device_support/at32f435_437_int.c ****   BspGPIO_IRQ_Polling(EXINT_LINE_12);
 331              		.loc 1 166 3 view .LVU41
 332 0012 4FF48050 		mov	r0, #4096
 333 0016 FFF7FEFF 		bl	BspGPIO_IRQ_Polling
 334              	.LVL12:
 167:HW_Lib/AT32F435/device_support/at32f435_437_int.c ****   BspGPIO_IRQ_Polling(EXINT_LINE_13);
 335              		.loc 1 167 3 view .LVU42
 336 001a 4FF40050 		mov	r0, #8192
 337 001e FFF7FEFF 		bl	BspGPIO_IRQ_Polling
 338              	.LVL13:
 168:HW_Lib/AT32F435/device_support/at32f435_437_int.c ****   BspGPIO_IRQ_Polling(EXINT_LINE_14);
 339              		.loc 1 168 3 view .LVU43
 340 0022 4FF48040 		mov	r0, #16384
 341 0026 FFF7FEFF 		bl	BspGPIO_IRQ_Polling
 342              	.LVL14:
 169:HW_Lib/AT32F435/device_support/at32f435_437_int.c ****   BspGPIO_IRQ_Polling(EXINT_LINE_15);
 343              		.loc 1 169 3 view .LVU44
 344 002a 4FF40040 		mov	r0, #32768
 345 002e FFF7FEFF 		bl	BspGPIO_IRQ_Polling
 346              	.LVL15:
 170:HW_Lib/AT32F435/device_support/at32f435_437_int.c **** }
 347              		.loc 1 170 1 is_stmt 0 view .LVU45
 348 0032 08BD     		pop	{r3, pc}
 349              		.cfi_endproc
 350              	.LFE150:
 352              		.section	.text.DMA1_Channel1_IRQHandler,"ax",%progbits
 353              		.align	1
 354              		.global	DMA1_Channel1_IRQHandler
 355              		.syntax unified
 356              		.thumb
 357              		.thumb_func
 359              	DMA1_Channel1_IRQHandler:
 360              	.LFB151:
 171:HW_Lib/AT32F435/device_support/at32f435_437_int.c **** 
 172:HW_Lib/AT32F435/device_support/at32f435_437_int.c **** void DMA1_Channel1_IRQHandler(void)
 173:HW_Lib/AT32F435/device_support/at32f435_437_int.c **** {
 361              		.loc 1 173 1 is_stmt 1 view -0
 362              		.cfi_startproc
ARM GAS  C:\Users\8bit\AppData\Local\Temp\ccAkw5rm.s 			page 10


 363              		@ args = 0, pretend = 0, frame = 0
 364              		@ frame_needed = 0, uses_anonymous_args = 0
 365 0000 08B5     		push	{r3, lr}
 366              	.LCFI7:
 367              		.cfi_def_cfa_offset 8
 368              		.cfi_offset 3, -8
 369              		.cfi_offset 14, -4
 174:HW_Lib/AT32F435/device_support/at32f435_437_int.c ****   if(dma_flag_get(DMA1_FDT1_FLAG))
 370              		.loc 1 174 3 view .LVU47
 371              		.loc 1 174 6 is_stmt 0 view .LVU48
 372 0002 0220     		movs	r0, #2
 373 0004 FFF7FEFF 		bl	dma_flag_get
 374              	.LVL16:
 375              		.loc 1 174 5 view .LVU49
 376 0008 00B9     		cbnz	r0, .L26
 377              	.L23:
 175:HW_Lib/AT32F435/device_support/at32f435_437_int.c ****   {
 176:HW_Lib/AT32F435/device_support/at32f435_437_int.c ****     BspDMA_Irq_Callback((void *)DMA1_CHANNEL1);
 177:HW_Lib/AT32F435/device_support/at32f435_437_int.c ****     dma_flag_clear(DMA1_FDT1_FLAG);
 178:HW_Lib/AT32F435/device_support/at32f435_437_int.c ****   }
 179:HW_Lib/AT32F435/device_support/at32f435_437_int.c **** }
 378              		.loc 1 179 1 view .LVU50
 379 000a 08BD     		pop	{r3, pc}
 380              	.L26:
 176:HW_Lib/AT32F435/device_support/at32f435_437_int.c ****     dma_flag_clear(DMA1_FDT1_FLAG);
 381              		.loc 1 176 5 is_stmt 1 view .LVU51
 382 000c 0348     		ldr	r0, .L27
 383 000e FFF7FEFF 		bl	BspDMA_Irq_Callback
 384              	.LVL17:
 177:HW_Lib/AT32F435/device_support/at32f435_437_int.c ****   }
 385              		.loc 1 177 5 view .LVU52
 386 0012 0220     		movs	r0, #2
 387 0014 FFF7FEFF 		bl	dma_flag_clear
 388              	.LVL18:
 389              		.loc 1 179 1 is_stmt 0 view .LVU53
 390 0018 F7E7     		b	.L23
 391              	.L28:
 392 001a 00BF     		.align	2
 393              	.L27:
 394 001c 08640240 		.word	1073898504
 395              		.cfi_endproc
 396              	.LFE151:
 398              		.section	.text.DMA1_Channel2_IRQHandler,"ax",%progbits
 399              		.align	1
 400              		.global	DMA1_Channel2_IRQHandler
 401              		.syntax unified
 402              		.thumb
 403              		.thumb_func
 405              	DMA1_Channel2_IRQHandler:
 406              	.LFB152:
 180:HW_Lib/AT32F435/device_support/at32f435_437_int.c **** 
 181:HW_Lib/AT32F435/device_support/at32f435_437_int.c **** void DMA1_Channel2_IRQHandler(void)
 182:HW_Lib/AT32F435/device_support/at32f435_437_int.c **** {
 407              		.loc 1 182 1 is_stmt 1 view -0
 408              		.cfi_startproc
 409              		@ args = 0, pretend = 0, frame = 0
 410              		@ frame_needed = 0, uses_anonymous_args = 0
ARM GAS  C:\Users\8bit\AppData\Local\Temp\ccAkw5rm.s 			page 11


 411 0000 08B5     		push	{r3, lr}
 412              	.LCFI8:
 413              		.cfi_def_cfa_offset 8
 414              		.cfi_offset 3, -8
 415              		.cfi_offset 14, -4
 183:HW_Lib/AT32F435/device_support/at32f435_437_int.c ****   if(dma_flag_get(DMA1_FDT2_FLAG))
 416              		.loc 1 183 3 view .LVU55
 417              		.loc 1 183 6 is_stmt 0 view .LVU56
 418 0002 2020     		movs	r0, #32
 419 0004 FFF7FEFF 		bl	dma_flag_get
 420              	.LVL19:
 421              		.loc 1 183 5 view .LVU57
 422 0008 00B9     		cbnz	r0, .L32
 423              	.L29:
 184:HW_Lib/AT32F435/device_support/at32f435_437_int.c ****   {
 185:HW_Lib/AT32F435/device_support/at32f435_437_int.c ****     BspDMA_Irq_Callback((void *)DMA1_CHANNEL2);
 186:HW_Lib/AT32F435/device_support/at32f435_437_int.c ****     dma_flag_clear(DMA1_FDT2_FLAG);
 187:HW_Lib/AT32F435/device_support/at32f435_437_int.c ****   }
 188:HW_Lib/AT32F435/device_support/at32f435_437_int.c **** }
 424              		.loc 1 188 1 view .LVU58
 425 000a 08BD     		pop	{r3, pc}
 426              	.L32:
 185:HW_Lib/AT32F435/device_support/at32f435_437_int.c ****     dma_flag_clear(DMA1_FDT2_FLAG);
 427              		.loc 1 185 5 is_stmt 1 view .LVU59
 428 000c 0348     		ldr	r0, .L33
 429 000e FFF7FEFF 		bl	BspDMA_Irq_Callback
 430              	.LVL20:
 186:HW_Lib/AT32F435/device_support/at32f435_437_int.c ****   }
 431              		.loc 1 186 5 view .LVU60
 432 0012 2020     		movs	r0, #32
 433 0014 FFF7FEFF 		bl	dma_flag_clear
 434              	.LVL21:
 435              		.loc 1 188 1 is_stmt 0 view .LVU61
 436 0018 F7E7     		b	.L29
 437              	.L34:
 438 001a 00BF     		.align	2
 439              	.L33:
 440 001c 1C640240 		.word	1073898524
 441              		.cfi_endproc
 442              	.LFE152:
 444              		.section	.text.DMA1_Channel3_IRQHandler,"ax",%progbits
 445              		.align	1
 446              		.global	DMA1_Channel3_IRQHandler
 447              		.syntax unified
 448              		.thumb
 449              		.thumb_func
 451              	DMA1_Channel3_IRQHandler:
 452              	.LFB153:
 189:HW_Lib/AT32F435/device_support/at32f435_437_int.c **** 
 190:HW_Lib/AT32F435/device_support/at32f435_437_int.c **** void DMA1_Channel3_IRQHandler(void)
 191:HW_Lib/AT32F435/device_support/at32f435_437_int.c **** {
 453              		.loc 1 191 1 is_stmt 1 view -0
 454              		.cfi_startproc
 455              		@ args = 0, pretend = 0, frame = 0
 456              		@ frame_needed = 0, uses_anonymous_args = 0
 457 0000 08B5     		push	{r3, lr}
 458              	.LCFI9:
ARM GAS  C:\Users\8bit\AppData\Local\Temp\ccAkw5rm.s 			page 12


 459              		.cfi_def_cfa_offset 8
 460              		.cfi_offset 3, -8
 461              		.cfi_offset 14, -4
 192:HW_Lib/AT32F435/device_support/at32f435_437_int.c ****   if(dma_flag_get(DMA1_FDT3_FLAG))
 462              		.loc 1 192 3 view .LVU63
 463              		.loc 1 192 6 is_stmt 0 view .LVU64
 464 0002 4FF40070 		mov	r0, #512
 465 0006 FFF7FEFF 		bl	dma_flag_get
 466              	.LVL22:
 467              		.loc 1 192 5 view .LVU65
 468 000a 00B9     		cbnz	r0, .L38
 469              	.L35:
 193:HW_Lib/AT32F435/device_support/at32f435_437_int.c ****   {
 194:HW_Lib/AT32F435/device_support/at32f435_437_int.c ****     BspDMA_Irq_Callback((void *)DMA1_CHANNEL3);
 195:HW_Lib/AT32F435/device_support/at32f435_437_int.c ****     dma_flag_clear(DMA1_FDT3_FLAG);
 196:HW_Lib/AT32F435/device_support/at32f435_437_int.c ****   }
 197:HW_Lib/AT32F435/device_support/at32f435_437_int.c **** }
 470              		.loc 1 197 1 view .LVU66
 471 000c 08BD     		pop	{r3, pc}
 472              	.L38:
 194:HW_Lib/AT32F435/device_support/at32f435_437_int.c ****     dma_flag_clear(DMA1_FDT3_FLAG);
 473              		.loc 1 194 5 is_stmt 1 view .LVU67
 474 000e 0448     		ldr	r0, .L39
 475 0010 FFF7FEFF 		bl	BspDMA_Irq_Callback
 476              	.LVL23:
 195:HW_Lib/AT32F435/device_support/at32f435_437_int.c ****   }
 477              		.loc 1 195 5 view .LVU68
 478 0014 4FF40070 		mov	r0, #512
 479 0018 FFF7FEFF 		bl	dma_flag_clear
 480              	.LVL24:
 481              		.loc 1 197 1 is_stmt 0 view .LVU69
 482 001c F6E7     		b	.L35
 483              	.L40:
 484 001e 00BF     		.align	2
 485              	.L39:
 486 0020 30640240 		.word	1073898544
 487              		.cfi_endproc
 488              	.LFE153:
 490              		.section	.text.DMA1_Channel4_IRQHandler,"ax",%progbits
 491              		.align	1
 492              		.global	DMA1_Channel4_IRQHandler
 493              		.syntax unified
 494              		.thumb
 495              		.thumb_func
 497              	DMA1_Channel4_IRQHandler:
 498              	.LFB154:
 198:HW_Lib/AT32F435/device_support/at32f435_437_int.c **** 
 199:HW_Lib/AT32F435/device_support/at32f435_437_int.c **** void DMA1_Channel4_IRQHandler(void)
 200:HW_Lib/AT32F435/device_support/at32f435_437_int.c **** {
 499              		.loc 1 200 1 is_stmt 1 view -0
 500              		.cfi_startproc
 501              		@ args = 0, pretend = 0, frame = 0
 502              		@ frame_needed = 0, uses_anonymous_args = 0
 503 0000 08B5     		push	{r3, lr}
 504              	.LCFI10:
 505              		.cfi_def_cfa_offset 8
 506              		.cfi_offset 3, -8
ARM GAS  C:\Users\8bit\AppData\Local\Temp\ccAkw5rm.s 			page 13


 507              		.cfi_offset 14, -4
 201:HW_Lib/AT32F435/device_support/at32f435_437_int.c ****   if(dma_flag_get(DMA1_FDT4_FLAG))
 508              		.loc 1 201 3 view .LVU71
 509              		.loc 1 201 6 is_stmt 0 view .LVU72
 510 0002 4FF40050 		mov	r0, #8192
 511 0006 FFF7FEFF 		bl	dma_flag_get
 512              	.LVL25:
 513              		.loc 1 201 5 view .LVU73
 514 000a 00B9     		cbnz	r0, .L44
 515              	.L41:
 202:HW_Lib/AT32F435/device_support/at32f435_437_int.c ****   {
 203:HW_Lib/AT32F435/device_support/at32f435_437_int.c ****     BspDMA_Irq_Callback((void *)DMA1_CHANNEL4);
 204:HW_Lib/AT32F435/device_support/at32f435_437_int.c ****     dma_flag_clear(DMA1_FDT4_FLAG);
 205:HW_Lib/AT32F435/device_support/at32f435_437_int.c ****   }
 206:HW_Lib/AT32F435/device_support/at32f435_437_int.c **** }
 516              		.loc 1 206 1 view .LVU74
 517 000c 08BD     		pop	{r3, pc}
 518              	.L44:
 203:HW_Lib/AT32F435/device_support/at32f435_437_int.c ****     dma_flag_clear(DMA1_FDT4_FLAG);
 519              		.loc 1 203 5 is_stmt 1 view .LVU75
 520 000e 0448     		ldr	r0, .L45
 521 0010 FFF7FEFF 		bl	BspDMA_Irq_Callback
 522              	.LVL26:
 204:HW_Lib/AT32F435/device_support/at32f435_437_int.c ****   }
 523              		.loc 1 204 5 view .LVU76
 524 0014 4FF40050 		mov	r0, #8192
 525 0018 FFF7FEFF 		bl	dma_flag_clear
 526              	.LVL27:
 527              		.loc 1 206 1 is_stmt 0 view .LVU77
 528 001c F6E7     		b	.L41
 529              	.L46:
 530 001e 00BF     		.align	2
 531              	.L45:
 532 0020 44640240 		.word	1073898564
 533              		.cfi_endproc
 534              	.LFE154:
 536              		.section	.text.DMA1_Channel5_IRQHandler,"ax",%progbits
 537              		.align	1
 538              		.global	DMA1_Channel5_IRQHandler
 539              		.syntax unified
 540              		.thumb
 541              		.thumb_func
 543              	DMA1_Channel5_IRQHandler:
 544              	.LFB155:
 207:HW_Lib/AT32F435/device_support/at32f435_437_int.c **** 
 208:HW_Lib/AT32F435/device_support/at32f435_437_int.c **** void DMA1_Channel5_IRQHandler(void)
 209:HW_Lib/AT32F435/device_support/at32f435_437_int.c **** {
 545              		.loc 1 209 1 is_stmt 1 view -0
 546              		.cfi_startproc
 547              		@ args = 0, pretend = 0, frame = 0
 548              		@ frame_needed = 0, uses_anonymous_args = 0
 549 0000 08B5     		push	{r3, lr}
 550              	.LCFI11:
 551              		.cfi_def_cfa_offset 8
 552              		.cfi_offset 3, -8
 553              		.cfi_offset 14, -4
 210:HW_Lib/AT32F435/device_support/at32f435_437_int.c ****   if(dma_flag_get(DMA1_FDT5_FLAG))
ARM GAS  C:\Users\8bit\AppData\Local\Temp\ccAkw5rm.s 			page 14


 554              		.loc 1 210 3 view .LVU79
 555              		.loc 1 210 6 is_stmt 0 view .LVU80
 556 0002 4FF40030 		mov	r0, #131072
 557 0006 FFF7FEFF 		bl	dma_flag_get
 558              	.LVL28:
 559              		.loc 1 210 5 view .LVU81
 560 000a 00B9     		cbnz	r0, .L50
 561              	.L47:
 211:HW_Lib/AT32F435/device_support/at32f435_437_int.c ****   {
 212:HW_Lib/AT32F435/device_support/at32f435_437_int.c ****     BspDMA_Irq_Callback((void *)DMA1_CHANNEL5);
 213:HW_Lib/AT32F435/device_support/at32f435_437_int.c ****     dma_flag_clear(DMA1_FDT5_FLAG);
 214:HW_Lib/AT32F435/device_support/at32f435_437_int.c ****   }
 215:HW_Lib/AT32F435/device_support/at32f435_437_int.c **** }
 562              		.loc 1 215 1 view .LVU82
 563 000c 08BD     		pop	{r3, pc}
 564              	.L50:
 212:HW_Lib/AT32F435/device_support/at32f435_437_int.c ****     dma_flag_clear(DMA1_FDT5_FLAG);
 565              		.loc 1 212 5 is_stmt 1 view .LVU83
 566 000e 0448     		ldr	r0, .L51
 567 0010 FFF7FEFF 		bl	BspDMA_Irq_Callback
 568              	.LVL29:
 213:HW_Lib/AT32F435/device_support/at32f435_437_int.c ****   }
 569              		.loc 1 213 5 view .LVU84
 570 0014 4FF40030 		mov	r0, #131072
 571 0018 FFF7FEFF 		bl	dma_flag_clear
 572              	.LVL30:
 573              		.loc 1 215 1 is_stmt 0 view .LVU85
 574 001c F6E7     		b	.L47
 575              	.L52:
 576 001e 00BF     		.align	2
 577              	.L51:
 578 0020 58640240 		.word	1073898584
 579              		.cfi_endproc
 580              	.LFE155:
 582              		.section	.text.DMA1_Channel6_IRQHandler,"ax",%progbits
 583              		.align	1
 584              		.global	DMA1_Channel6_IRQHandler
 585              		.syntax unified
 586              		.thumb
 587              		.thumb_func
 589              	DMA1_Channel6_IRQHandler:
 590              	.LFB156:
 216:HW_Lib/AT32F435/device_support/at32f435_437_int.c **** 
 217:HW_Lib/AT32F435/device_support/at32f435_437_int.c **** void DMA1_Channel6_IRQHandler(void)
 218:HW_Lib/AT32F435/device_support/at32f435_437_int.c **** {
 591              		.loc 1 218 1 is_stmt 1 view -0
 592              		.cfi_startproc
 593              		@ args = 0, pretend = 0, frame = 0
 594              		@ frame_needed = 0, uses_anonymous_args = 0
 595 0000 08B5     		push	{r3, lr}
 596              	.LCFI12:
 597              		.cfi_def_cfa_offset 8
 598              		.cfi_offset 3, -8
 599              		.cfi_offset 14, -4
 219:HW_Lib/AT32F435/device_support/at32f435_437_int.c ****   if(dma_flag_get(DMA1_FDT6_FLAG))
 600              		.loc 1 219 3 view .LVU87
 601              		.loc 1 219 6 is_stmt 0 view .LVU88
ARM GAS  C:\Users\8bit\AppData\Local\Temp\ccAkw5rm.s 			page 15


 602 0002 4FF40010 		mov	r0, #2097152
 603 0006 FFF7FEFF 		bl	dma_flag_get
 604              	.LVL31:
 605              		.loc 1 219 5 view .LVU89
 606 000a 00B9     		cbnz	r0, .L56
 607              	.L53:
 220:HW_Lib/AT32F435/device_support/at32f435_437_int.c ****   {
 221:HW_Lib/AT32F435/device_support/at32f435_437_int.c ****     BspDMA_Irq_Callback((void *)DMA1_CHANNEL6);
 222:HW_Lib/AT32F435/device_support/at32f435_437_int.c ****     dma_flag_clear(DMA1_FDT6_FLAG);
 223:HW_Lib/AT32F435/device_support/at32f435_437_int.c ****   }
 224:HW_Lib/AT32F435/device_support/at32f435_437_int.c **** }
 608              		.loc 1 224 1 view .LVU90
 609 000c 08BD     		pop	{r3, pc}
 610              	.L56:
 221:HW_Lib/AT32F435/device_support/at32f435_437_int.c ****     dma_flag_clear(DMA1_FDT6_FLAG);
 611              		.loc 1 221 5 is_stmt 1 view .LVU91
 612 000e 0448     		ldr	r0, .L57
 613 0010 FFF7FEFF 		bl	BspDMA_Irq_Callback
 614              	.LVL32:
 222:HW_Lib/AT32F435/device_support/at32f435_437_int.c ****   }
 615              		.loc 1 222 5 view .LVU92
 616 0014 4FF40010 		mov	r0, #2097152
 617 0018 FFF7FEFF 		bl	dma_flag_clear
 618              	.LVL33:
 619              		.loc 1 224 1 is_stmt 0 view .LVU93
 620 001c F6E7     		b	.L53
 621              	.L58:
 622 001e 00BF     		.align	2
 623              	.L57:
 624 0020 6C640240 		.word	1073898604
 625              		.cfi_endproc
 626              	.LFE156:
 628              		.section	.text.DMA1_Channel7_IRQHandler,"ax",%progbits
 629              		.align	1
 630              		.global	DMA1_Channel7_IRQHandler
 631              		.syntax unified
 632              		.thumb
 633              		.thumb_func
 635              	DMA1_Channel7_IRQHandler:
 636              	.LFB157:
 225:HW_Lib/AT32F435/device_support/at32f435_437_int.c **** 
 226:HW_Lib/AT32F435/device_support/at32f435_437_int.c **** void DMA1_Channel7_IRQHandler(void)
 227:HW_Lib/AT32F435/device_support/at32f435_437_int.c **** {
 637              		.loc 1 227 1 is_stmt 1 view -0
 638              		.cfi_startproc
 639              		@ args = 0, pretend = 0, frame = 0
 640              		@ frame_needed = 0, uses_anonymous_args = 0
 641 0000 08B5     		push	{r3, lr}
 642              	.LCFI13:
 643              		.cfi_def_cfa_offset 8
 644              		.cfi_offset 3, -8
 645              		.cfi_offset 14, -4
 228:HW_Lib/AT32F435/device_support/at32f435_437_int.c ****   if(dma_flag_get(DMA1_FDT7_FLAG))
 646              		.loc 1 228 3 view .LVU95
 647              		.loc 1 228 6 is_stmt 0 view .LVU96
 648 0002 4FF00070 		mov	r0, #33554432
 649 0006 FFF7FEFF 		bl	dma_flag_get
ARM GAS  C:\Users\8bit\AppData\Local\Temp\ccAkw5rm.s 			page 16


 650              	.LVL34:
 651              		.loc 1 228 5 view .LVU97
 652 000a 00B9     		cbnz	r0, .L62
 653              	.L59:
 229:HW_Lib/AT32F435/device_support/at32f435_437_int.c ****   {
 230:HW_Lib/AT32F435/device_support/at32f435_437_int.c ****     BspDMA_Irq_Callback((void *)DMA1_CHANNEL7);
 231:HW_Lib/AT32F435/device_support/at32f435_437_int.c ****     dma_flag_clear(DMA1_FDT7_FLAG);
 232:HW_Lib/AT32F435/device_support/at32f435_437_int.c ****   }
 233:HW_Lib/AT32F435/device_support/at32f435_437_int.c **** }
 654              		.loc 1 233 1 view .LVU98
 655 000c 08BD     		pop	{r3, pc}
 656              	.L62:
 230:HW_Lib/AT32F435/device_support/at32f435_437_int.c ****     dma_flag_clear(DMA1_FDT7_FLAG);
 657              		.loc 1 230 5 is_stmt 1 view .LVU99
 658 000e 0448     		ldr	r0, .L63
 659 0010 FFF7FEFF 		bl	BspDMA_Irq_Callback
 660              	.LVL35:
 231:HW_Lib/AT32F435/device_support/at32f435_437_int.c ****   }
 661              		.loc 1 231 5 view .LVU100
 662 0014 4FF00070 		mov	r0, #33554432
 663 0018 FFF7FEFF 		bl	dma_flag_clear
 664              	.LVL36:
 665              		.loc 1 233 1 is_stmt 0 view .LVU101
 666 001c F6E7     		b	.L59
 667              	.L64:
 668 001e 00BF     		.align	2
 669              	.L63:
 670 0020 80640240 		.word	1073898624
 671              		.cfi_endproc
 672              	.LFE157:
 674              		.section	.text.DMA2_Channel1_IRQHandler,"ax",%progbits
 675              		.align	1
 676              		.global	DMA2_Channel1_IRQHandler
 677              		.syntax unified
 678              		.thumb
 679              		.thumb_func
 681              	DMA2_Channel1_IRQHandler:
 682              	.LFB158:
 234:HW_Lib/AT32F435/device_support/at32f435_437_int.c **** 
 235:HW_Lib/AT32F435/device_support/at32f435_437_int.c **** void DMA2_Channel1_IRQHandler(void)
 236:HW_Lib/AT32F435/device_support/at32f435_437_int.c **** {
 683              		.loc 1 236 1 is_stmt 1 view -0
 684              		.cfi_startproc
 685              		@ args = 0, pretend = 0, frame = 0
 686              		@ frame_needed = 0, uses_anonymous_args = 0
 687 0000 08B5     		push	{r3, lr}
 688              	.LCFI14:
 689              		.cfi_def_cfa_offset 8
 690              		.cfi_offset 3, -8
 691              		.cfi_offset 14, -4
 237:HW_Lib/AT32F435/device_support/at32f435_437_int.c ****   if(dma_flag_get(DMA2_FDT1_FLAG) != RESET)
 692              		.loc 1 237 3 view .LVU103
 693              		.loc 1 237 6 is_stmt 0 view .LVU104
 694 0002 0648     		ldr	r0, .L69
 695 0004 FFF7FEFF 		bl	dma_flag_get
 696              	.LVL37:
 697              		.loc 1 237 5 view .LVU105
ARM GAS  C:\Users\8bit\AppData\Local\Temp\ccAkw5rm.s 			page 17


 698 0008 00B9     		cbnz	r0, .L68
 699              	.L65:
 238:HW_Lib/AT32F435/device_support/at32f435_437_int.c ****   {
 239:HW_Lib/AT32F435/device_support/at32f435_437_int.c ****     BspDMA_Irq_Callback((void *)DMA2_CHANNEL1);
 240:HW_Lib/AT32F435/device_support/at32f435_437_int.c ****     dma_flag_clear(DMA2_FDT1_FLAG);
 241:HW_Lib/AT32F435/device_support/at32f435_437_int.c ****   }
 242:HW_Lib/AT32F435/device_support/at32f435_437_int.c **** }
 700              		.loc 1 242 1 view .LVU106
 701 000a 08BD     		pop	{r3, pc}
 702              	.L68:
 239:HW_Lib/AT32F435/device_support/at32f435_437_int.c ****     dma_flag_clear(DMA2_FDT1_FLAG);
 703              		.loc 1 239 5 is_stmt 1 view .LVU107
 704 000c 0448     		ldr	r0, .L69+4
 705 000e FFF7FEFF 		bl	BspDMA_Irq_Callback
 706              	.LVL38:
 240:HW_Lib/AT32F435/device_support/at32f435_437_int.c ****   }
 707              		.loc 1 240 5 view .LVU108
 708 0012 0248     		ldr	r0, .L69
 709 0014 FFF7FEFF 		bl	dma_flag_clear
 710              	.LVL39:
 711              		.loc 1 242 1 is_stmt 0 view .LVU109
 712 0018 F7E7     		b	.L65
 713              	.L70:
 714 001a 00BF     		.align	2
 715              	.L69:
 716 001c 02000010 		.word	268435458
 717 0020 08660240 		.word	1073899016
 718              		.cfi_endproc
 719              	.LFE158:
 721              		.section	.text.DMA2_Channel2_IRQHandler,"ax",%progbits
 722              		.align	1
 723              		.global	DMA2_Channel2_IRQHandler
 724              		.syntax unified
 725              		.thumb
 726              		.thumb_func
 728              	DMA2_Channel2_IRQHandler:
 729              	.LFB159:
 243:HW_Lib/AT32F435/device_support/at32f435_437_int.c **** 
 244:HW_Lib/AT32F435/device_support/at32f435_437_int.c **** void DMA2_Channel2_IRQHandler(void)
 245:HW_Lib/AT32F435/device_support/at32f435_437_int.c **** {
 730              		.loc 1 245 1 is_stmt 1 view -0
 731              		.cfi_startproc
 732              		@ args = 0, pretend = 0, frame = 0
 733              		@ frame_needed = 0, uses_anonymous_args = 0
 734 0000 08B5     		push	{r3, lr}
 735              	.LCFI15:
 736              		.cfi_def_cfa_offset 8
 737              		.cfi_offset 3, -8
 738              		.cfi_offset 14, -4
 246:HW_Lib/AT32F435/device_support/at32f435_437_int.c ****   if(dma_flag_get(DMA2_FDT2_FLAG) != RESET)
 739              		.loc 1 246 3 view .LVU111
 740              		.loc 1 246 6 is_stmt 0 view .LVU112
 741 0002 0648     		ldr	r0, .L75
 742 0004 FFF7FEFF 		bl	dma_flag_get
 743              	.LVL40:
 744              		.loc 1 246 5 view .LVU113
 745 0008 00B9     		cbnz	r0, .L74
ARM GAS  C:\Users\8bit\AppData\Local\Temp\ccAkw5rm.s 			page 18


 746              	.L71:
 247:HW_Lib/AT32F435/device_support/at32f435_437_int.c ****   {
 248:HW_Lib/AT32F435/device_support/at32f435_437_int.c ****     BspDMA_Irq_Callback((void *)DMA2_CHANNEL2);
 249:HW_Lib/AT32F435/device_support/at32f435_437_int.c ****     dma_flag_clear(DMA2_FDT2_FLAG);
 250:HW_Lib/AT32F435/device_support/at32f435_437_int.c ****   }
 251:HW_Lib/AT32F435/device_support/at32f435_437_int.c **** }
 747              		.loc 1 251 1 view .LVU114
 748 000a 08BD     		pop	{r3, pc}
 749              	.L74:
 248:HW_Lib/AT32F435/device_support/at32f435_437_int.c ****     dma_flag_clear(DMA2_FDT2_FLAG);
 750              		.loc 1 248 5 is_stmt 1 view .LVU115
 751 000c 0448     		ldr	r0, .L75+4
 752 000e FFF7FEFF 		bl	BspDMA_Irq_Callback
 753              	.LVL41:
 249:HW_Lib/AT32F435/device_support/at32f435_437_int.c ****   }
 754              		.loc 1 249 5 view .LVU116
 755 0012 0248     		ldr	r0, .L75
 756 0014 FFF7FEFF 		bl	dma_flag_clear
 757              	.LVL42:
 758              		.loc 1 251 1 is_stmt 0 view .LVU117
 759 0018 F7E7     		b	.L71
 760              	.L76:
 761 001a 00BF     		.align	2
 762              	.L75:
 763 001c 20000010 		.word	268435488
 764 0020 1C660240 		.word	1073899036
 765              		.cfi_endproc
 766              	.LFE159:
 768              		.section	.text.DMA2_Channel3_IRQHandler,"ax",%progbits
 769              		.align	1
 770              		.global	DMA2_Channel3_IRQHandler
 771              		.syntax unified
 772              		.thumb
 773              		.thumb_func
 775              	DMA2_Channel3_IRQHandler:
 776              	.LFB160:
 252:HW_Lib/AT32F435/device_support/at32f435_437_int.c **** 
 253:HW_Lib/AT32F435/device_support/at32f435_437_int.c **** void DMA2_Channel3_IRQHandler(void)
 254:HW_Lib/AT32F435/device_support/at32f435_437_int.c **** {
 777              		.loc 1 254 1 is_stmt 1 view -0
 778              		.cfi_startproc
 779              		@ args = 0, pretend = 0, frame = 0
 780              		@ frame_needed = 0, uses_anonymous_args = 0
 781 0000 08B5     		push	{r3, lr}
 782              	.LCFI16:
 783              		.cfi_def_cfa_offset 8
 784              		.cfi_offset 3, -8
 785              		.cfi_offset 14, -4
 255:HW_Lib/AT32F435/device_support/at32f435_437_int.c ****   if(dma_flag_get(DMA2_FDT3_FLAG) != RESET)
 786              		.loc 1 255 3 view .LVU119
 787              		.loc 1 255 6 is_stmt 0 view .LVU120
 788 0002 0648     		ldr	r0, .L81
 789 0004 FFF7FEFF 		bl	dma_flag_get
 790              	.LVL43:
 791              		.loc 1 255 5 view .LVU121
 792 0008 00B9     		cbnz	r0, .L80
 793              	.L77:
ARM GAS  C:\Users\8bit\AppData\Local\Temp\ccAkw5rm.s 			page 19


 256:HW_Lib/AT32F435/device_support/at32f435_437_int.c ****   {
 257:HW_Lib/AT32F435/device_support/at32f435_437_int.c ****     BspDMA_Irq_Callback((void *)DMA2_CHANNEL3);
 258:HW_Lib/AT32F435/device_support/at32f435_437_int.c ****     dma_flag_clear(DMA2_FDT3_FLAG);
 259:HW_Lib/AT32F435/device_support/at32f435_437_int.c ****   }
 260:HW_Lib/AT32F435/device_support/at32f435_437_int.c **** }
 794              		.loc 1 260 1 view .LVU122
 795 000a 08BD     		pop	{r3, pc}
 796              	.L80:
 257:HW_Lib/AT32F435/device_support/at32f435_437_int.c ****     dma_flag_clear(DMA2_FDT3_FLAG);
 797              		.loc 1 257 5 is_stmt 1 view .LVU123
 798 000c 0448     		ldr	r0, .L81+4
 799 000e FFF7FEFF 		bl	BspDMA_Irq_Callback
 800              	.LVL44:
 258:HW_Lib/AT32F435/device_support/at32f435_437_int.c ****   }
 801              		.loc 1 258 5 view .LVU124
 802 0012 0248     		ldr	r0, .L81
 803 0014 FFF7FEFF 		bl	dma_flag_clear
 804              	.LVL45:
 805              		.loc 1 260 1 is_stmt 0 view .LVU125
 806 0018 F7E7     		b	.L77
 807              	.L82:
 808 001a 00BF     		.align	2
 809              	.L81:
 810 001c 00020010 		.word	268435968
 811 0020 30660240 		.word	1073899056
 812              		.cfi_endproc
 813              	.LFE160:
 815              		.section	.text.DMA2_Channel4_IRQHandler,"ax",%progbits
 816              		.align	1
 817              		.global	DMA2_Channel4_IRQHandler
 818              		.syntax unified
 819              		.thumb
 820              		.thumb_func
 822              	DMA2_Channel4_IRQHandler:
 823              	.LFB161:
 261:HW_Lib/AT32F435/device_support/at32f435_437_int.c **** 
 262:HW_Lib/AT32F435/device_support/at32f435_437_int.c **** void DMA2_Channel4_IRQHandler(void)
 263:HW_Lib/AT32F435/device_support/at32f435_437_int.c **** {
 824              		.loc 1 263 1 is_stmt 1 view -0
 825              		.cfi_startproc
 826              		@ args = 0, pretend = 0, frame = 0
 827              		@ frame_needed = 0, uses_anonymous_args = 0
 828 0000 08B5     		push	{r3, lr}
 829              	.LCFI17:
 830              		.cfi_def_cfa_offset 8
 831              		.cfi_offset 3, -8
 832              		.cfi_offset 14, -4
 264:HW_Lib/AT32F435/device_support/at32f435_437_int.c ****   if(dma_flag_get(DMA2_FDT4_FLAG) != RESET)
 833              		.loc 1 264 3 view .LVU127
 834              		.loc 1 264 6 is_stmt 0 view .LVU128
 835 0002 0648     		ldr	r0, .L87
 836 0004 FFF7FEFF 		bl	dma_flag_get
 837              	.LVL46:
 838              		.loc 1 264 5 view .LVU129
 839 0008 00B9     		cbnz	r0, .L86
 840              	.L83:
 265:HW_Lib/AT32F435/device_support/at32f435_437_int.c ****   {
ARM GAS  C:\Users\8bit\AppData\Local\Temp\ccAkw5rm.s 			page 20


 266:HW_Lib/AT32F435/device_support/at32f435_437_int.c ****     BspDMA_Irq_Callback((void *)DMA2_CHANNEL4);
 267:HW_Lib/AT32F435/device_support/at32f435_437_int.c ****     dma_flag_clear(DMA2_FDT4_FLAG);
 268:HW_Lib/AT32F435/device_support/at32f435_437_int.c ****   }
 269:HW_Lib/AT32F435/device_support/at32f435_437_int.c **** }
 841              		.loc 1 269 1 view .LVU130
 842 000a 08BD     		pop	{r3, pc}
 843              	.L86:
 266:HW_Lib/AT32F435/device_support/at32f435_437_int.c ****     dma_flag_clear(DMA2_FDT4_FLAG);
 844              		.loc 1 266 5 is_stmt 1 view .LVU131
 845 000c 0448     		ldr	r0, .L87+4
 846 000e FFF7FEFF 		bl	BspDMA_Irq_Callback
 847              	.LVL47:
 267:HW_Lib/AT32F435/device_support/at32f435_437_int.c ****   }
 848              		.loc 1 267 5 view .LVU132
 849 0012 0248     		ldr	r0, .L87
 850 0014 FFF7FEFF 		bl	dma_flag_clear
 851              	.LVL48:
 852              		.loc 1 269 1 is_stmt 0 view .LVU133
 853 0018 F7E7     		b	.L83
 854              	.L88:
 855 001a 00BF     		.align	2
 856              	.L87:
 857 001c 00200010 		.word	268443648
 858 0020 44660240 		.word	1073899076
 859              		.cfi_endproc
 860              	.LFE161:
 862              		.section	.text.DMA2_Channel5_IRQHandler,"ax",%progbits
 863              		.align	1
 864              		.global	DMA2_Channel5_IRQHandler
 865              		.syntax unified
 866              		.thumb
 867              		.thumb_func
 869              	DMA2_Channel5_IRQHandler:
 870              	.LFB162:
 270:HW_Lib/AT32F435/device_support/at32f435_437_int.c **** 
 271:HW_Lib/AT32F435/device_support/at32f435_437_int.c **** void DMA2_Channel5_IRQHandler(void)
 272:HW_Lib/AT32F435/device_support/at32f435_437_int.c **** {
 871              		.loc 1 272 1 is_stmt 1 view -0
 872              		.cfi_startproc
 873              		@ args = 0, pretend = 0, frame = 0
 874              		@ frame_needed = 0, uses_anonymous_args = 0
 875 0000 08B5     		push	{r3, lr}
 876              	.LCFI18:
 877              		.cfi_def_cfa_offset 8
 878              		.cfi_offset 3, -8
 879              		.cfi_offset 14, -4
 273:HW_Lib/AT32F435/device_support/at32f435_437_int.c ****   if(dma_flag_get(DMA2_FDT5_FLAG) != RESET)
 880              		.loc 1 273 3 view .LVU135
 881              		.loc 1 273 6 is_stmt 0 view .LVU136
 882 0002 0648     		ldr	r0, .L93
 883 0004 FFF7FEFF 		bl	dma_flag_get
 884              	.LVL49:
 885              		.loc 1 273 5 view .LVU137
 886 0008 00B9     		cbnz	r0, .L92
 887              	.L89:
 274:HW_Lib/AT32F435/device_support/at32f435_437_int.c ****   {
 275:HW_Lib/AT32F435/device_support/at32f435_437_int.c ****     BspDMA_Irq_Callback((void *)DMA2_CHANNEL5);
ARM GAS  C:\Users\8bit\AppData\Local\Temp\ccAkw5rm.s 			page 21


 276:HW_Lib/AT32F435/device_support/at32f435_437_int.c ****     dma_flag_clear(DMA2_FDT5_FLAG);
 277:HW_Lib/AT32F435/device_support/at32f435_437_int.c ****   }
 278:HW_Lib/AT32F435/device_support/at32f435_437_int.c **** }
 888              		.loc 1 278 1 view .LVU138
 889 000a 08BD     		pop	{r3, pc}
 890              	.L92:
 275:HW_Lib/AT32F435/device_support/at32f435_437_int.c ****     dma_flag_clear(DMA2_FDT5_FLAG);
 891              		.loc 1 275 5 is_stmt 1 view .LVU139
 892 000c 0448     		ldr	r0, .L93+4
 893 000e FFF7FEFF 		bl	BspDMA_Irq_Callback
 894              	.LVL50:
 276:HW_Lib/AT32F435/device_support/at32f435_437_int.c ****   }
 895              		.loc 1 276 5 view .LVU140
 896 0012 0248     		ldr	r0, .L93
 897 0014 FFF7FEFF 		bl	dma_flag_clear
 898              	.LVL51:
 899              		.loc 1 278 1 is_stmt 0 view .LVU141
 900 0018 F7E7     		b	.L89
 901              	.L94:
 902 001a 00BF     		.align	2
 903              	.L93:
 904 001c 00000210 		.word	268566528
 905 0020 58660240 		.word	1073899096
 906              		.cfi_endproc
 907              	.LFE162:
 909              		.section	.text.DMA2_Channel6_IRQHandler,"ax",%progbits
 910              		.align	1
 911              		.global	DMA2_Channel6_IRQHandler
 912              		.syntax unified
 913              		.thumb
 914              		.thumb_func
 916              	DMA2_Channel6_IRQHandler:
 917              	.LFB163:
 279:HW_Lib/AT32F435/device_support/at32f435_437_int.c **** 
 280:HW_Lib/AT32F435/device_support/at32f435_437_int.c **** void DMA2_Channel6_IRQHandler(void)
 281:HW_Lib/AT32F435/device_support/at32f435_437_int.c **** {
 918              		.loc 1 281 1 is_stmt 1 view -0
 919              		.cfi_startproc
 920              		@ args = 0, pretend = 0, frame = 0
 921              		@ frame_needed = 0, uses_anonymous_args = 0
 922 0000 08B5     		push	{r3, lr}
 923              	.LCFI19:
 924              		.cfi_def_cfa_offset 8
 925              		.cfi_offset 3, -8
 926              		.cfi_offset 14, -4
 282:HW_Lib/AT32F435/device_support/at32f435_437_int.c ****   if(dma_flag_get(DMA2_FDT6_FLAG) != RESET)
 927              		.loc 1 282 3 view .LVU143
 928              		.loc 1 282 6 is_stmt 0 view .LVU144
 929 0002 4FF08150 		mov	r0, #270532608
 930 0006 FFF7FEFF 		bl	dma_flag_get
 931              	.LVL52:
 932              		.loc 1 282 5 view .LVU145
 933 000a 00B9     		cbnz	r0, .L98
 934              	.L95:
 283:HW_Lib/AT32F435/device_support/at32f435_437_int.c ****   {
 284:HW_Lib/AT32F435/device_support/at32f435_437_int.c ****     BspDMA_Irq_Callback((void *)DMA2_CHANNEL6);
 285:HW_Lib/AT32F435/device_support/at32f435_437_int.c ****     dma_flag_clear(DMA2_FDT6_FLAG);
ARM GAS  C:\Users\8bit\AppData\Local\Temp\ccAkw5rm.s 			page 22


 286:HW_Lib/AT32F435/device_support/at32f435_437_int.c ****   }
 287:HW_Lib/AT32F435/device_support/at32f435_437_int.c **** }
 935              		.loc 1 287 1 view .LVU146
 936 000c 08BD     		pop	{r3, pc}
 937              	.L98:
 284:HW_Lib/AT32F435/device_support/at32f435_437_int.c ****     dma_flag_clear(DMA2_FDT6_FLAG);
 938              		.loc 1 284 5 is_stmt 1 view .LVU147
 939 000e 0448     		ldr	r0, .L99
 940 0010 FFF7FEFF 		bl	BspDMA_Irq_Callback
 941              	.LVL53:
 285:HW_Lib/AT32F435/device_support/at32f435_437_int.c ****   }
 942              		.loc 1 285 5 view .LVU148
 943 0014 4FF08150 		mov	r0, #270532608
 944 0018 FFF7FEFF 		bl	dma_flag_clear
 945              	.LVL54:
 946              		.loc 1 287 1 is_stmt 0 view .LVU149
 947 001c F6E7     		b	.L95
 948              	.L100:
 949 001e 00BF     		.align	2
 950              	.L99:
 951 0020 6C660240 		.word	1073899116
 952              		.cfi_endproc
 953              	.LFE163:
 955              		.section	.text.DMA2_Channel7_IRQHandler,"ax",%progbits
 956              		.align	1
 957              		.global	DMA2_Channel7_IRQHandler
 958              		.syntax unified
 959              		.thumb
 960              		.thumb_func
 962              	DMA2_Channel7_IRQHandler:
 963              	.LFB164:
 288:HW_Lib/AT32F435/device_support/at32f435_437_int.c **** 
 289:HW_Lib/AT32F435/device_support/at32f435_437_int.c **** void DMA2_Channel7_IRQHandler(void)
 290:HW_Lib/AT32F435/device_support/at32f435_437_int.c **** {
 964              		.loc 1 290 1 is_stmt 1 view -0
 965              		.cfi_startproc
 966              		@ args = 0, pretend = 0, frame = 0
 967              		@ frame_needed = 0, uses_anonymous_args = 0
 968 0000 08B5     		push	{r3, lr}
 969              	.LCFI20:
 970              		.cfi_def_cfa_offset 8
 971              		.cfi_offset 3, -8
 972              		.cfi_offset 14, -4
 291:HW_Lib/AT32F435/device_support/at32f435_437_int.c ****   if(dma_flag_get(DMA2_FDT7_FLAG) != RESET)
 973              		.loc 1 291 3 view .LVU151
 974              		.loc 1 291 6 is_stmt 0 view .LVU152
 975 0002 4FF09050 		mov	r0, #301989888
 976 0006 FFF7FEFF 		bl	dma_flag_get
 977              	.LVL55:
 978              		.loc 1 291 5 view .LVU153
 979 000a 00B9     		cbnz	r0, .L104
 980              	.L101:
 292:HW_Lib/AT32F435/device_support/at32f435_437_int.c ****   {
 293:HW_Lib/AT32F435/device_support/at32f435_437_int.c ****     BspDMA_Pipe_Irq_Callback();
 294:HW_Lib/AT32F435/device_support/at32f435_437_int.c ****     dma_flag_clear(DMA2_FDT7_FLAG);
 295:HW_Lib/AT32F435/device_support/at32f435_437_int.c ****   }
 296:HW_Lib/AT32F435/device_support/at32f435_437_int.c **** }
ARM GAS  C:\Users\8bit\AppData\Local\Temp\ccAkw5rm.s 			page 23


 981              		.loc 1 296 1 view .LVU154
 982 000c 08BD     		pop	{r3, pc}
 983              	.L104:
 293:HW_Lib/AT32F435/device_support/at32f435_437_int.c ****     dma_flag_clear(DMA2_FDT7_FLAG);
 984              		.loc 1 293 5 is_stmt 1 view .LVU155
 985 000e FFF7FEFF 		bl	BspDMA_Pipe_Irq_Callback
 986              	.LVL56:
 294:HW_Lib/AT32F435/device_support/at32f435_437_int.c ****   }
 987              		.loc 1 294 5 view .LVU156
 988 0012 4FF09050 		mov	r0, #301989888
 989 0016 FFF7FEFF 		bl	dma_flag_clear
 990              	.LVL57:
 991              		.loc 1 296 1 is_stmt 0 view .LVU157
 992 001a F7E7     		b	.L101
 993              		.cfi_endproc
 994              	.LFE164:
 996              		.section	.text.USART1_IRQHandler,"ax",%progbits
 997              		.align	1
 998              		.global	USART1_IRQHandler
 999              		.syntax unified
 1000              		.thumb
 1001              		.thumb_func
 1003              	USART1_IRQHandler:
 1004              	.LFB165:
 297:HW_Lib/AT32F435/device_support/at32f435_437_int.c **** 
 298:HW_Lib/AT32F435/device_support/at32f435_437_int.c **** void USART1_IRQHandler(void)
 299:HW_Lib/AT32F435/device_support/at32f435_437_int.c **** {
 1005              		.loc 1 299 1 is_stmt 1 view -0
 1006              		.cfi_startproc
 1007              		@ args = 0, pretend = 0, frame = 0
 1008              		@ frame_needed = 0, uses_anonymous_args = 0
 1009 0000 10B5     		push	{r4, lr}
 1010              	.LCFI21:
 1011              		.cfi_def_cfa_offset 8
 1012              		.cfi_offset 4, -8
 1013              		.cfi_offset 14, -4
 300:HW_Lib/AT32F435/device_support/at32f435_437_int.c ****   if(usart_flag_get(USART1, USART_IDLEF_FLAG) != RESET)
 1014              		.loc 1 300 3 view .LVU159
 1015              		.loc 1 300 6 is_stmt 0 view .LVU160
 1016 0002 1021     		movs	r1, #16
 1017 0004 0D48     		ldr	r0, .L109
 1018 0006 FFF7FEFF 		bl	usart_flag_get
 1019              	.LVL58:
 1020              		.loc 1 300 5 view .LVU161
 1021 000a 40B1     		cbz	r0, .L106
 301:HW_Lib/AT32F435/device_support/at32f435_437_int.c ****   {
 302:HW_Lib/AT32F435/device_support/at32f435_437_int.c ****     BspUart_Irq_Callback(USART1);
 1022              		.loc 1 302 5 is_stmt 1 view .LVU162
 1023 000c 0B4C     		ldr	r4, .L109
 1024 000e 2046     		mov	r0, r4
 1025 0010 FFF7FEFF 		bl	BspUart_Irq_Callback
 1026              	.LVL59:
 303:HW_Lib/AT32F435/device_support/at32f435_437_int.c ****     usart_flag_clear(USART1, USART_IDLEF_FLAG);
 1027              		.loc 1 303 5 view .LVU163
 1028 0014 1021     		movs	r1, #16
 1029 0016 2046     		mov	r0, r4
 1030 0018 FFF7FEFF 		bl	usart_flag_clear
ARM GAS  C:\Users\8bit\AppData\Local\Temp\ccAkw5rm.s 			page 24


 1031              	.LVL60:
 1032              	.L105:
 304:HW_Lib/AT32F435/device_support/at32f435_437_int.c ****   }
 305:HW_Lib/AT32F435/device_support/at32f435_437_int.c ****   else if(usart_flag_get(USART1, USART_RDBF_FLAG) != RESET)
 306:HW_Lib/AT32F435/device_support/at32f435_437_int.c ****   {
 307:HW_Lib/AT32F435/device_support/at32f435_437_int.c ****     BspUart_Irq_Callback(USART1);
 308:HW_Lib/AT32F435/device_support/at32f435_437_int.c ****     usart_flag_clear(USART1, USART_RDBF_FLAG);
 309:HW_Lib/AT32F435/device_support/at32f435_437_int.c ****   }
 310:HW_Lib/AT32F435/device_support/at32f435_437_int.c **** }
 1033              		.loc 1 310 1 is_stmt 0 view .LVU164
 1034 001c 10BD     		pop	{r4, pc}
 1035              	.L106:
 305:HW_Lib/AT32F435/device_support/at32f435_437_int.c ****   {
 1036              		.loc 1 305 8 is_stmt 1 view .LVU165
 305:HW_Lib/AT32F435/device_support/at32f435_437_int.c ****   {
 1037              		.loc 1 305 11 is_stmt 0 view .LVU166
 1038 001e 2021     		movs	r1, #32
 1039 0020 0648     		ldr	r0, .L109
 1040 0022 FFF7FEFF 		bl	usart_flag_get
 1041              	.LVL61:
 305:HW_Lib/AT32F435/device_support/at32f435_437_int.c ****   {
 1042              		.loc 1 305 10 view .LVU167
 1043 0026 0028     		cmp	r0, #0
 1044 0028 F8D0     		beq	.L105
 307:HW_Lib/AT32F435/device_support/at32f435_437_int.c ****     usart_flag_clear(USART1, USART_RDBF_FLAG);
 1045              		.loc 1 307 5 is_stmt 1 view .LVU168
 1046 002a 044C     		ldr	r4, .L109
 1047 002c 2046     		mov	r0, r4
 1048 002e FFF7FEFF 		bl	BspUart_Irq_Callback
 1049              	.LVL62:
 308:HW_Lib/AT32F435/device_support/at32f435_437_int.c ****   }
 1050              		.loc 1 308 5 view .LVU169
 1051 0032 2021     		movs	r1, #32
 1052 0034 2046     		mov	r0, r4
 1053 0036 FFF7FEFF 		bl	usart_flag_clear
 1054              	.LVL63:
 1055              		.loc 1 310 1 is_stmt 0 view .LVU170
 1056 003a EFE7     		b	.L105
 1057              	.L110:
 1058              		.align	2
 1059              	.L109:
 1060 003c 00100140 		.word	1073811456
 1061              		.cfi_endproc
 1062              	.LFE165:
 1064              		.section	.text.USART2_IRQHandler,"ax",%progbits
 1065              		.align	1
 1066              		.global	USART2_IRQHandler
 1067              		.syntax unified
 1068              		.thumb
 1069              		.thumb_func
 1071              	USART2_IRQHandler:
 1072              	.LFB166:
 311:HW_Lib/AT32F435/device_support/at32f435_437_int.c **** 
 312:HW_Lib/AT32F435/device_support/at32f435_437_int.c **** void USART2_IRQHandler(void)
 313:HW_Lib/AT32F435/device_support/at32f435_437_int.c **** {
 1073              		.loc 1 313 1 is_stmt 1 view -0
 1074              		.cfi_startproc
ARM GAS  C:\Users\8bit\AppData\Local\Temp\ccAkw5rm.s 			page 25


 1075              		@ args = 0, pretend = 0, frame = 0
 1076              		@ frame_needed = 0, uses_anonymous_args = 0
 1077 0000 10B5     		push	{r4, lr}
 1078              	.LCFI22:
 1079              		.cfi_def_cfa_offset 8
 1080              		.cfi_offset 4, -8
 1081              		.cfi_offset 14, -4
 314:HW_Lib/AT32F435/device_support/at32f435_437_int.c ****   if(usart_flag_get(USART2, USART_IDLEF_FLAG) != RESET)
 1082              		.loc 1 314 3 view .LVU172
 1083              		.loc 1 314 6 is_stmt 0 view .LVU173
 1084 0002 1021     		movs	r1, #16
 1085 0004 0D48     		ldr	r0, .L115
 1086 0006 FFF7FEFF 		bl	usart_flag_get
 1087              	.LVL64:
 1088              		.loc 1 314 5 view .LVU174
 1089 000a 40B1     		cbz	r0, .L112
 315:HW_Lib/AT32F435/device_support/at32f435_437_int.c ****   {
 316:HW_Lib/AT32F435/device_support/at32f435_437_int.c ****     BspUart_Irq_Callback(USART2);
 1090              		.loc 1 316 5 is_stmt 1 view .LVU175
 1091 000c 0B4C     		ldr	r4, .L115
 1092 000e 2046     		mov	r0, r4
 1093 0010 FFF7FEFF 		bl	BspUart_Irq_Callback
 1094              	.LVL65:
 317:HW_Lib/AT32F435/device_support/at32f435_437_int.c ****     usart_flag_clear(USART2, USART_IDLEF_FLAG);
 1095              		.loc 1 317 5 view .LVU176
 1096 0014 1021     		movs	r1, #16
 1097 0016 2046     		mov	r0, r4
 1098 0018 FFF7FEFF 		bl	usart_flag_clear
 1099              	.LVL66:
 1100              	.L111:
 318:HW_Lib/AT32F435/device_support/at32f435_437_int.c ****   }
 319:HW_Lib/AT32F435/device_support/at32f435_437_int.c ****   else if(usart_flag_get(USART2, USART_RDBF_FLAG) != RESET)
 320:HW_Lib/AT32F435/device_support/at32f435_437_int.c ****   {
 321:HW_Lib/AT32F435/device_support/at32f435_437_int.c ****     BspUart_Irq_Callback(USART2);
 322:HW_Lib/AT32F435/device_support/at32f435_437_int.c ****     usart_flag_clear(USART2, USART_RDBF_FLAG);
 323:HW_Lib/AT32F435/device_support/at32f435_437_int.c ****   }
 324:HW_Lib/AT32F435/device_support/at32f435_437_int.c **** }
 1101              		.loc 1 324 1 is_stmt 0 view .LVU177
 1102 001c 10BD     		pop	{r4, pc}
 1103              	.L112:
 319:HW_Lib/AT32F435/device_support/at32f435_437_int.c ****   {
 1104              		.loc 1 319 8 is_stmt 1 view .LVU178
 319:HW_Lib/AT32F435/device_support/at32f435_437_int.c ****   {
 1105              		.loc 1 319 11 is_stmt 0 view .LVU179
 1106 001e 2021     		movs	r1, #32
 1107 0020 0648     		ldr	r0, .L115
 1108 0022 FFF7FEFF 		bl	usart_flag_get
 1109              	.LVL67:
 319:HW_Lib/AT32F435/device_support/at32f435_437_int.c ****   {
 1110              		.loc 1 319 10 view .LVU180
 1111 0026 0028     		cmp	r0, #0
 1112 0028 F8D0     		beq	.L111
 321:HW_Lib/AT32F435/device_support/at32f435_437_int.c ****     usart_flag_clear(USART2, USART_RDBF_FLAG);
 1113              		.loc 1 321 5 is_stmt 1 view .LVU181
 1114 002a 044C     		ldr	r4, .L115
 1115 002c 2046     		mov	r0, r4
 1116 002e FFF7FEFF 		bl	BspUart_Irq_Callback
ARM GAS  C:\Users\8bit\AppData\Local\Temp\ccAkw5rm.s 			page 26


 1117              	.LVL68:
 322:HW_Lib/AT32F435/device_support/at32f435_437_int.c ****   }
 1118              		.loc 1 322 5 view .LVU182
 1119 0032 2021     		movs	r1, #32
 1120 0034 2046     		mov	r0, r4
 1121 0036 FFF7FEFF 		bl	usart_flag_clear
 1122              	.LVL69:
 1123              		.loc 1 324 1 is_stmt 0 view .LVU183
 1124 003a EFE7     		b	.L111
 1125              	.L116:
 1126              		.align	2
 1127              	.L115:
 1128 003c 00440040 		.word	1073759232
 1129              		.cfi_endproc
 1130              	.LFE166:
 1132              		.section	.text.USART3_IRQHandler,"ax",%progbits
 1133              		.align	1
 1134              		.global	USART3_IRQHandler
 1135              		.syntax unified
 1136              		.thumb
 1137              		.thumb_func
 1139              	USART3_IRQHandler:
 1140              	.LFB167:
 325:HW_Lib/AT32F435/device_support/at32f435_437_int.c **** 
 326:HW_Lib/AT32F435/device_support/at32f435_437_int.c **** void USART3_IRQHandler(void)
 327:HW_Lib/AT32F435/device_support/at32f435_437_int.c **** {
 1141              		.loc 1 327 1 is_stmt 1 view -0
 1142              		.cfi_startproc
 1143              		@ args = 0, pretend = 0, frame = 0
 1144              		@ frame_needed = 0, uses_anonymous_args = 0
 1145 0000 10B5     		push	{r4, lr}
 1146              	.LCFI23:
 1147              		.cfi_def_cfa_offset 8
 1148              		.cfi_offset 4, -8
 1149              		.cfi_offset 14, -4
 328:HW_Lib/AT32F435/device_support/at32f435_437_int.c ****   if(usart_flag_get(USART3, USART_IDLEF_FLAG) != RESET)
 1150              		.loc 1 328 3 view .LVU185
 1151              		.loc 1 328 6 is_stmt 0 view .LVU186
 1152 0002 1021     		movs	r1, #16
 1153 0004 0D48     		ldr	r0, .L121
 1154 0006 FFF7FEFF 		bl	usart_flag_get
 1155              	.LVL70:
 1156              		.loc 1 328 5 view .LVU187
 1157 000a 40B1     		cbz	r0, .L118
 329:HW_Lib/AT32F435/device_support/at32f435_437_int.c ****   {
 330:HW_Lib/AT32F435/device_support/at32f435_437_int.c ****     BspUart_Irq_Callback(USART3);
 1158              		.loc 1 330 5 is_stmt 1 view .LVU188
 1159 000c 0B4C     		ldr	r4, .L121
 1160 000e 2046     		mov	r0, r4
 1161 0010 FFF7FEFF 		bl	BspUart_Irq_Callback
 1162              	.LVL71:
 331:HW_Lib/AT32F435/device_support/at32f435_437_int.c ****     usart_flag_clear(USART3, USART_IDLEF_FLAG);
 1163              		.loc 1 331 5 view .LVU189
 1164 0014 1021     		movs	r1, #16
 1165 0016 2046     		mov	r0, r4
 1166 0018 FFF7FEFF 		bl	usart_flag_clear
 1167              	.LVL72:
ARM GAS  C:\Users\8bit\AppData\Local\Temp\ccAkw5rm.s 			page 27


 1168              	.L117:
 332:HW_Lib/AT32F435/device_support/at32f435_437_int.c ****   }
 333:HW_Lib/AT32F435/device_support/at32f435_437_int.c ****   else if(usart_flag_get(USART3, USART_RDBF_FLAG) != RESET)
 334:HW_Lib/AT32F435/device_support/at32f435_437_int.c ****   {
 335:HW_Lib/AT32F435/device_support/at32f435_437_int.c ****     BspUart_Irq_Callback(USART3);
 336:HW_Lib/AT32F435/device_support/at32f435_437_int.c ****     usart_flag_clear(USART3, USART_RDBF_FLAG);
 337:HW_Lib/AT32F435/device_support/at32f435_437_int.c ****   }
 338:HW_Lib/AT32F435/device_support/at32f435_437_int.c **** }
 1169              		.loc 1 338 1 is_stmt 0 view .LVU190
 1170 001c 10BD     		pop	{r4, pc}
 1171              	.L118:
 333:HW_Lib/AT32F435/device_support/at32f435_437_int.c ****   {
 1172              		.loc 1 333 8 is_stmt 1 view .LVU191
 333:HW_Lib/AT32F435/device_support/at32f435_437_int.c ****   {
 1173              		.loc 1 333 11 is_stmt 0 view .LVU192
 1174 001e 2021     		movs	r1, #32
 1175 0020 0648     		ldr	r0, .L121
 1176 0022 FFF7FEFF 		bl	usart_flag_get
 1177              	.LVL73:
 333:HW_Lib/AT32F435/device_support/at32f435_437_int.c ****   {
 1178              		.loc 1 333 10 view .LVU193
 1179 0026 0028     		cmp	r0, #0
 1180 0028 F8D0     		beq	.L117
 335:HW_Lib/AT32F435/device_support/at32f435_437_int.c ****     usart_flag_clear(USART3, USART_RDBF_FLAG);
 1181              		.loc 1 335 5 is_stmt 1 view .LVU194
 1182 002a 044C     		ldr	r4, .L121
 1183 002c 2046     		mov	r0, r4
 1184 002e FFF7FEFF 		bl	BspUart_Irq_Callback
 1185              	.LVL74:
 336:HW_Lib/AT32F435/device_support/at32f435_437_int.c ****   }
 1186              		.loc 1 336 5 view .LVU195
 1187 0032 2021     		movs	r1, #32
 1188 0034 2046     		mov	r0, r4
 1189 0036 FFF7FEFF 		bl	usart_flag_clear
 1190              	.LVL75:
 1191              		.loc 1 338 1 is_stmt 0 view .LVU196
 1192 003a EFE7     		b	.L117
 1193              	.L122:
 1194              		.align	2
 1195              	.L121:
 1196 003c 00480040 		.word	1073760256
 1197              		.cfi_endproc
 1198              	.LFE167:
 1200              		.section	.text.UART4_IRQHandler,"ax",%progbits
 1201              		.align	1
 1202              		.global	UART4_IRQHandler
 1203              		.syntax unified
 1204              		.thumb
 1205              		.thumb_func
 1207              	UART4_IRQHandler:
 1208              	.LFB168:
 339:HW_Lib/AT32F435/device_support/at32f435_437_int.c **** 
 340:HW_Lib/AT32F435/device_support/at32f435_437_int.c **** void UART4_IRQHandler(void)
 341:HW_Lib/AT32F435/device_support/at32f435_437_int.c **** {
 1209              		.loc 1 341 1 is_stmt 1 view -0
 1210              		.cfi_startproc
 1211              		@ args = 0, pretend = 0, frame = 0
ARM GAS  C:\Users\8bit\AppData\Local\Temp\ccAkw5rm.s 			page 28


 1212              		@ frame_needed = 0, uses_anonymous_args = 0
 1213 0000 10B5     		push	{r4, lr}
 1214              	.LCFI24:
 1215              		.cfi_def_cfa_offset 8
 1216              		.cfi_offset 4, -8
 1217              		.cfi_offset 14, -4
 342:HW_Lib/AT32F435/device_support/at32f435_437_int.c ****   if(usart_flag_get(UART4, USART_IDLEF_FLAG) != RESET)
 1218              		.loc 1 342 3 view .LVU198
 1219              		.loc 1 342 6 is_stmt 0 view .LVU199
 1220 0002 1021     		movs	r1, #16
 1221 0004 0D48     		ldr	r0, .L127
 1222 0006 FFF7FEFF 		bl	usart_flag_get
 1223              	.LVL76:
 1224              		.loc 1 342 5 view .LVU200
 1225 000a 40B1     		cbz	r0, .L124
 343:HW_Lib/AT32F435/device_support/at32f435_437_int.c ****   {
 344:HW_Lib/AT32F435/device_support/at32f435_437_int.c ****     BspUart_Irq_Callback(UART4);
 1226              		.loc 1 344 5 is_stmt 1 view .LVU201
 1227 000c 0B4C     		ldr	r4, .L127
 1228 000e 2046     		mov	r0, r4
 1229 0010 FFF7FEFF 		bl	BspUart_Irq_Callback
 1230              	.LVL77:
 345:HW_Lib/AT32F435/device_support/at32f435_437_int.c ****     usart_flag_clear(UART4, USART_IDLEF_FLAG);
 1231              		.loc 1 345 5 view .LVU202
 1232 0014 1021     		movs	r1, #16
 1233 0016 2046     		mov	r0, r4
 1234 0018 FFF7FEFF 		bl	usart_flag_clear
 1235              	.LVL78:
 1236              	.L123:
 346:HW_Lib/AT32F435/device_support/at32f435_437_int.c ****   }
 347:HW_Lib/AT32F435/device_support/at32f435_437_int.c ****   else if(usart_flag_get(UART4, USART_RDBF_FLAG) != RESET)
 348:HW_Lib/AT32F435/device_support/at32f435_437_int.c ****   {
 349:HW_Lib/AT32F435/device_support/at32f435_437_int.c ****     BspUart_Irq_Callback(UART4);
 350:HW_Lib/AT32F435/device_support/at32f435_437_int.c ****     usart_flag_clear(UART4, USART_RDBF_FLAG);
 351:HW_Lib/AT32F435/device_support/at32f435_437_int.c ****   }
 352:HW_Lib/AT32F435/device_support/at32f435_437_int.c **** }
 1237              		.loc 1 352 1 is_stmt 0 view .LVU203
 1238 001c 10BD     		pop	{r4, pc}
 1239              	.L124:
 347:HW_Lib/AT32F435/device_support/at32f435_437_int.c ****   {
 1240              		.loc 1 347 8 is_stmt 1 view .LVU204
 347:HW_Lib/AT32F435/device_support/at32f435_437_int.c ****   {
 1241              		.loc 1 347 11 is_stmt 0 view .LVU205
 1242 001e 2021     		movs	r1, #32
 1243 0020 0648     		ldr	r0, .L127
 1244 0022 FFF7FEFF 		bl	usart_flag_get
 1245              	.LVL79:
 347:HW_Lib/AT32F435/device_support/at32f435_437_int.c ****   {
 1246              		.loc 1 347 10 view .LVU206
 1247 0026 0028     		cmp	r0, #0
 1248 0028 F8D0     		beq	.L123
 349:HW_Lib/AT32F435/device_support/at32f435_437_int.c ****     usart_flag_clear(UART4, USART_RDBF_FLAG);
 1249              		.loc 1 349 5 is_stmt 1 view .LVU207
 1250 002a 044C     		ldr	r4, .L127
 1251 002c 2046     		mov	r0, r4
 1252 002e FFF7FEFF 		bl	BspUart_Irq_Callback
 1253              	.LVL80:
ARM GAS  C:\Users\8bit\AppData\Local\Temp\ccAkw5rm.s 			page 29


 350:HW_Lib/AT32F435/device_support/at32f435_437_int.c ****   }
 1254              		.loc 1 350 5 view .LVU208
 1255 0032 2021     		movs	r1, #32
 1256 0034 2046     		mov	r0, r4
 1257 0036 FFF7FEFF 		bl	usart_flag_clear
 1258              	.LVL81:
 1259              		.loc 1 352 1 is_stmt 0 view .LVU209
 1260 003a EFE7     		b	.L123
 1261              	.L128:
 1262              		.align	2
 1263              	.L127:
 1264 003c 004C0040 		.word	1073761280
 1265              		.cfi_endproc
 1266              	.LFE168:
 1268              		.section	.text.UART5_IRQHandler,"ax",%progbits
 1269              		.align	1
 1270              		.global	UART5_IRQHandler
 1271              		.syntax unified
 1272              		.thumb
 1273              		.thumb_func
 1275              	UART5_IRQHandler:
 1276              	.LFB169:
 353:HW_Lib/AT32F435/device_support/at32f435_437_int.c **** 
 354:HW_Lib/AT32F435/device_support/at32f435_437_int.c **** void UART5_IRQHandler(void)
 355:HW_Lib/AT32F435/device_support/at32f435_437_int.c **** {
 1277              		.loc 1 355 1 is_stmt 1 view -0
 1278              		.cfi_startproc
 1279              		@ args = 0, pretend = 0, frame = 0
 1280              		@ frame_needed = 0, uses_anonymous_args = 0
 1281 0000 10B5     		push	{r4, lr}
 1282              	.LCFI25:
 1283              		.cfi_def_cfa_offset 8
 1284              		.cfi_offset 4, -8
 1285              		.cfi_offset 14, -4
 356:HW_Lib/AT32F435/device_support/at32f435_437_int.c ****   if(usart_flag_get(UART5, USART_IDLEF_FLAG) != RESET)
 1286              		.loc 1 356 3 view .LVU211
 1287              		.loc 1 356 6 is_stmt 0 view .LVU212
 1288 0002 1021     		movs	r1, #16
 1289 0004 0D48     		ldr	r0, .L133
 1290 0006 FFF7FEFF 		bl	usart_flag_get
 1291              	.LVL82:
 1292              		.loc 1 356 5 view .LVU213
 1293 000a 40B1     		cbz	r0, .L130
 357:HW_Lib/AT32F435/device_support/at32f435_437_int.c ****   {
 358:HW_Lib/AT32F435/device_support/at32f435_437_int.c ****     BspUart_Irq_Callback(UART5);
 1294              		.loc 1 358 5 is_stmt 1 view .LVU214
 1295 000c 0B4C     		ldr	r4, .L133
 1296 000e 2046     		mov	r0, r4
 1297 0010 FFF7FEFF 		bl	BspUart_Irq_Callback
 1298              	.LVL83:
 359:HW_Lib/AT32F435/device_support/at32f435_437_int.c ****     usart_flag_clear(UART5, USART_IDLEF_FLAG);
 1299              		.loc 1 359 5 view .LVU215
 1300 0014 1021     		movs	r1, #16
 1301 0016 2046     		mov	r0, r4
 1302 0018 FFF7FEFF 		bl	usart_flag_clear
 1303              	.LVL84:
 1304              	.L129:
ARM GAS  C:\Users\8bit\AppData\Local\Temp\ccAkw5rm.s 			page 30


 360:HW_Lib/AT32F435/device_support/at32f435_437_int.c ****   }
 361:HW_Lib/AT32F435/device_support/at32f435_437_int.c ****   else if(usart_flag_get(UART5, USART_RDBF_FLAG) != RESET)
 362:HW_Lib/AT32F435/device_support/at32f435_437_int.c ****   {
 363:HW_Lib/AT32F435/device_support/at32f435_437_int.c ****     BspUart_Irq_Callback(UART5);
 364:HW_Lib/AT32F435/device_support/at32f435_437_int.c ****     usart_flag_clear(UART5, USART_RDBF_FLAG);
 365:HW_Lib/AT32F435/device_support/at32f435_437_int.c ****   }
 366:HW_Lib/AT32F435/device_support/at32f435_437_int.c **** }
 1305              		.loc 1 366 1 is_stmt 0 view .LVU216
 1306 001c 10BD     		pop	{r4, pc}
 1307              	.L130:
 361:HW_Lib/AT32F435/device_support/at32f435_437_int.c ****   {
 1308              		.loc 1 361 8 is_stmt 1 view .LVU217
 361:HW_Lib/AT32F435/device_support/at32f435_437_int.c ****   {
 1309              		.loc 1 361 11 is_stmt 0 view .LVU218
 1310 001e 2021     		movs	r1, #32
 1311 0020 0648     		ldr	r0, .L133
 1312 0022 FFF7FEFF 		bl	usart_flag_get
 1313              	.LVL85:
 361:HW_Lib/AT32F435/device_support/at32f435_437_int.c ****   {
 1314              		.loc 1 361 10 view .LVU219
 1315 0026 0028     		cmp	r0, #0
 1316 0028 F8D0     		beq	.L129
 363:HW_Lib/AT32F435/device_support/at32f435_437_int.c ****     usart_flag_clear(UART5, USART_RDBF_FLAG);
 1317              		.loc 1 363 5 is_stmt 1 view .LVU220
 1318 002a 044C     		ldr	r4, .L133
 1319 002c 2046     		mov	r0, r4
 1320 002e FFF7FEFF 		bl	BspUart_Irq_Callback
 1321              	.LVL86:
 364:HW_Lib/AT32F435/device_support/at32f435_437_int.c ****   }
 1322              		.loc 1 364 5 view .LVU221
 1323 0032 2021     		movs	r1, #32
 1324 0034 2046     		mov	r0, r4
 1325 0036 FFF7FEFF 		bl	usart_flag_clear
 1326              	.LVL87:
 1327              		.loc 1 366 1 is_stmt 0 view .LVU222
 1328 003a EFE7     		b	.L129
 1329              	.L134:
 1330              		.align	2
 1331              	.L133:
 1332 003c 00500040 		.word	1073762304
 1333              		.cfi_endproc
 1334              	.LFE169:
 1336              		.section	.text.USART6_IRQHandler,"ax",%progbits
 1337              		.align	1
 1338              		.global	USART6_IRQHandler
 1339              		.syntax unified
 1340              		.thumb
 1341              		.thumb_func
 1343              	USART6_IRQHandler:
 1344              	.LFB170:
 367:HW_Lib/AT32F435/device_support/at32f435_437_int.c **** 
 368:HW_Lib/AT32F435/device_support/at32f435_437_int.c **** void USART6_IRQHandler(void)
 369:HW_Lib/AT32F435/device_support/at32f435_437_int.c **** {
 1345              		.loc 1 369 1 is_stmt 1 view -0
 1346              		.cfi_startproc
 1347              		@ args = 0, pretend = 0, frame = 0
 1348              		@ frame_needed = 0, uses_anonymous_args = 0
ARM GAS  C:\Users\8bit\AppData\Local\Temp\ccAkw5rm.s 			page 31


 1349 0000 10B5     		push	{r4, lr}
 1350              	.LCFI26:
 1351              		.cfi_def_cfa_offset 8
 1352              		.cfi_offset 4, -8
 1353              		.cfi_offset 14, -4
 370:HW_Lib/AT32F435/device_support/at32f435_437_int.c ****   if(usart_flag_get(USART6, USART_IDLEF_FLAG) != RESET)
 1354              		.loc 1 370 3 view .LVU224
 1355              		.loc 1 370 6 is_stmt 0 view .LVU225
 1356 0002 1021     		movs	r1, #16
 1357 0004 0D48     		ldr	r0, .L139
 1358 0006 FFF7FEFF 		bl	usart_flag_get
 1359              	.LVL88:
 1360              		.loc 1 370 5 view .LVU226
 1361 000a 40B1     		cbz	r0, .L136
 371:HW_Lib/AT32F435/device_support/at32f435_437_int.c ****   {
 372:HW_Lib/AT32F435/device_support/at32f435_437_int.c ****     BspUart_Irq_Callback(USART6);
 1362              		.loc 1 372 5 is_stmt 1 view .LVU227
 1363 000c 0B4C     		ldr	r4, .L139
 1364 000e 2046     		mov	r0, r4
 1365 0010 FFF7FEFF 		bl	BspUart_Irq_Callback
 1366              	.LVL89:
 373:HW_Lib/AT32F435/device_support/at32f435_437_int.c ****     usart_flag_clear(USART6, USART_IDLEF_FLAG);
 1367              		.loc 1 373 5 view .LVU228
 1368 0014 1021     		movs	r1, #16
 1369 0016 2046     		mov	r0, r4
 1370 0018 FFF7FEFF 		bl	usart_flag_clear
 1371              	.LVL90:
 1372              	.L135:
 374:HW_Lib/AT32F435/device_support/at32f435_437_int.c ****   }
 375:HW_Lib/AT32F435/device_support/at32f435_437_int.c ****   else if(usart_flag_get(USART6, USART_RDBF_FLAG) != RESET)
 376:HW_Lib/AT32F435/device_support/at32f435_437_int.c ****   {
 377:HW_Lib/AT32F435/device_support/at32f435_437_int.c ****     BspUart_Irq_Callback(USART6);
 378:HW_Lib/AT32F435/device_support/at32f435_437_int.c ****     usart_flag_clear(USART6, USART_RDBF_FLAG);
 379:HW_Lib/AT32F435/device_support/at32f435_437_int.c ****   }
 380:HW_Lib/AT32F435/device_support/at32f435_437_int.c **** }
 1373              		.loc 1 380 1 is_stmt 0 view .LVU229
 1374 001c 10BD     		pop	{r4, pc}
 1375              	.L136:
 375:HW_Lib/AT32F435/device_support/at32f435_437_int.c ****   {
 1376              		.loc 1 375 8 is_stmt 1 view .LVU230
 375:HW_Lib/AT32F435/device_support/at32f435_437_int.c ****   {
 1377              		.loc 1 375 11 is_stmt 0 view .LVU231
 1378 001e 2021     		movs	r1, #32
 1379 0020 0648     		ldr	r0, .L139
 1380 0022 FFF7FEFF 		bl	usart_flag_get
 1381              	.LVL91:
 375:HW_Lib/AT32F435/device_support/at32f435_437_int.c ****   {
 1382              		.loc 1 375 10 view .LVU232
 1383 0026 0028     		cmp	r0, #0
 1384 0028 F8D0     		beq	.L135
 377:HW_Lib/AT32F435/device_support/at32f435_437_int.c ****     usart_flag_clear(USART6, USART_RDBF_FLAG);
 1385              		.loc 1 377 5 is_stmt 1 view .LVU233
 1386 002a 044C     		ldr	r4, .L139
 1387 002c 2046     		mov	r0, r4
 1388 002e FFF7FEFF 		bl	BspUart_Irq_Callback
 1389              	.LVL92:
 378:HW_Lib/AT32F435/device_support/at32f435_437_int.c ****   }
ARM GAS  C:\Users\8bit\AppData\Local\Temp\ccAkw5rm.s 			page 32


 1390              		.loc 1 378 5 view .LVU234
 1391 0032 2021     		movs	r1, #32
 1392 0034 2046     		mov	r0, r4
 1393 0036 FFF7FEFF 		bl	usart_flag_clear
 1394              	.LVL93:
 1395              		.loc 1 380 1 is_stmt 0 view .LVU235
 1396 003a EFE7     		b	.L135
 1397              	.L140:
 1398              		.align	2
 1399              	.L139:
 1400 003c 00140140 		.word	1073812480
 1401              		.cfi_endproc
 1402              	.LFE170:
 1404              		.section	.text.UART7_IRQHandler,"ax",%progbits
 1405              		.align	1
 1406              		.global	UART7_IRQHandler
 1407              		.syntax unified
 1408              		.thumb
 1409              		.thumb_func
 1411              	UART7_IRQHandler:
 1412              	.LFB171:
 381:HW_Lib/AT32F435/device_support/at32f435_437_int.c **** 
 382:HW_Lib/AT32F435/device_support/at32f435_437_int.c **** void UART7_IRQHandler(void)
 383:HW_Lib/AT32F435/device_support/at32f435_437_int.c **** {
 1413              		.loc 1 383 1 is_stmt 1 view -0
 1414              		.cfi_startproc
 1415              		@ args = 0, pretend = 0, frame = 0
 1416              		@ frame_needed = 0, uses_anonymous_args = 0
 1417 0000 10B5     		push	{r4, lr}
 1418              	.LCFI27:
 1419              		.cfi_def_cfa_offset 8
 1420              		.cfi_offset 4, -8
 1421              		.cfi_offset 14, -4
 384:HW_Lib/AT32F435/device_support/at32f435_437_int.c ****   if(usart_flag_get(UART7, USART_IDLEF_FLAG) != RESET)
 1422              		.loc 1 384 3 view .LVU237
 1423              		.loc 1 384 6 is_stmt 0 view .LVU238
 1424 0002 1021     		movs	r1, #16
 1425 0004 0D48     		ldr	r0, .L145
 1426 0006 FFF7FEFF 		bl	usart_flag_get
 1427              	.LVL94:
 1428              		.loc 1 384 5 view .LVU239
 1429 000a 40B1     		cbz	r0, .L142
 385:HW_Lib/AT32F435/device_support/at32f435_437_int.c ****   {
 386:HW_Lib/AT32F435/device_support/at32f435_437_int.c ****     BspUart_Irq_Callback(UART7);
 1430              		.loc 1 386 5 is_stmt 1 view .LVU240
 1431 000c 0B4C     		ldr	r4, .L145
 1432 000e 2046     		mov	r0, r4
 1433 0010 FFF7FEFF 		bl	BspUart_Irq_Callback
 1434              	.LVL95:
 387:HW_Lib/AT32F435/device_support/at32f435_437_int.c ****     usart_flag_clear(UART7, USART_IDLEF_FLAG);
 1435              		.loc 1 387 5 view .LVU241
 1436 0014 1021     		movs	r1, #16
 1437 0016 2046     		mov	r0, r4
 1438 0018 FFF7FEFF 		bl	usart_flag_clear
 1439              	.LVL96:
 1440              	.L141:
 388:HW_Lib/AT32F435/device_support/at32f435_437_int.c ****   }
ARM GAS  C:\Users\8bit\AppData\Local\Temp\ccAkw5rm.s 			page 33


 389:HW_Lib/AT32F435/device_support/at32f435_437_int.c ****   else if(usart_flag_get(UART7, USART_RDBF_FLAG) != RESET)
 390:HW_Lib/AT32F435/device_support/at32f435_437_int.c ****   {
 391:HW_Lib/AT32F435/device_support/at32f435_437_int.c ****     BspUart_Irq_Callback(UART7);
 392:HW_Lib/AT32F435/device_support/at32f435_437_int.c ****     usart_flag_clear(UART7, USART_RDBF_FLAG);
 393:HW_Lib/AT32F435/device_support/at32f435_437_int.c ****   }
 394:HW_Lib/AT32F435/device_support/at32f435_437_int.c **** }
 1441              		.loc 1 394 1 is_stmt 0 view .LVU242
 1442 001c 10BD     		pop	{r4, pc}
 1443              	.L142:
 389:HW_Lib/AT32F435/device_support/at32f435_437_int.c ****   {
 1444              		.loc 1 389 8 is_stmt 1 view .LVU243
 389:HW_Lib/AT32F435/device_support/at32f435_437_int.c ****   {
 1445              		.loc 1 389 11 is_stmt 0 view .LVU244
 1446 001e 2021     		movs	r1, #32
 1447 0020 0648     		ldr	r0, .L145
 1448 0022 FFF7FEFF 		bl	usart_flag_get
 1449              	.LVL97:
 389:HW_Lib/AT32F435/device_support/at32f435_437_int.c ****   {
 1450              		.loc 1 389 10 view .LVU245
 1451 0026 0028     		cmp	r0, #0
 1452 0028 F8D0     		beq	.L141
 391:HW_Lib/AT32F435/device_support/at32f435_437_int.c ****     usart_flag_clear(UART7, USART_RDBF_FLAG);
 1453              		.loc 1 391 5 is_stmt 1 view .LVU246
 1454 002a 044C     		ldr	r4, .L145
 1455 002c 2046     		mov	r0, r4
 1456 002e FFF7FEFF 		bl	BspUart_Irq_Callback
 1457              	.LVL98:
 392:HW_Lib/AT32F435/device_support/at32f435_437_int.c ****   }
 1458              		.loc 1 392 5 view .LVU247
 1459 0032 2021     		movs	r1, #32
 1460 0034 2046     		mov	r0, r4
 1461 0036 FFF7FEFF 		bl	usart_flag_clear
 1462              	.LVL99:
 1463              		.loc 1 394 1 is_stmt 0 view .LVU248
 1464 003a EFE7     		b	.L141
 1465              	.L146:
 1466              		.align	2
 1467              	.L145:
 1468 003c 00780040 		.word	1073772544
 1469              		.cfi_endproc
 1470              	.LFE171:
 1472              		.section	.text.UART8_IRQHandler,"ax",%progbits
 1473              		.align	1
 1474              		.global	UART8_IRQHandler
 1475              		.syntax unified
 1476              		.thumb
 1477              		.thumb_func
 1479              	UART8_IRQHandler:
 1480              	.LFB172:
 395:HW_Lib/AT32F435/device_support/at32f435_437_int.c **** 
 396:HW_Lib/AT32F435/device_support/at32f435_437_int.c **** void UART8_IRQHandler(void)
 397:HW_Lib/AT32F435/device_support/at32f435_437_int.c **** {
 1481              		.loc 1 397 1 is_stmt 1 view -0
 1482              		.cfi_startproc
 1483              		@ args = 0, pretend = 0, frame = 0
 1484              		@ frame_needed = 0, uses_anonymous_args = 0
 1485 0000 10B5     		push	{r4, lr}
ARM GAS  C:\Users\8bit\AppData\Local\Temp\ccAkw5rm.s 			page 34


 1486              	.LCFI28:
 1487              		.cfi_def_cfa_offset 8
 1488              		.cfi_offset 4, -8
 1489              		.cfi_offset 14, -4
 398:HW_Lib/AT32F435/device_support/at32f435_437_int.c ****   if(usart_flag_get(UART8, USART_IDLEF_FLAG) != RESET)
 1490              		.loc 1 398 3 view .LVU250
 1491              		.loc 1 398 6 is_stmt 0 view .LVU251
 1492 0002 1021     		movs	r1, #16
 1493 0004 0D48     		ldr	r0, .L151
 1494 0006 FFF7FEFF 		bl	usart_flag_get
 1495              	.LVL100:
 1496              		.loc 1 398 5 view .LVU252
 1497 000a 40B1     		cbz	r0, .L148
 399:HW_Lib/AT32F435/device_support/at32f435_437_int.c ****   {
 400:HW_Lib/AT32F435/device_support/at32f435_437_int.c ****     BspUart_Irq_Callback(UART8);
 1498              		.loc 1 400 5 is_stmt 1 view .LVU253
 1499 000c 0B4C     		ldr	r4, .L151
 1500 000e 2046     		mov	r0, r4
 1501 0010 FFF7FEFF 		bl	BspUart_Irq_Callback
 1502              	.LVL101:
 401:HW_Lib/AT32F435/device_support/at32f435_437_int.c ****     usart_flag_clear(UART8, USART_IDLEF_FLAG);
 1503              		.loc 1 401 5 view .LVU254
 1504 0014 1021     		movs	r1, #16
 1505 0016 2046     		mov	r0, r4
 1506 0018 FFF7FEFF 		bl	usart_flag_clear
 1507              	.LVL102:
 1508              	.L147:
 402:HW_Lib/AT32F435/device_support/at32f435_437_int.c ****   }
 403:HW_Lib/AT32F435/device_support/at32f435_437_int.c ****   else if(usart_flag_get(UART8, USART_RDBF_FLAG) != RESET)
 404:HW_Lib/AT32F435/device_support/at32f435_437_int.c ****   {
 405:HW_Lib/AT32F435/device_support/at32f435_437_int.c ****     BspUart_Irq_Callback(UART8);
 406:HW_Lib/AT32F435/device_support/at32f435_437_int.c ****     usart_flag_clear(UART8, USART_RDBF_FLAG);
 407:HW_Lib/AT32F435/device_support/at32f435_437_int.c ****   }
 408:HW_Lib/AT32F435/device_support/at32f435_437_int.c **** }
 1509              		.loc 1 408 1 is_stmt 0 view .LVU255
 1510 001c 10BD     		pop	{r4, pc}
 1511              	.L148:
 403:HW_Lib/AT32F435/device_support/at32f435_437_int.c ****   {
 1512              		.loc 1 403 8 is_stmt 1 view .LVU256
 403:HW_Lib/AT32F435/device_support/at32f435_437_int.c ****   {
 1513              		.loc 1 403 11 is_stmt 0 view .LVU257
 1514 001e 2021     		movs	r1, #32
 1515 0020 0648     		ldr	r0, .L151
 1516 0022 FFF7FEFF 		bl	usart_flag_get
 1517              	.LVL103:
 403:HW_Lib/AT32F435/device_support/at32f435_437_int.c ****   {
 1518              		.loc 1 403 10 view .LVU258
 1519 0026 0028     		cmp	r0, #0
 1520 0028 F8D0     		beq	.L147
 405:HW_Lib/AT32F435/device_support/at32f435_437_int.c ****     usart_flag_clear(UART8, USART_RDBF_FLAG);
 1521              		.loc 1 405 5 is_stmt 1 view .LVU259
 1522 002a 044C     		ldr	r4, .L151
 1523 002c 2046     		mov	r0, r4
 1524 002e FFF7FEFF 		bl	BspUart_Irq_Callback
 1525              	.LVL104:
 406:HW_Lib/AT32F435/device_support/at32f435_437_int.c ****   }
 1526              		.loc 1 406 5 view .LVU260
ARM GAS  C:\Users\8bit\AppData\Local\Temp\ccAkw5rm.s 			page 35


 1527 0032 2021     		movs	r1, #32
 1528 0034 2046     		mov	r0, r4
 1529 0036 FFF7FEFF 		bl	usart_flag_clear
 1530              	.LVL105:
 1531              		.loc 1 408 1 is_stmt 0 view .LVU261
 1532 003a EFE7     		b	.L147
 1533              	.L152:
 1534              		.align	2
 1535              	.L151:
 1536 003c 007C0040 		.word	1073773568
 1537              		.cfi_endproc
 1538              	.LFE172:
 1540              		.section	.text.OTGFS1_IRQHandler,"ax",%progbits
 1541              		.align	1
 1542              		.global	OTGFS1_IRQHandler
 1543              		.syntax unified
 1544              		.thumb
 1545              		.thumb_func
 1547              	OTGFS1_IRQHandler:
 1548              	.LFB173:
 409:HW_Lib/AT32F435/device_support/at32f435_437_int.c **** 
 410:HW_Lib/AT32F435/device_support/at32f435_437_int.c **** void OTGFS1_IRQHandler(void)
 411:HW_Lib/AT32F435/device_support/at32f435_437_int.c **** {
 1549              		.loc 1 411 1 is_stmt 1 view -0
 1550              		.cfi_startproc
 1551              		@ args = 0, pretend = 0, frame = 0
 1552              		@ frame_needed = 0, uses_anonymous_args = 0
 1553 0000 08B5     		push	{r3, lr}
 1554              	.LCFI29:
 1555              		.cfi_def_cfa_offset 8
 1556              		.cfi_offset 3, -8
 1557              		.cfi_offset 14, -4
 412:HW_Lib/AT32F435/device_support/at32f435_437_int.c ****   BspUSB_Irq_Callback();
 1558              		.loc 1 412 3 view .LVU263
 1559 0002 FFF7FEFF 		bl	BspUSB_Irq_Callback
 1560              	.LVL106:
 413:HW_Lib/AT32F435/device_support/at32f435_437_int.c **** }
 1561              		.loc 1 413 1 is_stmt 0 view .LVU264
 1562 0006 08BD     		pop	{r3, pc}
 1563              		.cfi_endproc
 1564              	.LFE173:
 1566              		.section	.text.SysTick_Handler,"ax",%progbits
 1567              		.align	1
 1568              		.global	SysTick_Handler
 1569              		.syntax unified
 1570              		.thumb
 1571              		.thumb_func
 1573              	SysTick_Handler:
 1574              	.LFB174:
 414:HW_Lib/AT32F435/device_support/at32f435_437_int.c **** 
 415:HW_Lib/AT32F435/device_support/at32f435_437_int.c **** /**
 416:HW_Lib/AT32F435/device_support/at32f435_437_int.c ****   * @brief  this function handles pendsv_handler exception.
 417:HW_Lib/AT32F435/device_support/at32f435_437_int.c ****   * @param  none
 418:HW_Lib/AT32F435/device_support/at32f435_437_int.c ****   * @retval none
 419:HW_Lib/AT32F435/device_support/at32f435_437_int.c ****   */
 420:HW_Lib/AT32F435/device_support/at32f435_437_int.c **** //void PendSV_Handler(void)
 421:HW_Lib/AT32F435/device_support/at32f435_437_int.c **** //{
ARM GAS  C:\Users\8bit\AppData\Local\Temp\ccAkw5rm.s 			page 36


 422:HW_Lib/AT32F435/device_support/at32f435_437_int.c **** //}
 423:HW_Lib/AT32F435/device_support/at32f435_437_int.c **** 
 424:HW_Lib/AT32F435/device_support/at32f435_437_int.c **** /**
 425:HW_Lib/AT32F435/device_support/at32f435_437_int.c ****   * @brief  this function handles systick handler.
 426:HW_Lib/AT32F435/device_support/at32f435_437_int.c ****   * @param  none
 427:HW_Lib/AT32F435/device_support/at32f435_437_int.c ****   * @retval none
 428:HW_Lib/AT32F435/device_support/at32f435_437_int.c ****   */
 429:HW_Lib/AT32F435/device_support/at32f435_437_int.c **** void SysTick_Handler(void)
 430:HW_Lib/AT32F435/device_support/at32f435_437_int.c **** {
 1575              		.loc 1 430 1 is_stmt 1 view -0
 1576              		.cfi_startproc
 1577              		@ args = 0, pretend = 0, frame = 0
 1578              		@ frame_needed = 0, uses_anonymous_args = 0
 1579              		@ link register save eliminated.
 431:HW_Lib/AT32F435/device_support/at32f435_437_int.c **** 
 432:HW_Lib/AT32F435/device_support/at32f435_437_int.c **** }
 1580              		.loc 1 432 1 view .LVU266
 1581 0000 7047     		bx	lr
 1582              		.cfi_endproc
 1583              	.LFE174:
 1585              		.section	.text.TMR20_OVF_IRQHandler,"ax",%progbits
 1586              		.align	1
 1587              		.global	TMR20_OVF_IRQHandler
 1588              		.syntax unified
 1589              		.thumb
 1590              		.thumb_func
 1592              	TMR20_OVF_IRQHandler:
 1593              	.LFB175:
 433:HW_Lib/AT32F435/device_support/at32f435_437_int.c **** 
 434:HW_Lib/AT32F435/device_support/at32f435_437_int.c **** /* os timer */
 435:HW_Lib/AT32F435/device_support/at32f435_437_int.c **** void TMR20_OVF_IRQHandler(void)
 436:HW_Lib/AT32F435/device_support/at32f435_437_int.c **** {
 1594              		.loc 1 436 1 view -0
 1595              		.cfi_startproc
 1596              		@ args = 0, pretend = 0, frame = 0
 1597              		@ frame_needed = 0, uses_anonymous_args = 0
 1598 0000 08B5     		push	{r3, lr}
 1599              	.LCFI30:
 1600              		.cfi_def_cfa_offset 8
 1601              		.cfi_offset 3, -8
 1602              		.cfi_offset 14, -4
 437:HW_Lib/AT32F435/device_support/at32f435_437_int.c ****   if(tmr_flag_get(TMR20, TMR_OVF_FLAG) == SET)
 1603              		.loc 1 437 3 view .LVU268
 1604              		.loc 1 437 6 is_stmt 0 view .LVU269
 1605 0002 0121     		movs	r1, #1
 1606 0004 0948     		ldr	r0, .L162
 1607 0006 FFF7FEFF 		bl	tmr_flag_get
 1608              	.LVL107:
 1609              		.loc 1 437 5 view .LVU270
 1610 000a 0128     		cmp	r0, #1
 1611 000c 00D0     		beq	.L160
 1612              	.L156:
 438:HW_Lib/AT32F435/device_support/at32f435_437_int.c ****   {
 439:HW_Lib/AT32F435/device_support/at32f435_437_int.c **** #if (INCLUDE_xTaskGetSchedulerState == 1 )
 440:HW_Lib/AT32F435/device_support/at32f435_437_int.c ****     if (xTaskGetSchedulerState() != taskSCHEDULER_NOT_STARTED)
 441:HW_Lib/AT32F435/device_support/at32f435_437_int.c ****     {
 442:HW_Lib/AT32F435/device_support/at32f435_437_int.c **** #endif /* INCLUDE_xTaskGetSchedulerState */
ARM GAS  C:\Users\8bit\AppData\Local\Temp\ccAkw5rm.s 			page 37


 443:HW_Lib/AT32F435/device_support/at32f435_437_int.c ****       xPortSysTickHandler();
 444:HW_Lib/AT32F435/device_support/at32f435_437_int.c **** #if (INCLUDE_xTaskGetSchedulerState == 1 )
 445:HW_Lib/AT32F435/device_support/at32f435_437_int.c ****     }
 446:HW_Lib/AT32F435/device_support/at32f435_437_int.c **** #endif /* INCLUDE_xTaskGetSchedulerState */
 447:HW_Lib/AT32F435/device_support/at32f435_437_int.c **** 
 448:HW_Lib/AT32F435/device_support/at32f435_437_int.c ****     /* increase tick for bsp time out compare */
 449:HW_Lib/AT32F435/device_support/at32f435_437_int.c ****     System_Tick();
 450:HW_Lib/AT32F435/device_support/at32f435_437_int.c **** 
 451:HW_Lib/AT32F435/device_support/at32f435_437_int.c ****     tmr_flag_clear(TMR20, TMR_OVF_FLAG);
 452:HW_Lib/AT32F435/device_support/at32f435_437_int.c ****   }
 453:HW_Lib/AT32F435/device_support/at32f435_437_int.c **** }
 1613              		.loc 1 453 1 view .LVU271
 1614 000e 08BD     		pop	{r3, pc}
 1615              	.L160:
 440:HW_Lib/AT32F435/device_support/at32f435_437_int.c ****     {
 1616              		.loc 1 440 5 is_stmt 1 view .LVU272
 440:HW_Lib/AT32F435/device_support/at32f435_437_int.c ****     {
 1617              		.loc 1 440 9 is_stmt 0 view .LVU273
 1618 0010 FFF7FEFF 		bl	xTaskGetSchedulerState
 1619              	.LVL108:
 440:HW_Lib/AT32F435/device_support/at32f435_437_int.c ****     {
 1620              		.loc 1 440 8 view .LVU274
 1621 0014 0128     		cmp	r0, #1
 1622 0016 06D1     		bne	.L161
 1623              	.L158:
 449:HW_Lib/AT32F435/device_support/at32f435_437_int.c **** 
 1624              		.loc 1 449 5 is_stmt 1 view .LVU275
 1625 0018 FFF7FEFF 		bl	System_Tick
 1626              	.LVL109:
 451:HW_Lib/AT32F435/device_support/at32f435_437_int.c ****   }
 1627              		.loc 1 451 5 view .LVU276
 1628 001c 0121     		movs	r1, #1
 1629 001e 0348     		ldr	r0, .L162
 1630 0020 FFF7FEFF 		bl	tmr_flag_clear
 1631              	.LVL110:
 1632              		.loc 1 453 1 is_stmt 0 view .LVU277
 1633 0024 F3E7     		b	.L156
 1634              	.L161:
 443:HW_Lib/AT32F435/device_support/at32f435_437_int.c **** #if (INCLUDE_xTaskGetSchedulerState == 1 )
 1635              		.loc 1 443 7 is_stmt 1 view .LVU278
 1636 0026 FFF7FEFF 		bl	xPortSysTickHandler
 1637              	.LVL111:
 1638 002a F5E7     		b	.L158
 1639              	.L163:
 1640              		.align	2
 1641              	.L162:
 1642 002c 004C0140 		.word	1073826816
 1643              		.cfi_endproc
 1644              	.LFE175:
 1646              		.section	.text.I2Cx_EVT_IRQHandler,"ax",%progbits
 1647              		.align	1
 1648              		.global	I2Cx_EVT_IRQHandler
 1649              		.syntax unified
 1650              		.thumb
 1651              		.thumb_func
 1653              	I2Cx_EVT_IRQHandler:
 1654              	.LFB176:
ARM GAS  C:\Users\8bit\AppData\Local\Temp\ccAkw5rm.s 			page 38


 454:HW_Lib/AT32F435/device_support/at32f435_437_int.c **** 
 455:HW_Lib/AT32F435/device_support/at32f435_437_int.c **** /**
 456:HW_Lib/AT32F435/device_support/at32f435_437_int.c ****   * @brief  this function handles i2c event interrupt request.
 457:HW_Lib/AT32F435/device_support/at32f435_437_int.c ****   * @param  none
 458:HW_Lib/AT32F435/device_support/at32f435_437_int.c ****   * @retval none
 459:HW_Lib/AT32F435/device_support/at32f435_437_int.c ****   */
 460:HW_Lib/AT32F435/device_support/at32f435_437_int.c **** void I2Cx_EVT_IRQHandler(void)
 461:HW_Lib/AT32F435/device_support/at32f435_437_int.c **** {
 1655              		.loc 1 461 1 view -0
 1656              		.cfi_startproc
 1657              		@ args = 0, pretend = 0, frame = 0
 1658              		@ frame_needed = 0, uses_anonymous_args = 0
 1659 0000 08B5     		push	{r3, lr}
 1660              	.LCFI31:
 1661              		.cfi_def_cfa_offset 8
 1662              		.cfi_offset 3, -8
 1663              		.cfi_offset 14, -4
 462:HW_Lib/AT32F435/device_support/at32f435_437_int.c ****   i2c_handle_type *hdl = NULL;
 1664              		.loc 1 462 3 view .LVU280
 1665              	.LVL112:
 463:HW_Lib/AT32F435/device_support/at32f435_437_int.c ****   
 464:HW_Lib/AT32F435/device_support/at32f435_437_int.c ****   hdl = BspIIC_Get_HandlePtr(BspIIC_Instance_I2C_2);
 1666              		.loc 1 464 3 view .LVU281
 1667              		.loc 1 464 9 is_stmt 0 view .LVU282
 1668 0002 0120     		movs	r0, #1
 1669 0004 FFF7FEFF 		bl	BspIIC_Get_HandlePtr
 1670              	.LVL113:
 465:HW_Lib/AT32F435/device_support/at32f435_437_int.c ****   if (hdl)
 1671              		.loc 1 465 3 is_stmt 1 view .LVU283
 1672              		.loc 1 465 6 is_stmt 0 view .LVU284
 1673 0008 08B1     		cbz	r0, .L164
 466:HW_Lib/AT32F435/device_support/at32f435_437_int.c ****     i2c_evt_irq_handler(hdl);
 1674              		.loc 1 466 5 is_stmt 1 view .LVU285
 1675 000a FFF7FEFF 		bl	i2c_evt_irq_handler
 1676              	.LVL114:
 1677              	.L164:
 467:HW_Lib/AT32F435/device_support/at32f435_437_int.c **** }
 1678              		.loc 1 467 1 is_stmt 0 view .LVU286
 1679 000e 08BD     		pop	{r3, pc}
 1680              		.cfi_endproc
 1681              	.LFE176:
 1683              		.section	.text.I2Cx_ERR_IRQHandler,"ax",%progbits
 1684              		.align	1
 1685              		.global	I2Cx_ERR_IRQHandler
 1686              		.syntax unified
 1687              		.thumb
 1688              		.thumb_func
 1690              	I2Cx_ERR_IRQHandler:
 1691              	.LFB177:
 468:HW_Lib/AT32F435/device_support/at32f435_437_int.c **** 
 469:HW_Lib/AT32F435/device_support/at32f435_437_int.c **** /**
 470:HW_Lib/AT32F435/device_support/at32f435_437_int.c ****   * @brief  this function handles i2c error interrupt request.
 471:HW_Lib/AT32F435/device_support/at32f435_437_int.c ****   * @param  none
 472:HW_Lib/AT32F435/device_support/at32f435_437_int.c ****   * @retval none
 473:HW_Lib/AT32F435/device_support/at32f435_437_int.c ****   */
 474:HW_Lib/AT32F435/device_support/at32f435_437_int.c **** void I2Cx_ERR_IRQHandler(void)
 475:HW_Lib/AT32F435/device_support/at32f435_437_int.c **** {
ARM GAS  C:\Users\8bit\AppData\Local\Temp\ccAkw5rm.s 			page 39


 1692              		.loc 1 475 1 is_stmt 1 view -0
 1693              		.cfi_startproc
 1694              		@ args = 0, pretend = 0, frame = 0
 1695              		@ frame_needed = 0, uses_anonymous_args = 0
 1696 0000 08B5     		push	{r3, lr}
 1697              	.LCFI32:
 1698              		.cfi_def_cfa_offset 8
 1699              		.cfi_offset 3, -8
 1700              		.cfi_offset 14, -4
 476:HW_Lib/AT32F435/device_support/at32f435_437_int.c ****   i2c_handle_type *hdl = NULL;
 1701              		.loc 1 476 3 view .LVU288
 1702              	.LVL115:
 477:HW_Lib/AT32F435/device_support/at32f435_437_int.c **** 
 478:HW_Lib/AT32F435/device_support/at32f435_437_int.c ****   hdl = BspIIC_Get_HandlePtr(BspIIC_Instance_I2C_2);
 1703              		.loc 1 478 3 view .LVU289
 1704              		.loc 1 478 9 is_stmt 0 view .LVU290
 1705 0002 0120     		movs	r0, #1
 1706 0004 FFF7FEFF 		bl	BspIIC_Get_HandlePtr
 1707              	.LVL116:
 479:HW_Lib/AT32F435/device_support/at32f435_437_int.c ****   if (hdl)
 1708              		.loc 1 479 3 is_stmt 1 view .LVU291
 1709              		.loc 1 479 6 is_stmt 0 view .LVU292
 1710 0008 08B1     		cbz	r0, .L167
 480:HW_Lib/AT32F435/device_support/at32f435_437_int.c ****     i2c_err_irq_handler(hdl);
 1711              		.loc 1 480 5 is_stmt 1 view .LVU293
 1712 000a FFF7FEFF 		bl	i2c_err_irq_handler
 1713              	.LVL117:
 1714              	.L167:
 481:HW_Lib/AT32F435/device_support/at32f435_437_int.c **** }
 1715              		.loc 1 481 1 is_stmt 0 view .LVU294
 1716 000e 08BD     		pop	{r3, pc}
 1717              		.cfi_endproc
 1718              	.LFE177:
 1720              		.text
 1721              	.Letext0:
 1722              		.file 2 "c:\\program files (x86)\\gnu arm embedded toolchain\\10 2021.10\\arm-none-eabi\\include\\
 1723              		.file 3 "c:\\program files (x86)\\gnu arm embedded toolchain\\10 2021.10\\arm-none-eabi\\include\\
 1724              		.file 4 "HW_Lib/AT32F435/device_support/at32f435_437.h"
 1725              		.file 5 "HW_Lib/AT32F435/drivers/inc/at32f435_437_tmr.h"
 1726              		.file 6 "HW_Lib/AT32F435/drivers/inc/at32f435_437_i2c.h"
 1727              		.file 7 "HW_Lib/AT32F435/drivers/inc/at32f435_437_usart.h"
 1728              		.file 8 "HW_Lib/AT32F435/drivers/inc/at32f435_437_dma.h"
 1729              		.file 9 "HW_Lib/AT32F435/drivers/inc/i2c_application.h"
 1730              		.file 10 "HW_Lib/AT32F435/bsp/Bsp_IIC.h"
 1731              		.file 11 "System/FreeRTOS/portable/GCC/ARM_CM4F/portmacro.h"
 1732              		.file 12 "HW_Lib/PortApi_Def/Bsp_IIC_Port_Def.h"
 1733              		.file 13 "System/FreeRTOS/include/task.h"
 1734              		.file 14 "HW_Lib/AT32F435/device_support/system_at32f435_437.h"
 1735              		.file 15 "System/FreeRTOS/FreeRTOSConfig.h"
 1736              		.file 16 "HW_Lib/AT32F435/bsp/Bsp_USB.h"
 1737              		.file 17 "HW_Lib/AT32F435/bsp/Bsp_Uart.h"
 1738              		.file 18 "HW_Lib/AT32F435/bsp/Bsp_DMA.h"
 1739              		.file 19 "HW_Lib/AT32F435/bsp/Bsp_GPIO.h"
ARM GAS  C:\Users\8bit\AppData\Local\Temp\ccAkw5rm.s 			page 40

