ARM GAS  C:\Users\8bit\AppData\Local\Temp\ccgSnPzI.s 			page 1


   1              		.cpu cortex-m4
   2              		.arch armv7e-m
   3              		.fpu fpv4-sp-d16
   4              		.eabi_attribute 27, 1
   5              		.eabi_attribute 28, 1
   6              		.eabi_attribute 20, 1
   7              		.eabi_attribute 21, 1
   8              		.eabi_attribute 23, 3
   9              		.eabi_attribute 24, 1
  10              		.eabi_attribute 25, 1
  11              		.eabi_attribute 26, 1
  12              		.eabi_attribute 30, 1
  13              		.eabi_attribute 34, 1
  14              		.eabi_attribute 18, 4
  15              		.file	"at32f435_437_scfg.c"
  16              		.text
  17              	.Ltext0:
  18              		.cfi_sections	.debug_frame
  19              		.section	.text.scfg_reset,"ax",%progbits
  20              		.align	1
  21              		.global	scfg_reset
  22              		.syntax unified
  23              		.thumb
  24              		.thumb_func
  26              	scfg_reset:
  27              	.LFB133:
  28              		.file 1 "HW_Lib/AT32F435/drivers/src/at32f435_437_scfg.c"
   1:HW_Lib/AT32F435/drivers/src/at32f435_437_scfg.c **** /**
   2:HW_Lib/AT32F435/drivers/src/at32f435_437_scfg.c ****   **************************************************************************
   3:HW_Lib/AT32F435/drivers/src/at32f435_437_scfg.c ****   * @file     at32f435_437_scfg.c
   4:HW_Lib/AT32F435/drivers/src/at32f435_437_scfg.c ****   * @version  v2.1.0
   5:HW_Lib/AT32F435/drivers/src/at32f435_437_scfg.c ****   * @date     2022-08-16
   6:HW_Lib/AT32F435/drivers/src/at32f435_437_scfg.c ****   * @brief    contains all the functions for the system config firmware library
   7:HW_Lib/AT32F435/drivers/src/at32f435_437_scfg.c ****   **************************************************************************
   8:HW_Lib/AT32F435/drivers/src/at32f435_437_scfg.c ****   *                       Copyright notice & Disclaimer
   9:HW_Lib/AT32F435/drivers/src/at32f435_437_scfg.c ****   *
  10:HW_Lib/AT32F435/drivers/src/at32f435_437_scfg.c ****   * The software Board Support Package (BSP) that is made available to
  11:HW_Lib/AT32F435/drivers/src/at32f435_437_scfg.c ****   * download from Artery official website is the copyrighted work of Artery.
  12:HW_Lib/AT32F435/drivers/src/at32f435_437_scfg.c ****   * Artery authorizes customers to use, copy, and distribute the BSP
  13:HW_Lib/AT32F435/drivers/src/at32f435_437_scfg.c ****   * software and its related documentation for the purpose of design and
  14:HW_Lib/AT32F435/drivers/src/at32f435_437_scfg.c ****   * development in conjunction with Artery microcontrollers. Use of the
  15:HW_Lib/AT32F435/drivers/src/at32f435_437_scfg.c ****   * software is governed by this copyright notice and the following disclaimer.
  16:HW_Lib/AT32F435/drivers/src/at32f435_437_scfg.c ****   *
  17:HW_Lib/AT32F435/drivers/src/at32f435_437_scfg.c ****   * THIS SOFTWARE IS PROVIDED ON "AS IS" BASIS WITHOUT WARRANTIES,
  18:HW_Lib/AT32F435/drivers/src/at32f435_437_scfg.c ****   * GUARANTEES OR REPRESENTATIONS OF ANY KIND. ARTERY EXPRESSLY DISCLAIMS,
  19:HW_Lib/AT32F435/drivers/src/at32f435_437_scfg.c ****   * TO THE FULLEST EXTENT PERMITTED BY LAW, ALL EXPRESS, IMPLIED OR
  20:HW_Lib/AT32F435/drivers/src/at32f435_437_scfg.c ****   * STATUTORY OR OTHER WARRANTIES, GUARANTEES OR REPRESENTATIONS,
  21:HW_Lib/AT32F435/drivers/src/at32f435_437_scfg.c ****   * INCLUDING BUT NOT LIMITED TO, THE IMPLIED WARRANTIES OF MERCHANTABILITY,
  22:HW_Lib/AT32F435/drivers/src/at32f435_437_scfg.c ****   * FITNESS FOR A PARTICULAR PURPOSE, OR NON-INFRINGEMENT.
  23:HW_Lib/AT32F435/drivers/src/at32f435_437_scfg.c ****   *
  24:HW_Lib/AT32F435/drivers/src/at32f435_437_scfg.c ****   **************************************************************************
  25:HW_Lib/AT32F435/drivers/src/at32f435_437_scfg.c ****   */
  26:HW_Lib/AT32F435/drivers/src/at32f435_437_scfg.c **** 
  27:HW_Lib/AT32F435/drivers/src/at32f435_437_scfg.c **** #include "at32f435_437_conf.h"
  28:HW_Lib/AT32F435/drivers/src/at32f435_437_scfg.c **** 
  29:HW_Lib/AT32F435/drivers/src/at32f435_437_scfg.c **** /** @addtogroup AT32F435_437_periph_driver
  30:HW_Lib/AT32F435/drivers/src/at32f435_437_scfg.c ****   * @{
ARM GAS  C:\Users\8bit\AppData\Local\Temp\ccgSnPzI.s 			page 2


  31:HW_Lib/AT32F435/drivers/src/at32f435_437_scfg.c ****   */
  32:HW_Lib/AT32F435/drivers/src/at32f435_437_scfg.c **** 
  33:HW_Lib/AT32F435/drivers/src/at32f435_437_scfg.c **** /** @defgroup SCFG
  34:HW_Lib/AT32F435/drivers/src/at32f435_437_scfg.c ****   * @brief SCFG driver modules
  35:HW_Lib/AT32F435/drivers/src/at32f435_437_scfg.c ****   * @{
  36:HW_Lib/AT32F435/drivers/src/at32f435_437_scfg.c ****   */
  37:HW_Lib/AT32F435/drivers/src/at32f435_437_scfg.c **** 
  38:HW_Lib/AT32F435/drivers/src/at32f435_437_scfg.c **** #ifdef SCFG_MODULE_ENABLED
  39:HW_Lib/AT32F435/drivers/src/at32f435_437_scfg.c **** 
  40:HW_Lib/AT32F435/drivers/src/at32f435_437_scfg.c **** /** @defgroup SCFG_private_functions
  41:HW_Lib/AT32F435/drivers/src/at32f435_437_scfg.c ****   * @{
  42:HW_Lib/AT32F435/drivers/src/at32f435_437_scfg.c ****   */
  43:HW_Lib/AT32F435/drivers/src/at32f435_437_scfg.c **** 
  44:HW_Lib/AT32F435/drivers/src/at32f435_437_scfg.c **** /**
  45:HW_Lib/AT32F435/drivers/src/at32f435_437_scfg.c ****   * @brief  scfg reset
  46:HW_Lib/AT32F435/drivers/src/at32f435_437_scfg.c ****   * @param  none
  47:HW_Lib/AT32F435/drivers/src/at32f435_437_scfg.c ****   * @retval none
  48:HW_Lib/AT32F435/drivers/src/at32f435_437_scfg.c ****   */
  49:HW_Lib/AT32F435/drivers/src/at32f435_437_scfg.c **** void scfg_reset(void)
  50:HW_Lib/AT32F435/drivers/src/at32f435_437_scfg.c **** {
  29              		.loc 1 50 1 view -0
  30              		.cfi_startproc
  31              		@ args = 0, pretend = 0, frame = 0
  32              		@ frame_needed = 0, uses_anonymous_args = 0
  33 0000 10B5     		push	{r4, lr}
  34              	.LCFI0:
  35              		.cfi_def_cfa_offset 8
  36              		.cfi_offset 4, -8
  37              		.cfi_offset 14, -4
  51:HW_Lib/AT32F435/drivers/src/at32f435_437_scfg.c ****   crm_periph_reset(CRM_SCFG_PERIPH_RESET, TRUE);
  38              		.loc 1 51 3 view .LVU1
  39 0002 054C     		ldr	r4, .L3
  40 0004 0121     		movs	r1, #1
  41 0006 2046     		mov	r0, r4
  42 0008 FFF7FEFF 		bl	crm_periph_reset
  43              	.LVL0:
  52:HW_Lib/AT32F435/drivers/src/at32f435_437_scfg.c ****   crm_periph_reset(CRM_SCFG_PERIPH_RESET, FALSE);
  44              		.loc 1 52 3 view .LVU2
  45 000c 0021     		movs	r1, #0
  46 000e 2046     		mov	r0, r4
  47 0010 FFF7FEFF 		bl	crm_periph_reset
  48              	.LVL1:
  53:HW_Lib/AT32F435/drivers/src/at32f435_437_scfg.c **** }
  49              		.loc 1 53 1 is_stmt 0 view .LVU3
  50 0014 10BD     		pop	{r4, pc}
  51              	.L4:
  52 0016 00BF     		.align	2
  53              	.L3:
  54 0018 0E002400 		.word	2359310
  55              		.cfi_endproc
  56              	.LFE133:
  58              		.section	.text.scfg_xmc_mapping_swap_set,"ax",%progbits
  59              		.align	1
  60              		.global	scfg_xmc_mapping_swap_set
  61              		.syntax unified
  62              		.thumb
  63              		.thumb_func
ARM GAS  C:\Users\8bit\AppData\Local\Temp\ccgSnPzI.s 			page 3


  65              	scfg_xmc_mapping_swap_set:
  66              	.LVL2:
  67              	.LFB134:
  54:HW_Lib/AT32F435/drivers/src/at32f435_437_scfg.c **** 
  55:HW_Lib/AT32F435/drivers/src/at32f435_437_scfg.c **** /**
  56:HW_Lib/AT32F435/drivers/src/at32f435_437_scfg.c ****   * @brief  scfg xmc address mapping swap set
  57:HW_Lib/AT32F435/drivers/src/at32f435_437_scfg.c ****   * @param  xmc_swap
  58:HW_Lib/AT32F435/drivers/src/at32f435_437_scfg.c ****   *         this parameter can be one of the following values:
  59:HW_Lib/AT32F435/drivers/src/at32f435_437_scfg.c ****   *         - SCFG_XMC_SWAP_NONE
  60:HW_Lib/AT32F435/drivers/src/at32f435_437_scfg.c ****   *         - SCFG_XMC_SWAP_MODE1
  61:HW_Lib/AT32F435/drivers/src/at32f435_437_scfg.c ****   *         - SCFG_XMC_SWAP_MODE2
  62:HW_Lib/AT32F435/drivers/src/at32f435_437_scfg.c ****   *         - SCFG_XMC_SWAP_MODE3
  63:HW_Lib/AT32F435/drivers/src/at32f435_437_scfg.c ****   * @retval none
  64:HW_Lib/AT32F435/drivers/src/at32f435_437_scfg.c ****   */
  65:HW_Lib/AT32F435/drivers/src/at32f435_437_scfg.c **** void scfg_xmc_mapping_swap_set(scfg_xmc_swap_type xmc_swap)
  66:HW_Lib/AT32F435/drivers/src/at32f435_437_scfg.c **** {
  68              		.loc 1 66 1 is_stmt 1 view -0
  69              		.cfi_startproc
  70              		@ args = 0, pretend = 0, frame = 0
  71              		@ frame_needed = 0, uses_anonymous_args = 0
  72              		@ link register save eliminated.
  67:HW_Lib/AT32F435/drivers/src/at32f435_437_scfg.c ****   SCFG->cfg1_bit.swap_xmc = xmc_swap;
  73              		.loc 1 67 3 view .LVU5
  74              		.loc 1 67 27 is_stmt 0 view .LVU6
  75 0000 024B     		ldr	r3, .L6
  76 0002 1A68     		ldr	r2, [r3]
  77 0004 60F38B22 		bfi	r2, r0, #10, #2
  78 0008 1A60     		str	r2, [r3]
  68:HW_Lib/AT32F435/drivers/src/at32f435_437_scfg.c **** }
  79              		.loc 1 68 1 view .LVU7
  80 000a 7047     		bx	lr
  81              	.L7:
  82              		.align	2
  83              	.L6:
  84 000c 00380140 		.word	1073821696
  85              		.cfi_endproc
  86              	.LFE134:
  88              		.section	.text.scfg_infrared_config,"ax",%progbits
  89              		.align	1
  90              		.global	scfg_infrared_config
  91              		.syntax unified
  92              		.thumb
  93              		.thumb_func
  95              	scfg_infrared_config:
  96              	.LVL3:
  97              	.LFB135:
  69:HW_Lib/AT32F435/drivers/src/at32f435_437_scfg.c **** 
  70:HW_Lib/AT32F435/drivers/src/at32f435_437_scfg.c **** /**
  71:HW_Lib/AT32F435/drivers/src/at32f435_437_scfg.c ****   * @brief  scfg infrared config
  72:HW_Lib/AT32F435/drivers/src/at32f435_437_scfg.c ****   * @param  source
  73:HW_Lib/AT32F435/drivers/src/at32f435_437_scfg.c ****   *         this parameter can be one of the following values:
  74:HW_Lib/AT32F435/drivers/src/at32f435_437_scfg.c ****   *         - SCFG_IR_SOURCE_TMR10
  75:HW_Lib/AT32F435/drivers/src/at32f435_437_scfg.c ****   *         - SCFG_IR_SOURCE_USART1
  76:HW_Lib/AT32F435/drivers/src/at32f435_437_scfg.c ****   *         - SCFG_IR_SOURCE_USART2
  77:HW_Lib/AT32F435/drivers/src/at32f435_437_scfg.c ****   * @param  polarity
  78:HW_Lib/AT32F435/drivers/src/at32f435_437_scfg.c ****   *         this parameter can be one of the following values:
  79:HW_Lib/AT32F435/drivers/src/at32f435_437_scfg.c ****   *         - SCFG_IR_POLARITY_NO_AFFECTE
ARM GAS  C:\Users\8bit\AppData\Local\Temp\ccgSnPzI.s 			page 4


  80:HW_Lib/AT32F435/drivers/src/at32f435_437_scfg.c ****   *         - SCFG_IR_POLARITY_REVERSE
  81:HW_Lib/AT32F435/drivers/src/at32f435_437_scfg.c ****   * @retval none
  82:HW_Lib/AT32F435/drivers/src/at32f435_437_scfg.c ****   */
  83:HW_Lib/AT32F435/drivers/src/at32f435_437_scfg.c **** void scfg_infrared_config(scfg_ir_source_type source, scfg_ir_polarity_type polarity)
  84:HW_Lib/AT32F435/drivers/src/at32f435_437_scfg.c **** {
  98              		.loc 1 84 1 is_stmt 1 view -0
  99              		.cfi_startproc
 100              		@ args = 0, pretend = 0, frame = 0
 101              		@ frame_needed = 0, uses_anonymous_args = 0
 102              		@ link register save eliminated.
  85:HW_Lib/AT32F435/drivers/src/at32f435_437_scfg.c ****   SCFG->cfg1_bit.ir_src_sel = source;
 103              		.loc 1 85 3 view .LVU9
 104              		.loc 1 85 29 is_stmt 0 view .LVU10
 105 0000 044B     		ldr	r3, .L9
 106 0002 1A68     		ldr	r2, [r3]
 107 0004 60F38712 		bfi	r2, r0, #6, #2
 108 0008 1A60     		str	r2, [r3]
  86:HW_Lib/AT32F435/drivers/src/at32f435_437_scfg.c ****   SCFG->cfg1_bit.ir_pol = polarity;
 109              		.loc 1 86 3 is_stmt 1 view .LVU11
 110              		.loc 1 86 25 is_stmt 0 view .LVU12
 111 000a 1A68     		ldr	r2, [r3]
 112 000c 61F34512 		bfi	r2, r1, #5, #1
 113 0010 1A60     		str	r2, [r3]
  87:HW_Lib/AT32F435/drivers/src/at32f435_437_scfg.c **** }
 114              		.loc 1 87 1 view .LVU13
 115 0012 7047     		bx	lr
 116              	.L10:
 117              		.align	2
 118              	.L9:
 119 0014 00380140 		.word	1073821696
 120              		.cfi_endproc
 121              	.LFE135:
 123              		.section	.text.scfg_mem_map_set,"ax",%progbits
 124              		.align	1
 125              		.global	scfg_mem_map_set
 126              		.syntax unified
 127              		.thumb
 128              		.thumb_func
 130              	scfg_mem_map_set:
 131              	.LVL4:
 132              	.LFB136:
  88:HW_Lib/AT32F435/drivers/src/at32f435_437_scfg.c **** 
  89:HW_Lib/AT32F435/drivers/src/at32f435_437_scfg.c **** /**
  90:HW_Lib/AT32F435/drivers/src/at32f435_437_scfg.c ****   * @brief  scfg memory address mapping set
  91:HW_Lib/AT32F435/drivers/src/at32f435_437_scfg.c ****   * @param  mem_map
  92:HW_Lib/AT32F435/drivers/src/at32f435_437_scfg.c ****   *         this parameter can be one of the following values:
  93:HW_Lib/AT32F435/drivers/src/at32f435_437_scfg.c ****   *         - SCFG_MEM_MAP_MAIN_MEMORY
  94:HW_Lib/AT32F435/drivers/src/at32f435_437_scfg.c ****   *         - SCFG_MEM_MAP_BOOT_MEMORY
  95:HW_Lib/AT32F435/drivers/src/at32f435_437_scfg.c ****   *         - SCFG_MEM_MAP_XMC_BANK1
  96:HW_Lib/AT32F435/drivers/src/at32f435_437_scfg.c ****   *         - SCFG_MEM_MAP_INTERNAL_SRAM
  97:HW_Lib/AT32F435/drivers/src/at32f435_437_scfg.c ****   *         - SCFG_MEM_MAP_XMC_SDRAM_BANK1
  98:HW_Lib/AT32F435/drivers/src/at32f435_437_scfg.c ****   * @retval none
  99:HW_Lib/AT32F435/drivers/src/at32f435_437_scfg.c ****   */
 100:HW_Lib/AT32F435/drivers/src/at32f435_437_scfg.c **** void scfg_mem_map_set(scfg_mem_map_type mem_map)
 101:HW_Lib/AT32F435/drivers/src/at32f435_437_scfg.c **** {
 133              		.loc 1 101 1 is_stmt 1 view -0
 134              		.cfi_startproc
ARM GAS  C:\Users\8bit\AppData\Local\Temp\ccgSnPzI.s 			page 5


 135              		@ args = 0, pretend = 0, frame = 0
 136              		@ frame_needed = 0, uses_anonymous_args = 0
 137              		@ link register save eliminated.
 102:HW_Lib/AT32F435/drivers/src/at32f435_437_scfg.c ****   SCFG->cfg1_bit.mem_map_sel = mem_map;
 138              		.loc 1 102 3 view .LVU15
 139              		.loc 1 102 30 is_stmt 0 view .LVU16
 140 0000 024B     		ldr	r3, .L12
 141 0002 1A68     		ldr	r2, [r3]
 142 0004 60F30202 		bfi	r2, r0, #0, #3
 143 0008 1A60     		str	r2, [r3]
 103:HW_Lib/AT32F435/drivers/src/at32f435_437_scfg.c **** }
 144              		.loc 1 103 1 view .LVU17
 145 000a 7047     		bx	lr
 146              	.L13:
 147              		.align	2
 148              	.L12:
 149 000c 00380140 		.word	1073821696
 150              		.cfi_endproc
 151              	.LFE136:
 153              		.section	.text.scfg_emac_interface_set,"ax",%progbits
 154              		.align	1
 155              		.global	scfg_emac_interface_set
 156              		.syntax unified
 157              		.thumb
 158              		.thumb_func
 160              	scfg_emac_interface_set:
 161              	.LVL5:
 162              	.LFB137:
 104:HW_Lib/AT32F435/drivers/src/at32f435_437_scfg.c **** 
 105:HW_Lib/AT32F435/drivers/src/at32f435_437_scfg.c **** /**
 106:HW_Lib/AT32F435/drivers/src/at32f435_437_scfg.c ****   * @brief  scfg emac interface set
 107:HW_Lib/AT32F435/drivers/src/at32f435_437_scfg.c ****   * @param  mode
 108:HW_Lib/AT32F435/drivers/src/at32f435_437_scfg.c ****   *         this parameter can be one of the following values:
 109:HW_Lib/AT32F435/drivers/src/at32f435_437_scfg.c ****   *         - SCFG_EMAC_SELECT_MII
 110:HW_Lib/AT32F435/drivers/src/at32f435_437_scfg.c ****   *         - SCFG_EMAC_SELECT_RMII
 111:HW_Lib/AT32F435/drivers/src/at32f435_437_scfg.c ****   * @retval none
 112:HW_Lib/AT32F435/drivers/src/at32f435_437_scfg.c ****   */
 113:HW_Lib/AT32F435/drivers/src/at32f435_437_scfg.c **** void scfg_emac_interface_set(scfg_emac_interface_type mode)
 114:HW_Lib/AT32F435/drivers/src/at32f435_437_scfg.c **** {
 163              		.loc 1 114 1 is_stmt 1 view -0
 164              		.cfi_startproc
 165              		@ args = 0, pretend = 0, frame = 0
 166              		@ frame_needed = 0, uses_anonymous_args = 0
 167              		@ link register save eliminated.
 115:HW_Lib/AT32F435/drivers/src/at32f435_437_scfg.c ****   SCFG->cfg2_bit.mii_rmii_sel = mode;
 168              		.loc 1 115 3 view .LVU19
 169              		.loc 1 115 31 is_stmt 0 view .LVU20
 170 0000 024B     		ldr	r3, .L15
 171 0002 5A68     		ldr	r2, [r3, #4]
 172 0004 60F3D752 		bfi	r2, r0, #23, #1
 173 0008 5A60     		str	r2, [r3, #4]
 116:HW_Lib/AT32F435/drivers/src/at32f435_437_scfg.c **** }
 174              		.loc 1 116 1 view .LVU21
 175 000a 7047     		bx	lr
 176              	.L16:
 177              		.align	2
 178              	.L15:
ARM GAS  C:\Users\8bit\AppData\Local\Temp\ccgSnPzI.s 			page 6


 179 000c 00380140 		.word	1073821696
 180              		.cfi_endproc
 181              	.LFE137:
 183              		.section	.text.scfg_exint_line_config,"ax",%progbits
 184              		.align	1
 185              		.global	scfg_exint_line_config
 186              		.syntax unified
 187              		.thumb
 188              		.thumb_func
 190              	scfg_exint_line_config:
 191              	.LVL6:
 192              	.LFB138:
 117:HW_Lib/AT32F435/drivers/src/at32f435_437_scfg.c **** 
 118:HW_Lib/AT32F435/drivers/src/at32f435_437_scfg.c **** /**
 119:HW_Lib/AT32F435/drivers/src/at32f435_437_scfg.c ****   * @brief  select the gpio pin used as exint line.
 120:HW_Lib/AT32F435/drivers/src/at32f435_437_scfg.c ****   * @param  port_source:
 121:HW_Lib/AT32F435/drivers/src/at32f435_437_scfg.c ****   *         select the gpio port to be used as source for exint lines.
 122:HW_Lib/AT32F435/drivers/src/at32f435_437_scfg.c ****   *         this parameter can be one of the following values:
 123:HW_Lib/AT32F435/drivers/src/at32f435_437_scfg.c ****   *         - SCFG_PORT_SOURCE_GPIOA
 124:HW_Lib/AT32F435/drivers/src/at32f435_437_scfg.c ****   *         - SCFG_PORT_SOURCE_GPIOB
 125:HW_Lib/AT32F435/drivers/src/at32f435_437_scfg.c ****   *         - SCFG_PORT_SOURCE_GPIOC
 126:HW_Lib/AT32F435/drivers/src/at32f435_437_scfg.c ****   *         - SCFG_PORT_SOURCE_GPIOD
 127:HW_Lib/AT32F435/drivers/src/at32f435_437_scfg.c ****   *         - SCFG_PORT_SOURCE_GPIOE
 128:HW_Lib/AT32F435/drivers/src/at32f435_437_scfg.c ****   *         - SCFG_PORT_SOURCE_GPIOF
 129:HW_Lib/AT32F435/drivers/src/at32f435_437_scfg.c ****   *         - SCFG_PORT_SOURCE_GPIOG
 130:HW_Lib/AT32F435/drivers/src/at32f435_437_scfg.c ****   *         - SCFG_PORT_SOURCE_GPIOH
 131:HW_Lib/AT32F435/drivers/src/at32f435_437_scfg.c ****   * @param  pin_source:
 132:HW_Lib/AT32F435/drivers/src/at32f435_437_scfg.c ****   *         specifies the exint line to be configured.
 133:HW_Lib/AT32F435/drivers/src/at32f435_437_scfg.c ****   *         this parameter can be one of the following values:
 134:HW_Lib/AT32F435/drivers/src/at32f435_437_scfg.c ****   *         - SCFG_PINS_SOURCE0
 135:HW_Lib/AT32F435/drivers/src/at32f435_437_scfg.c ****   *         - SCFG_PINS_SOURCE1
 136:HW_Lib/AT32F435/drivers/src/at32f435_437_scfg.c ****   *         - SCFG_PINS_SOURCE2
 137:HW_Lib/AT32F435/drivers/src/at32f435_437_scfg.c ****   *         - SCFG_PINS_SOURCE3
 138:HW_Lib/AT32F435/drivers/src/at32f435_437_scfg.c ****   *         - SCFG_PINS_SOURCE4
 139:HW_Lib/AT32F435/drivers/src/at32f435_437_scfg.c ****   *         - SCFG_PINS_SOURCE5
 140:HW_Lib/AT32F435/drivers/src/at32f435_437_scfg.c ****   *         - SCFG_PINS_SOURCE6
 141:HW_Lib/AT32F435/drivers/src/at32f435_437_scfg.c ****   *         - SCFG_PINS_SOURCE7
 142:HW_Lib/AT32F435/drivers/src/at32f435_437_scfg.c ****   *         - SCFG_PINS_SOURCE8
 143:HW_Lib/AT32F435/drivers/src/at32f435_437_scfg.c ****   *         - SCFG_PINS_SOURCE9
 144:HW_Lib/AT32F435/drivers/src/at32f435_437_scfg.c ****   *         - SCFG_PINS_SOURCE10
 145:HW_Lib/AT32F435/drivers/src/at32f435_437_scfg.c ****   *         - SCFG_PINS_SOURCE11
 146:HW_Lib/AT32F435/drivers/src/at32f435_437_scfg.c ****   *         - SCFG_PINS_SOURCE12
 147:HW_Lib/AT32F435/drivers/src/at32f435_437_scfg.c ****   *         - SCFG_PINS_SOURCE13
 148:HW_Lib/AT32F435/drivers/src/at32f435_437_scfg.c ****   *         - SCFG_PINS_SOURCE14
 149:HW_Lib/AT32F435/drivers/src/at32f435_437_scfg.c ****   *         - SCFG_PINS_SOURCE15
 150:HW_Lib/AT32F435/drivers/src/at32f435_437_scfg.c ****   * @retval none
 151:HW_Lib/AT32F435/drivers/src/at32f435_437_scfg.c ****   */
 152:HW_Lib/AT32F435/drivers/src/at32f435_437_scfg.c **** void scfg_exint_line_config(scfg_port_source_type port_source, scfg_pins_source_type pin_source)
 153:HW_Lib/AT32F435/drivers/src/at32f435_437_scfg.c **** {
 193              		.loc 1 153 1 is_stmt 1 view -0
 194              		.cfi_startproc
 195              		@ args = 0, pretend = 0, frame = 0
 196              		@ frame_needed = 0, uses_anonymous_args = 0
 197              		@ link register save eliminated.
 198              		.loc 1 153 1 is_stmt 0 view .LVU23
 199 0000 10B4     		push	{r4}
 200              	.LCFI1:
ARM GAS  C:\Users\8bit\AppData\Local\Temp\ccgSnPzI.s 			page 7


 201              		.cfi_def_cfa_offset 4
 202              		.cfi_offset 4, -4
 154:HW_Lib/AT32F435/drivers/src/at32f435_437_scfg.c ****   uint32_t tmp = 0x00;
 203              		.loc 1 154 3 is_stmt 1 view .LVU24
 204              	.LVL7:
 155:HW_Lib/AT32F435/drivers/src/at32f435_437_scfg.c ****   tmp = ((uint32_t)0x0F) << (0x04 * (pin_source & (uint8_t)0x03));
 205              		.loc 1 155 3 view .LVU25
 206              		.loc 1 155 49 is_stmt 0 view .LVU26
 207 0002 01F00303 		and	r3, r1, #3
 208              		.loc 1 155 35 view .LVU27
 209 0006 9B00     		lsls	r3, r3, #2
 210              		.loc 1 155 7 view .LVU28
 211 0008 0F22     		movs	r2, #15
 212 000a 9A40     		lsls	r2, r2, r3
 213              	.LVL8:
 156:HW_Lib/AT32F435/drivers/src/at32f435_437_scfg.c **** 
 157:HW_Lib/AT32F435/drivers/src/at32f435_437_scfg.c ****   switch (pin_source >> 0x02)
 214              		.loc 1 157 3 is_stmt 1 view .LVU29
 215              		.loc 1 157 22 is_stmt 0 view .LVU30
 216 000c 8908     		lsrs	r1, r1, #2
 217              	.LVL9:
 218              		.loc 1 157 3 view .LVU31
 219 000e 0329     		cmp	r1, #3
 220 0010 0CD8     		bhi	.L17
 221 0012 DFE801F0 		tbb	[pc, r1]
 222              	.L20:
 223 0016 02       		.byte	(.L23-.L20)/2
 224 0017 0E       		.byte	(.L22-.L20)/2
 225 0018 18       		.byte	(.L21-.L20)/2
 226 0019 22       		.byte	(.L19-.L20)/2
 227              		.p2align 1
 228              	.L23:
 158:HW_Lib/AT32F435/drivers/src/at32f435_437_scfg.c ****   {
 159:HW_Lib/AT32F435/drivers/src/at32f435_437_scfg.c ****     case 0:
 160:HW_Lib/AT32F435/drivers/src/at32f435_437_scfg.c ****       SCFG->exintc1 &= ~tmp;
 229              		.loc 1 160 7 is_stmt 1 view .LVU32
 230              		.loc 1 160 21 is_stmt 0 view .LVU33
 231 001a 1549     		ldr	r1, .L25
 232 001c 8C68     		ldr	r4, [r1, #8]
 233 001e 24EA0202 		bic	r2, r4, r2
 234              	.LVL10:
 235              		.loc 1 160 21 view .LVU34
 236 0022 8A60     		str	r2, [r1, #8]
 161:HW_Lib/AT32F435/drivers/src/at32f435_437_scfg.c ****       SCFG->exintc1 |= (((uint32_t)port_source) << (0x04 * (pin_source & (uint8_t)0x03)));
 237              		.loc 1 161 7 is_stmt 1 view .LVU35
 238              		.loc 1 161 21 is_stmt 0 view .LVU36
 239 0024 8A68     		ldr	r2, [r1, #8]
 240              		.loc 1 161 49 view .LVU37
 241 0026 9840     		lsls	r0, r0, r3
 242              	.LVL11:
 243              		.loc 1 161 21 view .LVU38
 244 0028 1043     		orrs	r0, r0, r2
 245 002a 8860     		str	r0, [r1, #8]
 162:HW_Lib/AT32F435/drivers/src/at32f435_437_scfg.c ****       break;
 246              		.loc 1 162 7 is_stmt 1 view .LVU39
 247              	.LVL12:
 248              	.L17:
ARM GAS  C:\Users\8bit\AppData\Local\Temp\ccgSnPzI.s 			page 8


 163:HW_Lib/AT32F435/drivers/src/at32f435_437_scfg.c ****     case 1:
 164:HW_Lib/AT32F435/drivers/src/at32f435_437_scfg.c ****       SCFG->exintc2 &= ~tmp;
 165:HW_Lib/AT32F435/drivers/src/at32f435_437_scfg.c ****       SCFG->exintc2 |= (((uint32_t)port_source) << (0x04 * (pin_source & (uint8_t)0x03)));
 166:HW_Lib/AT32F435/drivers/src/at32f435_437_scfg.c ****       break;
 167:HW_Lib/AT32F435/drivers/src/at32f435_437_scfg.c ****     case 2:
 168:HW_Lib/AT32F435/drivers/src/at32f435_437_scfg.c ****       SCFG->exintc3 &= ~tmp;
 169:HW_Lib/AT32F435/drivers/src/at32f435_437_scfg.c ****       SCFG->exintc3 |= (((uint32_t)port_source) << (0x04 * (pin_source & (uint8_t)0x03)));
 170:HW_Lib/AT32F435/drivers/src/at32f435_437_scfg.c ****       break;
 171:HW_Lib/AT32F435/drivers/src/at32f435_437_scfg.c ****     case 3:
 172:HW_Lib/AT32F435/drivers/src/at32f435_437_scfg.c ****       SCFG->exintc4 &= ~tmp;
 173:HW_Lib/AT32F435/drivers/src/at32f435_437_scfg.c ****       SCFG->exintc4 |= (((uint32_t)port_source) << (0x04 * (pin_source & (uint8_t)0x03)));
 174:HW_Lib/AT32F435/drivers/src/at32f435_437_scfg.c ****       break;
 175:HW_Lib/AT32F435/drivers/src/at32f435_437_scfg.c ****     default:
 176:HW_Lib/AT32F435/drivers/src/at32f435_437_scfg.c ****       break;
 177:HW_Lib/AT32F435/drivers/src/at32f435_437_scfg.c ****   }
 178:HW_Lib/AT32F435/drivers/src/at32f435_437_scfg.c **** }
 249              		.loc 1 178 1 is_stmt 0 view .LVU40
 250 002c 5DF8044B 		ldr	r4, [sp], #4
 251              	.LCFI2:
 252              		.cfi_remember_state
 253              		.cfi_restore 4
 254              		.cfi_def_cfa_offset 0
 255 0030 7047     		bx	lr
 256              	.LVL13:
 257              	.L22:
 258              	.LCFI3:
 259              		.cfi_restore_state
 164:HW_Lib/AT32F435/drivers/src/at32f435_437_scfg.c ****       SCFG->exintc2 |= (((uint32_t)port_source) << (0x04 * (pin_source & (uint8_t)0x03)));
 260              		.loc 1 164 7 is_stmt 1 view .LVU41
 164:HW_Lib/AT32F435/drivers/src/at32f435_437_scfg.c ****       SCFG->exintc2 |= (((uint32_t)port_source) << (0x04 * (pin_source & (uint8_t)0x03)));
 261              		.loc 1 164 21 is_stmt 0 view .LVU42
 262 0032 0F49     		ldr	r1, .L25
 263 0034 CC68     		ldr	r4, [r1, #12]
 264 0036 24EA0202 		bic	r2, r4, r2
 265              	.LVL14:
 164:HW_Lib/AT32F435/drivers/src/at32f435_437_scfg.c ****       SCFG->exintc2 |= (((uint32_t)port_source) << (0x04 * (pin_source & (uint8_t)0x03)));
 266              		.loc 1 164 21 view .LVU43
 267 003a CA60     		str	r2, [r1, #12]
 165:HW_Lib/AT32F435/drivers/src/at32f435_437_scfg.c ****       break;
 268              		.loc 1 165 7 is_stmt 1 view .LVU44
 165:HW_Lib/AT32F435/drivers/src/at32f435_437_scfg.c ****       break;
 269              		.loc 1 165 21 is_stmt 0 view .LVU45
 270 003c CA68     		ldr	r2, [r1, #12]
 165:HW_Lib/AT32F435/drivers/src/at32f435_437_scfg.c ****       break;
 271              		.loc 1 165 49 view .LVU46
 272 003e 9840     		lsls	r0, r0, r3
 273              	.LVL15:
 165:HW_Lib/AT32F435/drivers/src/at32f435_437_scfg.c ****       break;
 274              		.loc 1 165 21 view .LVU47
 275 0040 1043     		orrs	r0, r0, r2
 276 0042 C860     		str	r0, [r1, #12]
 166:HW_Lib/AT32F435/drivers/src/at32f435_437_scfg.c ****     case 2:
 277              		.loc 1 166 7 is_stmt 1 view .LVU48
 278 0044 F2E7     		b	.L17
 279              	.LVL16:
 280              	.L21:
 168:HW_Lib/AT32F435/drivers/src/at32f435_437_scfg.c ****       SCFG->exintc3 |= (((uint32_t)port_source) << (0x04 * (pin_source & (uint8_t)0x03)));
ARM GAS  C:\Users\8bit\AppData\Local\Temp\ccgSnPzI.s 			page 9


 281              		.loc 1 168 7 view .LVU49
 168:HW_Lib/AT32F435/drivers/src/at32f435_437_scfg.c ****       SCFG->exintc3 |= (((uint32_t)port_source) << (0x04 * (pin_source & (uint8_t)0x03)));
 282              		.loc 1 168 21 is_stmt 0 view .LVU50
 283 0046 0A49     		ldr	r1, .L25
 284 0048 0C69     		ldr	r4, [r1, #16]
 285 004a 24EA0202 		bic	r2, r4, r2
 286              	.LVL17:
 168:HW_Lib/AT32F435/drivers/src/at32f435_437_scfg.c ****       SCFG->exintc3 |= (((uint32_t)port_source) << (0x04 * (pin_source & (uint8_t)0x03)));
 287              		.loc 1 168 21 view .LVU51
 288 004e 0A61     		str	r2, [r1, #16]
 169:HW_Lib/AT32F435/drivers/src/at32f435_437_scfg.c ****       break;
 289              		.loc 1 169 7 is_stmt 1 view .LVU52
 169:HW_Lib/AT32F435/drivers/src/at32f435_437_scfg.c ****       break;
 290              		.loc 1 169 21 is_stmt 0 view .LVU53
 291 0050 0A69     		ldr	r2, [r1, #16]
 169:HW_Lib/AT32F435/drivers/src/at32f435_437_scfg.c ****       break;
 292              		.loc 1 169 49 view .LVU54
 293 0052 9840     		lsls	r0, r0, r3
 294              	.LVL18:
 169:HW_Lib/AT32F435/drivers/src/at32f435_437_scfg.c ****       break;
 295              		.loc 1 169 21 view .LVU55
 296 0054 1043     		orrs	r0, r0, r2
 297 0056 0861     		str	r0, [r1, #16]
 170:HW_Lib/AT32F435/drivers/src/at32f435_437_scfg.c ****     case 3:
 298              		.loc 1 170 7 is_stmt 1 view .LVU56
 299 0058 E8E7     		b	.L17
 300              	.LVL19:
 301              	.L19:
 172:HW_Lib/AT32F435/drivers/src/at32f435_437_scfg.c ****       SCFG->exintc4 |= (((uint32_t)port_source) << (0x04 * (pin_source & (uint8_t)0x03)));
 302              		.loc 1 172 7 view .LVU57
 172:HW_Lib/AT32F435/drivers/src/at32f435_437_scfg.c ****       SCFG->exintc4 |= (((uint32_t)port_source) << (0x04 * (pin_source & (uint8_t)0x03)));
 303              		.loc 1 172 21 is_stmt 0 view .LVU58
 304 005a 0549     		ldr	r1, .L25
 305 005c 4C69     		ldr	r4, [r1, #20]
 306 005e 24EA0202 		bic	r2, r4, r2
 307              	.LVL20:
 172:HW_Lib/AT32F435/drivers/src/at32f435_437_scfg.c ****       SCFG->exintc4 |= (((uint32_t)port_source) << (0x04 * (pin_source & (uint8_t)0x03)));
 308              		.loc 1 172 21 view .LVU59
 309 0062 4A61     		str	r2, [r1, #20]
 173:HW_Lib/AT32F435/drivers/src/at32f435_437_scfg.c ****       break;
 310              		.loc 1 173 7 is_stmt 1 view .LVU60
 173:HW_Lib/AT32F435/drivers/src/at32f435_437_scfg.c ****       break;
 311              		.loc 1 173 21 is_stmt 0 view .LVU61
 312 0064 4A69     		ldr	r2, [r1, #20]
 173:HW_Lib/AT32F435/drivers/src/at32f435_437_scfg.c ****       break;
 313              		.loc 1 173 49 view .LVU62
 314 0066 00FA03F3 		lsl	r3, r0, r3
 315              	.LVL21:
 173:HW_Lib/AT32F435/drivers/src/at32f435_437_scfg.c ****       break;
 316              		.loc 1 173 21 view .LVU63
 317 006a 1343     		orrs	r3, r3, r2
 318 006c 4B61     		str	r3, [r1, #20]
 174:HW_Lib/AT32F435/drivers/src/at32f435_437_scfg.c ****     default:
 319              		.loc 1 174 7 is_stmt 1 view .LVU64
 320              		.loc 1 178 1 is_stmt 0 view .LVU65
 321 006e DDE7     		b	.L17
 322              	.L26:
ARM GAS  C:\Users\8bit\AppData\Local\Temp\ccgSnPzI.s 			page 10


 323              		.align	2
 324              	.L25:
 325 0070 00380140 		.word	1073821696
 326              		.cfi_endproc
 327              	.LFE138:
 329              		.section	.text.scfg_pins_ultra_driven_enable,"ax",%progbits
 330              		.align	1
 331              		.global	scfg_pins_ultra_driven_enable
 332              		.syntax unified
 333              		.thumb
 334              		.thumb_func
 336              	scfg_pins_ultra_driven_enable:
 337              	.LVL22:
 338              	.LFB139:
 179:HW_Lib/AT32F435/drivers/src/at32f435_437_scfg.c **** 
 180:HW_Lib/AT32F435/drivers/src/at32f435_437_scfg.c **** /**
 181:HW_Lib/AT32F435/drivers/src/at32f435_437_scfg.c ****   * @brief  enable or disable gpio pins ultra driven.
 182:HW_Lib/AT32F435/drivers/src/at32f435_437_scfg.c ****   * @param  value:
 183:HW_Lib/AT32F435/drivers/src/at32f435_437_scfg.c ****   *         this parameter can be one of the following values:
 184:HW_Lib/AT32F435/drivers/src/at32f435_437_scfg.c ****   *         - SCFG_ULTRA_DRIVEN_PB3
 185:HW_Lib/AT32F435/drivers/src/at32f435_437_scfg.c ****   *         - SCFG_ULTRA_DRIVEN_PB9
 186:HW_Lib/AT32F435/drivers/src/at32f435_437_scfg.c ****   *         - SCFG_ULTRA_DRIVEN_PB10
 187:HW_Lib/AT32F435/drivers/src/at32f435_437_scfg.c ****   *         - SCFG_ULTRA_DRIVEN_PD12
 188:HW_Lib/AT32F435/drivers/src/at32f435_437_scfg.c ****   *         - SCFG_ULTRA_DRIVEN_PD13
 189:HW_Lib/AT32F435/drivers/src/at32f435_437_scfg.c ****   *         - SCFG_ULTRA_DRIVEN_PD14
 190:HW_Lib/AT32F435/drivers/src/at32f435_437_scfg.c ****   *         - SCFG_ULTRA_DRIVEN_PD15
 191:HW_Lib/AT32F435/drivers/src/at32f435_437_scfg.c ****   *         - SCFG_ULTRA_DRIVEN_PF14
 192:HW_Lib/AT32F435/drivers/src/at32f435_437_scfg.c ****   *         - SCFG_ULTRA_DRIVEN_PF15
 193:HW_Lib/AT32F435/drivers/src/at32f435_437_scfg.c ****   * @param  new_state (TRUE or FALSE)
 194:HW_Lib/AT32F435/drivers/src/at32f435_437_scfg.c ****   * @retval none
 195:HW_Lib/AT32F435/drivers/src/at32f435_437_scfg.c ****   */
 196:HW_Lib/AT32F435/drivers/src/at32f435_437_scfg.c **** void scfg_pins_ultra_driven_enable(scfg_ultra_driven_pins_type value, confirm_state new_state)
 197:HW_Lib/AT32F435/drivers/src/at32f435_437_scfg.c **** {
 339              		.loc 1 197 1 is_stmt 1 view -0
 340              		.cfi_startproc
 341              		@ args = 0, pretend = 0, frame = 0
 342              		@ frame_needed = 0, uses_anonymous_args = 0
 343              		@ link register save eliminated.
 198:HW_Lib/AT32F435/drivers/src/at32f435_437_scfg.c ****   if(TRUE == new_state)
 344              		.loc 1 198 3 view .LVU67
 345              		.loc 1 198 5 is_stmt 0 view .LVU68
 346 0000 0129     		cmp	r1, #1
 347 0002 0ED0     		beq	.L30
 199:HW_Lib/AT32F435/drivers/src/at32f435_437_scfg.c ****   {
 200:HW_Lib/AT32F435/drivers/src/at32f435_437_scfg.c ****     SCFG_REG(value) |= SCFG_REG_BIT(value);
 201:HW_Lib/AT32F435/drivers/src/at32f435_437_scfg.c ****   }
 202:HW_Lib/AT32F435/drivers/src/at32f435_437_scfg.c ****   else
 203:HW_Lib/AT32F435/drivers/src/at32f435_437_scfg.c ****   {
 204:HW_Lib/AT32F435/drivers/src/at32f435_437_scfg.c ****     SCFG_REG(value) &= ~(SCFG_REG_BIT(value));
 348              		.loc 1 204 5 is_stmt 1 view .LVU69
 349              		.loc 1 204 21 is_stmt 0 view .LVU70
 350 0004 030C     		lsrs	r3, r0, #16
 351 0006 03F18043 		add	r3, r3, #1073741824
 352 000a 03F59C33 		add	r3, r3, #79872
 353 000e 1A68     		ldr	r2, [r3]
 354              		.loc 1 204 26 view .LVU71
 355 0010 00F01F00 		and	r0, r0, #31
ARM GAS  C:\Users\8bit\AppData\Local\Temp\ccgSnPzI.s 			page 11


 356              	.LVL23:
 357              		.loc 1 204 26 view .LVU72
 358 0014 0121     		movs	r1, #1
 359              	.LVL24:
 360              		.loc 1 204 26 view .LVU73
 361 0016 01FA00F0 		lsl	r0, r1, r0
 362              		.loc 1 204 21 view .LVU74
 363 001a 22EA0000 		bic	r0, r2, r0
 364 001e 1860     		str	r0, [r3]
 205:HW_Lib/AT32F435/drivers/src/at32f435_437_scfg.c ****   }
 206:HW_Lib/AT32F435/drivers/src/at32f435_437_scfg.c **** }
 365              		.loc 1 206 1 view .LVU75
 366 0020 7047     		bx	lr
 367              	.LVL25:
 368              	.L30:
 200:HW_Lib/AT32F435/drivers/src/at32f435_437_scfg.c ****   }
 369              		.loc 1 200 5 is_stmt 1 view .LVU76
 200:HW_Lib/AT32F435/drivers/src/at32f435_437_scfg.c ****   }
 370              		.loc 1 200 21 is_stmt 0 view .LVU77
 371 0022 030C     		lsrs	r3, r0, #16
 372 0024 03F18043 		add	r3, r3, #1073741824
 373 0028 03F59C33 		add	r3, r3, #79872
 374 002c 1A68     		ldr	r2, [r3]
 200:HW_Lib/AT32F435/drivers/src/at32f435_437_scfg.c ****   }
 375              		.loc 1 200 24 view .LVU78
 376 002e 00F01F00 		and	r0, r0, #31
 377              	.LVL26:
 200:HW_Lib/AT32F435/drivers/src/at32f435_437_scfg.c ****   }
 378              		.loc 1 200 24 view .LVU79
 379 0032 01FA00F0 		lsl	r0, r1, r0
 200:HW_Lib/AT32F435/drivers/src/at32f435_437_scfg.c ****   }
 380              		.loc 1 200 21 view .LVU80
 381 0036 1043     		orrs	r0, r0, r2
 382 0038 1860     		str	r0, [r3]
 383 003a 7047     		bx	lr
 384              		.cfi_endproc
 385              	.LFE139:
 387              		.text
 388              	.Letext0:
 389              		.file 2 "c:\\program files (x86)\\gnu arm embedded toolchain\\10 2021.10\\arm-none-eabi\\include\\
 390              		.file 3 "c:\\program files (x86)\\gnu arm embedded toolchain\\10 2021.10\\arm-none-eabi\\include\\
 391              		.file 4 "HW_Lib/AT32F435/device_support/at32f435_437.h"
 392              		.file 5 "HW_Lib/AT32F435/drivers/inc/at32f435_437_crm.h"
 393              		.file 6 "HW_Lib/AT32F435/drivers/inc/at32f435_437_scfg.h"
ARM GAS  C:\Users\8bit\AppData\Local\Temp\ccgSnPzI.s 			page 12

