ARM GAS  C:\Users\8bit\AppData\Local\Temp\cc74oY7E.s 			page 1


   1              		.cpu cortex-m4
   2              		.arch armv7e-m
   3              		.fpu fpv4-sp-d16
   4              		.eabi_attribute 27, 1
   5              		.eabi_attribute 28, 1
   6              		.eabi_attribute 20, 1
   7              		.eabi_attribute 21, 1
   8              		.eabi_attribute 23, 3
   9              		.eabi_attribute 24, 1
  10              		.eabi_attribute 25, 1
  11              		.eabi_attribute 26, 1
  12              		.eabi_attribute 30, 1
  13              		.eabi_attribute 34, 1
  14              		.eabi_attribute 18, 4
  15              		.file	"at32f435_437_usart.c"
  16              		.text
  17              	.Ltext0:
  18              		.cfi_sections	.debug_frame
  19              		.section	.text.usart_reset,"ax",%progbits
  20              		.align	1
  21              		.global	usart_reset
  22              		.syntax unified
  23              		.thumb
  24              		.thumb_func
  26              	usart_reset:
  27              	.LVL0:
  28              	.LFB133:
  29              		.file 1 "HW_Lib/AT32F435/drivers/src/at32f435_437_usart.c"
   1:HW_Lib/AT32F435/drivers/src/at32f435_437_usart.c **** /**
   2:HW_Lib/AT32F435/drivers/src/at32f435_437_usart.c ****   **************************************************************************
   3:HW_Lib/AT32F435/drivers/src/at32f435_437_usart.c ****   * @file     at32f435_437_usart.c
   4:HW_Lib/AT32F435/drivers/src/at32f435_437_usart.c ****   * @version  v2.1.0
   5:HW_Lib/AT32F435/drivers/src/at32f435_437_usart.c ****   * @date     2022-08-16
   6:HW_Lib/AT32F435/drivers/src/at32f435_437_usart.c ****   * @brief    contains all the functions for the usart firmware library
   7:HW_Lib/AT32F435/drivers/src/at32f435_437_usart.c ****   **************************************************************************
   8:HW_Lib/AT32F435/drivers/src/at32f435_437_usart.c ****   *                       Copyright notice & Disclaimer
   9:HW_Lib/AT32F435/drivers/src/at32f435_437_usart.c ****   *
  10:HW_Lib/AT32F435/drivers/src/at32f435_437_usart.c ****   * The software Board Support Package (BSP) that is made available to
  11:HW_Lib/AT32F435/drivers/src/at32f435_437_usart.c ****   * download from Artery official website is the copyrighted work of Artery.
  12:HW_Lib/AT32F435/drivers/src/at32f435_437_usart.c ****   * Artery authorizes customers to use, copy, and distribute the BSP
  13:HW_Lib/AT32F435/drivers/src/at32f435_437_usart.c ****   * software and its related documentation for the purpose of design and
  14:HW_Lib/AT32F435/drivers/src/at32f435_437_usart.c ****   * development in conjunction with Artery microcontrollers. Use of the
  15:HW_Lib/AT32F435/drivers/src/at32f435_437_usart.c ****   * software is governed by this copyright notice and the following disclaimer.
  16:HW_Lib/AT32F435/drivers/src/at32f435_437_usart.c ****   *
  17:HW_Lib/AT32F435/drivers/src/at32f435_437_usart.c ****   * THIS SOFTWARE IS PROVIDED ON "AS IS" BASIS WITHOUT WARRANTIES,
  18:HW_Lib/AT32F435/drivers/src/at32f435_437_usart.c ****   * GUARANTEES OR REPRESENTATIONS OF ANY KIND. ARTERY EXPRESSLY DISCLAIMS,
  19:HW_Lib/AT32F435/drivers/src/at32f435_437_usart.c ****   * TO THE FULLEST EXTENT PERMITTED BY LAW, ALL EXPRESS, IMPLIED OR
  20:HW_Lib/AT32F435/drivers/src/at32f435_437_usart.c ****   * STATUTORY OR OTHER WARRANTIES, GUARANTEES OR REPRESENTATIONS,
  21:HW_Lib/AT32F435/drivers/src/at32f435_437_usart.c ****   * INCLUDING BUT NOT LIMITED TO, THE IMPLIED WARRANTIES OF MERCHANTABILITY,
  22:HW_Lib/AT32F435/drivers/src/at32f435_437_usart.c ****   * FITNESS FOR A PARTICULAR PURPOSE, OR NON-INFRINGEMENT.
  23:HW_Lib/AT32F435/drivers/src/at32f435_437_usart.c ****   *
  24:HW_Lib/AT32F435/drivers/src/at32f435_437_usart.c ****   **************************************************************************
  25:HW_Lib/AT32F435/drivers/src/at32f435_437_usart.c ****   */
  26:HW_Lib/AT32F435/drivers/src/at32f435_437_usart.c **** 
  27:HW_Lib/AT32F435/drivers/src/at32f435_437_usart.c **** /* includes ------------------------------------------------------------------*/
  28:HW_Lib/AT32F435/drivers/src/at32f435_437_usart.c **** #include "at32f435_437_conf.h"
  29:HW_Lib/AT32F435/drivers/src/at32f435_437_usart.c **** 
ARM GAS  C:\Users\8bit\AppData\Local\Temp\cc74oY7E.s 			page 2


  30:HW_Lib/AT32F435/drivers/src/at32f435_437_usart.c **** /** @addtogroup AT32F435_437_periph_driver
  31:HW_Lib/AT32F435/drivers/src/at32f435_437_usart.c ****   * @{
  32:HW_Lib/AT32F435/drivers/src/at32f435_437_usart.c ****   */
  33:HW_Lib/AT32F435/drivers/src/at32f435_437_usart.c **** 
  34:HW_Lib/AT32F435/drivers/src/at32f435_437_usart.c **** /** @defgroup USART
  35:HW_Lib/AT32F435/drivers/src/at32f435_437_usart.c ****   * @brief USART driver modules
  36:HW_Lib/AT32F435/drivers/src/at32f435_437_usart.c ****   * @{
  37:HW_Lib/AT32F435/drivers/src/at32f435_437_usart.c ****   */
  38:HW_Lib/AT32F435/drivers/src/at32f435_437_usart.c **** 
  39:HW_Lib/AT32F435/drivers/src/at32f435_437_usart.c **** #ifdef USART_MODULE_ENABLED
  40:HW_Lib/AT32F435/drivers/src/at32f435_437_usart.c **** 
  41:HW_Lib/AT32F435/drivers/src/at32f435_437_usart.c **** /** @defgroup USART_private_functions
  42:HW_Lib/AT32F435/drivers/src/at32f435_437_usart.c ****   * @{
  43:HW_Lib/AT32F435/drivers/src/at32f435_437_usart.c ****   */
  44:HW_Lib/AT32F435/drivers/src/at32f435_437_usart.c **** 
  45:HW_Lib/AT32F435/drivers/src/at32f435_437_usart.c **** /**
  46:HW_Lib/AT32F435/drivers/src/at32f435_437_usart.c ****   * @brief  deinitialize the usart peripheral registers to their default reset values.
  47:HW_Lib/AT32F435/drivers/src/at32f435_437_usart.c ****   * @param  usart_x: select the usart or the uart peripheral.
  48:HW_Lib/AT32F435/drivers/src/at32f435_437_usart.c ****   *         this parameter can be one of the following values:
  49:HW_Lib/AT32F435/drivers/src/at32f435_437_usart.c ****   *         USART1, USART2, USART3, UART4, UART5, USART6, UART7,or UART8.
  50:HW_Lib/AT32F435/drivers/src/at32f435_437_usart.c ****   * @retval none
  51:HW_Lib/AT32F435/drivers/src/at32f435_437_usart.c ****   */
  52:HW_Lib/AT32F435/drivers/src/at32f435_437_usart.c **** void usart_reset(usart_type* usart_x)
  53:HW_Lib/AT32F435/drivers/src/at32f435_437_usart.c **** {
  30              		.loc 1 53 1 view -0
  31              		.cfi_startproc
  32              		@ args = 0, pretend = 0, frame = 0
  33              		@ frame_needed = 0, uses_anonymous_args = 0
  34              		.loc 1 53 1 is_stmt 0 view .LVU1
  35 0000 10B5     		push	{r4, lr}
  36              	.LCFI0:
  37              		.cfi_def_cfa_offset 8
  38              		.cfi_offset 4, -8
  39              		.cfi_offset 14, -4
  54:HW_Lib/AT32F435/drivers/src/at32f435_437_usart.c ****   if(usart_x == USART1)
  40              		.loc 1 54 3 is_stmt 1 view .LVU2
  41              		.loc 1 54 5 is_stmt 0 view .LVU3
  42 0002 344B     		ldr	r3, .L19
  43 0004 9842     		cmp	r0, r3
  44 0006 15D0     		beq	.L11
  55:HW_Lib/AT32F435/drivers/src/at32f435_437_usart.c ****   {
  56:HW_Lib/AT32F435/drivers/src/at32f435_437_usart.c ****     crm_periph_reset(CRM_USART1_PERIPH_RESET, TRUE);
  57:HW_Lib/AT32F435/drivers/src/at32f435_437_usart.c ****     crm_periph_reset(CRM_USART1_PERIPH_RESET, FALSE);
  58:HW_Lib/AT32F435/drivers/src/at32f435_437_usart.c ****   }
  59:HW_Lib/AT32F435/drivers/src/at32f435_437_usart.c ****   else if(usart_x == USART2)
  45              		.loc 1 59 8 is_stmt 1 view .LVU4
  46              		.loc 1 59 10 is_stmt 0 view .LVU5
  47 0008 334B     		ldr	r3, .L19+4
  48 000a 9842     		cmp	r0, r3
  49 000c 1CD0     		beq	.L12
  60:HW_Lib/AT32F435/drivers/src/at32f435_437_usart.c ****   {
  61:HW_Lib/AT32F435/drivers/src/at32f435_437_usart.c ****     crm_periph_reset(CRM_USART2_PERIPH_RESET, TRUE);
  62:HW_Lib/AT32F435/drivers/src/at32f435_437_usart.c ****     crm_periph_reset(CRM_USART2_PERIPH_RESET, FALSE);
  63:HW_Lib/AT32F435/drivers/src/at32f435_437_usart.c ****   }
  64:HW_Lib/AT32F435/drivers/src/at32f435_437_usart.c ****   else if(usart_x == USART3)
  50              		.loc 1 64 8 is_stmt 1 view .LVU6
  51              		.loc 1 64 10 is_stmt 0 view .LVU7
ARM GAS  C:\Users\8bit\AppData\Local\Temp\cc74oY7E.s 			page 3


  52 000e 334B     		ldr	r3, .L19+8
  53 0010 9842     		cmp	r0, r3
  54 0012 23D0     		beq	.L13
  65:HW_Lib/AT32F435/drivers/src/at32f435_437_usart.c ****   {
  66:HW_Lib/AT32F435/drivers/src/at32f435_437_usart.c ****     crm_periph_reset(CRM_USART3_PERIPH_RESET, TRUE);
  67:HW_Lib/AT32F435/drivers/src/at32f435_437_usart.c ****     crm_periph_reset(CRM_USART3_PERIPH_RESET, FALSE);
  68:HW_Lib/AT32F435/drivers/src/at32f435_437_usart.c ****   }
  69:HW_Lib/AT32F435/drivers/src/at32f435_437_usart.c ****   else if(usart_x == UART4)
  55              		.loc 1 69 8 is_stmt 1 view .LVU8
  56              		.loc 1 69 10 is_stmt 0 view .LVU9
  57 0014 324B     		ldr	r3, .L19+12
  58 0016 9842     		cmp	r0, r3
  59 0018 2AD0     		beq	.L14
  70:HW_Lib/AT32F435/drivers/src/at32f435_437_usart.c ****   {
  71:HW_Lib/AT32F435/drivers/src/at32f435_437_usart.c ****     crm_periph_reset(CRM_UART4_PERIPH_RESET, TRUE);
  72:HW_Lib/AT32F435/drivers/src/at32f435_437_usart.c ****     crm_periph_reset(CRM_UART4_PERIPH_RESET, FALSE);
  73:HW_Lib/AT32F435/drivers/src/at32f435_437_usart.c ****   }
  74:HW_Lib/AT32F435/drivers/src/at32f435_437_usart.c ****   else if(usart_x == UART5)
  60              		.loc 1 74 8 is_stmt 1 view .LVU10
  61              		.loc 1 74 10 is_stmt 0 view .LVU11
  62 001a 324B     		ldr	r3, .L19+16
  63 001c 9842     		cmp	r0, r3
  64 001e 31D0     		beq	.L15
  75:HW_Lib/AT32F435/drivers/src/at32f435_437_usart.c ****   {
  76:HW_Lib/AT32F435/drivers/src/at32f435_437_usart.c ****     crm_periph_reset(CRM_UART5_PERIPH_RESET, TRUE);
  77:HW_Lib/AT32F435/drivers/src/at32f435_437_usart.c ****     crm_periph_reset(CRM_UART5_PERIPH_RESET, FALSE);
  78:HW_Lib/AT32F435/drivers/src/at32f435_437_usart.c ****   }
  79:HW_Lib/AT32F435/drivers/src/at32f435_437_usart.c ****   else if(usart_x == USART6)
  65              		.loc 1 79 8 is_stmt 1 view .LVU12
  66              		.loc 1 79 10 is_stmt 0 view .LVU13
  67 0020 314B     		ldr	r3, .L19+20
  68 0022 9842     		cmp	r0, r3
  69 0024 38D0     		beq	.L16
  80:HW_Lib/AT32F435/drivers/src/at32f435_437_usart.c ****   {
  81:HW_Lib/AT32F435/drivers/src/at32f435_437_usart.c ****     crm_periph_reset(CRM_USART6_PERIPH_RESET, TRUE);
  82:HW_Lib/AT32F435/drivers/src/at32f435_437_usart.c ****     crm_periph_reset(CRM_USART6_PERIPH_RESET, FALSE);
  83:HW_Lib/AT32F435/drivers/src/at32f435_437_usart.c ****   }
  84:HW_Lib/AT32F435/drivers/src/at32f435_437_usart.c ****   else if(usart_x == UART7)
  70              		.loc 1 84 8 is_stmt 1 view .LVU14
  71              		.loc 1 84 10 is_stmt 0 view .LVU15
  72 0026 314B     		ldr	r3, .L19+24
  73 0028 9842     		cmp	r0, r3
  74 002a 3FD0     		beq	.L17
  85:HW_Lib/AT32F435/drivers/src/at32f435_437_usart.c ****   {
  86:HW_Lib/AT32F435/drivers/src/at32f435_437_usart.c ****     crm_periph_reset(CRM_UART7_PERIPH_RESET, TRUE);
  87:HW_Lib/AT32F435/drivers/src/at32f435_437_usart.c ****     crm_periph_reset(CRM_UART7_PERIPH_RESET, FALSE);
  88:HW_Lib/AT32F435/drivers/src/at32f435_437_usart.c ****   }
  89:HW_Lib/AT32F435/drivers/src/at32f435_437_usart.c ****   else if(usart_x == UART8)
  75              		.loc 1 89 8 is_stmt 1 view .LVU16
  76              		.loc 1 89 10 is_stmt 0 view .LVU17
  77 002c 304B     		ldr	r3, .L19+28
  78 002e 9842     		cmp	r0, r3
  79 0030 46D0     		beq	.L18
  80              	.LVL1:
  81              	.L1:
  90:HW_Lib/AT32F435/drivers/src/at32f435_437_usart.c ****   {
  91:HW_Lib/AT32F435/drivers/src/at32f435_437_usart.c ****     crm_periph_reset(CRM_UART8_PERIPH_RESET, TRUE);
ARM GAS  C:\Users\8bit\AppData\Local\Temp\cc74oY7E.s 			page 4


  92:HW_Lib/AT32F435/drivers/src/at32f435_437_usart.c ****     crm_periph_reset(CRM_UART8_PERIPH_RESET, FALSE);
  93:HW_Lib/AT32F435/drivers/src/at32f435_437_usart.c ****   }
  94:HW_Lib/AT32F435/drivers/src/at32f435_437_usart.c **** }
  82              		.loc 1 94 1 view .LVU18
  83 0032 10BD     		pop	{r4, pc}
  84              	.LVL2:
  85              	.L11:
  56:HW_Lib/AT32F435/drivers/src/at32f435_437_usart.c ****     crm_periph_reset(CRM_USART1_PERIPH_RESET, FALSE);
  86              		.loc 1 56 5 is_stmt 1 view .LVU19
  87 0034 2F4C     		ldr	r4, .L19+32
  88 0036 0121     		movs	r1, #1
  89 0038 2046     		mov	r0, r4
  90              	.LVL3:
  56:HW_Lib/AT32F435/drivers/src/at32f435_437_usart.c ****     crm_periph_reset(CRM_USART1_PERIPH_RESET, FALSE);
  91              		.loc 1 56 5 is_stmt 0 view .LVU20
  92 003a FFF7FEFF 		bl	crm_periph_reset
  93              	.LVL4:
  57:HW_Lib/AT32F435/drivers/src/at32f435_437_usart.c ****   }
  94              		.loc 1 57 5 is_stmt 1 view .LVU21
  95 003e 0021     		movs	r1, #0
  96 0040 2046     		mov	r0, r4
  97 0042 FFF7FEFF 		bl	crm_periph_reset
  98              	.LVL5:
  99 0046 F4E7     		b	.L1
 100              	.LVL6:
 101              	.L12:
  61:HW_Lib/AT32F435/drivers/src/at32f435_437_usart.c ****     crm_periph_reset(CRM_USART2_PERIPH_RESET, FALSE);
 102              		.loc 1 61 5 view .LVU22
 103 0048 2B4C     		ldr	r4, .L19+36
 104 004a 0121     		movs	r1, #1
 105 004c 2046     		mov	r0, r4
 106              	.LVL7:
  61:HW_Lib/AT32F435/drivers/src/at32f435_437_usart.c ****     crm_periph_reset(CRM_USART2_PERIPH_RESET, FALSE);
 107              		.loc 1 61 5 is_stmt 0 view .LVU23
 108 004e FFF7FEFF 		bl	crm_periph_reset
 109              	.LVL8:
  62:HW_Lib/AT32F435/drivers/src/at32f435_437_usart.c ****   }
 110              		.loc 1 62 5 is_stmt 1 view .LVU24
 111 0052 0021     		movs	r1, #0
 112 0054 2046     		mov	r0, r4
 113 0056 FFF7FEFF 		bl	crm_periph_reset
 114              	.LVL9:
 115 005a EAE7     		b	.L1
 116              	.LVL10:
 117              	.L13:
  66:HW_Lib/AT32F435/drivers/src/at32f435_437_usart.c ****     crm_periph_reset(CRM_USART3_PERIPH_RESET, FALSE);
 118              		.loc 1 66 5 view .LVU25
 119 005c 274C     		ldr	r4, .L19+40
 120 005e 0121     		movs	r1, #1
 121 0060 2046     		mov	r0, r4
 122              	.LVL11:
  66:HW_Lib/AT32F435/drivers/src/at32f435_437_usart.c ****     crm_periph_reset(CRM_USART3_PERIPH_RESET, FALSE);
 123              		.loc 1 66 5 is_stmt 0 view .LVU26
 124 0062 FFF7FEFF 		bl	crm_periph_reset
 125              	.LVL12:
  67:HW_Lib/AT32F435/drivers/src/at32f435_437_usart.c ****   }
 126              		.loc 1 67 5 is_stmt 1 view .LVU27
ARM GAS  C:\Users\8bit\AppData\Local\Temp\cc74oY7E.s 			page 5


 127 0066 0021     		movs	r1, #0
 128 0068 2046     		mov	r0, r4
 129 006a FFF7FEFF 		bl	crm_periph_reset
 130              	.LVL13:
 131 006e E0E7     		b	.L1
 132              	.LVL14:
 133              	.L14:
  71:HW_Lib/AT32F435/drivers/src/at32f435_437_usart.c ****     crm_periph_reset(CRM_UART4_PERIPH_RESET, FALSE);
 134              		.loc 1 71 5 view .LVU28
 135 0070 234C     		ldr	r4, .L19+44
 136 0072 0121     		movs	r1, #1
 137 0074 2046     		mov	r0, r4
 138              	.LVL15:
  71:HW_Lib/AT32F435/drivers/src/at32f435_437_usart.c ****     crm_periph_reset(CRM_UART4_PERIPH_RESET, FALSE);
 139              		.loc 1 71 5 is_stmt 0 view .LVU29
 140 0076 FFF7FEFF 		bl	crm_periph_reset
 141              	.LVL16:
  72:HW_Lib/AT32F435/drivers/src/at32f435_437_usart.c ****   }
 142              		.loc 1 72 5 is_stmt 1 view .LVU30
 143 007a 0021     		movs	r1, #0
 144 007c 2046     		mov	r0, r4
 145 007e FFF7FEFF 		bl	crm_periph_reset
 146              	.LVL17:
 147 0082 D6E7     		b	.L1
 148              	.LVL18:
 149              	.L15:
  76:HW_Lib/AT32F435/drivers/src/at32f435_437_usart.c ****     crm_periph_reset(CRM_UART5_PERIPH_RESET, FALSE);
 150              		.loc 1 76 5 view .LVU31
 151 0084 1F4C     		ldr	r4, .L19+48
 152 0086 0121     		movs	r1, #1
 153 0088 2046     		mov	r0, r4
 154              	.LVL19:
  76:HW_Lib/AT32F435/drivers/src/at32f435_437_usart.c ****     crm_periph_reset(CRM_UART5_PERIPH_RESET, FALSE);
 155              		.loc 1 76 5 is_stmt 0 view .LVU32
 156 008a FFF7FEFF 		bl	crm_periph_reset
 157              	.LVL20:
  77:HW_Lib/AT32F435/drivers/src/at32f435_437_usart.c ****   }
 158              		.loc 1 77 5 is_stmt 1 view .LVU33
 159 008e 0021     		movs	r1, #0
 160 0090 2046     		mov	r0, r4
 161 0092 FFF7FEFF 		bl	crm_periph_reset
 162              	.LVL21:
 163 0096 CCE7     		b	.L1
 164              	.LVL22:
 165              	.L16:
  81:HW_Lib/AT32F435/drivers/src/at32f435_437_usart.c ****     crm_periph_reset(CRM_USART6_PERIPH_RESET, FALSE);
 166              		.loc 1 81 5 view .LVU34
 167 0098 1B4C     		ldr	r4, .L19+52
 168 009a 0121     		movs	r1, #1
 169 009c 2046     		mov	r0, r4
 170              	.LVL23:
  81:HW_Lib/AT32F435/drivers/src/at32f435_437_usart.c ****     crm_periph_reset(CRM_USART6_PERIPH_RESET, FALSE);
 171              		.loc 1 81 5 is_stmt 0 view .LVU35
 172 009e FFF7FEFF 		bl	crm_periph_reset
 173              	.LVL24:
  82:HW_Lib/AT32F435/drivers/src/at32f435_437_usart.c ****   }
 174              		.loc 1 82 5 is_stmt 1 view .LVU36
ARM GAS  C:\Users\8bit\AppData\Local\Temp\cc74oY7E.s 			page 6


 175 00a2 0021     		movs	r1, #0
 176 00a4 2046     		mov	r0, r4
 177 00a6 FFF7FEFF 		bl	crm_periph_reset
 178              	.LVL25:
 179 00aa C2E7     		b	.L1
 180              	.LVL26:
 181              	.L17:
  86:HW_Lib/AT32F435/drivers/src/at32f435_437_usart.c ****     crm_periph_reset(CRM_UART7_PERIPH_RESET, FALSE);
 182              		.loc 1 86 5 view .LVU37
 183 00ac 174C     		ldr	r4, .L19+56
 184 00ae 0121     		movs	r1, #1
 185 00b0 2046     		mov	r0, r4
 186              	.LVL27:
  86:HW_Lib/AT32F435/drivers/src/at32f435_437_usart.c ****     crm_periph_reset(CRM_UART7_PERIPH_RESET, FALSE);
 187              		.loc 1 86 5 is_stmt 0 view .LVU38
 188 00b2 FFF7FEFF 		bl	crm_periph_reset
 189              	.LVL28:
  87:HW_Lib/AT32F435/drivers/src/at32f435_437_usart.c ****   }
 190              		.loc 1 87 5 is_stmt 1 view .LVU39
 191 00b6 0021     		movs	r1, #0
 192 00b8 2046     		mov	r0, r4
 193 00ba FFF7FEFF 		bl	crm_periph_reset
 194              	.LVL29:
 195 00be B8E7     		b	.L1
 196              	.LVL30:
 197              	.L18:
  91:HW_Lib/AT32F435/drivers/src/at32f435_437_usart.c ****     crm_periph_reset(CRM_UART8_PERIPH_RESET, FALSE);
 198              		.loc 1 91 5 view .LVU40
 199 00c0 134C     		ldr	r4, .L19+60
 200 00c2 0121     		movs	r1, #1
 201 00c4 2046     		mov	r0, r4
 202              	.LVL31:
  91:HW_Lib/AT32F435/drivers/src/at32f435_437_usart.c ****     crm_periph_reset(CRM_UART8_PERIPH_RESET, FALSE);
 203              		.loc 1 91 5 is_stmt 0 view .LVU41
 204 00c6 FFF7FEFF 		bl	crm_periph_reset
 205              	.LVL32:
  92:HW_Lib/AT32F435/drivers/src/at32f435_437_usart.c ****   }
 206              		.loc 1 92 5 is_stmt 1 view .LVU42
 207 00ca 0021     		movs	r1, #0
 208 00cc 2046     		mov	r0, r4
 209 00ce FFF7FEFF 		bl	crm_periph_reset
 210              	.LVL33:
 211              		.loc 1 94 1 is_stmt 0 view .LVU43
 212 00d2 AEE7     		b	.L1
 213              	.L20:
 214              		.align	2
 215              	.L19:
 216 00d4 00100140 		.word	1073811456
 217 00d8 00440040 		.word	1073759232
 218 00dc 00480040 		.word	1073760256
 219 00e0 004C0040 		.word	1073761280
 220 00e4 00500040 		.word	1073762304
 221 00e8 00140140 		.word	1073812480
 222 00ec 00780040 		.word	1073772544
 223 00f0 007C0040 		.word	1073773568
 224 00f4 04002400 		.word	2359300
 225 00f8 11002000 		.word	2097169
ARM GAS  C:\Users\8bit\AppData\Local\Temp\cc74oY7E.s 			page 7


 226 00fc 12002000 		.word	2097170
 227 0100 13002000 		.word	2097171
 228 0104 14002000 		.word	2097172
 229 0108 05002400 		.word	2359301
 230 010c 1E002000 		.word	2097182
 231 0110 1F002000 		.word	2097183
 232              		.cfi_endproc
 233              	.LFE133:
 235              		.section	.text.usart_init,"ax",%progbits
 236              		.align	1
 237              		.global	usart_init
 238              		.syntax unified
 239              		.thumb
 240              		.thumb_func
 242              	usart_init:
 243              	.LVL34:
 244              	.LFB134:
  95:HW_Lib/AT32F435/drivers/src/at32f435_437_usart.c **** 
  96:HW_Lib/AT32F435/drivers/src/at32f435_437_usart.c **** /**
  97:HW_Lib/AT32F435/drivers/src/at32f435_437_usart.c ****   * @brief  initialize the usart peripheral according to the specified parameters.
  98:HW_Lib/AT32F435/drivers/src/at32f435_437_usart.c ****   * @param  usart_x: select the usart or the uart peripheral.
  99:HW_Lib/AT32F435/drivers/src/at32f435_437_usart.c ****   *         this parameter can be one of the following values:
 100:HW_Lib/AT32F435/drivers/src/at32f435_437_usart.c ****   *         USART1, USART2, USART3, UART4 ,UART5, USART6, UART7 or UART8.
 101:HW_Lib/AT32F435/drivers/src/at32f435_437_usart.c ****   * @param  baud_rate: configure the usart communication baud rate.
 102:HW_Lib/AT32F435/drivers/src/at32f435_437_usart.c ****   * @param  data_bit: data bits transmitted or received in a frame
 103:HW_Lib/AT32F435/drivers/src/at32f435_437_usart.c ****   *         this parameter can be one of the following values:
 104:HW_Lib/AT32F435/drivers/src/at32f435_437_usart.c ****   *         - USART_DATA_7BITS
 105:HW_Lib/AT32F435/drivers/src/at32f435_437_usart.c ****   *         - USART_DATA_8BITS
 106:HW_Lib/AT32F435/drivers/src/at32f435_437_usart.c ****   *         - USART_DATA_9BITS.
 107:HW_Lib/AT32F435/drivers/src/at32f435_437_usart.c ****   * @param  stop_bit: stop bits transmitted
 108:HW_Lib/AT32F435/drivers/src/at32f435_437_usart.c ****   *         this parameter can be one of the following values:
 109:HW_Lib/AT32F435/drivers/src/at32f435_437_usart.c ****   *         - USART_STOP_1_BIT
 110:HW_Lib/AT32F435/drivers/src/at32f435_437_usart.c ****   *         - USART_STOP_0_5_BIT.
 111:HW_Lib/AT32F435/drivers/src/at32f435_437_usart.c ****   *         - USART_STOP_2_BIT
 112:HW_Lib/AT32F435/drivers/src/at32f435_437_usart.c ****   *         - USART_STOP_1_5_BIT.
 113:HW_Lib/AT32F435/drivers/src/at32f435_437_usart.c ****   * @retval none
 114:HW_Lib/AT32F435/drivers/src/at32f435_437_usart.c ****   */
 115:HW_Lib/AT32F435/drivers/src/at32f435_437_usart.c **** void usart_init(usart_type* usart_x, uint32_t baud_rate, usart_data_bit_num_type data_bit, usart_st
 116:HW_Lib/AT32F435/drivers/src/at32f435_437_usart.c **** {
 245              		.loc 1 116 1 is_stmt 1 view -0
 246              		.cfi_startproc
 247              		@ args = 0, pretend = 0, frame = 16
 248              		@ frame_needed = 0, uses_anonymous_args = 0
 249              		.loc 1 116 1 is_stmt 0 view .LVU45
 250 0000 2DE9F041 		push	{r4, r5, r6, r7, r8, lr}
 251              	.LCFI1:
 252              		.cfi_def_cfa_offset 24
 253              		.cfi_offset 4, -24
 254              		.cfi_offset 5, -20
 255              		.cfi_offset 6, -16
 256              		.cfi_offset 7, -12
 257              		.cfi_offset 8, -8
 258              		.cfi_offset 14, -4
 259 0004 84B0     		sub	sp, sp, #16
 260              	.LCFI2:
 261              		.cfi_def_cfa_offset 40
 262 0006 0546     		mov	r5, r0
ARM GAS  C:\Users\8bit\AppData\Local\Temp\cc74oY7E.s 			page 8


 263 0008 8846     		mov	r8, r1
 264 000a 1646     		mov	r6, r2
 265 000c 1F46     		mov	r7, r3
 117:HW_Lib/AT32F435/drivers/src/at32f435_437_usart.c ****   crm_clocks_freq_type clocks_freq;
 266              		.loc 1 117 3 is_stmt 1 view .LVU46
 118:HW_Lib/AT32F435/drivers/src/at32f435_437_usart.c ****   uint32_t apb_clock, temp_val;
 267              		.loc 1 118 3 view .LVU47
 119:HW_Lib/AT32F435/drivers/src/at32f435_437_usart.c ****   crm_clocks_freq_get(&clocks_freq);
 268              		.loc 1 119 3 view .LVU48
 269 000e 6846     		mov	r0, sp
 270              	.LVL35:
 271              		.loc 1 119 3 is_stmt 0 view .LVU49
 272 0010 FFF7FEFF 		bl	crm_clocks_freq_get
 273              	.LVL36:
 120:HW_Lib/AT32F435/drivers/src/at32f435_437_usart.c ****   if((usart_x == USART1) || (usart_x == USART6))
 274              		.loc 1 120 3 is_stmt 1 view .LVU50
 275              		.loc 1 120 5 is_stmt 0 view .LVU51
 276 0014 254B     		ldr	r3, .L32
 277 0016 9D42     		cmp	r5, r3
 278 0018 05D0     		beq	.L22
 279              		.loc 1 120 26 discriminator 1 view .LVU52
 280 001a 03F58063 		add	r3, r3, #1024
 281 001e 9D42     		cmp	r5, r3
 282 0020 01D0     		beq	.L22
 121:HW_Lib/AT32F435/drivers/src/at32f435_437_usart.c ****   {
 122:HW_Lib/AT32F435/drivers/src/at32f435_437_usart.c ****     apb_clock = clocks_freq.apb2_freq;
 123:HW_Lib/AT32F435/drivers/src/at32f435_437_usart.c ****   }
 124:HW_Lib/AT32F435/drivers/src/at32f435_437_usart.c ****   else
 125:HW_Lib/AT32F435/drivers/src/at32f435_437_usart.c ****   {
 126:HW_Lib/AT32F435/drivers/src/at32f435_437_usart.c ****     apb_clock = clocks_freq.apb1_freq;
 283              		.loc 1 126 5 is_stmt 1 view .LVU53
 284              		.loc 1 126 15 is_stmt 0 view .LVU54
 285 0022 039C     		ldr	r4, [sp, #12]
 286              	.LVL37:
 287              		.loc 1 126 15 view .LVU55
 288 0024 00E0     		b	.L24
 289              	.LVL38:
 290              	.L22:
 122:HW_Lib/AT32F435/drivers/src/at32f435_437_usart.c ****   }
 291              		.loc 1 122 5 is_stmt 1 view .LVU56
 122:HW_Lib/AT32F435/drivers/src/at32f435_437_usart.c ****   }
 292              		.loc 1 122 15 is_stmt 0 view .LVU57
 293 0026 029C     		ldr	r4, [sp, #8]
 294              	.LVL39:
 295              	.L24:
 127:HW_Lib/AT32F435/drivers/src/at32f435_437_usart.c ****   }
 128:HW_Lib/AT32F435/drivers/src/at32f435_437_usart.c ****   temp_val = (apb_clock * 10 / baud_rate);
 296              		.loc 1 128 3 is_stmt 1 view .LVU58
 297              		.loc 1 128 25 is_stmt 0 view .LVU59
 298 0028 04EB8404 		add	r4, r4, r4, lsl #2
 299              	.LVL40:
 300              		.loc 1 128 25 view .LVU60
 301 002c 6400     		lsls	r4, r4, #1
 302              		.loc 1 128 12 view .LVU61
 303 002e B4FBF8F1 		udiv	r1, r4, r8
 304              	.LVL41:
 129:HW_Lib/AT32F435/drivers/src/at32f435_437_usart.c ****   if((temp_val % 10) < 5)
ARM GAS  C:\Users\8bit\AppData\Local\Temp\cc74oY7E.s 			page 9


 305              		.loc 1 129 3 is_stmt 1 view .LVU62
 306              		.loc 1 129 16 is_stmt 0 view .LVU63
 307 0032 1F4B     		ldr	r3, .L32+4
 308 0034 A3FB0123 		umull	r2, r3, r3, r1
 309 0038 DB08     		lsrs	r3, r3, #3
 310 003a 03EB8303 		add	r3, r3, r3, lsl #2
 311 003e A1EB4303 		sub	r3, r1, r3, lsl #1
 312              		.loc 1 129 5 view .LVU64
 313 0042 042B     		cmp	r3, #4
 314 0044 18D8     		bhi	.L25
 130:HW_Lib/AT32F435/drivers/src/at32f435_437_usart.c ****   {
 131:HW_Lib/AT32F435/drivers/src/at32f435_437_usart.c ****     temp_val = (temp_val / 10);
 315              		.loc 1 131 5 is_stmt 1 view .LVU65
 316              		.loc 1 131 14 is_stmt 0 view .LVU66
 317 0046 1A4B     		ldr	r3, .L32+4
 318 0048 A3FB0131 		umull	r3, r1, r3, r1
 319              	.LVL42:
 320              		.loc 1 131 14 view .LVU67
 321 004c C908     		lsrs	r1, r1, #3
 322              	.LVL43:
 323              	.L26:
 132:HW_Lib/AT32F435/drivers/src/at32f435_437_usart.c ****   }
 133:HW_Lib/AT32F435/drivers/src/at32f435_437_usart.c ****   else
 134:HW_Lib/AT32F435/drivers/src/at32f435_437_usart.c ****   {
 135:HW_Lib/AT32F435/drivers/src/at32f435_437_usart.c ****     temp_val = (temp_val / 10) + 1;
 136:HW_Lib/AT32F435/drivers/src/at32f435_437_usart.c ****   }
 137:HW_Lib/AT32F435/drivers/src/at32f435_437_usart.c ****   usart_x->baudr_bit.div = temp_val;
 324              		.loc 1 137 3 is_stmt 1 view .LVU68
 325              		.loc 1 137 26 is_stmt 0 view .LVU69
 326 004e 89B2     		uxth	r1, r1
 327              	.LVL44:
 328              		.loc 1 137 26 view .LVU70
 329 0050 AB68     		ldr	r3, [r5, #8]
 330 0052 61F30F03 		bfi	r3, r1, #0, #16
 331 0056 AB60     		str	r3, [r5, #8]
 138:HW_Lib/AT32F435/drivers/src/at32f435_437_usart.c ****   if(data_bit == USART_DATA_7BITS)
 332              		.loc 1 138 3 is_stmt 1 view .LVU71
 333              		.loc 1 138 5 is_stmt 0 view .LVU72
 334 0058 A6B9     		cbnz	r6, .L27
 139:HW_Lib/AT32F435/drivers/src/at32f435_437_usart.c ****   {
 140:HW_Lib/AT32F435/drivers/src/at32f435_437_usart.c ****     usart_x->ctrl1_bit.dbn_h = 1;
 335              		.loc 1 140 5 is_stmt 1 view .LVU73
 336              		.loc 1 140 30 is_stmt 0 view .LVU74
 337 005a EB68     		ldr	r3, [r5, #12]
 338 005c 43F08053 		orr	r3, r3, #268435456
 339 0060 EB60     		str	r3, [r5, #12]
 141:HW_Lib/AT32F435/drivers/src/at32f435_437_usart.c ****     usart_x->ctrl1_bit.dbn_l = 0;
 340              		.loc 1 141 5 is_stmt 1 view .LVU75
 341              		.loc 1 141 30 is_stmt 0 view .LVU76
 342 0062 EB68     		ldr	r3, [r5, #12]
 343 0064 6FF30C33 		bfc	r3, #12, #1
 344 0068 EB60     		str	r3, [r5, #12]
 345              	.L28:
 142:HW_Lib/AT32F435/drivers/src/at32f435_437_usart.c ****   }
 143:HW_Lib/AT32F435/drivers/src/at32f435_437_usart.c ****   else if(data_bit == USART_DATA_8BITS)
 144:HW_Lib/AT32F435/drivers/src/at32f435_437_usart.c ****   {
 145:HW_Lib/AT32F435/drivers/src/at32f435_437_usart.c ****     usart_x->ctrl1_bit.dbn_h = 0;
ARM GAS  C:\Users\8bit\AppData\Local\Temp\cc74oY7E.s 			page 10


 146:HW_Lib/AT32F435/drivers/src/at32f435_437_usart.c ****     usart_x->ctrl1_bit.dbn_l = 0;
 147:HW_Lib/AT32F435/drivers/src/at32f435_437_usart.c ****   }
 148:HW_Lib/AT32F435/drivers/src/at32f435_437_usart.c ****   else
 149:HW_Lib/AT32F435/drivers/src/at32f435_437_usart.c ****   {
 150:HW_Lib/AT32F435/drivers/src/at32f435_437_usart.c ****     usart_x->ctrl1_bit.dbn_h = 0;
 151:HW_Lib/AT32F435/drivers/src/at32f435_437_usart.c ****     usart_x->ctrl1_bit.dbn_l = 1;
 152:HW_Lib/AT32F435/drivers/src/at32f435_437_usart.c ****   }
 153:HW_Lib/AT32F435/drivers/src/at32f435_437_usart.c ****   usart_x->ctrl2_bit.stopbn = stop_bit;
 346              		.loc 1 153 3 is_stmt 1 view .LVU77
 347              		.loc 1 153 29 is_stmt 0 view .LVU78
 348 006a 2B69     		ldr	r3, [r5, #16]
 349 006c 67F30D33 		bfi	r3, r7, #12, #2
 350 0070 2B61     		str	r3, [r5, #16]
 154:HW_Lib/AT32F435/drivers/src/at32f435_437_usart.c **** }
 351              		.loc 1 154 1 view .LVU79
 352 0072 04B0     		add	sp, sp, #16
 353              	.LCFI3:
 354              		.cfi_remember_state
 355              		.cfi_def_cfa_offset 24
 356              		@ sp needed
 357 0074 BDE8F081 		pop	{r4, r5, r6, r7, r8, pc}
 358              	.LVL45:
 359              	.L25:
 360              	.LCFI4:
 361              		.cfi_restore_state
 135:HW_Lib/AT32F435/drivers/src/at32f435_437_usart.c ****   }
 362              		.loc 1 135 5 is_stmt 1 view .LVU80
 135:HW_Lib/AT32F435/drivers/src/at32f435_437_usart.c ****   }
 363              		.loc 1 135 26 is_stmt 0 view .LVU81
 364 0078 0D4B     		ldr	r3, .L32+4
 365 007a A3FB0131 		umull	r3, r1, r3, r1
 366              	.LVL46:
 135:HW_Lib/AT32F435/drivers/src/at32f435_437_usart.c ****   }
 367              		.loc 1 135 26 view .LVU82
 368 007e C908     		lsrs	r1, r1, #3
 135:HW_Lib/AT32F435/drivers/src/at32f435_437_usart.c ****   }
 369              		.loc 1 135 14 view .LVU83
 370 0080 0131     		adds	r1, r1, #1
 371              	.LVL47:
 135:HW_Lib/AT32F435/drivers/src/at32f435_437_usart.c ****   }
 372              		.loc 1 135 14 view .LVU84
 373 0082 E4E7     		b	.L26
 374              	.LVL48:
 375              	.L27:
 143:HW_Lib/AT32F435/drivers/src/at32f435_437_usart.c ****   {
 376              		.loc 1 143 8 is_stmt 1 view .LVU85
 143:HW_Lib/AT32F435/drivers/src/at32f435_437_usart.c ****   {
 377              		.loc 1 143 10 is_stmt 0 view .LVU86
 378 0084 012E     		cmp	r6, #1
 379 0086 08D0     		beq	.L31
 150:HW_Lib/AT32F435/drivers/src/at32f435_437_usart.c ****     usart_x->ctrl1_bit.dbn_l = 1;
 380              		.loc 1 150 5 is_stmt 1 view .LVU87
 150:HW_Lib/AT32F435/drivers/src/at32f435_437_usart.c ****     usart_x->ctrl1_bit.dbn_l = 1;
 381              		.loc 1 150 30 is_stmt 0 view .LVU88
 382 0088 EB68     		ldr	r3, [r5, #12]
 383 008a 6FF31C73 		bfc	r3, #28, #1
 384 008e EB60     		str	r3, [r5, #12]
ARM GAS  C:\Users\8bit\AppData\Local\Temp\cc74oY7E.s 			page 11


 151:HW_Lib/AT32F435/drivers/src/at32f435_437_usart.c ****   }
 385              		.loc 1 151 5 is_stmt 1 view .LVU89
 151:HW_Lib/AT32F435/drivers/src/at32f435_437_usart.c ****   }
 386              		.loc 1 151 30 is_stmt 0 view .LVU90
 387 0090 EB68     		ldr	r3, [r5, #12]
 388 0092 43F48053 		orr	r3, r3, #4096
 389 0096 EB60     		str	r3, [r5, #12]
 390 0098 E7E7     		b	.L28
 391              	.L31:
 145:HW_Lib/AT32F435/drivers/src/at32f435_437_usart.c ****     usart_x->ctrl1_bit.dbn_l = 0;
 392              		.loc 1 145 5 is_stmt 1 view .LVU91
 145:HW_Lib/AT32F435/drivers/src/at32f435_437_usart.c ****     usart_x->ctrl1_bit.dbn_l = 0;
 393              		.loc 1 145 30 is_stmt 0 view .LVU92
 394 009a EB68     		ldr	r3, [r5, #12]
 395 009c 6FF31C73 		bfc	r3, #28, #1
 396 00a0 EB60     		str	r3, [r5, #12]
 146:HW_Lib/AT32F435/drivers/src/at32f435_437_usart.c ****   }
 397              		.loc 1 146 5 is_stmt 1 view .LVU93
 146:HW_Lib/AT32F435/drivers/src/at32f435_437_usart.c ****   }
 398              		.loc 1 146 30 is_stmt 0 view .LVU94
 399 00a2 EB68     		ldr	r3, [r5, #12]
 400 00a4 6FF30C33 		bfc	r3, #12, #1
 401 00a8 EB60     		str	r3, [r5, #12]
 402 00aa DEE7     		b	.L28
 403              	.L33:
 404              		.align	2
 405              	.L32:
 406 00ac 00100140 		.word	1073811456
 407 00b0 CDCCCCCC 		.word	-858993459
 408              		.cfi_endproc
 409              	.LFE134:
 411              		.section	.text.usart_parity_selection_config,"ax",%progbits
 412              		.align	1
 413              		.global	usart_parity_selection_config
 414              		.syntax unified
 415              		.thumb
 416              		.thumb_func
 418              	usart_parity_selection_config:
 419              	.LVL49:
 420              	.LFB135:
 155:HW_Lib/AT32F435/drivers/src/at32f435_437_usart.c **** 
 156:HW_Lib/AT32F435/drivers/src/at32f435_437_usart.c **** /**
 157:HW_Lib/AT32F435/drivers/src/at32f435_437_usart.c ****   * @brief  usart parity selection config.
 158:HW_Lib/AT32F435/drivers/src/at32f435_437_usart.c ****   * @param  usart_x: select the usart or the uart peripheral.
 159:HW_Lib/AT32F435/drivers/src/at32f435_437_usart.c ****   *         this parameter can be one of the following values:
 160:HW_Lib/AT32F435/drivers/src/at32f435_437_usart.c ****   *         USART1, USART2, USART3, UART4 ,UART5, USART6, UART7 or UART8.
 161:HW_Lib/AT32F435/drivers/src/at32f435_437_usart.c ****   * @param  parity: select the none, odd or even parity.
 162:HW_Lib/AT32F435/drivers/src/at32f435_437_usart.c ****   *         this parameter can be one of the following values:
 163:HW_Lib/AT32F435/drivers/src/at32f435_437_usart.c ****   *         - USART_PARITY_NONE
 164:HW_Lib/AT32F435/drivers/src/at32f435_437_usart.c ****   *         - USART_PARITY_EVEN.
 165:HW_Lib/AT32F435/drivers/src/at32f435_437_usart.c ****   *         - USART_PARITY_ODD
 166:HW_Lib/AT32F435/drivers/src/at32f435_437_usart.c ****   * @retval none
 167:HW_Lib/AT32F435/drivers/src/at32f435_437_usart.c ****   */
 168:HW_Lib/AT32F435/drivers/src/at32f435_437_usart.c **** void usart_parity_selection_config(usart_type* usart_x, usart_parity_selection_type parity)
 169:HW_Lib/AT32F435/drivers/src/at32f435_437_usart.c **** {
 421              		.loc 1 169 1 is_stmt 1 view -0
 422              		.cfi_startproc
ARM GAS  C:\Users\8bit\AppData\Local\Temp\cc74oY7E.s 			page 12


 423              		@ args = 0, pretend = 0, frame = 0
 424              		@ frame_needed = 0, uses_anonymous_args = 0
 425              		@ link register save eliminated.
 170:HW_Lib/AT32F435/drivers/src/at32f435_437_usart.c ****   if(parity == USART_PARITY_NONE)
 426              		.loc 1 170 3 view .LVU96
 427              		.loc 1 170 5 is_stmt 0 view .LVU97
 428 0000 41B9     		cbnz	r1, .L35
 171:HW_Lib/AT32F435/drivers/src/at32f435_437_usart.c ****   {
 172:HW_Lib/AT32F435/drivers/src/at32f435_437_usart.c ****     usart_x->ctrl1_bit.psel = FALSE;
 429              		.loc 1 172 5 is_stmt 1 view .LVU98
 430              		.loc 1 172 29 is_stmt 0 view .LVU99
 431 0002 C368     		ldr	r3, [r0, #12]
 432 0004 6FF34923 		bfc	r3, #9, #1
 433 0008 C360     		str	r3, [r0, #12]
 173:HW_Lib/AT32F435/drivers/src/at32f435_437_usart.c ****     usart_x->ctrl1_bit.pen = FALSE;
 434              		.loc 1 173 5 is_stmt 1 view .LVU100
 435              		.loc 1 173 28 is_stmt 0 view .LVU101
 436 000a C368     		ldr	r3, [r0, #12]
 437 000c 6FF38A23 		bfc	r3, #10, #1
 438 0010 C360     		str	r3, [r0, #12]
 439 0012 7047     		bx	lr
 440              	.L35:
 174:HW_Lib/AT32F435/drivers/src/at32f435_437_usart.c ****   }
 175:HW_Lib/AT32F435/drivers/src/at32f435_437_usart.c ****   else if(parity == USART_PARITY_EVEN)
 441              		.loc 1 175 8 is_stmt 1 view .LVU102
 442              		.loc 1 175 10 is_stmt 0 view .LVU103
 443 0014 0129     		cmp	r1, #1
 444 0016 02D0     		beq	.L38
 176:HW_Lib/AT32F435/drivers/src/at32f435_437_usart.c ****   {
 177:HW_Lib/AT32F435/drivers/src/at32f435_437_usart.c ****     usart_x->ctrl1_bit.psel = FALSE;
 178:HW_Lib/AT32F435/drivers/src/at32f435_437_usart.c ****     usart_x->ctrl1_bit.pen = TRUE;
 179:HW_Lib/AT32F435/drivers/src/at32f435_437_usart.c ****   }
 180:HW_Lib/AT32F435/drivers/src/at32f435_437_usart.c ****   else if(parity == USART_PARITY_ODD)
 445              		.loc 1 180 8 is_stmt 1 view .LVU104
 446              		.loc 1 180 10 is_stmt 0 view .LVU105
 447 0018 0229     		cmp	r1, #2
 448 001a 09D0     		beq	.L39
 449              	.L34:
 181:HW_Lib/AT32F435/drivers/src/at32f435_437_usart.c ****   {
 182:HW_Lib/AT32F435/drivers/src/at32f435_437_usart.c ****     usart_x->ctrl1_bit.psel = TRUE;
 183:HW_Lib/AT32F435/drivers/src/at32f435_437_usart.c ****     usart_x->ctrl1_bit.pen = TRUE;
 184:HW_Lib/AT32F435/drivers/src/at32f435_437_usart.c ****   }
 185:HW_Lib/AT32F435/drivers/src/at32f435_437_usart.c **** }
 450              		.loc 1 185 1 view .LVU106
 451 001c 7047     		bx	lr
 452              	.L38:
 177:HW_Lib/AT32F435/drivers/src/at32f435_437_usart.c ****     usart_x->ctrl1_bit.pen = TRUE;
 453              		.loc 1 177 5 is_stmt 1 view .LVU107
 177:HW_Lib/AT32F435/drivers/src/at32f435_437_usart.c ****     usart_x->ctrl1_bit.pen = TRUE;
 454              		.loc 1 177 29 is_stmt 0 view .LVU108
 455 001e C368     		ldr	r3, [r0, #12]
 456 0020 6FF34923 		bfc	r3, #9, #1
 457 0024 C360     		str	r3, [r0, #12]
 178:HW_Lib/AT32F435/drivers/src/at32f435_437_usart.c ****   }
 458              		.loc 1 178 5 is_stmt 1 view .LVU109
 178:HW_Lib/AT32F435/drivers/src/at32f435_437_usart.c ****   }
 459              		.loc 1 178 28 is_stmt 0 view .LVU110
ARM GAS  C:\Users\8bit\AppData\Local\Temp\cc74oY7E.s 			page 13


 460 0026 C368     		ldr	r3, [r0, #12]
 461 0028 43F48063 		orr	r3, r3, #1024
 462 002c C360     		str	r3, [r0, #12]
 463 002e 7047     		bx	lr
 464              	.L39:
 182:HW_Lib/AT32F435/drivers/src/at32f435_437_usart.c ****     usart_x->ctrl1_bit.pen = TRUE;
 465              		.loc 1 182 5 is_stmt 1 view .LVU111
 182:HW_Lib/AT32F435/drivers/src/at32f435_437_usart.c ****     usart_x->ctrl1_bit.pen = TRUE;
 466              		.loc 1 182 29 is_stmt 0 view .LVU112
 467 0030 C368     		ldr	r3, [r0, #12]
 468 0032 43F40073 		orr	r3, r3, #512
 469 0036 C360     		str	r3, [r0, #12]
 183:HW_Lib/AT32F435/drivers/src/at32f435_437_usart.c ****   }
 470              		.loc 1 183 5 is_stmt 1 view .LVU113
 183:HW_Lib/AT32F435/drivers/src/at32f435_437_usart.c ****   }
 471              		.loc 1 183 28 is_stmt 0 view .LVU114
 472 0038 C368     		ldr	r3, [r0, #12]
 473 003a 43F48063 		orr	r3, r3, #1024
 474 003e C360     		str	r3, [r0, #12]
 475              		.loc 1 185 1 view .LVU115
 476 0040 ECE7     		b	.L34
 477              		.cfi_endproc
 478              	.LFE135:
 480              		.section	.text.usart_enable,"ax",%progbits
 481              		.align	1
 482              		.global	usart_enable
 483              		.syntax unified
 484              		.thumb
 485              		.thumb_func
 487              	usart_enable:
 488              	.LVL50:
 489              	.LFB136:
 186:HW_Lib/AT32F435/drivers/src/at32f435_437_usart.c **** 
 187:HW_Lib/AT32F435/drivers/src/at32f435_437_usart.c **** /**
 188:HW_Lib/AT32F435/drivers/src/at32f435_437_usart.c ****   * @brief  enable or disable the specified usart peripheral.
 189:HW_Lib/AT32F435/drivers/src/at32f435_437_usart.c ****   * @param  usart_x: select the usart or the uart peripheral.
 190:HW_Lib/AT32F435/drivers/src/at32f435_437_usart.c ****   *         this parameter can be one of the following values:
 191:HW_Lib/AT32F435/drivers/src/at32f435_437_usart.c ****   *         USART1, USART2, USART3, UART4, UART5, USART6, UART7 or UART8.
 192:HW_Lib/AT32F435/drivers/src/at32f435_437_usart.c ****   * @param  new_state: new state of the usart peripheral.
 193:HW_Lib/AT32F435/drivers/src/at32f435_437_usart.c ****   *         this parameter can be: TRUE or FALSE.
 194:HW_Lib/AT32F435/drivers/src/at32f435_437_usart.c ****   * @retval none
 195:HW_Lib/AT32F435/drivers/src/at32f435_437_usart.c ****   */
 196:HW_Lib/AT32F435/drivers/src/at32f435_437_usart.c **** void usart_enable(usart_type* usart_x, confirm_state new_state)
 197:HW_Lib/AT32F435/drivers/src/at32f435_437_usart.c **** {
 490              		.loc 1 197 1 is_stmt 1 view -0
 491              		.cfi_startproc
 492              		@ args = 0, pretend = 0, frame = 0
 493              		@ frame_needed = 0, uses_anonymous_args = 0
 494              		@ link register save eliminated.
 198:HW_Lib/AT32F435/drivers/src/at32f435_437_usart.c ****   usart_x->ctrl1_bit.uen = new_state;
 495              		.loc 1 198 3 view .LVU117
 496              		.loc 1 198 26 is_stmt 0 view .LVU118
 497 0000 C368     		ldr	r3, [r0, #12]
 498 0002 61F34D33 		bfi	r3, r1, #13, #1
 499 0006 C360     		str	r3, [r0, #12]
 199:HW_Lib/AT32F435/drivers/src/at32f435_437_usart.c **** }
 500              		.loc 1 199 1 view .LVU119
ARM GAS  C:\Users\8bit\AppData\Local\Temp\cc74oY7E.s 			page 14


 501 0008 7047     		bx	lr
 502              		.cfi_endproc
 503              	.LFE136:
 505              		.section	.text.usart_transmitter_enable,"ax",%progbits
 506              		.align	1
 507              		.global	usart_transmitter_enable
 508              		.syntax unified
 509              		.thumb
 510              		.thumb_func
 512              	usart_transmitter_enable:
 513              	.LVL51:
 514              	.LFB137:
 200:HW_Lib/AT32F435/drivers/src/at32f435_437_usart.c **** 
 201:HW_Lib/AT32F435/drivers/src/at32f435_437_usart.c **** /**
 202:HW_Lib/AT32F435/drivers/src/at32f435_437_usart.c ****   * @brief  usart transmitter enable.
 203:HW_Lib/AT32F435/drivers/src/at32f435_437_usart.c ****   * @param  usart_x: select the usart or the uart peripheral.
 204:HW_Lib/AT32F435/drivers/src/at32f435_437_usart.c ****   *         this parameter can be one of the following values:
 205:HW_Lib/AT32F435/drivers/src/at32f435_437_usart.c ****   *         USART1, USART2, USART3, UART4 ,UART5, USART6, UART7 or UART8.
 206:HW_Lib/AT32F435/drivers/src/at32f435_437_usart.c ****   * @param  new_state: TRUE or FALSE.
 207:HW_Lib/AT32F435/drivers/src/at32f435_437_usart.c ****   * @retval none
 208:HW_Lib/AT32F435/drivers/src/at32f435_437_usart.c ****   */
 209:HW_Lib/AT32F435/drivers/src/at32f435_437_usart.c **** void usart_transmitter_enable(usart_type* usart_x, confirm_state new_state)
 210:HW_Lib/AT32F435/drivers/src/at32f435_437_usart.c **** {
 515              		.loc 1 210 1 is_stmt 1 view -0
 516              		.cfi_startproc
 517              		@ args = 0, pretend = 0, frame = 0
 518              		@ frame_needed = 0, uses_anonymous_args = 0
 519              		@ link register save eliminated.
 211:HW_Lib/AT32F435/drivers/src/at32f435_437_usart.c ****   usart_x->ctrl1_bit.ten = new_state;
 520              		.loc 1 211 3 view .LVU121
 521              		.loc 1 211 26 is_stmt 0 view .LVU122
 522 0000 C368     		ldr	r3, [r0, #12]
 523 0002 61F3C303 		bfi	r3, r1, #3, #1
 524 0006 C360     		str	r3, [r0, #12]
 212:HW_Lib/AT32F435/drivers/src/at32f435_437_usart.c **** }
 525              		.loc 1 212 1 view .LVU123
 526 0008 7047     		bx	lr
 527              		.cfi_endproc
 528              	.LFE137:
 530              		.section	.text.usart_receiver_enable,"ax",%progbits
 531              		.align	1
 532              		.global	usart_receiver_enable
 533              		.syntax unified
 534              		.thumb
 535              		.thumb_func
 537              	usart_receiver_enable:
 538              	.LVL52:
 539              	.LFB138:
 213:HW_Lib/AT32F435/drivers/src/at32f435_437_usart.c **** 
 214:HW_Lib/AT32F435/drivers/src/at32f435_437_usart.c **** /**
 215:HW_Lib/AT32F435/drivers/src/at32f435_437_usart.c ****   * @brief  usart receiver enable.
 216:HW_Lib/AT32F435/drivers/src/at32f435_437_usart.c ****   * @param  usart_x: select the usart or the uart peripheral.
 217:HW_Lib/AT32F435/drivers/src/at32f435_437_usart.c ****   *         this parameter can be one of the following values:
 218:HW_Lib/AT32F435/drivers/src/at32f435_437_usart.c ****   *         USART1, USART2, USART3, UART4 ,UART5, USART6, UART7 or UART8.
 219:HW_Lib/AT32F435/drivers/src/at32f435_437_usart.c ****   * @param  new_state: TRUE or FALSE.
 220:HW_Lib/AT32F435/drivers/src/at32f435_437_usart.c ****   * @retval none
 221:HW_Lib/AT32F435/drivers/src/at32f435_437_usart.c ****   */
ARM GAS  C:\Users\8bit\AppData\Local\Temp\cc74oY7E.s 			page 15


 222:HW_Lib/AT32F435/drivers/src/at32f435_437_usart.c **** void usart_receiver_enable(usart_type* usart_x, confirm_state new_state)
 223:HW_Lib/AT32F435/drivers/src/at32f435_437_usart.c **** {
 540              		.loc 1 223 1 is_stmt 1 view -0
 541              		.cfi_startproc
 542              		@ args = 0, pretend = 0, frame = 0
 543              		@ frame_needed = 0, uses_anonymous_args = 0
 544              		@ link register save eliminated.
 224:HW_Lib/AT32F435/drivers/src/at32f435_437_usart.c ****   usart_x->ctrl1_bit.ren = new_state;
 545              		.loc 1 224 3 view .LVU125
 546              		.loc 1 224 26 is_stmt 0 view .LVU126
 547 0000 C368     		ldr	r3, [r0, #12]
 548 0002 61F38203 		bfi	r3, r1, #2, #1
 549 0006 C360     		str	r3, [r0, #12]
 225:HW_Lib/AT32F435/drivers/src/at32f435_437_usart.c **** }
 550              		.loc 1 225 1 view .LVU127
 551 0008 7047     		bx	lr
 552              		.cfi_endproc
 553              	.LFE138:
 555              		.section	.text.usart_clock_config,"ax",%progbits
 556              		.align	1
 557              		.global	usart_clock_config
 558              		.syntax unified
 559              		.thumb
 560              		.thumb_func
 562              	usart_clock_config:
 563              	.LVL53:
 564              	.LFB139:
 226:HW_Lib/AT32F435/drivers/src/at32f435_437_usart.c **** 
 227:HW_Lib/AT32F435/drivers/src/at32f435_437_usart.c **** /**
 228:HW_Lib/AT32F435/drivers/src/at32f435_437_usart.c ****   * @brief  usart clock config.
 229:HW_Lib/AT32F435/drivers/src/at32f435_437_usart.c ****   * @note   clock config are not available for UART4, UART5, UART7 and UART8.
 230:HW_Lib/AT32F435/drivers/src/at32f435_437_usart.c ****   * @param  usart_x: select the usart or the uart peripheral.
 231:HW_Lib/AT32F435/drivers/src/at32f435_437_usart.c ****   *         this parameter can be one of the following values:
 232:HW_Lib/AT32F435/drivers/src/at32f435_437_usart.c ****   *         USART1, USART2, USART3 or USART6.
 233:HW_Lib/AT32F435/drivers/src/at32f435_437_usart.c ****   * @param  clk_pol: polarity of the clock output on the ck pin.
 234:HW_Lib/AT32F435/drivers/src/at32f435_437_usart.c ****   *         this parameter can be one of the following values:
 235:HW_Lib/AT32F435/drivers/src/at32f435_437_usart.c ****   *         - USART_CLOCK_POLARITY_LOW
 236:HW_Lib/AT32F435/drivers/src/at32f435_437_usart.c ****   *         - USART_CLOCK_POLARITY_HIGH
 237:HW_Lib/AT32F435/drivers/src/at32f435_437_usart.c ****   * @param  clk_pha: phase of the clock output on the ck pin.
 238:HW_Lib/AT32F435/drivers/src/at32f435_437_usart.c ****   *         this parameter can be one of the following values:
 239:HW_Lib/AT32F435/drivers/src/at32f435_437_usart.c ****   *         - USART_CLOCK_PHASE_1EDGE
 240:HW_Lib/AT32F435/drivers/src/at32f435_437_usart.c ****   *         - USART_CLOCK_PHASE_2EDGE
 241:HW_Lib/AT32F435/drivers/src/at32f435_437_usart.c ****   * @param  clk_lb: whether the clock pulse of the last data bit transmitted (MSB) is outputted on 
 242:HW_Lib/AT32F435/drivers/src/at32f435_437_usart.c ****   *         this parameter can be one of the following values:
 243:HW_Lib/AT32F435/drivers/src/at32f435_437_usart.c ****   *         - USART_CLOCK_LAST_BIT_NONE
 244:HW_Lib/AT32F435/drivers/src/at32f435_437_usart.c ****   *         - USART_CLOCK_LAST_BIT_OUTPUT
 245:HW_Lib/AT32F435/drivers/src/at32f435_437_usart.c ****   * @retval none
 246:HW_Lib/AT32F435/drivers/src/at32f435_437_usart.c ****   */
 247:HW_Lib/AT32F435/drivers/src/at32f435_437_usart.c **** void usart_clock_config(usart_type* usart_x, usart_clock_polarity_type clk_pol, usart_clock_phase_t
 248:HW_Lib/AT32F435/drivers/src/at32f435_437_usart.c **** {
 565              		.loc 1 248 1 is_stmt 1 view -0
 566              		.cfi_startproc
 567              		@ args = 0, pretend = 0, frame = 0
 568              		@ frame_needed = 0, uses_anonymous_args = 0
 569              		@ link register save eliminated.
 570              		.loc 1 248 1 is_stmt 0 view .LVU129
 571 0000 10B4     		push	{r4}
ARM GAS  C:\Users\8bit\AppData\Local\Temp\cc74oY7E.s 			page 16


 572              	.LCFI5:
 573              		.cfi_def_cfa_offset 4
 574              		.cfi_offset 4, -4
 249:HW_Lib/AT32F435/drivers/src/at32f435_437_usart.c ****   usart_x->ctrl2_bit.clkpol = clk_pol;
 575              		.loc 1 249 3 is_stmt 1 view .LVU130
 576              		.loc 1 249 29 is_stmt 0 view .LVU131
 577 0002 0469     		ldr	r4, [r0, #16]
 578 0004 61F38A24 		bfi	r4, r1, #10, #1
 579 0008 0461     		str	r4, [r0, #16]
 250:HW_Lib/AT32F435/drivers/src/at32f435_437_usart.c ****   usart_x->ctrl2_bit.clkpha = clk_pha;
 580              		.loc 1 250 3 is_stmt 1 view .LVU132
 581              		.loc 1 250 29 is_stmt 0 view .LVU133
 582 000a 0169     		ldr	r1, [r0, #16]
 583              	.LVL54:
 584              		.loc 1 250 29 view .LVU134
 585 000c 62F34921 		bfi	r1, r2, #9, #1
 586 0010 0161     		str	r1, [r0, #16]
 251:HW_Lib/AT32F435/drivers/src/at32f435_437_usart.c ****   usart_x->ctrl2_bit.lbcp = clk_lb;
 587              		.loc 1 251 3 is_stmt 1 view .LVU135
 588              		.loc 1 251 27 is_stmt 0 view .LVU136
 589 0012 0269     		ldr	r2, [r0, #16]
 590              	.LVL55:
 591              		.loc 1 251 27 view .LVU137
 592 0014 63F30822 		bfi	r2, r3, #8, #1
 593 0018 0261     		str	r2, [r0, #16]
 252:HW_Lib/AT32F435/drivers/src/at32f435_437_usart.c **** }
 594              		.loc 1 252 1 view .LVU138
 595 001a 5DF8044B 		ldr	r4, [sp], #4
 596              	.LCFI6:
 597              		.cfi_restore 4
 598              		.cfi_def_cfa_offset 0
 599 001e 7047     		bx	lr
 600              		.cfi_endproc
 601              	.LFE139:
 603              		.section	.text.usart_clock_enable,"ax",%progbits
 604              		.align	1
 605              		.global	usart_clock_enable
 606              		.syntax unified
 607              		.thumb
 608              		.thumb_func
 610              	usart_clock_enable:
 611              	.LVL56:
 612              	.LFB140:
 253:HW_Lib/AT32F435/drivers/src/at32f435_437_usart.c **** 
 254:HW_Lib/AT32F435/drivers/src/at32f435_437_usart.c **** /**
 255:HW_Lib/AT32F435/drivers/src/at32f435_437_usart.c ****   * @brief  usart enable the ck pin.
 256:HW_Lib/AT32F435/drivers/src/at32f435_437_usart.c ****   * @note   clock enable are not available for UART4, UART5, UART7 and UART8.
 257:HW_Lib/AT32F435/drivers/src/at32f435_437_usart.c ****   * @param  usart_x: select the usart or the uart peripheral.
 258:HW_Lib/AT32F435/drivers/src/at32f435_437_usart.c ****   *         this parameter can be one of the following values:
 259:HW_Lib/AT32F435/drivers/src/at32f435_437_usart.c ****   *         USART1, USART2, USART3 or USART6.
 260:HW_Lib/AT32F435/drivers/src/at32f435_437_usart.c ****   * @param  new_state: TRUE or FALSE
 261:HW_Lib/AT32F435/drivers/src/at32f435_437_usart.c ****   * @retval none
 262:HW_Lib/AT32F435/drivers/src/at32f435_437_usart.c ****   */
 263:HW_Lib/AT32F435/drivers/src/at32f435_437_usart.c **** void usart_clock_enable(usart_type* usart_x, confirm_state new_state)
 264:HW_Lib/AT32F435/drivers/src/at32f435_437_usart.c **** {
 613              		.loc 1 264 1 is_stmt 1 view -0
 614              		.cfi_startproc
ARM GAS  C:\Users\8bit\AppData\Local\Temp\cc74oY7E.s 			page 17


 615              		@ args = 0, pretend = 0, frame = 0
 616              		@ frame_needed = 0, uses_anonymous_args = 0
 617              		@ link register save eliminated.
 265:HW_Lib/AT32F435/drivers/src/at32f435_437_usart.c ****   usart_x->ctrl2_bit.clken = new_state;
 618              		.loc 1 265 3 view .LVU140
 619              		.loc 1 265 28 is_stmt 0 view .LVU141
 620 0000 0369     		ldr	r3, [r0, #16]
 621 0002 61F3CB23 		bfi	r3, r1, #11, #1
 622 0006 0361     		str	r3, [r0, #16]
 266:HW_Lib/AT32F435/drivers/src/at32f435_437_usart.c **** }
 623              		.loc 1 266 1 view .LVU142
 624 0008 7047     		bx	lr
 625              		.cfi_endproc
 626              	.LFE140:
 628              		.section	.text.usart_interrupt_enable,"ax",%progbits
 629              		.align	1
 630              		.global	usart_interrupt_enable
 631              		.syntax unified
 632              		.thumb
 633              		.thumb_func
 635              	usart_interrupt_enable:
 636              	.LVL57:
 637              	.LFB141:
 267:HW_Lib/AT32F435/drivers/src/at32f435_437_usart.c **** 
 268:HW_Lib/AT32F435/drivers/src/at32f435_437_usart.c **** /**
 269:HW_Lib/AT32F435/drivers/src/at32f435_437_usart.c ****   * @brief  enable or disable the specified usart interrupts.
 270:HW_Lib/AT32F435/drivers/src/at32f435_437_usart.c ****   * @param  usart_x: select the usart or the uart peripheral.
 271:HW_Lib/AT32F435/drivers/src/at32f435_437_usart.c ****   *         this parameter can be one of the following values:
 272:HW_Lib/AT32F435/drivers/src/at32f435_437_usart.c ****   *         USART1, USART2, USART3, UART4, UART5, USART6, UART7 or UART8.
 273:HW_Lib/AT32F435/drivers/src/at32f435_437_usart.c ****   * @param  usart_int: specifies the USART interrupt sources to be enabled or disabled.
 274:HW_Lib/AT32F435/drivers/src/at32f435_437_usart.c ****   *         this parameter can be one of the following values:
 275:HW_Lib/AT32F435/drivers/src/at32f435_437_usart.c ****   *         - USART_IDLE_INT:  idle interrupt
 276:HW_Lib/AT32F435/drivers/src/at32f435_437_usart.c ****   *         - USART_RDBF_INT:  rdbf interrupt
 277:HW_Lib/AT32F435/drivers/src/at32f435_437_usart.c ****   *         - USART_TDC_INT:   tdc interrupt
 278:HW_Lib/AT32F435/drivers/src/at32f435_437_usart.c ****   *         - USART_TDBE_INT:  tdbe interrupt
 279:HW_Lib/AT32F435/drivers/src/at32f435_437_usart.c ****   *         - USART_PERR_INT:  perr interrupt
 280:HW_Lib/AT32F435/drivers/src/at32f435_437_usart.c ****   *         - USART_BF_INT:    break frame interrupt
 281:HW_Lib/AT32F435/drivers/src/at32f435_437_usart.c ****   *         - USART_ERR_INT:   err interrupt
 282:HW_Lib/AT32F435/drivers/src/at32f435_437_usart.c ****   *         - USART_CTSCF_INT: ctscf interrupt
 283:HW_Lib/AT32F435/drivers/src/at32f435_437_usart.c ****   * @param  new_state: new state of the specified usart interrupts.
 284:HW_Lib/AT32F435/drivers/src/at32f435_437_usart.c ****   *         this parameter can be: TRUE or FALSE.
 285:HW_Lib/AT32F435/drivers/src/at32f435_437_usart.c ****   * @retval none
 286:HW_Lib/AT32F435/drivers/src/at32f435_437_usart.c ****   */
 287:HW_Lib/AT32F435/drivers/src/at32f435_437_usart.c **** void usart_interrupt_enable(usart_type* usart_x, uint32_t usart_int, confirm_state new_state)
 288:HW_Lib/AT32F435/drivers/src/at32f435_437_usart.c **** {
 638              		.loc 1 288 1 is_stmt 1 view -0
 639              		.cfi_startproc
 640              		@ args = 0, pretend = 0, frame = 0
 641              		@ frame_needed = 0, uses_anonymous_args = 0
 642              		@ link register save eliminated.
 289:HW_Lib/AT32F435/drivers/src/at32f435_437_usart.c ****   if(new_state == TRUE)
 643              		.loc 1 289 3 view .LVU144
 644              		.loc 1 289 5 is_stmt 0 view .LVU145
 645 0000 012A     		cmp	r2, #1
 646 0002 0DD0     		beq	.L49
 290:HW_Lib/AT32F435/drivers/src/at32f435_437_usart.c ****     PERIPH_REG((uint32_t)usart_x, usart_int) |= PERIPH_REG_BIT(usart_int);
 291:HW_Lib/AT32F435/drivers/src/at32f435_437_usart.c ****   else
ARM GAS  C:\Users\8bit\AppData\Local\Temp\cc74oY7E.s 			page 18


 292:HW_Lib/AT32F435/drivers/src/at32f435_437_usart.c ****     PERIPH_REG((uint32_t)usart_x, usart_int) &= ~PERIPH_REG_BIT(usart_int);
 647              		.loc 1 292 5 is_stmt 1 view .LVU146
 648              		.loc 1 292 46 is_stmt 0 view .LVU147
 649 0004 4FEA114C 		lsr	ip, r1, #16
 650 0008 50F80C30 		ldr	r3, [r0, ip]
 651              		.loc 1 292 50 view .LVU148
 652 000c 01F01F01 		and	r1, r1, #31
 653              	.LVL58:
 654              		.loc 1 292 50 view .LVU149
 655 0010 0122     		movs	r2, #1
 656              	.LVL59:
 657              		.loc 1 292 50 view .LVU150
 658 0012 02FA01F1 		lsl	r1, r2, r1
 659              		.loc 1 292 46 view .LVU151
 660 0016 23EA0101 		bic	r1, r3, r1
 661 001a 40F80C10 		str	r1, [r0, ip]
 293:HW_Lib/AT32F435/drivers/src/at32f435_437_usart.c **** }
 662              		.loc 1 293 1 view .LVU152
 663 001e 7047     		bx	lr
 664              	.LVL60:
 665              	.L49:
 290:HW_Lib/AT32F435/drivers/src/at32f435_437_usart.c ****     PERIPH_REG((uint32_t)usart_x, usart_int) |= PERIPH_REG_BIT(usart_int);
 666              		.loc 1 290 5 is_stmt 1 view .LVU153
 290:HW_Lib/AT32F435/drivers/src/at32f435_437_usart.c ****     PERIPH_REG((uint32_t)usart_x, usart_int) |= PERIPH_REG_BIT(usart_int);
 667              		.loc 1 290 46 is_stmt 0 view .LVU154
 668 0020 4FEA114C 		lsr	ip, r1, #16
 669 0024 50F80C30 		ldr	r3, [r0, ip]
 290:HW_Lib/AT32F435/drivers/src/at32f435_437_usart.c ****     PERIPH_REG((uint32_t)usart_x, usart_int) |= PERIPH_REG_BIT(usart_int);
 670              		.loc 1 290 49 view .LVU155
 671 0028 01F01F01 		and	r1, r1, #31
 672              	.LVL61:
 290:HW_Lib/AT32F435/drivers/src/at32f435_437_usart.c ****     PERIPH_REG((uint32_t)usart_x, usart_int) |= PERIPH_REG_BIT(usart_int);
 673              		.loc 1 290 49 view .LVU156
 674 002c 02FA01F1 		lsl	r1, r2, r1
 290:HW_Lib/AT32F435/drivers/src/at32f435_437_usart.c ****     PERIPH_REG((uint32_t)usart_x, usart_int) |= PERIPH_REG_BIT(usart_int);
 675              		.loc 1 290 46 view .LVU157
 676 0030 1943     		orrs	r1, r1, r3
 677 0032 40F80C10 		str	r1, [r0, ip]
 678 0036 7047     		bx	lr
 679              		.cfi_endproc
 680              	.LFE141:
 682              		.section	.text.usart_dma_transmitter_enable,"ax",%progbits
 683              		.align	1
 684              		.global	usart_dma_transmitter_enable
 685              		.syntax unified
 686              		.thumb
 687              		.thumb_func
 689              	usart_dma_transmitter_enable:
 690              	.LVL62:
 691              	.LFB142:
 294:HW_Lib/AT32F435/drivers/src/at32f435_437_usart.c **** 
 295:HW_Lib/AT32F435/drivers/src/at32f435_437_usart.c **** /**
 296:HW_Lib/AT32F435/drivers/src/at32f435_437_usart.c ****   * @brief  enable or disable the usart's dma transmitter interface.
 297:HW_Lib/AT32F435/drivers/src/at32f435_437_usart.c ****   * @param  usart_x: select the usart or the uart peripheral.
 298:HW_Lib/AT32F435/drivers/src/at32f435_437_usart.c ****   *         this parameter can be one of the following values:
 299:HW_Lib/AT32F435/drivers/src/at32f435_437_usart.c ****   *         USART1, USART2, USART3, UART4, UART5, USART6, UART7 or UART8.
 300:HW_Lib/AT32F435/drivers/src/at32f435_437_usart.c ****   * @param  new_state: new state of the dma request sources.
ARM GAS  C:\Users\8bit\AppData\Local\Temp\cc74oY7E.s 			page 19


 301:HW_Lib/AT32F435/drivers/src/at32f435_437_usart.c ****   *         this parameter can be: TRUE or FALSE.
 302:HW_Lib/AT32F435/drivers/src/at32f435_437_usart.c ****   * @retval none
 303:HW_Lib/AT32F435/drivers/src/at32f435_437_usart.c ****   */
 304:HW_Lib/AT32F435/drivers/src/at32f435_437_usart.c **** void usart_dma_transmitter_enable(usart_type* usart_x, confirm_state new_state)
 305:HW_Lib/AT32F435/drivers/src/at32f435_437_usart.c **** {
 692              		.loc 1 305 1 is_stmt 1 view -0
 693              		.cfi_startproc
 694              		@ args = 0, pretend = 0, frame = 0
 695              		@ frame_needed = 0, uses_anonymous_args = 0
 696              		@ link register save eliminated.
 306:HW_Lib/AT32F435/drivers/src/at32f435_437_usart.c ****   usart_x->ctrl3_bit.dmaten = new_state;
 697              		.loc 1 306 3 view .LVU159
 698              		.loc 1 306 29 is_stmt 0 view .LVU160
 699 0000 4369     		ldr	r3, [r0, #20]
 700 0002 61F3C713 		bfi	r3, r1, #7, #1
 701 0006 4361     		str	r3, [r0, #20]
 307:HW_Lib/AT32F435/drivers/src/at32f435_437_usart.c **** }
 702              		.loc 1 307 1 view .LVU161
 703 0008 7047     		bx	lr
 704              		.cfi_endproc
 705              	.LFE142:
 707              		.section	.text.usart_dma_receiver_enable,"ax",%progbits
 708              		.align	1
 709              		.global	usart_dma_receiver_enable
 710              		.syntax unified
 711              		.thumb
 712              		.thumb_func
 714              	usart_dma_receiver_enable:
 715              	.LVL63:
 716              	.LFB143:
 308:HW_Lib/AT32F435/drivers/src/at32f435_437_usart.c **** 
 309:HW_Lib/AT32F435/drivers/src/at32f435_437_usart.c **** /**
 310:HW_Lib/AT32F435/drivers/src/at32f435_437_usart.c ****   * @brief  enable or disable the usart's dma receiver interface.
 311:HW_Lib/AT32F435/drivers/src/at32f435_437_usart.c ****   * @param  usart_x: select the usart or the uart peripheral.
 312:HW_Lib/AT32F435/drivers/src/at32f435_437_usart.c ****   *         this parameter can be one of the following values:
 313:HW_Lib/AT32F435/drivers/src/at32f435_437_usart.c ****   *         USART1, USART2, USART3, UART4, UART5, USART6, UART7 or UART8.
 314:HW_Lib/AT32F435/drivers/src/at32f435_437_usart.c ****   * @param  new_state: new state of the dma request sources.
 315:HW_Lib/AT32F435/drivers/src/at32f435_437_usart.c ****   *         this parameter can be: TRUE or FALSE.
 316:HW_Lib/AT32F435/drivers/src/at32f435_437_usart.c ****   * @retval none
 317:HW_Lib/AT32F435/drivers/src/at32f435_437_usart.c ****   */
 318:HW_Lib/AT32F435/drivers/src/at32f435_437_usart.c **** void usart_dma_receiver_enable(usart_type* usart_x, confirm_state new_state)
 319:HW_Lib/AT32F435/drivers/src/at32f435_437_usart.c **** {
 717              		.loc 1 319 1 is_stmt 1 view -0
 718              		.cfi_startproc
 719              		@ args = 0, pretend = 0, frame = 0
 720              		@ frame_needed = 0, uses_anonymous_args = 0
 721              		@ link register save eliminated.
 320:HW_Lib/AT32F435/drivers/src/at32f435_437_usart.c ****   usart_x->ctrl3_bit.dmaren = new_state;
 722              		.loc 1 320 3 view .LVU163
 723              		.loc 1 320 29 is_stmt 0 view .LVU164
 724 0000 4369     		ldr	r3, [r0, #20]
 725 0002 61F38613 		bfi	r3, r1, #6, #1
 726 0006 4361     		str	r3, [r0, #20]
 321:HW_Lib/AT32F435/drivers/src/at32f435_437_usart.c **** }
 727              		.loc 1 321 1 view .LVU165
 728 0008 7047     		bx	lr
 729              		.cfi_endproc
ARM GAS  C:\Users\8bit\AppData\Local\Temp\cc74oY7E.s 			page 20


 730              	.LFE143:
 732              		.section	.text.usart_wakeup_id_set,"ax",%progbits
 733              		.align	1
 734              		.global	usart_wakeup_id_set
 735              		.syntax unified
 736              		.thumb
 737              		.thumb_func
 739              	usart_wakeup_id_set:
 740              	.LVL64:
 741              	.LFB144:
 322:HW_Lib/AT32F435/drivers/src/at32f435_437_usart.c **** 
 323:HW_Lib/AT32F435/drivers/src/at32f435_437_usart.c **** /**
 324:HW_Lib/AT32F435/drivers/src/at32f435_437_usart.c ****   * @brief  set the wakeup id of the usart.
 325:HW_Lib/AT32F435/drivers/src/at32f435_437_usart.c ****   * @param  usart_x: select the usart or the uart peripheral.
 326:HW_Lib/AT32F435/drivers/src/at32f435_437_usart.c ****   *         this parameter can be one of the following values:
 327:HW_Lib/AT32F435/drivers/src/at32f435_437_usart.c ****   *         USART1, USART2, USART3, UART4, UART5, USART6, UART7 or UART8.
 328:HW_Lib/AT32F435/drivers/src/at32f435_437_usart.c ****   * @param  usart_id: the matching id(0x0~0xFF).
 329:HW_Lib/AT32F435/drivers/src/at32f435_437_usart.c ****   * @retval none
 330:HW_Lib/AT32F435/drivers/src/at32f435_437_usart.c ****   */
 331:HW_Lib/AT32F435/drivers/src/at32f435_437_usart.c **** void usart_wakeup_id_set(usart_type* usart_x, uint8_t usart_id)
 332:HW_Lib/AT32F435/drivers/src/at32f435_437_usart.c **** {
 742              		.loc 1 332 1 is_stmt 1 view -0
 743              		.cfi_startproc
 744              		@ args = 0, pretend = 0, frame = 0
 745              		@ frame_needed = 0, uses_anonymous_args = 0
 746              		@ link register save eliminated.
 333:HW_Lib/AT32F435/drivers/src/at32f435_437_usart.c ****   if(usart_x->ctrl2_bit.idbn == USART_ID_FIXED_4_BIT)
 747              		.loc 1 333 3 view .LVU167
 748              		.loc 1 333 24 is_stmt 0 view .LVU168
 749 0000 0369     		ldr	r3, [r0, #16]
 750              		.loc 1 333 5 view .LVU169
 751 0002 13F0100F 		tst	r3, #16
 752 0006 08D1     		bne	.L53
 334:HW_Lib/AT32F435/drivers/src/at32f435_437_usart.c ****   {
 335:HW_Lib/AT32F435/drivers/src/at32f435_437_usart.c ****     usart_x->ctrl2_bit.id_l = (usart_id & 0x0F);
 753              		.loc 1 335 5 is_stmt 1 view .LVU170
 754              		.loc 1 335 29 is_stmt 0 view .LVU171
 755 0008 0369     		ldr	r3, [r0, #16]
 756 000a 61F30303 		bfi	r3, r1, #0, #4
 757 000e 0361     		str	r3, [r0, #16]
 336:HW_Lib/AT32F435/drivers/src/at32f435_437_usart.c ****     usart_x->ctrl2_bit.id_h = 0;
 758              		.loc 1 336 5 is_stmt 1 view .LVU172
 759              		.loc 1 336 29 is_stmt 0 view .LVU173
 760 0010 0369     		ldr	r3, [r0, #16]
 761 0012 6FF31F73 		bfc	r3, #28, #4
 762 0016 0361     		str	r3, [r0, #16]
 763 0018 7047     		bx	lr
 764              	.L53:
 337:HW_Lib/AT32F435/drivers/src/at32f435_437_usart.c ****   }
 338:HW_Lib/AT32F435/drivers/src/at32f435_437_usart.c ****   else
 339:HW_Lib/AT32F435/drivers/src/at32f435_437_usart.c ****   {
 340:HW_Lib/AT32F435/drivers/src/at32f435_437_usart.c ****     usart_x->ctrl2_bit.id_l = (usart_id & 0x0F);
 765              		.loc 1 340 5 is_stmt 1 view .LVU174
 766              		.loc 1 340 29 is_stmt 0 view .LVU175
 767 001a 0369     		ldr	r3, [r0, #16]
 768 001c 61F30303 		bfi	r3, r1, #0, #4
 769 0020 0361     		str	r3, [r0, #16]
ARM GAS  C:\Users\8bit\AppData\Local\Temp\cc74oY7E.s 			page 21


 341:HW_Lib/AT32F435/drivers/src/at32f435_437_usart.c ****     usart_x->ctrl2_bit.id_h = ((usart_id & 0xF0) >> 4);
 770              		.loc 1 341 5 is_stmt 1 view .LVU176
 771              		.loc 1 341 50 is_stmt 0 view .LVU177
 772 0022 0909     		lsrs	r1, r1, #4
 773              	.LVL65:
 774              		.loc 1 341 29 view .LVU178
 775 0024 0369     		ldr	r3, [r0, #16]
 776 0026 61F31F73 		bfi	r3, r1, #28, #4
 777 002a 0361     		str	r3, [r0, #16]
 342:HW_Lib/AT32F435/drivers/src/at32f435_437_usart.c ****   }
 343:HW_Lib/AT32F435/drivers/src/at32f435_437_usart.c **** }
 778              		.loc 1 343 1 view .LVU179
 779 002c 7047     		bx	lr
 780              		.cfi_endproc
 781              	.LFE144:
 783              		.section	.text.usart_wakeup_mode_set,"ax",%progbits
 784              		.align	1
 785              		.global	usart_wakeup_mode_set
 786              		.syntax unified
 787              		.thumb
 788              		.thumb_func
 790              	usart_wakeup_mode_set:
 791              	.LVL66:
 792              	.LFB145:
 344:HW_Lib/AT32F435/drivers/src/at32f435_437_usart.c **** 
 345:HW_Lib/AT32F435/drivers/src/at32f435_437_usart.c **** /**
 346:HW_Lib/AT32F435/drivers/src/at32f435_437_usart.c ****   * @brief  select the usart wakeup method in multi-processor communication.
 347:HW_Lib/AT32F435/drivers/src/at32f435_437_usart.c ****   * @param  usart_x: select the usart or the uart peripheral.
 348:HW_Lib/AT32F435/drivers/src/at32f435_437_usart.c ****   *         this parameter can be one of the following values:
 349:HW_Lib/AT32F435/drivers/src/at32f435_437_usart.c ****   *         USART1, USART2, USART3, UART4, UART5, USART6, UART7 or UART8.
 350:HW_Lib/AT32F435/drivers/src/at32f435_437_usart.c ****   * @param  wakeup_mode: determines the way to wake up usart method.
 351:HW_Lib/AT32F435/drivers/src/at32f435_437_usart.c ****   *         this parameter can be one of the following values:
 352:HW_Lib/AT32F435/drivers/src/at32f435_437_usart.c ****   *         - USART_WAKEUP_BY_IDLE_FRAME
 353:HW_Lib/AT32F435/drivers/src/at32f435_437_usart.c ****   *         - USART_WAKEUP_BY_MATCHING_ID
 354:HW_Lib/AT32F435/drivers/src/at32f435_437_usart.c ****   * @retval none
 355:HW_Lib/AT32F435/drivers/src/at32f435_437_usart.c ****   */
 356:HW_Lib/AT32F435/drivers/src/at32f435_437_usart.c **** void usart_wakeup_mode_set(usart_type* usart_x, usart_wakeup_mode_type wakeup_mode)
 357:HW_Lib/AT32F435/drivers/src/at32f435_437_usart.c **** {
 793              		.loc 1 357 1 is_stmt 1 view -0
 794              		.cfi_startproc
 795              		@ args = 0, pretend = 0, frame = 0
 796              		@ frame_needed = 0, uses_anonymous_args = 0
 797              		@ link register save eliminated.
 358:HW_Lib/AT32F435/drivers/src/at32f435_437_usart.c ****   usart_x->ctrl1_bit.wum = wakeup_mode;
 798              		.loc 1 358 3 view .LVU181
 799              		.loc 1 358 26 is_stmt 0 view .LVU182
 800 0000 C368     		ldr	r3, [r0, #12]
 801 0002 61F3CB23 		bfi	r3, r1, #11, #1
 802 0006 C360     		str	r3, [r0, #12]
 359:HW_Lib/AT32F435/drivers/src/at32f435_437_usart.c **** }
 803              		.loc 1 359 1 view .LVU183
 804 0008 7047     		bx	lr
 805              		.cfi_endproc
 806              	.LFE145:
 808              		.section	.text.usart_receiver_mute_enable,"ax",%progbits
 809              		.align	1
 810              		.global	usart_receiver_mute_enable
ARM GAS  C:\Users\8bit\AppData\Local\Temp\cc74oY7E.s 			page 22


 811              		.syntax unified
 812              		.thumb
 813              		.thumb_func
 815              	usart_receiver_mute_enable:
 816              	.LVL67:
 817              	.LFB146:
 360:HW_Lib/AT32F435/drivers/src/at32f435_437_usart.c **** 
 361:HW_Lib/AT32F435/drivers/src/at32f435_437_usart.c **** /**
 362:HW_Lib/AT32F435/drivers/src/at32f435_437_usart.c ****   * @brief  config the usart in mute mode in multi-processor communication.
 363:HW_Lib/AT32F435/drivers/src/at32f435_437_usart.c ****   * @param  usart_x: select the usart or the uart peripheral.
 364:HW_Lib/AT32F435/drivers/src/at32f435_437_usart.c ****   *         this parameter can be one of the following values:
 365:HW_Lib/AT32F435/drivers/src/at32f435_437_usart.c ****   *         USART1, USART2, USART3, UART4, UART5, USART6, UART7 or UART8.
 366:HW_Lib/AT32F435/drivers/src/at32f435_437_usart.c ****   * @param  new_state: new state of the usart mute mode.
 367:HW_Lib/AT32F435/drivers/src/at32f435_437_usart.c ****   *         this parameter can be: TRUE or FALSE.
 368:HW_Lib/AT32F435/drivers/src/at32f435_437_usart.c ****   * @retval none
 369:HW_Lib/AT32F435/drivers/src/at32f435_437_usart.c ****   */
 370:HW_Lib/AT32F435/drivers/src/at32f435_437_usart.c **** void usart_receiver_mute_enable(usart_type* usart_x, confirm_state new_state)
 371:HW_Lib/AT32F435/drivers/src/at32f435_437_usart.c **** {
 818              		.loc 1 371 1 is_stmt 1 view -0
 819              		.cfi_startproc
 820              		@ args = 0, pretend = 0, frame = 0
 821              		@ frame_needed = 0, uses_anonymous_args = 0
 822              		@ link register save eliminated.
 372:HW_Lib/AT32F435/drivers/src/at32f435_437_usart.c ****   usart_x->ctrl1_bit.rm = new_state;
 823              		.loc 1 372 3 view .LVU185
 824              		.loc 1 372 25 is_stmt 0 view .LVU186
 825 0000 C368     		ldr	r3, [r0, #12]
 826 0002 61F34103 		bfi	r3, r1, #1, #1
 827 0006 C360     		str	r3, [r0, #12]
 373:HW_Lib/AT32F435/drivers/src/at32f435_437_usart.c **** }
 828              		.loc 1 373 1 view .LVU187
 829 0008 7047     		bx	lr
 830              		.cfi_endproc
 831              	.LFE146:
 833              		.section	.text.usart_break_bit_num_set,"ax",%progbits
 834              		.align	1
 835              		.global	usart_break_bit_num_set
 836              		.syntax unified
 837              		.thumb
 838              		.thumb_func
 840              	usart_break_bit_num_set:
 841              	.LVL68:
 842              	.LFB147:
 374:HW_Lib/AT32F435/drivers/src/at32f435_437_usart.c **** 
 375:HW_Lib/AT32F435/drivers/src/at32f435_437_usart.c **** /**
 376:HW_Lib/AT32F435/drivers/src/at32f435_437_usart.c ****   * @brief  set the usart break frame bit num.
 377:HW_Lib/AT32F435/drivers/src/at32f435_437_usart.c ****   * @param  usart_x: select the usart or the uart peripheral.
 378:HW_Lib/AT32F435/drivers/src/at32f435_437_usart.c ****   *         this parameter can be one of the following values:
 379:HW_Lib/AT32F435/drivers/src/at32f435_437_usart.c ****   *         USART1, USART2, USART3, UART4, UART5, USART6, UART7 or UART8.
 380:HW_Lib/AT32F435/drivers/src/at32f435_437_usart.c ****   * @param  break_bit: specifies the break bit num.
 381:HW_Lib/AT32F435/drivers/src/at32f435_437_usart.c ****   *         this parameter can be one of the following values:
 382:HW_Lib/AT32F435/drivers/src/at32f435_437_usart.c ****   *         - USART_BREAK_10BITS
 383:HW_Lib/AT32F435/drivers/src/at32f435_437_usart.c ****   *         - USART_BREAK_11BITS
 384:HW_Lib/AT32F435/drivers/src/at32f435_437_usart.c ****   * @retval none
 385:HW_Lib/AT32F435/drivers/src/at32f435_437_usart.c ****   */
 386:HW_Lib/AT32F435/drivers/src/at32f435_437_usart.c **** void usart_break_bit_num_set(usart_type* usart_x, usart_break_bit_num_type break_bit)
 387:HW_Lib/AT32F435/drivers/src/at32f435_437_usart.c **** {
ARM GAS  C:\Users\8bit\AppData\Local\Temp\cc74oY7E.s 			page 23


 843              		.loc 1 387 1 is_stmt 1 view -0
 844              		.cfi_startproc
 845              		@ args = 0, pretend = 0, frame = 0
 846              		@ frame_needed = 0, uses_anonymous_args = 0
 847              		@ link register save eliminated.
 388:HW_Lib/AT32F435/drivers/src/at32f435_437_usart.c ****   usart_x->ctrl2_bit.bfbn = break_bit;
 848              		.loc 1 388 3 view .LVU189
 849              		.loc 1 388 27 is_stmt 0 view .LVU190
 850 0000 0369     		ldr	r3, [r0, #16]
 851 0002 61F34513 		bfi	r3, r1, #5, #1
 852 0006 0361     		str	r3, [r0, #16]
 389:HW_Lib/AT32F435/drivers/src/at32f435_437_usart.c **** }
 853              		.loc 1 389 1 view .LVU191
 854 0008 7047     		bx	lr
 855              		.cfi_endproc
 856              	.LFE147:
 858              		.section	.text.usart_lin_mode_enable,"ax",%progbits
 859              		.align	1
 860              		.global	usart_lin_mode_enable
 861              		.syntax unified
 862              		.thumb
 863              		.thumb_func
 865              	usart_lin_mode_enable:
 866              	.LVL69:
 867              	.LFB148:
 390:HW_Lib/AT32F435/drivers/src/at32f435_437_usart.c **** 
 391:HW_Lib/AT32F435/drivers/src/at32f435_437_usart.c **** /**
 392:HW_Lib/AT32F435/drivers/src/at32f435_437_usart.c ****   * @brief  enable or disable the usart lin mode.
 393:HW_Lib/AT32F435/drivers/src/at32f435_437_usart.c ****   * @param  usart_x: select the usart or the uart peripheral.
 394:HW_Lib/AT32F435/drivers/src/at32f435_437_usart.c ****   *         this parameter can be one of the following values:
 395:HW_Lib/AT32F435/drivers/src/at32f435_437_usart.c ****   *         USART1, USART2, USART3, UART4, UART5, USART6, UART7 or UART8.
 396:HW_Lib/AT32F435/drivers/src/at32f435_437_usart.c ****   * @param  new_state: new state of the usart lin mode.
 397:HW_Lib/AT32F435/drivers/src/at32f435_437_usart.c ****   *         this parameter can be: TRUE or FALSE.
 398:HW_Lib/AT32F435/drivers/src/at32f435_437_usart.c ****   * @retval none
 399:HW_Lib/AT32F435/drivers/src/at32f435_437_usart.c ****   */
 400:HW_Lib/AT32F435/drivers/src/at32f435_437_usart.c **** void usart_lin_mode_enable(usart_type* usart_x, confirm_state new_state)
 401:HW_Lib/AT32F435/drivers/src/at32f435_437_usart.c **** {
 868              		.loc 1 401 1 is_stmt 1 view -0
 869              		.cfi_startproc
 870              		@ args = 0, pretend = 0, frame = 0
 871              		@ frame_needed = 0, uses_anonymous_args = 0
 872              		@ link register save eliminated.
 402:HW_Lib/AT32F435/drivers/src/at32f435_437_usart.c ****   usart_x->ctrl2_bit.linen = new_state;
 873              		.loc 1 402 3 view .LVU193
 874              		.loc 1 402 28 is_stmt 0 view .LVU194
 875 0000 0369     		ldr	r3, [r0, #16]
 876 0002 61F38E33 		bfi	r3, r1, #14, #1
 877 0006 0361     		str	r3, [r0, #16]
 403:HW_Lib/AT32F435/drivers/src/at32f435_437_usart.c **** }
 878              		.loc 1 403 1 view .LVU195
 879 0008 7047     		bx	lr
 880              		.cfi_endproc
 881              	.LFE148:
 883              		.section	.text.usart_data_transmit,"ax",%progbits
 884              		.align	1
 885              		.global	usart_data_transmit
 886              		.syntax unified
ARM GAS  C:\Users\8bit\AppData\Local\Temp\cc74oY7E.s 			page 24


 887              		.thumb
 888              		.thumb_func
 890              	usart_data_transmit:
 891              	.LVL70:
 892              	.LFB149:
 404:HW_Lib/AT32F435/drivers/src/at32f435_437_usart.c **** 
 405:HW_Lib/AT32F435/drivers/src/at32f435_437_usart.c **** /**
 406:HW_Lib/AT32F435/drivers/src/at32f435_437_usart.c ****   * @brief  transmit single data through the usart peripheral.
 407:HW_Lib/AT32F435/drivers/src/at32f435_437_usart.c ****   * @param  usart_x: select the usart or the uart peripheral.
 408:HW_Lib/AT32F435/drivers/src/at32f435_437_usart.c ****   *         this parameter can be one of the following values:
 409:HW_Lib/AT32F435/drivers/src/at32f435_437_usart.c ****   *         USART1, USART2, USART3, UART4, UART5, USART6, UART7 or UART8.
 410:HW_Lib/AT32F435/drivers/src/at32f435_437_usart.c ****   * @param  data: the data to transmit.
 411:HW_Lib/AT32F435/drivers/src/at32f435_437_usart.c ****   * @retval none
 412:HW_Lib/AT32F435/drivers/src/at32f435_437_usart.c ****   */
 413:HW_Lib/AT32F435/drivers/src/at32f435_437_usart.c **** void usart_data_transmit(usart_type* usart_x, uint16_t data)
 414:HW_Lib/AT32F435/drivers/src/at32f435_437_usart.c **** {
 893              		.loc 1 414 1 is_stmt 1 view -0
 894              		.cfi_startproc
 895              		@ args = 0, pretend = 0, frame = 0
 896              		@ frame_needed = 0, uses_anonymous_args = 0
 897              		@ link register save eliminated.
 415:HW_Lib/AT32F435/drivers/src/at32f435_437_usart.c ****   usart_x->dt = (data & 0x01FF);
 898              		.loc 1 415 3 view .LVU197
 899              		.loc 1 415 23 is_stmt 0 view .LVU198
 900 0000 C1F30801 		ubfx	r1, r1, #0, #9
 901              	.LVL71:
 902              		.loc 1 415 15 view .LVU199
 903 0004 4160     		str	r1, [r0, #4]
 416:HW_Lib/AT32F435/drivers/src/at32f435_437_usart.c **** }
 904              		.loc 1 416 1 view .LVU200
 905 0006 7047     		bx	lr
 906              		.cfi_endproc
 907              	.LFE149:
 909              		.section	.text.usart_data_receive,"ax",%progbits
 910              		.align	1
 911              		.global	usart_data_receive
 912              		.syntax unified
 913              		.thumb
 914              		.thumb_func
 916              	usart_data_receive:
 917              	.LVL72:
 918              	.LFB150:
 417:HW_Lib/AT32F435/drivers/src/at32f435_437_usart.c **** 
 418:HW_Lib/AT32F435/drivers/src/at32f435_437_usart.c **** /**
 419:HW_Lib/AT32F435/drivers/src/at32f435_437_usart.c ****   * @brief  return the most recent received data by the usart peripheral.
 420:HW_Lib/AT32F435/drivers/src/at32f435_437_usart.c ****   * @param  usart_x: select the usart or the uart peripheral.
 421:HW_Lib/AT32F435/drivers/src/at32f435_437_usart.c ****   *         this parameter can be one of the following values:
 422:HW_Lib/AT32F435/drivers/src/at32f435_437_usart.c ****   *         USART1, USART2, USART3, UART4, UART5, USART6, UART7 or UART8.
 423:HW_Lib/AT32F435/drivers/src/at32f435_437_usart.c ****   * @retval the received data.
 424:HW_Lib/AT32F435/drivers/src/at32f435_437_usart.c ****   */
 425:HW_Lib/AT32F435/drivers/src/at32f435_437_usart.c **** uint16_t usart_data_receive(usart_type* usart_x)
 426:HW_Lib/AT32F435/drivers/src/at32f435_437_usart.c **** {
 919              		.loc 1 426 1 is_stmt 1 view -0
 920              		.cfi_startproc
 921              		@ args = 0, pretend = 0, frame = 0
 922              		@ frame_needed = 0, uses_anonymous_args = 0
 923              		@ link register save eliminated.
ARM GAS  C:\Users\8bit\AppData\Local\Temp\cc74oY7E.s 			page 25


 427:HW_Lib/AT32F435/drivers/src/at32f435_437_usart.c ****   return (uint16_t)(usart_x->dt);
 924              		.loc 1 427 3 view .LVU202
 925              		.loc 1 427 28 is_stmt 0 view .LVU203
 926 0000 4068     		ldr	r0, [r0, #4]
 927              	.LVL73:
 428:HW_Lib/AT32F435/drivers/src/at32f435_437_usart.c **** }
 928              		.loc 1 428 1 view .LVU204
 929 0002 80B2     		uxth	r0, r0
 930 0004 7047     		bx	lr
 931              		.cfi_endproc
 932              	.LFE150:
 934              		.section	.text.usart_break_send,"ax",%progbits
 935              		.align	1
 936              		.global	usart_break_send
 937              		.syntax unified
 938              		.thumb
 939              		.thumb_func
 941              	usart_break_send:
 942              	.LVL74:
 943              	.LFB151:
 429:HW_Lib/AT32F435/drivers/src/at32f435_437_usart.c **** 
 430:HW_Lib/AT32F435/drivers/src/at32f435_437_usart.c **** /**
 431:HW_Lib/AT32F435/drivers/src/at32f435_437_usart.c ****   * @brief  transmit break characters.
 432:HW_Lib/AT32F435/drivers/src/at32f435_437_usart.c ****   * @param  usart_x: select the usart or the uart peripheral.
 433:HW_Lib/AT32F435/drivers/src/at32f435_437_usart.c ****   *         this parameter can be one of the following values:
 434:HW_Lib/AT32F435/drivers/src/at32f435_437_usart.c ****   *         USART1, USART2, USART3, UART4, UART5, USART6, UART7 or UART8.
 435:HW_Lib/AT32F435/drivers/src/at32f435_437_usart.c ****   * @retval none
 436:HW_Lib/AT32F435/drivers/src/at32f435_437_usart.c ****   */
 437:HW_Lib/AT32F435/drivers/src/at32f435_437_usart.c **** void usart_break_send(usart_type* usart_x)
 438:HW_Lib/AT32F435/drivers/src/at32f435_437_usart.c **** {
 944              		.loc 1 438 1 is_stmt 1 view -0
 945              		.cfi_startproc
 946              		@ args = 0, pretend = 0, frame = 0
 947              		@ frame_needed = 0, uses_anonymous_args = 0
 948              		@ link register save eliminated.
 439:HW_Lib/AT32F435/drivers/src/at32f435_437_usart.c ****   usart_x->ctrl1_bit.sbf = TRUE;
 949              		.loc 1 439 3 view .LVU206
 950              		.loc 1 439 26 is_stmt 0 view .LVU207
 951 0000 C368     		ldr	r3, [r0, #12]
 952 0002 43F00103 		orr	r3, r3, #1
 953 0006 C360     		str	r3, [r0, #12]
 440:HW_Lib/AT32F435/drivers/src/at32f435_437_usart.c **** }
 954              		.loc 1 440 1 view .LVU208
 955 0008 7047     		bx	lr
 956              		.cfi_endproc
 957              	.LFE151:
 959              		.section	.text.usart_smartcard_guard_time_set,"ax",%progbits
 960              		.align	1
 961              		.global	usart_smartcard_guard_time_set
 962              		.syntax unified
 963              		.thumb
 964              		.thumb_func
 966              	usart_smartcard_guard_time_set:
 967              	.LVL75:
 968              	.LFB152:
 441:HW_Lib/AT32F435/drivers/src/at32f435_437_usart.c **** 
 442:HW_Lib/AT32F435/drivers/src/at32f435_437_usart.c **** /**
ARM GAS  C:\Users\8bit\AppData\Local\Temp\cc74oY7E.s 			page 26


 443:HW_Lib/AT32F435/drivers/src/at32f435_437_usart.c ****   * @brief  config the specified usart smartcard guard time.
 444:HW_Lib/AT32F435/drivers/src/at32f435_437_usart.c ****   * @note   The guard time bits are not available for UART4, UART5, UART7 or UART8.
 445:HW_Lib/AT32F435/drivers/src/at32f435_437_usart.c ****   * @param  usart_x: select the usart or the uart peripheral.
 446:HW_Lib/AT32F435/drivers/src/at32f435_437_usart.c ****   *         this parameter can be one of the following values:
 447:HW_Lib/AT32F435/drivers/src/at32f435_437_usart.c ****   *         USART1, USART2, USART3 or USART6.
 448:HW_Lib/AT32F435/drivers/src/at32f435_437_usart.c ****   * @param  guard_time_val: specifies the guard time (0x00~0xFF).
 449:HW_Lib/AT32F435/drivers/src/at32f435_437_usart.c ****   * @retval none
 450:HW_Lib/AT32F435/drivers/src/at32f435_437_usart.c ****   */
 451:HW_Lib/AT32F435/drivers/src/at32f435_437_usart.c **** void usart_smartcard_guard_time_set(usart_type* usart_x, uint8_t guard_time_val)
 452:HW_Lib/AT32F435/drivers/src/at32f435_437_usart.c **** {
 969              		.loc 1 452 1 is_stmt 1 view -0
 970              		.cfi_startproc
 971              		@ args = 0, pretend = 0, frame = 0
 972              		@ frame_needed = 0, uses_anonymous_args = 0
 973              		@ link register save eliminated.
 453:HW_Lib/AT32F435/drivers/src/at32f435_437_usart.c ****   usart_x->gdiv_bit.scgt = guard_time_val;
 974              		.loc 1 453 3 view .LVU210
 975              		.loc 1 453 26 is_stmt 0 view .LVU211
 976 0000 8369     		ldr	r3, [r0, #24]
 977 0002 61F30F23 		bfi	r3, r1, #8, #8
 978 0006 8361     		str	r3, [r0, #24]
 454:HW_Lib/AT32F435/drivers/src/at32f435_437_usart.c **** }
 979              		.loc 1 454 1 view .LVU212
 980 0008 7047     		bx	lr
 981              		.cfi_endproc
 982              	.LFE152:
 984              		.section	.text.usart_irda_smartcard_division_set,"ax",%progbits
 985              		.align	1
 986              		.global	usart_irda_smartcard_division_set
 987              		.syntax unified
 988              		.thumb
 989              		.thumb_func
 991              	usart_irda_smartcard_division_set:
 992              	.LVL76:
 993              	.LFB153:
 455:HW_Lib/AT32F435/drivers/src/at32f435_437_usart.c **** 
 456:HW_Lib/AT32F435/drivers/src/at32f435_437_usart.c **** /**
 457:HW_Lib/AT32F435/drivers/src/at32f435_437_usart.c ****   * @brief  config the irda/smartcard division.
 458:HW_Lib/AT32F435/drivers/src/at32f435_437_usart.c ****   * @note   the division are not available for UART4, UART5, UART7 or UART8.
 459:HW_Lib/AT32F435/drivers/src/at32f435_437_usart.c ****   * @param  usart_x: select the usart or the uart peripheral.
 460:HW_Lib/AT32F435/drivers/src/at32f435_437_usart.c ****   *         this parameter can be one of the following values:
 461:HW_Lib/AT32F435/drivers/src/at32f435_437_usart.c ****   *         USART1, USART2, USART3 or USART6.
 462:HW_Lib/AT32F435/drivers/src/at32f435_437_usart.c ****   * @param  div_val: specifies the division.
 463:HW_Lib/AT32F435/drivers/src/at32f435_437_usart.c ****   * @retval none
 464:HW_Lib/AT32F435/drivers/src/at32f435_437_usart.c ****   */
 465:HW_Lib/AT32F435/drivers/src/at32f435_437_usart.c **** void usart_irda_smartcard_division_set(usart_type* usart_x, uint8_t div_val)
 466:HW_Lib/AT32F435/drivers/src/at32f435_437_usart.c **** {
 994              		.loc 1 466 1 is_stmt 1 view -0
 995              		.cfi_startproc
 996              		@ args = 0, pretend = 0, frame = 0
 997              		@ frame_needed = 0, uses_anonymous_args = 0
 998              		@ link register save eliminated.
 467:HW_Lib/AT32F435/drivers/src/at32f435_437_usart.c ****   usart_x->gdiv_bit.isdiv = div_val;
 999              		.loc 1 467 3 view .LVU214
 1000              		.loc 1 467 27 is_stmt 0 view .LVU215
 1001 0000 8369     		ldr	r3, [r0, #24]
 1002              	.LVL77:
ARM GAS  C:\Users\8bit\AppData\Local\Temp\cc74oY7E.s 			page 27


 1003              		.loc 1 467 27 view .LVU216
 1004 0002 61F30703 		bfi	r3, r1, #0, #8
 1005 0006 8361     		str	r3, [r0, #24]
 468:HW_Lib/AT32F435/drivers/src/at32f435_437_usart.c **** }
 1006              		.loc 1 468 1 view .LVU217
 1007 0008 7047     		bx	lr
 1008              		.cfi_endproc
 1009              	.LFE153:
 1011              		.section	.text.usart_smartcard_mode_enable,"ax",%progbits
 1012              		.align	1
 1013              		.global	usart_smartcard_mode_enable
 1014              		.syntax unified
 1015              		.thumb
 1016              		.thumb_func
 1018              	usart_smartcard_mode_enable:
 1019              	.LVL78:
 1020              	.LFB154:
 469:HW_Lib/AT32F435/drivers/src/at32f435_437_usart.c **** 
 470:HW_Lib/AT32F435/drivers/src/at32f435_437_usart.c **** /**
 471:HW_Lib/AT32F435/drivers/src/at32f435_437_usart.c ****   * @brief  enable or disable the usart smart card mode.
 472:HW_Lib/AT32F435/drivers/src/at32f435_437_usart.c ****   * @note   the smart card mode are not available for UART4, UART5, UART7 or UART8.
 473:HW_Lib/AT32F435/drivers/src/at32f435_437_usart.c ****   * @param  usart_x: select the usart or the uart peripheral.
 474:HW_Lib/AT32F435/drivers/src/at32f435_437_usart.c ****   *         this parameter can be one of the following values:
 475:HW_Lib/AT32F435/drivers/src/at32f435_437_usart.c ****   *         USART1, USART2, USART3 or USART6.
 476:HW_Lib/AT32F435/drivers/src/at32f435_437_usart.c ****   * @param  new_state: new state of the smart card mode.
 477:HW_Lib/AT32F435/drivers/src/at32f435_437_usart.c ****   *         this parameter can be: TRUE or FALSE.
 478:HW_Lib/AT32F435/drivers/src/at32f435_437_usart.c ****   * @retval none
 479:HW_Lib/AT32F435/drivers/src/at32f435_437_usart.c ****   */
 480:HW_Lib/AT32F435/drivers/src/at32f435_437_usart.c **** void usart_smartcard_mode_enable(usart_type* usart_x, confirm_state new_state)
 481:HW_Lib/AT32F435/drivers/src/at32f435_437_usart.c **** {
 1021              		.loc 1 481 1 is_stmt 1 view -0
 1022              		.cfi_startproc
 1023              		@ args = 0, pretend = 0, frame = 0
 1024              		@ frame_needed = 0, uses_anonymous_args = 0
 1025              		@ link register save eliminated.
 482:HW_Lib/AT32F435/drivers/src/at32f435_437_usart.c ****   usart_x->ctrl3_bit.scmen = new_state;
 1026              		.loc 1 482 3 view .LVU219
 1027              		.loc 1 482 28 is_stmt 0 view .LVU220
 1028 0000 4369     		ldr	r3, [r0, #20]
 1029 0002 61F34513 		bfi	r3, r1, #5, #1
 1030 0006 4361     		str	r3, [r0, #20]
 483:HW_Lib/AT32F435/drivers/src/at32f435_437_usart.c **** }
 1031              		.loc 1 483 1 view .LVU221
 1032 0008 7047     		bx	lr
 1033              		.cfi_endproc
 1034              	.LFE154:
 1036              		.section	.text.usart_smartcard_nack_set,"ax",%progbits
 1037              		.align	1
 1038              		.global	usart_smartcard_nack_set
 1039              		.syntax unified
 1040              		.thumb
 1041              		.thumb_func
 1043              	usart_smartcard_nack_set:
 1044              	.LVL79:
 1045              	.LFB155:
 484:HW_Lib/AT32F435/drivers/src/at32f435_437_usart.c **** 
 485:HW_Lib/AT32F435/drivers/src/at32f435_437_usart.c **** /**
ARM GAS  C:\Users\8bit\AppData\Local\Temp\cc74oY7E.s 			page 28


 486:HW_Lib/AT32F435/drivers/src/at32f435_437_usart.c ****   * @brief  enable or disable nack transmission in smartcard mode.
 487:HW_Lib/AT32F435/drivers/src/at32f435_437_usart.c ****   * @note   the smart card nack are not available for UART4, UART5, UART7 or UART8.
 488:HW_Lib/AT32F435/drivers/src/at32f435_437_usart.c ****   * @param  usart_x: select the usart or the uart peripheral.
 489:HW_Lib/AT32F435/drivers/src/at32f435_437_usart.c ****   *         this parameter can be one of the following values:
 490:HW_Lib/AT32F435/drivers/src/at32f435_437_usart.c ****   *         USART1, USART2, USART3 or USART6.
 491:HW_Lib/AT32F435/drivers/src/at32f435_437_usart.c ****   * @param  new_state: new state of the nack transmission.
 492:HW_Lib/AT32F435/drivers/src/at32f435_437_usart.c ****   *         this parameter can be: TRUE or FALSE.
 493:HW_Lib/AT32F435/drivers/src/at32f435_437_usart.c ****   * @retval none
 494:HW_Lib/AT32F435/drivers/src/at32f435_437_usart.c ****   */
 495:HW_Lib/AT32F435/drivers/src/at32f435_437_usart.c **** void usart_smartcard_nack_set(usart_type* usart_x, confirm_state new_state)
 496:HW_Lib/AT32F435/drivers/src/at32f435_437_usart.c **** {
 1046              		.loc 1 496 1 is_stmt 1 view -0
 1047              		.cfi_startproc
 1048              		@ args = 0, pretend = 0, frame = 0
 1049              		@ frame_needed = 0, uses_anonymous_args = 0
 1050              		@ link register save eliminated.
 497:HW_Lib/AT32F435/drivers/src/at32f435_437_usart.c ****   usart_x->ctrl3_bit.scnacken = new_state;
 1051              		.loc 1 497 3 view .LVU223
 1052              		.loc 1 497 31 is_stmt 0 view .LVU224
 1053 0000 4369     		ldr	r3, [r0, #20]
 1054 0002 61F30413 		bfi	r3, r1, #4, #1
 1055 0006 4361     		str	r3, [r0, #20]
 498:HW_Lib/AT32F435/drivers/src/at32f435_437_usart.c **** }
 1056              		.loc 1 498 1 view .LVU225
 1057 0008 7047     		bx	lr
 1058              		.cfi_endproc
 1059              	.LFE155:
 1061              		.section	.text.usart_single_line_halfduplex_select,"ax",%progbits
 1062              		.align	1
 1063              		.global	usart_single_line_halfduplex_select
 1064              		.syntax unified
 1065              		.thumb
 1066              		.thumb_func
 1068              	usart_single_line_halfduplex_select:
 1069              	.LVL80:
 1070              	.LFB156:
 499:HW_Lib/AT32F435/drivers/src/at32f435_437_usart.c **** 
 500:HW_Lib/AT32F435/drivers/src/at32f435_437_usart.c **** /**
 501:HW_Lib/AT32F435/drivers/src/at32f435_437_usart.c ****   * @brief  enable or disable the usart single line bidirectional half-duplex communication.
 502:HW_Lib/AT32F435/drivers/src/at32f435_437_usart.c ****   * @param  usart_x: select the usart or the uart peripheral.
 503:HW_Lib/AT32F435/drivers/src/at32f435_437_usart.c ****   *         this parameter can be one of the following values:
 504:HW_Lib/AT32F435/drivers/src/at32f435_437_usart.c ****   *         USART1, USART2, USART3, UART4, UART5, USART6, UART7 or UART8.
 505:HW_Lib/AT32F435/drivers/src/at32f435_437_usart.c ****   * @param  new_state: new state of the single line half-duplex select.
 506:HW_Lib/AT32F435/drivers/src/at32f435_437_usart.c ****   *         this parameter can be: TRUE or FALSE.
 507:HW_Lib/AT32F435/drivers/src/at32f435_437_usart.c ****   * @retval none
 508:HW_Lib/AT32F435/drivers/src/at32f435_437_usart.c ****   */
 509:HW_Lib/AT32F435/drivers/src/at32f435_437_usart.c **** void usart_single_line_halfduplex_select(usart_type* usart_x, confirm_state new_state)
 510:HW_Lib/AT32F435/drivers/src/at32f435_437_usart.c **** {
 1071              		.loc 1 510 1 is_stmt 1 view -0
 1072              		.cfi_startproc
 1073              		@ args = 0, pretend = 0, frame = 0
 1074              		@ frame_needed = 0, uses_anonymous_args = 0
 1075              		@ link register save eliminated.
 511:HW_Lib/AT32F435/drivers/src/at32f435_437_usart.c ****   usart_x->ctrl3_bit.slben = new_state;
 1076              		.loc 1 511 3 view .LVU227
 1077              		.loc 1 511 28 is_stmt 0 view .LVU228
 1078 0000 4369     		ldr	r3, [r0, #20]
ARM GAS  C:\Users\8bit\AppData\Local\Temp\cc74oY7E.s 			page 29


 1079 0002 61F3C303 		bfi	r3, r1, #3, #1
 1080 0006 4361     		str	r3, [r0, #20]
 512:HW_Lib/AT32F435/drivers/src/at32f435_437_usart.c **** }
 1081              		.loc 1 512 1 view .LVU229
 1082 0008 7047     		bx	lr
 1083              		.cfi_endproc
 1084              	.LFE156:
 1086              		.section	.text.usart_irda_mode_enable,"ax",%progbits
 1087              		.align	1
 1088              		.global	usart_irda_mode_enable
 1089              		.syntax unified
 1090              		.thumb
 1091              		.thumb_func
 1093              	usart_irda_mode_enable:
 1094              	.LVL81:
 1095              	.LFB157:
 513:HW_Lib/AT32F435/drivers/src/at32f435_437_usart.c **** 
 514:HW_Lib/AT32F435/drivers/src/at32f435_437_usart.c **** /**
 515:HW_Lib/AT32F435/drivers/src/at32f435_437_usart.c ****   * @brief  enable or disable the usart's irda interface.
 516:HW_Lib/AT32F435/drivers/src/at32f435_437_usart.c ****   * @param  usart_x: select the usart or the uart peripheral.
 517:HW_Lib/AT32F435/drivers/src/at32f435_437_usart.c ****   *         this parameter can be one of the following values:
 518:HW_Lib/AT32F435/drivers/src/at32f435_437_usart.c ****   *         USART1, USART2, USART3, UART4, UART5, USART6, UART7 or UART8.
 519:HW_Lib/AT32F435/drivers/src/at32f435_437_usart.c ****   * @param  new_state: new state of the irda mode.
 520:HW_Lib/AT32F435/drivers/src/at32f435_437_usart.c ****   *         this parameter can be: TRUE or FALSE.
 521:HW_Lib/AT32F435/drivers/src/at32f435_437_usart.c ****   * @retval none
 522:HW_Lib/AT32F435/drivers/src/at32f435_437_usart.c ****   */
 523:HW_Lib/AT32F435/drivers/src/at32f435_437_usart.c **** void usart_irda_mode_enable(usart_type* usart_x, confirm_state new_state)
 524:HW_Lib/AT32F435/drivers/src/at32f435_437_usart.c **** {
 1096              		.loc 1 524 1 is_stmt 1 view -0
 1097              		.cfi_startproc
 1098              		@ args = 0, pretend = 0, frame = 0
 1099              		@ frame_needed = 0, uses_anonymous_args = 0
 1100              		@ link register save eliminated.
 525:HW_Lib/AT32F435/drivers/src/at32f435_437_usart.c ****   usart_x->ctrl3_bit.irdaen = new_state;
 1101              		.loc 1 525 3 view .LVU231
 1102              		.loc 1 525 29 is_stmt 0 view .LVU232
 1103 0000 4369     		ldr	r3, [r0, #20]
 1104 0002 61F34103 		bfi	r3, r1, #1, #1
 1105 0006 4361     		str	r3, [r0, #20]
 526:HW_Lib/AT32F435/drivers/src/at32f435_437_usart.c **** }
 1106              		.loc 1 526 1 view .LVU233
 1107 0008 7047     		bx	lr
 1108              		.cfi_endproc
 1109              	.LFE157:
 1111              		.section	.text.usart_irda_low_power_enable,"ax",%progbits
 1112              		.align	1
 1113              		.global	usart_irda_low_power_enable
 1114              		.syntax unified
 1115              		.thumb
 1116              		.thumb_func
 1118              	usart_irda_low_power_enable:
 1119              	.LVL82:
 1120              	.LFB158:
 527:HW_Lib/AT32F435/drivers/src/at32f435_437_usart.c **** 
 528:HW_Lib/AT32F435/drivers/src/at32f435_437_usart.c **** /**
 529:HW_Lib/AT32F435/drivers/src/at32f435_437_usart.c ****   * @brief  configure the usart's irda low power.
 530:HW_Lib/AT32F435/drivers/src/at32f435_437_usart.c ****   * @param  usart_x: select the usart or the uart peripheral.
ARM GAS  C:\Users\8bit\AppData\Local\Temp\cc74oY7E.s 			page 30


 531:HW_Lib/AT32F435/drivers/src/at32f435_437_usart.c ****   *         this parameter can be one of the following values:
 532:HW_Lib/AT32F435/drivers/src/at32f435_437_usart.c ****   *         USART1, USART2, USART3, UART4, UART5, USART6, UART7 or UART8.
 533:HW_Lib/AT32F435/drivers/src/at32f435_437_usart.c ****   * @param  new_state: new state of the irda mode.
 534:HW_Lib/AT32F435/drivers/src/at32f435_437_usart.c ****   *         this parameter can be: TRUE or FALSE.
 535:HW_Lib/AT32F435/drivers/src/at32f435_437_usart.c ****   * @retval none
 536:HW_Lib/AT32F435/drivers/src/at32f435_437_usart.c ****   */
 537:HW_Lib/AT32F435/drivers/src/at32f435_437_usart.c **** void usart_irda_low_power_enable(usart_type* usart_x, confirm_state new_state)
 538:HW_Lib/AT32F435/drivers/src/at32f435_437_usart.c **** {
 1121              		.loc 1 538 1 is_stmt 1 view -0
 1122              		.cfi_startproc
 1123              		@ args = 0, pretend = 0, frame = 0
 1124              		@ frame_needed = 0, uses_anonymous_args = 0
 1125              		@ link register save eliminated.
 539:HW_Lib/AT32F435/drivers/src/at32f435_437_usart.c ****   usart_x->ctrl3_bit.irdalp = new_state;
 1126              		.loc 1 539 3 view .LVU235
 1127              		.loc 1 539 29 is_stmt 0 view .LVU236
 1128 0000 4369     		ldr	r3, [r0, #20]
 1129 0002 61F38203 		bfi	r3, r1, #2, #1
 1130 0006 4361     		str	r3, [r0, #20]
 540:HW_Lib/AT32F435/drivers/src/at32f435_437_usart.c **** }
 1131              		.loc 1 540 1 view .LVU237
 1132 0008 7047     		bx	lr
 1133              		.cfi_endproc
 1134              	.LFE158:
 1136              		.section	.text.usart_hardware_flow_control_set,"ax",%progbits
 1137              		.align	1
 1138              		.global	usart_hardware_flow_control_set
 1139              		.syntax unified
 1140              		.thumb
 1141              		.thumb_func
 1143              	usart_hardware_flow_control_set:
 1144              	.LVL83:
 1145              	.LFB159:
 541:HW_Lib/AT32F435/drivers/src/at32f435_437_usart.c **** 
 542:HW_Lib/AT32F435/drivers/src/at32f435_437_usart.c **** /**
 543:HW_Lib/AT32F435/drivers/src/at32f435_437_usart.c ****   * @brief  configure the usart's hardware flow control.
 544:HW_Lib/AT32F435/drivers/src/at32f435_437_usart.c ****   * @param  usart_x: select the usart or the uart peripheral.
 545:HW_Lib/AT32F435/drivers/src/at32f435_437_usart.c ****   *         this parameter can be one of the following values:
 546:HW_Lib/AT32F435/drivers/src/at32f435_437_usart.c ****   *         USART1, USART2, USART3
 547:HW_Lib/AT32F435/drivers/src/at32f435_437_usart.c ****   * @param  flow_state: specifies the hardware flow control.
 548:HW_Lib/AT32F435/drivers/src/at32f435_437_usart.c ****   *         this parameter can be one of the following values:
 549:HW_Lib/AT32F435/drivers/src/at32f435_437_usart.c ****   *         - USART_HARDWARE_FLOW_NONE
 550:HW_Lib/AT32F435/drivers/src/at32f435_437_usart.c ****   *         - USART_HARDWARE_FLOW_RTS,
 551:HW_Lib/AT32F435/drivers/src/at32f435_437_usart.c ****   *         - USART_HARDWARE_FLOW_CTS,
 552:HW_Lib/AT32F435/drivers/src/at32f435_437_usart.c ****   *         - USART_HARDWARE_FLOW_RTS_CTS
 553:HW_Lib/AT32F435/drivers/src/at32f435_437_usart.c ****   * @retval none
 554:HW_Lib/AT32F435/drivers/src/at32f435_437_usart.c ****   */
 555:HW_Lib/AT32F435/drivers/src/at32f435_437_usart.c **** void usart_hardware_flow_control_set(usart_type* usart_x,usart_hardware_flow_control_type flow_stat
 556:HW_Lib/AT32F435/drivers/src/at32f435_437_usart.c **** {
 1146              		.loc 1 556 1 is_stmt 1 view -0
 1147              		.cfi_startproc
 1148              		@ args = 0, pretend = 0, frame = 0
 1149              		@ frame_needed = 0, uses_anonymous_args = 0
 1150              		@ link register save eliminated.
 557:HW_Lib/AT32F435/drivers/src/at32f435_437_usart.c ****   if(flow_state == USART_HARDWARE_FLOW_NONE)
 1151              		.loc 1 557 3 view .LVU239
 1152              		.loc 1 557 5 is_stmt 0 view .LVU240
ARM GAS  C:\Users\8bit\AppData\Local\Temp\cc74oY7E.s 			page 31


 1153 0000 41B9     		cbnz	r1, .L70
 558:HW_Lib/AT32F435/drivers/src/at32f435_437_usart.c ****   {
 559:HW_Lib/AT32F435/drivers/src/at32f435_437_usart.c ****     usart_x->ctrl3_bit.rtsen = FALSE;
 1154              		.loc 1 559 5 is_stmt 1 view .LVU241
 1155              		.loc 1 559 30 is_stmt 0 view .LVU242
 1156 0002 4369     		ldr	r3, [r0, #20]
 1157 0004 6FF30823 		bfc	r3, #8, #1
 1158 0008 4361     		str	r3, [r0, #20]
 560:HW_Lib/AT32F435/drivers/src/at32f435_437_usart.c ****     usart_x->ctrl3_bit.ctsen = FALSE;
 1159              		.loc 1 560 5 is_stmt 1 view .LVU243
 1160              		.loc 1 560 30 is_stmt 0 view .LVU244
 1161 000a 4369     		ldr	r3, [r0, #20]
 1162 000c 6FF34923 		bfc	r3, #9, #1
 1163 0010 4361     		str	r3, [r0, #20]
 1164 0012 7047     		bx	lr
 1165              	.L70:
 561:HW_Lib/AT32F435/drivers/src/at32f435_437_usart.c ****   }
 562:HW_Lib/AT32F435/drivers/src/at32f435_437_usart.c ****   else if(flow_state == USART_HARDWARE_FLOW_RTS)
 1166              		.loc 1 562 8 is_stmt 1 view .LVU245
 1167              		.loc 1 562 10 is_stmt 0 view .LVU246
 1168 0014 0129     		cmp	r1, #1
 1169 0016 04D0     		beq	.L74
 563:HW_Lib/AT32F435/drivers/src/at32f435_437_usart.c ****   {
 564:HW_Lib/AT32F435/drivers/src/at32f435_437_usart.c ****     usart_x->ctrl3_bit.rtsen = TRUE;
 565:HW_Lib/AT32F435/drivers/src/at32f435_437_usart.c ****     usart_x->ctrl3_bit.ctsen = FALSE;
 566:HW_Lib/AT32F435/drivers/src/at32f435_437_usart.c ****   }
 567:HW_Lib/AT32F435/drivers/src/at32f435_437_usart.c ****   else if(flow_state == USART_HARDWARE_FLOW_CTS)
 1170              		.loc 1 567 8 is_stmt 1 view .LVU247
 1171              		.loc 1 567 10 is_stmt 0 view .LVU248
 1172 0018 0229     		cmp	r1, #2
 1173 001a 0BD0     		beq	.L75
 568:HW_Lib/AT32F435/drivers/src/at32f435_437_usart.c ****   {
 569:HW_Lib/AT32F435/drivers/src/at32f435_437_usart.c ****     usart_x->ctrl3_bit.rtsen = FALSE;
 570:HW_Lib/AT32F435/drivers/src/at32f435_437_usart.c ****     usart_x->ctrl3_bit.ctsen = TRUE;
 571:HW_Lib/AT32F435/drivers/src/at32f435_437_usart.c ****   }
 572:HW_Lib/AT32F435/drivers/src/at32f435_437_usart.c ****   else if(flow_state == USART_HARDWARE_FLOW_RTS_CTS)
 1174              		.loc 1 572 8 is_stmt 1 view .LVU249
 1175              		.loc 1 572 10 is_stmt 0 view .LVU250
 1176 001c 0329     		cmp	r1, #3
 1177 001e 12D0     		beq	.L76
 1178              	.L69:
 573:HW_Lib/AT32F435/drivers/src/at32f435_437_usart.c ****   {
 574:HW_Lib/AT32F435/drivers/src/at32f435_437_usart.c ****     usart_x->ctrl3_bit.rtsen = TRUE;
 575:HW_Lib/AT32F435/drivers/src/at32f435_437_usart.c ****     usart_x->ctrl3_bit.ctsen = TRUE;
 576:HW_Lib/AT32F435/drivers/src/at32f435_437_usart.c ****   }
 577:HW_Lib/AT32F435/drivers/src/at32f435_437_usart.c **** }
 1179              		.loc 1 577 1 view .LVU251
 1180 0020 7047     		bx	lr
 1181              	.L74:
 564:HW_Lib/AT32F435/drivers/src/at32f435_437_usart.c ****     usart_x->ctrl3_bit.ctsen = FALSE;
 1182              		.loc 1 564 5 is_stmt 1 view .LVU252
 564:HW_Lib/AT32F435/drivers/src/at32f435_437_usart.c ****     usart_x->ctrl3_bit.ctsen = FALSE;
 1183              		.loc 1 564 30 is_stmt 0 view .LVU253
 1184 0022 4369     		ldr	r3, [r0, #20]
 1185 0024 43F48073 		orr	r3, r3, #256
 1186 0028 4361     		str	r3, [r0, #20]
 565:HW_Lib/AT32F435/drivers/src/at32f435_437_usart.c ****   }
ARM GAS  C:\Users\8bit\AppData\Local\Temp\cc74oY7E.s 			page 32


 1187              		.loc 1 565 5 is_stmt 1 view .LVU254
 565:HW_Lib/AT32F435/drivers/src/at32f435_437_usart.c ****   }
 1188              		.loc 1 565 30 is_stmt 0 view .LVU255
 1189 002a 4369     		ldr	r3, [r0, #20]
 1190 002c 6FF34923 		bfc	r3, #9, #1
 1191 0030 4361     		str	r3, [r0, #20]
 1192 0032 7047     		bx	lr
 1193              	.L75:
 569:HW_Lib/AT32F435/drivers/src/at32f435_437_usart.c ****     usart_x->ctrl3_bit.ctsen = TRUE;
 1194              		.loc 1 569 5 is_stmt 1 view .LVU256
 569:HW_Lib/AT32F435/drivers/src/at32f435_437_usart.c ****     usart_x->ctrl3_bit.ctsen = TRUE;
 1195              		.loc 1 569 30 is_stmt 0 view .LVU257
 1196 0034 4369     		ldr	r3, [r0, #20]
 1197 0036 6FF30823 		bfc	r3, #8, #1
 1198 003a 4361     		str	r3, [r0, #20]
 570:HW_Lib/AT32F435/drivers/src/at32f435_437_usart.c ****   }
 1199              		.loc 1 570 5 is_stmt 1 view .LVU258
 570:HW_Lib/AT32F435/drivers/src/at32f435_437_usart.c ****   }
 1200              		.loc 1 570 30 is_stmt 0 view .LVU259
 1201 003c 4369     		ldr	r3, [r0, #20]
 1202 003e 43F40073 		orr	r3, r3, #512
 1203 0042 4361     		str	r3, [r0, #20]
 1204 0044 7047     		bx	lr
 1205              	.L76:
 574:HW_Lib/AT32F435/drivers/src/at32f435_437_usart.c ****     usart_x->ctrl3_bit.ctsen = TRUE;
 1206              		.loc 1 574 5 is_stmt 1 view .LVU260
 574:HW_Lib/AT32F435/drivers/src/at32f435_437_usart.c ****     usart_x->ctrl3_bit.ctsen = TRUE;
 1207              		.loc 1 574 30 is_stmt 0 view .LVU261
 1208 0046 4369     		ldr	r3, [r0, #20]
 1209 0048 43F48073 		orr	r3, r3, #256
 1210 004c 4361     		str	r3, [r0, #20]
 575:HW_Lib/AT32F435/drivers/src/at32f435_437_usart.c ****   }
 1211              		.loc 1 575 5 is_stmt 1 view .LVU262
 575:HW_Lib/AT32F435/drivers/src/at32f435_437_usart.c ****   }
 1212              		.loc 1 575 30 is_stmt 0 view .LVU263
 1213 004e 4369     		ldr	r3, [r0, #20]
 1214 0050 43F40073 		orr	r3, r3, #512
 1215 0054 4361     		str	r3, [r0, #20]
 1216              		.loc 1 577 1 view .LVU264
 1217 0056 E3E7     		b	.L69
 1218              		.cfi_endproc
 1219              	.LFE159:
 1221              		.section	.text.usart_flag_get,"ax",%progbits
 1222              		.align	1
 1223              		.global	usart_flag_get
 1224              		.syntax unified
 1225              		.thumb
 1226              		.thumb_func
 1228              	usart_flag_get:
 1229              	.LVL84:
 1230              	.LFB160:
 578:HW_Lib/AT32F435/drivers/src/at32f435_437_usart.c **** 
 579:HW_Lib/AT32F435/drivers/src/at32f435_437_usart.c **** /**
 580:HW_Lib/AT32F435/drivers/src/at32f435_437_usart.c ****   * @brief  check whether the specified usart flag is set or not.
 581:HW_Lib/AT32F435/drivers/src/at32f435_437_usart.c ****   * @param  usart_x: select the usart or the uart peripheral.
 582:HW_Lib/AT32F435/drivers/src/at32f435_437_usart.c ****   *         this parameter can be one of the following values:
 583:HW_Lib/AT32F435/drivers/src/at32f435_437_usart.c ****   *         USART1, USART2, USART3, UART4, UART5, USART6, UART7 or UART8.
ARM GAS  C:\Users\8bit\AppData\Local\Temp\cc74oY7E.s 			page 33


 584:HW_Lib/AT32F435/drivers/src/at32f435_437_usart.c ****   * @param  flag: specifies the flag to check.
 585:HW_Lib/AT32F435/drivers/src/at32f435_437_usart.c ****   *         this parameter can be one of the following values:
 586:HW_Lib/AT32F435/drivers/src/at32f435_437_usart.c ****   *         - USART_CTSCF_FLAG: cts change flag (not available for UART4,UART5,USART6,UART7 and UAR
 587:HW_Lib/AT32F435/drivers/src/at32f435_437_usart.c ****   *         - USART_BFF_FLAG:   break frame flag
 588:HW_Lib/AT32F435/drivers/src/at32f435_437_usart.c ****   *         - USART_TDBE_FLAG:  transmit data buffer empty flag
 589:HW_Lib/AT32F435/drivers/src/at32f435_437_usart.c ****   *         - USART_TDC_FLAG:   transmit data complete flag
 590:HW_Lib/AT32F435/drivers/src/at32f435_437_usart.c ****   *         - USART_RDBF_FLAG:  receive data buffer full flag
 591:HW_Lib/AT32F435/drivers/src/at32f435_437_usart.c ****   *         - USART_IDLEF_FLAG: idle flag
 592:HW_Lib/AT32F435/drivers/src/at32f435_437_usart.c ****   *         - USART_ROERR_FLAG: receiver overflow error flag
 593:HW_Lib/AT32F435/drivers/src/at32f435_437_usart.c ****   *         - USART_NERR_FLAG:  noise error flag
 594:HW_Lib/AT32F435/drivers/src/at32f435_437_usart.c ****   *         - USART_FERR_FLAG:  framing error flag
 595:HW_Lib/AT32F435/drivers/src/at32f435_437_usart.c ****   *         - USART_PERR_FLAG:  parity error flag
 596:HW_Lib/AT32F435/drivers/src/at32f435_437_usart.c ****   * @retval the new state of usart_flag (SET or RESET).
 597:HW_Lib/AT32F435/drivers/src/at32f435_437_usart.c ****   */
 598:HW_Lib/AT32F435/drivers/src/at32f435_437_usart.c **** flag_status usart_flag_get(usart_type* usart_x, uint32_t flag)
 599:HW_Lib/AT32F435/drivers/src/at32f435_437_usart.c **** {
 1231              		.loc 1 599 1 is_stmt 1 view -0
 1232              		.cfi_startproc
 1233              		@ args = 0, pretend = 0, frame = 0
 1234              		@ frame_needed = 0, uses_anonymous_args = 0
 1235              		@ link register save eliminated.
 600:HW_Lib/AT32F435/drivers/src/at32f435_437_usart.c ****   if(usart_x->sts & flag)
 1236              		.loc 1 600 3 view .LVU266
 1237              		.loc 1 600 13 is_stmt 0 view .LVU267
 1238 0000 0368     		ldr	r3, [r0]
 1239              		.loc 1 600 5 view .LVU268
 1240 0002 0B42     		tst	r3, r1
 1241 0004 01D0     		beq	.L79
 601:HW_Lib/AT32F435/drivers/src/at32f435_437_usart.c ****   {
 602:HW_Lib/AT32F435/drivers/src/at32f435_437_usart.c ****     return SET;
 1242              		.loc 1 602 12 view .LVU269
 1243 0006 0120     		movs	r0, #1
 1244              	.LVL85:
 1245              		.loc 1 602 12 view .LVU270
 1246 0008 7047     		bx	lr
 1247              	.LVL86:
 1248              	.L79:
 603:HW_Lib/AT32F435/drivers/src/at32f435_437_usart.c ****   }
 604:HW_Lib/AT32F435/drivers/src/at32f435_437_usart.c ****   else
 605:HW_Lib/AT32F435/drivers/src/at32f435_437_usart.c ****   {
 606:HW_Lib/AT32F435/drivers/src/at32f435_437_usart.c ****     return RESET;
 1249              		.loc 1 606 12 view .LVU271
 1250 000a 0020     		movs	r0, #0
 1251              	.LVL87:
 607:HW_Lib/AT32F435/drivers/src/at32f435_437_usart.c ****   }
 608:HW_Lib/AT32F435/drivers/src/at32f435_437_usart.c **** }
 1252              		.loc 1 608 1 view .LVU272
 1253 000c 7047     		bx	lr
 1254              		.cfi_endproc
 1255              	.LFE160:
 1257              		.section	.text.usart_flag_clear,"ax",%progbits
 1258              		.align	1
 1259              		.global	usart_flag_clear
 1260              		.syntax unified
 1261              		.thumb
 1262              		.thumb_func
 1264              	usart_flag_clear:
ARM GAS  C:\Users\8bit\AppData\Local\Temp\cc74oY7E.s 			page 34


 1265              	.LVL88:
 1266              	.LFB161:
 609:HW_Lib/AT32F435/drivers/src/at32f435_437_usart.c **** 
 610:HW_Lib/AT32F435/drivers/src/at32f435_437_usart.c **** /**
 611:HW_Lib/AT32F435/drivers/src/at32f435_437_usart.c ****   * @brief  clear the usart's pending flags.
 612:HW_Lib/AT32F435/drivers/src/at32f435_437_usart.c ****   * @param  usart_x: select the usart or the uart peripheral.
 613:HW_Lib/AT32F435/drivers/src/at32f435_437_usart.c ****   *         this parameter can be one of the following values:
 614:HW_Lib/AT32F435/drivers/src/at32f435_437_usart.c ****   *         USART1, USART2, USART3, UART4, UART5, USART6, UART7 or UART8.
 615:HW_Lib/AT32F435/drivers/src/at32f435_437_usart.c ****   * @param  flag: specifies the flag to clear.
 616:HW_Lib/AT32F435/drivers/src/at32f435_437_usart.c ****   *         this parameter can be any combination of the following values:
 617:HW_Lib/AT32F435/drivers/src/at32f435_437_usart.c ****   *         - USART_CTSCF_FLAG: (not available for UART4,UART5,USART6,UART7 and UART8).
 618:HW_Lib/AT32F435/drivers/src/at32f435_437_usart.c ****   *         - USART_BFF_FLAG:
 619:HW_Lib/AT32F435/drivers/src/at32f435_437_usart.c ****   *         - USART_TDC_FLAG:
 620:HW_Lib/AT32F435/drivers/src/at32f435_437_usart.c ****   *         - USART_RDBF_FLAG:
 621:HW_Lib/AT32F435/drivers/src/at32f435_437_usart.c ****   *         - USART_PERR_FLAG:
 622:HW_Lib/AT32F435/drivers/src/at32f435_437_usart.c ****   *         - USART_FERR_FLAG:
 623:HW_Lib/AT32F435/drivers/src/at32f435_437_usart.c ****   *         - USART_NERR_FLAG:
 624:HW_Lib/AT32F435/drivers/src/at32f435_437_usart.c ****   *         - USART_ROERR_FLAG:
 625:HW_Lib/AT32F435/drivers/src/at32f435_437_usart.c ****   *         - USART_IDLEF_FLAG:
 626:HW_Lib/AT32F435/drivers/src/at32f435_437_usart.c ****   * @note
 627:HW_Lib/AT32F435/drivers/src/at32f435_437_usart.c ****   *         - USART_PERR_FLAG, USART_FERR_FLAG, USART_NERR_FLAG, USART_ROERR_FLAG and USART_IDLEF_F
 628:HW_Lib/AT32F435/drivers/src/at32f435_437_usart.c ****   *           sequence: a read operation to usart sts register (usart_flag_get())
 629:HW_Lib/AT32F435/drivers/src/at32f435_437_usart.c ****   *           followed by a read operation to usart dt register (usart_data_receive()).
 630:HW_Lib/AT32F435/drivers/src/at32f435_437_usart.c ****   *         - USART_RDBF_FLAG can be also cleared by a read to the usart dt register(usart_data_rec
 631:HW_Lib/AT32F435/drivers/src/at32f435_437_usart.c ****   *         - USART_TDC_FLAG can be also cleared by software sequence: a read operation to usart st
 632:HW_Lib/AT32F435/drivers/src/at32f435_437_usart.c ****   *           followed by a write operation to usart dt register (usart_data_transmit()).
 633:HW_Lib/AT32F435/drivers/src/at32f435_437_usart.c ****   *         - USART_TDBE_FLAG is cleared only by a write to the usart dt register(usart_data_transm
 634:HW_Lib/AT32F435/drivers/src/at32f435_437_usart.c ****   * @retval none
 635:HW_Lib/AT32F435/drivers/src/at32f435_437_usart.c ****   */
 636:HW_Lib/AT32F435/drivers/src/at32f435_437_usart.c **** void usart_flag_clear(usart_type* usart_x, uint32_t flag)
 637:HW_Lib/AT32F435/drivers/src/at32f435_437_usart.c **** {
 1267              		.loc 1 637 1 is_stmt 1 view -0
 1268              		.cfi_startproc
 1269              		@ args = 0, pretend = 0, frame = 0
 1270              		@ frame_needed = 0, uses_anonymous_args = 0
 1271              		@ link register save eliminated.
 638:HW_Lib/AT32F435/drivers/src/at32f435_437_usart.c ****   if(flag & (USART_PERR_FLAG | USART_FERR_FLAG | USART_NERR_FLAG | USART_ROERR_FLAG | USART_IDLEF_F
 1272              		.loc 1 638 3 view .LVU274
 1273              		.loc 1 638 5 is_stmt 0 view .LVU275
 1274 0000 11F01F0F 		tst	r1, #31
 1275 0004 02D0     		beq	.L81
 639:HW_Lib/AT32F435/drivers/src/at32f435_437_usart.c ****   {
 640:HW_Lib/AT32F435/drivers/src/at32f435_437_usart.c ****     UNUSED(usart_x->sts);
 1276              		.loc 1 640 5 is_stmt 1 view .LVU276
 1277 0006 0368     		ldr	r3, [r0]
 641:HW_Lib/AT32F435/drivers/src/at32f435_437_usart.c ****     UNUSED(usart_x->dt);
 1278              		.loc 1 641 5 view .LVU277
 1279 0008 4368     		ldr	r3, [r0, #4]
 1280 000a 7047     		bx	lr
 1281              	.L81:
 642:HW_Lib/AT32F435/drivers/src/at32f435_437_usart.c ****   }
 643:HW_Lib/AT32F435/drivers/src/at32f435_437_usart.c ****   else
 644:HW_Lib/AT32F435/drivers/src/at32f435_437_usart.c ****   {
 645:HW_Lib/AT32F435/drivers/src/at32f435_437_usart.c ****     usart_x->sts = ~flag;
 1282              		.loc 1 645 5 view .LVU278
 1283              		.loc 1 645 20 is_stmt 0 view .LVU279
 1284 000c C943     		mvns	r1, r1
ARM GAS  C:\Users\8bit\AppData\Local\Temp\cc74oY7E.s 			page 35


 1285              	.LVL89:
 1286              		.loc 1 645 18 view .LVU280
 1287 000e 0160     		str	r1, [r0]
 646:HW_Lib/AT32F435/drivers/src/at32f435_437_usart.c ****   }
 647:HW_Lib/AT32F435/drivers/src/at32f435_437_usart.c **** }
 1288              		.loc 1 647 1 view .LVU281
 1289 0010 7047     		bx	lr
 1290              		.cfi_endproc
 1291              	.LFE161:
 1293              		.section	.text.usart_rs485_delay_time_config,"ax",%progbits
 1294              		.align	1
 1295              		.global	usart_rs485_delay_time_config
 1296              		.syntax unified
 1297              		.thumb
 1298              		.thumb_func
 1300              	usart_rs485_delay_time_config:
 1301              	.LVL90:
 1302              	.LFB162:
 648:HW_Lib/AT32F435/drivers/src/at32f435_437_usart.c **** 
 649:HW_Lib/AT32F435/drivers/src/at32f435_437_usart.c **** /**
 650:HW_Lib/AT32F435/drivers/src/at32f435_437_usart.c ****   * @brief  configure the usart's rs485 transmit delay time.
 651:HW_Lib/AT32F435/drivers/src/at32f435_437_usart.c ****   * @param  usart_x: select the usart or the uart peripheral.
 652:HW_Lib/AT32F435/drivers/src/at32f435_437_usart.c ****   *         this parameter can be one of the following values:
 653:HW_Lib/AT32F435/drivers/src/at32f435_437_usart.c ****   *         USART1, USART2, USART3
 654:HW_Lib/AT32F435/drivers/src/at32f435_437_usart.c ****   * @param  start_delay_time: transmit start delay time.
 655:HW_Lib/AT32F435/drivers/src/at32f435_437_usart.c ****   * @param  complete_delay_time: transmit complete delay time.
 656:HW_Lib/AT32F435/drivers/src/at32f435_437_usart.c ****   * @retval none
 657:HW_Lib/AT32F435/drivers/src/at32f435_437_usart.c ****   */
 658:HW_Lib/AT32F435/drivers/src/at32f435_437_usart.c **** void usart_rs485_delay_time_config(usart_type* usart_x, uint8_t start_delay_time, uint8_t complete_
 659:HW_Lib/AT32F435/drivers/src/at32f435_437_usart.c **** {
 1303              		.loc 1 659 1 is_stmt 1 view -0
 1304              		.cfi_startproc
 1305              		@ args = 0, pretend = 0, frame = 0
 1306              		@ frame_needed = 0, uses_anonymous_args = 0
 1307              		@ link register save eliminated.
 660:HW_Lib/AT32F435/drivers/src/at32f435_437_usart.c ****   usart_x->ctrl1_bit.tsdt = start_delay_time;
 1308              		.loc 1 660 3 view .LVU283
 1309              		.loc 1 660 27 is_stmt 0 view .LVU284
 1310 0000 C368     		ldr	r3, [r0, #12]
 1311 0002 61F35953 		bfi	r3, r1, #21, #5
 1312 0006 C360     		str	r3, [r0, #12]
 661:HW_Lib/AT32F435/drivers/src/at32f435_437_usart.c ****   usart_x->ctrl1_bit.tcdt = complete_delay_time;
 1313              		.loc 1 661 3 is_stmt 1 view .LVU285
 1314              		.loc 1 661 27 is_stmt 0 view .LVU286
 1315 0008 C368     		ldr	r3, [r0, #12]
 1316 000a 62F31443 		bfi	r3, r2, #16, #5
 1317 000e C360     		str	r3, [r0, #12]
 662:HW_Lib/AT32F435/drivers/src/at32f435_437_usart.c **** }
 1318              		.loc 1 662 1 view .LVU287
 1319 0010 7047     		bx	lr
 1320              		.cfi_endproc
 1321              	.LFE162:
 1323              		.section	.text.usart_transmit_receive_pin_swap,"ax",%progbits
 1324              		.align	1
 1325              		.global	usart_transmit_receive_pin_swap
 1326              		.syntax unified
 1327              		.thumb
ARM GAS  C:\Users\8bit\AppData\Local\Temp\cc74oY7E.s 			page 36


 1328              		.thumb_func
 1330              	usart_transmit_receive_pin_swap:
 1331              	.LVL91:
 1332              	.LFB163:
 663:HW_Lib/AT32F435/drivers/src/at32f435_437_usart.c **** 
 664:HW_Lib/AT32F435/drivers/src/at32f435_437_usart.c **** /**
 665:HW_Lib/AT32F435/drivers/src/at32f435_437_usart.c ****   * @brief  swap the usart's transmit receive pin.
 666:HW_Lib/AT32F435/drivers/src/at32f435_437_usart.c ****   * @param  usart_x: select the usart or the uart peripheral.
 667:HW_Lib/AT32F435/drivers/src/at32f435_437_usart.c ****   *         this parameter can be one of the following values:
 668:HW_Lib/AT32F435/drivers/src/at32f435_437_usart.c ****   *         USART1, USART2, USART3, UART4, UART5, USART6, UART7,or UART8.
 669:HW_Lib/AT32F435/drivers/src/at32f435_437_usart.c ****   * @param  new_state: new state of the usart peripheral.
 670:HW_Lib/AT32F435/drivers/src/at32f435_437_usart.c ****   *         this parameter can be: TRUE or FALSE.
 671:HW_Lib/AT32F435/drivers/src/at32f435_437_usart.c ****   * @retval none
 672:HW_Lib/AT32F435/drivers/src/at32f435_437_usart.c ****   */
 673:HW_Lib/AT32F435/drivers/src/at32f435_437_usart.c **** void usart_transmit_receive_pin_swap(usart_type* usart_x, confirm_state new_state)
 674:HW_Lib/AT32F435/drivers/src/at32f435_437_usart.c **** {
 1333              		.loc 1 674 1 is_stmt 1 view -0
 1334              		.cfi_startproc
 1335              		@ args = 0, pretend = 0, frame = 0
 1336              		@ frame_needed = 0, uses_anonymous_args = 0
 1337              		@ link register save eliminated.
 675:HW_Lib/AT32F435/drivers/src/at32f435_437_usart.c ****   usart_x->ctrl2_bit.trpswap = new_state;
 1338              		.loc 1 675 3 view .LVU289
 1339              		.loc 1 675 30 is_stmt 0 view .LVU290
 1340 0000 0369     		ldr	r3, [r0, #16]
 1341 0002 61F3CF33 		bfi	r3, r1, #15, #1
 1342 0006 0361     		str	r3, [r0, #16]
 676:HW_Lib/AT32F435/drivers/src/at32f435_437_usart.c **** }
 1343              		.loc 1 676 1 view .LVU291
 1344 0008 7047     		bx	lr
 1345              		.cfi_endproc
 1346              	.LFE163:
 1348              		.section	.text.usart_id_bit_num_set,"ax",%progbits
 1349              		.align	1
 1350              		.global	usart_id_bit_num_set
 1351              		.syntax unified
 1352              		.thumb
 1353              		.thumb_func
 1355              	usart_id_bit_num_set:
 1356              	.LVL92:
 1357              	.LFB164:
 677:HW_Lib/AT32F435/drivers/src/at32f435_437_usart.c **** 
 678:HW_Lib/AT32F435/drivers/src/at32f435_437_usart.c **** /**
 679:HW_Lib/AT32F435/drivers/src/at32f435_437_usart.c ****   * @brief  set the usart's identification bit num.
 680:HW_Lib/AT32F435/drivers/src/at32f435_437_usart.c ****   * @param  usart_x: select the usart or the uart peripheral.
 681:HW_Lib/AT32F435/drivers/src/at32f435_437_usart.c ****   *         this parameter can be one of the following values:
 682:HW_Lib/AT32F435/drivers/src/at32f435_437_usart.c ****   *         USART1, USART2, USART3, UART4, UART5, USART6, UART7,or UART8.
 683:HW_Lib/AT32F435/drivers/src/at32f435_437_usart.c ****   * @param  id_bit_num: the usart wakeup identification bit num.
 684:HW_Lib/AT32F435/drivers/src/at32f435_437_usart.c ****   *         this parameter can be: USART_ID_FIXED_4_BIT or USART_ID_RELATED_DATA_BIT.
 685:HW_Lib/AT32F435/drivers/src/at32f435_437_usart.c ****   * @retval none
 686:HW_Lib/AT32F435/drivers/src/at32f435_437_usart.c ****   */
 687:HW_Lib/AT32F435/drivers/src/at32f435_437_usart.c **** void usart_id_bit_num_set(usart_type* usart_x, usart_identification_bit_num_type id_bit_num)
 688:HW_Lib/AT32F435/drivers/src/at32f435_437_usart.c **** {
 1358              		.loc 1 688 1 is_stmt 1 view -0
 1359              		.cfi_startproc
 1360              		@ args = 0, pretend = 0, frame = 0
 1361              		@ frame_needed = 0, uses_anonymous_args = 0
ARM GAS  C:\Users\8bit\AppData\Local\Temp\cc74oY7E.s 			page 37


 1362              		@ link register save eliminated.
 689:HW_Lib/AT32F435/drivers/src/at32f435_437_usart.c ****   usart_x->ctrl2_bit.idbn = (uint8_t)id_bit_num;
 1363              		.loc 1 689 3 view .LVU293
 1364              		.loc 1 689 27 is_stmt 0 view .LVU294
 1365 0000 0369     		ldr	r3, [r0, #16]
 1366 0002 61F30413 		bfi	r3, r1, #4, #1
 1367 0006 0361     		str	r3, [r0, #16]
 690:HW_Lib/AT32F435/drivers/src/at32f435_437_usart.c **** }
 1368              		.loc 1 690 1 view .LVU295
 1369 0008 7047     		bx	lr
 1370              		.cfi_endproc
 1371              	.LFE164:
 1373              		.section	.text.usart_de_polarity_set,"ax",%progbits
 1374              		.align	1
 1375              		.global	usart_de_polarity_set
 1376              		.syntax unified
 1377              		.thumb
 1378              		.thumb_func
 1380              	usart_de_polarity_set:
 1381              	.LVL93:
 1382              	.LFB165:
 691:HW_Lib/AT32F435/drivers/src/at32f435_437_usart.c **** 
 692:HW_Lib/AT32F435/drivers/src/at32f435_437_usart.c **** /**
 693:HW_Lib/AT32F435/drivers/src/at32f435_437_usart.c ****   * @brief  set the usart's de polarity.
 694:HW_Lib/AT32F435/drivers/src/at32f435_437_usart.c ****   * @param  usart_x: select the usart or the uart peripheral.
 695:HW_Lib/AT32F435/drivers/src/at32f435_437_usart.c ****   *         this parameter can be one of the following values:
 696:HW_Lib/AT32F435/drivers/src/at32f435_437_usart.c ****   *         USART1, USART2, USART3
 697:HW_Lib/AT32F435/drivers/src/at32f435_437_usart.c ****   * @param  de_polarity: the usart de polarity selection.
 698:HW_Lib/AT32F435/drivers/src/at32f435_437_usart.c ****   *         this parameter can be: USART_DE_POLARITY_HIGH or USART_DE_POLARITY_LOW.
 699:HW_Lib/AT32F435/drivers/src/at32f435_437_usart.c ****   * @retval none
 700:HW_Lib/AT32F435/drivers/src/at32f435_437_usart.c ****   */
 701:HW_Lib/AT32F435/drivers/src/at32f435_437_usart.c **** void usart_de_polarity_set(usart_type* usart_x, usart_de_polarity_type de_polarity)
 702:HW_Lib/AT32F435/drivers/src/at32f435_437_usart.c **** {
 1383              		.loc 1 702 1 is_stmt 1 view -0
 1384              		.cfi_startproc
 1385              		@ args = 0, pretend = 0, frame = 0
 1386              		@ frame_needed = 0, uses_anonymous_args = 0
 1387              		@ link register save eliminated.
 703:HW_Lib/AT32F435/drivers/src/at32f435_437_usart.c ****   usart_x->ctrl3_bit.dep = (uint8_t)de_polarity;
 1388              		.loc 1 703 3 view .LVU297
 1389              		.loc 1 703 26 is_stmt 0 view .LVU298
 1390 0000 4369     		ldr	r3, [r0, #20]
 1391 0002 61F3CF33 		bfi	r3, r1, #15, #1
 1392 0006 4361     		str	r3, [r0, #20]
 704:HW_Lib/AT32F435/drivers/src/at32f435_437_usart.c **** }
 1393              		.loc 1 704 1 view .LVU299
 1394 0008 7047     		bx	lr
 1395              		.cfi_endproc
 1396              	.LFE165:
 1398              		.section	.text.usart_rs485_mode_enable,"ax",%progbits
 1399              		.align	1
 1400              		.global	usart_rs485_mode_enable
 1401              		.syntax unified
 1402              		.thumb
 1403              		.thumb_func
 1405              	usart_rs485_mode_enable:
 1406              	.LVL94:
ARM GAS  C:\Users\8bit\AppData\Local\Temp\cc74oY7E.s 			page 38


 1407              	.LFB166:
 705:HW_Lib/AT32F435/drivers/src/at32f435_437_usart.c **** 
 706:HW_Lib/AT32F435/drivers/src/at32f435_437_usart.c **** /**
 707:HW_Lib/AT32F435/drivers/src/at32f435_437_usart.c ****   * @brief  enable or disable the usart's rs485 mode.
 708:HW_Lib/AT32F435/drivers/src/at32f435_437_usart.c ****   * @param  usart_x: select the usart or the uart peripheral.
 709:HW_Lib/AT32F435/drivers/src/at32f435_437_usart.c ****   *         this parameter can be one of the following values:
 710:HW_Lib/AT32F435/drivers/src/at32f435_437_usart.c ****   *         USART1, USART2, USART3
 711:HW_Lib/AT32F435/drivers/src/at32f435_437_usart.c ****   * @param  new_state: new state of the irda mode.
 712:HW_Lib/AT32F435/drivers/src/at32f435_437_usart.c ****   *         this parameter can be: TRUE or FALSE.
 713:HW_Lib/AT32F435/drivers/src/at32f435_437_usart.c ****   * @retval none
 714:HW_Lib/AT32F435/drivers/src/at32f435_437_usart.c ****   */
 715:HW_Lib/AT32F435/drivers/src/at32f435_437_usart.c **** void usart_rs485_mode_enable(usart_type* usart_x, confirm_state new_state)
 716:HW_Lib/AT32F435/drivers/src/at32f435_437_usart.c **** {
 1408              		.loc 1 716 1 is_stmt 1 view -0
 1409              		.cfi_startproc
 1410              		@ args = 0, pretend = 0, frame = 0
 1411              		@ frame_needed = 0, uses_anonymous_args = 0
 1412              		@ link register save eliminated.
 717:HW_Lib/AT32F435/drivers/src/at32f435_437_usart.c ****   usart_x->ctrl3_bit.rs485en = new_state;
 1413              		.loc 1 717 3 view .LVU301
 1414              		.loc 1 717 30 is_stmt 0 view .LVU302
 1415 0000 4369     		ldr	r3, [r0, #20]
 1416 0002 61F38E33 		bfi	r3, r1, #14, #1
 1417 0006 4361     		str	r3, [r0, #20]
 718:HW_Lib/AT32F435/drivers/src/at32f435_437_usart.c **** }
 1418              		.loc 1 718 1 view .LVU303
 1419 0008 7047     		bx	lr
 1420              		.cfi_endproc
 1421              	.LFE166:
 1423              		.text
 1424              	.Letext0:
 1425              		.file 2 "c:\\program files (x86)\\gnu arm embedded toolchain\\10 2021.10\\arm-none-eabi\\include\\
 1426              		.file 3 "c:\\program files (x86)\\gnu arm embedded toolchain\\10 2021.10\\arm-none-eabi\\include\\
 1427              		.file 4 "HW_Lib/AT32F435/device_support/at32f435_437.h"
 1428              		.file 5 "HW_Lib/AT32F435/drivers/inc/at32f435_437_crm.h"
 1429              		.file 6 "HW_Lib/AT32F435/drivers/inc/at32f435_437_usart.h"
ARM GAS  C:\Users\8bit\AppData\Local\Temp\cc74oY7E.s 			page 39

