ARM GAS  C:\Users\8bit\AppData\Local\Temp\ccVZ2ikr.s 			page 1


   1              		.cpu cortex-m4
   2              		.arch armv7e-m
   3              		.fpu fpv4-sp-d16
   4              		.eabi_attribute 27, 1
   5              		.eabi_attribute 28, 1
   6              		.eabi_attribute 20, 1
   7              		.eabi_attribute 21, 1
   8              		.eabi_attribute 23, 3
   9              		.eabi_attribute 24, 1
  10              		.eabi_attribute 25, 1
  11              		.eabi_attribute 26, 1
  12              		.eabi_attribute 30, 1
  13              		.eabi_attribute 34, 1
  14              		.eabi_attribute 18, 4
  15              		.file	"Att_Casecade_PID.c"
  16              		.text
  17              	.Ltext0:
  18              		.cfi_sections	.debug_frame
  19              		.section	.text.Att_Casecade_PID,"ax",%progbits
  20              		.align	1
  21              		.syntax unified
  22              		.thumb
  23              		.thumb_func
  25              	Att_Casecade_PID:
  26              	.LVL0:
  27              	.LFB10:
  28              		.file 1 "Algorithm/Control_Dep/Attitude/Att_Casecade_PID.c"
   1:Algorithm/Control_Dep/Attitude/Att_Casecade_PID.c **** #include "Att_Casecade_PID.h"
   2:Algorithm/Control_Dep/Attitude/Att_Casecade_PID.c **** 
   3:Algorithm/Control_Dep/Attitude/Att_Casecade_PID.c **** #define PARA_AMPLIFICATE(x)     (uint16_t)(x * 1000) 
   4:Algorithm/Control_Dep/Attitude/Att_Casecade_PID.c **** #define ATTITUDE_CONTROL_RATE   1
   5:Algorithm/Control_Dep/Attitude/Att_Casecade_PID.c **** #define ATTITUDE_INTEGRAL_RANGE 20
   6:Algorithm/Control_Dep/Attitude/Att_Casecade_PID.c **** 
   7:Algorithm/Control_Dep/Attitude/Att_Casecade_PID.c **** #define ATT_DTRIM_RC_F_CUT 20
   8:Algorithm/Control_Dep/Attitude/Att_Casecade_PID.c **** #define ANG_DTRIM_RC_F_CUT 100
   9:Algorithm/Control_Dep/Attitude/Att_Casecade_PID.c **** 
  10:Algorithm/Control_Dep/Attitude/Att_Casecade_PID.c **** /* Casecade PID in process paramter */
  11:Algorithm/Control_Dep/Attitude/Att_Casecade_PID.c **** typedef struct
  12:Algorithm/Control_Dep/Attitude/Att_Casecade_PID.c **** {
  13:Algorithm/Control_Dep/Attitude/Att_Casecade_PID.c ****     bool init;
  14:Algorithm/Control_Dep/Attitude/Att_Casecade_PID.c **** 
  15:Algorithm/Control_Dep/Attitude/Att_Casecade_PID.c ****     /* in progress parameter */
  16:Algorithm/Control_Dep/Attitude/Att_Casecade_PID.c ****     PIDObj_TypeDef pitch;
  17:Algorithm/Control_Dep/Attitude/Att_Casecade_PID.c ****     PIDObj_TypeDef roll;
  18:Algorithm/Control_Dep/Attitude/Att_Casecade_PID.c **** 
  19:Algorithm/Control_Dep/Attitude/Att_Casecade_PID.c ****     PIDObj_TypeDef g_x;
  20:Algorithm/Control_Dep/Attitude/Att_Casecade_PID.c ****     PIDObj_TypeDef g_y;
  21:Algorithm/Control_Dep/Attitude/Att_Casecade_PID.c ****     PIDObj_TypeDef g_z;
  22:Algorithm/Control_Dep/Attitude/Att_Casecade_PID.c **** } ProcessParam_TypeDef;
  23:Algorithm/Control_Dep/Attitude/Att_Casecade_PID.c **** 
  24:Algorithm/Control_Dep/Attitude/Att_Casecade_PID.c **** /* internal vriable */
  25:Algorithm/Control_Dep/Attitude/Att_Casecade_PID.c **** static ProcessParam_TypeDef ProcessPara = {
  26:Algorithm/Control_Dep/Attitude/Att_Casecade_PID.c ****     .init = false,
  27:Algorithm/Control_Dep/Attitude/Att_Casecade_PID.c **** };
  28:Algorithm/Control_Dep/Attitude/Att_Casecade_PID.c **** 
  29:Algorithm/Control_Dep/Attitude/Att_Casecade_PID.c **** /* external function */
  30:Algorithm/Control_Dep/Attitude/Att_Casecade_PID.c **** static bool Att_CheckParam_Validation(AttCaseCadePID_Param_TypeDef para);
ARM GAS  C:\Users\8bit\AppData\Local\Temp\ccVZ2ikr.s 			page 2


  31:Algorithm/Control_Dep/Attitude/Att_Casecade_PID.c **** static bool Att_Casecade_PID(uint32_t sys_ms, bool angular_only, AttControl_In_TypeDef exp, AttCont
  32:Algorithm/Control_Dep/Attitude/Att_Casecade_PID.c **** static AttCaseCadePID_Param_TypeDef Att_Casecade_PID_DefaultPara(void);
  33:Algorithm/Control_Dep/Attitude/Att_Casecade_PID.c **** 
  34:Algorithm/Control_Dep/Attitude/Att_Casecade_PID.c **** AttCasecadePID_TypeDef Att_CasecadePID_Controller = {
  35:Algorithm/Control_Dep/Attitude/Att_Casecade_PID.c ****     .init = Att_CheckParam_Validation,
  36:Algorithm/Control_Dep/Attitude/Att_Casecade_PID.c ****     .process = Att_Casecade_PID,
  37:Algorithm/Control_Dep/Attitude/Att_Casecade_PID.c ****     .default_param = Att_Casecade_PID_DefaultPara,
  38:Algorithm/Control_Dep/Attitude/Att_Casecade_PID.c **** };
  39:Algorithm/Control_Dep/Attitude/Att_Casecade_PID.c **** 
  40:Algorithm/Control_Dep/Attitude/Att_Casecade_PID.c **** static AttCaseCadePID_Param_TypeDef Att_Casecade_PID_DefaultPara(void)
  41:Algorithm/Control_Dep/Attitude/Att_Casecade_PID.c **** {
  42:Algorithm/Control_Dep/Attitude/Att_Casecade_PID.c ****     AttCaseCadePID_Param_TypeDef para;
  43:Algorithm/Control_Dep/Attitude/Att_Casecade_PID.c **** 
  44:Algorithm/Control_Dep/Attitude/Att_Casecade_PID.c ****     memset(&para, 0, sizeof(AttCaseCadePID_Param_TypeDef));
  45:Algorithm/Control_Dep/Attitude/Att_Casecade_PID.c **** 
  46:Algorithm/Control_Dep/Attitude/Att_Casecade_PID.c ****     para.Pitch_Para.base_diff   = 25;
  47:Algorithm/Control_Dep/Attitude/Att_Casecade_PID.c ****     para.Pitch_Para.gP          = 1.2;
  48:Algorithm/Control_Dep/Attitude/Att_Casecade_PID.c ****     para.Pitch_Para.gI          = 0.2;
  49:Algorithm/Control_Dep/Attitude/Att_Casecade_PID.c ****     para.Pitch_Para.gI_Max      = 10;
  50:Algorithm/Control_Dep/Attitude/Att_Casecade_PID.c ****     para.Pitch_Para.gI_Min      = -10;
  51:Algorithm/Control_Dep/Attitude/Att_Casecade_PID.c ****     para.Pitch_Para.gD          = 0.5;
  52:Algorithm/Control_Dep/Attitude/Att_Casecade_PID.c **** 
  53:Algorithm/Control_Dep/Attitude/Att_Casecade_PID.c ****     para.Roll_Para.base_diff    = 25;
  54:Algorithm/Control_Dep/Attitude/Att_Casecade_PID.c ****     para.Roll_Para.gP           = 1.2;
  55:Algorithm/Control_Dep/Attitude/Att_Casecade_PID.c ****     para.Roll_Para.gI           = 0.2;
  56:Algorithm/Control_Dep/Attitude/Att_Casecade_PID.c ****     para.Roll_Para.gI_Max       = 10;
  57:Algorithm/Control_Dep/Attitude/Att_Casecade_PID.c ****     para.Roll_Para.gI_Min       = -10;
  58:Algorithm/Control_Dep/Attitude/Att_Casecade_PID.c ****     para.Roll_Para.gD           = 0.5;
  59:Algorithm/Control_Dep/Attitude/Att_Casecade_PID.c **** 
  60:Algorithm/Control_Dep/Attitude/Att_Casecade_PID.c ****     para.GyroX_Para.base_diff   = 200;
  61:Algorithm/Control_Dep/Attitude/Att_Casecade_PID.c ****     para.GyroX_Para.gP          = 3;
  62:Algorithm/Control_Dep/Attitude/Att_Casecade_PID.c ****     para.GyroX_Para.gI          = 1.6;
  63:Algorithm/Control_Dep/Attitude/Att_Casecade_PID.c ****     para.GyroX_Para.gI_Max      = 50;
  64:Algorithm/Control_Dep/Attitude/Att_Casecade_PID.c ****     para.GyroX_Para.gI_Min      = -50;
  65:Algorithm/Control_Dep/Attitude/Att_Casecade_PID.c ****     para.GyroX_Para.gD          = 1.0;
  66:Algorithm/Control_Dep/Attitude/Att_Casecade_PID.c **** 
  67:Algorithm/Control_Dep/Attitude/Att_Casecade_PID.c ****     para.GyroY_Para.base_diff   = 200;
  68:Algorithm/Control_Dep/Attitude/Att_Casecade_PID.c ****     para.GyroY_Para.gP          = 3;
  69:Algorithm/Control_Dep/Attitude/Att_Casecade_PID.c ****     para.GyroY_Para.gI          = 1.6;
  70:Algorithm/Control_Dep/Attitude/Att_Casecade_PID.c ****     para.GyroY_Para.gI_Max      = 50;
  71:Algorithm/Control_Dep/Attitude/Att_Casecade_PID.c ****     para.GyroY_Para.gI_Min      = -50;
  72:Algorithm/Control_Dep/Attitude/Att_Casecade_PID.c ****     para.GyroY_Para.gD          = 1.0;
  73:Algorithm/Control_Dep/Attitude/Att_Casecade_PID.c **** 
  74:Algorithm/Control_Dep/Attitude/Att_Casecade_PID.c ****     para.GyroZ_Para.base_diff   = 50;
  75:Algorithm/Control_Dep/Attitude/Att_Casecade_PID.c ****     para.GyroZ_Para.gP          = 0.8;
  76:Algorithm/Control_Dep/Attitude/Att_Casecade_PID.c ****     para.GyroZ_Para.gI          = 0.6;
  77:Algorithm/Control_Dep/Attitude/Att_Casecade_PID.c ****     para.GyroZ_Para.gI_Max      = 50;
  78:Algorithm/Control_Dep/Attitude/Att_Casecade_PID.c ****     para.GyroZ_Para.gI_Min      = -50;
  79:Algorithm/Control_Dep/Attitude/Att_Casecade_PID.c ****     para.GyroZ_Para.gD          = 0.2;
  80:Algorithm/Control_Dep/Attitude/Att_Casecade_PID.c **** 
  81:Algorithm/Control_Dep/Attitude/Att_Casecade_PID.c ****     return para;
  82:Algorithm/Control_Dep/Attitude/Att_Casecade_PID.c **** }
  83:Algorithm/Control_Dep/Attitude/Att_Casecade_PID.c **** 
  84:Algorithm/Control_Dep/Attitude/Att_Casecade_PID.c **** static bool Att_CheckParam_Validation(AttCaseCadePID_Param_TypeDef para)
  85:Algorithm/Control_Dep/Attitude/Att_Casecade_PID.c **** {
  86:Algorithm/Control_Dep/Attitude/Att_Casecade_PID.c ****     RC_Filter_Param_TypeDef RCParam_Tmp;
  87:Algorithm/Control_Dep/Attitude/Att_Casecade_PID.c **** 
ARM GAS  C:\Users\8bit\AppData\Local\Temp\ccVZ2ikr.s 			page 3


  88:Algorithm/Control_Dep/Attitude/Att_Casecade_PID.c ****     if (!ProcessPara.init)
  89:Algorithm/Control_Dep/Attitude/Att_Casecade_PID.c ****     {
  90:Algorithm/Control_Dep/Attitude/Att_Casecade_PID.c ****         memset(&ProcessPara, 0, sizeof(ProcessParam_TypeDef));
  91:Algorithm/Control_Dep/Attitude/Att_Casecade_PID.c ****         ProcessPara.init = true;
  92:Algorithm/Control_Dep/Attitude/Att_Casecade_PID.c ****     }
  93:Algorithm/Control_Dep/Attitude/Att_Casecade_PID.c **** 
  94:Algorithm/Control_Dep/Attitude/Att_Casecade_PID.c ****     /* attitude pid pitch parameter set */
  95:Algorithm/Control_Dep/Attitude/Att_Casecade_PID.c ****     /* invalid Pitch P gain input */
  96:Algorithm/Control_Dep/Attitude/Att_Casecade_PID.c ****     if (PARA_AMPLIFICATE(para.Pitch_Para.gP) == 0)
  97:Algorithm/Control_Dep/Attitude/Att_Casecade_PID.c ****     {
  98:Algorithm/Control_Dep/Attitude/Att_Casecade_PID.c ****         /* use default parameter */
  99:Algorithm/Control_Dep/Attitude/Att_Casecade_PID.c ****         return false;
 100:Algorithm/Control_Dep/Attitude/Att_Casecade_PID.c ****     }
 101:Algorithm/Control_Dep/Attitude/Att_Casecade_PID.c **** 
 102:Algorithm/Control_Dep/Attitude/Att_Casecade_PID.c ****     ProcessPara.pitch.gP = para.Pitch_Para.gP;
 103:Algorithm/Control_Dep/Attitude/Att_Casecade_PID.c ****     ProcessPara.pitch.gI = para.Pitch_Para.gI;
 104:Algorithm/Control_Dep/Attitude/Att_Casecade_PID.c ****     ProcessPara.pitch.gD = para.Pitch_Para.gD;
 105:Algorithm/Control_Dep/Attitude/Att_Casecade_PID.c ****     ProcessPara.pitch.gI_Max = ATTITUDE_INTEGRAL_RANGE;
 106:Algorithm/Control_Dep/Attitude/Att_Casecade_PID.c ****     ProcessPara.pitch.gI_Min = -ATTITUDE_INTEGRAL_RANGE;
 107:Algorithm/Control_Dep/Attitude/Att_Casecade_PID.c ****     ProcessPara.pitch.diff_max = para.Pitch_Para.base_diff;
 108:Algorithm/Control_Dep/Attitude/Att_Casecade_PID.c ****     ProcessPara.pitch.diff_min = -para.Pitch_Para.base_diff;
 109:Algorithm/Control_Dep/Attitude/Att_Casecade_PID.c **** 
 110:Algorithm/Control_Dep/Attitude/Att_Casecade_PID.c ****     /* attitude pid roll parameter set */
 111:Algorithm/Control_Dep/Attitude/Att_Casecade_PID.c ****     /* invalid Roll P gain input */
 112:Algorithm/Control_Dep/Attitude/Att_Casecade_PID.c ****     if (PARA_AMPLIFICATE(para.Roll_Para.gP) == 0)
 113:Algorithm/Control_Dep/Attitude/Att_Casecade_PID.c ****     {
 114:Algorithm/Control_Dep/Attitude/Att_Casecade_PID.c ****         /* use default parameter */
 115:Algorithm/Control_Dep/Attitude/Att_Casecade_PID.c ****         return false;
 116:Algorithm/Control_Dep/Attitude/Att_Casecade_PID.c ****     }
 117:Algorithm/Control_Dep/Attitude/Att_Casecade_PID.c **** 
 118:Algorithm/Control_Dep/Attitude/Att_Casecade_PID.c ****     ProcessPara.roll.gP = para.Roll_Para.gP;
 119:Algorithm/Control_Dep/Attitude/Att_Casecade_PID.c ****     ProcessPara.roll.gI = para.Roll_Para.gI;
 120:Algorithm/Control_Dep/Attitude/Att_Casecade_PID.c ****     ProcessPara.roll.gD = para.Roll_Para.gD;
 121:Algorithm/Control_Dep/Attitude/Att_Casecade_PID.c ****     ProcessPara.roll.gI_Max = ATTITUDE_INTEGRAL_RANGE;
 122:Algorithm/Control_Dep/Attitude/Att_Casecade_PID.c ****     ProcessPara.roll.gI_Min = -ATTITUDE_INTEGRAL_RANGE;
 123:Algorithm/Control_Dep/Attitude/Att_Casecade_PID.c ****     ProcessPara.roll.diff_max = para.Roll_Para.base_diff;
 124:Algorithm/Control_Dep/Attitude/Att_Casecade_PID.c ****     ProcessPara.roll.diff_min = -para.Roll_Para.base_diff;
 125:Algorithm/Control_Dep/Attitude/Att_Casecade_PID.c **** 
 126:Algorithm/Control_Dep/Attitude/Att_Casecade_PID.c ****     /* angular axis X parameter set */
 127:Algorithm/Control_Dep/Attitude/Att_Casecade_PID.c ****     if (PARA_AMPLIFICATE(para.GyroX_Para.gP) == 0)
 128:Algorithm/Control_Dep/Attitude/Att_Casecade_PID.c ****     {
 129:Algorithm/Control_Dep/Attitude/Att_Casecade_PID.c ****         /* use default parameter */
 130:Algorithm/Control_Dep/Attitude/Att_Casecade_PID.c ****         return false;
 131:Algorithm/Control_Dep/Attitude/Att_Casecade_PID.c ****     }
 132:Algorithm/Control_Dep/Attitude/Att_Casecade_PID.c **** 
 133:Algorithm/Control_Dep/Attitude/Att_Casecade_PID.c ****     ProcessPara.g_x.gP = para.GyroX_Para.gP;
 134:Algorithm/Control_Dep/Attitude/Att_Casecade_PID.c ****     ProcessPara.g_x.gI = para.GyroX_Para.gI;
 135:Algorithm/Control_Dep/Attitude/Att_Casecade_PID.c ****     ProcessPara.g_x.gD = para.GyroX_Para.gD;
 136:Algorithm/Control_Dep/Attitude/Att_Casecade_PID.c ****     ProcessPara.g_x.diff_max = para.GyroX_Para.base_diff;
 137:Algorithm/Control_Dep/Attitude/Att_Casecade_PID.c ****     ProcessPara.g_x.diff_min = -para.GyroX_Para.base_diff;
 138:Algorithm/Control_Dep/Attitude/Att_Casecade_PID.c ****     
 139:Algorithm/Control_Dep/Attitude/Att_Casecade_PID.c ****     /* angular axis Y parameter set */
 140:Algorithm/Control_Dep/Attitude/Att_Casecade_PID.c ****     if (PARA_AMPLIFICATE(para.GyroY_Para.gP) == 0)
 141:Algorithm/Control_Dep/Attitude/Att_Casecade_PID.c ****     {
 142:Algorithm/Control_Dep/Attitude/Att_Casecade_PID.c ****         /* use default parameter */
 143:Algorithm/Control_Dep/Attitude/Att_Casecade_PID.c ****         return false;
 144:Algorithm/Control_Dep/Attitude/Att_Casecade_PID.c ****     }
ARM GAS  C:\Users\8bit\AppData\Local\Temp\ccVZ2ikr.s 			page 4


 145:Algorithm/Control_Dep/Attitude/Att_Casecade_PID.c **** 
 146:Algorithm/Control_Dep/Attitude/Att_Casecade_PID.c ****     ProcessPara.g_y.gP = para.GyroY_Para.gP;
 147:Algorithm/Control_Dep/Attitude/Att_Casecade_PID.c ****     ProcessPara.g_y.gI = para.GyroY_Para.gI;
 148:Algorithm/Control_Dep/Attitude/Att_Casecade_PID.c ****     ProcessPara.g_y.gD = para.GyroY_Para.gD;
 149:Algorithm/Control_Dep/Attitude/Att_Casecade_PID.c ****     ProcessPara.g_y.diff_max = para.GyroY_Para.base_diff;
 150:Algorithm/Control_Dep/Attitude/Att_Casecade_PID.c ****     ProcessPara.g_y.diff_min = -para.GyroY_Para.base_diff;
 151:Algorithm/Control_Dep/Attitude/Att_Casecade_PID.c ****                    
 152:Algorithm/Control_Dep/Attitude/Att_Casecade_PID.c ****     /* angular axis Z parameter set */
 153:Algorithm/Control_Dep/Attitude/Att_Casecade_PID.c ****     if (PARA_AMPLIFICATE(para.GyroZ_Para.gP) == 0)
 154:Algorithm/Control_Dep/Attitude/Att_Casecade_PID.c ****     {
 155:Algorithm/Control_Dep/Attitude/Att_Casecade_PID.c ****         /* use default parameter */
 156:Algorithm/Control_Dep/Attitude/Att_Casecade_PID.c ****         return false;
 157:Algorithm/Control_Dep/Attitude/Att_Casecade_PID.c ****     }
 158:Algorithm/Control_Dep/Attitude/Att_Casecade_PID.c **** 
 159:Algorithm/Control_Dep/Attitude/Att_Casecade_PID.c ****     ProcessPara.g_z.gP = para.GyroZ_Para.gP;
 160:Algorithm/Control_Dep/Attitude/Att_Casecade_PID.c ****     ProcessPara.g_z.gI = para.GyroZ_Para.gI;
 161:Algorithm/Control_Dep/Attitude/Att_Casecade_PID.c ****     ProcessPara.g_z.gD = para.GyroZ_Para.gD;
 162:Algorithm/Control_Dep/Attitude/Att_Casecade_PID.c ****     ProcessPara.g_z.diff_max = para.GyroZ_Para.base_diff;
 163:Algorithm/Control_Dep/Attitude/Att_Casecade_PID.c ****     ProcessPara.g_z.diff_min = -para.GyroZ_Para.base_diff;
 164:Algorithm/Control_Dep/Attitude/Att_Casecade_PID.c **** 
 165:Algorithm/Control_Dep/Attitude/Att_Casecade_PID.c ****     RCParam_Tmp.f_cut = ATT_DTRIM_RC_F_CUT;
 166:Algorithm/Control_Dep/Attitude/Att_Casecade_PID.c ****     PID_Init(&ProcessPara.pitch, RCParam_Tmp);
 167:Algorithm/Control_Dep/Attitude/Att_Casecade_PID.c ****     PID_Init(&ProcessPara.roll,  RCParam_Tmp);
 168:Algorithm/Control_Dep/Attitude/Att_Casecade_PID.c **** 
 169:Algorithm/Control_Dep/Attitude/Att_Casecade_PID.c ****     RCParam_Tmp.f_cut = ANG_DTRIM_RC_F_CUT;
 170:Algorithm/Control_Dep/Attitude/Att_Casecade_PID.c ****     PID_Init(&ProcessPara.g_x, RCParam_Tmp);
 171:Algorithm/Control_Dep/Attitude/Att_Casecade_PID.c ****     PID_Init(&ProcessPara.g_y, RCParam_Tmp);
 172:Algorithm/Control_Dep/Attitude/Att_Casecade_PID.c ****     PID_Init(&ProcessPara.g_z, RCParam_Tmp);
 173:Algorithm/Control_Dep/Attitude/Att_Casecade_PID.c **** 
 174:Algorithm/Control_Dep/Attitude/Att_Casecade_PID.c ****     return true;
 175:Algorithm/Control_Dep/Attitude/Att_Casecade_PID.c **** }
 176:Algorithm/Control_Dep/Attitude/Att_Casecade_PID.c **** 
 177:Algorithm/Control_Dep/Attitude/Att_Casecade_PID.c **** static bool Att_Casecade_PID(uint32_t sys_ms, bool angular_only, AttControl_In_TypeDef exp, AttCont
 178:Algorithm/Control_Dep/Attitude/Att_Casecade_PID.c **** {
  29              		.loc 1 178 1 view -0
  30              		.cfi_startproc
  31              		@ args = 44, pretend = 8, frame = 0
  32              		@ frame_needed = 0, uses_anonymous_args = 0
  33              		.loc 1 178 1 is_stmt 0 view .LVU1
  34 0000 82B0     		sub	sp, sp, #8
  35              	.LCFI0:
  36              		.cfi_def_cfa_offset 8
  37 0002 70B5     		push	{r4, r5, r6, lr}
  38              	.LCFI1:
  39              		.cfi_def_cfa_offset 24
  40              		.cfi_offset 4, -24
  41              		.cfi_offset 5, -20
  42              		.cfi_offset 6, -16
  43              		.cfi_offset 14, -12
  44 0004 0446     		mov	r4, r0
  45 0006 04A8     		add	r0, sp, #16
  46 0008 80E80C00 		stm	r0, {r2, r3}
  47 000c 0E9E     		ldr	r6, [sp, #56]
 179:Algorithm/Control_Dep/Attitude/Att_Casecade_PID.c ****     if (ctl_out == NULL)
  48              		.loc 1 179 5 is_stmt 1 view .LVU2
  49              		.loc 1 179 8 is_stmt 0 view .LVU3
  50 000e 002E     		cmp	r6, #0
ARM GAS  C:\Users\8bit\AppData\Local\Temp\ccVZ2ikr.s 			page 5


  51 0010 48D0     		beq	.L5
 180:Algorithm/Control_Dep/Attitude/Att_Casecade_PID.c ****         return false;
 181:Algorithm/Control_Dep/Attitude/Att_Casecade_PID.c **** 
 182:Algorithm/Control_Dep/Attitude/Att_Casecade_PID.c ****     if (!angular_only)
  52              		.loc 1 182 5 is_stmt 1 view .LVU4
  53              		.loc 1 182 8 is_stmt 0 view .LVU5
  54 0012 81B3     		cbz	r1, .L7
 183:Algorithm/Control_Dep/Attitude/Att_Casecade_PID.c ****     {
 184:Algorithm/Control_Dep/Attitude/Att_Casecade_PID.c ****         /* attitude loop */
 185:Algorithm/Control_Dep/Attitude/Att_Casecade_PID.c ****         /* Pitch PID update */
 186:Algorithm/Control_Dep/Attitude/Att_Casecade_PID.c ****         PID_Update(&ProcessPara.pitch, sys_ms, mea.pitch, exp.pitch);
 187:Algorithm/Control_Dep/Attitude/Att_Casecade_PID.c ****         exp.gyro_y = ProcessPara.pitch.fout;
 188:Algorithm/Control_Dep/Attitude/Att_Casecade_PID.c **** 
 189:Algorithm/Control_Dep/Attitude/Att_Casecade_PID.c ****         /* Roll PID update */
 190:Algorithm/Control_Dep/Attitude/Att_Casecade_PID.c ****         PID_Update(&ProcessPara.roll, sys_ms, mea.roll, exp.roll);
 191:Algorithm/Control_Dep/Attitude/Att_Casecade_PID.c ****         exp.gyro_x = ProcessPara.roll.fout;
 192:Algorithm/Control_Dep/Attitude/Att_Casecade_PID.c ****     }
 193:Algorithm/Control_Dep/Attitude/Att_Casecade_PID.c ****     else
 194:Algorithm/Control_Dep/Attitude/Att_Casecade_PID.c ****     {
 195:Algorithm/Control_Dep/Attitude/Att_Casecade_PID.c ****         ProcessPara.pitch.lst_diff = 0.0f;
  55              		.loc 1 195 9 is_stmt 1 view .LVU6
  56              		.loc 1 195 36 is_stmt 0 view .LVU7
  57 0014 244B     		ldr	r3, .L8
  58 0016 0022     		movs	r2, #0
  59 0018 9A63     		str	r2, [r3, #56]	@ float
 196:Algorithm/Control_Dep/Attitude/Att_Casecade_PID.c ****         ProcessPara.pitch.Integral = 0.0f;
  60              		.loc 1 196 9 is_stmt 1 view .LVU8
  61              		.loc 1 196 36 is_stmt 0 view .LVU9
  62 001a DA62     		str	r2, [r3, #44]	@ float
 197:Algorithm/Control_Dep/Attitude/Att_Casecade_PID.c **** 
 198:Algorithm/Control_Dep/Attitude/Att_Casecade_PID.c ****         ProcessPara.roll.lst_diff = 0.0f;
  63              		.loc 1 198 9 is_stmt 1 view .LVU10
  64              		.loc 1 198 35 is_stmt 0 view .LVU11
  65 001c C3F88420 		str	r2, [r3, #132]	@ float
 199:Algorithm/Control_Dep/Attitude/Att_Casecade_PID.c ****         ProcessPara.roll.Integral = 0.0f;
  66              		.loc 1 199 9 is_stmt 1 view .LVU12
  67              		.loc 1 199 35 is_stmt 0 view .LVU13
  68 0020 9A67     		str	r2, [r3, #120]	@ float
  69              	.LVL1:
  70              	.L4:
 200:Algorithm/Control_Dep/Attitude/Att_Casecade_PID.c ****     }
 201:Algorithm/Control_Dep/Attitude/Att_Casecade_PID.c **** 
 202:Algorithm/Control_Dep/Attitude/Att_Casecade_PID.c ****     /* angular speed loop */
 203:Algorithm/Control_Dep/Attitude/Att_Casecade_PID.c ****     /* Gyro X PID update */
 204:Algorithm/Control_Dep/Attitude/Att_Casecade_PID.c ****     PID_Update(&ProcessPara.g_x, sys_ms, mea.gyro_x, exp.gyro_x);
  71              		.loc 1 204 5 is_stmt 1 view .LVU14
  72 0022 214D     		ldr	r5, .L8
  73 0024 DDED060A 		vldr.32	s1, [sp, #24]
  74 0028 9DED0B0A 		vldr.32	s0, [sp, #44]
  75 002c 2146     		mov	r1, r4
  76 002e 05F19C00 		add	r0, r5, #156
  77 0032 FFF7FEFF 		bl	PID_Update
  78              	.LVL2:
 205:Algorithm/Control_Dep/Attitude/Att_Casecade_PID.c **** 
 206:Algorithm/Control_Dep/Attitude/Att_Casecade_PID.c ****     /* Gyro Y PID update */
 207:Algorithm/Control_Dep/Attitude/Att_Casecade_PID.c ****     PID_Update(&ProcessPara.g_y, sys_ms, mea.gyro_y, exp.gyro_y);
  79              		.loc 1 207 5 view .LVU15
ARM GAS  C:\Users\8bit\AppData\Local\Temp\ccVZ2ikr.s 			page 6


  80 0036 DDED070A 		vldr.32	s1, [sp, #28]
  81 003a 9DED0C0A 		vldr.32	s0, [sp, #48]
  82 003e 2146     		mov	r1, r4
  83 0040 05F1E800 		add	r0, r5, #232
  84 0044 FFF7FEFF 		bl	PID_Update
  85              	.LVL3:
 208:Algorithm/Control_Dep/Attitude/Att_Casecade_PID.c **** 
 209:Algorithm/Control_Dep/Attitude/Att_Casecade_PID.c ****     /* Gyro Z PID update */
 210:Algorithm/Control_Dep/Attitude/Att_Casecade_PID.c ****     PID_Update(&ProcessPara.g_z, sys_ms, mea.gyro_z, exp.gyro_z);
  86              		.loc 1 210 5 view .LVU16
  87 0048 DDED080A 		vldr.32	s1, [sp, #32]
  88 004c 9DED0D0A 		vldr.32	s0, [sp, #52]
  89 0050 2146     		mov	r1, r4
  90 0052 05F59A70 		add	r0, r5, #308
  91 0056 FFF7FEFF 		bl	PID_Update
  92              	.LVL4:
 211:Algorithm/Control_Dep/Attitude/Att_Casecade_PID.c **** 
 212:Algorithm/Control_Dep/Attitude/Att_Casecade_PID.c ****     ctl_out->gyro_x = ProcessPara.g_x.fout;
  93              		.loc 1 212 5 view .LVU17
  94              		.loc 1 212 38 is_stmt 0 view .LVU18
  95 005a D5F8AC30 		ldr	r3, [r5, #172]	@ float
  96              		.loc 1 212 21 view .LVU19
  97 005e 3360     		str	r3, [r6]	@ float
 213:Algorithm/Control_Dep/Attitude/Att_Casecade_PID.c ****     ctl_out->gyro_y = ProcessPara.g_y.fout;
  98              		.loc 1 213 5 is_stmt 1 view .LVU20
  99              		.loc 1 213 38 is_stmt 0 view .LVU21
 100 0060 D5F8F830 		ldr	r3, [r5, #248]	@ float
 101              		.loc 1 213 21 view .LVU22
 102 0064 7360     		str	r3, [r6, #4]	@ float
 214:Algorithm/Control_Dep/Attitude/Att_Casecade_PID.c ****     ctl_out->gyro_z = ProcessPara.g_z.fout;
 103              		.loc 1 214 5 is_stmt 1 view .LVU23
 104              		.loc 1 214 38 is_stmt 0 view .LVU24
 105 0066 D5F84431 		ldr	r3, [r5, #324]	@ float
 106              		.loc 1 214 21 view .LVU25
 107 006a B360     		str	r3, [r6, #8]	@ float
 215:Algorithm/Control_Dep/Attitude/Att_Casecade_PID.c **** 
 216:Algorithm/Control_Dep/Attitude/Att_Casecade_PID.c ****     return true;
 108              		.loc 1 216 5 is_stmt 1 view .LVU26
 109              		.loc 1 216 12 is_stmt 0 view .LVU27
 110 006c 0120     		movs	r0, #1
 111              	.L2:
 217:Algorithm/Control_Dep/Attitude/Att_Casecade_PID.c **** }
 112              		.loc 1 217 1 view .LVU28
 113 006e BDE87040 		pop	{r4, r5, r6, lr}
 114              	.LCFI2:
 115              		.cfi_remember_state
 116              		.cfi_restore 14
 117              		.cfi_restore 6
 118              		.cfi_restore 5
 119              		.cfi_restore 4
 120              		.cfi_def_cfa_offset 8
 121              	.LVL5:
 122              		.loc 1 217 1 view .LVU29
 123 0072 02B0     		add	sp, sp, #8
 124              	.LCFI3:
 125              		.cfi_def_cfa_offset 0
 126 0074 7047     		bx	lr
ARM GAS  C:\Users\8bit\AppData\Local\Temp\ccVZ2ikr.s 			page 7


 127              	.LVL6:
 128              	.L7:
 129              	.LCFI4:
 130              		.cfi_restore_state
 186:Algorithm/Control_Dep/Attitude/Att_Casecade_PID.c ****         exp.gyro_y = ProcessPara.pitch.fout;
 131              		.loc 1 186 9 is_stmt 1 view .LVU30
 132 0076 0C4D     		ldr	r5, .L8
 133 0078 DDED040A 		vldr.32	s1, [sp, #16]
 134 007c 9DED090A 		vldr.32	s0, [sp, #36]
 135 0080 2146     		mov	r1, r4
 136              	.LVL7:
 186:Algorithm/Control_Dep/Attitude/Att_Casecade_PID.c ****         exp.gyro_y = ProcessPara.pitch.fout;
 137              		.loc 1 186 9 is_stmt 0 view .LVU31
 138 0082 281D     		adds	r0, r5, #4
 139              	.LVL8:
 186:Algorithm/Control_Dep/Attitude/Att_Casecade_PID.c ****         exp.gyro_y = ProcessPara.pitch.fout;
 140              		.loc 1 186 9 view .LVU32
 141 0084 FFF7FEFF 		bl	PID_Update
 142              	.LVL9:
 187:Algorithm/Control_Dep/Attitude/Att_Casecade_PID.c **** 
 143              		.loc 1 187 9 is_stmt 1 view .LVU33
 187:Algorithm/Control_Dep/Attitude/Att_Casecade_PID.c **** 
 144              		.loc 1 187 39 is_stmt 0 view .LVU34
 145 0088 6B69     		ldr	r3, [r5, #20]	@ float
 187:Algorithm/Control_Dep/Attitude/Att_Casecade_PID.c **** 
 146              		.loc 1 187 20 view .LVU35
 147 008a 0793     		str	r3, [sp, #28]	@ float
 190:Algorithm/Control_Dep/Attitude/Att_Casecade_PID.c ****         exp.gyro_x = ProcessPara.roll.fout;
 148              		.loc 1 190 9 is_stmt 1 view .LVU36
 149 008c DDED050A 		vldr.32	s1, [sp, #20]
 150 0090 9DED0A0A 		vldr.32	s0, [sp, #40]
 151 0094 2146     		mov	r1, r4
 152 0096 05F15000 		add	r0, r5, #80
 153 009a FFF7FEFF 		bl	PID_Update
 154              	.LVL10:
 191:Algorithm/Control_Dep/Attitude/Att_Casecade_PID.c ****     }
 155              		.loc 1 191 9 view .LVU37
 191:Algorithm/Control_Dep/Attitude/Att_Casecade_PID.c ****     }
 156              		.loc 1 191 38 is_stmt 0 view .LVU38
 157 009e 2B6E     		ldr	r3, [r5, #96]	@ float
 191:Algorithm/Control_Dep/Attitude/Att_Casecade_PID.c ****     }
 158              		.loc 1 191 20 view .LVU39
 159 00a0 0693     		str	r3, [sp, #24]	@ float
 160 00a2 BEE7     		b	.L4
 161              	.LVL11:
 162              	.L5:
 180:Algorithm/Control_Dep/Attitude/Att_Casecade_PID.c **** 
 163              		.loc 1 180 16 view .LVU40
 164 00a4 0020     		movs	r0, #0
 165              	.LVL12:
 180:Algorithm/Control_Dep/Attitude/Att_Casecade_PID.c **** 
 166              		.loc 1 180 16 view .LVU41
 167 00a6 E2E7     		b	.L2
 168              	.L9:
 169              		.align	2
 170              	.L8:
 171 00a8 00000000 		.word	.LANCHOR0
ARM GAS  C:\Users\8bit\AppData\Local\Temp\ccVZ2ikr.s 			page 8


 172              		.cfi_endproc
 173              	.LFE10:
 175              		.section	.text.Att_Casecade_PID_DefaultPara,"ax",%progbits
 176              		.align	1
 177              		.syntax unified
 178              		.thumb
 179              		.thumb_func
 181              	Att_Casecade_PID_DefaultPara:
 182              	.LVL13:
 183              	.LFB8:
  41:Algorithm/Control_Dep/Attitude/Att_Casecade_PID.c ****     AttCaseCadePID_Param_TypeDef para;
 184              		.loc 1 41 1 is_stmt 1 view -0
 185              		.cfi_startproc
 186              		@ args = 0, pretend = 0, frame = 120
 187              		@ frame_needed = 0, uses_anonymous_args = 0
  41:Algorithm/Control_Dep/Attitude/Att_Casecade_PID.c ****     AttCaseCadePID_Param_TypeDef para;
 188              		.loc 1 41 1 is_stmt 0 view .LVU43
 189 0000 30B5     		push	{r4, r5, lr}
 190              	.LCFI5:
 191              		.cfi_def_cfa_offset 12
 192              		.cfi_offset 4, -12
 193              		.cfi_offset 5, -8
 194              		.cfi_offset 14, -4
 195 0002 9FB0     		sub	sp, sp, #124
 196              	.LCFI6:
 197              		.cfi_def_cfa_offset 136
 198 0004 0446     		mov	r4, r0
  42:Algorithm/Control_Dep/Attitude/Att_Casecade_PID.c **** 
 199              		.loc 1 42 5 is_stmt 1 view .LVU44
  44:Algorithm/Control_Dep/Attitude/Att_Casecade_PID.c **** 
 200              		.loc 1 44 5 view .LVU45
 201 0006 7825     		movs	r5, #120
 202 0008 2A46     		mov	r2, r5
 203 000a 0021     		movs	r1, #0
 204 000c 6846     		mov	r0, sp
 205              	.LVL14:
  44:Algorithm/Control_Dep/Attitude/Att_Casecade_PID.c **** 
 206              		.loc 1 44 5 is_stmt 0 view .LVU46
 207 000e FFF7FEFF 		bl	memset
 208              	.LVL15:
  46:Algorithm/Control_Dep/Attitude/Att_Casecade_PID.c ****     para.Pitch_Para.gP          = 1.2;
 209              		.loc 1 46 5 is_stmt 1 view .LVU47
  46:Algorithm/Control_Dep/Attitude/Att_Casecade_PID.c ****     para.Pitch_Para.gP          = 1.2;
 210              		.loc 1 46 33 is_stmt 0 view .LVU48
 211 0012 DFF8A8E0 		ldr	lr, .L12+32
 212 0016 CDF800E0 		str	lr, [sp]	@ float
  47:Algorithm/Control_Dep/Attitude/Att_Casecade_PID.c ****     para.Pitch_Para.gI          = 0.2;
 213              		.loc 1 47 5 is_stmt 1 view .LVU49
  47:Algorithm/Control_Dep/Attitude/Att_Casecade_PID.c ****     para.Pitch_Para.gI          = 0.2;
 214              		.loc 1 47 33 is_stmt 0 view .LVU50
 215 001a DFF8A4C0 		ldr	ip, .L12+36
 216 001e CDF804C0 		str	ip, [sp, #4]	@ float
  48:Algorithm/Control_Dep/Attitude/Att_Casecade_PID.c ****     para.Pitch_Para.gI_Max      = 10;
 217              		.loc 1 48 5 is_stmt 1 view .LVU51
  48:Algorithm/Control_Dep/Attitude/Att_Casecade_PID.c ****     para.Pitch_Para.gI_Max      = 10;
 218              		.loc 1 48 33 is_stmt 0 view .LVU52
 219 0022 1E4A     		ldr	r2, .L12
ARM GAS  C:\Users\8bit\AppData\Local\Temp\ccVZ2ikr.s 			page 9


 220 0024 0292     		str	r2, [sp, #8]	@ float
  49:Algorithm/Control_Dep/Attitude/Att_Casecade_PID.c ****     para.Pitch_Para.gI_Min      = -10;
 221              		.loc 1 49 5 is_stmt 1 view .LVU53
  49:Algorithm/Control_Dep/Attitude/Att_Casecade_PID.c ****     para.Pitch_Para.gI_Min      = -10;
 222              		.loc 1 49 33 is_stmt 0 view .LVU54
 223 0026 1E48     		ldr	r0, .L12+4
 224 0028 0390     		str	r0, [sp, #12]	@ float
  50:Algorithm/Control_Dep/Attitude/Att_Casecade_PID.c ****     para.Pitch_Para.gD          = 0.5;
 225              		.loc 1 50 5 is_stmt 1 view .LVU55
  50:Algorithm/Control_Dep/Attitude/Att_Casecade_PID.c ****     para.Pitch_Para.gD          = 0.5;
 226              		.loc 1 50 33 is_stmt 0 view .LVU56
 227 002a 1E49     		ldr	r1, .L12+8
 228 002c 0491     		str	r1, [sp, #16]	@ float
  51:Algorithm/Control_Dep/Attitude/Att_Casecade_PID.c **** 
 229              		.loc 1 51 5 is_stmt 1 view .LVU57
  51:Algorithm/Control_Dep/Attitude/Att_Casecade_PID.c **** 
 230              		.loc 1 51 33 is_stmt 0 view .LVU58
 231 002e 4FF07C53 		mov	r3, #1056964608
 232 0032 0593     		str	r3, [sp, #20]	@ float
  53:Algorithm/Control_Dep/Attitude/Att_Casecade_PID.c ****     para.Roll_Para.gP           = 1.2;
 233              		.loc 1 53 5 is_stmt 1 view .LVU59
  53:Algorithm/Control_Dep/Attitude/Att_Casecade_PID.c ****     para.Roll_Para.gP           = 1.2;
 234              		.loc 1 53 33 is_stmt 0 view .LVU60
 235 0034 CDF818E0 		str	lr, [sp, #24]	@ float
  54:Algorithm/Control_Dep/Attitude/Att_Casecade_PID.c ****     para.Roll_Para.gI           = 0.2;
 236              		.loc 1 54 5 is_stmt 1 view .LVU61
  54:Algorithm/Control_Dep/Attitude/Att_Casecade_PID.c ****     para.Roll_Para.gI           = 0.2;
 237              		.loc 1 54 33 is_stmt 0 view .LVU62
 238 0038 CDF81CC0 		str	ip, [sp, #28]	@ float
  55:Algorithm/Control_Dep/Attitude/Att_Casecade_PID.c ****     para.Roll_Para.gI_Max       = 10;
 239              		.loc 1 55 5 is_stmt 1 view .LVU63
  55:Algorithm/Control_Dep/Attitude/Att_Casecade_PID.c ****     para.Roll_Para.gI_Max       = 10;
 240              		.loc 1 55 33 is_stmt 0 view .LVU64
 241 003c 0892     		str	r2, [sp, #32]	@ float
  56:Algorithm/Control_Dep/Attitude/Att_Casecade_PID.c ****     para.Roll_Para.gI_Min       = -10;
 242              		.loc 1 56 5 is_stmt 1 view .LVU65
  56:Algorithm/Control_Dep/Attitude/Att_Casecade_PID.c ****     para.Roll_Para.gI_Min       = -10;
 243              		.loc 1 56 33 is_stmt 0 view .LVU66
 244 003e 0990     		str	r0, [sp, #36]	@ float
  57:Algorithm/Control_Dep/Attitude/Att_Casecade_PID.c ****     para.Roll_Para.gD           = 0.5;
 245              		.loc 1 57 5 is_stmt 1 view .LVU67
  57:Algorithm/Control_Dep/Attitude/Att_Casecade_PID.c ****     para.Roll_Para.gD           = 0.5;
 246              		.loc 1 57 33 is_stmt 0 view .LVU68
 247 0040 0A91     		str	r1, [sp, #40]	@ float
  58:Algorithm/Control_Dep/Attitude/Att_Casecade_PID.c **** 
 248              		.loc 1 58 5 is_stmt 1 view .LVU69
  58:Algorithm/Control_Dep/Attitude/Att_Casecade_PID.c **** 
 249              		.loc 1 58 33 is_stmt 0 view .LVU70
 250 0042 0B93     		str	r3, [sp, #44]	@ float
  60:Algorithm/Control_Dep/Attitude/Att_Casecade_PID.c ****     para.GyroX_Para.gP          = 3;
 251              		.loc 1 60 5 is_stmt 1 view .LVU71
  60:Algorithm/Control_Dep/Attitude/Att_Casecade_PID.c ****     para.GyroX_Para.gP          = 3;
 252              		.loc 1 60 33 is_stmt 0 view .LVU72
 253 0044 DFED187A 		vldr.32	s15, .L12+12
 254 0048 CDED0C7A 		vstr.32	s15, [sp, #48]
  61:Algorithm/Control_Dep/Attitude/Att_Casecade_PID.c ****     para.GyroX_Para.gI          = 1.6;
 255              		.loc 1 61 5 is_stmt 1 view .LVU73
ARM GAS  C:\Users\8bit\AppData\Local\Temp\ccVZ2ikr.s 			page 10


  61:Algorithm/Control_Dep/Attitude/Att_Casecade_PID.c ****     para.GyroX_Para.gI          = 1.6;
 256              		.loc 1 61 33 is_stmt 0 view .LVU74
 257 004c DFF874E0 		ldr	lr, .L12+40
 258 0050 CDF834E0 		str	lr, [sp, #52]	@ float
  62:Algorithm/Control_Dep/Attitude/Att_Casecade_PID.c ****     para.GyroX_Para.gI_Max      = 50;
 259              		.loc 1 62 5 is_stmt 1 view .LVU75
  62:Algorithm/Control_Dep/Attitude/Att_Casecade_PID.c ****     para.GyroX_Para.gI_Max      = 50;
 260              		.loc 1 62 33 is_stmt 0 view .LVU76
 261 0054 DFF870C0 		ldr	ip, .L12+44
 262 0058 CDF838C0 		str	ip, [sp, #56]	@ float
  63:Algorithm/Control_Dep/Attitude/Att_Casecade_PID.c ****     para.GyroX_Para.gI_Min      = -50;
 263              		.loc 1 63 5 is_stmt 1 view .LVU77
  63:Algorithm/Control_Dep/Attitude/Att_Casecade_PID.c ****     para.GyroX_Para.gI_Min      = -50;
 264              		.loc 1 63 33 is_stmt 0 view .LVU78
 265 005c 134B     		ldr	r3, .L12+16
 266 005e 0F93     		str	r3, [sp, #60]	@ float
  64:Algorithm/Control_Dep/Attitude/Att_Casecade_PID.c ****     para.GyroX_Para.gD          = 1.0;
 267              		.loc 1 64 5 is_stmt 1 view .LVU79
  64:Algorithm/Control_Dep/Attitude/Att_Casecade_PID.c ****     para.GyroX_Para.gD          = 1.0;
 268              		.loc 1 64 33 is_stmt 0 view .LVU80
 269 0060 1349     		ldr	r1, .L12+20
 270 0062 1091     		str	r1, [sp, #64]	@ float
  65:Algorithm/Control_Dep/Attitude/Att_Casecade_PID.c **** 
 271              		.loc 1 65 5 is_stmt 1 view .LVU81
  65:Algorithm/Control_Dep/Attitude/Att_Casecade_PID.c **** 
 272              		.loc 1 65 33 is_stmt 0 view .LVU82
 273 0064 4FF07E50 		mov	r0, #1065353216
 274 0068 1190     		str	r0, [sp, #68]	@ float
  67:Algorithm/Control_Dep/Attitude/Att_Casecade_PID.c ****     para.GyroY_Para.gP          = 3;
 275              		.loc 1 67 5 is_stmt 1 view .LVU83
  67:Algorithm/Control_Dep/Attitude/Att_Casecade_PID.c ****     para.GyroY_Para.gP          = 3;
 276              		.loc 1 67 33 is_stmt 0 view .LVU84
 277 006a CDED127A 		vstr.32	s15, [sp, #72]
  68:Algorithm/Control_Dep/Attitude/Att_Casecade_PID.c ****     para.GyroY_Para.gI          = 1.6;
 278              		.loc 1 68 5 is_stmt 1 view .LVU85
  68:Algorithm/Control_Dep/Attitude/Att_Casecade_PID.c ****     para.GyroY_Para.gI          = 1.6;
 279              		.loc 1 68 33 is_stmt 0 view .LVU86
 280 006e CDF84CE0 		str	lr, [sp, #76]	@ float
  69:Algorithm/Control_Dep/Attitude/Att_Casecade_PID.c ****     para.GyroY_Para.gI_Max      = 50;
 281              		.loc 1 69 5 is_stmt 1 view .LVU87
  69:Algorithm/Control_Dep/Attitude/Att_Casecade_PID.c ****     para.GyroY_Para.gI_Max      = 50;
 282              		.loc 1 69 33 is_stmt 0 view .LVU88
 283 0072 CDF850C0 		str	ip, [sp, #80]	@ float
  70:Algorithm/Control_Dep/Attitude/Att_Casecade_PID.c ****     para.GyroY_Para.gI_Min      = -50;
 284              		.loc 1 70 5 is_stmt 1 view .LVU89
  70:Algorithm/Control_Dep/Attitude/Att_Casecade_PID.c ****     para.GyroY_Para.gI_Min      = -50;
 285              		.loc 1 70 33 is_stmt 0 view .LVU90
 286 0076 1593     		str	r3, [sp, #84]	@ float
  71:Algorithm/Control_Dep/Attitude/Att_Casecade_PID.c ****     para.GyroY_Para.gD          = 1.0;
 287              		.loc 1 71 5 is_stmt 1 view .LVU91
  71:Algorithm/Control_Dep/Attitude/Att_Casecade_PID.c ****     para.GyroY_Para.gD          = 1.0;
 288              		.loc 1 71 33 is_stmt 0 view .LVU92
 289 0078 1691     		str	r1, [sp, #88]	@ float
  72:Algorithm/Control_Dep/Attitude/Att_Casecade_PID.c **** 
 290              		.loc 1 72 5 is_stmt 1 view .LVU93
  72:Algorithm/Control_Dep/Attitude/Att_Casecade_PID.c **** 
 291              		.loc 1 72 33 is_stmt 0 view .LVU94
ARM GAS  C:\Users\8bit\AppData\Local\Temp\ccVZ2ikr.s 			page 11


 292 007a 1790     		str	r0, [sp, #92]	@ float
  74:Algorithm/Control_Dep/Attitude/Att_Casecade_PID.c ****     para.GyroZ_Para.gP          = 0.8;
 293              		.loc 1 74 5 is_stmt 1 view .LVU95
  74:Algorithm/Control_Dep/Attitude/Att_Casecade_PID.c ****     para.GyroZ_Para.gP          = 0.8;
 294              		.loc 1 74 33 is_stmt 0 view .LVU96
 295 007c 1893     		str	r3, [sp, #96]	@ float
  75:Algorithm/Control_Dep/Attitude/Att_Casecade_PID.c ****     para.GyroZ_Para.gI          = 0.6;
 296              		.loc 1 75 5 is_stmt 1 view .LVU97
  75:Algorithm/Control_Dep/Attitude/Att_Casecade_PID.c ****     para.GyroZ_Para.gI          = 0.6;
 297              		.loc 1 75 33 is_stmt 0 view .LVU98
 298 007e 0D48     		ldr	r0, .L12+24
 299 0080 1990     		str	r0, [sp, #100]	@ float
  76:Algorithm/Control_Dep/Attitude/Att_Casecade_PID.c ****     para.GyroZ_Para.gI_Max      = 50;
 300              		.loc 1 76 5 is_stmt 1 view .LVU99
  76:Algorithm/Control_Dep/Attitude/Att_Casecade_PID.c ****     para.GyroZ_Para.gI_Max      = 50;
 301              		.loc 1 76 33 is_stmt 0 view .LVU100
 302 0082 0D48     		ldr	r0, .L12+28
 303 0084 1A90     		str	r0, [sp, #104]	@ float
  77:Algorithm/Control_Dep/Attitude/Att_Casecade_PID.c ****     para.GyroZ_Para.gI_Min      = -50;
 304              		.loc 1 77 5 is_stmt 1 view .LVU101
  77:Algorithm/Control_Dep/Attitude/Att_Casecade_PID.c ****     para.GyroZ_Para.gI_Min      = -50;
 305              		.loc 1 77 33 is_stmt 0 view .LVU102
 306 0086 1B93     		str	r3, [sp, #108]	@ float
  78:Algorithm/Control_Dep/Attitude/Att_Casecade_PID.c ****     para.GyroZ_Para.gD          = 0.2;
 307              		.loc 1 78 5 is_stmt 1 view .LVU103
  78:Algorithm/Control_Dep/Attitude/Att_Casecade_PID.c ****     para.GyroZ_Para.gD          = 0.2;
 308              		.loc 1 78 33 is_stmt 0 view .LVU104
 309 0088 1C91     		str	r1, [sp, #112]	@ float
  79:Algorithm/Control_Dep/Attitude/Att_Casecade_PID.c **** 
 310              		.loc 1 79 5 is_stmt 1 view .LVU105
  79:Algorithm/Control_Dep/Attitude/Att_Casecade_PID.c **** 
 311              		.loc 1 79 33 is_stmt 0 view .LVU106
 312 008a 1D92     		str	r2, [sp, #116]	@ float
  81:Algorithm/Control_Dep/Attitude/Att_Casecade_PID.c **** }
 313              		.loc 1 81 5 is_stmt 1 view .LVU107
  81:Algorithm/Control_Dep/Attitude/Att_Casecade_PID.c **** }
 314              		.loc 1 81 12 is_stmt 0 view .LVU108
 315 008c 2A46     		mov	r2, r5
 316 008e 6946     		mov	r1, sp
 317 0090 2046     		mov	r0, r4
 318 0092 FFF7FEFF 		bl	memcpy
 319              	.LVL16:
  82:Algorithm/Control_Dep/Attitude/Att_Casecade_PID.c **** 
 320              		.loc 1 82 1 view .LVU109
 321 0096 2046     		mov	r0, r4
 322 0098 1FB0     		add	sp, sp, #124
 323              	.LCFI7:
 324              		.cfi_def_cfa_offset 12
 325              		@ sp needed
 326 009a 30BD     		pop	{r4, r5, pc}
 327              	.LVL17:
 328              	.L13:
  82:Algorithm/Control_Dep/Attitude/Att_Casecade_PID.c **** 
 329              		.loc 1 82 1 view .LVU110
 330              		.align	2
 331              	.L12:
 332 009c CDCC4C3E 		.word	1045220557
ARM GAS  C:\Users\8bit\AppData\Local\Temp\ccVZ2ikr.s 			page 12


 333 00a0 00002041 		.word	1092616192
 334 00a4 000020C1 		.word	-1054867456
 335 00a8 00004843 		.word	1128792064
 336 00ac 00004842 		.word	1112014848
 337 00b0 000048C2 		.word	-1035468800
 338 00b4 CDCC4C3F 		.word	1061997773
 339 00b8 9A99193F 		.word	1058642330
 340 00bc 0000C841 		.word	1103626240
 341 00c0 9A99993F 		.word	1067030938
 342 00c4 00004040 		.word	1077936128
 343 00c8 CDCCCC3F 		.word	1070386381
 344              		.cfi_endproc
 345              	.LFE8:
 347              		.section	.text.Att_CheckParam_Validation,"ax",%progbits
 348              		.align	1
 349              		.syntax unified
 350              		.thumb
 351              		.thumb_func
 353              	Att_CheckParam_Validation:
 354              	.LFB9:
  85:Algorithm/Control_Dep/Attitude/Att_Casecade_PID.c ****     RC_Filter_Param_TypeDef RCParam_Tmp;
 355              		.loc 1 85 1 is_stmt 1 view -0
 356              		.cfi_startproc
 357              		@ args = 120, pretend = 16, frame = 16
 358              		@ frame_needed = 0, uses_anonymous_args = 0
 359 0000 84B0     		sub	sp, sp, #16
 360              	.LCFI8:
 361              		.cfi_def_cfa_offset 16
 362 0002 30B5     		push	{r4, r5, lr}
 363              	.LCFI9:
 364              		.cfi_def_cfa_offset 28
 365              		.cfi_offset 4, -28
 366              		.cfi_offset 5, -24
 367              		.cfi_offset 14, -20
 368 0004 87B0     		sub	sp, sp, #28
 369              	.LCFI10:
 370              		.cfi_def_cfa_offset 56
 371 0006 0AAC     		add	r4, sp, #40
 372 0008 84E80F00 		stm	r4, {r0, r1, r2, r3}
  86:Algorithm/Control_Dep/Attitude/Att_Casecade_PID.c **** 
 373              		.loc 1 86 5 view .LVU112
  88:Algorithm/Control_Dep/Attitude/Att_Casecade_PID.c ****     {
 374              		.loc 1 88 5 view .LVU113
  88:Algorithm/Control_Dep/Attitude/Att_Casecade_PID.c ****     {
 375              		.loc 1 88 21 is_stmt 0 view .LVU114
 376 000c 734B     		ldr	r3, .L25
 377 000e 1B78     		ldrb	r3, [r3]	@ zero_extendqisi2
  88:Algorithm/Control_Dep/Attitude/Att_Casecade_PID.c ****     {
 378              		.loc 1 88 8 view .LVU115
 379 0010 002B     		cmp	r3, #0
 380 0012 00F08E80 		beq	.L23
 381              	.L15:
  96:Algorithm/Control_Dep/Attitude/Att_Casecade_PID.c ****     {
 382              		.loc 1 96 5 is_stmt 1 view .LVU116
  96:Algorithm/Control_Dep/Attitude/Att_Casecade_PID.c ****     {
 383              		.loc 1 96 9 is_stmt 0 view .LVU117
 384 0016 9DED0B7A 		vldr.32	s14, [sp, #44]
ARM GAS  C:\Users\8bit\AppData\Local\Temp\ccVZ2ikr.s 			page 13


 385 001a DFED717A 		vldr.32	s15, .L25+4
 386 001e 67EE277A 		vmul.f32	s15, s14, s15
 387 0022 FCEEE77A 		vcvt.u32.f32	s15, s15
 388 0026 17EE903A 		vmov	r3, s15	@ int
 389 002a 9BB2     		uxth	r3, r3
  96:Algorithm/Control_Dep/Attitude/Att_Casecade_PID.c ****     {
 390              		.loc 1 96 8 view .LVU118
 391 002c 002B     		cmp	r3, #0
 392 002e 00F0C980 		beq	.L17
 102:Algorithm/Control_Dep/Attitude/Att_Casecade_PID.c ****     ProcessPara.pitch.gI = para.Pitch_Para.gI;
 393              		.loc 1 102 5 is_stmt 1 view .LVU119
 102:Algorithm/Control_Dep/Attitude/Att_Casecade_PID.c ****     ProcessPara.pitch.gI = para.Pitch_Para.gI;
 394              		.loc 1 102 26 is_stmt 0 view .LVU120
 395 0032 6A4B     		ldr	r3, .L25
 396 0034 83ED067A 		vstr.32	s14, [r3, #24]
 103:Algorithm/Control_Dep/Attitude/Att_Casecade_PID.c ****     ProcessPara.pitch.gD = para.Pitch_Para.gD;
 397              		.loc 1 103 5 is_stmt 1 view .LVU121
 103:Algorithm/Control_Dep/Attitude/Att_Casecade_PID.c ****     ProcessPara.pitch.gD = para.Pitch_Para.gD;
 398              		.loc 1 103 43 is_stmt 0 view .LVU122
 399 0038 0C9A     		ldr	r2, [sp, #48]	@ float
 103:Algorithm/Control_Dep/Attitude/Att_Casecade_PID.c ****     ProcessPara.pitch.gD = para.Pitch_Para.gD;
 400              		.loc 1 103 26 view .LVU123
 401 003a 1A62     		str	r2, [r3, #32]	@ float
 104:Algorithm/Control_Dep/Attitude/Att_Casecade_PID.c ****     ProcessPara.pitch.gI_Max = ATTITUDE_INTEGRAL_RANGE;
 402              		.loc 1 104 5 is_stmt 1 view .LVU124
 104:Algorithm/Control_Dep/Attitude/Att_Casecade_PID.c ****     ProcessPara.pitch.gI_Max = ATTITUDE_INTEGRAL_RANGE;
 403              		.loc 1 104 43 is_stmt 0 view .LVU125
 404 003c 0F9A     		ldr	r2, [sp, #60]	@ float
 104:Algorithm/Control_Dep/Attitude/Att_Casecade_PID.c ****     ProcessPara.pitch.gI_Max = ATTITUDE_INTEGRAL_RANGE;
 405              		.loc 1 104 26 view .LVU126
 406 003e 5A63     		str	r2, [r3, #52]	@ float
 105:Algorithm/Control_Dep/Attitude/Att_Casecade_PID.c ****     ProcessPara.pitch.gI_Min = -ATTITUDE_INTEGRAL_RANGE;
 407              		.loc 1 105 5 is_stmt 1 view .LVU127
 105:Algorithm/Control_Dep/Attitude/Att_Casecade_PID.c ****     ProcessPara.pitch.gI_Min = -ATTITUDE_INTEGRAL_RANGE;
 408              		.loc 1 105 30 is_stmt 0 view .LVU128
 409 0040 684A     		ldr	r2, .L25+8
 410 0042 9A62     		str	r2, [r3, #40]	@ float
 106:Algorithm/Control_Dep/Attitude/Att_Casecade_PID.c ****     ProcessPara.pitch.diff_max = para.Pitch_Para.base_diff;
 411              		.loc 1 106 5 is_stmt 1 view .LVU129
 106:Algorithm/Control_Dep/Attitude/Att_Casecade_PID.c ****     ProcessPara.pitch.diff_max = para.Pitch_Para.base_diff;
 412              		.loc 1 106 30 is_stmt 0 view .LVU130
 413 0044 684A     		ldr	r2, .L25+12
 414 0046 5A62     		str	r2, [r3, #36]	@ float
 107:Algorithm/Control_Dep/Attitude/Att_Casecade_PID.c ****     ProcessPara.pitch.diff_min = -para.Pitch_Para.base_diff;
 415              		.loc 1 107 5 is_stmt 1 view .LVU131
 107:Algorithm/Control_Dep/Attitude/Att_Casecade_PID.c ****     ProcessPara.pitch.diff_min = -para.Pitch_Para.base_diff;
 416              		.loc 1 107 49 is_stmt 0 view .LVU132
 417 0048 DDED0A7A 		vldr.32	s15, [sp, #40]
 107:Algorithm/Control_Dep/Attitude/Att_Casecade_PID.c ****     ProcessPara.pitch.diff_min = -para.Pitch_Para.base_diff;
 418              		.loc 1 107 32 view .LVU133
 419 004c C3ED037A 		vstr.32	s15, [r3, #12]
 108:Algorithm/Control_Dep/Attitude/Att_Casecade_PID.c **** 
 420              		.loc 1 108 5 is_stmt 1 view .LVU134
 108:Algorithm/Control_Dep/Attitude/Att_Casecade_PID.c **** 
 421              		.loc 1 108 34 is_stmt 0 view .LVU135
 422 0050 F1EE677A 		vneg.f32	s15, s15
 108:Algorithm/Control_Dep/Attitude/Att_Casecade_PID.c **** 
ARM GAS  C:\Users\8bit\AppData\Local\Temp\ccVZ2ikr.s 			page 14


 423              		.loc 1 108 32 view .LVU136
 424 0054 C3ED047A 		vstr.32	s15, [r3, #16]
 112:Algorithm/Control_Dep/Attitude/Att_Casecade_PID.c ****     {
 425              		.loc 1 112 5 is_stmt 1 view .LVU137
 112:Algorithm/Control_Dep/Attitude/Att_Casecade_PID.c ****     {
 426              		.loc 1 112 9 is_stmt 0 view .LVU138
 427 0058 9DED117A 		vldr.32	s14, [sp, #68]
 428 005c DFED607A 		vldr.32	s15, .L25+4
 429 0060 67EE277A 		vmul.f32	s15, s14, s15
 430 0064 FCEEE77A 		vcvt.u32.f32	s15, s15
 431 0068 17EE903A 		vmov	r3, s15	@ int
 432 006c 9BB2     		uxth	r3, r3
 112:Algorithm/Control_Dep/Attitude/Att_Casecade_PID.c ****     {
 433              		.loc 1 112 8 view .LVU139
 434 006e 002B     		cmp	r3, #0
 435 0070 00F0AE80 		beq	.L18
 118:Algorithm/Control_Dep/Attitude/Att_Casecade_PID.c ****     ProcessPara.roll.gI = para.Roll_Para.gI;
 436              		.loc 1 118 5 is_stmt 1 view .LVU140
 118:Algorithm/Control_Dep/Attitude/Att_Casecade_PID.c ****     ProcessPara.roll.gI = para.Roll_Para.gI;
 437              		.loc 1 118 25 is_stmt 0 view .LVU141
 438 0074 594B     		ldr	r3, .L25
 439 0076 83ED197A 		vstr.32	s14, [r3, #100]
 119:Algorithm/Control_Dep/Attitude/Att_Casecade_PID.c ****     ProcessPara.roll.gD = para.Roll_Para.gD;
 440              		.loc 1 119 5 is_stmt 1 view .LVU142
 119:Algorithm/Control_Dep/Attitude/Att_Casecade_PID.c ****     ProcessPara.roll.gD = para.Roll_Para.gD;
 441              		.loc 1 119 41 is_stmt 0 view .LVU143
 442 007a 129A     		ldr	r2, [sp, #72]	@ float
 119:Algorithm/Control_Dep/Attitude/Att_Casecade_PID.c ****     ProcessPara.roll.gD = para.Roll_Para.gD;
 443              		.loc 1 119 25 view .LVU144
 444 007c DA66     		str	r2, [r3, #108]	@ float
 120:Algorithm/Control_Dep/Attitude/Att_Casecade_PID.c ****     ProcessPara.roll.gI_Max = ATTITUDE_INTEGRAL_RANGE;
 445              		.loc 1 120 5 is_stmt 1 view .LVU145
 120:Algorithm/Control_Dep/Attitude/Att_Casecade_PID.c ****     ProcessPara.roll.gI_Max = ATTITUDE_INTEGRAL_RANGE;
 446              		.loc 1 120 41 is_stmt 0 view .LVU146
 447 007e 159A     		ldr	r2, [sp, #84]	@ float
 120:Algorithm/Control_Dep/Attitude/Att_Casecade_PID.c ****     ProcessPara.roll.gI_Max = ATTITUDE_INTEGRAL_RANGE;
 448              		.loc 1 120 25 view .LVU147
 449 0080 C3F88020 		str	r2, [r3, #128]	@ float
 121:Algorithm/Control_Dep/Attitude/Att_Casecade_PID.c ****     ProcessPara.roll.gI_Min = -ATTITUDE_INTEGRAL_RANGE;
 450              		.loc 1 121 5 is_stmt 1 view .LVU148
 121:Algorithm/Control_Dep/Attitude/Att_Casecade_PID.c ****     ProcessPara.roll.gI_Min = -ATTITUDE_INTEGRAL_RANGE;
 451              		.loc 1 121 29 is_stmt 0 view .LVU149
 452 0084 574A     		ldr	r2, .L25+8
 453 0086 5A67     		str	r2, [r3, #116]	@ float
 122:Algorithm/Control_Dep/Attitude/Att_Casecade_PID.c ****     ProcessPara.roll.diff_max = para.Roll_Para.base_diff;
 454              		.loc 1 122 5 is_stmt 1 view .LVU150
 122:Algorithm/Control_Dep/Attitude/Att_Casecade_PID.c ****     ProcessPara.roll.diff_max = para.Roll_Para.base_diff;
 455              		.loc 1 122 29 is_stmt 0 view .LVU151
 456 0088 574A     		ldr	r2, .L25+12
 457 008a 1A67     		str	r2, [r3, #112]	@ float
 123:Algorithm/Control_Dep/Attitude/Att_Casecade_PID.c ****     ProcessPara.roll.diff_min = -para.Roll_Para.base_diff;
 458              		.loc 1 123 5 is_stmt 1 view .LVU152
 123:Algorithm/Control_Dep/Attitude/Att_Casecade_PID.c ****     ProcessPara.roll.diff_min = -para.Roll_Para.base_diff;
 459              		.loc 1 123 47 is_stmt 0 view .LVU153
 460 008c DDED107A 		vldr.32	s15, [sp, #64]
 123:Algorithm/Control_Dep/Attitude/Att_Casecade_PID.c ****     ProcessPara.roll.diff_min = -para.Roll_Para.base_diff;
 461              		.loc 1 123 31 view .LVU154
ARM GAS  C:\Users\8bit\AppData\Local\Temp\ccVZ2ikr.s 			page 15


 462 0090 C3ED167A 		vstr.32	s15, [r3, #88]
 124:Algorithm/Control_Dep/Attitude/Att_Casecade_PID.c **** 
 463              		.loc 1 124 5 is_stmt 1 view .LVU155
 124:Algorithm/Control_Dep/Attitude/Att_Casecade_PID.c **** 
 464              		.loc 1 124 33 is_stmt 0 view .LVU156
 465 0094 F1EE677A 		vneg.f32	s15, s15
 124:Algorithm/Control_Dep/Attitude/Att_Casecade_PID.c **** 
 466              		.loc 1 124 31 view .LVU157
 467 0098 C3ED177A 		vstr.32	s15, [r3, #92]
 127:Algorithm/Control_Dep/Attitude/Att_Casecade_PID.c ****     {
 468              		.loc 1 127 5 is_stmt 1 view .LVU158
 127:Algorithm/Control_Dep/Attitude/Att_Casecade_PID.c ****     {
 469              		.loc 1 127 9 is_stmt 0 view .LVU159
 470 009c 9DED177A 		vldr.32	s14, [sp, #92]
 471 00a0 DFED4F7A 		vldr.32	s15, .L25+4
 472 00a4 67EE277A 		vmul.f32	s15, s14, s15
 473 00a8 FCEEE77A 		vcvt.u32.f32	s15, s15
 474 00ac 17EE903A 		vmov	r3, s15	@ int
 475 00b0 9BB2     		uxth	r3, r3
 127:Algorithm/Control_Dep/Attitude/Att_Casecade_PID.c ****     {
 476              		.loc 1 127 8 view .LVU160
 477 00b2 002B     		cmp	r3, #0
 478 00b4 00F08E80 		beq	.L19
 133:Algorithm/Control_Dep/Attitude/Att_Casecade_PID.c ****     ProcessPara.g_x.gI = para.GyroX_Para.gI;
 479              		.loc 1 133 5 is_stmt 1 view .LVU161
 133:Algorithm/Control_Dep/Attitude/Att_Casecade_PID.c ****     ProcessPara.g_x.gI = para.GyroX_Para.gI;
 480              		.loc 1 133 24 is_stmt 0 view .LVU162
 481 00b8 484B     		ldr	r3, .L25
 482 00ba 83ED2C7A 		vstr.32	s14, [r3, #176]
 134:Algorithm/Control_Dep/Attitude/Att_Casecade_PID.c ****     ProcessPara.g_x.gD = para.GyroX_Para.gD;
 483              		.loc 1 134 5 is_stmt 1 view .LVU163
 134:Algorithm/Control_Dep/Attitude/Att_Casecade_PID.c ****     ProcessPara.g_x.gD = para.GyroX_Para.gD;
 484              		.loc 1 134 41 is_stmt 0 view .LVU164
 485 00be 189A     		ldr	r2, [sp, #96]	@ float
 134:Algorithm/Control_Dep/Attitude/Att_Casecade_PID.c ****     ProcessPara.g_x.gD = para.GyroX_Para.gD;
 486              		.loc 1 134 24 view .LVU165
 487 00c0 C3F8B820 		str	r2, [r3, #184]	@ float
 135:Algorithm/Control_Dep/Attitude/Att_Casecade_PID.c ****     ProcessPara.g_x.diff_max = para.GyroX_Para.base_diff;
 488              		.loc 1 135 5 is_stmt 1 view .LVU166
 135:Algorithm/Control_Dep/Attitude/Att_Casecade_PID.c ****     ProcessPara.g_x.diff_max = para.GyroX_Para.base_diff;
 489              		.loc 1 135 41 is_stmt 0 view .LVU167
 490 00c4 1B9A     		ldr	r2, [sp, #108]	@ float
 135:Algorithm/Control_Dep/Attitude/Att_Casecade_PID.c ****     ProcessPara.g_x.diff_max = para.GyroX_Para.base_diff;
 491              		.loc 1 135 24 view .LVU168
 492 00c6 C3F8CC20 		str	r2, [r3, #204]	@ float
 136:Algorithm/Control_Dep/Attitude/Att_Casecade_PID.c ****     ProcessPara.g_x.diff_min = -para.GyroX_Para.base_diff;
 493              		.loc 1 136 5 is_stmt 1 view .LVU169
 136:Algorithm/Control_Dep/Attitude/Att_Casecade_PID.c ****     ProcessPara.g_x.diff_min = -para.GyroX_Para.base_diff;
 494              		.loc 1 136 47 is_stmt 0 view .LVU170
 495 00ca DDED167A 		vldr.32	s15, [sp, #88]
 136:Algorithm/Control_Dep/Attitude/Att_Casecade_PID.c ****     ProcessPara.g_x.diff_min = -para.GyroX_Para.base_diff;
 496              		.loc 1 136 30 view .LVU171
 497 00ce C3ED297A 		vstr.32	s15, [r3, #164]
 137:Algorithm/Control_Dep/Attitude/Att_Casecade_PID.c ****     
 498              		.loc 1 137 5 is_stmt 1 view .LVU172
 137:Algorithm/Control_Dep/Attitude/Att_Casecade_PID.c ****     
 499              		.loc 1 137 32 is_stmt 0 view .LVU173
ARM GAS  C:\Users\8bit\AppData\Local\Temp\ccVZ2ikr.s 			page 16


 500 00d2 F1EE677A 		vneg.f32	s15, s15
 137:Algorithm/Control_Dep/Attitude/Att_Casecade_PID.c ****     
 501              		.loc 1 137 30 view .LVU174
 502 00d6 C3ED2A7A 		vstr.32	s15, [r3, #168]
 140:Algorithm/Control_Dep/Attitude/Att_Casecade_PID.c ****     {
 503              		.loc 1 140 5 is_stmt 1 view .LVU175
 140:Algorithm/Control_Dep/Attitude/Att_Casecade_PID.c ****     {
 504              		.loc 1 140 9 is_stmt 0 view .LVU176
 505 00da 9DED1D7A 		vldr.32	s14, [sp, #116]
 506 00de DFED407A 		vldr.32	s15, .L25+4
 507 00e2 67EE277A 		vmul.f32	s15, s14, s15
 508 00e6 FCEEE77A 		vcvt.u32.f32	s15, s15
 509 00ea 17EE903A 		vmov	r3, s15	@ int
 510 00ee 9BB2     		uxth	r3, r3
 140:Algorithm/Control_Dep/Attitude/Att_Casecade_PID.c ****     {
 511              		.loc 1 140 8 view .LVU177
 512 00f0 002B     		cmp	r3, #0
 513 00f2 71D0     		beq	.L20
 146:Algorithm/Control_Dep/Attitude/Att_Casecade_PID.c ****     ProcessPara.g_y.gI = para.GyroY_Para.gI;
 514              		.loc 1 146 5 is_stmt 1 view .LVU178
 146:Algorithm/Control_Dep/Attitude/Att_Casecade_PID.c ****     ProcessPara.g_y.gI = para.GyroY_Para.gI;
 515              		.loc 1 146 24 is_stmt 0 view .LVU179
 516 00f4 394B     		ldr	r3, .L25
 517 00f6 83ED3F7A 		vstr.32	s14, [r3, #252]
 147:Algorithm/Control_Dep/Attitude/Att_Casecade_PID.c ****     ProcessPara.g_y.gD = para.GyroY_Para.gD;
 518              		.loc 1 147 5 is_stmt 1 view .LVU180
 147:Algorithm/Control_Dep/Attitude/Att_Casecade_PID.c ****     ProcessPara.g_y.gD = para.GyroY_Para.gD;
 519              		.loc 1 147 41 is_stmt 0 view .LVU181
 520 00fa 1E9A     		ldr	r2, [sp, #120]	@ float
 147:Algorithm/Control_Dep/Attitude/Att_Casecade_PID.c ****     ProcessPara.g_y.gD = para.GyroY_Para.gD;
 521              		.loc 1 147 24 view .LVU182
 522 00fc C3F80421 		str	r2, [r3, #260]	@ float
 148:Algorithm/Control_Dep/Attitude/Att_Casecade_PID.c ****     ProcessPara.g_y.diff_max = para.GyroY_Para.base_diff;
 523              		.loc 1 148 5 is_stmt 1 view .LVU183
 148:Algorithm/Control_Dep/Attitude/Att_Casecade_PID.c ****     ProcessPara.g_y.diff_max = para.GyroY_Para.base_diff;
 524              		.loc 1 148 41 is_stmt 0 view .LVU184
 525 0100 219A     		ldr	r2, [sp, #132]	@ float
 148:Algorithm/Control_Dep/Attitude/Att_Casecade_PID.c ****     ProcessPara.g_y.diff_max = para.GyroY_Para.base_diff;
 526              		.loc 1 148 24 view .LVU185
 527 0102 C3F81821 		str	r2, [r3, #280]	@ float
 149:Algorithm/Control_Dep/Attitude/Att_Casecade_PID.c ****     ProcessPara.g_y.diff_min = -para.GyroY_Para.base_diff;
 528              		.loc 1 149 5 is_stmt 1 view .LVU186
 149:Algorithm/Control_Dep/Attitude/Att_Casecade_PID.c ****     ProcessPara.g_y.diff_min = -para.GyroY_Para.base_diff;
 529              		.loc 1 149 47 is_stmt 0 view .LVU187
 530 0106 DDED1C7A 		vldr.32	s15, [sp, #112]
 149:Algorithm/Control_Dep/Attitude/Att_Casecade_PID.c ****     ProcessPara.g_y.diff_min = -para.GyroY_Para.base_diff;
 531              		.loc 1 149 30 view .LVU188
 532 010a C3ED3C7A 		vstr.32	s15, [r3, #240]
 150:Algorithm/Control_Dep/Attitude/Att_Casecade_PID.c ****                    
 533              		.loc 1 150 5 is_stmt 1 view .LVU189
 150:Algorithm/Control_Dep/Attitude/Att_Casecade_PID.c ****                    
 534              		.loc 1 150 32 is_stmt 0 view .LVU190
 535 010e F1EE677A 		vneg.f32	s15, s15
 150:Algorithm/Control_Dep/Attitude/Att_Casecade_PID.c ****                    
 536              		.loc 1 150 30 view .LVU191
 537 0112 C3ED3D7A 		vstr.32	s15, [r3, #244]
 153:Algorithm/Control_Dep/Attitude/Att_Casecade_PID.c ****     {
ARM GAS  C:\Users\8bit\AppData\Local\Temp\ccVZ2ikr.s 			page 17


 538              		.loc 1 153 5 is_stmt 1 view .LVU192
 153:Algorithm/Control_Dep/Attitude/Att_Casecade_PID.c ****     {
 539              		.loc 1 153 9 is_stmt 0 view .LVU193
 540 0116 9DED237A 		vldr.32	s14, [sp, #140]
 541 011a DFED317A 		vldr.32	s15, .L25+4
 542 011e 67EE277A 		vmul.f32	s15, s14, s15
 543 0122 FCEEE77A 		vcvt.u32.f32	s15, s15
 544 0126 17EE903A 		vmov	r3, s15	@ int
 545 012a 9BB2     		uxth	r3, r3
 153:Algorithm/Control_Dep/Attitude/Att_Casecade_PID.c ****     {
 546              		.loc 1 153 8 view .LVU194
 547 012c 5BB9     		cbnz	r3, .L24
 156:Algorithm/Control_Dep/Attitude/Att_Casecade_PID.c ****     }
 548              		.loc 1 156 16 view .LVU195
 549 012e 0020     		movs	r0, #0
 550 0130 49E0     		b	.L16
 551              	.L23:
  90:Algorithm/Control_Dep/Attitude/Att_Casecade_PID.c ****         ProcessPara.init = true;
 552              		.loc 1 90 9 is_stmt 1 view .LVU196
 553 0132 2A4C     		ldr	r4, .L25
 554 0134 4FF4C072 		mov	r2, #384
 555 0138 0021     		movs	r1, #0
 556 013a 2046     		mov	r0, r4
 557 013c FFF7FEFF 		bl	memset
 558              	.LVL18:
  91:Algorithm/Control_Dep/Attitude/Att_Casecade_PID.c ****     }
 559              		.loc 1 91 9 view .LVU197
  91:Algorithm/Control_Dep/Attitude/Att_Casecade_PID.c ****     }
 560              		.loc 1 91 26 is_stmt 0 view .LVU198
 561 0140 0123     		movs	r3, #1
 562 0142 2370     		strb	r3, [r4]
 563 0144 67E7     		b	.L15
 564              	.L24:
 159:Algorithm/Control_Dep/Attitude/Att_Casecade_PID.c ****     ProcessPara.g_z.gI = para.GyroZ_Para.gI;
 565              		.loc 1 159 5 is_stmt 1 view .LVU199
 159:Algorithm/Control_Dep/Attitude/Att_Casecade_PID.c ****     ProcessPara.g_z.gI = para.GyroZ_Para.gI;
 566              		.loc 1 159 24 is_stmt 0 view .LVU200
 567 0146 254D     		ldr	r5, .L25
 568 0148 85ED527A 		vstr.32	s14, [r5, #328]
 160:Algorithm/Control_Dep/Attitude/Att_Casecade_PID.c ****     ProcessPara.g_z.gD = para.GyroZ_Para.gD;
 569              		.loc 1 160 5 is_stmt 1 view .LVU201
 160:Algorithm/Control_Dep/Attitude/Att_Casecade_PID.c ****     ProcessPara.g_z.gD = para.GyroZ_Para.gD;
 570              		.loc 1 160 41 is_stmt 0 view .LVU202
 571 014c 249B     		ldr	r3, [sp, #144]	@ float
 160:Algorithm/Control_Dep/Attitude/Att_Casecade_PID.c ****     ProcessPara.g_z.gD = para.GyroZ_Para.gD;
 572              		.loc 1 160 24 view .LVU203
 573 014e C5F85031 		str	r3, [r5, #336]	@ float
 161:Algorithm/Control_Dep/Attitude/Att_Casecade_PID.c ****     ProcessPara.g_z.diff_max = para.GyroZ_Para.base_diff;
 574              		.loc 1 161 5 is_stmt 1 view .LVU204
 161:Algorithm/Control_Dep/Attitude/Att_Casecade_PID.c ****     ProcessPara.g_z.diff_max = para.GyroZ_Para.base_diff;
 575              		.loc 1 161 41 is_stmt 0 view .LVU205
 576 0152 279B     		ldr	r3, [sp, #156]	@ float
 161:Algorithm/Control_Dep/Attitude/Att_Casecade_PID.c ****     ProcessPara.g_z.diff_max = para.GyroZ_Para.base_diff;
 577              		.loc 1 161 24 view .LVU206
 578 0154 C5F86431 		str	r3, [r5, #356]	@ float
 162:Algorithm/Control_Dep/Attitude/Att_Casecade_PID.c ****     ProcessPara.g_z.diff_min = -para.GyroZ_Para.base_diff;
 579              		.loc 1 162 5 is_stmt 1 view .LVU207
ARM GAS  C:\Users\8bit\AppData\Local\Temp\ccVZ2ikr.s 			page 18


 162:Algorithm/Control_Dep/Attitude/Att_Casecade_PID.c ****     ProcessPara.g_z.diff_min = -para.GyroZ_Para.base_diff;
 580              		.loc 1 162 47 is_stmt 0 view .LVU208
 581 0158 DDED227A 		vldr.32	s15, [sp, #136]
 162:Algorithm/Control_Dep/Attitude/Att_Casecade_PID.c ****     ProcessPara.g_z.diff_min = -para.GyroZ_Para.base_diff;
 582              		.loc 1 162 30 view .LVU209
 583 015c C5ED4F7A 		vstr.32	s15, [r5, #316]
 163:Algorithm/Control_Dep/Attitude/Att_Casecade_PID.c **** 
 584              		.loc 1 163 5 is_stmt 1 view .LVU210
 163:Algorithm/Control_Dep/Attitude/Att_Casecade_PID.c **** 
 585              		.loc 1 163 32 is_stmt 0 view .LVU211
 586 0160 F1EE677A 		vneg.f32	s15, s15
 163:Algorithm/Control_Dep/Attitude/Att_Casecade_PID.c **** 
 587              		.loc 1 163 30 view .LVU212
 588 0164 C5ED507A 		vstr.32	s15, [r5, #320]
 165:Algorithm/Control_Dep/Attitude/Att_Casecade_PID.c ****     PID_Init(&ProcessPara.pitch, RCParam_Tmp);
 589              		.loc 1 165 5 is_stmt 1 view .LVU213
 165:Algorithm/Control_Dep/Attitude/Att_Casecade_PID.c ****     PID_Init(&ProcessPara.pitch, RCParam_Tmp);
 590              		.loc 1 165 23 is_stmt 0 view .LVU214
 591 0168 1E4B     		ldr	r3, .L25+8
 592 016a 0293     		str	r3, [sp, #8]	@ float
 166:Algorithm/Control_Dep/Attitude/Att_Casecade_PID.c ****     PID_Init(&ProcessPara.roll,  RCParam_Tmp);
 593              		.loc 1 166 5 is_stmt 1 view .LVU215
 594 016c 059B     		ldr	r3, [sp, #20]
 595 016e 0093     		str	r3, [sp]
 596 0170 02AC     		add	r4, sp, #8
 597 0172 94E80E00 		ldm	r4, {r1, r2, r3}
 598 0176 281D     		adds	r0, r5, #4
 599 0178 FFF7FEFF 		bl	PID_Init
 600              	.LVL19:
 167:Algorithm/Control_Dep/Attitude/Att_Casecade_PID.c **** 
 601              		.loc 1 167 5 view .LVU216
 602 017c 059B     		ldr	r3, [sp, #20]
 603 017e 0093     		str	r3, [sp]
 604 0180 94E80E00 		ldm	r4, {r1, r2, r3}
 605 0184 05F15000 		add	r0, r5, #80
 606 0188 FFF7FEFF 		bl	PID_Init
 607              	.LVL20:
 169:Algorithm/Control_Dep/Attitude/Att_Casecade_PID.c ****     PID_Init(&ProcessPara.g_x, RCParam_Tmp);
 608              		.loc 1 169 5 view .LVU217
 169:Algorithm/Control_Dep/Attitude/Att_Casecade_PID.c ****     PID_Init(&ProcessPara.g_x, RCParam_Tmp);
 609              		.loc 1 169 23 is_stmt 0 view .LVU218
 610 018c 174B     		ldr	r3, .L25+16
 611 018e 0293     		str	r3, [sp, #8]	@ float
 170:Algorithm/Control_Dep/Attitude/Att_Casecade_PID.c ****     PID_Init(&ProcessPara.g_y, RCParam_Tmp);
 612              		.loc 1 170 5 is_stmt 1 view .LVU219
 613 0190 059B     		ldr	r3, [sp, #20]
 614 0192 0093     		str	r3, [sp]
 615 0194 94E80E00 		ldm	r4, {r1, r2, r3}
 616 0198 05F19C00 		add	r0, r5, #156
 617 019c FFF7FEFF 		bl	PID_Init
 618              	.LVL21:
 171:Algorithm/Control_Dep/Attitude/Att_Casecade_PID.c ****     PID_Init(&ProcessPara.g_z, RCParam_Tmp);
 619              		.loc 1 171 5 view .LVU220
 620 01a0 059B     		ldr	r3, [sp, #20]
 621 01a2 0093     		str	r3, [sp]
 622 01a4 94E80E00 		ldm	r4, {r1, r2, r3}
 623 01a8 05F1E800 		add	r0, r5, #232
ARM GAS  C:\Users\8bit\AppData\Local\Temp\ccVZ2ikr.s 			page 19


 624 01ac FFF7FEFF 		bl	PID_Init
 625              	.LVL22:
 172:Algorithm/Control_Dep/Attitude/Att_Casecade_PID.c **** 
 626              		.loc 1 172 5 view .LVU221
 627 01b0 059B     		ldr	r3, [sp, #20]
 628 01b2 0093     		str	r3, [sp]
 629 01b4 94E80E00 		ldm	r4, {r1, r2, r3}
 630 01b8 05F59A70 		add	r0, r5, #308
 631 01bc FFF7FEFF 		bl	PID_Init
 632              	.LVL23:
 174:Algorithm/Control_Dep/Attitude/Att_Casecade_PID.c **** }
 633              		.loc 1 174 5 view .LVU222
 174:Algorithm/Control_Dep/Attitude/Att_Casecade_PID.c **** }
 634              		.loc 1 174 12 is_stmt 0 view .LVU223
 635 01c0 0120     		movs	r0, #1
 636 01c2 00E0     		b	.L16
 637              	.L17:
  99:Algorithm/Control_Dep/Attitude/Att_Casecade_PID.c ****     }
 638              		.loc 1 99 16 view .LVU224
 639 01c4 0020     		movs	r0, #0
 640              	.L16:
 175:Algorithm/Control_Dep/Attitude/Att_Casecade_PID.c **** 
 641              		.loc 1 175 1 view .LVU225
 642 01c6 07B0     		add	sp, sp, #28
 643              	.LCFI11:
 644              		.cfi_remember_state
 645              		.cfi_def_cfa_offset 28
 646              		@ sp needed
 647 01c8 BDE83040 		pop	{r4, r5, lr}
 648              	.LCFI12:
 649              		.cfi_restore 14
 650              		.cfi_restore 5
 651              		.cfi_restore 4
 652              		.cfi_def_cfa_offset 16
 653 01cc 04B0     		add	sp, sp, #16
 654              	.LCFI13:
 655              		.cfi_def_cfa_offset 0
 656 01ce 7047     		bx	lr
 657              	.L18:
 658              	.LCFI14:
 659              		.cfi_restore_state
 115:Algorithm/Control_Dep/Attitude/Att_Casecade_PID.c ****     }
 660              		.loc 1 115 16 view .LVU226
 661 01d0 0020     		movs	r0, #0
 662 01d2 F8E7     		b	.L16
 663              	.L19:
 130:Algorithm/Control_Dep/Attitude/Att_Casecade_PID.c ****     }
 664              		.loc 1 130 16 view .LVU227
 665 01d4 0020     		movs	r0, #0
 666 01d6 F6E7     		b	.L16
 667              	.L20:
 143:Algorithm/Control_Dep/Attitude/Att_Casecade_PID.c ****     }
 668              		.loc 1 143 16 view .LVU228
 669 01d8 0020     		movs	r0, #0
 670 01da F4E7     		b	.L16
 671              	.L26:
 672              		.align	2
ARM GAS  C:\Users\8bit\AppData\Local\Temp\ccVZ2ikr.s 			page 20


 673              	.L25:
 674 01dc 00000000 		.word	.LANCHOR0
 675 01e0 00007A44 		.word	1148846080
 676 01e4 0000A041 		.word	1101004800
 677 01e8 0000A0C1 		.word	-1046478848
 678 01ec 0000C842 		.word	1120403456
 679              		.cfi_endproc
 680              	.LFE9:
 682              		.global	Att_CasecadePID_Controller
 683              		.section	.bss.ProcessPara,"aw",%nobits
 684              		.align	2
 685              		.set	.LANCHOR0,. + 0
 688              	ProcessPara:
 689 0000 00000000 		.space	384
 689      00000000 
 689      00000000 
 689      00000000 
 689      00000000 
 690              		.section	.data.Att_CasecadePID_Controller,"aw"
 691              		.align	2
 694              	Att_CasecadePID_Controller:
 695 0000 00000000 		.word	Att_CheckParam_Validation
 696 0004 00000000 		.word	Att_Casecade_PID_DefaultPara
 697 0008 00000000 		.word	Att_Casecade_PID
 698              		.text
 699              	.Letext0:
 700              		.file 2 "c:\\program files (x86)\\gnu arm embedded toolchain\\10 2021.10\\arm-none-eabi\\include\\
 701              		.file 3 "c:\\program files (x86)\\gnu arm embedded toolchain\\10 2021.10\\arm-none-eabi\\include\\
 702              		.file 4 "Algorithm/Filter_Dep/filter.h"
 703              		.file 5 "Algorithm/Control_Dep/pid.h"
 704              		.file 6 "Algorithm/Control_Dep/Attitude/Att_Control_Base.h"
 705              		.file 7 "Algorithm/Control_Dep/Attitude/Att_Casecade_PID.h"
 706              		.file 8 "<built-in>"
ARM GAS  C:\Users\8bit\AppData\Local\Temp\ccVZ2ikr.s 			page 21

