ARM GAS  C:\Users\8bit\AppData\Local\Temp\ccJ11auh.s 			page 1


   1              		.cpu cortex-m4
   2              		.arch armv7e-m
   3              		.fpu fpv4-sp-d16
   4              		.eabi_attribute 27, 1
   5              		.eabi_attribute 28, 1
   6              		.eabi_attribute 20, 1
   7              		.eabi_attribute 21, 1
   8              		.eabi_attribute 23, 3
   9              		.eabi_attribute 24, 1
  10              		.eabi_attribute 25, 1
  11              		.eabi_attribute 26, 1
  12              		.eabi_attribute 30, 1
  13              		.eabi_attribute 34, 1
  14              		.eabi_attribute 18, 4
  15              		.file	"Att_Casecade_PID.c"
  16              		.text
  17              	.Ltext0:
  18              		.cfi_sections	.debug_frame
  19              		.section	.text.Att_Casecade_PID,"ax",%progbits
  20              		.align	1
  21              		.syntax unified
  22              		.thumb
  23              		.thumb_func
  25              	Att_Casecade_PID:
  26              	.LVL0:
  27              	.LFB9:
  28              		.file 1 "Algorithm/Control_Dep/Attitude/Att_Casecade_PID.c"
   1:Algorithm/Control_Dep/Attitude/Att_Casecade_PID.c **** #include "Att_Casecade_PID.h"
   2:Algorithm/Control_Dep/Attitude/Att_Casecade_PID.c **** 
   3:Algorithm/Control_Dep/Attitude/Att_Casecade_PID.c **** #define PARA_AMPLIFICATE(x)     (uint16_t)(x * 1000) 
   4:Algorithm/Control_Dep/Attitude/Att_Casecade_PID.c **** #define ATTITUDE_CONTROL_RATE   1
   5:Algorithm/Control_Dep/Attitude/Att_Casecade_PID.c **** #define ATTITUDE_INTEGRAL_RANGE 20
   6:Algorithm/Control_Dep/Attitude/Att_Casecade_PID.c **** 
   7:Algorithm/Control_Dep/Attitude/Att_Casecade_PID.c **** #define ATT_DTRIM_RC_F_CUT 20
   8:Algorithm/Control_Dep/Attitude/Att_Casecade_PID.c **** #define ANG_DTRIM_RC_F_CUT 100
   9:Algorithm/Control_Dep/Attitude/Att_Casecade_PID.c **** 
  10:Algorithm/Control_Dep/Attitude/Att_Casecade_PID.c **** /* Casecade PID in process paramter */
  11:Algorithm/Control_Dep/Attitude/Att_Casecade_PID.c **** typedef struct
  12:Algorithm/Control_Dep/Attitude/Att_Casecade_PID.c **** {
  13:Algorithm/Control_Dep/Attitude/Att_Casecade_PID.c ****     bool init;
  14:Algorithm/Control_Dep/Attitude/Att_Casecade_PID.c **** 
  15:Algorithm/Control_Dep/Attitude/Att_Casecade_PID.c ****     /* in progress parameter */
  16:Algorithm/Control_Dep/Attitude/Att_Casecade_PID.c ****     PIDObj_TypeDef pitch;
  17:Algorithm/Control_Dep/Attitude/Att_Casecade_PID.c ****     PIDObj_TypeDef roll;
  18:Algorithm/Control_Dep/Attitude/Att_Casecade_PID.c **** 
  19:Algorithm/Control_Dep/Attitude/Att_Casecade_PID.c ****     PIDObj_TypeDef g_x;
  20:Algorithm/Control_Dep/Attitude/Att_Casecade_PID.c ****     PIDObj_TypeDef g_y;
  21:Algorithm/Control_Dep/Attitude/Att_Casecade_PID.c ****     PIDObj_TypeDef g_z;
  22:Algorithm/Control_Dep/Attitude/Att_Casecade_PID.c **** } ProcessParam_TypeDef;
  23:Algorithm/Control_Dep/Attitude/Att_Casecade_PID.c **** 
  24:Algorithm/Control_Dep/Attitude/Att_Casecade_PID.c **** /* internal vriable */
  25:Algorithm/Control_Dep/Attitude/Att_Casecade_PID.c **** static ProcessParam_TypeDef ProcessPara = {
  26:Algorithm/Control_Dep/Attitude/Att_Casecade_PID.c ****     .init = false,
  27:Algorithm/Control_Dep/Attitude/Att_Casecade_PID.c **** };
  28:Algorithm/Control_Dep/Attitude/Att_Casecade_PID.c **** 
  29:Algorithm/Control_Dep/Attitude/Att_Casecade_PID.c **** /* external function */
  30:Algorithm/Control_Dep/Attitude/Att_Casecade_PID.c **** static bool Att_CheckParam_Validation(AttCaseCadePID_Param_TypeDef para);
ARM GAS  C:\Users\8bit\AppData\Local\Temp\ccJ11auh.s 			page 2


  31:Algorithm/Control_Dep/Attitude/Att_Casecade_PID.c **** static bool Att_Casecade_PID(uint32_t sys_ms, bool angular_only, AttControl_In_TypeDef exp, AttCont
  32:Algorithm/Control_Dep/Attitude/Att_Casecade_PID.c **** 
  33:Algorithm/Control_Dep/Attitude/Att_Casecade_PID.c **** AttCasecadePID_TypeDef Att_CasecadePID_Controller = {
  34:Algorithm/Control_Dep/Attitude/Att_Casecade_PID.c ****     .init = Att_CheckParam_Validation,
  35:Algorithm/Control_Dep/Attitude/Att_Casecade_PID.c ****     .process = Att_Casecade_PID,
  36:Algorithm/Control_Dep/Attitude/Att_Casecade_PID.c **** };
  37:Algorithm/Control_Dep/Attitude/Att_Casecade_PID.c **** 
  38:Algorithm/Control_Dep/Attitude/Att_Casecade_PID.c **** static bool Att_CheckParam_Validation(AttCaseCadePID_Param_TypeDef para)
  39:Algorithm/Control_Dep/Attitude/Att_Casecade_PID.c **** {
  40:Algorithm/Control_Dep/Attitude/Att_Casecade_PID.c ****     RC_Filter_Param_TypeDef RCParam_Tmp;
  41:Algorithm/Control_Dep/Attitude/Att_Casecade_PID.c **** 
  42:Algorithm/Control_Dep/Attitude/Att_Casecade_PID.c ****     if (!ProcessPara.init)
  43:Algorithm/Control_Dep/Attitude/Att_Casecade_PID.c ****     {
  44:Algorithm/Control_Dep/Attitude/Att_Casecade_PID.c ****         memset(&ProcessPara, 0, sizeof(ProcessParam_TypeDef));
  45:Algorithm/Control_Dep/Attitude/Att_Casecade_PID.c ****         ProcessPara.init = true;
  46:Algorithm/Control_Dep/Attitude/Att_Casecade_PID.c ****     }
  47:Algorithm/Control_Dep/Attitude/Att_Casecade_PID.c **** 
  48:Algorithm/Control_Dep/Attitude/Att_Casecade_PID.c ****     /* attitude pid pitch parameter set */
  49:Algorithm/Control_Dep/Attitude/Att_Casecade_PID.c ****     /* invalid Pitch P gain input */
  50:Algorithm/Control_Dep/Attitude/Att_Casecade_PID.c ****     if (PARA_AMPLIFICATE(para.Pitch_Para.gP) == 0)
  51:Algorithm/Control_Dep/Attitude/Att_Casecade_PID.c ****     {
  52:Algorithm/Control_Dep/Attitude/Att_Casecade_PID.c ****         /* use default parameter */
  53:Algorithm/Control_Dep/Attitude/Att_Casecade_PID.c ****         return false;
  54:Algorithm/Control_Dep/Attitude/Att_Casecade_PID.c ****     }
  55:Algorithm/Control_Dep/Attitude/Att_Casecade_PID.c **** 
  56:Algorithm/Control_Dep/Attitude/Att_Casecade_PID.c ****     ProcessPara.pitch.gP = para.Pitch_Para.gP;
  57:Algorithm/Control_Dep/Attitude/Att_Casecade_PID.c ****     ProcessPara.pitch.gI = para.Pitch_Para.gI;
  58:Algorithm/Control_Dep/Attitude/Att_Casecade_PID.c ****     ProcessPara.pitch.gD = para.Pitch_Para.gD;
  59:Algorithm/Control_Dep/Attitude/Att_Casecade_PID.c ****     ProcessPara.pitch.gI_Max = ATTITUDE_INTEGRAL_RANGE;
  60:Algorithm/Control_Dep/Attitude/Att_Casecade_PID.c ****     ProcessPara.pitch.gI_Min = -ATTITUDE_INTEGRAL_RANGE;
  61:Algorithm/Control_Dep/Attitude/Att_Casecade_PID.c ****     ProcessPara.pitch.diff_max = para.Pitch_Para.base_diff;
  62:Algorithm/Control_Dep/Attitude/Att_Casecade_PID.c ****     ProcessPara.pitch.diff_min = -para.Pitch_Para.base_diff;
  63:Algorithm/Control_Dep/Attitude/Att_Casecade_PID.c **** 
  64:Algorithm/Control_Dep/Attitude/Att_Casecade_PID.c ****     /* attitude pid roll parameter set */
  65:Algorithm/Control_Dep/Attitude/Att_Casecade_PID.c ****     /* invalid Roll P gain input */
  66:Algorithm/Control_Dep/Attitude/Att_Casecade_PID.c ****     if (PARA_AMPLIFICATE(para.Roll_Para.gP) == 0)
  67:Algorithm/Control_Dep/Attitude/Att_Casecade_PID.c ****     {
  68:Algorithm/Control_Dep/Attitude/Att_Casecade_PID.c ****         /* use default parameter */
  69:Algorithm/Control_Dep/Attitude/Att_Casecade_PID.c ****         return false;
  70:Algorithm/Control_Dep/Attitude/Att_Casecade_PID.c ****     }
  71:Algorithm/Control_Dep/Attitude/Att_Casecade_PID.c **** 
  72:Algorithm/Control_Dep/Attitude/Att_Casecade_PID.c ****     ProcessPara.roll.gP = para.Roll_Para.gP;
  73:Algorithm/Control_Dep/Attitude/Att_Casecade_PID.c ****     ProcessPara.roll.gI = para.Roll_Para.gI;
  74:Algorithm/Control_Dep/Attitude/Att_Casecade_PID.c ****     ProcessPara.roll.gD = para.Roll_Para.gD;
  75:Algorithm/Control_Dep/Attitude/Att_Casecade_PID.c ****     ProcessPara.roll.gI_Max = ATTITUDE_INTEGRAL_RANGE;
  76:Algorithm/Control_Dep/Attitude/Att_Casecade_PID.c ****     ProcessPara.roll.gI_Min = -ATTITUDE_INTEGRAL_RANGE;
  77:Algorithm/Control_Dep/Attitude/Att_Casecade_PID.c ****     ProcessPara.roll.diff_max = para.Roll_Para.base_diff;
  78:Algorithm/Control_Dep/Attitude/Att_Casecade_PID.c ****     ProcessPara.roll.diff_min = -para.Roll_Para.base_diff;
  79:Algorithm/Control_Dep/Attitude/Att_Casecade_PID.c **** 
  80:Algorithm/Control_Dep/Attitude/Att_Casecade_PID.c ****     /* angular axis X parameter set */
  81:Algorithm/Control_Dep/Attitude/Att_Casecade_PID.c ****     if (PARA_AMPLIFICATE(para.GyroX_Para.gP) == 0)
  82:Algorithm/Control_Dep/Attitude/Att_Casecade_PID.c ****     {
  83:Algorithm/Control_Dep/Attitude/Att_Casecade_PID.c ****         /* use default parameter */
  84:Algorithm/Control_Dep/Attitude/Att_Casecade_PID.c ****         return false;
  85:Algorithm/Control_Dep/Attitude/Att_Casecade_PID.c ****     }
  86:Algorithm/Control_Dep/Attitude/Att_Casecade_PID.c **** 
  87:Algorithm/Control_Dep/Attitude/Att_Casecade_PID.c ****     ProcessPara.g_x.gP = para.GyroX_Para.gP;
ARM GAS  C:\Users\8bit\AppData\Local\Temp\ccJ11auh.s 			page 3


  88:Algorithm/Control_Dep/Attitude/Att_Casecade_PID.c ****     ProcessPara.g_x.gI = para.GyroX_Para.gI;
  89:Algorithm/Control_Dep/Attitude/Att_Casecade_PID.c ****     ProcessPara.g_x.gD = para.GyroX_Para.gD;
  90:Algorithm/Control_Dep/Attitude/Att_Casecade_PID.c ****     ProcessPara.g_x.diff_max = para.GyroX_Para.base_diff;
  91:Algorithm/Control_Dep/Attitude/Att_Casecade_PID.c ****     ProcessPara.g_x.diff_min = -para.GyroX_Para.base_diff;
  92:Algorithm/Control_Dep/Attitude/Att_Casecade_PID.c ****     
  93:Algorithm/Control_Dep/Attitude/Att_Casecade_PID.c ****     /* angular axis Y parameter set */
  94:Algorithm/Control_Dep/Attitude/Att_Casecade_PID.c ****     if (PARA_AMPLIFICATE(para.GyroY_Para.gP) == 0)
  95:Algorithm/Control_Dep/Attitude/Att_Casecade_PID.c ****     {
  96:Algorithm/Control_Dep/Attitude/Att_Casecade_PID.c ****         /* use default parameter */
  97:Algorithm/Control_Dep/Attitude/Att_Casecade_PID.c ****         return false;
  98:Algorithm/Control_Dep/Attitude/Att_Casecade_PID.c ****     }
  99:Algorithm/Control_Dep/Attitude/Att_Casecade_PID.c **** 
 100:Algorithm/Control_Dep/Attitude/Att_Casecade_PID.c ****     ProcessPara.g_y.gP = para.GyroY_Para.gP;
 101:Algorithm/Control_Dep/Attitude/Att_Casecade_PID.c ****     ProcessPara.g_y.gI = para.GyroY_Para.gI;
 102:Algorithm/Control_Dep/Attitude/Att_Casecade_PID.c ****     ProcessPara.g_y.gD = para.GyroY_Para.gD;
 103:Algorithm/Control_Dep/Attitude/Att_Casecade_PID.c ****     ProcessPara.g_y.diff_max = para.GyroY_Para.base_diff;
 104:Algorithm/Control_Dep/Attitude/Att_Casecade_PID.c ****     ProcessPara.g_y.diff_min = -para.GyroY_Para.base_diff;
 105:Algorithm/Control_Dep/Attitude/Att_Casecade_PID.c ****                    
 106:Algorithm/Control_Dep/Attitude/Att_Casecade_PID.c ****     /* angular axis Z parameter set */
 107:Algorithm/Control_Dep/Attitude/Att_Casecade_PID.c ****     if (PARA_AMPLIFICATE(para.GyroZ_Para.gP) == 0)
 108:Algorithm/Control_Dep/Attitude/Att_Casecade_PID.c ****     {
 109:Algorithm/Control_Dep/Attitude/Att_Casecade_PID.c ****         /* use default parameter */
 110:Algorithm/Control_Dep/Attitude/Att_Casecade_PID.c ****         return false;
 111:Algorithm/Control_Dep/Attitude/Att_Casecade_PID.c ****     }
 112:Algorithm/Control_Dep/Attitude/Att_Casecade_PID.c **** 
 113:Algorithm/Control_Dep/Attitude/Att_Casecade_PID.c ****     ProcessPara.g_z.gP = para.GyroZ_Para.gP;
 114:Algorithm/Control_Dep/Attitude/Att_Casecade_PID.c ****     ProcessPara.g_z.gI = para.GyroZ_Para.gI;
 115:Algorithm/Control_Dep/Attitude/Att_Casecade_PID.c ****     ProcessPara.g_z.gD = para.GyroZ_Para.gD;
 116:Algorithm/Control_Dep/Attitude/Att_Casecade_PID.c ****     ProcessPara.g_z.diff_max = para.GyroZ_Para.base_diff;
 117:Algorithm/Control_Dep/Attitude/Att_Casecade_PID.c ****     ProcessPara.g_z.diff_min = -para.GyroZ_Para.base_diff;
 118:Algorithm/Control_Dep/Attitude/Att_Casecade_PID.c **** 
 119:Algorithm/Control_Dep/Attitude/Att_Casecade_PID.c ****     RCParam_Tmp.f_cut = ATT_DTRIM_RC_F_CUT;
 120:Algorithm/Control_Dep/Attitude/Att_Casecade_PID.c ****     PID_Init(&ProcessPara.pitch, RCParam_Tmp);
 121:Algorithm/Control_Dep/Attitude/Att_Casecade_PID.c ****     PID_Init(&ProcessPara.roll,  RCParam_Tmp);
 122:Algorithm/Control_Dep/Attitude/Att_Casecade_PID.c **** 
 123:Algorithm/Control_Dep/Attitude/Att_Casecade_PID.c ****     RCParam_Tmp.f_cut = ANG_DTRIM_RC_F_CUT;
 124:Algorithm/Control_Dep/Attitude/Att_Casecade_PID.c ****     PID_Init(&ProcessPara.g_x, RCParam_Tmp);
 125:Algorithm/Control_Dep/Attitude/Att_Casecade_PID.c ****     PID_Init(&ProcessPara.g_y, RCParam_Tmp);
 126:Algorithm/Control_Dep/Attitude/Att_Casecade_PID.c ****     PID_Init(&ProcessPara.g_z, RCParam_Tmp);
 127:Algorithm/Control_Dep/Attitude/Att_Casecade_PID.c **** 
 128:Algorithm/Control_Dep/Attitude/Att_Casecade_PID.c ****     return true;
 129:Algorithm/Control_Dep/Attitude/Att_Casecade_PID.c **** }
 130:Algorithm/Control_Dep/Attitude/Att_Casecade_PID.c **** 
 131:Algorithm/Control_Dep/Attitude/Att_Casecade_PID.c **** static bool Att_Casecade_PID(uint32_t sys_ms, bool angular_only, AttControl_In_TypeDef exp, AttCont
 132:Algorithm/Control_Dep/Attitude/Att_Casecade_PID.c **** {
  29              		.loc 1 132 1 view -0
  30              		.cfi_startproc
  31              		@ args = 44, pretend = 8, frame = 0
  32              		@ frame_needed = 0, uses_anonymous_args = 0
  33              		.loc 1 132 1 is_stmt 0 view .LVU1
  34 0000 82B0     		sub	sp, sp, #8
  35              	.LCFI0:
  36              		.cfi_def_cfa_offset 8
  37 0002 F8B5     		push	{r3, r4, r5, r6, r7, lr}
  38              	.LCFI1:
  39              		.cfi_def_cfa_offset 32
  40              		.cfi_offset 3, -32
ARM GAS  C:\Users\8bit\AppData\Local\Temp\ccJ11auh.s 			page 4


  41              		.cfi_offset 4, -28
  42              		.cfi_offset 5, -24
  43              		.cfi_offset 6, -20
  44              		.cfi_offset 7, -16
  45              		.cfi_offset 14, -12
  46 0004 0446     		mov	r4, r0
  47 0006 06A8     		add	r0, sp, #24
  48 0008 80E80C00 		stm	r0, {r2, r3}
  49 000c 109F     		ldr	r7, [sp, #64]
 133:Algorithm/Control_Dep/Attitude/Att_Casecade_PID.c ****     bool state = false;
  50              		.loc 1 133 5 is_stmt 1 view .LVU2
  51              	.LVL1:
 134:Algorithm/Control_Dep/Attitude/Att_Casecade_PID.c **** 
 135:Algorithm/Control_Dep/Attitude/Att_Casecade_PID.c ****     if (ctl_out == NULL)
  52              		.loc 1 135 5 view .LVU3
  53              		.loc 1 135 8 is_stmt 0 view .LVU4
  54 000e 002F     		cmp	r7, #0
  55 0010 4ED0     		beq	.L5
 136:Algorithm/Control_Dep/Attitude/Att_Casecade_PID.c ****         return false;
 137:Algorithm/Control_Dep/Attitude/Att_Casecade_PID.c **** 
 138:Algorithm/Control_Dep/Attitude/Att_Casecade_PID.c ****     if (!angular_only)
  56              		.loc 1 138 5 is_stmt 1 view .LVU5
  57              		.loc 1 138 8 is_stmt 0 view .LVU6
  58 0012 99B3     		cbz	r1, .L7
 139:Algorithm/Control_Dep/Attitude/Att_Casecade_PID.c ****     {
 140:Algorithm/Control_Dep/Attitude/Att_Casecade_PID.c ****         /* attitude loop */
 141:Algorithm/Control_Dep/Attitude/Att_Casecade_PID.c ****         /* Pitch PID update */
 142:Algorithm/Control_Dep/Attitude/Att_Casecade_PID.c ****         state = PID_Update(&ProcessPara.pitch, sys_ms, mea.pitch, exp.pitch);
 143:Algorithm/Control_Dep/Attitude/Att_Casecade_PID.c ****         exp.gyro_y = ProcessPara.pitch.fout;
 144:Algorithm/Control_Dep/Attitude/Att_Casecade_PID.c **** 
 145:Algorithm/Control_Dep/Attitude/Att_Casecade_PID.c ****         /* Roll PID update */
 146:Algorithm/Control_Dep/Attitude/Att_Casecade_PID.c ****         state &= PID_Update(&ProcessPara.roll, sys_ms, mea.roll, exp.roll);
 147:Algorithm/Control_Dep/Attitude/Att_Casecade_PID.c ****         exp.gyro_x = ProcessPara.roll.fout;
 148:Algorithm/Control_Dep/Attitude/Att_Casecade_PID.c ****     }
 149:Algorithm/Control_Dep/Attitude/Att_Casecade_PID.c ****     else
 150:Algorithm/Control_Dep/Attitude/Att_Casecade_PID.c ****     {
 151:Algorithm/Control_Dep/Attitude/Att_Casecade_PID.c ****         ProcessPara.pitch.lst_diff = 0.0f;
  59              		.loc 1 151 9 is_stmt 1 view .LVU7
  60              		.loc 1 151 36 is_stmt 0 view .LVU8
  61 0014 274B     		ldr	r3, .L8
  62 0016 0022     		movs	r2, #0
  63 0018 9A63     		str	r2, [r3, #56]	@ float
 152:Algorithm/Control_Dep/Attitude/Att_Casecade_PID.c ****         ProcessPara.pitch.Integral = 0.0f;
  64              		.loc 1 152 9 is_stmt 1 view .LVU9
  65              		.loc 1 152 36 is_stmt 0 view .LVU10
  66 001a DA62     		str	r2, [r3, #44]	@ float
 153:Algorithm/Control_Dep/Attitude/Att_Casecade_PID.c **** 
 154:Algorithm/Control_Dep/Attitude/Att_Casecade_PID.c ****         ProcessPara.roll.lst_diff = 0.0f;
  67              		.loc 1 154 9 is_stmt 1 view .LVU11
  68              		.loc 1 154 35 is_stmt 0 view .LVU12
  69 001c C3F88420 		str	r2, [r3, #132]	@ float
 155:Algorithm/Control_Dep/Attitude/Att_Casecade_PID.c ****         ProcessPara.roll.Integral = 0.0f;
  70              		.loc 1 155 9 is_stmt 1 view .LVU13
  71              		.loc 1 155 35 is_stmt 0 view .LVU14
  72 0020 9A67     		str	r2, [r3, #120]	@ float
 133:Algorithm/Control_Dep/Attitude/Att_Casecade_PID.c **** 
  73              		.loc 1 133 10 view .LVU15
ARM GAS  C:\Users\8bit\AppData\Local\Temp\ccJ11auh.s 			page 5


  74 0022 0026     		movs	r6, #0
  75              	.LVL2:
  76              	.L4:
 156:Algorithm/Control_Dep/Attitude/Att_Casecade_PID.c ****     }
 157:Algorithm/Control_Dep/Attitude/Att_Casecade_PID.c **** 
 158:Algorithm/Control_Dep/Attitude/Att_Casecade_PID.c ****     /* angular speed loop */
 159:Algorithm/Control_Dep/Attitude/Att_Casecade_PID.c ****     /* Gyro X PID update */
 160:Algorithm/Control_Dep/Attitude/Att_Casecade_PID.c ****     state &= PID_Update(&ProcessPara.g_x, sys_ms, mea.gyro_x, exp.gyro_x);
  77              		.loc 1 160 5 is_stmt 1 view .LVU16
  78              		.loc 1 160 14 is_stmt 0 view .LVU17
  79 0024 234D     		ldr	r5, .L8
  80 0026 DDED080A 		vldr.32	s1, [sp, #32]
  81 002a 9DED0D0A 		vldr.32	s0, [sp, #52]
  82 002e 2146     		mov	r1, r4
  83 0030 05F19C00 		add	r0, r5, #156
  84 0034 FFF7FEFF 		bl	PID_Update
  85              	.LVL3:
  86 0038 0640     		ands	r6, r6, r0
  87              	.LVL4:
 161:Algorithm/Control_Dep/Attitude/Att_Casecade_PID.c **** 
 162:Algorithm/Control_Dep/Attitude/Att_Casecade_PID.c ****     /* Gyro Y PID update */
 163:Algorithm/Control_Dep/Attitude/Att_Casecade_PID.c ****     state &= PID_Update(&ProcessPara.g_y, sys_ms, mea.gyro_y, exp.gyro_y);
  88              		.loc 1 163 5 is_stmt 1 view .LVU18
  89              		.loc 1 163 14 is_stmt 0 view .LVU19
  90 003a DDED090A 		vldr.32	s1, [sp, #36]
  91 003e 9DED0E0A 		vldr.32	s0, [sp, #56]
  92 0042 2146     		mov	r1, r4
  93 0044 05F1E800 		add	r0, r5, #232
  94 0048 FFF7FEFF 		bl	PID_Update
  95              	.LVL5:
  96 004c 0640     		ands	r6, r6, r0
  97              	.LVL6:
 164:Algorithm/Control_Dep/Attitude/Att_Casecade_PID.c **** 
 165:Algorithm/Control_Dep/Attitude/Att_Casecade_PID.c ****     /* Gyro Z PID update */
 166:Algorithm/Control_Dep/Attitude/Att_Casecade_PID.c ****     state &= PID_Update(&ProcessPara.g_z, sys_ms, mea.gyro_z, exp.gyro_z);
  98              		.loc 1 166 5 is_stmt 1 view .LVU20
  99              		.loc 1 166 14 is_stmt 0 view .LVU21
 100 004e DDED0A0A 		vldr.32	s1, [sp, #40]
 101 0052 9DED0F0A 		vldr.32	s0, [sp, #60]
 102 0056 2146     		mov	r1, r4
 103 0058 05F59A70 		add	r0, r5, #308
 104 005c FFF7FEFF 		bl	PID_Update
 105              	.LVL7:
 106 0060 3040     		ands	r0, r0, r6
 107              	.LVL8:
 167:Algorithm/Control_Dep/Attitude/Att_Casecade_PID.c **** 
 168:Algorithm/Control_Dep/Attitude/Att_Casecade_PID.c ****     ctl_out->gyro_x = ProcessPara.g_x.fout;
 108              		.loc 1 168 5 is_stmt 1 view .LVU22
 109              		.loc 1 168 38 is_stmt 0 view .LVU23
 110 0062 D5F8AC30 		ldr	r3, [r5, #172]	@ float
 111              		.loc 1 168 21 view .LVU24
 112 0066 3B60     		str	r3, [r7]	@ float
 169:Algorithm/Control_Dep/Attitude/Att_Casecade_PID.c ****     ctl_out->gyro_y = ProcessPara.g_y.fout;
 113              		.loc 1 169 5 is_stmt 1 view .LVU25
 114              		.loc 1 169 38 is_stmt 0 view .LVU26
 115 0068 D5F8F830 		ldr	r3, [r5, #248]	@ float
 116              		.loc 1 169 21 view .LVU27
ARM GAS  C:\Users\8bit\AppData\Local\Temp\ccJ11auh.s 			page 6


 117 006c 7B60     		str	r3, [r7, #4]	@ float
 170:Algorithm/Control_Dep/Attitude/Att_Casecade_PID.c ****     ctl_out->gyro_z = ProcessPara.g_z.fout;
 118              		.loc 1 170 5 is_stmt 1 view .LVU28
 119              		.loc 1 170 38 is_stmt 0 view .LVU29
 120 006e D5F84431 		ldr	r3, [r5, #324]	@ float
 121              		.loc 1 170 21 view .LVU30
 122 0072 BB60     		str	r3, [r7, #8]	@ float
 171:Algorithm/Control_Dep/Attitude/Att_Casecade_PID.c **** 
 172:Algorithm/Control_Dep/Attitude/Att_Casecade_PID.c ****     return state;
 123              		.loc 1 172 5 is_stmt 1 view .LVU31
 124              	.LVL9:
 125              	.L2:
 173:Algorithm/Control_Dep/Attitude/Att_Casecade_PID.c **** }
 126              		.loc 1 173 1 is_stmt 0 view .LVU32
 127 0074 BDE8F840 		pop	{r3, r4, r5, r6, r7, lr}
 128              	.LCFI2:
 129              		.cfi_remember_state
 130              		.cfi_restore 14
 131              		.cfi_restore 7
 132              		.cfi_restore 6
 133              		.cfi_restore 5
 134              		.cfi_restore 4
 135              		.cfi_restore 3
 136              		.cfi_def_cfa_offset 8
 137              	.LVL10:
 138              		.loc 1 173 1 view .LVU33
 139 0078 02B0     		add	sp, sp, #8
 140              	.LCFI3:
 141              		.cfi_def_cfa_offset 0
 142 007a 7047     		bx	lr
 143              	.LVL11:
 144              	.L7:
 145              	.LCFI4:
 146              		.cfi_restore_state
 142:Algorithm/Control_Dep/Attitude/Att_Casecade_PID.c ****         exp.gyro_y = ProcessPara.pitch.fout;
 147              		.loc 1 142 9 is_stmt 1 view .LVU34
 142:Algorithm/Control_Dep/Attitude/Att_Casecade_PID.c ****         exp.gyro_y = ProcessPara.pitch.fout;
 148              		.loc 1 142 17 is_stmt 0 view .LVU35
 149 007c 0D4D     		ldr	r5, .L8
 150 007e DDED060A 		vldr.32	s1, [sp, #24]
 151 0082 9DED0B0A 		vldr.32	s0, [sp, #44]
 152 0086 2146     		mov	r1, r4
 153              	.LVL12:
 142:Algorithm/Control_Dep/Attitude/Att_Casecade_PID.c ****         exp.gyro_y = ProcessPara.pitch.fout;
 154              		.loc 1 142 17 view .LVU36
 155 0088 281D     		adds	r0, r5, #4
 156              	.LVL13:
 142:Algorithm/Control_Dep/Attitude/Att_Casecade_PID.c ****         exp.gyro_y = ProcessPara.pitch.fout;
 157              		.loc 1 142 17 view .LVU37
 158 008a FFF7FEFF 		bl	PID_Update
 159              	.LVL14:
 160 008e 0646     		mov	r6, r0
 161              	.LVL15:
 143:Algorithm/Control_Dep/Attitude/Att_Casecade_PID.c **** 
 162              		.loc 1 143 9 is_stmt 1 view .LVU38
 143:Algorithm/Control_Dep/Attitude/Att_Casecade_PID.c **** 
 163              		.loc 1 143 39 is_stmt 0 view .LVU39
ARM GAS  C:\Users\8bit\AppData\Local\Temp\ccJ11auh.s 			page 7


 164 0090 6B69     		ldr	r3, [r5, #20]	@ float
 143:Algorithm/Control_Dep/Attitude/Att_Casecade_PID.c **** 
 165              		.loc 1 143 20 view .LVU40
 166 0092 0993     		str	r3, [sp, #36]	@ float
 146:Algorithm/Control_Dep/Attitude/Att_Casecade_PID.c ****         exp.gyro_x = ProcessPara.roll.fout;
 167              		.loc 1 146 9 is_stmt 1 view .LVU41
 146:Algorithm/Control_Dep/Attitude/Att_Casecade_PID.c ****         exp.gyro_x = ProcessPara.roll.fout;
 168              		.loc 1 146 18 is_stmt 0 view .LVU42
 169 0094 DDED070A 		vldr.32	s1, [sp, #28]
 170 0098 9DED0C0A 		vldr.32	s0, [sp, #48]
 171 009c 2146     		mov	r1, r4
 172 009e 05F15000 		add	r0, r5, #80
 173 00a2 FFF7FEFF 		bl	PID_Update
 174              	.LVL16:
 175 00a6 0640     		ands	r6, r6, r0
 176              	.LVL17:
 146:Algorithm/Control_Dep/Attitude/Att_Casecade_PID.c ****         exp.gyro_x = ProcessPara.roll.fout;
 177              		.loc 1 146 18 view .LVU43
 178 00a8 F6B2     		uxtb	r6, r6
 179              	.LVL18:
 147:Algorithm/Control_Dep/Attitude/Att_Casecade_PID.c ****     }
 180              		.loc 1 147 9 is_stmt 1 view .LVU44
 147:Algorithm/Control_Dep/Attitude/Att_Casecade_PID.c ****     }
 181              		.loc 1 147 38 is_stmt 0 view .LVU45
 182 00aa 2B6E     		ldr	r3, [r5, #96]	@ float
 147:Algorithm/Control_Dep/Attitude/Att_Casecade_PID.c ****     }
 183              		.loc 1 147 20 view .LVU46
 184 00ac 0893     		str	r3, [sp, #32]	@ float
 185 00ae B9E7     		b	.L4
 186              	.LVL19:
 187              	.L5:
 136:Algorithm/Control_Dep/Attitude/Att_Casecade_PID.c **** 
 188              		.loc 1 136 16 view .LVU47
 189 00b0 0020     		movs	r0, #0
 190              	.LVL20:
 136:Algorithm/Control_Dep/Attitude/Att_Casecade_PID.c **** 
 191              		.loc 1 136 16 view .LVU48
 192 00b2 DFE7     		b	.L2
 193              	.L9:
 194              		.align	2
 195              	.L8:
 196 00b4 00000000 		.word	.LANCHOR0
 197              		.cfi_endproc
 198              	.LFE9:
 200              		.section	.text.Att_CheckParam_Validation,"ax",%progbits
 201              		.align	1
 202              		.syntax unified
 203              		.thumb
 204              		.thumb_func
 206              	Att_CheckParam_Validation:
 207              	.LFB8:
  39:Algorithm/Control_Dep/Attitude/Att_Casecade_PID.c ****     RC_Filter_Param_TypeDef RCParam_Tmp;
 208              		.loc 1 39 1 is_stmt 1 view -0
 209              		.cfi_startproc
 210              		@ args = 120, pretend = 16, frame = 16
 211              		@ frame_needed = 0, uses_anonymous_args = 0
 212 0000 84B0     		sub	sp, sp, #16
ARM GAS  C:\Users\8bit\AppData\Local\Temp\ccJ11auh.s 			page 8


 213              	.LCFI5:
 214              		.cfi_def_cfa_offset 16
 215 0002 30B5     		push	{r4, r5, lr}
 216              	.LCFI6:
 217              		.cfi_def_cfa_offset 28
 218              		.cfi_offset 4, -28
 219              		.cfi_offset 5, -24
 220              		.cfi_offset 14, -20
 221 0004 87B0     		sub	sp, sp, #28
 222              	.LCFI7:
 223              		.cfi_def_cfa_offset 56
 224 0006 0AAC     		add	r4, sp, #40
 225 0008 84E80F00 		stm	r4, {r0, r1, r2, r3}
  40:Algorithm/Control_Dep/Attitude/Att_Casecade_PID.c **** 
 226              		.loc 1 40 5 view .LVU50
  42:Algorithm/Control_Dep/Attitude/Att_Casecade_PID.c ****     {
 227              		.loc 1 42 5 view .LVU51
  42:Algorithm/Control_Dep/Attitude/Att_Casecade_PID.c ****     {
 228              		.loc 1 42 21 is_stmt 0 view .LVU52
 229 000c 734B     		ldr	r3, .L21
 230 000e 1B78     		ldrb	r3, [r3]	@ zero_extendqisi2
  42:Algorithm/Control_Dep/Attitude/Att_Casecade_PID.c ****     {
 231              		.loc 1 42 8 view .LVU53
 232 0010 002B     		cmp	r3, #0
 233 0012 00F08E80 		beq	.L19
 234              	.L11:
  50:Algorithm/Control_Dep/Attitude/Att_Casecade_PID.c ****     {
 235              		.loc 1 50 5 is_stmt 1 view .LVU54
  50:Algorithm/Control_Dep/Attitude/Att_Casecade_PID.c ****     {
 236              		.loc 1 50 9 is_stmt 0 view .LVU55
 237 0016 9DED0B7A 		vldr.32	s14, [sp, #44]
 238 001a DFED717A 		vldr.32	s15, .L21+4
 239 001e 67EE277A 		vmul.f32	s15, s14, s15
 240 0022 FCEEE77A 		vcvt.u32.f32	s15, s15
 241 0026 17EE903A 		vmov	r3, s15	@ int
 242 002a 9BB2     		uxth	r3, r3
  50:Algorithm/Control_Dep/Attitude/Att_Casecade_PID.c ****     {
 243              		.loc 1 50 8 view .LVU56
 244 002c 002B     		cmp	r3, #0
 245 002e 00F0C980 		beq	.L13
  56:Algorithm/Control_Dep/Attitude/Att_Casecade_PID.c ****     ProcessPara.pitch.gI = para.Pitch_Para.gI;
 246              		.loc 1 56 5 is_stmt 1 view .LVU57
  56:Algorithm/Control_Dep/Attitude/Att_Casecade_PID.c ****     ProcessPara.pitch.gI = para.Pitch_Para.gI;
 247              		.loc 1 56 26 is_stmt 0 view .LVU58
 248 0032 6A4B     		ldr	r3, .L21
 249 0034 83ED067A 		vstr.32	s14, [r3, #24]
  57:Algorithm/Control_Dep/Attitude/Att_Casecade_PID.c ****     ProcessPara.pitch.gD = para.Pitch_Para.gD;
 250              		.loc 1 57 5 is_stmt 1 view .LVU59
  57:Algorithm/Control_Dep/Attitude/Att_Casecade_PID.c ****     ProcessPara.pitch.gD = para.Pitch_Para.gD;
 251              		.loc 1 57 43 is_stmt 0 view .LVU60
 252 0038 0C9A     		ldr	r2, [sp, #48]	@ float
  57:Algorithm/Control_Dep/Attitude/Att_Casecade_PID.c ****     ProcessPara.pitch.gD = para.Pitch_Para.gD;
 253              		.loc 1 57 26 view .LVU61
 254 003a 1A62     		str	r2, [r3, #32]	@ float
  58:Algorithm/Control_Dep/Attitude/Att_Casecade_PID.c ****     ProcessPara.pitch.gI_Max = ATTITUDE_INTEGRAL_RANGE;
 255              		.loc 1 58 5 is_stmt 1 view .LVU62
  58:Algorithm/Control_Dep/Attitude/Att_Casecade_PID.c ****     ProcessPara.pitch.gI_Max = ATTITUDE_INTEGRAL_RANGE;
ARM GAS  C:\Users\8bit\AppData\Local\Temp\ccJ11auh.s 			page 9


 256              		.loc 1 58 43 is_stmt 0 view .LVU63
 257 003c 0F9A     		ldr	r2, [sp, #60]	@ float
  58:Algorithm/Control_Dep/Attitude/Att_Casecade_PID.c ****     ProcessPara.pitch.gI_Max = ATTITUDE_INTEGRAL_RANGE;
 258              		.loc 1 58 26 view .LVU64
 259 003e 5A63     		str	r2, [r3, #52]	@ float
  59:Algorithm/Control_Dep/Attitude/Att_Casecade_PID.c ****     ProcessPara.pitch.gI_Min = -ATTITUDE_INTEGRAL_RANGE;
 260              		.loc 1 59 5 is_stmt 1 view .LVU65
  59:Algorithm/Control_Dep/Attitude/Att_Casecade_PID.c ****     ProcessPara.pitch.gI_Min = -ATTITUDE_INTEGRAL_RANGE;
 261              		.loc 1 59 30 is_stmt 0 view .LVU66
 262 0040 684A     		ldr	r2, .L21+8
 263 0042 9A62     		str	r2, [r3, #40]	@ float
  60:Algorithm/Control_Dep/Attitude/Att_Casecade_PID.c ****     ProcessPara.pitch.diff_max = para.Pitch_Para.base_diff;
 264              		.loc 1 60 5 is_stmt 1 view .LVU67
  60:Algorithm/Control_Dep/Attitude/Att_Casecade_PID.c ****     ProcessPara.pitch.diff_max = para.Pitch_Para.base_diff;
 265              		.loc 1 60 30 is_stmt 0 view .LVU68
 266 0044 684A     		ldr	r2, .L21+12
 267 0046 5A62     		str	r2, [r3, #36]	@ float
  61:Algorithm/Control_Dep/Attitude/Att_Casecade_PID.c ****     ProcessPara.pitch.diff_min = -para.Pitch_Para.base_diff;
 268              		.loc 1 61 5 is_stmt 1 view .LVU69
  61:Algorithm/Control_Dep/Attitude/Att_Casecade_PID.c ****     ProcessPara.pitch.diff_min = -para.Pitch_Para.base_diff;
 269              		.loc 1 61 49 is_stmt 0 view .LVU70
 270 0048 DDED0A7A 		vldr.32	s15, [sp, #40]
  61:Algorithm/Control_Dep/Attitude/Att_Casecade_PID.c ****     ProcessPara.pitch.diff_min = -para.Pitch_Para.base_diff;
 271              		.loc 1 61 32 view .LVU71
 272 004c C3ED037A 		vstr.32	s15, [r3, #12]
  62:Algorithm/Control_Dep/Attitude/Att_Casecade_PID.c **** 
 273              		.loc 1 62 5 is_stmt 1 view .LVU72
  62:Algorithm/Control_Dep/Attitude/Att_Casecade_PID.c **** 
 274              		.loc 1 62 34 is_stmt 0 view .LVU73
 275 0050 F1EE677A 		vneg.f32	s15, s15
  62:Algorithm/Control_Dep/Attitude/Att_Casecade_PID.c **** 
 276              		.loc 1 62 32 view .LVU74
 277 0054 C3ED047A 		vstr.32	s15, [r3, #16]
  66:Algorithm/Control_Dep/Attitude/Att_Casecade_PID.c ****     {
 278              		.loc 1 66 5 is_stmt 1 view .LVU75
  66:Algorithm/Control_Dep/Attitude/Att_Casecade_PID.c ****     {
 279              		.loc 1 66 9 is_stmt 0 view .LVU76
 280 0058 9DED117A 		vldr.32	s14, [sp, #68]
 281 005c DFED607A 		vldr.32	s15, .L21+4
 282 0060 67EE277A 		vmul.f32	s15, s14, s15
 283 0064 FCEEE77A 		vcvt.u32.f32	s15, s15
 284 0068 17EE903A 		vmov	r3, s15	@ int
 285 006c 9BB2     		uxth	r3, r3
  66:Algorithm/Control_Dep/Attitude/Att_Casecade_PID.c ****     {
 286              		.loc 1 66 8 view .LVU77
 287 006e 002B     		cmp	r3, #0
 288 0070 00F0AE80 		beq	.L14
  72:Algorithm/Control_Dep/Attitude/Att_Casecade_PID.c ****     ProcessPara.roll.gI = para.Roll_Para.gI;
 289              		.loc 1 72 5 is_stmt 1 view .LVU78
  72:Algorithm/Control_Dep/Attitude/Att_Casecade_PID.c ****     ProcessPara.roll.gI = para.Roll_Para.gI;
 290              		.loc 1 72 25 is_stmt 0 view .LVU79
 291 0074 594B     		ldr	r3, .L21
 292 0076 83ED197A 		vstr.32	s14, [r3, #100]
  73:Algorithm/Control_Dep/Attitude/Att_Casecade_PID.c ****     ProcessPara.roll.gD = para.Roll_Para.gD;
 293              		.loc 1 73 5 is_stmt 1 view .LVU80
  73:Algorithm/Control_Dep/Attitude/Att_Casecade_PID.c ****     ProcessPara.roll.gD = para.Roll_Para.gD;
 294              		.loc 1 73 41 is_stmt 0 view .LVU81
ARM GAS  C:\Users\8bit\AppData\Local\Temp\ccJ11auh.s 			page 10


 295 007a 129A     		ldr	r2, [sp, #72]	@ float
  73:Algorithm/Control_Dep/Attitude/Att_Casecade_PID.c ****     ProcessPara.roll.gD = para.Roll_Para.gD;
 296              		.loc 1 73 25 view .LVU82
 297 007c DA66     		str	r2, [r3, #108]	@ float
  74:Algorithm/Control_Dep/Attitude/Att_Casecade_PID.c ****     ProcessPara.roll.gI_Max = ATTITUDE_INTEGRAL_RANGE;
 298              		.loc 1 74 5 is_stmt 1 view .LVU83
  74:Algorithm/Control_Dep/Attitude/Att_Casecade_PID.c ****     ProcessPara.roll.gI_Max = ATTITUDE_INTEGRAL_RANGE;
 299              		.loc 1 74 41 is_stmt 0 view .LVU84
 300 007e 159A     		ldr	r2, [sp, #84]	@ float
  74:Algorithm/Control_Dep/Attitude/Att_Casecade_PID.c ****     ProcessPara.roll.gI_Max = ATTITUDE_INTEGRAL_RANGE;
 301              		.loc 1 74 25 view .LVU85
 302 0080 C3F88020 		str	r2, [r3, #128]	@ float
  75:Algorithm/Control_Dep/Attitude/Att_Casecade_PID.c ****     ProcessPara.roll.gI_Min = -ATTITUDE_INTEGRAL_RANGE;
 303              		.loc 1 75 5 is_stmt 1 view .LVU86
  75:Algorithm/Control_Dep/Attitude/Att_Casecade_PID.c ****     ProcessPara.roll.gI_Min = -ATTITUDE_INTEGRAL_RANGE;
 304              		.loc 1 75 29 is_stmt 0 view .LVU87
 305 0084 574A     		ldr	r2, .L21+8
 306 0086 5A67     		str	r2, [r3, #116]	@ float
  76:Algorithm/Control_Dep/Attitude/Att_Casecade_PID.c ****     ProcessPara.roll.diff_max = para.Roll_Para.base_diff;
 307              		.loc 1 76 5 is_stmt 1 view .LVU88
  76:Algorithm/Control_Dep/Attitude/Att_Casecade_PID.c ****     ProcessPara.roll.diff_max = para.Roll_Para.base_diff;
 308              		.loc 1 76 29 is_stmt 0 view .LVU89
 309 0088 574A     		ldr	r2, .L21+12
 310 008a 1A67     		str	r2, [r3, #112]	@ float
  77:Algorithm/Control_Dep/Attitude/Att_Casecade_PID.c ****     ProcessPara.roll.diff_min = -para.Roll_Para.base_diff;
 311              		.loc 1 77 5 is_stmt 1 view .LVU90
  77:Algorithm/Control_Dep/Attitude/Att_Casecade_PID.c ****     ProcessPara.roll.diff_min = -para.Roll_Para.base_diff;
 312              		.loc 1 77 47 is_stmt 0 view .LVU91
 313 008c DDED107A 		vldr.32	s15, [sp, #64]
  77:Algorithm/Control_Dep/Attitude/Att_Casecade_PID.c ****     ProcessPara.roll.diff_min = -para.Roll_Para.base_diff;
 314              		.loc 1 77 31 view .LVU92
 315 0090 C3ED167A 		vstr.32	s15, [r3, #88]
  78:Algorithm/Control_Dep/Attitude/Att_Casecade_PID.c **** 
 316              		.loc 1 78 5 is_stmt 1 view .LVU93
  78:Algorithm/Control_Dep/Attitude/Att_Casecade_PID.c **** 
 317              		.loc 1 78 33 is_stmt 0 view .LVU94
 318 0094 F1EE677A 		vneg.f32	s15, s15
  78:Algorithm/Control_Dep/Attitude/Att_Casecade_PID.c **** 
 319              		.loc 1 78 31 view .LVU95
 320 0098 C3ED177A 		vstr.32	s15, [r3, #92]
  81:Algorithm/Control_Dep/Attitude/Att_Casecade_PID.c ****     {
 321              		.loc 1 81 5 is_stmt 1 view .LVU96
  81:Algorithm/Control_Dep/Attitude/Att_Casecade_PID.c ****     {
 322              		.loc 1 81 9 is_stmt 0 view .LVU97
 323 009c 9DED177A 		vldr.32	s14, [sp, #92]
 324 00a0 DFED4F7A 		vldr.32	s15, .L21+4
 325 00a4 67EE277A 		vmul.f32	s15, s14, s15
 326 00a8 FCEEE77A 		vcvt.u32.f32	s15, s15
 327 00ac 17EE903A 		vmov	r3, s15	@ int
 328 00b0 9BB2     		uxth	r3, r3
  81:Algorithm/Control_Dep/Attitude/Att_Casecade_PID.c ****     {
 329              		.loc 1 81 8 view .LVU98
 330 00b2 002B     		cmp	r3, #0
 331 00b4 00F08E80 		beq	.L15
  87:Algorithm/Control_Dep/Attitude/Att_Casecade_PID.c ****     ProcessPara.g_x.gI = para.GyroX_Para.gI;
 332              		.loc 1 87 5 is_stmt 1 view .LVU99
  87:Algorithm/Control_Dep/Attitude/Att_Casecade_PID.c ****     ProcessPara.g_x.gI = para.GyroX_Para.gI;
ARM GAS  C:\Users\8bit\AppData\Local\Temp\ccJ11auh.s 			page 11


 333              		.loc 1 87 24 is_stmt 0 view .LVU100
 334 00b8 484B     		ldr	r3, .L21
 335 00ba 83ED2C7A 		vstr.32	s14, [r3, #176]
  88:Algorithm/Control_Dep/Attitude/Att_Casecade_PID.c ****     ProcessPara.g_x.gD = para.GyroX_Para.gD;
 336              		.loc 1 88 5 is_stmt 1 view .LVU101
  88:Algorithm/Control_Dep/Attitude/Att_Casecade_PID.c ****     ProcessPara.g_x.gD = para.GyroX_Para.gD;
 337              		.loc 1 88 41 is_stmt 0 view .LVU102
 338 00be 189A     		ldr	r2, [sp, #96]	@ float
  88:Algorithm/Control_Dep/Attitude/Att_Casecade_PID.c ****     ProcessPara.g_x.gD = para.GyroX_Para.gD;
 339              		.loc 1 88 24 view .LVU103
 340 00c0 C3F8B820 		str	r2, [r3, #184]	@ float
  89:Algorithm/Control_Dep/Attitude/Att_Casecade_PID.c ****     ProcessPara.g_x.diff_max = para.GyroX_Para.base_diff;
 341              		.loc 1 89 5 is_stmt 1 view .LVU104
  89:Algorithm/Control_Dep/Attitude/Att_Casecade_PID.c ****     ProcessPara.g_x.diff_max = para.GyroX_Para.base_diff;
 342              		.loc 1 89 41 is_stmt 0 view .LVU105
 343 00c4 1B9A     		ldr	r2, [sp, #108]	@ float
  89:Algorithm/Control_Dep/Attitude/Att_Casecade_PID.c ****     ProcessPara.g_x.diff_max = para.GyroX_Para.base_diff;
 344              		.loc 1 89 24 view .LVU106
 345 00c6 C3F8CC20 		str	r2, [r3, #204]	@ float
  90:Algorithm/Control_Dep/Attitude/Att_Casecade_PID.c ****     ProcessPara.g_x.diff_min = -para.GyroX_Para.base_diff;
 346              		.loc 1 90 5 is_stmt 1 view .LVU107
  90:Algorithm/Control_Dep/Attitude/Att_Casecade_PID.c ****     ProcessPara.g_x.diff_min = -para.GyroX_Para.base_diff;
 347              		.loc 1 90 47 is_stmt 0 view .LVU108
 348 00ca DDED167A 		vldr.32	s15, [sp, #88]
  90:Algorithm/Control_Dep/Attitude/Att_Casecade_PID.c ****     ProcessPara.g_x.diff_min = -para.GyroX_Para.base_diff;
 349              		.loc 1 90 30 view .LVU109
 350 00ce C3ED297A 		vstr.32	s15, [r3, #164]
  91:Algorithm/Control_Dep/Attitude/Att_Casecade_PID.c ****     
 351              		.loc 1 91 5 is_stmt 1 view .LVU110
  91:Algorithm/Control_Dep/Attitude/Att_Casecade_PID.c ****     
 352              		.loc 1 91 32 is_stmt 0 view .LVU111
 353 00d2 F1EE677A 		vneg.f32	s15, s15
  91:Algorithm/Control_Dep/Attitude/Att_Casecade_PID.c ****     
 354              		.loc 1 91 30 view .LVU112
 355 00d6 C3ED2A7A 		vstr.32	s15, [r3, #168]
  94:Algorithm/Control_Dep/Attitude/Att_Casecade_PID.c ****     {
 356              		.loc 1 94 5 is_stmt 1 view .LVU113
  94:Algorithm/Control_Dep/Attitude/Att_Casecade_PID.c ****     {
 357              		.loc 1 94 9 is_stmt 0 view .LVU114
 358 00da 9DED1D7A 		vldr.32	s14, [sp, #116]
 359 00de DFED407A 		vldr.32	s15, .L21+4
 360 00e2 67EE277A 		vmul.f32	s15, s14, s15
 361 00e6 FCEEE77A 		vcvt.u32.f32	s15, s15
 362 00ea 17EE903A 		vmov	r3, s15	@ int
 363 00ee 9BB2     		uxth	r3, r3
  94:Algorithm/Control_Dep/Attitude/Att_Casecade_PID.c ****     {
 364              		.loc 1 94 8 view .LVU115
 365 00f0 002B     		cmp	r3, #0
 366 00f2 71D0     		beq	.L16
 100:Algorithm/Control_Dep/Attitude/Att_Casecade_PID.c ****     ProcessPara.g_y.gI = para.GyroY_Para.gI;
 367              		.loc 1 100 5 is_stmt 1 view .LVU116
 100:Algorithm/Control_Dep/Attitude/Att_Casecade_PID.c ****     ProcessPara.g_y.gI = para.GyroY_Para.gI;
 368              		.loc 1 100 24 is_stmt 0 view .LVU117
 369 00f4 394B     		ldr	r3, .L21
 370 00f6 83ED3F7A 		vstr.32	s14, [r3, #252]
 101:Algorithm/Control_Dep/Attitude/Att_Casecade_PID.c ****     ProcessPara.g_y.gD = para.GyroY_Para.gD;
 371              		.loc 1 101 5 is_stmt 1 view .LVU118
ARM GAS  C:\Users\8bit\AppData\Local\Temp\ccJ11auh.s 			page 12


 101:Algorithm/Control_Dep/Attitude/Att_Casecade_PID.c ****     ProcessPara.g_y.gD = para.GyroY_Para.gD;
 372              		.loc 1 101 41 is_stmt 0 view .LVU119
 373 00fa 1E9A     		ldr	r2, [sp, #120]	@ float
 101:Algorithm/Control_Dep/Attitude/Att_Casecade_PID.c ****     ProcessPara.g_y.gD = para.GyroY_Para.gD;
 374              		.loc 1 101 24 view .LVU120
 375 00fc C3F80421 		str	r2, [r3, #260]	@ float
 102:Algorithm/Control_Dep/Attitude/Att_Casecade_PID.c ****     ProcessPara.g_y.diff_max = para.GyroY_Para.base_diff;
 376              		.loc 1 102 5 is_stmt 1 view .LVU121
 102:Algorithm/Control_Dep/Attitude/Att_Casecade_PID.c ****     ProcessPara.g_y.diff_max = para.GyroY_Para.base_diff;
 377              		.loc 1 102 41 is_stmt 0 view .LVU122
 378 0100 219A     		ldr	r2, [sp, #132]	@ float
 102:Algorithm/Control_Dep/Attitude/Att_Casecade_PID.c ****     ProcessPara.g_y.diff_max = para.GyroY_Para.base_diff;
 379              		.loc 1 102 24 view .LVU123
 380 0102 C3F81821 		str	r2, [r3, #280]	@ float
 103:Algorithm/Control_Dep/Attitude/Att_Casecade_PID.c ****     ProcessPara.g_y.diff_min = -para.GyroY_Para.base_diff;
 381              		.loc 1 103 5 is_stmt 1 view .LVU124
 103:Algorithm/Control_Dep/Attitude/Att_Casecade_PID.c ****     ProcessPara.g_y.diff_min = -para.GyroY_Para.base_diff;
 382              		.loc 1 103 47 is_stmt 0 view .LVU125
 383 0106 DDED1C7A 		vldr.32	s15, [sp, #112]
 103:Algorithm/Control_Dep/Attitude/Att_Casecade_PID.c ****     ProcessPara.g_y.diff_min = -para.GyroY_Para.base_diff;
 384              		.loc 1 103 30 view .LVU126
 385 010a C3ED3C7A 		vstr.32	s15, [r3, #240]
 104:Algorithm/Control_Dep/Attitude/Att_Casecade_PID.c ****                    
 386              		.loc 1 104 5 is_stmt 1 view .LVU127
 104:Algorithm/Control_Dep/Attitude/Att_Casecade_PID.c ****                    
 387              		.loc 1 104 32 is_stmt 0 view .LVU128
 388 010e F1EE677A 		vneg.f32	s15, s15
 104:Algorithm/Control_Dep/Attitude/Att_Casecade_PID.c ****                    
 389              		.loc 1 104 30 view .LVU129
 390 0112 C3ED3D7A 		vstr.32	s15, [r3, #244]
 107:Algorithm/Control_Dep/Attitude/Att_Casecade_PID.c ****     {
 391              		.loc 1 107 5 is_stmt 1 view .LVU130
 107:Algorithm/Control_Dep/Attitude/Att_Casecade_PID.c ****     {
 392              		.loc 1 107 9 is_stmt 0 view .LVU131
 393 0116 9DED237A 		vldr.32	s14, [sp, #140]
 394 011a DFED317A 		vldr.32	s15, .L21+4
 395 011e 67EE277A 		vmul.f32	s15, s14, s15
 396 0122 FCEEE77A 		vcvt.u32.f32	s15, s15
 397 0126 17EE903A 		vmov	r3, s15	@ int
 398 012a 9BB2     		uxth	r3, r3
 107:Algorithm/Control_Dep/Attitude/Att_Casecade_PID.c ****     {
 399              		.loc 1 107 8 view .LVU132
 400 012c 5BB9     		cbnz	r3, .L20
 110:Algorithm/Control_Dep/Attitude/Att_Casecade_PID.c ****     }
 401              		.loc 1 110 16 view .LVU133
 402 012e 0020     		movs	r0, #0
 403 0130 49E0     		b	.L12
 404              	.L19:
  44:Algorithm/Control_Dep/Attitude/Att_Casecade_PID.c ****         ProcessPara.init = true;
 405              		.loc 1 44 9 is_stmt 1 view .LVU134
 406 0132 2A4C     		ldr	r4, .L21
 407 0134 4FF4C072 		mov	r2, #384
 408 0138 0021     		movs	r1, #0
 409 013a 2046     		mov	r0, r4
 410 013c FFF7FEFF 		bl	memset
 411              	.LVL21:
  45:Algorithm/Control_Dep/Attitude/Att_Casecade_PID.c ****     }
ARM GAS  C:\Users\8bit\AppData\Local\Temp\ccJ11auh.s 			page 13


 412              		.loc 1 45 9 view .LVU135
  45:Algorithm/Control_Dep/Attitude/Att_Casecade_PID.c ****     }
 413              		.loc 1 45 26 is_stmt 0 view .LVU136
 414 0140 0123     		movs	r3, #1
 415 0142 2370     		strb	r3, [r4]
 416 0144 67E7     		b	.L11
 417              	.L20:
 113:Algorithm/Control_Dep/Attitude/Att_Casecade_PID.c ****     ProcessPara.g_z.gI = para.GyroZ_Para.gI;
 418              		.loc 1 113 5 is_stmt 1 view .LVU137
 113:Algorithm/Control_Dep/Attitude/Att_Casecade_PID.c ****     ProcessPara.g_z.gI = para.GyroZ_Para.gI;
 419              		.loc 1 113 24 is_stmt 0 view .LVU138
 420 0146 254D     		ldr	r5, .L21
 421 0148 85ED527A 		vstr.32	s14, [r5, #328]
 114:Algorithm/Control_Dep/Attitude/Att_Casecade_PID.c ****     ProcessPara.g_z.gD = para.GyroZ_Para.gD;
 422              		.loc 1 114 5 is_stmt 1 view .LVU139
 114:Algorithm/Control_Dep/Attitude/Att_Casecade_PID.c ****     ProcessPara.g_z.gD = para.GyroZ_Para.gD;
 423              		.loc 1 114 41 is_stmt 0 view .LVU140
 424 014c 249B     		ldr	r3, [sp, #144]	@ float
 114:Algorithm/Control_Dep/Attitude/Att_Casecade_PID.c ****     ProcessPara.g_z.gD = para.GyroZ_Para.gD;
 425              		.loc 1 114 24 view .LVU141
 426 014e C5F85031 		str	r3, [r5, #336]	@ float
 115:Algorithm/Control_Dep/Attitude/Att_Casecade_PID.c ****     ProcessPara.g_z.diff_max = para.GyroZ_Para.base_diff;
 427              		.loc 1 115 5 is_stmt 1 view .LVU142
 115:Algorithm/Control_Dep/Attitude/Att_Casecade_PID.c ****     ProcessPara.g_z.diff_max = para.GyroZ_Para.base_diff;
 428              		.loc 1 115 41 is_stmt 0 view .LVU143
 429 0152 279B     		ldr	r3, [sp, #156]	@ float
 115:Algorithm/Control_Dep/Attitude/Att_Casecade_PID.c ****     ProcessPara.g_z.diff_max = para.GyroZ_Para.base_diff;
 430              		.loc 1 115 24 view .LVU144
 431 0154 C5F86431 		str	r3, [r5, #356]	@ float
 116:Algorithm/Control_Dep/Attitude/Att_Casecade_PID.c ****     ProcessPara.g_z.diff_min = -para.GyroZ_Para.base_diff;
 432              		.loc 1 116 5 is_stmt 1 view .LVU145
 116:Algorithm/Control_Dep/Attitude/Att_Casecade_PID.c ****     ProcessPara.g_z.diff_min = -para.GyroZ_Para.base_diff;
 433              		.loc 1 116 47 is_stmt 0 view .LVU146
 434 0158 DDED227A 		vldr.32	s15, [sp, #136]
 116:Algorithm/Control_Dep/Attitude/Att_Casecade_PID.c ****     ProcessPara.g_z.diff_min = -para.GyroZ_Para.base_diff;
 435              		.loc 1 116 30 view .LVU147
 436 015c C5ED4F7A 		vstr.32	s15, [r5, #316]
 117:Algorithm/Control_Dep/Attitude/Att_Casecade_PID.c **** 
 437              		.loc 1 117 5 is_stmt 1 view .LVU148
 117:Algorithm/Control_Dep/Attitude/Att_Casecade_PID.c **** 
 438              		.loc 1 117 32 is_stmt 0 view .LVU149
 439 0160 F1EE677A 		vneg.f32	s15, s15
 117:Algorithm/Control_Dep/Attitude/Att_Casecade_PID.c **** 
 440              		.loc 1 117 30 view .LVU150
 441 0164 C5ED507A 		vstr.32	s15, [r5, #320]
 119:Algorithm/Control_Dep/Attitude/Att_Casecade_PID.c ****     PID_Init(&ProcessPara.pitch, RCParam_Tmp);
 442              		.loc 1 119 5 is_stmt 1 view .LVU151
 119:Algorithm/Control_Dep/Attitude/Att_Casecade_PID.c ****     PID_Init(&ProcessPara.pitch, RCParam_Tmp);
 443              		.loc 1 119 23 is_stmt 0 view .LVU152
 444 0168 1E4B     		ldr	r3, .L21+8
 445 016a 0293     		str	r3, [sp, #8]	@ float
 120:Algorithm/Control_Dep/Attitude/Att_Casecade_PID.c ****     PID_Init(&ProcessPara.roll,  RCParam_Tmp);
 446              		.loc 1 120 5 is_stmt 1 view .LVU153
 447 016c 059B     		ldr	r3, [sp, #20]
 448 016e 0093     		str	r3, [sp]
 449 0170 02AC     		add	r4, sp, #8
 450 0172 94E80E00 		ldm	r4, {r1, r2, r3}
ARM GAS  C:\Users\8bit\AppData\Local\Temp\ccJ11auh.s 			page 14


 451 0176 281D     		adds	r0, r5, #4
 452 0178 FFF7FEFF 		bl	PID_Init
 453              	.LVL22:
 121:Algorithm/Control_Dep/Attitude/Att_Casecade_PID.c **** 
 454              		.loc 1 121 5 view .LVU154
 455 017c 059B     		ldr	r3, [sp, #20]
 456 017e 0093     		str	r3, [sp]
 457 0180 94E80E00 		ldm	r4, {r1, r2, r3}
 458 0184 05F15000 		add	r0, r5, #80
 459 0188 FFF7FEFF 		bl	PID_Init
 460              	.LVL23:
 123:Algorithm/Control_Dep/Attitude/Att_Casecade_PID.c ****     PID_Init(&ProcessPara.g_x, RCParam_Tmp);
 461              		.loc 1 123 5 view .LVU155
 123:Algorithm/Control_Dep/Attitude/Att_Casecade_PID.c ****     PID_Init(&ProcessPara.g_x, RCParam_Tmp);
 462              		.loc 1 123 23 is_stmt 0 view .LVU156
 463 018c 174B     		ldr	r3, .L21+16
 464 018e 0293     		str	r3, [sp, #8]	@ float
 124:Algorithm/Control_Dep/Attitude/Att_Casecade_PID.c ****     PID_Init(&ProcessPara.g_y, RCParam_Tmp);
 465              		.loc 1 124 5 is_stmt 1 view .LVU157
 466 0190 059B     		ldr	r3, [sp, #20]
 467 0192 0093     		str	r3, [sp]
 468 0194 94E80E00 		ldm	r4, {r1, r2, r3}
 469 0198 05F19C00 		add	r0, r5, #156
 470 019c FFF7FEFF 		bl	PID_Init
 471              	.LVL24:
 125:Algorithm/Control_Dep/Attitude/Att_Casecade_PID.c ****     PID_Init(&ProcessPara.g_z, RCParam_Tmp);
 472              		.loc 1 125 5 view .LVU158
 473 01a0 059B     		ldr	r3, [sp, #20]
 474 01a2 0093     		str	r3, [sp]
 475 01a4 94E80E00 		ldm	r4, {r1, r2, r3}
 476 01a8 05F1E800 		add	r0, r5, #232
 477 01ac FFF7FEFF 		bl	PID_Init
 478              	.LVL25:
 126:Algorithm/Control_Dep/Attitude/Att_Casecade_PID.c **** 
 479              		.loc 1 126 5 view .LVU159
 480 01b0 059B     		ldr	r3, [sp, #20]
 481 01b2 0093     		str	r3, [sp]
 482 01b4 94E80E00 		ldm	r4, {r1, r2, r3}
 483 01b8 05F59A70 		add	r0, r5, #308
 484 01bc FFF7FEFF 		bl	PID_Init
 485              	.LVL26:
 128:Algorithm/Control_Dep/Attitude/Att_Casecade_PID.c **** }
 486              		.loc 1 128 5 view .LVU160
 128:Algorithm/Control_Dep/Attitude/Att_Casecade_PID.c **** }
 487              		.loc 1 128 12 is_stmt 0 view .LVU161
 488 01c0 0120     		movs	r0, #1
 489 01c2 00E0     		b	.L12
 490              	.L13:
  53:Algorithm/Control_Dep/Attitude/Att_Casecade_PID.c ****     }
 491              		.loc 1 53 16 view .LVU162
 492 01c4 0020     		movs	r0, #0
 493              	.L12:
 129:Algorithm/Control_Dep/Attitude/Att_Casecade_PID.c **** 
 494              		.loc 1 129 1 view .LVU163
 495 01c6 07B0     		add	sp, sp, #28
 496              	.LCFI8:
 497              		.cfi_remember_state
ARM GAS  C:\Users\8bit\AppData\Local\Temp\ccJ11auh.s 			page 15


 498              		.cfi_def_cfa_offset 28
 499              		@ sp needed
 500 01c8 BDE83040 		pop	{r4, r5, lr}
 501              	.LCFI9:
 502              		.cfi_restore 14
 503              		.cfi_restore 5
 504              		.cfi_restore 4
 505              		.cfi_def_cfa_offset 16
 506 01cc 04B0     		add	sp, sp, #16
 507              	.LCFI10:
 508              		.cfi_def_cfa_offset 0
 509 01ce 7047     		bx	lr
 510              	.L14:
 511              	.LCFI11:
 512              		.cfi_restore_state
  69:Algorithm/Control_Dep/Attitude/Att_Casecade_PID.c ****     }
 513              		.loc 1 69 16 view .LVU164
 514 01d0 0020     		movs	r0, #0
 515 01d2 F8E7     		b	.L12
 516              	.L15:
  84:Algorithm/Control_Dep/Attitude/Att_Casecade_PID.c ****     }
 517              		.loc 1 84 16 view .LVU165
 518 01d4 0020     		movs	r0, #0
 519 01d6 F6E7     		b	.L12
 520              	.L16:
  97:Algorithm/Control_Dep/Attitude/Att_Casecade_PID.c ****     }
 521              		.loc 1 97 16 view .LVU166
 522 01d8 0020     		movs	r0, #0
 523 01da F4E7     		b	.L12
 524              	.L22:
 525              		.align	2
 526              	.L21:
 527 01dc 00000000 		.word	.LANCHOR0
 528 01e0 00007A44 		.word	1148846080
 529 01e4 0000A041 		.word	1101004800
 530 01e8 0000A0C1 		.word	-1046478848
 531 01ec 0000C842 		.word	1120403456
 532              		.cfi_endproc
 533              	.LFE8:
 535              		.global	Att_CasecadePID_Controller
 536              		.section	.bss.ProcessPara,"aw",%nobits
 537              		.align	2
 538              		.set	.LANCHOR0,. + 0
 541              	ProcessPara:
 542 0000 00000000 		.space	384
 542      00000000 
 542      00000000 
 542      00000000 
 542      00000000 
 543              		.section	.data.Att_CasecadePID_Controller,"aw"
 544              		.align	2
 547              	Att_CasecadePID_Controller:
 548 0000 00000000 		.word	Att_CheckParam_Validation
 549 0004 00000000 		.space	4
 550 0008 00000000 		.word	Att_Casecade_PID
 551              		.text
 552              	.Letext0:
ARM GAS  C:\Users\8bit\AppData\Local\Temp\ccJ11auh.s 			page 16


 553              		.file 2 "c:\\program files (x86)\\gnu arm embedded toolchain\\10 2021.10\\arm-none-eabi\\include\\
 554              		.file 3 "c:\\program files (x86)\\gnu arm embedded toolchain\\10 2021.10\\arm-none-eabi\\include\\
 555              		.file 4 "Algorithm/Filter_Dep/filter.h"
 556              		.file 5 "Algorithm/Control_Dep/pid.h"
 557              		.file 6 "Algorithm/Control_Dep/Attitude/Att_Control_Base.h"
 558              		.file 7 "Algorithm/Control_Dep/Attitude/Att_Casecade_PID.h"
 559              		.file 8 "System/FreeRTOS/FreeRTOSConfig.h"
 560              		.file 9 "<built-in>"
ARM GAS  C:\Users\8bit\AppData\Local\Temp\ccJ11auh.s 			page 17


DEFINED SYMBOLS
                            *ABS*:00000000 Att_Casecade_PID.c
C:\Users\8bit\AppData\Local\Temp\ccJ11auh.s:20     .text.Att_Casecade_PID:00000000 $t
C:\Users\8bit\AppData\Local\Temp\ccJ11auh.s:25     .text.Att_Casecade_PID:00000000 Att_Casecade_PID
C:\Users\8bit\AppData\Local\Temp\ccJ11auh.s:196    .text.Att_Casecade_PID:000000b4 $d
C:\Users\8bit\AppData\Local\Temp\ccJ11auh.s:201    .text.Att_CheckParam_Validation:00000000 $t
C:\Users\8bit\AppData\Local\Temp\ccJ11auh.s:206    .text.Att_CheckParam_Validation:00000000 Att_CheckParam_Validation
C:\Users\8bit\AppData\Local\Temp\ccJ11auh.s:527    .text.Att_CheckParam_Validation:000001dc $d
C:\Users\8bit\AppData\Local\Temp\ccJ11auh.s:547    .data.Att_CasecadePID_Controller:00000000 Att_CasecadePID_Controller
C:\Users\8bit\AppData\Local\Temp\ccJ11auh.s:537    .bss.ProcessPara:00000000 $d
C:\Users\8bit\AppData\Local\Temp\ccJ11auh.s:541    .bss.ProcessPara:00000000 ProcessPara
C:\Users\8bit\AppData\Local\Temp\ccJ11auh.s:544    .data.Att_CasecadePID_Controller:00000000 $d

UNDEFINED SYMBOLS
PID_Update
memset
PID_Init
