ARM GAS  /var/folders/lx/hc4sn_b53233_zkc9xbbl97r0000gp/T//ccWCKiN9.s 			page 1


   1              		.cpu cortex-m7
   2              		.eabi_attribute 28, 1
   3              		.eabi_attribute 20, 1
   4              		.eabi_attribute 21, 1
   5              		.eabi_attribute 23, 3
   6              		.eabi_attribute 24, 1
   7              		.eabi_attribute 25, 1
   8              		.eabi_attribute 26, 1
   9              		.eabi_attribute 30, 1
  10              		.eabi_attribute 34, 1
  11              		.eabi_attribute 18, 4
  12              		.file	"binary_tree.c"
  13              		.text
  14              	.Ltext0:
  15              		.cfi_sections	.debug_frame
  16              		.section	.text.Tree_Get_Depth,"ax",%progbits
  17              		.align	1
  18              		.arch armv7e-m
  19              		.syntax unified
  20              		.thumb
  21              		.thumb_func
  22              		.fpu fpv5-d16
  24              	Tree_Get_Depth:
  25              	.LVL0:
  26              	.LFB4:
  27              		.file 1 "DataStructure/binary_tree.c"
   1:DataStructure/binary_tree.c **** /*
   2:DataStructure/binary_tree.c **** coder: 8_B!T0
   3:DataStructure/binary_tree.c **** bref:
   4:DataStructure/binary_tree.c **** use binary tree structure estabilsh a error log tree make error trigger and seach effcient
   5:DataStructure/binary_tree.c **** */
   6:DataStructure/binary_tree.c **** #include "binary_tree.h"
   7:DataStructure/binary_tree.c **** #include "mmu.h"
   8:DataStructure/binary_tree.c **** 
   9:DataStructure/binary_tree.c **** #define TreeMalloc(x) MMU_Malloc(x)
  10:DataStructure/binary_tree.c **** #define TreeFree(x) MMU_Free(x)
  11:DataStructure/binary_tree.c **** 
  12:DataStructure/binary_tree.c **** static Tree_TypeDef *BinaryTree_Create(char *name, Tree_Callback insert, Tree_Search_Callback searc
  13:DataStructure/binary_tree.c **** static void Tree_Traverse(Tree_TypeDef *tree, Tree_TraverseType_List type, Tree_Traverse_Callback c
  14:DataStructure/binary_tree.c **** static bool Tree_Insert(Tree_TypeDef *tree, char *node_name, data_handle data_addr);
  15:DataStructure/binary_tree.c **** static TreeNode_Handle Tree_Search(Tree_TypeDef *tree, data_handle data);
  16:DataStructure/binary_tree.c **** 
  17:DataStructure/binary_tree.c **** BinaryTree_TypeDef BalanceTree = {
  18:DataStructure/binary_tree.c ****     .Create = BinaryTree_Create,
  19:DataStructure/binary_tree.c ****     .Insert = Tree_Insert,
  20:DataStructure/binary_tree.c ****     .Traverse = Tree_Traverse,
  21:DataStructure/binary_tree.c ****     .Search = Tree_Search,
  22:DataStructure/binary_tree.c **** };
  23:DataStructure/binary_tree.c **** 
  24:DataStructure/binary_tree.c **** static Tree_TypeDef *BinaryTree_Create(char *name, Tree_Callback insert, Tree_Search_Callback searc
  25:DataStructure/binary_tree.c **** {
  26:DataStructure/binary_tree.c ****     Tree_TypeDef *tree_tmp = NULL;
  27:DataStructure/binary_tree.c **** 
  28:DataStructure/binary_tree.c ****     tree_tmp = (Tree_TypeDef *)TreeMalloc(sizeof(Tree_TypeDef));
  29:DataStructure/binary_tree.c **** 
  30:DataStructure/binary_tree.c ****     if (tree_tmp)
  31:DataStructure/binary_tree.c ****     {
ARM GAS  /var/folders/lx/hc4sn_b53233_zkc9xbbl97r0000gp/T//ccWCKiN9.s 			page 2


  32:DataStructure/binary_tree.c ****         if ((insert != NULL) && (search != NULL) && (compare != NULL))
  33:DataStructure/binary_tree.c ****         {
  34:DataStructure/binary_tree.c ****             tree_tmp->name = name;
  35:DataStructure/binary_tree.c ****             tree_tmp->search_callback = search;
  36:DataStructure/binary_tree.c ****             tree_tmp->insert_callback = insert;
  37:DataStructure/binary_tree.c ****             tree_tmp->compare_callback = compare;
  38:DataStructure/binary_tree.c ****             tree_tmp->root_node = NULL;
  39:DataStructure/binary_tree.c ****         }
  40:DataStructure/binary_tree.c ****         else
  41:DataStructure/binary_tree.c ****         {
  42:DataStructure/binary_tree.c ****             TreeFree(tree_tmp);
  43:DataStructure/binary_tree.c ****             tree_tmp = NULL;
  44:DataStructure/binary_tree.c ****         }
  45:DataStructure/binary_tree.c ****     }
  46:DataStructure/binary_tree.c **** 
  47:DataStructure/binary_tree.c ****     return tree_tmp;
  48:DataStructure/binary_tree.c **** }
  49:DataStructure/binary_tree.c **** 
  50:DataStructure/binary_tree.c **** static int16_t Tree_Get_Depth(TreeNode_TypeDef *target)
  51:DataStructure/binary_tree.c **** {
  28              		.loc 1 51 1 view -0
  29              		.cfi_startproc
  30              		@ args = 0, pretend = 0, frame = 0
  31              		@ frame_needed = 0, uses_anonymous_args = 0
  52:DataStructure/binary_tree.c ****     int16_t l_depth = 0;
  32              		.loc 1 52 5 view .LVU1
  53:DataStructure/binary_tree.c ****     int16_t r_depth = 0;
  33              		.loc 1 53 5 view .LVU2
  54:DataStructure/binary_tree.c **** 
  55:DataStructure/binary_tree.c ****     if (target != NULL)
  34              		.loc 1 55 5 view .LVU3
  35              		.loc 1 55 8 is_stmt 0 view .LVU4
  36 0000 08B9     		cbnz	r0, .L8
  56:DataStructure/binary_tree.c ****     {
  57:DataStructure/binary_tree.c ****         l_depth = Tree_Get_Depth(target->L_Node) + 1;
  58:DataStructure/binary_tree.c ****         r_depth = Tree_Get_Depth(target->R_Node) + 1;
  59:DataStructure/binary_tree.c **** 
  60:DataStructure/binary_tree.c ****         return (l_depth >= r_depth) ? l_depth : r_depth;
  61:DataStructure/binary_tree.c ****     }
  62:DataStructure/binary_tree.c **** 
  63:DataStructure/binary_tree.c ****     return 0;
  37              		.loc 1 63 12 view .LVU5
  38 0002 0020     		movs	r0, #0
  39              	.LVL1:
  64:DataStructure/binary_tree.c **** }
  40              		.loc 1 64 1 view .LVU6
  41 0004 7047     		bx	lr
  42              	.LVL2:
  43              	.L8:
  51:DataStructure/binary_tree.c ****     int16_t l_depth = 0;
  44              		.loc 1 51 1 view .LVU7
  45 0006 38B5     		push	{r3, r4, r5, lr}
  46              	.LCFI0:
  47              		.cfi_def_cfa_offset 16
  48              		.cfi_offset 3, -16
  49              		.cfi_offset 4, -12
  50              		.cfi_offset 5, -8
ARM GAS  /var/folders/lx/hc4sn_b53233_zkc9xbbl97r0000gp/T//ccWCKiN9.s 			page 3


  51              		.cfi_offset 14, -4
  52 0008 0546     		mov	r5, r0
  57:DataStructure/binary_tree.c ****         r_depth = Tree_Get_Depth(target->R_Node) + 1;
  53              		.loc 1 57 9 is_stmt 1 view .LVU8
  57:DataStructure/binary_tree.c ****         r_depth = Tree_Get_Depth(target->R_Node) + 1;
  54              		.loc 1 57 19 is_stmt 0 view .LVU9
  55 000a D0F80E00 		ldr	r0, [r0, #14]	@ unaligned
  56              	.LVL3:
  57:DataStructure/binary_tree.c ****         r_depth = Tree_Get_Depth(target->R_Node) + 1;
  57              		.loc 1 57 19 view .LVU10
  58 000e FFF7F7FF 		bl	Tree_Get_Depth
  59              	.LVL4:
  60 0012 80B2     		uxth	r0, r0
  57:DataStructure/binary_tree.c ****         r_depth = Tree_Get_Depth(target->R_Node) + 1;
  61              		.loc 1 57 50 view .LVU11
  62 0014 0130     		adds	r0, r0, #1
  57:DataStructure/binary_tree.c ****         r_depth = Tree_Get_Depth(target->R_Node) + 1;
  63              		.loc 1 57 17 view .LVU12
  64 0016 04B2     		sxth	r4, r0
  65              	.LVL5:
  58:DataStructure/binary_tree.c **** 
  66              		.loc 1 58 9 is_stmt 1 view .LVU13
  58:DataStructure/binary_tree.c **** 
  67              		.loc 1 58 19 is_stmt 0 view .LVU14
  68 0018 D5F81200 		ldr	r0, [r5, #18]	@ unaligned
  69 001c FFF7F0FF 		bl	Tree_Get_Depth
  70              	.LVL6:
  71 0020 80B2     		uxth	r0, r0
  58:DataStructure/binary_tree.c **** 
  72              		.loc 1 58 50 view .LVU15
  73 0022 0130     		adds	r0, r0, #1
  58:DataStructure/binary_tree.c **** 
  74              		.loc 1 58 17 view .LVU16
  75 0024 00B2     		sxth	r0, r0
  76              	.LVL7:
  60:DataStructure/binary_tree.c ****     }
  77              		.loc 1 60 9 is_stmt 1 view .LVU17
  60:DataStructure/binary_tree.c ****     }
  78              		.loc 1 60 47 is_stmt 0 view .LVU18
  79 0026 A042     		cmp	r0, r4
  80 0028 B8BF     		it	lt
  81 002a 2046     		movlt	r0, r4
  82              	.LVL8:
  83              		.loc 1 64 1 view .LVU19
  84 002c 38BD     		pop	{r3, r4, r5, pc}
  85              		.loc 1 64 1 view .LVU20
  86              		.cfi_endproc
  87              	.LFE4:
  89              		.section	.text.Tree_Get_BalanceFactory,"ax",%progbits
  90              		.align	1
  91              		.syntax unified
  92              		.thumb
  93              		.thumb_func
  94              		.fpu fpv5-d16
  96              	Tree_Get_BalanceFactory:
  97              	.LVL9:
  98              	.LFB5:
ARM GAS  /var/folders/lx/hc4sn_b53233_zkc9xbbl97r0000gp/T//ccWCKiN9.s 			page 4


  65:DataStructure/binary_tree.c **** 
  66:DataStructure/binary_tree.c **** static int16_t Tree_Get_BalanceFactory(TreeNode_TypeDef *target)
  67:DataStructure/binary_tree.c **** {
  99              		.loc 1 67 1 is_stmt 1 view -0
 100              		.cfi_startproc
 101              		@ args = 0, pretend = 0, frame = 0
 102              		@ frame_needed = 0, uses_anonymous_args = 0
  68:DataStructure/binary_tree.c ****     if (target)
 103              		.loc 1 68 5 view .LVU22
 104              		.loc 1 68 8 is_stmt 0 view .LVU23
 105 0000 08B9     		cbnz	r0, .L16
  69:DataStructure/binary_tree.c ****         return Tree_Get_Depth(target->L_Node) - Tree_Get_Depth(target->R_Node);
  70:DataStructure/binary_tree.c **** 
  71:DataStructure/binary_tree.c ****     return 0;
 106              		.loc 1 71 12 view .LVU24
 107 0002 0020     		movs	r0, #0
 108              	.LVL10:
  72:DataStructure/binary_tree.c **** }
 109              		.loc 1 72 1 view .LVU25
 110 0004 7047     		bx	lr
 111              	.LVL11:
 112              	.L16:
  67:DataStructure/binary_tree.c ****     if (target)
 113              		.loc 1 67 1 view .LVU26
 114 0006 38B5     		push	{r3, r4, r5, lr}
 115              	.LCFI1:
 116              		.cfi_def_cfa_offset 16
 117              		.cfi_offset 3, -16
 118              		.cfi_offset 4, -12
 119              		.cfi_offset 5, -8
 120              		.cfi_offset 14, -4
 121 0008 0546     		mov	r5, r0
  69:DataStructure/binary_tree.c ****         return Tree_Get_Depth(target->L_Node) - Tree_Get_Depth(target->R_Node);
 122              		.loc 1 69 9 is_stmt 1 view .LVU27
  69:DataStructure/binary_tree.c ****         return Tree_Get_Depth(target->L_Node) - Tree_Get_Depth(target->R_Node);
 123              		.loc 1 69 16 is_stmt 0 view .LVU28
 124 000a D0F80E00 		ldr	r0, [r0, #14]	@ unaligned
 125              	.LVL12:
  69:DataStructure/binary_tree.c ****         return Tree_Get_Depth(target->L_Node) - Tree_Get_Depth(target->R_Node);
 126              		.loc 1 69 16 view .LVU29
 127 000e FFF7FEFF 		bl	Tree_Get_Depth
 128              	.LVL13:
 129 0012 84B2     		uxth	r4, r0
  69:DataStructure/binary_tree.c ****         return Tree_Get_Depth(target->L_Node) - Tree_Get_Depth(target->R_Node);
 130              		.loc 1 69 49 view .LVU30
 131 0014 D5F81200 		ldr	r0, [r5, #18]	@ unaligned
 132 0018 FFF7FEFF 		bl	Tree_Get_Depth
 133              	.LVL14:
 134 001c 80B2     		uxth	r0, r0
  69:DataStructure/binary_tree.c ****         return Tree_Get_Depth(target->L_Node) - Tree_Get_Depth(target->R_Node);
 135              		.loc 1 69 47 view .LVU31
 136 001e 201A     		subs	r0, r4, r0
 137 0020 00B2     		sxth	r0, r0
 138              		.loc 1 72 1 view .LVU32
 139 0022 38BD     		pop	{r3, r4, r5, pc}
 140              		.loc 1 72 1 view .LVU33
 141              		.cfi_endproc
ARM GAS  /var/folders/lx/hc4sn_b53233_zkc9xbbl97r0000gp/T//ccWCKiN9.s 			page 5


 142              	.LFE5:
 144              		.section	.text.Tree_Search_RootNode,"ax",%progbits
 145              		.align	1
 146              		.syntax unified
 147              		.thumb
 148              		.thumb_func
 149              		.fpu fpv5-d16
 151              	Tree_Search_RootNode:
 152              	.LVL15:
 153              	.LFB6:
  73:DataStructure/binary_tree.c **** 
  74:DataStructure/binary_tree.c **** static TreeNode_TypeDef *Tree_Search_RootNode(TreeNode_TypeDef *node)
  75:DataStructure/binary_tree.c **** {
 154              		.loc 1 75 1 is_stmt 1 view -0
 155              		.cfi_startproc
 156              		@ args = 0, pretend = 0, frame = 0
 157              		@ frame_needed = 0, uses_anonymous_args = 0
 158              		.loc 1 75 1 is_stmt 0 view .LVU35
 159 0000 08B5     		push	{r3, lr}
 160              	.LCFI2:
 161              		.cfi_def_cfa_offset 8
 162              		.cfi_offset 3, -8
 163              		.cfi_offset 14, -4
  76:DataStructure/binary_tree.c ****     if (node)
 164              		.loc 1 76 5 is_stmt 1 view .LVU36
 165              		.loc 1 76 8 is_stmt 0 view .LVU37
 166 0002 0346     		mov	r3, r0
 167 0004 28B1     		cbz	r0, .L18
  77:DataStructure/binary_tree.c ****     {
  78:DataStructure/binary_tree.c ****         if (node->F_Node)
 168              		.loc 1 78 9 is_stmt 1 view .LVU38
 169              		.loc 1 78 17 is_stmt 0 view .LVU39
 170 0006 D0F80A00 		ldr	r0, [r0, #10]	@ unaligned
 171              	.LVL16:
 172              		.loc 1 78 12 view .LVU40
 173 000a 10B1     		cbz	r0, .L18
  79:DataStructure/binary_tree.c ****         {
  80:DataStructure/binary_tree.c ****             return Tree_Search_RootNode(node->F_Node);
 174              		.loc 1 80 13 is_stmt 1 view .LVU41
 175              		.loc 1 80 20 is_stmt 0 view .LVU42
 176 000c FFF7F8FF 		bl	Tree_Search_RootNode
 177              	.LVL17:
 178              		.loc 1 80 20 view .LVU43
 179 0010 0346     		mov	r3, r0
 180              	.L18:
  81:DataStructure/binary_tree.c ****         }
  82:DataStructure/binary_tree.c ****         else
  83:DataStructure/binary_tree.c ****             return node;
  84:DataStructure/binary_tree.c ****     }
  85:DataStructure/binary_tree.c **** 
  86:DataStructure/binary_tree.c ****     return NULL;
  87:DataStructure/binary_tree.c **** }
 181              		.loc 1 87 1 view .LVU44
 182 0012 1846     		mov	r0, r3
 183 0014 08BD     		pop	{r3, pc}
 184              		.cfi_endproc
 185              	.LFE6:
ARM GAS  /var/folders/lx/hc4sn_b53233_zkc9xbbl97r0000gp/T//ccWCKiN9.s 			page 6


 187              		.section	.text.TreeNode_RightRotate,"ax",%progbits
 188              		.align	1
 189              		.syntax unified
 190              		.thumb
 191              		.thumb_func
 192              		.fpu fpv5-d16
 194              	TreeNode_RightRotate:
 195              	.LVL18:
 196              	.LFB7:
  88:DataStructure/binary_tree.c **** 
  89:DataStructure/binary_tree.c **** static TreeNode_TypeDef *TreeNode_RightRotate(TreeNode_TypeDef *node)
  90:DataStructure/binary_tree.c **** {
 197              		.loc 1 90 1 is_stmt 1 view -0
 198              		.cfi_startproc
 199              		@ args = 0, pretend = 0, frame = 0
 200              		@ frame_needed = 0, uses_anonymous_args = 0
 201              		.loc 1 90 1 is_stmt 0 view .LVU46
 202 0000 70B5     		push	{r4, r5, r6, lr}
 203              	.LCFI3:
 204              		.cfi_def_cfa_offset 16
 205              		.cfi_offset 4, -16
 206              		.cfi_offset 5, -12
 207              		.cfi_offset 6, -8
 208              		.cfi_offset 14, -4
  91:DataStructure/binary_tree.c ****     TreeNode_TypeDef *o_r = NULL; // old root node
 209              		.loc 1 91 5 is_stmt 1 view .LVU47
 210              	.LVL19:
  92:DataStructure/binary_tree.c ****     TreeNode_TypeDef *n_r = NULL; // new root node
 211              		.loc 1 92 5 view .LVU48
  93:DataStructure/binary_tree.c ****     TreeNode_TypeDef *f_n = NULL; // father node
 212              		.loc 1 93 5 view .LVU49
  94:DataStructure/binary_tree.c **** 
  95:DataStructure/binary_tree.c ****     if (node)
 213              		.loc 1 95 5 view .LVU50
 214              		.loc 1 95 8 is_stmt 0 view .LVU51
 215 0002 0546     		mov	r5, r0
 216 0004 50B3     		cbz	r0, .L25
  96:DataStructure/binary_tree.c ****     {
  97:DataStructure/binary_tree.c ****         o_r = node;
 217              		.loc 1 97 9 is_stmt 1 view .LVU52
 218              	.LVL20:
  98:DataStructure/binary_tree.c ****         n_r = node->L_Node;
 219              		.loc 1 98 9 view .LVU53
 220              		.loc 1 98 13 is_stmt 0 view .LVU54
 221 0006 D0F80E40 		ldr	r4, [r0, #14]	@ unaligned
 222              	.LVL21:
  99:DataStructure/binary_tree.c ****         f_n = node->F_Node;
 223              		.loc 1 99 9 is_stmt 1 view .LVU55
 224              		.loc 1 99 13 is_stmt 0 view .LVU56
 225 000a D0F80A60 		ldr	r6, [r0, #10]	@ unaligned
 226              	.LVL22:
 100:DataStructure/binary_tree.c **** 
 101:DataStructure/binary_tree.c ****         if (f_n)
 227              		.loc 1 101 9 is_stmt 1 view .LVU57
 228              		.loc 1 101 12 is_stmt 0 view .LVU58
 229 000e 76B1     		cbz	r6, .L22
 102:DataStructure/binary_tree.c ****         {
ARM GAS  /var/folders/lx/hc4sn_b53233_zkc9xbbl97r0000gp/T//ccWCKiN9.s 			page 7


 103:DataStructure/binary_tree.c ****             /* old root data < father node data */
 104:DataStructure/binary_tree.c ****             if (node->compare_callback(f_n->data, n_r->data) == n_r->data)
 230              		.loc 1 104 13 is_stmt 1 view .LVU59
 231              		.loc 1 104 21 is_stmt 0 view .LVU60
 232 0010 D0F81E30 		ldr	r3, [r0, #30]	@ unaligned
 233              		.loc 1 104 17 view .LVU61
 234 0014 6168     		ldr	r1, [r4, #4]	@ unaligned
 235 0016 7068     		ldr	r0, [r6, #4]	@ unaligned
 236              	.LVL23:
 237              		.loc 1 104 17 view .LVU62
 238 0018 9847     		blx	r3
 239              	.LVL24:
 240              		.loc 1 104 68 view .LVU63
 241 001a 6168     		ldr	r1, [r4, #4]	@ unaligned
 242              		.loc 1 104 16 view .LVU64
 243 001c 8842     		cmp	r0, r1
 244 001e 17D0     		beq	.L27
 105:DataStructure/binary_tree.c ****             {
 106:DataStructure/binary_tree.c ****                 f_n->L_Node = n_r;
 107:DataStructure/binary_tree.c ****             }
 108:DataStructure/binary_tree.c ****             else if (node->compare_callback(f_n->data, n_r->data) == n_r->data)
 245              		.loc 1 108 18 is_stmt 1 view .LVU65
 246              		.loc 1 108 26 is_stmt 0 view .LVU66
 247 0020 D5F81E30 		ldr	r3, [r5, #30]	@ unaligned
 248              		.loc 1 108 22 view .LVU67
 249 0024 7068     		ldr	r0, [r6, #4]	@ unaligned
 250 0026 9847     		blx	r3
 251              	.LVL25:
 252              		.loc 1 108 73 view .LVU68
 253 0028 6368     		ldr	r3, [r4, #4]	@ unaligned
 254              		.loc 1 108 21 view .LVU69
 255 002a 9842     		cmp	r0, r3
 256 002c 13D0     		beq	.L28
 257              	.L22:
 109:DataStructure/binary_tree.c ****             {
 110:DataStructure/binary_tree.c ****                 f_n->R_Node = n_r;
 111:DataStructure/binary_tree.c ****             }
 112:DataStructure/binary_tree.c ****         }
 113:DataStructure/binary_tree.c ****         n_r->F_Node = f_n;
 258              		.loc 1 113 9 is_stmt 1 view .LVU70
 259              		.loc 1 113 21 is_stmt 0 view .LVU71
 260 002e C4F80A60 		str	r6, [r4, #10]	@ unaligned
 114:DataStructure/binary_tree.c **** 
 115:DataStructure/binary_tree.c ****         o_r->L_Node = n_r->R_Node;
 261              		.loc 1 115 9 is_stmt 1 view .LVU72
 262              		.loc 1 115 26 is_stmt 0 view .LVU73
 263 0032 D4F81230 		ldr	r3, [r4, #18]	@ unaligned
 264              		.loc 1 115 21 view .LVU74
 265 0036 C5F80E30 		str	r3, [r5, #14]	@ unaligned
 116:DataStructure/binary_tree.c ****         if (n_r->R_Node)
 266              		.loc 1 116 9 is_stmt 1 view .LVU75
 267              		.loc 1 116 16 is_stmt 0 view .LVU76
 268 003a D4F81230 		ldr	r3, [r4, #18]	@ unaligned
 269              		.loc 1 116 12 view .LVU77
 270 003e 0BB1     		cbz	r3, .L24
 117:DataStructure/binary_tree.c ****         {
 118:DataStructure/binary_tree.c ****             n_r->R_Node->F_Node = o_r;
ARM GAS  /var/folders/lx/hc4sn_b53233_zkc9xbbl97r0000gp/T//ccWCKiN9.s 			page 8


 271              		.loc 1 118 13 is_stmt 1 view .LVU78
 272              		.loc 1 118 33 is_stmt 0 view .LVU79
 273 0040 C3F80A50 		str	r5, [r3, #10]	@ unaligned
 274              	.L24:
 119:DataStructure/binary_tree.c ****         }
 120:DataStructure/binary_tree.c ****         n_r->R_Node = o_r;
 275              		.loc 1 120 9 is_stmt 1 view .LVU80
 276              		.loc 1 120 21 is_stmt 0 view .LVU81
 277 0044 C4F81250 		str	r5, [r4, #18]	@ unaligned
 121:DataStructure/binary_tree.c ****         o_r->F_Node = n_r;
 278              		.loc 1 121 9 is_stmt 1 view .LVU82
 279              		.loc 1 121 21 is_stmt 0 view .LVU83
 280 0048 C5F80A40 		str	r4, [r5, #10]	@ unaligned
 281              	.LVL26:
 282              	.L20:
 122:DataStructure/binary_tree.c ****     }
 123:DataStructure/binary_tree.c **** 
 124:DataStructure/binary_tree.c ****     return n_r;
 125:DataStructure/binary_tree.c **** }
 283              		.loc 1 125 1 view .LVU84
 284 004c 2046     		mov	r0, r4
 285 004e 70BD     		pop	{r4, r5, r6, pc}
 286              	.LVL27:
 287              	.L27:
 106:DataStructure/binary_tree.c ****             }
 288              		.loc 1 106 17 is_stmt 1 view .LVU85
 106:DataStructure/binary_tree.c ****             }
 289              		.loc 1 106 29 is_stmt 0 view .LVU86
 290 0050 C6F80E40 		str	r4, [r6, #14]	@ unaligned
 291 0054 EBE7     		b	.L22
 292              	.L28:
 110:DataStructure/binary_tree.c ****             }
 293              		.loc 1 110 17 is_stmt 1 view .LVU87
 110:DataStructure/binary_tree.c ****             }
 294              		.loc 1 110 29 is_stmt 0 view .LVU88
 295 0056 C6F81240 		str	r4, [r6, #18]	@ unaligned
 296 005a E8E7     		b	.L22
 297              	.LVL28:
 298              	.L25:
  92:DataStructure/binary_tree.c ****     TreeNode_TypeDef *f_n = NULL; // father node
 299              		.loc 1 92 23 view .LVU89
 300 005c 0446     		mov	r4, r0
 301              	.LVL29:
 124:DataStructure/binary_tree.c **** }
 302              		.loc 1 124 5 is_stmt 1 view .LVU90
 124:DataStructure/binary_tree.c **** }
 303              		.loc 1 124 12 is_stmt 0 view .LVU91
 304 005e F5E7     		b	.L20
 305              		.cfi_endproc
 306              	.LFE7:
 308              		.section	.text.TreeNode_LeftRotate,"ax",%progbits
 309              		.align	1
 310              		.syntax unified
 311              		.thumb
 312              		.thumb_func
 313              		.fpu fpv5-d16
 315              	TreeNode_LeftRotate:
ARM GAS  /var/folders/lx/hc4sn_b53233_zkc9xbbl97r0000gp/T//ccWCKiN9.s 			page 9


 316              	.LVL30:
 317              	.LFB8:
 126:DataStructure/binary_tree.c **** 
 127:DataStructure/binary_tree.c **** static TreeNode_TypeDef *TreeNode_LeftRotate(TreeNode_TypeDef *node)
 128:DataStructure/binary_tree.c **** {
 318              		.loc 1 128 1 is_stmt 1 view -0
 319              		.cfi_startproc
 320              		@ args = 0, pretend = 0, frame = 0
 321              		@ frame_needed = 0, uses_anonymous_args = 0
 322              		.loc 1 128 1 is_stmt 0 view .LVU93
 323 0000 70B5     		push	{r4, r5, r6, lr}
 324              	.LCFI4:
 325              		.cfi_def_cfa_offset 16
 326              		.cfi_offset 4, -16
 327              		.cfi_offset 5, -12
 328              		.cfi_offset 6, -8
 329              		.cfi_offset 14, -4
 129:DataStructure/binary_tree.c ****     TreeNode_TypeDef *o_r = NULL; // old root node
 330              		.loc 1 129 5 is_stmt 1 view .LVU94
 331              	.LVL31:
 130:DataStructure/binary_tree.c ****     TreeNode_TypeDef *n_r = NULL; // new root node
 332              		.loc 1 130 5 view .LVU95
 131:DataStructure/binary_tree.c ****     TreeNode_TypeDef *f_n = NULL; // father node
 333              		.loc 1 131 5 view .LVU96
 132:DataStructure/binary_tree.c **** 
 133:DataStructure/binary_tree.c ****     if (node)
 334              		.loc 1 133 5 view .LVU97
 335              		.loc 1 133 8 is_stmt 0 view .LVU98
 336 0002 0546     		mov	r5, r0
 337 0004 50B3     		cbz	r0, .L34
 134:DataStructure/binary_tree.c ****     {
 135:DataStructure/binary_tree.c ****         o_r = node;
 338              		.loc 1 135 9 is_stmt 1 view .LVU99
 339              	.LVL32:
 136:DataStructure/binary_tree.c ****         n_r = node->R_Node;
 340              		.loc 1 136 9 view .LVU100
 341              		.loc 1 136 13 is_stmt 0 view .LVU101
 342 0006 D0F81240 		ldr	r4, [r0, #18]	@ unaligned
 343              	.LVL33:
 137:DataStructure/binary_tree.c ****         f_n = node->F_Node;
 344              		.loc 1 137 9 is_stmt 1 view .LVU102
 345              		.loc 1 137 13 is_stmt 0 view .LVU103
 346 000a D0F80A60 		ldr	r6, [r0, #10]	@ unaligned
 347              	.LVL34:
 138:DataStructure/binary_tree.c **** 
 139:DataStructure/binary_tree.c ****         if (f_n)
 348              		.loc 1 139 9 is_stmt 1 view .LVU104
 349              		.loc 1 139 12 is_stmt 0 view .LVU105
 350 000e 76B1     		cbz	r6, .L31
 140:DataStructure/binary_tree.c ****         {
 141:DataStructure/binary_tree.c ****             if (node->compare_callback(f_n->data, n_r->data) == n_r->data)
 351              		.loc 1 141 13 is_stmt 1 view .LVU106
 352              		.loc 1 141 21 is_stmt 0 view .LVU107
 353 0010 D0F81E30 		ldr	r3, [r0, #30]	@ unaligned
 354              		.loc 1 141 17 view .LVU108
 355 0014 6168     		ldr	r1, [r4, #4]	@ unaligned
 356 0016 7068     		ldr	r0, [r6, #4]	@ unaligned
ARM GAS  /var/folders/lx/hc4sn_b53233_zkc9xbbl97r0000gp/T//ccWCKiN9.s 			page 10


 357              	.LVL35:
 358              		.loc 1 141 17 view .LVU109
 359 0018 9847     		blx	r3
 360              	.LVL36:
 361              		.loc 1 141 68 view .LVU110
 362 001a 6168     		ldr	r1, [r4, #4]	@ unaligned
 363              		.loc 1 141 16 view .LVU111
 364 001c 8842     		cmp	r0, r1
 365 001e 17D0     		beq	.L36
 142:DataStructure/binary_tree.c ****             {
 143:DataStructure/binary_tree.c ****                 f_n->L_Node = n_r;
 144:DataStructure/binary_tree.c ****             }
 145:DataStructure/binary_tree.c ****             else if (node->compare_callback(f_n->data, n_r->data) == f_n->data)
 366              		.loc 1 145 18 is_stmt 1 view .LVU112
 367              		.loc 1 145 26 is_stmt 0 view .LVU113
 368 0020 D5F81E30 		ldr	r3, [r5, #30]	@ unaligned
 369              		.loc 1 145 22 view .LVU114
 370 0024 7068     		ldr	r0, [r6, #4]	@ unaligned
 371 0026 9847     		blx	r3
 372              	.LVL37:
 373              		.loc 1 145 73 view .LVU115
 374 0028 7368     		ldr	r3, [r6, #4]	@ unaligned
 375              		.loc 1 145 21 view .LVU116
 376 002a 9842     		cmp	r0, r3
 377 002c 13D0     		beq	.L37
 378              	.L31:
 146:DataStructure/binary_tree.c ****             {
 147:DataStructure/binary_tree.c ****                 f_n->R_Node = n_r;
 148:DataStructure/binary_tree.c ****             }
 149:DataStructure/binary_tree.c ****         }
 150:DataStructure/binary_tree.c ****         n_r->F_Node = f_n;
 379              		.loc 1 150 9 is_stmt 1 view .LVU117
 380              		.loc 1 150 21 is_stmt 0 view .LVU118
 381 002e C4F80A60 		str	r6, [r4, #10]	@ unaligned
 151:DataStructure/binary_tree.c **** 
 152:DataStructure/binary_tree.c ****         o_r->R_Node = n_r->L_Node;
 382              		.loc 1 152 9 is_stmt 1 view .LVU119
 383              		.loc 1 152 26 is_stmt 0 view .LVU120
 384 0032 D4F80E30 		ldr	r3, [r4, #14]	@ unaligned
 385              		.loc 1 152 21 view .LVU121
 386 0036 C5F81230 		str	r3, [r5, #18]	@ unaligned
 153:DataStructure/binary_tree.c ****         if (n_r->L_Node)
 387              		.loc 1 153 9 is_stmt 1 view .LVU122
 388              		.loc 1 153 16 is_stmt 0 view .LVU123
 389 003a D4F80E30 		ldr	r3, [r4, #14]	@ unaligned
 390              		.loc 1 153 12 view .LVU124
 391 003e 0BB1     		cbz	r3, .L33
 154:DataStructure/binary_tree.c ****         {
 155:DataStructure/binary_tree.c ****             n_r->L_Node->F_Node = o_r;
 392              		.loc 1 155 13 is_stmt 1 view .LVU125
 393              		.loc 1 155 33 is_stmt 0 view .LVU126
 394 0040 C3F80A50 		str	r5, [r3, #10]	@ unaligned
 395              	.L33:
 156:DataStructure/binary_tree.c ****         }
 157:DataStructure/binary_tree.c ****         n_r->L_Node = o_r;
 396              		.loc 1 157 9 is_stmt 1 view .LVU127
 397              		.loc 1 157 21 is_stmt 0 view .LVU128
ARM GAS  /var/folders/lx/hc4sn_b53233_zkc9xbbl97r0000gp/T//ccWCKiN9.s 			page 11


 398 0044 C4F80E50 		str	r5, [r4, #14]	@ unaligned
 158:DataStructure/binary_tree.c ****         o_r->F_Node = n_r;
 399              		.loc 1 158 9 is_stmt 1 view .LVU129
 400              		.loc 1 158 21 is_stmt 0 view .LVU130
 401 0048 C5F80A40 		str	r4, [r5, #10]	@ unaligned
 402              	.LVL38:
 403              	.L29:
 159:DataStructure/binary_tree.c ****     }
 160:DataStructure/binary_tree.c **** 
 161:DataStructure/binary_tree.c ****     return n_r;
 162:DataStructure/binary_tree.c **** }
 404              		.loc 1 162 1 view .LVU131
 405 004c 2046     		mov	r0, r4
 406 004e 70BD     		pop	{r4, r5, r6, pc}
 407              	.LVL39:
 408              	.L36:
 143:DataStructure/binary_tree.c ****             }
 409              		.loc 1 143 17 is_stmt 1 view .LVU132
 143:DataStructure/binary_tree.c ****             }
 410              		.loc 1 143 29 is_stmt 0 view .LVU133
 411 0050 C6F80E40 		str	r4, [r6, #14]	@ unaligned
 412 0054 EBE7     		b	.L31
 413              	.L37:
 147:DataStructure/binary_tree.c ****             }
 414              		.loc 1 147 17 is_stmt 1 view .LVU134
 147:DataStructure/binary_tree.c ****             }
 415              		.loc 1 147 29 is_stmt 0 view .LVU135
 416 0056 C6F81240 		str	r4, [r6, #18]	@ unaligned
 417 005a E8E7     		b	.L31
 418              	.LVL40:
 419              	.L34:
 130:DataStructure/binary_tree.c ****     TreeNode_TypeDef *f_n = NULL; // father node
 420              		.loc 1 130 23 view .LVU136
 421 005c 0446     		mov	r4, r0
 422              	.LVL41:
 161:DataStructure/binary_tree.c **** }
 423              		.loc 1 161 5 is_stmt 1 view .LVU137
 161:DataStructure/binary_tree.c **** }
 424              		.loc 1 161 12 is_stmt 0 view .LVU138
 425 005e F5E7     		b	.L29
 426              		.cfi_endproc
 427              	.LFE8:
 429              		.section	.text.TreeNoe_Dynamic_Trim,"ax",%progbits
 430              		.align	1
 431              		.syntax unified
 432              		.thumb
 433              		.thumb_func
 434              		.fpu fpv5-d16
 436              	TreeNoe_Dynamic_Trim:
 437              	.LVL42:
 438              	.LFB9:
 163:DataStructure/binary_tree.c **** 
 164:DataStructure/binary_tree.c **** static void TreeNoe_Dynamic_Trim(TreeNode_TypeDef *root)
 165:DataStructure/binary_tree.c **** {
 439              		.loc 1 165 1 is_stmt 1 view -0
 440              		.cfi_startproc
 441              		@ args = 0, pretend = 0, frame = 0
ARM GAS  /var/folders/lx/hc4sn_b53233_zkc9xbbl97r0000gp/T//ccWCKiN9.s 			page 12


 442              		@ frame_needed = 0, uses_anonymous_args = 0
 166:DataStructure/binary_tree.c ****     int16_t bf = 0;
 443              		.loc 1 166 5 view .LVU140
 167:DataStructure/binary_tree.c ****     int16_t lbf = 0;
 444              		.loc 1 167 5 view .LVU141
 168:DataStructure/binary_tree.c ****     int16_t rbf = 0;
 445              		.loc 1 168 5 view .LVU142
 169:DataStructure/binary_tree.c **** 
 170:DataStructure/binary_tree.c ****     if (root == NULL)
 446              		.loc 1 170 5 view .LVU143
 447              		.loc 1 170 8 is_stmt 0 view .LVU144
 448 0000 60B3     		cbz	r0, .L44
 165:DataStructure/binary_tree.c ****     int16_t bf = 0;
 449              		.loc 1 165 1 view .LVU145
 450 0002 38B5     		push	{r3, r4, r5, lr}
 451              	.LCFI5:
 452              		.cfi_def_cfa_offset 16
 453              		.cfi_offset 3, -16
 454              		.cfi_offset 4, -12
 455              		.cfi_offset 5, -8
 456              		.cfi_offset 14, -4
 457 0004 0446     		mov	r4, r0
 171:DataStructure/binary_tree.c ****         return;
 172:DataStructure/binary_tree.c **** 
 173:DataStructure/binary_tree.c ****     bf = Tree_Get_BalanceFactory(root);
 458              		.loc 1 173 5 is_stmt 1 view .LVU146
 459              		.loc 1 173 10 is_stmt 0 view .LVU147
 460 0006 FFF7FEFF 		bl	Tree_Get_BalanceFactory
 461              	.LVL43:
 174:DataStructure/binary_tree.c ****     if (bf == 2) // LL
 462              		.loc 1 174 5 is_stmt 1 view .LVU148
 463              		.loc 1 174 8 is_stmt 0 view .LVU149
 464 000a 0228     		cmp	r0, #2
 465 000c 03D0     		beq	.L47
 175:DataStructure/binary_tree.c ****     {
 176:DataStructure/binary_tree.c ****         lbf = Tree_Get_BalanceFactory(root->L_Node);
 177:DataStructure/binary_tree.c ****         if (lbf == -1) // LR
 178:DataStructure/binary_tree.c ****         {
 179:DataStructure/binary_tree.c ****             root->L_Node = TreeNode_LeftRotate(root->L_Node);
 180:DataStructure/binary_tree.c ****         }
 181:DataStructure/binary_tree.c **** 
 182:DataStructure/binary_tree.c ****         root = TreeNode_RightRotate(root);
 183:DataStructure/binary_tree.c ****     }
 184:DataStructure/binary_tree.c ****     else if (bf == -2) // RR
 466              		.loc 1 184 10 is_stmt 1 view .LVU150
 467              		.loc 1 184 13 is_stmt 0 view .LVU151
 468 000e 10F1020F 		cmn	r0, #2
 469 0012 12D0     		beq	.L48
 470              	.LVL44:
 471              	.L38:
 185:DataStructure/binary_tree.c ****     {
 186:DataStructure/binary_tree.c ****         rbf = Tree_Get_BalanceFactory(root->R_Node);
 187:DataStructure/binary_tree.c ****         if (rbf == 1) // RL
 188:DataStructure/binary_tree.c ****         {
 189:DataStructure/binary_tree.c ****             root->R_Node = TreeNode_RightRotate(root->R_Node);
 190:DataStructure/binary_tree.c ****         }
 191:DataStructure/binary_tree.c **** 
ARM GAS  /var/folders/lx/hc4sn_b53233_zkc9xbbl97r0000gp/T//ccWCKiN9.s 			page 13


 192:DataStructure/binary_tree.c ****         root = TreeNode_LeftRotate(root);
 193:DataStructure/binary_tree.c ****     }
 194:DataStructure/binary_tree.c **** }
 472              		.loc 1 194 1 view .LVU152
 473 0014 38BD     		pop	{r3, r4, r5, pc}
 474              	.LVL45:
 475              	.L47:
 176:DataStructure/binary_tree.c ****         if (lbf == -1) // LR
 476              		.loc 1 176 9 is_stmt 1 view .LVU153
 176:DataStructure/binary_tree.c ****         if (lbf == -1) // LR
 477              		.loc 1 176 43 is_stmt 0 view .LVU154
 478 0016 D4F80E50 		ldr	r5, [r4, #14]	@ unaligned
 176:DataStructure/binary_tree.c ****         if (lbf == -1) // LR
 479              		.loc 1 176 15 view .LVU155
 480 001a 2846     		mov	r0, r5
 481              	.LVL46:
 176:DataStructure/binary_tree.c ****         if (lbf == -1) // LR
 482              		.loc 1 176 15 view .LVU156
 483 001c FFF7FEFF 		bl	Tree_Get_BalanceFactory
 484              	.LVL47:
 177:DataStructure/binary_tree.c ****         {
 485              		.loc 1 177 9 is_stmt 1 view .LVU157
 177:DataStructure/binary_tree.c ****         {
 486              		.loc 1 177 12 is_stmt 0 view .LVU158
 487 0020 B0F1FF3F 		cmp	r0, #-1
 488 0024 03D0     		beq	.L49
 489              	.LVL48:
 490              	.L41:
 182:DataStructure/binary_tree.c ****     }
 491              		.loc 1 182 9 is_stmt 1 view .LVU159
 182:DataStructure/binary_tree.c ****     }
 492              		.loc 1 182 16 is_stmt 0 view .LVU160
 493 0026 2046     		mov	r0, r4
 494 0028 FFF7FEFF 		bl	TreeNode_RightRotate
 495              	.LVL49:
 182:DataStructure/binary_tree.c ****     }
 496              		.loc 1 182 16 view .LVU161
 497 002c F2E7     		b	.L38
 498              	.LVL50:
 499              	.L49:
 179:DataStructure/binary_tree.c ****         }
 500              		.loc 1 179 13 is_stmt 1 view .LVU162
 179:DataStructure/binary_tree.c ****         }
 501              		.loc 1 179 28 is_stmt 0 view .LVU163
 502 002e 2846     		mov	r0, r5
 503              	.LVL51:
 179:DataStructure/binary_tree.c ****         }
 504              		.loc 1 179 28 view .LVU164
 505 0030 FFF7FEFF 		bl	TreeNode_LeftRotate
 506              	.LVL52:
 179:DataStructure/binary_tree.c ****         }
 507              		.loc 1 179 26 view .LVU165
 508 0034 C4F80E00 		str	r0, [r4, #14]	@ unaligned
 509 0038 F5E7     		b	.L41
 510              	.LVL53:
 511              	.L48:
 186:DataStructure/binary_tree.c ****         if (rbf == 1) // RL
ARM GAS  /var/folders/lx/hc4sn_b53233_zkc9xbbl97r0000gp/T//ccWCKiN9.s 			page 14


 512              		.loc 1 186 9 is_stmt 1 view .LVU166
 186:DataStructure/binary_tree.c ****         if (rbf == 1) // RL
 513              		.loc 1 186 43 is_stmt 0 view .LVU167
 514 003a D4F81250 		ldr	r5, [r4, #18]	@ unaligned
 186:DataStructure/binary_tree.c ****         if (rbf == 1) // RL
 515              		.loc 1 186 15 view .LVU168
 516 003e 2846     		mov	r0, r5
 517              	.LVL54:
 186:DataStructure/binary_tree.c ****         if (rbf == 1) // RL
 518              		.loc 1 186 15 view .LVU169
 519 0040 FFF7FEFF 		bl	Tree_Get_BalanceFactory
 520              	.LVL55:
 187:DataStructure/binary_tree.c ****         {
 521              		.loc 1 187 9 is_stmt 1 view .LVU170
 187:DataStructure/binary_tree.c ****         {
 522              		.loc 1 187 12 is_stmt 0 view .LVU171
 523 0044 0128     		cmp	r0, #1
 524 0046 03D0     		beq	.L50
 525              	.LVL56:
 526              	.L42:
 192:DataStructure/binary_tree.c ****     }
 527              		.loc 1 192 9 is_stmt 1 view .LVU172
 192:DataStructure/binary_tree.c ****     }
 528              		.loc 1 192 16 is_stmt 0 view .LVU173
 529 0048 2046     		mov	r0, r4
 530 004a FFF7FEFF 		bl	TreeNode_LeftRotate
 531              	.LVL57:
 192:DataStructure/binary_tree.c ****     }
 532              		.loc 1 192 16 view .LVU174
 533 004e E1E7     		b	.L38
 534              	.LVL58:
 535              	.L50:
 189:DataStructure/binary_tree.c ****         }
 536              		.loc 1 189 13 is_stmt 1 view .LVU175
 189:DataStructure/binary_tree.c ****         }
 537              		.loc 1 189 28 is_stmt 0 view .LVU176
 538 0050 2846     		mov	r0, r5
 539              	.LVL59:
 189:DataStructure/binary_tree.c ****         }
 540              		.loc 1 189 28 view .LVU177
 541 0052 FFF7FEFF 		bl	TreeNode_RightRotate
 542              	.LVL60:
 189:DataStructure/binary_tree.c ****         }
 543              		.loc 1 189 26 view .LVU178
 544 0056 C4F81200 		str	r0, [r4, #18]	@ unaligned
 545 005a F5E7     		b	.L42
 546              	.LVL61:
 547              	.L44:
 548              	.LCFI6:
 549              		.cfi_def_cfa_offset 0
 550              		.cfi_restore 3
 551              		.cfi_restore 4
 552              		.cfi_restore 5
 553              		.cfi_restore 14
 189:DataStructure/binary_tree.c ****         }
 554              		.loc 1 189 26 view .LVU179
 555 005c 7047     		bx	lr
ARM GAS  /var/folders/lx/hc4sn_b53233_zkc9xbbl97r0000gp/T//ccWCKiN9.s 			page 15


 556              		.cfi_endproc
 557              	.LFE9:
 559              		.section	.text.TreeNode_Insert,"ax",%progbits
 560              		.align	1
 561              		.syntax unified
 562              		.thumb
 563              		.thumb_func
 564              		.fpu fpv5-d16
 566              	TreeNode_Insert:
 567              	.LVL62:
 568              	.LFB10:
 195:DataStructure/binary_tree.c **** 
 196:DataStructure/binary_tree.c **** static bool TreeNode_Insert(TreeNode_TypeDef *root, TreeNode_TypeDef *node)
 197:DataStructure/binary_tree.c **** {
 569              		.loc 1 197 1 is_stmt 1 view -0
 570              		.cfi_startproc
 571              		@ args = 0, pretend = 0, frame = 0
 572              		@ frame_needed = 0, uses_anonymous_args = 0
 573              		.loc 1 197 1 is_stmt 0 view .LVU181
 574 0000 70B5     		push	{r4, r5, r6, lr}
 575              	.LCFI7:
 576              		.cfi_def_cfa_offset 16
 577              		.cfi_offset 4, -16
 578              		.cfi_offset 5, -12
 579              		.cfi_offset 6, -8
 580              		.cfi_offset 14, -4
 198:DataStructure/binary_tree.c ****     data_handle hdl_tmp = 0;
 581              		.loc 1 198 5 is_stmt 1 view .LVU182
 582              	.LVL63:
 199:DataStructure/binary_tree.c **** 
 200:DataStructure/binary_tree.c ****     if (root == NULL || node == NULL)
 583              		.loc 1 200 5 view .LVU183
 584              		.loc 1 200 8 is_stmt 0 view .LVU184
 585 0002 0029     		cmp	r1, #0
 586 0004 18BF     		it	ne
 587 0006 0028     		cmpne	r0, #0
 588 0008 0CBF     		ite	eq
 589 000a 0124     		moveq	r4, #1
 590 000c 0024     		movne	r4, #0
 591 000e 28D0     		beq	.L56
 592 0010 0546     		mov	r5, r0
 593 0012 0E46     		mov	r6, r1
 201:DataStructure/binary_tree.c ****         return false;
 202:DataStructure/binary_tree.c **** 
 203:DataStructure/binary_tree.c ****     hdl_tmp = root->insert_callback(root->data, node->data);
 594              		.loc 1 203 5 is_stmt 1 view .LVU185
 595              		.loc 1 203 19 is_stmt 0 view .LVU186
 596 0014 D0F81630 		ldr	r3, [r0, #22]	@ unaligned
 597              		.loc 1 203 15 view .LVU187
 598 0018 4968     		ldr	r1, [r1, #4]	@ unaligned
 599              	.LVL64:
 600              		.loc 1 203 15 view .LVU188
 601 001a 4068     		ldr	r0, [r0, #4]	@ unaligned
 602              	.LVL65:
 603              		.loc 1 203 15 view .LVU189
 604 001c 9847     		blx	r3
 605              	.LVL66:
ARM GAS  /var/folders/lx/hc4sn_b53233_zkc9xbbl97r0000gp/T//ccWCKiN9.s 			page 16


 204:DataStructure/binary_tree.c **** 
 205:DataStructure/binary_tree.c ****     /* insert callback return smaller data`s addr */
 206:DataStructure/binary_tree.c ****     if (hdl_tmp == node->data)
 606              		.loc 1 206 5 is_stmt 1 view .LVU190
 607              		.loc 1 206 24 is_stmt 0 view .LVU191
 608 001e 7368     		ldr	r3, [r6, #4]	@ unaligned
 609              		.loc 1 206 8 view .LVU192
 610 0020 8342     		cmp	r3, r0
 611 0022 0BD0     		beq	.L58
 207:DataStructure/binary_tree.c ****     {
 208:DataStructure/binary_tree.c ****         /* insert node data smaller than root/target_node data */
 209:DataStructure/binary_tree.c ****         if (root->L_Node != NULL)
 210:DataStructure/binary_tree.c ****         {
 211:DataStructure/binary_tree.c ****             return TreeNode_Insert(root->L_Node, node);
 212:DataStructure/binary_tree.c ****         }
 213:DataStructure/binary_tree.c ****         else
 214:DataStructure/binary_tree.c ****         {
 215:DataStructure/binary_tree.c ****             node->F_Node = root;
 216:DataStructure/binary_tree.c ****             root->L_Node = node;
 217:DataStructure/binary_tree.c ****         }
 218:DataStructure/binary_tree.c ****     }
 219:DataStructure/binary_tree.c ****     else if (hdl_tmp == root->data)
 612              		.loc 1 219 10 is_stmt 1 view .LVU193
 613              		.loc 1 219 29 is_stmt 0 view .LVU194
 614 0024 6B68     		ldr	r3, [r5, #4]	@ unaligned
 615              		.loc 1 219 13 view .LVU195
 616 0026 8342     		cmp	r3, r0
 617 0028 1CD1     		bne	.L52
 220:DataStructure/binary_tree.c ****     {
 221:DataStructure/binary_tree.c ****         /* insert node data bigger than root/target_node data  */
 222:DataStructure/binary_tree.c ****         if (root->R_Node != NULL)
 618              		.loc 1 222 9 is_stmt 1 view .LVU196
 619              		.loc 1 222 17 is_stmt 0 view .LVU197
 620 002a D5F81200 		ldr	r0, [r5, #18]	@ unaligned
 621              	.LVL67:
 622              		.loc 1 222 12 view .LVU198
 623 002e 98B9     		cbnz	r0, .L59
 223:DataStructure/binary_tree.c ****         {
 224:DataStructure/binary_tree.c ****             return TreeNode_Insert(root->R_Node, node);
 225:DataStructure/binary_tree.c ****         }
 226:DataStructure/binary_tree.c ****         else
 227:DataStructure/binary_tree.c ****         {
 228:DataStructure/binary_tree.c ****             node->F_Node = root;
 624              		.loc 1 228 13 is_stmt 1 view .LVU199
 625              		.loc 1 228 26 is_stmt 0 view .LVU200
 626 0030 C6F80A50 		str	r5, [r6, #10]	@ unaligned
 229:DataStructure/binary_tree.c ****             root->R_Node = node;
 627              		.loc 1 229 13 is_stmt 1 view .LVU201
 628              		.loc 1 229 26 is_stmt 0 view .LVU202
 629 0034 C5F81260 		str	r6, [r5, #18]	@ unaligned
 230:DataStructure/binary_tree.c ****         }
 231:DataStructure/binary_tree.c ****     }
 232:DataStructure/binary_tree.c ****     else
 233:DataStructure/binary_tree.c ****         return false;
 234:DataStructure/binary_tree.c **** 
 235:DataStructure/binary_tree.c ****     return true;
 630              		.loc 1 235 12 view .LVU203
ARM GAS  /var/folders/lx/hc4sn_b53233_zkc9xbbl97r0000gp/T//ccWCKiN9.s 			page 17


 631 0038 0124     		movs	r4, #1
 632 003a 13E0     		b	.L52
 633              	.LVL68:
 634              	.L58:
 209:DataStructure/binary_tree.c ****         {
 635              		.loc 1 209 9 is_stmt 1 view .LVU204
 209:DataStructure/binary_tree.c ****         {
 636              		.loc 1 209 17 is_stmt 0 view .LVU205
 637 003c D5F80E00 		ldr	r0, [r5, #14]	@ unaligned
 638              	.LVL69:
 209:DataStructure/binary_tree.c ****         {
 639              		.loc 1 209 12 view .LVU206
 640 0040 28B9     		cbnz	r0, .L60
 215:DataStructure/binary_tree.c ****             root->L_Node = node;
 641              		.loc 1 215 13 is_stmt 1 view .LVU207
 215:DataStructure/binary_tree.c ****             root->L_Node = node;
 642              		.loc 1 215 26 is_stmt 0 view .LVU208
 643 0042 C6F80A50 		str	r5, [r6, #10]	@ unaligned
 216:DataStructure/binary_tree.c ****         }
 644              		.loc 1 216 13 is_stmt 1 view .LVU209
 216:DataStructure/binary_tree.c ****         }
 645              		.loc 1 216 26 is_stmt 0 view .LVU210
 646 0046 C5F80E60 		str	r6, [r5, #14]	@ unaligned
 647              		.loc 1 235 12 view .LVU211
 648 004a 0124     		movs	r4, #1
 649 004c 0AE0     		b	.L52
 650              	.L60:
 211:DataStructure/binary_tree.c ****         }
 651              		.loc 1 211 13 is_stmt 1 view .LVU212
 211:DataStructure/binary_tree.c ****         }
 652              		.loc 1 211 20 is_stmt 0 view .LVU213
 653 004e 3146     		mov	r1, r6
 654 0050 FFF7D6FF 		bl	TreeNode_Insert
 655              	.LVL70:
 656 0054 0446     		mov	r4, r0
 657 0056 05E0     		b	.L52
 658              	.L59:
 224:DataStructure/binary_tree.c ****         }
 659              		.loc 1 224 13 is_stmt 1 view .LVU214
 224:DataStructure/binary_tree.c ****         }
 660              		.loc 1 224 20 is_stmt 0 view .LVU215
 661 0058 3146     		mov	r1, r6
 662 005a FFF7D1FF 		bl	TreeNode_Insert
 663              	.LVL71:
 664 005e 0446     		mov	r4, r0
 665 0060 00E0     		b	.L52
 666              	.LVL72:
 667              	.L56:
 201:DataStructure/binary_tree.c **** 
 668              		.loc 1 201 16 view .LVU216
 669 0062 0024     		movs	r4, #0
 670              	.LVL73:
 671              	.L52:
 236:DataStructure/binary_tree.c **** }
 672              		.loc 1 236 1 view .LVU217
 673 0064 2046     		mov	r0, r4
 674 0066 70BD     		pop	{r4, r5, r6, pc}
ARM GAS  /var/folders/lx/hc4sn_b53233_zkc9xbbl97r0000gp/T//ccWCKiN9.s 			page 18


 675              		.cfi_endproc
 676              	.LFE10:
 678              		.section	.text.TreeNode_Update_BalanceFactory,"ax",%progbits
 679              		.align	1
 680              		.syntax unified
 681              		.thumb
 682              		.thumb_func
 683              		.fpu fpv5-d16
 685              	TreeNode_Update_BalanceFactory:
 686              	.LVL74:
 687              	.LFB11:
 237:DataStructure/binary_tree.c **** 
 238:DataStructure/binary_tree.c **** static void TreeNode_Update_BalanceFactory(TreeNode_TypeDef *node)
 239:DataStructure/binary_tree.c **** {
 688              		.loc 1 239 1 is_stmt 1 view -0
 689              		.cfi_startproc
 690              		@ args = 0, pretend = 0, frame = 0
 691              		@ frame_needed = 0, uses_anonymous_args = 0
 240:DataStructure/binary_tree.c ****     if (node)
 692              		.loc 1 240 5 view .LVU219
 693              		.loc 1 240 8 is_stmt 0 view .LVU220
 694 0000 C0B1     		cbz	r0, .L64
 239:DataStructure/binary_tree.c ****     if (node)
 695              		.loc 1 239 1 view .LVU221
 696 0002 10B5     		push	{r4, lr}
 697              	.LCFI8:
 698              		.cfi_def_cfa_offset 8
 699              		.cfi_offset 4, -8
 700              		.cfi_offset 14, -4
 701 0004 0446     		mov	r4, r0
 241:DataStructure/binary_tree.c ****     {
 242:DataStructure/binary_tree.c ****         node->balance_factory = Tree_Get_BalanceFactory(node);
 702              		.loc 1 242 9 is_stmt 1 view .LVU222
 703              		.loc 1 242 33 is_stmt 0 view .LVU223
 704 0006 FFF7FEFF 		bl	Tree_Get_BalanceFactory
 705              	.LVL75:
 706              		.loc 1 242 31 view .LVU224
 707 000a 2081     		strh	r0, [r4, #8]	@ unaligned
 243:DataStructure/binary_tree.c **** 
 244:DataStructure/binary_tree.c ****         TreeNode_Update_BalanceFactory(node->L_Node);
 708              		.loc 1 244 9 is_stmt 1 view .LVU225
 709 000c D4F80E00 		ldr	r0, [r4, #14]	@ unaligned
 710 0010 FFF7F6FF 		bl	TreeNode_Update_BalanceFactory
 711              	.LVL76:
 245:DataStructure/binary_tree.c ****         TreeNode_Update_BalanceFactory(node->R_Node);
 712              		.loc 1 245 9 view .LVU226
 713 0014 D4F81200 		ldr	r0, [r4, #18]	@ unaligned
 714 0018 FFF7F2FF 		bl	TreeNode_Update_BalanceFactory
 715              	.LVL77:
 246:DataStructure/binary_tree.c **** 
 247:DataStructure/binary_tree.c ****         if ((node->balance_factory == 2) || (node->balance_factory == -2))
 716              		.loc 1 247 9 view .LVU227
 717              		.loc 1 247 18 is_stmt 0 view .LVU228
 718 001c B4F90830 		ldrsh	r3, [r4, #8]	@ unaligned
 719              		.loc 1 247 12 view .LVU229
 720 0020 13F1020F 		cmn	r3, #2
 721 0024 18BF     		it	ne
ARM GAS  /var/folders/lx/hc4sn_b53233_zkc9xbbl97r0000gp/T//ccWCKiN9.s 			page 19


 722 0026 022B     		cmpne	r3, #2
 723 0028 00D0     		beq	.L67
 724              	.L61:
 248:DataStructure/binary_tree.c ****         {
 249:DataStructure/binary_tree.c ****             /* dynamic balance trim */
 250:DataStructure/binary_tree.c ****             TreeNoe_Dynamic_Trim(node);
 251:DataStructure/binary_tree.c ****         }
 252:DataStructure/binary_tree.c ****     }
 253:DataStructure/binary_tree.c **** }
 725              		.loc 1 253 1 view .LVU230
 726 002a 10BD     		pop	{r4, pc}
 727              	.LVL78:
 728              	.L67:
 250:DataStructure/binary_tree.c ****         }
 729              		.loc 1 250 13 is_stmt 1 view .LVU231
 730 002c 2046     		mov	r0, r4
 731 002e FFF7FEFF 		bl	TreeNoe_Dynamic_Trim
 732              	.LVL79:
 733              		.loc 1 253 1 is_stmt 0 view .LVU232
 734 0032 FAE7     		b	.L61
 735              	.LVL80:
 736              	.L64:
 737              	.LCFI9:
 738              		.cfi_def_cfa_offset 0
 739              		.cfi_restore 4
 740              		.cfi_restore 14
 741              		.loc 1 253 1 view .LVU233
 742 0034 7047     		bx	lr
 743              		.cfi_endproc
 744              	.LFE11:
 746              		.section	.text.Tree_RootUpdate,"ax",%progbits
 747              		.align	1
 748              		.syntax unified
 749              		.thumb
 750              		.thumb_func
 751              		.fpu fpv5-d16
 753              	Tree_RootUpdate:
 754              	.LVL81:
 755              	.LFB12:
 254:DataStructure/binary_tree.c **** 
 255:DataStructure/binary_tree.c **** static void Tree_RootUpdate(Tree_TypeDef *tree)
 256:DataStructure/binary_tree.c **** {
 756              		.loc 1 256 1 is_stmt 1 view -0
 757              		.cfi_startproc
 758              		@ args = 0, pretend = 0, frame = 0
 759              		@ frame_needed = 0, uses_anonymous_args = 0
 257:DataStructure/binary_tree.c ****     TreeNode_TypeDef *root = NULL;
 760              		.loc 1 257 5 view .LVU235
 258:DataStructure/binary_tree.c **** 
 259:DataStructure/binary_tree.c ****     if (tree && tree->root_node)
 761              		.loc 1 259 5 view .LVU236
 762              		.loc 1 259 8 is_stmt 0 view .LVU237
 763 0000 50B1     		cbz	r0, .L71
 256:DataStructure/binary_tree.c ****     TreeNode_TypeDef *root = NULL;
 764              		.loc 1 256 1 discriminator 1 view .LVU238
 765 0002 10B5     		push	{r4, lr}
 766              	.LCFI10:
ARM GAS  /var/folders/lx/hc4sn_b53233_zkc9xbbl97r0000gp/T//ccWCKiN9.s 			page 20


 767              		.cfi_def_cfa_offset 8
 768              		.cfi_offset 4, -8
 769              		.cfi_offset 14, -4
 770 0004 0446     		mov	r4, r0
 771              		.loc 1 259 21 discriminator 1 view .LVU239
 772 0006 4068     		ldr	r0, [r0, #4]	@ unaligned
 773              	.LVL82:
 774              		.loc 1 259 14 discriminator 1 view .LVU240
 775 0008 28B1     		cbz	r0, .L68
 260:DataStructure/binary_tree.c ****     {
 261:DataStructure/binary_tree.c ****         root = Tree_Search_RootNode(tree->root_node);
 776              		.loc 1 261 9 is_stmt 1 view .LVU241
 777              		.loc 1 261 16 is_stmt 0 view .LVU242
 778 000a FFF7FEFF 		bl	Tree_Search_RootNode
 779              	.LVL83:
 262:DataStructure/binary_tree.c **** 
 263:DataStructure/binary_tree.c ****         if (root != NULL)
 780              		.loc 1 263 9 is_stmt 1 view .LVU243
 781              		.loc 1 263 12 is_stmt 0 view .LVU244
 782 000e 10B1     		cbz	r0, .L68
 264:DataStructure/binary_tree.c ****         {
 265:DataStructure/binary_tree.c ****             tree->root_node = root;
 783              		.loc 1 265 13 is_stmt 1 view .LVU245
 784              		.loc 1 265 29 is_stmt 0 view .LVU246
 785 0010 6060     		str	r0, [r4, #4]	@ unaligned
 266:DataStructure/binary_tree.c **** 
 267:DataStructure/binary_tree.c ****             /* test code */
 268:DataStructure/binary_tree.c ****             TreeNode_Update_BalanceFactory(tree->root_node);
 786              		.loc 1 268 13 is_stmt 1 view .LVU247
 787 0012 FFF7FEFF 		bl	TreeNode_Update_BalanceFactory
 788              	.LVL84:
 789              	.L68:
 269:DataStructure/binary_tree.c ****         }
 270:DataStructure/binary_tree.c ****     }
 271:DataStructure/binary_tree.c **** }
 790              		.loc 1 271 1 is_stmt 0 view .LVU248
 791 0016 10BD     		pop	{r4, pc}
 792              	.LVL85:
 793              	.L71:
 794              	.LCFI11:
 795              		.cfi_def_cfa_offset 0
 796              		.cfi_restore 4
 797              		.cfi_restore 14
 798              		.loc 1 271 1 view .LVU249
 799 0018 7047     		bx	lr
 800              		.cfi_endproc
 801              	.LFE12:
 803              		.section	.text.TreeNode_Init,"ax",%progbits
 804              		.align	1
 805              		.syntax unified
 806              		.thumb
 807              		.thumb_func
 808              		.fpu fpv5-d16
 810              	TreeNode_Init:
 811              	.LVL86:
 812              	.LFB13:
 272:DataStructure/binary_tree.c **** 
ARM GAS  /var/folders/lx/hc4sn_b53233_zkc9xbbl97r0000gp/T//ccWCKiN9.s 			page 21


 273:DataStructure/binary_tree.c **** static bool TreeNode_Init(TreeNode_TypeDef *node, char *name, data_handle data, Tree_Callback inser
 274:DataStructure/binary_tree.c **** {
 813              		.loc 1 274 1 is_stmt 1 view -0
 814              		.cfi_startproc
 815              		@ args = 8, pretend = 0, frame = 0
 816              		@ frame_needed = 0, uses_anonymous_args = 0
 275:DataStructure/binary_tree.c ****     if (node && data)
 817              		.loc 1 275 5 view .LVU251
 818              		.loc 1 275 9 is_stmt 0 view .LVU252
 819 0000 8446     		mov	ip, r0
 820              		.loc 1 275 8 view .LVU253
 821 0002 0028     		cmp	r0, #0
 822 0004 18BF     		it	ne
 823 0006 002A     		cmpne	r2, #0
 824 0008 14BF     		ite	ne
 825 000a 0120     		movne	r0, #1
 826              	.LVL87:
 827              		.loc 1 275 8 view .LVU254
 828 000c 0020     		moveq	r0, #0
 829 000e 1BD0     		beq	.L79
 274:DataStructure/binary_tree.c ****     if (node && data)
 830              		.loc 1 274 1 view .LVU255
 831 0010 10B5     		push	{r4, lr}
 832              	.LCFI12:
 833              		.cfi_def_cfa_offset 8
 834              		.cfi_offset 4, -8
 835              		.cfi_offset 14, -4
 836 0012 9646     		mov	lr, r2
 276:DataStructure/binary_tree.c ****     {
 277:DataStructure/binary_tree.c ****         if ((insert == NULL) || (search == NULL) || (compare == NULL))
 837              		.loc 1 277 9 is_stmt 1 view .LVU256
 838              		.loc 1 277 12 is_stmt 0 view .LVU257
 839 0014 029A     		ldr	r2, [sp, #8]
 840              	.LVL88:
 841              		.loc 1 277 12 view .LVU258
 842 0016 002A     		cmp	r2, #0
 843 0018 18BF     		it	ne
 844 001a 002B     		cmpne	r3, #0
 845 001c 0CBF     		ite	eq
 846 001e 0122     		moveq	r2, #1
 847 0020 0022     		movne	r2, #0
 848 0022 0DD0     		beq	.L76
 849              		.loc 1 277 50 discriminator 1 view .LVU259
 850 0024 039C     		ldr	r4, [sp, #12]
 851 0026 6CB1     		cbz	r4, .L77
 278:DataStructure/binary_tree.c ****             return false;
 279:DataStructure/binary_tree.c **** 
 280:DataStructure/binary_tree.c ****         node->name = name;
 852              		.loc 1 280 9 is_stmt 1 view .LVU260
 853              		.loc 1 280 20 is_stmt 0 view .LVU261
 854 0028 CCF80010 		str	r1, [ip]	@ unaligned
 281:DataStructure/binary_tree.c ****         node->data = data;
 855              		.loc 1 281 9 is_stmt 1 view .LVU262
 856              		.loc 1 281 20 is_stmt 0 view .LVU263
 857 002c CCF804E0 		str	lr, [ip, #4]	@ unaligned
 282:DataStructure/binary_tree.c ****         node->compare_callback = compare;
 858              		.loc 1 282 9 is_stmt 1 view .LVU264
ARM GAS  /var/folders/lx/hc4sn_b53233_zkc9xbbl97r0000gp/T//ccWCKiN9.s 			page 22


 859              		.loc 1 282 32 is_stmt 0 view .LVU265
 860 0030 CCF81E40 		str	r4, [ip, #30]	@ unaligned
 283:DataStructure/binary_tree.c ****         node->insert_callback = insert;
 861              		.loc 1 283 9 is_stmt 1 view .LVU266
 862              		.loc 1 283 31 is_stmt 0 view .LVU267
 863 0034 CCF81630 		str	r3, [ip, #22]	@ unaligned
 284:DataStructure/binary_tree.c ****         node->search_callback = search;
 864              		.loc 1 284 9 is_stmt 1 view .LVU268
 865              		.loc 1 284 31 is_stmt 0 view .LVU269
 866 0038 029B     		ldr	r3, [sp, #8]
 867              	.LVL89:
 868              		.loc 1 284 31 view .LVU270
 869 003a CCF81A30 		str	r3, [ip, #26]	@ unaligned
 285:DataStructure/binary_tree.c **** 
 286:DataStructure/binary_tree.c ****         return true;
 870              		.loc 1 286 9 is_stmt 1 view .LVU271
 871              	.L75:
 287:DataStructure/binary_tree.c ****     }
 288:DataStructure/binary_tree.c **** 
 289:DataStructure/binary_tree.c ****     return false;
 290:DataStructure/binary_tree.c **** }
 872              		.loc 1 290 1 is_stmt 0 view .LVU272
 873 003e 10BD     		pop	{r4, pc}
 874              	.LVL90:
 875              	.L76:
 278:DataStructure/binary_tree.c **** 
 876              		.loc 1 278 20 view .LVU273
 877 0040 0020     		movs	r0, #0
 878 0042 FCE7     		b	.L75
 879              	.L77:
 880 0044 1046     		mov	r0, r2
 881 0046 FAE7     		b	.L75
 882              	.LVL91:
 883              	.L79:
 884              	.LCFI13:
 885              		.cfi_def_cfa_offset 0
 886              		.cfi_restore 4
 887              		.cfi_restore 14
 888              		.loc 1 290 1 view .LVU274
 889 0048 7047     		bx	lr
 890              		.cfi_endproc
 891              	.LFE13:
 893              		.section	.text.TreeNode_Pre_Traverse,"ax",%progbits
 894              		.align	1
 895              		.syntax unified
 896              		.thumb
 897              		.thumb_func
 898              		.fpu fpv5-d16
 900              	TreeNode_Pre_Traverse:
 901              	.LVL92:
 902              	.LFB15:
 291:DataStructure/binary_tree.c **** 
 292:DataStructure/binary_tree.c **** static bool Tree_Insert(Tree_TypeDef *tree, char *node_name, data_handle data_addr)
 293:DataStructure/binary_tree.c **** {
 294:DataStructure/binary_tree.c ****     /* create node first */
 295:DataStructure/binary_tree.c ****     TreeNode_TypeDef *node_tmp = NULL;
 296:DataStructure/binary_tree.c **** 
ARM GAS  /var/folders/lx/hc4sn_b53233_zkc9xbbl97r0000gp/T//ccWCKiN9.s 			page 23


 297:DataStructure/binary_tree.c ****     if (tree == NULL)
 298:DataStructure/binary_tree.c ****         return false;
 299:DataStructure/binary_tree.c **** 
 300:DataStructure/binary_tree.c ****     node_tmp = (TreeNode_TypeDef *)TreeMalloc(sizeof(TreeNode_TypeDef));
 301:DataStructure/binary_tree.c ****     TreeNode_Init(node_tmp, node_name, data_addr, tree->insert_callback, tree->search_callback, tre
 302:DataStructure/binary_tree.c **** 
 303:DataStructure/binary_tree.c ****     if (node_tmp)
 304:DataStructure/binary_tree.c ****     {
 305:DataStructure/binary_tree.c ****         /* update root node */
 306:DataStructure/binary_tree.c ****         Tree_RootUpdate(tree);
 307:DataStructure/binary_tree.c **** 
 308:DataStructure/binary_tree.c ****         if (tree->root_node != NULL)
 309:DataStructure/binary_tree.c ****         {
 310:DataStructure/binary_tree.c ****             TreeNode_Insert(tree->root_node, node_tmp);
 311:DataStructure/binary_tree.c ****         }
 312:DataStructure/binary_tree.c ****         else
 313:DataStructure/binary_tree.c ****             tree->root_node = node_tmp;
 314:DataStructure/binary_tree.c **** 
 315:DataStructure/binary_tree.c ****         /* update root node */
 316:DataStructure/binary_tree.c ****         Tree_RootUpdate(tree);
 317:DataStructure/binary_tree.c **** 
 318:DataStructure/binary_tree.c ****         return true;
 319:DataStructure/binary_tree.c ****     }
 320:DataStructure/binary_tree.c **** 
 321:DataStructure/binary_tree.c ****     return false;
 322:DataStructure/binary_tree.c **** }
 323:DataStructure/binary_tree.c **** 
 324:DataStructure/binary_tree.c **** static void TreeNode_Pre_Traverse(TreeNode_TypeDef *node, Tree_Traverse_Callback callback)
 325:DataStructure/binary_tree.c **** {
 903              		.loc 1 325 1 is_stmt 1 view -0
 904              		.cfi_startproc
 905              		@ args = 0, pretend = 0, frame = 0
 906              		@ frame_needed = 0, uses_anonymous_args = 0
 326:DataStructure/binary_tree.c ****     if (node != NULL)
 907              		.loc 1 326 5 view .LVU276
 908              		.loc 1 326 8 is_stmt 0 view .LVU277
 909 0000 80B1     		cbz	r0, .L86
 325:DataStructure/binary_tree.c ****     if (node != NULL)
 910              		.loc 1 325 1 view .LVU278
 911 0002 38B5     		push	{r3, r4, r5, lr}
 912              	.LCFI14:
 913              		.cfi_def_cfa_offset 16
 914              		.cfi_offset 3, -16
 915              		.cfi_offset 4, -12
 916              		.cfi_offset 5, -8
 917              		.cfi_offset 14, -4
 918 0004 0C46     		mov	r4, r1
 919 0006 0546     		mov	r5, r0
 327:DataStructure/binary_tree.c ****     {
 328:DataStructure/binary_tree.c ****         // process root node
 329:DataStructure/binary_tree.c ****         if (callback != NULL)
 920              		.loc 1 329 9 is_stmt 1 view .LVU279
 921              		.loc 1 329 12 is_stmt 0 view .LVU280
 922 0008 09B1     		cbz	r1, .L84
 330:DataStructure/binary_tree.c ****             callback(node->data);
 923              		.loc 1 330 13 is_stmt 1 view .LVU281
 924 000a 4068     		ldr	r0, [r0, #4]	@ unaligned
ARM GAS  /var/folders/lx/hc4sn_b53233_zkc9xbbl97r0000gp/T//ccWCKiN9.s 			page 24


 925              	.LVL93:
 926              		.loc 1 330 13 is_stmt 0 view .LVU282
 927 000c 8847     		blx	r1
 928              	.LVL94:
 929              	.L84:
 331:DataStructure/binary_tree.c **** 
 332:DataStructure/binary_tree.c ****         // traverse left node
 333:DataStructure/binary_tree.c ****         TreeNode_Pre_Traverse(node->L_Node, callback);
 930              		.loc 1 333 9 is_stmt 1 view .LVU283
 931 000e 2146     		mov	r1, r4
 932 0010 D5F80E00 		ldr	r0, [r5, #14]	@ unaligned
 933 0014 FFF7F4FF 		bl	TreeNode_Pre_Traverse
 934              	.LVL95:
 334:DataStructure/binary_tree.c ****         // traverse right node
 335:DataStructure/binary_tree.c ****         TreeNode_Pre_Traverse(node->R_Node, callback);
 935              		.loc 1 335 9 view .LVU284
 936 0018 2146     		mov	r1, r4
 937 001a D5F81200 		ldr	r0, [r5, #18]	@ unaligned
 938 001e FFF7EFFF 		bl	TreeNode_Pre_Traverse
 939              	.LVL96:
 336:DataStructure/binary_tree.c ****     }
 337:DataStructure/binary_tree.c **** }
 940              		.loc 1 337 1 is_stmt 0 view .LVU285
 941 0022 38BD     		pop	{r3, r4, r5, pc}
 942              	.LVL97:
 943              	.L86:
 944              	.LCFI15:
 945              		.cfi_def_cfa_offset 0
 946              		.cfi_restore 3
 947              		.cfi_restore 4
 948              		.cfi_restore 5
 949              		.cfi_restore 14
 950              		.loc 1 337 1 view .LVU286
 951 0024 7047     		bx	lr
 952              		.cfi_endproc
 953              	.LFE15:
 955              		.section	.text.TreeNode_Mid_Traverse,"ax",%progbits
 956              		.align	1
 957              		.syntax unified
 958              		.thumb
 959              		.thumb_func
 960              		.fpu fpv5-d16
 962              	TreeNode_Mid_Traverse:
 963              	.LVL98:
 964              	.LFB16:
 338:DataStructure/binary_tree.c **** 
 339:DataStructure/binary_tree.c **** static void TreeNode_Mid_Traverse(TreeNode_TypeDef *node, Tree_Traverse_Callback callback)
 340:DataStructure/binary_tree.c **** {
 965              		.loc 1 340 1 is_stmt 1 view -0
 966              		.cfi_startproc
 967              		@ args = 0, pretend = 0, frame = 0
 968              		@ frame_needed = 0, uses_anonymous_args = 0
 341:DataStructure/binary_tree.c ****     if (node != NULL)
 969              		.loc 1 341 5 view .LVU288
 970              		.loc 1 341 8 is_stmt 0 view .LVU289
 971 0000 78B1     		cbz	r0, .L93
 340:DataStructure/binary_tree.c ****     if (node != NULL)
ARM GAS  /var/folders/lx/hc4sn_b53233_zkc9xbbl97r0000gp/T//ccWCKiN9.s 			page 25


 972              		.loc 1 340 1 view .LVU290
 973 0002 38B5     		push	{r3, r4, r5, lr}
 974              	.LCFI16:
 975              		.cfi_def_cfa_offset 16
 976              		.cfi_offset 3, -16
 977              		.cfi_offset 4, -12
 978              		.cfi_offset 5, -8
 979              		.cfi_offset 14, -4
 980 0004 0C46     		mov	r4, r1
 981 0006 0546     		mov	r5, r0
 342:DataStructure/binary_tree.c ****     {
 343:DataStructure/binary_tree.c ****         // traverse left node
 344:DataStructure/binary_tree.c ****         TreeNode_Mid_Traverse(node->L_Node, callback);
 982              		.loc 1 344 9 is_stmt 1 view .LVU291
 983 0008 D0F80E00 		ldr	r0, [r0, #14]	@ unaligned
 984              	.LVL99:
 985              		.loc 1 344 9 is_stmt 0 view .LVU292
 986 000c FFF7F8FF 		bl	TreeNode_Mid_Traverse
 987              	.LVL100:
 345:DataStructure/binary_tree.c **** 
 346:DataStructure/binary_tree.c ****         // process root node
 347:DataStructure/binary_tree.c ****         if (callback != NULL)
 988              		.loc 1 347 9 is_stmt 1 view .LVU293
 989              		.loc 1 347 12 is_stmt 0 view .LVU294
 990 0010 0CB1     		cbz	r4, .L91
 348:DataStructure/binary_tree.c ****             callback(node->data);
 991              		.loc 1 348 13 is_stmt 1 view .LVU295
 992 0012 6868     		ldr	r0, [r5, #4]	@ unaligned
 993 0014 A047     		blx	r4
 994              	.LVL101:
 995              	.L91:
 349:DataStructure/binary_tree.c **** 
 350:DataStructure/binary_tree.c ****         // traverse right node
 351:DataStructure/binary_tree.c ****         TreeNode_Mid_Traverse(node->R_Node, callback);
 996              		.loc 1 351 9 view .LVU296
 997 0016 2146     		mov	r1, r4
 998 0018 D5F81200 		ldr	r0, [r5, #18]	@ unaligned
 999 001c FFF7F0FF 		bl	TreeNode_Mid_Traverse
 1000              	.LVL102:
 352:DataStructure/binary_tree.c ****     }
 353:DataStructure/binary_tree.c **** }
 1001              		.loc 1 353 1 is_stmt 0 view .LVU297
 1002 0020 38BD     		pop	{r3, r4, r5, pc}
 1003              	.LVL103:
 1004              	.L93:
 1005              	.LCFI17:
 1006              		.cfi_def_cfa_offset 0
 1007              		.cfi_restore 3
 1008              		.cfi_restore 4
 1009              		.cfi_restore 5
 1010              		.cfi_restore 14
 1011              		.loc 1 353 1 view .LVU298
 1012 0022 7047     		bx	lr
 1013              		.cfi_endproc
 1014              	.LFE16:
 1016              		.section	.text.TreeNode_Bck_Traverse,"ax",%progbits
 1017              		.align	1
ARM GAS  /var/folders/lx/hc4sn_b53233_zkc9xbbl97r0000gp/T//ccWCKiN9.s 			page 26


 1018              		.syntax unified
 1019              		.thumb
 1020              		.thumb_func
 1021              		.fpu fpv5-d16
 1023              	TreeNode_Bck_Traverse:
 1024              	.LVL104:
 1025              	.LFB17:
 354:DataStructure/binary_tree.c **** 
 355:DataStructure/binary_tree.c **** static void TreeNode_Bck_Traverse(TreeNode_TypeDef *node, Tree_Traverse_Callback callback)
 356:DataStructure/binary_tree.c **** {
 1026              		.loc 1 356 1 is_stmt 1 view -0
 1027              		.cfi_startproc
 1028              		@ args = 0, pretend = 0, frame = 0
 1029              		@ frame_needed = 0, uses_anonymous_args = 0
 357:DataStructure/binary_tree.c ****     if (node != NULL)
 1030              		.loc 1 357 5 view .LVU300
 1031              		.loc 1 357 8 is_stmt 0 view .LVU301
 1032 0000 78B1     		cbz	r0, .L99
 356:DataStructure/binary_tree.c ****     if (node != NULL)
 1033              		.loc 1 356 1 view .LVU302
 1034 0002 38B5     		push	{r3, r4, r5, lr}
 1035              	.LCFI18:
 1036              		.cfi_def_cfa_offset 16
 1037              		.cfi_offset 3, -16
 1038              		.cfi_offset 4, -12
 1039              		.cfi_offset 5, -8
 1040              		.cfi_offset 14, -4
 1041 0004 0C46     		mov	r4, r1
 1042 0006 0546     		mov	r5, r0
 358:DataStructure/binary_tree.c ****     {
 359:DataStructure/binary_tree.c ****         // traverse left node
 360:DataStructure/binary_tree.c ****         TreeNode_Bck_Traverse(node->L_Node, callback);
 1043              		.loc 1 360 9 is_stmt 1 view .LVU303
 1044 0008 D0F80E00 		ldr	r0, [r0, #14]	@ unaligned
 1045              	.LVL105:
 1046              		.loc 1 360 9 is_stmt 0 view .LVU304
 1047 000c FFF7F8FF 		bl	TreeNode_Bck_Traverse
 1048              	.LVL106:
 361:DataStructure/binary_tree.c ****         // traverse right node
 362:DataStructure/binary_tree.c ****         TreeNode_Bck_Traverse(node->R_Node, callback);
 1049              		.loc 1 362 9 is_stmt 1 view .LVU305
 1050 0010 2146     		mov	r1, r4
 1051 0012 D5F81200 		ldr	r0, [r5, #18]	@ unaligned
 1052 0016 FFF7F3FF 		bl	TreeNode_Bck_Traverse
 1053              	.LVL107:
 363:DataStructure/binary_tree.c **** 
 364:DataStructure/binary_tree.c ****         // precess root node
 365:DataStructure/binary_tree.c ****         if (callback != NULL)
 1054              		.loc 1 365 9 view .LVU306
 1055              		.loc 1 365 12 is_stmt 0 view .LVU307
 1056 001a 0CB1     		cbz	r4, .L96
 366:DataStructure/binary_tree.c ****             callback(node->data);
 1057              		.loc 1 366 13 is_stmt 1 view .LVU308
 1058 001c 6868     		ldr	r0, [r5, #4]	@ unaligned
 1059 001e A047     		blx	r4
 1060              	.LVL108:
 1061              	.L96:
ARM GAS  /var/folders/lx/hc4sn_b53233_zkc9xbbl97r0000gp/T//ccWCKiN9.s 			page 27


 367:DataStructure/binary_tree.c ****     }
 368:DataStructure/binary_tree.c **** }
 1062              		.loc 1 368 1 is_stmt 0 view .LVU309
 1063 0020 38BD     		pop	{r3, r4, r5, pc}
 1064              	.LVL109:
 1065              	.L99:
 1066              	.LCFI19:
 1067              		.cfi_def_cfa_offset 0
 1068              		.cfi_restore 3
 1069              		.cfi_restore 4
 1070              		.cfi_restore 5
 1071              		.cfi_restore 14
 1072              		.loc 1 368 1 view .LVU310
 1073 0022 7047     		bx	lr
 1074              		.cfi_endproc
 1075              	.LFE17:
 1077              		.section	.text.Tree_Traverse,"ax",%progbits
 1078              		.align	1
 1079              		.syntax unified
 1080              		.thumb
 1081              		.thumb_func
 1082              		.fpu fpv5-d16
 1084              	Tree_Traverse:
 1085              	.LVL110:
 1086              	.LFB18:
 369:DataStructure/binary_tree.c **** 
 370:DataStructure/binary_tree.c **** static void Tree_Traverse(Tree_TypeDef *tree, Tree_TraverseType_List type, Tree_Traverse_Callback c
 371:DataStructure/binary_tree.c **** {
 1087              		.loc 1 371 1 is_stmt 1 view -0
 1088              		.cfi_startproc
 1089              		@ args = 0, pretend = 0, frame = 0
 1090              		@ frame_needed = 0, uses_anonymous_args = 0
 372:DataStructure/binary_tree.c ****     if (tree && tree->root_node)
 1091              		.loc 1 372 5 view .LVU312
 1092              		.loc 1 372 8 is_stmt 0 view .LVU313
 1093 0000 B0B1     		cbz	r0, .L107
 371:DataStructure/binary_tree.c ****     if (tree && tree->root_node)
 1094              		.loc 1 371 1 discriminator 1 view .LVU314
 1095 0002 08B5     		push	{r3, lr}
 1096              	.LCFI20:
 1097              		.cfi_def_cfa_offset 8
 1098              		.cfi_offset 3, -8
 1099              		.cfi_offset 14, -4
 1100 0004 0B46     		mov	r3, r1
 1101              		.loc 1 372 21 discriminator 1 view .LVU315
 1102 0006 4068     		ldr	r0, [r0, #4]	@ unaligned
 1103              	.LVL111:
 1104              		.loc 1 372 14 discriminator 1 view .LVU316
 1105 0008 28B1     		cbz	r0, .L102
 373:DataStructure/binary_tree.c ****     {
 374:DataStructure/binary_tree.c ****         switch ((uint8_t)type)
 1106              		.loc 1 374 9 is_stmt 1 view .LVU317
 1107 000a 022B     		cmp	r3, #2
 1108 000c 08D0     		beq	.L104
 1109 000e 032B     		cmp	r3, #3
 1110 0010 0AD0     		beq	.L105
 1111 0012 012B     		cmp	r3, #1
ARM GAS  /var/folders/lx/hc4sn_b53233_zkc9xbbl97r0000gp/T//ccWCKiN9.s 			page 28


 1112 0014 00D0     		beq	.L110
 1113              	.LVL112:
 1114              	.L102:
 375:DataStructure/binary_tree.c ****         {
 376:DataStructure/binary_tree.c ****         case Tree_Pre_Traverse:
 377:DataStructure/binary_tree.c ****             TreeNode_Pre_Traverse(tree->root_node, callback);
 378:DataStructure/binary_tree.c ****             break;
 379:DataStructure/binary_tree.c **** 
 380:DataStructure/binary_tree.c ****         case Tree_Mid_Traverse:
 381:DataStructure/binary_tree.c ****             TreeNode_Mid_Traverse(tree->root_node, callback);
 382:DataStructure/binary_tree.c ****             break;
 383:DataStructure/binary_tree.c **** 
 384:DataStructure/binary_tree.c ****         case Tree_Bck_Traverse:
 385:DataStructure/binary_tree.c ****             TreeNode_Bck_Traverse(tree->root_node, callback);
 386:DataStructure/binary_tree.c ****             break;
 387:DataStructure/binary_tree.c **** 
 388:DataStructure/binary_tree.c ****         default:
 389:DataStructure/binary_tree.c ****             break;
 390:DataStructure/binary_tree.c ****         }
 391:DataStructure/binary_tree.c ****     }
 392:DataStructure/binary_tree.c **** }
 1115              		.loc 1 392 1 is_stmt 0 view .LVU318
 1116 0016 08BD     		pop	{r3, pc}
 1117              	.LVL113:
 1118              	.L110:
 377:DataStructure/binary_tree.c ****             break;
 1119              		.loc 1 377 13 is_stmt 1 view .LVU319
 1120 0018 1146     		mov	r1, r2
 1121              	.LVL114:
 377:DataStructure/binary_tree.c ****             break;
 1122              		.loc 1 377 13 is_stmt 0 view .LVU320
 1123 001a FFF7FEFF 		bl	TreeNode_Pre_Traverse
 1124              	.LVL115:
 378:DataStructure/binary_tree.c **** 
 1125              		.loc 1 378 13 is_stmt 1 view .LVU321
 1126 001e FAE7     		b	.L102
 1127              	.LVL116:
 1128              	.L104:
 381:DataStructure/binary_tree.c ****             break;
 1129              		.loc 1 381 13 view .LVU322
 1130 0020 1146     		mov	r1, r2
 1131              	.LVL117:
 381:DataStructure/binary_tree.c ****             break;
 1132              		.loc 1 381 13 is_stmt 0 view .LVU323
 1133 0022 FFF7FEFF 		bl	TreeNode_Mid_Traverse
 1134              	.LVL118:
 382:DataStructure/binary_tree.c **** 
 1135              		.loc 1 382 13 is_stmt 1 view .LVU324
 1136 0026 F6E7     		b	.L102
 1137              	.LVL119:
 1138              	.L105:
 385:DataStructure/binary_tree.c ****             break;
 1139              		.loc 1 385 13 view .LVU325
 1140 0028 1146     		mov	r1, r2
 1141              	.LVL120:
 385:DataStructure/binary_tree.c ****             break;
 1142              		.loc 1 385 13 is_stmt 0 view .LVU326
ARM GAS  /var/folders/lx/hc4sn_b53233_zkc9xbbl97r0000gp/T//ccWCKiN9.s 			page 29


 1143 002a FFF7FEFF 		bl	TreeNode_Bck_Traverse
 1144              	.LVL121:
 386:DataStructure/binary_tree.c **** 
 1145              		.loc 1 386 13 is_stmt 1 view .LVU327
 1146              		.loc 1 392 1 is_stmt 0 view .LVU328
 1147 002e F2E7     		b	.L102
 1148              	.LVL122:
 1149              	.L107:
 1150              	.LCFI21:
 1151              		.cfi_def_cfa_offset 0
 1152              		.cfi_restore 3
 1153              		.cfi_restore 14
 1154              		.loc 1 392 1 view .LVU329
 1155 0030 7047     		bx	lr
 1156              		.cfi_endproc
 1157              	.LFE18:
 1159              		.section	.text.TreeNode_Search,"ax",%progbits
 1160              		.align	1
 1161              		.syntax unified
 1162              		.thumb
 1163              		.thumb_func
 1164              		.fpu fpv5-d16
 1166              	TreeNode_Search:
 1167              	.LVL123:
 1168              	.LFB19:
 393:DataStructure/binary_tree.c **** 
 394:DataStructure/binary_tree.c **** static TreeSearch_Out_TypeDef TreeNode_Search(TreeNode_TypeDef *node, data_handle data)
 395:DataStructure/binary_tree.c **** {
 1169              		.loc 1 395 1 is_stmt 1 view -0
 1170              		.cfi_startproc
 1171              		@ args = 0, pretend = 0, frame = 8
 1172              		@ frame_needed = 0, uses_anonymous_args = 0
 1173              		.loc 1 395 1 is_stmt 0 view .LVU331
 1174 0000 70B5     		push	{r4, r5, r6, lr}
 1175              	.LCFI22:
 1176              		.cfi_def_cfa_offset 16
 1177              		.cfi_offset 4, -16
 1178              		.cfi_offset 5, -12
 1179              		.cfi_offset 6, -8
 1180              		.cfi_offset 14, -4
 1181 0002 82B0     		sub	sp, sp, #8
 1182              	.LCFI23:
 1183              		.cfi_def_cfa_offset 24
 1184 0004 0446     		mov	r4, r0
 396:DataStructure/binary_tree.c ****     TreeSearch_Out_TypeDef search_out;
 1185              		.loc 1 396 5 is_stmt 1 view .LVU332
 397:DataStructure/binary_tree.c **** 
 398:DataStructure/binary_tree.c ****     memset(&search_out, NULL, sizeof(search_out));
 1186              		.loc 1 398 5 view .LVU333
 1187 0006 0023     		movs	r3, #0
 1188 0008 0093     		str	r3, [sp]
 1189 000a 8DF80430 		strb	r3, [sp, #4]
 399:DataStructure/binary_tree.c **** 
 400:DataStructure/binary_tree.c ****     search_out.state = Tree_Search_E;
 1190              		.loc 1 400 5 view .LVU334
 1191              		.loc 1 400 22 is_stmt 0 view .LVU335
 1192 000e 0423     		movs	r3, #4
ARM GAS  /var/folders/lx/hc4sn_b53233_zkc9xbbl97r0000gp/T//ccWCKiN9.s 			page 30


 1193 0010 8DF80430 		strb	r3, [sp, #4]
 401:DataStructure/binary_tree.c ****     search_out.node_hdl = 0;
 1194              		.loc 1 401 5 is_stmt 1 view .LVU336
 402:DataStructure/binary_tree.c **** 
 403:DataStructure/binary_tree.c ****     if (node != NULL && node->search_callback != NULL)
 1195              		.loc 1 403 5 view .LVU337
 1196              		.loc 1 403 8 is_stmt 0 view .LVU338
 1197 0014 79B1     		cbz	r1, .L112
 1198 0016 1646     		mov	r6, r2
 1199 0018 0D46     		mov	r5, r1
 1200              		.loc 1 403 29 discriminator 1 view .LVU339
 1201 001a D1F81A30 		ldr	r3, [r1, #26]	@ unaligned
 1202              		.loc 1 403 22 discriminator 1 view .LVU340
 1203 001e 53B1     		cbz	r3, .L112
 404:DataStructure/binary_tree.c ****     {
 405:DataStructure/binary_tree.c ****         search_out.state = node->search_callback(node->data, data);
 1204              		.loc 1 405 9 is_stmt 1 view .LVU341
 1205              		.loc 1 405 28 is_stmt 0 view .LVU342
 1206 0020 1146     		mov	r1, r2
 1207              	.LVL124:
 1208              		.loc 1 405 28 view .LVU343
 1209 0022 6868     		ldr	r0, [r5, #4]	@ unaligned
 1210              	.LVL125:
 1211              		.loc 1 405 28 view .LVU344
 1212 0024 9847     		blx	r3
 1213              	.LVL126:
 1214              		.loc 1 405 26 view .LVU345
 1215 0026 8DF80400 		strb	r0, [sp, #4]
 406:DataStructure/binary_tree.c **** 
 407:DataStructure/binary_tree.c ****         switch (search_out.state)
 1216              		.loc 1 407 9 is_stmt 1 view .LVU346
 1217 002a 0228     		cmp	r0, #2
 1218 002c 14D0     		beq	.L113
 1219 002e 0328     		cmp	r0, #3
 1220 0030 09D0     		beq	.L114
 1221 0032 0128     		cmp	r0, #1
 1222 0034 09D0     		beq	.L118
 1223              	.LVL127:
 1224              	.L112:
 408:DataStructure/binary_tree.c ****         {
 409:DataStructure/binary_tree.c ****         case Tree_Search_D:
 410:DataStructure/binary_tree.c ****             /* data matach */
 411:DataStructure/binary_tree.c ****             search_out.node_hdl = (TreeNode_Handle)node;
 412:DataStructure/binary_tree.c ****             break;
 413:DataStructure/binary_tree.c **** 
 414:DataStructure/binary_tree.c ****         case Tree_Search_L:
 415:DataStructure/binary_tree.c ****             /* search left node */
 416:DataStructure/binary_tree.c ****             return TreeNode_Search(node->L_Node, data);
 417:DataStructure/binary_tree.c **** 
 418:DataStructure/binary_tree.c ****         case Tree_Search_R:
 419:DataStructure/binary_tree.c ****             /* search right node */
 420:DataStructure/binary_tree.c ****             return TreeNode_Search(node->R_Node, data);
 421:DataStructure/binary_tree.c **** 
 422:DataStructure/binary_tree.c ****         case Tree_Search_E:
 423:DataStructure/binary_tree.c ****         default:
 424:DataStructure/binary_tree.c ****             /* error match */
 425:DataStructure/binary_tree.c ****             break;
ARM GAS  /var/folders/lx/hc4sn_b53233_zkc9xbbl97r0000gp/T//ccWCKiN9.s 			page 31


 426:DataStructure/binary_tree.c ****         }
 427:DataStructure/binary_tree.c ****     }
 428:DataStructure/binary_tree.c **** 
 429:DataStructure/binary_tree.c ****     return search_out;
 1225              		.loc 1 429 5 view .LVU347
 1226              		.loc 1 429 12 is_stmt 0 view .LVU348
 1227 0036 0098     		ldr	r0, [sp]
 1228 0038 2060     		str	r0, [r4]	@ unaligned
 1229 003a 9DF80430 		ldrb	r3, [sp, #4]	@ zero_extendqisi2
 1230 003e 2371     		strb	r3, [r4, #4]
 1231              	.L111:
 430:DataStructure/binary_tree.c **** }
 1232              		.loc 1 430 1 view .LVU349
 1233 0040 2046     		mov	r0, r4
 1234 0042 02B0     		add	sp, sp, #8
 1235              	.LCFI24:
 1236              		.cfi_remember_state
 1237              		.cfi_def_cfa_offset 16
 1238              		@ sp needed
 1239 0044 70BD     		pop	{r4, r5, r6, pc}
 1240              	.LVL128:
 1241              	.L114:
 1242              	.LCFI25:
 1243              		.cfi_restore_state
 411:DataStructure/binary_tree.c ****             break;
 1244              		.loc 1 411 13 is_stmt 1 view .LVU350
 411:DataStructure/binary_tree.c ****             break;
 1245              		.loc 1 411 33 is_stmt 0 view .LVU351
 1246 0046 0095     		str	r5, [sp]
 412:DataStructure/binary_tree.c **** 
 1247              		.loc 1 412 13 is_stmt 1 view .LVU352
 1248 0048 F5E7     		b	.L112
 1249              	.L118:
 416:DataStructure/binary_tree.c **** 
 1250              		.loc 1 416 13 view .LVU353
 416:DataStructure/binary_tree.c **** 
 1251              		.loc 1 416 20 is_stmt 0 view .LVU354
 1252 004a 3246     		mov	r2, r6
 1253 004c D5F80E10 		ldr	r1, [r5, #14]	@ unaligned
 1254 0050 2046     		mov	r0, r4
 1255 0052 FFF7D5FF 		bl	TreeNode_Search
 1256              	.LVL129:
 1257 0056 F3E7     		b	.L111
 1258              	.L113:
 420:DataStructure/binary_tree.c **** 
 1259              		.loc 1 420 13 is_stmt 1 view .LVU355
 420:DataStructure/binary_tree.c **** 
 1260              		.loc 1 420 20 is_stmt 0 view .LVU356
 1261 0058 3246     		mov	r2, r6
 1262 005a D5F81210 		ldr	r1, [r5, #18]	@ unaligned
 1263 005e 2046     		mov	r0, r4
 1264 0060 FFF7CEFF 		bl	TreeNode_Search
 1265              	.LVL130:
 1266 0064 ECE7     		b	.L111
 1267              		.cfi_endproc
 1268              	.LFE19:
 1270              		.section	.text.Tree_Search,"ax",%progbits
ARM GAS  /var/folders/lx/hc4sn_b53233_zkc9xbbl97r0000gp/T//ccWCKiN9.s 			page 32


 1271              		.align	1
 1272              		.syntax unified
 1273              		.thumb
 1274              		.thumb_func
 1275              		.fpu fpv5-d16
 1277              	Tree_Search:
 1278              	.LVL131:
 1279              	.LFB20:
 431:DataStructure/binary_tree.c **** 
 432:DataStructure/binary_tree.c **** static TreeNode_Handle Tree_Search(Tree_TypeDef *tree, data_handle data)
 433:DataStructure/binary_tree.c **** {
 1280              		.loc 1 433 1 is_stmt 1 view -0
 1281              		.cfi_startproc
 1282              		@ args = 0, pretend = 0, frame = 8
 1283              		@ frame_needed = 0, uses_anonymous_args = 0
 1284              		.loc 1 433 1 is_stmt 0 view .LVU358
 1285 0000 00B5     		push	{lr}
 1286              	.LCFI26:
 1287              		.cfi_def_cfa_offset 4
 1288              		.cfi_offset 14, -4
 1289 0002 83B0     		sub	sp, sp, #12
 1290              	.LCFI27:
 1291              		.cfi_def_cfa_offset 16
 434:DataStructure/binary_tree.c ****     TreeSearch_Out_TypeDef search_out;
 1292              		.loc 1 434 5 is_stmt 1 view .LVU359
 435:DataStructure/binary_tree.c **** 
 436:DataStructure/binary_tree.c ****     search_out.state = Tree_Search_E;
 1293              		.loc 1 436 5 view .LVU360
 1294              		.loc 1 436 22 is_stmt 0 view .LVU361
 1295 0004 0423     		movs	r3, #4
 1296 0006 8DF80430 		strb	r3, [sp, #4]
 437:DataStructure/binary_tree.c ****     search_out.node_hdl = 0;
 1297              		.loc 1 437 5 is_stmt 1 view .LVU362
 1298              		.loc 1 437 25 is_stmt 0 view .LVU363
 1299 000a 0023     		movs	r3, #0
 1300 000c 0093     		str	r3, [sp]
 438:DataStructure/binary_tree.c **** 
 439:DataStructure/binary_tree.c ****     if (tree == NULL || data == 0 || tree->search_callback == NULL)
 1301              		.loc 1 439 5 is_stmt 1 view .LVU364
 1302              		.loc 1 439 8 is_stmt 0 view .LVU365
 1303 000e 0029     		cmp	r1, #0
 1304 0010 18BF     		it	ne
 1305 0012 0028     		cmpne	r0, #0
 1306 0014 0ED0     		beq	.L121
 1307 0016 0A46     		mov	r2, r1
 1308              		.loc 1 439 42 discriminator 1 view .LVU366
 1309 0018 C168     		ldr	r1, [r0, #12]	@ unaligned
 1310              	.LVL132:
 1311              		.loc 1 439 35 discriminator 1 view .LVU367
 1312 001a 79B1     		cbz	r1, .L122
 440:DataStructure/binary_tree.c ****         return 0;
 441:DataStructure/binary_tree.c **** 
 442:DataStructure/binary_tree.c ****     search_out = TreeNode_Search(tree->root_node, data);
 1313              		.loc 1 442 5 is_stmt 1 view .LVU368
 1314              		.loc 1 442 18 is_stmt 0 view .LVU369
 1315 001c 4168     		ldr	r1, [r0, #4]	@ unaligned
 1316 001e 6846     		mov	r0, sp
ARM GAS  /var/folders/lx/hc4sn_b53233_zkc9xbbl97r0000gp/T//ccWCKiN9.s 			page 33


 1317              	.LVL133:
 1318              		.loc 1 442 18 view .LVU370
 1319 0020 FFF7FEFF 		bl	TreeNode_Search
 1320              	.LVL134:
 443:DataStructure/binary_tree.c **** 
 444:DataStructure/binary_tree.c ****     if (search_out.state == Tree_Search_D)
 1321              		.loc 1 444 5 is_stmt 1 view .LVU371
 1322              		.loc 1 444 19 is_stmt 0 view .LVU372
 1323 0024 9DF80430 		ldrb	r3, [sp, #4]	@ zero_extendqisi2
 1324              		.loc 1 444 8 view .LVU373
 1325 0028 032B     		cmp	r3, #3
 1326 002a 01D0     		beq	.L125
 445:DataStructure/binary_tree.c ****     {
 446:DataStructure/binary_tree.c ****         return search_out.node_hdl;
 447:DataStructure/binary_tree.c ****     }
 448:DataStructure/binary_tree.c ****     else
 449:DataStructure/binary_tree.c ****         return 0;
 1327              		.loc 1 449 16 view .LVU374
 1328 002c 0020     		movs	r0, #0
 1329 002e 02E0     		b	.L119
 1330              	.L125:
 446:DataStructure/binary_tree.c ****     }
 1331              		.loc 1 446 9 is_stmt 1 view .LVU375
 446:DataStructure/binary_tree.c ****     }
 1332              		.loc 1 446 26 is_stmt 0 view .LVU376
 1333 0030 0098     		ldr	r0, [sp]
 1334 0032 00E0     		b	.L119
 1335              	.LVL135:
 1336              	.L121:
 440:DataStructure/binary_tree.c **** 
 1337              		.loc 1 440 16 view .LVU377
 1338 0034 0020     		movs	r0, #0
 1339              	.LVL136:
 1340              	.L119:
 450:DataStructure/binary_tree.c **** }
 1341              		.loc 1 450 1 view .LVU378
 1342 0036 03B0     		add	sp, sp, #12
 1343              	.LCFI28:
 1344              		.cfi_remember_state
 1345              		.cfi_def_cfa_offset 4
 1346              		@ sp needed
 1347 0038 5DF804FB 		ldr	pc, [sp], #4
 1348              	.LVL137:
 1349              	.L122:
 1350              	.LCFI29:
 1351              		.cfi_restore_state
 440:DataStructure/binary_tree.c **** 
 1352              		.loc 1 440 16 view .LVU379
 1353 003c 0020     		movs	r0, #0
 1354              	.LVL138:
 440:DataStructure/binary_tree.c **** 
 1355              		.loc 1 440 16 view .LVU380
 1356 003e FAE7     		b	.L119
 1357              		.cfi_endproc
 1358              	.LFE20:
 1360              		.section	.text.Tree_Insert,"ax",%progbits
 1361              		.align	1
ARM GAS  /var/folders/lx/hc4sn_b53233_zkc9xbbl97r0000gp/T//ccWCKiN9.s 			page 34


 1362              		.syntax unified
 1363              		.thumb
 1364              		.thumb_func
 1365              		.fpu fpv5-d16
 1367              	Tree_Insert:
 1368              	.LVL139:
 1369              	.LFB14:
 293:DataStructure/binary_tree.c ****     /* create node first */
 1370              		.loc 1 293 1 is_stmt 1 view -0
 1371              		.cfi_startproc
 1372              		@ args = 0, pretend = 0, frame = 0
 1373              		@ frame_needed = 0, uses_anonymous_args = 0
 295:DataStructure/binary_tree.c **** 
 1374              		.loc 1 295 5 view .LVU382
 297:DataStructure/binary_tree.c ****         return false;
 1375              		.loc 1 297 5 view .LVU383
 297:DataStructure/binary_tree.c ****         return false;
 1376              		.loc 1 297 8 is_stmt 0 view .LVU384
 1377 0000 20B3     		cbz	r0, .L130
 293:DataStructure/binary_tree.c ****     /* create node first */
 1378              		.loc 1 293 1 view .LVU385
 1379 0002 F0B5     		push	{r4, r5, r6, r7, lr}
 1380              	.LCFI30:
 1381              		.cfi_def_cfa_offset 20
 1382              		.cfi_offset 4, -20
 1383              		.cfi_offset 5, -16
 1384              		.cfi_offset 6, -12
 1385              		.cfi_offset 7, -8
 1386              		.cfi_offset 14, -4
 1387 0004 83B0     		sub	sp, sp, #12
 1388              	.LCFI31:
 1389              		.cfi_def_cfa_offset 32
 1390 0006 0F46     		mov	r7, r1
 1391 0008 1546     		mov	r5, r2
 1392 000a 0446     		mov	r4, r0
 300:DataStructure/binary_tree.c ****     TreeNode_Init(node_tmp, node_name, data_addr, tree->insert_callback, tree->search_callback, tre
 1393              		.loc 1 300 5 is_stmt 1 view .LVU386
 300:DataStructure/binary_tree.c ****     TreeNode_Init(node_tmp, node_name, data_addr, tree->insert_callback, tree->search_callback, tre
 1394              		.loc 1 300 36 is_stmt 0 view .LVU387
 1395 000c 2220     		movs	r0, #34
 1396              	.LVL140:
 300:DataStructure/binary_tree.c ****     TreeNode_Init(node_tmp, node_name, data_addr, tree->insert_callback, tree->search_callback, tre
 1397              		.loc 1 300 36 view .LVU388
 1398 000e FFF7FEFF 		bl	MMU_Malloc
 1399              	.LVL141:
 300:DataStructure/binary_tree.c ****     TreeNode_Init(node_tmp, node_name, data_addr, tree->insert_callback, tree->search_callback, tre
 1400              		.loc 1 300 36 view .LVU389
 1401 0012 0646     		mov	r6, r0
 1402              	.LVL142:
 301:DataStructure/binary_tree.c **** 
 1403              		.loc 1 301 5 is_stmt 1 view .LVU390
 301:DataStructure/binary_tree.c **** 
 1404              		.loc 1 301 78 is_stmt 0 view .LVU391
 1405 0014 E368     		ldr	r3, [r4, #12]	@ unaligned
 301:DataStructure/binary_tree.c **** 
 1406              		.loc 1 301 5 view .LVU392
 1407 0016 2269     		ldr	r2, [r4, #16]	@ unaligned
ARM GAS  /var/folders/lx/hc4sn_b53233_zkc9xbbl97r0000gp/T//ccWCKiN9.s 			page 35


 1408 0018 0192     		str	r2, [sp, #4]
 1409 001a 0093     		str	r3, [sp]
 1410 001c A368     		ldr	r3, [r4, #8]	@ unaligned
 1411 001e 2A46     		mov	r2, r5
 1412 0020 3946     		mov	r1, r7
 1413 0022 FFF7FEFF 		bl	TreeNode_Init
 1414              	.LVL143:
 303:DataStructure/binary_tree.c ****     {
 1415              		.loc 1 303 5 is_stmt 1 view .LVU393
 303:DataStructure/binary_tree.c ****     {
 1416              		.loc 1 303 8 is_stmt 0 view .LVU394
 1417 0026 16B9     		cbnz	r6, .L136
 321:DataStructure/binary_tree.c **** }
 1418              		.loc 1 321 12 view .LVU395
 1419 0028 0020     		movs	r0, #0
 1420              	.L127:
 322:DataStructure/binary_tree.c **** 
 1421              		.loc 1 322 1 view .LVU396
 1422 002a 03B0     		add	sp, sp, #12
 1423              	.LCFI32:
 1424              		.cfi_remember_state
 1425              		.cfi_def_cfa_offset 20
 1426              		@ sp needed
 1427 002c F0BD     		pop	{r4, r5, r6, r7, pc}
 1428              	.LVL144:
 1429              	.L136:
 1430              	.LCFI33:
 1431              		.cfi_restore_state
 306:DataStructure/binary_tree.c **** 
 1432              		.loc 1 306 9 is_stmt 1 view .LVU397
 1433 002e 2046     		mov	r0, r4
 1434 0030 FFF7FEFF 		bl	Tree_RootUpdate
 1435              	.LVL145:
 308:DataStructure/binary_tree.c ****         {
 1436              		.loc 1 308 9 view .LVU398
 308:DataStructure/binary_tree.c ****         {
 1437              		.loc 1 308 17 is_stmt 0 view .LVU399
 1438 0034 6068     		ldr	r0, [r4, #4]	@ unaligned
 308:DataStructure/binary_tree.c ****         {
 1439              		.loc 1 308 12 view .LVU400
 1440 0036 38B1     		cbz	r0, .L128
 310:DataStructure/binary_tree.c ****         }
 1441              		.loc 1 310 13 is_stmt 1 view .LVU401
 1442 0038 3146     		mov	r1, r6
 1443 003a FFF7FEFF 		bl	TreeNode_Insert
 1444              	.LVL146:
 1445              	.L129:
 316:DataStructure/binary_tree.c **** 
 1446              		.loc 1 316 9 view .LVU402
 1447 003e 2046     		mov	r0, r4
 1448 0040 FFF7FEFF 		bl	Tree_RootUpdate
 1449              	.LVL147:
 318:DataStructure/binary_tree.c ****     }
 1450              		.loc 1 318 9 view .LVU403
 318:DataStructure/binary_tree.c ****     }
 1451              		.loc 1 318 16 is_stmt 0 view .LVU404
 1452 0044 0120     		movs	r0, #1
ARM GAS  /var/folders/lx/hc4sn_b53233_zkc9xbbl97r0000gp/T//ccWCKiN9.s 			page 36


 1453 0046 F0E7     		b	.L127
 1454              	.L128:
 313:DataStructure/binary_tree.c **** 
 1455              		.loc 1 313 13 is_stmt 1 view .LVU405
 313:DataStructure/binary_tree.c **** 
 1456              		.loc 1 313 29 is_stmt 0 view .LVU406
 1457 0048 6660     		str	r6, [r4, #4]	@ unaligned
 1458 004a F8E7     		b	.L129
 1459              	.LVL148:
 1460              	.L130:
 1461              	.LCFI34:
 1462              		.cfi_def_cfa_offset 0
 1463              		.cfi_restore 4
 1464              		.cfi_restore 5
 1465              		.cfi_restore 6
 1466              		.cfi_restore 7
 1467              		.cfi_restore 14
 298:DataStructure/binary_tree.c **** 
 1468              		.loc 1 298 16 view .LVU407
 1469 004c 0020     		movs	r0, #0
 1470              	.LVL149:
 322:DataStructure/binary_tree.c **** 
 1471              		.loc 1 322 1 view .LVU408
 1472 004e 7047     		bx	lr
 1473              		.cfi_endproc
 1474              	.LFE14:
 1476              		.section	.text.BinaryTree_Create,"ax",%progbits
 1477              		.align	1
 1478              		.syntax unified
 1479              		.thumb
 1480              		.thumb_func
 1481              		.fpu fpv5-d16
 1483              	BinaryTree_Create:
 1484              	.LVL150:
 1485              	.LFB3:
  25:DataStructure/binary_tree.c ****     Tree_TypeDef *tree_tmp = NULL;
 1486              		.loc 1 25 1 is_stmt 1 view -0
 1487              		.cfi_startproc
 1488              		@ args = 0, pretend = 0, frame = 0
 1489              		@ frame_needed = 0, uses_anonymous_args = 0
  25:DataStructure/binary_tree.c ****     Tree_TypeDef *tree_tmp = NULL;
 1490              		.loc 1 25 1 is_stmt 0 view .LVU410
 1491 0000 F8B5     		push	{r3, r4, r5, r6, r7, lr}
 1492              	.LCFI35:
 1493              		.cfi_def_cfa_offset 24
 1494              		.cfi_offset 3, -24
 1495              		.cfi_offset 4, -20
 1496              		.cfi_offset 5, -16
 1497              		.cfi_offset 6, -12
 1498              		.cfi_offset 7, -8
 1499              		.cfi_offset 14, -4
 1500 0002 0746     		mov	r7, r0
 1501 0004 0C46     		mov	r4, r1
 1502 0006 1546     		mov	r5, r2
 1503 0008 1E46     		mov	r6, r3
  26:DataStructure/binary_tree.c **** 
 1504              		.loc 1 26 5 is_stmt 1 view .LVU411
ARM GAS  /var/folders/lx/hc4sn_b53233_zkc9xbbl97r0000gp/T//ccWCKiN9.s 			page 37


 1505              	.LVL151:
  28:DataStructure/binary_tree.c **** 
 1506              		.loc 1 28 5 view .LVU412
  28:DataStructure/binary_tree.c **** 
 1507              		.loc 1 28 32 is_stmt 0 view .LVU413
 1508 000a 1420     		movs	r0, #20
 1509              	.LVL152:
  28:DataStructure/binary_tree.c **** 
 1510              		.loc 1 28 32 view .LVU414
 1511 000c FFF7FEFF 		bl	MMU_Malloc
 1512              	.LVL153:
  30:DataStructure/binary_tree.c ****     {
 1513              		.loc 1 30 5 is_stmt 1 view .LVU415
  30:DataStructure/binary_tree.c ****     {
 1514              		.loc 1 30 8 is_stmt 0 view .LVU416
 1515 0010 68B1     		cbz	r0, .L137
  32:DataStructure/binary_tree.c ****         {
 1516              		.loc 1 32 9 is_stmt 1 view .LVU417
  32:DataStructure/binary_tree.c ****         {
 1517              		.loc 1 32 12 is_stmt 0 view .LVU418
 1518 0012 002C     		cmp	r4, #0
 1519 0014 18BF     		it	ne
 1520 0016 002D     		cmpne	r5, #0
 1521 0018 0AD0     		beq	.L139
  32:DataStructure/binary_tree.c ****         {
 1522              		.loc 1 32 50 discriminator 1 view .LVU419
 1523 001a 4EB1     		cbz	r6, .L139
  34:DataStructure/binary_tree.c ****             tree_tmp->search_callback = search;
 1524              		.loc 1 34 13 is_stmt 1 view .LVU420
  34:DataStructure/binary_tree.c ****             tree_tmp->search_callback = search;
 1525              		.loc 1 34 28 is_stmt 0 view .LVU421
 1526 001c 0760     		str	r7, [r0]	@ unaligned
  35:DataStructure/binary_tree.c ****             tree_tmp->insert_callback = insert;
 1527              		.loc 1 35 13 is_stmt 1 view .LVU422
  35:DataStructure/binary_tree.c ****             tree_tmp->insert_callback = insert;
 1528              		.loc 1 35 39 is_stmt 0 view .LVU423
 1529 001e C560     		str	r5, [r0, #12]	@ unaligned
  36:DataStructure/binary_tree.c ****             tree_tmp->compare_callback = compare;
 1530              		.loc 1 36 13 is_stmt 1 view .LVU424
  36:DataStructure/binary_tree.c ****             tree_tmp->compare_callback = compare;
 1531              		.loc 1 36 39 is_stmt 0 view .LVU425
 1532 0020 8460     		str	r4, [r0, #8]	@ unaligned
  37:DataStructure/binary_tree.c ****             tree_tmp->root_node = NULL;
 1533              		.loc 1 37 13 is_stmt 1 view .LVU426
  37:DataStructure/binary_tree.c ****             tree_tmp->root_node = NULL;
 1534              		.loc 1 37 40 is_stmt 0 view .LVU427
 1535 0022 0661     		str	r6, [r0, #16]	@ unaligned
  38:DataStructure/binary_tree.c ****         }
 1536              		.loc 1 38 13 is_stmt 1 view .LVU428
  38:DataStructure/binary_tree.c ****         }
 1537              		.loc 1 38 33 is_stmt 0 view .LVU429
 1538 0024 0023     		movs	r3, #0
 1539 0026 0371     		strb	r3, [r0, #4]
 1540 0028 4371     		strb	r3, [r0, #5]
 1541 002a 8371     		strb	r3, [r0, #6]
 1542 002c C371     		strb	r3, [r0, #7]
 1543              	.LVL154:
ARM GAS  /var/folders/lx/hc4sn_b53233_zkc9xbbl97r0000gp/T//ccWCKiN9.s 			page 38


 1544              	.L137:
  48:DataStructure/binary_tree.c **** 
 1545              		.loc 1 48 1 view .LVU430
 1546 002e F8BD     		pop	{r3, r4, r5, r6, r7, pc}
 1547              	.LVL155:
 1548              	.L139:
  42:DataStructure/binary_tree.c ****             tree_tmp = NULL;
 1549              		.loc 1 42 13 is_stmt 1 view .LVU431
 1550 0030 FFF7FEFF 		bl	MMU_Free
 1551              	.LVL156:
  43:DataStructure/binary_tree.c ****         }
 1552              		.loc 1 43 13 view .LVU432
  43:DataStructure/binary_tree.c ****         }
 1553              		.loc 1 43 22 is_stmt 0 view .LVU433
 1554 0034 0020     		movs	r0, #0
  47:DataStructure/binary_tree.c **** }
 1555              		.loc 1 47 5 is_stmt 1 view .LVU434
  47:DataStructure/binary_tree.c **** }
 1556              		.loc 1 47 12 is_stmt 0 view .LVU435
 1557 0036 FAE7     		b	.L137
 1558              		.cfi_endproc
 1559              	.LFE3:
 1561              		.global	BalanceTree
 1562              		.section	.data.BalanceTree,"aw"
 1563              		.align	2
 1566              	BalanceTree:
 1567 0000 00000000 		.word	BinaryTree_Create
 1568 0004 00000000 		.word	Tree_Insert
 1569 0008 00000000 		.word	Tree_Search
 1570 000c 00000000 		.word	Tree_Traverse
 1571              		.text
 1572              	.Letext0:
 1573              		.file 2 "/usr/local/arm-none-eabi-gcc/gcc-arm-none-eabi-10-2020-q4-major/arm-none-eabi/include/mac
 1574              		.file 3 "/usr/local/arm-none-eabi-gcc/gcc-arm-none-eabi-10-2020-q4-major/arm-none-eabi/include/sys
 1575              		.file 4 "DataStructure/binary_tree.h"
 1576              		.file 5 "System/mmu/mmu.h"
ARM GAS  /var/folders/lx/hc4sn_b53233_zkc9xbbl97r0000gp/T//ccWCKiN9.s 			page 39


DEFINED SYMBOLS
                            *ABS*:0000000000000000 binary_tree.c
/var/folders/lx/hc4sn_b53233_zkc9xbbl97r0000gp/T//ccWCKiN9.s:17     .text.Tree_Get_Depth:0000000000000000 $t
/var/folders/lx/hc4sn_b53233_zkc9xbbl97r0000gp/T//ccWCKiN9.s:24     .text.Tree_Get_Depth:0000000000000000 Tree_Get_Depth
/var/folders/lx/hc4sn_b53233_zkc9xbbl97r0000gp/T//ccWCKiN9.s:90     .text.Tree_Get_BalanceFactory:0000000000000000 $t
/var/folders/lx/hc4sn_b53233_zkc9xbbl97r0000gp/T//ccWCKiN9.s:96     .text.Tree_Get_BalanceFactory:0000000000000000 Tree_Get_BalanceFactory
/var/folders/lx/hc4sn_b53233_zkc9xbbl97r0000gp/T//ccWCKiN9.s:145    .text.Tree_Search_RootNode:0000000000000000 $t
/var/folders/lx/hc4sn_b53233_zkc9xbbl97r0000gp/T//ccWCKiN9.s:151    .text.Tree_Search_RootNode:0000000000000000 Tree_Search_RootNode
/var/folders/lx/hc4sn_b53233_zkc9xbbl97r0000gp/T//ccWCKiN9.s:188    .text.TreeNode_RightRotate:0000000000000000 $t
/var/folders/lx/hc4sn_b53233_zkc9xbbl97r0000gp/T//ccWCKiN9.s:194    .text.TreeNode_RightRotate:0000000000000000 TreeNode_RightRotate
/var/folders/lx/hc4sn_b53233_zkc9xbbl97r0000gp/T//ccWCKiN9.s:309    .text.TreeNode_LeftRotate:0000000000000000 $t
/var/folders/lx/hc4sn_b53233_zkc9xbbl97r0000gp/T//ccWCKiN9.s:315    .text.TreeNode_LeftRotate:0000000000000000 TreeNode_LeftRotate
/var/folders/lx/hc4sn_b53233_zkc9xbbl97r0000gp/T//ccWCKiN9.s:430    .text.TreeNoe_Dynamic_Trim:0000000000000000 $t
/var/folders/lx/hc4sn_b53233_zkc9xbbl97r0000gp/T//ccWCKiN9.s:436    .text.TreeNoe_Dynamic_Trim:0000000000000000 TreeNoe_Dynamic_Trim
/var/folders/lx/hc4sn_b53233_zkc9xbbl97r0000gp/T//ccWCKiN9.s:560    .text.TreeNode_Insert:0000000000000000 $t
/var/folders/lx/hc4sn_b53233_zkc9xbbl97r0000gp/T//ccWCKiN9.s:566    .text.TreeNode_Insert:0000000000000000 TreeNode_Insert
/var/folders/lx/hc4sn_b53233_zkc9xbbl97r0000gp/T//ccWCKiN9.s:679    .text.TreeNode_Update_BalanceFactory:0000000000000000 $t
/var/folders/lx/hc4sn_b53233_zkc9xbbl97r0000gp/T//ccWCKiN9.s:685    .text.TreeNode_Update_BalanceFactory:0000000000000000 TreeNode_Update_BalanceFactory
/var/folders/lx/hc4sn_b53233_zkc9xbbl97r0000gp/T//ccWCKiN9.s:747    .text.Tree_RootUpdate:0000000000000000 $t
/var/folders/lx/hc4sn_b53233_zkc9xbbl97r0000gp/T//ccWCKiN9.s:753    .text.Tree_RootUpdate:0000000000000000 Tree_RootUpdate
/var/folders/lx/hc4sn_b53233_zkc9xbbl97r0000gp/T//ccWCKiN9.s:804    .text.TreeNode_Init:0000000000000000 $t
/var/folders/lx/hc4sn_b53233_zkc9xbbl97r0000gp/T//ccWCKiN9.s:810    .text.TreeNode_Init:0000000000000000 TreeNode_Init
/var/folders/lx/hc4sn_b53233_zkc9xbbl97r0000gp/T//ccWCKiN9.s:894    .text.TreeNode_Pre_Traverse:0000000000000000 $t
/var/folders/lx/hc4sn_b53233_zkc9xbbl97r0000gp/T//ccWCKiN9.s:900    .text.TreeNode_Pre_Traverse:0000000000000000 TreeNode_Pre_Traverse
/var/folders/lx/hc4sn_b53233_zkc9xbbl97r0000gp/T//ccWCKiN9.s:956    .text.TreeNode_Mid_Traverse:0000000000000000 $t
/var/folders/lx/hc4sn_b53233_zkc9xbbl97r0000gp/T//ccWCKiN9.s:962    .text.TreeNode_Mid_Traverse:0000000000000000 TreeNode_Mid_Traverse
/var/folders/lx/hc4sn_b53233_zkc9xbbl97r0000gp/T//ccWCKiN9.s:1017   .text.TreeNode_Bck_Traverse:0000000000000000 $t
/var/folders/lx/hc4sn_b53233_zkc9xbbl97r0000gp/T//ccWCKiN9.s:1023   .text.TreeNode_Bck_Traverse:0000000000000000 TreeNode_Bck_Traverse
/var/folders/lx/hc4sn_b53233_zkc9xbbl97r0000gp/T//ccWCKiN9.s:1078   .text.Tree_Traverse:0000000000000000 $t
/var/folders/lx/hc4sn_b53233_zkc9xbbl97r0000gp/T//ccWCKiN9.s:1084   .text.Tree_Traverse:0000000000000000 Tree_Traverse
/var/folders/lx/hc4sn_b53233_zkc9xbbl97r0000gp/T//ccWCKiN9.s:1160   .text.TreeNode_Search:0000000000000000 $t
/var/folders/lx/hc4sn_b53233_zkc9xbbl97r0000gp/T//ccWCKiN9.s:1166   .text.TreeNode_Search:0000000000000000 TreeNode_Search
/var/folders/lx/hc4sn_b53233_zkc9xbbl97r0000gp/T//ccWCKiN9.s:1271   .text.Tree_Search:0000000000000000 $t
/var/folders/lx/hc4sn_b53233_zkc9xbbl97r0000gp/T//ccWCKiN9.s:1277   .text.Tree_Search:0000000000000000 Tree_Search
/var/folders/lx/hc4sn_b53233_zkc9xbbl97r0000gp/T//ccWCKiN9.s:1361   .text.Tree_Insert:0000000000000000 $t
/var/folders/lx/hc4sn_b53233_zkc9xbbl97r0000gp/T//ccWCKiN9.s:1367   .text.Tree_Insert:0000000000000000 Tree_Insert
/var/folders/lx/hc4sn_b53233_zkc9xbbl97r0000gp/T//ccWCKiN9.s:1477   .text.BinaryTree_Create:0000000000000000 $t
/var/folders/lx/hc4sn_b53233_zkc9xbbl97r0000gp/T//ccWCKiN9.s:1483   .text.BinaryTree_Create:0000000000000000 BinaryTree_Create
/var/folders/lx/hc4sn_b53233_zkc9xbbl97r0000gp/T//ccWCKiN9.s:1566   .data.BalanceTree:0000000000000000 BalanceTree
/var/folders/lx/hc4sn_b53233_zkc9xbbl97r0000gp/T//ccWCKiN9.s:1563   .data.BalanceTree:0000000000000000 $d

UNDEFINED SYMBOLS
MMU_Malloc
MMU_Free
