ARM GAS  /var/folders/lx/hc4sn_b53233_zkc9xbbl97r0000gp/T//ccWOh4VS.s 			page 1


   1              		.cpu cortex-m7
   2              		.eabi_attribute 28, 1
   3              		.eabi_attribute 20, 1
   4              		.eabi_attribute 21, 1
   5              		.eabi_attribute 23, 3
   6              		.eabi_attribute 24, 1
   7              		.eabi_attribute 25, 1
   8              		.eabi_attribute 26, 1
   9              		.eabi_attribute 30, 1
  10              		.eabi_attribute 34, 1
  11              		.eabi_attribute 18, 4
  12              		.file	"Bsp_Uart.c"
  13              		.text
  14              	.Ltext0:
  15              		.cfi_sections	.debug_frame
  16              		.section	.text.BspUart_Transfer,"ax",%progbits
  17              		.align	1
  18              		.arch armv7e-m
  19              		.syntax unified
  20              		.thumb
  21              		.thumb_func
  22              		.fpu fpv5-d16
  24              	BspUart_Transfer:
  25              	.LVL0:
  26              	.LFB151:
  27              		.file 1 "Bsp/Bsp_Uart.c"
   1:Bsp/Bsp_Uart.c **** /*
   2:Bsp/Bsp_Uart.c ****  * coder : 8_B!T0
   3:Bsp/Bsp_Uart.c ****  * bref : default using uart dma transfer
   4:Bsp/Bsp_Uart.c ****  */
   5:Bsp/Bsp_Uart.c **** #include "stm32h743xx.h"
   6:Bsp/Bsp_Uart.c **** #include "stm32h7xx_hal.h"
   7:Bsp/Bsp_Uart.c **** #include "stm32h7xx_hal_rcc.h"
   8:Bsp/Bsp_Uart.c **** #include "stm32h7xx_hal_uart.h"
   9:Bsp/Bsp_Uart.c **** #include "Bsp_Uart.h"
  10:Bsp/Bsp_Uart.c **** 
  11:Bsp/Bsp_Uart.c **** #define BspUart_Opr_TimeOut 100 // 100ms
  12:Bsp/Bsp_Uart.c **** 
  13:Bsp/Bsp_Uart.c **** /* internal variable */
  14:Bsp/Bsp_Uart.c **** static BspUARTObj_TypeDef *BspUart_Obj_List[BspUART_Port_Sum] = {NULL};
  15:Bsp/Bsp_Uart.c **** 
  16:Bsp/Bsp_Uart.c **** /* external function */
  17:Bsp/Bsp_Uart.c **** static bool BspUart_Init(BspUARTObj_TypeDef *obj);
  18:Bsp/Bsp_Uart.c **** bool BspUart_Set_DataBit(BspUARTObj_TypeDef *obj, uint32_t bit);
  19:Bsp/Bsp_Uart.c **** bool BspUart_Set_Parity(BspUARTObj_TypeDef *obj, uint32_t parity);
  20:Bsp/Bsp_Uart.c **** bool BspUart_Set_StopBit(BspUARTObj_TypeDef *obj, uint32_t stop_bit);
  21:Bsp/Bsp_Uart.c **** bool BspUart_Swap_Pin(BspUARTObj_TypeDef *obj, bool swap);
  22:Bsp/Bsp_Uart.c **** static bool BspUart_Transfer(BspUARTObj_TypeDef *obj, uint8_t *tx_buf, uint16_t size, bool wait_til
  23:Bsp/Bsp_Uart.c **** 
  24:Bsp/Bsp_Uart.c **** BspUART_TypeDef BspUart = {
  25:Bsp/Bsp_Uart.c ****     .init = BspUart_Init,
  26:Bsp/Bsp_Uart.c ****     .set_parity = BspUart_Set_Parity,
  27:Bsp/Bsp_Uart.c ****     .set_stop_bit = BspUart_Set_StopBit,
  28:Bsp/Bsp_Uart.c ****     .set_data_bit = BspUart_Set_DataBit,
  29:Bsp/Bsp_Uart.c ****     .set_swap = BspUart_Swap_Pin,
  30:Bsp/Bsp_Uart.c ****     .send = BspUart_Transfer,
  31:Bsp/Bsp_Uart.c **** };
ARM GAS  /var/folders/lx/hc4sn_b53233_zkc9xbbl97r0000gp/T//ccWOh4VS.s 			page 2


  32:Bsp/Bsp_Uart.c **** 
  33:Bsp/Bsp_Uart.c **** static int BspUart_Init_Clock(BspUARTObj_TypeDef *obj)
  34:Bsp/Bsp_Uart.c **** {
  35:Bsp/Bsp_Uart.c ****     RCC_PeriphCLKInitTypeDef PeriphClkInitStruct = {0};
  36:Bsp/Bsp_Uart.c ****     DMA_HandleTypeDef tx_dma_cfg = {0};
  37:Bsp/Bsp_Uart.c ****     DMA_HandleTypeDef rx_dma_cfg = {0};
  38:Bsp/Bsp_Uart.c ****     IRQn_Type irqn;
  39:Bsp/Bsp_Uart.c ****     int8_t index = Bspuart_None_Index;
  40:Bsp/Bsp_Uart.c **** 
  41:Bsp/Bsp_Uart.c ****     tx_dma_cfg.Init.PeriphInc = DMA_PINC_DISABLE;
  42:Bsp/Bsp_Uart.c ****     tx_dma_cfg.Init.MemInc = DMA_MINC_ENABLE;
  43:Bsp/Bsp_Uart.c ****     tx_dma_cfg.Init.PeriphDataAlignment = DMA_PDATAALIGN_BYTE;
  44:Bsp/Bsp_Uart.c ****     tx_dma_cfg.Init.MemDataAlignment = DMA_MDATAALIGN_BYTE;
  45:Bsp/Bsp_Uart.c ****     tx_dma_cfg.Init.Mode = DMA_NORMAL;
  46:Bsp/Bsp_Uart.c ****     tx_dma_cfg.Init.Priority = DMA_PRIORITY_MEDIUM;
  47:Bsp/Bsp_Uart.c ****     tx_dma_cfg.Init.FIFOMode = DMA_FIFOMODE_DISABLE;
  48:Bsp/Bsp_Uart.c ****     tx_dma_cfg.Init.Direction = DMA_MEMORY_TO_PERIPH;
  49:Bsp/Bsp_Uart.c **** 
  50:Bsp/Bsp_Uart.c ****     rx_dma_cfg.Init.Direction = DMA_PERIPH_TO_MEMORY;
  51:Bsp/Bsp_Uart.c ****     rx_dma_cfg.Init.PeriphInc = DMA_PINC_DISABLE;
  52:Bsp/Bsp_Uart.c ****     rx_dma_cfg.Init.MemInc = DMA_MINC_ENABLE;
  53:Bsp/Bsp_Uart.c ****     rx_dma_cfg.Init.PeriphDataAlignment = DMA_PDATAALIGN_BYTE;
  54:Bsp/Bsp_Uart.c ****     rx_dma_cfg.Init.MemDataAlignment = DMA_MDATAALIGN_BYTE;
  55:Bsp/Bsp_Uart.c ****     rx_dma_cfg.Init.Mode = DMA_NORMAL;
  56:Bsp/Bsp_Uart.c ****     rx_dma_cfg.Init.Priority = DMA_PRIORITY_MEDIUM;
  57:Bsp/Bsp_Uart.c ****     rx_dma_cfg.Init.FIFOMode = DMA_FIFOMODE_DISABLE;
  58:Bsp/Bsp_Uart.c **** 
  59:Bsp/Bsp_Uart.c ****     if ((obj == NULL) ||
  60:Bsp/Bsp_Uart.c ****         (obj->hdl.Instance == NULL) ||
  61:Bsp/Bsp_Uart.c ****         (obj->tx_dma_hdl.Instance == NULL) ||
  62:Bsp/Bsp_Uart.c ****         (obj->rx_dma_hdl.Instance == NULL))
  63:Bsp/Bsp_Uart.c ****         return BspUart_Clock_Error;
  64:Bsp/Bsp_Uart.c **** 
  65:Bsp/Bsp_Uart.c ****     if (obj->hdl.Instance == UART4)
  66:Bsp/Bsp_Uart.c ****     {
  67:Bsp/Bsp_Uart.c ****         PeriphClkInitStruct.PeriphClockSelection = RCC_PERIPHCLK_UART4;
  68:Bsp/Bsp_Uart.c ****         PeriphClkInitStruct.Usart234578ClockSelection = RCC_USART234578CLKSOURCE_D2PCLK1;
  69:Bsp/Bsp_Uart.c **** 
  70:Bsp/Bsp_Uart.c ****         if (HAL_RCCEx_PeriphCLKConfig(&PeriphClkInitStruct) != HAL_OK)
  71:Bsp/Bsp_Uart.c ****             return BspUart_Clock_Error;
  72:Bsp/Bsp_Uart.c **** 
  73:Bsp/Bsp_Uart.c ****         __HAL_RCC_UART4_CLK_ENABLE();
  74:Bsp/Bsp_Uart.c **** 
  75:Bsp/Bsp_Uart.c ****         rx_dma_cfg.Init.Request = DMA_REQUEST_UART4_RX;
  76:Bsp/Bsp_Uart.c ****         tx_dma_cfg.Init.Request = DMA_REQUEST_UART4_TX;
  77:Bsp/Bsp_Uart.c **** 
  78:Bsp/Bsp_Uart.c ****         irqn = UART4_IRQn;
  79:Bsp/Bsp_Uart.c ****         index = BspUART_Port_4;
  80:Bsp/Bsp_Uart.c ****     }
  81:Bsp/Bsp_Uart.c ****     else if (obj->hdl.Instance == USART6)
  82:Bsp/Bsp_Uart.c ****     {
  83:Bsp/Bsp_Uart.c ****         PeriphClkInitStruct.PeriphClockSelection = RCC_PERIPHCLK_USART6;
  84:Bsp/Bsp_Uart.c ****         PeriphClkInitStruct.Usart16ClockSelection = RCC_USART16CLKSOURCE_D2PCLK2;
  85:Bsp/Bsp_Uart.c **** 
  86:Bsp/Bsp_Uart.c ****         if (HAL_RCCEx_PeriphCLKConfig(&PeriphClkInitStruct) != HAL_OK)
  87:Bsp/Bsp_Uart.c ****             return BspUart_Clock_Error;
  88:Bsp/Bsp_Uart.c **** 
ARM GAS  /var/folders/lx/hc4sn_b53233_zkc9xbbl97r0000gp/T//ccWOh4VS.s 			page 3


  89:Bsp/Bsp_Uart.c ****         __HAL_RCC_USART6_CLK_ENABLE();
  90:Bsp/Bsp_Uart.c **** 
  91:Bsp/Bsp_Uart.c ****         rx_dma_cfg.Init.Request = DMA_REQUEST_USART6_RX;
  92:Bsp/Bsp_Uart.c ****         tx_dma_cfg.Init.Request = DMA_REQUEST_USART6_TX;
  93:Bsp/Bsp_Uart.c **** 
  94:Bsp/Bsp_Uart.c ****         irqn = USART6_IRQn;
  95:Bsp/Bsp_Uart.c ****         index = BspUART_Port_6;
  96:Bsp/Bsp_Uart.c ****     }
  97:Bsp/Bsp_Uart.c ****     else if (obj->hdl.Instance == UART7)
  98:Bsp/Bsp_Uart.c ****     {
  99:Bsp/Bsp_Uart.c ****         PeriphClkInitStruct.PeriphClockSelection = RCC_PERIPHCLK_UART7;
 100:Bsp/Bsp_Uart.c ****         PeriphClkInitStruct.Usart234578ClockSelection = RCC_USART234578CLKSOURCE_D2PCLK1;
 101:Bsp/Bsp_Uart.c **** 
 102:Bsp/Bsp_Uart.c ****         if (HAL_RCCEx_PeriphCLKConfig(&PeriphClkInitStruct) != HAL_OK)
 103:Bsp/Bsp_Uart.c ****             return BspUart_Clock_Error;
 104:Bsp/Bsp_Uart.c **** 
 105:Bsp/Bsp_Uart.c ****         __HAL_RCC_UART7_CLK_ENABLE();
 106:Bsp/Bsp_Uart.c **** 
 107:Bsp/Bsp_Uart.c ****         rx_dma_cfg.Init.Request = DMA_REQUEST_UART7_RX;
 108:Bsp/Bsp_Uart.c ****         tx_dma_cfg.Init.Request = DMA_REQUEST_UART7_TX;
 109:Bsp/Bsp_Uart.c **** 
 110:Bsp/Bsp_Uart.c ****         irqn = UART7_IRQn;
 111:Bsp/Bsp_Uart.c ****         index = BspUART_Port_7;
 112:Bsp/Bsp_Uart.c ****     }
 113:Bsp/Bsp_Uart.c ****     else
 114:Bsp/Bsp_Uart.c ****         return BspUart_Clock_Error;
 115:Bsp/Bsp_Uart.c **** 
 116:Bsp/Bsp_Uart.c ****     obj->tx_dma_hdl = tx_dma_cfg;
 117:Bsp/Bsp_Uart.c ****     obj->rx_dma_hdl = rx_dma_cfg;
 118:Bsp/Bsp_Uart.c **** 
 119:Bsp/Bsp_Uart.c ****     if (!BspDMA.regist(obj->rx_dma, obj->rx_stream, &(obj->rx_dma_hdl)) ||
 120:Bsp/Bsp_Uart.c ****         !BspDMA.regist(obj->tx_dma, obj->tx_stream, &(obj->rx_dma_hdl)))
 121:Bsp/Bsp_Uart.c ****         return BspUart_Clock_Error;
 122:Bsp/Bsp_Uart.c **** 
 123:Bsp/Bsp_Uart.c ****     /* rx tx pin init */
 124:Bsp/Bsp_Uart.c ****     BspGPIO.alt_init(obj->rx_io);
 125:Bsp/Bsp_Uart.c ****     BspGPIO.alt_init(obj->tx_io);
 126:Bsp/Bsp_Uart.c **** 
 127:Bsp/Bsp_Uart.c ****     if (HAL_DMA_Init(&rx_dma_cfg) != HAL_OK)
 128:Bsp/Bsp_Uart.c ****         return BspUart_Clock_Error;
 129:Bsp/Bsp_Uart.c **** 
 130:Bsp/Bsp_Uart.c ****     __HAL_LINKDMA(&(obj->hdl), hdmarx, rx_dma_cfg);
 131:Bsp/Bsp_Uart.c **** 
 132:Bsp/Bsp_Uart.c ****     if (HAL_DMA_Init(&tx_dma_cfg) != HAL_OK)
 133:Bsp/Bsp_Uart.c ****         return BspUart_Clock_Error;
 134:Bsp/Bsp_Uart.c **** 
 135:Bsp/Bsp_Uart.c ****     __HAL_LINKDMA(&(obj->hdl), hdmatx, tx_dma_cfg);
 136:Bsp/Bsp_Uart.c **** 
 137:Bsp/Bsp_Uart.c ****     HAL_NVIC_SetPriority(irqn, 0, 0);
 138:Bsp/Bsp_Uart.c ****     HAL_NVIC_EnableIRQ(irqn);
 139:Bsp/Bsp_Uart.c **** 
 140:Bsp/Bsp_Uart.c ****     return index;
 141:Bsp/Bsp_Uart.c **** }
 142:Bsp/Bsp_Uart.c **** 
 143:Bsp/Bsp_Uart.c **** static bool BspUart_Init(BspUARTObj_TypeDef *obj)
 144:Bsp/Bsp_Uart.c **** {
 145:Bsp/Bsp_Uart.c ****     UART_HandleTypeDef uart_cfg;
ARM GAS  /var/folders/lx/hc4sn_b53233_zkc9xbbl97r0000gp/T//ccWOh4VS.s 			page 4


 146:Bsp/Bsp_Uart.c ****     int8_t port_index;
 147:Bsp/Bsp_Uart.c **** 
 148:Bsp/Bsp_Uart.c ****     obj->init_state = false;
 149:Bsp/Bsp_Uart.c **** 
 150:Bsp/Bsp_Uart.c ****     port_index = BspUart_Init_Clock(obj);
 151:Bsp/Bsp_Uart.c **** 
 152:Bsp/Bsp_Uart.c ****     if (port_index < 0)
 153:Bsp/Bsp_Uart.c ****         return false;
 154:Bsp/Bsp_Uart.c **** 
 155:Bsp/Bsp_Uart.c ****     uart_cfg.Instance = obj->instance;
 156:Bsp/Bsp_Uart.c ****     uart_cfg.Init.BaudRate = obj->baudrate;
 157:Bsp/Bsp_Uart.c ****     uart_cfg.Init.WordLength = UART_WORDLENGTH_8B;
 158:Bsp/Bsp_Uart.c ****     uart_cfg.Init.StopBits = UART_STOPBITS_1;
 159:Bsp/Bsp_Uart.c ****     uart_cfg.Init.Parity = UART_PARITY_NONE;
 160:Bsp/Bsp_Uart.c ****     uart_cfg.Init.Mode = UART_MODE_TX_RX;
 161:Bsp/Bsp_Uart.c ****     uart_cfg.Init.HwFlowCtl = UART_HWCONTROL_NONE;
 162:Bsp/Bsp_Uart.c ****     uart_cfg.Init.OverSampling = UART_OVERSAMPLING_16;
 163:Bsp/Bsp_Uart.c ****     uart_cfg.Init.OneBitSampling = UART_ONE_BIT_SAMPLE_DISABLE;
 164:Bsp/Bsp_Uart.c ****     uart_cfg.Init.ClockPrescaler = UART_PRESCALER_DIV1;
 165:Bsp/Bsp_Uart.c ****     uart_cfg.AdvancedInit.AdvFeatureInit = UART_ADVFEATURE_RXOVERRUNDISABLE_INIT | UART_ADVFEATURE_
 166:Bsp/Bsp_Uart.c ****     uart_cfg.AdvancedInit.OverrunDisable = UART_ADVFEATURE_OVERRUN_DISABLE;
 167:Bsp/Bsp_Uart.c ****     uart_cfg.AdvancedInit.DMADisableonRxError = UART_ADVFEATURE_DMA_DISABLEONRXERROR;
 168:Bsp/Bsp_Uart.c **** 
 169:Bsp/Bsp_Uart.c ****     /* swap tx rx pin */
 170:Bsp/Bsp_Uart.c ****     if (obj->pin_swap)
 171:Bsp/Bsp_Uart.c ****         uart_cfg.AdvancedInit.Swap = UART_ADVFEATURE_SWAP_ENABLE;
 172:Bsp/Bsp_Uart.c **** 
 173:Bsp/Bsp_Uart.c ****     obj->hdl = uart_cfg;
 174:Bsp/Bsp_Uart.c **** 
 175:Bsp/Bsp_Uart.c ****     if (HAL_UART_Init(&uart_cfg) != HAL_OK ||
 176:Bsp/Bsp_Uart.c ****         HAL_UARTEx_SetTxFifoThreshold(&uart_cfg, UART_TXFIFO_THRESHOLD_1_8) != HAL_OK ||
 177:Bsp/Bsp_Uart.c ****         HAL_UARTEx_SetRxFifoThreshold(&uart_cfg, UART_RXFIFO_THRESHOLD_1_8) != HAL_OK ||
 178:Bsp/Bsp_Uart.c ****         HAL_UARTEx_DisableFifoMode(&uart_cfg) != HAL_OK)
 179:Bsp/Bsp_Uart.c ****         return false;
 180:Bsp/Bsp_Uart.c **** 
 181:Bsp/Bsp_Uart.c ****     if ((obj->rx_buf == NULL) || (obj->rx_size == 0))
 182:Bsp/Bsp_Uart.c ****         return false;
 183:Bsp/Bsp_Uart.c **** 
 184:Bsp/Bsp_Uart.c ****     BspUart_Obj_List[port_index] = obj;
 185:Bsp/Bsp_Uart.c ****     obj->send_finish = false;
 186:Bsp/Bsp_Uart.c ****     obj->wait_till_send_finish = false;
 187:Bsp/Bsp_Uart.c **** 
 188:Bsp/Bsp_Uart.c ****     memset(&(obj->monitor), NULL, sizeof(obj->monitor));
 189:Bsp/Bsp_Uart.c **** 
 190:Bsp/Bsp_Uart.c ****     /* enable irq callback */
 191:Bsp/Bsp_Uart.c ****     __HAL_UART_ENABLE_IT(&(obj->hdl), UART_IT_IDLE);
 192:Bsp/Bsp_Uart.c ****     __HAL_UART_DISABLE_IT(&(obj->hdl), UART_IT_ERR);
 193:Bsp/Bsp_Uart.c ****     __HAL_UART_DISABLE_IT(&(obj->hdl), UART_IT_PE);
 194:Bsp/Bsp_Uart.c **** 
 195:Bsp/Bsp_Uart.c ****     /* start receive data */
 196:Bsp/Bsp_Uart.c ****     HAL_UART_Receive_DMA(&(obj->hdl), obj->rx_buf, obj->rx_size);
 197:Bsp/Bsp_Uart.c **** 
 198:Bsp/Bsp_Uart.c ****     obj->init_state = true;
 199:Bsp/Bsp_Uart.c ****     return true;
 200:Bsp/Bsp_Uart.c **** }
 201:Bsp/Bsp_Uart.c **** 
 202:Bsp/Bsp_Uart.c **** bool BspUart_Set_DataBit(BspUARTObj_TypeDef *obj, uint32_t bit)
ARM GAS  /var/folders/lx/hc4sn_b53233_zkc9xbbl97r0000gp/T//ccWOh4VS.s 			page 5


 203:Bsp/Bsp_Uart.c **** {
 204:Bsp/Bsp_Uart.c ****     if (obj || !obj->init_state)
 205:Bsp/Bsp_Uart.c ****         return false;
 206:Bsp/Bsp_Uart.c **** 
 207:Bsp/Bsp_Uart.c ****     obj->hdl.Init.WordLength = bit;
 208:Bsp/Bsp_Uart.c **** 
 209:Bsp/Bsp_Uart.c ****     if (HAL_UART_Init(&obj->hdl) != HAL_OK)
 210:Bsp/Bsp_Uart.c ****         return false;
 211:Bsp/Bsp_Uart.c **** 
 212:Bsp/Bsp_Uart.c ****     return true;
 213:Bsp/Bsp_Uart.c **** }
 214:Bsp/Bsp_Uart.c **** 
 215:Bsp/Bsp_Uart.c **** bool BspUart_Set_Parity(BspUARTObj_TypeDef *obj, uint32_t parity)
 216:Bsp/Bsp_Uart.c **** {
 217:Bsp/Bsp_Uart.c ****     if (obj || !obj->init_state)
 218:Bsp/Bsp_Uart.c ****         return false;
 219:Bsp/Bsp_Uart.c **** 
 220:Bsp/Bsp_Uart.c ****     obj->hdl.Init.Parity = parity;
 221:Bsp/Bsp_Uart.c **** 
 222:Bsp/Bsp_Uart.c ****     if (HAL_UART_Init(&obj->hdl) != HAL_OK)
 223:Bsp/Bsp_Uart.c ****         return false;
 224:Bsp/Bsp_Uart.c **** 
 225:Bsp/Bsp_Uart.c ****     return true;
 226:Bsp/Bsp_Uart.c **** }
 227:Bsp/Bsp_Uart.c **** 
 228:Bsp/Bsp_Uart.c **** bool BspUart_Set_StopBit(BspUARTObj_TypeDef *obj, uint32_t stop_bit)
 229:Bsp/Bsp_Uart.c **** {
 230:Bsp/Bsp_Uart.c ****     if (obj || !obj->init_state)
 231:Bsp/Bsp_Uart.c ****         return false;
 232:Bsp/Bsp_Uart.c **** 
 233:Bsp/Bsp_Uart.c ****     obj->hdl.Init.StopBits = stop_bit;
 234:Bsp/Bsp_Uart.c **** 
 235:Bsp/Bsp_Uart.c ****     if (HAL_UART_Init(&obj->hdl) != HAL_OK)
 236:Bsp/Bsp_Uart.c ****         return false;
 237:Bsp/Bsp_Uart.c **** 
 238:Bsp/Bsp_Uart.c ****     return true;
 239:Bsp/Bsp_Uart.c **** }
 240:Bsp/Bsp_Uart.c **** 
 241:Bsp/Bsp_Uart.c **** bool BspUart_Swap_Pin(BspUARTObj_TypeDef *obj, bool swap)
 242:Bsp/Bsp_Uart.c **** {
 243:Bsp/Bsp_Uart.c ****     if (obj || !obj->init_state)
 244:Bsp/Bsp_Uart.c ****         return false;
 245:Bsp/Bsp_Uart.c **** 
 246:Bsp/Bsp_Uart.c ****     obj->pin_swap = swap;
 247:Bsp/Bsp_Uart.c **** 
 248:Bsp/Bsp_Uart.c ****     if (swap)
 249:Bsp/Bsp_Uart.c ****     {
 250:Bsp/Bsp_Uart.c ****         obj->hdl.AdvancedInit.Swap = UART_ADVFEATURE_SWAP_ENABLE;
 251:Bsp/Bsp_Uart.c ****     }
 252:Bsp/Bsp_Uart.c ****     else
 253:Bsp/Bsp_Uart.c ****         obj->hdl.AdvancedInit.Swap = UART_ADVFEATURE_SWAP_DISABLE;
 254:Bsp/Bsp_Uart.c **** 
 255:Bsp/Bsp_Uart.c ****     if (HAL_UART_Init(&obj->hdl) != HAL_OK)
 256:Bsp/Bsp_Uart.c ****         return false;
 257:Bsp/Bsp_Uart.c **** 
 258:Bsp/Bsp_Uart.c ****     return true;
 259:Bsp/Bsp_Uart.c **** }
ARM GAS  /var/folders/lx/hc4sn_b53233_zkc9xbbl97r0000gp/T//ccWOh4VS.s 			page 6


 260:Bsp/Bsp_Uart.c **** 
 261:Bsp/Bsp_Uart.c **** UART_HandleTypeDef *BspUart_GetObj_Handle(BspUART_Port_List index)
 262:Bsp/Bsp_Uart.c **** {
 263:Bsp/Bsp_Uart.c ****     if (index >= BspUART_Port_Sum)
 264:Bsp/Bsp_Uart.c ****         return NULL;
 265:Bsp/Bsp_Uart.c **** 
 266:Bsp/Bsp_Uart.c ****     return &(BspUart_Obj_List[index]->hdl);
 267:Bsp/Bsp_Uart.c **** }
 268:Bsp/Bsp_Uart.c **** 
 269:Bsp/Bsp_Uart.c **** static bool BspUart_Transfer(BspUARTObj_TypeDef *obj, uint8_t *tx_buf, uint16_t size, bool wait_til
 270:Bsp/Bsp_Uart.c **** {
  28              		.loc 1 270 1 view -0
  29              		.cfi_startproc
  30              		@ args = 0, pretend = 0, frame = 0
  31              		@ frame_needed = 0, uses_anonymous_args = 0
  32              		.loc 1 270 1 is_stmt 0 view .LVU1
  33 0000 70B5     		push	{r4, r5, r6, lr}
  34              	.LCFI0:
  35              		.cfi_def_cfa_offset 16
  36              		.cfi_offset 4, -16
  37              		.cfi_offset 5, -12
  38              		.cfi_offset 6, -8
  39              		.cfi_offset 14, -4
 271:Bsp/Bsp_Uart.c ****     uint8_t time_out = BspUart_Opr_TimeOut;
  40              		.loc 1 271 5 is_stmt 1 view .LVU2
  41              	.LVL1:
 272:Bsp/Bsp_Uart.c **** 
 273:Bsp/Bsp_Uart.c ****     if ((obj == NULL) || (tx_buf == NULL) || (size == 0))
  42              		.loc 1 273 5 view .LVU3
  43              		.loc 1 273 8 is_stmt 0 view .LVU4
  44 0002 0029     		cmp	r1, #0
  45 0004 18BF     		it	ne
  46 0006 0028     		cmpne	r0, #0
  47 0008 0CBF     		ite	eq
  48 000a 0124     		moveq	r4, #1
  49 000c 0024     		movne	r4, #0
  50 000e 36D0     		beq	.L9
  51 0010 1E46     		mov	r6, r3
  52 0012 0546     		mov	r5, r0
  53              		.loc 1 273 43 discriminator 1 view .LVU5
  54 0014 A2B3     		cbz	r2, .L2
 274:Bsp/Bsp_Uart.c ****         return false;
 275:Bsp/Bsp_Uart.c **** 
 276:Bsp/Bsp_Uart.c ****     /* send data */
 277:Bsp/Bsp_Uart.c ****     switch (HAL_UART_Transmit_DMA(&(obj->hdl), tx_buf, size))
  55              		.loc 1 277 5 is_stmt 1 view .LVU6
  56              		.loc 1 277 13 is_stmt 0 view .LVU7
  57 0016 0930     		adds	r0, r0, #9
  58              	.LVL2:
  59              		.loc 1 277 13 view .LVU8
  60 0018 FFF7FEFF 		bl	HAL_UART_Transmit_DMA
  61              	.LVL3:
  62              		.loc 1 277 5 view .LVU9
  63 001c 48B1     		cbz	r0, .L3
  64 001e 431E     		subs	r3, r0, #1
  65 0020 DBB2     		uxtb	r3, r3
  66 0022 012B     		cmp	r3, #1
ARM GAS  /var/folders/lx/hc4sn_b53233_zkc9xbbl97r0000gp/T//ccWOh4VS.s 			page 7


  67 0024 14D8     		bhi	.L14
 278:Bsp/Bsp_Uart.c ****     {
 279:Bsp/Bsp_Uart.c ****     case HAL_OK:
 280:Bsp/Bsp_Uart.c ****         obj->monitor.tx_cnt++;
 281:Bsp/Bsp_Uart.c ****         break;
 282:Bsp/Bsp_Uart.c **** 
 283:Bsp/Bsp_Uart.c ****     case HAL_ERROR:
 284:Bsp/Bsp_Uart.c ****     case HAL_BUSY:
 285:Bsp/Bsp_Uart.c ****         obj->monitor.tx_err_cnt++;
  68              		.loc 1 285 9 is_stmt 1 view .LVU10
  69              		.loc 1 285 21 is_stmt 0 view .LVU11
  70 0026 D5F8CE31 		ldr	r3, [r5, #462]	@ unaligned
  71              		.loc 1 285 32 view .LVU12
  72 002a 0133     		adds	r3, r3, #1
  73 002c C5F8CE31 		str	r3, [r5, #462]	@ unaligned
 286:Bsp/Bsp_Uart.c ****         return false;
  74              		.loc 1 286 9 is_stmt 1 view .LVU13
  75              		.loc 1 286 16 is_stmt 0 view .LVU14
  76 0030 26E0     		b	.L2
  77              	.L3:
 280:Bsp/Bsp_Uart.c ****         break;
  78              		.loc 1 280 9 is_stmt 1 view .LVU15
 280:Bsp/Bsp_Uart.c ****         break;
  79              		.loc 1 280 21 is_stmt 0 view .LVU16
  80 0032 D5F8BE31 		ldr	r3, [r5, #446]	@ unaligned
 280:Bsp/Bsp_Uart.c ****         break;
  81              		.loc 1 280 28 view .LVU17
  82 0036 0133     		adds	r3, r3, #1
  83 0038 C5F8BE31 		str	r3, [r5, #446]	@ unaligned
 281:Bsp/Bsp_Uart.c **** 
  84              		.loc 1 281 9 is_stmt 1 view .LVU18
 287:Bsp/Bsp_Uart.c **** 
 288:Bsp/Bsp_Uart.c ****     default:
 289:Bsp/Bsp_Uart.c ****         obj->monitor.tx_unknow_err_cnt++;
 290:Bsp/Bsp_Uart.c ****         return false;
 291:Bsp/Bsp_Uart.c ****     }
 292:Bsp/Bsp_Uart.c **** 
 293:Bsp/Bsp_Uart.c ****     obj->wait_till_send_finish = wait_till_finish;
  85              		.loc 1 293 5 view .LVU19
  86              		.loc 1 293 32 is_stmt 0 view .LVU20
  87 003c 85F8B761 		strb	r6, [r5, #439]
 294:Bsp/Bsp_Uart.c ****     if (wait_till_finish)
  88              		.loc 1 294 5 is_stmt 1 view .LVU21
  89              		.loc 1 294 8 is_stmt 0 view .LVU22
  90 0040 96B9     		cbnz	r6, .L10
  91              	.LVL4:
  92              	.L7:
 295:Bsp/Bsp_Uart.c ****     {
 296:Bsp/Bsp_Uart.c ****         while (!obj->send_finish)
 297:Bsp/Bsp_Uart.c ****         {
 298:Bsp/Bsp_Uart.c ****             if ((time_out--) == 0)
 299:Bsp/Bsp_Uart.c ****             {
 300:Bsp/Bsp_Uart.c ****                 obj->monitor.tx_err_cnt++;
 301:Bsp/Bsp_Uart.c ****                 return false;
 302:Bsp/Bsp_Uart.c ****             }
 303:Bsp/Bsp_Uart.c ****         }
 304:Bsp/Bsp_Uart.c ****     }
ARM GAS  /var/folders/lx/hc4sn_b53233_zkc9xbbl97r0000gp/T//ccWOh4VS.s 			page 8


 305:Bsp/Bsp_Uart.c ****     obj->monitor.tx_success_cnt++;
  93              		.loc 1 305 5 is_stmt 1 view .LVU23
  94              		.loc 1 305 17 is_stmt 0 view .LVU24
  95 0042 D5F8CA31 		ldr	r3, [r5, #458]	@ unaligned
  96              		.loc 1 305 32 view .LVU25
  97 0046 0133     		adds	r3, r3, #1
  98 0048 C5F8CA31 		str	r3, [r5, #458]	@ unaligned
 306:Bsp/Bsp_Uart.c **** 
 307:Bsp/Bsp_Uart.c ****     return true;
  99              		.loc 1 307 5 is_stmt 1 view .LVU26
 100              		.loc 1 307 12 is_stmt 0 view .LVU27
 101 004c 0124     		movs	r4, #1
 102 004e 17E0     		b	.L2
 103              	.LVL5:
 104              	.L14:
 289:Bsp/Bsp_Uart.c ****         return false;
 105              		.loc 1 289 9 is_stmt 1 view .LVU28
 289:Bsp/Bsp_Uart.c ****         return false;
 106              		.loc 1 289 21 is_stmt 0 view .LVU29
 107 0050 D5F8D231 		ldr	r3, [r5, #466]	@ unaligned
 289:Bsp/Bsp_Uart.c ****         return false;
 108              		.loc 1 289 39 view .LVU30
 109 0054 0133     		adds	r3, r3, #1
 110 0056 C5F8D231 		str	r3, [r5, #466]	@ unaligned
 290:Bsp/Bsp_Uart.c ****     }
 111              		.loc 1 290 9 is_stmt 1 view .LVU31
 290:Bsp/Bsp_Uart.c ****     }
 112              		.loc 1 290 16 is_stmt 0 view .LVU32
 113 005a 11E0     		b	.L2
 114              	.LVL6:
 115              	.L15:
 300:Bsp/Bsp_Uart.c ****                 return false;
 116              		.loc 1 300 17 is_stmt 1 view .LVU33
 300:Bsp/Bsp_Uart.c ****                 return false;
 117              		.loc 1 300 29 is_stmt 0 view .LVU34
 118 005c D5F8CE31 		ldr	r3, [r5, #462]	@ unaligned
 119              	.LVL7:
 300:Bsp/Bsp_Uart.c ****                 return false;
 120              		.loc 1 300 40 view .LVU35
 121 0060 0133     		adds	r3, r3, #1
 122 0062 C5F8CE31 		str	r3, [r5, #462]	@ unaligned
 301:Bsp/Bsp_Uart.c ****             }
 123              		.loc 1 301 17 is_stmt 1 view .LVU36
 301:Bsp/Bsp_Uart.c ****             }
 124              		.loc 1 301 24 is_stmt 0 view .LVU37
 125 0066 0BE0     		b	.L2
 126              	.LVL8:
 127              	.L10:
 271:Bsp/Bsp_Uart.c **** 
 128              		.loc 1 271 13 view .LVU38
 129 0068 6422     		movs	r2, #100
 130              	.LVL9:
 131              	.L6:
 296:Bsp/Bsp_Uart.c ****         {
 132              		.loc 1 296 15 is_stmt 1 view .LVU39
 296:Bsp/Bsp_Uart.c ****         {
 133              		.loc 1 296 20 is_stmt 0 view .LVU40
ARM GAS  /var/folders/lx/hc4sn_b53233_zkc9xbbl97r0000gp/T//ccWOh4VS.s 			page 9


 134 006a 95F8B841 		ldrb	r4, [r5, #440]	@ zero_extendqisi2
 296:Bsp/Bsp_Uart.c ****         {
 135              		.loc 1 296 15 view .LVU41
 136 006e 002C     		cmp	r4, #0
 137 0070 E7D1     		bne	.L7
 298:Bsp/Bsp_Uart.c ****             {
 138              		.loc 1 298 13 is_stmt 1 view .LVU42
 298:Bsp/Bsp_Uart.c ****             {
 139              		.loc 1 298 26 is_stmt 0 view .LVU43
 140 0072 531E     		subs	r3, r2, #1
 141 0074 DBB2     		uxtb	r3, r3
 142              	.LVL10:
 298:Bsp/Bsp_Uart.c ****             {
 143              		.loc 1 298 16 view .LVU44
 144 0076 002A     		cmp	r2, #0
 145 0078 F0D0     		beq	.L15
 298:Bsp/Bsp_Uart.c ****             {
 146              		.loc 1 298 26 view .LVU45
 147 007a 1A46     		mov	r2, r3
 148 007c F5E7     		b	.L6
 149              	.LVL11:
 150              	.L9:
 274:Bsp/Bsp_Uart.c **** 
 151              		.loc 1 274 16 view .LVU46
 152 007e 0024     		movs	r4, #0
 153              	.LVL12:
 154              	.L2:
 308:Bsp/Bsp_Uart.c **** }
 155              		.loc 1 308 1 view .LVU47
 156 0080 2046     		mov	r0, r4
 157 0082 70BD     		pop	{r4, r5, r6, pc}
 158              		.cfi_endproc
 159              	.LFE151:
 161              		.section	.text.BspUart_Set_DataBit,"ax",%progbits
 162              		.align	1
 163              		.global	BspUart_Set_DataBit
 164              		.syntax unified
 165              		.thumb
 166              		.thumb_func
 167              		.fpu fpv5-d16
 169              	BspUart_Set_DataBit:
 170              	.LVL13:
 171              	.LFB146:
 203:Bsp/Bsp_Uart.c ****     if (obj || !obj->init_state)
 172              		.loc 1 203 1 is_stmt 1 view -0
 173              		.cfi_startproc
 174              		@ args = 0, pretend = 0, frame = 0
 175              		@ frame_needed = 0, uses_anonymous_args = 0
 203:Bsp/Bsp_Uart.c ****     if (obj || !obj->init_state)
 176              		.loc 1 203 1 is_stmt 0 view .LVU49
 177 0000 10B5     		push	{r4, lr}
 178              	.LCFI1:
 179              		.cfi_def_cfa_offset 8
 180              		.cfi_offset 4, -8
 181              		.cfi_offset 14, -4
 204:Bsp/Bsp_Uart.c ****         return false;
 182              		.loc 1 204 5 is_stmt 1 view .LVU50
ARM GAS  /var/folders/lx/hc4sn_b53233_zkc9xbbl97r0000gp/T//ccWOh4VS.s 			page 10


 204:Bsp/Bsp_Uart.c ****         return false;
 183              		.loc 1 204 8 is_stmt 0 view .LVU51
 184 0002 10B1     		cbz	r0, .L21
 205:Bsp/Bsp_Uart.c **** 
 185              		.loc 1 205 16 view .LVU52
 186 0004 0024     		movs	r4, #0
 187              	.LVL14:
 188              	.L17:
 213:Bsp/Bsp_Uart.c **** 
 189              		.loc 1 213 1 view .LVU53
 190 0006 2046     		mov	r0, r4
 191 0008 10BD     		pop	{r4, pc}
 192              	.LVL15:
 193              	.L21:
 204:Bsp/Bsp_Uart.c ****         return false;
 194              		.loc 1 204 20 discriminator 1 view .LVU54
 195 000a 90F8B941 		ldrb	r4, [r0, #441]	@ zero_extendqisi2
 204:Bsp/Bsp_Uart.c ****         return false;
 196              		.loc 1 204 13 discriminator 1 view .LVU55
 197 000e 002C     		cmp	r4, #0
 198 0010 F9D0     		beq	.L17
 207:Bsp/Bsp_Uart.c **** 
 199              		.loc 1 207 5 is_stmt 1 view .LVU56
 207:Bsp/Bsp_Uart.c **** 
 200              		.loc 1 207 30 is_stmt 0 view .LVU57
 201 0012 C0F81110 		str	r1, [r0, #17]	@ unaligned
 209:Bsp/Bsp_Uart.c ****         return false;
 202              		.loc 1 209 5 is_stmt 1 view .LVU58
 209:Bsp/Bsp_Uart.c ****         return false;
 203              		.loc 1 209 9 is_stmt 0 view .LVU59
 204 0016 0930     		adds	r0, r0, #9
 205              	.LVL16:
 209:Bsp/Bsp_Uart.c ****         return false;
 206              		.loc 1 209 9 view .LVU60
 207 0018 FFF7FEFF 		bl	HAL_UART_Init
 208              	.LVL17:
 209:Bsp/Bsp_Uart.c ****         return false;
 209              		.loc 1 209 8 view .LVU61
 210 001c 0028     		cmp	r0, #0
 211 001e F2D0     		beq	.L17
 210:Bsp/Bsp_Uart.c **** 
 212              		.loc 1 210 16 view .LVU62
 213 0020 0024     		movs	r4, #0
 214 0022 F0E7     		b	.L17
 215              		.cfi_endproc
 216              	.LFE146:
 218              		.section	.text.BspUart_Set_Parity,"ax",%progbits
 219              		.align	1
 220              		.global	BspUart_Set_Parity
 221              		.syntax unified
 222              		.thumb
 223              		.thumb_func
 224              		.fpu fpv5-d16
 226              	BspUart_Set_Parity:
 227              	.LVL18:
 228              	.LFB147:
 216:Bsp/Bsp_Uart.c ****     if (obj || !obj->init_state)
ARM GAS  /var/folders/lx/hc4sn_b53233_zkc9xbbl97r0000gp/T//ccWOh4VS.s 			page 11


 229              		.loc 1 216 1 is_stmt 1 view -0
 230              		.cfi_startproc
 231              		@ args = 0, pretend = 0, frame = 0
 232              		@ frame_needed = 0, uses_anonymous_args = 0
 216:Bsp/Bsp_Uart.c ****     if (obj || !obj->init_state)
 233              		.loc 1 216 1 is_stmt 0 view .LVU64
 234 0000 10B5     		push	{r4, lr}
 235              	.LCFI2:
 236              		.cfi_def_cfa_offset 8
 237              		.cfi_offset 4, -8
 238              		.cfi_offset 14, -4
 217:Bsp/Bsp_Uart.c ****         return false;
 239              		.loc 1 217 5 is_stmt 1 view .LVU65
 217:Bsp/Bsp_Uart.c ****         return false;
 240              		.loc 1 217 8 is_stmt 0 view .LVU66
 241 0002 10B1     		cbz	r0, .L27
 218:Bsp/Bsp_Uart.c **** 
 242              		.loc 1 218 16 view .LVU67
 243 0004 0024     		movs	r4, #0
 244              	.LVL19:
 245              	.L23:
 226:Bsp/Bsp_Uart.c **** 
 246              		.loc 1 226 1 view .LVU68
 247 0006 2046     		mov	r0, r4
 248 0008 10BD     		pop	{r4, pc}
 249              	.LVL20:
 250              	.L27:
 217:Bsp/Bsp_Uart.c ****         return false;
 251              		.loc 1 217 20 discriminator 1 view .LVU69
 252 000a 90F8B941 		ldrb	r4, [r0, #441]	@ zero_extendqisi2
 217:Bsp/Bsp_Uart.c ****         return false;
 253              		.loc 1 217 13 discriminator 1 view .LVU70
 254 000e 002C     		cmp	r4, #0
 255 0010 F9D0     		beq	.L23
 220:Bsp/Bsp_Uart.c **** 
 256              		.loc 1 220 5 is_stmt 1 view .LVU71
 220:Bsp/Bsp_Uart.c **** 
 257              		.loc 1 220 26 is_stmt 0 view .LVU72
 258 0012 C0F81910 		str	r1, [r0, #25]	@ unaligned
 222:Bsp/Bsp_Uart.c ****         return false;
 259              		.loc 1 222 5 is_stmt 1 view .LVU73
 222:Bsp/Bsp_Uart.c ****         return false;
 260              		.loc 1 222 9 is_stmt 0 view .LVU74
 261 0016 0930     		adds	r0, r0, #9
 262              	.LVL21:
 222:Bsp/Bsp_Uart.c ****         return false;
 263              		.loc 1 222 9 view .LVU75
 264 0018 FFF7FEFF 		bl	HAL_UART_Init
 265              	.LVL22:
 222:Bsp/Bsp_Uart.c ****         return false;
 266              		.loc 1 222 8 view .LVU76
 267 001c 0028     		cmp	r0, #0
 268 001e F2D0     		beq	.L23
 223:Bsp/Bsp_Uart.c **** 
 269              		.loc 1 223 16 view .LVU77
 270 0020 0024     		movs	r4, #0
 271 0022 F0E7     		b	.L23
ARM GAS  /var/folders/lx/hc4sn_b53233_zkc9xbbl97r0000gp/T//ccWOh4VS.s 			page 12


 272              		.cfi_endproc
 273              	.LFE147:
 275              		.section	.text.BspUart_Set_StopBit,"ax",%progbits
 276              		.align	1
 277              		.global	BspUart_Set_StopBit
 278              		.syntax unified
 279              		.thumb
 280              		.thumb_func
 281              		.fpu fpv5-d16
 283              	BspUart_Set_StopBit:
 284              	.LVL23:
 285              	.LFB148:
 229:Bsp/Bsp_Uart.c ****     if (obj || !obj->init_state)
 286              		.loc 1 229 1 is_stmt 1 view -0
 287              		.cfi_startproc
 288              		@ args = 0, pretend = 0, frame = 0
 289              		@ frame_needed = 0, uses_anonymous_args = 0
 229:Bsp/Bsp_Uart.c ****     if (obj || !obj->init_state)
 290              		.loc 1 229 1 is_stmt 0 view .LVU79
 291 0000 10B5     		push	{r4, lr}
 292              	.LCFI3:
 293              		.cfi_def_cfa_offset 8
 294              		.cfi_offset 4, -8
 295              		.cfi_offset 14, -4
 230:Bsp/Bsp_Uart.c ****         return false;
 296              		.loc 1 230 5 is_stmt 1 view .LVU80
 230:Bsp/Bsp_Uart.c ****         return false;
 297              		.loc 1 230 8 is_stmt 0 view .LVU81
 298 0002 10B1     		cbz	r0, .L33
 231:Bsp/Bsp_Uart.c **** 
 299              		.loc 1 231 16 view .LVU82
 300 0004 0024     		movs	r4, #0
 301              	.LVL24:
 302              	.L29:
 239:Bsp/Bsp_Uart.c **** 
 303              		.loc 1 239 1 view .LVU83
 304 0006 2046     		mov	r0, r4
 305 0008 10BD     		pop	{r4, pc}
 306              	.LVL25:
 307              	.L33:
 230:Bsp/Bsp_Uart.c ****         return false;
 308              		.loc 1 230 20 discriminator 1 view .LVU84
 309 000a 90F8B941 		ldrb	r4, [r0, #441]	@ zero_extendqisi2
 230:Bsp/Bsp_Uart.c ****         return false;
 310              		.loc 1 230 13 discriminator 1 view .LVU85
 311 000e 002C     		cmp	r4, #0
 312 0010 F9D0     		beq	.L29
 233:Bsp/Bsp_Uart.c **** 
 313              		.loc 1 233 5 is_stmt 1 view .LVU86
 233:Bsp/Bsp_Uart.c **** 
 314              		.loc 1 233 28 is_stmt 0 view .LVU87
 315 0012 C0F81510 		str	r1, [r0, #21]	@ unaligned
 235:Bsp/Bsp_Uart.c ****         return false;
 316              		.loc 1 235 5 is_stmt 1 view .LVU88
 235:Bsp/Bsp_Uart.c ****         return false;
 317              		.loc 1 235 9 is_stmt 0 view .LVU89
 318 0016 0930     		adds	r0, r0, #9
ARM GAS  /var/folders/lx/hc4sn_b53233_zkc9xbbl97r0000gp/T//ccWOh4VS.s 			page 13


 319              	.LVL26:
 235:Bsp/Bsp_Uart.c ****         return false;
 320              		.loc 1 235 9 view .LVU90
 321 0018 FFF7FEFF 		bl	HAL_UART_Init
 322              	.LVL27:
 235:Bsp/Bsp_Uart.c ****         return false;
 323              		.loc 1 235 8 view .LVU91
 324 001c 0028     		cmp	r0, #0
 325 001e F2D0     		beq	.L29
 236:Bsp/Bsp_Uart.c **** 
 326              		.loc 1 236 16 view .LVU92
 327 0020 0024     		movs	r4, #0
 328 0022 F0E7     		b	.L29
 329              		.cfi_endproc
 330              	.LFE148:
 332              		.section	.text.BspUart_Swap_Pin,"ax",%progbits
 333              		.align	1
 334              		.global	BspUart_Swap_Pin
 335              		.syntax unified
 336              		.thumb
 337              		.thumb_func
 338              		.fpu fpv5-d16
 340              	BspUart_Swap_Pin:
 341              	.LVL28:
 342              	.LFB149:
 242:Bsp/Bsp_Uart.c ****     if (obj || !obj->init_state)
 343              		.loc 1 242 1 is_stmt 1 view -0
 344              		.cfi_startproc
 345              		@ args = 0, pretend = 0, frame = 0
 346              		@ frame_needed = 0, uses_anonymous_args = 0
 242:Bsp/Bsp_Uart.c ****     if (obj || !obj->init_state)
 347              		.loc 1 242 1 is_stmt 0 view .LVU94
 348 0000 10B5     		push	{r4, lr}
 349              	.LCFI4:
 350              		.cfi_def_cfa_offset 8
 351              		.cfi_offset 4, -8
 352              		.cfi_offset 14, -4
 243:Bsp/Bsp_Uart.c ****         return false;
 353              		.loc 1 243 5 is_stmt 1 view .LVU95
 243:Bsp/Bsp_Uart.c ****         return false;
 354              		.loc 1 243 8 is_stmt 0 view .LVU96
 355 0002 10B1     		cbz	r0, .L41
 244:Bsp/Bsp_Uart.c **** 
 356              		.loc 1 244 16 view .LVU97
 357 0004 0024     		movs	r4, #0
 358              	.LVL29:
 359              	.L35:
 259:Bsp/Bsp_Uart.c **** 
 360              		.loc 1 259 1 view .LVU98
 361 0006 2046     		mov	r0, r4
 362 0008 10BD     		pop	{r4, pc}
 363              	.LVL30:
 364              	.L41:
 259:Bsp/Bsp_Uart.c **** 
 365              		.loc 1 259 1 view .LVU99
 366 000a 0346     		mov	r3, r0
 243:Bsp/Bsp_Uart.c ****         return false;
ARM GAS  /var/folders/lx/hc4sn_b53233_zkc9xbbl97r0000gp/T//ccWOh4VS.s 			page 14


 367              		.loc 1 243 20 discriminator 1 view .LVU100
 368 000c 90F8B941 		ldrb	r4, [r0, #441]	@ zero_extendqisi2
 243:Bsp/Bsp_Uart.c ****         return false;
 369              		.loc 1 243 13 discriminator 1 view .LVU101
 370 0010 002C     		cmp	r4, #0
 371 0012 F8D0     		beq	.L35
 246:Bsp/Bsp_Uart.c **** 
 372              		.loc 1 246 5 is_stmt 1 view .LVU102
 246:Bsp/Bsp_Uart.c **** 
 373              		.loc 1 246 19 is_stmt 0 view .LVU103
 374 0014 0171     		strb	r1, [r0, #4]
 248:Bsp/Bsp_Uart.c ****     {
 375              		.loc 1 248 5 is_stmt 1 view .LVU104
 248:Bsp/Bsp_Uart.c ****     {
 376              		.loc 1 248 8 is_stmt 0 view .LVU105
 377 0016 91B1     		cbz	r1, .L36
 250:Bsp/Bsp_Uart.c ****     }
 378              		.loc 1 250 9 is_stmt 1 view .LVU106
 250:Bsp/Bsp_Uart.c ****     }
 379              		.loc 1 250 36 is_stmt 0 view .LVU107
 380 0018 0022     		movs	r2, #0
 381 001a 80F84120 		strb	r2, [r0, #65]
 382 001e 6FF07F01 		mvn	r1, #127
 383              	.LVL31:
 250:Bsp/Bsp_Uart.c ****     }
 384              		.loc 1 250 36 view .LVU108
 385 0022 80F84210 		strb	r1, [r0, #66]
 386 0026 80F84320 		strb	r2, [r0, #67]
 387 002a 80F84420 		strb	r2, [r0, #68]
 388              	.L37:
 255:Bsp/Bsp_Uart.c ****         return false;
 389              		.loc 1 255 5 is_stmt 1 view .LVU109
 255:Bsp/Bsp_Uart.c ****         return false;
 390              		.loc 1 255 9 is_stmt 0 view .LVU110
 391 002e 03F10900 		add	r0, r3, #9
 392              	.LVL32:
 255:Bsp/Bsp_Uart.c ****         return false;
 393              		.loc 1 255 9 view .LVU111
 394 0032 FFF7FEFF 		bl	HAL_UART_Init
 395              	.LVL33:
 255:Bsp/Bsp_Uart.c ****         return false;
 396              		.loc 1 255 8 view .LVU112
 397 0036 0028     		cmp	r0, #0
 398 0038 E5D0     		beq	.L35
 256:Bsp/Bsp_Uart.c **** 
 399              		.loc 1 256 16 view .LVU113
 400 003a 0024     		movs	r4, #0
 401 003c E3E7     		b	.L35
 402              	.LVL34:
 403              	.L36:
 253:Bsp/Bsp_Uart.c **** 
 404              		.loc 1 253 9 is_stmt 1 view .LVU114
 253:Bsp/Bsp_Uart.c **** 
 405              		.loc 1 253 36 is_stmt 0 view .LVU115
 406 003e 0022     		movs	r2, #0
 407 0040 80F84120 		strb	r2, [r0, #65]
 408 0044 80F84220 		strb	r2, [r0, #66]
ARM GAS  /var/folders/lx/hc4sn_b53233_zkc9xbbl97r0000gp/T//ccWOh4VS.s 			page 15


 409 0048 80F84320 		strb	r2, [r0, #67]
 410 004c 80F84420 		strb	r2, [r0, #68]
 411 0050 EDE7     		b	.L37
 412              		.cfi_endproc
 413              	.LFE149:
 415              		.section	.text.BspUart_Init_Clock,"ax",%progbits
 416              		.align	1
 417              		.syntax unified
 418              		.thumb
 419              		.thumb_func
 420              		.fpu fpv5-d16
 422              	BspUart_Init_Clock:
 423              	.LVL35:
 424              	.LFB144:
  34:Bsp/Bsp_Uart.c ****     RCC_PeriphCLKInitTypeDef PeriphClkInitStruct = {0};
 425              		.loc 1 34 1 is_stmt 1 view -0
 426              		.cfi_startproc
 427              		@ args = 0, pretend = 0, frame = 440
 428              		@ frame_needed = 0, uses_anonymous_args = 0
  34:Bsp/Bsp_Uart.c ****     RCC_PeriphCLKInitTypeDef PeriphClkInitStruct = {0};
 429              		.loc 1 34 1 is_stmt 0 view .LVU117
 430 0000 2DE9F041 		push	{r4, r5, r6, r7, r8, lr}
 431              	.LCFI5:
 432              		.cfi_def_cfa_offset 24
 433              		.cfi_offset 4, -24
 434              		.cfi_offset 5, -20
 435              		.cfi_offset 6, -16
 436              		.cfi_offset 7, -12
 437              		.cfi_offset 8, -8
 438              		.cfi_offset 14, -4
 439 0004 EEB0     		sub	sp, sp, #440
 440              	.LCFI6:
 441              		.cfi_def_cfa_offset 464
 442 0006 0446     		mov	r4, r0
  35:Bsp/Bsp_Uart.c ****     DMA_HandleTypeDef tx_dma_cfg = {0};
 443              		.loc 1 35 5 is_stmt 1 view .LVU118
  35:Bsp/Bsp_Uart.c ****     DMA_HandleTypeDef tx_dma_cfg = {0};
 444              		.loc 1 35 30 is_stmt 0 view .LVU119
 445 0008 BC22     		movs	r2, #188
 446 000a 0021     		movs	r1, #0
 447 000c 3FA8     		add	r0, sp, #252
 448              	.LVL36:
  35:Bsp/Bsp_Uart.c ****     DMA_HandleTypeDef tx_dma_cfg = {0};
 449              		.loc 1 35 30 view .LVU120
 450 000e FFF7FEFF 		bl	memset
 451              	.LVL37:
  36:Bsp/Bsp_Uart.c ****     DMA_HandleTypeDef rx_dma_cfg = {0};
 452              		.loc 1 36 5 is_stmt 1 view .LVU121
  36:Bsp/Bsp_Uart.c ****     DMA_HandleTypeDef rx_dma_cfg = {0};
 453              		.loc 1 36 23 is_stmt 0 view .LVU122
 454 0012 7825     		movs	r5, #120
 455 0014 2A46     		mov	r2, r5
 456 0016 0021     		movs	r1, #0
 457 0018 21A8     		add	r0, sp, #132
 458 001a FFF7FEFF 		bl	memset
 459              	.LVL38:
  37:Bsp/Bsp_Uart.c ****     IRQn_Type irqn;
ARM GAS  /var/folders/lx/hc4sn_b53233_zkc9xbbl97r0000gp/T//ccWOh4VS.s 			page 16


 460              		.loc 1 37 5 is_stmt 1 view .LVU123
  37:Bsp/Bsp_Uart.c ****     IRQn_Type irqn;
 461              		.loc 1 37 23 is_stmt 0 view .LVU124
 462 001e 2A46     		mov	r2, r5
 463 0020 0021     		movs	r1, #0
 464 0022 03A8     		add	r0, sp, #12
 465 0024 FFF7FEFF 		bl	memset
 466              	.LVL39:
  38:Bsp/Bsp_Uart.c ****     int8_t index = Bspuart_None_Index;
 467              		.loc 1 38 5 is_stmt 1 view .LVU125
  39:Bsp/Bsp_Uart.c **** 
 468              		.loc 1 39 5 view .LVU126
  41:Bsp/Bsp_Uart.c ****     tx_dma_cfg.Init.MemInc = DMA_MINC_ENABLE;
 469              		.loc 1 41 5 view .LVU127
  42:Bsp/Bsp_Uart.c ****     tx_dma_cfg.Init.PeriphDataAlignment = DMA_PDATAALIGN_BYTE;
 470              		.loc 1 42 5 view .LVU128
  42:Bsp/Bsp_Uart.c ****     tx_dma_cfg.Init.PeriphDataAlignment = DMA_PDATAALIGN_BYTE;
 471              		.loc 1 42 28 is_stmt 0 view .LVU129
 472 0028 4FF48062 		mov	r2, #1024
 473 002c 2592     		str	r2, [sp, #148]
  43:Bsp/Bsp_Uart.c ****     tx_dma_cfg.Init.MemDataAlignment = DMA_MDATAALIGN_BYTE;
 474              		.loc 1 43 5 is_stmt 1 view .LVU130
  44:Bsp/Bsp_Uart.c ****     tx_dma_cfg.Init.Mode = DMA_NORMAL;
 475              		.loc 1 44 5 view .LVU131
  45:Bsp/Bsp_Uart.c ****     tx_dma_cfg.Init.Priority = DMA_PRIORITY_MEDIUM;
 476              		.loc 1 45 5 view .LVU132
  46:Bsp/Bsp_Uart.c ****     tx_dma_cfg.Init.FIFOMode = DMA_FIFOMODE_DISABLE;
 477              		.loc 1 46 5 view .LVU133
  46:Bsp/Bsp_Uart.c ****     tx_dma_cfg.Init.FIFOMode = DMA_FIFOMODE_DISABLE;
 478              		.loc 1 46 30 is_stmt 0 view .LVU134
 479 002e 4FF48033 		mov	r3, #65536
 480 0032 2993     		str	r3, [sp, #164]
  47:Bsp/Bsp_Uart.c ****     tx_dma_cfg.Init.Direction = DMA_MEMORY_TO_PERIPH;
 481              		.loc 1 47 5 is_stmt 1 view .LVU135
  48:Bsp/Bsp_Uart.c **** 
 482              		.loc 1 48 5 view .LVU136
  48:Bsp/Bsp_Uart.c **** 
 483              		.loc 1 48 31 is_stmt 0 view .LVU137
 484 0034 4021     		movs	r1, #64
 485 0036 2391     		str	r1, [sp, #140]
  50:Bsp/Bsp_Uart.c ****     rx_dma_cfg.Init.PeriphInc = DMA_PINC_DISABLE;
 486              		.loc 1 50 5 is_stmt 1 view .LVU138
  51:Bsp/Bsp_Uart.c ****     rx_dma_cfg.Init.MemInc = DMA_MINC_ENABLE;
 487              		.loc 1 51 5 view .LVU139
  52:Bsp/Bsp_Uart.c ****     rx_dma_cfg.Init.PeriphDataAlignment = DMA_PDATAALIGN_BYTE;
 488              		.loc 1 52 5 view .LVU140
  52:Bsp/Bsp_Uart.c ****     rx_dma_cfg.Init.PeriphDataAlignment = DMA_PDATAALIGN_BYTE;
 489              		.loc 1 52 28 is_stmt 0 view .LVU141
 490 0038 0792     		str	r2, [sp, #28]
  53:Bsp/Bsp_Uart.c ****     rx_dma_cfg.Init.MemDataAlignment = DMA_MDATAALIGN_BYTE;
 491              		.loc 1 53 5 is_stmt 1 view .LVU142
  54:Bsp/Bsp_Uart.c ****     rx_dma_cfg.Init.Mode = DMA_NORMAL;
 492              		.loc 1 54 5 view .LVU143
  55:Bsp/Bsp_Uart.c ****     rx_dma_cfg.Init.Priority = DMA_PRIORITY_MEDIUM;
 493              		.loc 1 55 5 view .LVU144
  56:Bsp/Bsp_Uart.c ****     rx_dma_cfg.Init.FIFOMode = DMA_FIFOMODE_DISABLE;
 494              		.loc 1 56 5 view .LVU145
ARM GAS  /var/folders/lx/hc4sn_b53233_zkc9xbbl97r0000gp/T//ccWOh4VS.s 			page 17


  56:Bsp/Bsp_Uart.c ****     rx_dma_cfg.Init.FIFOMode = DMA_FIFOMODE_DISABLE;
 495              		.loc 1 56 30 is_stmt 0 view .LVU146
 496 003a 0B93     		str	r3, [sp, #44]
  57:Bsp/Bsp_Uart.c **** 
 497              		.loc 1 57 5 is_stmt 1 view .LVU147
  59:Bsp/Bsp_Uart.c ****         (obj->hdl.Instance == NULL) ||
 498              		.loc 1 59 5 view .LVU148
  59:Bsp/Bsp_Uart.c ****         (obj->hdl.Instance == NULL) ||
 499              		.loc 1 59 8 is_stmt 0 view .LVU149
 500 003c 002C     		cmp	r4, #0
 501 003e 00F0C080 		beq	.L49
  60:Bsp/Bsp_Uart.c ****         (obj->tx_dma_hdl.Instance == NULL) ||
 502              		.loc 1 60 18 discriminator 1 view .LVU150
 503 0042 D4F80930 		ldr	r3, [r4, #9]	@ unaligned
  59:Bsp/Bsp_Uart.c ****         (obj->hdl.Instance == NULL) ||
 504              		.loc 1 59 23 discriminator 1 view .LVU151
 505 0046 002B     		cmp	r3, #0
 506 0048 00F0BE80 		beq	.L50
  61:Bsp/Bsp_Uart.c ****         (obj->rx_dma_hdl.Instance == NULL))
 507              		.loc 1 61 25 view .LVU152
 508 004c D4F89B20 		ldr	r2, [r4, #155]	@ unaligned
  60:Bsp/Bsp_Uart.c ****         (obj->tx_dma_hdl.Instance == NULL) ||
 509              		.loc 1 60 37 view .LVU153
 510 0050 002A     		cmp	r2, #0
 511 0052 00F0BC80 		beq	.L51
  62:Bsp/Bsp_Uart.c ****         return BspUart_Clock_Error;
 512              		.loc 1 62 25 view .LVU154
 513 0056 D4F81521 		ldr	r2, [r4, #277]	@ unaligned
  61:Bsp/Bsp_Uart.c ****         (obj->rx_dma_hdl.Instance == NULL))
 514              		.loc 1 61 44 view .LVU155
 515 005a 002A     		cmp	r2, #0
 516 005c 00F0BA80 		beq	.L52
  65:Bsp/Bsp_Uart.c ****     {
 517              		.loc 1 65 5 is_stmt 1 view .LVU156
  65:Bsp/Bsp_Uart.c ****     {
 518              		.loc 1 65 8 is_stmt 0 view .LVU157
 519 0060 674A     		ldr	r2, .L62
 520 0062 9342     		cmp	r3, r2
 521 0064 76D0     		beq	.L60
  81:Bsp/Bsp_Uart.c ****     {
 522              		.loc 1 81 10 is_stmt 1 view .LVU158
  81:Bsp/Bsp_Uart.c ****     {
 523              		.loc 1 81 13 is_stmt 0 view .LVU159
 524 0066 674A     		ldr	r2, .L62+4
 525 0068 9342     		cmp	r3, r2
 526 006a 00F08E80 		beq	.L61
  97:Bsp/Bsp_Uart.c ****     {
 527              		.loc 1 97 10 is_stmt 1 view .LVU160
  97:Bsp/Bsp_Uart.c ****     {
 528              		.loc 1 97 13 is_stmt 0 view .LVU161
 529 006e 664A     		ldr	r2, .L62+8
 530 0070 9342     		cmp	r3, r2
 531 0072 40F0B880 		bne	.L55
  99:Bsp/Bsp_Uart.c ****         PeriphClkInitStruct.Usart234578ClockSelection = RCC_USART234578CLKSOURCE_D2PCLK1;
 532              		.loc 1 99 9 is_stmt 1 view .LVU162
  99:Bsp/Bsp_Uart.c ****         PeriphClkInitStruct.Usart234578ClockSelection = RCC_USART234578CLKSOURCE_D2PCLK1;
 533              		.loc 1 99 50 is_stmt 0 view .LVU163
ARM GAS  /var/folders/lx/hc4sn_b53233_zkc9xbbl97r0000gp/T//ccWOh4VS.s 			page 18


 534 0076 0223     		movs	r3, #2
 535 0078 3F93     		str	r3, [sp, #252]
 100:Bsp/Bsp_Uart.c **** 
 536              		.loc 1 100 9 is_stmt 1 view .LVU164
 102:Bsp/Bsp_Uart.c ****             return BspUart_Clock_Error;
 537              		.loc 1 102 9 view .LVU165
 102:Bsp/Bsp_Uart.c ****             return BspUart_Clock_Error;
 538              		.loc 1 102 13 is_stmt 0 view .LVU166
 539 007a 3FA8     		add	r0, sp, #252
 540 007c FFF7FEFF 		bl	HAL_RCCEx_PeriphCLKConfig
 541              	.LVL40:
 102:Bsp/Bsp_Uart.c ****             return BspUart_Clock_Error;
 542              		.loc 1 102 12 view .LVU167
 543 0080 0028     		cmp	r0, #0
 544 0082 40F0B380 		bne	.L56
 105:Bsp/Bsp_Uart.c **** 
 545              		.loc 1 105 9 is_stmt 1 view .LVU168
 546              	.LBB2:
 105:Bsp/Bsp_Uart.c **** 
 547              		.loc 1 105 9 view .LVU169
 105:Bsp/Bsp_Uart.c **** 
 548              		.loc 1 105 9 view .LVU170
 549 0086 614B     		ldr	r3, .L62+12
 550 0088 D3F8E820 		ldr	r2, [r3, #232]
 551 008c 42F08042 		orr	r2, r2, #1073741824
 552 0090 C3F8E820 		str	r2, [r3, #232]
 105:Bsp/Bsp_Uart.c **** 
 553              		.loc 1 105 9 view .LVU171
 554 0094 D3F8E830 		ldr	r3, [r3, #232]
 555 0098 03F08043 		and	r3, r3, #1073741824
 556 009c 0293     		str	r3, [sp, #8]
 105:Bsp/Bsp_Uart.c **** 
 557              		.loc 1 105 9 view .LVU172
 558 009e 029B     		ldr	r3, [sp, #8]
 559              	.LBE2:
 105:Bsp/Bsp_Uart.c **** 
 560              		.loc 1 105 9 view .LVU173
 107:Bsp/Bsp_Uart.c ****         tx_dma_cfg.Init.Request = DMA_REQUEST_UART7_TX;
 561              		.loc 1 107 9 view .LVU174
 107:Bsp/Bsp_Uart.c ****         tx_dma_cfg.Init.Request = DMA_REQUEST_UART7_TX;
 562              		.loc 1 107 33 is_stmt 0 view .LVU175
 563 00a0 4F23     		movs	r3, #79
 564 00a2 0493     		str	r3, [sp, #16]
 108:Bsp/Bsp_Uart.c **** 
 565              		.loc 1 108 9 is_stmt 1 view .LVU176
 108:Bsp/Bsp_Uart.c **** 
 566              		.loc 1 108 33 is_stmt 0 view .LVU177
 567 00a4 5023     		movs	r3, #80
 568 00a6 2293     		str	r3, [sp, #136]
 110:Bsp/Bsp_Uart.c ****         index = BspUART_Port_7;
 569              		.loc 1 110 9 is_stmt 1 view .LVU178
 570              	.LVL41:
 111:Bsp/Bsp_Uart.c ****     }
 571              		.loc 1 111 9 view .LVU179
 111:Bsp/Bsp_Uart.c ****     }
 572              		.loc 1 111 15 is_stmt 0 view .LVU180
 573 00a8 0225     		movs	r5, #2
ARM GAS  /var/folders/lx/hc4sn_b53233_zkc9xbbl97r0000gp/T//ccWOh4VS.s 			page 19


 110:Bsp/Bsp_Uart.c ****         index = BspUART_Port_7;
 574              		.loc 1 110 14 view .LVU181
 575 00aa 5227     		movs	r7, #82
 576              	.LVL42:
 577              	.L45:
 116:Bsp/Bsp_Uart.c ****     obj->rx_dma_hdl = rx_dma_cfg;
 578              		.loc 1 116 5 is_stmt 1 view .LVU182
 116:Bsp/Bsp_Uart.c ****     obj->rx_dma_hdl = rx_dma_cfg;
 579              		.loc 1 116 21 is_stmt 0 view .LVU183
 580 00ac 4FF07808 		mov	r8, #120
 581 00b0 4246     		mov	r2, r8
 582 00b2 21A9     		add	r1, sp, #132
 583 00b4 04F19B00 		add	r0, r4, #155
 584 00b8 FFF7FEFF 		bl	memcpy
 585              	.LVL43:
 117:Bsp/Bsp_Uart.c **** 
 586              		.loc 1 117 5 is_stmt 1 view .LVU184
 117:Bsp/Bsp_Uart.c **** 
 587              		.loc 1 117 21 is_stmt 0 view .LVU185
 588 00bc 04F21516 		addw	r6, r4, #277
 589 00c0 4246     		mov	r2, r8
 590 00c2 03A9     		add	r1, sp, #12
 591 00c4 3046     		mov	r0, r6
 592 00c6 FFF7FEFF 		bl	memcpy
 593              	.LVL44:
 119:Bsp/Bsp_Uart.c ****         !BspDMA.regist(obj->tx_dma, obj->tx_stream, &(obj->rx_dma_hdl)))
 594              		.loc 1 119 5 is_stmt 1 view .LVU186
 119:Bsp/Bsp_Uart.c ****         !BspDMA.regist(obj->tx_dma, obj->tx_stream, &(obj->rx_dma_hdl)))
 595              		.loc 1 119 16 is_stmt 0 view .LVU187
 596 00ca 514B     		ldr	r3, .L62+16
 597 00cc 1B68     		ldr	r3, [r3]
 119:Bsp/Bsp_Uart.c ****         !BspDMA.regist(obj->tx_dma, obj->tx_stream, &(obj->rx_dma_hdl)))
 598              		.loc 1 119 10 view .LVU188
 599 00ce 3246     		mov	r2, r6
 600 00d0 94F81411 		ldrb	r1, [r4, #276]	@ zero_extendqisi2
 601 00d4 94F81301 		ldrb	r0, [r4, #275]	@ zero_extendqisi2
 602 00d8 9847     		blx	r3
 603              	.LVL45:
 119:Bsp/Bsp_Uart.c ****         !BspDMA.regist(obj->tx_dma, obj->tx_stream, &(obj->rx_dma_hdl)))
 604              		.loc 1 119 8 view .LVU189
 605 00da 0028     		cmp	r0, #0
 606 00dc 6ED0     		beq	.L47
 120:Bsp/Bsp_Uart.c ****         return BspUart_Clock_Error;
 607              		.loc 1 120 16 discriminator 1 view .LVU190
 608 00de 4C4B     		ldr	r3, .L62+16
 609 00e0 1B68     		ldr	r3, [r3]
 120:Bsp/Bsp_Uart.c ****         return BspUart_Clock_Error;
 610              		.loc 1 120 10 discriminator 1 view .LVU191
 611 00e2 3246     		mov	r2, r6
 612 00e4 94F89A10 		ldrb	r1, [r4, #154]	@ zero_extendqisi2
 613 00e8 94F89900 		ldrb	r0, [r4, #153]	@ zero_extendqisi2
 614 00ec 9847     		blx	r3
 615              	.LVL46:
 119:Bsp/Bsp_Uart.c ****         !BspDMA.regist(obj->tx_dma, obj->tx_stream, &(obj->rx_dma_hdl)))
 616              		.loc 1 119 73 discriminator 1 view .LVU192
 617 00ee 0028     		cmp	r0, #0
 618 00f0 64D0     		beq	.L47
ARM GAS  /var/folders/lx/hc4sn_b53233_zkc9xbbl97r0000gp/T//ccWOh4VS.s 			page 20


 124:Bsp/Bsp_Uart.c ****     BspGPIO.alt_init(obj->tx_io);
 619              		.loc 1 124 5 is_stmt 1 view .LVU193
 124:Bsp/Bsp_Uart.c ****     BspGPIO.alt_init(obj->tx_io);
 620              		.loc 1 124 12 is_stmt 0 view .LVU194
 621 00f2 484E     		ldr	r6, .L62+20
 622 00f4 F368     		ldr	r3, [r6, #12]
 124:Bsp/Bsp_Uart.c ****     BspGPIO.alt_init(obj->tx_io);
 623              		.loc 1 124 5 view .LVU195
 624 00f6 D4F89901 		ldr	r0, [r4, #409]	@ unaligned
 625 00fa D4F89D11 		ldr	r1, [r4, #413]	@ unaligned
 626 00fe D4F8A121 		ldr	r2, [r4, #417]	@ unaligned
 627 0102 9847     		blx	r3
 628              	.LVL47:
 125:Bsp/Bsp_Uart.c **** 
 629              		.loc 1 125 5 is_stmt 1 view .LVU196
 125:Bsp/Bsp_Uart.c **** 
 630              		.loc 1 125 12 is_stmt 0 view .LVU197
 631 0104 F368     		ldr	r3, [r6, #12]
 125:Bsp/Bsp_Uart.c **** 
 632              		.loc 1 125 5 view .LVU198
 633 0106 D4F88D01 		ldr	r0, [r4, #397]	@ unaligned
 634 010a D4F89111 		ldr	r1, [r4, #401]	@ unaligned
 635 010e D4F89521 		ldr	r2, [r4, #405]	@ unaligned
 636 0112 9847     		blx	r3
 637              	.LVL48:
 127:Bsp/Bsp_Uart.c ****         return BspUart_Clock_Error;
 638              		.loc 1 127 5 is_stmt 1 view .LVU199
 127:Bsp/Bsp_Uart.c ****         return BspUart_Clock_Error;
 639              		.loc 1 127 9 is_stmt 0 view .LVU200
 640 0114 03A8     		add	r0, sp, #12
 641 0116 FFF7FEFF 		bl	HAL_DMA_Init
 642              	.LVL49:
 127:Bsp/Bsp_Uart.c ****         return BspUart_Clock_Error;
 643              		.loc 1 127 8 view .LVU201
 644 011a 0028     		cmp	r0, #0
 645 011c 69D1     		bne	.L57
 130:Bsp/Bsp_Uart.c **** 
 646              		.loc 1 130 5 is_stmt 1 view .LVU202
 130:Bsp/Bsp_Uart.c **** 
 647              		.loc 1 130 5 view .LVU203
 648 011e 03AB     		add	r3, sp, #12
 649 0120 C4F88530 		str	r3, [r4, #133]	@ unaligned
 130:Bsp/Bsp_Uart.c **** 
 650              		.loc 1 130 5 view .LVU204
 651 0124 04F10906 		add	r6, r4, #9
 652 0128 1196     		str	r6, [sp, #68]
 130:Bsp/Bsp_Uart.c **** 
 653              		.loc 1 130 5 view .LVU205
 132:Bsp/Bsp_Uart.c ****         return BspUart_Clock_Error;
 654              		.loc 1 132 5 view .LVU206
 132:Bsp/Bsp_Uart.c ****         return BspUart_Clock_Error;
 655              		.loc 1 132 9 is_stmt 0 view .LVU207
 656 012a 21A8     		add	r0, sp, #132
 657 012c FFF7FEFF 		bl	HAL_DMA_Init
 658              	.LVL50:
 132:Bsp/Bsp_Uart.c ****         return BspUart_Clock_Error;
 659              		.loc 1 132 8 view .LVU208
ARM GAS  /var/folders/lx/hc4sn_b53233_zkc9xbbl97r0000gp/T//ccWOh4VS.s 			page 21


 660 0130 0028     		cmp	r0, #0
 661 0132 61D1     		bne	.L58
 135:Bsp/Bsp_Uart.c **** 
 662              		.loc 1 135 5 is_stmt 1 view .LVU209
 135:Bsp/Bsp_Uart.c **** 
 663              		.loc 1 135 5 view .LVU210
 664 0134 21AB     		add	r3, sp, #132
 665 0136 C4F88130 		str	r3, [r4, #129]	@ unaligned
 135:Bsp/Bsp_Uart.c **** 
 666              		.loc 1 135 5 view .LVU211
 667 013a 2F96     		str	r6, [sp, #188]
 135:Bsp/Bsp_Uart.c **** 
 668              		.loc 1 135 5 view .LVU212
 137:Bsp/Bsp_Uart.c ****     HAL_NVIC_EnableIRQ(irqn);
 669              		.loc 1 137 5 view .LVU213
 670 013c 0022     		movs	r2, #0
 671 013e 1146     		mov	r1, r2
 672 0140 3846     		mov	r0, r7
 673 0142 FFF7FEFF 		bl	HAL_NVIC_SetPriority
 674              	.LVL51:
 138:Bsp/Bsp_Uart.c **** 
 675              		.loc 1 138 5 view .LVU214
 676 0146 3846     		mov	r0, r7
 677 0148 FFF7FEFF 		bl	HAL_NVIC_EnableIRQ
 678              	.LVL52:
 140:Bsp/Bsp_Uart.c **** }
 679              		.loc 1 140 5 view .LVU215
 140:Bsp/Bsp_Uart.c **** }
 680              		.loc 1 140 12 is_stmt 0 view .LVU216
 681 014c 2846     		mov	r0, r5
 682              	.LVL53:
 683              	.L42:
 141:Bsp/Bsp_Uart.c **** 
 684              		.loc 1 141 1 view .LVU217
 685 014e 6EB0     		add	sp, sp, #440
 686              	.LCFI7:
 687              		.cfi_remember_state
 688              		.cfi_def_cfa_offset 24
 689              		@ sp needed
 690 0150 BDE8F081 		pop	{r4, r5, r6, r7, r8, pc}
 691              	.LVL54:
 692              	.L60:
 693              	.LCFI8:
 694              		.cfi_restore_state
  67:Bsp/Bsp_Uart.c ****         PeriphClkInitStruct.Usart234578ClockSelection = RCC_USART234578CLKSOURCE_D2PCLK1;
 695              		.loc 1 67 9 is_stmt 1 view .LVU218
  67:Bsp/Bsp_Uart.c ****         PeriphClkInitStruct.Usart234578ClockSelection = RCC_USART234578CLKSOURCE_D2PCLK1;
 696              		.loc 1 67 50 is_stmt 0 view .LVU219
 697 0154 0223     		movs	r3, #2
 698 0156 3F93     		str	r3, [sp, #252]
  68:Bsp/Bsp_Uart.c **** 
 699              		.loc 1 68 9 is_stmt 1 view .LVU220
  70:Bsp/Bsp_Uart.c ****             return BspUart_Clock_Error;
 700              		.loc 1 70 9 view .LVU221
  70:Bsp/Bsp_Uart.c ****             return BspUart_Clock_Error;
 701              		.loc 1 70 13 is_stmt 0 view .LVU222
 702 0158 3FA8     		add	r0, sp, #252
ARM GAS  /var/folders/lx/hc4sn_b53233_zkc9xbbl97r0000gp/T//ccWOh4VS.s 			page 22


 703 015a FFF7FEFF 		bl	HAL_RCCEx_PeriphCLKConfig
 704              	.LVL55:
  70:Bsp/Bsp_Uart.c ****             return BspUart_Clock_Error;
 705              		.loc 1 70 12 view .LVU223
 706 015e 0028     		cmp	r0, #0
 707 0160 3BD1     		bne	.L53
  73:Bsp/Bsp_Uart.c **** 
 708              		.loc 1 73 9 is_stmt 1 view .LVU224
 709              	.LBB3:
  73:Bsp/Bsp_Uart.c **** 
 710              		.loc 1 73 9 view .LVU225
  73:Bsp/Bsp_Uart.c **** 
 711              		.loc 1 73 9 view .LVU226
 712 0162 2A4B     		ldr	r3, .L62+12
 713 0164 D3F8E820 		ldr	r2, [r3, #232]
 714 0168 42F40022 		orr	r2, r2, #524288
 715 016c C3F8E820 		str	r2, [r3, #232]
  73:Bsp/Bsp_Uart.c **** 
 716              		.loc 1 73 9 view .LVU227
 717 0170 D3F8E830 		ldr	r3, [r3, #232]
 718 0174 03F40023 		and	r3, r3, #524288
 719 0178 0093     		str	r3, [sp]
  73:Bsp/Bsp_Uart.c **** 
 720              		.loc 1 73 9 view .LVU228
 721 017a 009B     		ldr	r3, [sp]
 722              	.LBE3:
  73:Bsp/Bsp_Uart.c **** 
 723              		.loc 1 73 9 view .LVU229
  75:Bsp/Bsp_Uart.c ****         tx_dma_cfg.Init.Request = DMA_REQUEST_UART4_TX;
 724              		.loc 1 75 9 view .LVU230
  75:Bsp/Bsp_Uart.c ****         tx_dma_cfg.Init.Request = DMA_REQUEST_UART4_TX;
 725              		.loc 1 75 33 is_stmt 0 view .LVU231
 726 017c 3F23     		movs	r3, #63
 727 017e 0493     		str	r3, [sp, #16]
  76:Bsp/Bsp_Uart.c **** 
 728              		.loc 1 76 9 is_stmt 1 view .LVU232
  76:Bsp/Bsp_Uart.c **** 
 729              		.loc 1 76 33 is_stmt 0 view .LVU233
 730 0180 4023     		movs	r3, #64
 731 0182 2293     		str	r3, [sp, #136]
  78:Bsp/Bsp_Uart.c ****         index = BspUART_Port_4;
 732              		.loc 1 78 9 is_stmt 1 view .LVU234
 733              	.LVL56:
  79:Bsp/Bsp_Uart.c ****     }
 734              		.loc 1 79 9 view .LVU235
  79:Bsp/Bsp_Uart.c ****     }
 735              		.loc 1 79 15 is_stmt 0 view .LVU236
 736 0184 0025     		movs	r5, #0
  78:Bsp/Bsp_Uart.c ****         index = BspUART_Port_4;
 737              		.loc 1 78 14 view .LVU237
 738 0186 3427     		movs	r7, #52
 739 0188 90E7     		b	.L45
 740              	.LVL57:
 741              	.L61:
  83:Bsp/Bsp_Uart.c ****         PeriphClkInitStruct.Usart16ClockSelection = RCC_USART16CLKSOURCE_D2PCLK2;
 742              		.loc 1 83 9 is_stmt 1 view .LVU238
  83:Bsp/Bsp_Uart.c ****         PeriphClkInitStruct.Usart16ClockSelection = RCC_USART16CLKSOURCE_D2PCLK2;
ARM GAS  /var/folders/lx/hc4sn_b53233_zkc9xbbl97r0000gp/T//ccWOh4VS.s 			page 23


 743              		.loc 1 83 50 is_stmt 0 view .LVU239
 744 018a 0123     		movs	r3, #1
 745 018c 3F93     		str	r3, [sp, #252]
  84:Bsp/Bsp_Uart.c **** 
 746              		.loc 1 84 9 is_stmt 1 view .LVU240
  86:Bsp/Bsp_Uart.c ****             return BspUart_Clock_Error;
 747              		.loc 1 86 9 view .LVU241
  86:Bsp/Bsp_Uart.c ****             return BspUart_Clock_Error;
 748              		.loc 1 86 13 is_stmt 0 view .LVU242
 749 018e 3FA8     		add	r0, sp, #252
 750 0190 FFF7FEFF 		bl	HAL_RCCEx_PeriphCLKConfig
 751              	.LVL58:
  86:Bsp/Bsp_Uart.c ****             return BspUart_Clock_Error;
 752              		.loc 1 86 12 view .LVU243
 753 0194 20BB     		cbnz	r0, .L54
  89:Bsp/Bsp_Uart.c **** 
 754              		.loc 1 89 9 is_stmt 1 view .LVU244
 755              	.LBB4:
  89:Bsp/Bsp_Uart.c **** 
 756              		.loc 1 89 9 view .LVU245
  89:Bsp/Bsp_Uart.c **** 
 757              		.loc 1 89 9 view .LVU246
 758 0196 1D4B     		ldr	r3, .L62+12
 759 0198 D3F8F020 		ldr	r2, [r3, #240]
 760 019c 42F02002 		orr	r2, r2, #32
 761 01a0 C3F8F020 		str	r2, [r3, #240]
  89:Bsp/Bsp_Uart.c **** 
 762              		.loc 1 89 9 view .LVU247
 763 01a4 D3F8F030 		ldr	r3, [r3, #240]
 764 01a8 03F02003 		and	r3, r3, #32
 765 01ac 0193     		str	r3, [sp, #4]
  89:Bsp/Bsp_Uart.c **** 
 766              		.loc 1 89 9 view .LVU248
 767 01ae 019B     		ldr	r3, [sp, #4]
 768              	.LBE4:
  89:Bsp/Bsp_Uart.c **** 
 769              		.loc 1 89 9 view .LVU249
  91:Bsp/Bsp_Uart.c ****         tx_dma_cfg.Init.Request = DMA_REQUEST_USART6_TX;
 770              		.loc 1 91 9 view .LVU250
  91:Bsp/Bsp_Uart.c ****         tx_dma_cfg.Init.Request = DMA_REQUEST_USART6_TX;
 771              		.loc 1 91 33 is_stmt 0 view .LVU251
 772 01b0 4727     		movs	r7, #71
 773 01b2 0497     		str	r7, [sp, #16]
  92:Bsp/Bsp_Uart.c **** 
 774              		.loc 1 92 9 is_stmt 1 view .LVU252
  92:Bsp/Bsp_Uart.c **** 
 775              		.loc 1 92 33 is_stmt 0 view .LVU253
 776 01b4 4823     		movs	r3, #72
 777 01b6 2293     		str	r3, [sp, #136]
  94:Bsp/Bsp_Uart.c ****         index = BspUART_Port_6;
 778              		.loc 1 94 9 is_stmt 1 view .LVU254
 779              	.LVL59:
  95:Bsp/Bsp_Uart.c ****     }
 780              		.loc 1 95 9 view .LVU255
  95:Bsp/Bsp_Uart.c ****     }
 781              		.loc 1 95 15 is_stmt 0 view .LVU256
 782 01b8 0125     		movs	r5, #1
ARM GAS  /var/folders/lx/hc4sn_b53233_zkc9xbbl97r0000gp/T//ccWOh4VS.s 			page 24


 783 01ba 77E7     		b	.L45
 784              	.LVL60:
 785              	.L47:
 121:Bsp/Bsp_Uart.c **** 
 786              		.loc 1 121 9 is_stmt 1 view .LVU257
 121:Bsp/Bsp_Uart.c **** 
 787              		.loc 1 121 16 is_stmt 0 view .LVU258
 788 01bc 4FF0FF30 		mov	r0, #-1
 789 01c0 C5E7     		b	.L42
 790              	.LVL61:
 791              	.L49:
  63:Bsp/Bsp_Uart.c **** 
 792              		.loc 1 63 16 view .LVU259
 793 01c2 4FF0FF30 		mov	r0, #-1
 794 01c6 C2E7     		b	.L42
 795              	.L50:
 796 01c8 4FF0FF30 		mov	r0, #-1
 797 01cc BFE7     		b	.L42
 798              	.L51:
 799 01ce 4FF0FF30 		mov	r0, #-1
 800 01d2 BCE7     		b	.L42
 801              	.L52:
 802 01d4 4FF0FF30 		mov	r0, #-1
 803 01d8 B9E7     		b	.L42
 804              	.L53:
  71:Bsp/Bsp_Uart.c **** 
 805              		.loc 1 71 20 view .LVU260
 806 01da 4FF0FF30 		mov	r0, #-1
 807 01de B6E7     		b	.L42
 808              	.L54:
  87:Bsp/Bsp_Uart.c **** 
 809              		.loc 1 87 20 view .LVU261
 810 01e0 4FF0FF30 		mov	r0, #-1
 811 01e4 B3E7     		b	.L42
 812              	.L55:
 114:Bsp/Bsp_Uart.c **** 
 813              		.loc 1 114 16 view .LVU262
 814 01e6 4FF0FF30 		mov	r0, #-1
 815 01ea B0E7     		b	.L42
 816              	.L56:
 103:Bsp/Bsp_Uart.c **** 
 817              		.loc 1 103 20 view .LVU263
 818 01ec 4FF0FF30 		mov	r0, #-1
 819 01f0 ADE7     		b	.L42
 820              	.LVL62:
 821              	.L57:
 128:Bsp/Bsp_Uart.c **** 
 822              		.loc 1 128 16 view .LVU264
 823 01f2 4FF0FF30 		mov	r0, #-1
 824 01f6 AAE7     		b	.L42
 825              	.L58:
 133:Bsp/Bsp_Uart.c **** 
 826              		.loc 1 133 16 view .LVU265
 827 01f8 4FF0FF30 		mov	r0, #-1
 828 01fc A7E7     		b	.L42
 829              	.L63:
 830 01fe 00BF     		.align	2
ARM GAS  /var/folders/lx/hc4sn_b53233_zkc9xbbl97r0000gp/T//ccWOh4VS.s 			page 25


 831              	.L62:
 832 0200 004C0040 		.word	1073761280
 833 0204 00140140 		.word	1073812480
 834 0208 00780040 		.word	1073772544
 835 020c 00440258 		.word	1476543488
 836 0210 00000000 		.word	BspDMA
 837 0214 00000000 		.word	BspGPIO
 838              		.cfi_endproc
 839              	.LFE144:
 841              		.section	.text.BspUart_Init,"ax",%progbits
 842              		.align	1
 843              		.syntax unified
 844              		.thumb
 845              		.thumb_func
 846              		.fpu fpv5-d16
 848              	BspUart_Init:
 849              	.LVL63:
 850              	.LFB145:
 144:Bsp/Bsp_Uart.c ****     UART_HandleTypeDef uart_cfg;
 851              		.loc 1 144 1 is_stmt 1 view -0
 852              		.cfi_startproc
 853              		@ args = 0, pretend = 0, frame = 144
 854              		@ frame_needed = 0, uses_anonymous_args = 0
 144:Bsp/Bsp_Uart.c ****     UART_HandleTypeDef uart_cfg;
 855              		.loc 1 144 1 is_stmt 0 view .LVU267
 856 0000 30B5     		push	{r4, r5, lr}
 857              	.LCFI9:
 858              		.cfi_def_cfa_offset 12
 859              		.cfi_offset 4, -12
 860              		.cfi_offset 5, -8
 861              		.cfi_offset 14, -4
 862 0002 A5B0     		sub	sp, sp, #148
 863              	.LCFI10:
 864              		.cfi_def_cfa_offset 160
 865 0004 0446     		mov	r4, r0
 145:Bsp/Bsp_Uart.c ****     int8_t port_index;
 866              		.loc 1 145 5 is_stmt 1 view .LVU268
 146:Bsp/Bsp_Uart.c **** 
 867              		.loc 1 146 5 view .LVU269
 148:Bsp/Bsp_Uart.c **** 
 868              		.loc 1 148 5 view .LVU270
 148:Bsp/Bsp_Uart.c **** 
 869              		.loc 1 148 21 is_stmt 0 view .LVU271
 870 0006 0023     		movs	r3, #0
 871 0008 80F8B931 		strb	r3, [r0, #441]
 150:Bsp/Bsp_Uart.c **** 
 872              		.loc 1 150 5 is_stmt 1 view .LVU272
 150:Bsp/Bsp_Uart.c **** 
 873              		.loc 1 150 18 is_stmt 0 view .LVU273
 874 000c FFF7FEFF 		bl	BspUart_Init_Clock
 875              	.LVL64:
 150:Bsp/Bsp_Uart.c **** 
 876              		.loc 1 150 16 view .LVU274
 877 0010 45B2     		sxtb	r5, r0
 878              	.LVL65:
 152:Bsp/Bsp_Uart.c ****         return false;
 879              		.loc 1 152 5 is_stmt 1 view .LVU275
ARM GAS  /var/folders/lx/hc4sn_b53233_zkc9xbbl97r0000gp/T//ccWOh4VS.s 			page 26


 152:Bsp/Bsp_Uart.c ****         return false;
 880              		.loc 1 152 8 is_stmt 0 view .LVU276
 881 0012 002D     		cmp	r5, #0
 882 0014 76DB     		blt	.L69
 155:Bsp/Bsp_Uart.c ****     uart_cfg.Init.BaudRate = obj->baudrate;
 883              		.loc 1 155 5 is_stmt 1 view .LVU277
 155:Bsp/Bsp_Uart.c ****     uart_cfg.Init.BaudRate = obj->baudrate;
 884              		.loc 1 155 28 is_stmt 0 view .LVU278
 885 0016 D4F80530 		ldr	r3, [r4, #5]	@ unaligned
 155:Bsp/Bsp_Uart.c ****     uart_cfg.Init.BaudRate = obj->baudrate;
 886              		.loc 1 155 23 view .LVU279
 887 001a 0093     		str	r3, [sp]
 156:Bsp/Bsp_Uart.c ****     uart_cfg.Init.WordLength = UART_WORDLENGTH_8B;
 888              		.loc 1 156 5 is_stmt 1 view .LVU280
 156:Bsp/Bsp_Uart.c ****     uart_cfg.Init.WordLength = UART_WORDLENGTH_8B;
 889              		.loc 1 156 33 is_stmt 0 view .LVU281
 890 001c 2368     		ldr	r3, [r4]	@ unaligned
 156:Bsp/Bsp_Uart.c ****     uart_cfg.Init.WordLength = UART_WORDLENGTH_8B;
 891              		.loc 1 156 28 view .LVU282
 892 001e 0193     		str	r3, [sp, #4]
 157:Bsp/Bsp_Uart.c ****     uart_cfg.Init.StopBits = UART_STOPBITS_1;
 893              		.loc 1 157 5 is_stmt 1 view .LVU283
 157:Bsp/Bsp_Uart.c ****     uart_cfg.Init.StopBits = UART_STOPBITS_1;
 894              		.loc 1 157 30 is_stmt 0 view .LVU284
 895 0020 0023     		movs	r3, #0
 896 0022 0293     		str	r3, [sp, #8]
 158:Bsp/Bsp_Uart.c ****     uart_cfg.Init.Parity = UART_PARITY_NONE;
 897              		.loc 1 158 5 is_stmt 1 view .LVU285
 158:Bsp/Bsp_Uart.c ****     uart_cfg.Init.Parity = UART_PARITY_NONE;
 898              		.loc 1 158 28 is_stmt 0 view .LVU286
 899 0024 0393     		str	r3, [sp, #12]
 159:Bsp/Bsp_Uart.c ****     uart_cfg.Init.Mode = UART_MODE_TX_RX;
 900              		.loc 1 159 5 is_stmt 1 view .LVU287
 159:Bsp/Bsp_Uart.c ****     uart_cfg.Init.Mode = UART_MODE_TX_RX;
 901              		.loc 1 159 26 is_stmt 0 view .LVU288
 902 0026 0493     		str	r3, [sp, #16]
 160:Bsp/Bsp_Uart.c ****     uart_cfg.Init.HwFlowCtl = UART_HWCONTROL_NONE;
 903              		.loc 1 160 5 is_stmt 1 view .LVU289
 160:Bsp/Bsp_Uart.c ****     uart_cfg.Init.HwFlowCtl = UART_HWCONTROL_NONE;
 904              		.loc 1 160 24 is_stmt 0 view .LVU290
 905 0028 0C22     		movs	r2, #12
 906 002a 0592     		str	r2, [sp, #20]
 161:Bsp/Bsp_Uart.c ****     uart_cfg.Init.OverSampling = UART_OVERSAMPLING_16;
 907              		.loc 1 161 5 is_stmt 1 view .LVU291
 161:Bsp/Bsp_Uart.c ****     uart_cfg.Init.OverSampling = UART_OVERSAMPLING_16;
 908              		.loc 1 161 29 is_stmt 0 view .LVU292
 909 002c 0693     		str	r3, [sp, #24]
 162:Bsp/Bsp_Uart.c ****     uart_cfg.Init.OneBitSampling = UART_ONE_BIT_SAMPLE_DISABLE;
 910              		.loc 1 162 5 is_stmt 1 view .LVU293
 162:Bsp/Bsp_Uart.c ****     uart_cfg.Init.OneBitSampling = UART_ONE_BIT_SAMPLE_DISABLE;
 911              		.loc 1 162 32 is_stmt 0 view .LVU294
 912 002e 0793     		str	r3, [sp, #28]
 163:Bsp/Bsp_Uart.c ****     uart_cfg.Init.ClockPrescaler = UART_PRESCALER_DIV1;
 913              		.loc 1 163 5 is_stmt 1 view .LVU295
 163:Bsp/Bsp_Uart.c ****     uart_cfg.Init.ClockPrescaler = UART_PRESCALER_DIV1;
 914              		.loc 1 163 34 is_stmt 0 view .LVU296
 915 0030 0893     		str	r3, [sp, #32]
ARM GAS  /var/folders/lx/hc4sn_b53233_zkc9xbbl97r0000gp/T//ccWOh4VS.s 			page 27


 164:Bsp/Bsp_Uart.c ****     uart_cfg.AdvancedInit.AdvFeatureInit = UART_ADVFEATURE_RXOVERRUNDISABLE_INIT | UART_ADVFEATURE_
 916              		.loc 1 164 5 is_stmt 1 view .LVU297
 164:Bsp/Bsp_Uart.c ****     uart_cfg.AdvancedInit.AdvFeatureInit = UART_ADVFEATURE_RXOVERRUNDISABLE_INIT | UART_ADVFEATURE_
 917              		.loc 1 164 34 is_stmt 0 view .LVU298
 918 0032 0993     		str	r3, [sp, #36]
 165:Bsp/Bsp_Uart.c ****     uart_cfg.AdvancedInit.OverrunDisable = UART_ADVFEATURE_OVERRUN_DISABLE;
 919              		.loc 1 165 5 is_stmt 1 view .LVU299
 165:Bsp/Bsp_Uart.c ****     uart_cfg.AdvancedInit.OverrunDisable = UART_ADVFEATURE_OVERRUN_DISABLE;
 920              		.loc 1 165 42 is_stmt 0 view .LVU300
 921 0034 3023     		movs	r3, #48
 922 0036 0A93     		str	r3, [sp, #40]
 166:Bsp/Bsp_Uart.c ****     uart_cfg.AdvancedInit.DMADisableonRxError = UART_ADVFEATURE_DMA_DISABLEONRXERROR;
 923              		.loc 1 166 5 is_stmt 1 view .LVU301
 166:Bsp/Bsp_Uart.c ****     uart_cfg.AdvancedInit.DMADisableonRxError = UART_ADVFEATURE_DMA_DISABLEONRXERROR;
 924              		.loc 1 166 42 is_stmt 0 view .LVU302
 925 0038 4FF48053 		mov	r3, #4096
 926 003c 0F93     		str	r3, [sp, #60]
 167:Bsp/Bsp_Uart.c **** 
 927              		.loc 1 167 5 is_stmt 1 view .LVU303
 167:Bsp/Bsp_Uart.c **** 
 928              		.loc 1 167 47 is_stmt 0 view .LVU304
 929 003e 4FF40053 		mov	r3, #8192
 930 0042 1093     		str	r3, [sp, #64]
 170:Bsp/Bsp_Uart.c ****         uart_cfg.AdvancedInit.Swap = UART_ADVFEATURE_SWAP_ENABLE;
 931              		.loc 1 170 5 is_stmt 1 view .LVU305
 170:Bsp/Bsp_Uart.c ****         uart_cfg.AdvancedInit.Swap = UART_ADVFEATURE_SWAP_ENABLE;
 932              		.loc 1 170 12 is_stmt 0 view .LVU306
 933 0044 2379     		ldrb	r3, [r4, #4]	@ zero_extendqisi2
 170:Bsp/Bsp_Uart.c ****         uart_cfg.AdvancedInit.Swap = UART_ADVFEATURE_SWAP_ENABLE;
 934              		.loc 1 170 8 view .LVU307
 935 0046 13B1     		cbz	r3, .L66
 171:Bsp/Bsp_Uart.c **** 
 936              		.loc 1 171 9 is_stmt 1 view .LVU308
 171:Bsp/Bsp_Uart.c **** 
 937              		.loc 1 171 36 is_stmt 0 view .LVU309
 938 0048 4FF40043 		mov	r3, #32768
 939 004c 0E93     		str	r3, [sp, #56]
 940              	.L66:
 173:Bsp/Bsp_Uart.c **** 
 941              		.loc 1 173 5 is_stmt 1 view .LVU310
 173:Bsp/Bsp_Uart.c **** 
 942              		.loc 1 173 14 is_stmt 0 view .LVU311
 943 004e 9022     		movs	r2, #144
 944 0050 6946     		mov	r1, sp
 945 0052 04F10900 		add	r0, r4, #9
 946 0056 FFF7FEFF 		bl	memcpy
 947              	.LVL66:
 175:Bsp/Bsp_Uart.c ****         HAL_UARTEx_SetTxFifoThreshold(&uart_cfg, UART_TXFIFO_THRESHOLD_1_8) != HAL_OK ||
 948              		.loc 1 175 5 is_stmt 1 view .LVU312
 175:Bsp/Bsp_Uart.c ****         HAL_UARTEx_SetTxFifoThreshold(&uart_cfg, UART_TXFIFO_THRESHOLD_1_8) != HAL_OK ||
 949              		.loc 1 175 9 is_stmt 0 view .LVU313
 950 005a 6846     		mov	r0, sp
 951 005c FFF7FEFF 		bl	HAL_UART_Init
 952              	.LVL67:
 175:Bsp/Bsp_Uart.c ****         HAL_UARTEx_SetTxFifoThreshold(&uart_cfg, UART_TXFIFO_THRESHOLD_1_8) != HAL_OK ||
 953              		.loc 1 175 8 view .LVU314
 954 0060 10B1     		cbz	r0, .L73
ARM GAS  /var/folders/lx/hc4sn_b53233_zkc9xbbl97r0000gp/T//ccWOh4VS.s 			page 28


 955              	.L67:
 179:Bsp/Bsp_Uart.c **** 
 956              		.loc 1 179 9 is_stmt 1 view .LVU315
 179:Bsp/Bsp_Uart.c **** 
 957              		.loc 1 179 16 is_stmt 0 view .LVU316
 958 0062 0020     		movs	r0, #0
 959              	.L65:
 200:Bsp/Bsp_Uart.c **** 
 960              		.loc 1 200 1 view .LVU317
 961 0064 25B0     		add	sp, sp, #148
 962              	.LCFI11:
 963              		.cfi_remember_state
 964              		.cfi_def_cfa_offset 12
 965              		@ sp needed
 966 0066 30BD     		pop	{r4, r5, pc}
 967              	.LVL68:
 968              	.L73:
 969              	.LCFI12:
 970              		.cfi_restore_state
 176:Bsp/Bsp_Uart.c ****         HAL_UARTEx_SetRxFifoThreshold(&uart_cfg, UART_RXFIFO_THRESHOLD_1_8) != HAL_OK ||
 971              		.loc 1 176 9 discriminator 1 view .LVU318
 972 0068 0021     		movs	r1, #0
 973 006a 6846     		mov	r0, sp
 974 006c FFF7FEFF 		bl	HAL_UARTEx_SetTxFifoThreshold
 975              	.LVL69:
 175:Bsp/Bsp_Uart.c ****         HAL_UARTEx_SetTxFifoThreshold(&uart_cfg, UART_TXFIFO_THRESHOLD_1_8) != HAL_OK ||
 976              		.loc 1 175 44 discriminator 1 view .LVU319
 977 0070 0028     		cmp	r0, #0
 978 0072 F6D1     		bne	.L67
 177:Bsp/Bsp_Uart.c ****         HAL_UARTEx_DisableFifoMode(&uart_cfg) != HAL_OK)
 979              		.loc 1 177 9 view .LVU320
 980 0074 0021     		movs	r1, #0
 981 0076 6846     		mov	r0, sp
 982 0078 FFF7FEFF 		bl	HAL_UARTEx_SetRxFifoThreshold
 983              	.LVL70:
 176:Bsp/Bsp_Uart.c ****         HAL_UARTEx_SetRxFifoThreshold(&uart_cfg, UART_RXFIFO_THRESHOLD_1_8) != HAL_OK ||
 984              		.loc 1 176 87 view .LVU321
 985 007c 0028     		cmp	r0, #0
 986 007e F0D1     		bne	.L67
 178:Bsp/Bsp_Uart.c ****         return false;
 987              		.loc 1 178 9 view .LVU322
 988 0080 6846     		mov	r0, sp
 989 0082 FFF7FEFF 		bl	HAL_UARTEx_DisableFifoMode
 990              	.LVL71:
 177:Bsp/Bsp_Uart.c ****         HAL_UARTEx_DisableFifoMode(&uart_cfg) != HAL_OK)
 991              		.loc 1 177 87 view .LVU323
 992 0086 0028     		cmp	r0, #0
 993 0088 EBD1     		bne	.L67
 181:Bsp/Bsp_Uart.c ****         return false;
 994              		.loc 1 181 5 is_stmt 1 view .LVU324
 181:Bsp/Bsp_Uart.c ****         return false;
 995              		.loc 1 181 13 is_stmt 0 view .LVU325
 996 008a D4F8AD31 		ldr	r3, [r4, #429]	@ unaligned
 181:Bsp/Bsp_Uart.c ****         return false;
 997              		.loc 1 181 8 view .LVU326
 998 008e 002B     		cmp	r3, #0
 999 0090 3AD0     		beq	.L70
ARM GAS  /var/folders/lx/hc4sn_b53233_zkc9xbbl97r0000gp/T//ccWOh4VS.s 			page 29


 181:Bsp/Bsp_Uart.c ****         return false;
 1000              		.loc 1 181 38 discriminator 1 view .LVU327
 1001 0092 B4F8B131 		ldrh	r3, [r4, #433]	@ unaligned
 181:Bsp/Bsp_Uart.c ****         return false;
 1002              		.loc 1 181 31 discriminator 1 view .LVU328
 1003 0096 0BB9     		cbnz	r3, .L74
 182:Bsp/Bsp_Uart.c **** 
 1004              		.loc 1 182 16 view .LVU329
 1005 0098 0020     		movs	r0, #0
 1006 009a E3E7     		b	.L65
 1007              	.L74:
 184:Bsp/Bsp_Uart.c ****     obj->send_finish = false;
 1008              		.loc 1 184 5 is_stmt 1 view .LVU330
 184:Bsp/Bsp_Uart.c ****     obj->send_finish = false;
 1009              		.loc 1 184 34 is_stmt 0 view .LVU331
 1010 009c 1B4B     		ldr	r3, .L75
 1011 009e 43F82540 		str	r4, [r3, r5, lsl #2]
 185:Bsp/Bsp_Uart.c ****     obj->wait_till_send_finish = false;
 1012              		.loc 1 185 5 is_stmt 1 view .LVU332
 185:Bsp/Bsp_Uart.c ****     obj->wait_till_send_finish = false;
 1013              		.loc 1 185 22 is_stmt 0 view .LVU333
 1014 00a2 0023     		movs	r3, #0
 1015 00a4 84F8B831 		strb	r3, [r4, #440]
 186:Bsp/Bsp_Uart.c **** 
 1016              		.loc 1 186 5 is_stmt 1 view .LVU334
 186:Bsp/Bsp_Uart.c **** 
 1017              		.loc 1 186 32 is_stmt 0 view .LVU335
 1018 00a8 84F8B731 		strb	r3, [r4, #439]
 188:Bsp/Bsp_Uart.c **** 
 1019              		.loc 1 188 5 is_stmt 1 view .LVU336
 1020 00ac C4F8BA31 		str	r3, [r4, #442]	@ unaligned
 1021 00b0 C4F8BE31 		str	r3, [r4, #446]	@ unaligned
 1022 00b4 C4F8C231 		str	r3, [r4, #450]	@ unaligned
 1023 00b8 C4F8C631 		str	r3, [r4, #454]	@ unaligned
 1024 00bc C4F8CA31 		str	r3, [r4, #458]	@ unaligned
 1025 00c0 C4F8CE31 		str	r3, [r4, #462]	@ unaligned
 1026 00c4 C4F8D231 		str	r3, [r4, #466]	@ unaligned
 191:Bsp/Bsp_Uart.c ****     __HAL_UART_DISABLE_IT(&(obj->hdl), UART_IT_ERR);
 1027              		.loc 1 191 5 view .LVU337
 1028 00c8 D4F80920 		ldr	r2, [r4, #9]	@ unaligned
 1029 00cc 1368     		ldr	r3, [r2]
 1030 00ce 43F01003 		orr	r3, r3, #16
 1031 00d2 1360     		str	r3, [r2]
 192:Bsp/Bsp_Uart.c ****     __HAL_UART_DISABLE_IT(&(obj->hdl), UART_IT_PE);
 1032              		.loc 1 192 5 view .LVU338
 1033 00d4 D4F80920 		ldr	r2, [r4, #9]	@ unaligned
 1034 00d8 9368     		ldr	r3, [r2, #8]
 1035 00da 23F00103 		bic	r3, r3, #1
 1036 00de 9360     		str	r3, [r2, #8]
 193:Bsp/Bsp_Uart.c **** 
 1037              		.loc 1 193 5 view .LVU339
 1038 00e0 D4F80920 		ldr	r2, [r4, #9]	@ unaligned
 1039 00e4 1368     		ldr	r3, [r2]
 1040 00e6 23F48073 		bic	r3, r3, #256
 1041 00ea 1360     		str	r3, [r2]
 196:Bsp/Bsp_Uart.c **** 
 1042              		.loc 1 196 5 view .LVU340
ARM GAS  /var/folders/lx/hc4sn_b53233_zkc9xbbl97r0000gp/T//ccWOh4VS.s 			page 30


 1043 00ec B4F8B121 		ldrh	r2, [r4, #433]	@ unaligned
 1044 00f0 D4F8AD11 		ldr	r1, [r4, #429]	@ unaligned
 1045 00f4 04F10900 		add	r0, r4, #9
 1046 00f8 FFF7FEFF 		bl	HAL_UART_Receive_DMA
 1047              	.LVL72:
 198:Bsp/Bsp_Uart.c ****     return true;
 1048              		.loc 1 198 5 view .LVU341
 198:Bsp/Bsp_Uart.c ****     return true;
 1049              		.loc 1 198 21 is_stmt 0 view .LVU342
 1050 00fc 0120     		movs	r0, #1
 1051 00fe 84F8B901 		strb	r0, [r4, #441]
 199:Bsp/Bsp_Uart.c **** }
 1052              		.loc 1 199 5 is_stmt 1 view .LVU343
 199:Bsp/Bsp_Uart.c **** }
 1053              		.loc 1 199 12 is_stmt 0 view .LVU344
 1054 0102 AFE7     		b	.L65
 1055              	.L69:
 153:Bsp/Bsp_Uart.c **** 
 1056              		.loc 1 153 16 view .LVU345
 1057 0104 0020     		movs	r0, #0
 1058 0106 ADE7     		b	.L65
 1059              	.L70:
 182:Bsp/Bsp_Uart.c **** 
 1060              		.loc 1 182 16 view .LVU346
 1061 0108 0020     		movs	r0, #0
 1062 010a ABE7     		b	.L65
 1063              	.L76:
 1064              		.align	2
 1065              	.L75:
 1066 010c 00000000 		.word	.LANCHOR0
 1067              		.cfi_endproc
 1068              	.LFE145:
 1070              		.section	.text.BspUart_GetObj_Handle,"ax",%progbits
 1071              		.align	1
 1072              		.global	BspUart_GetObj_Handle
 1073              		.syntax unified
 1074              		.thumb
 1075              		.thumb_func
 1076              		.fpu fpv5-d16
 1078              	BspUart_GetObj_Handle:
 1079              	.LVL73:
 1080              	.LFB150:
 262:Bsp/Bsp_Uart.c ****     if (index >= BspUART_Port_Sum)
 1081              		.loc 1 262 1 is_stmt 1 view -0
 1082              		.cfi_startproc
 1083              		@ args = 0, pretend = 0, frame = 0
 1084              		@ frame_needed = 0, uses_anonymous_args = 0
 1085              		@ link register save eliminated.
 263:Bsp/Bsp_Uart.c ****         return NULL;
 1086              		.loc 1 263 5 view .LVU348
 263:Bsp/Bsp_Uart.c ****         return NULL;
 1087              		.loc 1 263 8 is_stmt 0 view .LVU349
 1088 0000 0228     		cmp	r0, #2
 1089 0002 04D8     		bhi	.L79
 266:Bsp/Bsp_Uart.c **** }
 1090              		.loc 1 266 5 is_stmt 1 view .LVU350
 266:Bsp/Bsp_Uart.c **** }
ARM GAS  /var/folders/lx/hc4sn_b53233_zkc9xbbl97r0000gp/T//ccWOh4VS.s 			page 31


 1091              		.loc 1 266 30 is_stmt 0 view .LVU351
 1092 0004 034B     		ldr	r3, .L80
 1093 0006 53F82000 		ldr	r0, [r3, r0, lsl #2]
 1094              	.LVL74:
 266:Bsp/Bsp_Uart.c **** }
 1095              		.loc 1 266 12 view .LVU352
 1096 000a 0930     		adds	r0, r0, #9
 1097 000c 7047     		bx	lr
 1098              	.LVL75:
 1099              	.L79:
 264:Bsp/Bsp_Uart.c **** 
 1100              		.loc 1 264 16 view .LVU353
 1101 000e 0020     		movs	r0, #0
 1102              	.LVL76:
 267:Bsp/Bsp_Uart.c **** 
 1103              		.loc 1 267 1 view .LVU354
 1104 0010 7047     		bx	lr
 1105              	.L81:
 1106 0012 00BF     		.align	2
 1107              	.L80:
 1108 0014 00000000 		.word	.LANCHOR0
 1109              		.cfi_endproc
 1110              	.LFE150:
 1112              		.section	.text.UART_Idle_Callback,"ax",%progbits
 1113              		.align	1
 1114              		.global	UART_Idle_Callback
 1115              		.syntax unified
 1116              		.thumb
 1117              		.thumb_func
 1118              		.fpu fpv5-d16
 1120              	UART_Idle_Callback:
 1121              	.LVL77:
 1122              	.LFB152:
 309:Bsp/Bsp_Uart.c **** 
 310:Bsp/Bsp_Uart.c **** /******************************** irq callback ***********************************/
 311:Bsp/Bsp_Uart.c **** void UART_Idle_Callback(BspUART_Port_List index)
 312:Bsp/Bsp_Uart.c **** {
 1123              		.loc 1 312 1 is_stmt 1 view -0
 1124              		.cfi_startproc
 1125              		@ args = 0, pretend = 0, frame = 0
 1126              		@ frame_needed = 0, uses_anonymous_args = 0
 1127              		.loc 1 312 1 is_stmt 0 view .LVU356
 1128 0000 F8B5     		push	{r3, r4, r5, r6, r7, lr}
 1129              	.LCFI13:
 1130              		.cfi_def_cfa_offset 24
 1131              		.cfi_offset 3, -24
 1132              		.cfi_offset 4, -20
 1133              		.cfi_offset 5, -16
 1134              		.cfi_offset 6, -12
 1135              		.cfi_offset 7, -8
 1136              		.cfi_offset 14, -4
 313:Bsp/Bsp_Uart.c ****     UART_HandleTypeDef *hdl = NULL;
 1137              		.loc 1 313 5 is_stmt 1 view .LVU357
 1138              	.LVL78:
 314:Bsp/Bsp_Uart.c ****     DMA_HandleTypeDef *rx_dma = NULL;
 1139              		.loc 1 314 5 view .LVU358
 315:Bsp/Bsp_Uart.c ****     uint16_t len = 0;
ARM GAS  /var/folders/lx/hc4sn_b53233_zkc9xbbl97r0000gp/T//ccWOh4VS.s 			page 32


 1140              		.loc 1 315 5 view .LVU359
 316:Bsp/Bsp_Uart.c **** 
 317:Bsp/Bsp_Uart.c ****     if (BspUart_Obj_List[index])
 1141              		.loc 1 317 5 view .LVU360
 1142              		.loc 1 317 25 is_stmt 0 view .LVU361
 1143 0002 544B     		ldr	r3, .L93
 1144 0004 53F82040 		ldr	r4, [r3, r0, lsl #2]
 1145              		.loc 1 317 8 view .LVU362
 1146 0008 002C     		cmp	r4, #0
 1147 000a 7DD0     		beq	.L82
 1148 000c 0546     		mov	r5, r0
 318:Bsp/Bsp_Uart.c ****     {
 319:Bsp/Bsp_Uart.c ****         hdl = &(BspUart_Obj_List[index]->hdl);
 1149              		.loc 1 319 9 is_stmt 1 view .LVU363
 1150              	.LVL79:
 320:Bsp/Bsp_Uart.c ****         rx_dma = &(BspUart_Obj_List[index]->rx_dma_hdl);
 1151              		.loc 1 320 9 view .LVU364
 1152              		.loc 1 320 16 is_stmt 0 view .LVU365
 1153 000e 04F21512 		addw	r2, r4, #277
 1154              	.LVL80:
 321:Bsp/Bsp_Uart.c ****     }
 322:Bsp/Bsp_Uart.c ****     else
 323:Bsp/Bsp_Uart.c ****         return;
 324:Bsp/Bsp_Uart.c **** 
 325:Bsp/Bsp_Uart.c ****     if (hdl && rx_dma)
 1155              		.loc 1 325 5 is_stmt 1 view .LVU366
 1156              		.loc 1 325 9 is_stmt 0 view .LVU367
 1157 0012 14F10906 		adds	r6, r4, #9
 1158              	.LVL81:
 1159              		.loc 1 325 9 view .LVU368
 1160 0016 14BF     		ite	ne
 1161 0018 0123     		movne	r3, #1
 1162 001a 0023     		moveq	r3, #0
 1163              		.loc 1 325 13 view .LVU369
 1164 001c 002A     		cmp	r2, #0
 1165 001e 0CBF     		ite	eq
 1166 0020 0023     		moveq	r3, #0
 1167 0022 03F00103 		andne	r3, r3, #1
 1168              		.loc 1 325 8 view .LVU370
 1169 0026 002B     		cmp	r3, #0
 1170 0028 6ED0     		beq	.L82
 1171              	.LBB5:
 326:Bsp/Bsp_Uart.c ****     {
 327:Bsp/Bsp_Uart.c ****         uint32_t isrflags = READ_REG(hdl->Instance->ISR);
 1172              		.loc 1 327 9 is_stmt 1 view .LVU371
 1173              		.loc 1 327 29 is_stmt 0 view .LVU372
 1174 002a D4F80930 		ldr	r3, [r4, #9]
 1175              		.loc 1 327 18 view .LVU373
 1176 002e DA69     		ldr	r2, [r3, #28]
 1177              	.LVL82:
 328:Bsp/Bsp_Uart.c ****         uint32_t cr1its = READ_REG(hdl->Instance->CR1);
 1178              		.loc 1 328 9 is_stmt 1 view .LVU374
 1179              		.loc 1 328 18 is_stmt 0 view .LVU375
 1180 0030 1968     		ldr	r1, [r3]
 1181              	.LVL83:
 329:Bsp/Bsp_Uart.c **** 
 330:Bsp/Bsp_Uart.c ****         if ((RESET != (isrflags & USART_ISR_IDLE)) && (RESET != (cr1its & USART_CR1_IDLEIE)))
ARM GAS  /var/folders/lx/hc4sn_b53233_zkc9xbbl97r0000gp/T//ccWOh4VS.s 			page 33


 1182              		.loc 1 330 9 is_stmt 1 view .LVU376
 1183              		.loc 1 330 12 is_stmt 0 view .LVU377
 1184 0032 12F0100F 		tst	r2, #16
 1185 0036 67D0     		beq	.L82
 1186              		.loc 1 330 52 discriminator 1 view .LVU378
 1187 0038 11F0100F 		tst	r1, #16
 1188 003c 64D0     		beq	.L82
 331:Bsp/Bsp_Uart.c ****         {
 332:Bsp/Bsp_Uart.c ****             __HAL_UART_CLEAR_IDLEFLAG(hdl);
 1189              		.loc 1 332 13 is_stmt 1 view .LVU379
 1190 003e 1022     		movs	r2, #16
 1191              	.LVL84:
 1192              		.loc 1 332 13 is_stmt 0 view .LVU380
 1193 0040 1A62     		str	r2, [r3, #32]
 333:Bsp/Bsp_Uart.c **** 
 334:Bsp/Bsp_Uart.c ****             len = BspUart_Obj_List[index]->rx_size - __HAL_DMA_GET_COUNTER(rx_dma);
 1194              		.loc 1 334 13 is_stmt 1 view .LVU381
 1195              		.loc 1 334 42 is_stmt 0 view .LVU382
 1196 0042 B4F8B171 		ldrh	r7, [r4, #433]	@ unaligned
 1197              		.loc 1 334 54 view .LVU383
 1198 0046 D4F81531 		ldr	r3, [r4, #277]
 1199              		.loc 1 334 52 view .LVU384
 1200 004a 4349     		ldr	r1, .L93+4
 1201              	.LVL85:
 1202              		.loc 1 334 52 view .LVU385
 1203 004c 434A     		ldr	r2, .L93+8
 1204 004e 9342     		cmp	r3, r2
 1205 0050 18BF     		it	ne
 1206 0052 8B42     		cmpne	r3, r1
 1207 0054 2DD0     		beq	.L84
 1208              		.loc 1 334 54 discriminator 2 view .LVU386
 1209 0056 1832     		adds	r2, r2, #24
 1210 0058 9342     		cmp	r3, r2
 1211 005a 2AD0     		beq	.L84
 1212              		.loc 1 334 54 discriminator 4 view .LVU387
 1213 005c 1832     		adds	r2, r2, #24
 1214 005e 9342     		cmp	r3, r2
 1215 0060 27D0     		beq	.L84
 1216              		.loc 1 334 54 discriminator 6 view .LVU388
 1217 0062 1832     		adds	r2, r2, #24
 1218 0064 9342     		cmp	r3, r2
 1219 0066 24D0     		beq	.L84
 1220              		.loc 1 334 54 discriminator 8 view .LVU389
 1221 0068 1832     		adds	r2, r2, #24
 1222 006a 9342     		cmp	r3, r2
 1223 006c 21D0     		beq	.L84
 1224              		.loc 1 334 54 discriminator 10 view .LVU390
 1225 006e 1832     		adds	r2, r2, #24
 1226 0070 9342     		cmp	r3, r2
 1227 0072 1ED0     		beq	.L84
 1228              		.loc 1 334 54 discriminator 12 view .LVU391
 1229 0074 1832     		adds	r2, r2, #24
 1230 0076 9342     		cmp	r3, r2
 1231 0078 1BD0     		beq	.L84
 1232              		.loc 1 334 54 discriminator 14 view .LVU392
 1233 007a 02F55672 		add	r2, r2, #856
 1234 007e 9342     		cmp	r3, r2
ARM GAS  /var/folders/lx/hc4sn_b53233_zkc9xbbl97r0000gp/T//ccWOh4VS.s 			page 34


 1235 0080 17D0     		beq	.L84
 1236              		.loc 1 334 54 discriminator 16 view .LVU393
 1237 0082 1832     		adds	r2, r2, #24
 1238 0084 9342     		cmp	r3, r2
 1239 0086 14D0     		beq	.L84
 1240              		.loc 1 334 54 discriminator 18 view .LVU394
 1241 0088 1832     		adds	r2, r2, #24
 1242 008a 9342     		cmp	r3, r2
 1243 008c 11D0     		beq	.L84
 1244              		.loc 1 334 54 discriminator 20 view .LVU395
 1245 008e 1832     		adds	r2, r2, #24
 1246 0090 9342     		cmp	r3, r2
 1247 0092 0ED0     		beq	.L84
 1248              		.loc 1 334 54 discriminator 22 view .LVU396
 1249 0094 1832     		adds	r2, r2, #24
 1250 0096 9342     		cmp	r3, r2
 1251 0098 0BD0     		beq	.L84
 1252              		.loc 1 334 54 discriminator 24 view .LVU397
 1253 009a 1832     		adds	r2, r2, #24
 1254 009c 9342     		cmp	r3, r2
 1255 009e 08D0     		beq	.L84
 1256              		.loc 1 334 54 discriminator 26 view .LVU398
 1257 00a0 1832     		adds	r2, r2, #24
 1258 00a2 9342     		cmp	r3, r2
 1259 00a4 05D0     		beq	.L84
 1260              		.loc 1 334 54 discriminator 28 view .LVU399
 1261 00a6 1832     		adds	r2, r2, #24
 1262 00a8 9342     		cmp	r3, r2
 1263 00aa 02D0     		beq	.L84
 1264              		.loc 1 334 54 discriminator 30 view .LVU400
 1265 00ac 5B68     		ldr	r3, [r3, #4]
 1266              		.loc 1 334 52 discriminator 30 view .LVU401
 1267 00ae 9BB2     		uxth	r3, r3
 1268 00b0 01E0     		b	.L86
 1269              	.L84:
 1270              		.loc 1 334 54 discriminator 29 view .LVU402
 1271 00b2 5B68     		ldr	r3, [r3, #4]
 1272              		.loc 1 334 52 discriminator 29 view .LVU403
 1273 00b4 9BB2     		uxth	r3, r3
 1274              	.L86:
 1275              		.loc 1 334 17 discriminator 32 view .LVU404
 1276 00b6 FF1A     		subs	r7, r7, r3
 1277 00b8 BFB2     		uxth	r7, r7
 1278              	.LVL86:
 335:Bsp/Bsp_Uart.c **** 
 336:Bsp/Bsp_Uart.c ****             if (len)
 1279              		.loc 1 336 13 is_stmt 1 discriminator 32 view .LVU405
 1280              		.loc 1 336 16 is_stmt 0 discriminator 32 view .LVU406
 1281 00ba 002F     		cmp	r7, #0
 1282 00bc 3ED0     		beq	.L87
 1283              	.LBB6:
 337:Bsp/Bsp_Uart.c ****             {
 338:Bsp/Bsp_Uart.c ****                 const HAL_UART_StateTypeDef rxstate = hdl->RxState;
 1284              		.loc 1 338 17 is_stmt 1 view .LVU407
 1285              		.loc 1 338 45 is_stmt 0 view .LVU408
 1286 00be D4F89110 		ldr	r1, [r4, #145]
 1287              	.LVL87:
ARM GAS  /var/folders/lx/hc4sn_b53233_zkc9xbbl97r0000gp/T//ccWOh4VS.s 			page 35


 339:Bsp/Bsp_Uart.c **** 
 340:Bsp/Bsp_Uart.c ****                 /* Stop UART DMA Rx request if ongoing */
 341:Bsp/Bsp_Uart.c ****                 if ((HAL_IS_BIT_SET(hdl->Instance->CR3, USART_CR3_DMAR)) &&
 1288              		.loc 1 341 17 is_stmt 1 view .LVU409
 1289              		.loc 1 341 22 is_stmt 0 view .LVU410
 1290 00c2 D4F80930 		ldr	r3, [r4, #9]
 1291 00c6 9A68     		ldr	r2, [r3, #8]
 1292              		.loc 1 341 20 view .LVU411
 1293 00c8 12F0400F 		tst	r2, #64
 1294 00cc 01D0     		beq	.L88
 1295              		.loc 1 341 74 discriminator 1 view .LVU412
 1296 00ce 2229     		cmp	r1, #34
 1297 00d0 1BD0     		beq	.L92
 1298              	.LVL88:
 1299              	.L88:
 342:Bsp/Bsp_Uart.c ****                     (rxstate == HAL_UART_STATE_BUSY_RX))
 343:Bsp/Bsp_Uart.c ****                 {
 344:Bsp/Bsp_Uart.c ****                     CLEAR_BIT(hdl->Instance->CR3, USART_CR3_DMAR);
 345:Bsp/Bsp_Uart.c **** 
 346:Bsp/Bsp_Uart.c ****                     /* Abort the UART DMA Rx channel */
 347:Bsp/Bsp_Uart.c ****                     if (hdl->hdmarx != NULL)
 348:Bsp/Bsp_Uart.c ****                         HAL_DMA_Abort(hdl->hdmarx);
 349:Bsp/Bsp_Uart.c **** 
 350:Bsp/Bsp_Uart.c ****                     /* Disable RXNE, PE and ERR (Frame error, noise error, overrun error) interrupt
 351:Bsp/Bsp_Uart.c ****                     CLEAR_BIT(hdl->Instance->CR1, (USART_CR1_RXNEIE | USART_CR1_PEIE));
 352:Bsp/Bsp_Uart.c ****                     CLEAR_BIT(hdl->Instance->CR3, USART_CR3_EIE);
 353:Bsp/Bsp_Uart.c **** 
 354:Bsp/Bsp_Uart.c ****                     /* At end of Rx process, restore huart->RxState to Ready */
 355:Bsp/Bsp_Uart.c ****                     hdl->RxState = HAL_UART_STATE_READY;
 356:Bsp/Bsp_Uart.c ****                 }
 357:Bsp/Bsp_Uart.c **** 
 358:Bsp/Bsp_Uart.c ****                 /* idle receive callback process */
 359:Bsp/Bsp_Uart.c ****                 if (BspUart_Obj_List[index]->RxCallback)
 1300              		.loc 1 359 17 is_stmt 1 view .LVU413
 1301              		.loc 1 359 37 is_stmt 0 view .LVU414
 1302 00d2 204B     		ldr	r3, .L93
 1303 00d4 53F82530 		ldr	r3, [r3, r5, lsl #2]
 1304              		.loc 1 359 44 view .LVU415
 1305 00d8 D3F8A941 		ldr	r4, [r3, #425]	@ unaligned
 1306              		.loc 1 359 20 view .LVU416
 1307 00dc 2CB1     		cbz	r4, .L90
 360:Bsp/Bsp_Uart.c ****                     BspUart_Obj_List[index]->RxCallback(BspUart_Obj_List[index]->cust_data_addr,
 1308              		.loc 1 360 21 is_stmt 1 view .LVU417
 1309 00de 3A46     		mov	r2, r7
 1310 00e0 D3F8AD11 		ldr	r1, [r3, #429]	@ unaligned
 1311 00e4 D3F8B301 		ldr	r0, [r3, #435]	@ unaligned
 1312 00e8 A047     		blx	r4
 1313              	.LVL89:
 1314              	.L90:
 361:Bsp/Bsp_Uart.c ****                                                         BspUart_Obj_List[index]->rx_buf,
 362:Bsp/Bsp_Uart.c ****                                                         len);
 363:Bsp/Bsp_Uart.c **** 
 364:Bsp/Bsp_Uart.c ****                 BspUart_Obj_List[index]->monitor.rx_cnt++;
 1315              		.loc 1 364 17 view .LVU418
 1316              		.loc 1 364 33 is_stmt 0 view .LVU419
 1317 00ea 1A4B     		ldr	r3, .L93
 1318 00ec 53F82530 		ldr	r3, [r3, r5, lsl #2]
ARM GAS  /var/folders/lx/hc4sn_b53233_zkc9xbbl97r0000gp/T//ccWOh4VS.s 			page 36


 1319              		.loc 1 364 49 view .LVU420
 1320 00f0 D3F8BA21 		ldr	r2, [r3, #442]	@ unaligned
 1321              		.loc 1 364 56 view .LVU421
 1322 00f4 0132     		adds	r2, r2, #1
 1323 00f6 C3F8BA21 		str	r2, [r3, #442]	@ unaligned
 365:Bsp/Bsp_Uart.c ****                 HAL_UART_Receive_DMA(hdl, BspUart_Obj_List[index]->rx_buf, BspUart_Obj_List[index]-
 1324              		.loc 1 365 17 is_stmt 1 view .LVU422
 1325 00fa B3F8B121 		ldrh	r2, [r3, #433]	@ unaligned
 1326 00fe D3F8AD11 		ldr	r1, [r3, #429]	@ unaligned
 1327 0102 3046     		mov	r0, r6
 1328 0104 FFF7FEFF 		bl	HAL_UART_Receive_DMA
 1329              	.LVL90:
 1330              	.L82:
 1331              		.loc 1 365 17 is_stmt 0 view .LVU423
 1332              	.LBE6:
 1333              	.LBE5:
 366:Bsp/Bsp_Uart.c ****             }
 367:Bsp/Bsp_Uart.c ****             else
 368:Bsp/Bsp_Uart.c ****             {
 369:Bsp/Bsp_Uart.c ****                 BspUart_Obj_List[index]->monitor.rx_err_cnt++;
 370:Bsp/Bsp_Uart.c ****                 READ_REG(hdl->Instance->RDR);
 371:Bsp/Bsp_Uart.c ****                 __HAL_UART_CLEAR_OREFLAG(hdl);
 372:Bsp/Bsp_Uart.c ****             }
 373:Bsp/Bsp_Uart.c ****         }
 374:Bsp/Bsp_Uart.c ****     }
 375:Bsp/Bsp_Uart.c **** }
 1334              		.loc 1 375 1 view .LVU424
 1335 0108 F8BD     		pop	{r3, r4, r5, r6, r7, pc}
 1336              	.LVL91:
 1337              	.L92:
 1338              	.LBB8:
 1339              	.LBB7:
 344:Bsp/Bsp_Uart.c **** 
 1340              		.loc 1 344 21 is_stmt 1 view .LVU425
 1341 010a 9A68     		ldr	r2, [r3, #8]
 1342 010c 22F04002 		bic	r2, r2, #64
 1343 0110 9A60     		str	r2, [r3, #8]
 347:Bsp/Bsp_Uart.c ****                         HAL_DMA_Abort(hdl->hdmarx);
 1344              		.loc 1 347 21 view .LVU426
 347:Bsp/Bsp_Uart.c ****                         HAL_DMA_Abort(hdl->hdmarx);
 1345              		.loc 1 347 28 is_stmt 0 view .LVU427
 1346 0112 D4F88500 		ldr	r0, [r4, #133]
 1347              	.LVL92:
 347:Bsp/Bsp_Uart.c ****                         HAL_DMA_Abort(hdl->hdmarx);
 1348              		.loc 1 347 24 view .LVU428
 1349 0116 08B1     		cbz	r0, .L89
 348:Bsp/Bsp_Uart.c **** 
 1350              		.loc 1 348 25 is_stmt 1 view .LVU429
 1351 0118 FFF7FEFF 		bl	HAL_DMA_Abort
 1352              	.LVL93:
 1353              	.L89:
 351:Bsp/Bsp_Uart.c ****                     CLEAR_BIT(hdl->Instance->CR3, USART_CR3_EIE);
 1354              		.loc 1 351 21 view .LVU430
 1355 011c D4F80920 		ldr	r2, [r4, #9]
 1356 0120 1368     		ldr	r3, [r2]
 1357 0122 23F49073 		bic	r3, r3, #288
 1358 0126 1360     		str	r3, [r2]
ARM GAS  /var/folders/lx/hc4sn_b53233_zkc9xbbl97r0000gp/T//ccWOh4VS.s 			page 37


 352:Bsp/Bsp_Uart.c **** 
 1359              		.loc 1 352 21 view .LVU431
 1360 0128 D4F80920 		ldr	r2, [r4, #9]
 1361 012c 9368     		ldr	r3, [r2, #8]
 1362 012e 23F00103 		bic	r3, r3, #1
 1363 0132 9360     		str	r3, [r2, #8]
 355:Bsp/Bsp_Uart.c ****                 }
 1364              		.loc 1 355 21 view .LVU432
 355:Bsp/Bsp_Uart.c ****                 }
 1365              		.loc 1 355 34 is_stmt 0 view .LVU433
 1366 0134 2023     		movs	r3, #32
 1367 0136 C4F89130 		str	r3, [r4, #145]
 1368 013a CAE7     		b	.L88
 1369              	.LVL94:
 1370              	.L87:
 355:Bsp/Bsp_Uart.c ****                 }
 1371              		.loc 1 355 34 view .LVU434
 1372              	.LBE7:
 369:Bsp/Bsp_Uart.c ****                 READ_REG(hdl->Instance->RDR);
 1373              		.loc 1 369 17 is_stmt 1 view .LVU435
 369:Bsp/Bsp_Uart.c ****                 READ_REG(hdl->Instance->RDR);
 1374              		.loc 1 369 49 is_stmt 0 view .LVU436
 1375 013c D4F8C231 		ldr	r3, [r4, #450]	@ unaligned
 369:Bsp/Bsp_Uart.c ****                 READ_REG(hdl->Instance->RDR);
 1376              		.loc 1 369 60 view .LVU437
 1377 0140 0133     		adds	r3, r3, #1
 1378 0142 C4F8C231 		str	r3, [r4, #450]	@ unaligned
 370:Bsp/Bsp_Uart.c ****                 __HAL_UART_CLEAR_OREFLAG(hdl);
 1379              		.loc 1 370 17 is_stmt 1 view .LVU438
 1380 0146 D4F80930 		ldr	r3, [r4, #9]
 1381 014a 5A6A     		ldr	r2, [r3, #36]
 371:Bsp/Bsp_Uart.c ****             }
 1382              		.loc 1 371 17 view .LVU439
 1383 014c 0822     		movs	r2, #8
 1384 014e 1A62     		str	r2, [r3, #32]
 1385 0150 DAE7     		b	.L82
 1386              	.L94:
 1387 0152 00BF     		.align	2
 1388              	.L93:
 1389 0154 00000000 		.word	.LANCHOR0
 1390 0158 10000240 		.word	1073872912
 1391 015c 28000240 		.word	1073872936
 1392              	.LBE8:
 1393              		.cfi_endproc
 1394              	.LFE152:
 1396              		.section	.text.HAL_UART_RxCpltCallback,"ax",%progbits
 1397              		.align	1
 1398              		.global	HAL_UART_RxCpltCallback
 1399              		.syntax unified
 1400              		.thumb
 1401              		.thumb_func
 1402              		.fpu fpv5-d16
 1404              	HAL_UART_RxCpltCallback:
 1405              	.LVL95:
 1406              	.LFB153:
 376:Bsp/Bsp_Uart.c **** 
 377:Bsp/Bsp_Uart.c **** /* receive full */
ARM GAS  /var/folders/lx/hc4sn_b53233_zkc9xbbl97r0000gp/T//ccWOh4VS.s 			page 38


 378:Bsp/Bsp_Uart.c **** void HAL_UART_RxCpltCallback(UART_HandleTypeDef *huart)
 379:Bsp/Bsp_Uart.c **** {
 1407              		.loc 1 379 1 view -0
 1408              		.cfi_startproc
 1409              		@ args = 0, pretend = 0, frame = 0
 1410              		@ frame_needed = 0, uses_anonymous_args = 0
 1411              		.loc 1 379 1 is_stmt 0 view .LVU441
 1412 0000 38B5     		push	{r3, r4, r5, lr}
 1413              	.LCFI14:
 1414              		.cfi_def_cfa_offset 16
 1415              		.cfi_offset 3, -16
 1416              		.cfi_offset 4, -12
 1417              		.cfi_offset 5, -8
 1418              		.cfi_offset 14, -4
 380:Bsp/Bsp_Uart.c ****     uint8_t index = 0;
 1419              		.loc 1 380 5 is_stmt 1 view .LVU442
 1420              	.LVL96:
 381:Bsp/Bsp_Uart.c **** 
 382:Bsp/Bsp_Uart.c ****     if (huart->Instance == UART4)
 1421              		.loc 1 382 5 view .LVU443
 1422              		.loc 1 382 14 is_stmt 0 view .LVU444
 1423 0002 0368     		ldr	r3, [r0]
 1424              		.loc 1 382 8 view .LVU445
 1425 0004 184A     		ldr	r2, .L102
 1426 0006 9342     		cmp	r3, r2
 1427 0008 09D0     		beq	.L99
 383:Bsp/Bsp_Uart.c ****     {
 384:Bsp/Bsp_Uart.c ****         index = BspUART_Port_4;
 385:Bsp/Bsp_Uart.c ****     }
 386:Bsp/Bsp_Uart.c ****     else if (huart->Instance == USART6)
 1428              		.loc 1 386 10 is_stmt 1 view .LVU446
 1429              		.loc 1 386 13 is_stmt 0 view .LVU447
 1430 000a 02F54842 		add	r2, r2, #51200
 1431 000e 9342     		cmp	r3, r2
 1432 0010 27D0     		beq	.L100
 387:Bsp/Bsp_Uart.c ****     {
 388:Bsp/Bsp_Uart.c ****         index = BspUART_Port_6;
 389:Bsp/Bsp_Uart.c ****     }
 390:Bsp/Bsp_Uart.c ****     else if (huart->Instance == UART7)
 1433              		.loc 1 390 10 is_stmt 1 view .LVU448
 1434              		.loc 1 390 13 is_stmt 0 view .LVU449
 1435 0012 A2F51C42 		sub	r2, r2, #39936
 1436 0016 9342     		cmp	r3, r2
 1437 0018 22D1     		bne	.L95
 391:Bsp/Bsp_Uart.c ****     {
 392:Bsp/Bsp_Uart.c ****         index = BspUART_Port_7;
 1438              		.loc 1 392 15 view .LVU450
 1439 001a 0223     		movs	r3, #2
 1440 001c 00E0     		b	.L96
 1441              	.L99:
 384:Bsp/Bsp_Uart.c ****     }
 1442              		.loc 1 384 15 view .LVU451
 1443 001e 0023     		movs	r3, #0
 1444              	.L96:
 1445              	.LVL97:
 393:Bsp/Bsp_Uart.c ****     }
 394:Bsp/Bsp_Uart.c ****     else
ARM GAS  /var/folders/lx/hc4sn_b53233_zkc9xbbl97r0000gp/T//ccWOh4VS.s 			page 39


 395:Bsp/Bsp_Uart.c ****         return;
 396:Bsp/Bsp_Uart.c **** 
 397:Bsp/Bsp_Uart.c ****     if (BspUart_Obj_List[index])
 1446              		.loc 1 397 5 is_stmt 1 view .LVU452
 1447              		.loc 1 397 25 is_stmt 0 view .LVU453
 1448 0020 1C46     		mov	r4, r3
 1449 0022 124A     		ldr	r2, .L102+4
 1450 0024 52F82330 		ldr	r3, [r2, r3, lsl #2]
 1451              	.LVL98:
 1452              		.loc 1 397 8 view .LVU454
 1453 0028 D3B1     		cbz	r3, .L95
 398:Bsp/Bsp_Uart.c ****     {
 399:Bsp/Bsp_Uart.c ****         if (BspUart_Obj_List[index]->RxCallback)
 1454              		.loc 1 399 9 is_stmt 1 view .LVU455
 1455              		.loc 1 399 36 is_stmt 0 view .LVU456
 1456 002a D3F8A951 		ldr	r5, [r3, #425]	@ unaligned
 1457              		.loc 1 399 12 view .LVU457
 1458 002e 35B1     		cbz	r5, .L98
 400:Bsp/Bsp_Uart.c ****             BspUart_Obj_List[index]->RxCallback(BspUart_Obj_List[index]->cust_data_addr,
 1459              		.loc 1 400 13 is_stmt 1 view .LVU458
 1460 0030 B3F8B121 		ldrh	r2, [r3, #433]	@ unaligned
 1461 0034 D3F8AD11 		ldr	r1, [r3, #429]	@ unaligned
 1462 0038 D3F8B301 		ldr	r0, [r3, #435]	@ unaligned
 1463              	.LVL99:
 1464              		.loc 1 400 13 is_stmt 0 view .LVU459
 1465 003c A847     		blx	r5
 1466              	.LVL100:
 1467              	.L98:
 401:Bsp/Bsp_Uart.c ****                                                 BspUart_Obj_List[index]->rx_buf,
 402:Bsp/Bsp_Uart.c ****                                                 BspUart_Obj_List[index]->rx_size);
 403:Bsp/Bsp_Uart.c **** 
 404:Bsp/Bsp_Uart.c ****         HAL_UART_Receive_DMA(&(BspUart_Obj_List[index]->hdl), BspUart_Obj_List[index]->rx_buf, BspU
 1468              		.loc 1 404 9 is_stmt 1 view .LVU460
 1469              		.loc 1 404 48 is_stmt 0 view .LVU461
 1470 003e 0B4D     		ldr	r5, .L102+4
 1471 0040 55F82400 		ldr	r0, [r5, r4, lsl #2]
 1472              		.loc 1 404 9 view .LVU462
 1473 0044 B0F8B121 		ldrh	r2, [r0, #433]	@ unaligned
 1474 0048 D0F8AD11 		ldr	r1, [r0, #429]	@ unaligned
 1475 004c 0930     		adds	r0, r0, #9
 1476 004e FFF7FEFF 		bl	HAL_UART_Receive_DMA
 1477              	.LVL101:
 405:Bsp/Bsp_Uart.c **** 
 406:Bsp/Bsp_Uart.c ****         BspUart_Obj_List[index]->monitor.rx_full_cnt++;
 1478              		.loc 1 406 9 is_stmt 1 view .LVU463
 1479              		.loc 1 406 25 is_stmt 0 view .LVU464
 1480 0052 55F82420 		ldr	r2, [r5, r4, lsl #2]
 1481              		.loc 1 406 41 view .LVU465
 1482 0056 D2F8C631 		ldr	r3, [r2, #454]	@ unaligned
 1483              		.loc 1 406 53 view .LVU466
 1484 005a 0133     		adds	r3, r3, #1
 1485 005c C2F8C631 		str	r3, [r2, #454]	@ unaligned
 1486              	.L95:
 407:Bsp/Bsp_Uart.c ****     }
 408:Bsp/Bsp_Uart.c **** }
 1487              		.loc 1 408 1 view .LVU467
 1488 0060 38BD     		pop	{r3, r4, r5, pc}
ARM GAS  /var/folders/lx/hc4sn_b53233_zkc9xbbl97r0000gp/T//ccWOh4VS.s 			page 40


 1489              	.LVL102:
 1490              	.L100:
 388:Bsp/Bsp_Uart.c ****     }
 1491              		.loc 1 388 15 view .LVU468
 1492 0062 0123     		movs	r3, #1
 1493 0064 DCE7     		b	.L96
 1494              	.L103:
 1495 0066 00BF     		.align	2
 1496              	.L102:
 1497 0068 004C0040 		.word	1073761280
 1498 006c 00000000 		.word	.LANCHOR0
 1499              		.cfi_endproc
 1500              	.LFE153:
 1502              		.section	.text.HAL_UART_TxCpltCallback,"ax",%progbits
 1503              		.align	1
 1504              		.global	HAL_UART_TxCpltCallback
 1505              		.syntax unified
 1506              		.thumb
 1507              		.thumb_func
 1508              		.fpu fpv5-d16
 1510              	HAL_UART_TxCpltCallback:
 1511              	.LVL103:
 1512              	.LFB154:
 409:Bsp/Bsp_Uart.c **** 
 410:Bsp/Bsp_Uart.c **** /* transfer full */
 411:Bsp/Bsp_Uart.c **** void HAL_UART_TxCpltCallback(UART_HandleTypeDef *huart)
 412:Bsp/Bsp_Uart.c **** {
 1513              		.loc 1 412 1 is_stmt 1 view -0
 1514              		.cfi_startproc
 1515              		@ args = 0, pretend = 0, frame = 0
 1516              		@ frame_needed = 0, uses_anonymous_args = 0
 1517              		@ link register save eliminated.
 413:Bsp/Bsp_Uart.c ****     uint8_t index = 0;
 1518              		.loc 1 413 5 view .LVU470
 414:Bsp/Bsp_Uart.c **** 
 415:Bsp/Bsp_Uart.c ****     if (huart->Instance == UART4)
 1519              		.loc 1 415 5 view .LVU471
 1520              		.loc 1 415 14 is_stmt 0 view .LVU472
 1521 0000 0368     		ldr	r3, [r0]
 1522              		.loc 1 415 8 view .LVU473
 1523 0002 0F4A     		ldr	r2, .L110
 1524 0004 9342     		cmp	r3, r2
 1525 0006 0AD0     		beq	.L107
 416:Bsp/Bsp_Uart.c ****     {
 417:Bsp/Bsp_Uart.c ****         index = BspUART_Port_4;
 418:Bsp/Bsp_Uart.c ****     }
 419:Bsp/Bsp_Uart.c ****     else if (huart->Instance == USART6)
 1526              		.loc 1 419 10 is_stmt 1 view .LVU474
 1527              		.loc 1 419 13 is_stmt 0 view .LVU475
 1528 0008 02F54842 		add	r2, r2, #51200
 1529 000c 9342     		cmp	r3, r2
 1530 000e 14D0     		beq	.L108
 420:Bsp/Bsp_Uart.c ****     {
 421:Bsp/Bsp_Uart.c ****         index = BspUART_Port_6;
 422:Bsp/Bsp_Uart.c ****     }
 423:Bsp/Bsp_Uart.c ****     else if (huart->Instance == UART7)
 1531              		.loc 1 423 10 is_stmt 1 view .LVU476
ARM GAS  /var/folders/lx/hc4sn_b53233_zkc9xbbl97r0000gp/T//ccWOh4VS.s 			page 41


 1532              		.loc 1 423 13 is_stmt 0 view .LVU477
 1533 0010 A2F51C42 		sub	r2, r2, #39936
 1534 0014 9342     		cmp	r3, r2
 1535 0016 00D0     		beq	.L109
 1536              	.LVL104:
 1537              	.L104:
 424:Bsp/Bsp_Uart.c ****     {
 425:Bsp/Bsp_Uart.c ****         index = BspUART_Port_7;
 426:Bsp/Bsp_Uart.c ****     }
 427:Bsp/Bsp_Uart.c ****     else
 428:Bsp/Bsp_Uart.c ****         return;
 429:Bsp/Bsp_Uart.c **** 
 430:Bsp/Bsp_Uart.c ****     if (BspUart_Obj_List[index])
 431:Bsp/Bsp_Uart.c ****     {
 432:Bsp/Bsp_Uart.c ****         if (BspUart_Obj_List[index]->wait_till_send_finish)
 433:Bsp/Bsp_Uart.c ****             BspUart_Obj_List[index]->send_finish = true;
 434:Bsp/Bsp_Uart.c ****     }
 435:Bsp/Bsp_Uart.c **** }
 1538              		.loc 1 435 1 view .LVU478
 1539 0018 7047     		bx	lr
 1540              	.LVL105:
 1541              	.L109:
 425:Bsp/Bsp_Uart.c ****     }
 1542              		.loc 1 425 15 view .LVU479
 1543 001a 0222     		movs	r2, #2
 1544 001c 00E0     		b	.L105
 1545              	.L107:
 417:Bsp/Bsp_Uart.c ****     }
 1546              		.loc 1 417 15 view .LVU480
 1547 001e 0022     		movs	r2, #0
 1548              	.L105:
 1549              	.LVL106:
 430:Bsp/Bsp_Uart.c ****     {
 1550              		.loc 1 430 5 is_stmt 1 view .LVU481
 430:Bsp/Bsp_Uart.c ****     {
 1551              		.loc 1 430 25 is_stmt 0 view .LVU482
 1552 0020 084B     		ldr	r3, .L110+4
 1553 0022 53F82230 		ldr	r3, [r3, r2, lsl #2]
 430:Bsp/Bsp_Uart.c ****     {
 1554              		.loc 1 430 8 view .LVU483
 1555 0026 002B     		cmp	r3, #0
 1556 0028 F6D0     		beq	.L104
 432:Bsp/Bsp_Uart.c ****             BspUart_Obj_List[index]->send_finish = true;
 1557              		.loc 1 432 9 is_stmt 1 view .LVU484
 432:Bsp/Bsp_Uart.c ****             BspUart_Obj_List[index]->send_finish = true;
 1558              		.loc 1 432 36 is_stmt 0 view .LVU485
 1559 002a 93F8B721 		ldrb	r2, [r3, #439]	@ zero_extendqisi2
 1560              	.LVL107:
 432:Bsp/Bsp_Uart.c ****             BspUart_Obj_List[index]->send_finish = true;
 1561              		.loc 1 432 12 view .LVU486
 1562 002e 002A     		cmp	r2, #0
 1563 0030 F2D0     		beq	.L104
 433:Bsp/Bsp_Uart.c ****     }
 1564              		.loc 1 433 13 is_stmt 1 view .LVU487
 433:Bsp/Bsp_Uart.c ****     }
 1565              		.loc 1 433 50 is_stmt 0 view .LVU488
 1566 0032 0122     		movs	r2, #1
ARM GAS  /var/folders/lx/hc4sn_b53233_zkc9xbbl97r0000gp/T//ccWOh4VS.s 			page 42


 1567 0034 83F8B821 		strb	r2, [r3, #440]
 1568 0038 EEE7     		b	.L104
 1569              	.LVL108:
 1570              	.L108:
 421:Bsp/Bsp_Uart.c ****     }
 1571              		.loc 1 421 15 view .LVU489
 1572 003a 0122     		movs	r2, #1
 1573 003c F0E7     		b	.L105
 1574              	.L111:
 1575 003e 00BF     		.align	2
 1576              	.L110:
 1577 0040 004C0040 		.word	1073761280
 1578 0044 00000000 		.word	.LANCHOR0
 1579              		.cfi_endproc
 1580              	.LFE154:
 1582              		.global	BspUart
 1583              		.section	.bss.BspUart_Obj_List,"aw",%nobits
 1584              		.align	2
 1585              		.set	.LANCHOR0,. + 0
 1588              	BspUart_Obj_List:
 1589 0000 00000000 		.space	12
 1589      00000000 
 1589      00000000 
 1590              		.section	.data.BspUart,"aw"
 1591              		.align	2
 1594              	BspUart:
 1595 0000 00000000 		.word	BspUart_Init
 1596 0004 00000000 		.word	BspUart_Set_Parity
 1597 0008 00000000 		.word	BspUart_Set_StopBit
 1598 000c 00000000 		.word	BspUart_Set_DataBit
 1599 0010 00000000 		.word	BspUart_Swap_Pin
 1600 0014 00000000 		.word	BspUart_Transfer
 1601              		.text
 1602              	.Letext0:
 1603              		.file 2 "HAL_Lib/CMSIS/Device/ST/STM32H7xx/Include/stm32h743xx.h"
 1604              		.file 3 "/usr/local/arm-none-eabi-gcc/gcc-arm-none-eabi-10-2020-q4-major/arm-none-eabi/include/mac
 1605              		.file 4 "/usr/local/arm-none-eabi-gcc/gcc-arm-none-eabi-10-2020-q4-major/arm-none-eabi/include/sys
 1606              		.file 5 "HAL_Lib/CMSIS/Device/ST/STM32H7xx/Include/stm32h7xx.h"
 1607              		.file 6 "HAL_Lib/STM32H7xx_HAL_Driver/Inc/stm32h7xx_hal_def.h"
 1608              		.file 7 "HAL_Lib/STM32H7xx_HAL_Driver/Inc/stm32h7xx_hal_rcc_ex.h"
 1609              		.file 8 "HAL_Lib/STM32H7xx_HAL_Driver/Inc/stm32h7xx_hal_gpio.h"
 1610              		.file 9 "HAL_Lib/STM32H7xx_HAL_Driver/Inc/stm32h7xx_hal_dma.h"
 1611              		.file 10 "HAL_Lib/STM32H7xx_HAL_Driver/Inc/stm32h7xx_hal_uart.h"
 1612              		.file 11 "Bsp/Bsp_GPIO.h"
 1613              		.file 12 "Bsp/Bsp_DMA.h"
 1614              		.file 13 "Bsp/Bsp_Uart.h"
 1615              		.file 14 "HAL_Lib/STM32H7xx_HAL_Driver/Inc/stm32h7xx_hal_uart_ex.h"
 1616              		.file 15 "<built-in>"
 1617              		.file 16 "HAL_Lib/STM32H7xx_HAL_Driver/Inc/stm32h7xx_hal_cortex.h"
ARM GAS  /var/folders/lx/hc4sn_b53233_zkc9xbbl97r0000gp/T//ccWOh4VS.s 			page 43


DEFINED SYMBOLS
                            *ABS*:0000000000000000 Bsp_Uart.c
/var/folders/lx/hc4sn_b53233_zkc9xbbl97r0000gp/T//ccWOh4VS.s:17     .text.BspUart_Transfer:0000000000000000 $t
/var/folders/lx/hc4sn_b53233_zkc9xbbl97r0000gp/T//ccWOh4VS.s:24     .text.BspUart_Transfer:0000000000000000 BspUart_Transfer
/var/folders/lx/hc4sn_b53233_zkc9xbbl97r0000gp/T//ccWOh4VS.s:162    .text.BspUart_Set_DataBit:0000000000000000 $t
/var/folders/lx/hc4sn_b53233_zkc9xbbl97r0000gp/T//ccWOh4VS.s:169    .text.BspUart_Set_DataBit:0000000000000000 BspUart_Set_DataBit
/var/folders/lx/hc4sn_b53233_zkc9xbbl97r0000gp/T//ccWOh4VS.s:219    .text.BspUart_Set_Parity:0000000000000000 $t
/var/folders/lx/hc4sn_b53233_zkc9xbbl97r0000gp/T//ccWOh4VS.s:226    .text.BspUart_Set_Parity:0000000000000000 BspUart_Set_Parity
/var/folders/lx/hc4sn_b53233_zkc9xbbl97r0000gp/T//ccWOh4VS.s:276    .text.BspUart_Set_StopBit:0000000000000000 $t
/var/folders/lx/hc4sn_b53233_zkc9xbbl97r0000gp/T//ccWOh4VS.s:283    .text.BspUart_Set_StopBit:0000000000000000 BspUart_Set_StopBit
/var/folders/lx/hc4sn_b53233_zkc9xbbl97r0000gp/T//ccWOh4VS.s:333    .text.BspUart_Swap_Pin:0000000000000000 $t
/var/folders/lx/hc4sn_b53233_zkc9xbbl97r0000gp/T//ccWOh4VS.s:340    .text.BspUart_Swap_Pin:0000000000000000 BspUart_Swap_Pin
/var/folders/lx/hc4sn_b53233_zkc9xbbl97r0000gp/T//ccWOh4VS.s:416    .text.BspUart_Init_Clock:0000000000000000 $t
/var/folders/lx/hc4sn_b53233_zkc9xbbl97r0000gp/T//ccWOh4VS.s:422    .text.BspUart_Init_Clock:0000000000000000 BspUart_Init_Clock
/var/folders/lx/hc4sn_b53233_zkc9xbbl97r0000gp/T//ccWOh4VS.s:832    .text.BspUart_Init_Clock:0000000000000200 $d
/var/folders/lx/hc4sn_b53233_zkc9xbbl97r0000gp/T//ccWOh4VS.s:842    .text.BspUart_Init:0000000000000000 $t
/var/folders/lx/hc4sn_b53233_zkc9xbbl97r0000gp/T//ccWOh4VS.s:848    .text.BspUart_Init:0000000000000000 BspUart_Init
/var/folders/lx/hc4sn_b53233_zkc9xbbl97r0000gp/T//ccWOh4VS.s:1066   .text.BspUart_Init:000000000000010c $d
/var/folders/lx/hc4sn_b53233_zkc9xbbl97r0000gp/T//ccWOh4VS.s:1071   .text.BspUart_GetObj_Handle:0000000000000000 $t
/var/folders/lx/hc4sn_b53233_zkc9xbbl97r0000gp/T//ccWOh4VS.s:1078   .text.BspUart_GetObj_Handle:0000000000000000 BspUart_GetObj_Handle
/var/folders/lx/hc4sn_b53233_zkc9xbbl97r0000gp/T//ccWOh4VS.s:1108   .text.BspUart_GetObj_Handle:0000000000000014 $d
/var/folders/lx/hc4sn_b53233_zkc9xbbl97r0000gp/T//ccWOh4VS.s:1113   .text.UART_Idle_Callback:0000000000000000 $t
/var/folders/lx/hc4sn_b53233_zkc9xbbl97r0000gp/T//ccWOh4VS.s:1120   .text.UART_Idle_Callback:0000000000000000 UART_Idle_Callback
/var/folders/lx/hc4sn_b53233_zkc9xbbl97r0000gp/T//ccWOh4VS.s:1389   .text.UART_Idle_Callback:0000000000000154 $d
/var/folders/lx/hc4sn_b53233_zkc9xbbl97r0000gp/T//ccWOh4VS.s:1397   .text.HAL_UART_RxCpltCallback:0000000000000000 $t
/var/folders/lx/hc4sn_b53233_zkc9xbbl97r0000gp/T//ccWOh4VS.s:1404   .text.HAL_UART_RxCpltCallback:0000000000000000 HAL_UART_RxCpltCallback
/var/folders/lx/hc4sn_b53233_zkc9xbbl97r0000gp/T//ccWOh4VS.s:1497   .text.HAL_UART_RxCpltCallback:0000000000000068 $d
/var/folders/lx/hc4sn_b53233_zkc9xbbl97r0000gp/T//ccWOh4VS.s:1503   .text.HAL_UART_TxCpltCallback:0000000000000000 $t
/var/folders/lx/hc4sn_b53233_zkc9xbbl97r0000gp/T//ccWOh4VS.s:1510   .text.HAL_UART_TxCpltCallback:0000000000000000 HAL_UART_TxCpltCallback
/var/folders/lx/hc4sn_b53233_zkc9xbbl97r0000gp/T//ccWOh4VS.s:1577   .text.HAL_UART_TxCpltCallback:0000000000000040 $d
/var/folders/lx/hc4sn_b53233_zkc9xbbl97r0000gp/T//ccWOh4VS.s:1594   .data.BspUart:0000000000000000 BspUart
/var/folders/lx/hc4sn_b53233_zkc9xbbl97r0000gp/T//ccWOh4VS.s:1584   .bss.BspUart_Obj_List:0000000000000000 $d
/var/folders/lx/hc4sn_b53233_zkc9xbbl97r0000gp/T//ccWOh4VS.s:1588   .bss.BspUart_Obj_List:0000000000000000 BspUart_Obj_List
/var/folders/lx/hc4sn_b53233_zkc9xbbl97r0000gp/T//ccWOh4VS.s:1591   .data.BspUart:0000000000000000 $d

UNDEFINED SYMBOLS
HAL_UART_Transmit_DMA
HAL_UART_Init
memset
HAL_RCCEx_PeriphCLKConfig
memcpy
HAL_DMA_Init
HAL_NVIC_SetPriority
HAL_NVIC_EnableIRQ
BspDMA
BspGPIO
HAL_UARTEx_SetTxFifoThreshold
HAL_UARTEx_SetRxFifoThreshold
HAL_UARTEx_DisableFifoMode
HAL_UART_Receive_DMA
HAL_DMA_Abort
