ARM GAS  /var/folders/lx/hc4sn_b53233_zkc9xbbl97r0000gp/T//cc1QjFxR.s 			page 1


   1              		.cpu cortex-m7
   2              		.eabi_attribute 28, 1
   3              		.eabi_attribute 20, 1
   4              		.eabi_attribute 21, 1
   5              		.eabi_attribute 23, 3
   6              		.eabi_attribute 24, 1
   7              		.eabi_attribute 25, 1
   8              		.eabi_attribute 26, 1
   9              		.eabi_attribute 30, 1
  10              		.eabi_attribute 34, 1
  11              		.eabi_attribute 18, 4
  12              		.file	"Bsp_DMA.c"
  13              		.text
  14              	.Ltext0:
  15              		.cfi_sections	.debug_frame
  16              		.section	.text.BspDMA_Get_Instance,"ax",%progbits
  17              		.align	1
  18              		.arch armv7e-m
  19              		.syntax unified
  20              		.thumb
  21              		.thumb_func
  22              		.fpu fpv5-d16
  24              	BspDMA_Get_Instance:
  25              	.LVL0:
  26              	.LFB144:
  27              		.file 1 "Bsp/Bsp_DMA.c"
   1:Bsp/Bsp_DMA.c **** #include "stm32h743xx.h"
   2:Bsp/Bsp_DMA.c **** #include "stm32h7xx_hal.h"
   3:Bsp/Bsp_DMA.c **** #include "stm32h7xx_hal_rcc.h"
   4:Bsp/Bsp_DMA.c **** #include "Bsp_DMA.h"
   5:Bsp/Bsp_DMA.c **** 
   6:Bsp/Bsp_DMA.c **** static DMA_HandleTypeDef *BspDMA_Map[Bsp_DMA_Sum][Bsp_DMA_Stream_Sum] = {NULL};
   7:Bsp/Bsp_DMA.c **** 
   8:Bsp/Bsp_DMA.c **** static const BspDMA1_Instance_List[Bsp_DMA_Stream_Sum] = {
   9:Bsp/Bsp_DMA.c ****     DMA1_Stream0,
  10:Bsp/Bsp_DMA.c ****     DMA1_Stream1,
  11:Bsp/Bsp_DMA.c ****     DMA1_Stream2,
  12:Bsp/Bsp_DMA.c ****     DMA1_Stream3,
  13:Bsp/Bsp_DMA.c ****     DMA1_Stream4,
  14:Bsp/Bsp_DMA.c ****     DMA1_Stream5,
  15:Bsp/Bsp_DMA.c ****     DMA1_Stream6,
  16:Bsp/Bsp_DMA.c ****     DMA1_Stream7};
  17:Bsp/Bsp_DMA.c **** 
  18:Bsp/Bsp_DMA.c **** static const BspDMA2_Instance_List[Bsp_DMA_Stream_Sum] = {
  19:Bsp/Bsp_DMA.c ****     DMA2_Stream0,
  20:Bsp/Bsp_DMA.c ****     DMA2_Stream1,
  21:Bsp/Bsp_DMA.c ****     DMA2_Stream2,
  22:Bsp/Bsp_DMA.c ****     DMA2_Stream3,
  23:Bsp/Bsp_DMA.c ****     DMA2_Stream4,
  24:Bsp/Bsp_DMA.c ****     DMA2_Stream5,
  25:Bsp/Bsp_DMA.c ****     DMA2_Stream6,
  26:Bsp/Bsp_DMA.c ****     DMA2_Stream7};
  27:Bsp/Bsp_DMA.c **** 
  28:Bsp/Bsp_DMA.c **** /* internal function */
  29:Bsp/Bsp_DMA.c **** 
  30:Bsp/Bsp_DMA.c **** /* external function */
  31:Bsp/Bsp_DMA.c **** static bool BspDMA_Regist_Obj(BspDMA_List dma, BspDMA_Stream_List stream, DMA_HandleTypeDef *hdl);
ARM GAS  /var/folders/lx/hc4sn_b53233_zkc9xbbl97r0000gp/T//cc1QjFxR.s 			page 2


  32:Bsp/Bsp_DMA.c **** static bool BspDMA_Unregist_Obj(BspDMA_List dma, BspDMA_Stream_List stream);
  33:Bsp/Bsp_DMA.c **** static DMA_HandleTypeDef *BspDMA_Get_Handle(BspDMA_List dma, BspDMA_Stream_List stream);
  34:Bsp/Bsp_DMA.c **** static DMA2D_TypeDef *BspDMA_Get_Instance(BspDMA_List dma, BspDMA_Stream_List stream);
  35:Bsp/Bsp_DMA.c **** static void BspDMA_EnableIRQ(BspDMA_List dma, BspDMA_Stream_List stream, uint32_t preempt, uint32_t
  36:Bsp/Bsp_DMA.c **** 
  37:Bsp/Bsp_DMA.c **** BspDMA_TypeDef BspDMA = {
  38:Bsp/Bsp_DMA.c ****     .regist = BspDMA_Regist_Obj,
  39:Bsp/Bsp_DMA.c ****     .unregist = BspDMA_Unregist_Obj,
  40:Bsp/Bsp_DMA.c ****     .get_handle = BspDMA_Get_Handle,
  41:Bsp/Bsp_DMA.c ****     .get_instance = BspDMA_Get_Instance,
  42:Bsp/Bsp_DMA.c ****     .enable_irq = BspDMA_EnableIRQ,
  43:Bsp/Bsp_DMA.c **** };
  44:Bsp/Bsp_DMA.c **** 
  45:Bsp/Bsp_DMA.c **** /* DMA2_Stream7 for DataPipe Use */
  46:Bsp/Bsp_DMA.c **** static DMA2D_TypeDef *BspDMA_Get_Instance(BspDMA_List dma, BspDMA_Stream_List stream)
  47:Bsp/Bsp_DMA.c **** {
  28              		.loc 1 47 1 view -0
  29              		.cfi_startproc
  30              		@ args = 0, pretend = 0, frame = 8
  31              		@ frame_needed = 0, uses_anonymous_args = 0
  32              		@ link register save eliminated.
  33              		.loc 1 47 1 is_stmt 0 view .LVU1
  34 0000 82B0     		sub	sp, sp, #8
  35              	.LCFI0:
  36              		.cfi_def_cfa_offset 8
  48:Bsp/Bsp_DMA.c ****     DMA2D_TypeDef *instance;
  37              		.loc 1 48 5 is_stmt 1 view .LVU2
  49:Bsp/Bsp_DMA.c ****     bool dma1_clk_init = false;
  38              		.loc 1 49 5 view .LVU3
  39              	.LVL1:
  50:Bsp/Bsp_DMA.c ****     bool dma2_clk_init = false;
  40              		.loc 1 50 5 view .LVU4
  51:Bsp/Bsp_DMA.c **** 
  52:Bsp/Bsp_DMA.c ****     if ((dma == Bsp_DMA_1) && ((stream < Bsp_DMA_Stream_Sum) && (stream >= Bsp_DMA_Stream_0)))
  41              		.loc 1 52 5 view .LVU5
  42              		.loc 1 52 8 is_stmt 0 view .LVU6
  43 0002 0729     		cmp	r1, #7
  44 0004 98BF     		it	ls
  45 0006 0028     		cmpls	r0, #0
  46 0008 15D0     		beq	.L6
  53:Bsp/Bsp_DMA.c ****     {
  54:Bsp/Bsp_DMA.c ****         if (!dma1_clk_init)
  55:Bsp/Bsp_DMA.c ****         {
  56:Bsp/Bsp_DMA.c ****             __HAL_RCC_DMA1_CLK_ENABLE();
  57:Bsp/Bsp_DMA.c ****             dma1_clk_init = true;
  58:Bsp/Bsp_DMA.c ****         }
  59:Bsp/Bsp_DMA.c **** 
  60:Bsp/Bsp_DMA.c ****         return BspDMA1_Instance_List[stream];
  61:Bsp/Bsp_DMA.c ****     }
  62:Bsp/Bsp_DMA.c ****     else if ((dma == Bsp_DMA_2) && ((stream < Bsp_DMA_Stream_7) && (stream >= Bsp_DMA_Stream_0)))
  47              		.loc 1 62 10 is_stmt 1 view .LVU7
  48              		.loc 1 62 13 is_stmt 0 view .LVU8
  49 000a 0629     		cmp	r1, #6
  50 000c 98BF     		it	ls
  51 000e 0128     		cmpls	r0, #1
  52 0010 22D1     		bne	.L4
  63:Bsp/Bsp_DMA.c ****     {
ARM GAS  /var/folders/lx/hc4sn_b53233_zkc9xbbl97r0000gp/T//cc1QjFxR.s 			page 3


  64:Bsp/Bsp_DMA.c ****         if (!dma2_clk_init)
  53              		.loc 1 64 9 is_stmt 1 view .LVU9
  65:Bsp/Bsp_DMA.c ****         {
  66:Bsp/Bsp_DMA.c ****             __HAL_RCC_DMA2_CLK_ENABLE();
  54              		.loc 1 66 13 view .LVU10
  55              	.LBB2:
  56              		.loc 1 66 13 view .LVU11
  57              		.loc 1 66 13 view .LVU12
  58 0012 124B     		ldr	r3, .L7
  59 0014 D3F8D820 		ldr	r2, [r3, #216]
  60 0018 42F00202 		orr	r2, r2, #2
  61 001c C3F8D820 		str	r2, [r3, #216]
  62              		.loc 1 66 13 view .LVU13
  63 0020 D3F8D830 		ldr	r3, [r3, #216]
  64 0024 03F00203 		and	r3, r3, #2
  65 0028 0193     		str	r3, [sp, #4]
  66              		.loc 1 66 13 view .LVU14
  67 002a 019B     		ldr	r3, [sp, #4]
  68              	.LBE2:
  69              		.loc 1 66 13 view .LVU15
  67:Bsp/Bsp_DMA.c ****             dma2_clk_init = true;
  70              		.loc 1 67 13 view .LVU16
  71              	.LVL2:
  68:Bsp/Bsp_DMA.c ****         }
  69:Bsp/Bsp_DMA.c **** 
  70:Bsp/Bsp_DMA.c ****         return BspDMA2_Instance_List[stream];
  72              		.loc 1 70 9 view .LVU17
  73              		.loc 1 70 37 is_stmt 0 view .LVU18
  74 002c 0C4B     		ldr	r3, .L7+4
  75 002e 53F82100 		ldr	r0, [r3, r1, lsl #2]
  76              	.LVL3:
  77              	.L1:
  71:Bsp/Bsp_DMA.c ****     }
  72:Bsp/Bsp_DMA.c **** 
  73:Bsp/Bsp_DMA.c ****     return NULL;
  74:Bsp/Bsp_DMA.c **** }
  78              		.loc 1 74 1 view .LVU19
  79 0032 02B0     		add	sp, sp, #8
  80              	.LCFI1:
  81              		.cfi_remember_state
  82              		.cfi_def_cfa_offset 0
  83              		@ sp needed
  84 0034 7047     		bx	lr
  85              	.LVL4:
  86              	.L6:
  87              	.LCFI2:
  88              		.cfi_restore_state
  54:Bsp/Bsp_DMA.c ****         {
  89              		.loc 1 54 9 is_stmt 1 view .LVU20
  56:Bsp/Bsp_DMA.c ****             dma1_clk_init = true;
  90              		.loc 1 56 13 view .LVU21
  91              	.LBB3:
  56:Bsp/Bsp_DMA.c ****             dma1_clk_init = true;
  92              		.loc 1 56 13 view .LVU22
  56:Bsp/Bsp_DMA.c ****             dma1_clk_init = true;
  93              		.loc 1 56 13 view .LVU23
  94 0036 094B     		ldr	r3, .L7
ARM GAS  /var/folders/lx/hc4sn_b53233_zkc9xbbl97r0000gp/T//cc1QjFxR.s 			page 4


  95 0038 D3F8D820 		ldr	r2, [r3, #216]
  96 003c 42F00102 		orr	r2, r2, #1
  97 0040 C3F8D820 		str	r2, [r3, #216]
  56:Bsp/Bsp_DMA.c ****             dma1_clk_init = true;
  98              		.loc 1 56 13 view .LVU24
  99 0044 D3F8D830 		ldr	r3, [r3, #216]
 100 0048 03F00103 		and	r3, r3, #1
 101 004c 0093     		str	r3, [sp]
  56:Bsp/Bsp_DMA.c ****             dma1_clk_init = true;
 102              		.loc 1 56 13 view .LVU25
 103 004e 009B     		ldr	r3, [sp]
 104              	.LBE3:
  56:Bsp/Bsp_DMA.c ****             dma1_clk_init = true;
 105              		.loc 1 56 13 view .LVU26
  57:Bsp/Bsp_DMA.c ****         }
 106              		.loc 1 57 13 view .LVU27
 107              	.LVL5:
  60:Bsp/Bsp_DMA.c ****     }
 108              		.loc 1 60 9 view .LVU28
  60:Bsp/Bsp_DMA.c ****     }
 109              		.loc 1 60 37 is_stmt 0 view .LVU29
 110 0050 044B     		ldr	r3, .L7+8
 111 0052 53F82100 		ldr	r0, [r3, r1, lsl #2]
 112              	.LVL6:
  60:Bsp/Bsp_DMA.c ****     }
 113              		.loc 1 60 37 view .LVU30
 114 0056 ECE7     		b	.L1
 115              	.LVL7:
 116              	.L4:
  73:Bsp/Bsp_DMA.c **** }
 117              		.loc 1 73 12 view .LVU31
 118 0058 0020     		movs	r0, #0
 119              	.LVL8:
  73:Bsp/Bsp_DMA.c **** }
 120              		.loc 1 73 12 view .LVU32
 121 005a EAE7     		b	.L1
 122              	.L8:
 123              		.align	2
 124              	.L7:
 125 005c 00440258 		.word	1476543488
 126 0060 00000000 		.word	.LANCHOR1
 127 0064 00000000 		.word	.LANCHOR0
 128              		.cfi_endproc
 129              	.LFE144:
 131              		.section	.text.BspDMA_Regist_Obj,"ax",%progbits
 132              		.align	1
 133              		.syntax unified
 134              		.thumb
 135              		.thumb_func
 136              		.fpu fpv5-d16
 138              	BspDMA_Regist_Obj:
 139              	.LVL9:
 140              	.LFB145:
  75:Bsp/Bsp_DMA.c **** 
  76:Bsp/Bsp_DMA.c **** static bool BspDMA_Regist_Obj(BspDMA_List dma, BspDMA_Stream_List stream, DMA_HandleTypeDef *hdl)
  77:Bsp/Bsp_DMA.c **** {
 141              		.loc 1 77 1 is_stmt 1 view -0
ARM GAS  /var/folders/lx/hc4sn_b53233_zkc9xbbl97r0000gp/T//cc1QjFxR.s 			page 5


 142              		.cfi_startproc
 143              		@ args = 0, pretend = 0, frame = 0
 144              		@ frame_needed = 0, uses_anonymous_args = 0
 145              		.loc 1 77 1 is_stmt 0 view .LVU34
 146 0000 F8B5     		push	{r3, r4, r5, r6, r7, lr}
 147              	.LCFI3:
 148              		.cfi_def_cfa_offset 24
 149              		.cfi_offset 3, -24
 150              		.cfi_offset 4, -20
 151              		.cfi_offset 5, -16
 152              		.cfi_offset 6, -12
 153              		.cfi_offset 7, -8
 154              		.cfi_offset 14, -4
  78:Bsp/Bsp_DMA.c ****     DMA2D_TypeDef *instance = NULL;
 155              		.loc 1 78 5 is_stmt 1 view .LVU35
 156              	.LVL10:
  79:Bsp/Bsp_DMA.c **** 
  80:Bsp/Bsp_DMA.c ****     if (((dma < Bsp_DMA_Sum) && (dma >= Bsp_DMA_1)) &&
 157              		.loc 1 80 5 view .LVU36
 158              		.loc 1 80 8 is_stmt 0 view .LVU37
 159 0002 0128     		cmp	r0, #1
 160 0004 98BF     		it	ls
 161 0006 0729     		cmpls	r1, #7
 162 0008 94BF     		ite	ls
 163 000a 0127     		movls	r7, #1
 164 000c 0027     		movhi	r7, #0
 165 000e 01D9     		bls	.L13
 166              	.LVL11:
 167              	.L10:
  81:Bsp/Bsp_DMA.c ****         ((stream < Bsp_DMA_Stream_Sum) && (stream >= Bsp_DMA_Stream_0)))
  82:Bsp/Bsp_DMA.c ****     {
  83:Bsp/Bsp_DMA.c ****         instance = BspDMA_Get_Instance(dma, stream);
  84:Bsp/Bsp_DMA.c ****         if (instance == NULL)
  85:Bsp/Bsp_DMA.c ****             return false;
  86:Bsp/Bsp_DMA.c **** 
  87:Bsp/Bsp_DMA.c ****         hdl->Instance = instance;
  88:Bsp/Bsp_DMA.c ****         BspDMA_Map[dma][stream] = hdl;
  89:Bsp/Bsp_DMA.c ****         return true;
  90:Bsp/Bsp_DMA.c ****     }
  91:Bsp/Bsp_DMA.c **** 
  92:Bsp/Bsp_DMA.c ****     return false;
  93:Bsp/Bsp_DMA.c **** }
 168              		.loc 1 93 1 view .LVU38
 169 0010 3846     		mov	r0, r7
 170 0012 F8BD     		pop	{r3, r4, r5, r6, r7, pc}
 171              	.LVL12:
 172              	.L13:
 173              		.loc 1 93 1 view .LVU39
 174 0014 0546     		mov	r5, r0
 175 0016 0C46     		mov	r4, r1
 176 0018 1646     		mov	r6, r2
  83:Bsp/Bsp_DMA.c ****         if (instance == NULL)
 177              		.loc 1 83 9 is_stmt 1 view .LVU40
  83:Bsp/Bsp_DMA.c ****         if (instance == NULL)
 178              		.loc 1 83 20 is_stmt 0 view .LVU41
 179 001a FFF7FEFF 		bl	BspDMA_Get_Instance
 180              	.LVL13:
ARM GAS  /var/folders/lx/hc4sn_b53233_zkc9xbbl97r0000gp/T//cc1QjFxR.s 			page 6


  84:Bsp/Bsp_DMA.c ****             return false;
 181              		.loc 1 84 9 is_stmt 1 view .LVU42
  84:Bsp/Bsp_DMA.c ****             return false;
 182              		.loc 1 84 12 is_stmt 0 view .LVU43
 183 001e 30B1     		cbz	r0, .L11
  87:Bsp/Bsp_DMA.c ****         BspDMA_Map[dma][stream] = hdl;
 184              		.loc 1 87 9 is_stmt 1 view .LVU44
  87:Bsp/Bsp_DMA.c ****         BspDMA_Map[dma][stream] = hdl;
 185              		.loc 1 87 23 is_stmt 0 view .LVU45
 186 0020 3060     		str	r0, [r6]
  88:Bsp/Bsp_DMA.c ****         return true;
 187              		.loc 1 88 9 is_stmt 1 view .LVU46
  88:Bsp/Bsp_DMA.c ****         return true;
 188              		.loc 1 88 33 is_stmt 0 view .LVU47
 189 0022 04EBC500 		add	r0, r4, r5, lsl #3
 190              	.LVL14:
  88:Bsp/Bsp_DMA.c ****         return true;
 191              		.loc 1 88 33 view .LVU48
 192 0026 034B     		ldr	r3, .L14
 193 0028 43F82060 		str	r6, [r3, r0, lsl #2]
  89:Bsp/Bsp_DMA.c ****     }
 194              		.loc 1 89 9 is_stmt 1 view .LVU49
  89:Bsp/Bsp_DMA.c ****     }
 195              		.loc 1 89 16 is_stmt 0 view .LVU50
 196 002c F0E7     		b	.L10
 197              	.LVL15:
 198              	.L11:
  85:Bsp/Bsp_DMA.c **** 
 199              		.loc 1 85 20 view .LVU51
 200 002e 0027     		movs	r7, #0
 201 0030 EEE7     		b	.L10
 202              	.L15:
 203 0032 00BF     		.align	2
 204              	.L14:
 205 0034 00000000 		.word	.LANCHOR2
 206              		.cfi_endproc
 207              	.LFE145:
 209              		.section	.text.BspDMA_Unregist_Obj,"ax",%progbits
 210              		.align	1
 211              		.syntax unified
 212              		.thumb
 213              		.thumb_func
 214              		.fpu fpv5-d16
 216              	BspDMA_Unregist_Obj:
 217              	.LVL16:
 218              	.LFB146:
  94:Bsp/Bsp_DMA.c **** 
  95:Bsp/Bsp_DMA.c **** static bool BspDMA_Unregist_Obj(BspDMA_List dma, BspDMA_Stream_List stream)
  96:Bsp/Bsp_DMA.c **** {
 219              		.loc 1 96 1 is_stmt 1 view -0
 220              		.cfi_startproc
 221              		@ args = 0, pretend = 0, frame = 0
 222              		@ frame_needed = 0, uses_anonymous_args = 0
 223              		@ link register save eliminated.
 224              		.loc 1 96 1 is_stmt 0 view .LVU53
 225 0000 0346     		mov	r3, r0
  97:Bsp/Bsp_DMA.c ****     if (((dma < Bsp_DMA_Sum) && (dma >= Bsp_DMA_1)) &&
ARM GAS  /var/folders/lx/hc4sn_b53233_zkc9xbbl97r0000gp/T//cc1QjFxR.s 			page 7


 226              		.loc 1 97 5 is_stmt 1 view .LVU54
 227              		.loc 1 97 8 is_stmt 0 view .LVU55
 228 0002 0128     		cmp	r0, #1
 229 0004 98BF     		it	ls
 230 0006 0729     		cmpls	r1, #7
 231 0008 94BF     		ite	ls
 232 000a 0120     		movls	r0, #1
 233              	.LVL17:
 234              		.loc 1 97 8 view .LVU56
 235 000c 0020     		movhi	r0, #0
 236 000e 00D9     		bls	.L18
 237              	.LVL18:
 238              	.L17:
  98:Bsp/Bsp_DMA.c ****         ((stream < Bsp_DMA_Stream_Sum) && (stream >= Bsp_DMA_Stream_0)))
  99:Bsp/Bsp_DMA.c ****     {
 100:Bsp/Bsp_DMA.c ****         BspDMA_Map[dma][stream] = NULL;
 101:Bsp/Bsp_DMA.c ****         return true;
 102:Bsp/Bsp_DMA.c ****     }
 103:Bsp/Bsp_DMA.c **** 
 104:Bsp/Bsp_DMA.c ****     return false;
 105:Bsp/Bsp_DMA.c **** }
 239              		.loc 1 105 1 view .LVU57
 240 0010 7047     		bx	lr
 241              	.LVL19:
 242              	.L18:
 100:Bsp/Bsp_DMA.c ****         return true;
 243              		.loc 1 100 9 is_stmt 1 view .LVU58
 100:Bsp/Bsp_DMA.c ****         return true;
 244              		.loc 1 100 33 is_stmt 0 view .LVU59
 245 0012 01EBC301 		add	r1, r1, r3, lsl #3
 246              	.LVL20:
 100:Bsp/Bsp_DMA.c ****         return true;
 247              		.loc 1 100 33 view .LVU60
 248 0016 024B     		ldr	r3, .L19
 249 0018 0022     		movs	r2, #0
 250 001a 43F82120 		str	r2, [r3, r1, lsl #2]
 101:Bsp/Bsp_DMA.c ****     }
 251              		.loc 1 101 9 is_stmt 1 view .LVU61
 101:Bsp/Bsp_DMA.c ****     }
 252              		.loc 1 101 16 is_stmt 0 view .LVU62
 253 001e F7E7     		b	.L17
 254              	.L20:
 255              		.align	2
 256              	.L19:
 257 0020 00000000 		.word	.LANCHOR2
 258              		.cfi_endproc
 259              	.LFE146:
 261              		.section	.text.BspDMA_Get_Handle,"ax",%progbits
 262              		.align	1
 263              		.syntax unified
 264              		.thumb
 265              		.thumb_func
 266              		.fpu fpv5-d16
 268              	BspDMA_Get_Handle:
 269              	.LVL21:
 270              	.LFB147:
 106:Bsp/Bsp_DMA.c **** 
ARM GAS  /var/folders/lx/hc4sn_b53233_zkc9xbbl97r0000gp/T//cc1QjFxR.s 			page 8


 107:Bsp/Bsp_DMA.c **** static DMA_HandleTypeDef *BspDMA_Get_Handle(BspDMA_List dma, BspDMA_Stream_List stream)
 108:Bsp/Bsp_DMA.c **** {
 271              		.loc 1 108 1 is_stmt 1 view -0
 272              		.cfi_startproc
 273              		@ args = 0, pretend = 0, frame = 0
 274              		@ frame_needed = 0, uses_anonymous_args = 0
 275              		@ link register save eliminated.
 109:Bsp/Bsp_DMA.c ****     if (((dma < Bsp_DMA_Sum) && (dma >= Bsp_DMA_1)) &&
 276              		.loc 1 109 5 view .LVU64
 277              		.loc 1 109 8 is_stmt 0 view .LVU65
 278 0000 0128     		cmp	r0, #1
 279 0002 98BF     		it	ls
 280 0004 0729     		cmpls	r1, #7
 281 0006 05D8     		bhi	.L23
 110:Bsp/Bsp_DMA.c ****         ((stream < Bsp_DMA_Stream_Sum) && (stream >= Bsp_DMA_Stream_0)))
 111:Bsp/Bsp_DMA.c ****     {
 112:Bsp/Bsp_DMA.c ****         return BspDMA_Map[dma][stream];
 282              		.loc 1 112 9 is_stmt 1 view .LVU66
 283              		.loc 1 112 31 is_stmt 0 view .LVU67
 284 0008 01EBC001 		add	r1, r1, r0, lsl #3
 285              	.LVL22:
 286              		.loc 1 112 31 view .LVU68
 287 000c 024B     		ldr	r3, .L24
 288 000e 53F82100 		ldr	r0, [r3, r1, lsl #2]
 289              	.LVL23:
 290              		.loc 1 112 31 view .LVU69
 291 0012 7047     		bx	lr
 292              	.LVL24:
 293              	.L23:
 113:Bsp/Bsp_DMA.c ****     }
 114:Bsp/Bsp_DMA.c **** 
 115:Bsp/Bsp_DMA.c ****     return NULL;
 294              		.loc 1 115 12 view .LVU70
 295 0014 0020     		movs	r0, #0
 296              	.LVL25:
 116:Bsp/Bsp_DMA.c **** }
 297              		.loc 1 116 1 view .LVU71
 298 0016 7047     		bx	lr
 299              	.L25:
 300              		.align	2
 301              	.L24:
 302 0018 00000000 		.word	.LANCHOR2
 303              		.cfi_endproc
 304              	.LFE147:
 306              		.section	.text.BspDMA_EnableIRQ,"ax",%progbits
 307              		.align	1
 308              		.syntax unified
 309              		.thumb
 310              		.thumb_func
 311              		.fpu fpv5-d16
 313              	BspDMA_EnableIRQ:
 314              	.LVL26:
 315              	.LFB148:
 117:Bsp/Bsp_DMA.c **** 
 118:Bsp/Bsp_DMA.c **** static void BspDMA_EnableIRQ(BspDMA_List dma, BspDMA_Stream_List stream, uint32_t preempt, uint32_t
 119:Bsp/Bsp_DMA.c **** {
 316              		.loc 1 119 1 is_stmt 1 view -0
ARM GAS  /var/folders/lx/hc4sn_b53233_zkc9xbbl97r0000gp/T//cc1QjFxR.s 			page 9


 317              		.cfi_startproc
 318              		@ args = 0, pretend = 0, frame = 0
 319              		@ frame_needed = 0, uses_anonymous_args = 0
 320              		.loc 1 119 1 is_stmt 0 view .LVU73
 321 0000 10B5     		push	{r4, lr}
 322              	.LCFI4:
 323              		.cfi_def_cfa_offset 8
 324              		.cfi_offset 4, -8
 325              		.cfi_offset 14, -4
 120:Bsp/Bsp_DMA.c ****     IRQn_Type irq;
 326              		.loc 1 120 5 is_stmt 1 view .LVU74
 121:Bsp/Bsp_DMA.c **** 
 122:Bsp/Bsp_DMA.c ****     if (dma == Bsp_DMA_1)
 327              		.loc 1 122 5 view .LVU75
 328              		.loc 1 122 8 is_stmt 0 view .LVU76
 329 0002 E8B9     		cbnz	r0, .L27
 123:Bsp/Bsp_DMA.c ****     {
 124:Bsp/Bsp_DMA.c ****         switch (stream)
 330              		.loc 1 124 9 is_stmt 1 view .LVU77
 331 0004 0729     		cmp	r1, #7
 332 0006 0ED8     		bhi	.L26
 333 0008 DFE801F0 		tbb	[pc, r1]
 334              	.LVL27:
 335              	.L30:
 336 000c 04       		.byte	(.L37-.L30)/2
 337 000d 32       		.byte	(.L46-.L30)/2
 338 000e 0E       		.byte	(.L35-.L30)/2
 339 000f 10       		.byte	(.L34-.L30)/2
 340 0010 12       		.byte	(.L33-.L30)/2
 341 0011 14       		.byte	(.L32-.L30)/2
 342 0012 16       		.byte	(.L31-.L30)/2
 343 0013 18       		.byte	(.L29-.L30)/2
 344              		.p2align 1
 345              	.L37:
 122:Bsp/Bsp_DMA.c ****     {
 346              		.loc 1 122 8 is_stmt 0 view .LVU78
 347 0014 0B24     		movs	r4, #11
 348              	.L36:
 349              	.LVL28:
 125:Bsp/Bsp_DMA.c ****         {
 126:Bsp/Bsp_DMA.c ****         case Bsp_DMA_Stream_0:
 127:Bsp/Bsp_DMA.c ****             irq = DMA1_Stream0_IRQn;
 128:Bsp/Bsp_DMA.c ****             break;
 129:Bsp/Bsp_DMA.c **** 
 130:Bsp/Bsp_DMA.c ****         case Bsp_DMA_Stream_1:
 131:Bsp/Bsp_DMA.c ****             irq = DMA1_Stream1_IRQn;
 132:Bsp/Bsp_DMA.c ****             break;
 133:Bsp/Bsp_DMA.c **** 
 134:Bsp/Bsp_DMA.c ****         case Bsp_DMA_Stream_2:
 135:Bsp/Bsp_DMA.c ****             irq = DMA1_Stream2_IRQn;
 136:Bsp/Bsp_DMA.c ****             break;
 137:Bsp/Bsp_DMA.c **** 
 138:Bsp/Bsp_DMA.c ****         case Bsp_DMA_Stream_3:
 139:Bsp/Bsp_DMA.c ****             irq = DMA1_Stream3_IRQn;
 140:Bsp/Bsp_DMA.c ****             break;
 141:Bsp/Bsp_DMA.c **** 
 142:Bsp/Bsp_DMA.c ****         case Bsp_DMA_Stream_4:
ARM GAS  /var/folders/lx/hc4sn_b53233_zkc9xbbl97r0000gp/T//cc1QjFxR.s 			page 10


 143:Bsp/Bsp_DMA.c ****             irq = DMA1_Stream4_IRQn;
 144:Bsp/Bsp_DMA.c ****             break;
 145:Bsp/Bsp_DMA.c **** 
 146:Bsp/Bsp_DMA.c ****         case Bsp_DMA_Stream_5:
 147:Bsp/Bsp_DMA.c ****             irq = DMA1_Stream5_IRQn;
 148:Bsp/Bsp_DMA.c ****             break;
 149:Bsp/Bsp_DMA.c **** 
 150:Bsp/Bsp_DMA.c ****         case Bsp_DMA_Stream_6:
 151:Bsp/Bsp_DMA.c ****             irq = DMA1_Stream6_IRQn;
 152:Bsp/Bsp_DMA.c ****             break;
 153:Bsp/Bsp_DMA.c **** 
 154:Bsp/Bsp_DMA.c ****         case Bsp_DMA_Stream_7:
 155:Bsp/Bsp_DMA.c ****             irq = DMA1_Stream7_IRQn;
 156:Bsp/Bsp_DMA.c ****             break;
 157:Bsp/Bsp_DMA.c **** 
 158:Bsp/Bsp_DMA.c ****         default:
 159:Bsp/Bsp_DMA.c ****             return;
 160:Bsp/Bsp_DMA.c ****         }
 161:Bsp/Bsp_DMA.c ****     }
 162:Bsp/Bsp_DMA.c ****     else if (dma == Bsp_DMA_2)
 163:Bsp/Bsp_DMA.c ****     {
 164:Bsp/Bsp_DMA.c ****         switch (stream)
 165:Bsp/Bsp_DMA.c ****         {
 166:Bsp/Bsp_DMA.c ****         case Bsp_DMA_Stream_0:
 167:Bsp/Bsp_DMA.c ****             irq = DMA2_Stream0_IRQn;
 168:Bsp/Bsp_DMA.c ****             break;
 169:Bsp/Bsp_DMA.c **** 
 170:Bsp/Bsp_DMA.c ****         case Bsp_DMA_Stream_1:
 171:Bsp/Bsp_DMA.c ****             irq = DMA2_Stream1_IRQn;
 172:Bsp/Bsp_DMA.c ****             break;
 173:Bsp/Bsp_DMA.c **** 
 174:Bsp/Bsp_DMA.c ****         case Bsp_DMA_Stream_2:
 175:Bsp/Bsp_DMA.c ****             irq = DMA2_Stream2_IRQn;
 176:Bsp/Bsp_DMA.c ****             break;
 177:Bsp/Bsp_DMA.c **** 
 178:Bsp/Bsp_DMA.c ****         case Bsp_DMA_Stream_3:
 179:Bsp/Bsp_DMA.c ****             irq = DMA2_Stream3_IRQn;
 180:Bsp/Bsp_DMA.c ****             break;
 181:Bsp/Bsp_DMA.c **** 
 182:Bsp/Bsp_DMA.c ****         case Bsp_DMA_Stream_4:
 183:Bsp/Bsp_DMA.c ****             irq = DMA2_Stream4_IRQn;
 184:Bsp/Bsp_DMA.c ****             break;
 185:Bsp/Bsp_DMA.c **** 
 186:Bsp/Bsp_DMA.c ****         case Bsp_DMA_Stream_5:
 187:Bsp/Bsp_DMA.c ****             irq = DMA2_Stream5_IRQn;
 188:Bsp/Bsp_DMA.c ****             break;
 189:Bsp/Bsp_DMA.c **** 
 190:Bsp/Bsp_DMA.c ****         case Bsp_DMA_Stream_6:
 191:Bsp/Bsp_DMA.c ****             irq = DMA2_Stream6_IRQn;
 192:Bsp/Bsp_DMA.c ****             break;
 193:Bsp/Bsp_DMA.c **** 
 194:Bsp/Bsp_DMA.c ****         case Bsp_DMA_Stream_7:
 195:Bsp/Bsp_DMA.c ****             irq = DMA2_Stream7_IRQn;
 196:Bsp/Bsp_DMA.c ****             break;
 197:Bsp/Bsp_DMA.c **** 
 198:Bsp/Bsp_DMA.c ****         default:
 199:Bsp/Bsp_DMA.c ****             return;
ARM GAS  /var/folders/lx/hc4sn_b53233_zkc9xbbl97r0000gp/T//cc1QjFxR.s 			page 11


 200:Bsp/Bsp_DMA.c ****         }
 201:Bsp/Bsp_DMA.c ****     }
 202:Bsp/Bsp_DMA.c ****     else
 203:Bsp/Bsp_DMA.c ****         return;
 204:Bsp/Bsp_DMA.c **** 
 205:Bsp/Bsp_DMA.c ****     HAL_NVIC_SetPriority(irq, 0, 0);
 350              		.loc 1 205 5 is_stmt 1 view .LVU79
 351 0016 0022     		movs	r2, #0
 352              	.LVL29:
 353              		.loc 1 205 5 is_stmt 0 view .LVU80
 354 0018 1146     		mov	r1, r2
 355              	.LVL30:
 356              		.loc 1 205 5 view .LVU81
 357 001a 2046     		mov	r0, r4
 358              	.LVL31:
 359              		.loc 1 205 5 view .LVU82
 360 001c FFF7FEFF 		bl	HAL_NVIC_SetPriority
 361              	.LVL32:
 206:Bsp/Bsp_DMA.c ****     HAL_NVIC_EnableIRQ(irq);
 362              		.loc 1 206 5 is_stmt 1 view .LVU83
 363 0020 2046     		mov	r0, r4
 364 0022 FFF7FEFF 		bl	HAL_NVIC_EnableIRQ
 365              	.LVL33:
 366              	.L26:
 207:Bsp/Bsp_DMA.c **** }...
 367              		.loc 1 207 1 is_stmt 0 view .LVU84
 368 0026 10BD     		pop	{r4, pc}
 369              	.LVL34:
 370              	.L35:
 135:Bsp/Bsp_DMA.c ****             irq = DMA1_Stream2_IRQn;
 371              		.loc 1 135 13 is_stmt 1 view .LVU85
 136:Bsp/Bsp_DMA.c ****             break;
 372              		.loc 1 136 13 view .LVU86
 135:Bsp/Bsp_DMA.c ****             irq = DMA1_Stream2_IRQn;
 373              		.loc 1 135 17 is_stmt 0 view .LVU87
 374 0028 0D24     		movs	r4, #13
 136:Bsp/Bsp_DMA.c ****             break;
 375              		.loc 1 136 13 view .LVU88
 376 002a F4E7     		b	.L36
 377              	.LVL35:
 378              	.L34:
 139:Bsp/Bsp_DMA.c ****             irq = DMA1_Stream3_IRQn;
 379              		.loc 1 139 13 is_stmt 1 view .LVU89
 140:Bsp/Bsp_DMA.c ****             break;
 380              		.loc 1 140 13 view .LVU90
 139:Bsp/Bsp_DMA.c ****             irq = DMA1_Stream3_IRQn;
 381              		.loc 1 139 17 is_stmt 0 view .LVU91
 382 002c 0E24     		movs	r4, #14
 140:Bsp/Bsp_DMA.c ****             break;
 383              		.loc 1 140 13 view .LVU92
 384 002e F2E7     		b	.L36
 385              	.LVL36:
 386              	.L33:
 143:Bsp/Bsp_DMA.c ****             irq = DMA1_Stream4_IRQn;
 387              		.loc 1 143 13 is_stmt 1 view .LVU93
 144:Bsp/Bsp_DMA.c ****             break;
 388              		.loc 1 144 13 view .LVU94
ARM GAS  /var/folders/lx/hc4sn_b53233_zkc9xbbl97r0000gp/T//cc1QjFxR.s 			page 12


 143:Bsp/Bsp_DMA.c ****             irq = DMA1_Stream4_IRQn;
 389              		.loc 1 143 17 is_stmt 0 view .LVU95
 390 0030 0F24     		movs	r4, #15
 144:Bsp/Bsp_DMA.c ****             break;
 391              		.loc 1 144 13 view .LVU96
 392 0032 F0E7     		b	.L36
 393              	.LVL37:
 394              	.L32:
 147:Bsp/Bsp_DMA.c ****             irq = DMA1_Stream5_IRQn;
 395              		.loc 1 147 13 is_stmt 1 view .LVU97
 148:Bsp/Bsp_DMA.c ****             break;
 396              		.loc 1 148 13 view .LVU98
 147:Bsp/Bsp_DMA.c ****             irq = DMA1_Stream5_IRQn;
 397              		.loc 1 147 17 is_stmt 0 view .LVU99
 398 0034 1024     		movs	r4, #16
 148:Bsp/Bsp_DMA.c ****             break;
 399              		.loc 1 148 13 view .LVU100
 400 0036 EEE7     		b	.L36
 401              	.LVL38:
 402              	.L31:
 151:Bsp/Bsp_DMA.c ****             irq = DMA1_Stream6_IRQn;
 403              		.loc 1 151 13 is_stmt 1 view .LVU101
 152:Bsp/Bsp_DMA.c ****             break;
 404              		.loc 1 152 13 view .LVU102
 151:Bsp/Bsp_DMA.c ****             irq = DMA1_Stream6_IRQn;
 405              		.loc 1 151 17 is_stmt 0 view .LVU103
 406 0038 1124     		movs	r4, #17
 152:Bsp/Bsp_DMA.c ****             break;
 407              		.loc 1 152 13 view .LVU104
 408 003a ECE7     		b	.L36
 409              	.LVL39:
 410              	.L29:
 155:Bsp/Bsp_DMA.c ****             irq = DMA1_Stream7_IRQn;
 411              		.loc 1 155 13 is_stmt 1 view .LVU105
 156:Bsp/Bsp_DMA.c ****             break;
 412              		.loc 1 156 13 view .LVU106
 155:Bsp/Bsp_DMA.c ****             irq = DMA1_Stream7_IRQn;
 413              		.loc 1 155 17 is_stmt 0 view .LVU107
 414 003c 2F24     		movs	r4, #47
 156:Bsp/Bsp_DMA.c ****             break;
 415              		.loc 1 156 13 view .LVU108
 416 003e EAE7     		b	.L36
 417              	.LVL40:
 418              	.L27:
 162:Bsp/Bsp_DMA.c ****     else if (dma == Bsp_DMA_2)
 419              		.loc 1 162 10 is_stmt 1 view .LVU109
 162:Bsp/Bsp_DMA.c ****     else if (dma == Bsp_DMA_2)
 420              		.loc 1 162 13 is_stmt 0 view .LVU110
 421 0040 0128     		cmp	r0, #1
 422 0042 F0D1     		bne	.L26
 164:Bsp/Bsp_DMA.c ****         switch (stream)
 423              		.loc 1 164 9 is_stmt 1 view .LVU111
 424 0044 0729     		cmp	r1, #7
 425 0046 EED8     		bhi	.L26
 426 0048 DFE801F0 		tbb	[pc, r1]
 427              	.LVL41:
 428              	.L39:
ARM GAS  /var/folders/lx/hc4sn_b53233_zkc9xbbl97r0000gp/T//cc1QjFxR.s 			page 13


 429 004c 04       		.byte	(.L45-.L39)/2
 430 004d 14       		.byte	(.L47-.L39)/2
 431 004e 06       		.byte	(.L44-.L39)/2
 432 004f 08       		.byte	(.L43-.L39)/2
 433 0050 0A       		.byte	(.L42-.L39)/2
 434 0051 0C       		.byte	(.L41-.L39)/2
 435 0052 0E       		.byte	(.L40-.L39)/2
 436 0053 10       		.byte	(.L38-.L39)/2
 437              		.p2align 1
 438              	.L45:
 162:Bsp/Bsp_DMA.c ****     else if (dma == Bsp_DMA_2)
 439              		.loc 1 162 13 is_stmt 0 view .LVU112
 440 0054 3824     		movs	r4, #56
 441 0056 DEE7     		b	.L36
 442              	.L44:
 175:Bsp/Bsp_DMA.c ****             irq = DMA2_Stream2_IRQn;
 443              		.loc 1 175 13 is_stmt 1 view .LVU113
 444              	.LVL42:
 176:Bsp/Bsp_DMA.c ****             break;
 445              		.loc 1 176 13 view .LVU114
 175:Bsp/Bsp_DMA.c ****             irq = DMA2_Stream2_IRQn;
 446              		.loc 1 175 17 is_stmt 0 view .LVU115
 447 0058 3A24     		movs	r4, #58
 176:Bsp/Bsp_DMA.c ****             break;
 448              		.loc 1 176 13 view .LVU116
 449 005a DCE7     		b	.L36
 450              	.LVL43:
 451              	.L43:
 179:Bsp/Bsp_DMA.c ****             irq = DMA2_Stream3_IRQn;
 452              		.loc 1 179 13 is_stmt 1 view .LVU117
 180:Bsp/Bsp_DMA.c ****             break;
 453              		.loc 1 180 13 view .LVU118
 179:Bsp/Bsp_DMA.c ****             irq = DMA2_Stream3_IRQn;
 454              		.loc 1 179 17 is_stmt 0 view .LVU119
 455 005c 3B24     		movs	r4, #59
 180:Bsp/Bsp_DMA.c ****             break;
 456              		.loc 1 180 13 view .LVU120
 457 005e DAE7     		b	.L36
 458              	.LVL44:
 459              	.L42:
 183:Bsp/Bsp_DMA.c ****             irq = DMA2_Stream4_IRQn;
 460              		.loc 1 183 13 is_stmt 1 view .LVU121
 184:Bsp/Bsp_DMA.c ****             break;
 461              		.loc 1 184 13 view .LVU122
 183:Bsp/Bsp_DMA.c ****             irq = DMA2_Stream4_IRQn;
 462              		.loc 1 183 17 is_stmt 0 view .LVU123
 463 0060 3C24     		movs	r4, #60
 184:Bsp/Bsp_DMA.c ****             break;
 464              		.loc 1 184 13 view .LVU124
 465 0062 D8E7     		b	.L36
 466              	.LVL45:
 467              	.L41:
 187:Bsp/Bsp_DMA.c ****             irq = DMA2_Stream5_IRQn;
 468              		.loc 1 187 13 is_stmt 1 view .LVU125
 188:Bsp/Bsp_DMA.c ****             break;
 469              		.loc 1 188 13 view .LVU126
 187:Bsp/Bsp_DMA.c ****             irq = DMA2_Stream5_IRQn;
ARM GAS  /var/folders/lx/hc4sn_b53233_zkc9xbbl97r0000gp/T//cc1QjFxR.s 			page 14


 470              		.loc 1 187 17 is_stmt 0 view .LVU127
 471 0064 4424     		movs	r4, #68
 188:Bsp/Bsp_DMA.c ****             break;
 472              		.loc 1 188 13 view .LVU128
 473 0066 D6E7     		b	.L36
 474              	.LVL46:
 475              	.L40:
 191:Bsp/Bsp_DMA.c ****             irq = DMA2_Stream6_IRQn;
 476              		.loc 1 191 13 is_stmt 1 view .LVU129
 192:Bsp/Bsp_DMA.c ****             break;
 477              		.loc 1 192 13 view .LVU130
 191:Bsp/Bsp_DMA.c ****             irq = DMA2_Stream6_IRQn;
 478              		.loc 1 191 17 is_stmt 0 view .LVU131
 479 0068 4524     		movs	r4, #69
 192:Bsp/Bsp_DMA.c ****             break;
 480              		.loc 1 192 13 view .LVU132
 481 006a D4E7     		b	.L36
 482              	.LVL47:
 483              	.L38:
 195:Bsp/Bsp_DMA.c ****             irq = DMA2_Stream7_IRQn;
 484              		.loc 1 195 13 is_stmt 1 view .LVU133
 196:Bsp/Bsp_DMA.c ****             break;
 485              		.loc 1 196 13 view .LVU134
 195:Bsp/Bsp_DMA.c ****             irq = DMA2_Stream7_IRQn;
 486              		.loc 1 195 17 is_stmt 0 view .LVU135
 487 006c 4624     		movs	r4, #70
 196:Bsp/Bsp_DMA.c ****             break;
 488              		.loc 1 196 13 view .LVU136
 489 006e D2E7     		b	.L36
 490              	.LVL48:
 491              	.L46:
 131:Bsp/Bsp_DMA.c ****             irq = DMA1_Stream1_IRQn;
 492              		.loc 1 131 17 view .LVU137
 493 0070 0C24     		movs	r4, #12
 494 0072 D0E7     		b	.L36
 495              	.L47:
 171:Bsp/Bsp_DMA.c ****             irq = DMA2_Stream1_IRQn;
 496              		.loc 1 171 17 view .LVU138
 497 0074 3924     		movs	r4, #57
 498 0076 CEE7     		b	.L36
 499              		.cfi_endproc
 500              	.LFE148:
 502              		.global	BspDMA
 503              		.section	.bss.BspDMA_Map,"aw",%nobits
 504              		.align	2
 505              		.set	.LANCHOR2,. + 0
 508              	BspDMA_Map:
 509 0000 00000000 		.space	64
 509      00000000 
 509      00000000 
 509      00000000 
 509      00000000 
 510              		.section	.data.BspDMA,"aw"
 511              		.align	2
 514              	BspDMA:
 515 0000 00000000 		.word	BspDMA_Regist_Obj
 516 0004 00000000 		.word	BspDMA_Unregist_Obj
ARM GAS  /var/folders/lx/hc4sn_b53233_zkc9xbbl97r0000gp/T//cc1QjFxR.s 			page 15


 517 0008 00000000 		.word	BspDMA_Get_Handle
 518 000c 00000000 		.word	BspDMA_Get_Instance
 519 0010 00000000 		.word	BspDMA_EnableIRQ
 520              		.section	.rodata.BspDMA1_Instance_List,"a"
 521              		.align	2
 522              		.set	.LANCHOR0,. + 0
 525              	BspDMA1_Instance_List:
 526 0000 10000240 		.word	1073872912
 527 0004 28000240 		.word	1073872936
 528 0008 40000240 		.word	1073872960
 529 000c 58000240 		.word	1073872984
 530 0010 70000240 		.word	1073873008
 531 0014 88000240 		.word	1073873032
 532 0018 A0000240 		.word	1073873056
 533 001c B8000240 		.word	1073873080
 534              		.section	.rodata.BspDMA2_Instance_List,"a"
 535              		.align	2
 536              		.set	.LANCHOR1,. + 0
 539              	BspDMA2_Instance_List:
 540 0000 10040240 		.word	1073873936
 541 0004 28040240 		.word	1073873960
 542 0008 40040240 		.word	1073873984
 543 000c 58040240 		.word	1073874008
 544 0010 70040240 		.word	1073874032
 545 0014 88040240 		.word	1073874056
 546 0018 A0040240 		.word	1073874080
 547 001c B8040240 		.word	1073874104
 548              		.text
 549              	.Letext0:
 550              		.file 2 "HAL_Lib/CMSIS/Device/ST/STM32H7xx/Include/stm32h743xx.h"
 551              		.file 3 "/usr/local/arm-none-eabi-gcc/gcc-arm-none-eabi-10-2020-q4-major/arm-none-eabi/include/mac
 552              		.file 4 "/usr/local/arm-none-eabi-gcc/gcc-arm-none-eabi-10-2020-q4-major/arm-none-eabi/include/sys
 553              		.file 5 "HAL_Lib/STM32H7xx_HAL_Driver/Inc/stm32h7xx_hal_def.h"
 554              		.file 6 "HAL_Lib/STM32H7xx_HAL_Driver/Inc/stm32h7xx_hal_dma.h"
 555              		.file 7 "Bsp/Bsp_DMA.h"
 556              		.file 8 "HAL_Lib/STM32H7xx_HAL_Driver/Inc/stm32h7xx_hal_cortex.h"
ARM GAS  /var/folders/lx/hc4sn_b53233_zkc9xbbl97r0000gp/T//cc1QjFxR.s 			page 16

