ARM GAS  C:\Users\8bit\AppData\Local\Temp\cccZxcPc.s 			page 1


   1              		.cpu cortex-m4
   2              		.arch armv7e-m
   3              		.fpu fpv4-sp-d16
   4              		.eabi_attribute 27, 1
   5              		.eabi_attribute 28, 1
   6              		.eabi_attribute 20, 1
   7              		.eabi_attribute 21, 1
   8              		.eabi_attribute 23, 3
   9              		.eabi_attribute 24, 1
  10              		.eabi_attribute 25, 1
  11              		.eabi_attribute 26, 1
  12              		.eabi_attribute 30, 1
  13              		.eabi_attribute 34, 1
  14              		.eabi_attribute 18, 4
  15              		.file	"Bsp_DMA.c"
  16              		.text
  17              	.Ltext0:
  18              		.cfi_sections	.debug_frame
  19              		.section	.text.BspDMA_Regist_Obj,"ax",%progbits
  20              		.align	1
  21              		.syntax unified
  22              		.thumb
  23              		.thumb_func
  25              	BspDMA_Regist_Obj:
  26              	.LVL0:
  27              	.LFB133:
  28              		.file 1 "HW_Lib/AT32F435/bsp/Bsp_DMA.c"
   1:HW_Lib/AT32F435/bsp/Bsp_DMA.c **** #include "Bsp_DMA.h"
   2:HW_Lib/AT32F435/bsp/Bsp_DMA.c **** #include "at32f435_437_dma.h"
   3:HW_Lib/AT32F435/bsp/Bsp_DMA.c **** 
   4:HW_Lib/AT32F435/bsp/Bsp_DMA.c **** static BspDMA_IrqCall_Obj_TypeDef* BspDMA1_Irq_Callback_List[Bsp_DMA_Stream_Sum] = {NULL};
   5:HW_Lib/AT32F435/bsp/Bsp_DMA.c **** static BspDMA_IrqCall_Obj_TypeDef* BspDMA2_Irq_Callback_List[Bsp_DMA_Stream_Sum] = {NULL};
   6:HW_Lib/AT32F435/bsp/Bsp_DMA.c **** 
   7:HW_Lib/AT32F435/bsp/Bsp_DMA.c **** static const dma_channel_type* BspDMA1_Instance_List[Bsp_DMA_Stream_Sum] = {
   8:HW_Lib/AT32F435/bsp/Bsp_DMA.c ****     DMA1_CHANNEL1,
   9:HW_Lib/AT32F435/bsp/Bsp_DMA.c ****     DMA1_CHANNEL2,
  10:HW_Lib/AT32F435/bsp/Bsp_DMA.c ****     DMA1_CHANNEL3,
  11:HW_Lib/AT32F435/bsp/Bsp_DMA.c ****     DMA1_CHANNEL4,
  12:HW_Lib/AT32F435/bsp/Bsp_DMA.c ****     DMA1_CHANNEL5,
  13:HW_Lib/AT32F435/bsp/Bsp_DMA.c ****     DMA1_CHANNEL6,
  14:HW_Lib/AT32F435/bsp/Bsp_DMA.c ****     DMA1_CHANNEL7};
  15:HW_Lib/AT32F435/bsp/Bsp_DMA.c **** 
  16:HW_Lib/AT32F435/bsp/Bsp_DMA.c **** static const dma_channel_type* BspDMA2_Instance_List[Bsp_DMA_Stream_Sum] = {
  17:HW_Lib/AT32F435/bsp/Bsp_DMA.c ****     DMA2_CHANNEL1,
  18:HW_Lib/AT32F435/bsp/Bsp_DMA.c ****     DMA2_CHANNEL2,
  19:HW_Lib/AT32F435/bsp/Bsp_DMA.c ****     DMA2_CHANNEL3,
  20:HW_Lib/AT32F435/bsp/Bsp_DMA.c ****     DMA2_CHANNEL4,
  21:HW_Lib/AT32F435/bsp/Bsp_DMA.c ****     DMA2_CHANNEL5,
  22:HW_Lib/AT32F435/bsp/Bsp_DMA.c ****     DMA2_CHANNEL6,
  23:HW_Lib/AT32F435/bsp/Bsp_DMA.c ****     DMA2_CHANNEL7};
  24:HW_Lib/AT32F435/bsp/Bsp_DMA.c **** 
  25:HW_Lib/AT32F435/bsp/Bsp_DMA.c **** /* internal function */
  26:HW_Lib/AT32F435/bsp/Bsp_DMA.c **** static bool DataPipe_DMA_Init = false;
  27:HW_Lib/AT32F435/bsp/Bsp_DMA.c **** static bool Dma_Clock_Init = false;
  28:HW_Lib/AT32F435/bsp/Bsp_DMA.c **** static BspDMA_Pipe_TransFin_Cb DataPipe_Trans_Fin_Callback = NULL;
  29:HW_Lib/AT32F435/bsp/Bsp_DMA.c **** static BspDMA_Pipe_TransErr_Cb DataPipe_Trans_Err_Callback = NULL;
  30:HW_Lib/AT32F435/bsp/Bsp_DMA.c **** 
ARM GAS  C:\Users\8bit\AppData\Local\Temp\cccZxcPc.s 			page 2


  31:HW_Lib/AT32F435/bsp/Bsp_DMA.c **** /* external funtion */
  32:HW_Lib/AT32F435/bsp/Bsp_DMA.c **** static bool BspDMA_Regist_Obj(BspDMA_List dma, BspDMA_Stream_List stream, void *hdl);
  33:HW_Lib/AT32F435/bsp/Bsp_DMA.c **** static bool BspDMA_Unregist_Obj(BspDMA_List dma, BspDMA_Stream_List stream);
  34:HW_Lib/AT32F435/bsp/Bsp_DMA.c **** static void *BspDMA_Get_Handle(BspDMA_List dma, BspDMA_Stream_List stream);
  35:HW_Lib/AT32F435/bsp/Bsp_DMA.c **** static dma_channel_type *BspDMA_Get_Instance(BspDMA_List dma, BspDMA_Stream_List stream);
  36:HW_Lib/AT32F435/bsp/Bsp_DMA.c **** static bool BspDMA_DisableIRQ(BspDMA_List dma, BspDMA_Stream_List stream);
  37:HW_Lib/AT32F435/bsp/Bsp_DMA.c **** static void BspDMA_EnableIRQ(BspDMA_List dma, BspDMA_Stream_List stream, uint32_t preempt, uint32_t
  38:HW_Lib/AT32F435/bsp/Bsp_DMA.c **** static void *BspDMA_Get_Channel_Instance(int8_t dma, int8_t stream);
  39:HW_Lib/AT32F435/bsp/Bsp_DMA.c **** 
  40:HW_Lib/AT32F435/bsp/Bsp_DMA.c **** /* pipe external function */
  41:HW_Lib/AT32F435/bsp/Bsp_DMA.c **** static bool BspDMA_Pipe_DeInit(void);
  42:HW_Lib/AT32F435/bsp/Bsp_DMA.c **** static bool BspDMA_Pipe_Init(BspDMA_Pipe_TransFin_Cb fin_cb, BspDMA_Pipe_TransErr_Cb err_cb);
  43:HW_Lib/AT32F435/bsp/Bsp_DMA.c **** static bool BspDMA_Pipe_Trans(uint32_t SrcAddress, uint32_t DstAddress, uint32_t DataLength);
  44:HW_Lib/AT32F435/bsp/Bsp_DMA.c **** static void *BspDMA_Get_Pipe_Handle(void);
  45:HW_Lib/AT32F435/bsp/Bsp_DMA.c **** 
  46:HW_Lib/AT32F435/bsp/Bsp_DMA.c **** BspDMA_TypeDef BspDMA = {
  47:HW_Lib/AT32F435/bsp/Bsp_DMA.c ****     .regist = BspDMA_Regist_Obj,
  48:HW_Lib/AT32F435/bsp/Bsp_DMA.c ****     .unregist = BspDMA_Unregist_Obj,
  49:HW_Lib/AT32F435/bsp/Bsp_DMA.c ****     .get_handle = BspDMA_Get_Handle,
  50:HW_Lib/AT32F435/bsp/Bsp_DMA.c ****     .get_instance = BspDMA_Get_Instance,
  51:HW_Lib/AT32F435/bsp/Bsp_DMA.c ****     .enable_irq = BspDMA_EnableIRQ,
  52:HW_Lib/AT32F435/bsp/Bsp_DMA.c ****     .disable_irq = BspDMA_DisableIRQ,
  53:HW_Lib/AT32F435/bsp/Bsp_DMA.c ****     .get_channel_instance = BspDMA_Get_Channel_Instance,
  54:HW_Lib/AT32F435/bsp/Bsp_DMA.c **** };
  55:HW_Lib/AT32F435/bsp/Bsp_DMA.c **** 
  56:HW_Lib/AT32F435/bsp/Bsp_DMA.c **** BspDMA_Pipe_TypeDef BspDMA_Pipe = {
  57:HW_Lib/AT32F435/bsp/Bsp_DMA.c ****     .init = BspDMA_Pipe_Init,
  58:HW_Lib/AT32F435/bsp/Bsp_DMA.c ****     .de_init = BspDMA_Pipe_DeInit,
  59:HW_Lib/AT32F435/bsp/Bsp_DMA.c ****     .trans = BspDMA_Pipe_Trans,
  60:HW_Lib/AT32F435/bsp/Bsp_DMA.c ****     .get_hanle = BspDMA_Get_Pipe_Handle,
  61:HW_Lib/AT32F435/bsp/Bsp_DMA.c **** };
  62:HW_Lib/AT32F435/bsp/Bsp_DMA.c **** 
  63:HW_Lib/AT32F435/bsp/Bsp_DMA.c **** static bool BspDMA_Regist_Obj(BspDMA_List dma, BspDMA_Stream_List stream, void *hdl)
  64:HW_Lib/AT32F435/bsp/Bsp_DMA.c **** {
  29              		.loc 1 64 1 view -0
  30              		.cfi_startproc
  31              		@ args = 0, pretend = 0, frame = 0
  32              		@ frame_needed = 0, uses_anonymous_args = 0
  33              		@ link register save eliminated.
  65:HW_Lib/AT32F435/bsp/Bsp_DMA.c ****     UNUSED(dma);
  34              		.loc 1 65 5 view .LVU1
  66:HW_Lib/AT32F435/bsp/Bsp_DMA.c ****     UNUSED(stream);
  35              		.loc 1 66 5 view .LVU2
  67:HW_Lib/AT32F435/bsp/Bsp_DMA.c ****     UNUSED(hdl);
  36              		.loc 1 67 5 view .LVU3
  68:HW_Lib/AT32F435/bsp/Bsp_DMA.c **** 
  69:HW_Lib/AT32F435/bsp/Bsp_DMA.c ****     return true;
  37              		.loc 1 69 5 view .LVU4
  70:HW_Lib/AT32F435/bsp/Bsp_DMA.c **** }
  38              		.loc 1 70 1 is_stmt 0 view .LVU5
  39 0000 0120     		movs	r0, #1
  40              	.LVL1:
  41              		.loc 1 70 1 view .LVU6
  42 0002 7047     		bx	lr
  43              		.cfi_endproc
  44              	.LFE133:
  46              		.section	.text.BspDMA_Unregist_Obj,"ax",%progbits
ARM GAS  C:\Users\8bit\AppData\Local\Temp\cccZxcPc.s 			page 3


  47              		.align	1
  48              		.syntax unified
  49              		.thumb
  50              		.thumb_func
  52              	BspDMA_Unregist_Obj:
  53              	.LVL2:
  54              	.LFB134:
  71:HW_Lib/AT32F435/bsp/Bsp_DMA.c **** 
  72:HW_Lib/AT32F435/bsp/Bsp_DMA.c **** static bool BspDMA_Unregist_Obj(BspDMA_List dma, BspDMA_Stream_List stream)
  73:HW_Lib/AT32F435/bsp/Bsp_DMA.c **** {
  55              		.loc 1 73 1 is_stmt 1 view -0
  56              		.cfi_startproc
  57              		@ args = 0, pretend = 0, frame = 0
  58              		@ frame_needed = 0, uses_anonymous_args = 0
  59              		@ link register save eliminated.
  74:HW_Lib/AT32F435/bsp/Bsp_DMA.c ****     UNUSED(dma);
  60              		.loc 1 74 5 view .LVU8
  75:HW_Lib/AT32F435/bsp/Bsp_DMA.c ****     UNUSED(stream);
  61              		.loc 1 75 5 view .LVU9
  76:HW_Lib/AT32F435/bsp/Bsp_DMA.c ****     
  77:HW_Lib/AT32F435/bsp/Bsp_DMA.c ****     return true;
  62              		.loc 1 77 5 view .LVU10
  78:HW_Lib/AT32F435/bsp/Bsp_DMA.c **** }
  63              		.loc 1 78 1 is_stmt 0 view .LVU11
  64 0000 0120     		movs	r0, #1
  65              	.LVL3:
  66              		.loc 1 78 1 view .LVU12
  67 0002 7047     		bx	lr
  68              		.cfi_endproc
  69              	.LFE134:
  71              		.section	.text.BspDMA_Get_Channel_Instance,"ax",%progbits
  72              		.align	1
  73              		.syntax unified
  74              		.thumb
  75              		.thumb_func
  77              	BspDMA_Get_Channel_Instance:
  78              	.LVL4:
  79              	.LFB135:
  79:HW_Lib/AT32F435/bsp/Bsp_DMA.c **** 
  80:HW_Lib/AT32F435/bsp/Bsp_DMA.c **** static void* BspDMA_Get_Channel_Instance(int8_t dma, int8_t stream)
  81:HW_Lib/AT32F435/bsp/Bsp_DMA.c **** {
  80              		.loc 1 81 1 is_stmt 1 view -0
  81              		.cfi_startproc
  82              		@ args = 0, pretend = 0, frame = 0
  83              		@ frame_needed = 0, uses_anonymous_args = 0
  84              		@ link register save eliminated.
  82:HW_Lib/AT32F435/bsp/Bsp_DMA.c ****     if ((dma == Bsp_DMA_None) && \
  85              		.loc 1 82 5 view .LVU14
  83:HW_Lib/AT32F435/bsp/Bsp_DMA.c ****         (dma == Bsp_DMA_Sum) && \
  84:HW_Lib/AT32F435/bsp/Bsp_DMA.c ****         (stream == Bsp_DMA_Stream_None) && \
  85:HW_Lib/AT32F435/bsp/Bsp_DMA.c ****         (stream == Bsp_DMA_Stream_Sum))
  86:HW_Lib/AT32F435/bsp/Bsp_DMA.c ****         return 0;
  87:HW_Lib/AT32F435/bsp/Bsp_DMA.c ****     
  88:HW_Lib/AT32F435/bsp/Bsp_DMA.c ****     if (dma == Bsp_DMA_1)
  86              		.loc 1 88 5 view .LVU15
  87              		.loc 1 88 8 is_stmt 0 view .LVU16
  88 0000 A8B9     		cbnz	r0, .L4
ARM GAS  C:\Users\8bit\AppData\Local\Temp\cccZxcPc.s 			page 4


  89:HW_Lib/AT32F435/bsp/Bsp_DMA.c ****     {
  90:HW_Lib/AT32F435/bsp/Bsp_DMA.c ****         switch (stream)
  89              		.loc 1 90 9 is_stmt 1 view .LVU17
  90 0002 0629     		cmp	r1, #6
  91 0004 11D8     		bhi	.L5
  92 0006 DFE801F0 		tbb	[pc, r1]
  93              	.L7:
  94 000a 04       		.byte	(.L13-.L7)/2
  95 000b 27       		.byte	(.L21-.L7)/2
  96 000c 06       		.byte	(.L11-.L7)/2
  97 000d 08       		.byte	(.L10-.L7)/2
  98 000e 0A       		.byte	(.L9-.L7)/2
  99 000f 0C       		.byte	(.L8-.L7)/2
 100 0010 0E       		.byte	(.L6-.L7)/2
 101 0011 00       		.p2align 1
 102              	.L13:
 103 0012 1448     		ldr	r0, .L24
 104              	.LVL5:
 105              		.loc 1 90 9 is_stmt 0 view .LVU18
 106 0014 7047     		bx	lr
 107              	.LVL6:
 108              	.L11:
  91:HW_Lib/AT32F435/bsp/Bsp_DMA.c ****         {
  92:HW_Lib/AT32F435/bsp/Bsp_DMA.c ****             case Bsp_DMA_Stream_1:
  93:HW_Lib/AT32F435/bsp/Bsp_DMA.c ****                 return DMA1_CHANNEL1;
  94:HW_Lib/AT32F435/bsp/Bsp_DMA.c **** 
  95:HW_Lib/AT32F435/bsp/Bsp_DMA.c ****             case Bsp_DMA_Stream_2:
  96:HW_Lib/AT32F435/bsp/Bsp_DMA.c ****                 return DMA1_CHANNEL2;
  97:HW_Lib/AT32F435/bsp/Bsp_DMA.c ****             
  98:HW_Lib/AT32F435/bsp/Bsp_DMA.c ****             case Bsp_DMA_Stream_3:
  99:HW_Lib/AT32F435/bsp/Bsp_DMA.c ****                 return DMA1_CHANNEL3;
 109              		.loc 1 99 17 is_stmt 1 view .LVU19
 110              		.loc 1 99 24 is_stmt 0 view .LVU20
 111 0016 1448     		ldr	r0, .L24+4
 112              	.LVL7:
 113              		.loc 1 99 24 view .LVU21
 114 0018 7047     		bx	lr
 115              	.LVL8:
 116              	.L10:
 100:HW_Lib/AT32F435/bsp/Bsp_DMA.c **** 
 101:HW_Lib/AT32F435/bsp/Bsp_DMA.c ****             case Bsp_DMA_Stream_4:
 102:HW_Lib/AT32F435/bsp/Bsp_DMA.c ****                 return DMA1_CHANNEL4;
 117              		.loc 1 102 17 is_stmt 1 view .LVU22
 118              		.loc 1 102 24 is_stmt 0 view .LVU23
 119 001a 1448     		ldr	r0, .L24+8
 120              	.LVL9:
 121              		.loc 1 102 24 view .LVU24
 122 001c 7047     		bx	lr
 123              	.LVL10:
 124              	.L9:
 103:HW_Lib/AT32F435/bsp/Bsp_DMA.c **** 
 104:HW_Lib/AT32F435/bsp/Bsp_DMA.c ****             case Bsp_DMA_Stream_5:
 105:HW_Lib/AT32F435/bsp/Bsp_DMA.c ****                 return DMA1_CHANNEL5;
 125              		.loc 1 105 17 is_stmt 1 view .LVU25
 126              		.loc 1 105 24 is_stmt 0 view .LVU26
 127 001e 1448     		ldr	r0, .L24+12
 128              	.LVL11:
ARM GAS  C:\Users\8bit\AppData\Local\Temp\cccZxcPc.s 			page 5


 129              		.loc 1 105 24 view .LVU27
 130 0020 7047     		bx	lr
 131              	.LVL12:
 132              	.L8:
 106:HW_Lib/AT32F435/bsp/Bsp_DMA.c **** 
 107:HW_Lib/AT32F435/bsp/Bsp_DMA.c ****             case Bsp_DMA_Stream_6:
 108:HW_Lib/AT32F435/bsp/Bsp_DMA.c ****                 return DMA1_CHANNEL6;
 133              		.loc 1 108 17 is_stmt 1 view .LVU28
 134              		.loc 1 108 24 is_stmt 0 view .LVU29
 135 0022 1448     		ldr	r0, .L24+16
 136              	.LVL13:
 137              		.loc 1 108 24 view .LVU30
 138 0024 7047     		bx	lr
 139              	.LVL14:
 140              	.L6:
 109:HW_Lib/AT32F435/bsp/Bsp_DMA.c **** 
 110:HW_Lib/AT32F435/bsp/Bsp_DMA.c ****             case Bsp_DMA_Stream_7:
 111:HW_Lib/AT32F435/bsp/Bsp_DMA.c ****                 return DMA1_CHANNEL7;
 141              		.loc 1 111 17 is_stmt 1 view .LVU31
 142              		.loc 1 111 24 is_stmt 0 view .LVU32
 143 0026 1448     		ldr	r0, .L24+20
 144              	.LVL15:
 145              		.loc 1 111 24 view .LVU33
 146 0028 7047     		bx	lr
 147              	.LVL16:
 148              	.L5:
 112:HW_Lib/AT32F435/bsp/Bsp_DMA.c **** 
 113:HW_Lib/AT32F435/bsp/Bsp_DMA.c ****             default:
 114:HW_Lib/AT32F435/bsp/Bsp_DMA.c ****                 return 0;
 149              		.loc 1 114 17 is_stmt 1 view .LVU34
 150              		.loc 1 114 24 is_stmt 0 view .LVU35
 151 002a 0020     		movs	r0, #0
 152              	.LVL17:
 153              		.loc 1 114 24 view .LVU36
 154 002c 7047     		bx	lr
 155              	.LVL18:
 156              	.L4:
 115:HW_Lib/AT32F435/bsp/Bsp_DMA.c ****         }
 116:HW_Lib/AT32F435/bsp/Bsp_DMA.c ****     }
 117:HW_Lib/AT32F435/bsp/Bsp_DMA.c ****     else if (dma == Bsp_DMA_2)
 157              		.loc 1 117 10 is_stmt 1 view .LVU37
 158              		.loc 1 117 13 is_stmt 0 view .LVU38
 159 002e 0128     		cmp	r0, #1
 160 0030 14D1     		bne	.L22
 118:HW_Lib/AT32F435/bsp/Bsp_DMA.c ****     {
 119:HW_Lib/AT32F435/bsp/Bsp_DMA.c ****         switch (stream)
 161              		.loc 1 119 9 is_stmt 1 view .LVU39
 162 0032 0529     		cmp	r1, #5
 163 0034 0ED8     		bhi	.L14
 164 0036 DFE801F0 		tbb	[pc, r1]
 165              	.L16:
 166 003a 03       		.byte	(.L20-.L16)/2
 167 003b 13       		.byte	(.L23-.L16)/2
 168 003c 05       		.byte	(.L19-.L16)/2
 169 003d 07       		.byte	(.L18-.L16)/2
 170 003e 09       		.byte	(.L17-.L16)/2
 171 003f 0B       		.byte	(.L15-.L16)/2
ARM GAS  C:\Users\8bit\AppData\Local\Temp\cccZxcPc.s 			page 6


 172              		.p2align 1
 173              	.L20:
 174 0040 0E48     		ldr	r0, .L24+24
 175              	.LVL19:
 176              		.loc 1 119 9 is_stmt 0 view .LVU40
 177 0042 7047     		bx	lr
 178              	.LVL20:
 179              	.L19:
 120:HW_Lib/AT32F435/bsp/Bsp_DMA.c ****         {
 121:HW_Lib/AT32F435/bsp/Bsp_DMA.c ****             case Bsp_DMA_Stream_1:
 122:HW_Lib/AT32F435/bsp/Bsp_DMA.c ****                 return DMA2_CHANNEL1;
 123:HW_Lib/AT32F435/bsp/Bsp_DMA.c **** 
 124:HW_Lib/AT32F435/bsp/Bsp_DMA.c ****             case Bsp_DMA_Stream_2:
 125:HW_Lib/AT32F435/bsp/Bsp_DMA.c ****                 return DMA2_CHANNEL2;
 126:HW_Lib/AT32F435/bsp/Bsp_DMA.c ****             
 127:HW_Lib/AT32F435/bsp/Bsp_DMA.c ****             case Bsp_DMA_Stream_3:
 128:HW_Lib/AT32F435/bsp/Bsp_DMA.c ****                 return DMA2_CHANNEL3;
 180              		.loc 1 128 17 is_stmt 1 view .LVU41
 181              		.loc 1 128 24 is_stmt 0 view .LVU42
 182 0044 0E48     		ldr	r0, .L24+28
 183              	.LVL21:
 184              		.loc 1 128 24 view .LVU43
 185 0046 7047     		bx	lr
 186              	.LVL22:
 187              	.L18:
 129:HW_Lib/AT32F435/bsp/Bsp_DMA.c **** 
 130:HW_Lib/AT32F435/bsp/Bsp_DMA.c ****             case Bsp_DMA_Stream_4:
 131:HW_Lib/AT32F435/bsp/Bsp_DMA.c ****                 return DMA2_CHANNEL4;
 188              		.loc 1 131 17 is_stmt 1 view .LVU44
 189              		.loc 1 131 24 is_stmt 0 view .LVU45
 190 0048 0E48     		ldr	r0, .L24+32
 191              	.LVL23:
 192              		.loc 1 131 24 view .LVU46
 193 004a 7047     		bx	lr
 194              	.LVL24:
 195              	.L17:
 132:HW_Lib/AT32F435/bsp/Bsp_DMA.c **** 
 133:HW_Lib/AT32F435/bsp/Bsp_DMA.c ****             case Bsp_DMA_Stream_5:
 134:HW_Lib/AT32F435/bsp/Bsp_DMA.c ****                 return DMA2_CHANNEL5;
 196              		.loc 1 134 17 is_stmt 1 view .LVU47
 197              		.loc 1 134 24 is_stmt 0 view .LVU48
 198 004c 0E48     		ldr	r0, .L24+36
 199              	.LVL25:
 200              		.loc 1 134 24 view .LVU49
 201 004e 7047     		bx	lr
 202              	.LVL26:
 203              	.L15:
 135:HW_Lib/AT32F435/bsp/Bsp_DMA.c **** 
 136:HW_Lib/AT32F435/bsp/Bsp_DMA.c ****             case Bsp_DMA_Stream_6:
 137:HW_Lib/AT32F435/bsp/Bsp_DMA.c ****                 return DMA2_CHANNEL6;
 204              		.loc 1 137 17 is_stmt 1 view .LVU50
 205              		.loc 1 137 24 is_stmt 0 view .LVU51
 206 0050 0E48     		ldr	r0, .L24+40
 207              	.LVL27:
 208              		.loc 1 137 24 view .LVU52
 209 0052 7047     		bx	lr
 210              	.LVL28:
ARM GAS  C:\Users\8bit\AppData\Local\Temp\cccZxcPc.s 			page 7


 211              	.L14:
 138:HW_Lib/AT32F435/bsp/Bsp_DMA.c **** 
 139:HW_Lib/AT32F435/bsp/Bsp_DMA.c ****             case Bsp_DMA_Stream_7:
 140:HW_Lib/AT32F435/bsp/Bsp_DMA.c ****             default:
 141:HW_Lib/AT32F435/bsp/Bsp_DMA.c ****                 return 0;
 212              		.loc 1 141 17 is_stmt 1 view .LVU53
 213              		.loc 1 141 24 is_stmt 0 view .LVU54
 214 0054 0020     		movs	r0, #0
 215              	.LVL29:
 216              		.loc 1 141 24 view .LVU55
 217 0056 7047     		bx	lr
 218              	.LVL30:
 219              	.L21:
  96:HW_Lib/AT32F435/bsp/Bsp_DMA.c ****             
 220              		.loc 1 96 24 view .LVU56
 221 0058 0D48     		ldr	r0, .L24+44
 222              	.LVL31:
  96:HW_Lib/AT32F435/bsp/Bsp_DMA.c ****             
 223              		.loc 1 96 24 view .LVU57
 224 005a 7047     		bx	lr
 225              	.LVL32:
 226              	.L22:
 142:HW_Lib/AT32F435/bsp/Bsp_DMA.c ****         }
 143:HW_Lib/AT32F435/bsp/Bsp_DMA.c ****     }
 144:HW_Lib/AT32F435/bsp/Bsp_DMA.c **** 
 145:HW_Lib/AT32F435/bsp/Bsp_DMA.c ****     return 0;
 227              		.loc 1 145 12 view .LVU58
 228 005c 0020     		movs	r0, #0
 229              	.LVL33:
 230              		.loc 1 145 12 view .LVU59
 231 005e 7047     		bx	lr
 232              	.LVL34:
 233              	.L23:
 125:HW_Lib/AT32F435/bsp/Bsp_DMA.c ****             
 234              		.loc 1 125 24 view .LVU60
 235 0060 0C48     		ldr	r0, .L24+48
 236              	.LVL35:
 146:HW_Lib/AT32F435/bsp/Bsp_DMA.c **** }
 237              		.loc 1 146 1 view .LVU61
 238 0062 7047     		bx	lr
 239              	.L25:
 240              		.align	2
 241              	.L24:
 242 0064 08640240 		.word	1073898504
 243 0068 30640240 		.word	1073898544
 244 006c 44640240 		.word	1073898564
 245 0070 58640240 		.word	1073898584
 246 0074 6C640240 		.word	1073898604
 247 0078 80640240 		.word	1073898624
 248 007c 08660240 		.word	1073899016
 249 0080 30660240 		.word	1073899056
 250 0084 44660240 		.word	1073899076
 251 0088 58660240 		.word	1073899096
 252 008c 6C660240 		.word	1073899116
 253 0090 1C640240 		.word	1073898524
 254 0094 1C660240 		.word	1073899036
 255              		.cfi_endproc
ARM GAS  C:\Users\8bit\AppData\Local\Temp\cccZxcPc.s 			page 8


 256              	.LFE135:
 258              		.section	.text.BspDMA_Get_Handle,"ax",%progbits
 259              		.align	1
 260              		.syntax unified
 261              		.thumb
 262              		.thumb_func
 264              	BspDMA_Get_Handle:
 265              	.LVL36:
 266              	.LFB136:
 147:HW_Lib/AT32F435/bsp/Bsp_DMA.c **** 
 148:HW_Lib/AT32F435/bsp/Bsp_DMA.c **** static void *BspDMA_Get_Handle(BspDMA_List dma, BspDMA_Stream_List stream)
 149:HW_Lib/AT32F435/bsp/Bsp_DMA.c **** {
 267              		.loc 1 149 1 is_stmt 1 view -0
 268              		.cfi_startproc
 269              		@ args = 0, pretend = 0, frame = 0
 270              		@ frame_needed = 0, uses_anonymous_args = 0
 271              		@ link register save eliminated.
 150:HW_Lib/AT32F435/bsp/Bsp_DMA.c ****     UNUSED(dma);
 272              		.loc 1 150 5 view .LVU63
 151:HW_Lib/AT32F435/bsp/Bsp_DMA.c ****     UNUSED(stream);
 273              		.loc 1 151 5 view .LVU64
 152:HW_Lib/AT32F435/bsp/Bsp_DMA.c **** 
 153:HW_Lib/AT32F435/bsp/Bsp_DMA.c ****     return NULL;
 274              		.loc 1 153 5 view .LVU65
 154:HW_Lib/AT32F435/bsp/Bsp_DMA.c **** }
 275              		.loc 1 154 1 is_stmt 0 view .LVU66
 276 0000 0020     		movs	r0, #0
 277              	.LVL37:
 278              		.loc 1 154 1 view .LVU67
 279 0002 7047     		bx	lr
 280              		.cfi_endproc
 281              	.LFE136:
 283              		.section	.text.BspDMA_Get_Pipe_Handle,"ax",%progbits
 284              		.align	1
 285              		.syntax unified
 286              		.thumb
 287              		.thumb_func
 289              	BspDMA_Get_Pipe_Handle:
 290              	.LFB143:
 155:HW_Lib/AT32F435/bsp/Bsp_DMA.c **** 
 156:HW_Lib/AT32F435/bsp/Bsp_DMA.c **** static dma_channel_type *BspDMA_Get_Instance(BspDMA_List dma, BspDMA_Stream_List stream)
 157:HW_Lib/AT32F435/bsp/Bsp_DMA.c **** {
 158:HW_Lib/AT32F435/bsp/Bsp_DMA.c ****     static bool dma1_enable = false;
 159:HW_Lib/AT32F435/bsp/Bsp_DMA.c ****     static bool dma2_enable = false;
 160:HW_Lib/AT32F435/bsp/Bsp_DMA.c **** 
 161:HW_Lib/AT32F435/bsp/Bsp_DMA.c ****     if ((dma < Bsp_DMA_1) || (stream < Bsp_DMA_Stream_1))
 162:HW_Lib/AT32F435/bsp/Bsp_DMA.c ****         return NULL;
 163:HW_Lib/AT32F435/bsp/Bsp_DMA.c **** 
 164:HW_Lib/AT32F435/bsp/Bsp_DMA.c ****     /* enable dma1 clock */
 165:HW_Lib/AT32F435/bsp/Bsp_DMA.c ****     if (!Dma_Clock_Init)
 166:HW_Lib/AT32F435/bsp/Bsp_DMA.c ****     {
 167:HW_Lib/AT32F435/bsp/Bsp_DMA.c ****         crm_periph_clock_enable(CRM_DMA2_PERIPH_CLOCK, TRUE);
 168:HW_Lib/AT32F435/bsp/Bsp_DMA.c ****         crm_periph_clock_enable(CRM_DMA1_PERIPH_CLOCK, TRUE);
 169:HW_Lib/AT32F435/bsp/Bsp_DMA.c ****         Dma_Clock_Init = true;
 170:HW_Lib/AT32F435/bsp/Bsp_DMA.c ****     }
 171:HW_Lib/AT32F435/bsp/Bsp_DMA.c **** 
 172:HW_Lib/AT32F435/bsp/Bsp_DMA.c ****     if ((dma == Bsp_DMA_1) && ((stream < Bsp_DMA_Stream_Sum) && (stream >= Bsp_DMA_Stream_1)))
ARM GAS  C:\Users\8bit\AppData\Local\Temp\cccZxcPc.s 			page 9


 173:HW_Lib/AT32F435/bsp/Bsp_DMA.c ****     {
 174:HW_Lib/AT32F435/bsp/Bsp_DMA.c ****         if (!dma1_enable)
 175:HW_Lib/AT32F435/bsp/Bsp_DMA.c ****         {
 176:HW_Lib/AT32F435/bsp/Bsp_DMA.c ****             // crm_periph_clock_enable(CRM_DMA1_PERIPH_CLOCK, TRUE);
 177:HW_Lib/AT32F435/bsp/Bsp_DMA.c ****             dmamux_enable(DMA1, TRUE);
 178:HW_Lib/AT32F435/bsp/Bsp_DMA.c ****             dma1_enable = true;
 179:HW_Lib/AT32F435/bsp/Bsp_DMA.c ****         }
 180:HW_Lib/AT32F435/bsp/Bsp_DMA.c **** 
 181:HW_Lib/AT32F435/bsp/Bsp_DMA.c ****         return (dma_channel_type *)BspDMA1_Instance_List[stream];
 182:HW_Lib/AT32F435/bsp/Bsp_DMA.c ****     }
 183:HW_Lib/AT32F435/bsp/Bsp_DMA.c ****     else if ((dma == Bsp_DMA_2) && ((stream < Bsp_DMA_Stream_7) && (stream >= Bsp_DMA_Stream_1)))
 184:HW_Lib/AT32F435/bsp/Bsp_DMA.c ****     {
 185:HW_Lib/AT32F435/bsp/Bsp_DMA.c ****         if (!dma2_enable)
 186:HW_Lib/AT32F435/bsp/Bsp_DMA.c ****         {
 187:HW_Lib/AT32F435/bsp/Bsp_DMA.c ****             // crm_periph_clock_enable(CRM_DMA2_PERIPH_CLOCK, TRUE);
 188:HW_Lib/AT32F435/bsp/Bsp_DMA.c ****             dmamux_enable(DMA2, TRUE);
 189:HW_Lib/AT32F435/bsp/Bsp_DMA.c ****             dma2_enable = true;
 190:HW_Lib/AT32F435/bsp/Bsp_DMA.c ****         }
 191:HW_Lib/AT32F435/bsp/Bsp_DMA.c **** 
 192:HW_Lib/AT32F435/bsp/Bsp_DMA.c ****         return (dma_channel_type *)BspDMA2_Instance_List[stream];
 193:HW_Lib/AT32F435/bsp/Bsp_DMA.c ****     }
 194:HW_Lib/AT32F435/bsp/Bsp_DMA.c **** 
 195:HW_Lib/AT32F435/bsp/Bsp_DMA.c ****     return NULL;
 196:HW_Lib/AT32F435/bsp/Bsp_DMA.c **** }
 197:HW_Lib/AT32F435/bsp/Bsp_DMA.c **** 
 198:HW_Lib/AT32F435/bsp/Bsp_DMA.c **** static bool BspDMA_DisableIRQ(BspDMA_List dma, BspDMA_Stream_List stream)
 199:HW_Lib/AT32F435/bsp/Bsp_DMA.c **** {
 200:HW_Lib/AT32F435/bsp/Bsp_DMA.c ****     IRQn_Type irq;
 201:HW_Lib/AT32F435/bsp/Bsp_DMA.c ****     dmamux_channel_type *dmamux = NULL;
 202:HW_Lib/AT32F435/bsp/Bsp_DMA.c ****     dma_channel_type *dma_ch = NULL;
 203:HW_Lib/AT32F435/bsp/Bsp_DMA.c **** 
 204:HW_Lib/AT32F435/bsp/Bsp_DMA.c ****     if ((dma < Bsp_DMA_1) || (stream < Bsp_DMA_Stream_1))
 205:HW_Lib/AT32F435/bsp/Bsp_DMA.c ****         return false;
 206:HW_Lib/AT32F435/bsp/Bsp_DMA.c **** 
 207:HW_Lib/AT32F435/bsp/Bsp_DMA.c ****     if (dma == Bsp_DMA_1)
 208:HW_Lib/AT32F435/bsp/Bsp_DMA.c ****     {
 209:HW_Lib/AT32F435/bsp/Bsp_DMA.c ****         switch (stream)
 210:HW_Lib/AT32F435/bsp/Bsp_DMA.c ****         {
 211:HW_Lib/AT32F435/bsp/Bsp_DMA.c ****         case Bsp_DMA_Stream_1:
 212:HW_Lib/AT32F435/bsp/Bsp_DMA.c ****             irq = DMA1_Channel1_IRQn;
 213:HW_Lib/AT32F435/bsp/Bsp_DMA.c ****             dmamux = DMA1MUX_CHANNEL1;
 214:HW_Lib/AT32F435/bsp/Bsp_DMA.c ****             dma_ch = DMA1_CHANNEL1;
 215:HW_Lib/AT32F435/bsp/Bsp_DMA.c ****             break;
 216:HW_Lib/AT32F435/bsp/Bsp_DMA.c **** 
 217:HW_Lib/AT32F435/bsp/Bsp_DMA.c ****         case Bsp_DMA_Stream_2:
 218:HW_Lib/AT32F435/bsp/Bsp_DMA.c ****             irq = DMA1_Channel2_IRQn;
 219:HW_Lib/AT32F435/bsp/Bsp_DMA.c ****             dmamux = DMA1MUX_CHANNEL2;
 220:HW_Lib/AT32F435/bsp/Bsp_DMA.c ****             dma_ch = DMA1_CHANNEL2;
 221:HW_Lib/AT32F435/bsp/Bsp_DMA.c ****             break;
 222:HW_Lib/AT32F435/bsp/Bsp_DMA.c **** 
 223:HW_Lib/AT32F435/bsp/Bsp_DMA.c ****         case Bsp_DMA_Stream_3:
 224:HW_Lib/AT32F435/bsp/Bsp_DMA.c ****             irq = DMA1_Channel3_IRQn;
 225:HW_Lib/AT32F435/bsp/Bsp_DMA.c ****             dmamux = DMA1MUX_CHANNEL3;
 226:HW_Lib/AT32F435/bsp/Bsp_DMA.c ****             dma_ch = DMA1_CHANNEL3;
 227:HW_Lib/AT32F435/bsp/Bsp_DMA.c ****             break;
 228:HW_Lib/AT32F435/bsp/Bsp_DMA.c **** 
 229:HW_Lib/AT32F435/bsp/Bsp_DMA.c ****         case Bsp_DMA_Stream_4:
ARM GAS  C:\Users\8bit\AppData\Local\Temp\cccZxcPc.s 			page 10


 230:HW_Lib/AT32F435/bsp/Bsp_DMA.c ****             irq = DMA1_Channel4_IRQn;
 231:HW_Lib/AT32F435/bsp/Bsp_DMA.c ****             dmamux = DMA1MUX_CHANNEL4;
 232:HW_Lib/AT32F435/bsp/Bsp_DMA.c ****             dma_ch = DMA1_CHANNEL4;
 233:HW_Lib/AT32F435/bsp/Bsp_DMA.c ****             break;
 234:HW_Lib/AT32F435/bsp/Bsp_DMA.c **** 
 235:HW_Lib/AT32F435/bsp/Bsp_DMA.c ****         case Bsp_DMA_Stream_5:
 236:HW_Lib/AT32F435/bsp/Bsp_DMA.c ****             irq = DMA1_Channel5_IRQn;
 237:HW_Lib/AT32F435/bsp/Bsp_DMA.c ****             dmamux = DMA1MUX_CHANNEL5;
 238:HW_Lib/AT32F435/bsp/Bsp_DMA.c ****             dma_ch = DMA1_CHANNEL5;
 239:HW_Lib/AT32F435/bsp/Bsp_DMA.c ****             break;
 240:HW_Lib/AT32F435/bsp/Bsp_DMA.c **** 
 241:HW_Lib/AT32F435/bsp/Bsp_DMA.c ****         case Bsp_DMA_Stream_6:
 242:HW_Lib/AT32F435/bsp/Bsp_DMA.c ****             irq = DMA1_Channel6_IRQn;
 243:HW_Lib/AT32F435/bsp/Bsp_DMA.c ****             dmamux = DMA1MUX_CHANNEL6;
 244:HW_Lib/AT32F435/bsp/Bsp_DMA.c ****             dma_ch = DMA1_CHANNEL6;
 245:HW_Lib/AT32F435/bsp/Bsp_DMA.c ****             break;
 246:HW_Lib/AT32F435/bsp/Bsp_DMA.c **** 
 247:HW_Lib/AT32F435/bsp/Bsp_DMA.c ****         case Bsp_DMA_Stream_7:
 248:HW_Lib/AT32F435/bsp/Bsp_DMA.c ****             irq = DMA1_Channel7_IRQn;
 249:HW_Lib/AT32F435/bsp/Bsp_DMA.c ****             dmamux = DMA1MUX_CHANNEL7;
 250:HW_Lib/AT32F435/bsp/Bsp_DMA.c ****             dma_ch = DMA1_CHANNEL7;
 251:HW_Lib/AT32F435/bsp/Bsp_DMA.c ****             break;
 252:HW_Lib/AT32F435/bsp/Bsp_DMA.c **** 
 253:HW_Lib/AT32F435/bsp/Bsp_DMA.c ****         default:
 254:HW_Lib/AT32F435/bsp/Bsp_DMA.c ****             return false;
 255:HW_Lib/AT32F435/bsp/Bsp_DMA.c ****         }
 256:HW_Lib/AT32F435/bsp/Bsp_DMA.c **** 
 257:HW_Lib/AT32F435/bsp/Bsp_DMA.c ****         BspDMA1_Irq_Callback_List[stream] = NULL;
 258:HW_Lib/AT32F435/bsp/Bsp_DMA.c ****     }
 259:HW_Lib/AT32F435/bsp/Bsp_DMA.c ****     else if (dma == Bsp_DMA_2)
 260:HW_Lib/AT32F435/bsp/Bsp_DMA.c ****     {
 261:HW_Lib/AT32F435/bsp/Bsp_DMA.c ****         switch (stream)
 262:HW_Lib/AT32F435/bsp/Bsp_DMA.c ****         {
 263:HW_Lib/AT32F435/bsp/Bsp_DMA.c ****         case Bsp_DMA_Stream_1:
 264:HW_Lib/AT32F435/bsp/Bsp_DMA.c ****             irq = DMA2_Channel1_IRQn;
 265:HW_Lib/AT32F435/bsp/Bsp_DMA.c ****             dmamux = DMA2MUX_CHANNEL1;
 266:HW_Lib/AT32F435/bsp/Bsp_DMA.c ****             dma_ch = DMA2_CHANNEL1;
 267:HW_Lib/AT32F435/bsp/Bsp_DMA.c ****             break;
 268:HW_Lib/AT32F435/bsp/Bsp_DMA.c **** 
 269:HW_Lib/AT32F435/bsp/Bsp_DMA.c ****         case Bsp_DMA_Stream_2:
 270:HW_Lib/AT32F435/bsp/Bsp_DMA.c ****             irq = DMA2_Channel2_IRQn;
 271:HW_Lib/AT32F435/bsp/Bsp_DMA.c ****             dmamux = DMA2MUX_CHANNEL2;
 272:HW_Lib/AT32F435/bsp/Bsp_DMA.c ****             dma_ch = DMA2_CHANNEL2;
 273:HW_Lib/AT32F435/bsp/Bsp_DMA.c ****             break;
 274:HW_Lib/AT32F435/bsp/Bsp_DMA.c **** 
 275:HW_Lib/AT32F435/bsp/Bsp_DMA.c ****         case Bsp_DMA_Stream_3:
 276:HW_Lib/AT32F435/bsp/Bsp_DMA.c ****             irq = DMA2_Channel3_IRQn;
 277:HW_Lib/AT32F435/bsp/Bsp_DMA.c ****             dmamux = DMA2MUX_CHANNEL3;
 278:HW_Lib/AT32F435/bsp/Bsp_DMA.c ****             dma_ch = DMA2_CHANNEL3;
 279:HW_Lib/AT32F435/bsp/Bsp_DMA.c ****             break;
 280:HW_Lib/AT32F435/bsp/Bsp_DMA.c **** 
 281:HW_Lib/AT32F435/bsp/Bsp_DMA.c ****         case Bsp_DMA_Stream_4:
 282:HW_Lib/AT32F435/bsp/Bsp_DMA.c ****             irq = DMA2_Channel4_IRQn;
 283:HW_Lib/AT32F435/bsp/Bsp_DMA.c ****             dmamux = DMA2MUX_CHANNEL4;
 284:HW_Lib/AT32F435/bsp/Bsp_DMA.c ****             dma_ch = DMA2_CHANNEL4;
 285:HW_Lib/AT32F435/bsp/Bsp_DMA.c ****             break;
 286:HW_Lib/AT32F435/bsp/Bsp_DMA.c **** 
ARM GAS  C:\Users\8bit\AppData\Local\Temp\cccZxcPc.s 			page 11


 287:HW_Lib/AT32F435/bsp/Bsp_DMA.c ****         case Bsp_DMA_Stream_5:
 288:HW_Lib/AT32F435/bsp/Bsp_DMA.c ****             irq = DMA2_Channel5_IRQn;
 289:HW_Lib/AT32F435/bsp/Bsp_DMA.c ****             dmamux = DMA2MUX_CHANNEL5;
 290:HW_Lib/AT32F435/bsp/Bsp_DMA.c ****             dma_ch = DMA2_CHANNEL5;
 291:HW_Lib/AT32F435/bsp/Bsp_DMA.c ****             break;
 292:HW_Lib/AT32F435/bsp/Bsp_DMA.c **** 
 293:HW_Lib/AT32F435/bsp/Bsp_DMA.c ****         case Bsp_DMA_Stream_6:
 294:HW_Lib/AT32F435/bsp/Bsp_DMA.c ****             irq = DMA2_Channel6_IRQn;
 295:HW_Lib/AT32F435/bsp/Bsp_DMA.c ****             dmamux = DMA2MUX_CHANNEL6;
 296:HW_Lib/AT32F435/bsp/Bsp_DMA.c ****             dma_ch = DMA2_CHANNEL6;
 297:HW_Lib/AT32F435/bsp/Bsp_DMA.c ****             break;
 298:HW_Lib/AT32F435/bsp/Bsp_DMA.c **** 
 299:HW_Lib/AT32F435/bsp/Bsp_DMA.c ****         case Bsp_DMA_Stream_7:
 300:HW_Lib/AT32F435/bsp/Bsp_DMA.c ****             irq = DMA2_Channel7_IRQn;
 301:HW_Lib/AT32F435/bsp/Bsp_DMA.c ****             dmamux = DMA2MUX_CHANNEL7;
 302:HW_Lib/AT32F435/bsp/Bsp_DMA.c ****             dma_ch = DMA2_CHANNEL7;
 303:HW_Lib/AT32F435/bsp/Bsp_DMA.c ****             break;
 304:HW_Lib/AT32F435/bsp/Bsp_DMA.c **** 
 305:HW_Lib/AT32F435/bsp/Bsp_DMA.c ****         default:
 306:HW_Lib/AT32F435/bsp/Bsp_DMA.c ****             return false;
 307:HW_Lib/AT32F435/bsp/Bsp_DMA.c ****         }
 308:HW_Lib/AT32F435/bsp/Bsp_DMA.c ****     
 309:HW_Lib/AT32F435/bsp/Bsp_DMA.c ****         BspDMA2_Irq_Callback_List[stream] = NULL;
 310:HW_Lib/AT32F435/bsp/Bsp_DMA.c ****     }
 311:HW_Lib/AT32F435/bsp/Bsp_DMA.c ****     else
 312:HW_Lib/AT32F435/bsp/Bsp_DMA.c ****         return false;
 313:HW_Lib/AT32F435/bsp/Bsp_DMA.c ****     
 314:HW_Lib/AT32F435/bsp/Bsp_DMA.c ****     dma_interrupt_enable(dmamux, DMA_FDT_INT, FALSE);
 315:HW_Lib/AT32F435/bsp/Bsp_DMA.c ****     nvic_priority_group_config(NVIC_PRIORITY_GROUP_4);
 316:HW_Lib/AT32F435/bsp/Bsp_DMA.c ****     nvic_irq_disable(irq);
 317:HW_Lib/AT32F435/bsp/Bsp_DMA.c ****     dma_reset(dma_ch);
 318:HW_Lib/AT32F435/bsp/Bsp_DMA.c ****     
 319:HW_Lib/AT32F435/bsp/Bsp_DMA.c ****     return true;
 320:HW_Lib/AT32F435/bsp/Bsp_DMA.c **** }
 321:HW_Lib/AT32F435/bsp/Bsp_DMA.c **** 
 322:HW_Lib/AT32F435/bsp/Bsp_DMA.c **** static void BspDMA_EnableIRQ(BspDMA_List dma, BspDMA_Stream_List stream, uint32_t preempt, uint32_t
 323:HW_Lib/AT32F435/bsp/Bsp_DMA.c **** {
 324:HW_Lib/AT32F435/bsp/Bsp_DMA.c ****     IRQn_Type irq;
 325:HW_Lib/AT32F435/bsp/Bsp_DMA.c ****     dmamux_channel_type *dmamux = NULL;
 326:HW_Lib/AT32F435/bsp/Bsp_DMA.c **** 
 327:HW_Lib/AT32F435/bsp/Bsp_DMA.c ****     if ((dma < Bsp_DMA_1) || (stream < Bsp_DMA_Stream_1))
 328:HW_Lib/AT32F435/bsp/Bsp_DMA.c ****         return;
 329:HW_Lib/AT32F435/bsp/Bsp_DMA.c **** 
 330:HW_Lib/AT32F435/bsp/Bsp_DMA.c ****     if (dma == Bsp_DMA_1)
 331:HW_Lib/AT32F435/bsp/Bsp_DMA.c ****     {
 332:HW_Lib/AT32F435/bsp/Bsp_DMA.c ****         switch (stream)
 333:HW_Lib/AT32F435/bsp/Bsp_DMA.c ****         {
 334:HW_Lib/AT32F435/bsp/Bsp_DMA.c ****         case Bsp_DMA_Stream_1:
 335:HW_Lib/AT32F435/bsp/Bsp_DMA.c ****             irq = DMA1_Channel1_IRQn;
 336:HW_Lib/AT32F435/bsp/Bsp_DMA.c ****             dmamux = DMA1MUX_CHANNEL1;
 337:HW_Lib/AT32F435/bsp/Bsp_DMA.c ****             break;
 338:HW_Lib/AT32F435/bsp/Bsp_DMA.c **** 
 339:HW_Lib/AT32F435/bsp/Bsp_DMA.c ****         case Bsp_DMA_Stream_2:
 340:HW_Lib/AT32F435/bsp/Bsp_DMA.c ****             irq = DMA1_Channel2_IRQn;
 341:HW_Lib/AT32F435/bsp/Bsp_DMA.c ****             dmamux = DMA1MUX_CHANNEL2;
 342:HW_Lib/AT32F435/bsp/Bsp_DMA.c ****             break;
 343:HW_Lib/AT32F435/bsp/Bsp_DMA.c **** 
ARM GAS  C:\Users\8bit\AppData\Local\Temp\cccZxcPc.s 			page 12


 344:HW_Lib/AT32F435/bsp/Bsp_DMA.c ****         case Bsp_DMA_Stream_3:
 345:HW_Lib/AT32F435/bsp/Bsp_DMA.c ****             irq = DMA1_Channel3_IRQn;
 346:HW_Lib/AT32F435/bsp/Bsp_DMA.c ****             dmamux = DMA1MUX_CHANNEL3;
 347:HW_Lib/AT32F435/bsp/Bsp_DMA.c ****             break;
 348:HW_Lib/AT32F435/bsp/Bsp_DMA.c **** 
 349:HW_Lib/AT32F435/bsp/Bsp_DMA.c ****         case Bsp_DMA_Stream_4:
 350:HW_Lib/AT32F435/bsp/Bsp_DMA.c ****             irq = DMA1_Channel4_IRQn;
 351:HW_Lib/AT32F435/bsp/Bsp_DMA.c ****             dmamux = DMA1MUX_CHANNEL4;
 352:HW_Lib/AT32F435/bsp/Bsp_DMA.c ****             break;
 353:HW_Lib/AT32F435/bsp/Bsp_DMA.c **** 
 354:HW_Lib/AT32F435/bsp/Bsp_DMA.c ****         case Bsp_DMA_Stream_5:
 355:HW_Lib/AT32F435/bsp/Bsp_DMA.c ****             irq = DMA1_Channel5_IRQn;
 356:HW_Lib/AT32F435/bsp/Bsp_DMA.c ****             dmamux = DMA1MUX_CHANNEL5;
 357:HW_Lib/AT32F435/bsp/Bsp_DMA.c ****             break;
 358:HW_Lib/AT32F435/bsp/Bsp_DMA.c **** 
 359:HW_Lib/AT32F435/bsp/Bsp_DMA.c ****         case Bsp_DMA_Stream_6:
 360:HW_Lib/AT32F435/bsp/Bsp_DMA.c ****             irq = DMA1_Channel6_IRQn;
 361:HW_Lib/AT32F435/bsp/Bsp_DMA.c ****             dmamux = DMA1MUX_CHANNEL6;
 362:HW_Lib/AT32F435/bsp/Bsp_DMA.c ****             break;
 363:HW_Lib/AT32F435/bsp/Bsp_DMA.c **** 
 364:HW_Lib/AT32F435/bsp/Bsp_DMA.c ****         case Bsp_DMA_Stream_7:
 365:HW_Lib/AT32F435/bsp/Bsp_DMA.c ****             irq = DMA1_Channel7_IRQn;
 366:HW_Lib/AT32F435/bsp/Bsp_DMA.c ****             dmamux = DMA1MUX_CHANNEL7;
 367:HW_Lib/AT32F435/bsp/Bsp_DMA.c ****             break;
 368:HW_Lib/AT32F435/bsp/Bsp_DMA.c **** 
 369:HW_Lib/AT32F435/bsp/Bsp_DMA.c ****         default:
 370:HW_Lib/AT32F435/bsp/Bsp_DMA.c ****             return;
 371:HW_Lib/AT32F435/bsp/Bsp_DMA.c ****         }
 372:HW_Lib/AT32F435/bsp/Bsp_DMA.c **** 
 373:HW_Lib/AT32F435/bsp/Bsp_DMA.c ****         BspDMA1_Irq_Callback_List[stream] = (BspDMA_IrqCall_Obj_TypeDef *)cb;
 374:HW_Lib/AT32F435/bsp/Bsp_DMA.c ****     }
 375:HW_Lib/AT32F435/bsp/Bsp_DMA.c ****     else if (dma == Bsp_DMA_2)
 376:HW_Lib/AT32F435/bsp/Bsp_DMA.c ****     {
 377:HW_Lib/AT32F435/bsp/Bsp_DMA.c ****         switch (stream)
 378:HW_Lib/AT32F435/bsp/Bsp_DMA.c ****         {
 379:HW_Lib/AT32F435/bsp/Bsp_DMA.c ****         case Bsp_DMA_Stream_1:
 380:HW_Lib/AT32F435/bsp/Bsp_DMA.c ****             irq = DMA2_Channel1_IRQn;
 381:HW_Lib/AT32F435/bsp/Bsp_DMA.c ****             dmamux = DMA2MUX_CHANNEL1;
 382:HW_Lib/AT32F435/bsp/Bsp_DMA.c ****             break;
 383:HW_Lib/AT32F435/bsp/Bsp_DMA.c **** 
 384:HW_Lib/AT32F435/bsp/Bsp_DMA.c ****         case Bsp_DMA_Stream_2:
 385:HW_Lib/AT32F435/bsp/Bsp_DMA.c ****             irq = DMA2_Channel2_IRQn;
 386:HW_Lib/AT32F435/bsp/Bsp_DMA.c ****             dmamux = DMA2MUX_CHANNEL2;
 387:HW_Lib/AT32F435/bsp/Bsp_DMA.c ****             break;
 388:HW_Lib/AT32F435/bsp/Bsp_DMA.c **** 
 389:HW_Lib/AT32F435/bsp/Bsp_DMA.c ****         case Bsp_DMA_Stream_3:
 390:HW_Lib/AT32F435/bsp/Bsp_DMA.c ****             irq = DMA2_Channel3_IRQn;
 391:HW_Lib/AT32F435/bsp/Bsp_DMA.c ****             dmamux = DMA2MUX_CHANNEL3;
 392:HW_Lib/AT32F435/bsp/Bsp_DMA.c ****             break;
 393:HW_Lib/AT32F435/bsp/Bsp_DMA.c **** 
 394:HW_Lib/AT32F435/bsp/Bsp_DMA.c ****         case Bsp_DMA_Stream_4:
 395:HW_Lib/AT32F435/bsp/Bsp_DMA.c ****             irq = DMA2_Channel4_IRQn;
 396:HW_Lib/AT32F435/bsp/Bsp_DMA.c ****             dmamux = DMA2MUX_CHANNEL4;
 397:HW_Lib/AT32F435/bsp/Bsp_DMA.c ****             break;
 398:HW_Lib/AT32F435/bsp/Bsp_DMA.c **** 
 399:HW_Lib/AT32F435/bsp/Bsp_DMA.c ****         case Bsp_DMA_Stream_5:
 400:HW_Lib/AT32F435/bsp/Bsp_DMA.c ****             irq = DMA2_Channel5_IRQn;
ARM GAS  C:\Users\8bit\AppData\Local\Temp\cccZxcPc.s 			page 13


 401:HW_Lib/AT32F435/bsp/Bsp_DMA.c ****             dmamux = DMA2MUX_CHANNEL5;
 402:HW_Lib/AT32F435/bsp/Bsp_DMA.c ****             break;
 403:HW_Lib/AT32F435/bsp/Bsp_DMA.c **** 
 404:HW_Lib/AT32F435/bsp/Bsp_DMA.c ****         case Bsp_DMA_Stream_6:
 405:HW_Lib/AT32F435/bsp/Bsp_DMA.c ****             irq = DMA2_Channel6_IRQn;
 406:HW_Lib/AT32F435/bsp/Bsp_DMA.c ****             dmamux = DMA2MUX_CHANNEL6;
 407:HW_Lib/AT32F435/bsp/Bsp_DMA.c ****             break;
 408:HW_Lib/AT32F435/bsp/Bsp_DMA.c **** 
 409:HW_Lib/AT32F435/bsp/Bsp_DMA.c ****         case Bsp_DMA_Stream_7:
 410:HW_Lib/AT32F435/bsp/Bsp_DMA.c ****             irq = DMA2_Channel7_IRQn;
 411:HW_Lib/AT32F435/bsp/Bsp_DMA.c ****             dmamux = DMA2MUX_CHANNEL7;
 412:HW_Lib/AT32F435/bsp/Bsp_DMA.c ****             break;
 413:HW_Lib/AT32F435/bsp/Bsp_DMA.c **** 
 414:HW_Lib/AT32F435/bsp/Bsp_DMA.c ****         default:
 415:HW_Lib/AT32F435/bsp/Bsp_DMA.c ****             return;
 416:HW_Lib/AT32F435/bsp/Bsp_DMA.c ****         }
 417:HW_Lib/AT32F435/bsp/Bsp_DMA.c ****     
 418:HW_Lib/AT32F435/bsp/Bsp_DMA.c ****         BspDMA2_Irq_Callback_List[stream] = (BspDMA_IrqCall_Obj_TypeDef *)cb;
 419:HW_Lib/AT32F435/bsp/Bsp_DMA.c ****     }
 420:HW_Lib/AT32F435/bsp/Bsp_DMA.c ****     else
 421:HW_Lib/AT32F435/bsp/Bsp_DMA.c ****         return;
 422:HW_Lib/AT32F435/bsp/Bsp_DMA.c **** 
 423:HW_Lib/AT32F435/bsp/Bsp_DMA.c ****     if((mux_seq < DMAMUX_DMAREQ_ID_DVP) || (mux_seq > DMAMUX_DMAREQ_ID_REQ_G1))
 424:HW_Lib/AT32F435/bsp/Bsp_DMA.c ****         dmamux_init(dmamux, (dmamux_requst_id_sel_type)mux_seq);
 425:HW_Lib/AT32F435/bsp/Bsp_DMA.c **** 
 426:HW_Lib/AT32F435/bsp/Bsp_DMA.c ****     dma_interrupt_enable(BspDMA_Get_Instance(dma, stream), DMA_FDT_INT, TRUE);
 427:HW_Lib/AT32F435/bsp/Bsp_DMA.c ****     nvic_priority_group_config(NVIC_PRIORITY_GROUP_4);
 428:HW_Lib/AT32F435/bsp/Bsp_DMA.c ****     nvic_irq_enable(irq, preempt, sub);
 429:HW_Lib/AT32F435/bsp/Bsp_DMA.c **** }
 430:HW_Lib/AT32F435/bsp/Bsp_DMA.c **** 
 431:HW_Lib/AT32F435/bsp/Bsp_DMA.c **** static bool BspDMA_Pipe_DeInit(void)
 432:HW_Lib/AT32F435/bsp/Bsp_DMA.c **** {
 433:HW_Lib/AT32F435/bsp/Bsp_DMA.c ****     return BspDMA_DisableIRQ(Bsp_DMA_2, Bsp_DMA_Stream_7);
 434:HW_Lib/AT32F435/bsp/Bsp_DMA.c **** }
 435:HW_Lib/AT32F435/bsp/Bsp_DMA.c **** 
 436:HW_Lib/AT32F435/bsp/Bsp_DMA.c **** static bool BspDMA_Pipe_Init(BspDMA_Pipe_TransFin_Cb fin_cb, BspDMA_Pipe_TransErr_Cb err_cb)
 437:HW_Lib/AT32F435/bsp/Bsp_DMA.c **** {
 438:HW_Lib/AT32F435/bsp/Bsp_DMA.c ****     dma_init_type dma_init_struct;
 439:HW_Lib/AT32F435/bsp/Bsp_DMA.c **** 
 440:HW_Lib/AT32F435/bsp/Bsp_DMA.c ****     /* enable dma1 clock */
 441:HW_Lib/AT32F435/bsp/Bsp_DMA.c ****     if (!Dma_Clock_Init)
 442:HW_Lib/AT32F435/bsp/Bsp_DMA.c ****     {
 443:HW_Lib/AT32F435/bsp/Bsp_DMA.c ****         crm_periph_clock_enable(CRM_DMA2_PERIPH_CLOCK, TRUE);
 444:HW_Lib/AT32F435/bsp/Bsp_DMA.c ****         crm_periph_clock_enable(CRM_DMA1_PERIPH_CLOCK, TRUE);
 445:HW_Lib/AT32F435/bsp/Bsp_DMA.c ****         Dma_Clock_Init = true;
 446:HW_Lib/AT32F435/bsp/Bsp_DMA.c ****     }
 447:HW_Lib/AT32F435/bsp/Bsp_DMA.c **** 
 448:HW_Lib/AT32F435/bsp/Bsp_DMA.c ****     /* dma1 channel1 configuration */
 449:HW_Lib/AT32F435/bsp/Bsp_DMA.c ****     dma_reset(DMA2_CHANNEL7);
 450:HW_Lib/AT32F435/bsp/Bsp_DMA.c ****     dma_init_struct.buffer_size = 0;
 451:HW_Lib/AT32F435/bsp/Bsp_DMA.c ****     dma_init_struct.direction = DMA_DIR_MEMORY_TO_MEMORY;
 452:HW_Lib/AT32F435/bsp/Bsp_DMA.c ****     dma_init_struct.memory_base_addr = (uint32_t)0;
 453:HW_Lib/AT32F435/bsp/Bsp_DMA.c ****     dma_init_struct.memory_data_width = DMA_MEMORY_DATA_WIDTH_BYTE;
 454:HW_Lib/AT32F435/bsp/Bsp_DMA.c ****     dma_init_struct.memory_inc_enable = TRUE;
 455:HW_Lib/AT32F435/bsp/Bsp_DMA.c ****     dma_init_struct.peripheral_base_addr = (uint32_t)0;
 456:HW_Lib/AT32F435/bsp/Bsp_DMA.c ****     dma_init_struct.peripheral_data_width = DMA_PERIPHERAL_DATA_WIDTH_BYTE;
 457:HW_Lib/AT32F435/bsp/Bsp_DMA.c ****     dma_init_struct.peripheral_inc_enable = TRUE;
ARM GAS  C:\Users\8bit\AppData\Local\Temp\cccZxcPc.s 			page 14


 458:HW_Lib/AT32F435/bsp/Bsp_DMA.c ****     dma_init_struct.priority = DMA_PRIORITY_VERY_HIGH;
 459:HW_Lib/AT32F435/bsp/Bsp_DMA.c ****     dma_init_struct.loop_mode_enable = FALSE;
 460:HW_Lib/AT32F435/bsp/Bsp_DMA.c ****     dma_init(DMA2_CHANNEL7, &dma_init_struct);
 461:HW_Lib/AT32F435/bsp/Bsp_DMA.c **** 
 462:HW_Lib/AT32F435/bsp/Bsp_DMA.c ****     /* enable transfer full data intterrupt */
 463:HW_Lib/AT32F435/bsp/Bsp_DMA.c ****     dma_interrupt_enable(DMA2_CHANNEL7, DMA_FDT_INT, TRUE);
 464:HW_Lib/AT32F435/bsp/Bsp_DMA.c **** 
 465:HW_Lib/AT32F435/bsp/Bsp_DMA.c ****     /* dma1 channel1 interrupt nvic init */
 466:HW_Lib/AT32F435/bsp/Bsp_DMA.c ****     nvic_priority_group_config(NVIC_PRIORITY_GROUP_4);
 467:HW_Lib/AT32F435/bsp/Bsp_DMA.c ****     nvic_irq_enable(DMA2_Channel7_IRQn, 5, 0);
 468:HW_Lib/AT32F435/bsp/Bsp_DMA.c **** 
 469:HW_Lib/AT32F435/bsp/Bsp_DMA.c ****     DataPipe_DMA_Init = true;
 470:HW_Lib/AT32F435/bsp/Bsp_DMA.c **** 
 471:HW_Lib/AT32F435/bsp/Bsp_DMA.c ****     DataPipe_Trans_Fin_Callback = fin_cb;
 472:HW_Lib/AT32F435/bsp/Bsp_DMA.c ****     DataPipe_Trans_Err_Callback = err_cb;
 473:HW_Lib/AT32F435/bsp/Bsp_DMA.c **** 
 474:HW_Lib/AT32F435/bsp/Bsp_DMA.c ****     return true;
 475:HW_Lib/AT32F435/bsp/Bsp_DMA.c **** }
 476:HW_Lib/AT32F435/bsp/Bsp_DMA.c **** 
 477:HW_Lib/AT32F435/bsp/Bsp_DMA.c **** static bool BspDMA_Pipe_Trans(uint32_t SrcAddress, uint32_t DstAddress, uint32_t DataLength)
 478:HW_Lib/AT32F435/bsp/Bsp_DMA.c **** {
 479:HW_Lib/AT32F435/bsp/Bsp_DMA.c ****     if(!DataPipe_DMA_Init)
 480:HW_Lib/AT32F435/bsp/Bsp_DMA.c ****         return false;
 481:HW_Lib/AT32F435/bsp/Bsp_DMA.c **** 
 482:HW_Lib/AT32F435/bsp/Bsp_DMA.c ****     if((SrcAddress == 0) || (DstAddress == 0) || (DataLength == 0))
 483:HW_Lib/AT32F435/bsp/Bsp_DMA.c ****         return false;
 484:HW_Lib/AT32F435/bsp/Bsp_DMA.c **** 
 485:HW_Lib/AT32F435/bsp/Bsp_DMA.c ****     DMA2_CHANNEL7->maddr = DstAddress;
 486:HW_Lib/AT32F435/bsp/Bsp_DMA.c ****     DMA2_CHANNEL7->paddr = SrcAddress;
 487:HW_Lib/AT32F435/bsp/Bsp_DMA.c ****     DMA2_CHANNEL7->dtcnt_bit.cnt = DataLength;
 488:HW_Lib/AT32F435/bsp/Bsp_DMA.c ****     dma_channel_enable(DMA2_CHANNEL7, TRUE);
 489:HW_Lib/AT32F435/bsp/Bsp_DMA.c **** 
 490:HW_Lib/AT32F435/bsp/Bsp_DMA.c ****     return true;
 491:HW_Lib/AT32F435/bsp/Bsp_DMA.c **** }
 492:HW_Lib/AT32F435/bsp/Bsp_DMA.c **** 
 493:HW_Lib/AT32F435/bsp/Bsp_DMA.c **** static void *BspDMA_Get_Pipe_Handle(void)
 494:HW_Lib/AT32F435/bsp/Bsp_DMA.c **** {
 291              		.loc 1 494 1 is_stmt 1 view -0
 292              		.cfi_startproc
 293              		@ args = 0, pretend = 0, frame = 0
 294              		@ frame_needed = 0, uses_anonymous_args = 0
 295              		@ link register save eliminated.
 495:HW_Lib/AT32F435/bsp/Bsp_DMA.c ****     if(!DataPipe_DMA_Init)
 296              		.loc 1 495 5 view .LVU69
 297              		.loc 1 495 8 is_stmt 0 view .LVU70
 298 0000 034B     		ldr	r3, .L30
 299 0002 1B78     		ldrb	r3, [r3]	@ zero_extendqisi2
 300              		.loc 1 495 7 view .LVU71
 301 0004 0BB1     		cbz	r3, .L29
 496:HW_Lib/AT32F435/bsp/Bsp_DMA.c ****         return NULL;
 497:HW_Lib/AT32F435/bsp/Bsp_DMA.c **** 
 498:HW_Lib/AT32F435/bsp/Bsp_DMA.c ****     return (void *)DMA2_CHANNEL7;
 302              		.loc 1 498 12 view .LVU72
 303 0006 0348     		ldr	r0, .L30+4
 304 0008 7047     		bx	lr
 305              	.L29:
 496:HW_Lib/AT32F435/bsp/Bsp_DMA.c ****         return NULL;
ARM GAS  C:\Users\8bit\AppData\Local\Temp\cccZxcPc.s 			page 15


 306              		.loc 1 496 16 view .LVU73
 307 000a 0020     		movs	r0, #0
 499:HW_Lib/AT32F435/bsp/Bsp_DMA.c **** }
 308              		.loc 1 499 1 view .LVU74
 309 000c 7047     		bx	lr
 310              	.L31:
 311 000e 00BF     		.align	2
 312              	.L30:
 313 0010 00000000 		.word	.LANCHOR0
 314 0014 80660240 		.word	1073899136
 315              		.cfi_endproc
 316              	.LFE143:
 318              		.section	.text.BspDMA_DisableIRQ,"ax",%progbits
 319              		.align	1
 320              		.syntax unified
 321              		.thumb
 322              		.thumb_func
 324              	BspDMA_DisableIRQ:
 325              	.LVL38:
 326              	.LFB138:
 199:HW_Lib/AT32F435/bsp/Bsp_DMA.c ****     IRQn_Type irq;
 327              		.loc 1 199 1 is_stmt 1 view -0
 328              		.cfi_startproc
 329              		@ args = 0, pretend = 0, frame = 0
 330              		@ frame_needed = 0, uses_anonymous_args = 0
 200:HW_Lib/AT32F435/bsp/Bsp_DMA.c ****     dmamux_channel_type *dmamux = NULL;
 331              		.loc 1 200 5 view .LVU76
 201:HW_Lib/AT32F435/bsp/Bsp_DMA.c ****     dma_channel_type *dma_ch = NULL;
 332              		.loc 1 201 5 view .LVU77
 202:HW_Lib/AT32F435/bsp/Bsp_DMA.c **** 
 333              		.loc 1 202 5 view .LVU78
 204:HW_Lib/AT32F435/bsp/Bsp_DMA.c ****         return false;
 334              		.loc 1 204 5 view .LVU79
 204:HW_Lib/AT32F435/bsp/Bsp_DMA.c ****         return false;
 335              		.loc 1 204 8 is_stmt 0 view .LVU80
 336 0000 0028     		cmp	r0, #0
 337              	.LVL39:
 204:HW_Lib/AT32F435/bsp/Bsp_DMA.c ****         return false;
 338              		.loc 1 204 8 view .LVU81
 339 0002 64DB     		blt	.L52
 204:HW_Lib/AT32F435/bsp/Bsp_DMA.c ****         return false;
 340              		.loc 1 204 27 discriminator 1 view .LVU82
 341 0004 0029     		cmp	r1, #0
 342 0006 64DB     		blt	.L53
 199:HW_Lib/AT32F435/bsp/Bsp_DMA.c ****     IRQn_Type irq;
 343              		.loc 1 199 1 view .LVU83
 344 0008 38B5     		push	{r3, r4, r5, lr}
 345              	.LCFI0:
 346              		.cfi_def_cfa_offset 16
 347              		.cfi_offset 3, -16
 348              		.cfi_offset 4, -12
 349              		.cfi_offset 5, -8
 350              		.cfi_offset 14, -4
 207:HW_Lib/AT32F435/bsp/Bsp_DMA.c ****     {
 351              		.loc 1 207 5 is_stmt 1 view .LVU84
 207:HW_Lib/AT32F435/bsp/Bsp_DMA.c ****     {
 352              		.loc 1 207 8 is_stmt 0 view .LVU85
ARM GAS  C:\Users\8bit\AppData\Local\Temp\cccZxcPc.s 			page 16


 353 000a 0028     		cmp	r0, #0
 354 000c 35D1     		bne	.L34
 209:HW_Lib/AT32F435/bsp/Bsp_DMA.c ****         {
 355              		.loc 1 209 9 is_stmt 1 view .LVU86
 356 000e 0629     		cmp	r1, #6
 357 0010 61D8     		bhi	.L54
 358 0012 DFE801F0 		tbb	[pc, r1]
 359              	.L36:
 360 0016 04       		.byte	(.L42-.L36)/2
 361 0017 2E       		.byte	(.L55-.L36)/2
 362 0018 1A       		.byte	(.L40-.L36)/2
 363 0019 1E       		.byte	(.L39-.L36)/2
 364 001a 22       		.byte	(.L38-.L36)/2
 365 001b 26       		.byte	(.L37-.L36)/2
 366 001c 2A       		.byte	(.L35-.L36)/2
 367 001d 00       		.p2align 1
 368              	.L42:
 369 001e 314C     		ldr	r4, .L63
 370 0020 3148     		ldr	r0, .L63+4
 371 0022 3825     		movs	r5, #56
 372              	.LVL40:
 373              	.L41:
 257:HW_Lib/AT32F435/bsp/Bsp_DMA.c ****     }
 374              		.loc 1 257 9 view .LVU87
 257:HW_Lib/AT32F435/bsp/Bsp_DMA.c ****     }
 375              		.loc 1 257 43 is_stmt 0 view .LVU88
 376 0024 314B     		ldr	r3, .L63+8
 377 0026 0022     		movs	r2, #0
 378 0028 43F82120 		str	r2, [r3, r1, lsl #2]
 379              	.L43:
 314:HW_Lib/AT32F435/bsp/Bsp_DMA.c ****     nvic_priority_group_config(NVIC_PRIORITY_GROUP_4);
 380              		.loc 1 314 5 is_stmt 1 view .LVU89
 381 002c 0022     		movs	r2, #0
 382 002e 0221     		movs	r1, #2
 383              	.LVL41:
 314:HW_Lib/AT32F435/bsp/Bsp_DMA.c ****     nvic_priority_group_config(NVIC_PRIORITY_GROUP_4);
 384              		.loc 1 314 5 is_stmt 0 view .LVU90
 385 0030 FFF7FEFF 		bl	dma_interrupt_enable
 386              	.LVL42:
 315:HW_Lib/AT32F435/bsp/Bsp_DMA.c ****     nvic_irq_disable(irq);
 387              		.loc 1 315 5 is_stmt 1 view .LVU91
 388 0034 0320     		movs	r0, #3
 389 0036 FFF7FEFF 		bl	nvic_priority_group_config
 390              	.LVL43:
 316:HW_Lib/AT32F435/bsp/Bsp_DMA.c ****     dma_reset(dma_ch);
 391              		.loc 1 316 5 view .LVU92
 392 003a 2846     		mov	r0, r5
 393 003c FFF7FEFF 		bl	nvic_irq_disable
 394              	.LVL44:
 317:HW_Lib/AT32F435/bsp/Bsp_DMA.c ****     
 395              		.loc 1 317 5 view .LVU93
 396 0040 2046     		mov	r0, r4
 397 0042 FFF7FEFF 		bl	dma_reset
 398              	.LVL45:
 319:HW_Lib/AT32F435/bsp/Bsp_DMA.c **** }
 399              		.loc 1 319 5 view .LVU94
 319:HW_Lib/AT32F435/bsp/Bsp_DMA.c **** }
ARM GAS  C:\Users\8bit\AppData\Local\Temp\cccZxcPc.s 			page 17


 400              		.loc 1 319 12 is_stmt 0 view .LVU95
 401 0046 0120     		movs	r0, #1
 402              	.LVL46:
 403              	.L33:
 320:HW_Lib/AT32F435/bsp/Bsp_DMA.c **** 
 404              		.loc 1 320 1 view .LVU96
 405 0048 38BD     		pop	{r3, r4, r5, pc}
 406              	.LVL47:
 407              	.L40:
 224:HW_Lib/AT32F435/bsp/Bsp_DMA.c ****             dmamux = DMA1MUX_CHANNEL3;
 408              		.loc 1 224 13 is_stmt 1 view .LVU97
 225:HW_Lib/AT32F435/bsp/Bsp_DMA.c ****             dma_ch = DMA1_CHANNEL3;
 409              		.loc 1 225 13 view .LVU98
 226:HW_Lib/AT32F435/bsp/Bsp_DMA.c ****             break;
 410              		.loc 1 226 13 view .LVU99
 227:HW_Lib/AT32F435/bsp/Bsp_DMA.c **** 
 411              		.loc 1 227 13 view .LVU100
 226:HW_Lib/AT32F435/bsp/Bsp_DMA.c ****             break;
 412              		.loc 1 226 20 is_stmt 0 view .LVU101
 413 004a 294C     		ldr	r4, .L63+12
 225:HW_Lib/AT32F435/bsp/Bsp_DMA.c ****             dma_ch = DMA1_CHANNEL3;
 414              		.loc 1 225 20 view .LVU102
 415 004c 2948     		ldr	r0, .L63+16
 224:HW_Lib/AT32F435/bsp/Bsp_DMA.c ****             dmamux = DMA1MUX_CHANNEL3;
 416              		.loc 1 224 17 view .LVU103
 417 004e 3A25     		movs	r5, #58
 227:HW_Lib/AT32F435/bsp/Bsp_DMA.c **** 
 418              		.loc 1 227 13 view .LVU104
 419 0050 E8E7     		b	.L41
 420              	.LVL48:
 421              	.L39:
 230:HW_Lib/AT32F435/bsp/Bsp_DMA.c ****             dmamux = DMA1MUX_CHANNEL4;
 422              		.loc 1 230 13 is_stmt 1 view .LVU105
 231:HW_Lib/AT32F435/bsp/Bsp_DMA.c ****             dma_ch = DMA1_CHANNEL4;
 423              		.loc 1 231 13 view .LVU106
 232:HW_Lib/AT32F435/bsp/Bsp_DMA.c ****             break;
 424              		.loc 1 232 13 view .LVU107
 233:HW_Lib/AT32F435/bsp/Bsp_DMA.c **** 
 425              		.loc 1 233 13 view .LVU108
 232:HW_Lib/AT32F435/bsp/Bsp_DMA.c ****             break;
 426              		.loc 1 232 20 is_stmt 0 view .LVU109
 427 0052 294C     		ldr	r4, .L63+20
 231:HW_Lib/AT32F435/bsp/Bsp_DMA.c ****             dma_ch = DMA1_CHANNEL4;
 428              		.loc 1 231 20 view .LVU110
 429 0054 2948     		ldr	r0, .L63+24
 230:HW_Lib/AT32F435/bsp/Bsp_DMA.c ****             dmamux = DMA1MUX_CHANNEL4;
 430              		.loc 1 230 17 view .LVU111
 431 0056 3B25     		movs	r5, #59
 233:HW_Lib/AT32F435/bsp/Bsp_DMA.c **** 
 432              		.loc 1 233 13 view .LVU112
 433 0058 E4E7     		b	.L41
 434              	.LVL49:
 435              	.L38:
 236:HW_Lib/AT32F435/bsp/Bsp_DMA.c ****             dmamux = DMA1MUX_CHANNEL5;
 436              		.loc 1 236 13 is_stmt 1 view .LVU113
 237:HW_Lib/AT32F435/bsp/Bsp_DMA.c ****             dma_ch = DMA1_CHANNEL5;
 437              		.loc 1 237 13 view .LVU114
ARM GAS  C:\Users\8bit\AppData\Local\Temp\cccZxcPc.s 			page 18


 238:HW_Lib/AT32F435/bsp/Bsp_DMA.c ****             break;
 438              		.loc 1 238 13 view .LVU115
 239:HW_Lib/AT32F435/bsp/Bsp_DMA.c **** 
 439              		.loc 1 239 13 view .LVU116
 238:HW_Lib/AT32F435/bsp/Bsp_DMA.c ****             break;
 440              		.loc 1 238 20 is_stmt 0 view .LVU117
 441 005a 294C     		ldr	r4, .L63+28
 237:HW_Lib/AT32F435/bsp/Bsp_DMA.c ****             dma_ch = DMA1_CHANNEL5;
 442              		.loc 1 237 20 view .LVU118
 443 005c 2948     		ldr	r0, .L63+32
 236:HW_Lib/AT32F435/bsp/Bsp_DMA.c ****             dmamux = DMA1MUX_CHANNEL5;
 444              		.loc 1 236 17 view .LVU119
 445 005e 3C25     		movs	r5, #60
 239:HW_Lib/AT32F435/bsp/Bsp_DMA.c **** 
 446              		.loc 1 239 13 view .LVU120
 447 0060 E0E7     		b	.L41
 448              	.LVL50:
 449              	.L37:
 242:HW_Lib/AT32F435/bsp/Bsp_DMA.c ****             dmamux = DMA1MUX_CHANNEL6;
 450              		.loc 1 242 13 is_stmt 1 view .LVU121
 243:HW_Lib/AT32F435/bsp/Bsp_DMA.c ****             dma_ch = DMA1_CHANNEL6;
 451              		.loc 1 243 13 view .LVU122
 244:HW_Lib/AT32F435/bsp/Bsp_DMA.c ****             break;
 452              		.loc 1 244 13 view .LVU123
 245:HW_Lib/AT32F435/bsp/Bsp_DMA.c **** 
 453              		.loc 1 245 13 view .LVU124
 244:HW_Lib/AT32F435/bsp/Bsp_DMA.c ****             break;
 454              		.loc 1 244 20 is_stmt 0 view .LVU125
 455 0062 294C     		ldr	r4, .L63+36
 243:HW_Lib/AT32F435/bsp/Bsp_DMA.c ****             dma_ch = DMA1_CHANNEL6;
 456              		.loc 1 243 20 view .LVU126
 457 0064 2948     		ldr	r0, .L63+40
 242:HW_Lib/AT32F435/bsp/Bsp_DMA.c ****             dmamux = DMA1MUX_CHANNEL6;
 458              		.loc 1 242 17 view .LVU127
 459 0066 4425     		movs	r5, #68
 245:HW_Lib/AT32F435/bsp/Bsp_DMA.c **** 
 460              		.loc 1 245 13 view .LVU128
 461 0068 DCE7     		b	.L41
 462              	.LVL51:
 463              	.L35:
 248:HW_Lib/AT32F435/bsp/Bsp_DMA.c ****             dmamux = DMA1MUX_CHANNEL7;
 464              		.loc 1 248 13 is_stmt 1 view .LVU129
 249:HW_Lib/AT32F435/bsp/Bsp_DMA.c ****             dma_ch = DMA1_CHANNEL7;
 465              		.loc 1 249 13 view .LVU130
 250:HW_Lib/AT32F435/bsp/Bsp_DMA.c ****             break;
 466              		.loc 1 250 13 view .LVU131
 251:HW_Lib/AT32F435/bsp/Bsp_DMA.c **** 
 467              		.loc 1 251 13 view .LVU132
 250:HW_Lib/AT32F435/bsp/Bsp_DMA.c ****             break;
 468              		.loc 1 250 20 is_stmt 0 view .LVU133
 469 006a 294C     		ldr	r4, .L63+44
 249:HW_Lib/AT32F435/bsp/Bsp_DMA.c ****             dma_ch = DMA1_CHANNEL7;
 470              		.loc 1 249 20 view .LVU134
 471 006c 2948     		ldr	r0, .L63+48
 248:HW_Lib/AT32F435/bsp/Bsp_DMA.c ****             dmamux = DMA1MUX_CHANNEL7;
 472              		.loc 1 248 17 view .LVU135
 473 006e 4525     		movs	r5, #69
ARM GAS  C:\Users\8bit\AppData\Local\Temp\cccZxcPc.s 			page 19


 251:HW_Lib/AT32F435/bsp/Bsp_DMA.c **** 
 474              		.loc 1 251 13 view .LVU136
 475 0070 D8E7     		b	.L41
 476              	.LVL52:
 477              	.L55:
 220:HW_Lib/AT32F435/bsp/Bsp_DMA.c ****             break;
 478              		.loc 1 220 20 view .LVU137
 479 0072 294C     		ldr	r4, .L63+52
 219:HW_Lib/AT32F435/bsp/Bsp_DMA.c ****             dma_ch = DMA1_CHANNEL2;
 480              		.loc 1 219 20 view .LVU138
 481 0074 2948     		ldr	r0, .L63+56
 218:HW_Lib/AT32F435/bsp/Bsp_DMA.c ****             dmamux = DMA1MUX_CHANNEL2;
 482              		.loc 1 218 17 view .LVU139
 483 0076 3925     		movs	r5, #57
 484 0078 D4E7     		b	.L41
 485              	.L34:
 259:HW_Lib/AT32F435/bsp/Bsp_DMA.c ****     {
 486              		.loc 1 259 10 is_stmt 1 view .LVU140
 259:HW_Lib/AT32F435/bsp/Bsp_DMA.c ****     {
 487              		.loc 1 259 13 is_stmt 0 view .LVU141
 488 007a 0128     		cmp	r0, #1
 489 007c 2DD1     		bne	.L56
 261:HW_Lib/AT32F435/bsp/Bsp_DMA.c ****         {
 490              		.loc 1 261 9 is_stmt 1 view .LVU142
 491 007e 0629     		cmp	r1, #6
 492 0080 2DD8     		bhi	.L57
 493 0082 DFE801F0 		tbb	[pc, r1]
 494              	.L45:
 495 0086 04       		.byte	(.L51-.L45)/2
 496 0087 20       		.byte	(.L58-.L45)/2
 497 0088 0C       		.byte	(.L49-.L45)/2
 498 0089 10       		.byte	(.L48-.L45)/2
 499 008a 14       		.byte	(.L47-.L45)/2
 500 008b 18       		.byte	(.L46-.L45)/2
 501 008c 1C       		.byte	(.L44-.L45)/2
 502 008d 00       		.p2align 1
 503              	.L51:
 504 008e 244C     		ldr	r4, .L63+60
 505 0090 2448     		ldr	r0, .L63+64
 506 0092 6C25     		movs	r5, #108
 507              	.LVL53:
 508              	.L50:
 309:HW_Lib/AT32F435/bsp/Bsp_DMA.c ****     }
 509              		.loc 1 309 9 view .LVU143
 309:HW_Lib/AT32F435/bsp/Bsp_DMA.c ****     }
 510              		.loc 1 309 43 is_stmt 0 view .LVU144
 511 0094 244B     		ldr	r3, .L63+68
 512 0096 0022     		movs	r2, #0
 513 0098 43F82120 		str	r2, [r3, r1, lsl #2]
 514 009c C6E7     		b	.L43
 515              	.LVL54:
 516              	.L49:
 276:HW_Lib/AT32F435/bsp/Bsp_DMA.c ****             dmamux = DMA2MUX_CHANNEL3;
 517              		.loc 1 276 13 is_stmt 1 view .LVU145
 277:HW_Lib/AT32F435/bsp/Bsp_DMA.c ****             dma_ch = DMA2_CHANNEL3;
 518              		.loc 1 277 13 view .LVU146
 278:HW_Lib/AT32F435/bsp/Bsp_DMA.c ****             break;
ARM GAS  C:\Users\8bit\AppData\Local\Temp\cccZxcPc.s 			page 20


 519              		.loc 1 278 13 view .LVU147
 279:HW_Lib/AT32F435/bsp/Bsp_DMA.c **** 
 520              		.loc 1 279 13 view .LVU148
 278:HW_Lib/AT32F435/bsp/Bsp_DMA.c ****             break;
 521              		.loc 1 278 20 is_stmt 0 view .LVU149
 522 009e 234C     		ldr	r4, .L63+72
 277:HW_Lib/AT32F435/bsp/Bsp_DMA.c ****             dma_ch = DMA2_CHANNEL3;
 523              		.loc 1 277 20 view .LVU150
 524 00a0 2348     		ldr	r0, .L63+76
 276:HW_Lib/AT32F435/bsp/Bsp_DMA.c ****             dmamux = DMA2MUX_CHANNEL3;
 525              		.loc 1 276 17 view .LVU151
 526 00a2 6E25     		movs	r5, #110
 279:HW_Lib/AT32F435/bsp/Bsp_DMA.c **** 
 527              		.loc 1 279 13 view .LVU152
 528 00a4 F6E7     		b	.L50
 529              	.LVL55:
 530              	.L48:
 282:HW_Lib/AT32F435/bsp/Bsp_DMA.c ****             dmamux = DMA2MUX_CHANNEL4;
 531              		.loc 1 282 13 is_stmt 1 view .LVU153
 283:HW_Lib/AT32F435/bsp/Bsp_DMA.c ****             dma_ch = DMA2_CHANNEL4;
 532              		.loc 1 283 13 view .LVU154
 284:HW_Lib/AT32F435/bsp/Bsp_DMA.c ****             break;
 533              		.loc 1 284 13 view .LVU155
 285:HW_Lib/AT32F435/bsp/Bsp_DMA.c **** 
 534              		.loc 1 285 13 view .LVU156
 284:HW_Lib/AT32F435/bsp/Bsp_DMA.c ****             break;
 535              		.loc 1 284 20 is_stmt 0 view .LVU157
 536 00a6 234C     		ldr	r4, .L63+80
 283:HW_Lib/AT32F435/bsp/Bsp_DMA.c ****             dma_ch = DMA2_CHANNEL4;
 537              		.loc 1 283 20 view .LVU158
 538 00a8 2348     		ldr	r0, .L63+84
 282:HW_Lib/AT32F435/bsp/Bsp_DMA.c ****             dmamux = DMA2MUX_CHANNEL4;
 539              		.loc 1 282 17 view .LVU159
 540 00aa 6F25     		movs	r5, #111
 285:HW_Lib/AT32F435/bsp/Bsp_DMA.c **** 
 541              		.loc 1 285 13 view .LVU160
 542 00ac F2E7     		b	.L50
 543              	.LVL56:
 544              	.L47:
 288:HW_Lib/AT32F435/bsp/Bsp_DMA.c ****             dmamux = DMA2MUX_CHANNEL5;
 545              		.loc 1 288 13 is_stmt 1 view .LVU161
 289:HW_Lib/AT32F435/bsp/Bsp_DMA.c ****             dma_ch = DMA2_CHANNEL5;
 546              		.loc 1 289 13 view .LVU162
 290:HW_Lib/AT32F435/bsp/Bsp_DMA.c ****             break;
 547              		.loc 1 290 13 view .LVU163
 291:HW_Lib/AT32F435/bsp/Bsp_DMA.c **** 
 548              		.loc 1 291 13 view .LVU164
 290:HW_Lib/AT32F435/bsp/Bsp_DMA.c ****             break;
 549              		.loc 1 290 20 is_stmt 0 view .LVU165
 550 00ae 234C     		ldr	r4, .L63+88
 289:HW_Lib/AT32F435/bsp/Bsp_DMA.c ****             dma_ch = DMA2_CHANNEL5;
 551              		.loc 1 289 20 view .LVU166
 552 00b0 2348     		ldr	r0, .L63+92
 288:HW_Lib/AT32F435/bsp/Bsp_DMA.c ****             dmamux = DMA2MUX_CHANNEL5;
 553              		.loc 1 288 17 view .LVU167
 554 00b2 7025     		movs	r5, #112
 291:HW_Lib/AT32F435/bsp/Bsp_DMA.c **** 
ARM GAS  C:\Users\8bit\AppData\Local\Temp\cccZxcPc.s 			page 21


 555              		.loc 1 291 13 view .LVU168
 556 00b4 EEE7     		b	.L50
 557              	.LVL57:
 558              	.L46:
 294:HW_Lib/AT32F435/bsp/Bsp_DMA.c ****             dmamux = DMA2MUX_CHANNEL6;
 559              		.loc 1 294 13 is_stmt 1 view .LVU169
 295:HW_Lib/AT32F435/bsp/Bsp_DMA.c ****             dma_ch = DMA2_CHANNEL6;
 560              		.loc 1 295 13 view .LVU170
 296:HW_Lib/AT32F435/bsp/Bsp_DMA.c ****             break;
 561              		.loc 1 296 13 view .LVU171
 297:HW_Lib/AT32F435/bsp/Bsp_DMA.c **** 
 562              		.loc 1 297 13 view .LVU172
 296:HW_Lib/AT32F435/bsp/Bsp_DMA.c ****             break;
 563              		.loc 1 296 20 is_stmt 0 view .LVU173
 564 00b6 234C     		ldr	r4, .L63+96
 295:HW_Lib/AT32F435/bsp/Bsp_DMA.c ****             dma_ch = DMA2_CHANNEL6;
 565              		.loc 1 295 20 view .LVU174
 566 00b8 2348     		ldr	r0, .L63+100
 294:HW_Lib/AT32F435/bsp/Bsp_DMA.c ****             dmamux = DMA2MUX_CHANNEL6;
 567              		.loc 1 294 17 view .LVU175
 568 00ba 7125     		movs	r5, #113
 297:HW_Lib/AT32F435/bsp/Bsp_DMA.c **** 
 569              		.loc 1 297 13 view .LVU176
 570 00bc EAE7     		b	.L50
 571              	.LVL58:
 572              	.L44:
 300:HW_Lib/AT32F435/bsp/Bsp_DMA.c ****             dmamux = DMA2MUX_CHANNEL7;
 573              		.loc 1 300 13 is_stmt 1 view .LVU177
 301:HW_Lib/AT32F435/bsp/Bsp_DMA.c ****             dma_ch = DMA2_CHANNEL7;
 574              		.loc 1 301 13 view .LVU178
 302:HW_Lib/AT32F435/bsp/Bsp_DMA.c ****             break;
 575              		.loc 1 302 13 view .LVU179
 303:HW_Lib/AT32F435/bsp/Bsp_DMA.c **** 
 576              		.loc 1 303 13 view .LVU180
 302:HW_Lib/AT32F435/bsp/Bsp_DMA.c ****             break;
 577              		.loc 1 302 20 is_stmt 0 view .LVU181
 578 00be 234C     		ldr	r4, .L63+104
 301:HW_Lib/AT32F435/bsp/Bsp_DMA.c ****             dma_ch = DMA2_CHANNEL7;
 579              		.loc 1 301 20 view .LVU182
 580 00c0 2348     		ldr	r0, .L63+108
 300:HW_Lib/AT32F435/bsp/Bsp_DMA.c ****             dmamux = DMA2MUX_CHANNEL7;
 581              		.loc 1 300 17 view .LVU183
 582 00c2 7225     		movs	r5, #114
 303:HW_Lib/AT32F435/bsp/Bsp_DMA.c **** 
 583              		.loc 1 303 13 view .LVU184
 584 00c4 E6E7     		b	.L50
 585              	.LVL59:
 586              	.L58:
 272:HW_Lib/AT32F435/bsp/Bsp_DMA.c ****             break;
 587              		.loc 1 272 20 view .LVU185
 588 00c6 234C     		ldr	r4, .L63+112
 271:HW_Lib/AT32F435/bsp/Bsp_DMA.c ****             dma_ch = DMA2_CHANNEL2;
 589              		.loc 1 271 20 view .LVU186
 590 00c8 2348     		ldr	r0, .L63+116
 270:HW_Lib/AT32F435/bsp/Bsp_DMA.c ****             dmamux = DMA2MUX_CHANNEL2;
 591              		.loc 1 270 17 view .LVU187
 592 00ca 6D25     		movs	r5, #109
ARM GAS  C:\Users\8bit\AppData\Local\Temp\cccZxcPc.s 			page 22


 593 00cc E2E7     		b	.L50
 594              	.L52:
 595              	.LCFI1:
 596              		.cfi_def_cfa_offset 0
 597              		.cfi_restore 3
 598              		.cfi_restore 4
 599              		.cfi_restore 5
 600              		.cfi_restore 14
 205:HW_Lib/AT32F435/bsp/Bsp_DMA.c **** 
 601              		.loc 1 205 16 view .LVU188
 602 00ce 0020     		movs	r0, #0
 603 00d0 7047     		bx	lr
 604              	.L53:
 605 00d2 0020     		movs	r0, #0
 320:HW_Lib/AT32F435/bsp/Bsp_DMA.c **** 
 606              		.loc 1 320 1 view .LVU189
 607 00d4 7047     		bx	lr
 608              	.L54:
 609              	.LCFI2:
 610              		.cfi_def_cfa_offset 16
 611              		.cfi_offset 3, -16
 612              		.cfi_offset 4, -12
 613              		.cfi_offset 5, -8
 614              		.cfi_offset 14, -4
 209:HW_Lib/AT32F435/bsp/Bsp_DMA.c ****         {
 615              		.loc 1 209 9 view .LVU190
 616 00d6 0020     		movs	r0, #0
 617 00d8 B6E7     		b	.L33
 618              	.L56:
 312:HW_Lib/AT32F435/bsp/Bsp_DMA.c ****     
 619              		.loc 1 312 16 view .LVU191
 620 00da 0020     		movs	r0, #0
 621 00dc B4E7     		b	.L33
 622              	.L57:
 261:HW_Lib/AT32F435/bsp/Bsp_DMA.c ****         {
 623              		.loc 1 261 9 view .LVU192
 624 00de 0020     		movs	r0, #0
 625 00e0 B2E7     		b	.L33
 626              	.L64:
 627 00e2 00BF     		.align	2
 628              	.L63:
 629 00e4 08640240 		.word	1073898504
 630 00e8 04650240 		.word	1073898756
 631 00ec 00000000 		.word	.LANCHOR1
 632 00f0 30640240 		.word	1073898544
 633 00f4 0C650240 		.word	1073898764
 634 00f8 44640240 		.word	1073898564
 635 00fc 10650240 		.word	1073898768
 636 0100 58640240 		.word	1073898584
 637 0104 14650240 		.word	1073898772
 638 0108 6C640240 		.word	1073898604
 639 010c 18650240 		.word	1073898776
 640 0110 80640240 		.word	1073898624
 641 0114 1C650240 		.word	1073898780
 642 0118 1C640240 		.word	1073898524
 643 011c 08650240 		.word	1073898760
 644 0120 08660240 		.word	1073899016
ARM GAS  C:\Users\8bit\AppData\Local\Temp\cccZxcPc.s 			page 23


 645 0124 04670240 		.word	1073899268
 646 0128 00000000 		.word	.LANCHOR2
 647 012c 30660240 		.word	1073899056
 648 0130 0C670240 		.word	1073899276
 649 0134 44660240 		.word	1073899076
 650 0138 10670240 		.word	1073899280
 651 013c 58660240 		.word	1073899096
 652 0140 14670240 		.word	1073899284
 653 0144 6C660240 		.word	1073899116
 654 0148 18670240 		.word	1073899288
 655 014c 80660240 		.word	1073899136
 656 0150 1C670240 		.word	1073899292
 657 0154 1C660240 		.word	1073899036
 658 0158 08670240 		.word	1073899272
 659              		.cfi_endproc
 660              	.LFE138:
 662              		.section	.text.BspDMA_Pipe_DeInit,"ax",%progbits
 663              		.align	1
 664              		.syntax unified
 665              		.thumb
 666              		.thumb_func
 668              	BspDMA_Pipe_DeInit:
 669              	.LFB140:
 432:HW_Lib/AT32F435/bsp/Bsp_DMA.c ****     return BspDMA_DisableIRQ(Bsp_DMA_2, Bsp_DMA_Stream_7);
 670              		.loc 1 432 1 is_stmt 1 view -0
 671              		.cfi_startproc
 672              		@ args = 0, pretend = 0, frame = 0
 673              		@ frame_needed = 0, uses_anonymous_args = 0
 674 0000 08B5     		push	{r3, lr}
 675              	.LCFI3:
 676              		.cfi_def_cfa_offset 8
 677              		.cfi_offset 3, -8
 678              		.cfi_offset 14, -4
 433:HW_Lib/AT32F435/bsp/Bsp_DMA.c **** }
 679              		.loc 1 433 5 view .LVU194
 433:HW_Lib/AT32F435/bsp/Bsp_DMA.c **** }
 680              		.loc 1 433 12 is_stmt 0 view .LVU195
 681 0002 0621     		movs	r1, #6
 682 0004 0120     		movs	r0, #1
 683 0006 FFF7FEFF 		bl	BspDMA_DisableIRQ
 684              	.LVL60:
 434:HW_Lib/AT32F435/bsp/Bsp_DMA.c **** 
 685              		.loc 1 434 1 view .LVU196
 686 000a 08BD     		pop	{r3, pc}
 687              		.cfi_endproc
 688              	.LFE140:
 690              		.section	.text.BspDMA_Get_Instance,"ax",%progbits
 691              		.align	1
 692              		.syntax unified
 693              		.thumb
 694              		.thumb_func
 696              	BspDMA_Get_Instance:
 697              	.LVL61:
 698              	.LFB137:
 157:HW_Lib/AT32F435/bsp/Bsp_DMA.c ****     static bool dma1_enable = false;
 699              		.loc 1 157 1 is_stmt 1 view -0
 700              		.cfi_startproc
ARM GAS  C:\Users\8bit\AppData\Local\Temp\cccZxcPc.s 			page 24


 701              		@ args = 0, pretend = 0, frame = 0
 702              		@ frame_needed = 0, uses_anonymous_args = 0
 157:HW_Lib/AT32F435/bsp/Bsp_DMA.c ****     static bool dma1_enable = false;
 703              		.loc 1 157 1 is_stmt 0 view .LVU198
 704 0000 38B5     		push	{r3, r4, r5, lr}
 705              	.LCFI4:
 706              		.cfi_def_cfa_offset 16
 707              		.cfi_offset 3, -16
 708              		.cfi_offset 4, -12
 709              		.cfi_offset 5, -8
 710              		.cfi_offset 14, -4
 158:HW_Lib/AT32F435/bsp/Bsp_DMA.c ****     static bool dma2_enable = false;
 711              		.loc 1 158 5 is_stmt 1 view .LVU199
 159:HW_Lib/AT32F435/bsp/Bsp_DMA.c **** 
 712              		.loc 1 159 5 view .LVU200
 161:HW_Lib/AT32F435/bsp/Bsp_DMA.c ****         return NULL;
 713              		.loc 1 161 5 view .LVU201
 161:HW_Lib/AT32F435/bsp/Bsp_DMA.c ****         return NULL;
 714              		.loc 1 161 8 is_stmt 0 view .LVU202
 715 0002 041E     		subs	r4, r0, #0
 716 0004 38DB     		blt	.L73
 717 0006 0D46     		mov	r5, r1
 161:HW_Lib/AT32F435/bsp/Bsp_DMA.c ****         return NULL;
 718              		.loc 1 161 27 discriminator 1 view .LVU203
 719 0008 0029     		cmp	r1, #0
 720 000a 37DB     		blt	.L74
 165:HW_Lib/AT32F435/bsp/Bsp_DMA.c ****     {
 721              		.loc 1 165 5 is_stmt 1 view .LVU204
 165:HW_Lib/AT32F435/bsp/Bsp_DMA.c ****     {
 722              		.loc 1 165 9 is_stmt 0 view .LVU205
 723 000c 1E4B     		ldr	r3, .L82
 724 000e 1B78     		ldrb	r3, [r3]	@ zero_extendqisi2
 165:HW_Lib/AT32F435/bsp/Bsp_DMA.c ****     {
 725              		.loc 1 165 8 view .LVU206
 726 0010 7BB1     		cbz	r3, .L78
 727              	.LVL62:
 728              	.L69:
 172:HW_Lib/AT32F435/bsp/Bsp_DMA.c ****     {
 729              		.loc 1 172 5 is_stmt 1 view .LVU207
 172:HW_Lib/AT32F435/bsp/Bsp_DMA.c ****     {
 730              		.loc 1 172 8 is_stmt 0 view .LVU208
 731 0012 14B9     		cbnz	r4, .L70
 172:HW_Lib/AT32F435/bsp/Bsp_DMA.c ****     {
 732              		.loc 1 172 62 discriminator 1 view .LVU209
 733 0014 EBB2     		uxtb	r3, r5
 172:HW_Lib/AT32F435/bsp/Bsp_DMA.c ****     {
 734              		.loc 1 172 28 discriminator 1 view .LVU210
 735 0016 062B     		cmp	r3, #6
 736 0018 17D9     		bls	.L79
 737              	.L70:
 183:HW_Lib/AT32F435/bsp/Bsp_DMA.c ****     {
 738              		.loc 1 183 10 is_stmt 1 view .LVU211
 183:HW_Lib/AT32F435/bsp/Bsp_DMA.c ****     {
 739              		.loc 1 183 13 is_stmt 0 view .LVU212
 740 001a 012C     		cmp	r4, #1
 741 001c 30D1     		bne	.L75
 183:HW_Lib/AT32F435/bsp/Bsp_DMA.c ****     {
ARM GAS  C:\Users\8bit\AppData\Local\Temp\cccZxcPc.s 			page 25


 742              		.loc 1 183 65 discriminator 1 view .LVU213
 743 001e EBB2     		uxtb	r3, r5
 183:HW_Lib/AT32F435/bsp/Bsp_DMA.c ****     {
 744              		.loc 1 183 33 discriminator 1 view .LVU214
 745 0020 052B     		cmp	r3, #5
 746 0022 2FD8     		bhi	.L76
 185:HW_Lib/AT32F435/bsp/Bsp_DMA.c ****         {
 747              		.loc 1 185 9 is_stmt 1 view .LVU215
 185:HW_Lib/AT32F435/bsp/Bsp_DMA.c ****         {
 748              		.loc 1 185 13 is_stmt 0 view .LVU216
 749 0024 194B     		ldr	r3, .L82+4
 750 0026 1B78     		ldrb	r3, [r3]	@ zero_extendqisi2
 185:HW_Lib/AT32F435/bsp/Bsp_DMA.c ****         {
 751              		.loc 1 185 12 view .LVU217
 752 0028 F3B1     		cbz	r3, .L80
 753              	.L72:
 192:HW_Lib/AT32F435/bsp/Bsp_DMA.c ****     }
 754              		.loc 1 192 9 is_stmt 1 view .LVU218
 192:HW_Lib/AT32F435/bsp/Bsp_DMA.c ****     }
 755              		.loc 1 192 16 is_stmt 0 view .LVU219
 756 002a 194B     		ldr	r3, .L82+8
 757 002c 53F82500 		ldr	r0, [r3, r5, lsl #2]
 758 0030 27E0     		b	.L67
 759              	.LVL63:
 760              	.L78:
 167:HW_Lib/AT32F435/bsp/Bsp_DMA.c ****         crm_periph_clock_enable(CRM_DMA1_PERIPH_CLOCK, TRUE);
 761              		.loc 1 167 9 is_stmt 1 view .LVU220
 762 0032 0121     		movs	r1, #1
 763              	.LVL64:
 167:HW_Lib/AT32F435/bsp/Bsp_DMA.c ****         crm_periph_clock_enable(CRM_DMA1_PERIPH_CLOCK, TRUE);
 764              		.loc 1 167 9 is_stmt 0 view .LVU221
 765 0034 1748     		ldr	r0, .L82+12
 766              	.LVL65:
 167:HW_Lib/AT32F435/bsp/Bsp_DMA.c ****         crm_periph_clock_enable(CRM_DMA1_PERIPH_CLOCK, TRUE);
 767              		.loc 1 167 9 view .LVU222
 768 0036 FFF7FEFF 		bl	crm_periph_clock_enable
 769              	.LVL66:
 168:HW_Lib/AT32F435/bsp/Bsp_DMA.c ****         Dma_Clock_Init = true;
 770              		.loc 1 168 9 is_stmt 1 view .LVU223
 771 003a 0121     		movs	r1, #1
 772 003c 1648     		ldr	r0, .L82+16
 773 003e FFF7FEFF 		bl	crm_periph_clock_enable
 774              	.LVL67:
 169:HW_Lib/AT32F435/bsp/Bsp_DMA.c ****     }
 775              		.loc 1 169 9 view .LVU224
 169:HW_Lib/AT32F435/bsp/Bsp_DMA.c ****     }
 776              		.loc 1 169 24 is_stmt 0 view .LVU225
 777 0042 114B     		ldr	r3, .L82
 778 0044 0122     		movs	r2, #1
 779 0046 1A70     		strb	r2, [r3]
 780 0048 E3E7     		b	.L69
 781              	.L79:
 174:HW_Lib/AT32F435/bsp/Bsp_DMA.c ****         {
 782              		.loc 1 174 9 is_stmt 1 view .LVU226
 174:HW_Lib/AT32F435/bsp/Bsp_DMA.c ****         {
 783              		.loc 1 174 13 is_stmt 0 view .LVU227
 784 004a 144B     		ldr	r3, .L82+20
ARM GAS  C:\Users\8bit\AppData\Local\Temp\cccZxcPc.s 			page 26


 785 004c 1B78     		ldrb	r3, [r3]	@ zero_extendqisi2
 174:HW_Lib/AT32F435/bsp/Bsp_DMA.c ****         {
 786              		.loc 1 174 12 view .LVU228
 787 004e 1BB1     		cbz	r3, .L81
 788              	.L71:
 181:HW_Lib/AT32F435/bsp/Bsp_DMA.c ****     }
 789              		.loc 1 181 9 is_stmt 1 view .LVU229
 181:HW_Lib/AT32F435/bsp/Bsp_DMA.c ****     }
 790              		.loc 1 181 16 is_stmt 0 view .LVU230
 791 0050 134B     		ldr	r3, .L82+24
 792 0052 53F82500 		ldr	r0, [r3, r5, lsl #2]
 793 0056 14E0     		b	.L67
 794              	.L81:
 177:HW_Lib/AT32F435/bsp/Bsp_DMA.c ****             dma1_enable = true;
 795              		.loc 1 177 13 is_stmt 1 view .LVU231
 796 0058 0121     		movs	r1, #1
 797 005a 1248     		ldr	r0, .L82+28
 798 005c FFF7FEFF 		bl	dmamux_enable
 799              	.LVL68:
 178:HW_Lib/AT32F435/bsp/Bsp_DMA.c ****         }
 800              		.loc 1 178 13 view .LVU232
 178:HW_Lib/AT32F435/bsp/Bsp_DMA.c ****         }
 801              		.loc 1 178 25 is_stmt 0 view .LVU233
 802 0060 0E4B     		ldr	r3, .L82+20
 803 0062 0122     		movs	r2, #1
 804 0064 1A70     		strb	r2, [r3]
 805 0066 F3E7     		b	.L71
 806              	.L80:
 188:HW_Lib/AT32F435/bsp/Bsp_DMA.c ****             dma2_enable = true;
 807              		.loc 1 188 13 is_stmt 1 view .LVU234
 808 0068 0121     		movs	r1, #1
 809 006a 0F48     		ldr	r0, .L82+32
 810 006c FFF7FEFF 		bl	dmamux_enable
 811              	.LVL69:
 189:HW_Lib/AT32F435/bsp/Bsp_DMA.c ****         }
 812              		.loc 1 189 13 view .LVU235
 189:HW_Lib/AT32F435/bsp/Bsp_DMA.c ****         }
 813              		.loc 1 189 25 is_stmt 0 view .LVU236
 814 0070 064B     		ldr	r3, .L82+4
 815 0072 0122     		movs	r2, #1
 816 0074 1A70     		strb	r2, [r3]
 817 0076 D8E7     		b	.L72
 818              	.LVL70:
 819              	.L73:
 162:HW_Lib/AT32F435/bsp/Bsp_DMA.c **** 
 820              		.loc 1 162 16 view .LVU237
 821 0078 0020     		movs	r0, #0
 822              	.LVL71:
 162:HW_Lib/AT32F435/bsp/Bsp_DMA.c **** 
 823              		.loc 1 162 16 view .LVU238
 824 007a 02E0     		b	.L67
 825              	.LVL72:
 826              	.L74:
 162:HW_Lib/AT32F435/bsp/Bsp_DMA.c **** 
 827              		.loc 1 162 16 view .LVU239
 828 007c 0020     		movs	r0, #0
 829              	.LVL73:
ARM GAS  C:\Users\8bit\AppData\Local\Temp\cccZxcPc.s 			page 27


 162:HW_Lib/AT32F435/bsp/Bsp_DMA.c **** 
 830              		.loc 1 162 16 view .LVU240
 831 007e 00E0     		b	.L67
 832              	.LVL74:
 833              	.L75:
 195:HW_Lib/AT32F435/bsp/Bsp_DMA.c **** }
 834              		.loc 1 195 12 view .LVU241
 835 0080 0020     		movs	r0, #0
 836              	.L67:
 196:HW_Lib/AT32F435/bsp/Bsp_DMA.c **** 
 837              		.loc 1 196 1 view .LVU242
 838 0082 38BD     		pop	{r3, r4, r5, pc}
 839              	.L76:
 195:HW_Lib/AT32F435/bsp/Bsp_DMA.c **** }
 840              		.loc 1 195 12 view .LVU243
 841 0084 0020     		movs	r0, #0
 842 0086 FCE7     		b	.L67
 843              	.L83:
 844              		.align	2
 845              	.L82:
 846 0088 00000000 		.word	.LANCHOR3
 847 008c 00000000 		.word	.LANCHOR6
 848 0090 00000000 		.word	.LANCHOR7
 849 0094 18003000 		.word	3145752
 850 0098 16003000 		.word	3145750
 851 009c 00000000 		.word	.LANCHOR4
 852 00a0 00000000 		.word	.LANCHOR5
 853 00a4 00640240 		.word	1073898496
 854 00a8 00660240 		.word	1073899008
 855              		.cfi_endproc
 856              	.LFE137:
 858              		.section	.text.BspDMA_EnableIRQ,"ax",%progbits
 859              		.align	1
 860              		.syntax unified
 861              		.thumb
 862              		.thumb_func
 864              	BspDMA_EnableIRQ:
 865              	.LVL75:
 866              	.LFB139:
 323:HW_Lib/AT32F435/bsp/Bsp_DMA.c ****     IRQn_Type irq;
 867              		.loc 1 323 1 is_stmt 1 view -0
 868              		.cfi_startproc
 869              		@ args = 8, pretend = 0, frame = 0
 870              		@ frame_needed = 0, uses_anonymous_args = 0
 323:HW_Lib/AT32F435/bsp/Bsp_DMA.c ****     IRQn_Type irq;
 871              		.loc 1 323 1 is_stmt 0 view .LVU245
 872 0000 2DE9F041 		push	{r4, r5, r6, r7, r8, lr}
 873              	.LCFI5:
 874              		.cfi_def_cfa_offset 24
 875              		.cfi_offset 4, -24
 876              		.cfi_offset 5, -20
 877              		.cfi_offset 6, -16
 878              		.cfi_offset 7, -12
 879              		.cfi_offset 8, -8
 880              		.cfi_offset 14, -4
 324:HW_Lib/AT32F435/bsp/Bsp_DMA.c ****     dmamux_channel_type *dmamux = NULL;
 881              		.loc 1 324 5 is_stmt 1 view .LVU246
ARM GAS  C:\Users\8bit\AppData\Local\Temp\cccZxcPc.s 			page 28


 325:HW_Lib/AT32F435/bsp/Bsp_DMA.c **** 
 882              		.loc 1 325 5 view .LVU247
 883              	.LVL76:
 327:HW_Lib/AT32F435/bsp/Bsp_DMA.c ****         return;
 884              		.loc 1 327 5 view .LVU248
 327:HW_Lib/AT32F435/bsp/Bsp_DMA.c ****         return;
 885              		.loc 1 327 8 is_stmt 0 view .LVU249
 886 0004 051E     		subs	r5, r0, #0
 887 0006 29DB     		blt	.L84
 888 0008 0C46     		mov	r4, r1
 889 000a 1746     		mov	r7, r2
 890 000c 1E46     		mov	r6, r3
 327:HW_Lib/AT32F435/bsp/Bsp_DMA.c ****         return;
 891              		.loc 1 327 27 discriminator 1 view .LVU250
 892 000e 0029     		cmp	r1, #0
 893 0010 24DB     		blt	.L84
 330:HW_Lib/AT32F435/bsp/Bsp_DMA.c ****     {
 894              		.loc 1 330 5 is_stmt 1 view .LVU251
 330:HW_Lib/AT32F435/bsp/Bsp_DMA.c ****     {
 895              		.loc 1 330 8 is_stmt 0 view .LVU252
 896 0012 002D     		cmp	r5, #0
 897 0014 3CD1     		bne	.L86
 332:HW_Lib/AT32F435/bsp/Bsp_DMA.c ****         {
 898              		.loc 1 332 9 is_stmt 1 view .LVU253
 899 0016 0629     		cmp	r1, #6
 900 0018 20D8     		bhi	.L84
 901 001a DFE801F0 		tbb	[pc, r1]
 902              	.LVL77:
 903              	.L88:
 904 001e 04       		.byte	(.L94-.L88)/2
 905 001f 35       		.byte	(.L104-.L88)/2
 906 0020 21       		.byte	(.L92-.L88)/2
 907 0021 25       		.byte	(.L91-.L88)/2
 908 0022 29       		.byte	(.L90-.L88)/2
 909 0023 2D       		.byte	(.L89-.L88)/2
 910 0024 31       		.byte	(.L87-.L88)/2
 911 0025 00       		.p2align 1
 912              	.L94:
 332:HW_Lib/AT32F435/bsp/Bsp_DMA.c ****         {
 913              		.loc 1 332 9 is_stmt 0 view .LVU254
 914 0026 2F48     		ldr	r0, .L107
 915              	.LVL78:
 332:HW_Lib/AT32F435/bsp/Bsp_DMA.c ****         {
 916              		.loc 1 332 9 view .LVU255
 917 0028 4FF03808 		mov	r8, #56
 918              	.LVL79:
 919              	.L93:
 373:HW_Lib/AT32F435/bsp/Bsp_DMA.c ****     }
 920              		.loc 1 373 9 is_stmt 1 view .LVU256
 373:HW_Lib/AT32F435/bsp/Bsp_DMA.c ****     }
 921              		.loc 1 373 43 is_stmt 0 view .LVU257
 922 002c 2E4B     		ldr	r3, .L107+4
 923 002e 079A     		ldr	r2, [sp, #28]
 924              	.LVL80:
 373:HW_Lib/AT32F435/bsp/Bsp_DMA.c ****     }
 925              		.loc 1 373 43 view .LVU258
 926 0030 43F82420 		str	r2, [r3, r4, lsl #2]
ARM GAS  C:\Users\8bit\AppData\Local\Temp\cccZxcPc.s 			page 29


 927              	.L95:
 423:HW_Lib/AT32F435/bsp/Bsp_DMA.c ****         dmamux_init(dmamux, (dmamux_requst_id_sel_type)mux_seq);
 928              		.loc 1 423 5 is_stmt 1 view .LVU259
 424:HW_Lib/AT32F435/bsp/Bsp_DMA.c **** 
 929              		.loc 1 424 9 view .LVU260
 930 0034 9DF81810 		ldrb	r1, [sp, #24]	@ zero_extendqisi2
 931              	.LVL81:
 424:HW_Lib/AT32F435/bsp/Bsp_DMA.c **** 
 932              		.loc 1 424 9 is_stmt 0 view .LVU261
 933 0038 FFF7FEFF 		bl	dmamux_init
 934              	.LVL82:
 426:HW_Lib/AT32F435/bsp/Bsp_DMA.c ****     nvic_priority_group_config(NVIC_PRIORITY_GROUP_4);
 935              		.loc 1 426 5 is_stmt 1 view .LVU262
 936 003c 2146     		mov	r1, r4
 937 003e 2846     		mov	r0, r5
 938 0040 FFF7FEFF 		bl	BspDMA_Get_Instance
 939              	.LVL83:
 940 0044 0122     		movs	r2, #1
 941 0046 0221     		movs	r1, #2
 942 0048 FFF7FEFF 		bl	dma_interrupt_enable
 943              	.LVL84:
 427:HW_Lib/AT32F435/bsp/Bsp_DMA.c ****     nvic_irq_enable(irq, preempt, sub);
 944              		.loc 1 427 5 view .LVU263
 945 004c 0320     		movs	r0, #3
 946 004e FFF7FEFF 		bl	nvic_priority_group_config
 947              	.LVL85:
 428:HW_Lib/AT32F435/bsp/Bsp_DMA.c **** }
 948              		.loc 1 428 5 view .LVU264
 949 0052 3246     		mov	r2, r6
 950 0054 3946     		mov	r1, r7
 951 0056 4046     		mov	r0, r8
 952 0058 FFF7FEFF 		bl	nvic_irq_enable
 953              	.LVL86:
 954              	.L84:
 429:HW_Lib/AT32F435/bsp/Bsp_DMA.c **** 
 955              		.loc 1 429 1 is_stmt 0 view .LVU265
 956 005c BDE8F081 		pop	{r4, r5, r6, r7, r8, pc}
 957              	.LVL87:
 958              	.L92:
 345:HW_Lib/AT32F435/bsp/Bsp_DMA.c ****             dmamux = DMA1MUX_CHANNEL3;
 959              		.loc 1 345 13 is_stmt 1 view .LVU266
 346:HW_Lib/AT32F435/bsp/Bsp_DMA.c ****             break;
 960              		.loc 1 346 13 view .LVU267
 347:HW_Lib/AT32F435/bsp/Bsp_DMA.c **** 
 961              		.loc 1 347 13 view .LVU268
 346:HW_Lib/AT32F435/bsp/Bsp_DMA.c ****             break;
 962              		.loc 1 346 20 is_stmt 0 view .LVU269
 963 0060 2248     		ldr	r0, .L107+8
 964              	.LVL88:
 345:HW_Lib/AT32F435/bsp/Bsp_DMA.c ****             dmamux = DMA1MUX_CHANNEL3;
 965              		.loc 1 345 17 view .LVU270
 966 0062 4FF03A08 		mov	r8, #58
 347:HW_Lib/AT32F435/bsp/Bsp_DMA.c **** 
 967              		.loc 1 347 13 view .LVU271
 968 0066 E1E7     		b	.L93
 969              	.LVL89:
 970              	.L91:
ARM GAS  C:\Users\8bit\AppData\Local\Temp\cccZxcPc.s 			page 30


 350:HW_Lib/AT32F435/bsp/Bsp_DMA.c ****             dmamux = DMA1MUX_CHANNEL4;
 971              		.loc 1 350 13 is_stmt 1 view .LVU272
 351:HW_Lib/AT32F435/bsp/Bsp_DMA.c ****             break;
 972              		.loc 1 351 13 view .LVU273
 352:HW_Lib/AT32F435/bsp/Bsp_DMA.c **** 
 973              		.loc 1 352 13 view .LVU274
 351:HW_Lib/AT32F435/bsp/Bsp_DMA.c ****             break;
 974              		.loc 1 351 20 is_stmt 0 view .LVU275
 975 0068 2148     		ldr	r0, .L107+12
 976              	.LVL90:
 350:HW_Lib/AT32F435/bsp/Bsp_DMA.c ****             dmamux = DMA1MUX_CHANNEL4;
 977              		.loc 1 350 17 view .LVU276
 978 006a 4FF03B08 		mov	r8, #59
 352:HW_Lib/AT32F435/bsp/Bsp_DMA.c **** 
 979              		.loc 1 352 13 view .LVU277
 980 006e DDE7     		b	.L93
 981              	.LVL91:
 982              	.L90:
 355:HW_Lib/AT32F435/bsp/Bsp_DMA.c ****             dmamux = DMA1MUX_CHANNEL5;
 983              		.loc 1 355 13 is_stmt 1 view .LVU278
 356:HW_Lib/AT32F435/bsp/Bsp_DMA.c ****             break;
 984              		.loc 1 356 13 view .LVU279
 357:HW_Lib/AT32F435/bsp/Bsp_DMA.c **** 
 985              		.loc 1 357 13 view .LVU280
 356:HW_Lib/AT32F435/bsp/Bsp_DMA.c ****             break;
 986              		.loc 1 356 20 is_stmt 0 view .LVU281
 987 0070 2048     		ldr	r0, .L107+16
 988              	.LVL92:
 355:HW_Lib/AT32F435/bsp/Bsp_DMA.c ****             dmamux = DMA1MUX_CHANNEL5;
 989              		.loc 1 355 17 view .LVU282
 990 0072 4FF03C08 		mov	r8, #60
 357:HW_Lib/AT32F435/bsp/Bsp_DMA.c **** 
 991              		.loc 1 357 13 view .LVU283
 992 0076 D9E7     		b	.L93
 993              	.LVL93:
 994              	.L89:
 360:HW_Lib/AT32F435/bsp/Bsp_DMA.c ****             dmamux = DMA1MUX_CHANNEL6;
 995              		.loc 1 360 13 is_stmt 1 view .LVU284
 361:HW_Lib/AT32F435/bsp/Bsp_DMA.c ****             break;
 996              		.loc 1 361 13 view .LVU285
 362:HW_Lib/AT32F435/bsp/Bsp_DMA.c **** 
 997              		.loc 1 362 13 view .LVU286
 361:HW_Lib/AT32F435/bsp/Bsp_DMA.c ****             break;
 998              		.loc 1 361 20 is_stmt 0 view .LVU287
 999 0078 1F48     		ldr	r0, .L107+20
 1000              	.LVL94:
 360:HW_Lib/AT32F435/bsp/Bsp_DMA.c ****             dmamux = DMA1MUX_CHANNEL6;
 1001              		.loc 1 360 17 view .LVU288
 1002 007a 4FF04408 		mov	r8, #68
 362:HW_Lib/AT32F435/bsp/Bsp_DMA.c **** 
 1003              		.loc 1 362 13 view .LVU289
 1004 007e D5E7     		b	.L93
 1005              	.LVL95:
 1006              	.L87:
 365:HW_Lib/AT32F435/bsp/Bsp_DMA.c ****             dmamux = DMA1MUX_CHANNEL7;
 1007              		.loc 1 365 13 is_stmt 1 view .LVU290
 366:HW_Lib/AT32F435/bsp/Bsp_DMA.c ****             break;
ARM GAS  C:\Users\8bit\AppData\Local\Temp\cccZxcPc.s 			page 31


 1008              		.loc 1 366 13 view .LVU291
 367:HW_Lib/AT32F435/bsp/Bsp_DMA.c **** 
 1009              		.loc 1 367 13 view .LVU292
 366:HW_Lib/AT32F435/bsp/Bsp_DMA.c ****             break;
 1010              		.loc 1 366 20 is_stmt 0 view .LVU293
 1011 0080 1E48     		ldr	r0, .L107+24
 1012              	.LVL96:
 365:HW_Lib/AT32F435/bsp/Bsp_DMA.c ****             dmamux = DMA1MUX_CHANNEL7;
 1013              		.loc 1 365 17 view .LVU294
 1014 0082 4FF04508 		mov	r8, #69
 367:HW_Lib/AT32F435/bsp/Bsp_DMA.c **** 
 1015              		.loc 1 367 13 view .LVU295
 1016 0086 D1E7     		b	.L93
 1017              	.LVL97:
 1018              	.L104:
 341:HW_Lib/AT32F435/bsp/Bsp_DMA.c ****             break;
 1019              		.loc 1 341 20 view .LVU296
 1020 0088 1D48     		ldr	r0, .L107+28
 1021              	.LVL98:
 340:HW_Lib/AT32F435/bsp/Bsp_DMA.c ****             dmamux = DMA1MUX_CHANNEL2;
 1022              		.loc 1 340 17 view .LVU297
 1023 008a 4FF03908 		mov	r8, #57
 1024 008e CDE7     		b	.L93
 1025              	.LVL99:
 1026              	.L86:
 375:HW_Lib/AT32F435/bsp/Bsp_DMA.c ****     {
 1027              		.loc 1 375 10 is_stmt 1 view .LVU298
 375:HW_Lib/AT32F435/bsp/Bsp_DMA.c ****     {
 1028              		.loc 1 375 13 is_stmt 0 view .LVU299
 1029 0090 012D     		cmp	r5, #1
 1030 0092 E3D1     		bne	.L84
 377:HW_Lib/AT32F435/bsp/Bsp_DMA.c ****         {
 1031              		.loc 1 377 9 is_stmt 1 view .LVU300
 1032 0094 0629     		cmp	r1, #6
 1033 0096 E1D8     		bhi	.L84
 1034 0098 DFE801F0 		tbb	[pc, r1]
 1035              	.LVL100:
 1036              	.L97:
 1037 009c 04       		.byte	(.L103-.L97)/2
 1038 009d 20       		.byte	(.L105-.L97)/2
 1039 009e 0C       		.byte	(.L101-.L97)/2
 1040 009f 10       		.byte	(.L100-.L97)/2
 1041 00a0 14       		.byte	(.L99-.L97)/2
 1042 00a1 18       		.byte	(.L98-.L97)/2
 1043 00a2 1C       		.byte	(.L96-.L97)/2
 1044 00a3 00       		.p2align 1
 1045              	.L103:
 377:HW_Lib/AT32F435/bsp/Bsp_DMA.c ****         {
 1046              		.loc 1 377 9 is_stmt 0 view .LVU301
 1047 00a4 1748     		ldr	r0, .L107+32
 1048              	.LVL101:
 377:HW_Lib/AT32F435/bsp/Bsp_DMA.c ****         {
 1049              		.loc 1 377 9 view .LVU302
 1050 00a6 4FF06C08 		mov	r8, #108
 1051              	.LVL102:
 1052              	.L102:
 418:HW_Lib/AT32F435/bsp/Bsp_DMA.c ****     }
ARM GAS  C:\Users\8bit\AppData\Local\Temp\cccZxcPc.s 			page 32


 1053              		.loc 1 418 9 is_stmt 1 view .LVU303
 418:HW_Lib/AT32F435/bsp/Bsp_DMA.c ****     }
 1054              		.loc 1 418 43 is_stmt 0 view .LVU304
 1055 00aa 174B     		ldr	r3, .L107+36
 1056 00ac 079A     		ldr	r2, [sp, #28]
 1057              	.LVL103:
 418:HW_Lib/AT32F435/bsp/Bsp_DMA.c ****     }
 1058              		.loc 1 418 43 view .LVU305
 1059 00ae 43F82420 		str	r2, [r3, r4, lsl #2]
 1060 00b2 BFE7     		b	.L95
 1061              	.LVL104:
 1062              	.L101:
 390:HW_Lib/AT32F435/bsp/Bsp_DMA.c ****             dmamux = DMA2MUX_CHANNEL3;
 1063              		.loc 1 390 13 is_stmt 1 view .LVU306
 391:HW_Lib/AT32F435/bsp/Bsp_DMA.c ****             break;
 1064              		.loc 1 391 13 view .LVU307
 392:HW_Lib/AT32F435/bsp/Bsp_DMA.c **** 
 1065              		.loc 1 392 13 view .LVU308
 391:HW_Lib/AT32F435/bsp/Bsp_DMA.c ****             break;
 1066              		.loc 1 391 20 is_stmt 0 view .LVU309
 1067 00b4 1548     		ldr	r0, .L107+40
 1068              	.LVL105:
 390:HW_Lib/AT32F435/bsp/Bsp_DMA.c ****             dmamux = DMA2MUX_CHANNEL3;
 1069              		.loc 1 390 17 view .LVU310
 1070 00b6 4FF06E08 		mov	r8, #110
 392:HW_Lib/AT32F435/bsp/Bsp_DMA.c **** 
 1071              		.loc 1 392 13 view .LVU311
 1072 00ba F6E7     		b	.L102
 1073              	.LVL106:
 1074              	.L100:
 395:HW_Lib/AT32F435/bsp/Bsp_DMA.c ****             dmamux = DMA2MUX_CHANNEL4;
 1075              		.loc 1 395 13 is_stmt 1 view .LVU312
 396:HW_Lib/AT32F435/bsp/Bsp_DMA.c ****             break;
 1076              		.loc 1 396 13 view .LVU313
 397:HW_Lib/AT32F435/bsp/Bsp_DMA.c **** 
 1077              		.loc 1 397 13 view .LVU314
 396:HW_Lib/AT32F435/bsp/Bsp_DMA.c ****             break;
 1078              		.loc 1 396 20 is_stmt 0 view .LVU315
 1079 00bc 1448     		ldr	r0, .L107+44
 1080              	.LVL107:
 395:HW_Lib/AT32F435/bsp/Bsp_DMA.c ****             dmamux = DMA2MUX_CHANNEL4;
 1081              		.loc 1 395 17 view .LVU316
 1082 00be 4FF06F08 		mov	r8, #111
 397:HW_Lib/AT32F435/bsp/Bsp_DMA.c **** 
 1083              		.loc 1 397 13 view .LVU317
 1084 00c2 F2E7     		b	.L102
 1085              	.LVL108:
 1086              	.L99:
 400:HW_Lib/AT32F435/bsp/Bsp_DMA.c ****             dmamux = DMA2MUX_CHANNEL5;
 1087              		.loc 1 400 13 is_stmt 1 view .LVU318
 401:HW_Lib/AT32F435/bsp/Bsp_DMA.c ****             break;
 1088              		.loc 1 401 13 view .LVU319
 402:HW_Lib/AT32F435/bsp/Bsp_DMA.c **** 
 1089              		.loc 1 402 13 view .LVU320
 401:HW_Lib/AT32F435/bsp/Bsp_DMA.c ****             break;
 1090              		.loc 1 401 20 is_stmt 0 view .LVU321
 1091 00c4 1348     		ldr	r0, .L107+48
ARM GAS  C:\Users\8bit\AppData\Local\Temp\cccZxcPc.s 			page 33


 1092              	.LVL109:
 400:HW_Lib/AT32F435/bsp/Bsp_DMA.c ****             dmamux = DMA2MUX_CHANNEL5;
 1093              		.loc 1 400 17 view .LVU322
 1094 00c6 4FF07008 		mov	r8, #112
 402:HW_Lib/AT32F435/bsp/Bsp_DMA.c **** 
 1095              		.loc 1 402 13 view .LVU323
 1096 00ca EEE7     		b	.L102
 1097              	.LVL110:
 1098              	.L98:
 405:HW_Lib/AT32F435/bsp/Bsp_DMA.c ****             dmamux = DMA2MUX_CHANNEL6;
 1099              		.loc 1 405 13 is_stmt 1 view .LVU324
 406:HW_Lib/AT32F435/bsp/Bsp_DMA.c ****             break;
 1100              		.loc 1 406 13 view .LVU325
 407:HW_Lib/AT32F435/bsp/Bsp_DMA.c **** 
 1101              		.loc 1 407 13 view .LVU326
 406:HW_Lib/AT32F435/bsp/Bsp_DMA.c ****             break;
 1102              		.loc 1 406 20 is_stmt 0 view .LVU327
 1103 00cc 1248     		ldr	r0, .L107+52
 1104              	.LVL111:
 405:HW_Lib/AT32F435/bsp/Bsp_DMA.c ****             dmamux = DMA2MUX_CHANNEL6;
 1105              		.loc 1 405 17 view .LVU328
 1106 00ce 4FF07108 		mov	r8, #113
 407:HW_Lib/AT32F435/bsp/Bsp_DMA.c **** 
 1107              		.loc 1 407 13 view .LVU329
 1108 00d2 EAE7     		b	.L102
 1109              	.LVL112:
 1110              	.L96:
 410:HW_Lib/AT32F435/bsp/Bsp_DMA.c ****             dmamux = DMA2MUX_CHANNEL7;
 1111              		.loc 1 410 13 is_stmt 1 view .LVU330
 411:HW_Lib/AT32F435/bsp/Bsp_DMA.c ****             break;
 1112              		.loc 1 411 13 view .LVU331
 412:HW_Lib/AT32F435/bsp/Bsp_DMA.c **** 
 1113              		.loc 1 412 13 view .LVU332
 411:HW_Lib/AT32F435/bsp/Bsp_DMA.c ****             break;
 1114              		.loc 1 411 20 is_stmt 0 view .LVU333
 1115 00d4 1148     		ldr	r0, .L107+56
 1116              	.LVL113:
 410:HW_Lib/AT32F435/bsp/Bsp_DMA.c ****             dmamux = DMA2MUX_CHANNEL7;
 1117              		.loc 1 410 17 view .LVU334
 1118 00d6 4FF07208 		mov	r8, #114
 412:HW_Lib/AT32F435/bsp/Bsp_DMA.c **** 
 1119              		.loc 1 412 13 view .LVU335
 1120 00da E6E7     		b	.L102
 1121              	.LVL114:
 1122              	.L105:
 386:HW_Lib/AT32F435/bsp/Bsp_DMA.c ****             break;
 1123              		.loc 1 386 20 view .LVU336
 1124 00dc 1048     		ldr	r0, .L107+60
 1125              	.LVL115:
 385:HW_Lib/AT32F435/bsp/Bsp_DMA.c ****             dmamux = DMA2MUX_CHANNEL2;
 1126              		.loc 1 385 17 view .LVU337
 1127 00de 4FF06D08 		mov	r8, #109
 1128 00e2 E2E7     		b	.L102
 1129              	.L108:
 1130              		.align	2
 1131              	.L107:
 1132 00e4 04650240 		.word	1073898756
ARM GAS  C:\Users\8bit\AppData\Local\Temp\cccZxcPc.s 			page 34


 1133 00e8 00000000 		.word	.LANCHOR1
 1134 00ec 0C650240 		.word	1073898764
 1135 00f0 10650240 		.word	1073898768
 1136 00f4 14650240 		.word	1073898772
 1137 00f8 18650240 		.word	1073898776
 1138 00fc 1C650240 		.word	1073898780
 1139 0100 08650240 		.word	1073898760
 1140 0104 04670240 		.word	1073899268
 1141 0108 00000000 		.word	.LANCHOR2
 1142 010c 0C670240 		.word	1073899276
 1143 0110 10670240 		.word	1073899280
 1144 0114 14670240 		.word	1073899284
 1145 0118 18670240 		.word	1073899288
 1146 011c 1C670240 		.word	1073899292
 1147 0120 08670240 		.word	1073899272
 1148              		.cfi_endproc
 1149              	.LFE139:
 1151              		.section	.text.BspDMA_Pipe_Trans,"ax",%progbits
 1152              		.align	1
 1153              		.syntax unified
 1154              		.thumb
 1155              		.thumb_func
 1157              	BspDMA_Pipe_Trans:
 1158              	.LVL116:
 1159              	.LFB142:
 478:HW_Lib/AT32F435/bsp/Bsp_DMA.c ****     if(!DataPipe_DMA_Init)
 1160              		.loc 1 478 1 is_stmt 1 view -0
 1161              		.cfi_startproc
 1162              		@ args = 0, pretend = 0, frame = 0
 1163              		@ frame_needed = 0, uses_anonymous_args = 0
 478:HW_Lib/AT32F435/bsp/Bsp_DMA.c ****     if(!DataPipe_DMA_Init)
 1164              		.loc 1 478 1 is_stmt 0 view .LVU339
 1165 0000 10B5     		push	{r4, lr}
 1166              	.LCFI6:
 1167              		.cfi_def_cfa_offset 8
 1168              		.cfi_offset 4, -8
 1169              		.cfi_offset 14, -4
 479:HW_Lib/AT32F435/bsp/Bsp_DMA.c ****         return false;
 1170              		.loc 1 479 5 is_stmt 1 view .LVU340
 479:HW_Lib/AT32F435/bsp/Bsp_DMA.c ****         return false;
 1171              		.loc 1 479 8 is_stmt 0 view .LVU341
 1172 0002 0F4B     		ldr	r3, .L116
 1173 0004 1C78     		ldrb	r4, [r3]	@ zero_extendqisi2
 479:HW_Lib/AT32F435/bsp/Bsp_DMA.c ****         return false;
 1174              		.loc 1 479 7 view .LVU342
 1175 0006 B4B1     		cbz	r4, .L110
 482:HW_Lib/AT32F435/bsp/Bsp_DMA.c ****         return false;
 1176              		.loc 1 482 5 is_stmt 1 view .LVU343
 482:HW_Lib/AT32F435/bsp/Bsp_DMA.c ****         return false;
 1177              		.loc 1 482 7 is_stmt 0 view .LVU344
 1178 0008 A0B1     		cbz	r0, .L111
 482:HW_Lib/AT32F435/bsp/Bsp_DMA.c ****         return false;
 1179              		.loc 1 482 26 discriminator 1 view .LVU345
 1180 000a B1B1     		cbz	r1, .L112
 482:HW_Lib/AT32F435/bsp/Bsp_DMA.c ****         return false;
 1181              		.loc 1 482 47 discriminator 2 view .LVU346
 1182 000c 0AB9     		cbnz	r2, .L115
ARM GAS  C:\Users\8bit\AppData\Local\Temp\cccZxcPc.s 			page 35


 483:HW_Lib/AT32F435/bsp/Bsp_DMA.c **** 
 1183              		.loc 1 483 16 view .LVU347
 1184 000e 0024     		movs	r4, #0
 1185 0010 11E0     		b	.L110
 1186              	.L115:
 485:HW_Lib/AT32F435/bsp/Bsp_DMA.c ****     DMA2_CHANNEL7->paddr = SrcAddress;
 1187              		.loc 1 485 5 is_stmt 1 view .LVU348
 485:HW_Lib/AT32F435/bsp/Bsp_DMA.c ****     DMA2_CHANNEL7->paddr = SrcAddress;
 1188              		.loc 1 485 26 is_stmt 0 view .LVU349
 1189 0012 0C4B     		ldr	r3, .L116+4
 1190 0014 C3F88C10 		str	r1, [r3, #140]
 486:HW_Lib/AT32F435/bsp/Bsp_DMA.c ****     DMA2_CHANNEL7->dtcnt_bit.cnt = DataLength;
 1191              		.loc 1 486 5 is_stmt 1 view .LVU350
 486:HW_Lib/AT32F435/bsp/Bsp_DMA.c ****     DMA2_CHANNEL7->dtcnt_bit.cnt = DataLength;
 1192              		.loc 1 486 26 is_stmt 0 view .LVU351
 1193 0018 C3F88800 		str	r0, [r3, #136]
 487:HW_Lib/AT32F435/bsp/Bsp_DMA.c ****     dma_channel_enable(DMA2_CHANNEL7, TRUE);
 1194              		.loc 1 487 5 is_stmt 1 view .LVU352
 487:HW_Lib/AT32F435/bsp/Bsp_DMA.c ****     dma_channel_enable(DMA2_CHANNEL7, TRUE);
 1195              		.loc 1 487 34 is_stmt 0 view .LVU353
 1196 001c 92B2     		uxth	r2, r2
 1197              	.LVL117:
 487:HW_Lib/AT32F435/bsp/Bsp_DMA.c ****     dma_channel_enable(DMA2_CHANNEL7, TRUE);
 1198              		.loc 1 487 34 view .LVU354
 1199 001e D3F88410 		ldr	r1, [r3, #132]
 1200              	.LVL118:
 487:HW_Lib/AT32F435/bsp/Bsp_DMA.c ****     dma_channel_enable(DMA2_CHANNEL7, TRUE);
 1201              		.loc 1 487 34 view .LVU355
 1202 0022 62F30F01 		bfi	r1, r2, #0, #16
 1203 0026 C3F88410 		str	r1, [r3, #132]
 488:HW_Lib/AT32F435/bsp/Bsp_DMA.c **** 
 1204              		.loc 1 488 5 is_stmt 1 view .LVU356
 1205 002a 0121     		movs	r1, #1
 1206 002c 0648     		ldr	r0, .L116+8
 1207              	.LVL119:
 488:HW_Lib/AT32F435/bsp/Bsp_DMA.c **** 
 1208              		.loc 1 488 5 is_stmt 0 view .LVU357
 1209 002e FFF7FEFF 		bl	dma_channel_enable
 1210              	.LVL120:
 490:HW_Lib/AT32F435/bsp/Bsp_DMA.c **** }
 1211              		.loc 1 490 5 is_stmt 1 view .LVU358
 490:HW_Lib/AT32F435/bsp/Bsp_DMA.c **** }
 1212              		.loc 1 490 12 is_stmt 0 view .LVU359
 1213 0032 00E0     		b	.L110
 1214              	.LVL121:
 1215              	.L111:
 483:HW_Lib/AT32F435/bsp/Bsp_DMA.c **** 
 1216              		.loc 1 483 16 view .LVU360
 1217 0034 0024     		movs	r4, #0
 1218              	.LVL122:
 1219              	.L110:
 491:HW_Lib/AT32F435/bsp/Bsp_DMA.c **** 
 1220              		.loc 1 491 1 view .LVU361
 1221 0036 2046     		mov	r0, r4
 1222 0038 10BD     		pop	{r4, pc}
 1223              	.LVL123:
 1224              	.L112:
ARM GAS  C:\Users\8bit\AppData\Local\Temp\cccZxcPc.s 			page 36


 483:HW_Lib/AT32F435/bsp/Bsp_DMA.c **** 
 1225              		.loc 1 483 16 view .LVU362
 1226 003a 0024     		movs	r4, #0
 1227 003c FBE7     		b	.L110
 1228              	.L117:
 1229 003e 00BF     		.align	2
 1230              	.L116:
 1231 0040 00000000 		.word	.LANCHOR0
 1232 0044 00660240 		.word	1073899008
 1233 0048 80660240 		.word	1073899136
 1234              		.cfi_endproc
 1235              	.LFE142:
 1237              		.section	.text.BspDMA_Pipe_Init,"ax",%progbits
 1238              		.align	1
 1239              		.syntax unified
 1240              		.thumb
 1241              		.thumb_func
 1243              	BspDMA_Pipe_Init:
 1244              	.LVL124:
 1245              	.LFB141:
 437:HW_Lib/AT32F435/bsp/Bsp_DMA.c ****     dma_init_type dma_init_struct;
 1246              		.loc 1 437 1 is_stmt 1 view -0
 1247              		.cfi_startproc
 1248              		@ args = 0, pretend = 0, frame = 24
 1249              		@ frame_needed = 0, uses_anonymous_args = 0
 437:HW_Lib/AT32F435/bsp/Bsp_DMA.c ****     dma_init_type dma_init_struct;
 1250              		.loc 1 437 1 is_stmt 0 view .LVU364
 1251 0000 2DE9F043 		push	{r4, r5, r6, r7, r8, r9, lr}
 1252              	.LCFI7:
 1253              		.cfi_def_cfa_offset 28
 1254              		.cfi_offset 4, -28
 1255              		.cfi_offset 5, -24
 1256              		.cfi_offset 6, -20
 1257              		.cfi_offset 7, -16
 1258              		.cfi_offset 8, -12
 1259              		.cfi_offset 9, -8
 1260              		.cfi_offset 14, -4
 1261 0004 87B0     		sub	sp, sp, #28
 1262              	.LCFI8:
 1263              		.cfi_def_cfa_offset 56
 1264 0006 0746     		mov	r7, r0
 1265 0008 0E46     		mov	r6, r1
 438:HW_Lib/AT32F435/bsp/Bsp_DMA.c **** 
 1266              		.loc 1 438 5 is_stmt 1 view .LVU365
 441:HW_Lib/AT32F435/bsp/Bsp_DMA.c ****     {
 1267              		.loc 1 441 5 view .LVU366
 441:HW_Lib/AT32F435/bsp/Bsp_DMA.c ****     {
 1268              		.loc 1 441 9 is_stmt 0 view .LVU367
 1269 000a 244B     		ldr	r3, .L122
 1270 000c 1B78     		ldrb	r3, [r3]	@ zero_extendqisi2
 441:HW_Lib/AT32F435/bsp/Bsp_DMA.c ****     {
 1271              		.loc 1 441 8 view .LVU368
 1272 000e 002B     		cmp	r3, #0
 1273 0010 37D0     		beq	.L121
 1274              	.LVL125:
 1275              	.L119:
 449:HW_Lib/AT32F435/bsp/Bsp_DMA.c ****     dma_init_struct.buffer_size = 0;
ARM GAS  C:\Users\8bit\AppData\Local\Temp\cccZxcPc.s 			page 37


 1276              		.loc 1 449 5 is_stmt 1 view .LVU369
 1277 0012 DFF8A080 		ldr	r8, .L122+24
 1278 0016 4046     		mov	r0, r8
 1279 0018 FFF7FEFF 		bl	dma_reset
 1280              	.LVL126:
 450:HW_Lib/AT32F435/bsp/Bsp_DMA.c ****     dma_init_struct.direction = DMA_DIR_MEMORY_TO_MEMORY;
 1281              		.loc 1 450 5 view .LVU370
 450:HW_Lib/AT32F435/bsp/Bsp_DMA.c ****     dma_init_struct.direction = DMA_DIR_MEMORY_TO_MEMORY;
 1282              		.loc 1 450 33 is_stmt 0 view .LVU371
 1283 001c 0024     		movs	r4, #0
 1284 001e ADF80E40 		strh	r4, [sp, #14]	@ movhi
 451:HW_Lib/AT32F435/bsp/Bsp_DMA.c ****     dma_init_struct.memory_base_addr = (uint32_t)0;
 1285              		.loc 1 451 5 is_stmt 1 view .LVU372
 451:HW_Lib/AT32F435/bsp/Bsp_DMA.c ****     dma_init_struct.memory_base_addr = (uint32_t)0;
 1286              		.loc 1 451 31 is_stmt 0 view .LVU373
 1287 0022 4FF48043 		mov	r3, #16384
 1288 0026 ADF80C30 		strh	r3, [sp, #12]	@ movhi
 452:HW_Lib/AT32F435/bsp/Bsp_DMA.c ****     dma_init_struct.memory_data_width = DMA_MEMORY_DATA_WIDTH_BYTE;
 1289              		.loc 1 452 5 is_stmt 1 view .LVU374
 452:HW_Lib/AT32F435/bsp/Bsp_DMA.c ****     dma_init_struct.memory_data_width = DMA_MEMORY_DATA_WIDTH_BYTE;
 1290              		.loc 1 452 38 is_stmt 0 view .LVU375
 1291 002a 0294     		str	r4, [sp, #8]
 453:HW_Lib/AT32F435/bsp/Bsp_DMA.c ****     dma_init_struct.memory_inc_enable = TRUE;
 1292              		.loc 1 453 5 is_stmt 1 view .LVU376
 453:HW_Lib/AT32F435/bsp/Bsp_DMA.c ****     dma_init_struct.memory_inc_enable = TRUE;
 1293              		.loc 1 453 39 is_stmt 0 view .LVU377
 1294 002c 8DF81340 		strb	r4, [sp, #19]
 454:HW_Lib/AT32F435/bsp/Bsp_DMA.c ****     dma_init_struct.peripheral_base_addr = (uint32_t)0;
 1295              		.loc 1 454 5 is_stmt 1 view .LVU378
 454:HW_Lib/AT32F435/bsp/Bsp_DMA.c ****     dma_init_struct.peripheral_base_addr = (uint32_t)0;
 1296              		.loc 1 454 39 is_stmt 0 view .LVU379
 1297 0030 0125     		movs	r5, #1
 1298 0032 8DF81150 		strb	r5, [sp, #17]
 455:HW_Lib/AT32F435/bsp/Bsp_DMA.c ****     dma_init_struct.peripheral_data_width = DMA_PERIPHERAL_DATA_WIDTH_BYTE;
 1299              		.loc 1 455 5 is_stmt 1 view .LVU380
 455:HW_Lib/AT32F435/bsp/Bsp_DMA.c ****     dma_init_struct.peripheral_data_width = DMA_PERIPHERAL_DATA_WIDTH_BYTE;
 1300              		.loc 1 455 42 is_stmt 0 view .LVU381
 1301 0036 0194     		str	r4, [sp, #4]
 456:HW_Lib/AT32F435/bsp/Bsp_DMA.c ****     dma_init_struct.peripheral_inc_enable = TRUE;
 1302              		.loc 1 456 5 is_stmt 1 view .LVU382
 456:HW_Lib/AT32F435/bsp/Bsp_DMA.c ****     dma_init_struct.peripheral_inc_enable = TRUE;
 1303              		.loc 1 456 43 is_stmt 0 view .LVU383
 1304 0038 8DF81240 		strb	r4, [sp, #18]
 457:HW_Lib/AT32F435/bsp/Bsp_DMA.c ****     dma_init_struct.priority = DMA_PRIORITY_VERY_HIGH;
 1305              		.loc 1 457 5 is_stmt 1 view .LVU384
 457:HW_Lib/AT32F435/bsp/Bsp_DMA.c ****     dma_init_struct.priority = DMA_PRIORITY_VERY_HIGH;
 1306              		.loc 1 457 43 is_stmt 0 view .LVU385
 1307 003c 8DF81050 		strb	r5, [sp, #16]
 458:HW_Lib/AT32F435/bsp/Bsp_DMA.c ****     dma_init_struct.loop_mode_enable = FALSE;
 1308              		.loc 1 458 5 is_stmt 1 view .LVU386
 458:HW_Lib/AT32F435/bsp/Bsp_DMA.c ****     dma_init_struct.loop_mode_enable = FALSE;
 1309              		.loc 1 458 30 is_stmt 0 view .LVU387
 1310 0040 4FF00309 		mov	r9, #3
 1311 0044 8DF81590 		strb	r9, [sp, #21]
 459:HW_Lib/AT32F435/bsp/Bsp_DMA.c ****     dma_init(DMA2_CHANNEL7, &dma_init_struct);
 1312              		.loc 1 459 5 is_stmt 1 view .LVU388
 459:HW_Lib/AT32F435/bsp/Bsp_DMA.c ****     dma_init(DMA2_CHANNEL7, &dma_init_struct);
ARM GAS  C:\Users\8bit\AppData\Local\Temp\cccZxcPc.s 			page 38


 1313              		.loc 1 459 38 is_stmt 0 view .LVU389
 1314 0048 8DF81440 		strb	r4, [sp, #20]
 460:HW_Lib/AT32F435/bsp/Bsp_DMA.c **** 
 1315              		.loc 1 460 5 is_stmt 1 view .LVU390
 1316 004c 01A9     		add	r1, sp, #4
 1317 004e 4046     		mov	r0, r8
 1318 0050 FFF7FEFF 		bl	dma_init
 1319              	.LVL127:
 463:HW_Lib/AT32F435/bsp/Bsp_DMA.c **** 
 1320              		.loc 1 463 5 view .LVU391
 1321 0054 2A46     		mov	r2, r5
 1322 0056 0221     		movs	r1, #2
 1323 0058 4046     		mov	r0, r8
 1324 005a FFF7FEFF 		bl	dma_interrupt_enable
 1325              	.LVL128:
 466:HW_Lib/AT32F435/bsp/Bsp_DMA.c ****     nvic_irq_enable(DMA2_Channel7_IRQn, 5, 0);
 1326              		.loc 1 466 5 view .LVU392
 1327 005e 4846     		mov	r0, r9
 1328 0060 FFF7FEFF 		bl	nvic_priority_group_config
 1329              	.LVL129:
 467:HW_Lib/AT32F435/bsp/Bsp_DMA.c **** 
 1330              		.loc 1 467 5 view .LVU393
 1331 0064 2246     		mov	r2, r4
 1332 0066 0521     		movs	r1, #5
 1333 0068 7220     		movs	r0, #114
 1334 006a FFF7FEFF 		bl	nvic_irq_enable
 1335              	.LVL130:
 469:HW_Lib/AT32F435/bsp/Bsp_DMA.c **** 
 1336              		.loc 1 469 5 view .LVU394
 469:HW_Lib/AT32F435/bsp/Bsp_DMA.c **** 
 1337              		.loc 1 469 23 is_stmt 0 view .LVU395
 1338 006e 0C4B     		ldr	r3, .L122+4
 1339 0070 1D70     		strb	r5, [r3]
 471:HW_Lib/AT32F435/bsp/Bsp_DMA.c ****     DataPipe_Trans_Err_Callback = err_cb;
 1340              		.loc 1 471 5 is_stmt 1 view .LVU396
 471:HW_Lib/AT32F435/bsp/Bsp_DMA.c ****     DataPipe_Trans_Err_Callback = err_cb;
 1341              		.loc 1 471 33 is_stmt 0 view .LVU397
 1342 0072 0C4B     		ldr	r3, .L122+8
 1343 0074 1F60     		str	r7, [r3]
 472:HW_Lib/AT32F435/bsp/Bsp_DMA.c **** 
 1344              		.loc 1 472 5 is_stmt 1 view .LVU398
 472:HW_Lib/AT32F435/bsp/Bsp_DMA.c **** 
 1345              		.loc 1 472 33 is_stmt 0 view .LVU399
 1346 0076 0C4B     		ldr	r3, .L122+12
 1347 0078 1E60     		str	r6, [r3]
 474:HW_Lib/AT32F435/bsp/Bsp_DMA.c **** }
 1348              		.loc 1 474 5 is_stmt 1 view .LVU400
 475:HW_Lib/AT32F435/bsp/Bsp_DMA.c **** 
 1349              		.loc 1 475 1 is_stmt 0 view .LVU401
 1350 007a 2846     		mov	r0, r5
 1351 007c 07B0     		add	sp, sp, #28
 1352              	.LCFI9:
 1353              		.cfi_remember_state
 1354              		.cfi_def_cfa_offset 28
 1355              		@ sp needed
 1356 007e BDE8F083 		pop	{r4, r5, r6, r7, r8, r9, pc}
 1357              	.LVL131:
ARM GAS  C:\Users\8bit\AppData\Local\Temp\cccZxcPc.s 			page 39


 1358              	.L121:
 1359              	.LCFI10:
 1360              		.cfi_restore_state
 443:HW_Lib/AT32F435/bsp/Bsp_DMA.c ****         crm_periph_clock_enable(CRM_DMA1_PERIPH_CLOCK, TRUE);
 1361              		.loc 1 443 9 is_stmt 1 view .LVU402
 1362 0082 0121     		movs	r1, #1
 1363              	.LVL132:
 443:HW_Lib/AT32F435/bsp/Bsp_DMA.c ****         crm_periph_clock_enable(CRM_DMA1_PERIPH_CLOCK, TRUE);
 1364              		.loc 1 443 9 is_stmt 0 view .LVU403
 1365 0084 0948     		ldr	r0, .L122+16
 1366              	.LVL133:
 443:HW_Lib/AT32F435/bsp/Bsp_DMA.c ****         crm_periph_clock_enable(CRM_DMA1_PERIPH_CLOCK, TRUE);
 1367              		.loc 1 443 9 view .LVU404
 1368 0086 FFF7FEFF 		bl	crm_periph_clock_enable
 1369              	.LVL134:
 444:HW_Lib/AT32F435/bsp/Bsp_DMA.c ****         Dma_Clock_Init = true;
 1370              		.loc 1 444 9 is_stmt 1 view .LVU405
 1371 008a 0121     		movs	r1, #1
 1372 008c 0848     		ldr	r0, .L122+20
 1373 008e FFF7FEFF 		bl	crm_periph_clock_enable
 1374              	.LVL135:
 445:HW_Lib/AT32F435/bsp/Bsp_DMA.c ****     }
 1375              		.loc 1 445 9 view .LVU406
 445:HW_Lib/AT32F435/bsp/Bsp_DMA.c ****     }
 1376              		.loc 1 445 24 is_stmt 0 view .LVU407
 1377 0092 024B     		ldr	r3, .L122
 1378 0094 0122     		movs	r2, #1
 1379 0096 1A70     		strb	r2, [r3]
 1380 0098 BBE7     		b	.L119
 1381              	.L123:
 1382 009a 00BF     		.align	2
 1383              	.L122:
 1384 009c 00000000 		.word	.LANCHOR3
 1385 00a0 00000000 		.word	.LANCHOR0
 1386 00a4 00000000 		.word	.LANCHOR8
 1387 00a8 00000000 		.word	.LANCHOR9
 1388 00ac 18003000 		.word	3145752
 1389 00b0 16003000 		.word	3145750
 1390 00b4 80660240 		.word	1073899136
 1391              		.cfi_endproc
 1392              	.LFE141:
 1394              		.section	.text.BspDMA_Pipe_Irq_Callback,"ax",%progbits
 1395              		.align	1
 1396              		.global	BspDMA_Pipe_Irq_Callback
 1397              		.syntax unified
 1398              		.thumb
 1399              		.thumb_func
 1401              	BspDMA_Pipe_Irq_Callback:
 1402              	.LFB144:
 500:HW_Lib/AT32F435/bsp/Bsp_DMA.c **** 
 501:HW_Lib/AT32F435/bsp/Bsp_DMA.c **** void BspDMA_Pipe_Irq_Callback(void)
 502:HW_Lib/AT32F435/bsp/Bsp_DMA.c **** {
 1403              		.loc 1 502 1 is_stmt 1 view -0
 1404              		.cfi_startproc
 1405              		@ args = 0, pretend = 0, frame = 0
 1406              		@ frame_needed = 0, uses_anonymous_args = 0
 503:HW_Lib/AT32F435/bsp/Bsp_DMA.c ****     if(DataPipe_DMA_Init)
ARM GAS  C:\Users\8bit\AppData\Local\Temp\cccZxcPc.s 			page 40


 1407              		.loc 1 503 5 view .LVU409
 1408              		.loc 1 503 8 is_stmt 0 view .LVU410
 1409 0000 0F4B     		ldr	r3, .L132
 1410 0002 1B78     		ldrb	r3, [r3]	@ zero_extendqisi2
 1411              		.loc 1 503 7 view .LVU411
 1412 0004 03B9     		cbnz	r3, .L131
 1413 0006 7047     		bx	lr
 1414              	.L131:
 502:HW_Lib/AT32F435/bsp/Bsp_DMA.c ****     if(DataPipe_DMA_Init)
 1415              		.loc 1 502 1 view .LVU412
 1416 0008 10B5     		push	{r4, lr}
 1417              	.LCFI11:
 1418              		.cfi_def_cfa_offset 8
 1419              		.cfi_offset 4, -8
 1420              		.cfi_offset 14, -4
 504:HW_Lib/AT32F435/bsp/Bsp_DMA.c ****     {
 505:HW_Lib/AT32F435/bsp/Bsp_DMA.c ****         dma_channel_enable(DMA2_CHANNEL7, FALSE);
 1421              		.loc 1 505 9 is_stmt 1 view .LVU413
 1422 000a 0E4C     		ldr	r4, .L132+4
 1423 000c 0021     		movs	r1, #0
 1424 000e 2046     		mov	r0, r4
 1425 0010 FFF7FEFF 		bl	dma_channel_enable
 1426              	.LVL136:
 506:HW_Lib/AT32F435/bsp/Bsp_DMA.c **** 
 507:HW_Lib/AT32F435/bsp/Bsp_DMA.c ****         if(dma_data_number_get(DMA2_CHANNEL7) != DMA2_CHANNEL7->dtcnt_bit.cnt)
 1427              		.loc 1 507 9 view .LVU414
 1428              		.loc 1 507 12 is_stmt 0 view .LVU415
 1429 0014 2046     		mov	r0, r4
 1430 0016 FFF7FEFF 		bl	dma_data_number_get
 1431              	.LVL137:
 1432              		.loc 1 507 74 view .LVU416
 1433 001a 0B4B     		ldr	r3, .L132+8
 1434 001c D3F88430 		ldr	r3, [r3, #132]
 1435 0020 9BB2     		uxth	r3, r3
 1436              		.loc 1 507 11 view .LVU417
 1437 0022 9842     		cmp	r0, r3
 1438 0024 05D0     		beq	.L126
 508:HW_Lib/AT32F435/bsp/Bsp_DMA.c ****         {
 509:HW_Lib/AT32F435/bsp/Bsp_DMA.c ****             /* piped data size error */
 510:HW_Lib/AT32F435/bsp/Bsp_DMA.c ****             if(DataPipe_Trans_Err_Callback)
 1439              		.loc 1 510 13 is_stmt 1 view .LVU418
 1440              		.loc 1 510 16 is_stmt 0 view .LVU419
 1441 0026 094B     		ldr	r3, .L132+12
 1442 0028 1B68     		ldr	r3, [r3]
 1443              		.loc 1 510 15 view .LVU420
 1444 002a 0BB1     		cbz	r3, .L124
 511:HW_Lib/AT32F435/bsp/Bsp_DMA.c ****                 DataPipe_Trans_Err_Callback((void *)DMA2_CHANNEL7); 
 1445              		.loc 1 511 17 is_stmt 1 view .LVU421
 1446 002c 2046     		mov	r0, r4
 1447 002e 9847     		blx	r3
 1448              	.LVL138:
 1449              	.L124:
 512:HW_Lib/AT32F435/bsp/Bsp_DMA.c ****         }
 513:HW_Lib/AT32F435/bsp/Bsp_DMA.c ****         else
 514:HW_Lib/AT32F435/bsp/Bsp_DMA.c ****         {
 515:HW_Lib/AT32F435/bsp/Bsp_DMA.c ****             if(DataPipe_Trans_Fin_Callback)
 516:HW_Lib/AT32F435/bsp/Bsp_DMA.c ****                DataPipe_Trans_Fin_Callback((void *)DMA2_CHANNEL7); 
ARM GAS  C:\Users\8bit\AppData\Local\Temp\cccZxcPc.s 			page 41


 517:HW_Lib/AT32F435/bsp/Bsp_DMA.c ****         }
 518:HW_Lib/AT32F435/bsp/Bsp_DMA.c ****     }
 519:HW_Lib/AT32F435/bsp/Bsp_DMA.c **** }
 1450              		.loc 1 519 1 is_stmt 0 view .LVU422
 1451 0030 10BD     		pop	{r4, pc}
 1452              	.L126:
 515:HW_Lib/AT32F435/bsp/Bsp_DMA.c ****                DataPipe_Trans_Fin_Callback((void *)DMA2_CHANNEL7); 
 1453              		.loc 1 515 13 is_stmt 1 view .LVU423
 515:HW_Lib/AT32F435/bsp/Bsp_DMA.c ****                DataPipe_Trans_Fin_Callback((void *)DMA2_CHANNEL7); 
 1454              		.loc 1 515 16 is_stmt 0 view .LVU424
 1455 0032 074B     		ldr	r3, .L132+16
 1456 0034 1B68     		ldr	r3, [r3]
 515:HW_Lib/AT32F435/bsp/Bsp_DMA.c ****                DataPipe_Trans_Fin_Callback((void *)DMA2_CHANNEL7); 
 1457              		.loc 1 515 15 view .LVU425
 1458 0036 002B     		cmp	r3, #0
 1459 0038 FAD0     		beq	.L124
 516:HW_Lib/AT32F435/bsp/Bsp_DMA.c ****         }
 1460              		.loc 1 516 16 is_stmt 1 view .LVU426
 1461 003a 0248     		ldr	r0, .L132+4
 1462 003c 9847     		blx	r3
 1463              	.LVL139:
 1464              		.loc 1 519 1 is_stmt 0 view .LVU427
 1465 003e F7E7     		b	.L124
 1466              	.L133:
 1467              		.align	2
 1468              	.L132:
 1469 0040 00000000 		.word	.LANCHOR0
 1470 0044 80660240 		.word	1073899136
 1471 0048 00660240 		.word	1073899008
 1472 004c 00000000 		.word	.LANCHOR9
 1473 0050 00000000 		.word	.LANCHOR8
 1474              		.cfi_endproc
 1475              	.LFE144:
 1477              		.section	.text.BspDMA_Irq_Callback,"ax",%progbits
 1478              		.align	1
 1479              		.global	BspDMA_Irq_Callback
 1480              		.syntax unified
 1481              		.thumb
 1482              		.thumb_func
 1484              	BspDMA_Irq_Callback:
 1485              	.LVL140:
 1486              	.LFB145:
 520:HW_Lib/AT32F435/bsp/Bsp_DMA.c **** 
 521:HW_Lib/AT32F435/bsp/Bsp_DMA.c **** void BspDMA_Irq_Callback(void *channel)
 522:HW_Lib/AT32F435/bsp/Bsp_DMA.c **** {
 1487              		.loc 1 522 1 is_stmt 1 view -0
 1488              		.cfi_startproc
 1489              		@ args = 0, pretend = 0, frame = 0
 1490              		@ frame_needed = 0, uses_anonymous_args = 0
 1491              		.loc 1 522 1 is_stmt 0 view .LVU429
 1492 0000 08B5     		push	{r3, lr}
 1493              	.LCFI12:
 1494              		.cfi_def_cfa_offset 8
 1495              		.cfi_offset 3, -8
 1496              		.cfi_offset 14, -4
 523:HW_Lib/AT32F435/bsp/Bsp_DMA.c ****     dma_channel_type *ch_tmp = To_DMA_Handle_Ptr(channel);
 1497              		.loc 1 523 5 is_stmt 1 view .LVU430
ARM GAS  C:\Users\8bit\AppData\Local\Temp\cccZxcPc.s 			page 42


 1498              	.LVL141:
 524:HW_Lib/AT32F435/bsp/Bsp_DMA.c ****     void *cus_data = NULL;
 1499              		.loc 1 524 5 view .LVU431
 525:HW_Lib/AT32F435/bsp/Bsp_DMA.c **** 
 526:HW_Lib/AT32F435/bsp/Bsp_DMA.c ****     if (ch_tmp == DMA1_CHANNEL1)
 1500              		.loc 1 526 5 view .LVU432
 1501              		.loc 1 526 8 is_stmt 0 view .LVU433
 1502 0002 524B     		ldr	r3, .L174
 1503 0004 9842     		cmp	r0, r3
 1504 0006 2BD0     		beq	.L162
 527:HW_Lib/AT32F435/bsp/Bsp_DMA.c ****     {
 528:HW_Lib/AT32F435/bsp/Bsp_DMA.c ****         if (BspDMA1_Irq_Callback_List[Bsp_DMA_Stream_1] && \
 529:HW_Lib/AT32F435/bsp/Bsp_DMA.c ****             BspDMA1_Irq_Callback_List[Bsp_DMA_Stream_1]->BspDMA_Irq_Callback_Func)
 530:HW_Lib/AT32F435/bsp/Bsp_DMA.c ****         {
 531:HW_Lib/AT32F435/bsp/Bsp_DMA.c ****             cus_data = BspDMA1_Irq_Callback_List[Bsp_DMA_Stream_1]->cus_data;
 532:HW_Lib/AT32F435/bsp/Bsp_DMA.c ****             BspDMA1_Irq_Callback_List[Bsp_DMA_Stream_1]->BspDMA_Irq_Callback_Func(cus_data);
 533:HW_Lib/AT32F435/bsp/Bsp_DMA.c ****         }
 534:HW_Lib/AT32F435/bsp/Bsp_DMA.c **** 
 535:HW_Lib/AT32F435/bsp/Bsp_DMA.c ****         return;
 536:HW_Lib/AT32F435/bsp/Bsp_DMA.c ****     }
 537:HW_Lib/AT32F435/bsp/Bsp_DMA.c **** 
 538:HW_Lib/AT32F435/bsp/Bsp_DMA.c ****     if (ch_tmp == DMA1_CHANNEL2)
 1505              		.loc 1 538 5 is_stmt 1 view .LVU434
 1506              		.loc 1 538 8 is_stmt 0 view .LVU435
 1507 0008 514B     		ldr	r3, .L174+4
 1508 000a 9842     		cmp	r0, r3
 1509 000c 30D0     		beq	.L163
 539:HW_Lib/AT32F435/bsp/Bsp_DMA.c ****     {
 540:HW_Lib/AT32F435/bsp/Bsp_DMA.c ****         if (BspDMA1_Irq_Callback_List[Bsp_DMA_Stream_2] && \
 541:HW_Lib/AT32F435/bsp/Bsp_DMA.c ****             BspDMA1_Irq_Callback_List[Bsp_DMA_Stream_2]->BspDMA_Irq_Callback_Func)
 542:HW_Lib/AT32F435/bsp/Bsp_DMA.c ****         {
 543:HW_Lib/AT32F435/bsp/Bsp_DMA.c ****             cus_data = BspDMA1_Irq_Callback_List[Bsp_DMA_Stream_2]->cus_data;
 544:HW_Lib/AT32F435/bsp/Bsp_DMA.c ****             BspDMA1_Irq_Callback_List[Bsp_DMA_Stream_2]->BspDMA_Irq_Callback_Func(cus_data);
 545:HW_Lib/AT32F435/bsp/Bsp_DMA.c ****         }
 546:HW_Lib/AT32F435/bsp/Bsp_DMA.c **** 
 547:HW_Lib/AT32F435/bsp/Bsp_DMA.c ****         return;
 548:HW_Lib/AT32F435/bsp/Bsp_DMA.c ****     }
 549:HW_Lib/AT32F435/bsp/Bsp_DMA.c **** 
 550:HW_Lib/AT32F435/bsp/Bsp_DMA.c ****     if (ch_tmp == DMA1_CHANNEL3)
 1510              		.loc 1 550 5 is_stmt 1 view .LVU436
 1511              		.loc 1 550 8 is_stmt 0 view .LVU437
 1512 000e 514B     		ldr	r3, .L174+8
 1513 0010 9842     		cmp	r0, r3
 1514 0012 37D0     		beq	.L164
 551:HW_Lib/AT32F435/bsp/Bsp_DMA.c ****     {
 552:HW_Lib/AT32F435/bsp/Bsp_DMA.c ****         if (BspDMA1_Irq_Callback_List[Bsp_DMA_Stream_3] && \
 553:HW_Lib/AT32F435/bsp/Bsp_DMA.c ****             BspDMA1_Irq_Callback_List[Bsp_DMA_Stream_3]->BspDMA_Irq_Callback_Func)
 554:HW_Lib/AT32F435/bsp/Bsp_DMA.c ****         {
 555:HW_Lib/AT32F435/bsp/Bsp_DMA.c ****             cus_data = BspDMA1_Irq_Callback_List[Bsp_DMA_Stream_3]->cus_data;
 556:HW_Lib/AT32F435/bsp/Bsp_DMA.c ****             BspDMA1_Irq_Callback_List[Bsp_DMA_Stream_3]->BspDMA_Irq_Callback_Func(cus_data);
 557:HW_Lib/AT32F435/bsp/Bsp_DMA.c ****         }
 558:HW_Lib/AT32F435/bsp/Bsp_DMA.c **** 
 559:HW_Lib/AT32F435/bsp/Bsp_DMA.c ****         return;
 560:HW_Lib/AT32F435/bsp/Bsp_DMA.c ****     }
 561:HW_Lib/AT32F435/bsp/Bsp_DMA.c **** 
 562:HW_Lib/AT32F435/bsp/Bsp_DMA.c ****     if (ch_tmp == DMA1_CHANNEL4)
 1515              		.loc 1 562 5 is_stmt 1 view .LVU438
ARM GAS  C:\Users\8bit\AppData\Local\Temp\cccZxcPc.s 			page 43


 1516              		.loc 1 562 8 is_stmt 0 view .LVU439
 1517 0014 504B     		ldr	r3, .L174+12
 1518 0016 9842     		cmp	r0, r3
 1519 0018 3ED0     		beq	.L165
 563:HW_Lib/AT32F435/bsp/Bsp_DMA.c ****     {
 564:HW_Lib/AT32F435/bsp/Bsp_DMA.c ****         if (BspDMA1_Irq_Callback_List[Bsp_DMA_Stream_4] && \
 565:HW_Lib/AT32F435/bsp/Bsp_DMA.c ****             BspDMA1_Irq_Callback_List[Bsp_DMA_Stream_4]->BspDMA_Irq_Callback_Func)
 566:HW_Lib/AT32F435/bsp/Bsp_DMA.c ****         {
 567:HW_Lib/AT32F435/bsp/Bsp_DMA.c ****             cus_data = BspDMA1_Irq_Callback_List[Bsp_DMA_Stream_4]->cus_data;
 568:HW_Lib/AT32F435/bsp/Bsp_DMA.c ****             BspDMA1_Irq_Callback_List[Bsp_DMA_Stream_4]->BspDMA_Irq_Callback_Func(cus_data);
 569:HW_Lib/AT32F435/bsp/Bsp_DMA.c ****         }
 570:HW_Lib/AT32F435/bsp/Bsp_DMA.c **** 
 571:HW_Lib/AT32F435/bsp/Bsp_DMA.c ****         return;
 572:HW_Lib/AT32F435/bsp/Bsp_DMA.c ****     }
 573:HW_Lib/AT32F435/bsp/Bsp_DMA.c **** 
 574:HW_Lib/AT32F435/bsp/Bsp_DMA.c ****     if (ch_tmp == DMA1_CHANNEL5)
 1520              		.loc 1 574 5 is_stmt 1 view .LVU440
 1521              		.loc 1 574 8 is_stmt 0 view .LVU441
 1522 001a 504B     		ldr	r3, .L174+16
 1523 001c 9842     		cmp	r0, r3
 1524 001e 45D0     		beq	.L166
 575:HW_Lib/AT32F435/bsp/Bsp_DMA.c ****     {
 576:HW_Lib/AT32F435/bsp/Bsp_DMA.c ****         if (BspDMA1_Irq_Callback_List[Bsp_DMA_Stream_5] && \
 577:HW_Lib/AT32F435/bsp/Bsp_DMA.c ****             BspDMA1_Irq_Callback_List[Bsp_DMA_Stream_5]->BspDMA_Irq_Callback_Func)
 578:HW_Lib/AT32F435/bsp/Bsp_DMA.c ****         {
 579:HW_Lib/AT32F435/bsp/Bsp_DMA.c ****             cus_data = BspDMA1_Irq_Callback_List[Bsp_DMA_Stream_5]->cus_data;
 580:HW_Lib/AT32F435/bsp/Bsp_DMA.c ****             BspDMA1_Irq_Callback_List[Bsp_DMA_Stream_5]->BspDMA_Irq_Callback_Func(cus_data);
 581:HW_Lib/AT32F435/bsp/Bsp_DMA.c ****         }
 582:HW_Lib/AT32F435/bsp/Bsp_DMA.c **** 
 583:HW_Lib/AT32F435/bsp/Bsp_DMA.c ****         return;
 584:HW_Lib/AT32F435/bsp/Bsp_DMA.c ****     }
 585:HW_Lib/AT32F435/bsp/Bsp_DMA.c **** 
 586:HW_Lib/AT32F435/bsp/Bsp_DMA.c ****     if (ch_tmp == DMA1_CHANNEL6)
 1525              		.loc 1 586 5 is_stmt 1 view .LVU442
 1526              		.loc 1 586 8 is_stmt 0 view .LVU443
 1527 0020 4F4B     		ldr	r3, .L174+20
 1528 0022 9842     		cmp	r0, r3
 1529 0024 4CD0     		beq	.L167
 587:HW_Lib/AT32F435/bsp/Bsp_DMA.c ****     {
 588:HW_Lib/AT32F435/bsp/Bsp_DMA.c ****         if (BspDMA1_Irq_Callback_List[Bsp_DMA_Stream_6] && \
 589:HW_Lib/AT32F435/bsp/Bsp_DMA.c ****             BspDMA1_Irq_Callback_List[Bsp_DMA_Stream_6]->BspDMA_Irq_Callback_Func)
 590:HW_Lib/AT32F435/bsp/Bsp_DMA.c ****         {
 591:HW_Lib/AT32F435/bsp/Bsp_DMA.c ****             cus_data = BspDMA1_Irq_Callback_List[Bsp_DMA_Stream_6]->cus_data;
 592:HW_Lib/AT32F435/bsp/Bsp_DMA.c ****             BspDMA1_Irq_Callback_List[Bsp_DMA_Stream_6]->BspDMA_Irq_Callback_Func(cus_data);
 593:HW_Lib/AT32F435/bsp/Bsp_DMA.c ****         }
 594:HW_Lib/AT32F435/bsp/Bsp_DMA.c **** 
 595:HW_Lib/AT32F435/bsp/Bsp_DMA.c ****         return;
 596:HW_Lib/AT32F435/bsp/Bsp_DMA.c ****     }
 597:HW_Lib/AT32F435/bsp/Bsp_DMA.c **** 
 598:HW_Lib/AT32F435/bsp/Bsp_DMA.c ****     if (ch_tmp == DMA1_CHANNEL7)
 1530              		.loc 1 598 5 is_stmt 1 view .LVU444
 1531              		.loc 1 598 8 is_stmt 0 view .LVU445
 1532 0026 4F4B     		ldr	r3, .L174+24
 1533 0028 9842     		cmp	r0, r3
 1534 002a 53D0     		beq	.L168
 599:HW_Lib/AT32F435/bsp/Bsp_DMA.c ****     {
 600:HW_Lib/AT32F435/bsp/Bsp_DMA.c ****         if (BspDMA1_Irq_Callback_List[Bsp_DMA_Stream_7] && \
ARM GAS  C:\Users\8bit\AppData\Local\Temp\cccZxcPc.s 			page 44


 601:HW_Lib/AT32F435/bsp/Bsp_DMA.c ****             BspDMA1_Irq_Callback_List[Bsp_DMA_Stream_7]->BspDMA_Irq_Callback_Func)
 602:HW_Lib/AT32F435/bsp/Bsp_DMA.c ****         {
 603:HW_Lib/AT32F435/bsp/Bsp_DMA.c ****             cus_data = BspDMA1_Irq_Callback_List[Bsp_DMA_Stream_7]->cus_data;
 604:HW_Lib/AT32F435/bsp/Bsp_DMA.c ****             BspDMA1_Irq_Callback_List[Bsp_DMA_Stream_7]->BspDMA_Irq_Callback_Func(cus_data);
 605:HW_Lib/AT32F435/bsp/Bsp_DMA.c ****         }
 606:HW_Lib/AT32F435/bsp/Bsp_DMA.c **** 
 607:HW_Lib/AT32F435/bsp/Bsp_DMA.c ****         return;
 608:HW_Lib/AT32F435/bsp/Bsp_DMA.c ****     }
 609:HW_Lib/AT32F435/bsp/Bsp_DMA.c **** 
 610:HW_Lib/AT32F435/bsp/Bsp_DMA.c ****     if (ch_tmp == DMA2_CHANNEL1)
 1535              		.loc 1 610 5 is_stmt 1 view .LVU446
 1536              		.loc 1 610 8 is_stmt 0 view .LVU447
 1537 002c 4E4B     		ldr	r3, .L174+28
 1538 002e 9842     		cmp	r0, r3
 1539 0030 5AD0     		beq	.L169
 611:HW_Lib/AT32F435/bsp/Bsp_DMA.c ****     {
 612:HW_Lib/AT32F435/bsp/Bsp_DMA.c ****         if (BspDMA2_Irq_Callback_List[Bsp_DMA_Stream_1] && \
 613:HW_Lib/AT32F435/bsp/Bsp_DMA.c ****             BspDMA2_Irq_Callback_List[Bsp_DMA_Stream_1]->BspDMA_Irq_Callback_Func)
 614:HW_Lib/AT32F435/bsp/Bsp_DMA.c ****         {
 615:HW_Lib/AT32F435/bsp/Bsp_DMA.c ****             cus_data = BspDMA2_Irq_Callback_List[Bsp_DMA_Stream_1]->cus_data;
 616:HW_Lib/AT32F435/bsp/Bsp_DMA.c ****             BspDMA2_Irq_Callback_List[Bsp_DMA_Stream_1]->BspDMA_Irq_Callback_Func(cus_data);
 617:HW_Lib/AT32F435/bsp/Bsp_DMA.c ****         }
 618:HW_Lib/AT32F435/bsp/Bsp_DMA.c ****     
 619:HW_Lib/AT32F435/bsp/Bsp_DMA.c ****         return;
 620:HW_Lib/AT32F435/bsp/Bsp_DMA.c ****     }
 621:HW_Lib/AT32F435/bsp/Bsp_DMA.c **** 
 622:HW_Lib/AT32F435/bsp/Bsp_DMA.c ****     if (ch_tmp == DMA2_CHANNEL2)
 1540              		.loc 1 622 5 is_stmt 1 view .LVU448
 1541              		.loc 1 622 8 is_stmt 0 view .LVU449
 1542 0032 4E4B     		ldr	r3, .L174+32
 1543 0034 9842     		cmp	r0, r3
 1544 0036 61D0     		beq	.L170
 623:HW_Lib/AT32F435/bsp/Bsp_DMA.c ****     {
 624:HW_Lib/AT32F435/bsp/Bsp_DMA.c ****         if (BspDMA2_Irq_Callback_List[Bsp_DMA_Stream_2] && \
 625:HW_Lib/AT32F435/bsp/Bsp_DMA.c ****             BspDMA2_Irq_Callback_List[Bsp_DMA_Stream_2]->BspDMA_Irq_Callback_Func)
 626:HW_Lib/AT32F435/bsp/Bsp_DMA.c ****         {
 627:HW_Lib/AT32F435/bsp/Bsp_DMA.c ****             cus_data = BspDMA2_Irq_Callback_List[Bsp_DMA_Stream_2]->cus_data;
 628:HW_Lib/AT32F435/bsp/Bsp_DMA.c ****             BspDMA2_Irq_Callback_List[Bsp_DMA_Stream_2]->BspDMA_Irq_Callback_Func(cus_data);
 629:HW_Lib/AT32F435/bsp/Bsp_DMA.c ****         }
 630:HW_Lib/AT32F435/bsp/Bsp_DMA.c ****     
 631:HW_Lib/AT32F435/bsp/Bsp_DMA.c ****         return;
 632:HW_Lib/AT32F435/bsp/Bsp_DMA.c ****     }
 633:HW_Lib/AT32F435/bsp/Bsp_DMA.c **** 
 634:HW_Lib/AT32F435/bsp/Bsp_DMA.c ****     if (ch_tmp == DMA2_CHANNEL3)
 1545              		.loc 1 634 5 is_stmt 1 view .LVU450
 1546              		.loc 1 634 8 is_stmt 0 view .LVU451
 1547 0038 4D4B     		ldr	r3, .L174+36
 1548 003a 9842     		cmp	r0, r3
 1549 003c 68D0     		beq	.L171
 635:HW_Lib/AT32F435/bsp/Bsp_DMA.c ****     {
 636:HW_Lib/AT32F435/bsp/Bsp_DMA.c ****         if (BspDMA2_Irq_Callback_List[Bsp_DMA_Stream_3] && \
 637:HW_Lib/AT32F435/bsp/Bsp_DMA.c ****             BspDMA2_Irq_Callback_List[Bsp_DMA_Stream_3]->BspDMA_Irq_Callback_Func)
 638:HW_Lib/AT32F435/bsp/Bsp_DMA.c ****         {
 639:HW_Lib/AT32F435/bsp/Bsp_DMA.c ****             cus_data = BspDMA2_Irq_Callback_List[Bsp_DMA_Stream_3]->cus_data;
 640:HW_Lib/AT32F435/bsp/Bsp_DMA.c ****             BspDMA2_Irq_Callback_List[Bsp_DMA_Stream_3]->BspDMA_Irq_Callback_Func(cus_data);
 641:HW_Lib/AT32F435/bsp/Bsp_DMA.c ****         }
 642:HW_Lib/AT32F435/bsp/Bsp_DMA.c **** 
ARM GAS  C:\Users\8bit\AppData\Local\Temp\cccZxcPc.s 			page 45


 643:HW_Lib/AT32F435/bsp/Bsp_DMA.c ****         return;
 644:HW_Lib/AT32F435/bsp/Bsp_DMA.c ****     }
 645:HW_Lib/AT32F435/bsp/Bsp_DMA.c **** 
 646:HW_Lib/AT32F435/bsp/Bsp_DMA.c ****     if (ch_tmp == DMA2_CHANNEL4)
 1550              		.loc 1 646 5 is_stmt 1 view .LVU452
 1551              		.loc 1 646 8 is_stmt 0 view .LVU453
 1552 003e 4D4B     		ldr	r3, .L174+40
 1553 0040 9842     		cmp	r0, r3
 1554 0042 6FD0     		beq	.L172
 647:HW_Lib/AT32F435/bsp/Bsp_DMA.c ****     {
 648:HW_Lib/AT32F435/bsp/Bsp_DMA.c ****         if (BspDMA2_Irq_Callback_List[Bsp_DMA_Stream_4] && \
 649:HW_Lib/AT32F435/bsp/Bsp_DMA.c ****             BspDMA2_Irq_Callback_List[Bsp_DMA_Stream_4]->BspDMA_Irq_Callback_Func)
 650:HW_Lib/AT32F435/bsp/Bsp_DMA.c ****         {
 651:HW_Lib/AT32F435/bsp/Bsp_DMA.c ****             cus_data = BspDMA2_Irq_Callback_List[Bsp_DMA_Stream_4]->cus_data;
 652:HW_Lib/AT32F435/bsp/Bsp_DMA.c ****             BspDMA2_Irq_Callback_List[Bsp_DMA_Stream_4]->BspDMA_Irq_Callback_Func(cus_data);
 653:HW_Lib/AT32F435/bsp/Bsp_DMA.c ****         }
 654:HW_Lib/AT32F435/bsp/Bsp_DMA.c **** 
 655:HW_Lib/AT32F435/bsp/Bsp_DMA.c ****         return;
 656:HW_Lib/AT32F435/bsp/Bsp_DMA.c ****     }
 657:HW_Lib/AT32F435/bsp/Bsp_DMA.c **** 
 658:HW_Lib/AT32F435/bsp/Bsp_DMA.c ****     if (ch_tmp == DMA2_CHANNEL5)
 1555              		.loc 1 658 5 is_stmt 1 view .LVU454
 1556              		.loc 1 658 8 is_stmt 0 view .LVU455
 1557 0044 4C4B     		ldr	r3, .L174+44
 1558 0046 9842     		cmp	r0, r3
 1559 0048 76D0     		beq	.L173
 659:HW_Lib/AT32F435/bsp/Bsp_DMA.c ****     {
 660:HW_Lib/AT32F435/bsp/Bsp_DMA.c ****         if (BspDMA2_Irq_Callback_List[Bsp_DMA_Stream_5] && \
 661:HW_Lib/AT32F435/bsp/Bsp_DMA.c ****             BspDMA2_Irq_Callback_List[Bsp_DMA_Stream_5]->BspDMA_Irq_Callback_Func)
 662:HW_Lib/AT32F435/bsp/Bsp_DMA.c ****         {
 663:HW_Lib/AT32F435/bsp/Bsp_DMA.c ****             cus_data = BspDMA2_Irq_Callback_List[Bsp_DMA_Stream_5]->cus_data;
 664:HW_Lib/AT32F435/bsp/Bsp_DMA.c ****             BspDMA2_Irq_Callback_List[Bsp_DMA_Stream_5]->BspDMA_Irq_Callback_Func(cus_data);
 665:HW_Lib/AT32F435/bsp/Bsp_DMA.c ****         }
 666:HW_Lib/AT32F435/bsp/Bsp_DMA.c **** 
 667:HW_Lib/AT32F435/bsp/Bsp_DMA.c ****         return;
 668:HW_Lib/AT32F435/bsp/Bsp_DMA.c ****     }
 669:HW_Lib/AT32F435/bsp/Bsp_DMA.c **** 
 670:HW_Lib/AT32F435/bsp/Bsp_DMA.c ****     if (ch_tmp == DMA2_CHANNEL6)
 1560              		.loc 1 670 5 is_stmt 1 view .LVU456
 1561              		.loc 1 670 8 is_stmt 0 view .LVU457
 1562 004a 4C4B     		ldr	r3, .L174+48
 1563 004c 9842     		cmp	r0, r3
 1564 004e 0ED1     		bne	.L134
 671:HW_Lib/AT32F435/bsp/Bsp_DMA.c ****     {
 672:HW_Lib/AT32F435/bsp/Bsp_DMA.c ****         if (BspDMA2_Irq_Callback_List[Bsp_DMA_Stream_6] && \
 1565              		.loc 1 672 9 is_stmt 1 view .LVU458
 1566              		.loc 1 672 38 is_stmt 0 view .LVU459
 1567 0050 4B4B     		ldr	r3, .L174+52
 1568 0052 5B69     		ldr	r3, [r3, #20]
 1569              		.loc 1 672 12 view .LVU460
 1570 0054 5BB1     		cbz	r3, .L134
 673:HW_Lib/AT32F435/bsp/Bsp_DMA.c ****             BspDMA2_Irq_Callback_List[Bsp_DMA_Stream_6]->BspDMA_Irq_Callback_Func)
 1571              		.loc 1 673 56 discriminator 1 view .LVU461
 1572 0056 1A68     		ldr	r2, [r3]
 672:HW_Lib/AT32F435/bsp/Bsp_DMA.c ****             BspDMA2_Irq_Callback_List[Bsp_DMA_Stream_6]->BspDMA_Irq_Callback_Func)
 1573              		.loc 1 672 57 discriminator 1 view .LVU462
 1574 0058 4AB1     		cbz	r2, .L134
ARM GAS  C:\Users\8bit\AppData\Local\Temp\cccZxcPc.s 			page 46


 674:HW_Lib/AT32F435/bsp/Bsp_DMA.c ****         {
 675:HW_Lib/AT32F435/bsp/Bsp_DMA.c ****             cus_data = BspDMA2_Irq_Callback_List[Bsp_DMA_Stream_6]->cus_data;
 1575              		.loc 1 675 13 is_stmt 1 view .LVU463
 1576              	.LVL142:
 676:HW_Lib/AT32F435/bsp/Bsp_DMA.c ****             BspDMA2_Irq_Callback_List[Bsp_DMA_Stream_6]->BspDMA_Irq_Callback_Func(cus_data);
 1577              		.loc 1 676 13 view .LVU464
 1578 005a 5868     		ldr	r0, [r3, #4]
 1579              	.LVL143:
 1580              		.loc 1 676 13 is_stmt 0 view .LVU465
 1581 005c 9047     		blx	r2
 1582              	.LVL144:
 677:HW_Lib/AT32F435/bsp/Bsp_DMA.c ****         }
 678:HW_Lib/AT32F435/bsp/Bsp_DMA.c **** 
 679:HW_Lib/AT32F435/bsp/Bsp_DMA.c ****         return;
 1583              		.loc 1 679 9 is_stmt 1 view .LVU466
 1584 005e 06E0     		b	.L134
 1585              	.LVL145:
 1586              	.L162:
 528:HW_Lib/AT32F435/bsp/Bsp_DMA.c ****             BspDMA1_Irq_Callback_List[Bsp_DMA_Stream_1]->BspDMA_Irq_Callback_Func)
 1587              		.loc 1 528 9 view .LVU467
 528:HW_Lib/AT32F435/bsp/Bsp_DMA.c ****             BspDMA1_Irq_Callback_List[Bsp_DMA_Stream_1]->BspDMA_Irq_Callback_Func)
 1588              		.loc 1 528 38 is_stmt 0 view .LVU468
 1589 0060 484B     		ldr	r3, .L174+56
 1590 0062 1B68     		ldr	r3, [r3]
 528:HW_Lib/AT32F435/bsp/Bsp_DMA.c ****             BspDMA1_Irq_Callback_List[Bsp_DMA_Stream_1]->BspDMA_Irq_Callback_Func)
 1591              		.loc 1 528 12 view .LVU469
 1592 0064 1BB1     		cbz	r3, .L134
 529:HW_Lib/AT32F435/bsp/Bsp_DMA.c ****         {
 1593              		.loc 1 529 56 discriminator 1 view .LVU470
 1594 0066 1A68     		ldr	r2, [r3]
 528:HW_Lib/AT32F435/bsp/Bsp_DMA.c ****             BspDMA1_Irq_Callback_List[Bsp_DMA_Stream_1]->BspDMA_Irq_Callback_Func)
 1595              		.loc 1 528 57 discriminator 1 view .LVU471
 1596 0068 0AB1     		cbz	r2, .L134
 531:HW_Lib/AT32F435/bsp/Bsp_DMA.c ****             BspDMA1_Irq_Callback_List[Bsp_DMA_Stream_1]->BspDMA_Irq_Callback_Func(cus_data);
 1597              		.loc 1 531 13 is_stmt 1 view .LVU472
 1598              	.LVL146:
 532:HW_Lib/AT32F435/bsp/Bsp_DMA.c ****         }
 1599              		.loc 1 532 13 view .LVU473
 1600 006a 5868     		ldr	r0, [r3, #4]
 1601              	.LVL147:
 532:HW_Lib/AT32F435/bsp/Bsp_DMA.c ****         }
 1602              		.loc 1 532 13 is_stmt 0 view .LVU474
 1603 006c 9047     		blx	r2
 1604              	.LVL148:
 535:HW_Lib/AT32F435/bsp/Bsp_DMA.c ****     }
 1605              		.loc 1 535 9 is_stmt 1 view .LVU475
 1606              	.L134:
 680:HW_Lib/AT32F435/bsp/Bsp_DMA.c ****     }
 681:HW_Lib/AT32F435/bsp/Bsp_DMA.c **** }
 1607              		.loc 1 681 1 is_stmt 0 view .LVU476
 1608 006e 08BD     		pop	{r3, pc}
 1609              	.LVL149:
 1610              	.L163:
 540:HW_Lib/AT32F435/bsp/Bsp_DMA.c ****             BspDMA1_Irq_Callback_List[Bsp_DMA_Stream_2]->BspDMA_Irq_Callback_Func)
 1611              		.loc 1 540 9 is_stmt 1 view .LVU477
 540:HW_Lib/AT32F435/bsp/Bsp_DMA.c ****             BspDMA1_Irq_Callback_List[Bsp_DMA_Stream_2]->BspDMA_Irq_Callback_Func)
 1612              		.loc 1 540 38 is_stmt 0 view .LVU478
ARM GAS  C:\Users\8bit\AppData\Local\Temp\cccZxcPc.s 			page 47


 1613 0070 444B     		ldr	r3, .L174+56
 1614 0072 5B68     		ldr	r3, [r3, #4]
 540:HW_Lib/AT32F435/bsp/Bsp_DMA.c ****             BspDMA1_Irq_Callback_List[Bsp_DMA_Stream_2]->BspDMA_Irq_Callback_Func)
 1615              		.loc 1 540 12 view .LVU479
 1616 0074 002B     		cmp	r3, #0
 1617 0076 FAD0     		beq	.L134
 541:HW_Lib/AT32F435/bsp/Bsp_DMA.c ****         {
 1618              		.loc 1 541 56 discriminator 1 view .LVU480
 1619 0078 1A68     		ldr	r2, [r3]
 540:HW_Lib/AT32F435/bsp/Bsp_DMA.c ****             BspDMA1_Irq_Callback_List[Bsp_DMA_Stream_2]->BspDMA_Irq_Callback_Func)
 1620              		.loc 1 540 57 discriminator 1 view .LVU481
 1621 007a 002A     		cmp	r2, #0
 1622 007c F7D0     		beq	.L134
 543:HW_Lib/AT32F435/bsp/Bsp_DMA.c ****             BspDMA1_Irq_Callback_List[Bsp_DMA_Stream_2]->BspDMA_Irq_Callback_Func(cus_data);
 1623              		.loc 1 543 13 is_stmt 1 view .LVU482
 1624              	.LVL150:
 544:HW_Lib/AT32F435/bsp/Bsp_DMA.c ****         }
 1625              		.loc 1 544 13 view .LVU483
 1626 007e 5868     		ldr	r0, [r3, #4]
 1627              	.LVL151:
 544:HW_Lib/AT32F435/bsp/Bsp_DMA.c ****         }
 1628              		.loc 1 544 13 is_stmt 0 view .LVU484
 1629 0080 9047     		blx	r2
 1630              	.LVL152:
 547:HW_Lib/AT32F435/bsp/Bsp_DMA.c ****     }
 1631              		.loc 1 547 9 is_stmt 1 view .LVU485
 1632 0082 F4E7     		b	.L134
 1633              	.LVL153:
 1634              	.L164:
 552:HW_Lib/AT32F435/bsp/Bsp_DMA.c ****             BspDMA1_Irq_Callback_List[Bsp_DMA_Stream_3]->BspDMA_Irq_Callback_Func)
 1635              		.loc 1 552 9 view .LVU486
 552:HW_Lib/AT32F435/bsp/Bsp_DMA.c ****             BspDMA1_Irq_Callback_List[Bsp_DMA_Stream_3]->BspDMA_Irq_Callback_Func)
 1636              		.loc 1 552 38 is_stmt 0 view .LVU487
 1637 0084 3F4B     		ldr	r3, .L174+56
 1638 0086 9B68     		ldr	r3, [r3, #8]
 552:HW_Lib/AT32F435/bsp/Bsp_DMA.c ****             BspDMA1_Irq_Callback_List[Bsp_DMA_Stream_3]->BspDMA_Irq_Callback_Func)
 1639              		.loc 1 552 12 view .LVU488
 1640 0088 002B     		cmp	r3, #0
 1641 008a F0D0     		beq	.L134
 553:HW_Lib/AT32F435/bsp/Bsp_DMA.c ****         {
 1642              		.loc 1 553 56 discriminator 1 view .LVU489
 1643 008c 1A68     		ldr	r2, [r3]
 552:HW_Lib/AT32F435/bsp/Bsp_DMA.c ****             BspDMA1_Irq_Callback_List[Bsp_DMA_Stream_3]->BspDMA_Irq_Callback_Func)
 1644              		.loc 1 552 57 discriminator 1 view .LVU490
 1645 008e 002A     		cmp	r2, #0
 1646 0090 EDD0     		beq	.L134
 555:HW_Lib/AT32F435/bsp/Bsp_DMA.c ****             BspDMA1_Irq_Callback_List[Bsp_DMA_Stream_3]->BspDMA_Irq_Callback_Func(cus_data);
 1647              		.loc 1 555 13 is_stmt 1 view .LVU491
 1648              	.LVL154:
 556:HW_Lib/AT32F435/bsp/Bsp_DMA.c ****         }
 1649              		.loc 1 556 13 view .LVU492
 1650 0092 5868     		ldr	r0, [r3, #4]
 1651              	.LVL155:
 556:HW_Lib/AT32F435/bsp/Bsp_DMA.c ****         }
 1652              		.loc 1 556 13 is_stmt 0 view .LVU493
 1653 0094 9047     		blx	r2
 1654              	.LVL156:
ARM GAS  C:\Users\8bit\AppData\Local\Temp\cccZxcPc.s 			page 48


 559:HW_Lib/AT32F435/bsp/Bsp_DMA.c ****     }
 1655              		.loc 1 559 9 is_stmt 1 view .LVU494
 1656 0096 EAE7     		b	.L134
 1657              	.LVL157:
 1658              	.L165:
 564:HW_Lib/AT32F435/bsp/Bsp_DMA.c ****             BspDMA1_Irq_Callback_List[Bsp_DMA_Stream_4]->BspDMA_Irq_Callback_Func)
 1659              		.loc 1 564 9 view .LVU495
 564:HW_Lib/AT32F435/bsp/Bsp_DMA.c ****             BspDMA1_Irq_Callback_List[Bsp_DMA_Stream_4]->BspDMA_Irq_Callback_Func)
 1660              		.loc 1 564 38 is_stmt 0 view .LVU496
 1661 0098 3A4B     		ldr	r3, .L174+56
 1662 009a DB68     		ldr	r3, [r3, #12]
 564:HW_Lib/AT32F435/bsp/Bsp_DMA.c ****             BspDMA1_Irq_Callback_List[Bsp_DMA_Stream_4]->BspDMA_Irq_Callback_Func)
 1663              		.loc 1 564 12 view .LVU497
 1664 009c 002B     		cmp	r3, #0
 1665 009e E6D0     		beq	.L134
 565:HW_Lib/AT32F435/bsp/Bsp_DMA.c ****         {
 1666              		.loc 1 565 56 discriminator 1 view .LVU498
 1667 00a0 1A68     		ldr	r2, [r3]
 564:HW_Lib/AT32F435/bsp/Bsp_DMA.c ****             BspDMA1_Irq_Callback_List[Bsp_DMA_Stream_4]->BspDMA_Irq_Callback_Func)
 1668              		.loc 1 564 57 discriminator 1 view .LVU499
 1669 00a2 002A     		cmp	r2, #0
 1670 00a4 E3D0     		beq	.L134
 567:HW_Lib/AT32F435/bsp/Bsp_DMA.c ****             BspDMA1_Irq_Callback_List[Bsp_DMA_Stream_4]->BspDMA_Irq_Callback_Func(cus_data);
 1671              		.loc 1 567 13 is_stmt 1 view .LVU500
 1672              	.LVL158:
 568:HW_Lib/AT32F435/bsp/Bsp_DMA.c ****         }
 1673              		.loc 1 568 13 view .LVU501
 1674 00a6 5868     		ldr	r0, [r3, #4]
 1675              	.LVL159:
 568:HW_Lib/AT32F435/bsp/Bsp_DMA.c ****         }
 1676              		.loc 1 568 13 is_stmt 0 view .LVU502
 1677 00a8 9047     		blx	r2
 1678              	.LVL160:
 571:HW_Lib/AT32F435/bsp/Bsp_DMA.c ****     }
 1679              		.loc 1 571 9 is_stmt 1 view .LVU503
 1680 00aa E0E7     		b	.L134
 1681              	.LVL161:
 1682              	.L166:
 576:HW_Lib/AT32F435/bsp/Bsp_DMA.c ****             BspDMA1_Irq_Callback_List[Bsp_DMA_Stream_5]->BspDMA_Irq_Callback_Func)
 1683              		.loc 1 576 9 view .LVU504
 576:HW_Lib/AT32F435/bsp/Bsp_DMA.c ****             BspDMA1_Irq_Callback_List[Bsp_DMA_Stream_5]->BspDMA_Irq_Callback_Func)
 1684              		.loc 1 576 38 is_stmt 0 view .LVU505
 1685 00ac 354B     		ldr	r3, .L174+56
 1686 00ae 1B69     		ldr	r3, [r3, #16]
 576:HW_Lib/AT32F435/bsp/Bsp_DMA.c ****             BspDMA1_Irq_Callback_List[Bsp_DMA_Stream_5]->BspDMA_Irq_Callback_Func)
 1687              		.loc 1 576 12 view .LVU506
 1688 00b0 002B     		cmp	r3, #0
 1689 00b2 DCD0     		beq	.L134
 577:HW_Lib/AT32F435/bsp/Bsp_DMA.c ****         {
 1690              		.loc 1 577 56 discriminator 1 view .LVU507
 1691 00b4 1A68     		ldr	r2, [r3]
 576:HW_Lib/AT32F435/bsp/Bsp_DMA.c ****             BspDMA1_Irq_Callback_List[Bsp_DMA_Stream_5]->BspDMA_Irq_Callback_Func)
 1692              		.loc 1 576 57 discriminator 1 view .LVU508
 1693 00b6 002A     		cmp	r2, #0
 1694 00b8 D9D0     		beq	.L134
 579:HW_Lib/AT32F435/bsp/Bsp_DMA.c ****             BspDMA1_Irq_Callback_List[Bsp_DMA_Stream_5]->BspDMA_Irq_Callback_Func(cus_data);
 1695              		.loc 1 579 13 is_stmt 1 view .LVU509
ARM GAS  C:\Users\8bit\AppData\Local\Temp\cccZxcPc.s 			page 49


 1696              	.LVL162:
 580:HW_Lib/AT32F435/bsp/Bsp_DMA.c ****         }
 1697              		.loc 1 580 13 view .LVU510
 1698 00ba 5868     		ldr	r0, [r3, #4]
 1699              	.LVL163:
 580:HW_Lib/AT32F435/bsp/Bsp_DMA.c ****         }
 1700              		.loc 1 580 13 is_stmt 0 view .LVU511
 1701 00bc 9047     		blx	r2
 1702              	.LVL164:
 583:HW_Lib/AT32F435/bsp/Bsp_DMA.c ****     }
 1703              		.loc 1 583 9 is_stmt 1 view .LVU512
 1704 00be D6E7     		b	.L134
 1705              	.LVL165:
 1706              	.L167:
 588:HW_Lib/AT32F435/bsp/Bsp_DMA.c ****             BspDMA1_Irq_Callback_List[Bsp_DMA_Stream_6]->BspDMA_Irq_Callback_Func)
 1707              		.loc 1 588 9 view .LVU513
 588:HW_Lib/AT32F435/bsp/Bsp_DMA.c ****             BspDMA1_Irq_Callback_List[Bsp_DMA_Stream_6]->BspDMA_Irq_Callback_Func)
 1708              		.loc 1 588 38 is_stmt 0 view .LVU514
 1709 00c0 304B     		ldr	r3, .L174+56
 1710 00c2 5B69     		ldr	r3, [r3, #20]
 588:HW_Lib/AT32F435/bsp/Bsp_DMA.c ****             BspDMA1_Irq_Callback_List[Bsp_DMA_Stream_6]->BspDMA_Irq_Callback_Func)
 1711              		.loc 1 588 12 view .LVU515
 1712 00c4 002B     		cmp	r3, #0
 1713 00c6 D2D0     		beq	.L134
 589:HW_Lib/AT32F435/bsp/Bsp_DMA.c ****         {
 1714              		.loc 1 589 56 discriminator 1 view .LVU516
 1715 00c8 1A68     		ldr	r2, [r3]
 588:HW_Lib/AT32F435/bsp/Bsp_DMA.c ****             BspDMA1_Irq_Callback_List[Bsp_DMA_Stream_6]->BspDMA_Irq_Callback_Func)
 1716              		.loc 1 588 57 discriminator 1 view .LVU517
 1717 00ca 002A     		cmp	r2, #0
 1718 00cc CFD0     		beq	.L134
 591:HW_Lib/AT32F435/bsp/Bsp_DMA.c ****             BspDMA1_Irq_Callback_List[Bsp_DMA_Stream_6]->BspDMA_Irq_Callback_Func(cus_data);
 1719              		.loc 1 591 13 is_stmt 1 view .LVU518
 1720              	.LVL166:
 592:HW_Lib/AT32F435/bsp/Bsp_DMA.c ****         }
 1721              		.loc 1 592 13 view .LVU519
 1722 00ce 5868     		ldr	r0, [r3, #4]
 1723              	.LVL167:
 592:HW_Lib/AT32F435/bsp/Bsp_DMA.c ****         }
 1724              		.loc 1 592 13 is_stmt 0 view .LVU520
 1725 00d0 9047     		blx	r2
 1726              	.LVL168:
 595:HW_Lib/AT32F435/bsp/Bsp_DMA.c ****     }
 1727              		.loc 1 595 9 is_stmt 1 view .LVU521
 1728 00d2 CCE7     		b	.L134
 1729              	.LVL169:
 1730              	.L168:
 600:HW_Lib/AT32F435/bsp/Bsp_DMA.c ****             BspDMA1_Irq_Callback_List[Bsp_DMA_Stream_7]->BspDMA_Irq_Callback_Func)
 1731              		.loc 1 600 9 view .LVU522
 600:HW_Lib/AT32F435/bsp/Bsp_DMA.c ****             BspDMA1_Irq_Callback_List[Bsp_DMA_Stream_7]->BspDMA_Irq_Callback_Func)
 1732              		.loc 1 600 38 is_stmt 0 view .LVU523
 1733 00d4 2B4B     		ldr	r3, .L174+56
 1734 00d6 9B69     		ldr	r3, [r3, #24]
 600:HW_Lib/AT32F435/bsp/Bsp_DMA.c ****             BspDMA1_Irq_Callback_List[Bsp_DMA_Stream_7]->BspDMA_Irq_Callback_Func)
 1735              		.loc 1 600 12 view .LVU524
 1736 00d8 002B     		cmp	r3, #0
 1737 00da C8D0     		beq	.L134
ARM GAS  C:\Users\8bit\AppData\Local\Temp\cccZxcPc.s 			page 50


 601:HW_Lib/AT32F435/bsp/Bsp_DMA.c ****         {
 1738              		.loc 1 601 56 discriminator 1 view .LVU525
 1739 00dc 1A68     		ldr	r2, [r3]
 600:HW_Lib/AT32F435/bsp/Bsp_DMA.c ****             BspDMA1_Irq_Callback_List[Bsp_DMA_Stream_7]->BspDMA_Irq_Callback_Func)
 1740              		.loc 1 600 57 discriminator 1 view .LVU526
 1741 00de 002A     		cmp	r2, #0
 1742 00e0 C5D0     		beq	.L134
 603:HW_Lib/AT32F435/bsp/Bsp_DMA.c ****             BspDMA1_Irq_Callback_List[Bsp_DMA_Stream_7]->BspDMA_Irq_Callback_Func(cus_data);
 1743              		.loc 1 603 13 is_stmt 1 view .LVU527
 1744              	.LVL170:
 604:HW_Lib/AT32F435/bsp/Bsp_DMA.c ****         }
 1745              		.loc 1 604 13 view .LVU528
 1746 00e2 5868     		ldr	r0, [r3, #4]
 1747              	.LVL171:
 604:HW_Lib/AT32F435/bsp/Bsp_DMA.c ****         }
 1748              		.loc 1 604 13 is_stmt 0 view .LVU529
 1749 00e4 9047     		blx	r2
 1750              	.LVL172:
 607:HW_Lib/AT32F435/bsp/Bsp_DMA.c ****     }
 1751              		.loc 1 607 9 is_stmt 1 view .LVU530
 1752 00e6 C2E7     		b	.L134
 1753              	.LVL173:
 1754              	.L169:
 612:HW_Lib/AT32F435/bsp/Bsp_DMA.c ****             BspDMA2_Irq_Callback_List[Bsp_DMA_Stream_1]->BspDMA_Irq_Callback_Func)
 1755              		.loc 1 612 9 view .LVU531
 612:HW_Lib/AT32F435/bsp/Bsp_DMA.c ****             BspDMA2_Irq_Callback_List[Bsp_DMA_Stream_1]->BspDMA_Irq_Callback_Func)
 1756              		.loc 1 612 38 is_stmt 0 view .LVU532
 1757 00e8 254B     		ldr	r3, .L174+52
 1758 00ea 1B68     		ldr	r3, [r3]
 612:HW_Lib/AT32F435/bsp/Bsp_DMA.c ****             BspDMA2_Irq_Callback_List[Bsp_DMA_Stream_1]->BspDMA_Irq_Callback_Func)
 1759              		.loc 1 612 12 view .LVU533
 1760 00ec 002B     		cmp	r3, #0
 1761 00ee BED0     		beq	.L134
 613:HW_Lib/AT32F435/bsp/Bsp_DMA.c ****         {
 1762              		.loc 1 613 56 discriminator 1 view .LVU534
 1763 00f0 1A68     		ldr	r2, [r3]
 612:HW_Lib/AT32F435/bsp/Bsp_DMA.c ****             BspDMA2_Irq_Callback_List[Bsp_DMA_Stream_1]->BspDMA_Irq_Callback_Func)
 1764              		.loc 1 612 57 discriminator 1 view .LVU535
 1765 00f2 002A     		cmp	r2, #0
 1766 00f4 BBD0     		beq	.L134
 615:HW_Lib/AT32F435/bsp/Bsp_DMA.c ****             BspDMA2_Irq_Callback_List[Bsp_DMA_Stream_1]->BspDMA_Irq_Callback_Func(cus_data);
 1767              		.loc 1 615 13 is_stmt 1 view .LVU536
 1768              	.LVL174:
 616:HW_Lib/AT32F435/bsp/Bsp_DMA.c ****         }
 1769              		.loc 1 616 13 view .LVU537
 1770 00f6 5868     		ldr	r0, [r3, #4]
 1771              	.LVL175:
 616:HW_Lib/AT32F435/bsp/Bsp_DMA.c ****         }
 1772              		.loc 1 616 13 is_stmt 0 view .LVU538
 1773 00f8 9047     		blx	r2
 1774              	.LVL176:
 619:HW_Lib/AT32F435/bsp/Bsp_DMA.c ****     }
 1775              		.loc 1 619 9 is_stmt 1 view .LVU539
 1776 00fa B8E7     		b	.L134
 1777              	.LVL177:
 1778              	.L170:
 624:HW_Lib/AT32F435/bsp/Bsp_DMA.c ****             BspDMA2_Irq_Callback_List[Bsp_DMA_Stream_2]->BspDMA_Irq_Callback_Func)
ARM GAS  C:\Users\8bit\AppData\Local\Temp\cccZxcPc.s 			page 51


 1779              		.loc 1 624 9 view .LVU540
 624:HW_Lib/AT32F435/bsp/Bsp_DMA.c ****             BspDMA2_Irq_Callback_List[Bsp_DMA_Stream_2]->BspDMA_Irq_Callback_Func)
 1780              		.loc 1 624 38 is_stmt 0 view .LVU541
 1781 00fc 204B     		ldr	r3, .L174+52
 1782 00fe 5B68     		ldr	r3, [r3, #4]
 624:HW_Lib/AT32F435/bsp/Bsp_DMA.c ****             BspDMA2_Irq_Callback_List[Bsp_DMA_Stream_2]->BspDMA_Irq_Callback_Func)
 1783              		.loc 1 624 12 view .LVU542
 1784 0100 002B     		cmp	r3, #0
 1785 0102 B4D0     		beq	.L134
 625:HW_Lib/AT32F435/bsp/Bsp_DMA.c ****         {
 1786              		.loc 1 625 56 discriminator 1 view .LVU543
 1787 0104 1A68     		ldr	r2, [r3]
 624:HW_Lib/AT32F435/bsp/Bsp_DMA.c ****             BspDMA2_Irq_Callback_List[Bsp_DMA_Stream_2]->BspDMA_Irq_Callback_Func)
 1788              		.loc 1 624 57 discriminator 1 view .LVU544
 1789 0106 002A     		cmp	r2, #0
 1790 0108 B1D0     		beq	.L134
 627:HW_Lib/AT32F435/bsp/Bsp_DMA.c ****             BspDMA2_Irq_Callback_List[Bsp_DMA_Stream_2]->BspDMA_Irq_Callback_Func(cus_data);
 1791              		.loc 1 627 13 is_stmt 1 view .LVU545
 1792              	.LVL178:
 628:HW_Lib/AT32F435/bsp/Bsp_DMA.c ****         }
 1793              		.loc 1 628 13 view .LVU546
 1794 010a 5868     		ldr	r0, [r3, #4]
 1795              	.LVL179:
 628:HW_Lib/AT32F435/bsp/Bsp_DMA.c ****         }
 1796              		.loc 1 628 13 is_stmt 0 view .LVU547
 1797 010c 9047     		blx	r2
 1798              	.LVL180:
 631:HW_Lib/AT32F435/bsp/Bsp_DMA.c ****     }
 1799              		.loc 1 631 9 is_stmt 1 view .LVU548
 1800 010e AEE7     		b	.L134
 1801              	.LVL181:
 1802              	.L171:
 636:HW_Lib/AT32F435/bsp/Bsp_DMA.c ****             BspDMA2_Irq_Callback_List[Bsp_DMA_Stream_3]->BspDMA_Irq_Callback_Func)
 1803              		.loc 1 636 9 view .LVU549
 636:HW_Lib/AT32F435/bsp/Bsp_DMA.c ****             BspDMA2_Irq_Callback_List[Bsp_DMA_Stream_3]->BspDMA_Irq_Callback_Func)
 1804              		.loc 1 636 38 is_stmt 0 view .LVU550
 1805 0110 1B4B     		ldr	r3, .L174+52
 1806 0112 9B68     		ldr	r3, [r3, #8]
 636:HW_Lib/AT32F435/bsp/Bsp_DMA.c ****             BspDMA2_Irq_Callback_List[Bsp_DMA_Stream_3]->BspDMA_Irq_Callback_Func)
 1807              		.loc 1 636 12 view .LVU551
 1808 0114 002B     		cmp	r3, #0
 1809 0116 AAD0     		beq	.L134
 637:HW_Lib/AT32F435/bsp/Bsp_DMA.c ****         {
 1810              		.loc 1 637 56 discriminator 1 view .LVU552
 1811 0118 1A68     		ldr	r2, [r3]
 636:HW_Lib/AT32F435/bsp/Bsp_DMA.c ****             BspDMA2_Irq_Callback_List[Bsp_DMA_Stream_3]->BspDMA_Irq_Callback_Func)
 1812              		.loc 1 636 57 discriminator 1 view .LVU553
 1813 011a 002A     		cmp	r2, #0
 1814 011c A7D0     		beq	.L134
 639:HW_Lib/AT32F435/bsp/Bsp_DMA.c ****             BspDMA2_Irq_Callback_List[Bsp_DMA_Stream_3]->BspDMA_Irq_Callback_Func(cus_data);
 1815              		.loc 1 639 13 is_stmt 1 view .LVU554
 1816              	.LVL182:
 640:HW_Lib/AT32F435/bsp/Bsp_DMA.c ****         }
 1817              		.loc 1 640 13 view .LVU555
 1818 011e 5868     		ldr	r0, [r3, #4]
 1819              	.LVL183:
 640:HW_Lib/AT32F435/bsp/Bsp_DMA.c ****         }
ARM GAS  C:\Users\8bit\AppData\Local\Temp\cccZxcPc.s 			page 52


 1820              		.loc 1 640 13 is_stmt 0 view .LVU556
 1821 0120 9047     		blx	r2
 1822              	.LVL184:
 643:HW_Lib/AT32F435/bsp/Bsp_DMA.c ****     }
 1823              		.loc 1 643 9 is_stmt 1 view .LVU557
 1824 0122 A4E7     		b	.L134
 1825              	.LVL185:
 1826              	.L172:
 648:HW_Lib/AT32F435/bsp/Bsp_DMA.c ****             BspDMA2_Irq_Callback_List[Bsp_DMA_Stream_4]->BspDMA_Irq_Callback_Func)
 1827              		.loc 1 648 9 view .LVU558
 648:HW_Lib/AT32F435/bsp/Bsp_DMA.c ****             BspDMA2_Irq_Callback_List[Bsp_DMA_Stream_4]->BspDMA_Irq_Callback_Func)
 1828              		.loc 1 648 38 is_stmt 0 view .LVU559
 1829 0124 164B     		ldr	r3, .L174+52
 1830 0126 DB68     		ldr	r3, [r3, #12]
 648:HW_Lib/AT32F435/bsp/Bsp_DMA.c ****             BspDMA2_Irq_Callback_List[Bsp_DMA_Stream_4]->BspDMA_Irq_Callback_Func)
 1831              		.loc 1 648 12 view .LVU560
 1832 0128 002B     		cmp	r3, #0
 1833 012a A0D0     		beq	.L134
 649:HW_Lib/AT32F435/bsp/Bsp_DMA.c ****         {
 1834              		.loc 1 649 56 discriminator 1 view .LVU561
 1835 012c 1A68     		ldr	r2, [r3]
 648:HW_Lib/AT32F435/bsp/Bsp_DMA.c ****             BspDMA2_Irq_Callback_List[Bsp_DMA_Stream_4]->BspDMA_Irq_Callback_Func)
 1836              		.loc 1 648 57 discriminator 1 view .LVU562
 1837 012e 002A     		cmp	r2, #0
 1838 0130 9DD0     		beq	.L134
 651:HW_Lib/AT32F435/bsp/Bsp_DMA.c ****             BspDMA2_Irq_Callback_List[Bsp_DMA_Stream_4]->BspDMA_Irq_Callback_Func(cus_data);
 1839              		.loc 1 651 13 is_stmt 1 view .LVU563
 1840              	.LVL186:
 652:HW_Lib/AT32F435/bsp/Bsp_DMA.c ****         }
 1841              		.loc 1 652 13 view .LVU564
 1842 0132 5868     		ldr	r0, [r3, #4]
 1843              	.LVL187:
 652:HW_Lib/AT32F435/bsp/Bsp_DMA.c ****         }
 1844              		.loc 1 652 13 is_stmt 0 view .LVU565
 1845 0134 9047     		blx	r2
 1846              	.LVL188:
 655:HW_Lib/AT32F435/bsp/Bsp_DMA.c ****     }
 1847              		.loc 1 655 9 is_stmt 1 view .LVU566
 1848 0136 9AE7     		b	.L134
 1849              	.LVL189:
 1850              	.L173:
 660:HW_Lib/AT32F435/bsp/Bsp_DMA.c ****             BspDMA2_Irq_Callback_List[Bsp_DMA_Stream_5]->BspDMA_Irq_Callback_Func)
 1851              		.loc 1 660 9 view .LVU567
 660:HW_Lib/AT32F435/bsp/Bsp_DMA.c ****             BspDMA2_Irq_Callback_List[Bsp_DMA_Stream_5]->BspDMA_Irq_Callback_Func)
 1852              		.loc 1 660 38 is_stmt 0 view .LVU568
 1853 0138 114B     		ldr	r3, .L174+52
 1854 013a 1B69     		ldr	r3, [r3, #16]
 660:HW_Lib/AT32F435/bsp/Bsp_DMA.c ****             BspDMA2_Irq_Callback_List[Bsp_DMA_Stream_5]->BspDMA_Irq_Callback_Func)
 1855              		.loc 1 660 12 view .LVU569
 1856 013c 002B     		cmp	r3, #0
 1857 013e 96D0     		beq	.L134
 661:HW_Lib/AT32F435/bsp/Bsp_DMA.c ****         {
 1858              		.loc 1 661 56 discriminator 1 view .LVU570
 1859 0140 1A68     		ldr	r2, [r3]
 660:HW_Lib/AT32F435/bsp/Bsp_DMA.c ****             BspDMA2_Irq_Callback_List[Bsp_DMA_Stream_5]->BspDMA_Irq_Callback_Func)
 1860              		.loc 1 660 57 discriminator 1 view .LVU571
 1861 0142 002A     		cmp	r2, #0
ARM GAS  C:\Users\8bit\AppData\Local\Temp\cccZxcPc.s 			page 53


 1862 0144 93D0     		beq	.L134
 663:HW_Lib/AT32F435/bsp/Bsp_DMA.c ****             BspDMA2_Irq_Callback_List[Bsp_DMA_Stream_5]->BspDMA_Irq_Callback_Func(cus_data);
 1863              		.loc 1 663 13 is_stmt 1 view .LVU572
 1864              	.LVL190:
 664:HW_Lib/AT32F435/bsp/Bsp_DMA.c ****         }
 1865              		.loc 1 664 13 view .LVU573
 1866 0146 5868     		ldr	r0, [r3, #4]
 1867              	.LVL191:
 664:HW_Lib/AT32F435/bsp/Bsp_DMA.c ****         }
 1868              		.loc 1 664 13 is_stmt 0 view .LVU574
 1869 0148 9047     		blx	r2
 1870              	.LVL192:
 667:HW_Lib/AT32F435/bsp/Bsp_DMA.c ****     }
 1871              		.loc 1 667 9 is_stmt 1 view .LVU575
 1872 014a 90E7     		b	.L134
 1873              	.L175:
 1874              		.align	2
 1875              	.L174:
 1876 014c 08640240 		.word	1073898504
 1877 0150 1C640240 		.word	1073898524
 1878 0154 30640240 		.word	1073898544
 1879 0158 44640240 		.word	1073898564
 1880 015c 58640240 		.word	1073898584
 1881 0160 6C640240 		.word	1073898604
 1882 0164 80640240 		.word	1073898624
 1883 0168 08660240 		.word	1073899016
 1884 016c 1C660240 		.word	1073899036
 1885 0170 30660240 		.word	1073899056
 1886 0174 44660240 		.word	1073899076
 1887 0178 58660240 		.word	1073899096
 1888 017c 6C660240 		.word	1073899116
 1889 0180 00000000 		.word	.LANCHOR2
 1890 0184 00000000 		.word	.LANCHOR1
 1891              		.cfi_endproc
 1892              	.LFE145:
 1894              		.global	BspDMA_Pipe
 1895              		.global	BspDMA
 1896              		.section	.bss.BspDMA1_Irq_Callback_List,"aw",%nobits
 1897              		.align	2
 1898              		.set	.LANCHOR1,. + 0
 1901              	BspDMA1_Irq_Callback_List:
 1902 0000 00000000 		.space	28
 1902      00000000 
 1902      00000000 
 1902      00000000 
 1902      00000000 
 1903              		.section	.bss.BspDMA2_Irq_Callback_List,"aw",%nobits
 1904              		.align	2
 1905              		.set	.LANCHOR2,. + 0
 1908              	BspDMA2_Irq_Callback_List:
 1909 0000 00000000 		.space	28
 1909      00000000 
 1909      00000000 
 1909      00000000 
 1909      00000000 
 1910              		.section	.bss.DataPipe_DMA_Init,"aw",%nobits
 1911              		.set	.LANCHOR0,. + 0
ARM GAS  C:\Users\8bit\AppData\Local\Temp\cccZxcPc.s 			page 54


 1914              	DataPipe_DMA_Init:
 1915 0000 00       		.space	1
 1916              		.section	.bss.DataPipe_Trans_Err_Callback,"aw",%nobits
 1917              		.align	2
 1918              		.set	.LANCHOR9,. + 0
 1921              	DataPipe_Trans_Err_Callback:
 1922 0000 00000000 		.space	4
 1923              		.section	.bss.DataPipe_Trans_Fin_Callback,"aw",%nobits
 1924              		.align	2
 1925              		.set	.LANCHOR8,. + 0
 1928              	DataPipe_Trans_Fin_Callback:
 1929 0000 00000000 		.space	4
 1930              		.section	.bss.Dma_Clock_Init,"aw",%nobits
 1931              		.set	.LANCHOR3,. + 0
 1934              	Dma_Clock_Init:
 1935 0000 00       		.space	1
 1936              		.section	.bss.dma1_enable.1,"aw",%nobits
 1937              		.set	.LANCHOR4,. + 0
 1940              	dma1_enable.1:
 1941 0000 00       		.space	1
 1942              		.section	.bss.dma2_enable.0,"aw",%nobits
 1943              		.set	.LANCHOR6,. + 0
 1946              	dma2_enable.0:
 1947 0000 00       		.space	1
 1948              		.section	.data.BspDMA,"aw"
 1949              		.align	2
 1952              	BspDMA:
 1953 0000 00000000 		.word	BspDMA_Regist_Obj
 1954 0004 00000000 		.word	BspDMA_Unregist_Obj
 1955 0008 00000000 		.word	BspDMA_Get_Handle
 1956 000c 00000000 		.word	BspDMA_Get_Channel_Instance
 1957 0010 00000000 		.word	BspDMA_Get_Instance
 1958 0014 00000000 		.word	BspDMA_EnableIRQ
 1959 0018 00000000 		.word	BspDMA_DisableIRQ
 1960              		.section	.data.BspDMA_Pipe,"aw"
 1961              		.align	2
 1964              	BspDMA_Pipe:
 1965 0000 00000000 		.word	BspDMA_Pipe_Init
 1966 0004 00000000 		.word	BspDMA_Pipe_DeInit
 1967 0008 00000000 		.word	BspDMA_Pipe_Trans
 1968 000c 00000000 		.word	BspDMA_Get_Pipe_Handle
 1969              		.section	.rodata.BspDMA1_Instance_List,"a"
 1970              		.align	2
 1971              		.set	.LANCHOR5,. + 0
 1974              	BspDMA1_Instance_List:
 1975 0000 08640240 		.word	1073898504
 1976 0004 1C640240 		.word	1073898524
 1977 0008 30640240 		.word	1073898544
 1978 000c 44640240 		.word	1073898564
 1979 0010 58640240 		.word	1073898584
 1980 0014 6C640240 		.word	1073898604
 1981 0018 80640240 		.word	1073898624
 1982              		.section	.rodata.BspDMA2_Instance_List,"a"
 1983              		.align	2
 1984              		.set	.LANCHOR7,. + 0
 1987              	BspDMA2_Instance_List:
 1988 0000 08660240 		.word	1073899016
ARM GAS  C:\Users\8bit\AppData\Local\Temp\cccZxcPc.s 			page 55


 1989 0004 1C660240 		.word	1073899036
 1990 0008 30660240 		.word	1073899056
 1991 000c 44660240 		.word	1073899076
 1992 0010 58660240 		.word	1073899096
 1993 0014 6C660240 		.word	1073899116
 1994 0018 80660240 		.word	1073899136
 1995              		.text
 1996              	.Letext0:
 1997              		.file 2 "c:\\program files (x86)\\gnu arm embedded toolchain\\10 2021.10\\arm-none-eabi\\include\\
 1998              		.file 3 "c:\\program files (x86)\\gnu arm embedded toolchain\\10 2021.10\\arm-none-eabi\\include\\
 1999              		.file 4 "HW_Lib/Port_Def/Bsp_DMA_Port_Def.h"
 2000              		.file 5 "HW_Lib/AT32F435/device_support/at32f435_437.h"
 2001              		.file 6 "HW_Lib/AT32F435/drivers/inc/at32f435_437_crm.h"
 2002              		.file 7 "HW_Lib/AT32F435/drivers/inc/at32f435_437_tmr.h"
 2003              		.file 8 "HW_Lib/AT32F435/drivers/inc/at32f435_437_misc.h"
 2004              		.file 9 "HW_Lib/AT32F435/drivers/inc/at32f435_437_dma.h"
 2005              		.file 10 "HW_Lib/AT32F435/bsp/Bsp_DMA.h"
ARM GAS  C:\Users\8bit\AppData\Local\Temp\cccZxcPc.s 			page 56


DEFINED SYMBOLS
                            *ABS*:00000000 Bsp_DMA.c
C:\Users\8bit\AppData\Local\Temp\cccZxcPc.s:20     .text.BspDMA_Regist_Obj:00000000 $t
C:\Users\8bit\AppData\Local\Temp\cccZxcPc.s:25     .text.BspDMA_Regist_Obj:00000000 BspDMA_Regist_Obj
C:\Users\8bit\AppData\Local\Temp\cccZxcPc.s:47     .text.BspDMA_Unregist_Obj:00000000 $t
C:\Users\8bit\AppData\Local\Temp\cccZxcPc.s:52     .text.BspDMA_Unregist_Obj:00000000 BspDMA_Unregist_Obj
C:\Users\8bit\AppData\Local\Temp\cccZxcPc.s:72     .text.BspDMA_Get_Channel_Instance:00000000 $t
C:\Users\8bit\AppData\Local\Temp\cccZxcPc.s:77     .text.BspDMA_Get_Channel_Instance:00000000 BspDMA_Get_Channel_Instance
C:\Users\8bit\AppData\Local\Temp\cccZxcPc.s:94     .text.BspDMA_Get_Channel_Instance:0000000a $d
C:\Users\8bit\AppData\Local\Temp\cccZxcPc.s:166    .text.BspDMA_Get_Channel_Instance:0000003a $d
C:\Users\8bit\AppData\Local\Temp\cccZxcPc.s:172    .text.BspDMA_Get_Channel_Instance:00000040 $t
C:\Users\8bit\AppData\Local\Temp\cccZxcPc.s:242    .text.BspDMA_Get_Channel_Instance:00000064 $d
C:\Users\8bit\AppData\Local\Temp\cccZxcPc.s:259    .text.BspDMA_Get_Handle:00000000 $t
C:\Users\8bit\AppData\Local\Temp\cccZxcPc.s:264    .text.BspDMA_Get_Handle:00000000 BspDMA_Get_Handle
C:\Users\8bit\AppData\Local\Temp\cccZxcPc.s:284    .text.BspDMA_Get_Pipe_Handle:00000000 $t
C:\Users\8bit\AppData\Local\Temp\cccZxcPc.s:289    .text.BspDMA_Get_Pipe_Handle:00000000 BspDMA_Get_Pipe_Handle
C:\Users\8bit\AppData\Local\Temp\cccZxcPc.s:313    .text.BspDMA_Get_Pipe_Handle:00000010 $d
C:\Users\8bit\AppData\Local\Temp\cccZxcPc.s:319    .text.BspDMA_DisableIRQ:00000000 $t
C:\Users\8bit\AppData\Local\Temp\cccZxcPc.s:324    .text.BspDMA_DisableIRQ:00000000 BspDMA_DisableIRQ
C:\Users\8bit\AppData\Local\Temp\cccZxcPc.s:360    .text.BspDMA_DisableIRQ:00000016 $d
C:\Users\8bit\AppData\Local\Temp\cccZxcPc.s:495    .text.BspDMA_DisableIRQ:00000086 $d
C:\Users\8bit\AppData\Local\Temp\cccZxcPc.s:629    .text.BspDMA_DisableIRQ:000000e4 $d
C:\Users\8bit\AppData\Local\Temp\cccZxcPc.s:663    .text.BspDMA_Pipe_DeInit:00000000 $t
C:\Users\8bit\AppData\Local\Temp\cccZxcPc.s:668    .text.BspDMA_Pipe_DeInit:00000000 BspDMA_Pipe_DeInit
C:\Users\8bit\AppData\Local\Temp\cccZxcPc.s:691    .text.BspDMA_Get_Instance:00000000 $t
C:\Users\8bit\AppData\Local\Temp\cccZxcPc.s:696    .text.BspDMA_Get_Instance:00000000 BspDMA_Get_Instance
C:\Users\8bit\AppData\Local\Temp\cccZxcPc.s:846    .text.BspDMA_Get_Instance:00000088 $d
C:\Users\8bit\AppData\Local\Temp\cccZxcPc.s:859    .text.BspDMA_EnableIRQ:00000000 $t
C:\Users\8bit\AppData\Local\Temp\cccZxcPc.s:864    .text.BspDMA_EnableIRQ:00000000 BspDMA_EnableIRQ
C:\Users\8bit\AppData\Local\Temp\cccZxcPc.s:904    .text.BspDMA_EnableIRQ:0000001e $d
C:\Users\8bit\AppData\Local\Temp\cccZxcPc.s:1037   .text.BspDMA_EnableIRQ:0000009c $d
C:\Users\8bit\AppData\Local\Temp\cccZxcPc.s:1132   .text.BspDMA_EnableIRQ:000000e4 $d
C:\Users\8bit\AppData\Local\Temp\cccZxcPc.s:1152   .text.BspDMA_Pipe_Trans:00000000 $t
C:\Users\8bit\AppData\Local\Temp\cccZxcPc.s:1157   .text.BspDMA_Pipe_Trans:00000000 BspDMA_Pipe_Trans
C:\Users\8bit\AppData\Local\Temp\cccZxcPc.s:1231   .text.BspDMA_Pipe_Trans:00000040 $d
C:\Users\8bit\AppData\Local\Temp\cccZxcPc.s:1238   .text.BspDMA_Pipe_Init:00000000 $t
C:\Users\8bit\AppData\Local\Temp\cccZxcPc.s:1243   .text.BspDMA_Pipe_Init:00000000 BspDMA_Pipe_Init
C:\Users\8bit\AppData\Local\Temp\cccZxcPc.s:1384   .text.BspDMA_Pipe_Init:0000009c $d
C:\Users\8bit\AppData\Local\Temp\cccZxcPc.s:1395   .text.BspDMA_Pipe_Irq_Callback:00000000 $t
C:\Users\8bit\AppData\Local\Temp\cccZxcPc.s:1401   .text.BspDMA_Pipe_Irq_Callback:00000000 BspDMA_Pipe_Irq_Callback
C:\Users\8bit\AppData\Local\Temp\cccZxcPc.s:1469   .text.BspDMA_Pipe_Irq_Callback:00000040 $d
C:\Users\8bit\AppData\Local\Temp\cccZxcPc.s:1478   .text.BspDMA_Irq_Callback:00000000 $t
C:\Users\8bit\AppData\Local\Temp\cccZxcPc.s:1484   .text.BspDMA_Irq_Callback:00000000 BspDMA_Irq_Callback
C:\Users\8bit\AppData\Local\Temp\cccZxcPc.s:1876   .text.BspDMA_Irq_Callback:0000014c $d
C:\Users\8bit\AppData\Local\Temp\cccZxcPc.s:1964   .data.BspDMA_Pipe:00000000 BspDMA_Pipe
C:\Users\8bit\AppData\Local\Temp\cccZxcPc.s:1952   .data.BspDMA:00000000 BspDMA
C:\Users\8bit\AppData\Local\Temp\cccZxcPc.s:1897   .bss.BspDMA1_Irq_Callback_List:00000000 $d
C:\Users\8bit\AppData\Local\Temp\cccZxcPc.s:1901   .bss.BspDMA1_Irq_Callback_List:00000000 BspDMA1_Irq_Callback_List
C:\Users\8bit\AppData\Local\Temp\cccZxcPc.s:1904   .bss.BspDMA2_Irq_Callback_List:00000000 $d
C:\Users\8bit\AppData\Local\Temp\cccZxcPc.s:1908   .bss.BspDMA2_Irq_Callback_List:00000000 BspDMA2_Irq_Callback_List
C:\Users\8bit\AppData\Local\Temp\cccZxcPc.s:1914   .bss.DataPipe_DMA_Init:00000000 DataPipe_DMA_Init
C:\Users\8bit\AppData\Local\Temp\cccZxcPc.s:1915   .bss.DataPipe_DMA_Init:00000000 $d
C:\Users\8bit\AppData\Local\Temp\cccZxcPc.s:1917   .bss.DataPipe_Trans_Err_Callback:00000000 $d
C:\Users\8bit\AppData\Local\Temp\cccZxcPc.s:1921   .bss.DataPipe_Trans_Err_Callback:00000000 DataPipe_Trans_Err_Callback
C:\Users\8bit\AppData\Local\Temp\cccZxcPc.s:1924   .bss.DataPipe_Trans_Fin_Callback:00000000 $d
C:\Users\8bit\AppData\Local\Temp\cccZxcPc.s:1928   .bss.DataPipe_Trans_Fin_Callback:00000000 DataPipe_Trans_Fin_Callback
C:\Users\8bit\AppData\Local\Temp\cccZxcPc.s:1934   .bss.Dma_Clock_Init:00000000 Dma_Clock_Init
ARM GAS  C:\Users\8bit\AppData\Local\Temp\cccZxcPc.s 			page 57


C:\Users\8bit\AppData\Local\Temp\cccZxcPc.s:1935   .bss.Dma_Clock_Init:00000000 $d
C:\Users\8bit\AppData\Local\Temp\cccZxcPc.s:1940   .bss.dma1_enable.1:00000000 dma1_enable.1
C:\Users\8bit\AppData\Local\Temp\cccZxcPc.s:1941   .bss.dma1_enable.1:00000000 $d
C:\Users\8bit\AppData\Local\Temp\cccZxcPc.s:1946   .bss.dma2_enable.0:00000000 dma2_enable.0
C:\Users\8bit\AppData\Local\Temp\cccZxcPc.s:1947   .bss.dma2_enable.0:00000000 $d
C:\Users\8bit\AppData\Local\Temp\cccZxcPc.s:1949   .data.BspDMA:00000000 $d
C:\Users\8bit\AppData\Local\Temp\cccZxcPc.s:1961   .data.BspDMA_Pipe:00000000 $d
C:\Users\8bit\AppData\Local\Temp\cccZxcPc.s:1970   .rodata.BspDMA1_Instance_List:00000000 $d
C:\Users\8bit\AppData\Local\Temp\cccZxcPc.s:1974   .rodata.BspDMA1_Instance_List:00000000 BspDMA1_Instance_List
C:\Users\8bit\AppData\Local\Temp\cccZxcPc.s:1983   .rodata.BspDMA2_Instance_List:00000000 $d
C:\Users\8bit\AppData\Local\Temp\cccZxcPc.s:1987   .rodata.BspDMA2_Instance_List:00000000 BspDMA2_Instance_List
C:\Users\8bit\AppData\Local\Temp\cccZxcPc.s:101    .text.BspDMA_Get_Channel_Instance:00000011 $d
C:\Users\8bit\AppData\Local\Temp\cccZxcPc.s:101    .text.BspDMA_Get_Channel_Instance:00000012 $t
C:\Users\8bit\AppData\Local\Temp\cccZxcPc.s:367    .text.BspDMA_DisableIRQ:0000001d $d
C:\Users\8bit\AppData\Local\Temp\cccZxcPc.s:367    .text.BspDMA_DisableIRQ:0000001e $t
C:\Users\8bit\AppData\Local\Temp\cccZxcPc.s:502    .text.BspDMA_DisableIRQ:0000008d $d
C:\Users\8bit\AppData\Local\Temp\cccZxcPc.s:502    .text.BspDMA_DisableIRQ:0000008e $t
C:\Users\8bit\AppData\Local\Temp\cccZxcPc.s:911    .text.BspDMA_EnableIRQ:00000025 $d
C:\Users\8bit\AppData\Local\Temp\cccZxcPc.s:911    .text.BspDMA_EnableIRQ:00000026 $t
C:\Users\8bit\AppData\Local\Temp\cccZxcPc.s:1044   .text.BspDMA_EnableIRQ:000000a3 $d
C:\Users\8bit\AppData\Local\Temp\cccZxcPc.s:1044   .text.BspDMA_EnableIRQ:000000a4 $t

UNDEFINED SYMBOLS
dma_interrupt_enable
nvic_priority_group_config
nvic_irq_disable
dma_reset
crm_periph_clock_enable
dmamux_enable
dmamux_init
nvic_irq_enable
dma_channel_enable
dma_init
dma_data_number_get
