ARM GAS  C:\Users\8bit\AppData\Local\Temp\cczQEQWw.s 			page 1


   1              		.cpu cortex-m4
   2              		.arch armv7e-m
   3              		.fpu fpv4-sp-d16
   4              		.eabi_attribute 27, 1
   5              		.eabi_attribute 28, 1
   6              		.eabi_attribute 20, 1
   7              		.eabi_attribute 21, 1
   8              		.eabi_attribute 23, 3
   9              		.eabi_attribute 24, 1
  10              		.eabi_attribute 25, 1
  11              		.eabi_attribute 26, 1
  12              		.eabi_attribute 30, 1
  13              		.eabi_attribute 34, 1
  14              		.eabi_attribute 18, 4
  15              		.file	"Bsp_Timer.c"
  16              		.text
  17              	.Ltext0:
  18              		.cfi_sections	.debug_frame
  19              		.section	.text.BspTimer_Get_DMA_MuxSeq,"ax",%progbits
  20              		.align	1
  21              		.syntax unified
  22              		.thumb
  23              		.thumb_func
  25              	BspTimer_Get_DMA_MuxSeq:
  26              	.LVL0:
  27              	.LFB134:
  28              		.file 1 "HW_Lib/AT32F435/bsp/Bsp_Timer.c"
   1:HW_Lib/AT32F435/bsp/Bsp_Timer.c **** /*
   2:HW_Lib/AT32F435/bsp/Bsp_Timer.c ****  *  Auther:8_B!T0
   3:HW_Lib/AT32F435/bsp/Bsp_Timer.c ****  *  Bref: ESC Timer Bsp On AT32F435xx MCU
   4:HW_Lib/AT32F435/bsp/Bsp_Timer.c ****  */
   5:HW_Lib/AT32F435/bsp/Bsp_Timer.c **** 
   6:HW_Lib/AT32F435/bsp/Bsp_Timer.c **** #include "Bsp_Timer.h"
   7:HW_Lib/AT32F435/bsp/Bsp_Timer.c **** #include "Bsp_DMA.h"
   8:HW_Lib/AT32F435/bsp/Bsp_Timer.c **** #include "Bsp_GPIO.h"
   9:HW_Lib/AT32F435/bsp/Bsp_Timer.c **** #include "at32f435_437_crm.h"
  10:HW_Lib/AT32F435/bsp/Bsp_Timer.c **** #include "at32f435_437_tmr.h"
  11:HW_Lib/AT32F435/bsp/Bsp_Timer.c **** 
  12:HW_Lib/AT32F435/bsp/Bsp_Timer.c **** typedef struct
  13:HW_Lib/AT32F435/bsp/Bsp_Timer.c **** {
  14:HW_Lib/AT32F435/bsp/Bsp_Timer.c ****     tmr_type* list[32];
  15:HW_Lib/AT32F435/bsp/Bsp_Timer.c ****     uint32_t init_cnt;
  16:HW_Lib/AT32F435/bsp/Bsp_Timer.c ****     bool monitor_init;
  17:HW_Lib/AT32F435/bsp/Bsp_Timer.c ****     BspTiemrClk_EnReg_TypeDef clk_en;
  18:HW_Lib/AT32F435/bsp/Bsp_Timer.c **** } BspTIM_PWMInitMonitor_TypeDef;
  19:HW_Lib/AT32F435/bsp/Bsp_Timer.c **** 
  20:HW_Lib/AT32F435/bsp/Bsp_Timer.c **** BspTIM_PWMInitMonitor_TypeDef monitor = {
  21:HW_Lib/AT32F435/bsp/Bsp_Timer.c ****     .monitor_init = false,
  22:HW_Lib/AT32F435/bsp/Bsp_Timer.c **** };
  23:HW_Lib/AT32F435/bsp/Bsp_Timer.c **** 
  24:HW_Lib/AT32F435/bsp/Bsp_Timer.c **** /* internal function */
  25:HW_Lib/AT32F435/bsp/Bsp_Timer.c **** static void BspTimer_DMA_TransCplt_Callback(void *arg);
  26:HW_Lib/AT32F435/bsp/Bsp_Timer.c **** 
  27:HW_Lib/AT32F435/bsp/Bsp_Timer.c **** /* external function */
  28:HW_Lib/AT32F435/bsp/Bsp_Timer.c **** static bool BspTimer_PWM_DeInit(BspTimerPWMObj_TypeDef *obj);
  29:HW_Lib/AT32F435/bsp/Bsp_Timer.c **** static bool BspTimer_PWM_Init(BspTimerPWMObj_TypeDef *obj,
  30:HW_Lib/AT32F435/bsp/Bsp_Timer.c ****                               void *instance,
ARM GAS  C:\Users\8bit\AppData\Local\Temp\cczQEQWw.s 			page 2


  31:HW_Lib/AT32F435/bsp/Bsp_Timer.c ****                               uint32_t ch,
  32:HW_Lib/AT32F435/bsp/Bsp_Timer.c ****                               uint32_t auto_reload,
  33:HW_Lib/AT32F435/bsp/Bsp_Timer.c ****                               uint32_t prescale,
  34:HW_Lib/AT32F435/bsp/Bsp_Timer.c ****                               BspGPIO_Obj_TypeDef pin,
  35:HW_Lib/AT32F435/bsp/Bsp_Timer.c ****                               uint8_t dma,
  36:HW_Lib/AT32F435/bsp/Bsp_Timer.c ****                               uint8_t stream,
  37:HW_Lib/AT32F435/bsp/Bsp_Timer.c ****                               uint32_t buf_aadr,
  38:HW_Lib/AT32F435/bsp/Bsp_Timer.c ****                               uint32_t buf_size);
  39:HW_Lib/AT32F435/bsp/Bsp_Timer.c **** static void BspTimer_PWM_Start(BspTimerPWMObj_TypeDef *obj);
  40:HW_Lib/AT32F435/bsp/Bsp_Timer.c **** static void BspTimer_DMA_Start(BspTimerPWMObj_TypeDef *obj);
  41:HW_Lib/AT32F435/bsp/Bsp_Timer.c **** static uint32_t BspTimer_Get_Clock_Freq(BspTimerPWMObj_TypeDef *obj);
  42:HW_Lib/AT32F435/bsp/Bsp_Timer.c **** static void BspTimer_PWM_Trans(BspTimerPWMObj_TypeDef *obj, uint16_t val);
  43:HW_Lib/AT32F435/bsp/Bsp_Timer.c **** 
  44:HW_Lib/AT32F435/bsp/Bsp_Timer.c **** BspTimerPWM_TypeDef BspTimer_PWM = {
  45:HW_Lib/AT32F435/bsp/Bsp_Timer.c ****     .init = BspTimer_PWM_Init,
  46:HW_Lib/AT32F435/bsp/Bsp_Timer.c ****     .de_init = BspTimer_PWM_DeInit,
  47:HW_Lib/AT32F435/bsp/Bsp_Timer.c ****     .set_dma_pwm = BspTimer_PWM_Start,
  48:HW_Lib/AT32F435/bsp/Bsp_Timer.c ****     .dma_trans = BspTimer_DMA_Start,
  49:HW_Lib/AT32F435/bsp/Bsp_Timer.c ****     .pwm_trans = BspTimer_PWM_Trans,
  50:HW_Lib/AT32F435/bsp/Bsp_Timer.c ****     .get_clock_freq = BspTimer_Get_Clock_Freq,
  51:HW_Lib/AT32F435/bsp/Bsp_Timer.c **** };
  52:HW_Lib/AT32F435/bsp/Bsp_Timer.c **** 
  53:HW_Lib/AT32F435/bsp/Bsp_Timer.c **** static bool BspTimer_Clock_EnableCtl(void *instance, confirm_state state)
  54:HW_Lib/AT32F435/bsp/Bsp_Timer.c **** {
  55:HW_Lib/AT32F435/bsp/Bsp_Timer.c ****     if (To_Timer_Instance(instance) == TMR2)
  56:HW_Lib/AT32F435/bsp/Bsp_Timer.c ****     {
  57:HW_Lib/AT32F435/bsp/Bsp_Timer.c ****         if (!monitor.clk_en.bit.tim2)
  58:HW_Lib/AT32F435/bsp/Bsp_Timer.c ****         {
  59:HW_Lib/AT32F435/bsp/Bsp_Timer.c ****             crm_periph_clock_enable(CRM_TMR2_PERIPH_CLOCK, state);
  60:HW_Lib/AT32F435/bsp/Bsp_Timer.c ****             monitor.clk_en.bit.tim2 = true;
  61:HW_Lib/AT32F435/bsp/Bsp_Timer.c ****         }
  62:HW_Lib/AT32F435/bsp/Bsp_Timer.c **** 
  63:HW_Lib/AT32F435/bsp/Bsp_Timer.c ****         return true;
  64:HW_Lib/AT32F435/bsp/Bsp_Timer.c ****     }
  65:HW_Lib/AT32F435/bsp/Bsp_Timer.c ****     else if (To_Timer_Instance(instance) == TMR3)
  66:HW_Lib/AT32F435/bsp/Bsp_Timer.c ****     {
  67:HW_Lib/AT32F435/bsp/Bsp_Timer.c ****         if (!monitor.clk_en.bit.tim3)
  68:HW_Lib/AT32F435/bsp/Bsp_Timer.c ****         {
  69:HW_Lib/AT32F435/bsp/Bsp_Timer.c ****             crm_periph_clock_enable(CRM_TMR3_PERIPH_CLOCK, state);
  70:HW_Lib/AT32F435/bsp/Bsp_Timer.c ****             monitor.clk_en.bit.tim3 = true;
  71:HW_Lib/AT32F435/bsp/Bsp_Timer.c ****         }
  72:HW_Lib/AT32F435/bsp/Bsp_Timer.c **** 
  73:HW_Lib/AT32F435/bsp/Bsp_Timer.c ****         return true;
  74:HW_Lib/AT32F435/bsp/Bsp_Timer.c ****     }
  75:HW_Lib/AT32F435/bsp/Bsp_Timer.c ****     else if (To_Timer_Instance(instance) == TMR8)
  76:HW_Lib/AT32F435/bsp/Bsp_Timer.c ****     {
  77:HW_Lib/AT32F435/bsp/Bsp_Timer.c ****         if (!monitor.clk_en.bit.tim8)
  78:HW_Lib/AT32F435/bsp/Bsp_Timer.c ****         {
  79:HW_Lib/AT32F435/bsp/Bsp_Timer.c ****             crm_periph_clock_enable(CRM_TMR8_PERIPH_CLOCK, state);
  80:HW_Lib/AT32F435/bsp/Bsp_Timer.c ****             monitor.clk_en.bit.tim8 = true;
  81:HW_Lib/AT32F435/bsp/Bsp_Timer.c ****         }
  82:HW_Lib/AT32F435/bsp/Bsp_Timer.c ****     
  83:HW_Lib/AT32F435/bsp/Bsp_Timer.c ****         return true;
  84:HW_Lib/AT32F435/bsp/Bsp_Timer.c ****     }
  85:HW_Lib/AT32F435/bsp/Bsp_Timer.c ****     else if (To_Timer_Instance(instance) == TMR4)
  86:HW_Lib/AT32F435/bsp/Bsp_Timer.c ****     {
  87:HW_Lib/AT32F435/bsp/Bsp_Timer.c ****         if (!monitor.clk_en.bit.tim4)
ARM GAS  C:\Users\8bit\AppData\Local\Temp\cczQEQWw.s 			page 3


  88:HW_Lib/AT32F435/bsp/Bsp_Timer.c ****         {
  89:HW_Lib/AT32F435/bsp/Bsp_Timer.c ****             crm_periph_clock_enable(CRM_TMR4_PERIPH_CLOCK, state);
  90:HW_Lib/AT32F435/bsp/Bsp_Timer.c ****             monitor.clk_en.bit.tim4 = true;
  91:HW_Lib/AT32F435/bsp/Bsp_Timer.c ****         }
  92:HW_Lib/AT32F435/bsp/Bsp_Timer.c **** 
  93:HW_Lib/AT32F435/bsp/Bsp_Timer.c ****         return true;
  94:HW_Lib/AT32F435/bsp/Bsp_Timer.c ****     }
  95:HW_Lib/AT32F435/bsp/Bsp_Timer.c **** 
  96:HW_Lib/AT32F435/bsp/Bsp_Timer.c ****     return false;
  97:HW_Lib/AT32F435/bsp/Bsp_Timer.c **** }
  98:HW_Lib/AT32F435/bsp/Bsp_Timer.c **** 
  99:HW_Lib/AT32F435/bsp/Bsp_Timer.c **** static dmamux_requst_id_sel_type BspTimer_Get_DMA_MuxSeq(BspTimerPWMObj_TypeDef *obj)
 100:HW_Lib/AT32F435/bsp/Bsp_Timer.c **** {
  29              		.loc 1 100 1 view -0
  30              		.cfi_startproc
  31              		@ args = 0, pretend = 0, frame = 0
  32              		@ frame_needed = 0, uses_anonymous_args = 0
  33              		@ link register save eliminated.
 101:HW_Lib/AT32F435/bsp/Bsp_Timer.c ****     if (obj)
  34              		.loc 1 101 5 view .LVU1
  35              		.loc 1 101 8 is_stmt 0 view .LVU2
  36 0000 0246     		mov	r2, r0
  37 0002 0028     		cmp	r0, #0
  38 0004 36D0     		beq	.L6
 102:HW_Lib/AT32F435/bsp/Bsp_Timer.c ****     {
 103:HW_Lib/AT32F435/bsp/Bsp_Timer.c ****         if (To_Timer_Instance(obj->instance) == TMR2)
  39              		.loc 1 103 9 is_stmt 1 view .LVU3
  40              		.loc 1 103 13 is_stmt 0 view .LVU4
  41 0006 0368     		ldr	r3, [r0]
  42              		.loc 1 103 12 view .LVU5
  43 0008 B3F1804F 		cmp	r3, #1073741824
  44 000c 0AD0     		beq	.L24
  45              	.L3:
 104:HW_Lib/AT32F435/bsp/Bsp_Timer.c ****         {
 105:HW_Lib/AT32F435/bsp/Bsp_Timer.c ****             if (obj->tim_channel == TMR_SELECT_CHANNEL_1)
 106:HW_Lib/AT32F435/bsp/Bsp_Timer.c ****                 return DMAMUX_DMAREQ_ID_TMR2_CH1;
 107:HW_Lib/AT32F435/bsp/Bsp_Timer.c **** 
 108:HW_Lib/AT32F435/bsp/Bsp_Timer.c ****             if (obj->tim_channel == TMR_SELECT_CHANNEL_2)
 109:HW_Lib/AT32F435/bsp/Bsp_Timer.c ****                 return DMAMUX_DMAREQ_ID_TMR2_CH2;
 110:HW_Lib/AT32F435/bsp/Bsp_Timer.c **** 
 111:HW_Lib/AT32F435/bsp/Bsp_Timer.c ****             if (obj->tim_channel == TMR_SELECT_CHANNEL_3)
 112:HW_Lib/AT32F435/bsp/Bsp_Timer.c ****                 return DMAMUX_DMAREQ_ID_TMR2_CH3;
 113:HW_Lib/AT32F435/bsp/Bsp_Timer.c **** 
 114:HW_Lib/AT32F435/bsp/Bsp_Timer.c ****             if (obj->tim_channel == TMR_SELECT_CHANNEL_4)
 115:HW_Lib/AT32F435/bsp/Bsp_Timer.c ****                 return DMAMUX_DMAREQ_ID_TMR2_CH4;
 116:HW_Lib/AT32F435/bsp/Bsp_Timer.c ****         }
 117:HW_Lib/AT32F435/bsp/Bsp_Timer.c ****                 
 118:HW_Lib/AT32F435/bsp/Bsp_Timer.c ****         if (To_Timer_Instance(obj->instance) == TMR3)
  46              		.loc 1 118 9 is_stmt 1 view .LVU6
  47              		.loc 1 118 12 is_stmt 0 view .LVU7
  48 000e 2749     		ldr	r1, .L28
  49 0010 8B42     		cmp	r3, r1
  50 0012 11D0     		beq	.L25
  51              	.L4:
 119:HW_Lib/AT32F435/bsp/Bsp_Timer.c ****         {
 120:HW_Lib/AT32F435/bsp/Bsp_Timer.c ****             if (obj->tim_channel == TMR_SELECT_CHANNEL_1)
 121:HW_Lib/AT32F435/bsp/Bsp_Timer.c ****                 return DMAMUX_DMAREQ_ID_TMR3_CH1;
ARM GAS  C:\Users\8bit\AppData\Local\Temp\cczQEQWw.s 			page 4


 122:HW_Lib/AT32F435/bsp/Bsp_Timer.c **** 
 123:HW_Lib/AT32F435/bsp/Bsp_Timer.c ****             if (obj->tim_channel == TMR_SELECT_CHANNEL_2)
 124:HW_Lib/AT32F435/bsp/Bsp_Timer.c ****                 return DMAMUX_DMAREQ_ID_TMR3_CH2;
 125:HW_Lib/AT32F435/bsp/Bsp_Timer.c **** 
 126:HW_Lib/AT32F435/bsp/Bsp_Timer.c ****             if (obj->tim_channel == TMR_SELECT_CHANNEL_3)
 127:HW_Lib/AT32F435/bsp/Bsp_Timer.c ****                 return DMAMUX_DMAREQ_ID_TMR3_CH3;
 128:HW_Lib/AT32F435/bsp/Bsp_Timer.c **** 
 129:HW_Lib/AT32F435/bsp/Bsp_Timer.c ****             if (obj->tim_channel == TMR_SELECT_CHANNEL_4)
 130:HW_Lib/AT32F435/bsp/Bsp_Timer.c ****                 return DMAMUX_DMAREQ_ID_TMR3_CH4;
 131:HW_Lib/AT32F435/bsp/Bsp_Timer.c ****         }
 132:HW_Lib/AT32F435/bsp/Bsp_Timer.c **** 
 133:HW_Lib/AT32F435/bsp/Bsp_Timer.c ****         if (To_Timer_Instance(obj->instance) == TMR4)
  52              		.loc 1 133 9 is_stmt 1 view .LVU8
  53              		.loc 1 133 12 is_stmt 0 view .LVU9
  54 0014 2649     		ldr	r1, .L28+4
  55 0016 8B42     		cmp	r3, r1
  56 0018 18D0     		beq	.L26
  57              	.L5:
 134:HW_Lib/AT32F435/bsp/Bsp_Timer.c ****         {
 135:HW_Lib/AT32F435/bsp/Bsp_Timer.c ****             if (obj->tim_channel == TMR_SELECT_CHANNEL_1)
 136:HW_Lib/AT32F435/bsp/Bsp_Timer.c ****                 return DMAMUX_DMAREQ_ID_TMR4_CH1;
 137:HW_Lib/AT32F435/bsp/Bsp_Timer.c **** 
 138:HW_Lib/AT32F435/bsp/Bsp_Timer.c ****             if (obj->tim_channel == TMR_SELECT_CHANNEL_2)
 139:HW_Lib/AT32F435/bsp/Bsp_Timer.c ****                 return DMAMUX_DMAREQ_ID_TMR4_CH2;
 140:HW_Lib/AT32F435/bsp/Bsp_Timer.c **** 
 141:HW_Lib/AT32F435/bsp/Bsp_Timer.c ****             if (obj->tim_channel == TMR_SELECT_CHANNEL_3)
 142:HW_Lib/AT32F435/bsp/Bsp_Timer.c ****                 return DMAMUX_DMAREQ_ID_TMR4_CH3;
 143:HW_Lib/AT32F435/bsp/Bsp_Timer.c **** 
 144:HW_Lib/AT32F435/bsp/Bsp_Timer.c ****             if (obj->tim_channel == TMR_SELECT_CHANNEL_4)
 145:HW_Lib/AT32F435/bsp/Bsp_Timer.c ****                 return DMAMUX_DMAREQ_ID_TMR4_CH4;
 146:HW_Lib/AT32F435/bsp/Bsp_Timer.c ****         }
 147:HW_Lib/AT32F435/bsp/Bsp_Timer.c **** 
 148:HW_Lib/AT32F435/bsp/Bsp_Timer.c ****         if (To_Timer_Instance(obj->instance) == TMR8)
  58              		.loc 1 148 9 is_stmt 1 view .LVU10
  59              		.loc 1 148 12 is_stmt 0 view .LVU11
  60 001a 2649     		ldr	r1, .L28+8
  61 001c 8B42     		cmp	r3, r1
  62 001e 1FD0     		beq	.L27
 149:HW_Lib/AT32F435/bsp/Bsp_Timer.c ****         {
 150:HW_Lib/AT32F435/bsp/Bsp_Timer.c ****             if (obj->tim_channel == TMR_SELECT_CHANNEL_1)
 151:HW_Lib/AT32F435/bsp/Bsp_Timer.c ****                 return DMAMUX_DMAREQ_ID_TMR8_CH1;
 152:HW_Lib/AT32F435/bsp/Bsp_Timer.c **** 
 153:HW_Lib/AT32F435/bsp/Bsp_Timer.c ****             if (obj->tim_channel == TMR_SELECT_CHANNEL_2)
 154:HW_Lib/AT32F435/bsp/Bsp_Timer.c ****                 return DMAMUX_DMAREQ_ID_TMR8_CH2;
 155:HW_Lib/AT32F435/bsp/Bsp_Timer.c **** 
 156:HW_Lib/AT32F435/bsp/Bsp_Timer.c ****             if (obj->tim_channel == TMR_SELECT_CHANNEL_3)
 157:HW_Lib/AT32F435/bsp/Bsp_Timer.c ****                 return DMAMUX_DMAREQ_ID_TMR8_CH3;
 158:HW_Lib/AT32F435/bsp/Bsp_Timer.c **** 
 159:HW_Lib/AT32F435/bsp/Bsp_Timer.c ****             if (obj->tim_channel == TMR_SELECT_CHANNEL_4)
 160:HW_Lib/AT32F435/bsp/Bsp_Timer.c ****                 return DMAMUX_DMAREQ_ID_TMR8_CH4;
 161:HW_Lib/AT32F435/bsp/Bsp_Timer.c ****         }
 162:HW_Lib/AT32F435/bsp/Bsp_Timer.c ****     }
 163:HW_Lib/AT32F435/bsp/Bsp_Timer.c **** 
 164:HW_Lib/AT32F435/bsp/Bsp_Timer.c ****     return 0;   
  63              		.loc 1 164 12 view .LVU12
  64 0020 0020     		movs	r0, #0
  65              	.LVL1:
ARM GAS  C:\Users\8bit\AppData\Local\Temp\cczQEQWw.s 			page 5


  66              		.loc 1 164 12 view .LVU13
  67 0022 7047     		bx	lr
  68              	.LVL2:
  69              	.L24:
 105:HW_Lib/AT32F435/bsp/Bsp_Timer.c ****                 return DMAMUX_DMAREQ_ID_TMR2_CH1;
  70              		.loc 1 105 13 is_stmt 1 view .LVU14
 105:HW_Lib/AT32F435/bsp/Bsp_Timer.c ****                 return DMAMUX_DMAREQ_ID_TMR2_CH1;
  71              		.loc 1 105 20 is_stmt 0 view .LVU15
  72 0024 4168     		ldr	r1, [r0, #4]
 105:HW_Lib/AT32F435/bsp/Bsp_Timer.c ****                 return DMAMUX_DMAREQ_ID_TMR2_CH1;
  73              		.loc 1 105 16 view .LVU16
  74 0026 39B3     		cbz	r1, .L7
 108:HW_Lib/AT32F435/bsp/Bsp_Timer.c ****                 return DMAMUX_DMAREQ_ID_TMR2_CH2;
  75              		.loc 1 108 13 is_stmt 1 view .LVU17
 108:HW_Lib/AT32F435/bsp/Bsp_Timer.c ****                 return DMAMUX_DMAREQ_ID_TMR2_CH2;
  76              		.loc 1 108 16 is_stmt 0 view .LVU18
  77 0028 0229     		cmp	r1, #2
  78 002a 27D0     		beq	.L8
 111:HW_Lib/AT32F435/bsp/Bsp_Timer.c ****                 return DMAMUX_DMAREQ_ID_TMR2_CH3;
  79              		.loc 1 111 13 is_stmt 1 view .LVU19
 111:HW_Lib/AT32F435/bsp/Bsp_Timer.c ****                 return DMAMUX_DMAREQ_ID_TMR2_CH3;
  80              		.loc 1 111 16 is_stmt 0 view .LVU20
  81 002c 0429     		cmp	r1, #4
  82 002e 27D0     		beq	.L9
 114:HW_Lib/AT32F435/bsp/Bsp_Timer.c ****                 return DMAMUX_DMAREQ_ID_TMR2_CH4;
  83              		.loc 1 114 13 is_stmt 1 view .LVU21
 114:HW_Lib/AT32F435/bsp/Bsp_Timer.c ****                 return DMAMUX_DMAREQ_ID_TMR2_CH4;
  84              		.loc 1 114 16 is_stmt 0 view .LVU22
  85 0030 0629     		cmp	r1, #6
  86 0032 ECD1     		bne	.L3
 115:HW_Lib/AT32F435/bsp/Bsp_Timer.c ****         }
  87              		.loc 1 115 24 view .LVU23
  88 0034 3B20     		movs	r0, #59
  89              	.LVL3:
 115:HW_Lib/AT32F435/bsp/Bsp_Timer.c ****         }
  90              		.loc 1 115 24 view .LVU24
  91 0036 7047     		bx	lr
  92              	.LVL4:
  93              	.L25:
 120:HW_Lib/AT32F435/bsp/Bsp_Timer.c ****                 return DMAMUX_DMAREQ_ID_TMR3_CH1;
  94              		.loc 1 120 13 is_stmt 1 view .LVU25
 120:HW_Lib/AT32F435/bsp/Bsp_Timer.c ****                 return DMAMUX_DMAREQ_ID_TMR3_CH1;
  95              		.loc 1 120 20 is_stmt 0 view .LVU26
  96 0038 5168     		ldr	r1, [r2, #4]
 120:HW_Lib/AT32F435/bsp/Bsp_Timer.c ****                 return DMAMUX_DMAREQ_ID_TMR3_CH1;
  97              		.loc 1 120 16 view .LVU27
  98 003a 19B3     		cbz	r1, .L11
 123:HW_Lib/AT32F435/bsp/Bsp_Timer.c ****                 return DMAMUX_DMAREQ_ID_TMR3_CH2;
  99              		.loc 1 123 13 is_stmt 1 view .LVU28
 123:HW_Lib/AT32F435/bsp/Bsp_Timer.c ****                 return DMAMUX_DMAREQ_ID_TMR3_CH2;
 100              		.loc 1 123 16 is_stmt 0 view .LVU29
 101 003c 0229     		cmp	r1, #2
 102 003e 23D0     		beq	.L12
 126:HW_Lib/AT32F435/bsp/Bsp_Timer.c ****                 return DMAMUX_DMAREQ_ID_TMR3_CH3;
 103              		.loc 1 126 13 is_stmt 1 view .LVU30
 126:HW_Lib/AT32F435/bsp/Bsp_Timer.c ****                 return DMAMUX_DMAREQ_ID_TMR3_CH3;
 104              		.loc 1 126 16 is_stmt 0 view .LVU31
ARM GAS  C:\Users\8bit\AppData\Local\Temp\cczQEQWw.s 			page 6


 105 0040 0429     		cmp	r1, #4
 106 0042 23D0     		beq	.L13
 129:HW_Lib/AT32F435/bsp/Bsp_Timer.c ****                 return DMAMUX_DMAREQ_ID_TMR3_CH4;
 107              		.loc 1 129 13 is_stmt 1 view .LVU32
 129:HW_Lib/AT32F435/bsp/Bsp_Timer.c ****                 return DMAMUX_DMAREQ_ID_TMR3_CH4;
 108              		.loc 1 129 16 is_stmt 0 view .LVU33
 109 0044 0629     		cmp	r1, #6
 110 0046 E5D1     		bne	.L4
 130:HW_Lib/AT32F435/bsp/Bsp_Timer.c ****         }
 111              		.loc 1 130 24 view .LVU34
 112 0048 4020     		movs	r0, #64
 113              	.LVL5:
 130:HW_Lib/AT32F435/bsp/Bsp_Timer.c ****         }
 114              		.loc 1 130 24 view .LVU35
 115 004a 7047     		bx	lr
 116              	.LVL6:
 117              	.L26:
 135:HW_Lib/AT32F435/bsp/Bsp_Timer.c ****                 return DMAMUX_DMAREQ_ID_TMR4_CH1;
 118              		.loc 1 135 13 is_stmt 1 view .LVU36
 135:HW_Lib/AT32F435/bsp/Bsp_Timer.c ****                 return DMAMUX_DMAREQ_ID_TMR4_CH1;
 119              		.loc 1 135 20 is_stmt 0 view .LVU37
 120 004c 5168     		ldr	r1, [r2, #4]
 135:HW_Lib/AT32F435/bsp/Bsp_Timer.c ****                 return DMAMUX_DMAREQ_ID_TMR4_CH1;
 121              		.loc 1 135 16 view .LVU38
 122 004e F9B1     		cbz	r1, .L15
 138:HW_Lib/AT32F435/bsp/Bsp_Timer.c ****                 return DMAMUX_DMAREQ_ID_TMR4_CH2;
 123              		.loc 1 138 13 is_stmt 1 view .LVU39
 138:HW_Lib/AT32F435/bsp/Bsp_Timer.c ****                 return DMAMUX_DMAREQ_ID_TMR4_CH2;
 124              		.loc 1 138 16 is_stmt 0 view .LVU40
 125 0050 0229     		cmp	r1, #2
 126 0052 1FD0     		beq	.L16
 141:HW_Lib/AT32F435/bsp/Bsp_Timer.c ****                 return DMAMUX_DMAREQ_ID_TMR4_CH3;
 127              		.loc 1 141 13 is_stmt 1 view .LVU41
 141:HW_Lib/AT32F435/bsp/Bsp_Timer.c ****                 return DMAMUX_DMAREQ_ID_TMR4_CH3;
 128              		.loc 1 141 16 is_stmt 0 view .LVU42
 129 0054 0429     		cmp	r1, #4
 130 0056 1FD0     		beq	.L17
 144:HW_Lib/AT32F435/bsp/Bsp_Timer.c ****                 return DMAMUX_DMAREQ_ID_TMR4_CH4;
 131              		.loc 1 144 13 is_stmt 1 view .LVU43
 144:HW_Lib/AT32F435/bsp/Bsp_Timer.c ****                 return DMAMUX_DMAREQ_ID_TMR4_CH4;
 132              		.loc 1 144 16 is_stmt 0 view .LVU44
 133 0058 0629     		cmp	r1, #6
 134 005a DED1     		bne	.L5
 145:HW_Lib/AT32F435/bsp/Bsp_Timer.c ****         }
 135              		.loc 1 145 24 view .LVU45
 136 005c 4620     		movs	r0, #70
 137              	.LVL7:
 145:HW_Lib/AT32F435/bsp/Bsp_Timer.c ****         }
 138              		.loc 1 145 24 view .LVU46
 139 005e 7047     		bx	lr
 140              	.LVL8:
 141              	.L27:
 150:HW_Lib/AT32F435/bsp/Bsp_Timer.c ****                 return DMAMUX_DMAREQ_ID_TMR8_CH1;
 142              		.loc 1 150 13 is_stmt 1 view .LVU47
 150:HW_Lib/AT32F435/bsp/Bsp_Timer.c ****                 return DMAMUX_DMAREQ_ID_TMR8_CH1;
 143              		.loc 1 150 20 is_stmt 0 view .LVU48
 144 0060 5368     		ldr	r3, [r2, #4]
ARM GAS  C:\Users\8bit\AppData\Local\Temp\cczQEQWw.s 			page 7


 150:HW_Lib/AT32F435/bsp/Bsp_Timer.c ****                 return DMAMUX_DMAREQ_ID_TMR8_CH1;
 145              		.loc 1 150 16 view .LVU49
 146 0062 DBB1     		cbz	r3, .L20
 153:HW_Lib/AT32F435/bsp/Bsp_Timer.c ****                 return DMAMUX_DMAREQ_ID_TMR8_CH2;
 147              		.loc 1 153 13 is_stmt 1 view .LVU50
 153:HW_Lib/AT32F435/bsp/Bsp_Timer.c ****                 return DMAMUX_DMAREQ_ID_TMR8_CH2;
 148              		.loc 1 153 16 is_stmt 0 view .LVU51
 149 0064 022B     		cmp	r3, #2
 150 0066 1BD0     		beq	.L21
 156:HW_Lib/AT32F435/bsp/Bsp_Timer.c ****                 return DMAMUX_DMAREQ_ID_TMR8_CH3;
 151              		.loc 1 156 13 is_stmt 1 view .LVU52
 156:HW_Lib/AT32F435/bsp/Bsp_Timer.c ****                 return DMAMUX_DMAREQ_ID_TMR8_CH3;
 152              		.loc 1 156 16 is_stmt 0 view .LVU53
 153 0068 042B     		cmp	r3, #4
 154 006a 1BD0     		beq	.L22
 159:HW_Lib/AT32F435/bsp/Bsp_Timer.c ****                 return DMAMUX_DMAREQ_ID_TMR8_CH4;
 155              		.loc 1 159 13 is_stmt 1 view .LVU54
 159:HW_Lib/AT32F435/bsp/Bsp_Timer.c ****                 return DMAMUX_DMAREQ_ID_TMR8_CH4;
 156              		.loc 1 159 16 is_stmt 0 view .LVU55
 157 006c 062B     		cmp	r3, #6
 158 006e 1BD0     		beq	.L23
 159              		.loc 1 164 12 view .LVU56
 160 0070 0020     		movs	r0, #0
 161              	.LVL9:
 162              		.loc 1 164 12 view .LVU57
 163 0072 7047     		bx	lr
 164              	.LVL10:
 165              	.L6:
 166              		.loc 1 164 12 view .LVU58
 167 0074 0020     		movs	r0, #0
 168              	.LVL11:
 169              		.loc 1 164 12 view .LVU59
 170 0076 7047     		bx	lr
 171              	.LVL12:
 172              	.L7:
 106:HW_Lib/AT32F435/bsp/Bsp_Timer.c **** 
 173              		.loc 1 106 24 view .LVU60
 174 0078 3820     		movs	r0, #56
 175              	.LVL13:
 106:HW_Lib/AT32F435/bsp/Bsp_Timer.c **** 
 176              		.loc 1 106 24 view .LVU61
 177 007a 7047     		bx	lr
 178              	.LVL14:
 179              	.L8:
 109:HW_Lib/AT32F435/bsp/Bsp_Timer.c **** 
 180              		.loc 1 109 24 view .LVU62
 181 007c 3920     		movs	r0, #57
 182              	.LVL15:
 109:HW_Lib/AT32F435/bsp/Bsp_Timer.c **** 
 183              		.loc 1 109 24 view .LVU63
 184 007e 7047     		bx	lr
 185              	.LVL16:
 186              	.L9:
 112:HW_Lib/AT32F435/bsp/Bsp_Timer.c **** 
 187              		.loc 1 112 24 view .LVU64
 188 0080 3A20     		movs	r0, #58
 189              	.LVL17:
ARM GAS  C:\Users\8bit\AppData\Local\Temp\cczQEQWw.s 			page 8


 112:HW_Lib/AT32F435/bsp/Bsp_Timer.c **** 
 190              		.loc 1 112 24 view .LVU65
 191 0082 7047     		bx	lr
 192              	.LVL18:
 193              	.L11:
 121:HW_Lib/AT32F435/bsp/Bsp_Timer.c **** 
 194              		.loc 1 121 24 view .LVU66
 195 0084 3D20     		movs	r0, #61
 196              	.LVL19:
 121:HW_Lib/AT32F435/bsp/Bsp_Timer.c **** 
 197              		.loc 1 121 24 view .LVU67
 198 0086 7047     		bx	lr
 199              	.LVL20:
 200              	.L12:
 124:HW_Lib/AT32F435/bsp/Bsp_Timer.c **** 
 201              		.loc 1 124 24 view .LVU68
 202 0088 3E20     		movs	r0, #62
 203              	.LVL21:
 124:HW_Lib/AT32F435/bsp/Bsp_Timer.c **** 
 204              		.loc 1 124 24 view .LVU69
 205 008a 7047     		bx	lr
 206              	.LVL22:
 207              	.L13:
 127:HW_Lib/AT32F435/bsp/Bsp_Timer.c **** 
 208              		.loc 1 127 24 view .LVU70
 209 008c 3F20     		movs	r0, #63
 210              	.LVL23:
 127:HW_Lib/AT32F435/bsp/Bsp_Timer.c **** 
 211              		.loc 1 127 24 view .LVU71
 212 008e 7047     		bx	lr
 213              	.LVL24:
 214              	.L15:
 136:HW_Lib/AT32F435/bsp/Bsp_Timer.c **** 
 215              		.loc 1 136 24 view .LVU72
 216 0090 4320     		movs	r0, #67
 217              	.LVL25:
 136:HW_Lib/AT32F435/bsp/Bsp_Timer.c **** 
 218              		.loc 1 136 24 view .LVU73
 219 0092 7047     		bx	lr
 220              	.LVL26:
 221              	.L16:
 139:HW_Lib/AT32F435/bsp/Bsp_Timer.c **** 
 222              		.loc 1 139 24 view .LVU74
 223 0094 4420     		movs	r0, #68
 224              	.LVL27:
 139:HW_Lib/AT32F435/bsp/Bsp_Timer.c **** 
 225              		.loc 1 139 24 view .LVU75
 226 0096 7047     		bx	lr
 227              	.LVL28:
 228              	.L17:
 142:HW_Lib/AT32F435/bsp/Bsp_Timer.c **** 
 229              		.loc 1 142 24 view .LVU76
 230 0098 4520     		movs	r0, #69
 231              	.LVL29:
 142:HW_Lib/AT32F435/bsp/Bsp_Timer.c **** 
 232              		.loc 1 142 24 view .LVU77
 233 009a 7047     		bx	lr
ARM GAS  C:\Users\8bit\AppData\Local\Temp\cczQEQWw.s 			page 9


 234              	.LVL30:
 235              	.L20:
 151:HW_Lib/AT32F435/bsp/Bsp_Timer.c **** 
 236              		.loc 1 151 24 view .LVU78
 237 009c 3120     		movs	r0, #49
 238              	.LVL31:
 151:HW_Lib/AT32F435/bsp/Bsp_Timer.c **** 
 239              		.loc 1 151 24 view .LVU79
 240 009e 7047     		bx	lr
 241              	.LVL32:
 242              	.L21:
 154:HW_Lib/AT32F435/bsp/Bsp_Timer.c **** 
 243              		.loc 1 154 24 view .LVU80
 244 00a0 3220     		movs	r0, #50
 245              	.LVL33:
 154:HW_Lib/AT32F435/bsp/Bsp_Timer.c **** 
 246              		.loc 1 154 24 view .LVU81
 247 00a2 7047     		bx	lr
 248              	.LVL34:
 249              	.L22:
 157:HW_Lib/AT32F435/bsp/Bsp_Timer.c **** 
 250              		.loc 1 157 24 view .LVU82
 251 00a4 3320     		movs	r0, #51
 252              	.LVL35:
 157:HW_Lib/AT32F435/bsp/Bsp_Timer.c **** 
 253              		.loc 1 157 24 view .LVU83
 254 00a6 7047     		bx	lr
 255              	.LVL36:
 256              	.L23:
 160:HW_Lib/AT32F435/bsp/Bsp_Timer.c ****         }
 257              		.loc 1 160 24 view .LVU84
 258 00a8 3420     		movs	r0, #52
 259              	.LVL37:
 165:HW_Lib/AT32F435/bsp/Bsp_Timer.c **** }
 260              		.loc 1 165 1 view .LVU85
 261 00aa 7047     		bx	lr
 262              	.L29:
 263              		.align	2
 264              	.L28:
 265 00ac 00040040 		.word	1073742848
 266 00b0 00080040 		.word	1073743872
 267 00b4 00040140 		.word	1073808384
 268              		.cfi_endproc
 269              	.LFE134:
 271              		.section	.text.BspTimer_Get_PrtiphAddr,"ax",%progbits
 272              		.align	1
 273              		.syntax unified
 274              		.thumb
 275              		.thumb_func
 277              	BspTimer_Get_PrtiphAddr:
 278              	.LVL38:
 279              	.LFB135:
 166:HW_Lib/AT32F435/bsp/Bsp_Timer.c **** 
 167:HW_Lib/AT32F435/bsp/Bsp_Timer.c **** static uint32_t BspTimer_Get_PrtiphAddr(BspTimerPWMObj_TypeDef *obj)
 168:HW_Lib/AT32F435/bsp/Bsp_Timer.c **** {
 280              		.loc 1 168 1 is_stmt 1 view -0
 281              		.cfi_startproc
ARM GAS  C:\Users\8bit\AppData\Local\Temp\cczQEQWw.s 			page 10


 282              		@ args = 0, pretend = 0, frame = 0
 283              		@ frame_needed = 0, uses_anonymous_args = 0
 284              		@ link register save eliminated.
 169:HW_Lib/AT32F435/bsp/Bsp_Timer.c ****     if (obj && obj->instance)
 285              		.loc 1 169 5 view .LVU87
 286              		.loc 1 169 8 is_stmt 0 view .LVU88
 287 0000 0346     		mov	r3, r0
 288 0002 98B1     		cbz	r0, .L35
 289              		.loc 1 169 19 discriminator 1 view .LVU89
 290 0004 0068     		ldr	r0, [r0]
 291              	.LVL39:
 292              		.loc 1 169 13 discriminator 1 view .LVU90
 293 0006 98B1     		cbz	r0, .L36
 170:HW_Lib/AT32F435/bsp/Bsp_Timer.c ****     {
 171:HW_Lib/AT32F435/bsp/Bsp_Timer.c ****         if (obj->tim_channel == TMR_SELECT_CHANNEL_1)
 294              		.loc 1 171 9 is_stmt 1 view .LVU91
 295              		.loc 1 171 16 is_stmt 0 view .LVU92
 296 0008 5B68     		ldr	r3, [r3, #4]
 297              	.LVL40:
 298              		.loc 1 171 12 view .LVU93
 299 000a 3BB1     		cbz	r3, .L38
 172:HW_Lib/AT32F435/bsp/Bsp_Timer.c ****             return (uint32_t)&(To_Timer_Instance(obj->instance)->c1dt);
 173:HW_Lib/AT32F435/bsp/Bsp_Timer.c **** 
 174:HW_Lib/AT32F435/bsp/Bsp_Timer.c ****         if (obj->tim_channel == TMR_SELECT_CHANNEL_2)
 300              		.loc 1 174 9 is_stmt 1 view .LVU94
 301              		.loc 1 174 12 is_stmt 0 view .LVU95
 302 000c 022B     		cmp	r3, #2
 303 000e 07D0     		beq	.L39
 175:HW_Lib/AT32F435/bsp/Bsp_Timer.c ****             return (uint32_t)&(To_Timer_Instance(obj->instance)->c2dt);
 176:HW_Lib/AT32F435/bsp/Bsp_Timer.c **** 
 177:HW_Lib/AT32F435/bsp/Bsp_Timer.c ****         if (obj->tim_channel == TMR_SELECT_CHANNEL_3)
 304              		.loc 1 177 9 is_stmt 1 view .LVU96
 305              		.loc 1 177 12 is_stmt 0 view .LVU97
 306 0010 042B     		cmp	r3, #4
 307 0012 07D0     		beq	.L40
 178:HW_Lib/AT32F435/bsp/Bsp_Timer.c ****             return (uint32_t)&(To_Timer_Instance(obj->instance)->c3dt);
 179:HW_Lib/AT32F435/bsp/Bsp_Timer.c **** 
 180:HW_Lib/AT32F435/bsp/Bsp_Timer.c ****         if (obj->tim_channel == TMR_SELECT_CHANNEL_4)
 308              		.loc 1 180 9 is_stmt 1 view .LVU98
 309              		.loc 1 180 12 is_stmt 0 view .LVU99
 310 0014 062B     		cmp	r3, #6
 311 0016 07D0     		beq	.L41
 181:HW_Lib/AT32F435/bsp/Bsp_Timer.c ****             return (uint32_t)&(To_Timer_Instance(obj->instance)->c4dt);
 182:HW_Lib/AT32F435/bsp/Bsp_Timer.c ****     }
 183:HW_Lib/AT32F435/bsp/Bsp_Timer.c **** 
 184:HW_Lib/AT32F435/bsp/Bsp_Timer.c ****     return 0;
 312              		.loc 1 184 12 view .LVU100
 313 0018 0020     		movs	r0, #0
 185:HW_Lib/AT32F435/bsp/Bsp_Timer.c **** }
 314              		.loc 1 185 1 view .LVU101
 315 001a 7047     		bx	lr
 316              	.L38:
 172:HW_Lib/AT32F435/bsp/Bsp_Timer.c **** 
 317              		.loc 1 172 13 is_stmt 1 view .LVU102
 172:HW_Lib/AT32F435/bsp/Bsp_Timer.c **** 
 318              		.loc 1 172 30 is_stmt 0 view .LVU103
 319 001c 3430     		adds	r0, r0, #52
ARM GAS  C:\Users\8bit\AppData\Local\Temp\cczQEQWw.s 			page 11


 172:HW_Lib/AT32F435/bsp/Bsp_Timer.c **** 
 320              		.loc 1 172 20 view .LVU104
 321 001e 7047     		bx	lr
 322              	.L39:
 175:HW_Lib/AT32F435/bsp/Bsp_Timer.c **** 
 323              		.loc 1 175 13 is_stmt 1 view .LVU105
 175:HW_Lib/AT32F435/bsp/Bsp_Timer.c **** 
 324              		.loc 1 175 30 is_stmt 0 view .LVU106
 325 0020 3830     		adds	r0, r0, #56
 175:HW_Lib/AT32F435/bsp/Bsp_Timer.c **** 
 326              		.loc 1 175 20 view .LVU107
 327 0022 7047     		bx	lr
 328              	.L40:
 178:HW_Lib/AT32F435/bsp/Bsp_Timer.c **** 
 329              		.loc 1 178 13 is_stmt 1 view .LVU108
 178:HW_Lib/AT32F435/bsp/Bsp_Timer.c **** 
 330              		.loc 1 178 30 is_stmt 0 view .LVU109
 331 0024 3C30     		adds	r0, r0, #60
 178:HW_Lib/AT32F435/bsp/Bsp_Timer.c **** 
 332              		.loc 1 178 20 view .LVU110
 333 0026 7047     		bx	lr
 334              	.L41:
 181:HW_Lib/AT32F435/bsp/Bsp_Timer.c ****     }
 335              		.loc 1 181 13 is_stmt 1 view .LVU111
 181:HW_Lib/AT32F435/bsp/Bsp_Timer.c ****     }
 336              		.loc 1 181 30 is_stmt 0 view .LVU112
 337 0028 4030     		adds	r0, r0, #64
 181:HW_Lib/AT32F435/bsp/Bsp_Timer.c ****     }
 338              		.loc 1 181 20 view .LVU113
 339 002a 7047     		bx	lr
 340              	.LVL41:
 341              	.L35:
 184:HW_Lib/AT32F435/bsp/Bsp_Timer.c **** }
 342              		.loc 1 184 12 view .LVU114
 343 002c 0020     		movs	r0, #0
 344              	.LVL42:
 184:HW_Lib/AT32F435/bsp/Bsp_Timer.c **** }
 345              		.loc 1 184 12 view .LVU115
 346 002e 7047     		bx	lr
 347              	.L36:
 348 0030 0020     		movs	r0, #0
 349 0032 7047     		bx	lr
 350              		.cfi_endproc
 351              	.LFE135:
 353              		.section	.text.BspTimer_Get_Clock_Freq,"ax",%progbits
 354              		.align	1
 355              		.syntax unified
 356              		.thumb
 357              		.thumb_func
 359              	BspTimer_Get_Clock_Freq:
 360              	.LVL43:
 361              	.LFB140:
 186:HW_Lib/AT32F435/bsp/Bsp_Timer.c **** 
 187:HW_Lib/AT32F435/bsp/Bsp_Timer.c **** static bool BspTimer_DMA_Init(BspTimerPWMObj_TypeDef *obj)
 188:HW_Lib/AT32F435/bsp/Bsp_Timer.c **** {
 189:HW_Lib/AT32F435/bsp/Bsp_Timer.c ****     dma_init_type dma_init_struct;
 190:HW_Lib/AT32F435/bsp/Bsp_Timer.c ****     dmamux_requst_id_sel_type dma_req_id = 0;
ARM GAS  C:\Users\8bit\AppData\Local\Temp\cczQEQWw.s 			page 12


 191:HW_Lib/AT32F435/bsp/Bsp_Timer.c ****     dmamux_channel_type *dmamux_ch = NULL;
 192:HW_Lib/AT32F435/bsp/Bsp_Timer.c ****     obj->dma_hdl = BspDMA.get_instance(obj->dma, obj->stream);
 193:HW_Lib/AT32F435/bsp/Bsp_Timer.c **** 
 194:HW_Lib/AT32F435/bsp/Bsp_Timer.c ****     switch((uint32_t)obj->dma_hdl)
 195:HW_Lib/AT32F435/bsp/Bsp_Timer.c ****     {
 196:HW_Lib/AT32F435/bsp/Bsp_Timer.c ****         case (uint32_t)DMA1_CHANNEL1: dmamux_ch = DMA1MUX_CHANNEL1; break;
 197:HW_Lib/AT32F435/bsp/Bsp_Timer.c ****         case (uint32_t)DMA1_CHANNEL2: dmamux_ch = DMA1MUX_CHANNEL2; break;
 198:HW_Lib/AT32F435/bsp/Bsp_Timer.c ****         case (uint32_t)DMA1_CHANNEL3: dmamux_ch = DMA1MUX_CHANNEL3; break;
 199:HW_Lib/AT32F435/bsp/Bsp_Timer.c ****         case (uint32_t)DMA1_CHANNEL4: dmamux_ch = DMA1MUX_CHANNEL4; break;
 200:HW_Lib/AT32F435/bsp/Bsp_Timer.c ****         case (uint32_t)DMA1_CHANNEL5: dmamux_ch = DMA1MUX_CHANNEL5; break;
 201:HW_Lib/AT32F435/bsp/Bsp_Timer.c ****         case (uint32_t)DMA1_CHANNEL6: dmamux_ch = DMA1MUX_CHANNEL6; break;
 202:HW_Lib/AT32F435/bsp/Bsp_Timer.c ****         case (uint32_t)DMA1_CHANNEL7: dmamux_ch = DMA1MUX_CHANNEL7; break;
 203:HW_Lib/AT32F435/bsp/Bsp_Timer.c ****         case (uint32_t)DMA2_CHANNEL1: dmamux_ch = DMA2MUX_CHANNEL1; break;
 204:HW_Lib/AT32F435/bsp/Bsp_Timer.c ****         case (uint32_t)DMA2_CHANNEL2: dmamux_ch = DMA2MUX_CHANNEL2; break;
 205:HW_Lib/AT32F435/bsp/Bsp_Timer.c ****         case (uint32_t)DMA2_CHANNEL3: dmamux_ch = DMA2MUX_CHANNEL3; break;
 206:HW_Lib/AT32F435/bsp/Bsp_Timer.c ****         case (uint32_t)DMA2_CHANNEL4: dmamux_ch = DMA2MUX_CHANNEL4; break;
 207:HW_Lib/AT32F435/bsp/Bsp_Timer.c ****         case (uint32_t)DMA2_CHANNEL5: dmamux_ch = DMA2MUX_CHANNEL5; break;
 208:HW_Lib/AT32F435/bsp/Bsp_Timer.c ****         case (uint32_t)DMA2_CHANNEL6: dmamux_ch = DMA2MUX_CHANNEL6; break;
 209:HW_Lib/AT32F435/bsp/Bsp_Timer.c ****         // case (uint32_t)DMA2_CHANNEL7: dmamux_ch = DMA2MUX_CHANNEL7; break;
 210:HW_Lib/AT32F435/bsp/Bsp_Timer.c ****         default: return false;
 211:HW_Lib/AT32F435/bsp/Bsp_Timer.c ****     }
 212:HW_Lib/AT32F435/bsp/Bsp_Timer.c **** 
 213:HW_Lib/AT32F435/bsp/Bsp_Timer.c ****     if ((obj == NULL) || \
 214:HW_Lib/AT32F435/bsp/Bsp_Timer.c ****         (obj->instance == NULL) || \
 215:HW_Lib/AT32F435/bsp/Bsp_Timer.c ****         (obj->buffer_addr == 0) || \
 216:HW_Lib/AT32F435/bsp/Bsp_Timer.c ****         (obj->dma_hdl == NULL) || \
 217:HW_Lib/AT32F435/bsp/Bsp_Timer.c ****         (dmamux_ch == NULL) || \
 218:HW_Lib/AT32F435/bsp/Bsp_Timer.c ****         (obj->buffer_size == 0))
 219:HW_Lib/AT32F435/bsp/Bsp_Timer.c ****         return false;
 220:HW_Lib/AT32F435/bsp/Bsp_Timer.c **** 
 221:HW_Lib/AT32F435/bsp/Bsp_Timer.c ****     tmr_dma_request_enable(obj->instance, TMR_OVERFLOW_DMA_REQUEST, TRUE);
 222:HW_Lib/AT32F435/bsp/Bsp_Timer.c ****     switch (obj->tim_channel)
 223:HW_Lib/AT32F435/bsp/Bsp_Timer.c ****     {
 224:HW_Lib/AT32F435/bsp/Bsp_Timer.c ****         case TMR_SELECT_CHANNEL_1: tmr_dma_request_enable(obj->instance, TMR_C1_DMA_REQUEST, TRUE);
 225:HW_Lib/AT32F435/bsp/Bsp_Timer.c ****         case TMR_SELECT_CHANNEL_2: tmr_dma_request_enable(obj->instance, TMR_C2_DMA_REQUEST, TRUE);
 226:HW_Lib/AT32F435/bsp/Bsp_Timer.c ****         case TMR_SELECT_CHANNEL_3: tmr_dma_request_enable(obj->instance, TMR_C3_DMA_REQUEST, TRUE);
 227:HW_Lib/AT32F435/bsp/Bsp_Timer.c ****         case TMR_SELECT_CHANNEL_4: tmr_dma_request_enable(obj->instance, TMR_C4_DMA_REQUEST, TRUE);
 228:HW_Lib/AT32F435/bsp/Bsp_Timer.c ****         default: return false;
 229:HW_Lib/AT32F435/bsp/Bsp_Timer.c ****     }
 230:HW_Lib/AT32F435/bsp/Bsp_Timer.c ****     
 231:HW_Lib/AT32F435/bsp/Bsp_Timer.c ****     dma_req_id = BspTimer_Get_DMA_MuxSeq(obj);
 232:HW_Lib/AT32F435/bsp/Bsp_Timer.c **** 
 233:HW_Lib/AT32F435/bsp/Bsp_Timer.c ****     if (dma_req_id)
 234:HW_Lib/AT32F435/bsp/Bsp_Timer.c ****     {
 235:HW_Lib/AT32F435/bsp/Bsp_Timer.c ****         /* enable timer output dma request */
 236:HW_Lib/AT32F435/bsp/Bsp_Timer.c ****         dma_reset(obj->dma_hdl);
 237:HW_Lib/AT32F435/bsp/Bsp_Timer.c ****         dma_init_struct.buffer_size = obj->buffer_size;
 238:HW_Lib/AT32F435/bsp/Bsp_Timer.c ****         dma_init_struct.direction = DMA_DIR_MEMORY_TO_PERIPHERAL;
 239:HW_Lib/AT32F435/bsp/Bsp_Timer.c ****         dma_init_struct.memory_base_addr = (uint32_t)obj->buffer_addr;
 240:HW_Lib/AT32F435/bsp/Bsp_Timer.c ****         dma_init_struct.memory_data_width = DMA_PERIPHERAL_DATA_WIDTH_HALFWORD;
 241:HW_Lib/AT32F435/bsp/Bsp_Timer.c ****         dma_init_struct.memory_inc_enable = TRUE;
 242:HW_Lib/AT32F435/bsp/Bsp_Timer.c ****         dma_init_struct.peripheral_base_addr = BspTimer_Get_PrtiphAddr(obj);
 243:HW_Lib/AT32F435/bsp/Bsp_Timer.c ****         dma_init_struct.peripheral_data_width = DMA_PERIPHERAL_DATA_WIDTH_HALFWORD;
 244:HW_Lib/AT32F435/bsp/Bsp_Timer.c ****         dma_init_struct.peripheral_inc_enable = FALSE;
 245:HW_Lib/AT32F435/bsp/Bsp_Timer.c ****         dma_init_struct.priority = DMA_PRIORITY_HIGH;
 246:HW_Lib/AT32F435/bsp/Bsp_Timer.c ****         dma_init_struct.loop_mode_enable = FALSE;
 247:HW_Lib/AT32F435/bsp/Bsp_Timer.c ****         dma_init(obj->dma_hdl, &dma_init_struct);
ARM GAS  C:\Users\8bit\AppData\Local\Temp\cczQEQWw.s 			page 13


 248:HW_Lib/AT32F435/bsp/Bsp_Timer.c ****         dmamux_init(dmamux_ch, dma_req_id);
 249:HW_Lib/AT32F435/bsp/Bsp_Timer.c **** 
 250:HW_Lib/AT32F435/bsp/Bsp_Timer.c ****         return true;
 251:HW_Lib/AT32F435/bsp/Bsp_Timer.c ****     }
 252:HW_Lib/AT32F435/bsp/Bsp_Timer.c **** 
 253:HW_Lib/AT32F435/bsp/Bsp_Timer.c ****     return false;
 254:HW_Lib/AT32F435/bsp/Bsp_Timer.c **** }
 255:HW_Lib/AT32F435/bsp/Bsp_Timer.c **** 
 256:HW_Lib/AT32F435/bsp/Bsp_Timer.c **** static bool BspTimer_PWM_DeInit(BspTimerPWMObj_TypeDef *obj)
 257:HW_Lib/AT32F435/bsp/Bsp_Timer.c **** {
 258:HW_Lib/AT32F435/bsp/Bsp_Timer.c ****     if (obj && obj->instance)
 259:HW_Lib/AT32F435/bsp/Bsp_Timer.c ****     {
 260:HW_Lib/AT32F435/bsp/Bsp_Timer.c ****         if (!BspTimer_Clock_EnableCtl(obj->instance, FALSE) || \
 261:HW_Lib/AT32F435/bsp/Bsp_Timer.c ****             !BspDMA.disable_irq(obj->dma, obj->stream))
 262:HW_Lib/AT32F435/bsp/Bsp_Timer.c ****             return false;
 263:HW_Lib/AT32F435/bsp/Bsp_Timer.c ****     
 264:HW_Lib/AT32F435/bsp/Bsp_Timer.c ****         return true;
 265:HW_Lib/AT32F435/bsp/Bsp_Timer.c ****     }
 266:HW_Lib/AT32F435/bsp/Bsp_Timer.c **** 
 267:HW_Lib/AT32F435/bsp/Bsp_Timer.c ****     return false;
 268:HW_Lib/AT32F435/bsp/Bsp_Timer.c **** }
 269:HW_Lib/AT32F435/bsp/Bsp_Timer.c **** 
 270:HW_Lib/AT32F435/bsp/Bsp_Timer.c **** static bool BspTimer_PWM_Init(BspTimerPWMObj_TypeDef *obj,
 271:HW_Lib/AT32F435/bsp/Bsp_Timer.c ****                               void *instance,
 272:HW_Lib/AT32F435/bsp/Bsp_Timer.c ****                               uint32_t ch,
 273:HW_Lib/AT32F435/bsp/Bsp_Timer.c ****                               uint32_t auto_reload,
 274:HW_Lib/AT32F435/bsp/Bsp_Timer.c ****                               uint32_t prescale,
 275:HW_Lib/AT32F435/bsp/Bsp_Timer.c ****                               BspGPIO_Obj_TypeDef pin,
 276:HW_Lib/AT32F435/bsp/Bsp_Timer.c ****                               uint8_t dma,
 277:HW_Lib/AT32F435/bsp/Bsp_Timer.c ****                               uint8_t stream,
 278:HW_Lib/AT32F435/bsp/Bsp_Timer.c ****                               uint32_t buf_aadr,
 279:HW_Lib/AT32F435/bsp/Bsp_Timer.c ****                               uint32_t buf_size)
 280:HW_Lib/AT32F435/bsp/Bsp_Timer.c **** {
 281:HW_Lib/AT32F435/bsp/Bsp_Timer.c ****     tmr_output_config_type tmr_output_struct;
 282:HW_Lib/AT32F435/bsp/Bsp_Timer.c **** 
 283:HW_Lib/AT32F435/bsp/Bsp_Timer.c ****     memset(&tmr_output_struct, 0, sizeof(tmr_output_config_type));
 284:HW_Lib/AT32F435/bsp/Bsp_Timer.c **** 
 285:HW_Lib/AT32F435/bsp/Bsp_Timer.c ****     if (!monitor.monitor_init)
 286:HW_Lib/AT32F435/bsp/Bsp_Timer.c ****     {
 287:HW_Lib/AT32F435/bsp/Bsp_Timer.c ****         memset(monitor.list, 0, sizeof(monitor.list));
 288:HW_Lib/AT32F435/bsp/Bsp_Timer.c ****         monitor.init_cnt = 0;
 289:HW_Lib/AT32F435/bsp/Bsp_Timer.c ****         monitor.monitor_init = true;
 290:HW_Lib/AT32F435/bsp/Bsp_Timer.c ****     }
 291:HW_Lib/AT32F435/bsp/Bsp_Timer.c **** 
 292:HW_Lib/AT32F435/bsp/Bsp_Timer.c ****     if ((obj == NULL) || \
 293:HW_Lib/AT32F435/bsp/Bsp_Timer.c ****         (instance == NULL) || \
 294:HW_Lib/AT32F435/bsp/Bsp_Timer.c ****         (buf_aadr == 0) || \
 295:HW_Lib/AT32F435/bsp/Bsp_Timer.c ****         (buf_size == 0))
 296:HW_Lib/AT32F435/bsp/Bsp_Timer.c ****         return false;
 297:HW_Lib/AT32F435/bsp/Bsp_Timer.c **** 
 298:HW_Lib/AT32F435/bsp/Bsp_Timer.c ****     if (!BspTimer_Clock_EnableCtl(instance, TRUE))
 299:HW_Lib/AT32F435/bsp/Bsp_Timer.c ****         return false;
 300:HW_Lib/AT32F435/bsp/Bsp_Timer.c **** 
 301:HW_Lib/AT32F435/bsp/Bsp_Timer.c ****     obj->dma = dma;
 302:HW_Lib/AT32F435/bsp/Bsp_Timer.c ****     obj->stream = stream;
 303:HW_Lib/AT32F435/bsp/Bsp_Timer.c ****     obj->buffer_addr = buf_aadr;
 304:HW_Lib/AT32F435/bsp/Bsp_Timer.c ****     obj->buffer_size = buf_size;
ARM GAS  C:\Users\8bit\AppData\Local\Temp\cczQEQWw.s 			page 14


 305:HW_Lib/AT32F435/bsp/Bsp_Timer.c ****     obj->instance = instance;
 306:HW_Lib/AT32F435/bsp/Bsp_Timer.c ****     obj->tim_channel = ch;
 307:HW_Lib/AT32F435/bsp/Bsp_Timer.c **** 
 308:HW_Lib/AT32F435/bsp/Bsp_Timer.c ****     /* init pin */
 309:HW_Lib/AT32F435/bsp/Bsp_Timer.c ****     if (!BspGPIO.alt_init(pin, GPIO_OUTPUT_PUSH_PULL))
 310:HW_Lib/AT32F435/bsp/Bsp_Timer.c ****         return false;
 311:HW_Lib/AT32F435/bsp/Bsp_Timer.c **** 
 312:HW_Lib/AT32F435/bsp/Bsp_Timer.c ****     obj->prescale = prescale;
 313:HW_Lib/AT32F435/bsp/Bsp_Timer.c ****     obj->auto_reload = auto_reload;
 314:HW_Lib/AT32F435/bsp/Bsp_Timer.c ****     tmr_base_init(obj->instance, obj->auto_reload, obj->prescale);
 315:HW_Lib/AT32F435/bsp/Bsp_Timer.c **** 
 316:HW_Lib/AT32F435/bsp/Bsp_Timer.c ****     /* init pwm output */
 317:HW_Lib/AT32F435/bsp/Bsp_Timer.c ****     tmr_cnt_dir_set(obj->instance, TMR_COUNT_UP);
 318:HW_Lib/AT32F435/bsp/Bsp_Timer.c ****     tmr_output_default_para_init(&tmr_output_struct);
 319:HW_Lib/AT32F435/bsp/Bsp_Timer.c ****     tmr_output_struct.oc_mode = TMR_OUTPUT_CONTROL_PWM_MODE_A;
 320:HW_Lib/AT32F435/bsp/Bsp_Timer.c ****     tmr_output_struct.oc_idle_state = TRUE;
 321:HW_Lib/AT32F435/bsp/Bsp_Timer.c ****     tmr_output_struct.oc_output_state = TRUE;
 322:HW_Lib/AT32F435/bsp/Bsp_Timer.c ****     tmr_output_struct.oc_polarity = TMR_OUTPUT_ACTIVE_HIGH;
 323:HW_Lib/AT32F435/bsp/Bsp_Timer.c ****     tmr_output_struct.occ_output_state = TRUE;
 324:HW_Lib/AT32F435/bsp/Bsp_Timer.c ****     tmr_output_struct.occ_polarity = TMR_OUTPUT_ACTIVE_HIGH;
 325:HW_Lib/AT32F435/bsp/Bsp_Timer.c ****     tmr_output_struct.occ_idle_state = FALSE;
 326:HW_Lib/AT32F435/bsp/Bsp_Timer.c ****     
 327:HW_Lib/AT32F435/bsp/Bsp_Timer.c ****     tmr_counter_enable(To_Timer_Instance(obj->instance), FALSE);
 328:HW_Lib/AT32F435/bsp/Bsp_Timer.c ****     tmr_output_channel_config(obj->instance, obj->tim_channel, &tmr_output_struct);
 329:HW_Lib/AT32F435/bsp/Bsp_Timer.c ****     tmr_channel_enable(obj->instance, obj->tim_channel, TRUE);
 330:HW_Lib/AT32F435/bsp/Bsp_Timer.c ****     tmr_output_channel_buffer_enable(obj->instance, obj->tim_channel, FALSE);
 331:HW_Lib/AT32F435/bsp/Bsp_Timer.c **** 
 332:HW_Lib/AT32F435/bsp/Bsp_Timer.c ****     if (BspTimer_DMA_Init(obj))
 333:HW_Lib/AT32F435/bsp/Bsp_Timer.c ****     {
 334:HW_Lib/AT32F435/bsp/Bsp_Timer.c ****         if (obj->dma_callback_obj)
 335:HW_Lib/AT32F435/bsp/Bsp_Timer.c ****         {
 336:HW_Lib/AT32F435/bsp/Bsp_Timer.c ****             To_DMA_IrqCallbackObj_Ptr(obj->dma_callback_obj)->cus_data = (void *)obj;
 337:HW_Lib/AT32F435/bsp/Bsp_Timer.c ****             To_DMA_IrqCallbackObj_Ptr(obj->dma_callback_obj)->BspDMA_Irq_Callback_Func = BspTimer_D
 338:HW_Lib/AT32F435/bsp/Bsp_Timer.c ****         }
 339:HW_Lib/AT32F435/bsp/Bsp_Timer.c **** 
 340:HW_Lib/AT32F435/bsp/Bsp_Timer.c ****         BspDMA.enable_irq(dma, stream, 5, 0, BspTimer_Get_DMA_MuxSeq(obj), obj->dma_callback_obj);
 341:HW_Lib/AT32F435/bsp/Bsp_Timer.c **** 
 342:HW_Lib/AT32F435/bsp/Bsp_Timer.c ****         monitor.list[monitor.init_cnt] = obj->instance;
 343:HW_Lib/AT32F435/bsp/Bsp_Timer.c ****         monitor.init_cnt ++;
 344:HW_Lib/AT32F435/bsp/Bsp_Timer.c **** 
 345:HW_Lib/AT32F435/bsp/Bsp_Timer.c ****         dma_channel_enable(To_DMA_Handle_Ptr(obj->dma_hdl), FALSE);
 346:HW_Lib/AT32F435/bsp/Bsp_Timer.c ****     }
 347:HW_Lib/AT32F435/bsp/Bsp_Timer.c ****     
 348:HW_Lib/AT32F435/bsp/Bsp_Timer.c ****     tmr_counter_value_set(To_Timer_Instance(obj->instance), 0);
 349:HW_Lib/AT32F435/bsp/Bsp_Timer.c ****     tmr_output_enable(To_Timer_Instance(obj->instance), FALSE);
 350:HW_Lib/AT32F435/bsp/Bsp_Timer.c **** 
 351:HW_Lib/AT32F435/bsp/Bsp_Timer.c ****     return true;
 352:HW_Lib/AT32F435/bsp/Bsp_Timer.c **** }
 353:HW_Lib/AT32F435/bsp/Bsp_Timer.c **** 
 354:HW_Lib/AT32F435/bsp/Bsp_Timer.c **** static void BspTimer_PWM_Trans(BspTimerPWMObj_TypeDef *obj, uint16_t val)
 355:HW_Lib/AT32F435/bsp/Bsp_Timer.c **** {
 356:HW_Lib/AT32F435/bsp/Bsp_Timer.c ****     if (obj == NULL)
 357:HW_Lib/AT32F435/bsp/Bsp_Timer.c ****         return;
 358:HW_Lib/AT32F435/bsp/Bsp_Timer.c **** 
 359:HW_Lib/AT32F435/bsp/Bsp_Timer.c ****     if (val > obj->auto_reload)
 360:HW_Lib/AT32F435/bsp/Bsp_Timer.c ****         val = obj->auto_reload;
 361:HW_Lib/AT32F435/bsp/Bsp_Timer.c **** 
ARM GAS  C:\Users\8bit\AppData\Local\Temp\cczQEQWw.s 			page 15


 362:HW_Lib/AT32F435/bsp/Bsp_Timer.c ****     tmr_output_enable(To_Timer_Instance(obj->instance), TRUE);
 363:HW_Lib/AT32F435/bsp/Bsp_Timer.c ****     tmr_channel_value_set(obj->instance, obj->tim_channel, val);
 364:HW_Lib/AT32F435/bsp/Bsp_Timer.c **** }
 365:HW_Lib/AT32F435/bsp/Bsp_Timer.c **** 
 366:HW_Lib/AT32F435/bsp/Bsp_Timer.c **** static uint32_t BspTimer_Get_Clock_Freq(BspTimerPWMObj_TypeDef *obj)
 367:HW_Lib/AT32F435/bsp/Bsp_Timer.c **** {
 362              		.loc 1 367 1 is_stmt 1 view -0
 363              		.cfi_startproc
 364              		@ args = 0, pretend = 0, frame = 16
 365              		@ frame_needed = 0, uses_anonymous_args = 0
 366              		.loc 1 367 1 is_stmt 0 view .LVU117
 367 0000 00B5     		push	{lr}
 368              	.LCFI0:
 369              		.cfi_def_cfa_offset 4
 370              		.cfi_offset 14, -4
 371 0002 85B0     		sub	sp, sp, #20
 372              	.LCFI1:
 373              		.cfi_def_cfa_offset 24
 368:HW_Lib/AT32F435/bsp/Bsp_Timer.c ****     crm_clocks_freq_type crm_clocks_freq_struct;
 374              		.loc 1 368 5 is_stmt 1 view .LVU118
 369:HW_Lib/AT32F435/bsp/Bsp_Timer.c ****     UNUSED(obj);
 375              		.loc 1 369 5 view .LVU119
 370:HW_Lib/AT32F435/bsp/Bsp_Timer.c **** 
 371:HW_Lib/AT32F435/bsp/Bsp_Timer.c ****     memset(&crm_clocks_freq_struct, 0, sizeof(crm_clocks_freq_type));
 376              		.loc 1 371 5 view .LVU120
 377 0004 0023     		movs	r3, #0
 378 0006 0093     		str	r3, [sp]
 379 0008 0193     		str	r3, [sp, #4]
 380 000a 0293     		str	r3, [sp, #8]
 381 000c 0393     		str	r3, [sp, #12]
 372:HW_Lib/AT32F435/bsp/Bsp_Timer.c ****     crm_clocks_freq_get(&crm_clocks_freq_struct);
 382              		.loc 1 372 5 view .LVU121
 383 000e 6846     		mov	r0, sp
 384              	.LVL44:
 385              		.loc 1 372 5 is_stmt 0 view .LVU122
 386 0010 FFF7FEFF 		bl	crm_clocks_freq_get
 387              	.LVL45:
 373:HW_Lib/AT32F435/bsp/Bsp_Timer.c ****     return (crm_clocks_freq_struct.apb2_freq * 2);
 388              		.loc 1 373 5 is_stmt 1 view .LVU123
 374:HW_Lib/AT32F435/bsp/Bsp_Timer.c **** }
 389              		.loc 1 374 1 is_stmt 0 view .LVU124
 390 0014 0298     		ldr	r0, [sp, #8]
 391 0016 4000     		lsls	r0, r0, #1
 392 0018 05B0     		add	sp, sp, #20
 393              	.LCFI2:
 394              		.cfi_def_cfa_offset 4
 395              		@ sp needed
 396 001a 5DF804FB 		ldr	pc, [sp], #4
 397              		.cfi_endproc
 398              	.LFE140:
 400              		.section	.text.BspTimer_PWM_Trans,"ax",%progbits
 401              		.align	1
 402              		.syntax unified
 403              		.thumb
 404              		.thumb_func
 406              	BspTimer_PWM_Trans:
 407              	.LVL46:
ARM GAS  C:\Users\8bit\AppData\Local\Temp\cczQEQWw.s 			page 16


 408              	.LFB139:
 355:HW_Lib/AT32F435/bsp/Bsp_Timer.c ****     if (obj == NULL)
 409              		.loc 1 355 1 is_stmt 1 view -0
 410              		.cfi_startproc
 411              		@ args = 0, pretend = 0, frame = 0
 412              		@ frame_needed = 0, uses_anonymous_args = 0
 356:HW_Lib/AT32F435/bsp/Bsp_Timer.c ****         return;
 413              		.loc 1 356 5 view .LVU126
 356:HW_Lib/AT32F435/bsp/Bsp_Timer.c ****         return;
 414              		.loc 1 356 8 is_stmt 0 view .LVU127
 415 0000 80B1     		cbz	r0, .L48
 355:HW_Lib/AT32F435/bsp/Bsp_Timer.c ****     if (obj == NULL)
 416              		.loc 1 355 1 view .LVU128
 417 0002 38B5     		push	{r3, r4, r5, lr}
 418              	.LCFI3:
 419              		.cfi_def_cfa_offset 16
 420              		.cfi_offset 3, -16
 421              		.cfi_offset 4, -12
 422              		.cfi_offset 5, -8
 423              		.cfi_offset 14, -4
 424 0004 0C46     		mov	r4, r1
 425 0006 0546     		mov	r5, r0
 359:HW_Lib/AT32F435/bsp/Bsp_Timer.c ****         val = obj->auto_reload;
 426              		.loc 1 359 5 is_stmt 1 view .LVU129
 359:HW_Lib/AT32F435/bsp/Bsp_Timer.c ****         val = obj->auto_reload;
 427              		.loc 1 359 18 is_stmt 0 view .LVU130
 428 0008 8369     		ldr	r3, [r0, #24]
 359:HW_Lib/AT32F435/bsp/Bsp_Timer.c ****         val = obj->auto_reload;
 429              		.loc 1 359 8 view .LVU131
 430 000a 9942     		cmp	r1, r3
 431 000c 00D9     		bls	.L46
 360:HW_Lib/AT32F435/bsp/Bsp_Timer.c **** 
 432              		.loc 1 360 9 is_stmt 1 view .LVU132
 360:HW_Lib/AT32F435/bsp/Bsp_Timer.c **** 
 433              		.loc 1 360 13 is_stmt 0 view .LVU133
 434 000e 9CB2     		uxth	r4, r3
 435              	.LVL47:
 436              	.L46:
 362:HW_Lib/AT32F435/bsp/Bsp_Timer.c ****     tmr_channel_value_set(obj->instance, obj->tim_channel, val);
 437              		.loc 1 362 5 is_stmt 1 view .LVU134
 438 0010 0121     		movs	r1, #1
 439 0012 2868     		ldr	r0, [r5]
 440              	.LVL48:
 362:HW_Lib/AT32F435/bsp/Bsp_Timer.c ****     tmr_channel_value_set(obj->instance, obj->tim_channel, val);
 441              		.loc 1 362 5 is_stmt 0 view .LVU135
 442 0014 FFF7FEFF 		bl	tmr_output_enable
 443              	.LVL49:
 363:HW_Lib/AT32F435/bsp/Bsp_Timer.c **** }
 444              		.loc 1 363 5 is_stmt 1 view .LVU136
 445 0018 2246     		mov	r2, r4
 446 001a 2979     		ldrb	r1, [r5, #4]	@ zero_extendqisi2
 447 001c 2868     		ldr	r0, [r5]
 448 001e FFF7FEFF 		bl	tmr_channel_value_set
 449              	.LVL50:
 364:HW_Lib/AT32F435/bsp/Bsp_Timer.c **** 
 450              		.loc 1 364 1 is_stmt 0 view .LVU137
 451 0022 38BD     		pop	{r3, r4, r5, pc}
ARM GAS  C:\Users\8bit\AppData\Local\Temp\cczQEQWw.s 			page 17


 452              	.LVL51:
 453              	.L48:
 454              	.LCFI4:
 455              		.cfi_def_cfa_offset 0
 456              		.cfi_restore 3
 457              		.cfi_restore 4
 458              		.cfi_restore 5
 459              		.cfi_restore 14
 364:HW_Lib/AT32F435/bsp/Bsp_Timer.c **** 
 460              		.loc 1 364 1 view .LVU138
 461 0024 7047     		bx	lr
 462              		.cfi_endproc
 463              	.LFE139:
 465              		.section	.text.BspTimer_DMA_Start,"ax",%progbits
 466              		.align	1
 467              		.syntax unified
 468              		.thumb
 469              		.thumb_func
 471              	BspTimer_DMA_Start:
 472              	.LVL52:
 473              	.LFB142:
 375:HW_Lib/AT32F435/bsp/Bsp_Timer.c **** 
 376:HW_Lib/AT32F435/bsp/Bsp_Timer.c **** static void BspTimer_PWM_Start(BspTimerPWMObj_TypeDef *obj)
 377:HW_Lib/AT32F435/bsp/Bsp_Timer.c **** {
 378:HW_Lib/AT32F435/bsp/Bsp_Timer.c ****     if (obj && obj->instance)
 379:HW_Lib/AT32F435/bsp/Bsp_Timer.c ****     {
 380:HW_Lib/AT32F435/bsp/Bsp_Timer.c ****         tmr_counter_value_set(To_Timer_Instance(obj->instance), 0);
 381:HW_Lib/AT32F435/bsp/Bsp_Timer.c ****         tmr_base_init(obj->instance, obj->auto_reload - 1, obj->prescale);
 382:HW_Lib/AT32F435/bsp/Bsp_Timer.c ****     }
 383:HW_Lib/AT32F435/bsp/Bsp_Timer.c **** }
 384:HW_Lib/AT32F435/bsp/Bsp_Timer.c **** 
 385:HW_Lib/AT32F435/bsp/Bsp_Timer.c **** static void BspTimer_DMA_Start(BspTimerPWMObj_TypeDef *obj)
 386:HW_Lib/AT32F435/bsp/Bsp_Timer.c **** {
 474              		.loc 1 386 1 is_stmt 1 view -0
 475              		.cfi_startproc
 476              		@ args = 0, pretend = 0, frame = 0
 477              		@ frame_needed = 0, uses_anonymous_args = 0
 387:HW_Lib/AT32F435/bsp/Bsp_Timer.c ****     if (obj && obj->dma_hdl)
 478              		.loc 1 387 5 view .LVU140
 479              		.loc 1 387 8 is_stmt 0 view .LVU141
 480 0000 F8B1     		cbz	r0, .L54
 386:HW_Lib/AT32F435/bsp/Bsp_Timer.c ****     if (obj && obj->dma_hdl)
 481              		.loc 1 386 1 discriminator 1 view .LVU142
 482 0002 10B5     		push	{r4, lr}
 483              	.LCFI5:
 484              		.cfi_def_cfa_offset 8
 485              		.cfi_offset 4, -8
 486              		.cfi_offset 14, -4
 487 0004 0446     		mov	r4, r0
 488              		.loc 1 387 19 discriminator 1 view .LVU143
 489 0006 C368     		ldr	r3, [r0, #12]
 490              		.loc 1 387 13 discriminator 1 view .LVU144
 491 0008 D3B1     		cbz	r3, .L51
 388:HW_Lib/AT32F435/bsp/Bsp_Timer.c ****     {
 389:HW_Lib/AT32F435/bsp/Bsp_Timer.c ****         To_DMA_Handle_Ptr(obj->dma_hdl)->maddr = obj->buffer_addr;
 492              		.loc 1 389 9 is_stmt 1 view .LVU145
 493              		.loc 1 389 53 is_stmt 0 view .LVU146
ARM GAS  C:\Users\8bit\AppData\Local\Temp\cczQEQWw.s 			page 18


 494 000a 426A     		ldr	r2, [r0, #36]
 495              		.loc 1 389 48 view .LVU147
 496 000c DA60     		str	r2, [r3, #12]
 390:HW_Lib/AT32F435/bsp/Bsp_Timer.c ****         To_DMA_Handle_Ptr(obj->dma_hdl)->dtcnt = obj->buffer_size * sizeof(uint16_t);
 497              		.loc 1 390 9 is_stmt 1 view .LVU148
 498              		.loc 1 390 53 is_stmt 0 view .LVU149
 499 000e 836A     		ldr	r3, [r0, #40]
 500              		.loc 1 390 9 view .LVU150
 501 0010 C268     		ldr	r2, [r0, #12]
 502              		.loc 1 390 67 view .LVU151
 503 0012 5B00     		lsls	r3, r3, #1
 504              		.loc 1 390 48 view .LVU152
 505 0014 5360     		str	r3, [r2, #4]
 391:HW_Lib/AT32F435/bsp/Bsp_Timer.c ****         
 392:HW_Lib/AT32F435/bsp/Bsp_Timer.c ****         tmr_counter_enable(To_Timer_Instance(obj->instance), FALSE);
 506              		.loc 1 392 9 is_stmt 1 view .LVU153
 507 0016 0021     		movs	r1, #0
 508 0018 0068     		ldr	r0, [r0]
 509              	.LVL53:
 510              		.loc 1 392 9 is_stmt 0 view .LVU154
 511 001a FFF7FEFF 		bl	tmr_counter_enable
 512              	.LVL54:
 393:HW_Lib/AT32F435/bsp/Bsp_Timer.c ****         tmr_channel_value_set(To_Timer_Instance(obj->instance), obj->tim_channel, 0);
 513              		.loc 1 393 9 is_stmt 1 view .LVU155
 514 001e 0022     		movs	r2, #0
 515 0020 2179     		ldrb	r1, [r4, #4]	@ zero_extendqisi2
 516 0022 2068     		ldr	r0, [r4]
 517 0024 FFF7FEFF 		bl	tmr_channel_value_set
 518              	.LVL55:
 394:HW_Lib/AT32F435/bsp/Bsp_Timer.c ****         tmr_counter_enable(To_Timer_Instance(obj->instance), TRUE);
 519              		.loc 1 394 9 view .LVU156
 520 0028 0121     		movs	r1, #1
 521 002a 2068     		ldr	r0, [r4]
 522 002c FFF7FEFF 		bl	tmr_counter_enable
 523              	.LVL56:
 395:HW_Lib/AT32F435/bsp/Bsp_Timer.c **** 
 396:HW_Lib/AT32F435/bsp/Bsp_Timer.c ****         dma_channel_enable(To_DMA_Handle_Ptr(obj->dma_hdl), TRUE);
 524              		.loc 1 396 9 view .LVU157
 525 0030 0121     		movs	r1, #1
 526 0032 E068     		ldr	r0, [r4, #12]
 527 0034 FFF7FEFF 		bl	dma_channel_enable
 528              	.LVL57:
 397:HW_Lib/AT32F435/bsp/Bsp_Timer.c ****         tmr_output_enable(To_Timer_Instance(obj->instance), TRUE);
 529              		.loc 1 397 9 view .LVU158
 530 0038 0121     		movs	r1, #1
 531 003a 2068     		ldr	r0, [r4]
 532 003c FFF7FEFF 		bl	tmr_output_enable
 533              	.LVL58:
 534              	.L51:
 398:HW_Lib/AT32F435/bsp/Bsp_Timer.c ****     }
 399:HW_Lib/AT32F435/bsp/Bsp_Timer.c **** }
 535              		.loc 1 399 1 is_stmt 0 view .LVU159
 536 0040 10BD     		pop	{r4, pc}
 537              	.LVL59:
 538              	.L54:
 539              	.LCFI6:
 540              		.cfi_def_cfa_offset 0
ARM GAS  C:\Users\8bit\AppData\Local\Temp\cczQEQWw.s 			page 19


 541              		.cfi_restore 4
 542              		.cfi_restore 14
 543              		.loc 1 399 1 view .LVU160
 544 0042 7047     		bx	lr
 545              		.cfi_endproc
 546              	.LFE142:
 548              		.section	.text.BspTimer_DMA_TransCplt_Callback,"ax",%progbits
 549              		.align	1
 550              		.syntax unified
 551              		.thumb
 552              		.thumb_func
 554              	BspTimer_DMA_TransCplt_Callback:
 555              	.LVL60:
 556              	.LFB143:
 400:HW_Lib/AT32F435/bsp/Bsp_Timer.c **** 
 401:HW_Lib/AT32F435/bsp/Bsp_Timer.c **** static void BspTimer_DMA_TransCplt_Callback(void *arg)
 402:HW_Lib/AT32F435/bsp/Bsp_Timer.c **** {
 557              		.loc 1 402 1 is_stmt 1 view -0
 558              		.cfi_startproc
 559              		@ args = 0, pretend = 0, frame = 0
 560              		@ frame_needed = 0, uses_anonymous_args = 0
 403:HW_Lib/AT32F435/bsp/Bsp_Timer.c ****     BspTimerPWMObj_TypeDef *obj = NULL;
 561              		.loc 1 403 5 view .LVU162
 404:HW_Lib/AT32F435/bsp/Bsp_Timer.c **** 
 405:HW_Lib/AT32F435/bsp/Bsp_Timer.c ****     if (arg && To_TimerPWMObj_Ptr(arg)->dma_hdl)
 562              		.loc 1 405 5 view .LVU163
 563              		.loc 1 405 8 is_stmt 0 view .LVU164
 564 0000 70B1     		cbz	r0, .L60
 402:HW_Lib/AT32F435/bsp/Bsp_Timer.c ****     BspTimerPWMObj_TypeDef *obj = NULL;
 565              		.loc 1 402 1 discriminator 1 view .LVU165
 566 0002 10B5     		push	{r4, lr}
 567              	.LCFI7:
 568              		.cfi_def_cfa_offset 8
 569              		.cfi_offset 4, -8
 570              		.cfi_offset 14, -4
 571 0004 0446     		mov	r4, r0
 572              		.loc 1 405 39 discriminator 1 view .LVU166
 573 0006 C068     		ldr	r0, [r0, #12]
 574              	.LVL61:
 575              		.loc 1 405 13 discriminator 1 view .LVU167
 576 0008 48B1     		cbz	r0, .L57
 406:HW_Lib/AT32F435/bsp/Bsp_Timer.c ****     {
 407:HW_Lib/AT32F435/bsp/Bsp_Timer.c ****         obj = To_TimerPWMObj_Ptr(arg);
 577              		.loc 1 407 9 is_stmt 1 view .LVU168
 578              	.LVL62:
 408:HW_Lib/AT32F435/bsp/Bsp_Timer.c ****         dma_channel_enable(To_DMA_Handle_Ptr(obj->dma_hdl), FALSE);
 579              		.loc 1 408 9 view .LVU169
 580 000a 0021     		movs	r1, #0
 581 000c FFF7FEFF 		bl	dma_channel_enable
 582              	.LVL63:
 409:HW_Lib/AT32F435/bsp/Bsp_Timer.c ****         tmr_output_enable(To_Timer_Instance(obj->instance), FALSE);
 583              		.loc 1 409 9 view .LVU170
 584 0010 0021     		movs	r1, #0
 585 0012 2068     		ldr	r0, [r4]
 586 0014 FFF7FEFF 		bl	tmr_output_enable
 587              	.LVL64:
 410:HW_Lib/AT32F435/bsp/Bsp_Timer.c **** 
ARM GAS  C:\Users\8bit\AppData\Local\Temp\cczQEQWw.s 			page 20


 411:HW_Lib/AT32F435/bsp/Bsp_Timer.c ****         if (obj->send_callback)
 588              		.loc 1 411 9 view .LVU171
 589              		.loc 1 411 16 is_stmt 0 view .LVU172
 590 0018 E36A     		ldr	r3, [r4, #44]
 591              		.loc 1 411 12 view .LVU173
 592 001a 03B1     		cbz	r3, .L57
 412:HW_Lib/AT32F435/bsp/Bsp_Timer.c ****             obj->send_callback();
 593              		.loc 1 412 13 is_stmt 1 view .LVU174
 594 001c 9847     		blx	r3
 595              	.LVL65:
 596              	.L57:
 413:HW_Lib/AT32F435/bsp/Bsp_Timer.c ****     }
 414:HW_Lib/AT32F435/bsp/Bsp_Timer.c **** }
 597              		.loc 1 414 1 is_stmt 0 view .LVU175
 598 001e 10BD     		pop	{r4, pc}
 599              	.LVL66:
 600              	.L60:
 601              	.LCFI8:
 602              		.cfi_def_cfa_offset 0
 603              		.cfi_restore 4
 604              		.cfi_restore 14
 605              		.loc 1 414 1 view .LVU176
 606 0020 7047     		bx	lr
 607              		.cfi_endproc
 608              	.LFE143:
 610              		.section	.text.BspTimer_PWM_Start,"ax",%progbits
 611              		.align	1
 612              		.syntax unified
 613              		.thumb
 614              		.thumb_func
 616              	BspTimer_PWM_Start:
 617              	.LVL67:
 618              	.LFB141:
 377:HW_Lib/AT32F435/bsp/Bsp_Timer.c ****     if (obj && obj->instance)
 619              		.loc 1 377 1 is_stmt 1 view -0
 620              		.cfi_startproc
 621              		@ args = 0, pretend = 0, frame = 0
 622              		@ frame_needed = 0, uses_anonymous_args = 0
 378:HW_Lib/AT32F435/bsp/Bsp_Timer.c ****     {
 623              		.loc 1 378 5 view .LVU178
 378:HW_Lib/AT32F435/bsp/Bsp_Timer.c ****     {
 624              		.loc 1 378 8 is_stmt 0 view .LVU179
 625 0000 68B1     		cbz	r0, .L66
 377:HW_Lib/AT32F435/bsp/Bsp_Timer.c ****     if (obj && obj->instance)
 626              		.loc 1 377 1 discriminator 1 view .LVU180
 627 0002 10B5     		push	{r4, lr}
 628              	.LCFI9:
 629              		.cfi_def_cfa_offset 8
 630              		.cfi_offset 4, -8
 631              		.cfi_offset 14, -4
 632 0004 0446     		mov	r4, r0
 378:HW_Lib/AT32F435/bsp/Bsp_Timer.c ****     {
 633              		.loc 1 378 19 discriminator 1 view .LVU181
 634 0006 0068     		ldr	r0, [r0]
 635              	.LVL68:
 378:HW_Lib/AT32F435/bsp/Bsp_Timer.c ****     {
 636              		.loc 1 378 13 discriminator 1 view .LVU182
ARM GAS  C:\Users\8bit\AppData\Local\Temp\cczQEQWw.s 			page 21


 637 0008 40B1     		cbz	r0, .L63
 380:HW_Lib/AT32F435/bsp/Bsp_Timer.c ****         tmr_base_init(obj->instance, obj->auto_reload - 1, obj->prescale);
 638              		.loc 1 380 9 is_stmt 1 view .LVU183
 639 000a 0021     		movs	r1, #0
 640 000c FFF7FEFF 		bl	tmr_counter_value_set
 641              	.LVL69:
 381:HW_Lib/AT32F435/bsp/Bsp_Timer.c ****     }
 642              		.loc 1 381 9 view .LVU184
 381:HW_Lib/AT32F435/bsp/Bsp_Timer.c ****     }
 643              		.loc 1 381 41 is_stmt 0 view .LVU185
 644 0010 A169     		ldr	r1, [r4, #24]
 381:HW_Lib/AT32F435/bsp/Bsp_Timer.c ****     }
 645              		.loc 1 381 9 view .LVU186
 646 0012 6269     		ldr	r2, [r4, #20]
 647 0014 0139     		subs	r1, r1, #1
 648 0016 2068     		ldr	r0, [r4]
 649 0018 FFF7FEFF 		bl	tmr_base_init
 650              	.LVL70:
 651              	.L63:
 383:HW_Lib/AT32F435/bsp/Bsp_Timer.c **** 
 652              		.loc 1 383 1 view .LVU187
 653 001c 10BD     		pop	{r4, pc}
 654              	.LVL71:
 655              	.L66:
 656              	.LCFI10:
 657              		.cfi_def_cfa_offset 0
 658              		.cfi_restore 4
 659              		.cfi_restore 14
 383:HW_Lib/AT32F435/bsp/Bsp_Timer.c **** 
 660              		.loc 1 383 1 view .LVU188
 661 001e 7047     		bx	lr
 662              		.cfi_endproc
 663              	.LFE141:
 665              		.section	.text.BspTimer_Clock_EnableCtl,"ax",%progbits
 666              		.align	1
 667              		.syntax unified
 668              		.thumb
 669              		.thumb_func
 671              	BspTimer_Clock_EnableCtl:
 672              	.LVL72:
 673              	.LFB133:
  54:HW_Lib/AT32F435/bsp/Bsp_Timer.c ****     if (To_Timer_Instance(instance) == TMR2)
 674              		.loc 1 54 1 is_stmt 1 view -0
 675              		.cfi_startproc
 676              		@ args = 0, pretend = 0, frame = 0
 677              		@ frame_needed = 0, uses_anonymous_args = 0
  54:HW_Lib/AT32F435/bsp/Bsp_Timer.c ****     if (To_Timer_Instance(instance) == TMR2)
 678              		.loc 1 54 1 is_stmt 0 view .LVU190
 679 0000 08B5     		push	{r3, lr}
 680              	.LCFI11:
 681              		.cfi_def_cfa_offset 8
 682              		.cfi_offset 3, -8
 683              		.cfi_offset 14, -4
  55:HW_Lib/AT32F435/bsp/Bsp_Timer.c ****     {
 684              		.loc 1 55 5 is_stmt 1 view .LVU191
  55:HW_Lib/AT32F435/bsp/Bsp_Timer.c ****     {
 685              		.loc 1 55 8 is_stmt 0 view .LVU192
ARM GAS  C:\Users\8bit\AppData\Local\Temp\cczQEQWw.s 			page 22


 686 0002 B0F1804F 		cmp	r0, #1073741824
 687 0006 0AD0     		beq	.L80
  65:HW_Lib/AT32F435/bsp/Bsp_Timer.c ****     {
 688              		.loc 1 65 10 is_stmt 1 view .LVU193
  65:HW_Lib/AT32F435/bsp/Bsp_Timer.c ****     {
 689              		.loc 1 65 13 is_stmt 0 view .LVU194
 690 0008 2B4B     		ldr	r3, .L88
 691 000a 9842     		cmp	r0, r3
 692 000c 1BD0     		beq	.L81
  75:HW_Lib/AT32F435/bsp/Bsp_Timer.c ****     {
 693              		.loc 1 75 10 is_stmt 1 view .LVU195
  75:HW_Lib/AT32F435/bsp/Bsp_Timer.c ****     {
 694              		.loc 1 75 13 is_stmt 0 view .LVU196
 695 000e 2B4B     		ldr	r3, .L88+4
 696 0010 9842     		cmp	r0, r3
 697 0012 2BD0     		beq	.L82
  85:HW_Lib/AT32F435/bsp/Bsp_Timer.c ****     {
 698              		.loc 1 85 10 is_stmt 1 view .LVU197
  85:HW_Lib/AT32F435/bsp/Bsp_Timer.c ****     {
 699              		.loc 1 85 13 is_stmt 0 view .LVU198
 700 0014 2A4B     		ldr	r3, .L88+8
 701 0016 9842     		cmp	r0, r3
 702 0018 3AD0     		beq	.L83
  96:HW_Lib/AT32F435/bsp/Bsp_Timer.c **** }
 703              		.loc 1 96 12 view .LVU199
 704 001a 0020     		movs	r0, #0
 705              	.LVL73:
 706              	.L72:
  97:HW_Lib/AT32F435/bsp/Bsp_Timer.c **** 
 707              		.loc 1 97 1 view .LVU200
 708 001c 08BD     		pop	{r3, pc}
 709              	.LVL74:
 710              	.L80:
  57:HW_Lib/AT32F435/bsp/Bsp_Timer.c ****         {
 711              		.loc 1 57 9 is_stmt 1 view .LVU201
  57:HW_Lib/AT32F435/bsp/Bsp_Timer.c ****         {
 712              		.loc 1 57 13 is_stmt 0 view .LVU202
 713 001e 294B     		ldr	r3, .L88+12
 714 0020 93F88630 		ldrb	r3, [r3, #134]	@ zero_extendqisi2
  57:HW_Lib/AT32F435/bsp/Bsp_Timer.c ****         {
 715              		.loc 1 57 12 view .LVU203
 716 0024 13F0020F 		tst	r3, #2
 717 0028 01D0     		beq	.L84
 718              	.LVL75:
 719              	.L71:
  63:HW_Lib/AT32F435/bsp/Bsp_Timer.c ****     }
 720              		.loc 1 63 9 is_stmt 1 view .LVU204
  63:HW_Lib/AT32F435/bsp/Bsp_Timer.c ****     }
 721              		.loc 1 63 16 is_stmt 0 view .LVU205
 722 002a 0120     		movs	r0, #1
 723 002c F6E7     		b	.L72
 724              	.LVL76:
 725              	.L84:
  59:HW_Lib/AT32F435/bsp/Bsp_Timer.c ****             monitor.clk_en.bit.tim2 = true;
 726              		.loc 1 59 13 is_stmt 1 view .LVU206
 727 002e 4FF48000 		mov	r0, #4194304
 728              	.LVL77:
ARM GAS  C:\Users\8bit\AppData\Local\Temp\cczQEQWw.s 			page 23


  59:HW_Lib/AT32F435/bsp/Bsp_Timer.c ****             monitor.clk_en.bit.tim2 = true;
 729              		.loc 1 59 13 is_stmt 0 view .LVU207
 730 0032 FFF7FEFF 		bl	crm_periph_clock_enable
 731              	.LVL78:
  60:HW_Lib/AT32F435/bsp/Bsp_Timer.c ****         }
 732              		.loc 1 60 13 is_stmt 1 view .LVU208
  60:HW_Lib/AT32F435/bsp/Bsp_Timer.c ****         }
 733              		.loc 1 60 37 is_stmt 0 view .LVU209
 734 0036 234A     		ldr	r2, .L88+12
 735 0038 92F88630 		ldrb	r3, [r2, #134]	@ zero_extendqisi2
 736 003c 43F00203 		orr	r3, r3, #2
 737 0040 82F88630 		strb	r3, [r2, #134]
 738 0044 F1E7     		b	.L71
 739              	.LVL79:
 740              	.L81:
  67:HW_Lib/AT32F435/bsp/Bsp_Timer.c ****         {
 741              		.loc 1 67 9 is_stmt 1 view .LVU210
  67:HW_Lib/AT32F435/bsp/Bsp_Timer.c ****         {
 742              		.loc 1 67 13 is_stmt 0 view .LVU211
 743 0046 1F4B     		ldr	r3, .L88+12
 744 0048 93F88630 		ldrb	r3, [r3, #134]	@ zero_extendqisi2
  67:HW_Lib/AT32F435/bsp/Bsp_Timer.c ****         {
 745              		.loc 1 67 12 view .LVU212
 746 004c 13F0040F 		tst	r3, #4
 747 0050 01D0     		beq	.L85
 748              	.LVL80:
 749              	.L74:
  73:HW_Lib/AT32F435/bsp/Bsp_Timer.c ****     }
 750              		.loc 1 73 9 is_stmt 1 view .LVU213
  73:HW_Lib/AT32F435/bsp/Bsp_Timer.c ****     }
 751              		.loc 1 73 16 is_stmt 0 view .LVU214
 752 0052 0120     		movs	r0, #1
 753 0054 E2E7     		b	.L72
 754              	.LVL81:
 755              	.L85:
  69:HW_Lib/AT32F435/bsp/Bsp_Timer.c ****             monitor.clk_en.bit.tim3 = true;
 756              		.loc 1 69 13 is_stmt 1 view .LVU215
 757 0056 1C48     		ldr	r0, .L88+16
 758              	.LVL82:
  69:HW_Lib/AT32F435/bsp/Bsp_Timer.c ****             monitor.clk_en.bit.tim3 = true;
 759              		.loc 1 69 13 is_stmt 0 view .LVU216
 760 0058 FFF7FEFF 		bl	crm_periph_clock_enable
 761              	.LVL83:
  70:HW_Lib/AT32F435/bsp/Bsp_Timer.c ****         }
 762              		.loc 1 70 13 is_stmt 1 view .LVU217
  70:HW_Lib/AT32F435/bsp/Bsp_Timer.c ****         }
 763              		.loc 1 70 37 is_stmt 0 view .LVU218
 764 005c 194A     		ldr	r2, .L88+12
 765 005e 92F88630 		ldrb	r3, [r2, #134]	@ zero_extendqisi2
 766 0062 43F00403 		orr	r3, r3, #4
 767 0066 82F88630 		strb	r3, [r2, #134]
 768 006a F2E7     		b	.L74
 769              	.LVL84:
 770              	.L82:
  77:HW_Lib/AT32F435/bsp/Bsp_Timer.c ****         {
 771              		.loc 1 77 9 is_stmt 1 view .LVU219
  77:HW_Lib/AT32F435/bsp/Bsp_Timer.c ****         {
ARM GAS  C:\Users\8bit\AppData\Local\Temp\cczQEQWw.s 			page 24


 772              		.loc 1 77 12 is_stmt 0 view .LVU220
 773 006c 154B     		ldr	r3, .L88+12
 774 006e 93F98630 		ldrsb	r3, [r3, #134]
 775 0072 002B     		cmp	r3, #0
 776 0074 01DA     		bge	.L86
 777              	.LVL85:
 778              	.L76:
  83:HW_Lib/AT32F435/bsp/Bsp_Timer.c ****     }
 779              		.loc 1 83 9 is_stmt 1 view .LVU221
  83:HW_Lib/AT32F435/bsp/Bsp_Timer.c ****     }
 780              		.loc 1 83 16 is_stmt 0 view .LVU222
 781 0076 0120     		movs	r0, #1
 782 0078 D0E7     		b	.L72
 783              	.LVL86:
 784              	.L86:
  79:HW_Lib/AT32F435/bsp/Bsp_Timer.c ****             monitor.clk_en.bit.tim8 = true;
 785              		.loc 1 79 13 is_stmt 1 view .LVU223
 786 007a 1448     		ldr	r0, .L88+20
 787              	.LVL87:
  79:HW_Lib/AT32F435/bsp/Bsp_Timer.c ****             monitor.clk_en.bit.tim8 = true;
 788              		.loc 1 79 13 is_stmt 0 view .LVU224
 789 007c FFF7FEFF 		bl	crm_periph_clock_enable
 790              	.LVL88:
  80:HW_Lib/AT32F435/bsp/Bsp_Timer.c ****         }
 791              		.loc 1 80 13 is_stmt 1 view .LVU225
  80:HW_Lib/AT32F435/bsp/Bsp_Timer.c ****         }
 792              		.loc 1 80 37 is_stmt 0 view .LVU226
 793 0080 104A     		ldr	r2, .L88+12
 794 0082 92F88630 		ldrb	r3, [r2, #134]	@ zero_extendqisi2
 795 0086 43F08003 		orr	r3, r3, #128
 796 008a 82F88630 		strb	r3, [r2, #134]
 797 008e F2E7     		b	.L76
 798              	.LVL89:
 799              	.L83:
  87:HW_Lib/AT32F435/bsp/Bsp_Timer.c ****         {
 800              		.loc 1 87 9 is_stmt 1 view .LVU227
  87:HW_Lib/AT32F435/bsp/Bsp_Timer.c ****         {
 801              		.loc 1 87 13 is_stmt 0 view .LVU228
 802 0090 0C4B     		ldr	r3, .L88+12
 803 0092 93F88630 		ldrb	r3, [r3, #134]	@ zero_extendqisi2
  87:HW_Lib/AT32F435/bsp/Bsp_Timer.c ****         {
 804              		.loc 1 87 12 view .LVU229
 805 0096 13F0080F 		tst	r3, #8
 806 009a 01D0     		beq	.L87
 807              	.LVL90:
 808              	.L77:
  93:HW_Lib/AT32F435/bsp/Bsp_Timer.c ****     }
 809              		.loc 1 93 9 is_stmt 1 view .LVU230
  93:HW_Lib/AT32F435/bsp/Bsp_Timer.c ****     }
 810              		.loc 1 93 16 is_stmt 0 view .LVU231
 811 009c 0120     		movs	r0, #1
 812 009e BDE7     		b	.L72
 813              	.LVL91:
 814              	.L87:
  89:HW_Lib/AT32F435/bsp/Bsp_Timer.c ****             monitor.clk_en.bit.tim4 = true;
 815              		.loc 1 89 13 is_stmt 1 view .LVU232
 816 00a0 0B48     		ldr	r0, .L88+24
ARM GAS  C:\Users\8bit\AppData\Local\Temp\cczQEQWw.s 			page 25


 817              	.LVL92:
  89:HW_Lib/AT32F435/bsp/Bsp_Timer.c ****             monitor.clk_en.bit.tim4 = true;
 818              		.loc 1 89 13 is_stmt 0 view .LVU233
 819 00a2 FFF7FEFF 		bl	crm_periph_clock_enable
 820              	.LVL93:
  90:HW_Lib/AT32F435/bsp/Bsp_Timer.c ****         }
 821              		.loc 1 90 13 is_stmt 1 view .LVU234
  90:HW_Lib/AT32F435/bsp/Bsp_Timer.c ****         }
 822              		.loc 1 90 37 is_stmt 0 view .LVU235
 823 00a6 074A     		ldr	r2, .L88+12
 824 00a8 92F88630 		ldrb	r3, [r2, #134]	@ zero_extendqisi2
 825 00ac 43F00803 		orr	r3, r3, #8
 826 00b0 82F88630 		strb	r3, [r2, #134]
 827 00b4 F2E7     		b	.L77
 828              	.L89:
 829 00b6 00BF     		.align	2
 830              	.L88:
 831 00b8 00040040 		.word	1073742848
 832 00bc 00040140 		.word	1073808384
 833 00c0 00080040 		.word	1073743872
 834 00c4 00000000 		.word	.LANCHOR0
 835 00c8 01004000 		.word	4194305
 836 00cc 01004400 		.word	4456449
 837 00d0 02004000 		.word	4194306
 838              		.cfi_endproc
 839              	.LFE133:
 841              		.section	.text.BspTimer_PWM_DeInit,"ax",%progbits
 842              		.align	1
 843              		.syntax unified
 844              		.thumb
 845              		.thumb_func
 847              	BspTimer_PWM_DeInit:
 848              	.LVL94:
 849              	.LFB137:
 257:HW_Lib/AT32F435/bsp/Bsp_Timer.c ****     if (obj && obj->instance)
 850              		.loc 1 257 1 is_stmt 1 view -0
 851              		.cfi_startproc
 852              		@ args = 0, pretend = 0, frame = 0
 853              		@ frame_needed = 0, uses_anonymous_args = 0
 258:HW_Lib/AT32F435/bsp/Bsp_Timer.c ****     {
 854              		.loc 1 258 5 view .LVU237
 258:HW_Lib/AT32F435/bsp/Bsp_Timer.c ****     {
 855              		.loc 1 258 8 is_stmt 0 view .LVU238
 856 0000 88B1     		cbz	r0, .L93
 257:HW_Lib/AT32F435/bsp/Bsp_Timer.c ****     if (obj && obj->instance)
 857              		.loc 1 257 1 discriminator 1 view .LVU239
 858 0002 10B5     		push	{r4, lr}
 859              	.LCFI12:
 860              		.cfi_def_cfa_offset 8
 861              		.cfi_offset 4, -8
 862              		.cfi_offset 14, -4
 863 0004 0446     		mov	r4, r0
 258:HW_Lib/AT32F435/bsp/Bsp_Timer.c ****     {
 864              		.loc 1 258 19 discriminator 1 view .LVU240
 865 0006 0068     		ldr	r0, [r0]
 866              	.LVL95:
 258:HW_Lib/AT32F435/bsp/Bsp_Timer.c ****     {
ARM GAS  C:\Users\8bit\AppData\Local\Temp\cczQEQWw.s 			page 26


 867              		.loc 1 258 13 discriminator 1 view .LVU241
 868 0008 78B1     		cbz	r0, .L94
 260:HW_Lib/AT32F435/bsp/Bsp_Timer.c ****             !BspDMA.disable_irq(obj->dma, obj->stream))
 869              		.loc 1 260 9 is_stmt 1 view .LVU242
 260:HW_Lib/AT32F435/bsp/Bsp_Timer.c ****             !BspDMA.disable_irq(obj->dma, obj->stream))
 870              		.loc 1 260 14 is_stmt 0 view .LVU243
 871 000a 0021     		movs	r1, #0
 872 000c FFF7FEFF 		bl	BspTimer_Clock_EnableCtl
 873              	.LVL96:
 260:HW_Lib/AT32F435/bsp/Bsp_Timer.c ****             !BspDMA.disable_irq(obj->dma, obj->stream))
 874              		.loc 1 260 12 view .LVU244
 875 0010 38B1     		cbz	r0, .L92
 261:HW_Lib/AT32F435/bsp/Bsp_Timer.c ****             return false;
 876              		.loc 1 261 20 discriminator 1 view .LVU245
 877 0012 074B     		ldr	r3, .L99
 878 0014 9B69     		ldr	r3, [r3, #24]
 261:HW_Lib/AT32F435/bsp/Bsp_Timer.c ****             return false;
 879              		.loc 1 261 14 discriminator 1 view .LVU246
 880 0016 94F90910 		ldrsb	r1, [r4, #9]
 881 001a 94F90800 		ldrsb	r0, [r4, #8]
 882 001e 9847     		blx	r3
 883              	.LVL97:
 260:HW_Lib/AT32F435/bsp/Bsp_Timer.c ****             !BspDMA.disable_irq(obj->dma, obj->stream))
 884              		.loc 1 260 61 discriminator 1 view .LVU247
 885 0020 20B9     		cbnz	r0, .L91
 886              	.L92:
 262:HW_Lib/AT32F435/bsp/Bsp_Timer.c ****     
 887              		.loc 1 262 13 is_stmt 1 view .LVU248
 262:HW_Lib/AT32F435/bsp/Bsp_Timer.c ****     
 888              		.loc 1 262 20 is_stmt 0 view .LVU249
 889 0022 0020     		movs	r0, #0
 890 0024 02E0     		b	.L91
 891              	.LVL98:
 892              	.L93:
 893              	.LCFI13:
 894              		.cfi_def_cfa_offset 0
 895              		.cfi_restore 4
 896              		.cfi_restore 14
 267:HW_Lib/AT32F435/bsp/Bsp_Timer.c **** }
 897              		.loc 1 267 12 view .LVU250
 898 0026 0020     		movs	r0, #0
 899              	.LVL99:
 268:HW_Lib/AT32F435/bsp/Bsp_Timer.c **** 
 900              		.loc 1 268 1 view .LVU251
 901 0028 7047     		bx	lr
 902              	.LVL100:
 903              	.L94:
 904              	.LCFI14:
 905              		.cfi_def_cfa_offset 8
 906              		.cfi_offset 4, -8
 907              		.cfi_offset 14, -4
 267:HW_Lib/AT32F435/bsp/Bsp_Timer.c **** }
 908              		.loc 1 267 12 view .LVU252
 909 002a 0020     		movs	r0, #0
 910              	.L91:
 268:HW_Lib/AT32F435/bsp/Bsp_Timer.c **** 
 911              		.loc 1 268 1 view .LVU253
ARM GAS  C:\Users\8bit\AppData\Local\Temp\cczQEQWw.s 			page 27


 912 002c 10BD     		pop	{r4, pc}
 913              	.LVL101:
 914              	.L100:
 268:HW_Lib/AT32F435/bsp/Bsp_Timer.c **** 
 915              		.loc 1 268 1 view .LVU254
 916 002e 00BF     		.align	2
 917              	.L99:
 918 0030 00000000 		.word	BspDMA
 919              		.cfi_endproc
 920              	.LFE137:
 922              		.section	.text.BspTimer_DMA_Init,"ax",%progbits
 923              		.align	1
 924              		.syntax unified
 925              		.thumb
 926              		.thumb_func
 928              	BspTimer_DMA_Init:
 929              	.LVL102:
 930              	.LFB136:
 188:HW_Lib/AT32F435/bsp/Bsp_Timer.c ****     dma_init_type dma_init_struct;
 931              		.loc 1 188 1 is_stmt 1 view -0
 932              		.cfi_startproc
 933              		@ args = 0, pretend = 0, frame = 24
 934              		@ frame_needed = 0, uses_anonymous_args = 0
 188:HW_Lib/AT32F435/bsp/Bsp_Timer.c ****     dma_init_type dma_init_struct;
 935              		.loc 1 188 1 is_stmt 0 view .LVU256
 936 0000 F0B5     		push	{r4, r5, r6, r7, lr}
 937              	.LCFI15:
 938              		.cfi_def_cfa_offset 20
 939              		.cfi_offset 4, -20
 940              		.cfi_offset 5, -16
 941              		.cfi_offset 6, -12
 942              		.cfi_offset 7, -8
 943              		.cfi_offset 14, -4
 944 0002 87B0     		sub	sp, sp, #28
 945              	.LCFI16:
 946              		.cfi_def_cfa_offset 48
 947 0004 0446     		mov	r4, r0
 189:HW_Lib/AT32F435/bsp/Bsp_Timer.c ****     dmamux_requst_id_sel_type dma_req_id = 0;
 948              		.loc 1 189 5 is_stmt 1 view .LVU257
 190:HW_Lib/AT32F435/bsp/Bsp_Timer.c ****     dmamux_channel_type *dmamux_ch = NULL;
 949              		.loc 1 190 5 view .LVU258
 950              	.LVL103:
 191:HW_Lib/AT32F435/bsp/Bsp_Timer.c ****     obj->dma_hdl = BspDMA.get_instance(obj->dma, obj->stream);
 951              		.loc 1 191 5 view .LVU259
 192:HW_Lib/AT32F435/bsp/Bsp_Timer.c **** 
 952              		.loc 1 192 5 view .LVU260
 192:HW_Lib/AT32F435/bsp/Bsp_Timer.c **** 
 953              		.loc 1 192 26 is_stmt 0 view .LVU261
 954 0006 684B     		ldr	r3, .L145
 955 0008 1B69     		ldr	r3, [r3, #16]
 192:HW_Lib/AT32F435/bsp/Bsp_Timer.c **** 
 956              		.loc 1 192 20 view .LVU262
 957 000a 90F90910 		ldrsb	r1, [r0, #9]
 958 000e 90F90800 		ldrsb	r0, [r0, #8]
 959              	.LVL104:
 192:HW_Lib/AT32F435/bsp/Bsp_Timer.c **** 
 960              		.loc 1 192 20 view .LVU263
ARM GAS  C:\Users\8bit\AppData\Local\Temp\cczQEQWw.s 			page 28


 961 0012 9847     		blx	r3
 962              	.LVL105:
 963 0014 0346     		mov	r3, r0
 192:HW_Lib/AT32F435/bsp/Bsp_Timer.c **** 
 964              		.loc 1 192 18 view .LVU264
 965 0016 E060     		str	r0, [r4, #12]
 194:HW_Lib/AT32F435/bsp/Bsp_Timer.c ****     {
 966              		.loc 1 194 5 is_stmt 1 view .LVU265
 967 0018 644A     		ldr	r2, .L145+4
 968 001a 9042     		cmp	r0, r2
 969 001c 4ED0     		beq	.L113
 970 001e 21D9     		bls	.L135
 971 0020 634A     		ldr	r2, .L145+8
 972 0022 9042     		cmp	r0, r2
 973 0024 52D0     		beq	.L120
 974 0026 3AD9     		bls	.L136
 975 0028 624A     		ldr	r2, .L145+12
 976 002a 9042     		cmp	r0, r2
 977 002c 52D0     		beq	.L124
 978 002e 1432     		adds	r2, r2, #20
 979 0030 9042     		cmp	r0, r2
 980 0032 40F0A980 		bne	.L125
 208:HW_Lib/AT32F435/bsp/Bsp_Timer.c ****         // case (uint32_t)DMA2_CHANNEL7: dmamux_ch = DMA2MUX_CHANNEL7; break;
 981              		.loc 1 208 49 is_stmt 0 view .LVU266
 982 0036 604D     		ldr	r5, .L145+16
 983              	.L102:
 984              	.LVL106:
 213:HW_Lib/AT32F435/bsp/Bsp_Timer.c ****         (obj->instance == NULL) || \
 985              		.loc 1 213 5 is_stmt 1 view .LVU267
 213:HW_Lib/AT32F435/bsp/Bsp_Timer.c ****         (obj->instance == NULL) || \
 986              		.loc 1 213 8 is_stmt 0 view .LVU268
 987 0038 002C     		cmp	r4, #0
 988 003a 00F0A780 		beq	.L126
 214:HW_Lib/AT32F435/bsp/Bsp_Timer.c ****         (obj->buffer_addr == 0) || \
 989              		.loc 1 214 13 discriminator 1 view .LVU269
 990 003e 2068     		ldr	r0, [r4]
 213:HW_Lib/AT32F435/bsp/Bsp_Timer.c ****         (obj->instance == NULL) || \
 991              		.loc 1 213 23 discriminator 1 view .LVU270
 992 0040 0028     		cmp	r0, #0
 993 0042 00F0A580 		beq	.L127
 215:HW_Lib/AT32F435/bsp/Bsp_Timer.c ****         (obj->dma_hdl == NULL) || \
 994              		.loc 1 215 13 view .LVU271
 995 0046 626A     		ldr	r2, [r4, #36]
 214:HW_Lib/AT32F435/bsp/Bsp_Timer.c ****         (obj->buffer_addr == 0) || \
 996              		.loc 1 214 33 view .LVU272
 997 0048 002A     		cmp	r2, #0
 998 004a 00F0A380 		beq	.L128
 215:HW_Lib/AT32F435/bsp/Bsp_Timer.c ****         (obj->dma_hdl == NULL) || \
 999              		.loc 1 215 33 view .LVU273
 1000 004e 002B     		cmp	r3, #0
 1001 0050 00F0A380 		beq	.L129
 216:HW_Lib/AT32F435/bsp/Bsp_Timer.c ****         (dmamux_ch == NULL) || \
 1002              		.loc 1 216 32 view .LVU274
 1003 0054 002D     		cmp	r5, #0
 1004 0056 00F0A280 		beq	.L130
 218:HW_Lib/AT32F435/bsp/Bsp_Timer.c ****         return false;
 1005              		.loc 1 218 13 view .LVU275
ARM GAS  C:\Users\8bit\AppData\Local\Temp\cczQEQWw.s 			page 29


 1006 005a A36A     		ldr	r3, [r4, #40]
 217:HW_Lib/AT32F435/bsp/Bsp_Timer.c ****         (obj->buffer_size == 0))
 1007              		.loc 1 217 29 view .LVU276
 1008 005c 002B     		cmp	r3, #0
 1009 005e 3BD1     		bne	.L137
 219:HW_Lib/AT32F435/bsp/Bsp_Timer.c **** 
 1010              		.loc 1 219 16 view .LVU277
 1011 0060 0020     		movs	r0, #0
 1012 0062 98E0     		b	.L105
 1013              	.LVL107:
 1014              	.L135:
 194:HW_Lib/AT32F435/bsp/Bsp_Timer.c ****     {
 1015              		.loc 1 194 5 view .LVU278
 1016 0064 3C3A     		subs	r2, r2, #60
 1017 0066 9042     		cmp	r0, r2
 1018 0068 2AD0     		beq	.L114
 1019 006a 07D9     		bls	.L138
 1020 006c 534A     		ldr	r2, .L145+20
 1021 006e 9042     		cmp	r0, r2
 1022 0070 2AD0     		beq	.L118
 1023 0072 1432     		adds	r2, r2, #20
 1024 0074 9042     		cmp	r0, r2
 1025 0076 10D1     		bne	.L139
 201:HW_Lib/AT32F435/bsp/Bsp_Timer.c ****         case (uint32_t)DMA1_CHANNEL7: dmamux_ch = DMA1MUX_CHANNEL7; break;
 1026              		.loc 1 201 49 view .LVU279
 1027 0078 514D     		ldr	r5, .L145+24
 1028 007a DDE7     		b	.L102
 1029              	.L138:
 194:HW_Lib/AT32F435/bsp/Bsp_Timer.c ****     {
 1030              		.loc 1 194 5 view .LVU280
 1031 007c 283A     		subs	r2, r2, #40
 1032 007e 9042     		cmp	r0, r2
 1033 0080 20D0     		beq	.L115
 1034 0082 1432     		adds	r2, r2, #20
 1035 0084 9042     		cmp	r0, r2
 1036 0086 01D1     		bne	.L140
 198:HW_Lib/AT32F435/bsp/Bsp_Timer.c ****         case (uint32_t)DMA1_CHANNEL4: dmamux_ch = DMA1MUX_CHANNEL4; break;
 1037              		.loc 1 198 49 view .LVU281
 1038 0088 4E4D     		ldr	r5, .L145+28
 1039 008a D5E7     		b	.L102
 1040              	.L140:
 194:HW_Lib/AT32F435/bsp/Bsp_Timer.c ****     {
 1041              		.loc 1 194 5 view .LVU282
 1042 008c 283A     		subs	r2, r2, #40
 1043 008e 9042     		cmp	r0, r2
 1044 0090 01D1     		bne	.L141
 1045 0092 4D4D     		ldr	r5, .L145+32
 1046 0094 D0E7     		b	.L102
 1047              	.L141:
 1048 0096 0020     		movs	r0, #0
 1049 0098 7DE0     		b	.L105
 1050              	.L139:
 1051 009a 0020     		movs	r0, #0
 1052 009c 7BE0     		b	.L105
 1053              	.L136:
 1054 009e 283A     		subs	r2, r2, #40
 1055 00a0 9042     		cmp	r0, r2
ARM GAS  C:\Users\8bit\AppData\Local\Temp\cczQEQWw.s 			page 30


 1056 00a2 15D0     		beq	.L121
 1057 00a4 1432     		adds	r2, r2, #20
 1058 00a6 9042     		cmp	r0, r2
 1059 00a8 01D1     		bne	.L142
 205:HW_Lib/AT32F435/bsp/Bsp_Timer.c ****         case (uint32_t)DMA2_CHANNEL4: dmamux_ch = DMA2MUX_CHANNEL4; break;
 1060              		.loc 1 205 49 view .LVU283
 1061 00aa 484D     		ldr	r5, .L145+36
 1062 00ac C4E7     		b	.L102
 1063              	.L142:
 194:HW_Lib/AT32F435/bsp/Bsp_Timer.c ****     {
 1064              		.loc 1 194 5 view .LVU284
 1065 00ae 283A     		subs	r2, r2, #40
 1066 00b0 9042     		cmp	r0, r2
 1067 00b2 01D1     		bne	.L143
 203:HW_Lib/AT32F435/bsp/Bsp_Timer.c ****         case (uint32_t)DMA2_CHANNEL2: dmamux_ch = DMA2MUX_CHANNEL2; break;
 1068              		.loc 1 203 49 view .LVU285
 1069 00b4 464D     		ldr	r5, .L145+40
 1070 00b6 BFE7     		b	.L102
 1071              	.L143:
 194:HW_Lib/AT32F435/bsp/Bsp_Timer.c ****     {
 1072              		.loc 1 194 5 view .LVU286
 1073 00b8 0020     		movs	r0, #0
 1074 00ba 6CE0     		b	.L105
 1075              	.L113:
 202:HW_Lib/AT32F435/bsp/Bsp_Timer.c ****         case (uint32_t)DMA2_CHANNEL1: dmamux_ch = DMA2MUX_CHANNEL1; break;
 1076              		.loc 1 202 49 view .LVU287
 1077 00bc 454D     		ldr	r5, .L145+44
 1078 00be BBE7     		b	.L102
 1079              	.L114:
 199:HW_Lib/AT32F435/bsp/Bsp_Timer.c ****         case (uint32_t)DMA1_CHANNEL5: dmamux_ch = DMA1MUX_CHANNEL5; break;
 1080              		.loc 1 199 49 view .LVU288
 1081 00c0 454D     		ldr	r5, .L145+48
 1082 00c2 B9E7     		b	.L102
 1083              	.L115:
 197:HW_Lib/AT32F435/bsp/Bsp_Timer.c ****         case (uint32_t)DMA1_CHANNEL3: dmamux_ch = DMA1MUX_CHANNEL3; break;
 1084              		.loc 1 197 49 view .LVU289
 1085 00c4 454D     		ldr	r5, .L145+52
 1086 00c6 B7E7     		b	.L102
 1087              	.L118:
 200:HW_Lib/AT32F435/bsp/Bsp_Timer.c ****         case (uint32_t)DMA1_CHANNEL6: dmamux_ch = DMA1MUX_CHANNEL6; break;
 1088              		.loc 1 200 49 view .LVU290
 1089 00c8 454D     		ldr	r5, .L145+56
 1090 00ca B5E7     		b	.L102
 1091              	.L120:
 206:HW_Lib/AT32F435/bsp/Bsp_Timer.c ****         case (uint32_t)DMA2_CHANNEL5: dmamux_ch = DMA2MUX_CHANNEL5; break;
 1092              		.loc 1 206 49 view .LVU291
 1093 00cc 454D     		ldr	r5, .L145+60
 1094 00ce B3E7     		b	.L102
 1095              	.L121:
 204:HW_Lib/AT32F435/bsp/Bsp_Timer.c ****         case (uint32_t)DMA2_CHANNEL3: dmamux_ch = DMA2MUX_CHANNEL3; break;
 1096              		.loc 1 204 49 view .LVU292
 1097 00d0 454D     		ldr	r5, .L145+64
 1098 00d2 B1E7     		b	.L102
 1099              	.L124:
 207:HW_Lib/AT32F435/bsp/Bsp_Timer.c ****         case (uint32_t)DMA2_CHANNEL6: dmamux_ch = DMA2MUX_CHANNEL6; break;
 1100              		.loc 1 207 49 view .LVU293
 1101 00d4 454D     		ldr	r5, .L145+68
ARM GAS  C:\Users\8bit\AppData\Local\Temp\cczQEQWw.s 			page 31


 1102 00d6 AFE7     		b	.L102
 1103              	.LVL108:
 1104              	.L137:
 221:HW_Lib/AT32F435/bsp/Bsp_Timer.c ****     switch (obj->tim_channel)
 1105              		.loc 1 221 5 is_stmt 1 view .LVU294
 1106 00d8 0122     		movs	r2, #1
 1107 00da 4FF48071 		mov	r1, #256
 1108 00de FFF7FEFF 		bl	tmr_dma_request_enable
 1109              	.LVL109:
 222:HW_Lib/AT32F435/bsp/Bsp_Timer.c ****     {
 1110              		.loc 1 222 5 view .LVU295
 222:HW_Lib/AT32F435/bsp/Bsp_Timer.c ****     {
 1111              		.loc 1 222 16 is_stmt 0 view .LVU296
 1112 00e2 6368     		ldr	r3, [r4, #4]
 222:HW_Lib/AT32F435/bsp/Bsp_Timer.c ****     {
 1113              		.loc 1 222 5 view .LVU297
 1114 00e4 062B     		cmp	r3, #6
 1115 00e6 5CD8     		bhi	.L132
 1116 00e8 DFE803F0 		tbb	[pc, r3]
 1117              	.L108:
 1118 00ec 04       		.byte	(.L111-.L108)/2
 1119 00ed 5B       		.byte	(.L132-.L108)/2
 1120 00ee 11       		.byte	(.L110-.L108)/2
 1121 00ef 5B       		.byte	(.L132-.L108)/2
 1122 00f0 18       		.byte	(.L109-.L108)/2
 1123 00f1 5B       		.byte	(.L132-.L108)/2
 1124 00f2 1F       		.byte	(.L107-.L108)/2
 1125 00f3 00       		.p2align 1
 1126              	.L111:
 224:HW_Lib/AT32F435/bsp/Bsp_Timer.c ****         case TMR_SELECT_CHANNEL_2: tmr_dma_request_enable(obj->instance, TMR_C2_DMA_REQUEST, TRUE);
 1127              		.loc 1 224 36 is_stmt 1 view .LVU298
 1128 00f4 0122     		movs	r2, #1
 1129 00f6 4FF40071 		mov	r1, #512
 1130 00fa 2068     		ldr	r0, [r4]
 1131 00fc FFF7FEFF 		bl	tmr_dma_request_enable
 1132              	.LVL110:
 224:HW_Lib/AT32F435/bsp/Bsp_Timer.c ****         case TMR_SELECT_CHANNEL_2: tmr_dma_request_enable(obj->instance, TMR_C2_DMA_REQUEST, TRUE);
 1133              		.loc 1 224 101 view .LVU299
 1134              	.L112:
 231:HW_Lib/AT32F435/bsp/Bsp_Timer.c **** 
 1135              		.loc 1 231 5 view .LVU300
 231:HW_Lib/AT32F435/bsp/Bsp_Timer.c **** 
 1136              		.loc 1 231 18 is_stmt 0 view .LVU301
 1137 0100 2046     		mov	r0, r4
 1138 0102 FFF7FEFF 		bl	BspTimer_Get_DMA_MuxSeq
 1139              	.LVL111:
 233:HW_Lib/AT32F435/bsp/Bsp_Timer.c ****     {
 1140              		.loc 1 233 5 is_stmt 1 view .LVU302
 233:HW_Lib/AT32F435/bsp/Bsp_Timer.c ****     {
 1141              		.loc 1 233 8 is_stmt 0 view .LVU303
 1142 0106 0746     		mov	r7, r0
 1143 0108 B0B9     		cbnz	r0, .L144
 253:HW_Lib/AT32F435/bsp/Bsp_Timer.c **** }
 1144              		.loc 1 253 12 view .LVU304
 1145 010a 0020     		movs	r0, #0
 1146              	.LVL112:
 253:HW_Lib/AT32F435/bsp/Bsp_Timer.c **** }
ARM GAS  C:\Users\8bit\AppData\Local\Temp\cczQEQWw.s 			page 32


 1147              		.loc 1 253 12 view .LVU305
 1148 010c 43E0     		b	.L105
 1149              	.LVL113:
 1150              	.L110:
 225:HW_Lib/AT32F435/bsp/Bsp_Timer.c ****         case TMR_SELECT_CHANNEL_3: tmr_dma_request_enable(obj->instance, TMR_C3_DMA_REQUEST, TRUE);
 1151              		.loc 1 225 36 is_stmt 1 view .LVU306
 1152 010e 0122     		movs	r2, #1
 1153 0110 4FF48061 		mov	r1, #1024
 1154 0114 2068     		ldr	r0, [r4]
 1155 0116 FFF7FEFF 		bl	tmr_dma_request_enable
 1156              	.LVL114:
 225:HW_Lib/AT32F435/bsp/Bsp_Timer.c ****         case TMR_SELECT_CHANNEL_3: tmr_dma_request_enable(obj->instance, TMR_C3_DMA_REQUEST, TRUE);
 1157              		.loc 1 225 101 view .LVU307
 225:HW_Lib/AT32F435/bsp/Bsp_Timer.c ****         case TMR_SELECT_CHANNEL_3: tmr_dma_request_enable(obj->instance, TMR_C3_DMA_REQUEST, TRUE);
 1158              		.loc 1 225 9 is_stmt 0 view .LVU308
 1159 011a F1E7     		b	.L112
 1160              	.L109:
 226:HW_Lib/AT32F435/bsp/Bsp_Timer.c ****         case TMR_SELECT_CHANNEL_4: tmr_dma_request_enable(obj->instance, TMR_C4_DMA_REQUEST, TRUE);
 1161              		.loc 1 226 36 is_stmt 1 view .LVU309
 1162 011c 0122     		movs	r2, #1
 1163 011e 4FF40061 		mov	r1, #2048
 1164 0122 2068     		ldr	r0, [r4]
 1165 0124 FFF7FEFF 		bl	tmr_dma_request_enable
 1166              	.LVL115:
 226:HW_Lib/AT32F435/bsp/Bsp_Timer.c ****         case TMR_SELECT_CHANNEL_4: tmr_dma_request_enable(obj->instance, TMR_C4_DMA_REQUEST, TRUE);
 1167              		.loc 1 226 101 view .LVU310
 226:HW_Lib/AT32F435/bsp/Bsp_Timer.c ****         case TMR_SELECT_CHANNEL_4: tmr_dma_request_enable(obj->instance, TMR_C4_DMA_REQUEST, TRUE);
 1168              		.loc 1 226 9 is_stmt 0 view .LVU311
 1169 0128 EAE7     		b	.L112
 1170              	.L107:
 227:HW_Lib/AT32F435/bsp/Bsp_Timer.c ****         default: return false;
 1171              		.loc 1 227 36 is_stmt 1 view .LVU312
 1172 012a 0122     		movs	r2, #1
 1173 012c 4FF48051 		mov	r1, #4096
 1174 0130 2068     		ldr	r0, [r4]
 1175 0132 FFF7FEFF 		bl	tmr_dma_request_enable
 1176              	.LVL116:
 227:HW_Lib/AT32F435/bsp/Bsp_Timer.c ****         default: return false;
 1177              		.loc 1 227 101 view .LVU313
 227:HW_Lib/AT32F435/bsp/Bsp_Timer.c ****         default: return false;
 1178              		.loc 1 227 9 is_stmt 0 view .LVU314
 1179 0136 E3E7     		b	.L112
 1180              	.LVL117:
 1181              	.L144:
 236:HW_Lib/AT32F435/bsp/Bsp_Timer.c ****         dma_init_struct.buffer_size = obj->buffer_size;
 1182              		.loc 1 236 9 is_stmt 1 view .LVU315
 1183 0138 E068     		ldr	r0, [r4, #12]
 1184              	.LVL118:
 236:HW_Lib/AT32F435/bsp/Bsp_Timer.c ****         dma_init_struct.buffer_size = obj->buffer_size;
 1185              		.loc 1 236 9 is_stmt 0 view .LVU316
 1186 013a FFF7FEFF 		bl	dma_reset
 1187              	.LVL119:
 237:HW_Lib/AT32F435/bsp/Bsp_Timer.c ****         dma_init_struct.direction = DMA_DIR_MEMORY_TO_PERIPHERAL;
 1188              		.loc 1 237 9 is_stmt 1 view .LVU317
 237:HW_Lib/AT32F435/bsp/Bsp_Timer.c ****         dma_init_struct.direction = DMA_DIR_MEMORY_TO_PERIPHERAL;
 1189              		.loc 1 237 42 is_stmt 0 view .LVU318
 1190 013e A36A     		ldr	r3, [r4, #40]
ARM GAS  C:\Users\8bit\AppData\Local\Temp\cczQEQWw.s 			page 33


 237:HW_Lib/AT32F435/bsp/Bsp_Timer.c ****         dma_init_struct.direction = DMA_DIR_MEMORY_TO_PERIPHERAL;
 1191              		.loc 1 237 37 view .LVU319
 1192 0140 ADF80E30 		strh	r3, [sp, #14]	@ movhi
 238:HW_Lib/AT32F435/bsp/Bsp_Timer.c ****         dma_init_struct.memory_base_addr = (uint32_t)obj->buffer_addr;
 1193              		.loc 1 238 9 is_stmt 1 view .LVU320
 238:HW_Lib/AT32F435/bsp/Bsp_Timer.c ****         dma_init_struct.memory_base_addr = (uint32_t)obj->buffer_addr;
 1194              		.loc 1 238 35 is_stmt 0 view .LVU321
 1195 0144 1023     		movs	r3, #16
 1196 0146 ADF80C30 		strh	r3, [sp, #12]	@ movhi
 239:HW_Lib/AT32F435/bsp/Bsp_Timer.c ****         dma_init_struct.memory_data_width = DMA_PERIPHERAL_DATA_WIDTH_HALFWORD;
 1197              		.loc 1 239 9 is_stmt 1 view .LVU322
 239:HW_Lib/AT32F435/bsp/Bsp_Timer.c ****         dma_init_struct.memory_data_width = DMA_PERIPHERAL_DATA_WIDTH_HALFWORD;
 1198              		.loc 1 239 57 is_stmt 0 view .LVU323
 1199 014a 636A     		ldr	r3, [r4, #36]
 239:HW_Lib/AT32F435/bsp/Bsp_Timer.c ****         dma_init_struct.memory_data_width = DMA_PERIPHERAL_DATA_WIDTH_HALFWORD;
 1200              		.loc 1 239 42 view .LVU324
 1201 014c 0293     		str	r3, [sp, #8]
 240:HW_Lib/AT32F435/bsp/Bsp_Timer.c ****         dma_init_struct.memory_inc_enable = TRUE;
 1202              		.loc 1 240 9 is_stmt 1 view .LVU325
 240:HW_Lib/AT32F435/bsp/Bsp_Timer.c ****         dma_init_struct.memory_inc_enable = TRUE;
 1203              		.loc 1 240 43 is_stmt 0 view .LVU326
 1204 014e 0126     		movs	r6, #1
 1205 0150 8DF81360 		strb	r6, [sp, #19]
 241:HW_Lib/AT32F435/bsp/Bsp_Timer.c ****         dma_init_struct.peripheral_base_addr = BspTimer_Get_PrtiphAddr(obj);
 1206              		.loc 1 241 9 is_stmt 1 view .LVU327
 241:HW_Lib/AT32F435/bsp/Bsp_Timer.c ****         dma_init_struct.peripheral_base_addr = BspTimer_Get_PrtiphAddr(obj);
 1207              		.loc 1 241 43 is_stmt 0 view .LVU328
 1208 0154 8DF81160 		strb	r6, [sp, #17]
 242:HW_Lib/AT32F435/bsp/Bsp_Timer.c ****         dma_init_struct.peripheral_data_width = DMA_PERIPHERAL_DATA_WIDTH_HALFWORD;
 1209              		.loc 1 242 9 is_stmt 1 view .LVU329
 242:HW_Lib/AT32F435/bsp/Bsp_Timer.c ****         dma_init_struct.peripheral_data_width = DMA_PERIPHERAL_DATA_WIDTH_HALFWORD;
 1210              		.loc 1 242 48 is_stmt 0 view .LVU330
 1211 0158 2046     		mov	r0, r4
 1212 015a FFF7FEFF 		bl	BspTimer_Get_PrtiphAddr
 1213              	.LVL120:
 242:HW_Lib/AT32F435/bsp/Bsp_Timer.c ****         dma_init_struct.peripheral_data_width = DMA_PERIPHERAL_DATA_WIDTH_HALFWORD;
 1214              		.loc 1 242 46 view .LVU331
 1215 015e 0190     		str	r0, [sp, #4]
 243:HW_Lib/AT32F435/bsp/Bsp_Timer.c ****         dma_init_struct.peripheral_inc_enable = FALSE;
 1216              		.loc 1 243 9 is_stmt 1 view .LVU332
 243:HW_Lib/AT32F435/bsp/Bsp_Timer.c ****         dma_init_struct.peripheral_inc_enable = FALSE;
 1217              		.loc 1 243 47 is_stmt 0 view .LVU333
 1218 0160 8DF81260 		strb	r6, [sp, #18]
 244:HW_Lib/AT32F435/bsp/Bsp_Timer.c ****         dma_init_struct.priority = DMA_PRIORITY_HIGH;
 1219              		.loc 1 244 9 is_stmt 1 view .LVU334
 244:HW_Lib/AT32F435/bsp/Bsp_Timer.c ****         dma_init_struct.priority = DMA_PRIORITY_HIGH;
 1220              		.loc 1 244 47 is_stmt 0 view .LVU335
 1221 0164 0023     		movs	r3, #0
 1222 0166 8DF81030 		strb	r3, [sp, #16]
 245:HW_Lib/AT32F435/bsp/Bsp_Timer.c ****         dma_init_struct.loop_mode_enable = FALSE;
 1223              		.loc 1 245 9 is_stmt 1 view .LVU336
 245:HW_Lib/AT32F435/bsp/Bsp_Timer.c ****         dma_init_struct.loop_mode_enable = FALSE;
 1224              		.loc 1 245 34 is_stmt 0 view .LVU337
 1225 016a 0222     		movs	r2, #2
 1226 016c 8DF81520 		strb	r2, [sp, #21]
 246:HW_Lib/AT32F435/bsp/Bsp_Timer.c ****         dma_init(obj->dma_hdl, &dma_init_struct);
 1227              		.loc 1 246 9 is_stmt 1 view .LVU338
ARM GAS  C:\Users\8bit\AppData\Local\Temp\cczQEQWw.s 			page 34


 246:HW_Lib/AT32F435/bsp/Bsp_Timer.c ****         dma_init(obj->dma_hdl, &dma_init_struct);
 1228              		.loc 1 246 42 is_stmt 0 view .LVU339
 1229 0170 8DF81430 		strb	r3, [sp, #20]
 247:HW_Lib/AT32F435/bsp/Bsp_Timer.c ****         dmamux_init(dmamux_ch, dma_req_id);
 1230              		.loc 1 247 9 is_stmt 1 view .LVU340
 1231 0174 01A9     		add	r1, sp, #4
 1232 0176 E068     		ldr	r0, [r4, #12]
 1233 0178 FFF7FEFF 		bl	dma_init
 1234              	.LVL121:
 248:HW_Lib/AT32F435/bsp/Bsp_Timer.c **** 
 1235              		.loc 1 248 9 view .LVU341
 1236 017c 3946     		mov	r1, r7
 1237 017e 2846     		mov	r0, r5
 1238 0180 FFF7FEFF 		bl	dmamux_init
 1239              	.LVL122:
 250:HW_Lib/AT32F435/bsp/Bsp_Timer.c ****     }
 1240              		.loc 1 250 9 view .LVU342
 250:HW_Lib/AT32F435/bsp/Bsp_Timer.c ****     }
 1241              		.loc 1 250 16 is_stmt 0 view .LVU343
 1242 0184 3046     		mov	r0, r6
 1243 0186 06E0     		b	.L105
 1244              	.LVL123:
 1245              	.L125:
 194:HW_Lib/AT32F435/bsp/Bsp_Timer.c ****     {
 1246              		.loc 1 194 5 view .LVU344
 1247 0188 0020     		movs	r0, #0
 1248 018a 04E0     		b	.L105
 1249              	.LVL124:
 1250              	.L126:
 219:HW_Lib/AT32F435/bsp/Bsp_Timer.c **** 
 1251              		.loc 1 219 16 view .LVU345
 1252 018c 0020     		movs	r0, #0
 1253 018e 02E0     		b	.L105
 1254              	.L127:
 219:HW_Lib/AT32F435/bsp/Bsp_Timer.c **** 
 1255              		.loc 1 219 16 view .LVU346
 1256 0190 0020     		movs	r0, #0
 1257 0192 00E0     		b	.L105
 1258              	.L128:
 1259 0194 0020     		movs	r0, #0
 1260              	.LVL125:
 1261              	.L105:
 254:HW_Lib/AT32F435/bsp/Bsp_Timer.c **** 
 1262              		.loc 1 254 1 view .LVU347
 1263 0196 07B0     		add	sp, sp, #28
 1264              	.LCFI17:
 1265              		.cfi_remember_state
 1266              		.cfi_def_cfa_offset 20
 1267              		@ sp needed
 1268 0198 F0BD     		pop	{r4, r5, r6, r7, pc}
 1269              	.LVL126:
 1270              	.L129:
 1271              	.LCFI18:
 1272              		.cfi_restore_state
 219:HW_Lib/AT32F435/bsp/Bsp_Timer.c **** 
 1273              		.loc 1 219 16 view .LVU348
 1274 019a 0020     		movs	r0, #0
ARM GAS  C:\Users\8bit\AppData\Local\Temp\cczQEQWw.s 			page 35


 1275 019c FBE7     		b	.L105
 1276              	.L130:
 1277 019e 0020     		movs	r0, #0
 1278 01a0 F9E7     		b	.L105
 1279              	.L132:
 222:HW_Lib/AT32F435/bsp/Bsp_Timer.c ****     {
 1280              		.loc 1 222 5 view .LVU349
 1281 01a2 0020     		movs	r0, #0
 1282 01a4 F7E7     		b	.L105
 1283              	.L146:
 1284 01a6 00BF     		.align	2
 1285              	.L145:
 1286 01a8 00000000 		.word	BspDMA
 1287 01ac 80640240 		.word	1073898624
 1288 01b0 44660240 		.word	1073899076
 1289 01b4 58660240 		.word	1073899096
 1290 01b8 18670240 		.word	1073899288
 1291 01bc 58640240 		.word	1073898584
 1292 01c0 18650240 		.word	1073898776
 1293 01c4 0C650240 		.word	1073898764
 1294 01c8 04650240 		.word	1073898756
 1295 01cc 0C670240 		.word	1073899276
 1296 01d0 04670240 		.word	1073899268
 1297 01d4 1C650240 		.word	1073898780
 1298 01d8 10650240 		.word	1073898768
 1299 01dc 08650240 		.word	1073898760
 1300 01e0 14650240 		.word	1073898772
 1301 01e4 10670240 		.word	1073899280
 1302 01e8 08670240 		.word	1073899272
 1303 01ec 14670240 		.word	1073899284
 1304              		.cfi_endproc
 1305              	.LFE136:
 1307              		.section	.text.BspTimer_PWM_Init,"ax",%progbits
 1308              		.align	1
 1309              		.syntax unified
 1310              		.thumb
 1311              		.thumb_func
 1313              	BspTimer_PWM_Init:
 1314              	.LVL127:
 1315              	.LFB138:
 280:HW_Lib/AT32F435/bsp/Bsp_Timer.c ****     tmr_output_config_type tmr_output_struct;
 1316              		.loc 1 280 1 is_stmt 1 view -0
 1317              		.cfi_startproc
 1318              		@ args = 32, pretend = 0, frame = 8
 1319              		@ frame_needed = 0, uses_anonymous_args = 0
 280:HW_Lib/AT32F435/bsp/Bsp_Timer.c ****     tmr_output_config_type tmr_output_struct;
 1320              		.loc 1 280 1 is_stmt 0 view .LVU351
 1321 0000 2DE9F047 		push	{r4, r5, r6, r7, r8, r9, r10, lr}
 1322              	.LCFI19:
 1323              		.cfi_def_cfa_offset 32
 1324              		.cfi_offset 4, -32
 1325              		.cfi_offset 5, -28
 1326              		.cfi_offset 6, -24
 1327              		.cfi_offset 7, -20
 1328              		.cfi_offset 8, -16
 1329              		.cfi_offset 9, -12
 1330              		.cfi_offset 10, -8
ARM GAS  C:\Users\8bit\AppData\Local\Temp\cczQEQWw.s 			page 36


 1331              		.cfi_offset 14, -4
 1332 0004 84B0     		sub	sp, sp, #16
 1333              	.LCFI20:
 1334              		.cfi_def_cfa_offset 48
 1335 0006 0446     		mov	r4, r0
 1336 0008 0D46     		mov	r5, r1
 1337 000a 1646     		mov	r6, r2
 1338 000c 1F46     		mov	r7, r3
 1339 000e 9DF84090 		ldrb	r9, [sp, #64]	@ zero_extendqisi2
 1340 0012 9DF844A0 		ldrb	r10, [sp, #68]	@ zero_extendqisi2
 281:HW_Lib/AT32F435/bsp/Bsp_Timer.c **** 
 1341              		.loc 1 281 5 is_stmt 1 view .LVU352
 283:HW_Lib/AT32F435/bsp/Bsp_Timer.c **** 
 1342              		.loc 1 283 5 view .LVU353
 1343 0016 0023     		movs	r3, #0
 1344              	.LVL128:
 283:HW_Lib/AT32F435/bsp/Bsp_Timer.c **** 
 1345              		.loc 1 283 5 is_stmt 0 view .LVU354
 1346 0018 0293     		str	r3, [sp, #8]
 1347 001a CDF80B30 		str	r3, [sp, #11]	@ unaligned
 285:HW_Lib/AT32F435/bsp/Bsp_Timer.c ****     {
 1348              		.loc 1 285 5 is_stmt 1 view .LVU355
 285:HW_Lib/AT32F435/bsp/Bsp_Timer.c ****     {
 1349              		.loc 1 285 17 is_stmt 0 view .LVU356
 1350 001e 544B     		ldr	r3, .L159
 1351 0020 93F88430 		ldrb	r3, [r3, #132]	@ zero_extendqisi2
 285:HW_Lib/AT32F435/bsp/Bsp_Timer.c ****     {
 1352              		.loc 1 285 8 view .LVU357
 1353 0024 73B1     		cbz	r3, .L157
 1354              	.LVL129:
 1355              	.L148:
 292:HW_Lib/AT32F435/bsp/Bsp_Timer.c ****         (instance == NULL) || \
 1356              		.loc 1 292 5 is_stmt 1 view .LVU358
 292:HW_Lib/AT32F435/bsp/Bsp_Timer.c ****         (instance == NULL) || \
 1357              		.loc 1 292 8 is_stmt 0 view .LVU359
 1358 0026 002C     		cmp	r4, #0
 1359 0028 00F09680 		beq	.L152
 292:HW_Lib/AT32F435/bsp/Bsp_Timer.c ****         (instance == NULL) || \
 1360              		.loc 1 292 23 discriminator 1 view .LVU360
 1361 002c 002D     		cmp	r5, #0
 1362 002e 00F09680 		beq	.L153
 293:HW_Lib/AT32F435/bsp/Bsp_Timer.c ****         (buf_aadr == 0) || \
 1363              		.loc 1 293 28 view .LVU361
 1364 0032 129B     		ldr	r3, [sp, #72]
 1365 0034 002B     		cmp	r3, #0
 1366 0036 00F09580 		beq	.L154
 294:HW_Lib/AT32F435/bsp/Bsp_Timer.c ****         (buf_size == 0))
 1367              		.loc 1 294 25 view .LVU362
 1368 003a 139B     		ldr	r3, [sp, #76]
 1369 003c 83B9     		cbnz	r3, .L158
 296:HW_Lib/AT32F435/bsp/Bsp_Timer.c **** 
 1370              		.loc 1 296 16 view .LVU363
 1371 003e 4FF00008 		mov	r8, #0
 1372 0042 91E0     		b	.L149
 1373              	.LVL130:
 1374              	.L157:
 287:HW_Lib/AT32F435/bsp/Bsp_Timer.c ****         monitor.init_cnt = 0;
ARM GAS  C:\Users\8bit\AppData\Local\Temp\cczQEQWw.s 			page 37


 1375              		.loc 1 287 9 is_stmt 1 view .LVU364
 1376 0044 DFF82881 		ldr	r8, .L159
 1377 0048 8022     		movs	r2, #128
 1378              	.LVL131:
 287:HW_Lib/AT32F435/bsp/Bsp_Timer.c ****         monitor.init_cnt = 0;
 1379              		.loc 1 287 9 is_stmt 0 view .LVU365
 1380 004a 0021     		movs	r1, #0
 1381              	.LVL132:
 287:HW_Lib/AT32F435/bsp/Bsp_Timer.c ****         monitor.init_cnt = 0;
 1382              		.loc 1 287 9 view .LVU366
 1383 004c 4046     		mov	r0, r8
 1384              	.LVL133:
 287:HW_Lib/AT32F435/bsp/Bsp_Timer.c ****         monitor.init_cnt = 0;
 1385              		.loc 1 287 9 view .LVU367
 1386 004e FFF7FEFF 		bl	memset
 1387              	.LVL134:
 288:HW_Lib/AT32F435/bsp/Bsp_Timer.c ****         monitor.monitor_init = true;
 1388              		.loc 1 288 9 is_stmt 1 view .LVU368
 288:HW_Lib/AT32F435/bsp/Bsp_Timer.c ****         monitor.monitor_init = true;
 1389              		.loc 1 288 26 is_stmt 0 view .LVU369
 1390 0052 0023     		movs	r3, #0
 1391 0054 C8F88030 		str	r3, [r8, #128]
 289:HW_Lib/AT32F435/bsp/Bsp_Timer.c ****     }
 1392              		.loc 1 289 9 is_stmt 1 view .LVU370
 289:HW_Lib/AT32F435/bsp/Bsp_Timer.c ****     }
 1393              		.loc 1 289 30 is_stmt 0 view .LVU371
 1394 0058 0123     		movs	r3, #1
 1395 005a 88F88430 		strb	r3, [r8, #132]
 1396 005e E2E7     		b	.L148
 1397              	.L158:
 298:HW_Lib/AT32F435/bsp/Bsp_Timer.c ****         return false;
 1398              		.loc 1 298 5 is_stmt 1 view .LVU372
 298:HW_Lib/AT32F435/bsp/Bsp_Timer.c ****         return false;
 1399              		.loc 1 298 10 is_stmt 0 view .LVU373
 1400 0060 0121     		movs	r1, #1
 1401 0062 2846     		mov	r0, r5
 1402 0064 FFF7FEFF 		bl	BspTimer_Clock_EnableCtl
 1403              	.LVL135:
 298:HW_Lib/AT32F435/bsp/Bsp_Timer.c ****         return false;
 1404              		.loc 1 298 8 view .LVU374
 1405 0068 8046     		mov	r8, r0
 1406 006a 0028     		cmp	r0, #0
 1407 006c 7CD0     		beq	.L149
 301:HW_Lib/AT32F435/bsp/Bsp_Timer.c ****     obj->stream = stream;
 1408              		.loc 1 301 5 is_stmt 1 view .LVU375
 301:HW_Lib/AT32F435/bsp/Bsp_Timer.c ****     obj->stream = stream;
 1409              		.loc 1 301 14 is_stmt 0 view .LVU376
 1410 006e 84F80890 		strb	r9, [r4, #8]
 302:HW_Lib/AT32F435/bsp/Bsp_Timer.c ****     obj->buffer_addr = buf_aadr;
 1411              		.loc 1 302 5 is_stmt 1 view .LVU377
 302:HW_Lib/AT32F435/bsp/Bsp_Timer.c ****     obj->buffer_addr = buf_aadr;
 1412              		.loc 1 302 17 is_stmt 0 view .LVU378
 1413 0072 84F809A0 		strb	r10, [r4, #9]
 303:HW_Lib/AT32F435/bsp/Bsp_Timer.c ****     obj->buffer_size = buf_size;
 1414              		.loc 1 303 5 is_stmt 1 view .LVU379
 303:HW_Lib/AT32F435/bsp/Bsp_Timer.c ****     obj->buffer_size = buf_size;
 1415              		.loc 1 303 22 is_stmt 0 view .LVU380
ARM GAS  C:\Users\8bit\AppData\Local\Temp\cczQEQWw.s 			page 38


 1416 0076 129B     		ldr	r3, [sp, #72]
 1417 0078 6362     		str	r3, [r4, #36]
 304:HW_Lib/AT32F435/bsp/Bsp_Timer.c ****     obj->instance = instance;
 1418              		.loc 1 304 5 is_stmt 1 view .LVU381
 304:HW_Lib/AT32F435/bsp/Bsp_Timer.c ****     obj->instance = instance;
 1419              		.loc 1 304 22 is_stmt 0 view .LVU382
 1420 007a 139B     		ldr	r3, [sp, #76]
 1421 007c A362     		str	r3, [r4, #40]
 305:HW_Lib/AT32F435/bsp/Bsp_Timer.c ****     obj->tim_channel = ch;
 1422              		.loc 1 305 5 is_stmt 1 view .LVU383
 305:HW_Lib/AT32F435/bsp/Bsp_Timer.c ****     obj->tim_channel = ch;
 1423              		.loc 1 305 19 is_stmt 0 view .LVU384
 1424 007e 2560     		str	r5, [r4]
 306:HW_Lib/AT32F435/bsp/Bsp_Timer.c **** 
 1425              		.loc 1 306 5 is_stmt 1 view .LVU385
 306:HW_Lib/AT32F435/bsp/Bsp_Timer.c **** 
 1426              		.loc 1 306 22 is_stmt 0 view .LVU386
 1427 0080 6660     		str	r6, [r4, #4]
 309:HW_Lib/AT32F435/bsp/Bsp_Timer.c ****         return false;
 1428              		.loc 1 309 5 is_stmt 1 view .LVU387
 309:HW_Lib/AT32F435/bsp/Bsp_Timer.c ****         return false;
 1429              		.loc 1 309 17 is_stmt 0 view .LVU388
 1430 0082 3C4B     		ldr	r3, .L159+4
 1431 0084 DD68     		ldr	r5, [r3, #12]
 1432              	.LVL136:
 309:HW_Lib/AT32F435/bsp/Bsp_Timer.c ****         return false;
 1433              		.loc 1 309 10 view .LVU389
 1434 0086 0023     		movs	r3, #0
 1435 0088 0DAA     		add	r2, sp, #52
 1436 008a 07CA     		ldm	r2, {r0, r1, r2}
 1437 008c A847     		blx	r5
 1438              	.LVL137:
 309:HW_Lib/AT32F435/bsp/Bsp_Timer.c ****         return false;
 1439              		.loc 1 309 8 view .LVU390
 1440 008e 8046     		mov	r8, r0
 1441 0090 0028     		cmp	r0, #0
 1442 0092 69D0     		beq	.L149
 312:HW_Lib/AT32F435/bsp/Bsp_Timer.c ****     obj->auto_reload = auto_reload;
 1443              		.loc 1 312 5 is_stmt 1 view .LVU391
 312:HW_Lib/AT32F435/bsp/Bsp_Timer.c ****     obj->auto_reload = auto_reload;
 1444              		.loc 1 312 19 is_stmt 0 view .LVU392
 1445 0094 0C9B     		ldr	r3, [sp, #48]
 1446 0096 6361     		str	r3, [r4, #20]
 313:HW_Lib/AT32F435/bsp/Bsp_Timer.c ****     tmr_base_init(obj->instance, obj->auto_reload, obj->prescale);
 1447              		.loc 1 313 5 is_stmt 1 view .LVU393
 313:HW_Lib/AT32F435/bsp/Bsp_Timer.c ****     tmr_base_init(obj->instance, obj->auto_reload, obj->prescale);
 1448              		.loc 1 313 22 is_stmt 0 view .LVU394
 1449 0098 A761     		str	r7, [r4, #24]
 314:HW_Lib/AT32F435/bsp/Bsp_Timer.c **** 
 1450              		.loc 1 314 5 is_stmt 1 view .LVU395
 1451 009a 1A46     		mov	r2, r3
 1452 009c 3946     		mov	r1, r7
 1453 009e 2068     		ldr	r0, [r4]
 1454 00a0 FFF7FEFF 		bl	tmr_base_init
 1455              	.LVL138:
 317:HW_Lib/AT32F435/bsp/Bsp_Timer.c ****     tmr_output_default_para_init(&tmr_output_struct);
 1456              		.loc 1 317 5 view .LVU396
ARM GAS  C:\Users\8bit\AppData\Local\Temp\cczQEQWw.s 			page 39


 1457 00a4 0021     		movs	r1, #0
 1458 00a6 2068     		ldr	r0, [r4]
 1459 00a8 FFF7FEFF 		bl	tmr_cnt_dir_set
 1460              	.LVL139:
 318:HW_Lib/AT32F435/bsp/Bsp_Timer.c ****     tmr_output_struct.oc_mode = TMR_OUTPUT_CONTROL_PWM_MODE_A;
 1461              		.loc 1 318 5 view .LVU397
 1462 00ac 02A8     		add	r0, sp, #8
 1463 00ae FFF7FEFF 		bl	tmr_output_default_para_init
 1464              	.LVL140:
 319:HW_Lib/AT32F435/bsp/Bsp_Timer.c ****     tmr_output_struct.oc_idle_state = TRUE;
 1465              		.loc 1 319 5 view .LVU398
 319:HW_Lib/AT32F435/bsp/Bsp_Timer.c ****     tmr_output_struct.oc_idle_state = TRUE;
 1466              		.loc 1 319 31 is_stmt 0 view .LVU399
 1467 00b2 0623     		movs	r3, #6
 1468 00b4 8DF80830 		strb	r3, [sp, #8]
 320:HW_Lib/AT32F435/bsp/Bsp_Timer.c ****     tmr_output_struct.oc_output_state = TRUE;
 1469              		.loc 1 320 5 is_stmt 1 view .LVU400
 320:HW_Lib/AT32F435/bsp/Bsp_Timer.c ****     tmr_output_struct.oc_output_state = TRUE;
 1470              		.loc 1 320 37 is_stmt 0 view .LVU401
 1471 00b8 0126     		movs	r6, #1
 1472              	.LVL141:
 320:HW_Lib/AT32F435/bsp/Bsp_Timer.c ****     tmr_output_struct.oc_output_state = TRUE;
 1473              		.loc 1 320 37 view .LVU402
 1474 00ba 8DF80960 		strb	r6, [sp, #9]
 321:HW_Lib/AT32F435/bsp/Bsp_Timer.c ****     tmr_output_struct.oc_polarity = TMR_OUTPUT_ACTIVE_HIGH;
 1475              		.loc 1 321 5 is_stmt 1 view .LVU403
 321:HW_Lib/AT32F435/bsp/Bsp_Timer.c ****     tmr_output_struct.oc_polarity = TMR_OUTPUT_ACTIVE_HIGH;
 1476              		.loc 1 321 39 is_stmt 0 view .LVU404
 1477 00be 8DF80D60 		strb	r6, [sp, #13]
 322:HW_Lib/AT32F435/bsp/Bsp_Timer.c ****     tmr_output_struct.occ_output_state = TRUE;
 1478              		.loc 1 322 5 is_stmt 1 view .LVU405
 322:HW_Lib/AT32F435/bsp/Bsp_Timer.c ****     tmr_output_struct.occ_output_state = TRUE;
 1479              		.loc 1 322 35 is_stmt 0 view .LVU406
 1480 00c2 0025     		movs	r5, #0
 1481 00c4 8DF80B50 		strb	r5, [sp, #11]
 323:HW_Lib/AT32F435/bsp/Bsp_Timer.c ****     tmr_output_struct.occ_polarity = TMR_OUTPUT_ACTIVE_HIGH;
 1482              		.loc 1 323 5 is_stmt 1 view .LVU407
 323:HW_Lib/AT32F435/bsp/Bsp_Timer.c ****     tmr_output_struct.occ_polarity = TMR_OUTPUT_ACTIVE_HIGH;
 1483              		.loc 1 323 40 is_stmt 0 view .LVU408
 1484 00c8 8DF80E60 		strb	r6, [sp, #14]
 324:HW_Lib/AT32F435/bsp/Bsp_Timer.c ****     tmr_output_struct.occ_idle_state = FALSE;
 1485              		.loc 1 324 5 is_stmt 1 view .LVU409
 324:HW_Lib/AT32F435/bsp/Bsp_Timer.c ****     tmr_output_struct.occ_idle_state = FALSE;
 1486              		.loc 1 324 36 is_stmt 0 view .LVU410
 1487 00cc 8DF80C50 		strb	r5, [sp, #12]
 325:HW_Lib/AT32F435/bsp/Bsp_Timer.c ****     
 1488              		.loc 1 325 5 is_stmt 1 view .LVU411
 325:HW_Lib/AT32F435/bsp/Bsp_Timer.c ****     
 1489              		.loc 1 325 38 is_stmt 0 view .LVU412
 1490 00d0 8DF80A50 		strb	r5, [sp, #10]
 327:HW_Lib/AT32F435/bsp/Bsp_Timer.c ****     tmr_output_channel_config(obj->instance, obj->tim_channel, &tmr_output_struct);
 1491              		.loc 1 327 5 is_stmt 1 view .LVU413
 1492 00d4 2946     		mov	r1, r5
 1493 00d6 2068     		ldr	r0, [r4]
 1494 00d8 FFF7FEFF 		bl	tmr_counter_enable
 1495              	.LVL142:
 328:HW_Lib/AT32F435/bsp/Bsp_Timer.c ****     tmr_channel_enable(obj->instance, obj->tim_channel, TRUE);
ARM GAS  C:\Users\8bit\AppData\Local\Temp\cczQEQWw.s 			page 40


 1496              		.loc 1 328 5 view .LVU414
 1497 00dc 02AA     		add	r2, sp, #8
 1498 00de 2179     		ldrb	r1, [r4, #4]	@ zero_extendqisi2
 1499 00e0 2068     		ldr	r0, [r4]
 1500 00e2 FFF7FEFF 		bl	tmr_output_channel_config
 1501              	.LVL143:
 329:HW_Lib/AT32F435/bsp/Bsp_Timer.c ****     tmr_output_channel_buffer_enable(obj->instance, obj->tim_channel, FALSE);
 1502              		.loc 1 329 5 view .LVU415
 1503 00e6 3246     		mov	r2, r6
 1504 00e8 2179     		ldrb	r1, [r4, #4]	@ zero_extendqisi2
 1505 00ea 2068     		ldr	r0, [r4]
 1506 00ec FFF7FEFF 		bl	tmr_channel_enable
 1507              	.LVL144:
 330:HW_Lib/AT32F435/bsp/Bsp_Timer.c **** 
 1508              		.loc 1 330 5 view .LVU416
 1509 00f0 2A46     		mov	r2, r5
 1510 00f2 2179     		ldrb	r1, [r4, #4]	@ zero_extendqisi2
 1511 00f4 2068     		ldr	r0, [r4]
 1512 00f6 FFF7FEFF 		bl	tmr_output_channel_buffer_enable
 1513              	.LVL145:
 332:HW_Lib/AT32F435/bsp/Bsp_Timer.c ****     {
 1514              		.loc 1 332 5 view .LVU417
 332:HW_Lib/AT32F435/bsp/Bsp_Timer.c ****     {
 1515              		.loc 1 332 9 is_stmt 0 view .LVU418
 1516 00fa 2046     		mov	r0, r4
 1517 00fc FFF7FEFF 		bl	BspTimer_DMA_Init
 1518              	.LVL146:
 332:HW_Lib/AT32F435/bsp/Bsp_Timer.c ****     {
 1519              		.loc 1 332 8 view .LVU419
 1520 0100 08B3     		cbz	r0, .L150
 334:HW_Lib/AT32F435/bsp/Bsp_Timer.c ****         {
 1521              		.loc 1 334 9 is_stmt 1 view .LVU420
 334:HW_Lib/AT32F435/bsp/Bsp_Timer.c ****         {
 1522              		.loc 1 334 16 is_stmt 0 view .LVU421
 1523 0102 236B     		ldr	r3, [r4, #48]
 334:HW_Lib/AT32F435/bsp/Bsp_Timer.c ****         {
 1524              		.loc 1 334 12 view .LVU422
 1525 0104 1BB1     		cbz	r3, .L151
 336:HW_Lib/AT32F435/bsp/Bsp_Timer.c ****             To_DMA_IrqCallbackObj_Ptr(obj->dma_callback_obj)->BspDMA_Irq_Callback_Func = BspTimer_D
 1526              		.loc 1 336 13 is_stmt 1 view .LVU423
 336:HW_Lib/AT32F435/bsp/Bsp_Timer.c ****             To_DMA_IrqCallbackObj_Ptr(obj->dma_callback_obj)->BspDMA_Irq_Callback_Func = BspTimer_D
 1527              		.loc 1 336 72 is_stmt 0 view .LVU424
 1528 0106 5C60     		str	r4, [r3, #4]
 337:HW_Lib/AT32F435/bsp/Bsp_Timer.c ****         }
 1529              		.loc 1 337 13 is_stmt 1 view .LVU425
 1530 0108 236B     		ldr	r3, [r4, #48]
 337:HW_Lib/AT32F435/bsp/Bsp_Timer.c ****         }
 1531              		.loc 1 337 88 is_stmt 0 view .LVU426
 1532 010a 1B4A     		ldr	r2, .L159+8
 1533 010c 1A60     		str	r2, [r3]
 1534              	.L151:
 340:HW_Lib/AT32F435/bsp/Bsp_Timer.c **** 
 1535              		.loc 1 340 9 is_stmt 1 view .LVU427
 340:HW_Lib/AT32F435/bsp/Bsp_Timer.c **** 
 1536              		.loc 1 340 15 is_stmt 0 view .LVU428
 1537 010e 1B4B     		ldr	r3, .L159+12
 1538 0110 5D69     		ldr	r5, [r3, #20]
ARM GAS  C:\Users\8bit\AppData\Local\Temp\cczQEQWw.s 			page 41


 340:HW_Lib/AT32F435/bsp/Bsp_Timer.c **** 
 1539              		.loc 1 340 46 view .LVU429
 1540 0112 2046     		mov	r0, r4
 1541 0114 FFF7FEFF 		bl	BspTimer_Get_DMA_MuxSeq
 1542              	.LVL147:
 340:HW_Lib/AT32F435/bsp/Bsp_Timer.c **** 
 1543              		.loc 1 340 9 view .LVU430
 1544 0118 236B     		ldr	r3, [r4, #48]
 1545 011a 0193     		str	r3, [sp, #4]
 1546 011c 0090     		str	r0, [sp]
 1547 011e 0023     		movs	r3, #0
 1548 0120 0522     		movs	r2, #5
 1549 0122 4FFA8AF1 		sxtb	r1, r10
 1550 0126 4FFA89F0 		sxtb	r0, r9
 1551 012a A847     		blx	r5
 1552              	.LVL148:
 342:HW_Lib/AT32F435/bsp/Bsp_Timer.c ****         monitor.init_cnt ++;
 1553              		.loc 1 342 9 is_stmt 1 view .LVU431
 342:HW_Lib/AT32F435/bsp/Bsp_Timer.c ****         monitor.init_cnt ++;
 1554              		.loc 1 342 29 is_stmt 0 view .LVU432
 1555 012c 104A     		ldr	r2, .L159
 1556 012e D2F88030 		ldr	r3, [r2, #128]
 342:HW_Lib/AT32F435/bsp/Bsp_Timer.c ****         monitor.init_cnt ++;
 1557              		.loc 1 342 45 view .LVU433
 1558 0132 2168     		ldr	r1, [r4]
 342:HW_Lib/AT32F435/bsp/Bsp_Timer.c ****         monitor.init_cnt ++;
 1559              		.loc 1 342 40 view .LVU434
 1560 0134 42F82310 		str	r1, [r2, r3, lsl #2]
 343:HW_Lib/AT32F435/bsp/Bsp_Timer.c **** 
 1561              		.loc 1 343 9 is_stmt 1 view .LVU435
 343:HW_Lib/AT32F435/bsp/Bsp_Timer.c **** 
 1562              		.loc 1 343 26 is_stmt 0 view .LVU436
 1563 0138 0133     		adds	r3, r3, #1
 1564 013a C2F88030 		str	r3, [r2, #128]
 345:HW_Lib/AT32F435/bsp/Bsp_Timer.c ****     }
 1565              		.loc 1 345 9 is_stmt 1 view .LVU437
 1566 013e 0021     		movs	r1, #0
 1567 0140 E068     		ldr	r0, [r4, #12]
 1568 0142 FFF7FEFF 		bl	dma_channel_enable
 1569              	.LVL149:
 1570              	.L150:
 348:HW_Lib/AT32F435/bsp/Bsp_Timer.c ****     tmr_output_enable(To_Timer_Instance(obj->instance), FALSE);
 1571              		.loc 1 348 5 view .LVU438
 1572 0146 0021     		movs	r1, #0
 1573 0148 2068     		ldr	r0, [r4]
 1574 014a FFF7FEFF 		bl	tmr_counter_value_set
 1575              	.LVL150:
 349:HW_Lib/AT32F435/bsp/Bsp_Timer.c **** 
 1576              		.loc 1 349 5 view .LVU439
 1577 014e 0021     		movs	r1, #0
 1578 0150 2068     		ldr	r0, [r4]
 1579 0152 FFF7FEFF 		bl	tmr_output_enable
 1580              	.LVL151:
 351:HW_Lib/AT32F435/bsp/Bsp_Timer.c **** }
 1581              		.loc 1 351 5 view .LVU440
 351:HW_Lib/AT32F435/bsp/Bsp_Timer.c **** }
 1582              		.loc 1 351 12 is_stmt 0 view .LVU441
ARM GAS  C:\Users\8bit\AppData\Local\Temp\cczQEQWw.s 			page 42


 1583 0156 07E0     		b	.L149
 1584              	.LVL152:
 1585              	.L152:
 296:HW_Lib/AT32F435/bsp/Bsp_Timer.c **** 
 1586              		.loc 1 296 16 view .LVU442
 1587 0158 4FF00008 		mov	r8, #0
 1588 015c 04E0     		b	.L149
 1589              	.L153:
 1590 015e 4FF00008 		mov	r8, #0
 1591 0162 01E0     		b	.L149
 1592              	.L154:
 1593 0164 4FF00008 		mov	r8, #0
 1594              	.LVL153:
 1595              	.L149:
 352:HW_Lib/AT32F435/bsp/Bsp_Timer.c **** 
 1596              		.loc 1 352 1 view .LVU443
 1597 0168 4046     		mov	r0, r8
 1598 016a 04B0     		add	sp, sp, #16
 1599              	.LCFI21:
 1600              		.cfi_def_cfa_offset 32
 1601              		@ sp needed
 1602 016c BDE8F087 		pop	{r4, r5, r6, r7, r8, r9, r10, pc}
 1603              	.LVL154:
 1604              	.L160:
 352:HW_Lib/AT32F435/bsp/Bsp_Timer.c **** 
 1605              		.loc 1 352 1 view .LVU444
 1606              		.align	2
 1607              	.L159:
 1608 0170 00000000 		.word	.LANCHOR0
 1609 0174 00000000 		.word	BspGPIO
 1610 0178 00000000 		.word	BspTimer_DMA_TransCplt_Callback
 1611 017c 00000000 		.word	BspDMA
 1612              		.cfi_endproc
 1613              	.LFE138:
 1615              		.global	BspTimer_PWM
 1616              		.global	monitor
 1617              		.section	.bss.monitor,"aw",%nobits
 1618              		.align	2
 1619              		.set	.LANCHOR0,. + 0
 1622              	monitor:
 1623 0000 00000000 		.space	136
 1623      00000000 
 1623      00000000 
 1623      00000000 
 1623      00000000 
 1624              		.section	.data.BspTimer_PWM,"aw"
 1625              		.align	2
 1628              	BspTimer_PWM:
 1629 0000 00000000 		.word	BspTimer_PWM_Init
 1630 0004 00000000 		.word	BspTimer_PWM_DeInit
 1631 0008 00000000 		.word	BspTimer_PWM_Start
 1632 000c 00000000 		.word	BspTimer_DMA_Start
 1633 0010 00000000 		.word	BspTimer_PWM_Trans
 1634 0014 00000000 		.word	BspTimer_Get_Clock_Freq
 1635              		.text
 1636              	.Letext0:
 1637              		.file 2 "c:\\program files (x86)\\gnu arm embedded toolchain\\10 2021.10\\arm-none-eabi\\include\\
ARM GAS  C:\Users\8bit\AppData\Local\Temp\cczQEQWw.s 			page 43


 1638              		.file 3 "c:\\program files (x86)\\gnu arm embedded toolchain\\10 2021.10\\arm-none-eabi\\include\\
 1639              		.file 4 "HW_Lib/Port_Def/Bsp_GPIO_Port_Def.h"
 1640              		.file 5 "HW_Lib/Port_Def/Bsp_Timer_Port_Def.h"
 1641              		.file 6 "HW_Lib/Port_Def/Bsp_DMA_Port_Def.h"
 1642              		.file 7 "HW_Lib/AT32F435/device_support/at32f435_437.h"
 1643              		.file 8 "HW_Lib/AT32F435/drivers/inc/at32f435_437_crm.h"
 1644              		.file 9 "HW_Lib/AT32F435/drivers/inc/at32f435_437_tmr.h"
 1645              		.file 10 "HW_Lib/AT32F435/drivers/inc/at32f435_437_gpio.h"
 1646              		.file 11 "HW_Lib/AT32F435/drivers/inc/at32f435_437_dma.h"
 1647              		.file 12 "HW_Lib/AT32F435/bsp/Bsp_DMA.h"
 1648              		.file 13 "HW_Lib/AT32F435/bsp/Bsp_Timer.h"
 1649              		.file 14 "HW_Lib/AT32F435/bsp/Bsp_GPIO.h"
 1650              		.file 15 "<built-in>"
ARM GAS  C:\Users\8bit\AppData\Local\Temp\cczQEQWw.s 			page 44

