ARM GAS  C:\Users\8bit\AppData\Local\Temp\ccexJHsx.s 			page 1


   1              		.cpu cortex-m4
   2              		.arch armv7e-m
   3              		.fpu fpv4-sp-d16
   4              		.eabi_attribute 27, 1
   5              		.eabi_attribute 28, 1
   6              		.eabi_attribute 20, 1
   7              		.eabi_attribute 21, 1
   8              		.eabi_attribute 23, 3
   9              		.eabi_attribute 24, 1
  10              		.eabi_attribute 25, 1
  11              		.eabi_attribute 26, 1
  12              		.eabi_attribute 30, 1
  13              		.eabi_attribute 34, 1
  14              		.eabi_attribute 18, 4
  15              		.file	"Bsp_DMA.c"
  16              		.text
  17              	.Ltext0:
  18              		.cfi_sections	.debug_frame
  19              		.section	.text.BspDMA_Regist_Obj,"ax",%progbits
  20              		.align	1
  21              		.syntax unified
  22              		.thumb
  23              		.thumb_func
  25              	BspDMA_Regist_Obj:
  26              	.LVL0:
  27              	.LFB133:
  28              		.file 1 "HW_Lib/AT32F435/BSP/Bsp_DMA.c"
   1:HW_Lib/AT32F435/BSP/Bsp_DMA.c **** #include "Bsp_DMA.h"
   2:HW_Lib/AT32F435/BSP/Bsp_DMA.c **** #include "at32f435_437_dma.h"
   3:HW_Lib/AT32F435/BSP/Bsp_DMA.c **** 
   4:HW_Lib/AT32F435/BSP/Bsp_DMA.c **** static BspDMA_IrqCall_Obj_TypeDef* BspDMA1_Irq_Callback_List[Bsp_DMA_Stream_Sum] = {NULL};
   5:HW_Lib/AT32F435/BSP/Bsp_DMA.c **** static BspDMA_IrqCall_Obj_TypeDef* BspDMA2_Irq_Callback_List[Bsp_DMA_Stream_Sum] = {NULL};
   6:HW_Lib/AT32F435/BSP/Bsp_DMA.c **** 
   7:HW_Lib/AT32F435/BSP/Bsp_DMA.c **** static const dma_channel_type* BspDMA1_Instance_List[Bsp_DMA_Stream_Sum] = {
   8:HW_Lib/AT32F435/BSP/Bsp_DMA.c ****     DMA1_CHANNEL1,
   9:HW_Lib/AT32F435/BSP/Bsp_DMA.c ****     DMA1_CHANNEL2,
  10:HW_Lib/AT32F435/BSP/Bsp_DMA.c ****     DMA1_CHANNEL3,
  11:HW_Lib/AT32F435/BSP/Bsp_DMA.c ****     DMA1_CHANNEL4,
  12:HW_Lib/AT32F435/BSP/Bsp_DMA.c ****     DMA1_CHANNEL5,
  13:HW_Lib/AT32F435/BSP/Bsp_DMA.c ****     DMA1_CHANNEL6,
  14:HW_Lib/AT32F435/BSP/Bsp_DMA.c ****     DMA1_CHANNEL7};
  15:HW_Lib/AT32F435/BSP/Bsp_DMA.c **** 
  16:HW_Lib/AT32F435/BSP/Bsp_DMA.c **** static const dma_channel_type* BspDMA2_Instance_List[Bsp_DMA_Stream_Sum] = {
  17:HW_Lib/AT32F435/BSP/Bsp_DMA.c ****     DMA2_CHANNEL1,
  18:HW_Lib/AT32F435/BSP/Bsp_DMA.c ****     DMA2_CHANNEL2,
  19:HW_Lib/AT32F435/BSP/Bsp_DMA.c ****     DMA2_CHANNEL3,
  20:HW_Lib/AT32F435/BSP/Bsp_DMA.c ****     DMA2_CHANNEL4,
  21:HW_Lib/AT32F435/BSP/Bsp_DMA.c ****     DMA2_CHANNEL5,
  22:HW_Lib/AT32F435/BSP/Bsp_DMA.c ****     DMA2_CHANNEL6,
  23:HW_Lib/AT32F435/BSP/Bsp_DMA.c ****     DMA2_CHANNEL7};
  24:HW_Lib/AT32F435/BSP/Bsp_DMA.c **** 
  25:HW_Lib/AT32F435/BSP/Bsp_DMA.c **** /* internal function */
  26:HW_Lib/AT32F435/BSP/Bsp_DMA.c **** static bool DataPipe_DMA_Init = false;
  27:HW_Lib/AT32F435/BSP/Bsp_DMA.c **** static bool Dma_Clock_Init = false;
  28:HW_Lib/AT32F435/BSP/Bsp_DMA.c **** static BspDMA_Pipe_TransFin_Cb DataPipe_Trans_Fin_Callback = NULL;
  29:HW_Lib/AT32F435/BSP/Bsp_DMA.c **** static BspDMA_Pipe_TransErr_Cb DataPipe_Trans_Err_Callback = NULL;
  30:HW_Lib/AT32F435/BSP/Bsp_DMA.c **** 
ARM GAS  C:\Users\8bit\AppData\Local\Temp\ccexJHsx.s 			page 2


  31:HW_Lib/AT32F435/BSP/Bsp_DMA.c **** /* external funtion */
  32:HW_Lib/AT32F435/BSP/Bsp_DMA.c **** static bool BspDMA_Regist_Obj(BspDMA_List dma, BspDMA_Stream_List stream, void *hdl);
  33:HW_Lib/AT32F435/BSP/Bsp_DMA.c **** static bool BspDMA_Unregist_Obj(BspDMA_List dma, BspDMA_Stream_List stream);
  34:HW_Lib/AT32F435/BSP/Bsp_DMA.c **** static void *BspDMA_Get_Instance(BspDMA_List dma, BspDMA_Stream_List stream);
  35:HW_Lib/AT32F435/BSP/Bsp_DMA.c **** static bool BspDMA_DisableIRQ(BspDMA_List dma, BspDMA_Stream_List stream);
  36:HW_Lib/AT32F435/BSP/Bsp_DMA.c **** static void BspDMA_EnableIRQ(BspDMA_List dma, BspDMA_Stream_List stream, uint32_t preempt, uint32_t
  37:HW_Lib/AT32F435/BSP/Bsp_DMA.c **** static void *BspDMA_Get_Channel_Instance(int8_t dma, int8_t stream);
  38:HW_Lib/AT32F435/BSP/Bsp_DMA.c **** 
  39:HW_Lib/AT32F435/BSP/Bsp_DMA.c **** /* pipe external function */
  40:HW_Lib/AT32F435/BSP/Bsp_DMA.c **** static bool BspDMA_Pipe_DeInit(void);
  41:HW_Lib/AT32F435/BSP/Bsp_DMA.c **** static bool BspDMA_Pipe_Init(BspDMA_Pipe_TransFin_Cb fin_cb, BspDMA_Pipe_TransErr_Cb err_cb);
  42:HW_Lib/AT32F435/BSP/Bsp_DMA.c **** static bool BspDMA_Pipe_Trans(uint32_t SrcAddress, uint32_t DstAddress, uint32_t DataLength);
  43:HW_Lib/AT32F435/BSP/Bsp_DMA.c **** static void *BspDMA_Get_Pipe_Handle(void);
  44:HW_Lib/AT32F435/BSP/Bsp_DMA.c **** 
  45:HW_Lib/AT32F435/BSP/Bsp_DMA.c **** BspDMA_TypeDef BspDMA = {
  46:HW_Lib/AT32F435/BSP/Bsp_DMA.c ****     .regist = BspDMA_Regist_Obj,
  47:HW_Lib/AT32F435/BSP/Bsp_DMA.c ****     .unregist = BspDMA_Unregist_Obj,
  48:HW_Lib/AT32F435/BSP/Bsp_DMA.c ****     .get_handle = NULL,
  49:HW_Lib/AT32F435/BSP/Bsp_DMA.c ****     .get_instance = BspDMA_Get_Instance,
  50:HW_Lib/AT32F435/BSP/Bsp_DMA.c ****     .enable_irq = BspDMA_EnableIRQ,
  51:HW_Lib/AT32F435/BSP/Bsp_DMA.c ****     .disable_irq = BspDMA_DisableIRQ,
  52:HW_Lib/AT32F435/BSP/Bsp_DMA.c ****     .get_channel_instance = BspDMA_Get_Channel_Instance,
  53:HW_Lib/AT32F435/BSP/Bsp_DMA.c **** };
  54:HW_Lib/AT32F435/BSP/Bsp_DMA.c **** 
  55:HW_Lib/AT32F435/BSP/Bsp_DMA.c **** BspDMA_Pipe_TypeDef BspDMA_Pipe = {
  56:HW_Lib/AT32F435/BSP/Bsp_DMA.c ****     .init = BspDMA_Pipe_Init,
  57:HW_Lib/AT32F435/BSP/Bsp_DMA.c ****     .de_init = BspDMA_Pipe_DeInit,
  58:HW_Lib/AT32F435/BSP/Bsp_DMA.c ****     .trans = BspDMA_Pipe_Trans,
  59:HW_Lib/AT32F435/BSP/Bsp_DMA.c ****     .get_hanle = BspDMA_Get_Pipe_Handle,
  60:HW_Lib/AT32F435/BSP/Bsp_DMA.c **** };
  61:HW_Lib/AT32F435/BSP/Bsp_DMA.c **** 
  62:HW_Lib/AT32F435/BSP/Bsp_DMA.c **** static bool BspDMA_Regist_Obj(BspDMA_List dma, BspDMA_Stream_List stream, void *hdl)
  63:HW_Lib/AT32F435/BSP/Bsp_DMA.c **** {
  29              		.loc 1 63 1 view -0
  30              		.cfi_startproc
  31              		@ args = 0, pretend = 0, frame = 0
  32              		@ frame_needed = 0, uses_anonymous_args = 0
  33              		@ link register save eliminated.
  64:HW_Lib/AT32F435/BSP/Bsp_DMA.c ****     UNUSED(dma);
  34              		.loc 1 64 5 view .LVU1
  65:HW_Lib/AT32F435/BSP/Bsp_DMA.c ****     UNUSED(stream);
  35              		.loc 1 65 5 view .LVU2
  66:HW_Lib/AT32F435/BSP/Bsp_DMA.c ****     UNUSED(hdl);
  36              		.loc 1 66 5 view .LVU3
  67:HW_Lib/AT32F435/BSP/Bsp_DMA.c **** 
  68:HW_Lib/AT32F435/BSP/Bsp_DMA.c ****     return true;
  37              		.loc 1 68 5 view .LVU4
  69:HW_Lib/AT32F435/BSP/Bsp_DMA.c **** }
  38              		.loc 1 69 1 is_stmt 0 view .LVU5
  39 0000 0120     		movs	r0, #1
  40              	.LVL1:
  41              		.loc 1 69 1 view .LVU6
  42 0002 7047     		bx	lr
  43              		.cfi_endproc
  44              	.LFE133:
  46              		.section	.text.BspDMA_Unregist_Obj,"ax",%progbits
  47              		.align	1
ARM GAS  C:\Users\8bit\AppData\Local\Temp\ccexJHsx.s 			page 3


  48              		.syntax unified
  49              		.thumb
  50              		.thumb_func
  52              	BspDMA_Unregist_Obj:
  53              	.LVL2:
  54              	.LFB134:
  70:HW_Lib/AT32F435/BSP/Bsp_DMA.c **** 
  71:HW_Lib/AT32F435/BSP/Bsp_DMA.c **** static bool BspDMA_Unregist_Obj(BspDMA_List dma, BspDMA_Stream_List stream)
  72:HW_Lib/AT32F435/BSP/Bsp_DMA.c **** {
  55              		.loc 1 72 1 is_stmt 1 view -0
  56              		.cfi_startproc
  57              		@ args = 0, pretend = 0, frame = 0
  58              		@ frame_needed = 0, uses_anonymous_args = 0
  59              		@ link register save eliminated.
  73:HW_Lib/AT32F435/BSP/Bsp_DMA.c ****     UNUSED(dma);
  60              		.loc 1 73 5 view .LVU8
  74:HW_Lib/AT32F435/BSP/Bsp_DMA.c ****     UNUSED(stream);
  61              		.loc 1 74 5 view .LVU9
  75:HW_Lib/AT32F435/BSP/Bsp_DMA.c ****     
  76:HW_Lib/AT32F435/BSP/Bsp_DMA.c ****     return true;
  62              		.loc 1 76 5 view .LVU10
  77:HW_Lib/AT32F435/BSP/Bsp_DMA.c **** }
  63              		.loc 1 77 1 is_stmt 0 view .LVU11
  64 0000 0120     		movs	r0, #1
  65              	.LVL3:
  66              		.loc 1 77 1 view .LVU12
  67 0002 7047     		bx	lr
  68              		.cfi_endproc
  69              	.LFE134:
  71              		.section	.text.BspDMA_Get_Channel_Instance,"ax",%progbits
  72              		.align	1
  73              		.syntax unified
  74              		.thumb
  75              		.thumb_func
  77              	BspDMA_Get_Channel_Instance:
  78              	.LVL4:
  79              	.LFB135:
  78:HW_Lib/AT32F435/BSP/Bsp_DMA.c **** 
  79:HW_Lib/AT32F435/BSP/Bsp_DMA.c **** static void* BspDMA_Get_Channel_Instance(int8_t dma, int8_t stream)
  80:HW_Lib/AT32F435/BSP/Bsp_DMA.c **** {
  80              		.loc 1 80 1 is_stmt 1 view -0
  81              		.cfi_startproc
  82              		@ args = 0, pretend = 0, frame = 0
  83              		@ frame_needed = 0, uses_anonymous_args = 0
  84              		@ link register save eliminated.
  81:HW_Lib/AT32F435/BSP/Bsp_DMA.c ****     if ((dma == Bsp_DMA_None) && \
  85              		.loc 1 81 5 view .LVU14
  82:HW_Lib/AT32F435/BSP/Bsp_DMA.c ****         (dma == Bsp_DMA_Sum) && \
  83:HW_Lib/AT32F435/BSP/Bsp_DMA.c ****         (stream == Bsp_DMA_Stream_None) && \
  84:HW_Lib/AT32F435/BSP/Bsp_DMA.c ****         (stream == Bsp_DMA_Stream_Sum))
  85:HW_Lib/AT32F435/BSP/Bsp_DMA.c ****         return 0;
  86:HW_Lib/AT32F435/BSP/Bsp_DMA.c ****     
  87:HW_Lib/AT32F435/BSP/Bsp_DMA.c ****     if (dma == Bsp_DMA_1)
  86              		.loc 1 87 5 view .LVU15
  87              		.loc 1 87 8 is_stmt 0 view .LVU16
  88 0000 A8B9     		cbnz	r0, .L4
  88:HW_Lib/AT32F435/BSP/Bsp_DMA.c ****     {
ARM GAS  C:\Users\8bit\AppData\Local\Temp\ccexJHsx.s 			page 4


  89:HW_Lib/AT32F435/BSP/Bsp_DMA.c ****         switch (stream)
  89              		.loc 1 89 9 is_stmt 1 view .LVU17
  90 0002 0629     		cmp	r1, #6
  91 0004 11D8     		bhi	.L5
  92 0006 DFE801F0 		tbb	[pc, r1]
  93              	.L7:
  94 000a 04       		.byte	(.L13-.L7)/2
  95 000b 27       		.byte	(.L21-.L7)/2
  96 000c 06       		.byte	(.L11-.L7)/2
  97 000d 08       		.byte	(.L10-.L7)/2
  98 000e 0A       		.byte	(.L9-.L7)/2
  99 000f 0C       		.byte	(.L8-.L7)/2
 100 0010 0E       		.byte	(.L6-.L7)/2
 101 0011 00       		.p2align 1
 102              	.L13:
 103 0012 1448     		ldr	r0, .L24
 104              	.LVL5:
 105              		.loc 1 89 9 is_stmt 0 view .LVU18
 106 0014 7047     		bx	lr
 107              	.LVL6:
 108              	.L11:
  90:HW_Lib/AT32F435/BSP/Bsp_DMA.c ****         {
  91:HW_Lib/AT32F435/BSP/Bsp_DMA.c ****             case Bsp_DMA_Stream_1:
  92:HW_Lib/AT32F435/BSP/Bsp_DMA.c ****                 return DMA1_CHANNEL1;
  93:HW_Lib/AT32F435/BSP/Bsp_DMA.c **** 
  94:HW_Lib/AT32F435/BSP/Bsp_DMA.c ****             case Bsp_DMA_Stream_2:
  95:HW_Lib/AT32F435/BSP/Bsp_DMA.c ****                 return DMA1_CHANNEL2;
  96:HW_Lib/AT32F435/BSP/Bsp_DMA.c ****             
  97:HW_Lib/AT32F435/BSP/Bsp_DMA.c ****             case Bsp_DMA_Stream_3:
  98:HW_Lib/AT32F435/BSP/Bsp_DMA.c ****                 return DMA1_CHANNEL3;
 109              		.loc 1 98 17 is_stmt 1 view .LVU19
 110              		.loc 1 98 24 is_stmt 0 view .LVU20
 111 0016 1448     		ldr	r0, .L24+4
 112              	.LVL7:
 113              		.loc 1 98 24 view .LVU21
 114 0018 7047     		bx	lr
 115              	.LVL8:
 116              	.L10:
  99:HW_Lib/AT32F435/BSP/Bsp_DMA.c **** 
 100:HW_Lib/AT32F435/BSP/Bsp_DMA.c ****             case Bsp_DMA_Stream_4:
 101:HW_Lib/AT32F435/BSP/Bsp_DMA.c ****                 return DMA1_CHANNEL4;
 117              		.loc 1 101 17 is_stmt 1 view .LVU22
 118              		.loc 1 101 24 is_stmt 0 view .LVU23
 119 001a 1448     		ldr	r0, .L24+8
 120              	.LVL9:
 121              		.loc 1 101 24 view .LVU24
 122 001c 7047     		bx	lr
 123              	.LVL10:
 124              	.L9:
 102:HW_Lib/AT32F435/BSP/Bsp_DMA.c **** 
 103:HW_Lib/AT32F435/BSP/Bsp_DMA.c ****             case Bsp_DMA_Stream_5:
 104:HW_Lib/AT32F435/BSP/Bsp_DMA.c ****                 return DMA1_CHANNEL5;
 125              		.loc 1 104 17 is_stmt 1 view .LVU25
 126              		.loc 1 104 24 is_stmt 0 view .LVU26
 127 001e 1448     		ldr	r0, .L24+12
 128              	.LVL11:
 129              		.loc 1 104 24 view .LVU27
ARM GAS  C:\Users\8bit\AppData\Local\Temp\ccexJHsx.s 			page 5


 130 0020 7047     		bx	lr
 131              	.LVL12:
 132              	.L8:
 105:HW_Lib/AT32F435/BSP/Bsp_DMA.c **** 
 106:HW_Lib/AT32F435/BSP/Bsp_DMA.c ****             case Bsp_DMA_Stream_6:
 107:HW_Lib/AT32F435/BSP/Bsp_DMA.c ****                 return DMA1_CHANNEL6;
 133              		.loc 1 107 17 is_stmt 1 view .LVU28
 134              		.loc 1 107 24 is_stmt 0 view .LVU29
 135 0022 1448     		ldr	r0, .L24+16
 136              	.LVL13:
 137              		.loc 1 107 24 view .LVU30
 138 0024 7047     		bx	lr
 139              	.LVL14:
 140              	.L6:
 108:HW_Lib/AT32F435/BSP/Bsp_DMA.c **** 
 109:HW_Lib/AT32F435/BSP/Bsp_DMA.c ****             case Bsp_DMA_Stream_7:
 110:HW_Lib/AT32F435/BSP/Bsp_DMA.c ****                 return DMA1_CHANNEL7;
 141              		.loc 1 110 17 is_stmt 1 view .LVU31
 142              		.loc 1 110 24 is_stmt 0 view .LVU32
 143 0026 1448     		ldr	r0, .L24+20
 144              	.LVL15:
 145              		.loc 1 110 24 view .LVU33
 146 0028 7047     		bx	lr
 147              	.LVL16:
 148              	.L5:
 111:HW_Lib/AT32F435/BSP/Bsp_DMA.c **** 
 112:HW_Lib/AT32F435/BSP/Bsp_DMA.c ****             default:
 113:HW_Lib/AT32F435/BSP/Bsp_DMA.c ****                 return 0;
 149              		.loc 1 113 17 is_stmt 1 view .LVU34
 150              		.loc 1 113 24 is_stmt 0 view .LVU35
 151 002a 0020     		movs	r0, #0
 152              	.LVL17:
 153              		.loc 1 113 24 view .LVU36
 154 002c 7047     		bx	lr
 155              	.LVL18:
 156              	.L4:
 114:HW_Lib/AT32F435/BSP/Bsp_DMA.c ****         }
 115:HW_Lib/AT32F435/BSP/Bsp_DMA.c ****     }
 116:HW_Lib/AT32F435/BSP/Bsp_DMA.c ****     else if (dma == Bsp_DMA_2)
 157              		.loc 1 116 10 is_stmt 1 view .LVU37
 158              		.loc 1 116 13 is_stmt 0 view .LVU38
 159 002e 0128     		cmp	r0, #1
 160 0030 14D1     		bne	.L22
 117:HW_Lib/AT32F435/BSP/Bsp_DMA.c ****     {
 118:HW_Lib/AT32F435/BSP/Bsp_DMA.c ****         switch (stream)
 161              		.loc 1 118 9 is_stmt 1 view .LVU39
 162 0032 0529     		cmp	r1, #5
 163 0034 0ED8     		bhi	.L14
 164 0036 DFE801F0 		tbb	[pc, r1]
 165              	.L16:
 166 003a 03       		.byte	(.L20-.L16)/2
 167 003b 13       		.byte	(.L23-.L16)/2
 168 003c 05       		.byte	(.L19-.L16)/2
 169 003d 07       		.byte	(.L18-.L16)/2
 170 003e 09       		.byte	(.L17-.L16)/2
 171 003f 0B       		.byte	(.L15-.L16)/2
 172              		.p2align 1
ARM GAS  C:\Users\8bit\AppData\Local\Temp\ccexJHsx.s 			page 6


 173              	.L20:
 174 0040 0E48     		ldr	r0, .L24+24
 175              	.LVL19:
 176              		.loc 1 118 9 is_stmt 0 view .LVU40
 177 0042 7047     		bx	lr
 178              	.LVL20:
 179              	.L19:
 119:HW_Lib/AT32F435/BSP/Bsp_DMA.c ****         {
 120:HW_Lib/AT32F435/BSP/Bsp_DMA.c ****             case Bsp_DMA_Stream_1:
 121:HW_Lib/AT32F435/BSP/Bsp_DMA.c ****                 return DMA2_CHANNEL1;
 122:HW_Lib/AT32F435/BSP/Bsp_DMA.c **** 
 123:HW_Lib/AT32F435/BSP/Bsp_DMA.c ****             case Bsp_DMA_Stream_2:
 124:HW_Lib/AT32F435/BSP/Bsp_DMA.c ****                 return DMA2_CHANNEL2;
 125:HW_Lib/AT32F435/BSP/Bsp_DMA.c ****             
 126:HW_Lib/AT32F435/BSP/Bsp_DMA.c ****             case Bsp_DMA_Stream_3:
 127:HW_Lib/AT32F435/BSP/Bsp_DMA.c ****                 return DMA2_CHANNEL3;
 180              		.loc 1 127 17 is_stmt 1 view .LVU41
 181              		.loc 1 127 24 is_stmt 0 view .LVU42
 182 0044 0E48     		ldr	r0, .L24+28
 183              	.LVL21:
 184              		.loc 1 127 24 view .LVU43
 185 0046 7047     		bx	lr
 186              	.LVL22:
 187              	.L18:
 128:HW_Lib/AT32F435/BSP/Bsp_DMA.c **** 
 129:HW_Lib/AT32F435/BSP/Bsp_DMA.c ****             case Bsp_DMA_Stream_4:
 130:HW_Lib/AT32F435/BSP/Bsp_DMA.c ****                 return DMA2_CHANNEL4;
 188              		.loc 1 130 17 is_stmt 1 view .LVU44
 189              		.loc 1 130 24 is_stmt 0 view .LVU45
 190 0048 0E48     		ldr	r0, .L24+32
 191              	.LVL23:
 192              		.loc 1 130 24 view .LVU46
 193 004a 7047     		bx	lr
 194              	.LVL24:
 195              	.L17:
 131:HW_Lib/AT32F435/BSP/Bsp_DMA.c **** 
 132:HW_Lib/AT32F435/BSP/Bsp_DMA.c ****             case Bsp_DMA_Stream_5:
 133:HW_Lib/AT32F435/BSP/Bsp_DMA.c ****                 return DMA2_CHANNEL5;
 196              		.loc 1 133 17 is_stmt 1 view .LVU47
 197              		.loc 1 133 24 is_stmt 0 view .LVU48
 198 004c 0E48     		ldr	r0, .L24+36
 199              	.LVL25:
 200              		.loc 1 133 24 view .LVU49
 201 004e 7047     		bx	lr
 202              	.LVL26:
 203              	.L15:
 134:HW_Lib/AT32F435/BSP/Bsp_DMA.c **** 
 135:HW_Lib/AT32F435/BSP/Bsp_DMA.c ****             case Bsp_DMA_Stream_6:
 136:HW_Lib/AT32F435/BSP/Bsp_DMA.c ****                 return DMA2_CHANNEL6;
 204              		.loc 1 136 17 is_stmt 1 view .LVU50
 205              		.loc 1 136 24 is_stmt 0 view .LVU51
 206 0050 0E48     		ldr	r0, .L24+40
 207              	.LVL27:
 208              		.loc 1 136 24 view .LVU52
 209 0052 7047     		bx	lr
 210              	.LVL28:
 211              	.L14:
ARM GAS  C:\Users\8bit\AppData\Local\Temp\ccexJHsx.s 			page 7


 137:HW_Lib/AT32F435/BSP/Bsp_DMA.c **** 
 138:HW_Lib/AT32F435/BSP/Bsp_DMA.c ****             case Bsp_DMA_Stream_7:
 139:HW_Lib/AT32F435/BSP/Bsp_DMA.c ****             default:
 140:HW_Lib/AT32F435/BSP/Bsp_DMA.c ****                 return 0;
 212              		.loc 1 140 17 is_stmt 1 view .LVU53
 213              		.loc 1 140 24 is_stmt 0 view .LVU54
 214 0054 0020     		movs	r0, #0
 215              	.LVL29:
 216              		.loc 1 140 24 view .LVU55
 217 0056 7047     		bx	lr
 218              	.LVL30:
 219              	.L21:
  95:HW_Lib/AT32F435/BSP/Bsp_DMA.c ****             
 220              		.loc 1 95 24 view .LVU56
 221 0058 0D48     		ldr	r0, .L24+44
 222              	.LVL31:
  95:HW_Lib/AT32F435/BSP/Bsp_DMA.c ****             
 223              		.loc 1 95 24 view .LVU57
 224 005a 7047     		bx	lr
 225              	.LVL32:
 226              	.L22:
 141:HW_Lib/AT32F435/BSP/Bsp_DMA.c ****         }
 142:HW_Lib/AT32F435/BSP/Bsp_DMA.c ****     }
 143:HW_Lib/AT32F435/BSP/Bsp_DMA.c **** 
 144:HW_Lib/AT32F435/BSP/Bsp_DMA.c ****     return 0;
 227              		.loc 1 144 12 view .LVU58
 228 005c 0020     		movs	r0, #0
 229              	.LVL33:
 230              		.loc 1 144 12 view .LVU59
 231 005e 7047     		bx	lr
 232              	.LVL34:
 233              	.L23:
 124:HW_Lib/AT32F435/BSP/Bsp_DMA.c ****             
 234              		.loc 1 124 24 view .LVU60
 235 0060 0C48     		ldr	r0, .L24+48
 236              	.LVL35:
 145:HW_Lib/AT32F435/BSP/Bsp_DMA.c **** }
 237              		.loc 1 145 1 view .LVU61
 238 0062 7047     		bx	lr
 239              	.L25:
 240              		.align	2
 241              	.L24:
 242 0064 08640240 		.word	1073898504
 243 0068 30640240 		.word	1073898544
 244 006c 44640240 		.word	1073898564
 245 0070 58640240 		.word	1073898584
 246 0074 6C640240 		.word	1073898604
 247 0078 80640240 		.word	1073898624
 248 007c 08660240 		.word	1073899016
 249 0080 30660240 		.word	1073899056
 250 0084 44660240 		.word	1073899076
 251 0088 58660240 		.word	1073899096
 252 008c 6C660240 		.word	1073899116
 253 0090 1C640240 		.word	1073898524
 254 0094 1C660240 		.word	1073899036
 255              		.cfi_endproc
 256              	.LFE135:
ARM GAS  C:\Users\8bit\AppData\Local\Temp\ccexJHsx.s 			page 8


 258              		.section	.text.BspDMA_Get_Pipe_Handle,"ax",%progbits
 259              		.align	1
 260              		.syntax unified
 261              		.thumb
 262              		.thumb_func
 264              	BspDMA_Get_Pipe_Handle:
 265              	.LFB142:
 146:HW_Lib/AT32F435/BSP/Bsp_DMA.c **** 
 147:HW_Lib/AT32F435/BSP/Bsp_DMA.c **** static void *BspDMA_Get_Instance(BspDMA_List dma, BspDMA_Stream_List stream)
 148:HW_Lib/AT32F435/BSP/Bsp_DMA.c **** {
 149:HW_Lib/AT32F435/BSP/Bsp_DMA.c ****     static bool dma1_enable = false;
 150:HW_Lib/AT32F435/BSP/Bsp_DMA.c ****     static bool dma2_enable = false;
 151:HW_Lib/AT32F435/BSP/Bsp_DMA.c **** 
 152:HW_Lib/AT32F435/BSP/Bsp_DMA.c ****     if ((dma < Bsp_DMA_1) || (stream < Bsp_DMA_Stream_1))
 153:HW_Lib/AT32F435/BSP/Bsp_DMA.c ****         return NULL;
 154:HW_Lib/AT32F435/BSP/Bsp_DMA.c **** 
 155:HW_Lib/AT32F435/BSP/Bsp_DMA.c ****     /* enable dma1 clock */
 156:HW_Lib/AT32F435/BSP/Bsp_DMA.c ****     if (!Dma_Clock_Init)
 157:HW_Lib/AT32F435/BSP/Bsp_DMA.c ****     {
 158:HW_Lib/AT32F435/BSP/Bsp_DMA.c ****         crm_periph_clock_enable(CRM_DMA2_PERIPH_CLOCK, TRUE);
 159:HW_Lib/AT32F435/BSP/Bsp_DMA.c ****         crm_periph_clock_enable(CRM_DMA1_PERIPH_CLOCK, TRUE);
 160:HW_Lib/AT32F435/BSP/Bsp_DMA.c ****         Dma_Clock_Init = true;
 161:HW_Lib/AT32F435/BSP/Bsp_DMA.c ****     }
 162:HW_Lib/AT32F435/BSP/Bsp_DMA.c **** 
 163:HW_Lib/AT32F435/BSP/Bsp_DMA.c ****     if ((dma == Bsp_DMA_1) && ((stream < Bsp_DMA_Stream_Sum) && (stream >= Bsp_DMA_Stream_1)))
 164:HW_Lib/AT32F435/BSP/Bsp_DMA.c ****     {
 165:HW_Lib/AT32F435/BSP/Bsp_DMA.c ****         if (!dma1_enable)
 166:HW_Lib/AT32F435/BSP/Bsp_DMA.c ****         {
 167:HW_Lib/AT32F435/BSP/Bsp_DMA.c ****             // crm_periph_clock_enable(CRM_DMA1_PERIPH_CLOCK, TRUE);
 168:HW_Lib/AT32F435/BSP/Bsp_DMA.c ****             dmamux_enable(DMA1, TRUE);
 169:HW_Lib/AT32F435/BSP/Bsp_DMA.c ****             dma1_enable = true;
 170:HW_Lib/AT32F435/BSP/Bsp_DMA.c ****         }
 171:HW_Lib/AT32F435/BSP/Bsp_DMA.c **** 
 172:HW_Lib/AT32F435/BSP/Bsp_DMA.c ****         return (dma_channel_type *)BspDMA1_Instance_List[stream];
 173:HW_Lib/AT32F435/BSP/Bsp_DMA.c ****     }
 174:HW_Lib/AT32F435/BSP/Bsp_DMA.c ****     else if ((dma == Bsp_DMA_2) && ((stream < Bsp_DMA_Stream_7) && (stream >= Bsp_DMA_Stream_1)))
 175:HW_Lib/AT32F435/BSP/Bsp_DMA.c ****     {
 176:HW_Lib/AT32F435/BSP/Bsp_DMA.c ****         if (!dma2_enable)
 177:HW_Lib/AT32F435/BSP/Bsp_DMA.c ****         {
 178:HW_Lib/AT32F435/BSP/Bsp_DMA.c ****             // crm_periph_clock_enable(CRM_DMA2_PERIPH_CLOCK, TRUE);
 179:HW_Lib/AT32F435/BSP/Bsp_DMA.c ****             dmamux_enable(DMA2, TRUE);
 180:HW_Lib/AT32F435/BSP/Bsp_DMA.c ****             dma2_enable = true;
 181:HW_Lib/AT32F435/BSP/Bsp_DMA.c ****         }
 182:HW_Lib/AT32F435/BSP/Bsp_DMA.c **** 
 183:HW_Lib/AT32F435/BSP/Bsp_DMA.c ****         return (void *)BspDMA2_Instance_List[stream];
 184:HW_Lib/AT32F435/BSP/Bsp_DMA.c ****     }
 185:HW_Lib/AT32F435/BSP/Bsp_DMA.c **** 
 186:HW_Lib/AT32F435/BSP/Bsp_DMA.c ****     return NULL;
 187:HW_Lib/AT32F435/BSP/Bsp_DMA.c **** }
 188:HW_Lib/AT32F435/BSP/Bsp_DMA.c **** 
 189:HW_Lib/AT32F435/BSP/Bsp_DMA.c **** static bool BspDMA_DisableIRQ(BspDMA_List dma, BspDMA_Stream_List stream)
 190:HW_Lib/AT32F435/BSP/Bsp_DMA.c **** {
 191:HW_Lib/AT32F435/BSP/Bsp_DMA.c ****     IRQn_Type irq;
 192:HW_Lib/AT32F435/BSP/Bsp_DMA.c **** 
 193:HW_Lib/AT32F435/BSP/Bsp_DMA.c ****     if ((dma < Bsp_DMA_1) || (stream < Bsp_DMA_Stream_1))
 194:HW_Lib/AT32F435/BSP/Bsp_DMA.c ****         return false;
 195:HW_Lib/AT32F435/BSP/Bsp_DMA.c **** 
ARM GAS  C:\Users\8bit\AppData\Local\Temp\ccexJHsx.s 			page 9


 196:HW_Lib/AT32F435/BSP/Bsp_DMA.c ****     if (dma == Bsp_DMA_1)
 197:HW_Lib/AT32F435/BSP/Bsp_DMA.c ****     {
 198:HW_Lib/AT32F435/BSP/Bsp_DMA.c ****         switch (stream)
 199:HW_Lib/AT32F435/BSP/Bsp_DMA.c ****         {
 200:HW_Lib/AT32F435/BSP/Bsp_DMA.c ****             case Bsp_DMA_Stream_1: irq = DMA1_Channel1_IRQn; break;
 201:HW_Lib/AT32F435/BSP/Bsp_DMA.c ****             case Bsp_DMA_Stream_2: irq = DMA1_Channel2_IRQn; break;
 202:HW_Lib/AT32F435/BSP/Bsp_DMA.c ****             case Bsp_DMA_Stream_3: irq = DMA1_Channel3_IRQn; break;
 203:HW_Lib/AT32F435/BSP/Bsp_DMA.c ****             case Bsp_DMA_Stream_4: irq = DMA1_Channel4_IRQn; break;
 204:HW_Lib/AT32F435/BSP/Bsp_DMA.c ****             case Bsp_DMA_Stream_5: irq = DMA1_Channel5_IRQn; break;
 205:HW_Lib/AT32F435/BSP/Bsp_DMA.c ****             case Bsp_DMA_Stream_6: irq = DMA1_Channel6_IRQn; break;
 206:HW_Lib/AT32F435/BSP/Bsp_DMA.c ****             case Bsp_DMA_Stream_7: irq = DMA1_Channel7_IRQn; break;
 207:HW_Lib/AT32F435/BSP/Bsp_DMA.c ****             default: return false;
 208:HW_Lib/AT32F435/BSP/Bsp_DMA.c ****         }
 209:HW_Lib/AT32F435/BSP/Bsp_DMA.c **** 
 210:HW_Lib/AT32F435/BSP/Bsp_DMA.c ****         BspDMA1_Irq_Callback_List[stream] = NULL;
 211:HW_Lib/AT32F435/BSP/Bsp_DMA.c ****     }
 212:HW_Lib/AT32F435/BSP/Bsp_DMA.c ****     else if (dma == Bsp_DMA_2)
 213:HW_Lib/AT32F435/BSP/Bsp_DMA.c ****     {
 214:HW_Lib/AT32F435/BSP/Bsp_DMA.c ****         switch (stream)
 215:HW_Lib/AT32F435/BSP/Bsp_DMA.c ****         {
 216:HW_Lib/AT32F435/BSP/Bsp_DMA.c ****             case Bsp_DMA_Stream_1: irq = DMA2_Channel1_IRQn; break;
 217:HW_Lib/AT32F435/BSP/Bsp_DMA.c ****             case Bsp_DMA_Stream_2: irq = DMA2_Channel2_IRQn; break;
 218:HW_Lib/AT32F435/BSP/Bsp_DMA.c ****             case Bsp_DMA_Stream_3: irq = DMA2_Channel3_IRQn; break;
 219:HW_Lib/AT32F435/BSP/Bsp_DMA.c ****             case Bsp_DMA_Stream_4: irq = DMA2_Channel4_IRQn; break;
 220:HW_Lib/AT32F435/BSP/Bsp_DMA.c ****             case Bsp_DMA_Stream_5: irq = DMA2_Channel5_IRQn; break;
 221:HW_Lib/AT32F435/BSP/Bsp_DMA.c ****             case Bsp_DMA_Stream_6: irq = DMA2_Channel6_IRQn; break;
 222:HW_Lib/AT32F435/BSP/Bsp_DMA.c ****             case Bsp_DMA_Stream_7: irq = DMA2_Channel7_IRQn; break;
 223:HW_Lib/AT32F435/BSP/Bsp_DMA.c ****             default: return false;
 224:HW_Lib/AT32F435/BSP/Bsp_DMA.c ****         }
 225:HW_Lib/AT32F435/BSP/Bsp_DMA.c ****     
 226:HW_Lib/AT32F435/BSP/Bsp_DMA.c ****         BspDMA2_Irq_Callback_List[stream] = NULL;
 227:HW_Lib/AT32F435/BSP/Bsp_DMA.c ****     }
 228:HW_Lib/AT32F435/BSP/Bsp_DMA.c ****     else
 229:HW_Lib/AT32F435/BSP/Bsp_DMA.c ****         return false;
 230:HW_Lib/AT32F435/BSP/Bsp_DMA.c ****     
 231:HW_Lib/AT32F435/BSP/Bsp_DMA.c ****     dma_interrupt_enable((dma_channel_type *)BspDMA_Get_Instance(dma, stream), DMA_FDT_INT, TRUE);
 232:HW_Lib/AT32F435/BSP/Bsp_DMA.c ****     nvic_priority_group_config(NVIC_PRIORITY_GROUP_4);
 233:HW_Lib/AT32F435/BSP/Bsp_DMA.c ****     nvic_irq_disable(irq);
 234:HW_Lib/AT32F435/BSP/Bsp_DMA.c ****     dma_reset((dma_channel_type *)BspDMA_Get_Instance(dma, stream));
 235:HW_Lib/AT32F435/BSP/Bsp_DMA.c ****     
 236:HW_Lib/AT32F435/BSP/Bsp_DMA.c ****     return true;
 237:HW_Lib/AT32F435/BSP/Bsp_DMA.c **** }
 238:HW_Lib/AT32F435/BSP/Bsp_DMA.c **** 
 239:HW_Lib/AT32F435/BSP/Bsp_DMA.c **** static void BspDMA_EnableIRQ(BspDMA_List dma, BspDMA_Stream_List stream, uint32_t preempt, uint32_t
 240:HW_Lib/AT32F435/BSP/Bsp_DMA.c **** {
 241:HW_Lib/AT32F435/BSP/Bsp_DMA.c ****     IRQn_Type irq;
 242:HW_Lib/AT32F435/BSP/Bsp_DMA.c ****     dmamux_channel_type *dmamux = NULL;
 243:HW_Lib/AT32F435/BSP/Bsp_DMA.c **** 
 244:HW_Lib/AT32F435/BSP/Bsp_DMA.c ****     if ((dma < Bsp_DMA_1) || (stream < Bsp_DMA_Stream_1))
 245:HW_Lib/AT32F435/BSP/Bsp_DMA.c ****         return;
 246:HW_Lib/AT32F435/BSP/Bsp_DMA.c **** 
 247:HW_Lib/AT32F435/BSP/Bsp_DMA.c ****     if (dma == Bsp_DMA_1)
 248:HW_Lib/AT32F435/BSP/Bsp_DMA.c ****     {
 249:HW_Lib/AT32F435/BSP/Bsp_DMA.c ****         switch (stream)
 250:HW_Lib/AT32F435/BSP/Bsp_DMA.c ****         {
 251:HW_Lib/AT32F435/BSP/Bsp_DMA.c ****         case Bsp_DMA_Stream_1:
 252:HW_Lib/AT32F435/BSP/Bsp_DMA.c ****             irq = DMA1_Channel1_IRQn;
ARM GAS  C:\Users\8bit\AppData\Local\Temp\ccexJHsx.s 			page 10


 253:HW_Lib/AT32F435/BSP/Bsp_DMA.c ****             dmamux = DMA1MUX_CHANNEL1;
 254:HW_Lib/AT32F435/BSP/Bsp_DMA.c ****             break;
 255:HW_Lib/AT32F435/BSP/Bsp_DMA.c **** 
 256:HW_Lib/AT32F435/BSP/Bsp_DMA.c ****         case Bsp_DMA_Stream_2:
 257:HW_Lib/AT32F435/BSP/Bsp_DMA.c ****             irq = DMA1_Channel2_IRQn;
 258:HW_Lib/AT32F435/BSP/Bsp_DMA.c ****             dmamux = DMA1MUX_CHANNEL2;
 259:HW_Lib/AT32F435/BSP/Bsp_DMA.c ****             break;
 260:HW_Lib/AT32F435/BSP/Bsp_DMA.c **** 
 261:HW_Lib/AT32F435/BSP/Bsp_DMA.c ****         case Bsp_DMA_Stream_3:
 262:HW_Lib/AT32F435/BSP/Bsp_DMA.c ****             irq = DMA1_Channel3_IRQn;
 263:HW_Lib/AT32F435/BSP/Bsp_DMA.c ****             dmamux = DMA1MUX_CHANNEL3;
 264:HW_Lib/AT32F435/BSP/Bsp_DMA.c ****             break;
 265:HW_Lib/AT32F435/BSP/Bsp_DMA.c **** 
 266:HW_Lib/AT32F435/BSP/Bsp_DMA.c ****         case Bsp_DMA_Stream_4:
 267:HW_Lib/AT32F435/BSP/Bsp_DMA.c ****             irq = DMA1_Channel4_IRQn;
 268:HW_Lib/AT32F435/BSP/Bsp_DMA.c ****             dmamux = DMA1MUX_CHANNEL4;
 269:HW_Lib/AT32F435/BSP/Bsp_DMA.c ****             break;
 270:HW_Lib/AT32F435/BSP/Bsp_DMA.c **** 
 271:HW_Lib/AT32F435/BSP/Bsp_DMA.c ****         case Bsp_DMA_Stream_5:
 272:HW_Lib/AT32F435/BSP/Bsp_DMA.c ****             irq = DMA1_Channel5_IRQn;
 273:HW_Lib/AT32F435/BSP/Bsp_DMA.c ****             dmamux = DMA1MUX_CHANNEL5;
 274:HW_Lib/AT32F435/BSP/Bsp_DMA.c ****             break;
 275:HW_Lib/AT32F435/BSP/Bsp_DMA.c **** 
 276:HW_Lib/AT32F435/BSP/Bsp_DMA.c ****         case Bsp_DMA_Stream_6:
 277:HW_Lib/AT32F435/BSP/Bsp_DMA.c ****             irq = DMA1_Channel6_IRQn;
 278:HW_Lib/AT32F435/BSP/Bsp_DMA.c ****             dmamux = DMA1MUX_CHANNEL6;
 279:HW_Lib/AT32F435/BSP/Bsp_DMA.c ****             break;
 280:HW_Lib/AT32F435/BSP/Bsp_DMA.c **** 
 281:HW_Lib/AT32F435/BSP/Bsp_DMA.c ****         case Bsp_DMA_Stream_7:
 282:HW_Lib/AT32F435/BSP/Bsp_DMA.c ****             irq = DMA1_Channel7_IRQn;
 283:HW_Lib/AT32F435/BSP/Bsp_DMA.c ****             dmamux = DMA1MUX_CHANNEL7;
 284:HW_Lib/AT32F435/BSP/Bsp_DMA.c ****             break;
 285:HW_Lib/AT32F435/BSP/Bsp_DMA.c **** 
 286:HW_Lib/AT32F435/BSP/Bsp_DMA.c ****         default:
 287:HW_Lib/AT32F435/BSP/Bsp_DMA.c ****             return;
 288:HW_Lib/AT32F435/BSP/Bsp_DMA.c ****         }
 289:HW_Lib/AT32F435/BSP/Bsp_DMA.c **** 
 290:HW_Lib/AT32F435/BSP/Bsp_DMA.c ****         BspDMA1_Irq_Callback_List[stream] = (BspDMA_IrqCall_Obj_TypeDef *)cb;
 291:HW_Lib/AT32F435/BSP/Bsp_DMA.c ****     }
 292:HW_Lib/AT32F435/BSP/Bsp_DMA.c ****     else if (dma == Bsp_DMA_2)
 293:HW_Lib/AT32F435/BSP/Bsp_DMA.c ****     {
 294:HW_Lib/AT32F435/BSP/Bsp_DMA.c ****         switch (stream)
 295:HW_Lib/AT32F435/BSP/Bsp_DMA.c ****         {
 296:HW_Lib/AT32F435/BSP/Bsp_DMA.c ****         case Bsp_DMA_Stream_1:
 297:HW_Lib/AT32F435/BSP/Bsp_DMA.c ****             irq = DMA2_Channel1_IRQn;
 298:HW_Lib/AT32F435/BSP/Bsp_DMA.c ****             dmamux = DMA2MUX_CHANNEL1;
 299:HW_Lib/AT32F435/BSP/Bsp_DMA.c ****             break;
 300:HW_Lib/AT32F435/BSP/Bsp_DMA.c **** 
 301:HW_Lib/AT32F435/BSP/Bsp_DMA.c ****         case Bsp_DMA_Stream_2:
 302:HW_Lib/AT32F435/BSP/Bsp_DMA.c ****             irq = DMA2_Channel2_IRQn;
 303:HW_Lib/AT32F435/BSP/Bsp_DMA.c ****             dmamux = DMA2MUX_CHANNEL2;
 304:HW_Lib/AT32F435/BSP/Bsp_DMA.c ****             break;
 305:HW_Lib/AT32F435/BSP/Bsp_DMA.c **** 
 306:HW_Lib/AT32F435/BSP/Bsp_DMA.c ****         case Bsp_DMA_Stream_3:
 307:HW_Lib/AT32F435/BSP/Bsp_DMA.c ****             irq = DMA2_Channel3_IRQn;
 308:HW_Lib/AT32F435/BSP/Bsp_DMA.c ****             dmamux = DMA2MUX_CHANNEL3;
 309:HW_Lib/AT32F435/BSP/Bsp_DMA.c ****             break;
ARM GAS  C:\Users\8bit\AppData\Local\Temp\ccexJHsx.s 			page 11


 310:HW_Lib/AT32F435/BSP/Bsp_DMA.c **** 
 311:HW_Lib/AT32F435/BSP/Bsp_DMA.c ****         case Bsp_DMA_Stream_4:
 312:HW_Lib/AT32F435/BSP/Bsp_DMA.c ****             irq = DMA2_Channel4_IRQn;
 313:HW_Lib/AT32F435/BSP/Bsp_DMA.c ****             dmamux = DMA2MUX_CHANNEL4;
 314:HW_Lib/AT32F435/BSP/Bsp_DMA.c ****             break;
 315:HW_Lib/AT32F435/BSP/Bsp_DMA.c **** 
 316:HW_Lib/AT32F435/BSP/Bsp_DMA.c ****         case Bsp_DMA_Stream_5:
 317:HW_Lib/AT32F435/BSP/Bsp_DMA.c ****             irq = DMA2_Channel5_IRQn;
 318:HW_Lib/AT32F435/BSP/Bsp_DMA.c ****             dmamux = DMA2MUX_CHANNEL5;
 319:HW_Lib/AT32F435/BSP/Bsp_DMA.c ****             break;
 320:HW_Lib/AT32F435/BSP/Bsp_DMA.c **** 
 321:HW_Lib/AT32F435/BSP/Bsp_DMA.c ****         case Bsp_DMA_Stream_6:
 322:HW_Lib/AT32F435/BSP/Bsp_DMA.c ****             irq = DMA2_Channel6_IRQn;
 323:HW_Lib/AT32F435/BSP/Bsp_DMA.c ****             dmamux = DMA2MUX_CHANNEL6;
 324:HW_Lib/AT32F435/BSP/Bsp_DMA.c ****             break;
 325:HW_Lib/AT32F435/BSP/Bsp_DMA.c **** 
 326:HW_Lib/AT32F435/BSP/Bsp_DMA.c ****         case Bsp_DMA_Stream_7:
 327:HW_Lib/AT32F435/BSP/Bsp_DMA.c ****             irq = DMA2_Channel7_IRQn;
 328:HW_Lib/AT32F435/BSP/Bsp_DMA.c ****             dmamux = DMA2MUX_CHANNEL7;
 329:HW_Lib/AT32F435/BSP/Bsp_DMA.c ****             break;
 330:HW_Lib/AT32F435/BSP/Bsp_DMA.c **** 
 331:HW_Lib/AT32F435/BSP/Bsp_DMA.c ****         default:
 332:HW_Lib/AT32F435/BSP/Bsp_DMA.c ****             return;
 333:HW_Lib/AT32F435/BSP/Bsp_DMA.c ****         }
 334:HW_Lib/AT32F435/BSP/Bsp_DMA.c ****     
 335:HW_Lib/AT32F435/BSP/Bsp_DMA.c ****         BspDMA2_Irq_Callback_List[stream] = (BspDMA_IrqCall_Obj_TypeDef *)cb;
 336:HW_Lib/AT32F435/BSP/Bsp_DMA.c ****     }
 337:HW_Lib/AT32F435/BSP/Bsp_DMA.c ****     else
 338:HW_Lib/AT32F435/BSP/Bsp_DMA.c ****         return;
 339:HW_Lib/AT32F435/BSP/Bsp_DMA.c **** 
 340:HW_Lib/AT32F435/BSP/Bsp_DMA.c ****     if((mux_seq < DMAMUX_DMAREQ_ID_DVP) || (mux_seq > DMAMUX_DMAREQ_ID_REQ_G1))
 341:HW_Lib/AT32F435/BSP/Bsp_DMA.c ****         dmamux_init(dmamux, (dmamux_requst_id_sel_type)mux_seq);
 342:HW_Lib/AT32F435/BSP/Bsp_DMA.c **** 
 343:HW_Lib/AT32F435/BSP/Bsp_DMA.c ****     dma_interrupt_enable((dma_channel_type *)BspDMA_Get_Instance(dma, stream), DMA_FDT_INT, TRUE);
 344:HW_Lib/AT32F435/BSP/Bsp_DMA.c ****     nvic_priority_group_config(NVIC_PRIORITY_GROUP_4);
 345:HW_Lib/AT32F435/BSP/Bsp_DMA.c ****     nvic_irq_enable(irq, preempt, sub);
 346:HW_Lib/AT32F435/BSP/Bsp_DMA.c **** }
 347:HW_Lib/AT32F435/BSP/Bsp_DMA.c **** 
 348:HW_Lib/AT32F435/BSP/Bsp_DMA.c **** static bool BspDMA_Pipe_DeInit(void)
 349:HW_Lib/AT32F435/BSP/Bsp_DMA.c **** {
 350:HW_Lib/AT32F435/BSP/Bsp_DMA.c ****     return BspDMA_DisableIRQ(Bsp_DMA_2, Bsp_DMA_Stream_7);
 351:HW_Lib/AT32F435/BSP/Bsp_DMA.c **** }
 352:HW_Lib/AT32F435/BSP/Bsp_DMA.c **** 
 353:HW_Lib/AT32F435/BSP/Bsp_DMA.c **** static bool BspDMA_Pipe_Init(BspDMA_Pipe_TransFin_Cb fin_cb, BspDMA_Pipe_TransErr_Cb err_cb)
 354:HW_Lib/AT32F435/BSP/Bsp_DMA.c **** {
 355:HW_Lib/AT32F435/BSP/Bsp_DMA.c ****     dma_init_type dma_init_struct;
 356:HW_Lib/AT32F435/BSP/Bsp_DMA.c **** 
 357:HW_Lib/AT32F435/BSP/Bsp_DMA.c ****     /* enable dma1 clock */
 358:HW_Lib/AT32F435/BSP/Bsp_DMA.c ****     if (!Dma_Clock_Init)
 359:HW_Lib/AT32F435/BSP/Bsp_DMA.c ****     {
 360:HW_Lib/AT32F435/BSP/Bsp_DMA.c ****         crm_periph_clock_enable(CRM_DMA2_PERIPH_CLOCK, TRUE);
 361:HW_Lib/AT32F435/BSP/Bsp_DMA.c ****         crm_periph_clock_enable(CRM_DMA1_PERIPH_CLOCK, TRUE);
 362:HW_Lib/AT32F435/BSP/Bsp_DMA.c ****         Dma_Clock_Init = true;
 363:HW_Lib/AT32F435/BSP/Bsp_DMA.c ****     }
 364:HW_Lib/AT32F435/BSP/Bsp_DMA.c **** 
 365:HW_Lib/AT32F435/BSP/Bsp_DMA.c ****     /* dma1 channel1 configuration */
 366:HW_Lib/AT32F435/BSP/Bsp_DMA.c ****     dma_reset(DMA2_CHANNEL7);
ARM GAS  C:\Users\8bit\AppData\Local\Temp\ccexJHsx.s 			page 12


 367:HW_Lib/AT32F435/BSP/Bsp_DMA.c ****     dma_init_struct.buffer_size = 0;
 368:HW_Lib/AT32F435/BSP/Bsp_DMA.c ****     dma_init_struct.direction = DMA_DIR_MEMORY_TO_MEMORY;
 369:HW_Lib/AT32F435/BSP/Bsp_DMA.c ****     dma_init_struct.memory_base_addr = (uint32_t)0;
 370:HW_Lib/AT32F435/BSP/Bsp_DMA.c ****     dma_init_struct.memory_data_width = DMA_MEMORY_DATA_WIDTH_BYTE;
 371:HW_Lib/AT32F435/BSP/Bsp_DMA.c ****     dma_init_struct.memory_inc_enable = TRUE;
 372:HW_Lib/AT32F435/BSP/Bsp_DMA.c ****     dma_init_struct.peripheral_base_addr = (uint32_t)0;
 373:HW_Lib/AT32F435/BSP/Bsp_DMA.c ****     dma_init_struct.peripheral_data_width = DMA_PERIPHERAL_DATA_WIDTH_BYTE;
 374:HW_Lib/AT32F435/BSP/Bsp_DMA.c ****     dma_init_struct.peripheral_inc_enable = TRUE;
 375:HW_Lib/AT32F435/BSP/Bsp_DMA.c ****     dma_init_struct.priority = DMA_PRIORITY_VERY_HIGH;
 376:HW_Lib/AT32F435/BSP/Bsp_DMA.c ****     dma_init_struct.loop_mode_enable = FALSE;
 377:HW_Lib/AT32F435/BSP/Bsp_DMA.c ****     dma_init(DMA2_CHANNEL7, &dma_init_struct);
 378:HW_Lib/AT32F435/BSP/Bsp_DMA.c **** 
 379:HW_Lib/AT32F435/BSP/Bsp_DMA.c ****     /* enable transfer full data intterrupt */
 380:HW_Lib/AT32F435/BSP/Bsp_DMA.c ****     dma_interrupt_enable(DMA2_CHANNEL7, DMA_FDT_INT, TRUE);
 381:HW_Lib/AT32F435/BSP/Bsp_DMA.c **** 
 382:HW_Lib/AT32F435/BSP/Bsp_DMA.c ****     /* dma1 channel1 interrupt nvic init */
 383:HW_Lib/AT32F435/BSP/Bsp_DMA.c ****     nvic_priority_group_config(NVIC_PRIORITY_GROUP_4);
 384:HW_Lib/AT32F435/BSP/Bsp_DMA.c ****     nvic_irq_enable(DMA2_Channel7_IRQn, 5, 0);
 385:HW_Lib/AT32F435/BSP/Bsp_DMA.c **** 
 386:HW_Lib/AT32F435/BSP/Bsp_DMA.c ****     DataPipe_DMA_Init = true;
 387:HW_Lib/AT32F435/BSP/Bsp_DMA.c **** 
 388:HW_Lib/AT32F435/BSP/Bsp_DMA.c ****     DataPipe_Trans_Fin_Callback = fin_cb;
 389:HW_Lib/AT32F435/BSP/Bsp_DMA.c ****     DataPipe_Trans_Err_Callback = err_cb;
 390:HW_Lib/AT32F435/BSP/Bsp_DMA.c **** 
 391:HW_Lib/AT32F435/BSP/Bsp_DMA.c ****     return true;
 392:HW_Lib/AT32F435/BSP/Bsp_DMA.c **** }
 393:HW_Lib/AT32F435/BSP/Bsp_DMA.c **** 
 394:HW_Lib/AT32F435/BSP/Bsp_DMA.c **** static bool BspDMA_Pipe_Trans(uint32_t SrcAddress, uint32_t DstAddress, uint32_t DataLength)
 395:HW_Lib/AT32F435/BSP/Bsp_DMA.c **** {
 396:HW_Lib/AT32F435/BSP/Bsp_DMA.c ****     if(!DataPipe_DMA_Init)
 397:HW_Lib/AT32F435/BSP/Bsp_DMA.c ****         return false;
 398:HW_Lib/AT32F435/BSP/Bsp_DMA.c **** 
 399:HW_Lib/AT32F435/BSP/Bsp_DMA.c ****     if((SrcAddress == 0) || (DstAddress == 0) || (DataLength == 0))
 400:HW_Lib/AT32F435/BSP/Bsp_DMA.c ****         return false;
 401:HW_Lib/AT32F435/BSP/Bsp_DMA.c **** 
 402:HW_Lib/AT32F435/BSP/Bsp_DMA.c ****     DMA2_CHANNEL7->maddr = DstAddress;
 403:HW_Lib/AT32F435/BSP/Bsp_DMA.c ****     DMA2_CHANNEL7->paddr = SrcAddress;
 404:HW_Lib/AT32F435/BSP/Bsp_DMA.c ****     DMA2_CHANNEL7->dtcnt_bit.cnt = DataLength;
 405:HW_Lib/AT32F435/BSP/Bsp_DMA.c ****     dma_channel_enable(DMA2_CHANNEL7, TRUE);
 406:HW_Lib/AT32F435/BSP/Bsp_DMA.c **** 
 407:HW_Lib/AT32F435/BSP/Bsp_DMA.c ****     return true;
 408:HW_Lib/AT32F435/BSP/Bsp_DMA.c **** }
 409:HW_Lib/AT32F435/BSP/Bsp_DMA.c **** 
 410:HW_Lib/AT32F435/BSP/Bsp_DMA.c **** static void *BspDMA_Get_Pipe_Handle(void)
 411:HW_Lib/AT32F435/BSP/Bsp_DMA.c **** {
 266              		.loc 1 411 1 is_stmt 1 view -0
 267              		.cfi_startproc
 268              		@ args = 0, pretend = 0, frame = 0
 269              		@ frame_needed = 0, uses_anonymous_args = 0
 270              		@ link register save eliminated.
 412:HW_Lib/AT32F435/BSP/Bsp_DMA.c ****     if(!DataPipe_DMA_Init)
 271              		.loc 1 412 5 view .LVU63
 272              		.loc 1 412 8 is_stmt 0 view .LVU64
 273 0000 034B     		ldr	r3, .L29
 274 0002 1B78     		ldrb	r3, [r3]	@ zero_extendqisi2
 275              		.loc 1 412 7 view .LVU65
 276 0004 0BB1     		cbz	r3, .L28
ARM GAS  C:\Users\8bit\AppData\Local\Temp\ccexJHsx.s 			page 13


 413:HW_Lib/AT32F435/BSP/Bsp_DMA.c ****         return NULL;
 414:HW_Lib/AT32F435/BSP/Bsp_DMA.c **** 
 415:HW_Lib/AT32F435/BSP/Bsp_DMA.c ****     return (void *)DMA2_CHANNEL7;
 277              		.loc 1 415 12 view .LVU66
 278 0006 0348     		ldr	r0, .L29+4
 279 0008 7047     		bx	lr
 280              	.L28:
 413:HW_Lib/AT32F435/BSP/Bsp_DMA.c ****         return NULL;
 281              		.loc 1 413 16 view .LVU67
 282 000a 0020     		movs	r0, #0
 416:HW_Lib/AT32F435/BSP/Bsp_DMA.c **** }
 283              		.loc 1 416 1 view .LVU68
 284 000c 7047     		bx	lr
 285              	.L30:
 286 000e 00BF     		.align	2
 287              	.L29:
 288 0010 00000000 		.word	.LANCHOR0
 289 0014 80660240 		.word	1073899136
 290              		.cfi_endproc
 291              	.LFE142:
 293              		.section	.text.BspDMA_Get_Instance,"ax",%progbits
 294              		.align	1
 295              		.syntax unified
 296              		.thumb
 297              		.thumb_func
 299              	BspDMA_Get_Instance:
 300              	.LVL36:
 301              	.LFB136:
 148:HW_Lib/AT32F435/BSP/Bsp_DMA.c ****     static bool dma1_enable = false;
 302              		.loc 1 148 1 is_stmt 1 view -0
 303              		.cfi_startproc
 304              		@ args = 0, pretend = 0, frame = 0
 305              		@ frame_needed = 0, uses_anonymous_args = 0
 148:HW_Lib/AT32F435/BSP/Bsp_DMA.c ****     static bool dma1_enable = false;
 306              		.loc 1 148 1 is_stmt 0 view .LVU70
 307 0000 38B5     		push	{r3, r4, r5, lr}
 308              	.LCFI0:
 309              		.cfi_def_cfa_offset 16
 310              		.cfi_offset 3, -16
 311              		.cfi_offset 4, -12
 312              		.cfi_offset 5, -8
 313              		.cfi_offset 14, -4
 149:HW_Lib/AT32F435/BSP/Bsp_DMA.c ****     static bool dma2_enable = false;
 314              		.loc 1 149 5 is_stmt 1 view .LVU71
 150:HW_Lib/AT32F435/BSP/Bsp_DMA.c **** 
 315              		.loc 1 150 5 view .LVU72
 152:HW_Lib/AT32F435/BSP/Bsp_DMA.c ****         return NULL;
 316              		.loc 1 152 5 view .LVU73
 152:HW_Lib/AT32F435/BSP/Bsp_DMA.c ****         return NULL;
 317              		.loc 1 152 8 is_stmt 0 view .LVU74
 318 0002 041E     		subs	r4, r0, #0
 319 0004 38DB     		blt	.L37
 320 0006 0D46     		mov	r5, r1
 152:HW_Lib/AT32F435/BSP/Bsp_DMA.c ****         return NULL;
 321              		.loc 1 152 27 discriminator 1 view .LVU75
 322 0008 0029     		cmp	r1, #0
 323 000a 37DB     		blt	.L38
ARM GAS  C:\Users\8bit\AppData\Local\Temp\ccexJHsx.s 			page 14


 156:HW_Lib/AT32F435/BSP/Bsp_DMA.c ****     {
 324              		.loc 1 156 5 is_stmt 1 view .LVU76
 156:HW_Lib/AT32F435/BSP/Bsp_DMA.c ****     {
 325              		.loc 1 156 9 is_stmt 0 view .LVU77
 326 000c 1E4B     		ldr	r3, .L46
 327 000e 1B78     		ldrb	r3, [r3]	@ zero_extendqisi2
 156:HW_Lib/AT32F435/BSP/Bsp_DMA.c ****     {
 328              		.loc 1 156 8 view .LVU78
 329 0010 7BB1     		cbz	r3, .L42
 330              	.LVL37:
 331              	.L33:
 163:HW_Lib/AT32F435/BSP/Bsp_DMA.c ****     {
 332              		.loc 1 163 5 is_stmt 1 view .LVU79
 163:HW_Lib/AT32F435/BSP/Bsp_DMA.c ****     {
 333              		.loc 1 163 8 is_stmt 0 view .LVU80
 334 0012 14B9     		cbnz	r4, .L34
 163:HW_Lib/AT32F435/BSP/Bsp_DMA.c ****     {
 335              		.loc 1 163 62 discriminator 1 view .LVU81
 336 0014 EBB2     		uxtb	r3, r5
 163:HW_Lib/AT32F435/BSP/Bsp_DMA.c ****     {
 337              		.loc 1 163 28 discriminator 1 view .LVU82
 338 0016 062B     		cmp	r3, #6
 339 0018 17D9     		bls	.L43
 340              	.L34:
 174:HW_Lib/AT32F435/BSP/Bsp_DMA.c ****     {
 341              		.loc 1 174 10 is_stmt 1 view .LVU83
 174:HW_Lib/AT32F435/BSP/Bsp_DMA.c ****     {
 342              		.loc 1 174 13 is_stmt 0 view .LVU84
 343 001a 012C     		cmp	r4, #1
 344 001c 30D1     		bne	.L39
 174:HW_Lib/AT32F435/BSP/Bsp_DMA.c ****     {
 345              		.loc 1 174 65 discriminator 1 view .LVU85
 346 001e EBB2     		uxtb	r3, r5
 174:HW_Lib/AT32F435/BSP/Bsp_DMA.c ****     {
 347              		.loc 1 174 33 discriminator 1 view .LVU86
 348 0020 052B     		cmp	r3, #5
 349 0022 2FD8     		bhi	.L40
 176:HW_Lib/AT32F435/BSP/Bsp_DMA.c ****         {
 350              		.loc 1 176 9 is_stmt 1 view .LVU87
 176:HW_Lib/AT32F435/BSP/Bsp_DMA.c ****         {
 351              		.loc 1 176 13 is_stmt 0 view .LVU88
 352 0024 194B     		ldr	r3, .L46+4
 353 0026 1B78     		ldrb	r3, [r3]	@ zero_extendqisi2
 176:HW_Lib/AT32F435/BSP/Bsp_DMA.c ****         {
 354              		.loc 1 176 12 view .LVU89
 355 0028 F3B1     		cbz	r3, .L44
 356              	.L36:
 183:HW_Lib/AT32F435/BSP/Bsp_DMA.c ****     }
 357              		.loc 1 183 9 is_stmt 1 view .LVU90
 183:HW_Lib/AT32F435/BSP/Bsp_DMA.c ****     }
 358              		.loc 1 183 16 is_stmt 0 view .LVU91
 359 002a 194B     		ldr	r3, .L46+8
 360 002c 53F82500 		ldr	r0, [r3, r5, lsl #2]
 361 0030 27E0     		b	.L31
 362              	.LVL38:
 363              	.L42:
 158:HW_Lib/AT32F435/BSP/Bsp_DMA.c ****         crm_periph_clock_enable(CRM_DMA1_PERIPH_CLOCK, TRUE);
ARM GAS  C:\Users\8bit\AppData\Local\Temp\ccexJHsx.s 			page 15


 364              		.loc 1 158 9 is_stmt 1 view .LVU92
 365 0032 0121     		movs	r1, #1
 366              	.LVL39:
 158:HW_Lib/AT32F435/BSP/Bsp_DMA.c ****         crm_periph_clock_enable(CRM_DMA1_PERIPH_CLOCK, TRUE);
 367              		.loc 1 158 9 is_stmt 0 view .LVU93
 368 0034 1748     		ldr	r0, .L46+12
 369              	.LVL40:
 158:HW_Lib/AT32F435/BSP/Bsp_DMA.c ****         crm_periph_clock_enable(CRM_DMA1_PERIPH_CLOCK, TRUE);
 370              		.loc 1 158 9 view .LVU94
 371 0036 FFF7FEFF 		bl	crm_periph_clock_enable
 372              	.LVL41:
 159:HW_Lib/AT32F435/BSP/Bsp_DMA.c ****         Dma_Clock_Init = true;
 373              		.loc 1 159 9 is_stmt 1 view .LVU95
 374 003a 0121     		movs	r1, #1
 375 003c 1648     		ldr	r0, .L46+16
 376 003e FFF7FEFF 		bl	crm_periph_clock_enable
 377              	.LVL42:
 160:HW_Lib/AT32F435/BSP/Bsp_DMA.c ****     }
 378              		.loc 1 160 9 view .LVU96
 160:HW_Lib/AT32F435/BSP/Bsp_DMA.c ****     }
 379              		.loc 1 160 24 is_stmt 0 view .LVU97
 380 0042 114B     		ldr	r3, .L46
 381 0044 0122     		movs	r2, #1
 382 0046 1A70     		strb	r2, [r3]
 383 0048 E3E7     		b	.L33
 384              	.L43:
 165:HW_Lib/AT32F435/BSP/Bsp_DMA.c ****         {
 385              		.loc 1 165 9 is_stmt 1 view .LVU98
 165:HW_Lib/AT32F435/BSP/Bsp_DMA.c ****         {
 386              		.loc 1 165 13 is_stmt 0 view .LVU99
 387 004a 144B     		ldr	r3, .L46+20
 388 004c 1B78     		ldrb	r3, [r3]	@ zero_extendqisi2
 165:HW_Lib/AT32F435/BSP/Bsp_DMA.c ****         {
 389              		.loc 1 165 12 view .LVU100
 390 004e 1BB1     		cbz	r3, .L45
 391              	.L35:
 172:HW_Lib/AT32F435/BSP/Bsp_DMA.c ****     }
 392              		.loc 1 172 9 is_stmt 1 view .LVU101
 172:HW_Lib/AT32F435/BSP/Bsp_DMA.c ****     }
 393              		.loc 1 172 16 is_stmt 0 view .LVU102
 394 0050 134B     		ldr	r3, .L46+24
 395 0052 53F82500 		ldr	r0, [r3, r5, lsl #2]
 396 0056 14E0     		b	.L31
 397              	.L45:
 168:HW_Lib/AT32F435/BSP/Bsp_DMA.c ****             dma1_enable = true;
 398              		.loc 1 168 13 is_stmt 1 view .LVU103
 399 0058 0121     		movs	r1, #1
 400 005a 1248     		ldr	r0, .L46+28
 401 005c FFF7FEFF 		bl	dmamux_enable
 402              	.LVL43:
 169:HW_Lib/AT32F435/BSP/Bsp_DMA.c ****         }
 403              		.loc 1 169 13 view .LVU104
 169:HW_Lib/AT32F435/BSP/Bsp_DMA.c ****         }
 404              		.loc 1 169 25 is_stmt 0 view .LVU105
 405 0060 0E4B     		ldr	r3, .L46+20
 406 0062 0122     		movs	r2, #1
 407 0064 1A70     		strb	r2, [r3]
ARM GAS  C:\Users\8bit\AppData\Local\Temp\ccexJHsx.s 			page 16


 408 0066 F3E7     		b	.L35
 409              	.L44:
 179:HW_Lib/AT32F435/BSP/Bsp_DMA.c ****             dma2_enable = true;
 410              		.loc 1 179 13 is_stmt 1 view .LVU106
 411 0068 0121     		movs	r1, #1
 412 006a 0F48     		ldr	r0, .L46+32
 413 006c FFF7FEFF 		bl	dmamux_enable
 414              	.LVL44:
 180:HW_Lib/AT32F435/BSP/Bsp_DMA.c ****         }
 415              		.loc 1 180 13 view .LVU107
 180:HW_Lib/AT32F435/BSP/Bsp_DMA.c ****         }
 416              		.loc 1 180 25 is_stmt 0 view .LVU108
 417 0070 064B     		ldr	r3, .L46+4
 418 0072 0122     		movs	r2, #1
 419 0074 1A70     		strb	r2, [r3]
 420 0076 D8E7     		b	.L36
 421              	.LVL45:
 422              	.L37:
 153:HW_Lib/AT32F435/BSP/Bsp_DMA.c **** 
 423              		.loc 1 153 16 view .LVU109
 424 0078 0020     		movs	r0, #0
 425              	.LVL46:
 153:HW_Lib/AT32F435/BSP/Bsp_DMA.c **** 
 426              		.loc 1 153 16 view .LVU110
 427 007a 02E0     		b	.L31
 428              	.LVL47:
 429              	.L38:
 153:HW_Lib/AT32F435/BSP/Bsp_DMA.c **** 
 430              		.loc 1 153 16 view .LVU111
 431 007c 0020     		movs	r0, #0
 432              	.LVL48:
 153:HW_Lib/AT32F435/BSP/Bsp_DMA.c **** 
 433              		.loc 1 153 16 view .LVU112
 434 007e 00E0     		b	.L31
 435              	.LVL49:
 436              	.L39:
 186:HW_Lib/AT32F435/BSP/Bsp_DMA.c **** }
 437              		.loc 1 186 12 view .LVU113
 438 0080 0020     		movs	r0, #0
 439              	.L31:
 187:HW_Lib/AT32F435/BSP/Bsp_DMA.c **** 
 440              		.loc 1 187 1 view .LVU114
 441 0082 38BD     		pop	{r3, r4, r5, pc}
 442              	.L40:
 186:HW_Lib/AT32F435/BSP/Bsp_DMA.c **** }
 443              		.loc 1 186 12 view .LVU115
 444 0084 0020     		movs	r0, #0
 445 0086 FCE7     		b	.L31
 446              	.L47:
 447              		.align	2
 448              	.L46:
 449 0088 00000000 		.word	.LANCHOR1
 450 008c 00000000 		.word	.LANCHOR4
 451 0090 00000000 		.word	.LANCHOR5
 452 0094 18003000 		.word	3145752
 453 0098 16003000 		.word	3145750
 454 009c 00000000 		.word	.LANCHOR2
ARM GAS  C:\Users\8bit\AppData\Local\Temp\ccexJHsx.s 			page 17


 455 00a0 00000000 		.word	.LANCHOR3
 456 00a4 00640240 		.word	1073898496
 457 00a8 00660240 		.word	1073899008
 458              		.cfi_endproc
 459              	.LFE136:
 461              		.section	.text.BspDMA_DisableIRQ,"ax",%progbits
 462              		.align	1
 463              		.syntax unified
 464              		.thumb
 465              		.thumb_func
 467              	BspDMA_DisableIRQ:
 468              	.LVL50:
 469              	.LFB137:
 190:HW_Lib/AT32F435/BSP/Bsp_DMA.c ****     IRQn_Type irq;
 470              		.loc 1 190 1 is_stmt 1 view -0
 471              		.cfi_startproc
 472              		@ args = 0, pretend = 0, frame = 0
 473              		@ frame_needed = 0, uses_anonymous_args = 0
 190:HW_Lib/AT32F435/BSP/Bsp_DMA.c ****     IRQn_Type irq;
 474              		.loc 1 190 1 is_stmt 0 view .LVU117
 475 0000 70B5     		push	{r4, r5, r6, lr}
 476              	.LCFI1:
 477              		.cfi_def_cfa_offset 16
 478              		.cfi_offset 4, -16
 479              		.cfi_offset 5, -12
 480              		.cfi_offset 6, -8
 481              		.cfi_offset 14, -4
 191:HW_Lib/AT32F435/BSP/Bsp_DMA.c **** 
 482              		.loc 1 191 5 is_stmt 1 view .LVU118
 193:HW_Lib/AT32F435/BSP/Bsp_DMA.c ****         return false;
 483              		.loc 1 193 5 view .LVU119
 193:HW_Lib/AT32F435/BSP/Bsp_DMA.c ****         return false;
 484              		.loc 1 193 8 is_stmt 0 view .LVU120
 485 0002 051E     		subs	r5, r0, #0
 486 0004 4EDB     		blt	.L68
 487 0006 0C46     		mov	r4, r1
 193:HW_Lib/AT32F435/BSP/Bsp_DMA.c ****         return false;
 488              		.loc 1 193 27 discriminator 1 view .LVU121
 489 0008 0029     		cmp	r1, #0
 490 000a 4DDB     		blt	.L69
 196:HW_Lib/AT32F435/BSP/Bsp_DMA.c ****     {
 491              		.loc 1 196 5 is_stmt 1 view .LVU122
 196:HW_Lib/AT32F435/BSP/Bsp_DMA.c ****     {
 492              		.loc 1 196 8 is_stmt 0 view .LVU123
 493 000c 75BB     		cbnz	r5, .L50
 198:HW_Lib/AT32F435/BSP/Bsp_DMA.c ****         {
 494              		.loc 1 198 9 is_stmt 1 view .LVU124
 495 000e 0629     		cmp	r1, #6
 496 0010 4CD8     		bhi	.L70
 497 0012 DFE801F0 		tbb	[pc, r1]
 498              	.L52:
 499 0016 04       		.byte	(.L58-.L52)/2
 500 0017 29       		.byte	(.L71-.L52)/2
 501 0018 1F       		.byte	(.L56-.L52)/2
 502 0019 21       		.byte	(.L55-.L52)/2
 503 001a 23       		.byte	(.L54-.L52)/2
 504 001b 25       		.byte	(.L53-.L52)/2
ARM GAS  C:\Users\8bit\AppData\Local\Temp\ccexJHsx.s 			page 18


 505 001c 27       		.byte	(.L51-.L52)/2
 506 001d 00       		.p2align 1
 507              	.L58:
 508 001e 3826     		movs	r6, #56
 509              	.L57:
 510              	.LVL51:
 210:HW_Lib/AT32F435/BSP/Bsp_DMA.c ****     }
 511              		.loc 1 210 9 view .LVU125
 210:HW_Lib/AT32F435/BSP/Bsp_DMA.c ****     }
 512              		.loc 1 210 43 is_stmt 0 view .LVU126
 513 0020 254B     		ldr	r3, .L76
 514 0022 0022     		movs	r2, #0
 515 0024 43F82420 		str	r2, [r3, r4, lsl #2]
 516              	.L59:
 231:HW_Lib/AT32F435/BSP/Bsp_DMA.c ****     nvic_priority_group_config(NVIC_PRIORITY_GROUP_4);
 517              		.loc 1 231 5 is_stmt 1 view .LVU127
 231:HW_Lib/AT32F435/BSP/Bsp_DMA.c ****     nvic_priority_group_config(NVIC_PRIORITY_GROUP_4);
 518              		.loc 1 231 46 is_stmt 0 view .LVU128
 519 0028 2146     		mov	r1, r4
 520              	.LVL52:
 231:HW_Lib/AT32F435/BSP/Bsp_DMA.c ****     nvic_priority_group_config(NVIC_PRIORITY_GROUP_4);
 521              		.loc 1 231 46 view .LVU129
 522 002a 2846     		mov	r0, r5
 523              	.LVL53:
 231:HW_Lib/AT32F435/BSP/Bsp_DMA.c ****     nvic_priority_group_config(NVIC_PRIORITY_GROUP_4);
 524              		.loc 1 231 46 view .LVU130
 525 002c FFF7FEFF 		bl	BspDMA_Get_Instance
 526              	.LVL54:
 231:HW_Lib/AT32F435/BSP/Bsp_DMA.c ****     nvic_priority_group_config(NVIC_PRIORITY_GROUP_4);
 527              		.loc 1 231 5 view .LVU131
 528 0030 0122     		movs	r2, #1
 529 0032 0221     		movs	r1, #2
 530 0034 FFF7FEFF 		bl	dma_interrupt_enable
 531              	.LVL55:
 232:HW_Lib/AT32F435/BSP/Bsp_DMA.c ****     nvic_irq_disable(irq);
 532              		.loc 1 232 5 is_stmt 1 view .LVU132
 533 0038 0320     		movs	r0, #3
 534 003a FFF7FEFF 		bl	nvic_priority_group_config
 535              	.LVL56:
 233:HW_Lib/AT32F435/BSP/Bsp_DMA.c ****     dma_reset((dma_channel_type *)BspDMA_Get_Instance(dma, stream));
 536              		.loc 1 233 5 view .LVU133
 537 003e 3046     		mov	r0, r6
 538 0040 FFF7FEFF 		bl	nvic_irq_disable
 539              	.LVL57:
 234:HW_Lib/AT32F435/BSP/Bsp_DMA.c ****     
 540              		.loc 1 234 5 view .LVU134
 234:HW_Lib/AT32F435/BSP/Bsp_DMA.c ****     
 541              		.loc 1 234 35 is_stmt 0 view .LVU135
 542 0044 2146     		mov	r1, r4
 543 0046 2846     		mov	r0, r5
 544 0048 FFF7FEFF 		bl	BspDMA_Get_Instance
 545              	.LVL58:
 234:HW_Lib/AT32F435/BSP/Bsp_DMA.c ****     
 546              		.loc 1 234 5 view .LVU136
 547 004c FFF7FEFF 		bl	dma_reset
 548              	.LVL59:
 236:HW_Lib/AT32F435/BSP/Bsp_DMA.c **** }
ARM GAS  C:\Users\8bit\AppData\Local\Temp\ccexJHsx.s 			page 19


 549              		.loc 1 236 5 is_stmt 1 view .LVU137
 236:HW_Lib/AT32F435/BSP/Bsp_DMA.c **** }
 550              		.loc 1 236 12 is_stmt 0 view .LVU138
 551 0050 0120     		movs	r0, #1
 552              	.LVL60:
 553              	.L49:
 237:HW_Lib/AT32F435/BSP/Bsp_DMA.c **** 
 554              		.loc 1 237 1 view .LVU139
 555 0052 70BD     		pop	{r4, r5, r6, pc}
 556              	.LVL61:
 557              	.L56:
 202:HW_Lib/AT32F435/BSP/Bsp_DMA.c ****             case Bsp_DMA_Stream_4: irq = DMA1_Channel4_IRQn; break;
 558              		.loc 1 202 36 is_stmt 1 view .LVU140
 202:HW_Lib/AT32F435/BSP/Bsp_DMA.c ****             case Bsp_DMA_Stream_4: irq = DMA1_Channel4_IRQn; break;
 559              		.loc 1 202 62 view .LVU141
 202:HW_Lib/AT32F435/BSP/Bsp_DMA.c ****             case Bsp_DMA_Stream_4: irq = DMA1_Channel4_IRQn; break;
 560              		.loc 1 202 40 is_stmt 0 view .LVU142
 561 0054 3A26     		movs	r6, #58
 202:HW_Lib/AT32F435/BSP/Bsp_DMA.c ****             case Bsp_DMA_Stream_4: irq = DMA1_Channel4_IRQn; break;
 562              		.loc 1 202 13 view .LVU143
 563 0056 E3E7     		b	.L57
 564              	.LVL62:
 565              	.L55:
 203:HW_Lib/AT32F435/BSP/Bsp_DMA.c ****             case Bsp_DMA_Stream_5: irq = DMA1_Channel5_IRQn; break;
 566              		.loc 1 203 36 is_stmt 1 view .LVU144
 203:HW_Lib/AT32F435/BSP/Bsp_DMA.c ****             case Bsp_DMA_Stream_5: irq = DMA1_Channel5_IRQn; break;
 567              		.loc 1 203 62 view .LVU145
 203:HW_Lib/AT32F435/BSP/Bsp_DMA.c ****             case Bsp_DMA_Stream_5: irq = DMA1_Channel5_IRQn; break;
 568              		.loc 1 203 40 is_stmt 0 view .LVU146
 569 0058 3B26     		movs	r6, #59
 203:HW_Lib/AT32F435/BSP/Bsp_DMA.c ****             case Bsp_DMA_Stream_5: irq = DMA1_Channel5_IRQn; break;
 570              		.loc 1 203 13 view .LVU147
 571 005a E1E7     		b	.L57
 572              	.LVL63:
 573              	.L54:
 204:HW_Lib/AT32F435/BSP/Bsp_DMA.c ****             case Bsp_DMA_Stream_6: irq = DMA1_Channel6_IRQn; break;
 574              		.loc 1 204 36 is_stmt 1 view .LVU148
 204:HW_Lib/AT32F435/BSP/Bsp_DMA.c ****             case Bsp_DMA_Stream_6: irq = DMA1_Channel6_IRQn; break;
 575              		.loc 1 204 62 view .LVU149
 204:HW_Lib/AT32F435/BSP/Bsp_DMA.c ****             case Bsp_DMA_Stream_6: irq = DMA1_Channel6_IRQn; break;
 576              		.loc 1 204 40 is_stmt 0 view .LVU150
 577 005c 3C26     		movs	r6, #60
 204:HW_Lib/AT32F435/BSP/Bsp_DMA.c ****             case Bsp_DMA_Stream_6: irq = DMA1_Channel6_IRQn; break;
 578              		.loc 1 204 13 view .LVU151
 579 005e DFE7     		b	.L57
 580              	.LVL64:
 581              	.L53:
 205:HW_Lib/AT32F435/BSP/Bsp_DMA.c ****             case Bsp_DMA_Stream_7: irq = DMA1_Channel7_IRQn; break;
 582              		.loc 1 205 36 is_stmt 1 view .LVU152
 205:HW_Lib/AT32F435/BSP/Bsp_DMA.c ****             case Bsp_DMA_Stream_7: irq = DMA1_Channel7_IRQn; break;
 583              		.loc 1 205 62 view .LVU153
 205:HW_Lib/AT32F435/BSP/Bsp_DMA.c ****             case Bsp_DMA_Stream_7: irq = DMA1_Channel7_IRQn; break;
 584              		.loc 1 205 40 is_stmt 0 view .LVU154
 585 0060 4426     		movs	r6, #68
 205:HW_Lib/AT32F435/BSP/Bsp_DMA.c ****             case Bsp_DMA_Stream_7: irq = DMA1_Channel7_IRQn; break;
 586              		.loc 1 205 13 view .LVU155
 587 0062 DDE7     		b	.L57
ARM GAS  C:\Users\8bit\AppData\Local\Temp\ccexJHsx.s 			page 20


 588              	.LVL65:
 589              	.L51:
 206:HW_Lib/AT32F435/BSP/Bsp_DMA.c ****             default: return false;
 590              		.loc 1 206 36 is_stmt 1 view .LVU156
 206:HW_Lib/AT32F435/BSP/Bsp_DMA.c ****             default: return false;
 591              		.loc 1 206 62 view .LVU157
 206:HW_Lib/AT32F435/BSP/Bsp_DMA.c ****             default: return false;
 592              		.loc 1 206 40 is_stmt 0 view .LVU158
 593 0064 4526     		movs	r6, #69
 206:HW_Lib/AT32F435/BSP/Bsp_DMA.c ****             default: return false;
 594              		.loc 1 206 13 view .LVU159
 595 0066 DBE7     		b	.L57
 596              	.LVL66:
 597              	.L71:
 201:HW_Lib/AT32F435/BSP/Bsp_DMA.c ****             case Bsp_DMA_Stream_3: irq = DMA1_Channel3_IRQn; break;
 598              		.loc 1 201 40 view .LVU160
 599 0068 3926     		movs	r6, #57
 600 006a D9E7     		b	.L57
 601              	.L50:
 212:HW_Lib/AT32F435/BSP/Bsp_DMA.c ****     {
 602              		.loc 1 212 10 is_stmt 1 view .LVU161
 212:HW_Lib/AT32F435/BSP/Bsp_DMA.c ****     {
 603              		.loc 1 212 13 is_stmt 0 view .LVU162
 604 006c 012D     		cmp	r5, #1
 605 006e 1FD1     		bne	.L72
 214:HW_Lib/AT32F435/BSP/Bsp_DMA.c ****         {
 606              		.loc 1 214 9 is_stmt 1 view .LVU163
 607 0070 0629     		cmp	r1, #6
 608 0072 1FD8     		bhi	.L73
 609 0074 DFE801F0 		tbb	[pc, r1]
 610              	.L61:
 611 0078 04       		.byte	(.L67-.L61)/2
 612 0079 14       		.byte	(.L74-.L61)/2
 613 007a 0A       		.byte	(.L65-.L61)/2
 614 007b 0C       		.byte	(.L64-.L61)/2
 615 007c 0E       		.byte	(.L63-.L61)/2
 616 007d 10       		.byte	(.L62-.L61)/2
 617 007e 12       		.byte	(.L60-.L61)/2
 618 007f 00       		.p2align 1
 619              	.L67:
 620 0080 6C26     		movs	r6, #108
 621              	.L66:
 622              	.LVL67:
 226:HW_Lib/AT32F435/BSP/Bsp_DMA.c ****     }
 623              		.loc 1 226 9 view .LVU164
 226:HW_Lib/AT32F435/BSP/Bsp_DMA.c ****     }
 624              		.loc 1 226 43 is_stmt 0 view .LVU165
 625 0082 0E4B     		ldr	r3, .L76+4
 626 0084 0022     		movs	r2, #0
 627 0086 43F82420 		str	r2, [r3, r4, lsl #2]
 628 008a CDE7     		b	.L59
 629              	.LVL68:
 630              	.L65:
 218:HW_Lib/AT32F435/BSP/Bsp_DMA.c ****             case Bsp_DMA_Stream_4: irq = DMA2_Channel4_IRQn; break;
 631              		.loc 1 218 36 is_stmt 1 view .LVU166
 218:HW_Lib/AT32F435/BSP/Bsp_DMA.c ****             case Bsp_DMA_Stream_4: irq = DMA2_Channel4_IRQn; break;
 632              		.loc 1 218 62 view .LVU167
ARM GAS  C:\Users\8bit\AppData\Local\Temp\ccexJHsx.s 			page 21


 218:HW_Lib/AT32F435/BSP/Bsp_DMA.c ****             case Bsp_DMA_Stream_4: irq = DMA2_Channel4_IRQn; break;
 633              		.loc 1 218 40 is_stmt 0 view .LVU168
 634 008c 6E26     		movs	r6, #110
 218:HW_Lib/AT32F435/BSP/Bsp_DMA.c ****             case Bsp_DMA_Stream_4: irq = DMA2_Channel4_IRQn; break;
 635              		.loc 1 218 13 view .LVU169
 636 008e F8E7     		b	.L66
 637              	.LVL69:
 638              	.L64:
 219:HW_Lib/AT32F435/BSP/Bsp_DMA.c ****             case Bsp_DMA_Stream_5: irq = DMA2_Channel5_IRQn; break;
 639              		.loc 1 219 36 is_stmt 1 view .LVU170
 219:HW_Lib/AT32F435/BSP/Bsp_DMA.c ****             case Bsp_DMA_Stream_5: irq = DMA2_Channel5_IRQn; break;
 640              		.loc 1 219 62 view .LVU171
 219:HW_Lib/AT32F435/BSP/Bsp_DMA.c ****             case Bsp_DMA_Stream_5: irq = DMA2_Channel5_IRQn; break;
 641              		.loc 1 219 40 is_stmt 0 view .LVU172
 642 0090 6F26     		movs	r6, #111
 219:HW_Lib/AT32F435/BSP/Bsp_DMA.c ****             case Bsp_DMA_Stream_5: irq = DMA2_Channel5_IRQn; break;
 643              		.loc 1 219 13 view .LVU173
 644 0092 F6E7     		b	.L66
 645              	.LVL70:
 646              	.L63:
 220:HW_Lib/AT32F435/BSP/Bsp_DMA.c ****             case Bsp_DMA_Stream_6: irq = DMA2_Channel6_IRQn; break;
 647              		.loc 1 220 36 is_stmt 1 view .LVU174
 220:HW_Lib/AT32F435/BSP/Bsp_DMA.c ****             case Bsp_DMA_Stream_6: irq = DMA2_Channel6_IRQn; break;
 648              		.loc 1 220 62 view .LVU175
 220:HW_Lib/AT32F435/BSP/Bsp_DMA.c ****             case Bsp_DMA_Stream_6: irq = DMA2_Channel6_IRQn; break;
 649              		.loc 1 220 40 is_stmt 0 view .LVU176
 650 0094 7026     		movs	r6, #112
 220:HW_Lib/AT32F435/BSP/Bsp_DMA.c ****             case Bsp_DMA_Stream_6: irq = DMA2_Channel6_IRQn; break;
 651              		.loc 1 220 13 view .LVU177
 652 0096 F4E7     		b	.L66
 653              	.LVL71:
 654              	.L62:
 221:HW_Lib/AT32F435/BSP/Bsp_DMA.c ****             case Bsp_DMA_Stream_7: irq = DMA2_Channel7_IRQn; break;
 655              		.loc 1 221 36 is_stmt 1 view .LVU178
 221:HW_Lib/AT32F435/BSP/Bsp_DMA.c ****             case Bsp_DMA_Stream_7: irq = DMA2_Channel7_IRQn; break;
 656              		.loc 1 221 62 view .LVU179
 221:HW_Lib/AT32F435/BSP/Bsp_DMA.c ****             case Bsp_DMA_Stream_7: irq = DMA2_Channel7_IRQn; break;
 657              		.loc 1 221 40 is_stmt 0 view .LVU180
 658 0098 7126     		movs	r6, #113
 221:HW_Lib/AT32F435/BSP/Bsp_DMA.c ****             case Bsp_DMA_Stream_7: irq = DMA2_Channel7_IRQn; break;
 659              		.loc 1 221 13 view .LVU181
 660 009a F2E7     		b	.L66
 661              	.LVL72:
 662              	.L60:
 222:HW_Lib/AT32F435/BSP/Bsp_DMA.c ****             default: return false;
 663              		.loc 1 222 36 is_stmt 1 view .LVU182
 222:HW_Lib/AT32F435/BSP/Bsp_DMA.c ****             default: return false;
 664              		.loc 1 222 62 view .LVU183
 222:HW_Lib/AT32F435/BSP/Bsp_DMA.c ****             default: return false;
 665              		.loc 1 222 40 is_stmt 0 view .LVU184
 666 009c 7226     		movs	r6, #114
 222:HW_Lib/AT32F435/BSP/Bsp_DMA.c ****             default: return false;
 667              		.loc 1 222 13 view .LVU185
 668 009e F0E7     		b	.L66
 669              	.LVL73:
 670              	.L74:
 217:HW_Lib/AT32F435/BSP/Bsp_DMA.c ****             case Bsp_DMA_Stream_3: irq = DMA2_Channel3_IRQn; break;
ARM GAS  C:\Users\8bit\AppData\Local\Temp\ccexJHsx.s 			page 22


 671              		.loc 1 217 40 view .LVU186
 672 00a0 6D26     		movs	r6, #109
 673 00a2 EEE7     		b	.L66
 674              	.L68:
 194:HW_Lib/AT32F435/BSP/Bsp_DMA.c **** 
 675              		.loc 1 194 16 view .LVU187
 676 00a4 0020     		movs	r0, #0
 677              	.LVL74:
 194:HW_Lib/AT32F435/BSP/Bsp_DMA.c **** 
 678              		.loc 1 194 16 view .LVU188
 679 00a6 D4E7     		b	.L49
 680              	.LVL75:
 681              	.L69:
 194:HW_Lib/AT32F435/BSP/Bsp_DMA.c **** 
 682              		.loc 1 194 16 view .LVU189
 683 00a8 0020     		movs	r0, #0
 684              	.LVL76:
 194:HW_Lib/AT32F435/BSP/Bsp_DMA.c **** 
 685              		.loc 1 194 16 view .LVU190
 686 00aa D2E7     		b	.L49
 687              	.LVL77:
 688              	.L70:
 198:HW_Lib/AT32F435/BSP/Bsp_DMA.c ****         {
 689              		.loc 1 198 9 view .LVU191
 690 00ac 0020     		movs	r0, #0
 691              	.LVL78:
 198:HW_Lib/AT32F435/BSP/Bsp_DMA.c ****         {
 692              		.loc 1 198 9 view .LVU192
 693 00ae D0E7     		b	.L49
 694              	.LVL79:
 695              	.L72:
 229:HW_Lib/AT32F435/BSP/Bsp_DMA.c ****     
 696              		.loc 1 229 16 view .LVU193
 697 00b0 0020     		movs	r0, #0
 698              	.LVL80:
 229:HW_Lib/AT32F435/BSP/Bsp_DMA.c ****     
 699              		.loc 1 229 16 view .LVU194
 700 00b2 CEE7     		b	.L49
 701              	.LVL81:
 702              	.L73:
 214:HW_Lib/AT32F435/BSP/Bsp_DMA.c ****         {
 703              		.loc 1 214 9 view .LVU195
 704 00b4 0020     		movs	r0, #0
 705              	.LVL82:
 214:HW_Lib/AT32F435/BSP/Bsp_DMA.c ****         {
 706              		.loc 1 214 9 view .LVU196
 707 00b6 CCE7     		b	.L49
 708              	.L77:
 709              		.align	2
 710              	.L76:
 711 00b8 00000000 		.word	.LANCHOR6
 712 00bc 00000000 		.word	.LANCHOR7
 713              		.cfi_endproc
 714              	.LFE137:
 716              		.section	.text.BspDMA_Pipe_DeInit,"ax",%progbits
 717              		.align	1
 718              		.syntax unified
ARM GAS  C:\Users\8bit\AppData\Local\Temp\ccexJHsx.s 			page 23


 719              		.thumb
 720              		.thumb_func
 722              	BspDMA_Pipe_DeInit:
 723              	.LFB139:
 349:HW_Lib/AT32F435/BSP/Bsp_DMA.c ****     return BspDMA_DisableIRQ(Bsp_DMA_2, Bsp_DMA_Stream_7);
 724              		.loc 1 349 1 is_stmt 1 view -0
 725              		.cfi_startproc
 726              		@ args = 0, pretend = 0, frame = 0
 727              		@ frame_needed = 0, uses_anonymous_args = 0
 728 0000 08B5     		push	{r3, lr}
 729              	.LCFI2:
 730              		.cfi_def_cfa_offset 8
 731              		.cfi_offset 3, -8
 732              		.cfi_offset 14, -4
 350:HW_Lib/AT32F435/BSP/Bsp_DMA.c **** }
 733              		.loc 1 350 5 view .LVU198
 350:HW_Lib/AT32F435/BSP/Bsp_DMA.c **** }
 734              		.loc 1 350 12 is_stmt 0 view .LVU199
 735 0002 0621     		movs	r1, #6
 736 0004 0120     		movs	r0, #1
 737 0006 FFF7FEFF 		bl	BspDMA_DisableIRQ
 738              	.LVL83:
 351:HW_Lib/AT32F435/BSP/Bsp_DMA.c **** 
 739              		.loc 1 351 1 view .LVU200
 740 000a 08BD     		pop	{r3, pc}
 741              		.cfi_endproc
 742              	.LFE139:
 744              		.section	.text.BspDMA_EnableIRQ,"ax",%progbits
 745              		.align	1
 746              		.syntax unified
 747              		.thumb
 748              		.thumb_func
 750              	BspDMA_EnableIRQ:
 751              	.LVL84:
 752              	.LFB138:
 240:HW_Lib/AT32F435/BSP/Bsp_DMA.c ****     IRQn_Type irq;
 753              		.loc 1 240 1 is_stmt 1 view -0
 754              		.cfi_startproc
 755              		@ args = 8, pretend = 0, frame = 0
 756              		@ frame_needed = 0, uses_anonymous_args = 0
 240:HW_Lib/AT32F435/BSP/Bsp_DMA.c ****     IRQn_Type irq;
 757              		.loc 1 240 1 is_stmt 0 view .LVU202
 758 0000 2DE9F041 		push	{r4, r5, r6, r7, r8, lr}
 759              	.LCFI3:
 760              		.cfi_def_cfa_offset 24
 761              		.cfi_offset 4, -24
 762              		.cfi_offset 5, -20
 763              		.cfi_offset 6, -16
 764              		.cfi_offset 7, -12
 765              		.cfi_offset 8, -8
 766              		.cfi_offset 14, -4
 241:HW_Lib/AT32F435/BSP/Bsp_DMA.c ****     dmamux_channel_type *dmamux = NULL;
 767              		.loc 1 241 5 is_stmt 1 view .LVU203
 242:HW_Lib/AT32F435/BSP/Bsp_DMA.c **** 
 768              		.loc 1 242 5 view .LVU204
 769              	.LVL85:
 244:HW_Lib/AT32F435/BSP/Bsp_DMA.c ****         return;
ARM GAS  C:\Users\8bit\AppData\Local\Temp\ccexJHsx.s 			page 24


 770              		.loc 1 244 5 view .LVU205
 244:HW_Lib/AT32F435/BSP/Bsp_DMA.c ****         return;
 771              		.loc 1 244 8 is_stmt 0 view .LVU206
 772 0004 051E     		subs	r5, r0, #0
 773 0006 29DB     		blt	.L80
 774 0008 0C46     		mov	r4, r1
 775 000a 1746     		mov	r7, r2
 776 000c 1E46     		mov	r6, r3
 244:HW_Lib/AT32F435/BSP/Bsp_DMA.c ****         return;
 777              		.loc 1 244 27 discriminator 1 view .LVU207
 778 000e 0029     		cmp	r1, #0
 779 0010 24DB     		blt	.L80
 247:HW_Lib/AT32F435/BSP/Bsp_DMA.c ****     {
 780              		.loc 1 247 5 is_stmt 1 view .LVU208
 247:HW_Lib/AT32F435/BSP/Bsp_DMA.c ****     {
 781              		.loc 1 247 8 is_stmt 0 view .LVU209
 782 0012 002D     		cmp	r5, #0
 783 0014 3CD1     		bne	.L82
 249:HW_Lib/AT32F435/BSP/Bsp_DMA.c ****         {
 784              		.loc 1 249 9 is_stmt 1 view .LVU210
 785 0016 0629     		cmp	r1, #6
 786 0018 20D8     		bhi	.L80
 787 001a DFE801F0 		tbb	[pc, r1]
 788              	.LVL86:
 789              	.L84:
 790 001e 04       		.byte	(.L90-.L84)/2
 791 001f 35       		.byte	(.L100-.L84)/2
 792 0020 21       		.byte	(.L88-.L84)/2
 793 0021 25       		.byte	(.L87-.L84)/2
 794 0022 29       		.byte	(.L86-.L84)/2
 795 0023 2D       		.byte	(.L85-.L84)/2
 796 0024 31       		.byte	(.L83-.L84)/2
 797 0025 00       		.p2align 1
 798              	.L90:
 249:HW_Lib/AT32F435/BSP/Bsp_DMA.c ****         {
 799              		.loc 1 249 9 is_stmt 0 view .LVU211
 800 0026 2F48     		ldr	r0, .L103
 801              	.LVL87:
 249:HW_Lib/AT32F435/BSP/Bsp_DMA.c ****         {
 802              		.loc 1 249 9 view .LVU212
 803 0028 4FF03808 		mov	r8, #56
 804              	.LVL88:
 805              	.L89:
 290:HW_Lib/AT32F435/BSP/Bsp_DMA.c ****     }
 806              		.loc 1 290 9 is_stmt 1 view .LVU213
 290:HW_Lib/AT32F435/BSP/Bsp_DMA.c ****     }
 807              		.loc 1 290 43 is_stmt 0 view .LVU214
 808 002c 2E4B     		ldr	r3, .L103+4
 809 002e 079A     		ldr	r2, [sp, #28]
 810              	.LVL89:
 290:HW_Lib/AT32F435/BSP/Bsp_DMA.c ****     }
 811              		.loc 1 290 43 view .LVU215
 812 0030 43F82420 		str	r2, [r3, r4, lsl #2]
 813              	.L91:
 340:HW_Lib/AT32F435/BSP/Bsp_DMA.c ****         dmamux_init(dmamux, (dmamux_requst_id_sel_type)mux_seq);
 814              		.loc 1 340 5 is_stmt 1 view .LVU216
 341:HW_Lib/AT32F435/BSP/Bsp_DMA.c **** 
ARM GAS  C:\Users\8bit\AppData\Local\Temp\ccexJHsx.s 			page 25


 815              		.loc 1 341 9 view .LVU217
 816 0034 9DF81810 		ldrb	r1, [sp, #24]	@ zero_extendqisi2
 817              	.LVL90:
 341:HW_Lib/AT32F435/BSP/Bsp_DMA.c **** 
 818              		.loc 1 341 9 is_stmt 0 view .LVU218
 819 0038 FFF7FEFF 		bl	dmamux_init
 820              	.LVL91:
 343:HW_Lib/AT32F435/BSP/Bsp_DMA.c ****     nvic_priority_group_config(NVIC_PRIORITY_GROUP_4);
 821              		.loc 1 343 5 is_stmt 1 view .LVU219
 343:HW_Lib/AT32F435/BSP/Bsp_DMA.c ****     nvic_priority_group_config(NVIC_PRIORITY_GROUP_4);
 822              		.loc 1 343 46 is_stmt 0 view .LVU220
 823 003c 2146     		mov	r1, r4
 824 003e 2846     		mov	r0, r5
 825 0040 FFF7FEFF 		bl	BspDMA_Get_Instance
 826              	.LVL92:
 343:HW_Lib/AT32F435/BSP/Bsp_DMA.c ****     nvic_priority_group_config(NVIC_PRIORITY_GROUP_4);
 827              		.loc 1 343 5 view .LVU221
 828 0044 0122     		movs	r2, #1
 829 0046 0221     		movs	r1, #2
 830 0048 FFF7FEFF 		bl	dma_interrupt_enable
 831              	.LVL93:
 344:HW_Lib/AT32F435/BSP/Bsp_DMA.c ****     nvic_irq_enable(irq, preempt, sub);
 832              		.loc 1 344 5 is_stmt 1 view .LVU222
 833 004c 0320     		movs	r0, #3
 834 004e FFF7FEFF 		bl	nvic_priority_group_config
 835              	.LVL94:
 345:HW_Lib/AT32F435/BSP/Bsp_DMA.c **** }
 836              		.loc 1 345 5 view .LVU223
 837 0052 3246     		mov	r2, r6
 838 0054 3946     		mov	r1, r7
 839 0056 4046     		mov	r0, r8
 840 0058 FFF7FEFF 		bl	nvic_irq_enable
 841              	.LVL95:
 842              	.L80:
 346:HW_Lib/AT32F435/BSP/Bsp_DMA.c **** 
 843              		.loc 1 346 1 is_stmt 0 view .LVU224
 844 005c BDE8F081 		pop	{r4, r5, r6, r7, r8, pc}
 845              	.LVL96:
 846              	.L88:
 262:HW_Lib/AT32F435/BSP/Bsp_DMA.c ****             dmamux = DMA1MUX_CHANNEL3;
 847              		.loc 1 262 13 is_stmt 1 view .LVU225
 263:HW_Lib/AT32F435/BSP/Bsp_DMA.c ****             break;
 848              		.loc 1 263 13 view .LVU226
 264:HW_Lib/AT32F435/BSP/Bsp_DMA.c **** 
 849              		.loc 1 264 13 view .LVU227
 263:HW_Lib/AT32F435/BSP/Bsp_DMA.c ****             break;
 850              		.loc 1 263 20 is_stmt 0 view .LVU228
 851 0060 2248     		ldr	r0, .L103+8
 852              	.LVL97:
 262:HW_Lib/AT32F435/BSP/Bsp_DMA.c ****             dmamux = DMA1MUX_CHANNEL3;
 853              		.loc 1 262 17 view .LVU229
 854 0062 4FF03A08 		mov	r8, #58
 264:HW_Lib/AT32F435/BSP/Bsp_DMA.c **** 
 855              		.loc 1 264 13 view .LVU230
 856 0066 E1E7     		b	.L89
 857              	.LVL98:
 858              	.L87:
ARM GAS  C:\Users\8bit\AppData\Local\Temp\ccexJHsx.s 			page 26


 267:HW_Lib/AT32F435/BSP/Bsp_DMA.c ****             dmamux = DMA1MUX_CHANNEL4;
 859              		.loc 1 267 13 is_stmt 1 view .LVU231
 268:HW_Lib/AT32F435/BSP/Bsp_DMA.c ****             break;
 860              		.loc 1 268 13 view .LVU232
 269:HW_Lib/AT32F435/BSP/Bsp_DMA.c **** 
 861              		.loc 1 269 13 view .LVU233
 268:HW_Lib/AT32F435/BSP/Bsp_DMA.c ****             break;
 862              		.loc 1 268 20 is_stmt 0 view .LVU234
 863 0068 2148     		ldr	r0, .L103+12
 864              	.LVL99:
 267:HW_Lib/AT32F435/BSP/Bsp_DMA.c ****             dmamux = DMA1MUX_CHANNEL4;
 865              		.loc 1 267 17 view .LVU235
 866 006a 4FF03B08 		mov	r8, #59
 269:HW_Lib/AT32F435/BSP/Bsp_DMA.c **** 
 867              		.loc 1 269 13 view .LVU236
 868 006e DDE7     		b	.L89
 869              	.LVL100:
 870              	.L86:
 272:HW_Lib/AT32F435/BSP/Bsp_DMA.c ****             dmamux = DMA1MUX_CHANNEL5;
 871              		.loc 1 272 13 is_stmt 1 view .LVU237
 273:HW_Lib/AT32F435/BSP/Bsp_DMA.c ****             break;
 872              		.loc 1 273 13 view .LVU238
 274:HW_Lib/AT32F435/BSP/Bsp_DMA.c **** 
 873              		.loc 1 274 13 view .LVU239
 273:HW_Lib/AT32F435/BSP/Bsp_DMA.c ****             break;
 874              		.loc 1 273 20 is_stmt 0 view .LVU240
 875 0070 2048     		ldr	r0, .L103+16
 876              	.LVL101:
 272:HW_Lib/AT32F435/BSP/Bsp_DMA.c ****             dmamux = DMA1MUX_CHANNEL5;
 877              		.loc 1 272 17 view .LVU241
 878 0072 4FF03C08 		mov	r8, #60
 274:HW_Lib/AT32F435/BSP/Bsp_DMA.c **** 
 879              		.loc 1 274 13 view .LVU242
 880 0076 D9E7     		b	.L89
 881              	.LVL102:
 882              	.L85:
 277:HW_Lib/AT32F435/BSP/Bsp_DMA.c ****             dmamux = DMA1MUX_CHANNEL6;
 883              		.loc 1 277 13 is_stmt 1 view .LVU243
 278:HW_Lib/AT32F435/BSP/Bsp_DMA.c ****             break;
 884              		.loc 1 278 13 view .LVU244
 279:HW_Lib/AT32F435/BSP/Bsp_DMA.c **** 
 885              		.loc 1 279 13 view .LVU245
 278:HW_Lib/AT32F435/BSP/Bsp_DMA.c ****             break;
 886              		.loc 1 278 20 is_stmt 0 view .LVU246
 887 0078 1F48     		ldr	r0, .L103+20
 888              	.LVL103:
 277:HW_Lib/AT32F435/BSP/Bsp_DMA.c ****             dmamux = DMA1MUX_CHANNEL6;
 889              		.loc 1 277 17 view .LVU247
 890 007a 4FF04408 		mov	r8, #68
 279:HW_Lib/AT32F435/BSP/Bsp_DMA.c **** 
 891              		.loc 1 279 13 view .LVU248
 892 007e D5E7     		b	.L89
 893              	.LVL104:
 894              	.L83:
 282:HW_Lib/AT32F435/BSP/Bsp_DMA.c ****             dmamux = DMA1MUX_CHANNEL7;
 895              		.loc 1 282 13 is_stmt 1 view .LVU249
 283:HW_Lib/AT32F435/BSP/Bsp_DMA.c ****             break;
ARM GAS  C:\Users\8bit\AppData\Local\Temp\ccexJHsx.s 			page 27


 896              		.loc 1 283 13 view .LVU250
 284:HW_Lib/AT32F435/BSP/Bsp_DMA.c **** 
 897              		.loc 1 284 13 view .LVU251
 283:HW_Lib/AT32F435/BSP/Bsp_DMA.c ****             break;
 898              		.loc 1 283 20 is_stmt 0 view .LVU252
 899 0080 1E48     		ldr	r0, .L103+24
 900              	.LVL105:
 282:HW_Lib/AT32F435/BSP/Bsp_DMA.c ****             dmamux = DMA1MUX_CHANNEL7;
 901              		.loc 1 282 17 view .LVU253
 902 0082 4FF04508 		mov	r8, #69
 284:HW_Lib/AT32F435/BSP/Bsp_DMA.c **** 
 903              		.loc 1 284 13 view .LVU254
 904 0086 D1E7     		b	.L89
 905              	.LVL106:
 906              	.L100:
 258:HW_Lib/AT32F435/BSP/Bsp_DMA.c ****             break;
 907              		.loc 1 258 20 view .LVU255
 908 0088 1D48     		ldr	r0, .L103+28
 909              	.LVL107:
 257:HW_Lib/AT32F435/BSP/Bsp_DMA.c ****             dmamux = DMA1MUX_CHANNEL2;
 910              		.loc 1 257 17 view .LVU256
 911 008a 4FF03908 		mov	r8, #57
 912 008e CDE7     		b	.L89
 913              	.LVL108:
 914              	.L82:
 292:HW_Lib/AT32F435/BSP/Bsp_DMA.c ****     {
 915              		.loc 1 292 10 is_stmt 1 view .LVU257
 292:HW_Lib/AT32F435/BSP/Bsp_DMA.c ****     {
 916              		.loc 1 292 13 is_stmt 0 view .LVU258
 917 0090 012D     		cmp	r5, #1
 918 0092 E3D1     		bne	.L80
 294:HW_Lib/AT32F435/BSP/Bsp_DMA.c ****         {
 919              		.loc 1 294 9 is_stmt 1 view .LVU259
 920 0094 0629     		cmp	r1, #6
 921 0096 E1D8     		bhi	.L80
 922 0098 DFE801F0 		tbb	[pc, r1]
 923              	.LVL109:
 924              	.L93:
 925 009c 04       		.byte	(.L99-.L93)/2
 926 009d 20       		.byte	(.L101-.L93)/2
 927 009e 0C       		.byte	(.L97-.L93)/2
 928 009f 10       		.byte	(.L96-.L93)/2
 929 00a0 14       		.byte	(.L95-.L93)/2
 930 00a1 18       		.byte	(.L94-.L93)/2
 931 00a2 1C       		.byte	(.L92-.L93)/2
 932 00a3 00       		.p2align 1
 933              	.L99:
 294:HW_Lib/AT32F435/BSP/Bsp_DMA.c ****         {
 934              		.loc 1 294 9 is_stmt 0 view .LVU260
 935 00a4 1748     		ldr	r0, .L103+32
 936              	.LVL110:
 294:HW_Lib/AT32F435/BSP/Bsp_DMA.c ****         {
 937              		.loc 1 294 9 view .LVU261
 938 00a6 4FF06C08 		mov	r8, #108
 939              	.LVL111:
 940              	.L98:
 335:HW_Lib/AT32F435/BSP/Bsp_DMA.c ****     }
ARM GAS  C:\Users\8bit\AppData\Local\Temp\ccexJHsx.s 			page 28


 941              		.loc 1 335 9 is_stmt 1 view .LVU262
 335:HW_Lib/AT32F435/BSP/Bsp_DMA.c ****     }
 942              		.loc 1 335 43 is_stmt 0 view .LVU263
 943 00aa 174B     		ldr	r3, .L103+36
 944 00ac 079A     		ldr	r2, [sp, #28]
 945              	.LVL112:
 335:HW_Lib/AT32F435/BSP/Bsp_DMA.c ****     }
 946              		.loc 1 335 43 view .LVU264
 947 00ae 43F82420 		str	r2, [r3, r4, lsl #2]
 948 00b2 BFE7     		b	.L91
 949              	.LVL113:
 950              	.L97:
 307:HW_Lib/AT32F435/BSP/Bsp_DMA.c ****             dmamux = DMA2MUX_CHANNEL3;
 951              		.loc 1 307 13 is_stmt 1 view .LVU265
 308:HW_Lib/AT32F435/BSP/Bsp_DMA.c ****             break;
 952              		.loc 1 308 13 view .LVU266
 309:HW_Lib/AT32F435/BSP/Bsp_DMA.c **** 
 953              		.loc 1 309 13 view .LVU267
 308:HW_Lib/AT32F435/BSP/Bsp_DMA.c ****             break;
 954              		.loc 1 308 20 is_stmt 0 view .LVU268
 955 00b4 1548     		ldr	r0, .L103+40
 956              	.LVL114:
 307:HW_Lib/AT32F435/BSP/Bsp_DMA.c ****             dmamux = DMA2MUX_CHANNEL3;
 957              		.loc 1 307 17 view .LVU269
 958 00b6 4FF06E08 		mov	r8, #110
 309:HW_Lib/AT32F435/BSP/Bsp_DMA.c **** 
 959              		.loc 1 309 13 view .LVU270
 960 00ba F6E7     		b	.L98
 961              	.LVL115:
 962              	.L96:
 312:HW_Lib/AT32F435/BSP/Bsp_DMA.c ****             dmamux = DMA2MUX_CHANNEL4;
 963              		.loc 1 312 13 is_stmt 1 view .LVU271
 313:HW_Lib/AT32F435/BSP/Bsp_DMA.c ****             break;
 964              		.loc 1 313 13 view .LVU272
 314:HW_Lib/AT32F435/BSP/Bsp_DMA.c **** 
 965              		.loc 1 314 13 view .LVU273
 313:HW_Lib/AT32F435/BSP/Bsp_DMA.c ****             break;
 966              		.loc 1 313 20 is_stmt 0 view .LVU274
 967 00bc 1448     		ldr	r0, .L103+44
 968              	.LVL116:
 312:HW_Lib/AT32F435/BSP/Bsp_DMA.c ****             dmamux = DMA2MUX_CHANNEL4;
 969              		.loc 1 312 17 view .LVU275
 970 00be 4FF06F08 		mov	r8, #111
 314:HW_Lib/AT32F435/BSP/Bsp_DMA.c **** 
 971              		.loc 1 314 13 view .LVU276
 972 00c2 F2E7     		b	.L98
 973              	.LVL117:
 974              	.L95:
 317:HW_Lib/AT32F435/BSP/Bsp_DMA.c ****             dmamux = DMA2MUX_CHANNEL5;
 975              		.loc 1 317 13 is_stmt 1 view .LVU277
 318:HW_Lib/AT32F435/BSP/Bsp_DMA.c ****             break;
 976              		.loc 1 318 13 view .LVU278
 319:HW_Lib/AT32F435/BSP/Bsp_DMA.c **** 
 977              		.loc 1 319 13 view .LVU279
 318:HW_Lib/AT32F435/BSP/Bsp_DMA.c ****             break;
 978              		.loc 1 318 20 is_stmt 0 view .LVU280
 979 00c4 1348     		ldr	r0, .L103+48
ARM GAS  C:\Users\8bit\AppData\Local\Temp\ccexJHsx.s 			page 29


 980              	.LVL118:
 317:HW_Lib/AT32F435/BSP/Bsp_DMA.c ****             dmamux = DMA2MUX_CHANNEL5;
 981              		.loc 1 317 17 view .LVU281
 982 00c6 4FF07008 		mov	r8, #112
 319:HW_Lib/AT32F435/BSP/Bsp_DMA.c **** 
 983              		.loc 1 319 13 view .LVU282
 984 00ca EEE7     		b	.L98
 985              	.LVL119:
 986              	.L94:
 322:HW_Lib/AT32F435/BSP/Bsp_DMA.c ****             dmamux = DMA2MUX_CHANNEL6;
 987              		.loc 1 322 13 is_stmt 1 view .LVU283
 323:HW_Lib/AT32F435/BSP/Bsp_DMA.c ****             break;
 988              		.loc 1 323 13 view .LVU284
 324:HW_Lib/AT32F435/BSP/Bsp_DMA.c **** 
 989              		.loc 1 324 13 view .LVU285
 323:HW_Lib/AT32F435/BSP/Bsp_DMA.c ****             break;
 990              		.loc 1 323 20 is_stmt 0 view .LVU286
 991 00cc 1248     		ldr	r0, .L103+52
 992              	.LVL120:
 322:HW_Lib/AT32F435/BSP/Bsp_DMA.c ****             dmamux = DMA2MUX_CHANNEL6;
 993              		.loc 1 322 17 view .LVU287
 994 00ce 4FF07108 		mov	r8, #113
 324:HW_Lib/AT32F435/BSP/Bsp_DMA.c **** 
 995              		.loc 1 324 13 view .LVU288
 996 00d2 EAE7     		b	.L98
 997              	.LVL121:
 998              	.L92:
 327:HW_Lib/AT32F435/BSP/Bsp_DMA.c ****             dmamux = DMA2MUX_CHANNEL7;
 999              		.loc 1 327 13 is_stmt 1 view .LVU289
 328:HW_Lib/AT32F435/BSP/Bsp_DMA.c ****             break;
 1000              		.loc 1 328 13 view .LVU290
 329:HW_Lib/AT32F435/BSP/Bsp_DMA.c **** 
 1001              		.loc 1 329 13 view .LVU291
 328:HW_Lib/AT32F435/BSP/Bsp_DMA.c ****             break;
 1002              		.loc 1 328 20 is_stmt 0 view .LVU292
 1003 00d4 1148     		ldr	r0, .L103+56
 1004              	.LVL122:
 327:HW_Lib/AT32F435/BSP/Bsp_DMA.c ****             dmamux = DMA2MUX_CHANNEL7;
 1005              		.loc 1 327 17 view .LVU293
 1006 00d6 4FF07208 		mov	r8, #114
 329:HW_Lib/AT32F435/BSP/Bsp_DMA.c **** 
 1007              		.loc 1 329 13 view .LVU294
 1008 00da E6E7     		b	.L98
 1009              	.LVL123:
 1010              	.L101:
 303:HW_Lib/AT32F435/BSP/Bsp_DMA.c ****             break;
 1011              		.loc 1 303 20 view .LVU295
 1012 00dc 1048     		ldr	r0, .L103+60
 1013              	.LVL124:
 302:HW_Lib/AT32F435/BSP/Bsp_DMA.c ****             dmamux = DMA2MUX_CHANNEL2;
 1014              		.loc 1 302 17 view .LVU296
 1015 00de 4FF06D08 		mov	r8, #109
 1016 00e2 E2E7     		b	.L98
 1017              	.L104:
 1018              		.align	2
 1019              	.L103:
 1020 00e4 04650240 		.word	1073898756
ARM GAS  C:\Users\8bit\AppData\Local\Temp\ccexJHsx.s 			page 30


 1021 00e8 00000000 		.word	.LANCHOR6
 1022 00ec 0C650240 		.word	1073898764
 1023 00f0 10650240 		.word	1073898768
 1024 00f4 14650240 		.word	1073898772
 1025 00f8 18650240 		.word	1073898776
 1026 00fc 1C650240 		.word	1073898780
 1027 0100 08650240 		.word	1073898760
 1028 0104 04670240 		.word	1073899268
 1029 0108 00000000 		.word	.LANCHOR7
 1030 010c 0C670240 		.word	1073899276
 1031 0110 10670240 		.word	1073899280
 1032 0114 14670240 		.word	1073899284
 1033 0118 18670240 		.word	1073899288
 1034 011c 1C670240 		.word	1073899292
 1035 0120 08670240 		.word	1073899272
 1036              		.cfi_endproc
 1037              	.LFE138:
 1039              		.section	.text.BspDMA_Pipe_Trans,"ax",%progbits
 1040              		.align	1
 1041              		.syntax unified
 1042              		.thumb
 1043              		.thumb_func
 1045              	BspDMA_Pipe_Trans:
 1046              	.LVL125:
 1047              	.LFB141:
 395:HW_Lib/AT32F435/BSP/Bsp_DMA.c ****     if(!DataPipe_DMA_Init)
 1048              		.loc 1 395 1 is_stmt 1 view -0
 1049              		.cfi_startproc
 1050              		@ args = 0, pretend = 0, frame = 0
 1051              		@ frame_needed = 0, uses_anonymous_args = 0
 395:HW_Lib/AT32F435/BSP/Bsp_DMA.c ****     if(!DataPipe_DMA_Init)
 1052              		.loc 1 395 1 is_stmt 0 view .LVU298
 1053 0000 10B5     		push	{r4, lr}
 1054              	.LCFI4:
 1055              		.cfi_def_cfa_offset 8
 1056              		.cfi_offset 4, -8
 1057              		.cfi_offset 14, -4
 396:HW_Lib/AT32F435/BSP/Bsp_DMA.c ****         return false;
 1058              		.loc 1 396 5 is_stmt 1 view .LVU299
 396:HW_Lib/AT32F435/BSP/Bsp_DMA.c ****         return false;
 1059              		.loc 1 396 8 is_stmt 0 view .LVU300
 1060 0002 0F4B     		ldr	r3, .L112
 1061 0004 1C78     		ldrb	r4, [r3]	@ zero_extendqisi2
 396:HW_Lib/AT32F435/BSP/Bsp_DMA.c ****         return false;
 1062              		.loc 1 396 7 view .LVU301
 1063 0006 B4B1     		cbz	r4, .L106
 399:HW_Lib/AT32F435/BSP/Bsp_DMA.c ****         return false;
 1064              		.loc 1 399 5 is_stmt 1 view .LVU302
 399:HW_Lib/AT32F435/BSP/Bsp_DMA.c ****         return false;
 1065              		.loc 1 399 7 is_stmt 0 view .LVU303
 1066 0008 A0B1     		cbz	r0, .L107
 399:HW_Lib/AT32F435/BSP/Bsp_DMA.c ****         return false;
 1067              		.loc 1 399 26 discriminator 1 view .LVU304
 1068 000a B1B1     		cbz	r1, .L108
 399:HW_Lib/AT32F435/BSP/Bsp_DMA.c ****         return false;
 1069              		.loc 1 399 47 discriminator 2 view .LVU305
 1070 000c 0AB9     		cbnz	r2, .L111
ARM GAS  C:\Users\8bit\AppData\Local\Temp\ccexJHsx.s 			page 31


 400:HW_Lib/AT32F435/BSP/Bsp_DMA.c **** 
 1071              		.loc 1 400 16 view .LVU306
 1072 000e 0024     		movs	r4, #0
 1073 0010 11E0     		b	.L106
 1074              	.L111:
 402:HW_Lib/AT32F435/BSP/Bsp_DMA.c ****     DMA2_CHANNEL7->paddr = SrcAddress;
 1075              		.loc 1 402 5 is_stmt 1 view .LVU307
 402:HW_Lib/AT32F435/BSP/Bsp_DMA.c ****     DMA2_CHANNEL7->paddr = SrcAddress;
 1076              		.loc 1 402 26 is_stmt 0 view .LVU308
 1077 0012 0C4B     		ldr	r3, .L112+4
 1078 0014 C3F88C10 		str	r1, [r3, #140]
 403:HW_Lib/AT32F435/BSP/Bsp_DMA.c ****     DMA2_CHANNEL7->dtcnt_bit.cnt = DataLength;
 1079              		.loc 1 403 5 is_stmt 1 view .LVU309
 403:HW_Lib/AT32F435/BSP/Bsp_DMA.c ****     DMA2_CHANNEL7->dtcnt_bit.cnt = DataLength;
 1080              		.loc 1 403 26 is_stmt 0 view .LVU310
 1081 0018 C3F88800 		str	r0, [r3, #136]
 404:HW_Lib/AT32F435/BSP/Bsp_DMA.c ****     dma_channel_enable(DMA2_CHANNEL7, TRUE);
 1082              		.loc 1 404 5 is_stmt 1 view .LVU311
 404:HW_Lib/AT32F435/BSP/Bsp_DMA.c ****     dma_channel_enable(DMA2_CHANNEL7, TRUE);
 1083              		.loc 1 404 34 is_stmt 0 view .LVU312
 1084 001c 92B2     		uxth	r2, r2
 1085              	.LVL126:
 404:HW_Lib/AT32F435/BSP/Bsp_DMA.c ****     dma_channel_enable(DMA2_CHANNEL7, TRUE);
 1086              		.loc 1 404 34 view .LVU313
 1087 001e D3F88410 		ldr	r1, [r3, #132]
 1088              	.LVL127:
 404:HW_Lib/AT32F435/BSP/Bsp_DMA.c ****     dma_channel_enable(DMA2_CHANNEL7, TRUE);
 1089              		.loc 1 404 34 view .LVU314
 1090 0022 62F30F01 		bfi	r1, r2, #0, #16
 1091 0026 C3F88410 		str	r1, [r3, #132]
 405:HW_Lib/AT32F435/BSP/Bsp_DMA.c **** 
 1092              		.loc 1 405 5 is_stmt 1 view .LVU315
 1093 002a 0121     		movs	r1, #1
 1094 002c 0648     		ldr	r0, .L112+8
 1095              	.LVL128:
 405:HW_Lib/AT32F435/BSP/Bsp_DMA.c **** 
 1096              		.loc 1 405 5 is_stmt 0 view .LVU316
 1097 002e FFF7FEFF 		bl	dma_channel_enable
 1098              	.LVL129:
 407:HW_Lib/AT32F435/BSP/Bsp_DMA.c **** }
 1099              		.loc 1 407 5 is_stmt 1 view .LVU317
 407:HW_Lib/AT32F435/BSP/Bsp_DMA.c **** }
 1100              		.loc 1 407 12 is_stmt 0 view .LVU318
 1101 0032 00E0     		b	.L106
 1102              	.LVL130:
 1103              	.L107:
 400:HW_Lib/AT32F435/BSP/Bsp_DMA.c **** 
 1104              		.loc 1 400 16 view .LVU319
 1105 0034 0024     		movs	r4, #0
 1106              	.LVL131:
 1107              	.L106:
 408:HW_Lib/AT32F435/BSP/Bsp_DMA.c **** 
 1108              		.loc 1 408 1 view .LVU320
 1109 0036 2046     		mov	r0, r4
 1110 0038 10BD     		pop	{r4, pc}
 1111              	.LVL132:
 1112              	.L108:
ARM GAS  C:\Users\8bit\AppData\Local\Temp\ccexJHsx.s 			page 32


 400:HW_Lib/AT32F435/BSP/Bsp_DMA.c **** 
 1113              		.loc 1 400 16 view .LVU321
 1114 003a 0024     		movs	r4, #0
 1115 003c FBE7     		b	.L106
 1116              	.L113:
 1117 003e 00BF     		.align	2
 1118              	.L112:
 1119 0040 00000000 		.word	.LANCHOR0
 1120 0044 00660240 		.word	1073899008
 1121 0048 80660240 		.word	1073899136
 1122              		.cfi_endproc
 1123              	.LFE141:
 1125              		.section	.text.BspDMA_Pipe_Init,"ax",%progbits
 1126              		.align	1
 1127              		.syntax unified
 1128              		.thumb
 1129              		.thumb_func
 1131              	BspDMA_Pipe_Init:
 1132              	.LVL133:
 1133              	.LFB140:
 354:HW_Lib/AT32F435/BSP/Bsp_DMA.c ****     dma_init_type dma_init_struct;
 1134              		.loc 1 354 1 is_stmt 1 view -0
 1135              		.cfi_startproc
 1136              		@ args = 0, pretend = 0, frame = 24
 1137              		@ frame_needed = 0, uses_anonymous_args = 0
 354:HW_Lib/AT32F435/BSP/Bsp_DMA.c ****     dma_init_type dma_init_struct;
 1138              		.loc 1 354 1 is_stmt 0 view .LVU323
 1139 0000 2DE9F043 		push	{r4, r5, r6, r7, r8, r9, lr}
 1140              	.LCFI5:
 1141              		.cfi_def_cfa_offset 28
 1142              		.cfi_offset 4, -28
 1143              		.cfi_offset 5, -24
 1144              		.cfi_offset 6, -20
 1145              		.cfi_offset 7, -16
 1146              		.cfi_offset 8, -12
 1147              		.cfi_offset 9, -8
 1148              		.cfi_offset 14, -4
 1149 0004 87B0     		sub	sp, sp, #28
 1150              	.LCFI6:
 1151              		.cfi_def_cfa_offset 56
 1152 0006 0746     		mov	r7, r0
 1153 0008 0E46     		mov	r6, r1
 355:HW_Lib/AT32F435/BSP/Bsp_DMA.c **** 
 1154              		.loc 1 355 5 is_stmt 1 view .LVU324
 358:HW_Lib/AT32F435/BSP/Bsp_DMA.c ****     {
 1155              		.loc 1 358 5 view .LVU325
 358:HW_Lib/AT32F435/BSP/Bsp_DMA.c ****     {
 1156              		.loc 1 358 9 is_stmt 0 view .LVU326
 1157 000a 244B     		ldr	r3, .L118
 1158 000c 1B78     		ldrb	r3, [r3]	@ zero_extendqisi2
 358:HW_Lib/AT32F435/BSP/Bsp_DMA.c ****     {
 1159              		.loc 1 358 8 view .LVU327
 1160 000e 002B     		cmp	r3, #0
 1161 0010 37D0     		beq	.L117
 1162              	.LVL134:
 1163              	.L115:
 366:HW_Lib/AT32F435/BSP/Bsp_DMA.c ****     dma_init_struct.buffer_size = 0;
ARM GAS  C:\Users\8bit\AppData\Local\Temp\ccexJHsx.s 			page 33


 1164              		.loc 1 366 5 is_stmt 1 view .LVU328
 1165 0012 DFF8A080 		ldr	r8, .L118+24
 1166 0016 4046     		mov	r0, r8
 1167 0018 FFF7FEFF 		bl	dma_reset
 1168              	.LVL135:
 367:HW_Lib/AT32F435/BSP/Bsp_DMA.c ****     dma_init_struct.direction = DMA_DIR_MEMORY_TO_MEMORY;
 1169              		.loc 1 367 5 view .LVU329
 367:HW_Lib/AT32F435/BSP/Bsp_DMA.c ****     dma_init_struct.direction = DMA_DIR_MEMORY_TO_MEMORY;
 1170              		.loc 1 367 33 is_stmt 0 view .LVU330
 1171 001c 0024     		movs	r4, #0
 1172 001e ADF80E40 		strh	r4, [sp, #14]	@ movhi
 368:HW_Lib/AT32F435/BSP/Bsp_DMA.c ****     dma_init_struct.memory_base_addr = (uint32_t)0;
 1173              		.loc 1 368 5 is_stmt 1 view .LVU331
 368:HW_Lib/AT32F435/BSP/Bsp_DMA.c ****     dma_init_struct.memory_base_addr = (uint32_t)0;
 1174              		.loc 1 368 31 is_stmt 0 view .LVU332
 1175 0022 4FF48043 		mov	r3, #16384
 1176 0026 ADF80C30 		strh	r3, [sp, #12]	@ movhi
 369:HW_Lib/AT32F435/BSP/Bsp_DMA.c ****     dma_init_struct.memory_data_width = DMA_MEMORY_DATA_WIDTH_BYTE;
 1177              		.loc 1 369 5 is_stmt 1 view .LVU333
 369:HW_Lib/AT32F435/BSP/Bsp_DMA.c ****     dma_init_struct.memory_data_width = DMA_MEMORY_DATA_WIDTH_BYTE;
 1178              		.loc 1 369 38 is_stmt 0 view .LVU334
 1179 002a 0294     		str	r4, [sp, #8]
 370:HW_Lib/AT32F435/BSP/Bsp_DMA.c ****     dma_init_struct.memory_inc_enable = TRUE;
 1180              		.loc 1 370 5 is_stmt 1 view .LVU335
 370:HW_Lib/AT32F435/BSP/Bsp_DMA.c ****     dma_init_struct.memory_inc_enable = TRUE;
 1181              		.loc 1 370 39 is_stmt 0 view .LVU336
 1182 002c 8DF81340 		strb	r4, [sp, #19]
 371:HW_Lib/AT32F435/BSP/Bsp_DMA.c ****     dma_init_struct.peripheral_base_addr = (uint32_t)0;
 1183              		.loc 1 371 5 is_stmt 1 view .LVU337
 371:HW_Lib/AT32F435/BSP/Bsp_DMA.c ****     dma_init_struct.peripheral_base_addr = (uint32_t)0;
 1184              		.loc 1 371 39 is_stmt 0 view .LVU338
 1185 0030 0125     		movs	r5, #1
 1186 0032 8DF81150 		strb	r5, [sp, #17]
 372:HW_Lib/AT32F435/BSP/Bsp_DMA.c ****     dma_init_struct.peripheral_data_width = DMA_PERIPHERAL_DATA_WIDTH_BYTE;
 1187              		.loc 1 372 5 is_stmt 1 view .LVU339
 372:HW_Lib/AT32F435/BSP/Bsp_DMA.c ****     dma_init_struct.peripheral_data_width = DMA_PERIPHERAL_DATA_WIDTH_BYTE;
 1188              		.loc 1 372 42 is_stmt 0 view .LVU340
 1189 0036 0194     		str	r4, [sp, #4]
 373:HW_Lib/AT32F435/BSP/Bsp_DMA.c ****     dma_init_struct.peripheral_inc_enable = TRUE;
 1190              		.loc 1 373 5 is_stmt 1 view .LVU341
 373:HW_Lib/AT32F435/BSP/Bsp_DMA.c ****     dma_init_struct.peripheral_inc_enable = TRUE;
 1191              		.loc 1 373 43 is_stmt 0 view .LVU342
 1192 0038 8DF81240 		strb	r4, [sp, #18]
 374:HW_Lib/AT32F435/BSP/Bsp_DMA.c ****     dma_init_struct.priority = DMA_PRIORITY_VERY_HIGH;
 1193              		.loc 1 374 5 is_stmt 1 view .LVU343
 374:HW_Lib/AT32F435/BSP/Bsp_DMA.c ****     dma_init_struct.priority = DMA_PRIORITY_VERY_HIGH;
 1194              		.loc 1 374 43 is_stmt 0 view .LVU344
 1195 003c 8DF81050 		strb	r5, [sp, #16]
 375:HW_Lib/AT32F435/BSP/Bsp_DMA.c ****     dma_init_struct.loop_mode_enable = FALSE;
 1196              		.loc 1 375 5 is_stmt 1 view .LVU345
 375:HW_Lib/AT32F435/BSP/Bsp_DMA.c ****     dma_init_struct.loop_mode_enable = FALSE;
 1197              		.loc 1 375 30 is_stmt 0 view .LVU346
 1198 0040 4FF00309 		mov	r9, #3
 1199 0044 8DF81590 		strb	r9, [sp, #21]
 376:HW_Lib/AT32F435/BSP/Bsp_DMA.c ****     dma_init(DMA2_CHANNEL7, &dma_init_struct);
 1200              		.loc 1 376 5 is_stmt 1 view .LVU347
 376:HW_Lib/AT32F435/BSP/Bsp_DMA.c ****     dma_init(DMA2_CHANNEL7, &dma_init_struct);
ARM GAS  C:\Users\8bit\AppData\Local\Temp\ccexJHsx.s 			page 34


 1201              		.loc 1 376 38 is_stmt 0 view .LVU348
 1202 0048 8DF81440 		strb	r4, [sp, #20]
 377:HW_Lib/AT32F435/BSP/Bsp_DMA.c **** 
 1203              		.loc 1 377 5 is_stmt 1 view .LVU349
 1204 004c 01A9     		add	r1, sp, #4
 1205 004e 4046     		mov	r0, r8
 1206 0050 FFF7FEFF 		bl	dma_init
 1207              	.LVL136:
 380:HW_Lib/AT32F435/BSP/Bsp_DMA.c **** 
 1208              		.loc 1 380 5 view .LVU350
 1209 0054 2A46     		mov	r2, r5
 1210 0056 0221     		movs	r1, #2
 1211 0058 4046     		mov	r0, r8
 1212 005a FFF7FEFF 		bl	dma_interrupt_enable
 1213              	.LVL137:
 383:HW_Lib/AT32F435/BSP/Bsp_DMA.c ****     nvic_irq_enable(DMA2_Channel7_IRQn, 5, 0);
 1214              		.loc 1 383 5 view .LVU351
 1215 005e 4846     		mov	r0, r9
 1216 0060 FFF7FEFF 		bl	nvic_priority_group_config
 1217              	.LVL138:
 384:HW_Lib/AT32F435/BSP/Bsp_DMA.c **** 
 1218              		.loc 1 384 5 view .LVU352
 1219 0064 2246     		mov	r2, r4
 1220 0066 0521     		movs	r1, #5
 1221 0068 7220     		movs	r0, #114
 1222 006a FFF7FEFF 		bl	nvic_irq_enable
 1223              	.LVL139:
 386:HW_Lib/AT32F435/BSP/Bsp_DMA.c **** 
 1224              		.loc 1 386 5 view .LVU353
 386:HW_Lib/AT32F435/BSP/Bsp_DMA.c **** 
 1225              		.loc 1 386 23 is_stmt 0 view .LVU354
 1226 006e 0C4B     		ldr	r3, .L118+4
 1227 0070 1D70     		strb	r5, [r3]
 388:HW_Lib/AT32F435/BSP/Bsp_DMA.c ****     DataPipe_Trans_Err_Callback = err_cb;
 1228              		.loc 1 388 5 is_stmt 1 view .LVU355
 388:HW_Lib/AT32F435/BSP/Bsp_DMA.c ****     DataPipe_Trans_Err_Callback = err_cb;
 1229              		.loc 1 388 33 is_stmt 0 view .LVU356
 1230 0072 0C4B     		ldr	r3, .L118+8
 1231 0074 1F60     		str	r7, [r3]
 389:HW_Lib/AT32F435/BSP/Bsp_DMA.c **** 
 1232              		.loc 1 389 5 is_stmt 1 view .LVU357
 389:HW_Lib/AT32F435/BSP/Bsp_DMA.c **** 
 1233              		.loc 1 389 33 is_stmt 0 view .LVU358
 1234 0076 0C4B     		ldr	r3, .L118+12
 1235 0078 1E60     		str	r6, [r3]
 391:HW_Lib/AT32F435/BSP/Bsp_DMA.c **** }
 1236              		.loc 1 391 5 is_stmt 1 view .LVU359
 392:HW_Lib/AT32F435/BSP/Bsp_DMA.c **** 
 1237              		.loc 1 392 1 is_stmt 0 view .LVU360
 1238 007a 2846     		mov	r0, r5
 1239 007c 07B0     		add	sp, sp, #28
 1240              	.LCFI7:
 1241              		.cfi_remember_state
 1242              		.cfi_def_cfa_offset 28
 1243              		@ sp needed
 1244 007e BDE8F083 		pop	{r4, r5, r6, r7, r8, r9, pc}
 1245              	.LVL140:
ARM GAS  C:\Users\8bit\AppData\Local\Temp\ccexJHsx.s 			page 35


 1246              	.L117:
 1247              	.LCFI8:
 1248              		.cfi_restore_state
 360:HW_Lib/AT32F435/BSP/Bsp_DMA.c ****         crm_periph_clock_enable(CRM_DMA1_PERIPH_CLOCK, TRUE);
 1249              		.loc 1 360 9 is_stmt 1 view .LVU361
 1250 0082 0121     		movs	r1, #1
 1251              	.LVL141:
 360:HW_Lib/AT32F435/BSP/Bsp_DMA.c ****         crm_periph_clock_enable(CRM_DMA1_PERIPH_CLOCK, TRUE);
 1252              		.loc 1 360 9 is_stmt 0 view .LVU362
 1253 0084 0948     		ldr	r0, .L118+16
 1254              	.LVL142:
 360:HW_Lib/AT32F435/BSP/Bsp_DMA.c ****         crm_periph_clock_enable(CRM_DMA1_PERIPH_CLOCK, TRUE);
 1255              		.loc 1 360 9 view .LVU363
 1256 0086 FFF7FEFF 		bl	crm_periph_clock_enable
 1257              	.LVL143:
 361:HW_Lib/AT32F435/BSP/Bsp_DMA.c ****         Dma_Clock_Init = true;
 1258              		.loc 1 361 9 is_stmt 1 view .LVU364
 1259 008a 0121     		movs	r1, #1
 1260 008c 0848     		ldr	r0, .L118+20
 1261 008e FFF7FEFF 		bl	crm_periph_clock_enable
 1262              	.LVL144:
 362:HW_Lib/AT32F435/BSP/Bsp_DMA.c ****     }
 1263              		.loc 1 362 9 view .LVU365
 362:HW_Lib/AT32F435/BSP/Bsp_DMA.c ****     }
 1264              		.loc 1 362 24 is_stmt 0 view .LVU366
 1265 0092 024B     		ldr	r3, .L118
 1266 0094 0122     		movs	r2, #1
 1267 0096 1A70     		strb	r2, [r3]
 1268 0098 BBE7     		b	.L115
 1269              	.L119:
 1270 009a 00BF     		.align	2
 1271              	.L118:
 1272 009c 00000000 		.word	.LANCHOR1
 1273 00a0 00000000 		.word	.LANCHOR0
 1274 00a4 00000000 		.word	.LANCHOR8
 1275 00a8 00000000 		.word	.LANCHOR9
 1276 00ac 18003000 		.word	3145752
 1277 00b0 16003000 		.word	3145750
 1278 00b4 80660240 		.word	1073899136
 1279              		.cfi_endproc
 1280              	.LFE140:
 1282              		.section	.text.BspDMA_Pipe_Irq_Callback,"ax",%progbits
 1283              		.align	1
 1284              		.global	BspDMA_Pipe_Irq_Callback
 1285              		.syntax unified
 1286              		.thumb
 1287              		.thumb_func
 1289              	BspDMA_Pipe_Irq_Callback:
 1290              	.LFB143:
 417:HW_Lib/AT32F435/BSP/Bsp_DMA.c **** 
 418:HW_Lib/AT32F435/BSP/Bsp_DMA.c **** void BspDMA_Pipe_Irq_Callback(void)
 419:HW_Lib/AT32F435/BSP/Bsp_DMA.c **** {
 1291              		.loc 1 419 1 is_stmt 1 view -0
 1292              		.cfi_startproc
 1293              		@ args = 0, pretend = 0, frame = 0
 1294              		@ frame_needed = 0, uses_anonymous_args = 0
 420:HW_Lib/AT32F435/BSP/Bsp_DMA.c ****     if(DataPipe_DMA_Init)
ARM GAS  C:\Users\8bit\AppData\Local\Temp\ccexJHsx.s 			page 36


 1295              		.loc 1 420 5 view .LVU368
 1296              		.loc 1 420 8 is_stmt 0 view .LVU369
 1297 0000 0F4B     		ldr	r3, .L128
 1298 0002 1B78     		ldrb	r3, [r3]	@ zero_extendqisi2
 1299              		.loc 1 420 7 view .LVU370
 1300 0004 03B9     		cbnz	r3, .L127
 1301 0006 7047     		bx	lr
 1302              	.L127:
 419:HW_Lib/AT32F435/BSP/Bsp_DMA.c ****     if(DataPipe_DMA_Init)
 1303              		.loc 1 419 1 view .LVU371
 1304 0008 10B5     		push	{r4, lr}
 1305              	.LCFI9:
 1306              		.cfi_def_cfa_offset 8
 1307              		.cfi_offset 4, -8
 1308              		.cfi_offset 14, -4
 421:HW_Lib/AT32F435/BSP/Bsp_DMA.c ****     {
 422:HW_Lib/AT32F435/BSP/Bsp_DMA.c ****         dma_channel_enable(DMA2_CHANNEL7, FALSE);
 1309              		.loc 1 422 9 is_stmt 1 view .LVU372
 1310 000a 0E4C     		ldr	r4, .L128+4
 1311 000c 0021     		movs	r1, #0
 1312 000e 2046     		mov	r0, r4
 1313 0010 FFF7FEFF 		bl	dma_channel_enable
 1314              	.LVL145:
 423:HW_Lib/AT32F435/BSP/Bsp_DMA.c **** 
 424:HW_Lib/AT32F435/BSP/Bsp_DMA.c ****         if(dma_data_number_get(DMA2_CHANNEL7) != DMA2_CHANNEL7->dtcnt_bit.cnt)
 1315              		.loc 1 424 9 view .LVU373
 1316              		.loc 1 424 12 is_stmt 0 view .LVU374
 1317 0014 2046     		mov	r0, r4
 1318 0016 FFF7FEFF 		bl	dma_data_number_get
 1319              	.LVL146:
 1320              		.loc 1 424 74 view .LVU375
 1321 001a 0B4B     		ldr	r3, .L128+8
 1322 001c D3F88430 		ldr	r3, [r3, #132]
 1323 0020 9BB2     		uxth	r3, r3
 1324              		.loc 1 424 11 view .LVU376
 1325 0022 9842     		cmp	r0, r3
 1326 0024 05D0     		beq	.L122
 425:HW_Lib/AT32F435/BSP/Bsp_DMA.c ****         {
 426:HW_Lib/AT32F435/BSP/Bsp_DMA.c ****             /* piped data size error */
 427:HW_Lib/AT32F435/BSP/Bsp_DMA.c ****             if(DataPipe_Trans_Err_Callback)
 1327              		.loc 1 427 13 is_stmt 1 view .LVU377
 1328              		.loc 1 427 16 is_stmt 0 view .LVU378
 1329 0026 094B     		ldr	r3, .L128+12
 1330 0028 1B68     		ldr	r3, [r3]
 1331              		.loc 1 427 15 view .LVU379
 1332 002a 0BB1     		cbz	r3, .L120
 428:HW_Lib/AT32F435/BSP/Bsp_DMA.c ****                 DataPipe_Trans_Err_Callback((void *)DMA2_CHANNEL7); 
 1333              		.loc 1 428 17 is_stmt 1 view .LVU380
 1334 002c 2046     		mov	r0, r4
 1335 002e 9847     		blx	r3
 1336              	.LVL147:
 1337              	.L120:
 429:HW_Lib/AT32F435/BSP/Bsp_DMA.c ****         }
 430:HW_Lib/AT32F435/BSP/Bsp_DMA.c ****         else
 431:HW_Lib/AT32F435/BSP/Bsp_DMA.c ****         {
 432:HW_Lib/AT32F435/BSP/Bsp_DMA.c ****             if(DataPipe_Trans_Fin_Callback)
 433:HW_Lib/AT32F435/BSP/Bsp_DMA.c ****                DataPipe_Trans_Fin_Callback((void *)DMA2_CHANNEL7); 
ARM GAS  C:\Users\8bit\AppData\Local\Temp\ccexJHsx.s 			page 37


 434:HW_Lib/AT32F435/BSP/Bsp_DMA.c ****         }
 435:HW_Lib/AT32F435/BSP/Bsp_DMA.c ****     }
 436:HW_Lib/AT32F435/BSP/Bsp_DMA.c **** }
 1338              		.loc 1 436 1 is_stmt 0 view .LVU381
 1339 0030 10BD     		pop	{r4, pc}
 1340              	.L122:
 432:HW_Lib/AT32F435/BSP/Bsp_DMA.c ****                DataPipe_Trans_Fin_Callback((void *)DMA2_CHANNEL7); 
 1341              		.loc 1 432 13 is_stmt 1 view .LVU382
 432:HW_Lib/AT32F435/BSP/Bsp_DMA.c ****                DataPipe_Trans_Fin_Callback((void *)DMA2_CHANNEL7); 
 1342              		.loc 1 432 16 is_stmt 0 view .LVU383
 1343 0032 074B     		ldr	r3, .L128+16
 1344 0034 1B68     		ldr	r3, [r3]
 432:HW_Lib/AT32F435/BSP/Bsp_DMA.c ****                DataPipe_Trans_Fin_Callback((void *)DMA2_CHANNEL7); 
 1345              		.loc 1 432 15 view .LVU384
 1346 0036 002B     		cmp	r3, #0
 1347 0038 FAD0     		beq	.L120
 433:HW_Lib/AT32F435/BSP/Bsp_DMA.c ****         }
 1348              		.loc 1 433 16 is_stmt 1 view .LVU385
 1349 003a 0248     		ldr	r0, .L128+4
 1350 003c 9847     		blx	r3
 1351              	.LVL148:
 1352              		.loc 1 436 1 is_stmt 0 view .LVU386
 1353 003e F7E7     		b	.L120
 1354              	.L129:
 1355              		.align	2
 1356              	.L128:
 1357 0040 00000000 		.word	.LANCHOR0
 1358 0044 80660240 		.word	1073899136
 1359 0048 00660240 		.word	1073899008
 1360 004c 00000000 		.word	.LANCHOR9
 1361 0050 00000000 		.word	.LANCHOR8
 1362              		.cfi_endproc
 1363              	.LFE143:
 1365              		.section	.text.BspDMA_Irq_Callback,"ax",%progbits
 1366              		.align	1
 1367              		.global	BspDMA_Irq_Callback
 1368              		.syntax unified
 1369              		.thumb
 1370              		.thumb_func
 1372              	BspDMA_Irq_Callback:
 1373              	.LVL149:
 1374              	.LFB144:
 437:HW_Lib/AT32F435/BSP/Bsp_DMA.c **** 
 438:HW_Lib/AT32F435/BSP/Bsp_DMA.c **** void BspDMA_Irq_Callback(void *channel)
 439:HW_Lib/AT32F435/BSP/Bsp_DMA.c **** {
 1375              		.loc 1 439 1 is_stmt 1 view -0
 1376              		.cfi_startproc
 1377              		@ args = 0, pretend = 0, frame = 0
 1378              		@ frame_needed = 0, uses_anonymous_args = 0
 1379              		.loc 1 439 1 is_stmt 0 view .LVU388
 1380 0000 08B5     		push	{r3, lr}
 1381              	.LCFI10:
 1382              		.cfi_def_cfa_offset 8
 1383              		.cfi_offset 3, -8
 1384              		.cfi_offset 14, -4
 440:HW_Lib/AT32F435/BSP/Bsp_DMA.c ****     dma_channel_type *ch_tmp = To_DMA_Handle_Ptr(channel);
 1385              		.loc 1 440 5 is_stmt 1 view .LVU389
ARM GAS  C:\Users\8bit\AppData\Local\Temp\ccexJHsx.s 			page 38


 1386              	.LVL150:
 441:HW_Lib/AT32F435/BSP/Bsp_DMA.c ****     void *cus_data = NULL;
 1387              		.loc 1 441 5 view .LVU390
 442:HW_Lib/AT32F435/BSP/Bsp_DMA.c **** 
 443:HW_Lib/AT32F435/BSP/Bsp_DMA.c ****     if (ch_tmp == DMA1_CHANNEL1)
 1388              		.loc 1 443 5 view .LVU391
 1389              		.loc 1 443 8 is_stmt 0 view .LVU392
 1390 0002 524B     		ldr	r3, .L170
 1391 0004 9842     		cmp	r0, r3
 1392 0006 2BD0     		beq	.L158
 444:HW_Lib/AT32F435/BSP/Bsp_DMA.c ****     {
 445:HW_Lib/AT32F435/BSP/Bsp_DMA.c ****         if (BspDMA1_Irq_Callback_List[Bsp_DMA_Stream_1] && \
 446:HW_Lib/AT32F435/BSP/Bsp_DMA.c ****             BspDMA1_Irq_Callback_List[Bsp_DMA_Stream_1]->BspDMA_Irq_Callback_Func)
 447:HW_Lib/AT32F435/BSP/Bsp_DMA.c ****         {
 448:HW_Lib/AT32F435/BSP/Bsp_DMA.c ****             cus_data = BspDMA1_Irq_Callback_List[Bsp_DMA_Stream_1]->cus_data;
 449:HW_Lib/AT32F435/BSP/Bsp_DMA.c ****             BspDMA1_Irq_Callback_List[Bsp_DMA_Stream_1]->BspDMA_Irq_Callback_Func(cus_data);
 450:HW_Lib/AT32F435/BSP/Bsp_DMA.c ****         }
 451:HW_Lib/AT32F435/BSP/Bsp_DMA.c **** 
 452:HW_Lib/AT32F435/BSP/Bsp_DMA.c ****         return;
 453:HW_Lib/AT32F435/BSP/Bsp_DMA.c ****     }
 454:HW_Lib/AT32F435/BSP/Bsp_DMA.c **** 
 455:HW_Lib/AT32F435/BSP/Bsp_DMA.c ****     if (ch_tmp == DMA1_CHANNEL2)
 1393              		.loc 1 455 5 is_stmt 1 view .LVU393
 1394              		.loc 1 455 8 is_stmt 0 view .LVU394
 1395 0008 514B     		ldr	r3, .L170+4
 1396 000a 9842     		cmp	r0, r3
 1397 000c 30D0     		beq	.L159
 456:HW_Lib/AT32F435/BSP/Bsp_DMA.c ****     {
 457:HW_Lib/AT32F435/BSP/Bsp_DMA.c ****         if (BspDMA1_Irq_Callback_List[Bsp_DMA_Stream_2] && \
 458:HW_Lib/AT32F435/BSP/Bsp_DMA.c ****             BspDMA1_Irq_Callback_List[Bsp_DMA_Stream_2]->BspDMA_Irq_Callback_Func)
 459:HW_Lib/AT32F435/BSP/Bsp_DMA.c ****         {
 460:HW_Lib/AT32F435/BSP/Bsp_DMA.c ****             cus_data = BspDMA1_Irq_Callback_List[Bsp_DMA_Stream_2]->cus_data;
 461:HW_Lib/AT32F435/BSP/Bsp_DMA.c ****             BspDMA1_Irq_Callback_List[Bsp_DMA_Stream_2]->BspDMA_Irq_Callback_Func(cus_data);
 462:HW_Lib/AT32F435/BSP/Bsp_DMA.c ****         }
 463:HW_Lib/AT32F435/BSP/Bsp_DMA.c **** 
 464:HW_Lib/AT32F435/BSP/Bsp_DMA.c ****         return;
 465:HW_Lib/AT32F435/BSP/Bsp_DMA.c ****     }
 466:HW_Lib/AT32F435/BSP/Bsp_DMA.c **** 
 467:HW_Lib/AT32F435/BSP/Bsp_DMA.c ****     if (ch_tmp == DMA1_CHANNEL3)
 1398              		.loc 1 467 5 is_stmt 1 view .LVU395
 1399              		.loc 1 467 8 is_stmt 0 view .LVU396
 1400 000e 514B     		ldr	r3, .L170+8
 1401 0010 9842     		cmp	r0, r3
 1402 0012 37D0     		beq	.L160
 468:HW_Lib/AT32F435/BSP/Bsp_DMA.c ****     {
 469:HW_Lib/AT32F435/BSP/Bsp_DMA.c ****         if (BspDMA1_Irq_Callback_List[Bsp_DMA_Stream_3] && \
 470:HW_Lib/AT32F435/BSP/Bsp_DMA.c ****             BspDMA1_Irq_Callback_List[Bsp_DMA_Stream_3]->BspDMA_Irq_Callback_Func)
 471:HW_Lib/AT32F435/BSP/Bsp_DMA.c ****         {
 472:HW_Lib/AT32F435/BSP/Bsp_DMA.c ****             cus_data = BspDMA1_Irq_Callback_List[Bsp_DMA_Stream_3]->cus_data;
 473:HW_Lib/AT32F435/BSP/Bsp_DMA.c ****             BspDMA1_Irq_Callback_List[Bsp_DMA_Stream_3]->BspDMA_Irq_Callback_Func(cus_data);
 474:HW_Lib/AT32F435/BSP/Bsp_DMA.c ****         }
 475:HW_Lib/AT32F435/BSP/Bsp_DMA.c **** 
 476:HW_Lib/AT32F435/BSP/Bsp_DMA.c ****         return;
 477:HW_Lib/AT32F435/BSP/Bsp_DMA.c ****     }
 478:HW_Lib/AT32F435/BSP/Bsp_DMA.c **** 
 479:HW_Lib/AT32F435/BSP/Bsp_DMA.c ****     if (ch_tmp == DMA1_CHANNEL4)
 1403              		.loc 1 479 5 is_stmt 1 view .LVU397
ARM GAS  C:\Users\8bit\AppData\Local\Temp\ccexJHsx.s 			page 39


 1404              		.loc 1 479 8 is_stmt 0 view .LVU398
 1405 0014 504B     		ldr	r3, .L170+12
 1406 0016 9842     		cmp	r0, r3
 1407 0018 3ED0     		beq	.L161
 480:HW_Lib/AT32F435/BSP/Bsp_DMA.c ****     {
 481:HW_Lib/AT32F435/BSP/Bsp_DMA.c ****         if (BspDMA1_Irq_Callback_List[Bsp_DMA_Stream_4] && \
 482:HW_Lib/AT32F435/BSP/Bsp_DMA.c ****             BspDMA1_Irq_Callback_List[Bsp_DMA_Stream_4]->BspDMA_Irq_Callback_Func)
 483:HW_Lib/AT32F435/BSP/Bsp_DMA.c ****         {
 484:HW_Lib/AT32F435/BSP/Bsp_DMA.c ****             cus_data = BspDMA1_Irq_Callback_List[Bsp_DMA_Stream_4]->cus_data;
 485:HW_Lib/AT32F435/BSP/Bsp_DMA.c ****             BspDMA1_Irq_Callback_List[Bsp_DMA_Stream_4]->BspDMA_Irq_Callback_Func(cus_data);
 486:HW_Lib/AT32F435/BSP/Bsp_DMA.c ****         }
 487:HW_Lib/AT32F435/BSP/Bsp_DMA.c **** 
 488:HW_Lib/AT32F435/BSP/Bsp_DMA.c ****         return;
 489:HW_Lib/AT32F435/BSP/Bsp_DMA.c ****     }
 490:HW_Lib/AT32F435/BSP/Bsp_DMA.c **** 
 491:HW_Lib/AT32F435/BSP/Bsp_DMA.c ****     if (ch_tmp == DMA1_CHANNEL5)
 1408              		.loc 1 491 5 is_stmt 1 view .LVU399
 1409              		.loc 1 491 8 is_stmt 0 view .LVU400
 1410 001a 504B     		ldr	r3, .L170+16
 1411 001c 9842     		cmp	r0, r3
 1412 001e 45D0     		beq	.L162
 492:HW_Lib/AT32F435/BSP/Bsp_DMA.c ****     {
 493:HW_Lib/AT32F435/BSP/Bsp_DMA.c ****         if (BspDMA1_Irq_Callback_List[Bsp_DMA_Stream_5] && \
 494:HW_Lib/AT32F435/BSP/Bsp_DMA.c ****             BspDMA1_Irq_Callback_List[Bsp_DMA_Stream_5]->BspDMA_Irq_Callback_Func)
 495:HW_Lib/AT32F435/BSP/Bsp_DMA.c ****         {
 496:HW_Lib/AT32F435/BSP/Bsp_DMA.c ****             cus_data = BspDMA1_Irq_Callback_List[Bsp_DMA_Stream_5]->cus_data;
 497:HW_Lib/AT32F435/BSP/Bsp_DMA.c ****             BspDMA1_Irq_Callback_List[Bsp_DMA_Stream_5]->BspDMA_Irq_Callback_Func(cus_data);
 498:HW_Lib/AT32F435/BSP/Bsp_DMA.c ****         }
 499:HW_Lib/AT32F435/BSP/Bsp_DMA.c **** 
 500:HW_Lib/AT32F435/BSP/Bsp_DMA.c ****         return;
 501:HW_Lib/AT32F435/BSP/Bsp_DMA.c ****     }
 502:HW_Lib/AT32F435/BSP/Bsp_DMA.c **** 
 503:HW_Lib/AT32F435/BSP/Bsp_DMA.c ****     if (ch_tmp == DMA1_CHANNEL6)
 1413              		.loc 1 503 5 is_stmt 1 view .LVU401
 1414              		.loc 1 503 8 is_stmt 0 view .LVU402
 1415 0020 4F4B     		ldr	r3, .L170+20
 1416 0022 9842     		cmp	r0, r3
 1417 0024 4CD0     		beq	.L163
 504:HW_Lib/AT32F435/BSP/Bsp_DMA.c ****     {
 505:HW_Lib/AT32F435/BSP/Bsp_DMA.c ****         if (BspDMA1_Irq_Callback_List[Bsp_DMA_Stream_6] && \
 506:HW_Lib/AT32F435/BSP/Bsp_DMA.c ****             BspDMA1_Irq_Callback_List[Bsp_DMA_Stream_6]->BspDMA_Irq_Callback_Func)
 507:HW_Lib/AT32F435/BSP/Bsp_DMA.c ****         {
 508:HW_Lib/AT32F435/BSP/Bsp_DMA.c ****             cus_data = BspDMA1_Irq_Callback_List[Bsp_DMA_Stream_6]->cus_data;
 509:HW_Lib/AT32F435/BSP/Bsp_DMA.c ****             BspDMA1_Irq_Callback_List[Bsp_DMA_Stream_6]->BspDMA_Irq_Callback_Func(cus_data);
 510:HW_Lib/AT32F435/BSP/Bsp_DMA.c ****         }
 511:HW_Lib/AT32F435/BSP/Bsp_DMA.c **** 
 512:HW_Lib/AT32F435/BSP/Bsp_DMA.c ****         return;
 513:HW_Lib/AT32F435/BSP/Bsp_DMA.c ****     }
 514:HW_Lib/AT32F435/BSP/Bsp_DMA.c **** 
 515:HW_Lib/AT32F435/BSP/Bsp_DMA.c ****     if (ch_tmp == DMA1_CHANNEL7)
 1418              		.loc 1 515 5 is_stmt 1 view .LVU403
 1419              		.loc 1 515 8 is_stmt 0 view .LVU404
 1420 0026 4F4B     		ldr	r3, .L170+24
 1421 0028 9842     		cmp	r0, r3
 1422 002a 53D0     		beq	.L164
 516:HW_Lib/AT32F435/BSP/Bsp_DMA.c ****     {
 517:HW_Lib/AT32F435/BSP/Bsp_DMA.c ****         if (BspDMA1_Irq_Callback_List[Bsp_DMA_Stream_7] && \
ARM GAS  C:\Users\8bit\AppData\Local\Temp\ccexJHsx.s 			page 40


 518:HW_Lib/AT32F435/BSP/Bsp_DMA.c ****             BspDMA1_Irq_Callback_List[Bsp_DMA_Stream_7]->BspDMA_Irq_Callback_Func)
 519:HW_Lib/AT32F435/BSP/Bsp_DMA.c ****         {
 520:HW_Lib/AT32F435/BSP/Bsp_DMA.c ****             cus_data = BspDMA1_Irq_Callback_List[Bsp_DMA_Stream_7]->cus_data;
 521:HW_Lib/AT32F435/BSP/Bsp_DMA.c ****             BspDMA1_Irq_Callback_List[Bsp_DMA_Stream_7]->BspDMA_Irq_Callback_Func(cus_data);
 522:HW_Lib/AT32F435/BSP/Bsp_DMA.c ****         }
 523:HW_Lib/AT32F435/BSP/Bsp_DMA.c **** 
 524:HW_Lib/AT32F435/BSP/Bsp_DMA.c ****         return;
 525:HW_Lib/AT32F435/BSP/Bsp_DMA.c ****     }
 526:HW_Lib/AT32F435/BSP/Bsp_DMA.c **** 
 527:HW_Lib/AT32F435/BSP/Bsp_DMA.c ****     if (ch_tmp == DMA2_CHANNEL1)
 1423              		.loc 1 527 5 is_stmt 1 view .LVU405
 1424              		.loc 1 527 8 is_stmt 0 view .LVU406
 1425 002c 4E4B     		ldr	r3, .L170+28
 1426 002e 9842     		cmp	r0, r3
 1427 0030 5AD0     		beq	.L165
 528:HW_Lib/AT32F435/BSP/Bsp_DMA.c ****     {
 529:HW_Lib/AT32F435/BSP/Bsp_DMA.c ****         if (BspDMA2_Irq_Callback_List[Bsp_DMA_Stream_1] && \
 530:HW_Lib/AT32F435/BSP/Bsp_DMA.c ****             BspDMA2_Irq_Callback_List[Bsp_DMA_Stream_1]->BspDMA_Irq_Callback_Func)
 531:HW_Lib/AT32F435/BSP/Bsp_DMA.c ****         {
 532:HW_Lib/AT32F435/BSP/Bsp_DMA.c ****             cus_data = BspDMA2_Irq_Callback_List[Bsp_DMA_Stream_1]->cus_data;
 533:HW_Lib/AT32F435/BSP/Bsp_DMA.c ****             BspDMA2_Irq_Callback_List[Bsp_DMA_Stream_1]->BspDMA_Irq_Callback_Func(cus_data);
 534:HW_Lib/AT32F435/BSP/Bsp_DMA.c ****         }
 535:HW_Lib/AT32F435/BSP/Bsp_DMA.c ****     
 536:HW_Lib/AT32F435/BSP/Bsp_DMA.c ****         return;
 537:HW_Lib/AT32F435/BSP/Bsp_DMA.c ****     }
 538:HW_Lib/AT32F435/BSP/Bsp_DMA.c **** 
 539:HW_Lib/AT32F435/BSP/Bsp_DMA.c ****     if (ch_tmp == DMA2_CHANNEL2)
 1428              		.loc 1 539 5 is_stmt 1 view .LVU407
 1429              		.loc 1 539 8 is_stmt 0 view .LVU408
 1430 0032 4E4B     		ldr	r3, .L170+32
 1431 0034 9842     		cmp	r0, r3
 1432 0036 61D0     		beq	.L166
 540:HW_Lib/AT32F435/BSP/Bsp_DMA.c ****     {
 541:HW_Lib/AT32F435/BSP/Bsp_DMA.c ****         if (BspDMA2_Irq_Callback_List[Bsp_DMA_Stream_2] && \
 542:HW_Lib/AT32F435/BSP/Bsp_DMA.c ****             BspDMA2_Irq_Callback_List[Bsp_DMA_Stream_2]->BspDMA_Irq_Callback_Func)
 543:HW_Lib/AT32F435/BSP/Bsp_DMA.c ****         {
 544:HW_Lib/AT32F435/BSP/Bsp_DMA.c ****             cus_data = BspDMA2_Irq_Callback_List[Bsp_DMA_Stream_2]->cus_data;
 545:HW_Lib/AT32F435/BSP/Bsp_DMA.c ****             BspDMA2_Irq_Callback_List[Bsp_DMA_Stream_2]->BspDMA_Irq_Callback_Func(cus_data);
 546:HW_Lib/AT32F435/BSP/Bsp_DMA.c ****         }
 547:HW_Lib/AT32F435/BSP/Bsp_DMA.c ****     
 548:HW_Lib/AT32F435/BSP/Bsp_DMA.c ****         return;
 549:HW_Lib/AT32F435/BSP/Bsp_DMA.c ****     }
 550:HW_Lib/AT32F435/BSP/Bsp_DMA.c **** 
 551:HW_Lib/AT32F435/BSP/Bsp_DMA.c ****     if (ch_tmp == DMA2_CHANNEL3)
 1433              		.loc 1 551 5 is_stmt 1 view .LVU409
 1434              		.loc 1 551 8 is_stmt 0 view .LVU410
 1435 0038 4D4B     		ldr	r3, .L170+36
 1436 003a 9842     		cmp	r0, r3
 1437 003c 68D0     		beq	.L167
 552:HW_Lib/AT32F435/BSP/Bsp_DMA.c ****     {
 553:HW_Lib/AT32F435/BSP/Bsp_DMA.c ****         if (BspDMA2_Irq_Callback_List[Bsp_DMA_Stream_3] && \
 554:HW_Lib/AT32F435/BSP/Bsp_DMA.c ****             BspDMA2_Irq_Callback_List[Bsp_DMA_Stream_3]->BspDMA_Irq_Callback_Func)
 555:HW_Lib/AT32F435/BSP/Bsp_DMA.c ****         {
 556:HW_Lib/AT32F435/BSP/Bsp_DMA.c ****             cus_data = BspDMA2_Irq_Callback_List[Bsp_DMA_Stream_3]->cus_data;
 557:HW_Lib/AT32F435/BSP/Bsp_DMA.c ****             BspDMA2_Irq_Callback_List[Bsp_DMA_Stream_3]->BspDMA_Irq_Callback_Func(cus_data);
 558:HW_Lib/AT32F435/BSP/Bsp_DMA.c ****         }
 559:HW_Lib/AT32F435/BSP/Bsp_DMA.c **** 
ARM GAS  C:\Users\8bit\AppData\Local\Temp\ccexJHsx.s 			page 41


 560:HW_Lib/AT32F435/BSP/Bsp_DMA.c ****         return;
 561:HW_Lib/AT32F435/BSP/Bsp_DMA.c ****     }
 562:HW_Lib/AT32F435/BSP/Bsp_DMA.c **** 
 563:HW_Lib/AT32F435/BSP/Bsp_DMA.c ****     if (ch_tmp == DMA2_CHANNEL4)
 1438              		.loc 1 563 5 is_stmt 1 view .LVU411
 1439              		.loc 1 563 8 is_stmt 0 view .LVU412
 1440 003e 4D4B     		ldr	r3, .L170+40
 1441 0040 9842     		cmp	r0, r3
 1442 0042 6FD0     		beq	.L168
 564:HW_Lib/AT32F435/BSP/Bsp_DMA.c ****     {
 565:HW_Lib/AT32F435/BSP/Bsp_DMA.c ****         if (BspDMA2_Irq_Callback_List[Bsp_DMA_Stream_4] && \
 566:HW_Lib/AT32F435/BSP/Bsp_DMA.c ****             BspDMA2_Irq_Callback_List[Bsp_DMA_Stream_4]->BspDMA_Irq_Callback_Func)
 567:HW_Lib/AT32F435/BSP/Bsp_DMA.c ****         {
 568:HW_Lib/AT32F435/BSP/Bsp_DMA.c ****             cus_data = BspDMA2_Irq_Callback_List[Bsp_DMA_Stream_4]->cus_data;
 569:HW_Lib/AT32F435/BSP/Bsp_DMA.c ****             BspDMA2_Irq_Callback_List[Bsp_DMA_Stream_4]->BspDMA_Irq_Callback_Func(cus_data);
 570:HW_Lib/AT32F435/BSP/Bsp_DMA.c ****         }
 571:HW_Lib/AT32F435/BSP/Bsp_DMA.c **** 
 572:HW_Lib/AT32F435/BSP/Bsp_DMA.c ****         return;
 573:HW_Lib/AT32F435/BSP/Bsp_DMA.c ****     }
 574:HW_Lib/AT32F435/BSP/Bsp_DMA.c **** 
 575:HW_Lib/AT32F435/BSP/Bsp_DMA.c ****     if (ch_tmp == DMA2_CHANNEL5)
 1443              		.loc 1 575 5 is_stmt 1 view .LVU413
 1444              		.loc 1 575 8 is_stmt 0 view .LVU414
 1445 0044 4C4B     		ldr	r3, .L170+44
 1446 0046 9842     		cmp	r0, r3
 1447 0048 76D0     		beq	.L169
 576:HW_Lib/AT32F435/BSP/Bsp_DMA.c ****     {
 577:HW_Lib/AT32F435/BSP/Bsp_DMA.c ****         if (BspDMA2_Irq_Callback_List[Bsp_DMA_Stream_5] && \
 578:HW_Lib/AT32F435/BSP/Bsp_DMA.c ****             BspDMA2_Irq_Callback_List[Bsp_DMA_Stream_5]->BspDMA_Irq_Callback_Func)
 579:HW_Lib/AT32F435/BSP/Bsp_DMA.c ****         {
 580:HW_Lib/AT32F435/BSP/Bsp_DMA.c ****             cus_data = BspDMA2_Irq_Callback_List[Bsp_DMA_Stream_5]->cus_data;
 581:HW_Lib/AT32F435/BSP/Bsp_DMA.c ****             BspDMA2_Irq_Callback_List[Bsp_DMA_Stream_5]->BspDMA_Irq_Callback_Func(cus_data);
 582:HW_Lib/AT32F435/BSP/Bsp_DMA.c ****         }
 583:HW_Lib/AT32F435/BSP/Bsp_DMA.c **** 
 584:HW_Lib/AT32F435/BSP/Bsp_DMA.c ****         return;
 585:HW_Lib/AT32F435/BSP/Bsp_DMA.c ****     }
 586:HW_Lib/AT32F435/BSP/Bsp_DMA.c **** 
 587:HW_Lib/AT32F435/BSP/Bsp_DMA.c ****     if (ch_tmp == DMA2_CHANNEL6)
 1448              		.loc 1 587 5 is_stmt 1 view .LVU415
 1449              		.loc 1 587 8 is_stmt 0 view .LVU416
 1450 004a 4C4B     		ldr	r3, .L170+48
 1451 004c 9842     		cmp	r0, r3
 1452 004e 0ED1     		bne	.L130
 588:HW_Lib/AT32F435/BSP/Bsp_DMA.c ****     {
 589:HW_Lib/AT32F435/BSP/Bsp_DMA.c ****         if (BspDMA2_Irq_Callback_List[Bsp_DMA_Stream_6] && \
 1453              		.loc 1 589 9 is_stmt 1 view .LVU417
 1454              		.loc 1 589 38 is_stmt 0 view .LVU418
 1455 0050 4B4B     		ldr	r3, .L170+52
 1456 0052 5B69     		ldr	r3, [r3, #20]
 1457              		.loc 1 589 12 view .LVU419
 1458 0054 5BB1     		cbz	r3, .L130
 590:HW_Lib/AT32F435/BSP/Bsp_DMA.c ****             BspDMA2_Irq_Callback_List[Bsp_DMA_Stream_6]->BspDMA_Irq_Callback_Func)
 1459              		.loc 1 590 56 discriminator 1 view .LVU420
 1460 0056 1A68     		ldr	r2, [r3]
 589:HW_Lib/AT32F435/BSP/Bsp_DMA.c ****             BspDMA2_Irq_Callback_List[Bsp_DMA_Stream_6]->BspDMA_Irq_Callback_Func)
 1461              		.loc 1 589 57 discriminator 1 view .LVU421
 1462 0058 4AB1     		cbz	r2, .L130
ARM GAS  C:\Users\8bit\AppData\Local\Temp\ccexJHsx.s 			page 42


 591:HW_Lib/AT32F435/BSP/Bsp_DMA.c ****         {
 592:HW_Lib/AT32F435/BSP/Bsp_DMA.c ****             cus_data = BspDMA2_Irq_Callback_List[Bsp_DMA_Stream_6]->cus_data;
 1463              		.loc 1 592 13 is_stmt 1 view .LVU422
 1464              	.LVL151:
 593:HW_Lib/AT32F435/BSP/Bsp_DMA.c ****             BspDMA2_Irq_Callback_List[Bsp_DMA_Stream_6]->BspDMA_Irq_Callback_Func(cus_data);
 1465              		.loc 1 593 13 view .LVU423
 1466 005a 5868     		ldr	r0, [r3, #4]
 1467              	.LVL152:
 1468              		.loc 1 593 13 is_stmt 0 view .LVU424
 1469 005c 9047     		blx	r2
 1470              	.LVL153:
 594:HW_Lib/AT32F435/BSP/Bsp_DMA.c ****         }
 595:HW_Lib/AT32F435/BSP/Bsp_DMA.c **** 
 596:HW_Lib/AT32F435/BSP/Bsp_DMA.c ****         return;
 1471              		.loc 1 596 9 is_stmt 1 view .LVU425
 1472 005e 06E0     		b	.L130
 1473              	.LVL154:
 1474              	.L158:
 445:HW_Lib/AT32F435/BSP/Bsp_DMA.c ****             BspDMA1_Irq_Callback_List[Bsp_DMA_Stream_1]->BspDMA_Irq_Callback_Func)
 1475              		.loc 1 445 9 view .LVU426
 445:HW_Lib/AT32F435/BSP/Bsp_DMA.c ****             BspDMA1_Irq_Callback_List[Bsp_DMA_Stream_1]->BspDMA_Irq_Callback_Func)
 1476              		.loc 1 445 38 is_stmt 0 view .LVU427
 1477 0060 484B     		ldr	r3, .L170+56
 1478 0062 1B68     		ldr	r3, [r3]
 445:HW_Lib/AT32F435/BSP/Bsp_DMA.c ****             BspDMA1_Irq_Callback_List[Bsp_DMA_Stream_1]->BspDMA_Irq_Callback_Func)
 1479              		.loc 1 445 12 view .LVU428
 1480 0064 1BB1     		cbz	r3, .L130
 446:HW_Lib/AT32F435/BSP/Bsp_DMA.c ****         {
 1481              		.loc 1 446 56 discriminator 1 view .LVU429
 1482 0066 1A68     		ldr	r2, [r3]
 445:HW_Lib/AT32F435/BSP/Bsp_DMA.c ****             BspDMA1_Irq_Callback_List[Bsp_DMA_Stream_1]->BspDMA_Irq_Callback_Func)
 1483              		.loc 1 445 57 discriminator 1 view .LVU430
 1484 0068 0AB1     		cbz	r2, .L130
 448:HW_Lib/AT32F435/BSP/Bsp_DMA.c ****             BspDMA1_Irq_Callback_List[Bsp_DMA_Stream_1]->BspDMA_Irq_Callback_Func(cus_data);
 1485              		.loc 1 448 13 is_stmt 1 view .LVU431
 1486              	.LVL155:
 449:HW_Lib/AT32F435/BSP/Bsp_DMA.c ****         }
 1487              		.loc 1 449 13 view .LVU432
 1488 006a 5868     		ldr	r0, [r3, #4]
 1489              	.LVL156:
 449:HW_Lib/AT32F435/BSP/Bsp_DMA.c ****         }
 1490              		.loc 1 449 13 is_stmt 0 view .LVU433
 1491 006c 9047     		blx	r2
 1492              	.LVL157:
 452:HW_Lib/AT32F435/BSP/Bsp_DMA.c ****     }
 1493              		.loc 1 452 9 is_stmt 1 view .LVU434
 1494              	.L130:
 597:HW_Lib/AT32F435/BSP/Bsp_DMA.c ****     }
 598:HW_Lib/AT32F435/BSP/Bsp_DMA.c **** }
 1495              		.loc 1 598 1 is_stmt 0 view .LVU435
 1496 006e 08BD     		pop	{r3, pc}
 1497              	.LVL158:
 1498              	.L159:
 457:HW_Lib/AT32F435/BSP/Bsp_DMA.c ****             BspDMA1_Irq_Callback_List[Bsp_DMA_Stream_2]->BspDMA_Irq_Callback_Func)
 1499              		.loc 1 457 9 is_stmt 1 view .LVU436
 457:HW_Lib/AT32F435/BSP/Bsp_DMA.c ****             BspDMA1_Irq_Callback_List[Bsp_DMA_Stream_2]->BspDMA_Irq_Callback_Func)
 1500              		.loc 1 457 38 is_stmt 0 view .LVU437
ARM GAS  C:\Users\8bit\AppData\Local\Temp\ccexJHsx.s 			page 43


 1501 0070 444B     		ldr	r3, .L170+56
 1502 0072 5B68     		ldr	r3, [r3, #4]
 457:HW_Lib/AT32F435/BSP/Bsp_DMA.c ****             BspDMA1_Irq_Callback_List[Bsp_DMA_Stream_2]->BspDMA_Irq_Callback_Func)
 1503              		.loc 1 457 12 view .LVU438
 1504 0074 002B     		cmp	r3, #0
 1505 0076 FAD0     		beq	.L130
 458:HW_Lib/AT32F435/BSP/Bsp_DMA.c ****         {
 1506              		.loc 1 458 56 discriminator 1 view .LVU439
 1507 0078 1A68     		ldr	r2, [r3]
 457:HW_Lib/AT32F435/BSP/Bsp_DMA.c ****             BspDMA1_Irq_Callback_List[Bsp_DMA_Stream_2]->BspDMA_Irq_Callback_Func)
 1508              		.loc 1 457 57 discriminator 1 view .LVU440
 1509 007a 002A     		cmp	r2, #0
 1510 007c F7D0     		beq	.L130
 460:HW_Lib/AT32F435/BSP/Bsp_DMA.c ****             BspDMA1_Irq_Callback_List[Bsp_DMA_Stream_2]->BspDMA_Irq_Callback_Func(cus_data);
 1511              		.loc 1 460 13 is_stmt 1 view .LVU441
 1512              	.LVL159:
 461:HW_Lib/AT32F435/BSP/Bsp_DMA.c ****         }
 1513              		.loc 1 461 13 view .LVU442
 1514 007e 5868     		ldr	r0, [r3, #4]
 1515              	.LVL160:
 461:HW_Lib/AT32F435/BSP/Bsp_DMA.c ****         }
 1516              		.loc 1 461 13 is_stmt 0 view .LVU443
 1517 0080 9047     		blx	r2
 1518              	.LVL161:
 464:HW_Lib/AT32F435/BSP/Bsp_DMA.c ****     }
 1519              		.loc 1 464 9 is_stmt 1 view .LVU444
 1520 0082 F4E7     		b	.L130
 1521              	.LVL162:
 1522              	.L160:
 469:HW_Lib/AT32F435/BSP/Bsp_DMA.c ****             BspDMA1_Irq_Callback_List[Bsp_DMA_Stream_3]->BspDMA_Irq_Callback_Func)
 1523              		.loc 1 469 9 view .LVU445
 469:HW_Lib/AT32F435/BSP/Bsp_DMA.c ****             BspDMA1_Irq_Callback_List[Bsp_DMA_Stream_3]->BspDMA_Irq_Callback_Func)
 1524              		.loc 1 469 38 is_stmt 0 view .LVU446
 1525 0084 3F4B     		ldr	r3, .L170+56
 1526 0086 9B68     		ldr	r3, [r3, #8]
 469:HW_Lib/AT32F435/BSP/Bsp_DMA.c ****             BspDMA1_Irq_Callback_List[Bsp_DMA_Stream_3]->BspDMA_Irq_Callback_Func)
 1527              		.loc 1 469 12 view .LVU447
 1528 0088 002B     		cmp	r3, #0
 1529 008a F0D0     		beq	.L130
 470:HW_Lib/AT32F435/BSP/Bsp_DMA.c ****         {
 1530              		.loc 1 470 56 discriminator 1 view .LVU448
 1531 008c 1A68     		ldr	r2, [r3]
 469:HW_Lib/AT32F435/BSP/Bsp_DMA.c ****             BspDMA1_Irq_Callback_List[Bsp_DMA_Stream_3]->BspDMA_Irq_Callback_Func)
 1532              		.loc 1 469 57 discriminator 1 view .LVU449
 1533 008e 002A     		cmp	r2, #0
 1534 0090 EDD0     		beq	.L130
 472:HW_Lib/AT32F435/BSP/Bsp_DMA.c ****             BspDMA1_Irq_Callback_List[Bsp_DMA_Stream_3]->BspDMA_Irq_Callback_Func(cus_data);
 1535              		.loc 1 472 13 is_stmt 1 view .LVU450
 1536              	.LVL163:
 473:HW_Lib/AT32F435/BSP/Bsp_DMA.c ****         }
 1537              		.loc 1 473 13 view .LVU451
 1538 0092 5868     		ldr	r0, [r3, #4]
 1539              	.LVL164:
 473:HW_Lib/AT32F435/BSP/Bsp_DMA.c ****         }
 1540              		.loc 1 473 13 is_stmt 0 view .LVU452
 1541 0094 9047     		blx	r2
 1542              	.LVL165:
ARM GAS  C:\Users\8bit\AppData\Local\Temp\ccexJHsx.s 			page 44


 476:HW_Lib/AT32F435/BSP/Bsp_DMA.c ****     }
 1543              		.loc 1 476 9 is_stmt 1 view .LVU453
 1544 0096 EAE7     		b	.L130
 1545              	.LVL166:
 1546              	.L161:
 481:HW_Lib/AT32F435/BSP/Bsp_DMA.c ****             BspDMA1_Irq_Callback_List[Bsp_DMA_Stream_4]->BspDMA_Irq_Callback_Func)
 1547              		.loc 1 481 9 view .LVU454
 481:HW_Lib/AT32F435/BSP/Bsp_DMA.c ****             BspDMA1_Irq_Callback_List[Bsp_DMA_Stream_4]->BspDMA_Irq_Callback_Func)
 1548              		.loc 1 481 38 is_stmt 0 view .LVU455
 1549 0098 3A4B     		ldr	r3, .L170+56
 1550 009a DB68     		ldr	r3, [r3, #12]
 481:HW_Lib/AT32F435/BSP/Bsp_DMA.c ****             BspDMA1_Irq_Callback_List[Bsp_DMA_Stream_4]->BspDMA_Irq_Callback_Func)
 1551              		.loc 1 481 12 view .LVU456
 1552 009c 002B     		cmp	r3, #0
 1553 009e E6D0     		beq	.L130
 482:HW_Lib/AT32F435/BSP/Bsp_DMA.c ****         {
 1554              		.loc 1 482 56 discriminator 1 view .LVU457
 1555 00a0 1A68     		ldr	r2, [r3]
 481:HW_Lib/AT32F435/BSP/Bsp_DMA.c ****             BspDMA1_Irq_Callback_List[Bsp_DMA_Stream_4]->BspDMA_Irq_Callback_Func)
 1556              		.loc 1 481 57 discriminator 1 view .LVU458
 1557 00a2 002A     		cmp	r2, #0
 1558 00a4 E3D0     		beq	.L130
 484:HW_Lib/AT32F435/BSP/Bsp_DMA.c ****             BspDMA1_Irq_Callback_List[Bsp_DMA_Stream_4]->BspDMA_Irq_Callback_Func(cus_data);
 1559              		.loc 1 484 13 is_stmt 1 view .LVU459
 1560              	.LVL167:
 485:HW_Lib/AT32F435/BSP/Bsp_DMA.c ****         }
 1561              		.loc 1 485 13 view .LVU460
 1562 00a6 5868     		ldr	r0, [r3, #4]
 1563              	.LVL168:
 485:HW_Lib/AT32F435/BSP/Bsp_DMA.c ****         }
 1564              		.loc 1 485 13 is_stmt 0 view .LVU461
 1565 00a8 9047     		blx	r2
 1566              	.LVL169:
 488:HW_Lib/AT32F435/BSP/Bsp_DMA.c ****     }
 1567              		.loc 1 488 9 is_stmt 1 view .LVU462
 1568 00aa E0E7     		b	.L130
 1569              	.LVL170:
 1570              	.L162:
 493:HW_Lib/AT32F435/BSP/Bsp_DMA.c ****             BspDMA1_Irq_Callback_List[Bsp_DMA_Stream_5]->BspDMA_Irq_Callback_Func)
 1571              		.loc 1 493 9 view .LVU463
 493:HW_Lib/AT32F435/BSP/Bsp_DMA.c ****             BspDMA1_Irq_Callback_List[Bsp_DMA_Stream_5]->BspDMA_Irq_Callback_Func)
 1572              		.loc 1 493 38 is_stmt 0 view .LVU464
 1573 00ac 354B     		ldr	r3, .L170+56
 1574 00ae 1B69     		ldr	r3, [r3, #16]
 493:HW_Lib/AT32F435/BSP/Bsp_DMA.c ****             BspDMA1_Irq_Callback_List[Bsp_DMA_Stream_5]->BspDMA_Irq_Callback_Func)
 1575              		.loc 1 493 12 view .LVU465
 1576 00b0 002B     		cmp	r3, #0
 1577 00b2 DCD0     		beq	.L130
 494:HW_Lib/AT32F435/BSP/Bsp_DMA.c ****         {
 1578              		.loc 1 494 56 discriminator 1 view .LVU466
 1579 00b4 1A68     		ldr	r2, [r3]
 493:HW_Lib/AT32F435/BSP/Bsp_DMA.c ****             BspDMA1_Irq_Callback_List[Bsp_DMA_Stream_5]->BspDMA_Irq_Callback_Func)
 1580              		.loc 1 493 57 discriminator 1 view .LVU467
 1581 00b6 002A     		cmp	r2, #0
 1582 00b8 D9D0     		beq	.L130
 496:HW_Lib/AT32F435/BSP/Bsp_DMA.c ****             BspDMA1_Irq_Callback_List[Bsp_DMA_Stream_5]->BspDMA_Irq_Callback_Func(cus_data);
 1583              		.loc 1 496 13 is_stmt 1 view .LVU468
ARM GAS  C:\Users\8bit\AppData\Local\Temp\ccexJHsx.s 			page 45


 1584              	.LVL171:
 497:HW_Lib/AT32F435/BSP/Bsp_DMA.c ****         }
 1585              		.loc 1 497 13 view .LVU469
 1586 00ba 5868     		ldr	r0, [r3, #4]
 1587              	.LVL172:
 497:HW_Lib/AT32F435/BSP/Bsp_DMA.c ****         }
 1588              		.loc 1 497 13 is_stmt 0 view .LVU470
 1589 00bc 9047     		blx	r2
 1590              	.LVL173:
 500:HW_Lib/AT32F435/BSP/Bsp_DMA.c ****     }
 1591              		.loc 1 500 9 is_stmt 1 view .LVU471
 1592 00be D6E7     		b	.L130
 1593              	.LVL174:
 1594              	.L163:
 505:HW_Lib/AT32F435/BSP/Bsp_DMA.c ****             BspDMA1_Irq_Callback_List[Bsp_DMA_Stream_6]->BspDMA_Irq_Callback_Func)
 1595              		.loc 1 505 9 view .LVU472
 505:HW_Lib/AT32F435/BSP/Bsp_DMA.c ****             BspDMA1_Irq_Callback_List[Bsp_DMA_Stream_6]->BspDMA_Irq_Callback_Func)
 1596              		.loc 1 505 38 is_stmt 0 view .LVU473
 1597 00c0 304B     		ldr	r3, .L170+56
 1598 00c2 5B69     		ldr	r3, [r3, #20]
 505:HW_Lib/AT32F435/BSP/Bsp_DMA.c ****             BspDMA1_Irq_Callback_List[Bsp_DMA_Stream_6]->BspDMA_Irq_Callback_Func)
 1599              		.loc 1 505 12 view .LVU474
 1600 00c4 002B     		cmp	r3, #0
 1601 00c6 D2D0     		beq	.L130
 506:HW_Lib/AT32F435/BSP/Bsp_DMA.c ****         {
 1602              		.loc 1 506 56 discriminator 1 view .LVU475
 1603 00c8 1A68     		ldr	r2, [r3]
 505:HW_Lib/AT32F435/BSP/Bsp_DMA.c ****             BspDMA1_Irq_Callback_List[Bsp_DMA_Stream_6]->BspDMA_Irq_Callback_Func)
 1604              		.loc 1 505 57 discriminator 1 view .LVU476
 1605 00ca 002A     		cmp	r2, #0
 1606 00cc CFD0     		beq	.L130
 508:HW_Lib/AT32F435/BSP/Bsp_DMA.c ****             BspDMA1_Irq_Callback_List[Bsp_DMA_Stream_6]->BspDMA_Irq_Callback_Func(cus_data);
 1607              		.loc 1 508 13 is_stmt 1 view .LVU477
 1608              	.LVL175:
 509:HW_Lib/AT32F435/BSP/Bsp_DMA.c ****         }
 1609              		.loc 1 509 13 view .LVU478
 1610 00ce 5868     		ldr	r0, [r3, #4]
 1611              	.LVL176:
 509:HW_Lib/AT32F435/BSP/Bsp_DMA.c ****         }
 1612              		.loc 1 509 13 is_stmt 0 view .LVU479
 1613 00d0 9047     		blx	r2
 1614              	.LVL177:
 512:HW_Lib/AT32F435/BSP/Bsp_DMA.c ****     }
 1615              		.loc 1 512 9 is_stmt 1 view .LVU480
 1616 00d2 CCE7     		b	.L130
 1617              	.LVL178:
 1618              	.L164:
 517:HW_Lib/AT32F435/BSP/Bsp_DMA.c ****             BspDMA1_Irq_Callback_List[Bsp_DMA_Stream_7]->BspDMA_Irq_Callback_Func)
 1619              		.loc 1 517 9 view .LVU481
 517:HW_Lib/AT32F435/BSP/Bsp_DMA.c ****             BspDMA1_Irq_Callback_List[Bsp_DMA_Stream_7]->BspDMA_Irq_Callback_Func)
 1620              		.loc 1 517 38 is_stmt 0 view .LVU482
 1621 00d4 2B4B     		ldr	r3, .L170+56
 1622 00d6 9B69     		ldr	r3, [r3, #24]
 517:HW_Lib/AT32F435/BSP/Bsp_DMA.c ****             BspDMA1_Irq_Callback_List[Bsp_DMA_Stream_7]->BspDMA_Irq_Callback_Func)
 1623              		.loc 1 517 12 view .LVU483
 1624 00d8 002B     		cmp	r3, #0
 1625 00da C8D0     		beq	.L130
ARM GAS  C:\Users\8bit\AppData\Local\Temp\ccexJHsx.s 			page 46


 518:HW_Lib/AT32F435/BSP/Bsp_DMA.c ****         {
 1626              		.loc 1 518 56 discriminator 1 view .LVU484
 1627 00dc 1A68     		ldr	r2, [r3]
 517:HW_Lib/AT32F435/BSP/Bsp_DMA.c ****             BspDMA1_Irq_Callback_List[Bsp_DMA_Stream_7]->BspDMA_Irq_Callback_Func)
 1628              		.loc 1 517 57 discriminator 1 view .LVU485
 1629 00de 002A     		cmp	r2, #0
 1630 00e0 C5D0     		beq	.L130
 520:HW_Lib/AT32F435/BSP/Bsp_DMA.c ****             BspDMA1_Irq_Callback_List[Bsp_DMA_Stream_7]->BspDMA_Irq_Callback_Func(cus_data);
 1631              		.loc 1 520 13 is_stmt 1 view .LVU486
 1632              	.LVL179:
 521:HW_Lib/AT32F435/BSP/Bsp_DMA.c ****         }
 1633              		.loc 1 521 13 view .LVU487
 1634 00e2 5868     		ldr	r0, [r3, #4]
 1635              	.LVL180:
 521:HW_Lib/AT32F435/BSP/Bsp_DMA.c ****         }
 1636              		.loc 1 521 13 is_stmt 0 view .LVU488
 1637 00e4 9047     		blx	r2
 1638              	.LVL181:
 524:HW_Lib/AT32F435/BSP/Bsp_DMA.c ****     }
 1639              		.loc 1 524 9 is_stmt 1 view .LVU489
 1640 00e6 C2E7     		b	.L130
 1641              	.LVL182:
 1642              	.L165:
 529:HW_Lib/AT32F435/BSP/Bsp_DMA.c ****             BspDMA2_Irq_Callback_List[Bsp_DMA_Stream_1]->BspDMA_Irq_Callback_Func)
 1643              		.loc 1 529 9 view .LVU490
 529:HW_Lib/AT32F435/BSP/Bsp_DMA.c ****             BspDMA2_Irq_Callback_List[Bsp_DMA_Stream_1]->BspDMA_Irq_Callback_Func)
 1644              		.loc 1 529 38 is_stmt 0 view .LVU491
 1645 00e8 254B     		ldr	r3, .L170+52
 1646 00ea 1B68     		ldr	r3, [r3]
 529:HW_Lib/AT32F435/BSP/Bsp_DMA.c ****             BspDMA2_Irq_Callback_List[Bsp_DMA_Stream_1]->BspDMA_Irq_Callback_Func)
 1647              		.loc 1 529 12 view .LVU492
 1648 00ec 002B     		cmp	r3, #0
 1649 00ee BED0     		beq	.L130
 530:HW_Lib/AT32F435/BSP/Bsp_DMA.c ****         {
 1650              		.loc 1 530 56 discriminator 1 view .LVU493
 1651 00f0 1A68     		ldr	r2, [r3]
 529:HW_Lib/AT32F435/BSP/Bsp_DMA.c ****             BspDMA2_Irq_Callback_List[Bsp_DMA_Stream_1]->BspDMA_Irq_Callback_Func)
 1652              		.loc 1 529 57 discriminator 1 view .LVU494
 1653 00f2 002A     		cmp	r2, #0
 1654 00f4 BBD0     		beq	.L130
 532:HW_Lib/AT32F435/BSP/Bsp_DMA.c ****             BspDMA2_Irq_Callback_List[Bsp_DMA_Stream_1]->BspDMA_Irq_Callback_Func(cus_data);
 1655              		.loc 1 532 13 is_stmt 1 view .LVU495
 1656              	.LVL183:
 533:HW_Lib/AT32F435/BSP/Bsp_DMA.c ****         }
 1657              		.loc 1 533 13 view .LVU496
 1658 00f6 5868     		ldr	r0, [r3, #4]
 1659              	.LVL184:
 533:HW_Lib/AT32F435/BSP/Bsp_DMA.c ****         }
 1660              		.loc 1 533 13 is_stmt 0 view .LVU497
 1661 00f8 9047     		blx	r2
 1662              	.LVL185:
 536:HW_Lib/AT32F435/BSP/Bsp_DMA.c ****     }
 1663              		.loc 1 536 9 is_stmt 1 view .LVU498
 1664 00fa B8E7     		b	.L130
 1665              	.LVL186:
 1666              	.L166:
 541:HW_Lib/AT32F435/BSP/Bsp_DMA.c ****             BspDMA2_Irq_Callback_List[Bsp_DMA_Stream_2]->BspDMA_Irq_Callback_Func)
ARM GAS  C:\Users\8bit\AppData\Local\Temp\ccexJHsx.s 			page 47


 1667              		.loc 1 541 9 view .LVU499
 541:HW_Lib/AT32F435/BSP/Bsp_DMA.c ****             BspDMA2_Irq_Callback_List[Bsp_DMA_Stream_2]->BspDMA_Irq_Callback_Func)
 1668              		.loc 1 541 38 is_stmt 0 view .LVU500
 1669 00fc 204B     		ldr	r3, .L170+52
 1670 00fe 5B68     		ldr	r3, [r3, #4]
 541:HW_Lib/AT32F435/BSP/Bsp_DMA.c ****             BspDMA2_Irq_Callback_List[Bsp_DMA_Stream_2]->BspDMA_Irq_Callback_Func)
 1671              		.loc 1 541 12 view .LVU501
 1672 0100 002B     		cmp	r3, #0
 1673 0102 B4D0     		beq	.L130
 542:HW_Lib/AT32F435/BSP/Bsp_DMA.c ****         {
 1674              		.loc 1 542 56 discriminator 1 view .LVU502
 1675 0104 1A68     		ldr	r2, [r3]
 541:HW_Lib/AT32F435/BSP/Bsp_DMA.c ****             BspDMA2_Irq_Callback_List[Bsp_DMA_Stream_2]->BspDMA_Irq_Callback_Func)
 1676              		.loc 1 541 57 discriminator 1 view .LVU503
 1677 0106 002A     		cmp	r2, #0
 1678 0108 B1D0     		beq	.L130
 544:HW_Lib/AT32F435/BSP/Bsp_DMA.c ****             BspDMA2_Irq_Callback_List[Bsp_DMA_Stream_2]->BspDMA_Irq_Callback_Func(cus_data);
 1679              		.loc 1 544 13 is_stmt 1 view .LVU504
 1680              	.LVL187:
 545:HW_Lib/AT32F435/BSP/Bsp_DMA.c ****         }
 1681              		.loc 1 545 13 view .LVU505
 1682 010a 5868     		ldr	r0, [r3, #4]
 1683              	.LVL188:
 545:HW_Lib/AT32F435/BSP/Bsp_DMA.c ****         }
 1684              		.loc 1 545 13 is_stmt 0 view .LVU506
 1685 010c 9047     		blx	r2
 1686              	.LVL189:
 548:HW_Lib/AT32F435/BSP/Bsp_DMA.c ****     }
 1687              		.loc 1 548 9 is_stmt 1 view .LVU507
 1688 010e AEE7     		b	.L130
 1689              	.LVL190:
 1690              	.L167:
 553:HW_Lib/AT32F435/BSP/Bsp_DMA.c ****             BspDMA2_Irq_Callback_List[Bsp_DMA_Stream_3]->BspDMA_Irq_Callback_Func)
 1691              		.loc 1 553 9 view .LVU508
 553:HW_Lib/AT32F435/BSP/Bsp_DMA.c ****             BspDMA2_Irq_Callback_List[Bsp_DMA_Stream_3]->BspDMA_Irq_Callback_Func)
 1692              		.loc 1 553 38 is_stmt 0 view .LVU509
 1693 0110 1B4B     		ldr	r3, .L170+52
 1694 0112 9B68     		ldr	r3, [r3, #8]
 553:HW_Lib/AT32F435/BSP/Bsp_DMA.c ****             BspDMA2_Irq_Callback_List[Bsp_DMA_Stream_3]->BspDMA_Irq_Callback_Func)
 1695              		.loc 1 553 12 view .LVU510
 1696 0114 002B     		cmp	r3, #0
 1697 0116 AAD0     		beq	.L130
 554:HW_Lib/AT32F435/BSP/Bsp_DMA.c ****         {
 1698              		.loc 1 554 56 discriminator 1 view .LVU511
 1699 0118 1A68     		ldr	r2, [r3]
 553:HW_Lib/AT32F435/BSP/Bsp_DMA.c ****             BspDMA2_Irq_Callback_List[Bsp_DMA_Stream_3]->BspDMA_Irq_Callback_Func)
 1700              		.loc 1 553 57 discriminator 1 view .LVU512
 1701 011a 002A     		cmp	r2, #0
 1702 011c A7D0     		beq	.L130
 556:HW_Lib/AT32F435/BSP/Bsp_DMA.c ****             BspDMA2_Irq_Callback_List[Bsp_DMA_Stream_3]->BspDMA_Irq_Callback_Func(cus_data);
 1703              		.loc 1 556 13 is_stmt 1 view .LVU513
 1704              	.LVL191:
 557:HW_Lib/AT32F435/BSP/Bsp_DMA.c ****         }
 1705              		.loc 1 557 13 view .LVU514
 1706 011e 5868     		ldr	r0, [r3, #4]
 1707              	.LVL192:
 557:HW_Lib/AT32F435/BSP/Bsp_DMA.c ****         }
ARM GAS  C:\Users\8bit\AppData\Local\Temp\ccexJHsx.s 			page 48


 1708              		.loc 1 557 13 is_stmt 0 view .LVU515
 1709 0120 9047     		blx	r2
 1710              	.LVL193:
 560:HW_Lib/AT32F435/BSP/Bsp_DMA.c ****     }
 1711              		.loc 1 560 9 is_stmt 1 view .LVU516
 1712 0122 A4E7     		b	.L130
 1713              	.LVL194:
 1714              	.L168:
 565:HW_Lib/AT32F435/BSP/Bsp_DMA.c ****             BspDMA2_Irq_Callback_List[Bsp_DMA_Stream_4]->BspDMA_Irq_Callback_Func)
 1715              		.loc 1 565 9 view .LVU517
 565:HW_Lib/AT32F435/BSP/Bsp_DMA.c ****             BspDMA2_Irq_Callback_List[Bsp_DMA_Stream_4]->BspDMA_Irq_Callback_Func)
 1716              		.loc 1 565 38 is_stmt 0 view .LVU518
 1717 0124 164B     		ldr	r3, .L170+52
 1718 0126 DB68     		ldr	r3, [r3, #12]
 565:HW_Lib/AT32F435/BSP/Bsp_DMA.c ****             BspDMA2_Irq_Callback_List[Bsp_DMA_Stream_4]->BspDMA_Irq_Callback_Func)
 1719              		.loc 1 565 12 view .LVU519
 1720 0128 002B     		cmp	r3, #0
 1721 012a A0D0     		beq	.L130
 566:HW_Lib/AT32F435/BSP/Bsp_DMA.c ****         {
 1722              		.loc 1 566 56 discriminator 1 view .LVU520
 1723 012c 1A68     		ldr	r2, [r3]
 565:HW_Lib/AT32F435/BSP/Bsp_DMA.c ****             BspDMA2_Irq_Callback_List[Bsp_DMA_Stream_4]->BspDMA_Irq_Callback_Func)
 1724              		.loc 1 565 57 discriminator 1 view .LVU521
 1725 012e 002A     		cmp	r2, #0
 1726 0130 9DD0     		beq	.L130
 568:HW_Lib/AT32F435/BSP/Bsp_DMA.c ****             BspDMA2_Irq_Callback_List[Bsp_DMA_Stream_4]->BspDMA_Irq_Callback_Func(cus_data);
 1727              		.loc 1 568 13 is_stmt 1 view .LVU522
 1728              	.LVL195:
 569:HW_Lib/AT32F435/BSP/Bsp_DMA.c ****         }
 1729              		.loc 1 569 13 view .LVU523
 1730 0132 5868     		ldr	r0, [r3, #4]
 1731              	.LVL196:
 569:HW_Lib/AT32F435/BSP/Bsp_DMA.c ****         }
 1732              		.loc 1 569 13 is_stmt 0 view .LVU524
 1733 0134 9047     		blx	r2
 1734              	.LVL197:
 572:HW_Lib/AT32F435/BSP/Bsp_DMA.c ****     }
 1735              		.loc 1 572 9 is_stmt 1 view .LVU525
 1736 0136 9AE7     		b	.L130
 1737              	.LVL198:
 1738              	.L169:
 577:HW_Lib/AT32F435/BSP/Bsp_DMA.c ****             BspDMA2_Irq_Callback_List[Bsp_DMA_Stream_5]->BspDMA_Irq_Callback_Func)
 1739              		.loc 1 577 9 view .LVU526
 577:HW_Lib/AT32F435/BSP/Bsp_DMA.c ****             BspDMA2_Irq_Callback_List[Bsp_DMA_Stream_5]->BspDMA_Irq_Callback_Func)
 1740              		.loc 1 577 38 is_stmt 0 view .LVU527
 1741 0138 114B     		ldr	r3, .L170+52
 1742 013a 1B69     		ldr	r3, [r3, #16]
 577:HW_Lib/AT32F435/BSP/Bsp_DMA.c ****             BspDMA2_Irq_Callback_List[Bsp_DMA_Stream_5]->BspDMA_Irq_Callback_Func)
 1743              		.loc 1 577 12 view .LVU528
 1744 013c 002B     		cmp	r3, #0
 1745 013e 96D0     		beq	.L130
 578:HW_Lib/AT32F435/BSP/Bsp_DMA.c ****         {
 1746              		.loc 1 578 56 discriminator 1 view .LVU529
 1747 0140 1A68     		ldr	r2, [r3]
 577:HW_Lib/AT32F435/BSP/Bsp_DMA.c ****             BspDMA2_Irq_Callback_List[Bsp_DMA_Stream_5]->BspDMA_Irq_Callback_Func)
 1748              		.loc 1 577 57 discriminator 1 view .LVU530
 1749 0142 002A     		cmp	r2, #0
ARM GAS  C:\Users\8bit\AppData\Local\Temp\ccexJHsx.s 			page 49


 1750 0144 93D0     		beq	.L130
 580:HW_Lib/AT32F435/BSP/Bsp_DMA.c ****             BspDMA2_Irq_Callback_List[Bsp_DMA_Stream_5]->BspDMA_Irq_Callback_Func(cus_data);
 1751              		.loc 1 580 13 is_stmt 1 view .LVU531
 1752              	.LVL199:
 581:HW_Lib/AT32F435/BSP/Bsp_DMA.c ****         }
 1753              		.loc 1 581 13 view .LVU532
 1754 0146 5868     		ldr	r0, [r3, #4]
 1755              	.LVL200:
 581:HW_Lib/AT32F435/BSP/Bsp_DMA.c ****         }
 1756              		.loc 1 581 13 is_stmt 0 view .LVU533
 1757 0148 9047     		blx	r2
 1758              	.LVL201:
 584:HW_Lib/AT32F435/BSP/Bsp_DMA.c ****     }
 1759              		.loc 1 584 9 is_stmt 1 view .LVU534
 1760 014a 90E7     		b	.L130
 1761              	.L171:
 1762              		.align	2
 1763              	.L170:
 1764 014c 08640240 		.word	1073898504
 1765 0150 1C640240 		.word	1073898524
 1766 0154 30640240 		.word	1073898544
 1767 0158 44640240 		.word	1073898564
 1768 015c 58640240 		.word	1073898584
 1769 0160 6C640240 		.word	1073898604
 1770 0164 80640240 		.word	1073898624
 1771 0168 08660240 		.word	1073899016
 1772 016c 1C660240 		.word	1073899036
 1773 0170 30660240 		.word	1073899056
 1774 0174 44660240 		.word	1073899076
 1775 0178 58660240 		.word	1073899096
 1776 017c 6C660240 		.word	1073899116
 1777 0180 00000000 		.word	.LANCHOR7
 1778 0184 00000000 		.word	.LANCHOR6
 1779              		.cfi_endproc
 1780              	.LFE144:
 1782              		.global	BspDMA_Pipe
 1783              		.global	BspDMA
 1784              		.section	.bss.BspDMA1_Irq_Callback_List,"aw",%nobits
 1785              		.align	2
 1786              		.set	.LANCHOR6,. + 0
 1789              	BspDMA1_Irq_Callback_List:
 1790 0000 00000000 		.space	28
 1790      00000000 
 1790      00000000 
 1790      00000000 
 1790      00000000 
 1791              		.section	.bss.BspDMA2_Irq_Callback_List,"aw",%nobits
 1792              		.align	2
 1793              		.set	.LANCHOR7,. + 0
 1796              	BspDMA2_Irq_Callback_List:
 1797 0000 00000000 		.space	28
 1797      00000000 
 1797      00000000 
 1797      00000000 
 1797      00000000 
 1798              		.section	.bss.DataPipe_DMA_Init,"aw",%nobits
 1799              		.set	.LANCHOR0,. + 0
ARM GAS  C:\Users\8bit\AppData\Local\Temp\ccexJHsx.s 			page 50


 1802              	DataPipe_DMA_Init:
 1803 0000 00       		.space	1
 1804              		.section	.bss.DataPipe_Trans_Err_Callback,"aw",%nobits
 1805              		.align	2
 1806              		.set	.LANCHOR9,. + 0
 1809              	DataPipe_Trans_Err_Callback:
 1810 0000 00000000 		.space	4
 1811              		.section	.bss.DataPipe_Trans_Fin_Callback,"aw",%nobits
 1812              		.align	2
 1813              		.set	.LANCHOR8,. + 0
 1816              	DataPipe_Trans_Fin_Callback:
 1817 0000 00000000 		.space	4
 1818              		.section	.bss.Dma_Clock_Init,"aw",%nobits
 1819              		.set	.LANCHOR1,. + 0
 1822              	Dma_Clock_Init:
 1823 0000 00       		.space	1
 1824              		.section	.bss.dma1_enable.1,"aw",%nobits
 1825              		.set	.LANCHOR2,. + 0
 1828              	dma1_enable.1:
 1829 0000 00       		.space	1
 1830              		.section	.bss.dma2_enable.0,"aw",%nobits
 1831              		.set	.LANCHOR4,. + 0
 1834              	dma2_enable.0:
 1835 0000 00       		.space	1
 1836              		.section	.data.BspDMA,"aw"
 1837              		.align	2
 1840              	BspDMA:
 1841 0000 00000000 		.word	BspDMA_Regist_Obj
 1842 0004 00000000 		.word	BspDMA_Unregist_Obj
 1843 0008 00000000 		.word	0
 1844 000c 00000000 		.word	BspDMA_Get_Channel_Instance
 1845 0010 00000000 		.word	BspDMA_Get_Instance
 1846 0014 00000000 		.word	BspDMA_EnableIRQ
 1847 0018 00000000 		.word	BspDMA_DisableIRQ
 1848              		.section	.data.BspDMA_Pipe,"aw"
 1849              		.align	2
 1852              	BspDMA_Pipe:
 1853 0000 00000000 		.word	BspDMA_Pipe_Init
 1854 0004 00000000 		.word	BspDMA_Pipe_DeInit
 1855 0008 00000000 		.word	BspDMA_Pipe_Trans
 1856 000c 00000000 		.word	BspDMA_Get_Pipe_Handle
 1857              		.section	.rodata.BspDMA1_Instance_List,"a"
 1858              		.align	2
 1859              		.set	.LANCHOR3,. + 0
 1862              	BspDMA1_Instance_List:
 1863 0000 08640240 		.word	1073898504
 1864 0004 1C640240 		.word	1073898524
 1865 0008 30640240 		.word	1073898544
 1866 000c 44640240 		.word	1073898564
 1867 0010 58640240 		.word	1073898584
 1868 0014 6C640240 		.word	1073898604
 1869 0018 80640240 		.word	1073898624
 1870              		.section	.rodata.BspDMA2_Instance_List,"a"
 1871              		.align	2
 1872              		.set	.LANCHOR5,. + 0
 1875              	BspDMA2_Instance_List:
 1876 0000 08660240 		.word	1073899016
ARM GAS  C:\Users\8bit\AppData\Local\Temp\ccexJHsx.s 			page 51


 1877 0004 1C660240 		.word	1073899036
 1878 0008 30660240 		.word	1073899056
 1879 000c 44660240 		.word	1073899076
 1880 0010 58660240 		.word	1073899096
 1881 0014 6C660240 		.word	1073899116
 1882 0018 80660240 		.word	1073899136
 1883              		.text
 1884              	.Letext0:
 1885              		.file 2 "c:\\program files (x86)\\gnu arm embedded toolchain\\10 2021.10\\arm-none-eabi\\include\\
 1886              		.file 3 "c:\\program files (x86)\\gnu arm embedded toolchain\\10 2021.10\\arm-none-eabi\\include\\
 1887              		.file 4 "HW_Lib/PortApi_Def/Bsp_DMA_Port_Def.h"
 1888              		.file 5 "HW_Lib/AT32F435/device_support/at32f435_437.h"
 1889              		.file 6 "HW_Lib/AT32F435/drivers/inc/at32f435_437_crm.h"
 1890              		.file 7 "HW_Lib/AT32F435/drivers/inc/at32f435_437_tmr.h"
 1891              		.file 8 "HW_Lib/AT32F435/drivers/inc/at32f435_437_misc.h"
 1892              		.file 9 "HW_Lib/AT32F435/drivers/inc/at32f435_437_dma.h"
 1893              		.file 10 "HW_Lib/AT32F435/BSP/Bsp_DMA.h"
ARM GAS  C:\Users\8bit\AppData\Local\Temp\ccexJHsx.s 			page 52


DEFINED SYMBOLS
                            *ABS*:00000000 Bsp_DMA.c
C:\Users\8bit\AppData\Local\Temp\ccexJHsx.s:20     .text.BspDMA_Regist_Obj:00000000 $t
C:\Users\8bit\AppData\Local\Temp\ccexJHsx.s:25     .text.BspDMA_Regist_Obj:00000000 BspDMA_Regist_Obj
C:\Users\8bit\AppData\Local\Temp\ccexJHsx.s:47     .text.BspDMA_Unregist_Obj:00000000 $t
C:\Users\8bit\AppData\Local\Temp\ccexJHsx.s:52     .text.BspDMA_Unregist_Obj:00000000 BspDMA_Unregist_Obj
C:\Users\8bit\AppData\Local\Temp\ccexJHsx.s:72     .text.BspDMA_Get_Channel_Instance:00000000 $t
C:\Users\8bit\AppData\Local\Temp\ccexJHsx.s:77     .text.BspDMA_Get_Channel_Instance:00000000 BspDMA_Get_Channel_Instance
C:\Users\8bit\AppData\Local\Temp\ccexJHsx.s:94     .text.BspDMA_Get_Channel_Instance:0000000a $d
C:\Users\8bit\AppData\Local\Temp\ccexJHsx.s:166    .text.BspDMA_Get_Channel_Instance:0000003a $d
C:\Users\8bit\AppData\Local\Temp\ccexJHsx.s:172    .text.BspDMA_Get_Channel_Instance:00000040 $t
C:\Users\8bit\AppData\Local\Temp\ccexJHsx.s:242    .text.BspDMA_Get_Channel_Instance:00000064 $d
C:\Users\8bit\AppData\Local\Temp\ccexJHsx.s:259    .text.BspDMA_Get_Pipe_Handle:00000000 $t
C:\Users\8bit\AppData\Local\Temp\ccexJHsx.s:264    .text.BspDMA_Get_Pipe_Handle:00000000 BspDMA_Get_Pipe_Handle
C:\Users\8bit\AppData\Local\Temp\ccexJHsx.s:288    .text.BspDMA_Get_Pipe_Handle:00000010 $d
C:\Users\8bit\AppData\Local\Temp\ccexJHsx.s:294    .text.BspDMA_Get_Instance:00000000 $t
C:\Users\8bit\AppData\Local\Temp\ccexJHsx.s:299    .text.BspDMA_Get_Instance:00000000 BspDMA_Get_Instance
C:\Users\8bit\AppData\Local\Temp\ccexJHsx.s:449    .text.BspDMA_Get_Instance:00000088 $d
C:\Users\8bit\AppData\Local\Temp\ccexJHsx.s:462    .text.BspDMA_DisableIRQ:00000000 $t
C:\Users\8bit\AppData\Local\Temp\ccexJHsx.s:467    .text.BspDMA_DisableIRQ:00000000 BspDMA_DisableIRQ
C:\Users\8bit\AppData\Local\Temp\ccexJHsx.s:499    .text.BspDMA_DisableIRQ:00000016 $d
C:\Users\8bit\AppData\Local\Temp\ccexJHsx.s:611    .text.BspDMA_DisableIRQ:00000078 $d
C:\Users\8bit\AppData\Local\Temp\ccexJHsx.s:711    .text.BspDMA_DisableIRQ:000000b8 $d
C:\Users\8bit\AppData\Local\Temp\ccexJHsx.s:717    .text.BspDMA_Pipe_DeInit:00000000 $t
C:\Users\8bit\AppData\Local\Temp\ccexJHsx.s:722    .text.BspDMA_Pipe_DeInit:00000000 BspDMA_Pipe_DeInit
C:\Users\8bit\AppData\Local\Temp\ccexJHsx.s:745    .text.BspDMA_EnableIRQ:00000000 $t
C:\Users\8bit\AppData\Local\Temp\ccexJHsx.s:750    .text.BspDMA_EnableIRQ:00000000 BspDMA_EnableIRQ
C:\Users\8bit\AppData\Local\Temp\ccexJHsx.s:790    .text.BspDMA_EnableIRQ:0000001e $d
C:\Users\8bit\AppData\Local\Temp\ccexJHsx.s:925    .text.BspDMA_EnableIRQ:0000009c $d
C:\Users\8bit\AppData\Local\Temp\ccexJHsx.s:1020   .text.BspDMA_EnableIRQ:000000e4 $d
C:\Users\8bit\AppData\Local\Temp\ccexJHsx.s:1040   .text.BspDMA_Pipe_Trans:00000000 $t
C:\Users\8bit\AppData\Local\Temp\ccexJHsx.s:1045   .text.BspDMA_Pipe_Trans:00000000 BspDMA_Pipe_Trans
C:\Users\8bit\AppData\Local\Temp\ccexJHsx.s:1119   .text.BspDMA_Pipe_Trans:00000040 $d
C:\Users\8bit\AppData\Local\Temp\ccexJHsx.s:1126   .text.BspDMA_Pipe_Init:00000000 $t
C:\Users\8bit\AppData\Local\Temp\ccexJHsx.s:1131   .text.BspDMA_Pipe_Init:00000000 BspDMA_Pipe_Init
C:\Users\8bit\AppData\Local\Temp\ccexJHsx.s:1272   .text.BspDMA_Pipe_Init:0000009c $d
C:\Users\8bit\AppData\Local\Temp\ccexJHsx.s:1283   .text.BspDMA_Pipe_Irq_Callback:00000000 $t
C:\Users\8bit\AppData\Local\Temp\ccexJHsx.s:1289   .text.BspDMA_Pipe_Irq_Callback:00000000 BspDMA_Pipe_Irq_Callback
C:\Users\8bit\AppData\Local\Temp\ccexJHsx.s:1357   .text.BspDMA_Pipe_Irq_Callback:00000040 $d
C:\Users\8bit\AppData\Local\Temp\ccexJHsx.s:1366   .text.BspDMA_Irq_Callback:00000000 $t
C:\Users\8bit\AppData\Local\Temp\ccexJHsx.s:1372   .text.BspDMA_Irq_Callback:00000000 BspDMA_Irq_Callback
C:\Users\8bit\AppData\Local\Temp\ccexJHsx.s:1764   .text.BspDMA_Irq_Callback:0000014c $d
C:\Users\8bit\AppData\Local\Temp\ccexJHsx.s:1852   .data.BspDMA_Pipe:00000000 BspDMA_Pipe
C:\Users\8bit\AppData\Local\Temp\ccexJHsx.s:1840   .data.BspDMA:00000000 BspDMA
C:\Users\8bit\AppData\Local\Temp\ccexJHsx.s:1785   .bss.BspDMA1_Irq_Callback_List:00000000 $d
C:\Users\8bit\AppData\Local\Temp\ccexJHsx.s:1789   .bss.BspDMA1_Irq_Callback_List:00000000 BspDMA1_Irq_Callback_List
C:\Users\8bit\AppData\Local\Temp\ccexJHsx.s:1792   .bss.BspDMA2_Irq_Callback_List:00000000 $d
C:\Users\8bit\AppData\Local\Temp\ccexJHsx.s:1796   .bss.BspDMA2_Irq_Callback_List:00000000 BspDMA2_Irq_Callback_List
C:\Users\8bit\AppData\Local\Temp\ccexJHsx.s:1802   .bss.DataPipe_DMA_Init:00000000 DataPipe_DMA_Init
C:\Users\8bit\AppData\Local\Temp\ccexJHsx.s:1803   .bss.DataPipe_DMA_Init:00000000 $d
C:\Users\8bit\AppData\Local\Temp\ccexJHsx.s:1805   .bss.DataPipe_Trans_Err_Callback:00000000 $d
C:\Users\8bit\AppData\Local\Temp\ccexJHsx.s:1809   .bss.DataPipe_Trans_Err_Callback:00000000 DataPipe_Trans_Err_Callback
C:\Users\8bit\AppData\Local\Temp\ccexJHsx.s:1812   .bss.DataPipe_Trans_Fin_Callback:00000000 $d
C:\Users\8bit\AppData\Local\Temp\ccexJHsx.s:1816   .bss.DataPipe_Trans_Fin_Callback:00000000 DataPipe_Trans_Fin_Callback
C:\Users\8bit\AppData\Local\Temp\ccexJHsx.s:1822   .bss.Dma_Clock_Init:00000000 Dma_Clock_Init
C:\Users\8bit\AppData\Local\Temp\ccexJHsx.s:1823   .bss.Dma_Clock_Init:00000000 $d
C:\Users\8bit\AppData\Local\Temp\ccexJHsx.s:1828   .bss.dma1_enable.1:00000000 dma1_enable.1
ARM GAS  C:\Users\8bit\AppData\Local\Temp\ccexJHsx.s 			page 53


C:\Users\8bit\AppData\Local\Temp\ccexJHsx.s:1829   .bss.dma1_enable.1:00000000 $d
C:\Users\8bit\AppData\Local\Temp\ccexJHsx.s:1834   .bss.dma2_enable.0:00000000 dma2_enable.0
C:\Users\8bit\AppData\Local\Temp\ccexJHsx.s:1835   .bss.dma2_enable.0:00000000 $d
C:\Users\8bit\AppData\Local\Temp\ccexJHsx.s:1837   .data.BspDMA:00000000 $d
C:\Users\8bit\AppData\Local\Temp\ccexJHsx.s:1849   .data.BspDMA_Pipe:00000000 $d
C:\Users\8bit\AppData\Local\Temp\ccexJHsx.s:1858   .rodata.BspDMA1_Instance_List:00000000 $d
C:\Users\8bit\AppData\Local\Temp\ccexJHsx.s:1862   .rodata.BspDMA1_Instance_List:00000000 BspDMA1_Instance_List
C:\Users\8bit\AppData\Local\Temp\ccexJHsx.s:1871   .rodata.BspDMA2_Instance_List:00000000 $d
C:\Users\8bit\AppData\Local\Temp\ccexJHsx.s:1875   .rodata.BspDMA2_Instance_List:00000000 BspDMA2_Instance_List
C:\Users\8bit\AppData\Local\Temp\ccexJHsx.s:101    .text.BspDMA_Get_Channel_Instance:00000011 $d
C:\Users\8bit\AppData\Local\Temp\ccexJHsx.s:101    .text.BspDMA_Get_Channel_Instance:00000012 $t
C:\Users\8bit\AppData\Local\Temp\ccexJHsx.s:506    .text.BspDMA_DisableIRQ:0000001d $d
C:\Users\8bit\AppData\Local\Temp\ccexJHsx.s:506    .text.BspDMA_DisableIRQ:0000001e $t
C:\Users\8bit\AppData\Local\Temp\ccexJHsx.s:618    .text.BspDMA_DisableIRQ:0000007f $d
C:\Users\8bit\AppData\Local\Temp\ccexJHsx.s:618    .text.BspDMA_DisableIRQ:00000080 $t
C:\Users\8bit\AppData\Local\Temp\ccexJHsx.s:797    .text.BspDMA_EnableIRQ:00000025 $d
C:\Users\8bit\AppData\Local\Temp\ccexJHsx.s:797    .text.BspDMA_EnableIRQ:00000026 $t
C:\Users\8bit\AppData\Local\Temp\ccexJHsx.s:932    .text.BspDMA_EnableIRQ:000000a3 $d
C:\Users\8bit\AppData\Local\Temp\ccexJHsx.s:932    .text.BspDMA_EnableIRQ:000000a4 $t

UNDEFINED SYMBOLS
crm_periph_clock_enable
dmamux_enable
dma_interrupt_enable
nvic_priority_group_config
nvic_irq_disable
dma_reset
dmamux_init
nvic_irq_enable
dma_channel_enable
dma_init
dma_data_number_get
