ARM GAS  C:\Users\8bit\AppData\Local\Temp\ccPZJ02k.s 			page 1


   1              		.cpu cortex-m4
   2              		.arch armv7e-m
   3              		.fpu fpv4-sp-d16
   4              		.eabi_attribute 27, 1
   5              		.eabi_attribute 28, 1
   6              		.eabi_attribute 20, 1
   7              		.eabi_attribute 21, 1
   8              		.eabi_attribute 23, 3
   9              		.eabi_attribute 24, 1
  10              		.eabi_attribute 25, 1
  11              		.eabi_attribute 26, 1
  12              		.eabi_attribute 30, 1
  13              		.eabi_attribute 34, 1
  14              		.eabi_attribute 18, 4
  15              		.file	"Bsp_IIC.c"
  16              		.text
  17              	.Ltext0:
  18              		.cfi_sections	.debug_frame
  19              		.section	.text.BspIIC_Write,"ax",%progbits
  20              		.align	1
  21              		.syntax unified
  22              		.thumb
  23              		.thumb_func
  25              	BspIIC_Write:
  26              	.LVL0:
  27              	.LFB139:
  28              		.file 1 "HW_Lib/AT32F435/BSP/Bsp_IIC.c"
   1:HW_Lib/AT32F435/BSP/Bsp_IIC.c **** #include "Bsp_GPIO.h"
   2:HW_Lib/AT32F435/BSP/Bsp_IIC.c **** #include "Bsp_IIC.h"
   3:HW_Lib/AT32F435/BSP/Bsp_IIC.c **** #include "at32f435_437.h"
   4:HW_Lib/AT32F435/BSP/Bsp_IIC.c **** #include "i2c_application.h"
   5:HW_Lib/AT32F435/BSP/Bsp_IIC.c **** 
   6:HW_Lib/AT32F435/BSP/Bsp_IIC.c **** #define I2C_TIMEOUT     50000
   7:HW_Lib/AT32F435/BSP/Bsp_IIC.c **** 
   8:HW_Lib/AT32F435/BSP/Bsp_IIC.c **** #define I2Cx_CLK_10K    0xB170FFFF   //10K
   9:HW_Lib/AT32F435/BSP/Bsp_IIC.c **** #define I2Cx_CLK_50K    0xC0E06969   //50K
  10:HW_Lib/AT32F435/BSP/Bsp_IIC.c **** #define I2Cx_CLK_100K   0x80504C4E   //100K
  11:HW_Lib/AT32F435/BSP/Bsp_IIC.c **** #define I2Cx_CLK_200K   0x30F03C6B   //200K
  12:HW_Lib/AT32F435/BSP/Bsp_IIC.c **** 
  13:HW_Lib/AT32F435/BSP/Bsp_IIC.c **** static i2c_handle_type *BspIIC_HandleList[BspIIC_Instance_I2C_Sum] = {
  14:HW_Lib/AT32F435/BSP/Bsp_IIC.c ****     NULL,
  15:HW_Lib/AT32F435/BSP/Bsp_IIC.c **** };
  16:HW_Lib/AT32F435/BSP/Bsp_IIC.c **** 
  17:HW_Lib/AT32F435/BSP/Bsp_IIC.c **** /* external function */
  18:HW_Lib/AT32F435/BSP/Bsp_IIC.c **** static bool BspIIC_Init(BspIICObj_TypeDef *obj);
  19:HW_Lib/AT32F435/BSP/Bsp_IIC.c **** static bool BspIIC_DeInit(BspIICObj_TypeDef *obj);
  20:HW_Lib/AT32F435/BSP/Bsp_IIC.c **** static bool BspIIC_Read(BspIICObj_TypeDef *obj, uint16_t dev_addr, uint16_t reg, uint8_t *p_buf, ui
  21:HW_Lib/AT32F435/BSP/Bsp_IIC.c **** static bool BspIIC_Write(BspIICObj_TypeDef *obj, uint16_t dev_addr, uint16_t reg, uint8_t *p_buf, u
  22:HW_Lib/AT32F435/BSP/Bsp_IIC.c **** 
  23:HW_Lib/AT32F435/BSP/Bsp_IIC.c **** BspIIC_TypeDef BspIIC = {
  24:HW_Lib/AT32F435/BSP/Bsp_IIC.c ****     .init = BspIIC_Init,
  25:HW_Lib/AT32F435/BSP/Bsp_IIC.c ****     .de_init = BspIIC_DeInit,
  26:HW_Lib/AT32F435/BSP/Bsp_IIC.c ****     .read = BspIIC_Read,
  27:HW_Lib/AT32F435/BSP/Bsp_IIC.c ****     .write = BspIIC_Write,
  28:HW_Lib/AT32F435/BSP/Bsp_IIC.c **** };
  29:HW_Lib/AT32F435/BSP/Bsp_IIC.c **** 
  30:HW_Lib/AT32F435/BSP/Bsp_IIC.c **** static bool BspIIC_Pin_Init(BspIICObj_TypeDef *obj)
ARM GAS  C:\Users\8bit\AppData\Local\Temp\ccPZJ02k.s 			page 2


  31:HW_Lib/AT32F435/BSP/Bsp_IIC.c **** {
  32:HW_Lib/AT32F435/BSP/Bsp_IIC.c ****     BspGPIO_Obj_TypeDef Pin;
  33:HW_Lib/AT32F435/BSP/Bsp_IIC.c ****     bool pin_state = false;
  34:HW_Lib/AT32F435/BSP/Bsp_IIC.c **** 
  35:HW_Lib/AT32F435/BSP/Bsp_IIC.c ****     memset(&Pin, 0, sizeof(BspGPIO_Obj_TypeDef));
  36:HW_Lib/AT32F435/BSP/Bsp_IIC.c **** 
  37:HW_Lib/AT32F435/BSP/Bsp_IIC.c ****     if (obj && \
  38:HW_Lib/AT32F435/BSP/Bsp_IIC.c ****         obj->Pin->port_sck && \
  39:HW_Lib/AT32F435/BSP/Bsp_IIC.c ****         obj->Pin->port_sda && \
  40:HW_Lib/AT32F435/BSP/Bsp_IIC.c ****         obj->Pin->pin_sck && \
  41:HW_Lib/AT32F435/BSP/Bsp_IIC.c ****         obj->Pin->pin_sda)
  42:HW_Lib/AT32F435/BSP/Bsp_IIC.c ****     {
  43:HW_Lib/AT32F435/BSP/Bsp_IIC.c ****         Pin.alternate = obj->Pin->pin_Alternate;
  44:HW_Lib/AT32F435/BSP/Bsp_IIC.c ****         Pin.init_state = false;
  45:HW_Lib/AT32F435/BSP/Bsp_IIC.c **** 
  46:HW_Lib/AT32F435/BSP/Bsp_IIC.c ****         /* sck init */
  47:HW_Lib/AT32F435/BSP/Bsp_IIC.c ****         Pin.port = obj->Pin->port_sck;
  48:HW_Lib/AT32F435/BSP/Bsp_IIC.c ****         Pin.pin = obj->Pin->pin_sck;
  49:HW_Lib/AT32F435/BSP/Bsp_IIC.c ****         pin_state = BspGPIO.alt_init(Pin, GPIO_OUTPUT_OPEN_DRAIN);
  50:HW_Lib/AT32F435/BSP/Bsp_IIC.c **** 
  51:HW_Lib/AT32F435/BSP/Bsp_IIC.c ****         /* sda init */
  52:HW_Lib/AT32F435/BSP/Bsp_IIC.c ****         Pin.port = obj->Pin->port_sda;
  53:HW_Lib/AT32F435/BSP/Bsp_IIC.c ****         Pin.pin = obj->Pin->pin_sda;
  54:HW_Lib/AT32F435/BSP/Bsp_IIC.c ****         pin_state &= BspGPIO.alt_init(Pin, GPIO_OUTPUT_OPEN_DRAIN);
  55:HW_Lib/AT32F435/BSP/Bsp_IIC.c ****     }
  56:HW_Lib/AT32F435/BSP/Bsp_IIC.c **** 
  57:HW_Lib/AT32F435/BSP/Bsp_IIC.c ****     return pin_state;
  58:HW_Lib/AT32F435/BSP/Bsp_IIC.c **** }
  59:HW_Lib/AT32F435/BSP/Bsp_IIC.c **** 
  60:HW_Lib/AT32F435/BSP/Bsp_IIC.c **** static bool BspIIC_PeriphClk_Init(BspIICObj_TypeDef *obj)
  61:HW_Lib/AT32F435/BSP/Bsp_IIC.c **** {
  62:HW_Lib/AT32F435/BSP/Bsp_IIC.c ****     if (obj && obj->handle)
  63:HW_Lib/AT32F435/BSP/Bsp_IIC.c ****     {
  64:HW_Lib/AT32F435/BSP/Bsp_IIC.c ****         switch ((uint8_t)obj->instance_id)
  65:HW_Lib/AT32F435/BSP/Bsp_IIC.c ****         {
  66:HW_Lib/AT32F435/BSP/Bsp_IIC.c ****             case BspIIC_Instance_I2C_1:
  67:HW_Lib/AT32F435/BSP/Bsp_IIC.c ****                 ((i2c_handle_type *)(obj->handle))->i2cx = I2C1;
  68:HW_Lib/AT32F435/BSP/Bsp_IIC.c ****                 crm_periph_clock_enable(CRM_I2C1_PERIPH_CLOCK, TRUE);
  69:HW_Lib/AT32F435/BSP/Bsp_IIC.c ****                 BspIIC_HandleList[BspIIC_Instance_I2C_1] = (i2c_handle_type *)(obj->handle);
  70:HW_Lib/AT32F435/BSP/Bsp_IIC.c ****                 return true;
  71:HW_Lib/AT32F435/BSP/Bsp_IIC.c **** 
  72:HW_Lib/AT32F435/BSP/Bsp_IIC.c ****             case BspIIC_Instance_I2C_2:
  73:HW_Lib/AT32F435/BSP/Bsp_IIC.c ****                 ((i2c_handle_type *)(obj->handle))->i2cx = I2C2;
  74:HW_Lib/AT32F435/BSP/Bsp_IIC.c ****                 crm_periph_clock_enable(CRM_I2C2_PERIPH_CLOCK, TRUE);
  75:HW_Lib/AT32F435/BSP/Bsp_IIC.c ****                 BspIIC_HandleList[BspIIC_Instance_I2C_2] = (i2c_handle_type *)(obj->handle);
  76:HW_Lib/AT32F435/BSP/Bsp_IIC.c ****                 return true;
  77:HW_Lib/AT32F435/BSP/Bsp_IIC.c **** 
  78:HW_Lib/AT32F435/BSP/Bsp_IIC.c ****             case BspIIC_Instance_I2C_3:
  79:HW_Lib/AT32F435/BSP/Bsp_IIC.c ****                 ((i2c_handle_type *)(obj->handle))->i2cx = I2C3;
  80:HW_Lib/AT32F435/BSP/Bsp_IIC.c ****                 crm_periph_clock_enable(CRM_I2C3_PERIPH_CLOCK, TRUE);
  81:HW_Lib/AT32F435/BSP/Bsp_IIC.c ****                 BspIIC_HandleList[BspIIC_Instance_I2C_3] = (i2c_handle_type *)(obj->handle);
  82:HW_Lib/AT32F435/BSP/Bsp_IIC.c ****                 return true;
  83:HW_Lib/AT32F435/BSP/Bsp_IIC.c **** 
  84:HW_Lib/AT32F435/BSP/Bsp_IIC.c ****             default: return false;
  85:HW_Lib/AT32F435/BSP/Bsp_IIC.c ****         }
  86:HW_Lib/AT32F435/BSP/Bsp_IIC.c ****     }
  87:HW_Lib/AT32F435/BSP/Bsp_IIC.c **** 
ARM GAS  C:\Users\8bit\AppData\Local\Temp\ccPZJ02k.s 			page 3


  88:HW_Lib/AT32F435/BSP/Bsp_IIC.c ****     return false;
  89:HW_Lib/AT32F435/BSP/Bsp_IIC.c **** }
  90:HW_Lib/AT32F435/BSP/Bsp_IIC.c **** 
  91:HW_Lib/AT32F435/BSP/Bsp_IIC.c **** static bool BspIIC_Irq_Enable(BspIICObj_TypeDef *obj)
  92:HW_Lib/AT32F435/BSP/Bsp_IIC.c **** {
  93:HW_Lib/AT32F435/BSP/Bsp_IIC.c ****     if (obj && obj->handle)
  94:HW_Lib/AT32F435/BSP/Bsp_IIC.c ****     {
  95:HW_Lib/AT32F435/BSP/Bsp_IIC.c ****         switch (obj->instance_id)
  96:HW_Lib/AT32F435/BSP/Bsp_IIC.c ****         {
  97:HW_Lib/AT32F435/BSP/Bsp_IIC.c ****             case BspIIC_Instance_I2C_1:
  98:HW_Lib/AT32F435/BSP/Bsp_IIC.c ****                 nvic_irq_enable(I2C1_EVT_IRQn, 5, 0);
  99:HW_Lib/AT32F435/BSP/Bsp_IIC.c ****                 nvic_irq_enable(I2C1_ERR_IRQn, 5, 0);
 100:HW_Lib/AT32F435/BSP/Bsp_IIC.c ****                 return true;
 101:HW_Lib/AT32F435/BSP/Bsp_IIC.c ****             
 102:HW_Lib/AT32F435/BSP/Bsp_IIC.c ****             case BspIIC_Instance_I2C_2:
 103:HW_Lib/AT32F435/BSP/Bsp_IIC.c ****                 nvic_irq_enable(I2C2_EVT_IRQn, 5, 0);
 104:HW_Lib/AT32F435/BSP/Bsp_IIC.c ****                 nvic_irq_enable(I2C2_ERR_IRQn, 5, 0);
 105:HW_Lib/AT32F435/BSP/Bsp_IIC.c ****                 return true;
 106:HW_Lib/AT32F435/BSP/Bsp_IIC.c **** 
 107:HW_Lib/AT32F435/BSP/Bsp_IIC.c ****             case BspIIC_Instance_I2C_3:
 108:HW_Lib/AT32F435/BSP/Bsp_IIC.c ****                 nvic_irq_enable(I2C3_EVT_IRQn, 5, 0);
 109:HW_Lib/AT32F435/BSP/Bsp_IIC.c ****                 nvic_irq_enable(I2C3_ERR_IRQn, 5, 0);
 110:HW_Lib/AT32F435/BSP/Bsp_IIC.c ****                 return true; 
 111:HW_Lib/AT32F435/BSP/Bsp_IIC.c ****         
 112:HW_Lib/AT32F435/BSP/Bsp_IIC.c ****             default: return false;
 113:HW_Lib/AT32F435/BSP/Bsp_IIC.c ****         }
 114:HW_Lib/AT32F435/BSP/Bsp_IIC.c ****     }
 115:HW_Lib/AT32F435/BSP/Bsp_IIC.c **** 
 116:HW_Lib/AT32F435/BSP/Bsp_IIC.c ****     return false;
 117:HW_Lib/AT32F435/BSP/Bsp_IIC.c **** }
 118:HW_Lib/AT32F435/BSP/Bsp_IIC.c **** 
 119:HW_Lib/AT32F435/BSP/Bsp_IIC.c **** static bool BspIIC_Init(BspIICObj_TypeDef *obj)
 120:HW_Lib/AT32F435/BSP/Bsp_IIC.c **** {
 121:HW_Lib/AT32F435/BSP/Bsp_IIC.c ****     if(obj)
 122:HW_Lib/AT32F435/BSP/Bsp_IIC.c ****     {
 123:HW_Lib/AT32F435/BSP/Bsp_IIC.c ****         if (!(BspIIC_PeriphClk_Init(obj) & BspIIC_Pin_Init(obj)))
 124:HW_Lib/AT32F435/BSP/Bsp_IIC.c ****             return false;
 125:HW_Lib/AT32F435/BSP/Bsp_IIC.c **** 
 126:HW_Lib/AT32F435/BSP/Bsp_IIC.c ****         i2c_reset(((i2c_handle_type *)obj->handle)->i2cx);
 127:HW_Lib/AT32F435/BSP/Bsp_IIC.c **** 
 128:HW_Lib/AT32F435/BSP/Bsp_IIC.c ****         i2c_init(((i2c_handle_type *)obj->handle)->i2cx, 0x0F, I2Cx_CLK_100K);
 129:HW_Lib/AT32F435/BSP/Bsp_IIC.c ****         i2c_own_address1_set(((i2c_handle_type *)obj->handle)->i2cx, I2C_ADDRESS_MODE_7BIT, 0x0);
 130:HW_Lib/AT32F435/BSP/Bsp_IIC.c **** 
 131:HW_Lib/AT32F435/BSP/Bsp_IIC.c ****         if (!BspIIC_Irq_Enable(obj))
 132:HW_Lib/AT32F435/BSP/Bsp_IIC.c ****             return false;
 133:HW_Lib/AT32F435/BSP/Bsp_IIC.c **** 
 134:HW_Lib/AT32F435/BSP/Bsp_IIC.c ****         i2c_enable(((i2c_handle_type *)obj->handle)->i2cx, TRUE);
 135:HW_Lib/AT32F435/BSP/Bsp_IIC.c ****         return true;
 136:HW_Lib/AT32F435/BSP/Bsp_IIC.c ****     }
 137:HW_Lib/AT32F435/BSP/Bsp_IIC.c **** 
 138:HW_Lib/AT32F435/BSP/Bsp_IIC.c ****     return false;
 139:HW_Lib/AT32F435/BSP/Bsp_IIC.c **** }
 140:HW_Lib/AT32F435/BSP/Bsp_IIC.c **** 
 141:HW_Lib/AT32F435/BSP/Bsp_IIC.c **** static bool BspIIC_DeInit(BspIICObj_TypeDef *obj)
 142:HW_Lib/AT32F435/BSP/Bsp_IIC.c **** {
 143:HW_Lib/AT32F435/BSP/Bsp_IIC.c ****     if(obj)
 144:HW_Lib/AT32F435/BSP/Bsp_IIC.c ****     {
ARM GAS  C:\Users\8bit\AppData\Local\Temp\ccPZJ02k.s 			page 4


 145:HW_Lib/AT32F435/BSP/Bsp_IIC.c ****         i2c_reset((i2c_type *)obj->handle);
 146:HW_Lib/AT32F435/BSP/Bsp_IIC.c ****         memset(obj, 0, sizeof(BspIICObj_TypeDef));
 147:HW_Lib/AT32F435/BSP/Bsp_IIC.c ****     }
 148:HW_Lib/AT32F435/BSP/Bsp_IIC.c **** 
 149:HW_Lib/AT32F435/BSP/Bsp_IIC.c ****     return false;
 150:HW_Lib/AT32F435/BSP/Bsp_IIC.c **** }
 151:HW_Lib/AT32F435/BSP/Bsp_IIC.c **** 
 152:HW_Lib/AT32F435/BSP/Bsp_IIC.c **** static bool BspIIC_Read(BspIICObj_TypeDef *obj, uint16_t dev_addr, uint16_t reg, uint8_t *p_buf, ui
 153:HW_Lib/AT32F435/BSP/Bsp_IIC.c **** {
 154:HW_Lib/AT32F435/BSP/Bsp_IIC.c ****     i2c_status_type state = I2C_OK;
 155:HW_Lib/AT32F435/BSP/Bsp_IIC.c **** 
 156:HW_Lib/AT32F435/BSP/Bsp_IIC.c ****     if(obj && obj->handle && p_buf && len)
 157:HW_Lib/AT32F435/BSP/Bsp_IIC.c ****     {
 158:HW_Lib/AT32F435/BSP/Bsp_IIC.c ****         state = i2c_memory_read(obj->handle, I2C_MEM_ADDR_WIDIH_8, dev_addr, reg, p_buf, len, I2C_T
 159:HW_Lib/AT32F435/BSP/Bsp_IIC.c **** 
 160:HW_Lib/AT32F435/BSP/Bsp_IIC.c ****         if (state == I2C_OK)
 161:HW_Lib/AT32F435/BSP/Bsp_IIC.c ****             return true;
 162:HW_Lib/AT32F435/BSP/Bsp_IIC.c ****     }
 163:HW_Lib/AT32F435/BSP/Bsp_IIC.c **** 
 164:HW_Lib/AT32F435/BSP/Bsp_IIC.c ****     return false;
 165:HW_Lib/AT32F435/BSP/Bsp_IIC.c **** }
 166:HW_Lib/AT32F435/BSP/Bsp_IIC.c **** 
 167:HW_Lib/AT32F435/BSP/Bsp_IIC.c **** static bool BspIIC_Write(BspIICObj_TypeDef *obj, uint16_t dev_addr, uint16_t reg, uint8_t *p_buf, u
 168:HW_Lib/AT32F435/BSP/Bsp_IIC.c **** {
  29              		.loc 1 168 1 view -0
  30              		.cfi_startproc
  31              		@ args = 4, pretend = 0, frame = 0
  32              		@ frame_needed = 0, uses_anonymous_args = 0
  33              		.loc 1 168 1 is_stmt 0 view .LVU1
  34 0000 30B5     		push	{r4, r5, lr}
  35              	.LCFI0:
  36              		.cfi_def_cfa_offset 12
  37              		.cfi_offset 4, -12
  38              		.cfi_offset 5, -8
  39              		.cfi_offset 14, -4
  40 0002 85B0     		sub	sp, sp, #20
  41              	.LCFI1:
  42              		.cfi_def_cfa_offset 32
  43 0004 BDF82040 		ldrh	r4, [sp, #32]
 169:HW_Lib/AT32F435/BSP/Bsp_IIC.c ****     i2c_status_type state = I2C_OK;
  44              		.loc 1 169 5 is_stmt 1 view .LVU2
  45              	.LVL1:
 170:HW_Lib/AT32F435/BSP/Bsp_IIC.c **** 
 171:HW_Lib/AT32F435/BSP/Bsp_IIC.c ****     if(obj && obj->handle && p_buf && len)
  46              		.loc 1 171 5 view .LVU3
  47              		.loc 1 171 7 is_stmt 0 view .LVU4
  48 0008 90B1     		cbz	r0, .L3
  49              		.loc 1 171 18 discriminator 1 view .LVU5
  50 000a C068     		ldr	r0, [r0, #12]
  51              	.LVL2:
  52              		.loc 1 171 12 discriminator 1 view .LVU6
  53 000c 98B1     		cbz	r0, .L4
  54              		.loc 1 171 27 discriminator 2 view .LVU7
  55 000e A3B1     		cbz	r3, .L5
  56              		.loc 1 171 36 discriminator 3 view .LVU8
  57 0010 0CB9     		cbnz	r4, .L9
 172:HW_Lib/AT32F435/BSP/Bsp_IIC.c ****     {
ARM GAS  C:\Users\8bit\AppData\Local\Temp\ccPZJ02k.s 			page 5


 173:HW_Lib/AT32F435/BSP/Bsp_IIC.c ****         state = i2c_memory_write(obj->handle, I2C_MEM_ADDR_WIDIH_8, dev_addr, reg, p_buf, len, I2C_
 174:HW_Lib/AT32F435/BSP/Bsp_IIC.c **** 
 175:HW_Lib/AT32F435/BSP/Bsp_IIC.c ****         if (state == I2C_OK)
 176:HW_Lib/AT32F435/BSP/Bsp_IIC.c ****             return true;
 177:HW_Lib/AT32F435/BSP/Bsp_IIC.c ****     }
 178:HW_Lib/AT32F435/BSP/Bsp_IIC.c **** 
 179:HW_Lib/AT32F435/BSP/Bsp_IIC.c ****     return false;
  58              		.loc 1 179 12 view .LVU9
  59 0012 0020     		movs	r0, #0
  60 0014 0DE0     		b	.L2
  61              	.L9:
 173:HW_Lib/AT32F435/BSP/Bsp_IIC.c **** 
  62              		.loc 1 173 9 is_stmt 1 view .LVU10
 173:HW_Lib/AT32F435/BSP/Bsp_IIC.c **** 
  63              		.loc 1 173 17 is_stmt 0 view .LVU11
  64 0016 4CF25035 		movw	r5, #50000
  65 001a 0295     		str	r5, [sp, #8]
  66 001c 0194     		str	r4, [sp, #4]
  67 001e 0093     		str	r3, [sp]
  68 0020 1346     		mov	r3, r2
  69              	.LVL3:
 173:HW_Lib/AT32F435/BSP/Bsp_IIC.c **** 
  70              		.loc 1 173 17 view .LVU12
  71 0022 0A46     		mov	r2, r1
  72              	.LVL4:
 173:HW_Lib/AT32F435/BSP/Bsp_IIC.c **** 
  73              		.loc 1 173 17 view .LVU13
  74 0024 0121     		movs	r1, #1
  75              	.LVL5:
 173:HW_Lib/AT32F435/BSP/Bsp_IIC.c **** 
  76              		.loc 1 173 17 view .LVU14
  77 0026 FFF7FEFF 		bl	i2c_memory_write
  78              	.LVL6:
 175:HW_Lib/AT32F435/BSP/Bsp_IIC.c ****             return true;
  79              		.loc 1 175 9 is_stmt 1 view .LVU15
 175:HW_Lib/AT32F435/BSP/Bsp_IIC.c ****             return true;
  80              		.loc 1 175 12 is_stmt 0 view .LVU16
  81 002a 40B1     		cbz	r0, .L7
  82              		.loc 1 179 12 view .LVU17
  83 002c 0020     		movs	r0, #0
  84              	.LVL7:
  85              		.loc 1 179 12 view .LVU18
  86 002e 00E0     		b	.L2
  87              	.LVL8:
  88              	.L3:
  89              		.loc 1 179 12 view .LVU19
  90 0030 0020     		movs	r0, #0
  91              	.LVL9:
  92              	.L2:
 180:HW_Lib/AT32F435/BSP/Bsp_IIC.c **** }
  93              		.loc 1 180 1 view .LVU20
  94 0032 05B0     		add	sp, sp, #20
  95              	.LCFI2:
  96              		.cfi_remember_state
  97              		.cfi_def_cfa_offset 12
  98              		@ sp needed
  99 0034 30BD     		pop	{r4, r5, pc}
ARM GAS  C:\Users\8bit\AppData\Local\Temp\ccPZJ02k.s 			page 6


 100              	.LVL10:
 101              	.L4:
 102              	.LCFI3:
 103              		.cfi_restore_state
 179:HW_Lib/AT32F435/BSP/Bsp_IIC.c **** }
 104              		.loc 1 179 12 view .LVU21
 105 0036 0020     		movs	r0, #0
 106 0038 FBE7     		b	.L2
 107              	.L5:
 108 003a 0020     		movs	r0, #0
 109 003c F9E7     		b	.L2
 110              	.LVL11:
 111              	.L7:
 176:HW_Lib/AT32F435/BSP/Bsp_IIC.c ****     }
 112              		.loc 1 176 20 view .LVU22
 113 003e 0120     		movs	r0, #1
 114              	.LVL12:
 176:HW_Lib/AT32F435/BSP/Bsp_IIC.c ****     }
 115              		.loc 1 176 20 view .LVU23
 116 0040 F7E7     		b	.L2
 117              		.cfi_endproc
 118              	.LFE139:
 120              		.section	.text.BspIIC_Read,"ax",%progbits
 121              		.align	1
 122              		.syntax unified
 123              		.thumb
 124              		.thumb_func
 126              	BspIIC_Read:
 127              	.LVL13:
 128              	.LFB138:
 153:HW_Lib/AT32F435/BSP/Bsp_IIC.c ****     i2c_status_type state = I2C_OK;
 129              		.loc 1 153 1 is_stmt 1 view -0
 130              		.cfi_startproc
 131              		@ args = 4, pretend = 0, frame = 0
 132              		@ frame_needed = 0, uses_anonymous_args = 0
 153:HW_Lib/AT32F435/BSP/Bsp_IIC.c ****     i2c_status_type state = I2C_OK;
 133              		.loc 1 153 1 is_stmt 0 view .LVU25
 134 0000 30B5     		push	{r4, r5, lr}
 135              	.LCFI4:
 136              		.cfi_def_cfa_offset 12
 137              		.cfi_offset 4, -12
 138              		.cfi_offset 5, -8
 139              		.cfi_offset 14, -4
 140 0002 85B0     		sub	sp, sp, #20
 141              	.LCFI5:
 142              		.cfi_def_cfa_offset 32
 143 0004 BDF82040 		ldrh	r4, [sp, #32]
 154:HW_Lib/AT32F435/BSP/Bsp_IIC.c **** 
 144              		.loc 1 154 5 is_stmt 1 view .LVU26
 145              	.LVL14:
 156:HW_Lib/AT32F435/BSP/Bsp_IIC.c ****     {
 146              		.loc 1 156 5 view .LVU27
 156:HW_Lib/AT32F435/BSP/Bsp_IIC.c ****     {
 147              		.loc 1 156 7 is_stmt 0 view .LVU28
 148 0008 90B1     		cbz	r0, .L12
 156:HW_Lib/AT32F435/BSP/Bsp_IIC.c ****     {
 149              		.loc 1 156 18 discriminator 1 view .LVU29
ARM GAS  C:\Users\8bit\AppData\Local\Temp\ccPZJ02k.s 			page 7


 150 000a C068     		ldr	r0, [r0, #12]
 151              	.LVL15:
 156:HW_Lib/AT32F435/BSP/Bsp_IIC.c ****     {
 152              		.loc 1 156 12 discriminator 1 view .LVU30
 153 000c 98B1     		cbz	r0, .L13
 156:HW_Lib/AT32F435/BSP/Bsp_IIC.c ****     {
 154              		.loc 1 156 27 discriminator 2 view .LVU31
 155 000e A3B1     		cbz	r3, .L14
 156:HW_Lib/AT32F435/BSP/Bsp_IIC.c ****     {
 156              		.loc 1 156 36 discriminator 3 view .LVU32
 157 0010 0CB9     		cbnz	r4, .L18
 164:HW_Lib/AT32F435/BSP/Bsp_IIC.c **** }
 158              		.loc 1 164 12 view .LVU33
 159 0012 0020     		movs	r0, #0
 160 0014 0DE0     		b	.L11
 161              	.L18:
 158:HW_Lib/AT32F435/BSP/Bsp_IIC.c **** 
 162              		.loc 1 158 9 is_stmt 1 view .LVU34
 158:HW_Lib/AT32F435/BSP/Bsp_IIC.c **** 
 163              		.loc 1 158 17 is_stmt 0 view .LVU35
 164 0016 4CF25035 		movw	r5, #50000
 165 001a 0295     		str	r5, [sp, #8]
 166 001c 0194     		str	r4, [sp, #4]
 167 001e 0093     		str	r3, [sp]
 168 0020 1346     		mov	r3, r2
 169              	.LVL16:
 158:HW_Lib/AT32F435/BSP/Bsp_IIC.c **** 
 170              		.loc 1 158 17 view .LVU36
 171 0022 0A46     		mov	r2, r1
 172              	.LVL17:
 158:HW_Lib/AT32F435/BSP/Bsp_IIC.c **** 
 173              		.loc 1 158 17 view .LVU37
 174 0024 0121     		movs	r1, #1
 175              	.LVL18:
 158:HW_Lib/AT32F435/BSP/Bsp_IIC.c **** 
 176              		.loc 1 158 17 view .LVU38
 177 0026 FFF7FEFF 		bl	i2c_memory_read
 178              	.LVL19:
 160:HW_Lib/AT32F435/BSP/Bsp_IIC.c ****             return true;
 179              		.loc 1 160 9 is_stmt 1 view .LVU39
 160:HW_Lib/AT32F435/BSP/Bsp_IIC.c ****             return true;
 180              		.loc 1 160 12 is_stmt 0 view .LVU40
 181 002a 40B1     		cbz	r0, .L16
 164:HW_Lib/AT32F435/BSP/Bsp_IIC.c **** }
 182              		.loc 1 164 12 view .LVU41
 183 002c 0020     		movs	r0, #0
 184              	.LVL20:
 164:HW_Lib/AT32F435/BSP/Bsp_IIC.c **** }
 185              		.loc 1 164 12 view .LVU42
 186 002e 00E0     		b	.L11
 187              	.LVL21:
 188              	.L12:
 164:HW_Lib/AT32F435/BSP/Bsp_IIC.c **** }
 189              		.loc 1 164 12 view .LVU43
 190 0030 0020     		movs	r0, #0
 191              	.LVL22:
 192              	.L11:
ARM GAS  C:\Users\8bit\AppData\Local\Temp\ccPZJ02k.s 			page 8


 165:HW_Lib/AT32F435/BSP/Bsp_IIC.c **** 
 193              		.loc 1 165 1 view .LVU44
 194 0032 05B0     		add	sp, sp, #20
 195              	.LCFI6:
 196              		.cfi_remember_state
 197              		.cfi_def_cfa_offset 12
 198              		@ sp needed
 199 0034 30BD     		pop	{r4, r5, pc}
 200              	.LVL23:
 201              	.L13:
 202              	.LCFI7:
 203              		.cfi_restore_state
 164:HW_Lib/AT32F435/BSP/Bsp_IIC.c **** }
 204              		.loc 1 164 12 view .LVU45
 205 0036 0020     		movs	r0, #0
 206 0038 FBE7     		b	.L11
 207              	.L14:
 208 003a 0020     		movs	r0, #0
 209 003c F9E7     		b	.L11
 210              	.LVL24:
 211              	.L16:
 161:HW_Lib/AT32F435/BSP/Bsp_IIC.c ****     }
 212              		.loc 1 161 20 view .LVU46
 213 003e 0120     		movs	r0, #1
 214              	.LVL25:
 161:HW_Lib/AT32F435/BSP/Bsp_IIC.c ****     }
 215              		.loc 1 161 20 view .LVU47
 216 0040 F7E7     		b	.L11
 217              		.cfi_endproc
 218              	.LFE138:
 220              		.section	.text.BspIIC_DeInit,"ax",%progbits
 221              		.align	1
 222              		.syntax unified
 223              		.thumb
 224              		.thumb_func
 226              	BspIIC_DeInit:
 227              	.LVL26:
 228              	.LFB137:
 142:HW_Lib/AT32F435/BSP/Bsp_IIC.c ****     if(obj)
 229              		.loc 1 142 1 is_stmt 1 view -0
 230              		.cfi_startproc
 231              		@ args = 0, pretend = 0, frame = 0
 232              		@ frame_needed = 0, uses_anonymous_args = 0
 143:HW_Lib/AT32F435/BSP/Bsp_IIC.c ****     {
 233              		.loc 1 143 5 view .LVU49
 143:HW_Lib/AT32F435/BSP/Bsp_IIC.c ****     {
 234              		.loc 1 143 7 is_stmt 0 view .LVU50
 235 0000 58B1     		cbz	r0, .L22
 142:HW_Lib/AT32F435/BSP/Bsp_IIC.c ****     if(obj)
 236              		.loc 1 142 1 view .LVU51
 237 0002 10B5     		push	{r4, lr}
 238              	.LCFI8:
 239              		.cfi_def_cfa_offset 8
 240              		.cfi_offset 4, -8
 241              		.cfi_offset 14, -4
 242 0004 0446     		mov	r4, r0
 145:HW_Lib/AT32F435/BSP/Bsp_IIC.c ****         memset(obj, 0, sizeof(BspIICObj_TypeDef));
ARM GAS  C:\Users\8bit\AppData\Local\Temp\ccPZJ02k.s 			page 9


 243              		.loc 1 145 9 is_stmt 1 view .LVU52
 244 0006 C068     		ldr	r0, [r0, #12]
 245              	.LVL27:
 145:HW_Lib/AT32F435/BSP/Bsp_IIC.c ****         memset(obj, 0, sizeof(BspIICObj_TypeDef));
 246              		.loc 1 145 9 is_stmt 0 view .LVU53
 247 0008 FFF7FEFF 		bl	i2c_reset
 248              	.LVL28:
 146:HW_Lib/AT32F435/BSP/Bsp_IIC.c ****     }
 249              		.loc 1 146 9 is_stmt 1 view .LVU54
 250 000c 0023     		movs	r3, #0
 251 000e 2360     		str	r3, [r4]	@ unaligned
 252 0010 6360     		str	r3, [r4, #4]	@ unaligned
 253 0012 A360     		str	r3, [r4, #8]	@ unaligned
 254 0014 E360     		str	r3, [r4, #12]	@ unaligned
 149:HW_Lib/AT32F435/BSP/Bsp_IIC.c **** }
 255              		.loc 1 149 5 view .LVU55
 150:HW_Lib/AT32F435/BSP/Bsp_IIC.c **** 
 256              		.loc 1 150 1 is_stmt 0 view .LVU56
 257 0016 0020     		movs	r0, #0
 258 0018 10BD     		pop	{r4, pc}
 259              	.LVL29:
 260              	.L22:
 261              	.LCFI9:
 262              		.cfi_def_cfa_offset 0
 263              		.cfi_restore 4
 264              		.cfi_restore 14
 149:HW_Lib/AT32F435/BSP/Bsp_IIC.c **** }
 265              		.loc 1 149 5 is_stmt 1 view .LVU57
 150:HW_Lib/AT32F435/BSP/Bsp_IIC.c **** 
 266              		.loc 1 150 1 is_stmt 0 view .LVU58
 267 001a 0020     		movs	r0, #0
 268              	.LVL30:
 150:HW_Lib/AT32F435/BSP/Bsp_IIC.c **** 
 269              		.loc 1 150 1 view .LVU59
 270 001c 7047     		bx	lr
 271              		.cfi_endproc
 272              	.LFE137:
 274              		.section	.text.BspIIC_Pin_Init,"ax",%progbits
 275              		.align	1
 276              		.syntax unified
 277              		.thumb
 278              		.thumb_func
 280              	BspIIC_Pin_Init:
 281              	.LVL31:
 282              	.LFB133:
  31:HW_Lib/AT32F435/BSP/Bsp_IIC.c ****     BspGPIO_Obj_TypeDef Pin;
 283              		.loc 1 31 1 is_stmt 1 view -0
 284              		.cfi_startproc
 285              		@ args = 0, pretend = 0, frame = 16
 286              		@ frame_needed = 0, uses_anonymous_args = 0
  31:HW_Lib/AT32F435/BSP/Bsp_IIC.c ****     BspGPIO_Obj_TypeDef Pin;
 287              		.loc 1 31 1 is_stmt 0 view .LVU61
 288 0000 F0B5     		push	{r4, r5, r6, r7, lr}
 289              	.LCFI10:
 290              		.cfi_def_cfa_offset 20
 291              		.cfi_offset 4, -20
 292              		.cfi_offset 5, -16
ARM GAS  C:\Users\8bit\AppData\Local\Temp\ccPZJ02k.s 			page 10


 293              		.cfi_offset 6, -12
 294              		.cfi_offset 7, -8
 295              		.cfi_offset 14, -4
 296 0002 85B0     		sub	sp, sp, #20
 297              	.LCFI11:
 298              		.cfi_def_cfa_offset 40
  32:HW_Lib/AT32F435/BSP/Bsp_IIC.c ****     bool pin_state = false;
 299              		.loc 1 32 5 is_stmt 1 view .LVU62
  33:HW_Lib/AT32F435/BSP/Bsp_IIC.c **** 
 300              		.loc 1 33 5 view .LVU63
 301              	.LVL32:
  35:HW_Lib/AT32F435/BSP/Bsp_IIC.c **** 
 302              		.loc 1 35 5 view .LVU64
 303 0004 0023     		movs	r3, #0
 304 0006 0193     		str	r3, [sp, #4]
 305 0008 0293     		str	r3, [sp, #8]
 306 000a 0393     		str	r3, [sp, #12]
  37:HW_Lib/AT32F435/BSP/Bsp_IIC.c ****         obj->Pin->port_sck && \
 307              		.loc 1 37 5 view .LVU65
  37:HW_Lib/AT32F435/BSP/Bsp_IIC.c ****         obj->Pin->port_sck && \
 308              		.loc 1 37 8 is_stmt 0 view .LVU66
 309 000c 38B3     		cbz	r0, .L27
 310 000e 0546     		mov	r5, r0
  38:HW_Lib/AT32F435/BSP/Bsp_IIC.c ****         obj->Pin->port_sda && \
 311              		.loc 1 38 12 discriminator 1 view .LVU67
 312 0010 0368     		ldr	r3, [r0]
  38:HW_Lib/AT32F435/BSP/Bsp_IIC.c ****         obj->Pin->port_sda && \
 313              		.loc 1 38 17 discriminator 1 view .LVU68
 314 0012 5A68     		ldr	r2, [r3, #4]
  37:HW_Lib/AT32F435/BSP/Bsp_IIC.c ****         obj->Pin->port_sck && \
 315              		.loc 1 37 13 discriminator 1 view .LVU69
 316 0014 32B3     		cbz	r2, .L28
  39:HW_Lib/AT32F435/BSP/Bsp_IIC.c ****         obj->Pin->pin_sck && \
 317              		.loc 1 39 17 view .LVU70
 318 0016 1A68     		ldr	r2, [r3]
  38:HW_Lib/AT32F435/BSP/Bsp_IIC.c ****         obj->Pin->port_sda && \
 319              		.loc 1 38 28 view .LVU71
 320 0018 32B3     		cbz	r2, .L29
  40:HW_Lib/AT32F435/BSP/Bsp_IIC.c ****         obj->Pin->pin_sda)
 321              		.loc 1 40 17 view .LVU72
 322 001a DA68     		ldr	r2, [r3, #12]
  39:HW_Lib/AT32F435/BSP/Bsp_IIC.c ****         obj->Pin->pin_sck && \
 323              		.loc 1 39 28 view .LVU73
 324 001c 32B3     		cbz	r2, .L30
  41:HW_Lib/AT32F435/BSP/Bsp_IIC.c ****     {
 325              		.loc 1 41 17 view .LVU74
 326 001e 9A68     		ldr	r2, [r3, #8]
  40:HW_Lib/AT32F435/BSP/Bsp_IIC.c ****         obj->Pin->pin_sda)
 327              		.loc 1 40 27 view .LVU75
 328 0020 32B3     		cbz	r2, .L31
  43:HW_Lib/AT32F435/BSP/Bsp_IIC.c ****         Pin.init_state = false;
 329              		.loc 1 43 9 is_stmt 1 view .LVU76
  43:HW_Lib/AT32F435/BSP/Bsp_IIC.c ****         Pin.init_state = false;
 330              		.loc 1 43 33 is_stmt 0 view .LVU77
 331 0022 1B69     		ldr	r3, [r3, #16]
  43:HW_Lib/AT32F435/BSP/Bsp_IIC.c ****         Pin.init_state = false;
 332              		.loc 1 43 23 view .LVU78
ARM GAS  C:\Users\8bit\AppData\Local\Temp\ccPZJ02k.s 			page 11


 333 0024 0393     		str	r3, [sp, #12]
  44:HW_Lib/AT32F435/BSP/Bsp_IIC.c **** 
 334              		.loc 1 44 9 is_stmt 1 view .LVU79
  47:HW_Lib/AT32F435/BSP/Bsp_IIC.c ****         Pin.pin = obj->Pin->pin_sck;
 335              		.loc 1 47 9 view .LVU80
  47:HW_Lib/AT32F435/BSP/Bsp_IIC.c ****         Pin.pin = obj->Pin->pin_sck;
 336              		.loc 1 47 23 is_stmt 0 view .LVU81
 337 0026 0368     		ldr	r3, [r0]
  47:HW_Lib/AT32F435/BSP/Bsp_IIC.c ****         Pin.pin = obj->Pin->pin_sck;
 338              		.loc 1 47 28 view .LVU82
 339 0028 5A68     		ldr	r2, [r3, #4]
  47:HW_Lib/AT32F435/BSP/Bsp_IIC.c ****         Pin.pin = obj->Pin->pin_sck;
 340              		.loc 1 47 18 view .LVU83
 341 002a 0192     		str	r2, [sp, #4]
  48:HW_Lib/AT32F435/BSP/Bsp_IIC.c ****         pin_state = BspGPIO.alt_init(Pin, GPIO_OUTPUT_OPEN_DRAIN);
 342              		.loc 1 48 9 is_stmt 1 view .LVU84
  48:HW_Lib/AT32F435/BSP/Bsp_IIC.c ****         pin_state = BspGPIO.alt_init(Pin, GPIO_OUTPUT_OPEN_DRAIN);
 343              		.loc 1 48 27 is_stmt 0 view .LVU85
 344 002c DB68     		ldr	r3, [r3, #12]
  48:HW_Lib/AT32F435/BSP/Bsp_IIC.c ****         pin_state = BspGPIO.alt_init(Pin, GPIO_OUTPUT_OPEN_DRAIN);
 345              		.loc 1 48 17 view .LVU86
 346 002e ADF80830 		strh	r3, [sp, #8]	@ movhi
  49:HW_Lib/AT32F435/BSP/Bsp_IIC.c **** 
 347              		.loc 1 49 9 is_stmt 1 view .LVU87
  49:HW_Lib/AT32F435/BSP/Bsp_IIC.c **** 
 348              		.loc 1 49 28 is_stmt 0 view .LVU88
 349 0032 104F     		ldr	r7, .L33
 350 0034 FC68     		ldr	r4, [r7, #12]
  49:HW_Lib/AT32F435/BSP/Bsp_IIC.c **** 
 351              		.loc 1 49 21 view .LVU89
 352 0036 0123     		movs	r3, #1
 353 0038 01AE     		add	r6, sp, #4
 354 003a 96E80700 		ldm	r6, {r0, r1, r2}
 355              	.LVL33:
  49:HW_Lib/AT32F435/BSP/Bsp_IIC.c **** 
 356              		.loc 1 49 21 view .LVU90
 357 003e A047     		blx	r4
 358              	.LVL34:
 359 0040 0446     		mov	r4, r0
 360              	.LVL35:
  52:HW_Lib/AT32F435/BSP/Bsp_IIC.c ****         Pin.pin = obj->Pin->pin_sda;
 361              		.loc 1 52 9 is_stmt 1 view .LVU91
  52:HW_Lib/AT32F435/BSP/Bsp_IIC.c ****         Pin.pin = obj->Pin->pin_sda;
 362              		.loc 1 52 23 is_stmt 0 view .LVU92
 363 0042 2B68     		ldr	r3, [r5]
  52:HW_Lib/AT32F435/BSP/Bsp_IIC.c ****         Pin.pin = obj->Pin->pin_sda;
 364              		.loc 1 52 28 view .LVU93
 365 0044 1A68     		ldr	r2, [r3]
  52:HW_Lib/AT32F435/BSP/Bsp_IIC.c ****         Pin.pin = obj->Pin->pin_sda;
 366              		.loc 1 52 18 view .LVU94
 367 0046 0192     		str	r2, [sp, #4]
  53:HW_Lib/AT32F435/BSP/Bsp_IIC.c ****         pin_state &= BspGPIO.alt_init(Pin, GPIO_OUTPUT_OPEN_DRAIN);
 368              		.loc 1 53 9 is_stmt 1 view .LVU95
  53:HW_Lib/AT32F435/BSP/Bsp_IIC.c ****         pin_state &= BspGPIO.alt_init(Pin, GPIO_OUTPUT_OPEN_DRAIN);
 369              		.loc 1 53 27 is_stmt 0 view .LVU96
 370 0048 9B68     		ldr	r3, [r3, #8]
  53:HW_Lib/AT32F435/BSP/Bsp_IIC.c ****         pin_state &= BspGPIO.alt_init(Pin, GPIO_OUTPUT_OPEN_DRAIN);
ARM GAS  C:\Users\8bit\AppData\Local\Temp\ccPZJ02k.s 			page 12


 371              		.loc 1 53 17 view .LVU97
 372 004a ADF80830 		strh	r3, [sp, #8]	@ movhi
  54:HW_Lib/AT32F435/BSP/Bsp_IIC.c ****     }
 373              		.loc 1 54 9 is_stmt 1 view .LVU98
  54:HW_Lib/AT32F435/BSP/Bsp_IIC.c ****     }
 374              		.loc 1 54 29 is_stmt 0 view .LVU99
 375 004e FD68     		ldr	r5, [r7, #12]
 376              	.LVL36:
  54:HW_Lib/AT32F435/BSP/Bsp_IIC.c ****     }
 377              		.loc 1 54 22 view .LVU100
 378 0050 0123     		movs	r3, #1
 379 0052 96E80700 		ldm	r6, {r0, r1, r2}
 380 0056 A847     		blx	r5
 381              	.LVL37:
 382 0058 2040     		ands	r0, r0, r4
 383 005a C0B2     		uxtb	r0, r0
 384              	.LVL38:
  54:HW_Lib/AT32F435/BSP/Bsp_IIC.c ****     }
 385              		.loc 1 54 22 view .LVU101
 386 005c 00E0     		b	.L26
 387              	.LVL39:
 388              	.L27:
  33:HW_Lib/AT32F435/BSP/Bsp_IIC.c **** 
 389              		.loc 1 33 10 view .LVU102
 390 005e 0020     		movs	r0, #0
 391              	.LVL40:
 392              	.L26:
  57:HW_Lib/AT32F435/BSP/Bsp_IIC.c **** }
 393              		.loc 1 57 5 is_stmt 1 view .LVU103
  58:HW_Lib/AT32F435/BSP/Bsp_IIC.c **** 
 394              		.loc 1 58 1 is_stmt 0 view .LVU104
 395 0060 05B0     		add	sp, sp, #20
 396              	.LCFI12:
 397              		.cfi_remember_state
 398              		.cfi_def_cfa_offset 20
 399              		@ sp needed
 400 0062 F0BD     		pop	{r4, r5, r6, r7, pc}
 401              	.LVL41:
 402              	.L28:
 403              	.LCFI13:
 404              		.cfi_restore_state
  33:HW_Lib/AT32F435/BSP/Bsp_IIC.c **** 
 405              		.loc 1 33 10 view .LVU105
 406 0064 0020     		movs	r0, #0
 407              	.LVL42:
  33:HW_Lib/AT32F435/BSP/Bsp_IIC.c **** 
 408              		.loc 1 33 10 view .LVU106
 409 0066 FBE7     		b	.L26
 410              	.LVL43:
 411              	.L29:
  33:HW_Lib/AT32F435/BSP/Bsp_IIC.c **** 
 412              		.loc 1 33 10 view .LVU107
 413 0068 0020     		movs	r0, #0
 414              	.LVL44:
  33:HW_Lib/AT32F435/BSP/Bsp_IIC.c **** 
 415              		.loc 1 33 10 view .LVU108
 416 006a F9E7     		b	.L26
ARM GAS  C:\Users\8bit\AppData\Local\Temp\ccPZJ02k.s 			page 13


 417              	.LVL45:
 418              	.L30:
  33:HW_Lib/AT32F435/BSP/Bsp_IIC.c **** 
 419              		.loc 1 33 10 view .LVU109
 420 006c 0020     		movs	r0, #0
 421              	.LVL46:
  33:HW_Lib/AT32F435/BSP/Bsp_IIC.c **** 
 422              		.loc 1 33 10 view .LVU110
 423 006e F7E7     		b	.L26
 424              	.LVL47:
 425              	.L31:
  33:HW_Lib/AT32F435/BSP/Bsp_IIC.c **** 
 426              		.loc 1 33 10 view .LVU111
 427 0070 0020     		movs	r0, #0
 428              	.LVL48:
  33:HW_Lib/AT32F435/BSP/Bsp_IIC.c **** 
 429              		.loc 1 33 10 view .LVU112
 430 0072 F5E7     		b	.L26
 431              	.L34:
 432              		.align	2
 433              	.L33:
 434 0074 00000000 		.word	BspGPIO
 435              		.cfi_endproc
 436              	.LFE133:
 438              		.section	.text.BspIIC_PeriphClk_Init,"ax",%progbits
 439              		.align	1
 440              		.syntax unified
 441              		.thumb
 442              		.thumb_func
 444              	BspIIC_PeriphClk_Init:
 445              	.LVL49:
 446              	.LFB134:
  61:HW_Lib/AT32F435/BSP/Bsp_IIC.c ****     if (obj && obj->handle)
 447              		.loc 1 61 1 is_stmt 1 view -0
 448              		.cfi_startproc
 449              		@ args = 0, pretend = 0, frame = 0
 450              		@ frame_needed = 0, uses_anonymous_args = 0
  62:HW_Lib/AT32F435/BSP/Bsp_IIC.c ****     {
 451              		.loc 1 62 5 view .LVU114
  62:HW_Lib/AT32F435/BSP/Bsp_IIC.c ****     {
 452              		.loc 1 62 8 is_stmt 0 view .LVU115
 453 0000 0028     		cmp	r0, #0
 454 0002 2CD0     		beq	.L39
  61:HW_Lib/AT32F435/BSP/Bsp_IIC.c ****     if (obj && obj->handle)
 455              		.loc 1 61 1 discriminator 1 view .LVU116
 456 0004 10B5     		push	{r4, lr}
 457              	.LCFI14:
 458              		.cfi_def_cfa_offset 8
 459              		.cfi_offset 4, -8
 460              		.cfi_offset 14, -4
 461 0006 0446     		mov	r4, r0
  62:HW_Lib/AT32F435/BSP/Bsp_IIC.c ****     {
 462              		.loc 1 62 19 discriminator 1 view .LVU117
 463 0008 C268     		ldr	r2, [r0, #12]
  62:HW_Lib/AT32F435/BSP/Bsp_IIC.c ****     {
 464              		.loc 1 62 13 discriminator 1 view .LVU118
 465 000a 52B3     		cbz	r2, .L40
ARM GAS  C:\Users\8bit\AppData\Local\Temp\ccPZJ02k.s 			page 14


  64:HW_Lib/AT32F435/BSP/Bsp_IIC.c ****         {
 466              		.loc 1 64 9 is_stmt 1 view .LVU119
  64:HW_Lib/AT32F435/BSP/Bsp_IIC.c ****         {
 467              		.loc 1 64 29 is_stmt 0 view .LVU120
 468 000c 4379     		ldrb	r3, [r0, #5]	@ zero_extendqisi2
  64:HW_Lib/AT32F435/BSP/Bsp_IIC.c ****         {
 469              		.loc 1 64 9 view .LVU121
 470 000e 012B     		cmp	r3, #1
 471 0010 0FD0     		beq	.L37
 472 0012 022B     		cmp	r3, #2
 473 0014 18D0     		beq	.L38
 474 0016 0BB1     		cbz	r3, .L46
 475 0018 0020     		movs	r0, #0
 476              	.LVL50:
 477              	.L36:
  89:HW_Lib/AT32F435/BSP/Bsp_IIC.c **** 
 478              		.loc 1 89 1 view .LVU122
 479 001a 10BD     		pop	{r4, pc}
 480              	.LVL51:
 481              	.L46:
  67:HW_Lib/AT32F435/BSP/Bsp_IIC.c ****                 crm_periph_clock_enable(CRM_I2C1_PERIPH_CLOCK, TRUE);
 482              		.loc 1 67 17 is_stmt 1 view .LVU123
  67:HW_Lib/AT32F435/BSP/Bsp_IIC.c ****                 crm_periph_clock_enable(CRM_I2C1_PERIPH_CLOCK, TRUE);
 483              		.loc 1 67 58 is_stmt 0 view .LVU124
 484 001c 124B     		ldr	r3, .L47
 485 001e 1360     		str	r3, [r2]
  68:HW_Lib/AT32F435/BSP/Bsp_IIC.c ****                 BspIIC_HandleList[BspIIC_Instance_I2C_1] = (i2c_handle_type *)(obj->handle);
 486              		.loc 1 68 17 is_stmt 1 view .LVU125
 487 0020 0121     		movs	r1, #1
 488 0022 1248     		ldr	r0, .L47+4
 489              	.LVL52:
  68:HW_Lib/AT32F435/BSP/Bsp_IIC.c ****                 BspIIC_HandleList[BspIIC_Instance_I2C_1] = (i2c_handle_type *)(obj->handle);
 490              		.loc 1 68 17 is_stmt 0 view .LVU126
 491 0024 FFF7FEFF 		bl	crm_periph_clock_enable
 492              	.LVL53:
  69:HW_Lib/AT32F435/BSP/Bsp_IIC.c ****                 return true;
 493              		.loc 1 69 17 is_stmt 1 view .LVU127
  69:HW_Lib/AT32F435/BSP/Bsp_IIC.c ****                 return true;
 494              		.loc 1 69 83 is_stmt 0 view .LVU128
 495 0028 E268     		ldr	r2, [r4, #12]
  69:HW_Lib/AT32F435/BSP/Bsp_IIC.c ****                 return true;
 496              		.loc 1 69 58 view .LVU129
 497 002a 114B     		ldr	r3, .L47+8
 498 002c 1A60     		str	r2, [r3]
  70:HW_Lib/AT32F435/BSP/Bsp_IIC.c **** 
 499              		.loc 1 70 17 is_stmt 1 view .LVU130
  70:HW_Lib/AT32F435/BSP/Bsp_IIC.c **** 
 500              		.loc 1 70 24 is_stmt 0 view .LVU131
 501 002e 0120     		movs	r0, #1
 502 0030 F3E7     		b	.L36
 503              	.LVL54:
 504              	.L37:
  73:HW_Lib/AT32F435/BSP/Bsp_IIC.c ****                 crm_periph_clock_enable(CRM_I2C2_PERIPH_CLOCK, TRUE);
 505              		.loc 1 73 17 is_stmt 1 view .LVU132
  73:HW_Lib/AT32F435/BSP/Bsp_IIC.c ****                 crm_periph_clock_enable(CRM_I2C2_PERIPH_CLOCK, TRUE);
 506              		.loc 1 73 58 is_stmt 0 view .LVU133
 507 0032 104B     		ldr	r3, .L47+12
ARM GAS  C:\Users\8bit\AppData\Local\Temp\ccPZJ02k.s 			page 15


 508 0034 1360     		str	r3, [r2]
  74:HW_Lib/AT32F435/BSP/Bsp_IIC.c ****                 BspIIC_HandleList[BspIIC_Instance_I2C_2] = (i2c_handle_type *)(obj->handle);
 509              		.loc 1 74 17 is_stmt 1 view .LVU134
 510 0036 0121     		movs	r1, #1
 511 0038 0F48     		ldr	r0, .L47+16
 512              	.LVL55:
  74:HW_Lib/AT32F435/BSP/Bsp_IIC.c ****                 BspIIC_HandleList[BspIIC_Instance_I2C_2] = (i2c_handle_type *)(obj->handle);
 513              		.loc 1 74 17 is_stmt 0 view .LVU135
 514 003a FFF7FEFF 		bl	crm_periph_clock_enable
 515              	.LVL56:
  75:HW_Lib/AT32F435/BSP/Bsp_IIC.c ****                 return true;
 516              		.loc 1 75 17 is_stmt 1 view .LVU136
  75:HW_Lib/AT32F435/BSP/Bsp_IIC.c ****                 return true;
 517              		.loc 1 75 83 is_stmt 0 view .LVU137
 518 003e E268     		ldr	r2, [r4, #12]
  75:HW_Lib/AT32F435/BSP/Bsp_IIC.c ****                 return true;
 519              		.loc 1 75 58 view .LVU138
 520 0040 0B4B     		ldr	r3, .L47+8
 521 0042 5A60     		str	r2, [r3, #4]
  76:HW_Lib/AT32F435/BSP/Bsp_IIC.c **** 
 522              		.loc 1 76 17 is_stmt 1 view .LVU139
  76:HW_Lib/AT32F435/BSP/Bsp_IIC.c **** 
 523              		.loc 1 76 24 is_stmt 0 view .LVU140
 524 0044 0120     		movs	r0, #1
 525 0046 E8E7     		b	.L36
 526              	.LVL57:
 527              	.L38:
  79:HW_Lib/AT32F435/BSP/Bsp_IIC.c ****                 crm_periph_clock_enable(CRM_I2C3_PERIPH_CLOCK, TRUE);
 528              		.loc 1 79 17 is_stmt 1 view .LVU141
  79:HW_Lib/AT32F435/BSP/Bsp_IIC.c ****                 crm_periph_clock_enable(CRM_I2C3_PERIPH_CLOCK, TRUE);
 529              		.loc 1 79 58 is_stmt 0 view .LVU142
 530 0048 0C4B     		ldr	r3, .L47+20
 531 004a 1360     		str	r3, [r2]
  80:HW_Lib/AT32F435/BSP/Bsp_IIC.c ****                 BspIIC_HandleList[BspIIC_Instance_I2C_3] = (i2c_handle_type *)(obj->handle);
 532              		.loc 1 80 17 is_stmt 1 view .LVU143
 533 004c 0121     		movs	r1, #1
 534 004e 0C48     		ldr	r0, .L47+24
 535              	.LVL58:
  80:HW_Lib/AT32F435/BSP/Bsp_IIC.c ****                 BspIIC_HandleList[BspIIC_Instance_I2C_3] = (i2c_handle_type *)(obj->handle);
 536              		.loc 1 80 17 is_stmt 0 view .LVU144
 537 0050 FFF7FEFF 		bl	crm_periph_clock_enable
 538              	.LVL59:
  81:HW_Lib/AT32F435/BSP/Bsp_IIC.c ****                 return true;
 539              		.loc 1 81 17 is_stmt 1 view .LVU145
  81:HW_Lib/AT32F435/BSP/Bsp_IIC.c ****                 return true;
 540              		.loc 1 81 83 is_stmt 0 view .LVU146
 541 0054 E268     		ldr	r2, [r4, #12]
  81:HW_Lib/AT32F435/BSP/Bsp_IIC.c ****                 return true;
 542              		.loc 1 81 58 view .LVU147
 543 0056 064B     		ldr	r3, .L47+8
 544 0058 9A60     		str	r2, [r3, #8]
  82:HW_Lib/AT32F435/BSP/Bsp_IIC.c **** 
 545              		.loc 1 82 17 is_stmt 1 view .LVU148
  82:HW_Lib/AT32F435/BSP/Bsp_IIC.c **** 
 546              		.loc 1 82 24 is_stmt 0 view .LVU149
 547 005a 0120     		movs	r0, #1
 548 005c DDE7     		b	.L36
ARM GAS  C:\Users\8bit\AppData\Local\Temp\ccPZJ02k.s 			page 16


 549              	.LVL60:
 550              	.L39:
 551              	.LCFI15:
 552              		.cfi_def_cfa_offset 0
 553              		.cfi_restore 4
 554              		.cfi_restore 14
  88:HW_Lib/AT32F435/BSP/Bsp_IIC.c **** }
 555              		.loc 1 88 12 view .LVU150
 556 005e 0020     		movs	r0, #0
 557              	.LVL61:
  89:HW_Lib/AT32F435/BSP/Bsp_IIC.c **** 
 558              		.loc 1 89 1 view .LVU151
 559 0060 7047     		bx	lr
 560              	.LVL62:
 561              	.L40:
 562              	.LCFI16:
 563              		.cfi_def_cfa_offset 8
 564              		.cfi_offset 4, -8
 565              		.cfi_offset 14, -4
  88:HW_Lib/AT32F435/BSP/Bsp_IIC.c **** }
 566              		.loc 1 88 12 view .LVU152
 567 0062 0020     		movs	r0, #0
 568              	.LVL63:
  88:HW_Lib/AT32F435/BSP/Bsp_IIC.c **** }
 569              		.loc 1 88 12 view .LVU153
 570 0064 D9E7     		b	.L36
 571              	.L48:
 572 0066 00BF     		.align	2
 573              	.L47:
 574 0068 00540040 		.word	1073763328
 575 006c 15004000 		.word	4194325
 576 0070 00000000 		.word	.LANCHOR0
 577 0074 00580040 		.word	1073764352
 578 0078 16004000 		.word	4194326
 579 007c 005C0040 		.word	1073765376
 580 0080 17004000 		.word	4194327
 581              		.cfi_endproc
 582              	.LFE134:
 584              		.section	.text.BspIIC_Irq_Enable,"ax",%progbits
 585              		.align	1
 586              		.syntax unified
 587              		.thumb
 588              		.thumb_func
 590              	BspIIC_Irq_Enable:
 591              	.LVL64:
 592              	.LFB135:
  92:HW_Lib/AT32F435/BSP/Bsp_IIC.c ****     if (obj && obj->handle)
 593              		.loc 1 92 1 is_stmt 1 view -0
 594              		.cfi_startproc
 595              		@ args = 0, pretend = 0, frame = 0
 596              		@ frame_needed = 0, uses_anonymous_args = 0
  93:HW_Lib/AT32F435/BSP/Bsp_IIC.c ****     {
 597              		.loc 1 93 5 view .LVU155
  93:HW_Lib/AT32F435/BSP/Bsp_IIC.c ****     {
 598              		.loc 1 93 8 is_stmt 0 view .LVU156
 599 0000 70B3     		cbz	r0, .L53
  92:HW_Lib/AT32F435/BSP/Bsp_IIC.c ****     if (obj && obj->handle)
ARM GAS  C:\Users\8bit\AppData\Local\Temp\ccPZJ02k.s 			page 17


 600              		.loc 1 92 1 discriminator 1 view .LVU157
 601 0002 08B5     		push	{r3, lr}
 602              	.LCFI17:
 603              		.cfi_def_cfa_offset 8
 604              		.cfi_offset 3, -8
 605              		.cfi_offset 14, -4
  93:HW_Lib/AT32F435/BSP/Bsp_IIC.c ****     {
 606              		.loc 1 93 19 discriminator 1 view .LVU158
 607 0004 C268     		ldr	r2, [r0, #12]
  93:HW_Lib/AT32F435/BSP/Bsp_IIC.c ****     {
 608              		.loc 1 93 13 discriminator 1 view .LVU159
 609 0006 6AB3     		cbz	r2, .L54
  95:HW_Lib/AT32F435/BSP/Bsp_IIC.c ****         {
 610              		.loc 1 95 9 is_stmt 1 view .LVU160
  95:HW_Lib/AT32F435/BSP/Bsp_IIC.c ****         {
 611              		.loc 1 95 20 is_stmt 0 view .LVU161
 612 0008 4379     		ldrb	r3, [r0, #5]	@ zero_extendqisi2
  95:HW_Lib/AT32F435/BSP/Bsp_IIC.c ****         {
 613              		.loc 1 95 9 view .LVU162
 614 000a 012B     		cmp	r3, #1
 615 000c 10D0     		beq	.L51
 616 000e 022B     		cmp	r3, #2
 617 0010 1AD0     		beq	.L52
 618 0012 0BB1     		cbz	r3, .L60
 619 0014 0020     		movs	r0, #0
 620              	.LVL65:
 621              	.L50:
 117:HW_Lib/AT32F435/BSP/Bsp_IIC.c **** 
 622              		.loc 1 117 1 view .LVU163
 623 0016 08BD     		pop	{r3, pc}
 624              	.LVL66:
 625              	.L60:
  98:HW_Lib/AT32F435/BSP/Bsp_IIC.c ****                 nvic_irq_enable(I2C1_ERR_IRQn, 5, 0);
 626              		.loc 1 98 17 is_stmt 1 view .LVU164
 627 0018 0022     		movs	r2, #0
 628 001a 0521     		movs	r1, #5
 629 001c 1F20     		movs	r0, #31
 630              	.LVL67:
  98:HW_Lib/AT32F435/BSP/Bsp_IIC.c ****                 nvic_irq_enable(I2C1_ERR_IRQn, 5, 0);
 631              		.loc 1 98 17 is_stmt 0 view .LVU165
 632 001e FFF7FEFF 		bl	nvic_irq_enable
 633              	.LVL68:
  99:HW_Lib/AT32F435/BSP/Bsp_IIC.c ****                 return true;
 634              		.loc 1 99 17 is_stmt 1 view .LVU166
 635 0022 0022     		movs	r2, #0
 636 0024 0521     		movs	r1, #5
 637 0026 2020     		movs	r0, #32
 638 0028 FFF7FEFF 		bl	nvic_irq_enable
 639              	.LVL69:
 100:HW_Lib/AT32F435/BSP/Bsp_IIC.c ****             
 640              		.loc 1 100 17 view .LVU167
 100:HW_Lib/AT32F435/BSP/Bsp_IIC.c ****             
 641              		.loc 1 100 24 is_stmt 0 view .LVU168
 642 002c 0120     		movs	r0, #1
 643 002e F2E7     		b	.L50
 644              	.LVL70:
 645              	.L51:
ARM GAS  C:\Users\8bit\AppData\Local\Temp\ccPZJ02k.s 			page 18


 103:HW_Lib/AT32F435/BSP/Bsp_IIC.c ****                 nvic_irq_enable(I2C2_ERR_IRQn, 5, 0);
 646              		.loc 1 103 17 is_stmt 1 view .LVU169
 647 0030 0022     		movs	r2, #0
 648 0032 0521     		movs	r1, #5
 649 0034 2120     		movs	r0, #33
 650              	.LVL71:
 103:HW_Lib/AT32F435/BSP/Bsp_IIC.c ****                 nvic_irq_enable(I2C2_ERR_IRQn, 5, 0);
 651              		.loc 1 103 17 is_stmt 0 view .LVU170
 652 0036 FFF7FEFF 		bl	nvic_irq_enable
 653              	.LVL72:
 104:HW_Lib/AT32F435/BSP/Bsp_IIC.c ****                 return true;
 654              		.loc 1 104 17 is_stmt 1 view .LVU171
 655 003a 0022     		movs	r2, #0
 656 003c 0521     		movs	r1, #5
 657 003e 2220     		movs	r0, #34
 658 0040 FFF7FEFF 		bl	nvic_irq_enable
 659              	.LVL73:
 105:HW_Lib/AT32F435/BSP/Bsp_IIC.c **** 
 660              		.loc 1 105 17 view .LVU172
 105:HW_Lib/AT32F435/BSP/Bsp_IIC.c **** 
 661              		.loc 1 105 24 is_stmt 0 view .LVU173
 662 0044 0120     		movs	r0, #1
 663 0046 E6E7     		b	.L50
 664              	.LVL74:
 665              	.L52:
 108:HW_Lib/AT32F435/BSP/Bsp_IIC.c ****                 nvic_irq_enable(I2C3_ERR_IRQn, 5, 0);
 666              		.loc 1 108 17 is_stmt 1 view .LVU174
 667 0048 0022     		movs	r2, #0
 668 004a 0521     		movs	r1, #5
 669 004c 4820     		movs	r0, #72
 670              	.LVL75:
 108:HW_Lib/AT32F435/BSP/Bsp_IIC.c ****                 nvic_irq_enable(I2C3_ERR_IRQn, 5, 0);
 671              		.loc 1 108 17 is_stmt 0 view .LVU175
 672 004e FFF7FEFF 		bl	nvic_irq_enable
 673              	.LVL76:
 109:HW_Lib/AT32F435/BSP/Bsp_IIC.c ****                 return true; 
 674              		.loc 1 109 17 is_stmt 1 view .LVU176
 675 0052 0022     		movs	r2, #0
 676 0054 0521     		movs	r1, #5
 677 0056 4920     		movs	r0, #73
 678 0058 FFF7FEFF 		bl	nvic_irq_enable
 679              	.LVL77:
 110:HW_Lib/AT32F435/BSP/Bsp_IIC.c ****         
 680              		.loc 1 110 17 view .LVU177
 110:HW_Lib/AT32F435/BSP/Bsp_IIC.c ****         
 681              		.loc 1 110 24 is_stmt 0 view .LVU178
 682 005c 0120     		movs	r0, #1
 683 005e DAE7     		b	.L50
 684              	.LVL78:
 685              	.L53:
 686              	.LCFI18:
 687              		.cfi_def_cfa_offset 0
 688              		.cfi_restore 3
 689              		.cfi_restore 14
 116:HW_Lib/AT32F435/BSP/Bsp_IIC.c **** }
 690              		.loc 1 116 12 view .LVU179
 691 0060 0020     		movs	r0, #0
ARM GAS  C:\Users\8bit\AppData\Local\Temp\ccPZJ02k.s 			page 19


 692              	.LVL79:
 117:HW_Lib/AT32F435/BSP/Bsp_IIC.c **** 
 693              		.loc 1 117 1 view .LVU180
 694 0062 7047     		bx	lr
 695              	.LVL80:
 696              	.L54:
 697              	.LCFI19:
 698              		.cfi_def_cfa_offset 8
 699              		.cfi_offset 3, -8
 700              		.cfi_offset 14, -4
 116:HW_Lib/AT32F435/BSP/Bsp_IIC.c **** }
 701              		.loc 1 116 12 view .LVU181
 702 0064 0020     		movs	r0, #0
 703              	.LVL81:
 116:HW_Lib/AT32F435/BSP/Bsp_IIC.c **** }
 704              		.loc 1 116 12 view .LVU182
 705 0066 D6E7     		b	.L50
 706              		.cfi_endproc
 707              	.LFE135:
 709              		.section	.text.BspIIC_Init,"ax",%progbits
 710              		.align	1
 711              		.syntax unified
 712              		.thumb
 713              		.thumb_func
 715              	BspIIC_Init:
 716              	.LVL82:
 717              	.LFB136:
 120:HW_Lib/AT32F435/BSP/Bsp_IIC.c ****     if(obj)
 718              		.loc 1 120 1 is_stmt 1 view -0
 719              		.cfi_startproc
 720              		@ args = 0, pretend = 0, frame = 0
 721              		@ frame_needed = 0, uses_anonymous_args = 0
 120:HW_Lib/AT32F435/BSP/Bsp_IIC.c ****     if(obj)
 722              		.loc 1 120 1 is_stmt 0 view .LVU184
 723 0000 38B5     		push	{r3, r4, r5, lr}
 724              	.LCFI20:
 725              		.cfi_def_cfa_offset 16
 726              		.cfi_offset 3, -16
 727              		.cfi_offset 4, -12
 728              		.cfi_offset 5, -8
 729              		.cfi_offset 14, -4
 121:HW_Lib/AT32F435/BSP/Bsp_IIC.c ****     {
 730              		.loc 1 121 5 is_stmt 1 view .LVU185
 121:HW_Lib/AT32F435/BSP/Bsp_IIC.c ****     {
 731              		.loc 1 121 7 is_stmt 0 view .LVU186
 732 0002 28B3     		cbz	r0, .L63
 733 0004 0546     		mov	r5, r0
 123:HW_Lib/AT32F435/BSP/Bsp_IIC.c ****             return false;
 734              		.loc 1 123 9 is_stmt 1 view .LVU187
 123:HW_Lib/AT32F435/BSP/Bsp_IIC.c ****             return false;
 735              		.loc 1 123 15 is_stmt 0 view .LVU188
 736 0006 FFF7FEFF 		bl	BspIIC_PeriphClk_Init
 737              	.LVL83:
 123:HW_Lib/AT32F435/BSP/Bsp_IIC.c ****             return false;
 738              		.loc 1 123 15 view .LVU189
 739 000a 0446     		mov	r4, r0
 123:HW_Lib/AT32F435/BSP/Bsp_IIC.c ****             return false;
ARM GAS  C:\Users\8bit\AppData\Local\Temp\ccPZJ02k.s 			page 20


 740              		.loc 1 123 44 view .LVU190
 741 000c 2846     		mov	r0, r5
 742 000e FFF7FEFF 		bl	BspIIC_Pin_Init
 743              	.LVL84:
 744 0012 0440     		ands	r4, r4, r0
 123:HW_Lib/AT32F435/BSP/Bsp_IIC.c ****             return false;
 745              		.loc 1 123 12 view .LVU191
 746 0014 14F0FF04 		ands	r4, r4, #255
 747 0018 1BD0     		beq	.L62
 126:HW_Lib/AT32F435/BSP/Bsp_IIC.c **** 
 748              		.loc 1 126 9 is_stmt 1 view .LVU192
 126:HW_Lib/AT32F435/BSP/Bsp_IIC.c **** 
 749              		.loc 1 126 42 is_stmt 0 view .LVU193
 750 001a EB68     		ldr	r3, [r5, #12]
 126:HW_Lib/AT32F435/BSP/Bsp_IIC.c **** 
 751              		.loc 1 126 9 view .LVU194
 752 001c 1868     		ldr	r0, [r3]
 753 001e FFF7FEFF 		bl	i2c_reset
 754              	.LVL85:
 128:HW_Lib/AT32F435/BSP/Bsp_IIC.c ****         i2c_own_address1_set(((i2c_handle_type *)obj->handle)->i2cx, I2C_ADDRESS_MODE_7BIT, 0x0);
 755              		.loc 1 128 9 is_stmt 1 view .LVU195
 128:HW_Lib/AT32F435/BSP/Bsp_IIC.c ****         i2c_own_address1_set(((i2c_handle_type *)obj->handle)->i2cx, I2C_ADDRESS_MODE_7BIT, 0x0);
 756              		.loc 1 128 41 is_stmt 0 view .LVU196
 757 0022 EB68     		ldr	r3, [r5, #12]
 128:HW_Lib/AT32F435/BSP/Bsp_IIC.c ****         i2c_own_address1_set(((i2c_handle_type *)obj->handle)->i2cx, I2C_ADDRESS_MODE_7BIT, 0x0);
 758              		.loc 1 128 9 view .LVU197
 759 0024 0C4A     		ldr	r2, .L65
 760 0026 0F21     		movs	r1, #15
 761 0028 1868     		ldr	r0, [r3]
 762 002a FFF7FEFF 		bl	i2c_init
 763              	.LVL86:
 129:HW_Lib/AT32F435/BSP/Bsp_IIC.c **** 
 764              		.loc 1 129 9 is_stmt 1 view .LVU198
 129:HW_Lib/AT32F435/BSP/Bsp_IIC.c **** 
 765              		.loc 1 129 53 is_stmt 0 view .LVU199
 766 002e EB68     		ldr	r3, [r5, #12]
 129:HW_Lib/AT32F435/BSP/Bsp_IIC.c **** 
 767              		.loc 1 129 9 view .LVU200
 768 0030 0022     		movs	r2, #0
 769 0032 1146     		mov	r1, r2
 770 0034 1868     		ldr	r0, [r3]
 771 0036 FFF7FEFF 		bl	i2c_own_address1_set
 772              	.LVL87:
 131:HW_Lib/AT32F435/BSP/Bsp_IIC.c ****             return false;
 773              		.loc 1 131 9 is_stmt 1 view .LVU201
 131:HW_Lib/AT32F435/BSP/Bsp_IIC.c ****             return false;
 774              		.loc 1 131 14 is_stmt 0 view .LVU202
 775 003a 2846     		mov	r0, r5
 776 003c FFF7FEFF 		bl	BspIIC_Irq_Enable
 777              	.LVL88:
 131:HW_Lib/AT32F435/BSP/Bsp_IIC.c ****             return false;
 778              		.loc 1 131 12 view .LVU203
 779 0040 0446     		mov	r4, r0
 780 0042 30B1     		cbz	r0, .L62
 134:HW_Lib/AT32F435/BSP/Bsp_IIC.c ****         return true;
 781              		.loc 1 134 9 is_stmt 1 view .LVU204
 134:HW_Lib/AT32F435/BSP/Bsp_IIC.c ****         return true;
ARM GAS  C:\Users\8bit\AppData\Local\Temp\ccPZJ02k.s 			page 21


 782              		.loc 1 134 43 is_stmt 0 view .LVU205
 783 0044 EB68     		ldr	r3, [r5, #12]
 134:HW_Lib/AT32F435/BSP/Bsp_IIC.c ****         return true;
 784              		.loc 1 134 9 view .LVU206
 785 0046 0121     		movs	r1, #1
 786 0048 1868     		ldr	r0, [r3]
 787 004a FFF7FEFF 		bl	i2c_enable
 788              	.LVL89:
 135:HW_Lib/AT32F435/BSP/Bsp_IIC.c ****     }
 789              		.loc 1 135 9 is_stmt 1 view .LVU207
 135:HW_Lib/AT32F435/BSP/Bsp_IIC.c ****     }
 790              		.loc 1 135 16 is_stmt 0 view .LVU208
 791 004e 00E0     		b	.L62
 792              	.LVL90:
 793              	.L63:
 138:HW_Lib/AT32F435/BSP/Bsp_IIC.c **** }
 794              		.loc 1 138 12 view .LVU209
 795 0050 0024     		movs	r4, #0
 796              	.LVL91:
 797              	.L62:
 139:HW_Lib/AT32F435/BSP/Bsp_IIC.c **** 
 798              		.loc 1 139 1 view .LVU210
 799 0052 2046     		mov	r0, r4
 800 0054 38BD     		pop	{r3, r4, r5, pc}
 801              	.L66:
 802 0056 00BF     		.align	2
 803              	.L65:
 804 0058 4E4C5080 		.word	-2142221234
 805              		.cfi_endproc
 806              	.LFE136:
 808              		.section	.text.BspIIC_Get_HandlePtr,"ax",%progbits
 809              		.align	1
 810              		.global	BspIIC_Get_HandlePtr
 811              		.syntax unified
 812              		.thumb
 813              		.thumb_func
 815              	BspIIC_Get_HandlePtr:
 816              	.LVL92:
 817              	.LFB140:
 181:HW_Lib/AT32F435/BSP/Bsp_IIC.c **** 
 182:HW_Lib/AT32F435/BSP/Bsp_IIC.c **** void *BspIIC_Get_HandlePtr(BspIIC_Instance_List index)
 183:HW_Lib/AT32F435/BSP/Bsp_IIC.c **** {
 818              		.loc 1 183 1 is_stmt 1 view -0
 819              		.cfi_startproc
 820              		@ args = 0, pretend = 0, frame = 0
 821              		@ frame_needed = 0, uses_anonymous_args = 0
 822              		@ link register save eliminated.
 184:HW_Lib/AT32F435/BSP/Bsp_IIC.c ****     if(index < BspIIC_Instance_I2C_Sum)
 823              		.loc 1 184 5 view .LVU212
 824              		.loc 1 184 7 is_stmt 0 view .LVU213
 825 0000 0228     		cmp	r0, #2
 826 0002 03D8     		bhi	.L69
 185:HW_Lib/AT32F435/BSP/Bsp_IIC.c ****         return BspIIC_HandleList[index];
 827              		.loc 1 185 9 is_stmt 1 view .LVU214
 828              		.loc 1 185 33 is_stmt 0 view .LVU215
 829 0004 024B     		ldr	r3, .L70
 830 0006 53F82000 		ldr	r0, [r3, r0, lsl #2]
ARM GAS  C:\Users\8bit\AppData\Local\Temp\ccPZJ02k.s 			page 22


 831              	.LVL93:
 832              		.loc 1 185 33 view .LVU216
 833 000a 7047     		bx	lr
 834              	.LVL94:
 835              	.L69:
 186:HW_Lib/AT32F435/BSP/Bsp_IIC.c **** 
 187:HW_Lib/AT32F435/BSP/Bsp_IIC.c ****     return NULL;
 836              		.loc 1 187 12 view .LVU217
 837 000c 0020     		movs	r0, #0
 838              	.LVL95:
 188:HW_Lib/AT32F435/BSP/Bsp_IIC.c **** }
 839              		.loc 1 188 1 view .LVU218
 840 000e 7047     		bx	lr
 841              	.L71:
 842              		.align	2
 843              	.L70:
 844 0010 00000000 		.word	.LANCHOR0
 845              		.cfi_endproc
 846              	.LFE140:
 848              		.global	BspIIC
 849              		.section	.bss.BspIIC_HandleList,"aw",%nobits
 850              		.align	2
 851              		.set	.LANCHOR0,. + 0
 854              	BspIIC_HandleList:
 855 0000 00000000 		.space	12
 855      00000000 
 855      00000000 
 856              		.section	.data.BspIIC,"aw"
 857              		.align	2
 860              	BspIIC:
 861 0000 00000000 		.word	BspIIC_Init
 862 0004 00000000 		.word	BspIIC_DeInit
 863 0008 00000000 		.word	BspIIC_Read
 864 000c 00000000 		.word	BspIIC_Write
 865              		.text
 866              	.Letext0:
 867              		.file 2 "c:\\program files (x86)\\gnu arm embedded toolchain\\10 2021.10\\arm-none-eabi\\include\\
 868              		.file 3 "c:\\program files (x86)\\gnu arm embedded toolchain\\10 2021.10\\arm-none-eabi\\include\\
 869              		.file 4 "HW_Lib/AT32F435/device_support/at32f435_437.h"
 870              		.file 5 "HW_Lib/AT32F435/drivers/inc/at32f435_437_crm.h"
 871              		.file 6 "HW_Lib/AT32F435/drivers/inc/at32f435_437_tmr.h"
 872              		.file 7 "HW_Lib/AT32F435/drivers/inc/at32f435_437_gpio.h"
 873              		.file 8 "HW_Lib/AT32F435/drivers/inc/at32f435_437_i2c.h"
 874              		.file 9 "HW_Lib/AT32F435/drivers/inc/at32f435_437_dma.h"
 875              		.file 10 "HW_Lib/PortApi_Def/Bsp_GPIO_Port_Def.h"
 876              		.file 11 "HW_Lib/PortApi_Def/Bsp_IIC_Port_Def.h"
 877              		.file 12 "HW_Lib/AT32F435/drivers/inc/i2c_application.h"
 878              		.file 13 "HW_Lib/AT32F435/BSP/Bsp_IIC.h"
 879              		.file 14 "HW_Lib/AT32F435/BSP/Bsp_GPIO.h"
 880              		.file 15 "HW_Lib/AT32F435/drivers/inc/at32f435_437_misc.h"
ARM GAS  C:\Users\8bit\AppData\Local\Temp\ccPZJ02k.s 			page 23


DEFINED SYMBOLS
                            *ABS*:00000000 Bsp_IIC.c
C:\Users\8bit\AppData\Local\Temp\ccPZJ02k.s:20     .text.BspIIC_Write:00000000 $t
C:\Users\8bit\AppData\Local\Temp\ccPZJ02k.s:25     .text.BspIIC_Write:00000000 BspIIC_Write
C:\Users\8bit\AppData\Local\Temp\ccPZJ02k.s:121    .text.BspIIC_Read:00000000 $t
C:\Users\8bit\AppData\Local\Temp\ccPZJ02k.s:126    .text.BspIIC_Read:00000000 BspIIC_Read
C:\Users\8bit\AppData\Local\Temp\ccPZJ02k.s:221    .text.BspIIC_DeInit:00000000 $t
C:\Users\8bit\AppData\Local\Temp\ccPZJ02k.s:226    .text.BspIIC_DeInit:00000000 BspIIC_DeInit
C:\Users\8bit\AppData\Local\Temp\ccPZJ02k.s:275    .text.BspIIC_Pin_Init:00000000 $t
C:\Users\8bit\AppData\Local\Temp\ccPZJ02k.s:280    .text.BspIIC_Pin_Init:00000000 BspIIC_Pin_Init
C:\Users\8bit\AppData\Local\Temp\ccPZJ02k.s:434    .text.BspIIC_Pin_Init:00000074 $d
C:\Users\8bit\AppData\Local\Temp\ccPZJ02k.s:439    .text.BspIIC_PeriphClk_Init:00000000 $t
C:\Users\8bit\AppData\Local\Temp\ccPZJ02k.s:444    .text.BspIIC_PeriphClk_Init:00000000 BspIIC_PeriphClk_Init
C:\Users\8bit\AppData\Local\Temp\ccPZJ02k.s:574    .text.BspIIC_PeriphClk_Init:00000068 $d
C:\Users\8bit\AppData\Local\Temp\ccPZJ02k.s:585    .text.BspIIC_Irq_Enable:00000000 $t
C:\Users\8bit\AppData\Local\Temp\ccPZJ02k.s:590    .text.BspIIC_Irq_Enable:00000000 BspIIC_Irq_Enable
C:\Users\8bit\AppData\Local\Temp\ccPZJ02k.s:710    .text.BspIIC_Init:00000000 $t
C:\Users\8bit\AppData\Local\Temp\ccPZJ02k.s:715    .text.BspIIC_Init:00000000 BspIIC_Init
C:\Users\8bit\AppData\Local\Temp\ccPZJ02k.s:804    .text.BspIIC_Init:00000058 $d
C:\Users\8bit\AppData\Local\Temp\ccPZJ02k.s:809    .text.BspIIC_Get_HandlePtr:00000000 $t
C:\Users\8bit\AppData\Local\Temp\ccPZJ02k.s:815    .text.BspIIC_Get_HandlePtr:00000000 BspIIC_Get_HandlePtr
C:\Users\8bit\AppData\Local\Temp\ccPZJ02k.s:844    .text.BspIIC_Get_HandlePtr:00000010 $d
C:\Users\8bit\AppData\Local\Temp\ccPZJ02k.s:860    .data.BspIIC:00000000 BspIIC
C:\Users\8bit\AppData\Local\Temp\ccPZJ02k.s:850    .bss.BspIIC_HandleList:00000000 $d
C:\Users\8bit\AppData\Local\Temp\ccPZJ02k.s:854    .bss.BspIIC_HandleList:00000000 BspIIC_HandleList
C:\Users\8bit\AppData\Local\Temp\ccPZJ02k.s:857    .data.BspIIC:00000000 $d

UNDEFINED SYMBOLS
i2c_memory_write
i2c_memory_read
i2c_reset
BspGPIO
crm_periph_clock_enable
nvic_irq_enable
i2c_init
i2c_own_address1_set
i2c_enable
