ARM GAS  C:\Users\HUAV\AppData\Local\Temp\cclU3XgN.s 			page 1


   1              		.cpu cortex-m7
   2              		.eabi_attribute 28, 1
   3              		.eabi_attribute 20, 1
   4              		.eabi_attribute 21, 1
   5              		.eabi_attribute 23, 3
   6              		.eabi_attribute 24, 1
   7              		.eabi_attribute 25, 1
   8              		.eabi_attribute 26, 1
   9              		.eabi_attribute 30, 1
  10              		.eabi_attribute 34, 1
  11              		.eabi_attribute 18, 4
  12              		.file	"Bsp_DMA.c"
  13              		.text
  14              	.Ltext0:
  15              		.cfi_sections	.debug_frame
  16              		.section	.text.BspDMA_Get_Instance,"ax",%progbits
  17              		.align	1
  18              		.arch armv7e-m
  19              		.syntax unified
  20              		.thumb
  21              		.thumb_func
  22              		.fpu fpv5-d16
  24              	BspDMA_Get_Instance:
  25              	.LVL0:
  26              	.LFB144:
  27              		.file 1 "Bsp/Bsp_DMA.c"
   1:Bsp/Bsp_DMA.c **** #include "stm32h743xx.h"
   2:Bsp/Bsp_DMA.c **** #include "stm32h7xx_hal.h"
   3:Bsp/Bsp_DMA.c **** #include "stm32h7xx_hal_rcc.h"
   4:Bsp/Bsp_DMA.c **** #include "Bsp_DMA.h"
   5:Bsp/Bsp_DMA.c **** 
   6:Bsp/Bsp_DMA.c **** static DMA_HandleTypeDef *BspDMA_Map[Bsp_DMA_Sum][Bsp_DMA_Stream_Sum] = {NULL};
   7:Bsp/Bsp_DMA.c **** 
   8:Bsp/Bsp_DMA.c **** static const BspDMA1_Instance_List[Bsp_DMA_Stream_Sum] = {
   9:Bsp/Bsp_DMA.c ****     DMA1_Stream0,
  10:Bsp/Bsp_DMA.c ****     DMA1_Stream1,
  11:Bsp/Bsp_DMA.c ****     DMA1_Stream2,
  12:Bsp/Bsp_DMA.c ****     DMA1_Stream3,
  13:Bsp/Bsp_DMA.c ****     DMA1_Stream4,
  14:Bsp/Bsp_DMA.c ****     DMA1_Stream5,
  15:Bsp/Bsp_DMA.c ****     DMA1_Stream6,
  16:Bsp/Bsp_DMA.c ****     DMA1_Stream7};
  17:Bsp/Bsp_DMA.c **** 
  18:Bsp/Bsp_DMA.c **** static const BspDMA2_Instance_List[Bsp_DMA_Stream_Sum] = {
  19:Bsp/Bsp_DMA.c ****     DMA2_Stream0,
  20:Bsp/Bsp_DMA.c ****     DMA2_Stream1,
  21:Bsp/Bsp_DMA.c ****     DMA2_Stream2,
  22:Bsp/Bsp_DMA.c ****     DMA2_Stream3,
  23:Bsp/Bsp_DMA.c ****     DMA2_Stream4,
  24:Bsp/Bsp_DMA.c ****     DMA2_Stream5,
  25:Bsp/Bsp_DMA.c ****     DMA2_Stream6,
  26:Bsp/Bsp_DMA.c ****     DMA2_Stream7};
  27:Bsp/Bsp_DMA.c **** 
  28:Bsp/Bsp_DMA.c **** /* internal function */
  29:Bsp/Bsp_DMA.c **** 
  30:Bsp/Bsp_DMA.c **** /* external function */
  31:Bsp/Bsp_DMA.c **** static bool BspDMA_Regist_Obj(BspDMA_List dma, BspDMA_Stream_List stream, DMA_HandleTypeDef *hdl);
ARM GAS  C:\Users\HUAV\AppData\Local\Temp\cclU3XgN.s 			page 2


  32:Bsp/Bsp_DMA.c **** static bool BspDMA_Unregist_Obj(BspDMA_List dma, BspDMA_Stream_List stream);
  33:Bsp/Bsp_DMA.c **** static DMA_HandleTypeDef *BspDMA_Get_Handle(BspDMA_List dma, BspDMA_Stream_List stream);
  34:Bsp/Bsp_DMA.c **** static DMA2D_TypeDef *BspDMA_Get_Instance(BspDMA_List dma, BspDMA_Stream_List stream);
  35:Bsp/Bsp_DMA.c **** static void BspDMA_EnableIRQ(BspDMA_List dma, BspDMA_Stream_List stream, uint32_t preempt, uint32_t
  36:Bsp/Bsp_DMA.c **** 
  37:Bsp/Bsp_DMA.c **** BspDMA_TypeDef BspDMA = {
  38:Bsp/Bsp_DMA.c ****     .regist = BspDMA_Regist_Obj,
  39:Bsp/Bsp_DMA.c ****     .unregist = BspDMA_Unregist_Obj,
  40:Bsp/Bsp_DMA.c ****     .get_handle = BspDMA_Get_Handle,
  41:Bsp/Bsp_DMA.c ****     .get_instance = BspDMA_Get_Instance,
  42:Bsp/Bsp_DMA.c ****     .enable_irq = BspDMA_EnableIRQ,
  43:Bsp/Bsp_DMA.c **** };
  44:Bsp/Bsp_DMA.c **** 
  45:Bsp/Bsp_DMA.c **** /* DMA2_Stream7 for DataPipe Use */
  46:Bsp/Bsp_DMA.c **** static DMA2D_TypeDef *BspDMA_Get_Instance(BspDMA_List dma, BspDMA_Stream_List stream)
  47:Bsp/Bsp_DMA.c **** {
  28              		.loc 1 47 1 view -0
  29              		.cfi_startproc
  30              		@ args = 0, pretend = 0, frame = 8
  31              		@ frame_needed = 0, uses_anonymous_args = 0
  32              		@ link register save eliminated.
  48:Bsp/Bsp_DMA.c ****     DMA2D_TypeDef *instance;
  33              		.loc 1 48 5 view .LVU1
  49:Bsp/Bsp_DMA.c ****     bool dma1_clk_init = false;
  34              		.loc 1 49 5 view .LVU2
  50:Bsp/Bsp_DMA.c ****     bool dma2_clk_init = false;
  35              		.loc 1 50 5 view .LVU3
  51:Bsp/Bsp_DMA.c **** 
  52:Bsp/Bsp_DMA.c ****     if ((dma < Bsp_DMA_1) || (stream < Bsp_DMA_Stream_0))
  36              		.loc 1 52 5 view .LVU4
  37              		.loc 1 52 8 is_stmt 0 view .LVU5
  38 0000 50EA0103 		orrs	r3, r0, r1
  39 0004 30D4     		bmi	.L4
  47:Bsp/Bsp_DMA.c ****     DMA2D_TypeDef *instance;
  40              		.loc 1 47 1 view .LVU6
  41 0006 82B0     		sub	sp, sp, #8
  42              	.LCFI0:
  43              		.cfi_def_cfa_offset 8
  53:Bsp/Bsp_DMA.c ****         return NULL;
  54:Bsp/Bsp_DMA.c **** 
  55:Bsp/Bsp_DMA.c ****     if ((dma == Bsp_DMA_1) && ((stream < Bsp_DMA_Stream_Sum) && (stream >= Bsp_DMA_Stream_0)))
  44              		.loc 1 55 5 is_stmt 1 view .LVU7
  45              		.loc 1 55 62 is_stmt 0 view .LVU8
  46 0008 CAB2     		uxtb	r2, r1
  47 000a 072A     		cmp	r2, #7
  48 000c 8CBF     		ite	hi
  49 000e 0023     		movhi	r3, #0
  50 0010 0123     		movls	r3, #1
  51              		.loc 1 55 28 view .LVU9
  52 0012 0028     		cmp	r0, #0
  53 0014 18BF     		it	ne
  54 0016 0023     		movne	r3, #0
  55              		.loc 1 55 8 view .LVU10
  56 0018 ABB9     		cbnz	r3, .L10
  56:Bsp/Bsp_DMA.c ****     {
  57:Bsp/Bsp_DMA.c ****         if (!dma1_clk_init)
  58:Bsp/Bsp_DMA.c ****         {
ARM GAS  C:\Users\HUAV\AppData\Local\Temp\cclU3XgN.s 			page 3


  59:Bsp/Bsp_DMA.c ****             __HAL_RCC_DMA1_CLK_ENABLE();
  60:Bsp/Bsp_DMA.c ****             dma1_clk_init = true;
  61:Bsp/Bsp_DMA.c ****         }
  62:Bsp/Bsp_DMA.c **** 
  63:Bsp/Bsp_DMA.c ****         return BspDMA1_Instance_List[stream];
  64:Bsp/Bsp_DMA.c ****     }
  65:Bsp/Bsp_DMA.c ****     else if ((dma == Bsp_DMA_2) && ((stream < Bsp_DMA_Stream_7) && (stream >= Bsp_DMA_Stream_0)))
  57              		.loc 1 65 10 is_stmt 1 view .LVU11
  58              		.loc 1 65 13 is_stmt 0 view .LVU12
  59 001a 062A     		cmp	r2, #6
  60 001c 98BF     		it	ls
  61 001e 0128     		cmpls	r0, #1
  62 0020 24D1     		bne	.L5
  66:Bsp/Bsp_DMA.c ****     {
  67:Bsp/Bsp_DMA.c ****         if (!dma2_clk_init)
  63              		.loc 1 67 9 is_stmt 1 view .LVU13
  68:Bsp/Bsp_DMA.c ****         {
  69:Bsp/Bsp_DMA.c ****             __HAL_RCC_DMA2_CLK_ENABLE();
  64              		.loc 1 69 13 view .LVU14
  65              	.LBB2:
  66              		.loc 1 69 13 view .LVU15
  67              		.loc 1 69 13 view .LVU16
  68 0022 134B     		ldr	r3, .L11
  69 0024 D3F8D820 		ldr	r2, [r3, #216]
  70 0028 42F00202 		orr	r2, r2, #2
  71 002c C3F8D820 		str	r2, [r3, #216]
  72              		.loc 1 69 13 view .LVU17
  73 0030 D3F8D830 		ldr	r3, [r3, #216]
  74 0034 03F00203 		and	r3, r3, #2
  75 0038 0193     		str	r3, [sp, #4]
  76              		.loc 1 69 13 view .LVU18
  77 003a 019B     		ldr	r3, [sp, #4]
  78              	.LBE2:
  79              		.loc 1 69 13 view .LVU19
  70:Bsp/Bsp_DMA.c ****             dma2_clk_init = true;
  80              		.loc 1 70 13 view .LVU20
  81              	.LVL1:
  71:Bsp/Bsp_DMA.c ****         }
  72:Bsp/Bsp_DMA.c **** 
  73:Bsp/Bsp_DMA.c ****         return BspDMA2_Instance_List[stream];
  82              		.loc 1 73 9 view .LVU21
  83              		.loc 1 73 37 is_stmt 0 view .LVU22
  84 003c 0D4B     		ldr	r3, .L11+4
  85 003e 53F82100 		ldr	r0, [r3, r1, lsl #2]
  86              	.LVL2:
  87              	.L1:
  74:Bsp/Bsp_DMA.c ****     }
  75:Bsp/Bsp_DMA.c **** 
  76:Bsp/Bsp_DMA.c ****     return NULL;
  77:Bsp/Bsp_DMA.c **** }
  88              		.loc 1 77 1 view .LVU23
  89 0042 02B0     		add	sp, sp, #8
  90              	.LCFI1:
  91              		.cfi_remember_state
  92              		.cfi_def_cfa_offset 0
  93              		@ sp needed
  94 0044 7047     		bx	lr
ARM GAS  C:\Users\HUAV\AppData\Local\Temp\cclU3XgN.s 			page 4


  95              	.LVL3:
  96              	.L10:
  97              	.LCFI2:
  98              		.cfi_restore_state
  57:Bsp/Bsp_DMA.c ****         {
  99              		.loc 1 57 9 is_stmt 1 view .LVU24
  59:Bsp/Bsp_DMA.c ****             dma1_clk_init = true;
 100              		.loc 1 59 13 view .LVU25
 101              	.LBB3:
  59:Bsp/Bsp_DMA.c ****             dma1_clk_init = true;
 102              		.loc 1 59 13 view .LVU26
  59:Bsp/Bsp_DMA.c ****             dma1_clk_init = true;
 103              		.loc 1 59 13 view .LVU27
 104 0046 0A4B     		ldr	r3, .L11
 105 0048 D3F8D820 		ldr	r2, [r3, #216]
 106 004c 42F00102 		orr	r2, r2, #1
 107 0050 C3F8D820 		str	r2, [r3, #216]
  59:Bsp/Bsp_DMA.c ****             dma1_clk_init = true;
 108              		.loc 1 59 13 view .LVU28
 109 0054 D3F8D830 		ldr	r3, [r3, #216]
 110 0058 03F00103 		and	r3, r3, #1
 111 005c 0093     		str	r3, [sp]
  59:Bsp/Bsp_DMA.c ****             dma1_clk_init = true;
 112              		.loc 1 59 13 view .LVU29
 113 005e 009B     		ldr	r3, [sp]
 114              	.LBE3:
  59:Bsp/Bsp_DMA.c ****             dma1_clk_init = true;
 115              		.loc 1 59 13 view .LVU30
  60:Bsp/Bsp_DMA.c ****         }
 116              		.loc 1 60 13 view .LVU31
 117              	.LVL4:
  63:Bsp/Bsp_DMA.c ****     }
 118              		.loc 1 63 9 view .LVU32
  63:Bsp/Bsp_DMA.c ****     }
 119              		.loc 1 63 37 is_stmt 0 view .LVU33
 120 0060 054B     		ldr	r3, .L11+8
 121 0062 53F82100 		ldr	r0, [r3, r1, lsl #2]
 122              	.LVL5:
  63:Bsp/Bsp_DMA.c ****     }
 123              		.loc 1 63 37 view .LVU34
 124 0066 ECE7     		b	.L1
 125              	.LVL6:
 126              	.L4:
 127              	.LCFI3:
 128              		.cfi_def_cfa_offset 0
  53:Bsp/Bsp_DMA.c **** 
 129              		.loc 1 53 16 view .LVU35
 130 0068 0020     		movs	r0, #0
 131              	.LVL7:
 132              		.loc 1 77 1 view .LVU36
 133 006a 7047     		bx	lr
 134              	.LVL8:
 135              	.L5:
 136              	.LCFI4:
 137              		.cfi_def_cfa_offset 8
  76:Bsp/Bsp_DMA.c **** }
 138              		.loc 1 76 12 view .LVU37
ARM GAS  C:\Users\HUAV\AppData\Local\Temp\cclU3XgN.s 			page 5


 139 006c 0020     		movs	r0, #0
 140              	.LVL9:
  76:Bsp/Bsp_DMA.c **** }
 141              		.loc 1 76 12 view .LVU38
 142 006e E8E7     		b	.L1
 143              	.L12:
 144              		.align	2
 145              	.L11:
 146 0070 00440258 		.word	1476543488
 147 0074 00000000 		.word	.LANCHOR1
 148 0078 00000000 		.word	.LANCHOR0
 149              		.cfi_endproc
 150              	.LFE144:
 152              		.section	.text.BspDMA_Regist_Obj,"ax",%progbits
 153              		.align	1
 154              		.syntax unified
 155              		.thumb
 156              		.thumb_func
 157              		.fpu fpv5-d16
 159              	BspDMA_Regist_Obj:
 160              	.LVL10:
 161              	.LFB145:
  78:Bsp/Bsp_DMA.c **** 
  79:Bsp/Bsp_DMA.c **** static bool BspDMA_Regist_Obj(BspDMA_List dma, BspDMA_Stream_List stream, DMA_HandleTypeDef *hdl)
  80:Bsp/Bsp_DMA.c **** {
 162              		.loc 1 80 1 is_stmt 1 view -0
 163              		.cfi_startproc
 164              		@ args = 0, pretend = 0, frame = 0
 165              		@ frame_needed = 0, uses_anonymous_args = 0
 166              		.loc 1 80 1 is_stmt 0 view .LVU40
 167 0000 2DE9F041 		push	{r4, r5, r6, r7, r8, lr}
 168              	.LCFI5:
 169              		.cfi_def_cfa_offset 24
 170              		.cfi_offset 4, -24
 171              		.cfi_offset 5, -20
 172              		.cfi_offset 6, -16
 173              		.cfi_offset 7, -12
 174              		.cfi_offset 8, -8
 175              		.cfi_offset 14, -4
  81:Bsp/Bsp_DMA.c ****     DMA2D_TypeDef *instance = NULL;
 176              		.loc 1 81 5 is_stmt 1 view .LVU41
 177              	.LVL11:
  82:Bsp/Bsp_DMA.c **** 
  83:Bsp/Bsp_DMA.c ****     if ((dma < Bsp_DMA_1) || (stream < Bsp_DMA_Stream_0))
 178              		.loc 1 83 5 view .LVU42
 179              		.loc 1 83 38 is_stmt 0 view .LVU43
 180 0004 CB0F     		lsrs	r3, r1, #31
 181              		.loc 1 83 8 view .LVU44
 182 0006 53EAD078 		orrs	r8, r3, r0, lsr #31
 183 000a 18D1     		bne	.L15
 184 000c 0446     		mov	r4, r0
 185 000e 0E46     		mov	r6, r1
 186 0010 1746     		mov	r7, r2
  84:Bsp/Bsp_DMA.c ****         return false;
  85:Bsp/Bsp_DMA.c **** 
  86:Bsp/Bsp_DMA.c ****     if (((dma < Bsp_DMA_Sum) && (dma >= Bsp_DMA_1)) &&
 187              		.loc 1 86 5 is_stmt 1 view .LVU45
ARM GAS  C:\Users\HUAV\AppData\Local\Temp\cclU3XgN.s 			page 6


 188              		.loc 1 86 30 is_stmt 0 view .LVU46
 189 0012 C5B2     		uxtb	r5, r0
  87:Bsp/Bsp_DMA.c ****         ((stream < Bsp_DMA_Stream_Sum) && (stream >= Bsp_DMA_Stream_0)))
 190              		.loc 1 87 40 view .LVU47
 191 0014 CBB2     		uxtb	r3, r1
  86:Bsp/Bsp_DMA.c ****         ((stream < Bsp_DMA_Stream_Sum) && (stream >= Bsp_DMA_Stream_0)))
 192              		.loc 1 86 8 view .LVU48
 193 0016 012D     		cmp	r5, #1
 194 0018 98BF     		it	ls
 195 001a 072B     		cmpls	r3, #7
 196 001c 94BF     		ite	ls
 197 001e 0125     		movls	r5, #1
 198 0020 0025     		movhi	r5, #0
 199 0022 02D9     		bls	.L18
 200              	.LVL12:
 201              	.L14:
  88:Bsp/Bsp_DMA.c ****     {
  89:Bsp/Bsp_DMA.c ****         instance = BspDMA_Get_Instance(dma, stream);
  90:Bsp/Bsp_DMA.c ****         if (instance == NULL)
  91:Bsp/Bsp_DMA.c ****             return false;
  92:Bsp/Bsp_DMA.c **** 
  93:Bsp/Bsp_DMA.c ****         hdl->Instance = instance;
  94:Bsp/Bsp_DMA.c ****         BspDMA_Map[dma][stream] = hdl;
  95:Bsp/Bsp_DMA.c ****         return true;
  96:Bsp/Bsp_DMA.c ****     }
  97:Bsp/Bsp_DMA.c **** 
  98:Bsp/Bsp_DMA.c ****     return false;
  99:Bsp/Bsp_DMA.c **** }
 202              		.loc 1 99 1 view .LVU49
 203 0024 2846     		mov	r0, r5
 204 0026 BDE8F081 		pop	{r4, r5, r6, r7, r8, pc}
 205              	.LVL13:
 206              	.L18:
  89:Bsp/Bsp_DMA.c ****         if (instance == NULL)
 207              		.loc 1 89 9 is_stmt 1 view .LVU50
  89:Bsp/Bsp_DMA.c ****         if (instance == NULL)
 208              		.loc 1 89 20 is_stmt 0 view .LVU51
 209 002a FFF7FEFF 		bl	BspDMA_Get_Instance
 210              	.LVL14:
  90:Bsp/Bsp_DMA.c ****             return false;
 211              		.loc 1 90 9 is_stmt 1 view .LVU52
  90:Bsp/Bsp_DMA.c ****             return false;
 212              		.loc 1 90 12 is_stmt 0 view .LVU53
 213 002e 40B1     		cbz	r0, .L16
  93:Bsp/Bsp_DMA.c ****         BspDMA_Map[dma][stream] = hdl;
 214              		.loc 1 93 9 is_stmt 1 view .LVU54
  93:Bsp/Bsp_DMA.c ****         BspDMA_Map[dma][stream] = hdl;
 215              		.loc 1 93 23 is_stmt 0 view .LVU55
 216 0030 3860     		str	r0, [r7]
  94:Bsp/Bsp_DMA.c ****         return true;
 217              		.loc 1 94 9 is_stmt 1 view .LVU56
  94:Bsp/Bsp_DMA.c ****         return true;
 218              		.loc 1 94 33 is_stmt 0 view .LVU57
 219 0032 06EBC404 		add	r4, r6, r4, lsl #3
 220 0036 044B     		ldr	r3, .L19
 221 0038 43F82470 		str	r7, [r3, r4, lsl #2]
  95:Bsp/Bsp_DMA.c ****     }
ARM GAS  C:\Users\HUAV\AppData\Local\Temp\cclU3XgN.s 			page 7


 222              		.loc 1 95 9 is_stmt 1 view .LVU58
  95:Bsp/Bsp_DMA.c ****     }
 223              		.loc 1 95 16 is_stmt 0 view .LVU59
 224 003c F2E7     		b	.L14
 225              	.LVL15:
 226              	.L15:
  84:Bsp/Bsp_DMA.c **** 
 227              		.loc 1 84 16 view .LVU60
 228 003e 0025     		movs	r5, #0
 229 0040 F0E7     		b	.L14
 230              	.LVL16:
 231              	.L16:
  91:Bsp/Bsp_DMA.c **** 
 232              		.loc 1 91 20 view .LVU61
 233 0042 4546     		mov	r5, r8
 234 0044 EEE7     		b	.L14
 235              	.L20:
 236 0046 00BF     		.align	2
 237              	.L19:
 238 0048 00000000 		.word	.LANCHOR2
 239              		.cfi_endproc
 240              	.LFE145:
 242              		.section	.text.BspDMA_Unregist_Obj,"ax",%progbits
 243              		.align	1
 244              		.syntax unified
 245              		.thumb
 246              		.thumb_func
 247              		.fpu fpv5-d16
 249              	BspDMA_Unregist_Obj:
 250              	.LVL17:
 251              	.LFB146:
 100:Bsp/Bsp_DMA.c **** 
 101:Bsp/Bsp_DMA.c **** static bool BspDMA_Unregist_Obj(BspDMA_List dma, BspDMA_Stream_List stream)
 102:Bsp/Bsp_DMA.c **** {
 252              		.loc 1 102 1 is_stmt 1 view -0
 253              		.cfi_startproc
 254              		@ args = 0, pretend = 0, frame = 0
 255              		@ frame_needed = 0, uses_anonymous_args = 0
 256              		@ link register save eliminated.
 103:Bsp/Bsp_DMA.c ****     if ((dma < Bsp_DMA_1) || (stream < Bsp_DMA_Stream_0))
 257              		.loc 1 103 5 view .LVU63
 258              		.loc 1 103 8 is_stmt 0 view .LVU64
 259 0000 50EA0103 		orrs	r3, r0, r1
 260 0004 14D4     		bmi	.L23
 102:Bsp/Bsp_DMA.c ****     if ((dma < Bsp_DMA_1) || (stream < Bsp_DMA_Stream_0))
 261              		.loc 1 102 1 view .LVU65
 262 0006 10B4     		push	{r4}
 263              	.LCFI6:
 264              		.cfi_def_cfa_offset 4
 265              		.cfi_offset 4, -4
 266 0008 0246     		mov	r2, r0
 104:Bsp/Bsp_DMA.c ****         return false;
 105:Bsp/Bsp_DMA.c **** 
 106:Bsp/Bsp_DMA.c ****     if (((dma < Bsp_DMA_Sum) && (dma >= Bsp_DMA_1)) &&
 267              		.loc 1 106 5 is_stmt 1 view .LVU66
 268              		.loc 1 106 30 is_stmt 0 view .LVU67
 269 000a C0B2     		uxtb	r0, r0
ARM GAS  C:\Users\HUAV\AppData\Local\Temp\cclU3XgN.s 			page 8


 107:Bsp/Bsp_DMA.c ****         ((stream < Bsp_DMA_Stream_Sum) && (stream >= Bsp_DMA_Stream_0)))
 270              		.loc 1 107 40 view .LVU68
 271 000c CCB2     		uxtb	r4, r1
 106:Bsp/Bsp_DMA.c ****         ((stream < Bsp_DMA_Stream_Sum) && (stream >= Bsp_DMA_Stream_0)))
 272              		.loc 1 106 8 view .LVU69
 273 000e 0128     		cmp	r0, #1
 274 0010 98BF     		it	ls
 275 0012 072C     		cmpls	r4, #7
 276 0014 94BF     		ite	ls
 277 0016 0120     		movls	r0, #1
 278              	.LVL18:
 106:Bsp/Bsp_DMA.c ****         ((stream < Bsp_DMA_Stream_Sum) && (stream >= Bsp_DMA_Stream_0)))
 279              		.loc 1 106 8 view .LVU70
 280 0018 0020     		movhi	r0, #0
 281 001a 02D9     		bls	.L28
 282              	.LVL19:
 283              	.L22:
 108:Bsp/Bsp_DMA.c ****     {
 109:Bsp/Bsp_DMA.c ****         BspDMA_Map[dma][stream] = NULL;
 110:Bsp/Bsp_DMA.c ****         return true;
 111:Bsp/Bsp_DMA.c ****     }
 112:Bsp/Bsp_DMA.c **** 
 113:Bsp/Bsp_DMA.c ****     return false;
 114:Bsp/Bsp_DMA.c **** }
 284              		.loc 1 114 1 view .LVU71
 285 001c 5DF8044B 		ldr	r4, [sp], #4
 286              	.LCFI7:
 287              		.cfi_remember_state
 288              		.cfi_restore 4
 289              		.cfi_def_cfa_offset 0
 290              	.LVL20:
 291              		.loc 1 114 1 view .LVU72
 292 0020 7047     		bx	lr
 293              	.LVL21:
 294              	.L28:
 295              	.LCFI8:
 296              		.cfi_restore_state
 109:Bsp/Bsp_DMA.c ****         return true;
 297              		.loc 1 109 9 is_stmt 1 view .LVU73
 109:Bsp/Bsp_DMA.c ****         return true;
 298              		.loc 1 109 33 is_stmt 0 view .LVU74
 299 0022 01EBC201 		add	r1, r1, r2, lsl #3
 300              	.LVL22:
 109:Bsp/Bsp_DMA.c ****         return true;
 301              		.loc 1 109 33 view .LVU75
 302 0026 034B     		ldr	r3, .L29
 303 0028 0022     		movs	r2, #0
 304 002a 43F82120 		str	r2, [r3, r1, lsl #2]
 110:Bsp/Bsp_DMA.c ****     }
 305              		.loc 1 110 9 is_stmt 1 view .LVU76
 110:Bsp/Bsp_DMA.c ****     }
 306              		.loc 1 110 16 is_stmt 0 view .LVU77
 307 002e F5E7     		b	.L22
 308              	.LVL23:
 309              	.L23:
 310              	.LCFI9:
 311              		.cfi_def_cfa_offset 0
ARM GAS  C:\Users\HUAV\AppData\Local\Temp\cclU3XgN.s 			page 9


 312              		.cfi_restore 4
 104:Bsp/Bsp_DMA.c **** 
 313              		.loc 1 104 16 view .LVU78
 314 0030 0020     		movs	r0, #0
 315              	.LVL24:
 316              		.loc 1 114 1 view .LVU79
 317 0032 7047     		bx	lr
 318              	.L30:
 319              		.align	2
 320              	.L29:
 321 0034 00000000 		.word	.LANCHOR2
 322              		.cfi_endproc
 323              	.LFE146:
 325              		.section	.text.BspDMA_Get_Handle,"ax",%progbits
 326              		.align	1
 327              		.syntax unified
 328              		.thumb
 329              		.thumb_func
 330              		.fpu fpv5-d16
 332              	BspDMA_Get_Handle:
 333              	.LVL25:
 334              	.LFB147:
 115:Bsp/Bsp_DMA.c **** 
 116:Bsp/Bsp_DMA.c **** static DMA_HandleTypeDef *BspDMA_Get_Handle(BspDMA_List dma, BspDMA_Stream_List stream)
 117:Bsp/Bsp_DMA.c **** {
 335              		.loc 1 117 1 is_stmt 1 view -0
 336              		.cfi_startproc
 337              		@ args = 0, pretend = 0, frame = 0
 338              		@ frame_needed = 0, uses_anonymous_args = 0
 339              		@ link register save eliminated.
 118:Bsp/Bsp_DMA.c ****     if ((dma < Bsp_DMA_1) || (stream < Bsp_DMA_Stream_0))
 340              		.loc 1 118 5 view .LVU81
 341              		.loc 1 118 8 is_stmt 0 view .LVU82
 342 0000 50EA0103 		orrs	r3, r0, r1
 343 0004 0BD4     		bmi	.L33
 119:Bsp/Bsp_DMA.c ****         return NULL;
 120:Bsp/Bsp_DMA.c **** 
 121:Bsp/Bsp_DMA.c ****     if (((dma < Bsp_DMA_Sum) && (dma >= Bsp_DMA_1)) &&
 344              		.loc 1 121 5 is_stmt 1 view .LVU83
 345              		.loc 1 121 30 is_stmt 0 view .LVU84
 346 0006 C3B2     		uxtb	r3, r0
 122:Bsp/Bsp_DMA.c ****         ((stream < Bsp_DMA_Stream_Sum) && (stream >= Bsp_DMA_Stream_0)))
 347              		.loc 1 122 40 view .LVU85
 348 0008 CAB2     		uxtb	r2, r1
 121:Bsp/Bsp_DMA.c ****         ((stream < Bsp_DMA_Stream_Sum) && (stream >= Bsp_DMA_Stream_0)))
 349              		.loc 1 121 8 view .LVU86
 350 000a 012B     		cmp	r3, #1
 351 000c 98BF     		it	ls
 352 000e 072A     		cmpls	r2, #7
 353 0010 07D8     		bhi	.L34
 123:Bsp/Bsp_DMA.c ****     {
 124:Bsp/Bsp_DMA.c ****         return BspDMA_Map[dma][stream];
 354              		.loc 1 124 9 is_stmt 1 view .LVU87
 355              		.loc 1 124 31 is_stmt 0 view .LVU88
 356 0012 01EBC001 		add	r1, r1, r0, lsl #3
 357              	.LVL26:
 358              		.loc 1 124 31 view .LVU89
ARM GAS  C:\Users\HUAV\AppData\Local\Temp\cclU3XgN.s 			page 10


 359 0016 044B     		ldr	r3, .L35
 360 0018 53F82100 		ldr	r0, [r3, r1, lsl #2]
 361              	.LVL27:
 362              		.loc 1 124 31 view .LVU90
 363 001c 7047     		bx	lr
 364              	.LVL28:
 365              	.L33:
 119:Bsp/Bsp_DMA.c **** 
 366              		.loc 1 119 16 view .LVU91
 367 001e 0020     		movs	r0, #0
 368              	.LVL29:
 119:Bsp/Bsp_DMA.c **** 
 369              		.loc 1 119 16 view .LVU92
 370 0020 7047     		bx	lr
 371              	.LVL30:
 372              	.L34:
 125:Bsp/Bsp_DMA.c ****     }
 126:Bsp/Bsp_DMA.c **** 
 127:Bsp/Bsp_DMA.c ****     return NULL;
 373              		.loc 1 127 12 view .LVU93
 374 0022 0020     		movs	r0, #0
 375              	.LVL31:
 128:Bsp/Bsp_DMA.c **** }
 376              		.loc 1 128 1 view .LVU94
 377 0024 7047     		bx	lr
 378              	.L36:
 379 0026 00BF     		.align	2
 380              	.L35:
 381 0028 00000000 		.word	.LANCHOR2
 382              		.cfi_endproc
 383              	.LFE147:
 385              		.section	.text.BspDMA_EnableIRQ,"ax",%progbits
 386              		.align	1
 387              		.syntax unified
 388              		.thumb
 389              		.thumb_func
 390              		.fpu fpv5-d16
 392              	BspDMA_EnableIRQ:
 393              	.LVL32:
 394              	.LFB148:
 129:Bsp/Bsp_DMA.c **** 
 130:Bsp/Bsp_DMA.c **** static void BspDMA_EnableIRQ(BspDMA_List dma, BspDMA_Stream_List stream, uint32_t preempt, uint32_t
 131:Bsp/Bsp_DMA.c **** {
 395              		.loc 1 131 1 is_stmt 1 view -0
 396              		.cfi_startproc
 397              		@ args = 0, pretend = 0, frame = 0
 398              		@ frame_needed = 0, uses_anonymous_args = 0
 132:Bsp/Bsp_DMA.c ****     IRQn_Type irq;
 399              		.loc 1 132 5 view .LVU96
 133:Bsp/Bsp_DMA.c **** 
 134:Bsp/Bsp_DMA.c ****     if ((dma < Bsp_DMA_1) || (stream < Bsp_DMA_Stream_0))
 400              		.loc 1 134 5 view .LVU97
 401              		.loc 1 134 8 is_stmt 0 view .LVU98
 402 0000 50EA0103 		orrs	r3, r0, r1
 403              	.LVL33:
 404              		.loc 1 134 8 view .LVU99
 405 0004 3BD4     		bmi	.L60
ARM GAS  C:\Users\HUAV\AppData\Local\Temp\cclU3XgN.s 			page 11


 131:Bsp/Bsp_DMA.c ****     IRQn_Type irq;
 406              		.loc 1 131 1 view .LVU100
 407 0006 10B5     		push	{r4, lr}
 408              	.LCFI10:
 409              		.cfi_def_cfa_offset 8
 410              		.cfi_offset 4, -8
 411              		.cfi_offset 14, -4
 135:Bsp/Bsp_DMA.c ****         return;
 136:Bsp/Bsp_DMA.c **** 
 137:Bsp/Bsp_DMA.c ****     if (dma == Bsp_DMA_1)
 412              		.loc 1 137 5 is_stmt 1 view .LVU101
 413              		.loc 1 137 8 is_stmt 0 view .LVU102
 414 0008 E8B9     		cbnz	r0, .L39
 138:Bsp/Bsp_DMA.c ****     {
 139:Bsp/Bsp_DMA.c ****         switch (stream)
 415              		.loc 1 139 9 is_stmt 1 view .LVU103
 416 000a 0729     		cmp	r1, #7
 417 000c 10D8     		bhi	.L37
 418 000e DFE801F0 		tbb	[pc, r1]
 419              	.L41:
 420 0012 04       		.byte	(.L48-.L41)/2
 421 0013 32       		.byte	(.L57-.L41)/2
 422 0014 06       		.byte	(.L46-.L41)/2
 423 0015 10       		.byte	(.L45-.L41)/2
 424 0016 12       		.byte	(.L44-.L41)/2
 425 0017 14       		.byte	(.L43-.L41)/2
 426 0018 16       		.byte	(.L42-.L41)/2
 427 0019 18       		.byte	(.L40-.L41)/2
 428              		.p2align 1
 429              	.L48:
 137:Bsp/Bsp_DMA.c ****     {
 430              		.loc 1 137 8 is_stmt 0 view .LVU104
 431 001a 0B24     		movs	r4, #11
 432 001c 00E0     		b	.L47
 433              	.L46:
 140:Bsp/Bsp_DMA.c ****         {
 141:Bsp/Bsp_DMA.c ****         case Bsp_DMA_Stream_0:
 142:Bsp/Bsp_DMA.c ****             irq = DMA1_Stream0_IRQn;
 143:Bsp/Bsp_DMA.c ****             break;
 144:Bsp/Bsp_DMA.c **** 
 145:Bsp/Bsp_DMA.c ****         case Bsp_DMA_Stream_1:
 146:Bsp/Bsp_DMA.c ****             irq = DMA1_Stream1_IRQn;
 147:Bsp/Bsp_DMA.c ****             break;
 148:Bsp/Bsp_DMA.c **** 
 149:Bsp/Bsp_DMA.c ****         case Bsp_DMA_Stream_2:
 150:Bsp/Bsp_DMA.c ****             irq = DMA1_Stream2_IRQn;
 434              		.loc 1 150 13 is_stmt 1 view .LVU105
 435              	.LVL34:
 151:Bsp/Bsp_DMA.c ****             break;
 436              		.loc 1 151 13 view .LVU106
 150:Bsp/Bsp_DMA.c ****             break;
 437              		.loc 1 150 17 is_stmt 0 view .LVU107
 438 001e 0D24     		movs	r4, #13
 439              	.LVL35:
 440              	.L47:
 152:Bsp/Bsp_DMA.c **** 
 153:Bsp/Bsp_DMA.c ****         case Bsp_DMA_Stream_3:
ARM GAS  C:\Users\HUAV\AppData\Local\Temp\cclU3XgN.s 			page 12


 154:Bsp/Bsp_DMA.c ****             irq = DMA1_Stream3_IRQn;
 155:Bsp/Bsp_DMA.c ****             break;
 156:Bsp/Bsp_DMA.c **** 
 157:Bsp/Bsp_DMA.c ****         case Bsp_DMA_Stream_4:
 158:Bsp/Bsp_DMA.c ****             irq = DMA1_Stream4_IRQn;
 159:Bsp/Bsp_DMA.c ****             break;
 160:Bsp/Bsp_DMA.c **** 
 161:Bsp/Bsp_DMA.c ****         case Bsp_DMA_Stream_5:
 162:Bsp/Bsp_DMA.c ****             irq = DMA1_Stream5_IRQn;
 163:Bsp/Bsp_DMA.c ****             break;
 164:Bsp/Bsp_DMA.c **** 
 165:Bsp/Bsp_DMA.c ****         case Bsp_DMA_Stream_6:
 166:Bsp/Bsp_DMA.c ****             irq = DMA1_Stream6_IRQn;
 167:Bsp/Bsp_DMA.c ****             break;
 168:Bsp/Bsp_DMA.c **** 
 169:Bsp/Bsp_DMA.c ****         case Bsp_DMA_Stream_7:
 170:Bsp/Bsp_DMA.c ****             irq = DMA1_Stream7_IRQn;
 171:Bsp/Bsp_DMA.c ****             break;
 172:Bsp/Bsp_DMA.c **** 
 173:Bsp/Bsp_DMA.c ****         default:
 174:Bsp/Bsp_DMA.c ****             return;
 175:Bsp/Bsp_DMA.c ****         }
 176:Bsp/Bsp_DMA.c ****     }
 177:Bsp/Bsp_DMA.c ****     else if (dma == Bsp_DMA_2)
 178:Bsp/Bsp_DMA.c ****     {
 179:Bsp/Bsp_DMA.c ****         switch (stream)
 180:Bsp/Bsp_DMA.c ****         {
 181:Bsp/Bsp_DMA.c ****         case Bsp_DMA_Stream_0:
 182:Bsp/Bsp_DMA.c ****             irq = DMA2_Stream0_IRQn;
 183:Bsp/Bsp_DMA.c ****             break;
 184:Bsp/Bsp_DMA.c **** 
 185:Bsp/Bsp_DMA.c ****         case Bsp_DMA_Stream_1:
 186:Bsp/Bsp_DMA.c ****             irq = DMA2_Stream1_IRQn;
 187:Bsp/Bsp_DMA.c ****             break;
 188:Bsp/Bsp_DMA.c **** 
 189:Bsp/Bsp_DMA.c ****         case Bsp_DMA_Stream_2:
 190:Bsp/Bsp_DMA.c ****             irq = DMA2_Stream2_IRQn;
 191:Bsp/Bsp_DMA.c ****             break;
 192:Bsp/Bsp_DMA.c **** 
 193:Bsp/Bsp_DMA.c ****         case Bsp_DMA_Stream_3:
 194:Bsp/Bsp_DMA.c ****             irq = DMA2_Stream3_IRQn;
 195:Bsp/Bsp_DMA.c ****             break;
 196:Bsp/Bsp_DMA.c **** 
 197:Bsp/Bsp_DMA.c ****         case Bsp_DMA_Stream_4:
 198:Bsp/Bsp_DMA.c ****             irq = DMA2_Stream4_IRQn;
 199:Bsp/Bsp_DMA.c ****             break;
 200:Bsp/Bsp_DMA.c **** 
 201:Bsp/Bsp_DMA.c ****         case Bsp_DMA_Stream_5:
 202:Bsp/Bsp_DMA.c ****             irq = DMA2_Stream5_IRQn;
 203:Bsp/Bsp_DMA.c ****             break;
 204:Bsp/Bsp_DMA.c **** 
 205:Bsp/Bsp_DMA.c ****         case Bsp_DMA_Stream_6:
 206:Bsp/Bsp_DMA.c ****             irq = DMA2_Stream6_IRQn;
 207:Bsp/Bsp_DMA.c ****             break;
 208:Bsp/Bsp_DMA.c **** 
 209:Bsp/Bsp_DMA.c ****         case Bsp_DMA_Stream_7:
 210:Bsp/Bsp_DMA.c ****             irq = DMA2_Stream7_IRQn;
ARM GAS  C:\Users\HUAV\AppData\Local\Temp\cclU3XgN.s 			page 13


 211:Bsp/Bsp_DMA.c ****             break;
 212:Bsp/Bsp_DMA.c **** 
 213:Bsp/Bsp_DMA.c ****         default:
 214:Bsp/Bsp_DMA.c ****             return;
 215:Bsp/Bsp_DMA.c ****         }
 216:Bsp/Bsp_DMA.c ****     }
 217:Bsp/Bsp_DMA.c ****     else
 218:Bsp/Bsp_DMA.c ****         return;
 219:Bsp/Bsp_DMA.c **** 
 220:Bsp/Bsp_DMA.c ****     HAL_NVIC_SetPriority(irq, 5, 0);
 441              		.loc 1 220 5 is_stmt 1 view .LVU108
 442 0020 0022     		movs	r2, #0
 443              	.LVL36:
 444              		.loc 1 220 5 is_stmt 0 view .LVU109
 445 0022 0521     		movs	r1, #5
 446              	.LVL37:
 447              		.loc 1 220 5 view .LVU110
 448 0024 2046     		mov	r0, r4
 449              	.LVL38:
 450              		.loc 1 220 5 view .LVU111
 451 0026 FFF7FEFF 		bl	HAL_NVIC_SetPriority
 452              	.LVL39:
 221:Bsp/Bsp_DMA.c ****     HAL_NVIC_EnableIRQ(irq);
 453              		.loc 1 221 5 is_stmt 1 view .LVU112
 454 002a 2046     		mov	r0, r4
 455 002c FFF7FEFF 		bl	HAL_NVIC_EnableIRQ
 456              	.LVL40:
 457              	.L37:
 222:Bsp/Bsp_DMA.c **** }...
 458              		.loc 1 222 1 is_stmt 0 view .LVU113
 459 0030 10BD     		pop	{r4, pc}
 460              	.LVL41:
 461              	.L45:
 154:Bsp/Bsp_DMA.c ****             irq = DMA1_Stream3_IRQn;
 462              		.loc 1 154 13 is_stmt 1 view .LVU114
 155:Bsp/Bsp_DMA.c ****             break;
 463              		.loc 1 155 13 view .LVU115
 154:Bsp/Bsp_DMA.c ****             irq = DMA1_Stream3_IRQn;
 464              		.loc 1 154 17 is_stmt 0 view .LVU116
 465 0032 0E24     		movs	r4, #14
 155:Bsp/Bsp_DMA.c ****             break;
 466              		.loc 1 155 13 view .LVU117
 467 0034 F4E7     		b	.L47
 468              	.LVL42:
 469              	.L44:
 158:Bsp/Bsp_DMA.c ****             irq = DMA1_Stream4_IRQn;
 470              		.loc 1 158 13 is_stmt 1 view .LVU118
 159:Bsp/Bsp_DMA.c ****             break;
 471              		.loc 1 159 13 view .LVU119
 158:Bsp/Bsp_DMA.c ****             irq = DMA1_Stream4_IRQn;
 472              		.loc 1 158 17 is_stmt 0 view .LVU120
 473 0036 0F24     		movs	r4, #15
 159:Bsp/Bsp_DMA.c ****             break;
 474              		.loc 1 159 13 view .LVU121
 475 0038 F2E7     		b	.L47
 476              	.LVL43:
 477              	.L43:
ARM GAS  C:\Users\HUAV\AppData\Local\Temp\cclU3XgN.s 			page 14


 162:Bsp/Bsp_DMA.c ****             irq = DMA1_Stream5_IRQn;
 478              		.loc 1 162 13 is_stmt 1 view .LVU122
 163:Bsp/Bsp_DMA.c ****             break;
 479              		.loc 1 163 13 view .LVU123
 162:Bsp/Bsp_DMA.c ****             irq = DMA1_Stream5_IRQn;
 480              		.loc 1 162 17 is_stmt 0 view .LVU124
 481 003a 1024     		movs	r4, #16
 163:Bsp/Bsp_DMA.c ****             break;
 482              		.loc 1 163 13 view .LVU125
 483 003c F0E7     		b	.L47
 484              	.LVL44:
 485              	.L42:
 166:Bsp/Bsp_DMA.c ****             irq = DMA1_Stream6_IRQn;
 486              		.loc 1 166 13 is_stmt 1 view .LVU126
 167:Bsp/Bsp_DMA.c ****             break;
 487              		.loc 1 167 13 view .LVU127
 166:Bsp/Bsp_DMA.c ****             irq = DMA1_Stream6_IRQn;
 488              		.loc 1 166 17 is_stmt 0 view .LVU128
 489 003e 1124     		movs	r4, #17
 167:Bsp/Bsp_DMA.c ****             break;
 490              		.loc 1 167 13 view .LVU129
 491 0040 EEE7     		b	.L47
 492              	.LVL45:
 493              	.L40:
 170:Bsp/Bsp_DMA.c ****             irq = DMA1_Stream7_IRQn;
 494              		.loc 1 170 13 is_stmt 1 view .LVU130
 171:Bsp/Bsp_DMA.c ****             break;
 495              		.loc 1 171 13 view .LVU131
 170:Bsp/Bsp_DMA.c ****             irq = DMA1_Stream7_IRQn;
 496              		.loc 1 170 17 is_stmt 0 view .LVU132
 497 0042 2F24     		movs	r4, #47
 171:Bsp/Bsp_DMA.c ****             break;
 498              		.loc 1 171 13 view .LVU133
 499 0044 ECE7     		b	.L47
 500              	.LVL46:
 501              	.L39:
 177:Bsp/Bsp_DMA.c ****     else if (dma == Bsp_DMA_2)
 502              		.loc 1 177 10 is_stmt 1 view .LVU134
 177:Bsp/Bsp_DMA.c ****     else if (dma == Bsp_DMA_2)
 503              		.loc 1 177 13 is_stmt 0 view .LVU135
 504 0046 0128     		cmp	r0, #1
 505 0048 F2D1     		bne	.L37
 179:Bsp/Bsp_DMA.c ****         switch (stream)
 506              		.loc 1 179 9 is_stmt 1 view .LVU136
 507 004a 0729     		cmp	r1, #7
 508 004c F0D8     		bhi	.L37
 509 004e DFE801F0 		tbb	[pc, r1]
 510              	.L50:
 511 0052 04       		.byte	(.L56-.L50)/2
 512 0053 14       		.byte	(.L58-.L50)/2
 513 0054 06       		.byte	(.L55-.L50)/2
 514 0055 08       		.byte	(.L54-.L50)/2
 515 0056 0A       		.byte	(.L53-.L50)/2
 516 0057 0C       		.byte	(.L52-.L50)/2
 517 0058 0E       		.byte	(.L51-.L50)/2
 518 0059 10       		.byte	(.L49-.L50)/2
 519              		.p2align 1
ARM GAS  C:\Users\HUAV\AppData\Local\Temp\cclU3XgN.s 			page 15


 520              	.L56:
 177:Bsp/Bsp_DMA.c ****     else if (dma == Bsp_DMA_2)
 521              		.loc 1 177 13 is_stmt 0 view .LVU137
 522 005a 3824     		movs	r4, #56
 523 005c E0E7     		b	.L47
 524              	.L55:
 190:Bsp/Bsp_DMA.c ****             irq = DMA2_Stream2_IRQn;
 525              		.loc 1 190 13 is_stmt 1 view .LVU138
 526              	.LVL47:
 191:Bsp/Bsp_DMA.c ****             break;
 527              		.loc 1 191 13 view .LVU139
 190:Bsp/Bsp_DMA.c ****             irq = DMA2_Stream2_IRQn;
 528              		.loc 1 190 17 is_stmt 0 view .LVU140
 529 005e 3A24     		movs	r4, #58
 191:Bsp/Bsp_DMA.c ****             break;
 530              		.loc 1 191 13 view .LVU141
 531 0060 DEE7     		b	.L47
 532              	.LVL48:
 533              	.L54:
 194:Bsp/Bsp_DMA.c ****             irq = DMA2_Stream3_IRQn;
 534              		.loc 1 194 13 is_stmt 1 view .LVU142
 195:Bsp/Bsp_DMA.c ****             break;
 535              		.loc 1 195 13 view .LVU143
 194:Bsp/Bsp_DMA.c ****             irq = DMA2_Stream3_IRQn;
 536              		.loc 1 194 17 is_stmt 0 view .LVU144
 537 0062 3B24     		movs	r4, #59
 195:Bsp/Bsp_DMA.c ****             break;
 538              		.loc 1 195 13 view .LVU145
 539 0064 DCE7     		b	.L47
 540              	.LVL49:
 541              	.L53:
 198:Bsp/Bsp_DMA.c ****             irq = DMA2_Stream4_IRQn;
 542              		.loc 1 198 13 is_stmt 1 view .LVU146
 199:Bsp/Bsp_DMA.c ****             break;
 543              		.loc 1 199 13 view .LVU147
 198:Bsp/Bsp_DMA.c ****             irq = DMA2_Stream4_IRQn;
 544              		.loc 1 198 17 is_stmt 0 view .LVU148
 545 0066 3C24     		movs	r4, #60
 199:Bsp/Bsp_DMA.c ****             break;
 546              		.loc 1 199 13 view .LVU149
 547 0068 DAE7     		b	.L47
 548              	.LVL50:
 549              	.L52:
 202:Bsp/Bsp_DMA.c ****             irq = DMA2_Stream5_IRQn;
 550              		.loc 1 202 13 is_stmt 1 view .LVU150
 203:Bsp/Bsp_DMA.c ****             break;
 551              		.loc 1 203 13 view .LVU151
 202:Bsp/Bsp_DMA.c ****             irq = DMA2_Stream5_IRQn;
 552              		.loc 1 202 17 is_stmt 0 view .LVU152
 553 006a 4424     		movs	r4, #68
 203:Bsp/Bsp_DMA.c ****             break;
 554              		.loc 1 203 13 view .LVU153
 555 006c D8E7     		b	.L47
 556              	.LVL51:
 557              	.L51:
 206:Bsp/Bsp_DMA.c ****             irq = DMA2_Stream6_IRQn;
 558              		.loc 1 206 13 is_stmt 1 view .LVU154
ARM GAS  C:\Users\HUAV\AppData\Local\Temp\cclU3XgN.s 			page 16


 207:Bsp/Bsp_DMA.c ****             break;
 559              		.loc 1 207 13 view .LVU155
 206:Bsp/Bsp_DMA.c ****             irq = DMA2_Stream6_IRQn;
 560              		.loc 1 206 17 is_stmt 0 view .LVU156
 561 006e 4524     		movs	r4, #69
 207:Bsp/Bsp_DMA.c ****             break;
 562              		.loc 1 207 13 view .LVU157
 563 0070 D6E7     		b	.L47
 564              	.LVL52:
 565              	.L49:
 210:Bsp/Bsp_DMA.c ****             irq = DMA2_Stream7_IRQn;
 566              		.loc 1 210 13 is_stmt 1 view .LVU158
 211:Bsp/Bsp_DMA.c ****             break;
 567              		.loc 1 211 13 view .LVU159
 210:Bsp/Bsp_DMA.c ****             irq = DMA2_Stream7_IRQn;
 568              		.loc 1 210 17 is_stmt 0 view .LVU160
 569 0072 4624     		movs	r4, #70
 211:Bsp/Bsp_DMA.c ****             break;
 570              		.loc 1 211 13 view .LVU161
 571 0074 D4E7     		b	.L47
 572              	.LVL53:
 573              	.L57:
 146:Bsp/Bsp_DMA.c ****             irq = DMA1_Stream1_IRQn;
 574              		.loc 1 146 17 view .LVU162
 575 0076 0C24     		movs	r4, #12
 576 0078 D2E7     		b	.L47
 577              	.L58:
 186:Bsp/Bsp_DMA.c ****             irq = DMA2_Stream1_IRQn;
 578              		.loc 1 186 17 view .LVU163
 579 007a 3924     		movs	r4, #57
 580 007c D0E7     		b	.L47
 581              	.L60:
 582              	.LCFI11:
 583              		.cfi_def_cfa_offset 0
 584              		.cfi_restore 4
 585              		.cfi_restore 14
 586 007e 7047     		bx	lr
 587              		.cfi_endproc
 588              	.LFE148:
 590              		.global	BspDMA
 591              		.section	.bss.BspDMA_Map,"aw",%nobits
 592              		.align	2
 593              		.set	.LANCHOR2,. + 0
 596              	BspDMA_Map:
 597 0000 00000000 		.space	64
 597      00000000 
 597      00000000 
 597      00000000 
 597      00000000 
 598              		.section	.data.BspDMA,"aw"
 599              		.align	2
 602              	BspDMA:
 603 0000 00000000 		.word	BspDMA_Regist_Obj
 604 0004 00000000 		.word	BspDMA_Unregist_Obj
 605 0008 00000000 		.word	BspDMA_Get_Handle
 606 000c 00000000 		.word	BspDMA_Get_Instance
 607 0010 00000000 		.word	BspDMA_EnableIRQ
ARM GAS  C:\Users\HUAV\AppData\Local\Temp\cclU3XgN.s 			page 17


 608              		.section	.rodata.BspDMA1_Instance_List,"a"
 609              		.align	2
 610              		.set	.LANCHOR0,. + 0
 613              	BspDMA1_Instance_List:
 614 0000 10000240 		.word	1073872912
 615 0004 28000240 		.word	1073872936
 616 0008 40000240 		.word	1073872960
 617 000c 58000240 		.word	1073872984
 618 0010 70000240 		.word	1073873008
 619 0014 88000240 		.word	1073873032
 620 0018 A0000240 		.word	1073873056
 621 001c B8000240 		.word	1073873080
 622              		.section	.rodata.BspDMA2_Instance_List,"a"
 623              		.align	2
 624              		.set	.LANCHOR1,. + 0
 627              	BspDMA2_Instance_List:
 628 0000 10040240 		.word	1073873936
 629 0004 28040240 		.word	1073873960
 630 0008 40040240 		.word	1073873984
 631 000c 58040240 		.word	1073874008
 632 0010 70040240 		.word	1073874032
 633 0014 88040240 		.word	1073874056
 634 0018 A0040240 		.word	1073874080
 635 001c B8040240 		.word	1073874104
 636              		.text
 637              	.Letext0:
 638              		.file 2 "HAL_Lib/CMSIS/Device/ST/STM32H7xx/Include/stm32h743xx.h"
 639              		.file 3 "d:\\software\\zephyr_env_gcc\\gcc-arm-none-eabi-9-2019-q4-major-win32\\arm-none-eabi\\inc
 640              		.file 4 "d:\\software\\zephyr_env_gcc\\gcc-arm-none-eabi-9-2019-q4-major-win32\\arm-none-eabi\\inc
 641              		.file 5 "HAL_Lib/CMSIS/Core/Include/core_cm7.h"
 642              		.file 6 "HAL_Lib/CMSIS/Device/ST/STM32H7xx/Include/system_stm32h7xx.h"
 643              		.file 7 "d:\\software\\zephyr_env_gcc\\gcc-arm-none-eabi-9-2019-q4-major-win32\\arm-none-eabi\\inc
 644              		.file 8 "d:\\software\\zephyr_env_gcc\\gcc-arm-none-eabi-9-2019-q4-major-win32\\arm-none-eabi\\inc
 645              		.file 9 "d:\\software\\zephyr_env_gcc\\gcc-arm-none-eabi-9-2019-q4-major-win32\\lib\\gcc\\arm-none
 646              		.file 10 "d:\\software\\zephyr_env_gcc\\gcc-arm-none-eabi-9-2019-q4-major-win32\\arm-none-eabi\\in
 647              		.file 11 "d:\\software\\zephyr_env_gcc\\gcc-arm-none-eabi-9-2019-q4-major-win32\\arm-none-eabi\\in
 648              		.file 12 "HAL_Lib/STM32H7xx_HAL_Driver/Inc/stm32h7xx_hal_def.h"
 649              		.file 13 "HAL_Lib/STM32H7xx_HAL_Driver/Inc/stm32h7xx_hal_dma.h"
 650              		.file 14 "HAL_Lib/STM32H7xx_HAL_Driver/Inc/stm32h7xx_hal_flash.h"
 651              		.file 15 "HAL_Lib/STM32H7xx_HAL_Driver/Inc/stm32h7xx_hal_uart.h"
 652              		.file 16 "HAL_Lib/STM32H7xx_HAL_Driver/Inc/stm32h7xx_hal.h"
 653              		.file 17 "Bsp/Bsp_DMA.h"
 654              		.file 18 "HAL_Lib/STM32H7xx_HAL_Driver/Inc/stm32h7xx_hal_cortex.h"
ARM GAS  C:\Users\HUAV\AppData\Local\Temp\cclU3XgN.s 			page 18


DEFINED SYMBOLS
                            *ABS*:00000000 Bsp_DMA.c
C:\Users\HUAV\AppData\Local\Temp\cclU3XgN.s:17     .text.BspDMA_Get_Instance:00000000 $t
C:\Users\HUAV\AppData\Local\Temp\cclU3XgN.s:24     .text.BspDMA_Get_Instance:00000000 BspDMA_Get_Instance
C:\Users\HUAV\AppData\Local\Temp\cclU3XgN.s:146    .text.BspDMA_Get_Instance:00000070 $d
C:\Users\HUAV\AppData\Local\Temp\cclU3XgN.s:153    .text.BspDMA_Regist_Obj:00000000 $t
C:\Users\HUAV\AppData\Local\Temp\cclU3XgN.s:159    .text.BspDMA_Regist_Obj:00000000 BspDMA_Regist_Obj
C:\Users\HUAV\AppData\Local\Temp\cclU3XgN.s:238    .text.BspDMA_Regist_Obj:00000048 $d
C:\Users\HUAV\AppData\Local\Temp\cclU3XgN.s:243    .text.BspDMA_Unregist_Obj:00000000 $t
C:\Users\HUAV\AppData\Local\Temp\cclU3XgN.s:249    .text.BspDMA_Unregist_Obj:00000000 BspDMA_Unregist_Obj
C:\Users\HUAV\AppData\Local\Temp\cclU3XgN.s:321    .text.BspDMA_Unregist_Obj:00000034 $d
C:\Users\HUAV\AppData\Local\Temp\cclU3XgN.s:326    .text.BspDMA_Get_Handle:00000000 $t
C:\Users\HUAV\AppData\Local\Temp\cclU3XgN.s:332    .text.BspDMA_Get_Handle:00000000 BspDMA_Get_Handle
C:\Users\HUAV\AppData\Local\Temp\cclU3XgN.s:381    .text.BspDMA_Get_Handle:00000028 $d
C:\Users\HUAV\AppData\Local\Temp\cclU3XgN.s:386    .text.BspDMA_EnableIRQ:00000000 $t
C:\Users\HUAV\AppData\Local\Temp\cclU3XgN.s:392    .text.BspDMA_EnableIRQ:00000000 BspDMA_EnableIRQ
C:\Users\HUAV\AppData\Local\Temp\cclU3XgN.s:420    .text.BspDMA_EnableIRQ:00000012 $d
C:\Users\HUAV\AppData\Local\Temp\cclU3XgN.s:428    .text.BspDMA_EnableIRQ:0000001a $t
C:\Users\HUAV\AppData\Local\Temp\cclU3XgN.s:511    .text.BspDMA_EnableIRQ:00000052 $d
C:\Users\HUAV\AppData\Local\Temp\cclU3XgN.s:519    .text.BspDMA_EnableIRQ:0000005a $t
C:\Users\HUAV\AppData\Local\Temp\cclU3XgN.s:602    .data.BspDMA:00000000 BspDMA
C:\Users\HUAV\AppData\Local\Temp\cclU3XgN.s:592    .bss.BspDMA_Map:00000000 $d
C:\Users\HUAV\AppData\Local\Temp\cclU3XgN.s:596    .bss.BspDMA_Map:00000000 BspDMA_Map
C:\Users\HUAV\AppData\Local\Temp\cclU3XgN.s:599    .data.BspDMA:00000000 $d
C:\Users\HUAV\AppData\Local\Temp\cclU3XgN.s:609    .rodata.BspDMA1_Instance_List:00000000 $d
C:\Users\HUAV\AppData\Local\Temp\cclU3XgN.s:613    .rodata.BspDMA1_Instance_List:00000000 BspDMA1_Instance_List
C:\Users\HUAV\AppData\Local\Temp\cclU3XgN.s:623    .rodata.BspDMA2_Instance_List:00000000 $d
C:\Users\HUAV\AppData\Local\Temp\cclU3XgN.s:627    .rodata.BspDMA2_Instance_List:00000000 BspDMA2_Instance_List

UNDEFINED SYMBOLS
HAL_NVIC_SetPriority
HAL_NVIC_EnableIRQ
