ARM GAS  C:\Users\8bit\AppData\Local\Temp\cch4jWL1.s 			page 1


   1              		.cpu cortex-m4
   2              		.arch armv7e-m
   3              		.fpu fpv4-sp-d16
   4              		.eabi_attribute 27, 1
   5              		.eabi_attribute 28, 1
   6              		.eabi_attribute 20, 1
   7              		.eabi_attribute 21, 1
   8              		.eabi_attribute 23, 3
   9              		.eabi_attribute 24, 1
  10              		.eabi_attribute 25, 1
  11              		.eabi_attribute 26, 1
  12              		.eabi_attribute 30, 1
  13              		.eabi_attribute 34, 1
  14              		.eabi_attribute 18, 4
  15              		.file	"Bsp_USB.c"
  16              		.text
  17              	.Ltext0:
  18              		.cfi_sections	.debug_frame
  19              		.section	.text.BspUSB_CheckConnect,"ax",%progbits
  20              		.align	1
  21              		.syntax unified
  22              		.thumb
  23              		.thumb_func
  25              	BspUSB_CheckConnect:
  26              	.LVL0:
  27              	.LFB141:
  28              		.file 1 "HW_Lib/AT32F435/bsp/Bsp_USB.c"
   1:HW_Lib/AT32F435/bsp/Bsp_USB.c **** #include "Bsp_USB.h"
   2:HW_Lib/AT32F435/bsp/Bsp_USB.c **** #include "Bsp_GPIO.h"
   3:HW_Lib/AT32F435/bsp/Bsp_USB.c **** #include "at32f435_437_usb.h"
   4:HW_Lib/AT32F435/bsp/Bsp_USB.c **** #include "usb_conf.h"
   5:HW_Lib/AT32F435/bsp/Bsp_USB.c **** #include "usb_core.h"
   6:HW_Lib/AT32F435/bsp/Bsp_USB.c **** #include "usbd_int.h"
   7:HW_Lib/AT32F435/bsp/Bsp_USB.c **** #include "cdc_class.h"
   8:HW_Lib/AT32F435/bsp/Bsp_USB.c **** #include "cdc_desc.h"
   9:HW_Lib/AT32F435/bsp/Bsp_USB.c **** 
  10:HW_Lib/AT32F435/bsp/Bsp_USB.c **** #define OTG_PIN_GPIO                     GPIOA
  11:HW_Lib/AT32F435/bsp/Bsp_USB.c **** #define OTG_PIN_GPIO_CLOCK               CRM_GPIOA_PERIPH_CLOCK
  12:HW_Lib/AT32F435/bsp/Bsp_USB.c **** 
  13:HW_Lib/AT32F435/bsp/Bsp_USB.c **** #define OTG_PIN_DP                       GPIO_PINS_12
  14:HW_Lib/AT32F435/bsp/Bsp_USB.c **** #define OTG_PIN_DP_SOURCE                GPIO_PINS_SOURCE12
  15:HW_Lib/AT32F435/bsp/Bsp_USB.c **** 
  16:HW_Lib/AT32F435/bsp/Bsp_USB.c **** #define OTG_PIN_DM                       GPIO_PINS_11
  17:HW_Lib/AT32F435/bsp/Bsp_USB.c **** #define OTG_PIN_DM_SOURCE                GPIO_PINS_SOURCE11
  18:HW_Lib/AT32F435/bsp/Bsp_USB.c **** 
  19:HW_Lib/AT32F435/bsp/Bsp_USB.c **** #define OTG_PIN_MUX                      GPIO_MUX_10
  20:HW_Lib/AT32F435/bsp/Bsp_USB.c **** 
  21:HW_Lib/AT32F435/bsp/Bsp_USB.c **** /* internal vriable */
  22:HW_Lib/AT32F435/bsp/Bsp_USB.c **** static otg_core_type otg_core_struct;
  23:HW_Lib/AT32F435/bsp/Bsp_USB.c **** static uint8_t USB_Rx_Buff[USB_RX_BUFF_SIZE] = {0};
  24:HW_Lib/AT32F435/bsp/Bsp_USB.c **** 
  25:HW_Lib/AT32F435/bsp/Bsp_USB.c **** static BspUSB_VCP_Obj_TypeDef BspUSB_Monitor = {
  26:HW_Lib/AT32F435/bsp/Bsp_USB.c ****     .init_state = BspUSB_None_Init,
  27:HW_Lib/AT32F435/bsp/Bsp_USB.c ****     .rx_byte_sum = 0,
  28:HW_Lib/AT32F435/bsp/Bsp_USB.c ****     .rx_callback = NULL,
  29:HW_Lib/AT32F435/bsp/Bsp_USB.c ****     .rx_irq_cnt = 0,
  30:HW_Lib/AT32F435/bsp/Bsp_USB.c ****     .tx_fin_callback = NULL,
ARM GAS  C:\Users\8bit\AppData\Local\Temp\cch4jWL1.s 			page 2


  31:HW_Lib/AT32F435/bsp/Bsp_USB.c ****     .tx_fin_cnt = 0,
  32:HW_Lib/AT32F435/bsp/Bsp_USB.c ****     .connect_time = 0,
  33:HW_Lib/AT32F435/bsp/Bsp_USB.c **** };
  34:HW_Lib/AT32F435/bsp/Bsp_USB.c **** 
  35:HW_Lib/AT32F435/bsp/Bsp_USB.c **** /* internal function */
  36:HW_Lib/AT32F435/bsp/Bsp_USB.c **** static bool BspUSB_Clock_Init(void);
  37:HW_Lib/AT32F435/bsp/Bsp_USB.c **** static bool BspUSB_Pin_Init(void);
  38:HW_Lib/AT32F435/bsp/Bsp_USB.c **** static void BspUSB_Rec_Callback(void);
  39:HW_Lib/AT32F435/bsp/Bsp_USB.c **** static void BspUSB_Trans_Callback(void);
  40:HW_Lib/AT32F435/bsp/Bsp_USB.c **** static void BspUSB_Connect_Callback(void);
  41:HW_Lib/AT32F435/bsp/Bsp_USB.c **** 
  42:HW_Lib/AT32F435/bsp/Bsp_USB.c **** /* external funtion */
  43:HW_Lib/AT32F435/bsp/Bsp_USB.c **** static BspUSB_Error_List BspUSB_Init(uint32_t cus_data_addr);
  44:HW_Lib/AT32F435/bsp/Bsp_USB.c **** static BspUSB_Error_List BspUSB_DeInit(void);
  45:HW_Lib/AT32F435/bsp/Bsp_USB.c **** static BspUSB_Error_List BspUSB_Send(uint8_t *p_data, uint16_t size);
  46:HW_Lib/AT32F435/bsp/Bsp_USB.c **** static void BspUSB_Set_Rx_Callback(BspUSB_Rx_Callback_Def callback);
  47:HW_Lib/AT32F435/bsp/Bsp_USB.c **** static void BspUSB_Set_Tx_Callback(BspUSB_Tx_Cplt_Callback_Def callback);
  48:HW_Lib/AT32F435/bsp/Bsp_USB.c **** static void BspUSB_Set_Connect_Callback(BspUSB_Connect_Callback_Def callback);
  49:HW_Lib/AT32F435/bsp/Bsp_USB.c **** static bool BspUSB_CheckConnect(uint32_t sys_tick, uint32_t time_out);
  50:HW_Lib/AT32F435/bsp/Bsp_USB.c **** 
  51:HW_Lib/AT32F435/bsp/Bsp_USB.c **** /* external vriable */
  52:HW_Lib/AT32F435/bsp/Bsp_USB.c **** BspUSB_VCP_TypeDef BspUSB_VCP = {
  53:HW_Lib/AT32F435/bsp/Bsp_USB.c ****     .init = BspUSB_Init,
  54:HW_Lib/AT32F435/bsp/Bsp_USB.c ****     .de_init = BspUSB_DeInit,
  55:HW_Lib/AT32F435/bsp/Bsp_USB.c ****     .send = BspUSB_Send,
  56:HW_Lib/AT32F435/bsp/Bsp_USB.c ****     .set_rx_callback = BspUSB_Set_Rx_Callback,
  57:HW_Lib/AT32F435/bsp/Bsp_USB.c ****     .set_tx_cpl_callback = BspUSB_Set_Tx_Callback,
  58:HW_Lib/AT32F435/bsp/Bsp_USB.c ****     .set_connect_callback = BspUSB_Set_Connect_Callback,
  59:HW_Lib/AT32F435/bsp/Bsp_USB.c ****     .check_connect = BspUSB_CheckConnect,
  60:HW_Lib/AT32F435/bsp/Bsp_USB.c **** };
  61:HW_Lib/AT32F435/bsp/Bsp_USB.c **** 
  62:HW_Lib/AT32F435/bsp/Bsp_USB.c **** static bool BspUSB_Clock_Init(void)
  63:HW_Lib/AT32F435/bsp/Bsp_USB.c **** {
  64:HW_Lib/AT32F435/bsp/Bsp_USB.c ****     /* enable otgfs clock */
  65:HW_Lib/AT32F435/bsp/Bsp_USB.c ****     crm_periph_clock_enable(CRM_OTGFS1_PERIPH_CLOCK, TRUE);
  66:HW_Lib/AT32F435/bsp/Bsp_USB.c **** 
  67:HW_Lib/AT32F435/bsp/Bsp_USB.c ****     /* select usb 48m clcok source */
  68:HW_Lib/AT32F435/bsp/Bsp_USB.c ****     switch(system_core_clock)
  69:HW_Lib/AT32F435/bsp/Bsp_USB.c ****     {
  70:HW_Lib/AT32F435/bsp/Bsp_USB.c ****     /* 48MHz */
  71:HW_Lib/AT32F435/bsp/Bsp_USB.c ****     case 48000000:
  72:HW_Lib/AT32F435/bsp/Bsp_USB.c ****         crm_usb_clock_div_set(CRM_USB_DIV_1);
  73:HW_Lib/AT32F435/bsp/Bsp_USB.c ****         break;
  74:HW_Lib/AT32F435/bsp/Bsp_USB.c **** 
  75:HW_Lib/AT32F435/bsp/Bsp_USB.c ****     /* 72MHz */
  76:HW_Lib/AT32F435/bsp/Bsp_USB.c ****     case 72000000:
  77:HW_Lib/AT32F435/bsp/Bsp_USB.c ****         crm_usb_clock_div_set(CRM_USB_DIV_1_5);
  78:HW_Lib/AT32F435/bsp/Bsp_USB.c ****         break;
  79:HW_Lib/AT32F435/bsp/Bsp_USB.c **** 
  80:HW_Lib/AT32F435/bsp/Bsp_USB.c ****     /* 96MHz */
  81:HW_Lib/AT32F435/bsp/Bsp_USB.c ****     case 96000000:
  82:HW_Lib/AT32F435/bsp/Bsp_USB.c ****         crm_usb_clock_div_set(CRM_USB_DIV_2);
  83:HW_Lib/AT32F435/bsp/Bsp_USB.c ****         break;
  84:HW_Lib/AT32F435/bsp/Bsp_USB.c **** 
  85:HW_Lib/AT32F435/bsp/Bsp_USB.c ****     /* 120MHz */
  86:HW_Lib/AT32F435/bsp/Bsp_USB.c ****     case 120000000:
  87:HW_Lib/AT32F435/bsp/Bsp_USB.c ****         crm_usb_clock_div_set(CRM_USB_DIV_2_5);
ARM GAS  C:\Users\8bit\AppData\Local\Temp\cch4jWL1.s 			page 3


  88:HW_Lib/AT32F435/bsp/Bsp_USB.c ****         break;
  89:HW_Lib/AT32F435/bsp/Bsp_USB.c **** 
  90:HW_Lib/AT32F435/bsp/Bsp_USB.c ****     /* 144MHz */
  91:HW_Lib/AT32F435/bsp/Bsp_USB.c ****     case 144000000:
  92:HW_Lib/AT32F435/bsp/Bsp_USB.c ****         crm_usb_clock_div_set(CRM_USB_DIV_3);
  93:HW_Lib/AT32F435/bsp/Bsp_USB.c ****         break;
  94:HW_Lib/AT32F435/bsp/Bsp_USB.c **** 
  95:HW_Lib/AT32F435/bsp/Bsp_USB.c ****     /* 168MHz */
  96:HW_Lib/AT32F435/bsp/Bsp_USB.c ****     case 168000000:
  97:HW_Lib/AT32F435/bsp/Bsp_USB.c ****         crm_usb_clock_div_set(CRM_USB_DIV_3_5);
  98:HW_Lib/AT32F435/bsp/Bsp_USB.c ****         break;
  99:HW_Lib/AT32F435/bsp/Bsp_USB.c **** 
 100:HW_Lib/AT32F435/bsp/Bsp_USB.c ****     /* 192MHz */
 101:HW_Lib/AT32F435/bsp/Bsp_USB.c ****     case 192000000:
 102:HW_Lib/AT32F435/bsp/Bsp_USB.c ****         crm_usb_clock_div_set(CRM_USB_DIV_4);
 103:HW_Lib/AT32F435/bsp/Bsp_USB.c ****         break;
 104:HW_Lib/AT32F435/bsp/Bsp_USB.c **** 
 105:HW_Lib/AT32F435/bsp/Bsp_USB.c ****     /* 216MHz */
 106:HW_Lib/AT32F435/bsp/Bsp_USB.c ****     case 216000000:
 107:HW_Lib/AT32F435/bsp/Bsp_USB.c ****         crm_usb_clock_div_set(CRM_USB_DIV_4_5);
 108:HW_Lib/AT32F435/bsp/Bsp_USB.c ****         break;
 109:HW_Lib/AT32F435/bsp/Bsp_USB.c **** 
 110:HW_Lib/AT32F435/bsp/Bsp_USB.c ****     /* 240MHz */
 111:HW_Lib/AT32F435/bsp/Bsp_USB.c ****     case 240000000:
 112:HW_Lib/AT32F435/bsp/Bsp_USB.c ****         crm_usb_clock_div_set(CRM_USB_DIV_5);
 113:HW_Lib/AT32F435/bsp/Bsp_USB.c ****         break;
 114:HW_Lib/AT32F435/bsp/Bsp_USB.c **** 
 115:HW_Lib/AT32F435/bsp/Bsp_USB.c ****     /* 264MHz */
 116:HW_Lib/AT32F435/bsp/Bsp_USB.c ****     case 264000000:
 117:HW_Lib/AT32F435/bsp/Bsp_USB.c ****         crm_usb_clock_div_set(CRM_USB_DIV_5_5);
 118:HW_Lib/AT32F435/bsp/Bsp_USB.c ****         break;
 119:HW_Lib/AT32F435/bsp/Bsp_USB.c **** 
 120:HW_Lib/AT32F435/bsp/Bsp_USB.c ****     /* 288MHz */
 121:HW_Lib/AT32F435/bsp/Bsp_USB.c ****     case 288000000:
 122:HW_Lib/AT32F435/bsp/Bsp_USB.c ****         crm_usb_clock_div_set(CRM_USB_DIV_6);
 123:HW_Lib/AT32F435/bsp/Bsp_USB.c ****         break;
 124:HW_Lib/AT32F435/bsp/Bsp_USB.c **** 
 125:HW_Lib/AT32F435/bsp/Bsp_USB.c ****     default:
 126:HW_Lib/AT32F435/bsp/Bsp_USB.c ****         return false;
 127:HW_Lib/AT32F435/bsp/Bsp_USB.c ****     }
 128:HW_Lib/AT32F435/bsp/Bsp_USB.c **** 
 129:HW_Lib/AT32F435/bsp/Bsp_USB.c ****     return true;
 130:HW_Lib/AT32F435/bsp/Bsp_USB.c **** }
 131:HW_Lib/AT32F435/bsp/Bsp_USB.c **** 
 132:HW_Lib/AT32F435/bsp/Bsp_USB.c **** static bool BspUSB_Pin_Init(void)
 133:HW_Lib/AT32F435/bsp/Bsp_USB.c **** {
 134:HW_Lib/AT32F435/bsp/Bsp_USB.c ****     gpio_init_type gpio_init_struct;
 135:HW_Lib/AT32F435/bsp/Bsp_USB.c **** 
 136:HW_Lib/AT32F435/bsp/Bsp_USB.c ****     crm_periph_clock_enable(OTG_PIN_GPIO_CLOCK, TRUE);
 137:HW_Lib/AT32F435/bsp/Bsp_USB.c **** 
 138:HW_Lib/AT32F435/bsp/Bsp_USB.c ****     /* USB DP DM Pin Init */
 139:HW_Lib/AT32F435/bsp/Bsp_USB.c ****     gpio_default_para_init(&gpio_init_struct);
 140:HW_Lib/AT32F435/bsp/Bsp_USB.c **** 
 141:HW_Lib/AT32F435/bsp/Bsp_USB.c ****     gpio_init_struct.gpio_drive_strength = GPIO_DRIVE_STRENGTH_STRONGER;
 142:HW_Lib/AT32F435/bsp/Bsp_USB.c ****     gpio_init_struct.gpio_out_type  = GPIO_OUTPUT_PUSH_PULL;
 143:HW_Lib/AT32F435/bsp/Bsp_USB.c ****     gpio_init_struct.gpio_mode = GPIO_MODE_MUX;
 144:HW_Lib/AT32F435/bsp/Bsp_USB.c ****     gpio_init_struct.gpio_pull = GPIO_PULL_NONE;
ARM GAS  C:\Users\8bit\AppData\Local\Temp\cch4jWL1.s 			page 4


 145:HW_Lib/AT32F435/bsp/Bsp_USB.c **** 
 146:HW_Lib/AT32F435/bsp/Bsp_USB.c ****     /* dp and dm */
 147:HW_Lib/AT32F435/bsp/Bsp_USB.c ****     gpio_init_struct.gpio_pins = OTG_PIN_DP | OTG_PIN_DM;
 148:HW_Lib/AT32F435/bsp/Bsp_USB.c ****     gpio_init(OTG_PIN_GPIO, &gpio_init_struct);
 149:HW_Lib/AT32F435/bsp/Bsp_USB.c **** 
 150:HW_Lib/AT32F435/bsp/Bsp_USB.c ****     gpio_pin_mux_config(OTG_PIN_GPIO, OTG_PIN_DP_SOURCE, OTG_PIN_MUX);
 151:HW_Lib/AT32F435/bsp/Bsp_USB.c ****     gpio_pin_mux_config(OTG_PIN_GPIO, OTG_PIN_DM_SOURCE, OTG_PIN_MUX);
 152:HW_Lib/AT32F435/bsp/Bsp_USB.c **** 
 153:HW_Lib/AT32F435/bsp/Bsp_USB.c ****     return true;
 154:HW_Lib/AT32F435/bsp/Bsp_USB.c **** }
 155:HW_Lib/AT32F435/bsp/Bsp_USB.c **** 
 156:HW_Lib/AT32F435/bsp/Bsp_USB.c **** static BspUSB_Error_List BspUSB_Init(uint32_t cus_data_addr)
 157:HW_Lib/AT32F435/bsp/Bsp_USB.c **** {
 158:HW_Lib/AT32F435/bsp/Bsp_USB.c ****     nvic_priority_group_config(NVIC_PRIORITY_GROUP_4);
 159:HW_Lib/AT32F435/bsp/Bsp_USB.c ****     BspUSB_Pin_Init();
 160:HW_Lib/AT32F435/bsp/Bsp_USB.c **** 
 161:HW_Lib/AT32F435/bsp/Bsp_USB.c ****     if(!BspUSB_Clock_Init())
 162:HW_Lib/AT32F435/bsp/Bsp_USB.c ****         return BspUSB_Error_Fail;
 163:HW_Lib/AT32F435/bsp/Bsp_USB.c **** 
 164:HW_Lib/AT32F435/bsp/Bsp_USB.c ****     /* init usb */
 165:HW_Lib/AT32F435/bsp/Bsp_USB.c ****     usbd_init(&otg_core_struct,
 166:HW_Lib/AT32F435/bsp/Bsp_USB.c ****               USB_FULL_SPEED_CORE_ID,
 167:HW_Lib/AT32F435/bsp/Bsp_USB.c ****               USB_ID,
 168:HW_Lib/AT32F435/bsp/Bsp_USB.c ****               &cdc_class_handler,
 169:HW_Lib/AT32F435/bsp/Bsp_USB.c ****               &cdc_desc_handler);
 170:HW_Lib/AT32F435/bsp/Bsp_USB.c **** 
 171:HW_Lib/AT32F435/bsp/Bsp_USB.c ****     /* enable otgfs irq */
 172:HW_Lib/AT32F435/bsp/Bsp_USB.c ****     nvic_irq_enable(OTGFS1_IRQn, 5, 0);
 173:HW_Lib/AT32F435/bsp/Bsp_USB.c **** 
 174:HW_Lib/AT32F435/bsp/Bsp_USB.c ****     BspUSB_Monitor.cus_data_addr = cus_data_addr;
 175:HW_Lib/AT32F435/bsp/Bsp_USB.c ****     BspUSB_Monitor.init_state = BspUSB_Error_None;
 176:HW_Lib/AT32F435/bsp/Bsp_USB.c **** 
 177:HW_Lib/AT32F435/bsp/Bsp_USB.c ****     usb_cdc_rec_cb = BspUSB_Rec_Callback;
 178:HW_Lib/AT32F435/bsp/Bsp_USB.c ****     usb_cdc_trans_cb = BspUSB_Trans_Callback;
 179:HW_Lib/AT32F435/bsp/Bsp_USB.c ****     usb_cdc_cnt_cb = BspUSB_Connect_Callback;
 180:HW_Lib/AT32F435/bsp/Bsp_USB.c **** 
 181:HW_Lib/AT32F435/bsp/Bsp_USB.c ****     memset(USB_Rx_Buff, 0, USB_RX_BUFF_SIZE);
 182:HW_Lib/AT32F435/bsp/Bsp_USB.c **** 
 183:HW_Lib/AT32F435/bsp/Bsp_USB.c ****     return BspUSB_Error_None;
 184:HW_Lib/AT32F435/bsp/Bsp_USB.c **** }
 185:HW_Lib/AT32F435/bsp/Bsp_USB.c **** 
 186:HW_Lib/AT32F435/bsp/Bsp_USB.c **** static BspUSB_Error_List BspUSB_DeInit(void)
 187:HW_Lib/AT32F435/bsp/Bsp_USB.c **** {
 188:HW_Lib/AT32F435/bsp/Bsp_USB.c ****     crm_periph_clock_enable(CRM_OTGFS1_PERIPH_CLOCK, FALSE);
 189:HW_Lib/AT32F435/bsp/Bsp_USB.c ****     nvic_irq_disable(OTGFS1_IRQn);
 190:HW_Lib/AT32F435/bsp/Bsp_USB.c **** 
 191:HW_Lib/AT32F435/bsp/Bsp_USB.c ****     return BspUSB_Error_None;
 192:HW_Lib/AT32F435/bsp/Bsp_USB.c **** }
 193:HW_Lib/AT32F435/bsp/Bsp_USB.c **** 
 194:HW_Lib/AT32F435/bsp/Bsp_USB.c **** static BspUSB_Error_List BspUSB_Send(uint8_t *p_data, uint16_t size)
 195:HW_Lib/AT32F435/bsp/Bsp_USB.c **** {
 196:HW_Lib/AT32F435/bsp/Bsp_USB.c ****     if ((BspUSB_Monitor.init_state == BspUSB_Error_None) && p_data && size)
 197:HW_Lib/AT32F435/bsp/Bsp_USB.c ****     {
 198:HW_Lib/AT32F435/bsp/Bsp_USB.c ****         if(BspUSB_Monitor.tx_fin_cnt != BspUSB_Monitor.tx_cnt)
 199:HW_Lib/AT32F435/bsp/Bsp_USB.c ****             return BspUSB_Error_Busy;
 200:HW_Lib/AT32F435/bsp/Bsp_USB.c **** 
 201:HW_Lib/AT32F435/bsp/Bsp_USB.c ****         if(usb_vcp_send_data(&otg_core_struct.dev, p_data, size) == SUCCESS)
ARM GAS  C:\Users\8bit\AppData\Local\Temp\cch4jWL1.s 			page 5


 202:HW_Lib/AT32F435/bsp/Bsp_USB.c ****         {
 203:HW_Lib/AT32F435/bsp/Bsp_USB.c ****             BspUSB_Monitor.tx_cnt ++;
 204:HW_Lib/AT32F435/bsp/Bsp_USB.c ****             return BspUSB_Error_None;
 205:HW_Lib/AT32F435/bsp/Bsp_USB.c ****         }
 206:HW_Lib/AT32F435/bsp/Bsp_USB.c ****         else
 207:HW_Lib/AT32F435/bsp/Bsp_USB.c ****         {
 208:HW_Lib/AT32F435/bsp/Bsp_USB.c ****             BspUSB_Monitor.tx_err_cnt ++;
 209:HW_Lib/AT32F435/bsp/Bsp_USB.c ****         }
 210:HW_Lib/AT32F435/bsp/Bsp_USB.c ****     }
 211:HW_Lib/AT32F435/bsp/Bsp_USB.c **** 
 212:HW_Lib/AT32F435/bsp/Bsp_USB.c ****     return BspUSB_Error_Fail;
 213:HW_Lib/AT32F435/bsp/Bsp_USB.c **** }
 214:HW_Lib/AT32F435/bsp/Bsp_USB.c **** 
 215:HW_Lib/AT32F435/bsp/Bsp_USB.c **** static bool BspUSB_CheckConnect(uint32_t sys_tick, uint32_t time_out)
 216:HW_Lib/AT32F435/bsp/Bsp_USB.c **** {
  29              		.loc 1 216 1 view -0
  30              		.cfi_startproc
  31              		@ args = 0, pretend = 0, frame = 0
  32              		@ frame_needed = 0, uses_anonymous_args = 0
  33              		@ link register save eliminated.
 217:HW_Lib/AT32F435/bsp/Bsp_USB.c ****     if (sys_tick && \
  34              		.loc 1 217 5 view .LVU1
  35              		.loc 1 217 8 is_stmt 0 view .LVU2
  36 0000 40B1     		cbz	r0, .L3
 218:HW_Lib/AT32F435/bsp/Bsp_USB.c ****         BspUSB_Monitor.connect_time && \
  37              		.loc 1 218 23 discriminator 1 view .LVU3
  38 0002 074A     		ldr	r2, .L6
  39 0004 D2F83024 		ldr	r2, [r2, #1072]
 217:HW_Lib/AT32F435/bsp/Bsp_USB.c ****     if (sys_tick && \
  40              		.loc 1 217 18 discriminator 1 view .LVU4
  41 0008 32B1     		cbz	r2, .L4
 219:HW_Lib/AT32F435/bsp/Bsp_USB.c ****         (sys_tick - BspUSB_Monitor.connect_time < time_out))
  42              		.loc 1 219 19 view .LVU5
  43 000a 831A     		subs	r3, r0, r2
 218:HW_Lib/AT32F435/bsp/Bsp_USB.c ****         BspUSB_Monitor.connect_time && \
  44              		.loc 1 218 37 view .LVU6
  45 000c 8B42     		cmp	r3, r1
  46 000e 05D3     		bcc	.L5
 220:HW_Lib/AT32F435/bsp/Bsp_USB.c ****         return true;
 221:HW_Lib/AT32F435/bsp/Bsp_USB.c **** 
 222:HW_Lib/AT32F435/bsp/Bsp_USB.c ****     return false;
  47              		.loc 1 222 12 view .LVU7
  48 0010 0020     		movs	r0, #0
  49              	.LVL1:
  50              		.loc 1 222 12 view .LVU8
  51 0012 7047     		bx	lr
  52              	.LVL2:
  53              	.L3:
  54              		.loc 1 222 12 view .LVU9
  55 0014 0020     		movs	r0, #0
  56              	.LVL3:
  57              		.loc 1 222 12 view .LVU10
  58 0016 7047     		bx	lr
  59              	.LVL4:
  60              	.L4:
  61              		.loc 1 222 12 view .LVU11
  62 0018 0020     		movs	r0, #0
ARM GAS  C:\Users\8bit\AppData\Local\Temp\cch4jWL1.s 			page 6


  63              	.LVL5:
  64              		.loc 1 222 12 view .LVU12
  65 001a 7047     		bx	lr
  66              	.LVL6:
  67              	.L5:
 220:HW_Lib/AT32F435/bsp/Bsp_USB.c ****         return true;
  68              		.loc 1 220 16 view .LVU13
  69 001c 0120     		movs	r0, #1
  70              	.LVL7:
 223:HW_Lib/AT32F435/bsp/Bsp_USB.c **** }
  71              		.loc 1 223 1 view .LVU14
  72 001e 7047     		bx	lr
  73              	.L7:
  74              		.align	2
  75              	.L6:
  76 0020 00000000 		.word	.LANCHOR0
  77              		.cfi_endproc
  78              	.LFE141:
  80              		.section	.text.BspUSB_Set_Rx_Callback,"ax",%progbits
  81              		.align	1
  82              		.syntax unified
  83              		.thumb
  84              		.thumb_func
  86              	BspUSB_Set_Rx_Callback:
  87              	.LVL8:
  88              	.LFB143:
 224:HW_Lib/AT32F435/bsp/Bsp_USB.c **** 
 225:HW_Lib/AT32F435/bsp/Bsp_USB.c **** void BspUSB_Irq_Callback(void)
 226:HW_Lib/AT32F435/bsp/Bsp_USB.c **** {
 227:HW_Lib/AT32F435/bsp/Bsp_USB.c ****     usbd_irq_handler(&otg_core_struct);
 228:HW_Lib/AT32F435/bsp/Bsp_USB.c **** }
 229:HW_Lib/AT32F435/bsp/Bsp_USB.c **** 
 230:HW_Lib/AT32F435/bsp/Bsp_USB.c **** static void BspUSB_Set_Rx_Callback(BspUSB_Rx_Callback_Def callback)
 231:HW_Lib/AT32F435/bsp/Bsp_USB.c **** {
  89              		.loc 1 231 1 is_stmt 1 view -0
  90              		.cfi_startproc
  91              		@ args = 0, pretend = 0, frame = 0
  92              		@ frame_needed = 0, uses_anonymous_args = 0
  93              		@ link register save eliminated.
 232:HW_Lib/AT32F435/bsp/Bsp_USB.c ****     BspUSB_Monitor.rx_callback = callback;
  94              		.loc 1 232 5 view .LVU16
  95              		.loc 1 232 32 is_stmt 0 view .LVU17
  96 0000 014B     		ldr	r3, .L9
  97 0002 C3F83804 		str	r0, [r3, #1080]
 233:HW_Lib/AT32F435/bsp/Bsp_USB.c **** }
  98              		.loc 1 233 1 view .LVU18
  99 0006 7047     		bx	lr
 100              	.L10:
 101              		.align	2
 102              	.L9:
 103 0008 00000000 		.word	.LANCHOR0
 104              		.cfi_endproc
 105              	.LFE143:
 107              		.section	.text.BspUSB_Set_Tx_Callback,"ax",%progbits
 108              		.align	1
 109              		.syntax unified
 110              		.thumb
ARM GAS  C:\Users\8bit\AppData\Local\Temp\cch4jWL1.s 			page 7


 111              		.thumb_func
 113              	BspUSB_Set_Tx_Callback:
 114              	.LVL9:
 115              	.LFB144:
 234:HW_Lib/AT32F435/bsp/Bsp_USB.c **** 
 235:HW_Lib/AT32F435/bsp/Bsp_USB.c **** static void BspUSB_Set_Tx_Callback(BspUSB_Tx_Cplt_Callback_Def callback)
 236:HW_Lib/AT32F435/bsp/Bsp_USB.c **** {
 116              		.loc 1 236 1 is_stmt 1 view -0
 117              		.cfi_startproc
 118              		@ args = 0, pretend = 0, frame = 0
 119              		@ frame_needed = 0, uses_anonymous_args = 0
 120              		@ link register save eliminated.
 237:HW_Lib/AT32F435/bsp/Bsp_USB.c ****     BspUSB_Monitor.tx_fin_callback = callback;
 121              		.loc 1 237 5 view .LVU20
 122              		.loc 1 237 36 is_stmt 0 view .LVU21
 123 0000 014B     		ldr	r3, .L12
 124 0002 C3F83404 		str	r0, [r3, #1076]
 238:HW_Lib/AT32F435/bsp/Bsp_USB.c **** }
 125              		.loc 1 238 1 view .LVU22
 126 0006 7047     		bx	lr
 127              	.L13:
 128              		.align	2
 129              	.L12:
 130 0008 00000000 		.word	.LANCHOR0
 131              		.cfi_endproc
 132              	.LFE144:
 134              		.section	.text.BspUSB_Set_Connect_Callback,"ax",%progbits
 135              		.align	1
 136              		.syntax unified
 137              		.thumb
 138              		.thumb_func
 140              	BspUSB_Set_Connect_Callback:
 141              	.LVL10:
 142              	.LFB145:
 239:HW_Lib/AT32F435/bsp/Bsp_USB.c **** 
 240:HW_Lib/AT32F435/bsp/Bsp_USB.c **** static void BspUSB_Set_Connect_Callback(BspUSB_Connect_Callback_Def callback)
 241:HW_Lib/AT32F435/bsp/Bsp_USB.c **** {
 143              		.loc 1 241 1 is_stmt 1 view -0
 144              		.cfi_startproc
 145              		@ args = 0, pretend = 0, frame = 0
 146              		@ frame_needed = 0, uses_anonymous_args = 0
 147              		@ link register save eliminated.
 242:HW_Lib/AT32F435/bsp/Bsp_USB.c ****     BspUSB_Monitor.connect_callback = callback;
 148              		.loc 1 242 5 view .LVU24
 149              		.loc 1 242 37 is_stmt 0 view .LVU25
 150 0000 014B     		ldr	r3, .L15
 151 0002 C3F83C04 		str	r0, [r3, #1084]
 243:HW_Lib/AT32F435/bsp/Bsp_USB.c **** }
 152              		.loc 1 243 1 view .LVU26
 153 0006 7047     		bx	lr
 154              	.L16:
 155              		.align	2
 156              	.L15:
 157 0008 00000000 		.word	.LANCHOR0
 158              		.cfi_endproc
 159              	.LFE145:
 161              		.section	.text.BspUSB_Trans_Callback,"ax",%progbits
ARM GAS  C:\Users\8bit\AppData\Local\Temp\cch4jWL1.s 			page 8


 162              		.align	1
 163              		.syntax unified
 164              		.thumb
 165              		.thumb_func
 167              	BspUSB_Trans_Callback:
 168              	.LFB147:
 244:HW_Lib/AT32F435/bsp/Bsp_USB.c **** 
 245:HW_Lib/AT32F435/bsp/Bsp_USB.c **** static void BspUSB_Rec_Callback(void)
 246:HW_Lib/AT32F435/bsp/Bsp_USB.c **** {
 247:HW_Lib/AT32F435/bsp/Bsp_USB.c ****     uint16_t data_len = 0;
 248:HW_Lib/AT32F435/bsp/Bsp_USB.c **** 
 249:HW_Lib/AT32F435/bsp/Bsp_USB.c ****     if (BspUSB_Monitor.init_state != BspUSB_Error_None)
 250:HW_Lib/AT32F435/bsp/Bsp_USB.c ****         return;
 251:HW_Lib/AT32F435/bsp/Bsp_USB.c **** 
 252:HW_Lib/AT32F435/bsp/Bsp_USB.c ****     data_len = usb_vcp_get_rxdata(&otg_core_struct.dev,  USB_Rx_Buff);
 253:HW_Lib/AT32F435/bsp/Bsp_USB.c **** 
 254:HW_Lib/AT32F435/bsp/Bsp_USB.c ****     if (BspUSB_Monitor.rx_callback)
 255:HW_Lib/AT32F435/bsp/Bsp_USB.c ****         BspUSB_Monitor.rx_callback(BspUSB_Monitor.cus_data_addr, USB_Rx_Buff, data_len);
 256:HW_Lib/AT32F435/bsp/Bsp_USB.c **** 
 257:HW_Lib/AT32F435/bsp/Bsp_USB.c ****     BspUSB_Monitor.rx_irq_cnt ++;
 258:HW_Lib/AT32F435/bsp/Bsp_USB.c ****     BspUSB_Monitor.rx_byte_sum += data_len;
 259:HW_Lib/AT32F435/bsp/Bsp_USB.c **** }
 260:HW_Lib/AT32F435/bsp/Bsp_USB.c **** 
 261:HW_Lib/AT32F435/bsp/Bsp_USB.c **** static void BspUSB_Trans_Callback(void)
 262:HW_Lib/AT32F435/bsp/Bsp_USB.c **** {
 169              		.loc 1 262 1 is_stmt 1 view -0
 170              		.cfi_startproc
 171              		@ args = 0, pretend = 0, frame = 0
 172              		@ frame_needed = 0, uses_anonymous_args = 0
 173 0000 08B5     		push	{r3, lr}
 174              	.LCFI0:
 175              		.cfi_def_cfa_offset 8
 176              		.cfi_offset 3, -8
 177              		.cfi_offset 14, -4
 263:HW_Lib/AT32F435/bsp/Bsp_USB.c ****     if (BspUSB_Monitor.init_state != BspUSB_Error_None)
 178              		.loc 1 263 5 view .LVU28
 179              		.loc 1 263 23 is_stmt 0 view .LVU29
 180 0002 0A4B     		ldr	r3, .L20
 181 0004 93F90034 		ldrsb	r3, [r3, #1024]
 182              		.loc 1 263 8 view .LVU30
 183 0008 73B9     		cbnz	r3, .L17
 264:HW_Lib/AT32F435/bsp/Bsp_USB.c ****         return;
 265:HW_Lib/AT32F435/bsp/Bsp_USB.c **** 
 266:HW_Lib/AT32F435/bsp/Bsp_USB.c ****     BspUSB_Monitor.tx_fin_cnt ++;
 184              		.loc 1 266 5 is_stmt 1 view .LVU31
 185              		.loc 1 266 19 is_stmt 0 view .LVU32
 186 000a 084B     		ldr	r3, .L20
 187 000c D3F82824 		ldr	r2, [r3, #1064]
 188              		.loc 1 266 31 view .LVU33
 189 0010 0132     		adds	r2, r2, #1
 190 0012 C3F82824 		str	r2, [r3, #1064]
 267:HW_Lib/AT32F435/bsp/Bsp_USB.c ****     if (BspUSB_Monitor.tx_fin_callback)
 191              		.loc 1 267 5 is_stmt 1 view .LVU34
 192              		.loc 1 267 23 is_stmt 0 view .LVU35
 193 0016 D3F83434 		ldr	r3, [r3, #1076]
 194              		.loc 1 267 8 view .LVU36
 195 001a 2BB1     		cbz	r3, .L17
ARM GAS  C:\Users\8bit\AppData\Local\Temp\cch4jWL1.s 			page 9


 268:HW_Lib/AT32F435/bsp/Bsp_USB.c ****         BspUSB_Monitor.tx_fin_callback(BspUSB_Monitor.cus_data_addr, NULL, NULL);
 196              		.loc 1 268 9 is_stmt 1 view .LVU37
 197 001c 0022     		movs	r2, #0
 198 001e 1146     		mov	r1, r2
 199 0020 0248     		ldr	r0, .L20
 200 0022 D0F84004 		ldr	r0, [r0, #1088]
 201 0026 9847     		blx	r3
 202              	.LVL11:
 203              	.L17:
 269:HW_Lib/AT32F435/bsp/Bsp_USB.c **** }
 204              		.loc 1 269 1 is_stmt 0 view .LVU38
 205 0028 08BD     		pop	{r3, pc}
 206              	.L21:
 207 002a 00BF     		.align	2
 208              	.L20:
 209 002c 00000000 		.word	.LANCHOR0
 210              		.cfi_endproc
 211              	.LFE147:
 213              		.section	.text.BspUSB_Connect_Callback,"ax",%progbits
 214              		.align	1
 215              		.syntax unified
 216              		.thumb
 217              		.thumb_func
 219              	BspUSB_Connect_Callback:
 220              	.LFB148:
 270:HW_Lib/AT32F435/bsp/Bsp_USB.c **** 
 271:HW_Lib/AT32F435/bsp/Bsp_USB.c **** static void BspUSB_Connect_Callback(void)
 272:HW_Lib/AT32F435/bsp/Bsp_USB.c **** {
 221              		.loc 1 272 1 is_stmt 1 view -0
 222              		.cfi_startproc
 223              		@ args = 0, pretend = 0, frame = 0
 224              		@ frame_needed = 0, uses_anonymous_args = 0
 225 0000 08B5     		push	{r3, lr}
 226              	.LCFI1:
 227              		.cfi_def_cfa_offset 8
 228              		.cfi_offset 3, -8
 229              		.cfi_offset 14, -4
 273:HW_Lib/AT32F435/bsp/Bsp_USB.c ****     if (BspUSB_Monitor.init_state != BspUSB_Error_None)
 230              		.loc 1 273 5 view .LVU40
 231              		.loc 1 273 23 is_stmt 0 view .LVU41
 232 0002 074B     		ldr	r3, .L25
 233 0004 93F90034 		ldrsb	r3, [r3, #1024]
 234              		.loc 1 273 8 view .LVU42
 235 0008 4BB9     		cbnz	r3, .L22
 274:HW_Lib/AT32F435/bsp/Bsp_USB.c ****         return;
 275:HW_Lib/AT32F435/bsp/Bsp_USB.c **** 
 276:HW_Lib/AT32F435/bsp/Bsp_USB.c ****     if (BspUSB_Monitor.connect_callback)
 236              		.loc 1 276 5 is_stmt 1 view .LVU43
 237              		.loc 1 276 23 is_stmt 0 view .LVU44
 238 000a 054B     		ldr	r3, .L25
 239 000c D3F83C34 		ldr	r3, [r3, #1084]
 240              		.loc 1 276 8 view .LVU45
 241 0010 2BB1     		cbz	r3, .L22
 277:HW_Lib/AT32F435/bsp/Bsp_USB.c ****         BspUSB_Monitor.connect_callback(BspUSB_Monitor.cus_data_addr, &BspUSB_Monitor.connect_time)
 242              		.loc 1 277 9 is_stmt 1 view .LVU46
 243 0012 034A     		ldr	r2, .L25
 244 0014 02F58661 		add	r1, r2, #1072
ARM GAS  C:\Users\8bit\AppData\Local\Temp\cch4jWL1.s 			page 10


 245 0018 D2F84004 		ldr	r0, [r2, #1088]
 246 001c 9847     		blx	r3
 247              	.LVL12:
 248              	.L22:
 278:HW_Lib/AT32F435/bsp/Bsp_USB.c **** }
 249              		.loc 1 278 1 is_stmt 0 view .LVU47
 250 001e 08BD     		pop	{r3, pc}
 251              	.L26:
 252              		.align	2
 253              	.L25:
 254 0020 00000000 		.word	.LANCHOR0
 255              		.cfi_endproc
 256              	.LFE148:
 258              		.section	.text.BspUSB_Send,"ax",%progbits
 259              		.align	1
 260              		.syntax unified
 261              		.thumb
 262              		.thumb_func
 264              	BspUSB_Send:
 265              	.LVL13:
 266              	.LFB140:
 195:HW_Lib/AT32F435/bsp/Bsp_USB.c ****     if ((BspUSB_Monitor.init_state == BspUSB_Error_None) && p_data && size)
 267              		.loc 1 195 1 is_stmt 1 view -0
 268              		.cfi_startproc
 269              		@ args = 0, pretend = 0, frame = 0
 270              		@ frame_needed = 0, uses_anonymous_args = 0
 195:HW_Lib/AT32F435/bsp/Bsp_USB.c ****     if ((BspUSB_Monitor.init_state == BspUSB_Error_None) && p_data && size)
 271              		.loc 1 195 1 is_stmt 0 view .LVU49
 272 0000 10B5     		push	{r4, lr}
 273              	.LCFI2:
 274              		.cfi_def_cfa_offset 8
 275              		.cfi_offset 4, -8
 276              		.cfi_offset 14, -4
 196:HW_Lib/AT32F435/bsp/Bsp_USB.c ****     {
 277              		.loc 1 196 5 is_stmt 1 view .LVU50
 196:HW_Lib/AT32F435/bsp/Bsp_USB.c ****     {
 278              		.loc 1 196 24 is_stmt 0 view .LVU51
 279 0002 154B     		ldr	r3, .L37
 280 0004 93F90044 		ldrsb	r4, [r3, #1024]
 196:HW_Lib/AT32F435/bsp/Bsp_USB.c ****     {
 281              		.loc 1 196 8 view .LVU52
 282 0008 FCB9     		cbnz	r4, .L30
 196:HW_Lib/AT32F435/bsp/Bsp_USB.c ****     {
 283              		.loc 1 196 58 discriminator 1 view .LVU53
 284 000a 08B3     		cbz	r0, .L31
 196:HW_Lib/AT32F435/bsp/Bsp_USB.c ****     {
 285              		.loc 1 196 68 discriminator 2 view .LVU54
 286 000c 11B3     		cbz	r1, .L32
 198:HW_Lib/AT32F435/bsp/Bsp_USB.c ****             return BspUSB_Error_Busy;
 287              		.loc 1 198 9 is_stmt 1 view .LVU55
 198:HW_Lib/AT32F435/bsp/Bsp_USB.c ****             return BspUSB_Error_Busy;
 288              		.loc 1 198 26 is_stmt 0 view .LVU56
 289 000e D3F82824 		ldr	r2, [r3, #1064]
 198:HW_Lib/AT32F435/bsp/Bsp_USB.c ****             return BspUSB_Error_Busy;
 290              		.loc 1 198 55 view .LVU57
 291 0012 D3F82034 		ldr	r3, [r3, #1056]
 198:HW_Lib/AT32F435/bsp/Bsp_USB.c ****             return BspUSB_Error_Busy;
ARM GAS  C:\Users\8bit\AppData\Local\Temp\cch4jWL1.s 			page 11


 292              		.loc 1 198 11 view .LVU58
 293 0016 9A42     		cmp	r2, r3
 294 0018 01D0     		beq	.L35
 199:HW_Lib/AT32F435/bsp/Bsp_USB.c **** 
 295              		.loc 1 199 20 view .LVU59
 296 001a 0424     		movs	r4, #4
 297 001c 16E0     		b	.L28
 298              	.L35:
 201:HW_Lib/AT32F435/bsp/Bsp_USB.c ****         {
 299              		.loc 1 201 9 is_stmt 1 view .LVU60
 201:HW_Lib/AT32F435/bsp/Bsp_USB.c ****         {
 300              		.loc 1 201 12 is_stmt 0 view .LVU61
 301 001e 0A46     		mov	r2, r1
 302 0020 0146     		mov	r1, r0
 303              	.LVL14:
 201:HW_Lib/AT32F435/bsp/Bsp_USB.c ****         {
 304              		.loc 1 201 12 view .LVU62
 305 0022 0E48     		ldr	r0, .L37+4
 306              	.LVL15:
 201:HW_Lib/AT32F435/bsp/Bsp_USB.c ****         {
 307              		.loc 1 201 12 view .LVU63
 308 0024 FFF7FEFF 		bl	usb_vcp_send_data
 309              	.LVL16:
 201:HW_Lib/AT32F435/bsp/Bsp_USB.c ****         {
 310              		.loc 1 201 11 view .LVU64
 311 0028 0128     		cmp	r0, #1
 312 002a 07D0     		beq	.L36
 208:HW_Lib/AT32F435/bsp/Bsp_USB.c ****         }
 313              		.loc 1 208 13 is_stmt 1 view .LVU65
 208:HW_Lib/AT32F435/bsp/Bsp_USB.c ****         }
 314              		.loc 1 208 27 is_stmt 0 view .LVU66
 315 002c 0A4A     		ldr	r2, .L37
 316 002e D2F82C34 		ldr	r3, [r2, #1068]
 208:HW_Lib/AT32F435/bsp/Bsp_USB.c ****         }
 317              		.loc 1 208 39 view .LVU67
 318 0032 0133     		adds	r3, r3, #1
 319 0034 C2F82C34 		str	r3, [r2, #1068]
 212:HW_Lib/AT32F435/bsp/Bsp_USB.c **** }
 320              		.loc 1 212 12 view .LVU68
 321 0038 0624     		movs	r4, #6
 322 003a 07E0     		b	.L28
 323              	.L36:
 203:HW_Lib/AT32F435/bsp/Bsp_USB.c ****             return BspUSB_Error_None;
 324              		.loc 1 203 13 is_stmt 1 view .LVU69
 203:HW_Lib/AT32F435/bsp/Bsp_USB.c ****             return BspUSB_Error_None;
 325              		.loc 1 203 27 is_stmt 0 view .LVU70
 326 003c 064A     		ldr	r2, .L37
 327 003e D2F82034 		ldr	r3, [r2, #1056]
 203:HW_Lib/AT32F435/bsp/Bsp_USB.c ****             return BspUSB_Error_None;
 328              		.loc 1 203 35 view .LVU71
 329 0042 0133     		adds	r3, r3, #1
 330 0044 C2F82034 		str	r3, [r2, #1056]
 204:HW_Lib/AT32F435/bsp/Bsp_USB.c ****         }
 331              		.loc 1 204 13 is_stmt 1 view .LVU72
 204:HW_Lib/AT32F435/bsp/Bsp_USB.c ****         }
 332              		.loc 1 204 20 is_stmt 0 view .LVU73
 333 0048 00E0     		b	.L28
ARM GAS  C:\Users\8bit\AppData\Local\Temp\cch4jWL1.s 			page 12


 334              	.LVL17:
 335              	.L30:
 212:HW_Lib/AT32F435/bsp/Bsp_USB.c **** }
 336              		.loc 1 212 12 view .LVU74
 337 004a 0624     		movs	r4, #6
 338              	.LVL18:
 339              	.L28:
 213:HW_Lib/AT32F435/bsp/Bsp_USB.c **** 
 340              		.loc 1 213 1 view .LVU75
 341 004c 2046     		mov	r0, r4
 342 004e 10BD     		pop	{r4, pc}
 343              	.LVL19:
 344              	.L31:
 212:HW_Lib/AT32F435/bsp/Bsp_USB.c **** }
 345              		.loc 1 212 12 view .LVU76
 346 0050 0624     		movs	r4, #6
 347 0052 FBE7     		b	.L28
 348              	.L32:
 349 0054 0624     		movs	r4, #6
 350 0056 F9E7     		b	.L28
 351              	.L38:
 352              		.align	2
 353              	.L37:
 354 0058 00000000 		.word	.LANCHOR0
 355 005c 04000000 		.word	.LANCHOR1+4
 356              		.cfi_endproc
 357              	.LFE140:
 359              		.section	.text.BspUSB_DeInit,"ax",%progbits
 360              		.align	1
 361              		.syntax unified
 362              		.thumb
 363              		.thumb_func
 365              	BspUSB_DeInit:
 366              	.LFB139:
 187:HW_Lib/AT32F435/bsp/Bsp_USB.c ****     crm_periph_clock_enable(CRM_OTGFS1_PERIPH_CLOCK, FALSE);
 367              		.loc 1 187 1 is_stmt 1 view -0
 368              		.cfi_startproc
 369              		@ args = 0, pretend = 0, frame = 0
 370              		@ frame_needed = 0, uses_anonymous_args = 0
 371 0000 08B5     		push	{r3, lr}
 372              	.LCFI3:
 373              		.cfi_def_cfa_offset 8
 374              		.cfi_offset 3, -8
 375              		.cfi_offset 14, -4
 188:HW_Lib/AT32F435/bsp/Bsp_USB.c ****     nvic_irq_disable(OTGFS1_IRQn);
 376              		.loc 1 188 5 view .LVU78
 377 0002 0021     		movs	r1, #0
 378 0004 0348     		ldr	r0, .L41
 379 0006 FFF7FEFF 		bl	crm_periph_clock_enable
 380              	.LVL20:
 189:HW_Lib/AT32F435/bsp/Bsp_USB.c **** 
 381              		.loc 1 189 5 view .LVU79
 382 000a 4320     		movs	r0, #67
 383 000c FFF7FEFF 		bl	nvic_irq_disable
 384              	.LVL21:
 191:HW_Lib/AT32F435/bsp/Bsp_USB.c **** }
 385              		.loc 1 191 5 view .LVU80
ARM GAS  C:\Users\8bit\AppData\Local\Temp\cch4jWL1.s 			page 13


 192:HW_Lib/AT32F435/bsp/Bsp_USB.c **** 
 386              		.loc 1 192 1 is_stmt 0 view .LVU81
 387 0010 0020     		movs	r0, #0
 388 0012 08BD     		pop	{r3, pc}
 389              	.L42:
 390              		.align	2
 391              	.L41:
 392 0014 07003400 		.word	3407879
 393              		.cfi_endproc
 394              	.LFE139:
 396              		.section	.text.BspUSB_Rec_Callback,"ax",%progbits
 397              		.align	1
 398              		.syntax unified
 399              		.thumb
 400              		.thumb_func
 402              	BspUSB_Rec_Callback:
 403              	.LFB146:
 246:HW_Lib/AT32F435/bsp/Bsp_USB.c ****     uint16_t data_len = 0;
 404              		.loc 1 246 1 is_stmt 1 view -0
 405              		.cfi_startproc
 406              		@ args = 0, pretend = 0, frame = 0
 407              		@ frame_needed = 0, uses_anonymous_args = 0
 247:HW_Lib/AT32F435/bsp/Bsp_USB.c **** 
 408              		.loc 1 247 5 view .LVU83
 409              	.LVL22:
 249:HW_Lib/AT32F435/bsp/Bsp_USB.c ****         return;
 410              		.loc 1 249 5 view .LVU84
 249:HW_Lib/AT32F435/bsp/Bsp_USB.c ****         return;
 411              		.loc 1 249 23 is_stmt 0 view .LVU85
 412 0000 104B     		ldr	r3, .L51
 413 0002 93F90034 		ldrsb	r3, [r3, #1024]
 249:HW_Lib/AT32F435/bsp/Bsp_USB.c ****         return;
 414              		.loc 1 249 8 view .LVU86
 415 0006 03B1     		cbz	r3, .L50
 416 0008 7047     		bx	lr
 417              	.L50:
 246:HW_Lib/AT32F435/bsp/Bsp_USB.c ****     uint16_t data_len = 0;
 418              		.loc 1 246 1 view .LVU87
 419 000a 10B5     		push	{r4, lr}
 420              	.LCFI4:
 421              		.cfi_def_cfa_offset 8
 422              		.cfi_offset 4, -8
 423              		.cfi_offset 14, -4
 252:HW_Lib/AT32F435/bsp/Bsp_USB.c **** 
 424              		.loc 1 252 5 is_stmt 1 view .LVU88
 252:HW_Lib/AT32F435/bsp/Bsp_USB.c **** 
 425              		.loc 1 252 16 is_stmt 0 view .LVU89
 426 000c 0E49     		ldr	r1, .L51+4
 427 000e 0F48     		ldr	r0, .L51+8
 428 0010 FFF7FEFF 		bl	usb_vcp_get_rxdata
 429              	.LVL23:
 430 0014 0446     		mov	r4, r0
 431              	.LVL24:
 254:HW_Lib/AT32F435/bsp/Bsp_USB.c ****         BspUSB_Monitor.rx_callback(BspUSB_Monitor.cus_data_addr, USB_Rx_Buff, data_len);
 432              		.loc 1 254 5 is_stmt 1 view .LVU90
 254:HW_Lib/AT32F435/bsp/Bsp_USB.c ****         BspUSB_Monitor.rx_callback(BspUSB_Monitor.cus_data_addr, USB_Rx_Buff, data_len);
 433              		.loc 1 254 23 is_stmt 0 view .LVU91
ARM GAS  C:\Users\8bit\AppData\Local\Temp\cch4jWL1.s 			page 14


 434 0016 0B4B     		ldr	r3, .L51
 435 0018 D3F83834 		ldr	r3, [r3, #1080]
 254:HW_Lib/AT32F435/bsp/Bsp_USB.c ****         BspUSB_Monitor.rx_callback(BspUSB_Monitor.cus_data_addr, USB_Rx_Buff, data_len);
 436              		.loc 1 254 8 view .LVU92
 437 001c 2BB1     		cbz	r3, .L45
 255:HW_Lib/AT32F435/bsp/Bsp_USB.c **** 
 438              		.loc 1 255 9 is_stmt 1 view .LVU93
 439 001e 0246     		mov	r2, r0
 440 0020 0949     		ldr	r1, .L51+4
 441 0022 0848     		ldr	r0, .L51
 442              	.LVL25:
 255:HW_Lib/AT32F435/bsp/Bsp_USB.c **** 
 443              		.loc 1 255 9 is_stmt 0 view .LVU94
 444 0024 D0F84004 		ldr	r0, [r0, #1088]
 445 0028 9847     		blx	r3
 446              	.LVL26:
 447              	.L45:
 257:HW_Lib/AT32F435/bsp/Bsp_USB.c ****     BspUSB_Monitor.rx_byte_sum += data_len;
 448              		.loc 1 257 5 is_stmt 1 view .LVU95
 257:HW_Lib/AT32F435/bsp/Bsp_USB.c ****     BspUSB_Monitor.rx_byte_sum += data_len;
 449              		.loc 1 257 19 is_stmt 0 view .LVU96
 450 002a 064B     		ldr	r3, .L51
 451 002c D3F81C24 		ldr	r2, [r3, #1052]
 257:HW_Lib/AT32F435/bsp/Bsp_USB.c ****     BspUSB_Monitor.rx_byte_sum += data_len;
 452              		.loc 1 257 31 view .LVU97
 453 0030 0132     		adds	r2, r2, #1
 454 0032 C3F81C24 		str	r2, [r3, #1052]
 258:HW_Lib/AT32F435/bsp/Bsp_USB.c **** }
 455              		.loc 1 258 5 is_stmt 1 view .LVU98
 258:HW_Lib/AT32F435/bsp/Bsp_USB.c **** }
 456              		.loc 1 258 32 is_stmt 0 view .LVU99
 457 0036 D3F81404 		ldr	r0, [r3, #1044]
 458 003a 2044     		add	r0, r0, r4
 459 003c C3F81404 		str	r0, [r3, #1044]
 259:HW_Lib/AT32F435/bsp/Bsp_USB.c **** 
 460              		.loc 1 259 1 view .LVU100
 461 0040 10BD     		pop	{r4, pc}
 462              	.L52:
 463 0042 00BF     		.align	2
 464              	.L51:
 465 0044 00000000 		.word	.LANCHOR0
 466 0048 00000000 		.word	.LANCHOR2
 467 004c 04000000 		.word	.LANCHOR1+4
 468              		.cfi_endproc
 469              	.LFE146:
 471              		.section	.text.BspUSB_Pin_Init,"ax",%progbits
 472              		.align	1
 473              		.syntax unified
 474              		.thumb
 475              		.thumb_func
 477              	BspUSB_Pin_Init:
 478              	.LFB137:
 133:HW_Lib/AT32F435/bsp/Bsp_USB.c ****     gpio_init_type gpio_init_struct;
 479              		.loc 1 133 1 is_stmt 1 view -0
 480              		.cfi_startproc
 481              		@ args = 0, pretend = 0, frame = 8
 482              		@ frame_needed = 0, uses_anonymous_args = 0
ARM GAS  C:\Users\8bit\AppData\Local\Temp\cch4jWL1.s 			page 15


 483 0000 30B5     		push	{r4, r5, lr}
 484              	.LCFI5:
 485              		.cfi_def_cfa_offset 12
 486              		.cfi_offset 4, -12
 487              		.cfi_offset 5, -8
 488              		.cfi_offset 14, -4
 489 0002 83B0     		sub	sp, sp, #12
 490              	.LCFI6:
 491              		.cfi_def_cfa_offset 24
 134:HW_Lib/AT32F435/bsp/Bsp_USB.c **** 
 492              		.loc 1 134 5 view .LVU102
 136:HW_Lib/AT32F435/bsp/Bsp_USB.c **** 
 493              		.loc 1 136 5 view .LVU103
 494 0004 0121     		movs	r1, #1
 495 0006 4FF44010 		mov	r0, #3145728
 496 000a FFF7FEFF 		bl	crm_periph_clock_enable
 497              	.LVL27:
 139:HW_Lib/AT32F435/bsp/Bsp_USB.c **** 
 498              		.loc 1 139 5 view .LVU104
 499 000e 6846     		mov	r0, sp
 500 0010 FFF7FEFF 		bl	gpio_default_para_init
 501              	.LVL28:
 141:HW_Lib/AT32F435/bsp/Bsp_USB.c ****     gpio_init_struct.gpio_out_type  = GPIO_OUTPUT_PUSH_PULL;
 502              		.loc 1 141 5 view .LVU105
 141:HW_Lib/AT32F435/bsp/Bsp_USB.c ****     gpio_init_struct.gpio_out_type  = GPIO_OUTPUT_PUSH_PULL;
 503              		.loc 1 141 42 is_stmt 0 view .LVU106
 504 0014 0125     		movs	r5, #1
 505 0016 8DF80750 		strb	r5, [sp, #7]
 142:HW_Lib/AT32F435/bsp/Bsp_USB.c ****     gpio_init_struct.gpio_mode = GPIO_MODE_MUX;
 506              		.loc 1 142 5 is_stmt 1 view .LVU107
 142:HW_Lib/AT32F435/bsp/Bsp_USB.c ****     gpio_init_struct.gpio_mode = GPIO_MODE_MUX;
 507              		.loc 1 142 37 is_stmt 0 view .LVU108
 508 001a 0023     		movs	r3, #0
 509 001c 8DF80430 		strb	r3, [sp, #4]
 143:HW_Lib/AT32F435/bsp/Bsp_USB.c ****     gpio_init_struct.gpio_pull = GPIO_PULL_NONE;
 510              		.loc 1 143 5 is_stmt 1 view .LVU109
 143:HW_Lib/AT32F435/bsp/Bsp_USB.c ****     gpio_init_struct.gpio_pull = GPIO_PULL_NONE;
 511              		.loc 1 143 32 is_stmt 0 view .LVU110
 512 0020 0222     		movs	r2, #2
 513 0022 8DF80620 		strb	r2, [sp, #6]
 144:HW_Lib/AT32F435/bsp/Bsp_USB.c **** 
 514              		.loc 1 144 5 is_stmt 1 view .LVU111
 144:HW_Lib/AT32F435/bsp/Bsp_USB.c **** 
 515              		.loc 1 144 32 is_stmt 0 view .LVU112
 516 0026 8DF80530 		strb	r3, [sp, #5]
 147:HW_Lib/AT32F435/bsp/Bsp_USB.c ****     gpio_init(OTG_PIN_GPIO, &gpio_init_struct);
 517              		.loc 1 147 5 is_stmt 1 view .LVU113
 147:HW_Lib/AT32F435/bsp/Bsp_USB.c ****     gpio_init(OTG_PIN_GPIO, &gpio_init_struct);
 518              		.loc 1 147 32 is_stmt 0 view .LVU114
 519 002a 4FF4C053 		mov	r3, #6144
 520 002e 0093     		str	r3, [sp]
 148:HW_Lib/AT32F435/bsp/Bsp_USB.c **** 
 521              		.loc 1 148 5 is_stmt 1 view .LVU115
 522 0030 084C     		ldr	r4, .L55
 523 0032 6946     		mov	r1, sp
 524 0034 2046     		mov	r0, r4
 525 0036 FFF7FEFF 		bl	gpio_init
ARM GAS  C:\Users\8bit\AppData\Local\Temp\cch4jWL1.s 			page 16


 526              	.LVL29:
 150:HW_Lib/AT32F435/bsp/Bsp_USB.c ****     gpio_pin_mux_config(OTG_PIN_GPIO, OTG_PIN_DM_SOURCE, OTG_PIN_MUX);
 527              		.loc 1 150 5 view .LVU116
 528 003a 0A22     		movs	r2, #10
 529 003c 0C21     		movs	r1, #12
 530 003e 2046     		mov	r0, r4
 531 0040 FFF7FEFF 		bl	gpio_pin_mux_config
 532              	.LVL30:
 151:HW_Lib/AT32F435/bsp/Bsp_USB.c **** 
 533              		.loc 1 151 5 view .LVU117
 534 0044 0A22     		movs	r2, #10
 535 0046 0B21     		movs	r1, #11
 536 0048 2046     		mov	r0, r4
 537 004a FFF7FEFF 		bl	gpio_pin_mux_config
 538              	.LVL31:
 153:HW_Lib/AT32F435/bsp/Bsp_USB.c **** }
 539              		.loc 1 153 5 view .LVU118
 154:HW_Lib/AT32F435/bsp/Bsp_USB.c **** 
 540              		.loc 1 154 1 is_stmt 0 view .LVU119
 541 004e 2846     		mov	r0, r5
 542 0050 03B0     		add	sp, sp, #12
 543              	.LCFI7:
 544              		.cfi_def_cfa_offset 12
 545              		@ sp needed
 546 0052 30BD     		pop	{r4, r5, pc}
 547              	.L56:
 548              		.align	2
 549              	.L55:
 550 0054 00000240 		.word	1073872896
 551              		.cfi_endproc
 552              	.LFE137:
 554              		.section	.text.BspUSB_Clock_Init,"ax",%progbits
 555              		.align	1
 556              		.syntax unified
 557              		.thumb
 558              		.thumb_func
 560              	BspUSB_Clock_Init:
 561              	.LFB136:
  63:HW_Lib/AT32F435/bsp/Bsp_USB.c ****     /* enable otgfs clock */
 562              		.loc 1 63 1 is_stmt 1 view -0
 563              		.cfi_startproc
 564              		@ args = 0, pretend = 0, frame = 0
 565              		@ frame_needed = 0, uses_anonymous_args = 0
 566 0000 08B5     		push	{r3, lr}
 567              	.LCFI8:
 568              		.cfi_def_cfa_offset 8
 569              		.cfi_offset 3, -8
 570              		.cfi_offset 14, -4
  65:HW_Lib/AT32F435/bsp/Bsp_USB.c **** 
 571              		.loc 1 65 5 view .LVU121
 572 0002 0121     		movs	r1, #1
 573 0004 3848     		ldr	r0, .L81
 574 0006 FFF7FEFF 		bl	crm_periph_clock_enable
 575              	.LVL32:
  68:HW_Lib/AT32F435/bsp/Bsp_USB.c ****     {
 576              		.loc 1 68 5 view .LVU122
 577 000a 384B     		ldr	r3, .L81+4
ARM GAS  C:\Users\8bit\AppData\Local\Temp\cch4jWL1.s 			page 17


 578 000c 1B68     		ldr	r3, [r3]
 579 000e 384A     		ldr	r2, .L81+8
 580 0010 9342     		cmp	r3, r2
 581 0012 54D0     		beq	.L58
 582 0014 11D9     		bls	.L74
 583 0016 374A     		ldr	r2, .L81+12
 584 0018 9342     		cmp	r3, r2
 585 001a 5AD0     		beq	.L67
 586 001c 31D9     		bls	.L75
 587 001e 364A     		ldr	r2, .L81+16
 588 0020 9342     		cmp	r3, r2
 589 0022 5BD0     		beq	.L71
 590 0024 02F1B772 		add	r2, r2, #23986176
 591 0028 02F55852 		add	r2, r2, #13824
 592 002c 9342     		cmp	r3, r2
 593 002e 35D1     		bne	.L76
 122:HW_Lib/AT32F435/bsp/Bsp_USB.c ****         break;
 594              		.loc 1 122 9 view .LVU123
 595 0030 0B20     		movs	r0, #11
 596 0032 FFF7FEFF 		bl	crm_usb_clock_div_set
 597              	.LVL33:
 123:HW_Lib/AT32F435/bsp/Bsp_USB.c **** 
 598              		.loc 1 123 9 view .LVU124
 129:HW_Lib/AT32F435/bsp/Bsp_USB.c **** }
 599              		.loc 1 129 12 is_stmt 0 view .LVU125
 600 0036 0120     		movs	r0, #1
 123:HW_Lib/AT32F435/bsp/Bsp_USB.c **** 
 601              		.loc 1 123 9 view .LVU126
 602 0038 36E0     		b	.L64
 603              	.L74:
  68:HW_Lib/AT32F435/bsp/Bsp_USB.c ****     {
 604              		.loc 1 68 5 view .LVU127
 605 003a 304A     		ldr	r2, .L81+20
 606 003c 9342     		cmp	r3, r2
 607 003e 34D0     		beq	.L60
 608 0040 0DD9     		bls	.L77
 609 0042 2F4A     		ldr	r2, .L81+24
 610 0044 9342     		cmp	r3, r2
 611 0046 35D0     		beq	.L65
 612 0048 02F1B772 		add	r2, r2, #23986176
 613 004c 02F55852 		add	r2, r2, #13824
 614 0050 9342     		cmp	r3, r2
 615 0052 14D1     		bne	.L78
  92:HW_Lib/AT32F435/bsp/Bsp_USB.c ****         break;
 616              		.loc 1 92 9 is_stmt 1 view .LVU128
 617 0054 0520     		movs	r0, #5
 618 0056 FFF7FEFF 		bl	crm_usb_clock_div_set
 619              	.LVL34:
  93:HW_Lib/AT32F435/bsp/Bsp_USB.c **** 
 620              		.loc 1 93 9 view .LVU129
 129:HW_Lib/AT32F435/bsp/Bsp_USB.c **** }
 621              		.loc 1 129 12 is_stmt 0 view .LVU130
 622 005a 0120     		movs	r0, #1
  93:HW_Lib/AT32F435/bsp/Bsp_USB.c **** 
 623              		.loc 1 93 9 view .LVU131
 624 005c 24E0     		b	.L64
 625              	.L77:
ARM GAS  C:\Users\8bit\AppData\Local\Temp\cch4jWL1.s 			page 18


  68:HW_Lib/AT32F435/bsp/Bsp_USB.c ****     {
 626              		.loc 1 68 5 view .LVU132
 627 005e 294A     		ldr	r2, .L81+28
 628 0060 9342     		cmp	r3, r2
 629 0062 1DD0     		beq	.L62
 630 0064 02F1B772 		add	r2, r2, #23986176
 631 0068 02F55852 		add	r2, r2, #13824
 632 006c 9342     		cmp	r3, r2
 633 006e 04D1     		bne	.L79
  77:HW_Lib/AT32F435/bsp/Bsp_USB.c ****         break;
 634              		.loc 1 77 9 is_stmt 1 view .LVU133
 635 0070 0020     		movs	r0, #0
 636 0072 FFF7FEFF 		bl	crm_usb_clock_div_set
 637              	.LVL35:
  78:HW_Lib/AT32F435/bsp/Bsp_USB.c **** 
 638              		.loc 1 78 9 view .LVU134
 129:HW_Lib/AT32F435/bsp/Bsp_USB.c **** }
 639              		.loc 1 129 12 is_stmt 0 view .LVU135
 640 0076 0120     		movs	r0, #1
  78:HW_Lib/AT32F435/bsp/Bsp_USB.c **** 
 641              		.loc 1 78 9 view .LVU136
 642 0078 16E0     		b	.L64
 643              	.L79:
  68:HW_Lib/AT32F435/bsp/Bsp_USB.c ****     {
 644              		.loc 1 68 5 view .LVU137
 645 007a 0020     		movs	r0, #0
 646 007c 14E0     		b	.L64
 647              	.L78:
 648 007e 0020     		movs	r0, #0
 649 0080 12E0     		b	.L64
 650              	.L75:
 651 0082 214A     		ldr	r2, .L81+32
 652 0084 9342     		cmp	r3, r2
 653 0086 1FD0     		beq	.L69
 654 0088 204A     		ldr	r2, .L81+36
 655 008a 9342     		cmp	r3, r2
 656 008c 04D1     		bne	.L80
 107:HW_Lib/AT32F435/bsp/Bsp_USB.c ****         break;
 657              		.loc 1 107 9 is_stmt 1 view .LVU138
 658 008e 0620     		movs	r0, #6
 659 0090 FFF7FEFF 		bl	crm_usb_clock_div_set
 660              	.LVL36:
 108:HW_Lib/AT32F435/bsp/Bsp_USB.c **** 
 661              		.loc 1 108 9 view .LVU139
 129:HW_Lib/AT32F435/bsp/Bsp_USB.c **** }
 662              		.loc 1 129 12 is_stmt 0 view .LVU140
 663 0094 0120     		movs	r0, #1
 108:HW_Lib/AT32F435/bsp/Bsp_USB.c **** 
 664              		.loc 1 108 9 view .LVU141
 665 0096 07E0     		b	.L64
 666              	.L80:
  68:HW_Lib/AT32F435/bsp/Bsp_USB.c ****     {
 667              		.loc 1 68 5 view .LVU142
 668 0098 0020     		movs	r0, #0
 669 009a 05E0     		b	.L64
 670              	.L76:
 671 009c 0020     		movs	r0, #0
ARM GAS  C:\Users\8bit\AppData\Local\Temp\cch4jWL1.s 			page 19


 672 009e 03E0     		b	.L64
 673              	.L62:
  72:HW_Lib/AT32F435/bsp/Bsp_USB.c ****         break;
 674              		.loc 1 72 9 is_stmt 1 view .LVU143
 675 00a0 0120     		movs	r0, #1
 676 00a2 FFF7FEFF 		bl	crm_usb_clock_div_set
 677              	.LVL37:
  73:HW_Lib/AT32F435/bsp/Bsp_USB.c **** 
 678              		.loc 1 73 9 view .LVU144
 129:HW_Lib/AT32F435/bsp/Bsp_USB.c **** }
 679              		.loc 1 129 12 is_stmt 0 view .LVU145
 680 00a6 0120     		movs	r0, #1
 681              	.L64:
 130:HW_Lib/AT32F435/bsp/Bsp_USB.c **** 
 682              		.loc 1 130 1 view .LVU146
 683 00a8 08BD     		pop	{r3, pc}
 684              	.L60:
  82:HW_Lib/AT32F435/bsp/Bsp_USB.c ****         break;
 685              		.loc 1 82 9 is_stmt 1 view .LVU147
 686 00aa 0320     		movs	r0, #3
 687 00ac FFF7FEFF 		bl	crm_usb_clock_div_set
 688              	.LVL38:
  83:HW_Lib/AT32F435/bsp/Bsp_USB.c **** 
 689              		.loc 1 83 9 view .LVU148
 129:HW_Lib/AT32F435/bsp/Bsp_USB.c **** }
 690              		.loc 1 129 12 is_stmt 0 view .LVU149
 691 00b0 0120     		movs	r0, #1
  83:HW_Lib/AT32F435/bsp/Bsp_USB.c **** 
 692              		.loc 1 83 9 view .LVU150
 693 00b2 F9E7     		b	.L64
 694              	.L65:
  87:HW_Lib/AT32F435/bsp/Bsp_USB.c ****         break;
 695              		.loc 1 87 9 is_stmt 1 view .LVU151
 696 00b4 0220     		movs	r0, #2
 697 00b6 FFF7FEFF 		bl	crm_usb_clock_div_set
 698              	.LVL39:
  88:HW_Lib/AT32F435/bsp/Bsp_USB.c **** 
 699              		.loc 1 88 9 view .LVU152
 129:HW_Lib/AT32F435/bsp/Bsp_USB.c **** }
 700              		.loc 1 129 12 is_stmt 0 view .LVU153
 701 00ba 0120     		movs	r0, #1
  88:HW_Lib/AT32F435/bsp/Bsp_USB.c **** 
 702              		.loc 1 88 9 view .LVU154
 703 00bc F4E7     		b	.L64
 704              	.L58:
  97:HW_Lib/AT32F435/bsp/Bsp_USB.c ****         break;
 705              		.loc 1 97 9 is_stmt 1 view .LVU155
 706 00be 0420     		movs	r0, #4
 707 00c0 FFF7FEFF 		bl	crm_usb_clock_div_set
 708              	.LVL40:
  98:HW_Lib/AT32F435/bsp/Bsp_USB.c **** 
 709              		.loc 1 98 9 view .LVU156
 129:HW_Lib/AT32F435/bsp/Bsp_USB.c **** }
 710              		.loc 1 129 12 is_stmt 0 view .LVU157
 711 00c4 0120     		movs	r0, #1
  98:HW_Lib/AT32F435/bsp/Bsp_USB.c **** 
 712              		.loc 1 98 9 view .LVU158
ARM GAS  C:\Users\8bit\AppData\Local\Temp\cch4jWL1.s 			page 20


 713 00c6 EFE7     		b	.L64
 714              	.L69:
 102:HW_Lib/AT32F435/bsp/Bsp_USB.c ****         break;
 715              		.loc 1 102 9 is_stmt 1 view .LVU159
 716 00c8 0720     		movs	r0, #7
 717 00ca FFF7FEFF 		bl	crm_usb_clock_div_set
 718              	.LVL41:
 103:HW_Lib/AT32F435/bsp/Bsp_USB.c **** 
 719              		.loc 1 103 9 view .LVU160
 129:HW_Lib/AT32F435/bsp/Bsp_USB.c **** }
 720              		.loc 1 129 12 is_stmt 0 view .LVU161
 721 00ce 0120     		movs	r0, #1
 103:HW_Lib/AT32F435/bsp/Bsp_USB.c **** 
 722              		.loc 1 103 9 view .LVU162
 723 00d0 EAE7     		b	.L64
 724              	.L67:
 112:HW_Lib/AT32F435/bsp/Bsp_USB.c ****         break;
 725              		.loc 1 112 9 is_stmt 1 view .LVU163
 726 00d2 0920     		movs	r0, #9
 727 00d4 FFF7FEFF 		bl	crm_usb_clock_div_set
 728              	.LVL42:
 113:HW_Lib/AT32F435/bsp/Bsp_USB.c **** 
 729              		.loc 1 113 9 view .LVU164
 129:HW_Lib/AT32F435/bsp/Bsp_USB.c **** }
 730              		.loc 1 129 12 is_stmt 0 view .LVU165
 731 00d8 0120     		movs	r0, #1
 113:HW_Lib/AT32F435/bsp/Bsp_USB.c **** 
 732              		.loc 1 113 9 view .LVU166
 733 00da E5E7     		b	.L64
 734              	.L71:
 117:HW_Lib/AT32F435/bsp/Bsp_USB.c ****         break;
 735              		.loc 1 117 9 is_stmt 1 view .LVU167
 736 00dc 0820     		movs	r0, #8
 737 00de FFF7FEFF 		bl	crm_usb_clock_div_set
 738              	.LVL43:
 118:HW_Lib/AT32F435/bsp/Bsp_USB.c **** 
 739              		.loc 1 118 9 view .LVU168
 129:HW_Lib/AT32F435/bsp/Bsp_USB.c **** }
 740              		.loc 1 129 12 is_stmt 0 view .LVU169
 741 00e2 0120     		movs	r0, #1
 118:HW_Lib/AT32F435/bsp/Bsp_USB.c **** 
 742              		.loc 1 118 9 view .LVU170
 743 00e4 E0E7     		b	.L64
 744              	.L82:
 745 00e6 00BF     		.align	2
 746              	.L81:
 747 00e8 07003400 		.word	3407879
 748 00ec 00000000 		.word	system_core_clock
 749 00f0 007A030A 		.word	168000000
 750 00f4 001C4E0E 		.word	240000000
 751 00f8 0052BC0F 		.word	264000000
 752 00fc 00D8B805 		.word	96000000
 753 0100 000E2707 		.word	120000000
 754 0104 006CDC02 		.word	48000000
 755 0108 00B0710B 		.word	192000000
 756 010c 00E6DF0C 		.word	216000000
 757              		.cfi_endproc
ARM GAS  C:\Users\8bit\AppData\Local\Temp\cch4jWL1.s 			page 21


 758              	.LFE136:
 760              		.section	.text.BspUSB_Init,"ax",%progbits
 761              		.align	1
 762              		.syntax unified
 763              		.thumb
 764              		.thumb_func
 766              	BspUSB_Init:
 767              	.LVL44:
 768              	.LFB138:
 157:HW_Lib/AT32F435/bsp/Bsp_USB.c ****     nvic_priority_group_config(NVIC_PRIORITY_GROUP_4);
 769              		.loc 1 157 1 is_stmt 1 view -0
 770              		.cfi_startproc
 771              		@ args = 0, pretend = 0, frame = 0
 772              		@ frame_needed = 0, uses_anonymous_args = 0
 157:HW_Lib/AT32F435/bsp/Bsp_USB.c ****     nvic_priority_group_config(NVIC_PRIORITY_GROUP_4);
 773              		.loc 1 157 1 is_stmt 0 view .LVU172
 774 0000 10B5     		push	{r4, lr}
 775              	.LCFI9:
 776              		.cfi_def_cfa_offset 8
 777              		.cfi_offset 4, -8
 778              		.cfi_offset 14, -4
 779 0002 82B0     		sub	sp, sp, #8
 780              	.LCFI10:
 781              		.cfi_def_cfa_offset 16
 782 0004 0446     		mov	r4, r0
 158:HW_Lib/AT32F435/bsp/Bsp_USB.c ****     BspUSB_Pin_Init();
 783              		.loc 1 158 5 is_stmt 1 view .LVU173
 784 0006 0320     		movs	r0, #3
 785              	.LVL45:
 158:HW_Lib/AT32F435/bsp/Bsp_USB.c ****     BspUSB_Pin_Init();
 786              		.loc 1 158 5 is_stmt 0 view .LVU174
 787 0008 FFF7FEFF 		bl	nvic_priority_group_config
 788              	.LVL46:
 159:HW_Lib/AT32F435/bsp/Bsp_USB.c **** 
 789              		.loc 1 159 5 is_stmt 1 view .LVU175
 790 000c FFF7FEFF 		bl	BspUSB_Pin_Init
 791              	.LVL47:
 161:HW_Lib/AT32F435/bsp/Bsp_USB.c ****         return BspUSB_Error_Fail;
 792              		.loc 1 161 5 view .LVU176
 161:HW_Lib/AT32F435/bsp/Bsp_USB.c ****         return BspUSB_Error_Fail;
 793              		.loc 1 161 9 is_stmt 0 view .LVU177
 794 0010 FFF7FEFF 		bl	BspUSB_Clock_Init
 795              	.LVL48:
 161:HW_Lib/AT32F435/bsp/Bsp_USB.c ****         return BspUSB_Error_Fail;
 796              		.loc 1 161 7 view .LVU178
 797 0014 20B3     		cbz	r0, .L85
 165:HW_Lib/AT32F435/bsp/Bsp_USB.c ****               USB_FULL_SPEED_CORE_ID,
 798              		.loc 1 165 5 is_stmt 1 view .LVU179
 799 0016 134B     		ldr	r3, .L87
 800 0018 0093     		str	r3, [sp]
 801 001a 134B     		ldr	r3, .L87+4
 802 001c 0022     		movs	r2, #0
 803 001e 0121     		movs	r1, #1
 804 0020 1248     		ldr	r0, .L87+8
 805 0022 FFF7FEFF 		bl	usbd_init
 806              	.LVL49:
 172:HW_Lib/AT32F435/bsp/Bsp_USB.c **** 
ARM GAS  C:\Users\8bit\AppData\Local\Temp\cch4jWL1.s 			page 22


 807              		.loc 1 172 5 view .LVU180
 808 0026 0022     		movs	r2, #0
 809 0028 0521     		movs	r1, #5
 810 002a 4320     		movs	r0, #67
 811 002c FFF7FEFF 		bl	nvic_irq_enable
 812              	.LVL50:
 174:HW_Lib/AT32F435/bsp/Bsp_USB.c ****     BspUSB_Monitor.init_state = BspUSB_Error_None;
 813              		.loc 1 174 5 view .LVU181
 174:HW_Lib/AT32F435/bsp/Bsp_USB.c ****     BspUSB_Monitor.init_state = BspUSB_Error_None;
 814              		.loc 1 174 34 is_stmt 0 view .LVU182
 815 0030 0F4B     		ldr	r3, .L87+12
 816 0032 C3F84044 		str	r4, [r3, #1088]
 175:HW_Lib/AT32F435/bsp/Bsp_USB.c **** 
 817              		.loc 1 175 5 is_stmt 1 view .LVU183
 175:HW_Lib/AT32F435/bsp/Bsp_USB.c **** 
 818              		.loc 1 175 31 is_stmt 0 view .LVU184
 819 0036 0024     		movs	r4, #0
 820              	.LVL51:
 175:HW_Lib/AT32F435/bsp/Bsp_USB.c **** 
 821              		.loc 1 175 31 view .LVU185
 822 0038 83F80044 		strb	r4, [r3, #1024]
 177:HW_Lib/AT32F435/bsp/Bsp_USB.c ****     usb_cdc_trans_cb = BspUSB_Trans_Callback;
 823              		.loc 1 177 5 is_stmt 1 view .LVU186
 177:HW_Lib/AT32F435/bsp/Bsp_USB.c ****     usb_cdc_trans_cb = BspUSB_Trans_Callback;
 824              		.loc 1 177 20 is_stmt 0 view .LVU187
 825 003c 0D4B     		ldr	r3, .L87+16
 177:HW_Lib/AT32F435/bsp/Bsp_USB.c ****     usb_cdc_trans_cb = BspUSB_Trans_Callback;
 826              		.loc 1 177 20 view .LVU188
 827 003e 0E4A     		ldr	r2, .L87+20
 828 0040 1A60     		str	r2, [r3]
 178:HW_Lib/AT32F435/bsp/Bsp_USB.c ****     usb_cdc_cnt_cb = BspUSB_Connect_Callback;
 829              		.loc 1 178 5 is_stmt 1 view .LVU189
 178:HW_Lib/AT32F435/bsp/Bsp_USB.c ****     usb_cdc_cnt_cb = BspUSB_Connect_Callback;
 830              		.loc 1 178 22 is_stmt 0 view .LVU190
 831 0042 0E4B     		ldr	r3, .L87+24
 832 0044 0E4A     		ldr	r2, .L87+28
 833 0046 1A60     		str	r2, [r3]
 179:HW_Lib/AT32F435/bsp/Bsp_USB.c **** 
 834              		.loc 1 179 5 is_stmt 1 view .LVU191
 179:HW_Lib/AT32F435/bsp/Bsp_USB.c **** 
 835              		.loc 1 179 20 is_stmt 0 view .LVU192
 836 0048 0E4B     		ldr	r3, .L87+32
 837 004a 0F4A     		ldr	r2, .L87+36
 838 004c 1A60     		str	r2, [r3]
 181:HW_Lib/AT32F435/bsp/Bsp_USB.c **** 
 839              		.loc 1 181 5 is_stmt 1 view .LVU193
 840 004e 4FF40072 		mov	r2, #512
 841 0052 2146     		mov	r1, r4
 842 0054 0D48     		ldr	r0, .L87+40
 843 0056 FFF7FEFF 		bl	memset
 844              	.LVL52:
 183:HW_Lib/AT32F435/bsp/Bsp_USB.c **** }
 845              		.loc 1 183 5 view .LVU194
 183:HW_Lib/AT32F435/bsp/Bsp_USB.c **** }
 846              		.loc 1 183 12 is_stmt 0 view .LVU195
 847 005a 2046     		mov	r0, r4
 848              	.L84:
ARM GAS  C:\Users\8bit\AppData\Local\Temp\cch4jWL1.s 			page 23


 184:HW_Lib/AT32F435/bsp/Bsp_USB.c **** 
 849              		.loc 1 184 1 view .LVU196
 850 005c 02B0     		add	sp, sp, #8
 851              	.LCFI11:
 852              		.cfi_remember_state
 853              		.cfi_def_cfa_offset 8
 854              		@ sp needed
 855 005e 10BD     		pop	{r4, pc}
 856              	.LVL53:
 857              	.L85:
 858              	.LCFI12:
 859              		.cfi_restore_state
 162:HW_Lib/AT32F435/bsp/Bsp_USB.c **** 
 860              		.loc 1 162 16 view .LVU197
 861 0060 0620     		movs	r0, #6
 862 0062 FBE7     		b	.L84
 863              	.L88:
 864              		.align	2
 865              	.L87:
 866 0064 00000000 		.word	cdc_desc_handler
 867 0068 00000000 		.word	cdc_class_handler
 868 006c 00000000 		.word	.LANCHOR1
 869 0070 00000000 		.word	.LANCHOR0
 870 0074 00000000 		.word	usb_cdc_rec_cb
 871 0078 00000000 		.word	BspUSB_Rec_Callback
 872 007c 00000000 		.word	usb_cdc_trans_cb
 873 0080 00000000 		.word	BspUSB_Trans_Callback
 874 0084 00000000 		.word	usb_cdc_cnt_cb
 875 0088 00000000 		.word	BspUSB_Connect_Callback
 876 008c 00000000 		.word	.LANCHOR2
 877              		.cfi_endproc
 878              	.LFE138:
 880              		.section	.text.BspUSB_Irq_Callback,"ax",%progbits
 881              		.align	1
 882              		.global	BspUSB_Irq_Callback
 883              		.syntax unified
 884              		.thumb
 885              		.thumb_func
 887              	BspUSB_Irq_Callback:
 888              	.LFB142:
 226:HW_Lib/AT32F435/bsp/Bsp_USB.c ****     usbd_irq_handler(&otg_core_struct);
 889              		.loc 1 226 1 is_stmt 1 view -0
 890              		.cfi_startproc
 891              		@ args = 0, pretend = 0, frame = 0
 892              		@ frame_needed = 0, uses_anonymous_args = 0
 893 0000 08B5     		push	{r3, lr}
 894              	.LCFI13:
 895              		.cfi_def_cfa_offset 8
 896              		.cfi_offset 3, -8
 897              		.cfi_offset 14, -4
 227:HW_Lib/AT32F435/bsp/Bsp_USB.c **** }
 898              		.loc 1 227 5 view .LVU199
 899 0002 0248     		ldr	r0, .L91
 900 0004 FFF7FEFF 		bl	usbd_irq_handler
 901              	.LVL54:
 228:HW_Lib/AT32F435/bsp/Bsp_USB.c **** 
 902              		.loc 1 228 1 is_stmt 0 view .LVU200
ARM GAS  C:\Users\8bit\AppData\Local\Temp\cch4jWL1.s 			page 24


 903 0008 08BD     		pop	{r3, pc}
 904              	.L92:
 905 000a 00BF     		.align	2
 906              	.L91:
 907 000c 00000000 		.word	.LANCHOR1
 908              		.cfi_endproc
 909              	.LFE142:
 911              		.global	BspUSB_VCP
 912              		.section	.bss.USB_Rx_Buff,"aw",%nobits
 913              		.align	2
 914              		.set	.LANCHOR2,. + 0
 917              	USB_Rx_Buff:
 918 0000 00000000 		.space	512
 918      00000000 
 918      00000000 
 918      00000000 
 918      00000000 
 919              		.section	.bss.otg_core_struct,"aw",%nobits
 920              		.align	2
 921              		.set	.LANCHOR1,. + 0
 924              	otg_core_struct:
 925 0000 00000000 		.space	772
 925      00000000 
 925      00000000 
 925      00000000 
 925      00000000 
 926              		.section	.data.BspUSB_Monitor,"aw"
 927              		.align	2
 928              		.set	.LANCHOR0,. + 0
 931              	BspUSB_Monitor:
 932 0000 00000000 		.space	1024
 932      00000000 
 932      00000000 
 932      00000000 
 932      00000000 
 933 0400 FF       		.byte	-1
 934 0401 00000000 		.space	19
 934      00000000 
 934      00000000 
 934      00000000 
 934      000000
 935 0414 00000000 		.word	0
 936 0418 00000000 		.space	4
 937 041c 00000000 		.word	0
 938 0420 00000000 		.space	8
 938      00000000 
 939 0428 00000000 		.word	0
 940 042c 00000000 		.space	4
 941 0430 00000000 		.word	0
 942 0434 00000000 		.word	0
 943 0438 00000000 		.word	0
 944 043c 00000000 		.space	8
 944      00000000 
 945              		.section	.data.BspUSB_VCP,"aw"
 946              		.align	2
 949              	BspUSB_VCP:
 950 0000 00000000 		.word	BspUSB_Init
ARM GAS  C:\Users\8bit\AppData\Local\Temp\cch4jWL1.s 			page 25


 951 0004 00000000 		.word	BspUSB_DeInit
 952 0008 00000000 		.word	BspUSB_Send
 953 000c 00000000 		.word	BspUSB_Set_Rx_Callback
 954 0010 00000000 		.word	BspUSB_Set_Tx_Callback
 955 0014 00000000 		.word	BspUSB_Set_Connect_Callback
 956 0018 00000000 		.space	4
 957 001c 00000000 		.word	BspUSB_CheckConnect
 958              		.text
 959              	.Letext0:
 960              		.file 2 "c:\\program files (x86)\\gnu arm embedded toolchain\\10 2021.10\\arm-none-eabi\\include\\
 961              		.file 3 "c:\\program files (x86)\\gnu arm embedded toolchain\\10 2021.10\\arm-none-eabi\\include\\
 962              		.file 4 "DataStructure/CusQueue.h"
 963              		.file 5 "HW_Lib/Port_Def/Bsp_USB_Port_Def.h"
 964              		.file 6 "HW_Lib/AT32F435/bsp/Bsp_USB.h"
 965              		.file 7 "HW_Lib/AT32F435/device_support/system_at32f435_437.h"
 966              		.file 8 "HW_Lib/AT32F435/device_support/at32f435_437.h"
 967              		.file 9 "HW_Lib/AT32F435/drivers/inc/at32f435_437_crm.h"
 968              		.file 10 "HW_Lib/AT32F435/drivers/inc/at32f435_437_tmr.h"
 969              		.file 11 "HW_Lib/AT32F435/drivers/inc/at32f435_437_gpio.h"
 970              		.file 12 "HW_Lib/AT32F435/drivers/inc/at32f435_437_misc.h"
 971              		.file 13 "HW_Lib/AT32F435/drivers/inc/at32f435_437_usb.h"
 972              		.file 14 "HW_Lib/AT32F435/USB/usb_drivers/inc/usb_std.h"
 973              		.file 15 "HW_Lib/AT32F435/USB/usb_drivers/inc/usbd_core.h"
 974              		.file 16 "HW_Lib/AT32F435/USB/usb_drivers/inc/usb_core.h"
 975              		.file 17 "HW_Lib/AT32F435/USB/usbd_class/cdc/cdc_class.h"
 976              		.file 18 "HW_Lib/AT32F435/USB/usbd_class/cdc/cdc_desc.h"
 977              		.file 19 "HW_Lib/AT32F435/USB/usb_drivers/inc/usbd_int.h"
 978              		.file 20 "<built-in>"
ARM GAS  C:\Users\8bit\AppData\Local\Temp\cch4jWL1.s 			page 26

