ARM GAS  C:\Users\HUAV\AppData\Local\Temp\ccXi8vBQ.s 			page 1


   1              		.cpu cortex-m7
   2              		.eabi_attribute 28, 1
   3              		.eabi_attribute 20, 1
   4              		.eabi_attribute 21, 1
   5              		.eabi_attribute 23, 3
   6              		.eabi_attribute 24, 1
   7              		.eabi_attribute 25, 1
   8              		.eabi_attribute 26, 1
   9              		.eabi_attribute 30, 1
  10              		.eabi_attribute 34, 1
  11              		.eabi_attribute 18, 4
  12              		.file	"Bsp_Uart.c"
  13              		.text
  14              	.Ltext0:
  15              		.cfi_sections	.debug_frame
  16              		.section	.text.BspUart_Transfer,"ax",%progbits
  17              		.align	1
  18              		.arch armv7e-m
  19              		.syntax unified
  20              		.thumb
  21              		.thumb_func
  22              		.fpu fpv5-d16
  24              	BspUart_Transfer:
  25              	.LVL0:
  26              	.LFB153:
  27              		.file 1 "Bsp/Bsp_Uart.c"
   1:Bsp/Bsp_Uart.c **** /*
   2:Bsp/Bsp_Uart.c ****  * coder : 8_B!T0
   3:Bsp/Bsp_Uart.c ****  * bref : default using uart dma transfer
   4:Bsp/Bsp_Uart.c ****  */
   5:Bsp/Bsp_Uart.c **** #include "stm32h743xx.h"
   6:Bsp/Bsp_Uart.c **** #include "stm32h7xx_hal.h"
   7:Bsp/Bsp_Uart.c **** #include "stm32h7xx_hal_rcc.h"
   8:Bsp/Bsp_Uart.c **** #include "stm32h7xx_hal_uart.h"
   9:Bsp/Bsp_Uart.c **** #include "Bsp_Uart.h"
  10:Bsp/Bsp_Uart.c **** 
  11:Bsp/Bsp_Uart.c **** #define BspUart_Opr_TimeOut 100 // 100ms
  12:Bsp/Bsp_Uart.c **** 
  13:Bsp/Bsp_Uart.c **** /* internal variable */
  14:Bsp/Bsp_Uart.c **** static BspUARTObj_TypeDef *BspUart_Obj_List[BspUART_Port_Sum] = {NULL};
  15:Bsp/Bsp_Uart.c **** 
  16:Bsp/Bsp_Uart.c **** /* external function */
  17:Bsp/Bsp_Uart.c **** static bool BspUart_Init(BspUARTObj_TypeDef *obj);
  18:Bsp/Bsp_Uart.c **** bool BspUart_Set_DataBit(BspUARTObj_TypeDef *obj, uint32_t bit);
  19:Bsp/Bsp_Uart.c **** bool BspUart_Set_Parity(BspUARTObj_TypeDef *obj, uint32_t parity);
  20:Bsp/Bsp_Uart.c **** bool BspUart_Set_StopBit(BspUARTObj_TypeDef *obj, uint32_t stop_bit);
  21:Bsp/Bsp_Uart.c **** bool BspUart_Swap_Pin(BspUARTObj_TypeDef *obj, bool swap);
  22:Bsp/Bsp_Uart.c **** static bool BspUart_Transfer(BspUARTObj_TypeDef *obj, uint8_t *tx_buf, uint16_t size, bool wait_til
  23:Bsp/Bsp_Uart.c **** 
  24:Bsp/Bsp_Uart.c **** BspUART_TypeDef BspUart = {
  25:Bsp/Bsp_Uart.c ****     .init = BspUart_Init,
  26:Bsp/Bsp_Uart.c ****     .set_parity = BspUart_Set_Parity,
  27:Bsp/Bsp_Uart.c ****     .set_stop_bit = BspUart_Set_StopBit,
  28:Bsp/Bsp_Uart.c ****     .set_data_bit = BspUart_Set_DataBit,
  29:Bsp/Bsp_Uart.c ****     .set_swap = BspUart_Swap_Pin,
  30:Bsp/Bsp_Uart.c ****     .send = BspUart_Transfer,
  31:Bsp/Bsp_Uart.c **** };
ARM GAS  C:\Users\HUAV\AppData\Local\Temp\ccXi8vBQ.s 			page 2


  32:Bsp/Bsp_Uart.c **** 
  33:Bsp/Bsp_Uart.c **** static int BspUart_Init_Clock(BspUARTObj_TypeDef *obj)
  34:Bsp/Bsp_Uart.c **** {
  35:Bsp/Bsp_Uart.c ****     RCC_PeriphCLKInitTypeDef PeriphClkInitStruct = {0};
  36:Bsp/Bsp_Uart.c ****     int8_t index = Bspuart_None_Index;
  37:Bsp/Bsp_Uart.c **** 
  38:Bsp/Bsp_Uart.c ****     if ((obj == NULL) ||
  39:Bsp/Bsp_Uart.c ****         (obj->instance == NULL))
  40:Bsp/Bsp_Uart.c ****         return BspUart_Clock_Error;
  41:Bsp/Bsp_Uart.c **** 
  42:Bsp/Bsp_Uart.c ****     if (obj->instance == UART4)
  43:Bsp/Bsp_Uart.c ****     {
  44:Bsp/Bsp_Uart.c ****         PeriphClkInitStruct.PeriphClockSelection = RCC_PERIPHCLK_UART4;
  45:Bsp/Bsp_Uart.c ****         PeriphClkInitStruct.Usart234578ClockSelection = RCC_USART234578CLKSOURCE_D2PCLK1;
  46:Bsp/Bsp_Uart.c **** 
  47:Bsp/Bsp_Uart.c ****         if (HAL_RCCEx_PeriphCLKConfig(&PeriphClkInitStruct) != HAL_OK)
  48:Bsp/Bsp_Uart.c ****             return BspUart_Clock_Error;
  49:Bsp/Bsp_Uart.c **** 
  50:Bsp/Bsp_Uart.c ****         __HAL_RCC_UART4_CLK_ENABLE();
  51:Bsp/Bsp_Uart.c ****         index = BspUART_Port_4;
  52:Bsp/Bsp_Uart.c ****     }
  53:Bsp/Bsp_Uart.c ****     else if (obj->instance == USART6)
  54:Bsp/Bsp_Uart.c ****     {
  55:Bsp/Bsp_Uart.c ****         PeriphClkInitStruct.PeriphClockSelection = RCC_PERIPHCLK_USART6;
  56:Bsp/Bsp_Uart.c ****         PeriphClkInitStruct.Usart16ClockSelection = RCC_USART16CLKSOURCE_D2PCLK2;
  57:Bsp/Bsp_Uart.c **** 
  58:Bsp/Bsp_Uart.c ****         if (HAL_RCCEx_PeriphCLKConfig(&PeriphClkInitStruct) != HAL_OK)
  59:Bsp/Bsp_Uart.c ****             return BspUart_Clock_Error;
  60:Bsp/Bsp_Uart.c **** 
  61:Bsp/Bsp_Uart.c ****         __HAL_RCC_USART6_CLK_ENABLE();
  62:Bsp/Bsp_Uart.c ****         index = BspUART_Port_6;
  63:Bsp/Bsp_Uart.c ****     }
  64:Bsp/Bsp_Uart.c ****     else if (obj->instance == UART7)
  65:Bsp/Bsp_Uart.c ****     {
  66:Bsp/Bsp_Uart.c ****         PeriphClkInitStruct.PeriphClockSelection = RCC_PERIPHCLK_UART7;
  67:Bsp/Bsp_Uart.c ****         PeriphClkInitStruct.Usart234578ClockSelection = RCC_USART234578CLKSOURCE_D2PCLK1;
  68:Bsp/Bsp_Uart.c **** 
  69:Bsp/Bsp_Uart.c ****         if (HAL_RCCEx_PeriphCLKConfig(&PeriphClkInitStruct) != HAL_OK)
  70:Bsp/Bsp_Uart.c ****             return BspUart_Clock_Error;
  71:Bsp/Bsp_Uart.c **** 
  72:Bsp/Bsp_Uart.c ****         __HAL_RCC_UART7_CLK_ENABLE();
  73:Bsp/Bsp_Uart.c ****         index = BspUART_Port_7;
  74:Bsp/Bsp_Uart.c ****     }
  75:Bsp/Bsp_Uart.c ****     else
  76:Bsp/Bsp_Uart.c ****         return BspUart_Clock_Error;
  77:Bsp/Bsp_Uart.c **** 
  78:Bsp/Bsp_Uart.c ****     /* rx tx pin init */
  79:Bsp/Bsp_Uart.c ****     BspGPIO.alt_init(obj->rx_io);
  80:Bsp/Bsp_Uart.c ****     BspGPIO.alt_init(obj->tx_io);
  81:Bsp/Bsp_Uart.c **** 
  82:Bsp/Bsp_Uart.c ****     return index;
  83:Bsp/Bsp_Uart.c **** }
  84:Bsp/Bsp_Uart.c **** 
  85:Bsp/Bsp_Uart.c **** static int BspUart_Init_DMA(BspUARTObj_TypeDef *obj)
  86:Bsp/Bsp_Uart.c **** {
  87:Bsp/Bsp_Uart.c ****     DMA_HandleTypeDef tx_dma_cfg = {0};
  88:Bsp/Bsp_Uart.c ****     DMA_HandleTypeDef rx_dma_cfg = {0};
ARM GAS  C:\Users\HUAV\AppData\Local\Temp\ccXi8vBQ.s 			page 3


  89:Bsp/Bsp_Uart.c ****     int8_t index = Bspuart_None_Index;
  90:Bsp/Bsp_Uart.c **** 
  91:Bsp/Bsp_Uart.c ****     tx_dma_cfg.Init.PeriphInc = DMA_PINC_DISABLE;
  92:Bsp/Bsp_Uart.c ****     tx_dma_cfg.Init.MemInc = DMA_MINC_ENABLE;
  93:Bsp/Bsp_Uart.c ****     tx_dma_cfg.Init.PeriphDataAlignment = DMA_PDATAALIGN_BYTE;
  94:Bsp/Bsp_Uart.c ****     tx_dma_cfg.Init.MemDataAlignment = DMA_MDATAALIGN_BYTE;
  95:Bsp/Bsp_Uart.c ****     tx_dma_cfg.Init.Mode = DMA_NORMAL;
  96:Bsp/Bsp_Uart.c ****     tx_dma_cfg.Init.Priority = DMA_PRIORITY_MEDIUM;
  97:Bsp/Bsp_Uart.c ****     tx_dma_cfg.Init.FIFOMode = DMA_FIFOMODE_DISABLE;
  98:Bsp/Bsp_Uart.c ****     tx_dma_cfg.Init.Direction = DMA_MEMORY_TO_PERIPH;
  99:Bsp/Bsp_Uart.c **** 
 100:Bsp/Bsp_Uart.c ****     rx_dma_cfg.Init.PeriphInc = DMA_PINC_DISABLE;
 101:Bsp/Bsp_Uart.c ****     rx_dma_cfg.Init.MemInc = DMA_MINC_ENABLE;
 102:Bsp/Bsp_Uart.c ****     rx_dma_cfg.Init.PeriphDataAlignment = DMA_PDATAALIGN_BYTE;
 103:Bsp/Bsp_Uart.c ****     rx_dma_cfg.Init.MemDataAlignment = DMA_MDATAALIGN_BYTE;
 104:Bsp/Bsp_Uart.c ****     rx_dma_cfg.Init.Mode = DMA_NORMAL;
 105:Bsp/Bsp_Uart.c ****     rx_dma_cfg.Init.Priority = DMA_PRIORITY_MEDIUM;
 106:Bsp/Bsp_Uart.c ****     rx_dma_cfg.Init.FIFOMode = DMA_FIFOMODE_DISABLE;
 107:Bsp/Bsp_Uart.c ****     rx_dma_cfg.Init.Direction = DMA_PERIPH_TO_MEMORY;
 108:Bsp/Bsp_Uart.c **** 
 109:Bsp/Bsp_Uart.c ****     if ((obj == NULL) ||
 110:Bsp/Bsp_Uart.c ****         (obj->instance == NULL))
 111:Bsp/Bsp_Uart.c ****         return BspUart_Clock_Error;
 112:Bsp/Bsp_Uart.c **** 
 113:Bsp/Bsp_Uart.c ****     if (obj->instance == UART4)
 114:Bsp/Bsp_Uart.c ****     {
 115:Bsp/Bsp_Uart.c ****         rx_dma_cfg.Init.Request = DMA_REQUEST_UART4_RX;
 116:Bsp/Bsp_Uart.c ****         tx_dma_cfg.Init.Request = DMA_REQUEST_UART4_TX;
 117:Bsp/Bsp_Uart.c **** 
 118:Bsp/Bsp_Uart.c ****         index = BspUART_Port_4;
 119:Bsp/Bsp_Uart.c ****     }
 120:Bsp/Bsp_Uart.c ****     else if (obj->instance == USART6)
 121:Bsp/Bsp_Uart.c ****     {
 122:Bsp/Bsp_Uart.c ****         rx_dma_cfg.Init.Request = DMA_REQUEST_USART6_RX;
 123:Bsp/Bsp_Uart.c ****         tx_dma_cfg.Init.Request = DMA_REQUEST_USART6_TX;
 124:Bsp/Bsp_Uart.c **** 
 125:Bsp/Bsp_Uart.c ****         index = BspUART_Port_6;
 126:Bsp/Bsp_Uart.c ****     }
 127:Bsp/Bsp_Uart.c ****     else if (obj->instance == UART7)
 128:Bsp/Bsp_Uart.c ****     {
 129:Bsp/Bsp_Uart.c ****         rx_dma_cfg.Init.Request = DMA_REQUEST_UART7_RX;
 130:Bsp/Bsp_Uart.c ****         tx_dma_cfg.Init.Request = DMA_REQUEST_UART7_TX;
 131:Bsp/Bsp_Uart.c **** 
 132:Bsp/Bsp_Uart.c ****         index = BspUART_Port_7;
 133:Bsp/Bsp_Uart.c ****     }
 134:Bsp/Bsp_Uart.c ****     else
 135:Bsp/Bsp_Uart.c ****         return BspUart_Clock_Error;
 136:Bsp/Bsp_Uart.c **** 
 137:Bsp/Bsp_Uart.c ****     obj->tx_dma_hdl = tx_dma_cfg;
 138:Bsp/Bsp_Uart.c ****     obj->rx_dma_hdl = rx_dma_cfg;
 139:Bsp/Bsp_Uart.c **** 
 140:Bsp/Bsp_Uart.c ****     if (!BspDMA.regist(obj->rx_dma, obj->rx_stream, &(obj->rx_dma_hdl)) ||
 141:Bsp/Bsp_Uart.c ****         !BspDMA.regist(obj->tx_dma, obj->tx_stream, &(obj->tx_dma_hdl)))
 142:Bsp/Bsp_Uart.c ****         return BspUart_Clock_Error;
 143:Bsp/Bsp_Uart.c **** 
 144:Bsp/Bsp_Uart.c ****     if (HAL_DMA_Init(&(obj->rx_dma_hdl)) != HAL_OK)
 145:Bsp/Bsp_Uart.c ****         return BspUart_Clock_Error;
ARM GAS  C:\Users\HUAV\AppData\Local\Temp\ccXi8vBQ.s 			page 4


 146:Bsp/Bsp_Uart.c **** 
 147:Bsp/Bsp_Uart.c ****     __HAL_LINKDMA(&(obj->hdl), hdmarx, obj->rx_dma_hdl);
 148:Bsp/Bsp_Uart.c **** 
 149:Bsp/Bsp_Uart.c ****     if (HAL_DMA_Init(&(obj->tx_dma_hdl)) != HAL_OK)
 150:Bsp/Bsp_Uart.c ****         return BspUart_Clock_Error;
 151:Bsp/Bsp_Uart.c **** 
 152:Bsp/Bsp_Uart.c ****     __HAL_LINKDMA(&(obj->hdl), hdmatx, obj->tx_dma_hdl);
 153:Bsp/Bsp_Uart.c **** 
 154:Bsp/Bsp_Uart.c ****     return index;
 155:Bsp/Bsp_Uart.c **** }
 156:Bsp/Bsp_Uart.c **** 
 157:Bsp/Bsp_Uart.c **** static int BspUart_SetIRQ(BspUARTObj_TypeDef *obj)
 158:Bsp/Bsp_Uart.c **** {
 159:Bsp/Bsp_Uart.c ****     IRQn_Type irqn;
 160:Bsp/Bsp_Uart.c ****     int8_t index = Bspuart_None_Index;
 161:Bsp/Bsp_Uart.c **** 
 162:Bsp/Bsp_Uart.c ****     if ((obj == NULL) ||
 163:Bsp/Bsp_Uart.c ****         (obj->instance == NULL))
 164:Bsp/Bsp_Uart.c ****         return BspUart_Clock_Error;
 165:Bsp/Bsp_Uart.c **** 
 166:Bsp/Bsp_Uart.c ****     if (obj->instance == UART4)
 167:Bsp/Bsp_Uart.c ****     {
 168:Bsp/Bsp_Uart.c ****         irqn = UART4_IRQn;
 169:Bsp/Bsp_Uart.c ****         index = BspUART_Port_4;
 170:Bsp/Bsp_Uart.c ****     }
 171:Bsp/Bsp_Uart.c ****     else if (obj->instance == USART6)
 172:Bsp/Bsp_Uart.c ****     {
 173:Bsp/Bsp_Uart.c ****         irqn = USART6_IRQn;
 174:Bsp/Bsp_Uart.c ****         index = BspUART_Port_6;
 175:Bsp/Bsp_Uart.c ****     }
 176:Bsp/Bsp_Uart.c ****     else if (obj->instance == UART7)
 177:Bsp/Bsp_Uart.c ****     {
 178:Bsp/Bsp_Uart.c ****         irqn = UART7_IRQn;
 179:Bsp/Bsp_Uart.c ****         index = BspUART_Port_7;
 180:Bsp/Bsp_Uart.c ****     }
 181:Bsp/Bsp_Uart.c ****     else
 182:Bsp/Bsp_Uart.c ****         return Bspuart_None_Index;
 183:Bsp/Bsp_Uart.c **** 
 184:Bsp/Bsp_Uart.c ****     HAL_NVIC_SetPriority(irqn, 5, 0);
 185:Bsp/Bsp_Uart.c ****     HAL_NVIC_EnableIRQ(irqn);
 186:Bsp/Bsp_Uart.c **** 
 187:Bsp/Bsp_Uart.c ****     return index;
 188:Bsp/Bsp_Uart.c **** }
 189:Bsp/Bsp_Uart.c **** 
 190:Bsp/Bsp_Uart.c **** static bool BspUart_Init(BspUARTObj_TypeDef *obj)
 191:Bsp/Bsp_Uart.c **** {
 192:Bsp/Bsp_Uart.c ****     UART_HandleTypeDef uart_cfg;
 193:Bsp/Bsp_Uart.c ****     int8_t port_index;
 194:Bsp/Bsp_Uart.c **** 
 195:Bsp/Bsp_Uart.c ****     obj->init_state = false;
 196:Bsp/Bsp_Uart.c **** 
 197:Bsp/Bsp_Uart.c ****     port_index = BspUart_Init_Clock(obj);
 198:Bsp/Bsp_Uart.c **** 
 199:Bsp/Bsp_Uart.c ****     if (port_index < 0)
 200:Bsp/Bsp_Uart.c ****         return false;
 201:Bsp/Bsp_Uart.c **** 
 202:Bsp/Bsp_Uart.c ****     uart_cfg.Instance = obj->instance;
ARM GAS  C:\Users\HUAV\AppData\Local\Temp\ccXi8vBQ.s 			page 5


 203:Bsp/Bsp_Uart.c ****     uart_cfg.Init.BaudRate = obj->baudrate;
 204:Bsp/Bsp_Uart.c ****     uart_cfg.Init.WordLength = UART_WORDLENGTH_8B;
 205:Bsp/Bsp_Uart.c ****     uart_cfg.Init.StopBits = UART_STOPBITS_1;
 206:Bsp/Bsp_Uart.c ****     uart_cfg.Init.Parity = UART_PARITY_NONE;
 207:Bsp/Bsp_Uart.c ****     uart_cfg.Init.Mode = UART_MODE_TX_RX;
 208:Bsp/Bsp_Uart.c ****     uart_cfg.Init.HwFlowCtl = UART_HWCONTROL_NONE;
 209:Bsp/Bsp_Uart.c ****     uart_cfg.Init.OverSampling = UART_OVERSAMPLING_16;
 210:Bsp/Bsp_Uart.c ****     uart_cfg.Init.OneBitSampling = UART_ONE_BIT_SAMPLE_DISABLE;
 211:Bsp/Bsp_Uart.c ****     uart_cfg.Init.ClockPrescaler = UART_PRESCALER_DIV1;
 212:Bsp/Bsp_Uart.c ****     uart_cfg.AdvancedInit.AdvFeatureInit = UART_ADVFEATURE_RXOVERRUNDISABLE_INIT | UART_ADVFEATURE_
 213:Bsp/Bsp_Uart.c ****     uart_cfg.AdvancedInit.OverrunDisable = UART_ADVFEATURE_OVERRUN_DISABLE;
 214:Bsp/Bsp_Uart.c ****     uart_cfg.AdvancedInit.DMADisableonRxError = UART_ADVFEATURE_DMA_DISABLEONRXERROR;
 215:Bsp/Bsp_Uart.c **** 
 216:Bsp/Bsp_Uart.c ****     /* swap tx rx pin */
 217:Bsp/Bsp_Uart.c ****     if (obj->pin_swap)
 218:Bsp/Bsp_Uart.c ****         uart_cfg.AdvancedInit.Swap = UART_ADVFEATURE_SWAP_ENABLE;
 219:Bsp/Bsp_Uart.c **** 
 220:Bsp/Bsp_Uart.c ****     obj->hdl = uart_cfg;
 221:Bsp/Bsp_Uart.c **** 
 222:Bsp/Bsp_Uart.c ****     if (HAL_UART_Init(&obj->hdl) != HAL_OK)
 223:Bsp/Bsp_Uart.c ****         return false;
 224:Bsp/Bsp_Uart.c **** 
 225:Bsp/Bsp_Uart.c ****     if (BspUart_Init_DMA(obj) < 0)
 226:Bsp/Bsp_Uart.c ****     {
 227:Bsp/Bsp_Uart.c ****         obj->irq_type = BspUart_IRQ_Type_Byte;
 228:Bsp/Bsp_Uart.c ****     }
 229:Bsp/Bsp_Uart.c ****     else
 230:Bsp/Bsp_Uart.c ****         obj->irq_type = BspUart_IRQ_Type_Idle;
 231:Bsp/Bsp_Uart.c **** 
 232:Bsp/Bsp_Uart.c ****     if (HAL_UARTEx_SetTxFifoThreshold(&uart_cfg, UART_TXFIFO_THRESHOLD_1_8) != HAL_OK ||
 233:Bsp/Bsp_Uart.c ****         HAL_UARTEx_SetRxFifoThreshold(&uart_cfg, UART_RXFIFO_THRESHOLD_1_8) != HAL_OK ||
 234:Bsp/Bsp_Uart.c ****         HAL_UARTEx_DisableFifoMode(&uart_cfg) != HAL_OK)
 235:Bsp/Bsp_Uart.c ****         return false;
 236:Bsp/Bsp_Uart.c **** 
 237:Bsp/Bsp_Uart.c ****     if ((obj->rx_buf == NULL) || (obj->rx_size == 0))
 238:Bsp/Bsp_Uart.c ****         return false;
 239:Bsp/Bsp_Uart.c **** 
 240:Bsp/Bsp_Uart.c ****     BspUart_Obj_List[port_index] = obj;
 241:Bsp/Bsp_Uart.c ****     obj->send_finish = false;
 242:Bsp/Bsp_Uart.c ****     obj->wait_till_send_finish = false;
 243:Bsp/Bsp_Uart.c **** 
 244:Bsp/Bsp_Uart.c ****     memset(&(obj->monitor), NULL, sizeof(obj->monitor));
 245:Bsp/Bsp_Uart.c **** 
 246:Bsp/Bsp_Uart.c ****     /* enable irq callback */
 247:Bsp/Bsp_Uart.c ****     switch (obj->irq_type)
 248:Bsp/Bsp_Uart.c ****     {
 249:Bsp/Bsp_Uart.c ****     case BspUart_IRQ_Type_Idle:
 250:Bsp/Bsp_Uart.c ****         __HAL_UART_ENABLE_IT(&(obj->hdl), UART_IT_IDLE);
 251:Bsp/Bsp_Uart.c ****         break;
 252:Bsp/Bsp_Uart.c **** 
 253:Bsp/Bsp_Uart.c ****     case BspUart_IRQ_Type_Byte:
 254:Bsp/Bsp_Uart.c ****         __HAL_UART_ENABLE_IT(&(obj->hdl), UART_IT_RXNE);
 255:Bsp/Bsp_Uart.c ****         break;
 256:Bsp/Bsp_Uart.c **** 
 257:Bsp/Bsp_Uart.c ****     default:
 258:Bsp/Bsp_Uart.c ****         return false;
 259:Bsp/Bsp_Uart.c ****     }
ARM GAS  C:\Users\HUAV\AppData\Local\Temp\ccXi8vBQ.s 			page 6


 260:Bsp/Bsp_Uart.c **** 
 261:Bsp/Bsp_Uart.c ****     __HAL_UART_DISABLE_IT(&(obj->hdl), UART_IT_ERR);
 262:Bsp/Bsp_Uart.c ****     __HAL_UART_DISABLE_IT(&(obj->hdl), UART_IT_PE);
 263:Bsp/Bsp_Uart.c **** 
 264:Bsp/Bsp_Uart.c ****     if (BspUart_SetIRQ(obj) < 0)
 265:Bsp/Bsp_Uart.c ****         return false;
 266:Bsp/Bsp_Uart.c **** 
 267:Bsp/Bsp_Uart.c ****     if (obj->irq_type == BspUart_IRQ_Type_Idle)
 268:Bsp/Bsp_Uart.c ****     {
 269:Bsp/Bsp_Uart.c ****         /* start dma receive data */
 270:Bsp/Bsp_Uart.c ****         HAL_UART_Receive_DMA(&(obj->hdl), obj->rx_buf, obj->rx_size);
 271:Bsp/Bsp_Uart.c ****     }
 272:Bsp/Bsp_Uart.c ****     else if (obj->irq_type == BspUart_IRQ_Type_Byte)
 273:Bsp/Bsp_Uart.c ****     {
 274:Bsp/Bsp_Uart.c ****         /* start receive irq */
 275:Bsp/Bsp_Uart.c ****         HAL_UART_Receive_IT(&(obj->hdl), &obj->rx_single_byte, 1);
 276:Bsp/Bsp_Uart.c ****     }
 277:Bsp/Bsp_Uart.c **** 
 278:Bsp/Bsp_Uart.c ****     obj->init_state = true;
 279:Bsp/Bsp_Uart.c ****     return true;
 280:Bsp/Bsp_Uart.c **** }
 281:Bsp/Bsp_Uart.c **** 
 282:Bsp/Bsp_Uart.c **** bool BspUart_Set_DataBit(BspUARTObj_TypeDef *obj, uint32_t bit)
 283:Bsp/Bsp_Uart.c **** {
 284:Bsp/Bsp_Uart.c ****     if (obj || !obj->init_state)
 285:Bsp/Bsp_Uart.c ****         return false;
 286:Bsp/Bsp_Uart.c **** 
 287:Bsp/Bsp_Uart.c ****     obj->hdl.Init.WordLength = bit;
 288:Bsp/Bsp_Uart.c **** 
 289:Bsp/Bsp_Uart.c ****     if (HAL_UART_Init(&obj->hdl) != HAL_OK)
 290:Bsp/Bsp_Uart.c ****         return false;
 291:Bsp/Bsp_Uart.c **** 
 292:Bsp/Bsp_Uart.c ****     return true;
 293:Bsp/Bsp_Uart.c **** }
 294:Bsp/Bsp_Uart.c **** 
 295:Bsp/Bsp_Uart.c **** bool BspUart_Set_Parity(BspUARTObj_TypeDef *obj, uint32_t parity)
 296:Bsp/Bsp_Uart.c **** {
 297:Bsp/Bsp_Uart.c ****     if (obj || !obj->init_state)
 298:Bsp/Bsp_Uart.c ****         return false;
 299:Bsp/Bsp_Uart.c **** 
 300:Bsp/Bsp_Uart.c ****     obj->hdl.Init.Parity = parity;
 301:Bsp/Bsp_Uart.c **** 
 302:Bsp/Bsp_Uart.c ****     if (HAL_UART_Init(&obj->hdl) != HAL_OK)
 303:Bsp/Bsp_Uart.c ****         return false;
 304:Bsp/Bsp_Uart.c **** 
 305:Bsp/Bsp_Uart.c ****     return true;
 306:Bsp/Bsp_Uart.c **** }
 307:Bsp/Bsp_Uart.c **** 
 308:Bsp/Bsp_Uart.c **** bool BspUart_Set_StopBit(BspUARTObj_TypeDef *obj, uint32_t stop_bit)
 309:Bsp/Bsp_Uart.c **** {
 310:Bsp/Bsp_Uart.c ****     if (obj || !obj->init_state)
 311:Bsp/Bsp_Uart.c ****         return false;
 312:Bsp/Bsp_Uart.c **** 
 313:Bsp/Bsp_Uart.c ****     obj->hdl.Init.StopBits = stop_bit;
 314:Bsp/Bsp_Uart.c **** 
 315:Bsp/Bsp_Uart.c ****     if (HAL_UART_Init(&obj->hdl) != HAL_OK)
 316:Bsp/Bsp_Uart.c ****         return false;
ARM GAS  C:\Users\HUAV\AppData\Local\Temp\ccXi8vBQ.s 			page 7


 317:Bsp/Bsp_Uart.c **** 
 318:Bsp/Bsp_Uart.c ****     return true;
 319:Bsp/Bsp_Uart.c **** }
 320:Bsp/Bsp_Uart.c **** 
 321:Bsp/Bsp_Uart.c **** bool BspUart_Swap_Pin(BspUARTObj_TypeDef *obj, bool swap)
 322:Bsp/Bsp_Uart.c **** {
 323:Bsp/Bsp_Uart.c ****     if (obj || !obj->init_state)
 324:Bsp/Bsp_Uart.c ****         return false;
 325:Bsp/Bsp_Uart.c **** 
 326:Bsp/Bsp_Uart.c ****     obj->pin_swap = swap;
 327:Bsp/Bsp_Uart.c **** 
 328:Bsp/Bsp_Uart.c ****     if (swap)
 329:Bsp/Bsp_Uart.c ****     {
 330:Bsp/Bsp_Uart.c ****         obj->hdl.AdvancedInit.Swap = UART_ADVFEATURE_SWAP_ENABLE;
 331:Bsp/Bsp_Uart.c ****     }
 332:Bsp/Bsp_Uart.c ****     else
 333:Bsp/Bsp_Uart.c ****         obj->hdl.AdvancedInit.Swap = UART_ADVFEATURE_SWAP_DISABLE;
 334:Bsp/Bsp_Uart.c **** 
 335:Bsp/Bsp_Uart.c ****     if (HAL_UART_Init(&obj->hdl) != HAL_OK)
 336:Bsp/Bsp_Uart.c ****         return false;
 337:Bsp/Bsp_Uart.c **** 
 338:Bsp/Bsp_Uart.c ****     return true;
 339:Bsp/Bsp_Uart.c **** }
 340:Bsp/Bsp_Uart.c **** 
 341:Bsp/Bsp_Uart.c **** UART_HandleTypeDef *BspUart_GetObj_Handle(BspUART_Port_List index)
 342:Bsp/Bsp_Uart.c **** {
 343:Bsp/Bsp_Uart.c ****     if (index >= BspUART_Port_Sum)
 344:Bsp/Bsp_Uart.c ****         return NULL;
 345:Bsp/Bsp_Uart.c **** 
 346:Bsp/Bsp_Uart.c ****     return &(BspUart_Obj_List[index]->hdl);
 347:Bsp/Bsp_Uart.c **** }
 348:Bsp/Bsp_Uart.c **** 
 349:Bsp/Bsp_Uart.c **** static bool BspUart_Transfer(BspUARTObj_TypeDef *obj, uint8_t *tx_buf, uint16_t size, bool wait_til
 350:Bsp/Bsp_Uart.c **** {
  28              		.loc 1 350 1 view -0
  29              		.cfi_startproc
  30              		@ args = 0, pretend = 0, frame = 0
  31              		@ frame_needed = 0, uses_anonymous_args = 0
  32              		.loc 1 350 1 is_stmt 0 view .LVU1
  33 0000 70B5     		push	{r4, r5, r6, lr}
  34              	.LCFI0:
  35              		.cfi_def_cfa_offset 16
  36              		.cfi_offset 4, -16
  37              		.cfi_offset 5, -12
  38              		.cfi_offset 6, -8
  39              		.cfi_offset 14, -4
 351:Bsp/Bsp_Uart.c ****     uint8_t time_out = BspUart_Opr_TimeOut;
  40              		.loc 1 351 5 is_stmt 1 view .LVU2
  41              	.LVL1:
 352:Bsp/Bsp_Uart.c **** 
 353:Bsp/Bsp_Uart.c ****     if ((obj == NULL) || (tx_buf == NULL) || (size == 0))
  42              		.loc 1 353 5 view .LVU3
  43              		.loc 1 353 8 is_stmt 0 view .LVU4
  44 0002 0029     		cmp	r1, #0
  45 0004 18BF     		it	ne
  46 0006 0028     		cmpne	r0, #0
  47 0008 0CBF     		ite	eq
ARM GAS  C:\Users\HUAV\AppData\Local\Temp\ccXi8vBQ.s 			page 8


  48 000a 0124     		moveq	r4, #1
  49 000c 0024     		movne	r4, #0
  50 000e 36D0     		beq	.L9
  51 0010 1E46     		mov	r6, r3
  52 0012 0546     		mov	r5, r0
  53              		.loc 1 353 43 discriminator 1 view .LVU5
  54 0014 A2B3     		cbz	r2, .L2
 354:Bsp/Bsp_Uart.c ****         return false;
 355:Bsp/Bsp_Uart.c **** 
 356:Bsp/Bsp_Uart.c ****     /* send data */
 357:Bsp/Bsp_Uart.c ****     switch (HAL_UART_Transmit_DMA(&(obj->hdl), tx_buf, size))
  55              		.loc 1 357 5 is_stmt 1 view .LVU6
  56              		.loc 1 357 13 is_stmt 0 view .LVU7
  57 0016 0930     		adds	r0, r0, #9
  58              	.LVL2:
  59              		.loc 1 357 13 view .LVU8
  60 0018 FFF7FEFF 		bl	HAL_UART_Transmit_DMA
  61              	.LVL3:
  62              		.loc 1 357 5 view .LVU9
  63 001c 48B1     		cbz	r0, .L3
  64 001e 431E     		subs	r3, r0, #1
  65 0020 DBB2     		uxtb	r3, r3
  66 0022 012B     		cmp	r3, #1
  67 0024 14D8     		bhi	.L14
 358:Bsp/Bsp_Uart.c ****     {
 359:Bsp/Bsp_Uart.c ****     case HAL_OK:
 360:Bsp/Bsp_Uart.c ****         obj->monitor.tx_cnt++;
 361:Bsp/Bsp_Uart.c ****         break;
 362:Bsp/Bsp_Uart.c **** 
 363:Bsp/Bsp_Uart.c ****     case HAL_ERROR:
 364:Bsp/Bsp_Uart.c ****     case HAL_BUSY:
 365:Bsp/Bsp_Uart.c ****         obj->monitor.tx_err_cnt++;
  68              		.loc 1 365 9 is_stmt 1 view .LVU10
  69              		.loc 1 365 21 is_stmt 0 view .LVU11
  70 0026 D5F8D031 		ldr	r3, [r5, #464]	@ unaligned
  71              		.loc 1 365 32 view .LVU12
  72 002a 0133     		adds	r3, r3, #1
  73 002c C5F8D031 		str	r3, [r5, #464]	@ unaligned
 366:Bsp/Bsp_Uart.c ****         return false;
  74              		.loc 1 366 9 is_stmt 1 view .LVU13
  75              		.loc 1 366 16 is_stmt 0 view .LVU14
  76 0030 26E0     		b	.L2
  77              	.L3:
 360:Bsp/Bsp_Uart.c ****         break;
  78              		.loc 1 360 9 is_stmt 1 view .LVU15
 360:Bsp/Bsp_Uart.c ****         break;
  79              		.loc 1 360 21 is_stmt 0 view .LVU16
  80 0032 D5F8C031 		ldr	r3, [r5, #448]	@ unaligned
 360:Bsp/Bsp_Uart.c ****         break;
  81              		.loc 1 360 28 view .LVU17
  82 0036 0133     		adds	r3, r3, #1
  83 0038 C5F8C031 		str	r3, [r5, #448]	@ unaligned
 361:Bsp/Bsp_Uart.c **** 
  84              		.loc 1 361 9 is_stmt 1 view .LVU18
 367:Bsp/Bsp_Uart.c **** 
 368:Bsp/Bsp_Uart.c ****     default:
 369:Bsp/Bsp_Uart.c ****         obj->monitor.tx_unknow_err_cnt++;
ARM GAS  C:\Users\HUAV\AppData\Local\Temp\ccXi8vBQ.s 			page 9


 370:Bsp/Bsp_Uart.c ****         return false;
 371:Bsp/Bsp_Uart.c ****     }
 372:Bsp/Bsp_Uart.c **** 
 373:Bsp/Bsp_Uart.c ****     obj->wait_till_send_finish = wait_till_finish;
  85              		.loc 1 373 5 view .LVU19
  86              		.loc 1 373 32 is_stmt 0 view .LVU20
  87 003c 85F8B861 		strb	r6, [r5, #440]
 374:Bsp/Bsp_Uart.c ****     if (wait_till_finish)
  88              		.loc 1 374 5 is_stmt 1 view .LVU21
  89              		.loc 1 374 8 is_stmt 0 view .LVU22
  90 0040 96B9     		cbnz	r6, .L10
  91              	.LVL4:
  92              	.L7:
 375:Bsp/Bsp_Uart.c ****     {
 376:Bsp/Bsp_Uart.c ****         while (!obj->send_finish)
 377:Bsp/Bsp_Uart.c ****         {
 378:Bsp/Bsp_Uart.c ****             if ((time_out--) == 0)
 379:Bsp/Bsp_Uart.c ****             {
 380:Bsp/Bsp_Uart.c ****                 obj->monitor.tx_err_cnt++;
 381:Bsp/Bsp_Uart.c ****                 return false;
 382:Bsp/Bsp_Uart.c ****             }
 383:Bsp/Bsp_Uart.c ****         }
 384:Bsp/Bsp_Uart.c ****     }
 385:Bsp/Bsp_Uart.c ****     obj->monitor.tx_success_cnt++;
  93              		.loc 1 385 5 is_stmt 1 view .LVU23
  94              		.loc 1 385 17 is_stmt 0 view .LVU24
  95 0042 D5F8CC31 		ldr	r3, [r5, #460]	@ unaligned
  96              		.loc 1 385 32 view .LVU25
  97 0046 0133     		adds	r3, r3, #1
  98 0048 C5F8CC31 		str	r3, [r5, #460]	@ unaligned
 386:Bsp/Bsp_Uart.c **** 
 387:Bsp/Bsp_Uart.c ****     return true;
  99              		.loc 1 387 5 is_stmt 1 view .LVU26
 100              		.loc 1 387 12 is_stmt 0 view .LVU27
 101 004c 0124     		movs	r4, #1
 102 004e 17E0     		b	.L2
 103              	.LVL5:
 104              	.L14:
 369:Bsp/Bsp_Uart.c ****         return false;
 105              		.loc 1 369 9 is_stmt 1 view .LVU28
 369:Bsp/Bsp_Uart.c ****         return false;
 106              		.loc 1 369 21 is_stmt 0 view .LVU29
 107 0050 D5F8D431 		ldr	r3, [r5, #468]	@ unaligned
 369:Bsp/Bsp_Uart.c ****         return false;
 108              		.loc 1 369 39 view .LVU30
 109 0054 0133     		adds	r3, r3, #1
 110 0056 C5F8D431 		str	r3, [r5, #468]	@ unaligned
 370:Bsp/Bsp_Uart.c ****     }
 111              		.loc 1 370 9 is_stmt 1 view .LVU31
 370:Bsp/Bsp_Uart.c ****     }
 112              		.loc 1 370 16 is_stmt 0 view .LVU32
 113 005a 11E0     		b	.L2
 114              	.LVL6:
 115              	.L15:
 380:Bsp/Bsp_Uart.c ****                 return false;
 116              		.loc 1 380 17 is_stmt 1 view .LVU33
 380:Bsp/Bsp_Uart.c ****                 return false;
ARM GAS  C:\Users\HUAV\AppData\Local\Temp\ccXi8vBQ.s 			page 10


 117              		.loc 1 380 29 is_stmt 0 view .LVU34
 118 005c D5F8D031 		ldr	r3, [r5, #464]	@ unaligned
 119              	.LVL7:
 380:Bsp/Bsp_Uart.c ****                 return false;
 120              		.loc 1 380 40 view .LVU35
 121 0060 0133     		adds	r3, r3, #1
 122 0062 C5F8D031 		str	r3, [r5, #464]	@ unaligned
 381:Bsp/Bsp_Uart.c ****             }
 123              		.loc 1 381 17 is_stmt 1 view .LVU36
 381:Bsp/Bsp_Uart.c ****             }
 124              		.loc 1 381 24 is_stmt 0 view .LVU37
 125 0066 0BE0     		b	.L2
 126              	.LVL8:
 127              	.L10:
 351:Bsp/Bsp_Uart.c **** 
 128              		.loc 1 351 13 view .LVU38
 129 0068 6422     		movs	r2, #100
 130              	.LVL9:
 131              	.L6:
 376:Bsp/Bsp_Uart.c ****         {
 132              		.loc 1 376 15 is_stmt 1 view .LVU39
 376:Bsp/Bsp_Uart.c ****         {
 133              		.loc 1 376 20 is_stmt 0 view .LVU40
 134 006a 95F8B941 		ldrb	r4, [r5, #441]	@ zero_extendqisi2
 376:Bsp/Bsp_Uart.c ****         {
 135              		.loc 1 376 15 view .LVU41
 136 006e 002C     		cmp	r4, #0
 137 0070 E7D1     		bne	.L7
 378:Bsp/Bsp_Uart.c ****             {
 138              		.loc 1 378 13 is_stmt 1 view .LVU42
 378:Bsp/Bsp_Uart.c ****             {
 139              		.loc 1 378 26 is_stmt 0 view .LVU43
 140 0072 531E     		subs	r3, r2, #1
 141 0074 DBB2     		uxtb	r3, r3
 142              	.LVL10:
 378:Bsp/Bsp_Uart.c ****             {
 143              		.loc 1 378 16 view .LVU44
 144 0076 002A     		cmp	r2, #0
 145 0078 F0D0     		beq	.L15
 378:Bsp/Bsp_Uart.c ****             {
 146              		.loc 1 378 26 view .LVU45
 147 007a 1A46     		mov	r2, r3
 148 007c F5E7     		b	.L6
 149              	.LVL11:
 150              	.L9:
 354:Bsp/Bsp_Uart.c **** 
 151              		.loc 1 354 16 view .LVU46
 152 007e 0024     		movs	r4, #0
 153              	.LVL12:
 154              	.L2:
 388:Bsp/Bsp_Uart.c **** }
 155              		.loc 1 388 1 view .LVU47
 156 0080 2046     		mov	r0, r4
 157 0082 70BD     		pop	{r4, r5, r6, pc}
 158              		.cfi_endproc
 159              	.LFE153:
 161              		.section	.text.BspUart_Set_DataBit,"ax",%progbits
ARM GAS  C:\Users\HUAV\AppData\Local\Temp\ccXi8vBQ.s 			page 11


 162              		.align	1
 163              		.global	BspUart_Set_DataBit
 164              		.syntax unified
 165              		.thumb
 166              		.thumb_func
 167              		.fpu fpv5-d16
 169              	BspUart_Set_DataBit:
 170              	.LVL13:
 171              	.LFB148:
 283:Bsp/Bsp_Uart.c ****     if (obj || !obj->init_state)
 172              		.loc 1 283 1 is_stmt 1 view -0
 173              		.cfi_startproc
 174              		@ args = 0, pretend = 0, frame = 0
 175              		@ frame_needed = 0, uses_anonymous_args = 0
 283:Bsp/Bsp_Uart.c ****     if (obj || !obj->init_state)
 176              		.loc 1 283 1 is_stmt 0 view .LVU49
 177 0000 10B5     		push	{r4, lr}
 178              	.LCFI1:
 179              		.cfi_def_cfa_offset 8
 180              		.cfi_offset 4, -8
 181              		.cfi_offset 14, -4
 284:Bsp/Bsp_Uart.c ****         return false;
 182              		.loc 1 284 5 is_stmt 1 view .LVU50
 284:Bsp/Bsp_Uart.c ****         return false;
 183              		.loc 1 284 8 is_stmt 0 view .LVU51
 184 0002 10B1     		cbz	r0, .L21
 285:Bsp/Bsp_Uart.c **** 
 185              		.loc 1 285 16 view .LVU52
 186 0004 0024     		movs	r4, #0
 187              	.LVL14:
 188              	.L17:
 293:Bsp/Bsp_Uart.c **** 
 189              		.loc 1 293 1 view .LVU53
 190 0006 2046     		mov	r0, r4
 191 0008 10BD     		pop	{r4, pc}
 192              	.LVL15:
 193              	.L21:
 284:Bsp/Bsp_Uart.c ****         return false;
 194              		.loc 1 284 20 discriminator 1 view .LVU54
 195 000a 90F8BA41 		ldrb	r4, [r0, #442]	@ zero_extendqisi2
 284:Bsp/Bsp_Uart.c ****         return false;
 196              		.loc 1 284 13 discriminator 1 view .LVU55
 197 000e 002C     		cmp	r4, #0
 198 0010 F9D0     		beq	.L17
 287:Bsp/Bsp_Uart.c **** 
 199              		.loc 1 287 5 is_stmt 1 view .LVU56
 287:Bsp/Bsp_Uart.c **** 
 200              		.loc 1 287 30 is_stmt 0 view .LVU57
 201 0012 C0F81110 		str	r1, [r0, #17]	@ unaligned
 289:Bsp/Bsp_Uart.c ****         return false;
 202              		.loc 1 289 5 is_stmt 1 view .LVU58
 289:Bsp/Bsp_Uart.c ****         return false;
 203              		.loc 1 289 9 is_stmt 0 view .LVU59
 204 0016 0930     		adds	r0, r0, #9
 205              	.LVL16:
 289:Bsp/Bsp_Uart.c ****         return false;
 206              		.loc 1 289 9 view .LVU60
ARM GAS  C:\Users\HUAV\AppData\Local\Temp\ccXi8vBQ.s 			page 12


 207 0018 FFF7FEFF 		bl	HAL_UART_Init
 208              	.LVL17:
 289:Bsp/Bsp_Uart.c ****         return false;
 209              		.loc 1 289 8 view .LVU61
 210 001c 0028     		cmp	r0, #0
 211 001e F2D0     		beq	.L17
 290:Bsp/Bsp_Uart.c **** 
 212              		.loc 1 290 16 view .LVU62
 213 0020 0024     		movs	r4, #0
 214 0022 F0E7     		b	.L17
 215              		.cfi_endproc
 216              	.LFE148:
 218              		.section	.text.BspUart_Set_Parity,"ax",%progbits
 219              		.align	1
 220              		.global	BspUart_Set_Parity
 221              		.syntax unified
 222              		.thumb
 223              		.thumb_func
 224              		.fpu fpv5-d16
 226              	BspUart_Set_Parity:
 227              	.LVL18:
 228              	.LFB149:
 296:Bsp/Bsp_Uart.c ****     if (obj || !obj->init_state)
 229              		.loc 1 296 1 is_stmt 1 view -0
 230              		.cfi_startproc
 231              		@ args = 0, pretend = 0, frame = 0
 232              		@ frame_needed = 0, uses_anonymous_args = 0
 296:Bsp/Bsp_Uart.c ****     if (obj || !obj->init_state)
 233              		.loc 1 296 1 is_stmt 0 view .LVU64
 234 0000 10B5     		push	{r4, lr}
 235              	.LCFI2:
 236              		.cfi_def_cfa_offset 8
 237              		.cfi_offset 4, -8
 238              		.cfi_offset 14, -4
 297:Bsp/Bsp_Uart.c ****         return false;
 239              		.loc 1 297 5 is_stmt 1 view .LVU65
 297:Bsp/Bsp_Uart.c ****         return false;
 240              		.loc 1 297 8 is_stmt 0 view .LVU66
 241 0002 10B1     		cbz	r0, .L27
 298:Bsp/Bsp_Uart.c **** 
 242              		.loc 1 298 16 view .LVU67
 243 0004 0024     		movs	r4, #0
 244              	.LVL19:
 245              	.L23:
 306:Bsp/Bsp_Uart.c **** 
 246              		.loc 1 306 1 view .LVU68
 247 0006 2046     		mov	r0, r4
 248 0008 10BD     		pop	{r4, pc}
 249              	.LVL20:
 250              	.L27:
 297:Bsp/Bsp_Uart.c ****         return false;
 251              		.loc 1 297 20 discriminator 1 view .LVU69
 252 000a 90F8BA41 		ldrb	r4, [r0, #442]	@ zero_extendqisi2
 297:Bsp/Bsp_Uart.c ****         return false;
 253              		.loc 1 297 13 discriminator 1 view .LVU70
 254 000e 002C     		cmp	r4, #0
 255 0010 F9D0     		beq	.L23
ARM GAS  C:\Users\HUAV\AppData\Local\Temp\ccXi8vBQ.s 			page 13


 300:Bsp/Bsp_Uart.c **** 
 256              		.loc 1 300 5 is_stmt 1 view .LVU71
 300:Bsp/Bsp_Uart.c **** 
 257              		.loc 1 300 26 is_stmt 0 view .LVU72
 258 0012 C0F81910 		str	r1, [r0, #25]	@ unaligned
 302:Bsp/Bsp_Uart.c ****         return false;
 259              		.loc 1 302 5 is_stmt 1 view .LVU73
 302:Bsp/Bsp_Uart.c ****         return false;
 260              		.loc 1 302 9 is_stmt 0 view .LVU74
 261 0016 0930     		adds	r0, r0, #9
 262              	.LVL21:
 302:Bsp/Bsp_Uart.c ****         return false;
 263              		.loc 1 302 9 view .LVU75
 264 0018 FFF7FEFF 		bl	HAL_UART_Init
 265              	.LVL22:
 302:Bsp/Bsp_Uart.c ****         return false;
 266              		.loc 1 302 8 view .LVU76
 267 001c 0028     		cmp	r0, #0
 268 001e F2D0     		beq	.L23
 303:Bsp/Bsp_Uart.c **** 
 269              		.loc 1 303 16 view .LVU77
 270 0020 0024     		movs	r4, #0
 271 0022 F0E7     		b	.L23
 272              		.cfi_endproc
 273              	.LFE149:
 275              		.section	.text.BspUart_Set_StopBit,"ax",%progbits
 276              		.align	1
 277              		.global	BspUart_Set_StopBit
 278              		.syntax unified
 279              		.thumb
 280              		.thumb_func
 281              		.fpu fpv5-d16
 283              	BspUart_Set_StopBit:
 284              	.LVL23:
 285              	.LFB150:
 309:Bsp/Bsp_Uart.c ****     if (obj || !obj->init_state)
 286              		.loc 1 309 1 is_stmt 1 view -0
 287              		.cfi_startproc
 288              		@ args = 0, pretend = 0, frame = 0
 289              		@ frame_needed = 0, uses_anonymous_args = 0
 309:Bsp/Bsp_Uart.c ****     if (obj || !obj->init_state)
 290              		.loc 1 309 1 is_stmt 0 view .LVU79
 291 0000 10B5     		push	{r4, lr}
 292              	.LCFI3:
 293              		.cfi_def_cfa_offset 8
 294              		.cfi_offset 4, -8
 295              		.cfi_offset 14, -4
 310:Bsp/Bsp_Uart.c ****         return false;
 296              		.loc 1 310 5 is_stmt 1 view .LVU80
 310:Bsp/Bsp_Uart.c ****         return false;
 297              		.loc 1 310 8 is_stmt 0 view .LVU81
 298 0002 10B1     		cbz	r0, .L33
 311:Bsp/Bsp_Uart.c **** 
 299              		.loc 1 311 16 view .LVU82
 300 0004 0024     		movs	r4, #0
 301              	.LVL24:
 302              	.L29:
ARM GAS  C:\Users\HUAV\AppData\Local\Temp\ccXi8vBQ.s 			page 14


 319:Bsp/Bsp_Uart.c **** 
 303              		.loc 1 319 1 view .LVU83
 304 0006 2046     		mov	r0, r4
 305 0008 10BD     		pop	{r4, pc}
 306              	.LVL25:
 307              	.L33:
 310:Bsp/Bsp_Uart.c ****         return false;
 308              		.loc 1 310 20 discriminator 1 view .LVU84
 309 000a 90F8BA41 		ldrb	r4, [r0, #442]	@ zero_extendqisi2
 310:Bsp/Bsp_Uart.c ****         return false;
 310              		.loc 1 310 13 discriminator 1 view .LVU85
 311 000e 002C     		cmp	r4, #0
 312 0010 F9D0     		beq	.L29
 313:Bsp/Bsp_Uart.c **** 
 313              		.loc 1 313 5 is_stmt 1 view .LVU86
 313:Bsp/Bsp_Uart.c **** 
 314              		.loc 1 313 28 is_stmt 0 view .LVU87
 315 0012 C0F81510 		str	r1, [r0, #21]	@ unaligned
 315:Bsp/Bsp_Uart.c ****         return false;
 316              		.loc 1 315 5 is_stmt 1 view .LVU88
 315:Bsp/Bsp_Uart.c ****         return false;
 317              		.loc 1 315 9 is_stmt 0 view .LVU89
 318 0016 0930     		adds	r0, r0, #9
 319              	.LVL26:
 315:Bsp/Bsp_Uart.c ****         return false;
 320              		.loc 1 315 9 view .LVU90
 321 0018 FFF7FEFF 		bl	HAL_UART_Init
 322              	.LVL27:
 315:Bsp/Bsp_Uart.c ****         return false;
 323              		.loc 1 315 8 view .LVU91
 324 001c 0028     		cmp	r0, #0
 325 001e F2D0     		beq	.L29
 316:Bsp/Bsp_Uart.c **** 
 326              		.loc 1 316 16 view .LVU92
 327 0020 0024     		movs	r4, #0
 328 0022 F0E7     		b	.L29
 329              		.cfi_endproc
 330              	.LFE150:
 332              		.section	.text.BspUart_Swap_Pin,"ax",%progbits
 333              		.align	1
 334              		.global	BspUart_Swap_Pin
 335              		.syntax unified
 336              		.thumb
 337              		.thumb_func
 338              		.fpu fpv5-d16
 340              	BspUart_Swap_Pin:
 341              	.LVL28:
 342              	.LFB151:
 322:Bsp/Bsp_Uart.c ****     if (obj || !obj->init_state)
 343              		.loc 1 322 1 is_stmt 1 view -0
 344              		.cfi_startproc
 345              		@ args = 0, pretend = 0, frame = 0
 346              		@ frame_needed = 0, uses_anonymous_args = 0
 322:Bsp/Bsp_Uart.c ****     if (obj || !obj->init_state)
 347              		.loc 1 322 1 is_stmt 0 view .LVU94
 348 0000 10B5     		push	{r4, lr}
 349              	.LCFI4:
ARM GAS  C:\Users\HUAV\AppData\Local\Temp\ccXi8vBQ.s 			page 15


 350              		.cfi_def_cfa_offset 8
 351              		.cfi_offset 4, -8
 352              		.cfi_offset 14, -4
 323:Bsp/Bsp_Uart.c ****         return false;
 353              		.loc 1 323 5 is_stmt 1 view .LVU95
 323:Bsp/Bsp_Uart.c ****         return false;
 354              		.loc 1 323 8 is_stmt 0 view .LVU96
 355 0002 10B1     		cbz	r0, .L41
 324:Bsp/Bsp_Uart.c **** 
 356              		.loc 1 324 16 view .LVU97
 357 0004 0024     		movs	r4, #0
 358              	.LVL29:
 359              	.L35:
 339:Bsp/Bsp_Uart.c **** 
 360              		.loc 1 339 1 view .LVU98
 361 0006 2046     		mov	r0, r4
 362 0008 10BD     		pop	{r4, pc}
 363              	.LVL30:
 364              	.L41:
 339:Bsp/Bsp_Uart.c **** 
 365              		.loc 1 339 1 view .LVU99
 366 000a 0346     		mov	r3, r0
 323:Bsp/Bsp_Uart.c ****         return false;
 367              		.loc 1 323 20 discriminator 1 view .LVU100
 368 000c 90F8BA41 		ldrb	r4, [r0, #442]	@ zero_extendqisi2
 323:Bsp/Bsp_Uart.c ****         return false;
 369              		.loc 1 323 13 discriminator 1 view .LVU101
 370 0010 002C     		cmp	r4, #0
 371 0012 F8D0     		beq	.L35
 326:Bsp/Bsp_Uart.c **** 
 372              		.loc 1 326 5 is_stmt 1 view .LVU102
 326:Bsp/Bsp_Uart.c **** 
 373              		.loc 1 326 19 is_stmt 0 view .LVU103
 374 0014 0171     		strb	r1, [r0, #4]
 328:Bsp/Bsp_Uart.c ****     {
 375              		.loc 1 328 5 is_stmt 1 view .LVU104
 328:Bsp/Bsp_Uart.c ****     {
 376              		.loc 1 328 8 is_stmt 0 view .LVU105
 377 0016 91B1     		cbz	r1, .L36
 330:Bsp/Bsp_Uart.c ****     }
 378              		.loc 1 330 9 is_stmt 1 view .LVU106
 330:Bsp/Bsp_Uart.c ****     }
 379              		.loc 1 330 36 is_stmt 0 view .LVU107
 380 0018 0022     		movs	r2, #0
 381 001a 80F84120 		strb	r2, [r0, #65]
 382 001e 6FF07F01 		mvn	r1, #127
 383              	.LVL31:
 330:Bsp/Bsp_Uart.c ****     }
 384              		.loc 1 330 36 view .LVU108
 385 0022 80F84210 		strb	r1, [r0, #66]
 386 0026 80F84320 		strb	r2, [r0, #67]
 387 002a 80F84420 		strb	r2, [r0, #68]
 388              	.L37:
 335:Bsp/Bsp_Uart.c ****         return false;
 389              		.loc 1 335 5 is_stmt 1 view .LVU109
 335:Bsp/Bsp_Uart.c ****         return false;
 390              		.loc 1 335 9 is_stmt 0 view .LVU110
ARM GAS  C:\Users\HUAV\AppData\Local\Temp\ccXi8vBQ.s 			page 16


 391 002e 03F10900 		add	r0, r3, #9
 392              	.LVL32:
 335:Bsp/Bsp_Uart.c ****         return false;
 393              		.loc 1 335 9 view .LVU111
 394 0032 FFF7FEFF 		bl	HAL_UART_Init
 395              	.LVL33:
 335:Bsp/Bsp_Uart.c ****         return false;
 396              		.loc 1 335 8 view .LVU112
 397 0036 0028     		cmp	r0, #0
 398 0038 E5D0     		beq	.L35
 336:Bsp/Bsp_Uart.c **** 
 399              		.loc 1 336 16 view .LVU113
 400 003a 0024     		movs	r4, #0
 401 003c E3E7     		b	.L35
 402              	.LVL34:
 403              	.L36:
 333:Bsp/Bsp_Uart.c **** 
 404              		.loc 1 333 9 is_stmt 1 view .LVU114
 333:Bsp/Bsp_Uart.c **** 
 405              		.loc 1 333 36 is_stmt 0 view .LVU115
 406 003e 0022     		movs	r2, #0
 407 0040 80F84120 		strb	r2, [r0, #65]
 408 0044 80F84220 		strb	r2, [r0, #66]
 409 0048 80F84320 		strb	r2, [r0, #67]
 410 004c 80F84420 		strb	r2, [r0, #68]
 411 0050 EDE7     		b	.L37
 412              		.cfi_endproc
 413              	.LFE151:
 415              		.section	.text.BspUart_Init_Clock,"ax",%progbits
 416              		.align	1
 417              		.syntax unified
 418              		.thumb
 419              		.thumb_func
 420              		.fpu fpv5-d16
 422              	BspUart_Init_Clock:
 423              	.LVL35:
 424              	.LFB144:
  34:Bsp/Bsp_Uart.c ****     RCC_PeriphCLKInitTypeDef PeriphClkInitStruct = {0};
 425              		.loc 1 34 1 is_stmt 1 view -0
 426              		.cfi_startproc
 427              		@ args = 0, pretend = 0, frame = 200
 428              		@ frame_needed = 0, uses_anonymous_args = 0
  34:Bsp/Bsp_Uart.c ****     RCC_PeriphCLKInitTypeDef PeriphClkInitStruct = {0};
 429              		.loc 1 34 1 is_stmt 0 view .LVU117
 430 0000 70B5     		push	{r4, r5, r6, lr}
 431              	.LCFI5:
 432              		.cfi_def_cfa_offset 16
 433              		.cfi_offset 4, -16
 434              		.cfi_offset 5, -12
 435              		.cfi_offset 6, -8
 436              		.cfi_offset 14, -4
 437 0002 B2B0     		sub	sp, sp, #200
 438              	.LCFI6:
 439              		.cfi_def_cfa_offset 216
 440 0004 0446     		mov	r4, r0
  35:Bsp/Bsp_Uart.c ****     int8_t index = Bspuart_None_Index;
 441              		.loc 1 35 5 is_stmt 1 view .LVU118
ARM GAS  C:\Users\HUAV\AppData\Local\Temp\ccXi8vBQ.s 			page 17


  35:Bsp/Bsp_Uart.c ****     int8_t index = Bspuart_None_Index;
 442              		.loc 1 35 30 is_stmt 0 view .LVU119
 443 0006 BC22     		movs	r2, #188
 444 0008 0021     		movs	r1, #0
 445 000a 03A8     		add	r0, sp, #12
 446              	.LVL36:
  35:Bsp/Bsp_Uart.c ****     int8_t index = Bspuart_None_Index;
 447              		.loc 1 35 30 view .LVU120
 448 000c FFF7FEFF 		bl	memset
 449              	.LVL37:
  36:Bsp/Bsp_Uart.c **** 
 450              		.loc 1 36 5 is_stmt 1 view .LVU121
  38:Bsp/Bsp_Uart.c ****         (obj->instance == NULL))
 451              		.loc 1 38 5 view .LVU122
  38:Bsp/Bsp_Uart.c ****         (obj->instance == NULL))
 452              		.loc 1 38 8 is_stmt 0 view .LVU123
 453 0010 002C     		cmp	r4, #0
 454 0012 5FD0     		beq	.L47
  39:Bsp/Bsp_Uart.c ****         return BspUart_Clock_Error;
 455              		.loc 1 39 13 discriminator 1 view .LVU124
 456 0014 D4F80530 		ldr	r3, [r4, #5]	@ unaligned
  38:Bsp/Bsp_Uart.c ****         (obj->instance == NULL))
 457              		.loc 1 38 23 discriminator 1 view .LVU125
 458 0018 002B     		cmp	r3, #0
 459 001a 5ED0     		beq	.L48
  42:Bsp/Bsp_Uart.c ****     {
 460              		.loc 1 42 5 is_stmt 1 view .LVU126
  42:Bsp/Bsp_Uart.c ****     {
 461              		.loc 1 42 8 is_stmt 0 view .LVU127
 462 001c 364A     		ldr	r2, .L56
 463 001e 9342     		cmp	r3, r2
 464 0020 2ED0     		beq	.L54
  53:Bsp/Bsp_Uart.c ****     {
 465              		.loc 1 53 10 is_stmt 1 view .LVU128
  53:Bsp/Bsp_Uart.c ****     {
 466              		.loc 1 53 13 is_stmt 0 view .LVU129
 467 0022 364A     		ldr	r2, .L56+4
 468 0024 9342     		cmp	r3, r2
 469 0026 40D0     		beq	.L55
  64:Bsp/Bsp_Uart.c ****     {
 470              		.loc 1 64 10 is_stmt 1 view .LVU130
  64:Bsp/Bsp_Uart.c ****     {
 471              		.loc 1 64 13 is_stmt 0 view .LVU131
 472 0028 354A     		ldr	r2, .L56+8
 473 002a 9342     		cmp	r3, r2
 474 002c 5ED1     		bne	.L51
  66:Bsp/Bsp_Uart.c ****         PeriphClkInitStruct.Usart234578ClockSelection = RCC_USART234578CLKSOURCE_D2PCLK1;
 475              		.loc 1 66 9 is_stmt 1 view .LVU132
  66:Bsp/Bsp_Uart.c ****         PeriphClkInitStruct.Usart234578ClockSelection = RCC_USART234578CLKSOURCE_D2PCLK1;
 476              		.loc 1 66 50 is_stmt 0 view .LVU133
 477 002e 0223     		movs	r3, #2
 478 0030 0393     		str	r3, [sp, #12]
  67:Bsp/Bsp_Uart.c **** 
 479              		.loc 1 67 9 is_stmt 1 view .LVU134
  69:Bsp/Bsp_Uart.c ****             return BspUart_Clock_Error;
 480              		.loc 1 69 9 view .LVU135
  69:Bsp/Bsp_Uart.c ****             return BspUart_Clock_Error;
ARM GAS  C:\Users\HUAV\AppData\Local\Temp\ccXi8vBQ.s 			page 18


 481              		.loc 1 69 13 is_stmt 0 view .LVU136
 482 0032 03A8     		add	r0, sp, #12
 483 0034 FFF7FEFF 		bl	HAL_RCCEx_PeriphCLKConfig
 484              	.LVL38:
  69:Bsp/Bsp_Uart.c ****             return BspUart_Clock_Error;
 485              		.loc 1 69 12 view .LVU137
 486 0038 0028     		cmp	r0, #0
 487 003a 5AD1     		bne	.L52
  72:Bsp/Bsp_Uart.c ****         index = BspUART_Port_7;
 488              		.loc 1 72 9 is_stmt 1 view .LVU138
 489              	.LBB2:
  72:Bsp/Bsp_Uart.c ****         index = BspUART_Port_7;
 490              		.loc 1 72 9 view .LVU139
  72:Bsp/Bsp_Uart.c ****         index = BspUART_Port_7;
 491              		.loc 1 72 9 view .LVU140
 492 003c 314B     		ldr	r3, .L56+12
 493 003e D3F8E820 		ldr	r2, [r3, #232]
 494 0042 42F08042 		orr	r2, r2, #1073741824
 495 0046 C3F8E820 		str	r2, [r3, #232]
  72:Bsp/Bsp_Uart.c ****         index = BspUART_Port_7;
 496              		.loc 1 72 9 view .LVU141
 497 004a D3F8E830 		ldr	r3, [r3, #232]
 498 004e 03F08043 		and	r3, r3, #1073741824
 499 0052 0293     		str	r3, [sp, #8]
  72:Bsp/Bsp_Uart.c ****         index = BspUART_Port_7;
 500              		.loc 1 72 9 view .LVU142
 501 0054 029B     		ldr	r3, [sp, #8]
 502              	.LBE2:
  72:Bsp/Bsp_Uart.c ****         index = BspUART_Port_7;
 503              		.loc 1 72 9 view .LVU143
  73:Bsp/Bsp_Uart.c ****     }
 504              		.loc 1 73 9 view .LVU144
 505              	.LVL39:
  73:Bsp/Bsp_Uart.c ****     }
 506              		.loc 1 73 15 is_stmt 0 view .LVU145
 507 0056 0225     		movs	r5, #2
 508              	.LVL40:
 509              	.L45:
  79:Bsp/Bsp_Uart.c ****     BspGPIO.alt_init(obj->tx_io);
 510              		.loc 1 79 5 is_stmt 1 view .LVU146
  79:Bsp/Bsp_Uart.c ****     BspGPIO.alt_init(obj->tx_io);
 511              		.loc 1 79 12 is_stmt 0 view .LVU147
 512 0058 2B4E     		ldr	r6, .L56+16
 513 005a F368     		ldr	r3, [r6, #12]
  79:Bsp/Bsp_Uart.c ****     BspGPIO.alt_init(obj->tx_io);
 514              		.loc 1 79 5 view .LVU148
 515 005c D4F89901 		ldr	r0, [r4, #409]	@ unaligned
 516 0060 D4F89D11 		ldr	r1, [r4, #413]	@ unaligned
 517 0064 D4F8A121 		ldr	r2, [r4, #417]	@ unaligned
 518 0068 9847     		blx	r3
 519              	.LVL41:
  80:Bsp/Bsp_Uart.c **** 
 520              		.loc 1 80 5 is_stmt 1 view .LVU149
  80:Bsp/Bsp_Uart.c **** 
 521              		.loc 1 80 12 is_stmt 0 view .LVU150
 522 006a F368     		ldr	r3, [r6, #12]
  80:Bsp/Bsp_Uart.c **** 
ARM GAS  C:\Users\HUAV\AppData\Local\Temp\ccXi8vBQ.s 			page 19


 523              		.loc 1 80 5 view .LVU151
 524 006c D4F88D01 		ldr	r0, [r4, #397]	@ unaligned
 525 0070 D4F89111 		ldr	r1, [r4, #401]	@ unaligned
 526 0074 D4F89521 		ldr	r2, [r4, #405]	@ unaligned
 527 0078 9847     		blx	r3
 528              	.LVL42:
  82:Bsp/Bsp_Uart.c **** }
 529              		.loc 1 82 5 is_stmt 1 view .LVU152
  82:Bsp/Bsp_Uart.c **** }
 530              		.loc 1 82 12 is_stmt 0 view .LVU153
 531 007a 2846     		mov	r0, r5
 532              	.LVL43:
 533              	.L42:
  83:Bsp/Bsp_Uart.c **** 
 534              		.loc 1 83 1 view .LVU154
 535 007c 32B0     		add	sp, sp, #200
 536              	.LCFI7:
 537              		.cfi_remember_state
 538              		.cfi_def_cfa_offset 16
 539              		@ sp needed
 540 007e 70BD     		pop	{r4, r5, r6, pc}
 541              	.LVL44:
 542              	.L54:
 543              	.LCFI8:
 544              		.cfi_restore_state
  44:Bsp/Bsp_Uart.c ****         PeriphClkInitStruct.Usart234578ClockSelection = RCC_USART234578CLKSOURCE_D2PCLK1;
 545              		.loc 1 44 9 is_stmt 1 view .LVU155
  44:Bsp/Bsp_Uart.c ****         PeriphClkInitStruct.Usart234578ClockSelection = RCC_USART234578CLKSOURCE_D2PCLK1;
 546              		.loc 1 44 50 is_stmt 0 view .LVU156
 547 0080 0223     		movs	r3, #2
 548 0082 0393     		str	r3, [sp, #12]
  45:Bsp/Bsp_Uart.c **** 
 549              		.loc 1 45 9 is_stmt 1 view .LVU157
  47:Bsp/Bsp_Uart.c ****             return BspUart_Clock_Error;
 550              		.loc 1 47 9 view .LVU158
  47:Bsp/Bsp_Uart.c ****             return BspUart_Clock_Error;
 551              		.loc 1 47 13 is_stmt 0 view .LVU159
 552 0084 03A8     		add	r0, sp, #12
 553 0086 FFF7FEFF 		bl	HAL_RCCEx_PeriphCLKConfig
 554              	.LVL45:
  47:Bsp/Bsp_Uart.c ****             return BspUart_Clock_Error;
 555              		.loc 1 47 12 view .LVU160
 556 008a 48BB     		cbnz	r0, .L49
  50:Bsp/Bsp_Uart.c ****         index = BspUART_Port_4;
 557              		.loc 1 50 9 is_stmt 1 view .LVU161
 558              	.LBB3:
  50:Bsp/Bsp_Uart.c ****         index = BspUART_Port_4;
 559              		.loc 1 50 9 view .LVU162
  50:Bsp/Bsp_Uart.c ****         index = BspUART_Port_4;
 560              		.loc 1 50 9 view .LVU163
 561 008c 1D4B     		ldr	r3, .L56+12
 562 008e D3F8E820 		ldr	r2, [r3, #232]
 563 0092 42F40022 		orr	r2, r2, #524288
 564 0096 C3F8E820 		str	r2, [r3, #232]
  50:Bsp/Bsp_Uart.c ****         index = BspUART_Port_4;
 565              		.loc 1 50 9 view .LVU164
 566 009a D3F8E830 		ldr	r3, [r3, #232]
ARM GAS  C:\Users\HUAV\AppData\Local\Temp\ccXi8vBQ.s 			page 20


 567 009e 03F40023 		and	r3, r3, #524288
 568 00a2 0093     		str	r3, [sp]
  50:Bsp/Bsp_Uart.c ****         index = BspUART_Port_4;
 569              		.loc 1 50 9 view .LVU165
 570 00a4 009B     		ldr	r3, [sp]
 571              	.LBE3:
  50:Bsp/Bsp_Uart.c ****         index = BspUART_Port_4;
 572              		.loc 1 50 9 view .LVU166
  51:Bsp/Bsp_Uart.c ****     }
 573              		.loc 1 51 9 view .LVU167
 574              	.LVL46:
  51:Bsp/Bsp_Uart.c ****     }
 575              		.loc 1 51 15 is_stmt 0 view .LVU168
 576 00a6 0025     		movs	r5, #0
 577 00a8 D6E7     		b	.L45
 578              	.LVL47:
 579              	.L55:
  55:Bsp/Bsp_Uart.c ****         PeriphClkInitStruct.Usart16ClockSelection = RCC_USART16CLKSOURCE_D2PCLK2;
 580              		.loc 1 55 9 is_stmt 1 view .LVU169
  55:Bsp/Bsp_Uart.c ****         PeriphClkInitStruct.Usart16ClockSelection = RCC_USART16CLKSOURCE_D2PCLK2;
 581              		.loc 1 55 50 is_stmt 0 view .LVU170
 582 00aa 0123     		movs	r3, #1
 583 00ac 0393     		str	r3, [sp, #12]
  56:Bsp/Bsp_Uart.c **** 
 584              		.loc 1 56 9 is_stmt 1 view .LVU171
  58:Bsp/Bsp_Uart.c ****             return BspUart_Clock_Error;
 585              		.loc 1 58 9 view .LVU172
  58:Bsp/Bsp_Uart.c ****             return BspUart_Clock_Error;
 586              		.loc 1 58 13 is_stmt 0 view .LVU173
 587 00ae 03A8     		add	r0, sp, #12
 588 00b0 FFF7FEFF 		bl	HAL_RCCEx_PeriphCLKConfig
 589              	.LVL48:
  58:Bsp/Bsp_Uart.c ****             return BspUart_Clock_Error;
 590              		.loc 1 58 12 view .LVU174
 591 00b4 B8B9     		cbnz	r0, .L50
  61:Bsp/Bsp_Uart.c ****         index = BspUART_Port_6;
 592              		.loc 1 61 9 is_stmt 1 view .LVU175
 593              	.LBB4:
  61:Bsp/Bsp_Uart.c ****         index = BspUART_Port_6;
 594              		.loc 1 61 9 view .LVU176
  61:Bsp/Bsp_Uart.c ****         index = BspUART_Port_6;
 595              		.loc 1 61 9 view .LVU177
 596 00b6 134B     		ldr	r3, .L56+12
 597 00b8 D3F8F020 		ldr	r2, [r3, #240]
 598 00bc 42F02002 		orr	r2, r2, #32
 599 00c0 C3F8F020 		str	r2, [r3, #240]
  61:Bsp/Bsp_Uart.c ****         index = BspUART_Port_6;
 600              		.loc 1 61 9 view .LVU178
 601 00c4 D3F8F030 		ldr	r3, [r3, #240]
 602 00c8 03F02003 		and	r3, r3, #32
 603 00cc 0193     		str	r3, [sp, #4]
  61:Bsp/Bsp_Uart.c ****         index = BspUART_Port_6;
 604              		.loc 1 61 9 view .LVU179
 605 00ce 019B     		ldr	r3, [sp, #4]
 606              	.LBE4:
  61:Bsp/Bsp_Uart.c ****         index = BspUART_Port_6;
 607              		.loc 1 61 9 view .LVU180
ARM GAS  C:\Users\HUAV\AppData\Local\Temp\ccXi8vBQ.s 			page 21


  62:Bsp/Bsp_Uart.c ****     }
 608              		.loc 1 62 9 view .LVU181
 609              	.LVL49:
  62:Bsp/Bsp_Uart.c ****     }
 610              		.loc 1 62 15 is_stmt 0 view .LVU182
 611 00d0 0125     		movs	r5, #1
 612 00d2 C1E7     		b	.L45
 613              	.LVL50:
 614              	.L47:
  40:Bsp/Bsp_Uart.c **** 
 615              		.loc 1 40 16 view .LVU183
 616 00d4 4FF0FF30 		mov	r0, #-1
 617 00d8 D0E7     		b	.L42
 618              	.L48:
 619 00da 4FF0FF30 		mov	r0, #-1
 620 00de CDE7     		b	.L42
 621              	.L49:
  48:Bsp/Bsp_Uart.c **** 
 622              		.loc 1 48 20 view .LVU184
 623 00e0 4FF0FF30 		mov	r0, #-1
 624 00e4 CAE7     		b	.L42
 625              	.L50:
  59:Bsp/Bsp_Uart.c **** 
 626              		.loc 1 59 20 view .LVU185
 627 00e6 4FF0FF30 		mov	r0, #-1
 628 00ea C7E7     		b	.L42
 629              	.L51:
  76:Bsp/Bsp_Uart.c **** 
 630              		.loc 1 76 16 view .LVU186
 631 00ec 4FF0FF30 		mov	r0, #-1
 632 00f0 C4E7     		b	.L42
 633              	.L52:
  70:Bsp/Bsp_Uart.c **** 
 634              		.loc 1 70 20 view .LVU187
 635 00f2 4FF0FF30 		mov	r0, #-1
 636 00f6 C1E7     		b	.L42
 637              	.L57:
 638              		.align	2
 639              	.L56:
 640 00f8 004C0040 		.word	1073761280
 641 00fc 00140140 		.word	1073812480
 642 0100 00780040 		.word	1073772544
 643 0104 00440258 		.word	1476543488
 644 0108 00000000 		.word	BspGPIO
 645              		.cfi_endproc
 646              	.LFE144:
 648              		.section	.text.BspUart_Init_DMA,"ax",%progbits
 649              		.align	1
 650              		.syntax unified
 651              		.thumb
 652              		.thumb_func
 653              		.fpu fpv5-d16
 655              	BspUart_Init_DMA:
 656              	.LVL51:
 657              	.LFB145:
  86:Bsp/Bsp_Uart.c ****     DMA_HandleTypeDef tx_dma_cfg = {0};
 658              		.loc 1 86 1 is_stmt 1 view -0
ARM GAS  C:\Users\HUAV\AppData\Local\Temp\ccXi8vBQ.s 			page 22


 659              		.cfi_startproc
 660              		@ args = 0, pretend = 0, frame = 240
 661              		@ frame_needed = 0, uses_anonymous_args = 0
  86:Bsp/Bsp_Uart.c ****     DMA_HandleTypeDef tx_dma_cfg = {0};
 662              		.loc 1 86 1 is_stmt 0 view .LVU189
 663 0000 F0B5     		push	{r4, r5, r6, r7, lr}
 664              	.LCFI9:
 665              		.cfi_def_cfa_offset 20
 666              		.cfi_offset 4, -20
 667              		.cfi_offset 5, -16
 668              		.cfi_offset 6, -12
 669              		.cfi_offset 7, -8
 670              		.cfi_offset 14, -4
 671 0002 BDB0     		sub	sp, sp, #244
 672              	.LCFI10:
 673              		.cfi_def_cfa_offset 264
 674 0004 0446     		mov	r4, r0
  87:Bsp/Bsp_Uart.c ****     DMA_HandleTypeDef rx_dma_cfg = {0};
 675              		.loc 1 87 5 is_stmt 1 view .LVU190
  87:Bsp/Bsp_Uart.c ****     DMA_HandleTypeDef rx_dma_cfg = {0};
 676              		.loc 1 87 23 is_stmt 0 view .LVU191
 677 0006 7825     		movs	r5, #120
 678 0008 2A46     		mov	r2, r5
 679 000a 0021     		movs	r1, #0
 680 000c 0DEB0500 		add	r0, sp, r5
 681              	.LVL52:
  87:Bsp/Bsp_Uart.c ****     DMA_HandleTypeDef rx_dma_cfg = {0};
 682              		.loc 1 87 23 view .LVU192
 683 0010 FFF7FEFF 		bl	memset
 684              	.LVL53:
  88:Bsp/Bsp_Uart.c ****     int8_t index = Bspuart_None_Index;
 685              		.loc 1 88 5 is_stmt 1 view .LVU193
  88:Bsp/Bsp_Uart.c ****     int8_t index = Bspuart_None_Index;
 686              		.loc 1 88 23 is_stmt 0 view .LVU194
 687 0014 2A46     		mov	r2, r5
 688 0016 0021     		movs	r1, #0
 689 0018 6846     		mov	r0, sp
 690 001a FFF7FEFF 		bl	memset
 691              	.LVL54:
  89:Bsp/Bsp_Uart.c **** 
 692              		.loc 1 89 5 is_stmt 1 view .LVU195
  91:Bsp/Bsp_Uart.c ****     tx_dma_cfg.Init.MemInc = DMA_MINC_ENABLE;
 693              		.loc 1 91 5 view .LVU196
  92:Bsp/Bsp_Uart.c ****     tx_dma_cfg.Init.PeriphDataAlignment = DMA_PDATAALIGN_BYTE;
 694              		.loc 1 92 5 view .LVU197
  92:Bsp/Bsp_Uart.c ****     tx_dma_cfg.Init.PeriphDataAlignment = DMA_PDATAALIGN_BYTE;
 695              		.loc 1 92 28 is_stmt 0 view .LVU198
 696 001e 4FF48062 		mov	r2, #1024
 697 0022 2292     		str	r2, [sp, #136]
  93:Bsp/Bsp_Uart.c ****     tx_dma_cfg.Init.MemDataAlignment = DMA_MDATAALIGN_BYTE;
 698              		.loc 1 93 5 is_stmt 1 view .LVU199
  94:Bsp/Bsp_Uart.c ****     tx_dma_cfg.Init.Mode = DMA_NORMAL;
 699              		.loc 1 94 5 view .LVU200
  95:Bsp/Bsp_Uart.c ****     tx_dma_cfg.Init.Priority = DMA_PRIORITY_MEDIUM;
 700              		.loc 1 95 5 view .LVU201
  96:Bsp/Bsp_Uart.c ****     tx_dma_cfg.Init.FIFOMode = DMA_FIFOMODE_DISABLE;
 701              		.loc 1 96 5 view .LVU202
ARM GAS  C:\Users\HUAV\AppData\Local\Temp\ccXi8vBQ.s 			page 23


  96:Bsp/Bsp_Uart.c ****     tx_dma_cfg.Init.FIFOMode = DMA_FIFOMODE_DISABLE;
 702              		.loc 1 96 30 is_stmt 0 view .LVU203
 703 0024 4FF48033 		mov	r3, #65536
 704 0028 2693     		str	r3, [sp, #152]
  97:Bsp/Bsp_Uart.c ****     tx_dma_cfg.Init.Direction = DMA_MEMORY_TO_PERIPH;
 705              		.loc 1 97 5 is_stmt 1 view .LVU204
  98:Bsp/Bsp_Uart.c **** 
 706              		.loc 1 98 5 view .LVU205
  98:Bsp/Bsp_Uart.c **** 
 707              		.loc 1 98 31 is_stmt 0 view .LVU206
 708 002a 4021     		movs	r1, #64
 709 002c 2091     		str	r1, [sp, #128]
 100:Bsp/Bsp_Uart.c ****     rx_dma_cfg.Init.MemInc = DMA_MINC_ENABLE;
 710              		.loc 1 100 5 is_stmt 1 view .LVU207
 101:Bsp/Bsp_Uart.c ****     rx_dma_cfg.Init.PeriphDataAlignment = DMA_PDATAALIGN_BYTE;
 711              		.loc 1 101 5 view .LVU208
 101:Bsp/Bsp_Uart.c ****     rx_dma_cfg.Init.PeriphDataAlignment = DMA_PDATAALIGN_BYTE;
 712              		.loc 1 101 28 is_stmt 0 view .LVU209
 713 002e 0492     		str	r2, [sp, #16]
 102:Bsp/Bsp_Uart.c ****     rx_dma_cfg.Init.MemDataAlignment = DMA_MDATAALIGN_BYTE;
 714              		.loc 1 102 5 is_stmt 1 view .LVU210
 103:Bsp/Bsp_Uart.c ****     rx_dma_cfg.Init.Mode = DMA_NORMAL;
 715              		.loc 1 103 5 view .LVU211
 104:Bsp/Bsp_Uart.c ****     rx_dma_cfg.Init.Priority = DMA_PRIORITY_MEDIUM;
 716              		.loc 1 104 5 view .LVU212
 105:Bsp/Bsp_Uart.c ****     rx_dma_cfg.Init.FIFOMode = DMA_FIFOMODE_DISABLE;
 717              		.loc 1 105 5 view .LVU213
 105:Bsp/Bsp_Uart.c ****     rx_dma_cfg.Init.FIFOMode = DMA_FIFOMODE_DISABLE;
 718              		.loc 1 105 30 is_stmt 0 view .LVU214
 719 0030 0893     		str	r3, [sp, #32]
 106:Bsp/Bsp_Uart.c ****     rx_dma_cfg.Init.Direction = DMA_PERIPH_TO_MEMORY;
 720              		.loc 1 106 5 is_stmt 1 view .LVU215
 107:Bsp/Bsp_Uart.c **** 
 721              		.loc 1 107 5 view .LVU216
 109:Bsp/Bsp_Uart.c ****         (obj->instance == NULL))
 722              		.loc 1 109 5 view .LVU217
 109:Bsp/Bsp_Uart.c ****         (obj->instance == NULL))
 723              		.loc 1 109 8 is_stmt 0 view .LVU218
 724 0032 002C     		cmp	r4, #0
 725 0034 57D0     		beq	.L65
 110:Bsp/Bsp_Uart.c ****         return BspUart_Clock_Error;
 726              		.loc 1 110 13 discriminator 1 view .LVU219
 727 0036 D4F80530 		ldr	r3, [r4, #5]	@ unaligned
 109:Bsp/Bsp_Uart.c ****         (obj->instance == NULL))
 728              		.loc 1 109 23 discriminator 1 view .LVU220
 729 003a 002B     		cmp	r3, #0
 730 003c 56D0     		beq	.L66
 113:Bsp/Bsp_Uart.c ****     {
 731              		.loc 1 113 5 is_stmt 1 view .LVU221
 113:Bsp/Bsp_Uart.c ****     {
 732              		.loc 1 113 8 is_stmt 0 view .LVU222
 733 003e 314A     		ldr	r2, .L73
 734 0040 9342     		cmp	r3, r2
 735 0042 42D0     		beq	.L71
 120:Bsp/Bsp_Uart.c ****     {
 736              		.loc 1 120 10 is_stmt 1 view .LVU223
 120:Bsp/Bsp_Uart.c ****     {
ARM GAS  C:\Users\HUAV\AppData\Local\Temp\ccXi8vBQ.s 			page 24


 737              		.loc 1 120 13 is_stmt 0 view .LVU224
 738 0044 304A     		ldr	r2, .L73+4
 739 0046 9342     		cmp	r3, r2
 740 0048 44D0     		beq	.L72
 127:Bsp/Bsp_Uart.c ****     {
 741              		.loc 1 127 10 is_stmt 1 view .LVU225
 127:Bsp/Bsp_Uart.c ****     {
 742              		.loc 1 127 13 is_stmt 0 view .LVU226
 743 004a 304A     		ldr	r2, .L73+8
 744 004c 9342     		cmp	r3, r2
 745 004e 50D1     		bne	.L67
 129:Bsp/Bsp_Uart.c ****         tx_dma_cfg.Init.Request = DMA_REQUEST_UART7_TX;
 746              		.loc 1 129 9 is_stmt 1 view .LVU227
 129:Bsp/Bsp_Uart.c ****         tx_dma_cfg.Init.Request = DMA_REQUEST_UART7_TX;
 747              		.loc 1 129 33 is_stmt 0 view .LVU228
 748 0050 4F23     		movs	r3, #79
 749 0052 0193     		str	r3, [sp, #4]
 130:Bsp/Bsp_Uart.c **** 
 750              		.loc 1 130 9 is_stmt 1 view .LVU229
 130:Bsp/Bsp_Uart.c **** 
 751              		.loc 1 130 33 is_stmt 0 view .LVU230
 752 0054 5023     		movs	r3, #80
 753 0056 1F93     		str	r3, [sp, #124]
 132:Bsp/Bsp_Uart.c ****     }
 754              		.loc 1 132 9 is_stmt 1 view .LVU231
 755              	.LVL55:
 132:Bsp/Bsp_Uart.c ****     }
 756              		.loc 1 132 15 is_stmt 0 view .LVU232
 757 0058 0226     		movs	r6, #2
 758              	.LVL56:
 759              	.L61:
 137:Bsp/Bsp_Uart.c ****     obj->rx_dma_hdl = rx_dma_cfg;
 760              		.loc 1 137 5 is_stmt 1 view .LVU233
 137:Bsp/Bsp_Uart.c ****     obj->rx_dma_hdl = rx_dma_cfg;
 761              		.loc 1 137 21 is_stmt 0 view .LVU234
 762 005a 7827     		movs	r7, #120
 763 005c 3A46     		mov	r2, r7
 764 005e 0DEB0701 		add	r1, sp, r7
 765 0062 04F19B00 		add	r0, r4, #155
 766 0066 FFF7FEFF 		bl	memcpy
 767              	.LVL57:
 138:Bsp/Bsp_Uart.c **** 
 768              		.loc 1 138 5 is_stmt 1 view .LVU235
 138:Bsp/Bsp_Uart.c **** 
 769              		.loc 1 138 21 is_stmt 0 view .LVU236
 770 006a 04F21515 		addw	r5, r4, #277
 771 006e 3A46     		mov	r2, r7
 772 0070 6946     		mov	r1, sp
 773 0072 2846     		mov	r0, r5
 774 0074 FFF7FEFF 		bl	memcpy
 775              	.LVL58:
 140:Bsp/Bsp_Uart.c ****         !BspDMA.regist(obj->tx_dma, obj->tx_stream, &(obj->tx_dma_hdl)))
 776              		.loc 1 140 5 is_stmt 1 view .LVU237
 140:Bsp/Bsp_Uart.c ****         !BspDMA.regist(obj->tx_dma, obj->tx_stream, &(obj->tx_dma_hdl)))
 777              		.loc 1 140 16 is_stmt 0 view .LVU238
 778 0078 254B     		ldr	r3, .L73+12
 779 007a 1B68     		ldr	r3, [r3]
ARM GAS  C:\Users\HUAV\AppData\Local\Temp\ccXi8vBQ.s 			page 25


 140:Bsp/Bsp_Uart.c ****         !BspDMA.regist(obj->tx_dma, obj->tx_stream, &(obj->tx_dma_hdl)))
 780              		.loc 1 140 10 view .LVU239
 781 007c 2A46     		mov	r2, r5
 782 007e 94F91411 		ldrsb	r1, [r4, #276]
 783 0082 94F91301 		ldrsb	r0, [r4, #275]
 784 0086 9847     		blx	r3
 785              	.LVL59:
 140:Bsp/Bsp_Uart.c ****         !BspDMA.regist(obj->tx_dma, obj->tx_stream, &(obj->tx_dma_hdl)))
 786              		.loc 1 140 8 view .LVU240
 787 0088 50B3     		cbz	r0, .L63
 141:Bsp/Bsp_Uart.c ****         return BspUart_Clock_Error;
 788              		.loc 1 141 16 discriminator 1 view .LVU241
 789 008a 214B     		ldr	r3, .L73+12
 790 008c 1B68     		ldr	r3, [r3]
 141:Bsp/Bsp_Uart.c ****         return BspUart_Clock_Error;
 791              		.loc 1 141 10 discriminator 1 view .LVU242
 792 008e 04F19B07 		add	r7, r4, #155
 793 0092 3A46     		mov	r2, r7
 794 0094 94F99A10 		ldrsb	r1, [r4, #154]
 795 0098 94F99900 		ldrsb	r0, [r4, #153]
 796 009c 9847     		blx	r3
 797              	.LVL60:
 140:Bsp/Bsp_Uart.c ****         !BspDMA.regist(obj->tx_dma, obj->tx_stream, &(obj->tx_dma_hdl)))
 798              		.loc 1 140 73 discriminator 1 view .LVU243
 799 009e F8B1     		cbz	r0, .L63
 144:Bsp/Bsp_Uart.c ****         return BspUart_Clock_Error;
 800              		.loc 1 144 5 is_stmt 1 view .LVU244
 144:Bsp/Bsp_Uart.c ****         return BspUart_Clock_Error;
 801              		.loc 1 144 9 is_stmt 0 view .LVU245
 802 00a0 2846     		mov	r0, r5
 803 00a2 FFF7FEFF 		bl	HAL_DMA_Init
 804              	.LVL61:
 144:Bsp/Bsp_Uart.c ****         return BspUart_Clock_Error;
 805              		.loc 1 144 8 view .LVU246
 806 00a6 38BB     		cbnz	r0, .L68
 147:Bsp/Bsp_Uart.c **** 
 807              		.loc 1 147 5 is_stmt 1 view .LVU247
 147:Bsp/Bsp_Uart.c **** 
 808              		.loc 1 147 5 view .LVU248
 809 00a8 C4F88550 		str	r5, [r4, #133]	@ unaligned
 147:Bsp/Bsp_Uart.c **** 
 810              		.loc 1 147 5 view .LVU249
 811 00ac 04F10905 		add	r5, r4, #9
 812 00b0 C4F84D51 		str	r5, [r4, #333]	@ unaligned
 147:Bsp/Bsp_Uart.c **** 
 813              		.loc 1 147 5 view .LVU250
 149:Bsp/Bsp_Uart.c ****         return BspUart_Clock_Error;
 814              		.loc 1 149 5 view .LVU251
 149:Bsp/Bsp_Uart.c ****         return BspUart_Clock_Error;
 815              		.loc 1 149 9 is_stmt 0 view .LVU252
 816 00b4 3846     		mov	r0, r7
 817 00b6 FFF7FEFF 		bl	HAL_DMA_Init
 818              	.LVL62:
 149:Bsp/Bsp_Uart.c ****         return BspUart_Clock_Error;
 819              		.loc 1 149 8 view .LVU253
 820 00ba 00BB     		cbnz	r0, .L69
 152:Bsp/Bsp_Uart.c **** 
ARM GAS  C:\Users\HUAV\AppData\Local\Temp\ccXi8vBQ.s 			page 26


 821              		.loc 1 152 5 is_stmt 1 view .LVU254
 152:Bsp/Bsp_Uart.c **** 
 822              		.loc 1 152 5 view .LVU255
 823 00bc C4F88170 		str	r7, [r4, #129]	@ unaligned
 152:Bsp/Bsp_Uart.c **** 
 824              		.loc 1 152 5 view .LVU256
 825 00c0 C4F8D350 		str	r5, [r4, #211]	@ unaligned
 152:Bsp/Bsp_Uart.c **** 
 826              		.loc 1 152 5 view .LVU257
 154:Bsp/Bsp_Uart.c **** }
 827              		.loc 1 154 5 view .LVU258
 154:Bsp/Bsp_Uart.c **** }
 828              		.loc 1 154 12 is_stmt 0 view .LVU259
 829 00c4 3046     		mov	r0, r6
 830              	.LVL63:
 831              	.L58:
 155:Bsp/Bsp_Uart.c **** 
 832              		.loc 1 155 1 view .LVU260
 833 00c6 3DB0     		add	sp, sp, #244
 834              	.LCFI11:
 835              		.cfi_remember_state
 836              		.cfi_def_cfa_offset 20
 837              		@ sp needed
 838 00c8 F0BD     		pop	{r4, r5, r6, r7, pc}
 839              	.LVL64:
 840              	.L71:
 841              	.LCFI12:
 842              		.cfi_restore_state
 115:Bsp/Bsp_Uart.c ****         tx_dma_cfg.Init.Request = DMA_REQUEST_UART4_TX;
 843              		.loc 1 115 9 is_stmt 1 view .LVU261
 115:Bsp/Bsp_Uart.c ****         tx_dma_cfg.Init.Request = DMA_REQUEST_UART4_TX;
 844              		.loc 1 115 33 is_stmt 0 view .LVU262
 845 00ca 3F23     		movs	r3, #63
 846 00cc 0193     		str	r3, [sp, #4]
 116:Bsp/Bsp_Uart.c **** 
 847              		.loc 1 116 9 is_stmt 1 view .LVU263
 116:Bsp/Bsp_Uart.c **** 
 848              		.loc 1 116 33 is_stmt 0 view .LVU264
 849 00ce 1F91     		str	r1, [sp, #124]
 118:Bsp/Bsp_Uart.c ****     }
 850              		.loc 1 118 9 is_stmt 1 view .LVU265
 851              	.LVL65:
 118:Bsp/Bsp_Uart.c ****     }
 852              		.loc 1 118 15 is_stmt 0 view .LVU266
 853 00d0 0026     		movs	r6, #0
 854 00d2 C2E7     		b	.L61
 855              	.LVL66:
 856              	.L72:
 122:Bsp/Bsp_Uart.c ****         tx_dma_cfg.Init.Request = DMA_REQUEST_USART6_TX;
 857              		.loc 1 122 9 is_stmt 1 view .LVU267
 122:Bsp/Bsp_Uart.c ****         tx_dma_cfg.Init.Request = DMA_REQUEST_USART6_TX;
 858              		.loc 1 122 33 is_stmt 0 view .LVU268
 859 00d4 4723     		movs	r3, #71
 860 00d6 0193     		str	r3, [sp, #4]
 123:Bsp/Bsp_Uart.c **** 
 861              		.loc 1 123 9 is_stmt 1 view .LVU269
 123:Bsp/Bsp_Uart.c **** 
ARM GAS  C:\Users\HUAV\AppData\Local\Temp\ccXi8vBQ.s 			page 27


 862              		.loc 1 123 33 is_stmt 0 view .LVU270
 863 00d8 4823     		movs	r3, #72
 864 00da 1F93     		str	r3, [sp, #124]
 125:Bsp/Bsp_Uart.c ****     }
 865              		.loc 1 125 9 is_stmt 1 view .LVU271
 866              	.LVL67:
 125:Bsp/Bsp_Uart.c ****     }
 867              		.loc 1 125 15 is_stmt 0 view .LVU272
 868 00dc 0126     		movs	r6, #1
 869 00de BCE7     		b	.L61
 870              	.LVL68:
 871              	.L63:
 142:Bsp/Bsp_Uart.c **** 
 872              		.loc 1 142 9 is_stmt 1 view .LVU273
 142:Bsp/Bsp_Uart.c **** 
 873              		.loc 1 142 16 is_stmt 0 view .LVU274
 874 00e0 4FF0FF30 		mov	r0, #-1
 875 00e4 EFE7     		b	.L58
 876              	.LVL69:
 877              	.L65:
 111:Bsp/Bsp_Uart.c **** 
 878              		.loc 1 111 16 view .LVU275
 879 00e6 4FF0FF30 		mov	r0, #-1
 880 00ea ECE7     		b	.L58
 881              	.L66:
 882 00ec 4FF0FF30 		mov	r0, #-1
 883 00f0 E9E7     		b	.L58
 884              	.L67:
 135:Bsp/Bsp_Uart.c **** 
 885              		.loc 1 135 16 view .LVU276
 886 00f2 4FF0FF30 		mov	r0, #-1
 887 00f6 E6E7     		b	.L58
 888              	.LVL70:
 889              	.L68:
 145:Bsp/Bsp_Uart.c **** 
 890              		.loc 1 145 16 view .LVU277
 891 00f8 4FF0FF30 		mov	r0, #-1
 892 00fc E3E7     		b	.L58
 893              	.L69:
 150:Bsp/Bsp_Uart.c **** 
 894              		.loc 1 150 16 view .LVU278
 895 00fe 4FF0FF30 		mov	r0, #-1
 896 0102 E0E7     		b	.L58
 897              	.L74:
 898              		.align	2
 899              	.L73:
 900 0104 004C0040 		.word	1073761280
 901 0108 00140140 		.word	1073812480
 902 010c 00780040 		.word	1073772544
 903 0110 00000000 		.word	BspDMA
 904              		.cfi_endproc
 905              	.LFE145:
 907              		.section	.text.BspUart_SetIRQ,"ax",%progbits
 908              		.align	1
 909              		.syntax unified
 910              		.thumb
 911              		.thumb_func
ARM GAS  C:\Users\HUAV\AppData\Local\Temp\ccXi8vBQ.s 			page 28


 912              		.fpu fpv5-d16
 914              	BspUart_SetIRQ:
 915              	.LVL71:
 916              	.LFB146:
 158:Bsp/Bsp_Uart.c ****     IRQn_Type irqn;
 917              		.loc 1 158 1 is_stmt 1 view -0
 918              		.cfi_startproc
 919              		@ args = 0, pretend = 0, frame = 0
 920              		@ frame_needed = 0, uses_anonymous_args = 0
 159:Bsp/Bsp_Uart.c ****     int8_t index = Bspuart_None_Index;
 921              		.loc 1 159 5 view .LVU280
 160:Bsp/Bsp_Uart.c **** 
 922              		.loc 1 160 5 view .LVU281
 162:Bsp/Bsp_Uart.c ****         (obj->instance == NULL))
 923              		.loc 1 162 5 view .LVU282
 162:Bsp/Bsp_Uart.c ****         (obj->instance == NULL))
 924              		.loc 1 162 8 is_stmt 0 view .LVU283
 925 0000 00B3     		cbz	r0, .L78
 158:Bsp/Bsp_Uart.c ****     IRQn_Type irqn;
 926              		.loc 1 158 1 discriminator 1 view .LVU284
 927 0002 38B5     		push	{r3, r4, r5, lr}
 928              	.LCFI13:
 929              		.cfi_def_cfa_offset 16
 930              		.cfi_offset 3, -16
 931              		.cfi_offset 4, -12
 932              		.cfi_offset 5, -8
 933              		.cfi_offset 14, -4
 163:Bsp/Bsp_Uart.c ****         return BspUart_Clock_Error;
 934              		.loc 1 163 13 discriminator 1 view .LVU285
 935 0004 D0F80530 		ldr	r3, [r0, #5]	@ unaligned
 162:Bsp/Bsp_Uart.c ****         (obj->instance == NULL))
 936              		.loc 1 162 23 discriminator 1 view .LVU286
 937 0008 FBB1     		cbz	r3, .L79
 166:Bsp/Bsp_Uart.c ****     {
 938              		.loc 1 166 5 is_stmt 1 view .LVU287
 166:Bsp/Bsp_Uart.c ****     {
 939              		.loc 1 166 8 is_stmt 0 view .LVU288
 940 000a 134A     		ldr	r2, .L87
 941 000c 9342     		cmp	r3, r2
 942 000e 13D0     		beq	.L80
 171:Bsp/Bsp_Uart.c ****     {
 943              		.loc 1 171 10 is_stmt 1 view .LVU289
 171:Bsp/Bsp_Uart.c ****     {
 944              		.loc 1 171 13 is_stmt 0 view .LVU290
 945 0010 02F54842 		add	r2, r2, #51200
 946 0014 9342     		cmp	r3, r2
 947 0016 12D0     		beq	.L81
 176:Bsp/Bsp_Uart.c ****     {
 948              		.loc 1 176 10 is_stmt 1 view .LVU291
 176:Bsp/Bsp_Uart.c ****     {
 949              		.loc 1 176 13 is_stmt 0 view .LVU292
 950 0018 A2F51C42 		sub	r2, r2, #39936
 951 001c 9342     		cmp	r3, r2
 952 001e 17D1     		bne	.L82
 179:Bsp/Bsp_Uart.c ****     }
 953              		.loc 1 179 15 view .LVU293
 954 0020 0224     		movs	r4, #2
ARM GAS  C:\Users\HUAV\AppData\Local\Temp\ccXi8vBQ.s 			page 29


 178:Bsp/Bsp_Uart.c ****         index = BspUART_Port_7;
 955              		.loc 1 178 14 view .LVU294
 956 0022 5225     		movs	r5, #82
 957              	.L77:
 958              	.LVL72:
 184:Bsp/Bsp_Uart.c ****     HAL_NVIC_EnableIRQ(irqn);
 959              		.loc 1 184 5 is_stmt 1 view .LVU295
 960 0024 0022     		movs	r2, #0
 961 0026 0521     		movs	r1, #5
 962 0028 2846     		mov	r0, r5
 963              	.LVL73:
 184:Bsp/Bsp_Uart.c ****     HAL_NVIC_EnableIRQ(irqn);
 964              		.loc 1 184 5 is_stmt 0 view .LVU296
 965 002a FFF7FEFF 		bl	HAL_NVIC_SetPriority
 966              	.LVL74:
 185:Bsp/Bsp_Uart.c **** 
 967              		.loc 1 185 5 is_stmt 1 view .LVU297
 968 002e 2846     		mov	r0, r5
 969 0030 FFF7FEFF 		bl	HAL_NVIC_EnableIRQ
 970              	.LVL75:
 187:Bsp/Bsp_Uart.c **** }
 971              		.loc 1 187 5 view .LVU298
 187:Bsp/Bsp_Uart.c **** }
 972              		.loc 1 187 12 is_stmt 0 view .LVU299
 973 0034 2046     		mov	r0, r4
 974              	.LVL76:
 975              	.L75:
 188:Bsp/Bsp_Uart.c **** 
 976              		.loc 1 188 1 view .LVU300
 977 0036 38BD     		pop	{r3, r4, r5, pc}
 978              	.LVL77:
 979              	.L80:
 169:Bsp/Bsp_Uart.c ****     }
 980              		.loc 1 169 15 view .LVU301
 981 0038 0024     		movs	r4, #0
 168:Bsp/Bsp_Uart.c ****         index = BspUART_Port_4;
 982              		.loc 1 168 14 view .LVU302
 983 003a 3425     		movs	r5, #52
 984 003c F2E7     		b	.L77
 985              	.L81:
 174:Bsp/Bsp_Uart.c ****     }
 986              		.loc 1 174 15 view .LVU303
 987 003e 0124     		movs	r4, #1
 173:Bsp/Bsp_Uart.c ****         index = BspUART_Port_6;
 988              		.loc 1 173 14 view .LVU304
 989 0040 4725     		movs	r5, #71
 990 0042 EFE7     		b	.L77
 991              	.L78:
 992              	.LCFI14:
 993              		.cfi_def_cfa_offset 0
 994              		.cfi_restore 3
 995              		.cfi_restore 4
 996              		.cfi_restore 5
 997              		.cfi_restore 14
 164:Bsp/Bsp_Uart.c **** 
 998              		.loc 1 164 16 view .LVU305
 999 0044 4FF0FF30 		mov	r0, #-1
ARM GAS  C:\Users\HUAV\AppData\Local\Temp\ccXi8vBQ.s 			page 30


 1000              	.LVL78:
 188:Bsp/Bsp_Uart.c **** 
 1001              		.loc 1 188 1 view .LVU306
 1002 0048 7047     		bx	lr
 1003              	.LVL79:
 1004              	.L79:
 1005              	.LCFI15:
 1006              		.cfi_def_cfa_offset 16
 1007              		.cfi_offset 3, -16
 1008              		.cfi_offset 4, -12
 1009              		.cfi_offset 5, -8
 1010              		.cfi_offset 14, -4
 164:Bsp/Bsp_Uart.c **** 
 1011              		.loc 1 164 16 view .LVU307
 1012 004a 4FF0FF30 		mov	r0, #-1
 1013              	.LVL80:
 164:Bsp/Bsp_Uart.c **** 
 1014              		.loc 1 164 16 view .LVU308
 1015 004e F2E7     		b	.L75
 1016              	.LVL81:
 1017              	.L82:
 182:Bsp/Bsp_Uart.c **** 
 1018              		.loc 1 182 16 view .LVU309
 1019 0050 4FF0FF30 		mov	r0, #-1
 1020              	.LVL82:
 182:Bsp/Bsp_Uart.c **** 
 1021              		.loc 1 182 16 view .LVU310
 1022 0054 EFE7     		b	.L75
 1023              	.L88:
 1024 0056 00BF     		.align	2
 1025              	.L87:
 1026 0058 004C0040 		.word	1073761280
 1027              		.cfi_endproc
 1028              	.LFE146:
 1030              		.section	.text.BspUart_Init,"ax",%progbits
 1031              		.align	1
 1032              		.syntax unified
 1033              		.thumb
 1034              		.thumb_func
 1035              		.fpu fpv5-d16
 1037              	BspUart_Init:
 1038              	.LVL83:
 1039              	.LFB147:
 191:Bsp/Bsp_Uart.c ****     UART_HandleTypeDef uart_cfg;
 1040              		.loc 1 191 1 is_stmt 1 view -0
 1041              		.cfi_startproc
 1042              		@ args = 0, pretend = 0, frame = 144
 1043              		@ frame_needed = 0, uses_anonymous_args = 0
 191:Bsp/Bsp_Uart.c ****     UART_HandleTypeDef uart_cfg;
 1044              		.loc 1 191 1 is_stmt 0 view .LVU312
 1045 0000 70B5     		push	{r4, r5, r6, lr}
 1046              	.LCFI16:
 1047              		.cfi_def_cfa_offset 16
 1048              		.cfi_offset 4, -16
 1049              		.cfi_offset 5, -12
 1050              		.cfi_offset 6, -8
 1051              		.cfi_offset 14, -4
ARM GAS  C:\Users\HUAV\AppData\Local\Temp\ccXi8vBQ.s 			page 31


 1052 0002 A4B0     		sub	sp, sp, #144
 1053              	.LCFI17:
 1054              		.cfi_def_cfa_offset 160
 1055 0004 0446     		mov	r4, r0
 192:Bsp/Bsp_Uart.c ****     int8_t port_index;
 1056              		.loc 1 192 5 is_stmt 1 view .LVU313
 193:Bsp/Bsp_Uart.c **** 
 1057              		.loc 1 193 5 view .LVU314
 195:Bsp/Bsp_Uart.c **** 
 1058              		.loc 1 195 5 view .LVU315
 195:Bsp/Bsp_Uart.c **** 
 1059              		.loc 1 195 21 is_stmt 0 view .LVU316
 1060 0006 0023     		movs	r3, #0
 1061 0008 80F8BA31 		strb	r3, [r0, #442]
 197:Bsp/Bsp_Uart.c **** 
 1062              		.loc 1 197 5 is_stmt 1 view .LVU317
 197:Bsp/Bsp_Uart.c **** 
 1063              		.loc 1 197 18 is_stmt 0 view .LVU318
 1064 000c FFF7FEFF 		bl	BspUart_Init_Clock
 1065              	.LVL84:
 197:Bsp/Bsp_Uart.c **** 
 1066              		.loc 1 197 16 view .LVU319
 1067 0010 45B2     		sxtb	r5, r0
 1068              	.LVL85:
 199:Bsp/Bsp_Uart.c ****         return false;
 1069              		.loc 1 199 5 is_stmt 1 view .LVU320
 199:Bsp/Bsp_Uart.c ****         return false;
 1070              		.loc 1 199 8 is_stmt 0 view .LVU321
 1071 0012 002D     		cmp	r5, #0
 1072 0014 C0F2A680 		blt	.L101
 202:Bsp/Bsp_Uart.c ****     uart_cfg.Init.BaudRate = obj->baudrate;
 1073              		.loc 1 202 5 is_stmt 1 view .LVU322
 202:Bsp/Bsp_Uart.c ****     uart_cfg.Init.BaudRate = obj->baudrate;
 1074              		.loc 1 202 28 is_stmt 0 view .LVU323
 1075 0018 D4F80530 		ldr	r3, [r4, #5]	@ unaligned
 202:Bsp/Bsp_Uart.c ****     uart_cfg.Init.BaudRate = obj->baudrate;
 1076              		.loc 1 202 23 view .LVU324
 1077 001c 0093     		str	r3, [sp]
 203:Bsp/Bsp_Uart.c ****     uart_cfg.Init.WordLength = UART_WORDLENGTH_8B;
 1078              		.loc 1 203 5 is_stmt 1 view .LVU325
 203:Bsp/Bsp_Uart.c ****     uart_cfg.Init.WordLength = UART_WORDLENGTH_8B;
 1079              		.loc 1 203 33 is_stmt 0 view .LVU326
 1080 001e 2368     		ldr	r3, [r4]	@ unaligned
 203:Bsp/Bsp_Uart.c ****     uart_cfg.Init.WordLength = UART_WORDLENGTH_8B;
 1081              		.loc 1 203 28 view .LVU327
 1082 0020 0193     		str	r3, [sp, #4]
 204:Bsp/Bsp_Uart.c ****     uart_cfg.Init.StopBits = UART_STOPBITS_1;
 1083              		.loc 1 204 5 is_stmt 1 view .LVU328
 204:Bsp/Bsp_Uart.c ****     uart_cfg.Init.StopBits = UART_STOPBITS_1;
 1084              		.loc 1 204 30 is_stmt 0 view .LVU329
 1085 0022 0023     		movs	r3, #0
 1086 0024 0293     		str	r3, [sp, #8]
 205:Bsp/Bsp_Uart.c ****     uart_cfg.Init.Parity = UART_PARITY_NONE;
 1087              		.loc 1 205 5 is_stmt 1 view .LVU330
 205:Bsp/Bsp_Uart.c ****     uart_cfg.Init.Parity = UART_PARITY_NONE;
 1088              		.loc 1 205 28 is_stmt 0 view .LVU331
 1089 0026 0393     		str	r3, [sp, #12]
ARM GAS  C:\Users\HUAV\AppData\Local\Temp\ccXi8vBQ.s 			page 32


 206:Bsp/Bsp_Uart.c ****     uart_cfg.Init.Mode = UART_MODE_TX_RX;
 1090              		.loc 1 206 5 is_stmt 1 view .LVU332
 206:Bsp/Bsp_Uart.c ****     uart_cfg.Init.Mode = UART_MODE_TX_RX;
 1091              		.loc 1 206 26 is_stmt 0 view .LVU333
 1092 0028 0493     		str	r3, [sp, #16]
 207:Bsp/Bsp_Uart.c ****     uart_cfg.Init.HwFlowCtl = UART_HWCONTROL_NONE;
 1093              		.loc 1 207 5 is_stmt 1 view .LVU334
 207:Bsp/Bsp_Uart.c ****     uart_cfg.Init.HwFlowCtl = UART_HWCONTROL_NONE;
 1094              		.loc 1 207 24 is_stmt 0 view .LVU335
 1095 002a 0C22     		movs	r2, #12
 1096 002c 0592     		str	r2, [sp, #20]
 208:Bsp/Bsp_Uart.c ****     uart_cfg.Init.OverSampling = UART_OVERSAMPLING_16;
 1097              		.loc 1 208 5 is_stmt 1 view .LVU336
 208:Bsp/Bsp_Uart.c ****     uart_cfg.Init.OverSampling = UART_OVERSAMPLING_16;
 1098              		.loc 1 208 29 is_stmt 0 view .LVU337
 1099 002e 0693     		str	r3, [sp, #24]
 209:Bsp/Bsp_Uart.c ****     uart_cfg.Init.OneBitSampling = UART_ONE_BIT_SAMPLE_DISABLE;
 1100              		.loc 1 209 5 is_stmt 1 view .LVU338
 209:Bsp/Bsp_Uart.c ****     uart_cfg.Init.OneBitSampling = UART_ONE_BIT_SAMPLE_DISABLE;
 1101              		.loc 1 209 32 is_stmt 0 view .LVU339
 1102 0030 0793     		str	r3, [sp, #28]
 210:Bsp/Bsp_Uart.c ****     uart_cfg.Init.ClockPrescaler = UART_PRESCALER_DIV1;
 1103              		.loc 1 210 5 is_stmt 1 view .LVU340
 210:Bsp/Bsp_Uart.c ****     uart_cfg.Init.ClockPrescaler = UART_PRESCALER_DIV1;
 1104              		.loc 1 210 34 is_stmt 0 view .LVU341
 1105 0032 0893     		str	r3, [sp, #32]
 211:Bsp/Bsp_Uart.c ****     uart_cfg.AdvancedInit.AdvFeatureInit = UART_ADVFEATURE_RXOVERRUNDISABLE_INIT | UART_ADVFEATURE_
 1106              		.loc 1 211 5 is_stmt 1 view .LVU342
 211:Bsp/Bsp_Uart.c ****     uart_cfg.AdvancedInit.AdvFeatureInit = UART_ADVFEATURE_RXOVERRUNDISABLE_INIT | UART_ADVFEATURE_
 1107              		.loc 1 211 34 is_stmt 0 view .LVU343
 1108 0034 0993     		str	r3, [sp, #36]
 212:Bsp/Bsp_Uart.c ****     uart_cfg.AdvancedInit.OverrunDisable = UART_ADVFEATURE_OVERRUN_DISABLE;
 1109              		.loc 1 212 5 is_stmt 1 view .LVU344
 212:Bsp/Bsp_Uart.c ****     uart_cfg.AdvancedInit.OverrunDisable = UART_ADVFEATURE_OVERRUN_DISABLE;
 1110              		.loc 1 212 42 is_stmt 0 view .LVU345
 1111 0036 3023     		movs	r3, #48
 1112 0038 0A93     		str	r3, [sp, #40]
 213:Bsp/Bsp_Uart.c ****     uart_cfg.AdvancedInit.DMADisableonRxError = UART_ADVFEATURE_DMA_DISABLEONRXERROR;
 1113              		.loc 1 213 5 is_stmt 1 view .LVU346
 213:Bsp/Bsp_Uart.c ****     uart_cfg.AdvancedInit.DMADisableonRxError = UART_ADVFEATURE_DMA_DISABLEONRXERROR;
 1114              		.loc 1 213 42 is_stmt 0 view .LVU347
 1115 003a 4FF48053 		mov	r3, #4096
 1116 003e 0F93     		str	r3, [sp, #60]
 214:Bsp/Bsp_Uart.c **** 
 1117              		.loc 1 214 5 is_stmt 1 view .LVU348
 214:Bsp/Bsp_Uart.c **** 
 1118              		.loc 1 214 47 is_stmt 0 view .LVU349
 1119 0040 4FF40053 		mov	r3, #8192
 1120 0044 1093     		str	r3, [sp, #64]
 217:Bsp/Bsp_Uart.c ****         uart_cfg.AdvancedInit.Swap = UART_ADVFEATURE_SWAP_ENABLE;
 1121              		.loc 1 217 5 is_stmt 1 view .LVU350
 217:Bsp/Bsp_Uart.c ****         uart_cfg.AdvancedInit.Swap = UART_ADVFEATURE_SWAP_ENABLE;
 1122              		.loc 1 217 12 is_stmt 0 view .LVU351
 1123 0046 2379     		ldrb	r3, [r4, #4]	@ zero_extendqisi2
 217:Bsp/Bsp_Uart.c ****         uart_cfg.AdvancedInit.Swap = UART_ADVFEATURE_SWAP_ENABLE;
 1124              		.loc 1 217 8 view .LVU352
 1125 0048 13B1     		cbz	r3, .L91
ARM GAS  C:\Users\HUAV\AppData\Local\Temp\ccXi8vBQ.s 			page 33


 218:Bsp/Bsp_Uart.c **** 
 1126              		.loc 1 218 9 is_stmt 1 view .LVU353
 218:Bsp/Bsp_Uart.c **** 
 1127              		.loc 1 218 36 is_stmt 0 view .LVU354
 1128 004a 4FF40043 		mov	r3, #32768
 1129 004e 0E93     		str	r3, [sp, #56]
 1130              	.L91:
 220:Bsp/Bsp_Uart.c **** 
 1131              		.loc 1 220 5 is_stmt 1 view .LVU355
 220:Bsp/Bsp_Uart.c **** 
 1132              		.loc 1 220 14 is_stmt 0 view .LVU356
 1133 0050 04F10906 		add	r6, r4, #9
 1134 0054 9022     		movs	r2, #144
 1135 0056 6946     		mov	r1, sp
 1136 0058 3046     		mov	r0, r6
 1137 005a FFF7FEFF 		bl	memcpy
 1138              	.LVL86:
 222:Bsp/Bsp_Uart.c ****         return false;
 1139              		.loc 1 222 5 is_stmt 1 view .LVU357
 222:Bsp/Bsp_Uart.c ****         return false;
 1140              		.loc 1 222 9 is_stmt 0 view .LVU358
 1141 005e 3046     		mov	r0, r6
 1142 0060 FFF7FEFF 		bl	HAL_UART_Init
 1143              	.LVL87:
 222:Bsp/Bsp_Uart.c ****         return false;
 1144              		.loc 1 222 8 view .LVU359
 1145 0064 10B1     		cbz	r0, .L107
 223:Bsp/Bsp_Uart.c **** 
 1146              		.loc 1 223 16 view .LVU360
 1147 0066 0020     		movs	r0, #0
 1148              	.L90:
 280:Bsp/Bsp_Uart.c **** 
 1149              		.loc 1 280 1 view .LVU361
 1150 0068 24B0     		add	sp, sp, #144
 1151              	.LCFI18:
 1152              		.cfi_remember_state
 1153              		.cfi_def_cfa_offset 16
 1154              		@ sp needed
 1155 006a 70BD     		pop	{r4, r5, r6, pc}
 1156              	.LVL88:
 1157              	.L107:
 1158              	.LCFI19:
 1159              		.cfi_restore_state
 225:Bsp/Bsp_Uart.c ****     {
 1160              		.loc 1 225 5 is_stmt 1 view .LVU362
 225:Bsp/Bsp_Uart.c ****     {
 1161              		.loc 1 225 9 is_stmt 0 view .LVU363
 1162 006c 2046     		mov	r0, r4
 1163 006e FFF7FEFF 		bl	BspUart_Init_DMA
 1164              	.LVL89:
 225:Bsp/Bsp_Uart.c ****     {
 1165              		.loc 1 225 8 view .LVU364
 1166 0072 0028     		cmp	r0, #0
 1167 0074 09DB     		blt	.L108
 230:Bsp/Bsp_Uart.c **** 
 1168              		.loc 1 230 9 is_stmt 1 view .LVU365
 230:Bsp/Bsp_Uart.c **** 
ARM GAS  C:\Users\HUAV\AppData\Local\Temp\ccXi8vBQ.s 			page 34


 1169              		.loc 1 230 23 is_stmt 0 view .LVU366
 1170 0076 0123     		movs	r3, #1
 1171 0078 84F8BB31 		strb	r3, [r4, #443]
 1172              	.L93:
 232:Bsp/Bsp_Uart.c ****         HAL_UARTEx_SetRxFifoThreshold(&uart_cfg, UART_RXFIFO_THRESHOLD_1_8) != HAL_OK ||
 1173              		.loc 1 232 5 is_stmt 1 view .LVU367
 232:Bsp/Bsp_Uart.c ****         HAL_UARTEx_SetRxFifoThreshold(&uart_cfg, UART_RXFIFO_THRESHOLD_1_8) != HAL_OK ||
 1174              		.loc 1 232 9 is_stmt 0 view .LVU368
 1175 007c 0021     		movs	r1, #0
 1176 007e 6846     		mov	r0, sp
 1177 0080 FFF7FEFF 		bl	HAL_UARTEx_SetTxFifoThreshold
 1178              	.LVL90:
 232:Bsp/Bsp_Uart.c ****         HAL_UARTEx_SetRxFifoThreshold(&uart_cfg, UART_RXFIFO_THRESHOLD_1_8) != HAL_OK ||
 1179              		.loc 1 232 8 view .LVU369
 1180 0084 28B1     		cbz	r0, .L109
 1181              	.L94:
 235:Bsp/Bsp_Uart.c **** 
 1182              		.loc 1 235 9 is_stmt 1 view .LVU370
 235:Bsp/Bsp_Uart.c **** 
 1183              		.loc 1 235 16 is_stmt 0 view .LVU371
 1184 0086 0020     		movs	r0, #0
 1185 0088 EEE7     		b	.L90
 1186              	.L108:
 227:Bsp/Bsp_Uart.c ****     }
 1187              		.loc 1 227 9 is_stmt 1 view .LVU372
 227:Bsp/Bsp_Uart.c ****     }
 1188              		.loc 1 227 23 is_stmt 0 view .LVU373
 1189 008a 0223     		movs	r3, #2
 1190 008c 84F8BB31 		strb	r3, [r4, #443]
 1191 0090 F4E7     		b	.L93
 1192              	.L109:
 233:Bsp/Bsp_Uart.c ****         HAL_UARTEx_DisableFifoMode(&uart_cfg) != HAL_OK)
 1193              		.loc 1 233 9 discriminator 1 view .LVU374
 1194 0092 0021     		movs	r1, #0
 1195 0094 6846     		mov	r0, sp
 1196 0096 FFF7FEFF 		bl	HAL_UARTEx_SetRxFifoThreshold
 1197              	.LVL91:
 232:Bsp/Bsp_Uart.c ****         HAL_UARTEx_SetRxFifoThreshold(&uart_cfg, UART_RXFIFO_THRESHOLD_1_8) != HAL_OK ||
 1198              		.loc 1 232 87 discriminator 1 view .LVU375
 1199 009a 0028     		cmp	r0, #0
 1200 009c F3D1     		bne	.L94
 234:Bsp/Bsp_Uart.c ****         return false;
 1201              		.loc 1 234 9 view .LVU376
 1202 009e 6846     		mov	r0, sp
 1203 00a0 FFF7FEFF 		bl	HAL_UARTEx_DisableFifoMode
 1204              	.LVL92:
 233:Bsp/Bsp_Uart.c ****         HAL_UARTEx_DisableFifoMode(&uart_cfg) != HAL_OK)
 1205              		.loc 1 233 87 view .LVU377
 1206 00a4 0028     		cmp	r0, #0
 1207 00a6 EED1     		bne	.L94
 237:Bsp/Bsp_Uart.c ****         return false;
 1208              		.loc 1 237 5 is_stmt 1 view .LVU378
 237:Bsp/Bsp_Uart.c ****         return false;
 1209              		.loc 1 237 13 is_stmt 0 view .LVU379
 1210 00a8 D4F8AD31 		ldr	r3, [r4, #429]	@ unaligned
 237:Bsp/Bsp_Uart.c ****         return false;
 1211              		.loc 1 237 8 view .LVU380
ARM GAS  C:\Users\HUAV\AppData\Local\Temp\ccXi8vBQ.s 			page 35


 1212 00ac 002B     		cmp	r3, #0
 1213 00ae 5BD0     		beq	.L103
 237:Bsp/Bsp_Uart.c ****         return false;
 1214              		.loc 1 237 38 discriminator 1 view .LVU381
 1215 00b0 B4F8B131 		ldrh	r3, [r4, #433]	@ unaligned
 237:Bsp/Bsp_Uart.c ****         return false;
 1216              		.loc 1 237 31 discriminator 1 view .LVU382
 1217 00b4 0BB9     		cbnz	r3, .L110
 238:Bsp/Bsp_Uart.c **** 
 1218              		.loc 1 238 16 view .LVU383
 1219 00b6 0020     		movs	r0, #0
 1220 00b8 D6E7     		b	.L90
 1221              	.L110:
 240:Bsp/Bsp_Uart.c ****     obj->send_finish = false;
 1222              		.loc 1 240 5 is_stmt 1 view .LVU384
 240:Bsp/Bsp_Uart.c ****     obj->send_finish = false;
 1223              		.loc 1 240 34 is_stmt 0 view .LVU385
 1224 00ba 2D4B     		ldr	r3, .L113
 1225 00bc 43F82540 		str	r4, [r3, r5, lsl #2]
 241:Bsp/Bsp_Uart.c ****     obj->wait_till_send_finish = false;
 1226              		.loc 1 241 5 is_stmt 1 view .LVU386
 241:Bsp/Bsp_Uart.c ****     obj->wait_till_send_finish = false;
 1227              		.loc 1 241 22 is_stmt 0 view .LVU387
 1228 00c0 0023     		movs	r3, #0
 1229 00c2 84F8B931 		strb	r3, [r4, #441]
 242:Bsp/Bsp_Uart.c **** 
 1230              		.loc 1 242 5 is_stmt 1 view .LVU388
 242:Bsp/Bsp_Uart.c **** 
 1231              		.loc 1 242 32 is_stmt 0 view .LVU389
 1232 00c6 84F8B831 		strb	r3, [r4, #440]
 244:Bsp/Bsp_Uart.c **** 
 1233              		.loc 1 244 5 is_stmt 1 view .LVU390
 1234 00ca C4F8BC31 		str	r3, [r4, #444]	@ unaligned
 1235 00ce C4F8C031 		str	r3, [r4, #448]	@ unaligned
 1236 00d2 C4F8C431 		str	r3, [r4, #452]	@ unaligned
 1237 00d6 C4F8C831 		str	r3, [r4, #456]	@ unaligned
 1238 00da C4F8CC31 		str	r3, [r4, #460]	@ unaligned
 1239 00de C4F8D031 		str	r3, [r4, #464]	@ unaligned
 1240 00e2 C4F8D431 		str	r3, [r4, #468]	@ unaligned
 247:Bsp/Bsp_Uart.c ****     {
 1241              		.loc 1 247 5 view .LVU391
 247:Bsp/Bsp_Uart.c ****     {
 1242              		.loc 1 247 16 is_stmt 0 view .LVU392
 1243 00e6 94F8BB31 		ldrb	r3, [r4, #443]	@ zero_extendqisi2
 247:Bsp/Bsp_Uart.c ****     {
 1244              		.loc 1 247 5 view .LVU393
 1245 00ea 012B     		cmp	r3, #1
 1246 00ec 03D0     		beq	.L96
 247:Bsp/Bsp_Uart.c ****     {
 1247              		.loc 1 247 5 view .LVU394
 1248 00ee 022B     		cmp	r3, #2
 1249 00f0 22D0     		beq	.L97
 1250 00f2 0020     		movs	r0, #0
 1251 00f4 B8E7     		b	.L90
 1252              	.L96:
 250:Bsp/Bsp_Uart.c ****         break;
 1253              		.loc 1 250 9 is_stmt 1 view .LVU395
ARM GAS  C:\Users\HUAV\AppData\Local\Temp\ccXi8vBQ.s 			page 36


 1254 00f6 D4F80920 		ldr	r2, [r4, #9]	@ unaligned
 1255 00fa 1368     		ldr	r3, [r2]
 1256 00fc 43F01003 		orr	r3, r3, #16
 1257 0100 1360     		str	r3, [r2]
 251:Bsp/Bsp_Uart.c **** 
 1258              		.loc 1 251 9 view .LVU396
 1259              	.L98:
 261:Bsp/Bsp_Uart.c ****     __HAL_UART_DISABLE_IT(&(obj->hdl), UART_IT_PE);
 1260              		.loc 1 261 5 view .LVU397
 1261 0102 D4F80920 		ldr	r2, [r4, #9]	@ unaligned
 1262 0106 9368     		ldr	r3, [r2, #8]
 1263 0108 23F00103 		bic	r3, r3, #1
 1264 010c 9360     		str	r3, [r2, #8]
 262:Bsp/Bsp_Uart.c **** 
 1265              		.loc 1 262 5 view .LVU398
 1266 010e D4F80920 		ldr	r2, [r4, #9]	@ unaligned
 1267 0112 1368     		ldr	r3, [r2]
 1268 0114 23F48073 		bic	r3, r3, #256
 1269 0118 1360     		str	r3, [r2]
 264:Bsp/Bsp_Uart.c ****         return false;
 1270              		.loc 1 264 5 view .LVU399
 264:Bsp/Bsp_Uart.c ****         return false;
 1271              		.loc 1 264 9 is_stmt 0 view .LVU400
 1272 011a 2046     		mov	r0, r4
 1273 011c FFF7FEFF 		bl	BspUart_SetIRQ
 1274              	.LVL93:
 264:Bsp/Bsp_Uart.c ****         return false;
 1275              		.loc 1 264 8 view .LVU401
 1276 0120 0028     		cmp	r0, #0
 1277 0122 23DB     		blt	.L105
 267:Bsp/Bsp_Uart.c ****     {
 1278              		.loc 1 267 5 is_stmt 1 view .LVU402
 267:Bsp/Bsp_Uart.c ****     {
 1279              		.loc 1 267 12 is_stmt 0 view .LVU403
 1280 0124 94F8BB31 		ldrb	r3, [r4, #443]	@ zero_extendqisi2
 267:Bsp/Bsp_Uart.c ****     {
 1281              		.loc 1 267 8 view .LVU404
 1282 0128 012B     		cmp	r3, #1
 1283 012a 0CD0     		beq	.L111
 272:Bsp/Bsp_Uart.c ****     {
 1284              		.loc 1 272 10 is_stmt 1 view .LVU405
 272:Bsp/Bsp_Uart.c ****     {
 1285              		.loc 1 272 13 is_stmt 0 view .LVU406
 1286 012c 022B     		cmp	r3, #2
 1287 012e 12D0     		beq	.L112
 1288              	.L100:
 278:Bsp/Bsp_Uart.c ****     return true;
 1289              		.loc 1 278 5 is_stmt 1 view .LVU407
 278:Bsp/Bsp_Uart.c ****     return true;
 1290              		.loc 1 278 21 is_stmt 0 view .LVU408
 1291 0130 0120     		movs	r0, #1
 1292 0132 84F8BA01 		strb	r0, [r4, #442]
 279:Bsp/Bsp_Uart.c **** }
 1293              		.loc 1 279 5 is_stmt 1 view .LVU409
 279:Bsp/Bsp_Uart.c **** }
 1294              		.loc 1 279 12 is_stmt 0 view .LVU410
 1295 0136 97E7     		b	.L90
ARM GAS  C:\Users\HUAV\AppData\Local\Temp\ccXi8vBQ.s 			page 37


 1296              	.L97:
 254:Bsp/Bsp_Uart.c ****         break;
 1297              		.loc 1 254 9 is_stmt 1 view .LVU411
 1298 0138 D4F80920 		ldr	r2, [r4, #9]	@ unaligned
 1299 013c 1368     		ldr	r3, [r2]
 1300 013e 43F02003 		orr	r3, r3, #32
 1301 0142 1360     		str	r3, [r2]
 255:Bsp/Bsp_Uart.c **** 
 1302              		.loc 1 255 9 view .LVU412
 1303 0144 DDE7     		b	.L98
 1304              	.L111:
 270:Bsp/Bsp_Uart.c ****     }
 1305              		.loc 1 270 9 view .LVU413
 1306 0146 B4F8B121 		ldrh	r2, [r4, #433]	@ unaligned
 1307 014a D4F8AD11 		ldr	r1, [r4, #429]	@ unaligned
 1308 014e 3046     		mov	r0, r6
 1309 0150 FFF7FEFF 		bl	HAL_UART_Receive_DMA
 1310              	.LVL94:
 1311 0154 ECE7     		b	.L100
 1312              	.L112:
 275:Bsp/Bsp_Uart.c ****     }
 1313              		.loc 1 275 9 view .LVU414
 1314 0156 0122     		movs	r2, #1
 1315 0158 04F2B311 		addw	r1, r4, #435
 1316 015c 3046     		mov	r0, r6
 1317 015e FFF7FEFF 		bl	HAL_UART_Receive_IT
 1318              	.LVL95:
 1319 0162 E5E7     		b	.L100
 1320              	.L101:
 200:Bsp/Bsp_Uart.c **** 
 1321              		.loc 1 200 16 is_stmt 0 view .LVU415
 1322 0164 0020     		movs	r0, #0
 1323 0166 7FE7     		b	.L90
 1324              	.L103:
 238:Bsp/Bsp_Uart.c **** 
 1325              		.loc 1 238 16 view .LVU416
 1326 0168 0020     		movs	r0, #0
 1327 016a 7DE7     		b	.L90
 1328              	.L105:
 265:Bsp/Bsp_Uart.c **** 
 1329              		.loc 1 265 16 view .LVU417
 1330 016c 0020     		movs	r0, #0
 1331 016e 7BE7     		b	.L90
 1332              	.L114:
 1333              		.align	2
 1334              	.L113:
 1335 0170 00000000 		.word	.LANCHOR0
 1336              		.cfi_endproc
 1337              	.LFE147:
 1339              		.section	.text.BSP_UART_DMAStopRx,"ax",%progbits
 1340              		.align	1
 1341              		.syntax unified
 1342              		.thumb
 1343              		.thumb_func
 1344              		.fpu fpv5-d16
 1346              	BSP_UART_DMAStopRx:
 1347              	.LVL96:
ARM GAS  C:\Users\HUAV\AppData\Local\Temp\ccXi8vBQ.s 			page 38


 1348              	.LFB154:
 389:Bsp/Bsp_Uart.c **** 
 390:Bsp/Bsp_Uart.c **** static void BSP_UART_DMAStopRx(BspUART_Port_List index)
 391:Bsp/Bsp_Uart.c **** {
 1349              		.loc 1 391 1 is_stmt 1 view -0
 1350              		.cfi_startproc
 1351              		@ args = 0, pretend = 0, frame = 144
 1352              		@ frame_needed = 0, uses_anonymous_args = 0
 392:Bsp/Bsp_Uart.c ****     UART_HandleTypeDef hdl;
 1353              		.loc 1 392 5 view .LVU419
 393:Bsp/Bsp_Uart.c **** 
 394:Bsp/Bsp_Uart.c ****     if (BspUart_Obj_List[index])
 1354              		.loc 1 394 5 view .LVU420
 1355              		.loc 1 394 25 is_stmt 0 view .LVU421
 1356 0000 144B     		ldr	r3, .L123
 1357 0002 53F82010 		ldr	r1, [r3, r0, lsl #2]
 1358              		.loc 1 394 8 view .LVU422
 1359 0006 19B3     		cbz	r1, .L119
 391:Bsp/Bsp_Uart.c ****     UART_HandleTypeDef hdl;
 1360              		.loc 1 391 1 view .LVU423
 1361 0008 10B5     		push	{r4, lr}
 1362              	.LCFI20:
 1363              		.cfi_def_cfa_offset 8
 1364              		.cfi_offset 4, -8
 1365              		.cfi_offset 14, -4
 1366 000a A4B0     		sub	sp, sp, #144
 1367              	.LCFI21:
 1368              		.cfi_def_cfa_offset 152
 1369              	.LBB5:
 395:Bsp/Bsp_Uart.c ****     {
 396:Bsp/Bsp_Uart.c ****         hdl = BspUart_Obj_List[index]->hdl;
 1370              		.loc 1 396 9 is_stmt 1 view .LVU424
 1371              		.loc 1 396 13 is_stmt 0 view .LVU425
 1372 000c 9022     		movs	r2, #144
 1373 000e 0931     		adds	r1, r1, #9
 1374 0010 6846     		mov	r0, sp
 1375              	.LVL97:
 1376              		.loc 1 396 13 view .LVU426
 1377 0012 FFF7FEFF 		bl	memcpy
 1378              	.LVL98:
 397:Bsp/Bsp_Uart.c **** 
 398:Bsp/Bsp_Uart.c ****         const HAL_UART_StateTypeDef rxstate = hdl.RxState;
 1379              		.loc 1 398 9 is_stmt 1 view .LVU427
 1380              		.loc 1 398 37 is_stmt 0 view .LVU428
 1381 0016 229A     		ldr	r2, [sp, #136]
 1382              	.LVL99:
 399:Bsp/Bsp_Uart.c **** 
 400:Bsp/Bsp_Uart.c ****         /* Stop UART DMA Rx request if ongoing */
 401:Bsp/Bsp_Uart.c ****         if ((HAL_IS_BIT_SET(hdl.Instance->CR3, USART_CR3_DMAR)) &&
 1383              		.loc 1 401 9 is_stmt 1 view .LVU429
 1384              		.loc 1 401 14 is_stmt 0 view .LVU430
 1385 0018 009C     		ldr	r4, [sp]
 1386 001a A368     		ldr	r3, [r4, #8]
 1387              		.loc 1 401 12 view .LVU431
 1388 001c 13F0400F 		tst	r3, #64
 1389 0020 01D0     		beq	.L115
 1390              		.loc 1 401 65 discriminator 1 view .LVU432
ARM GAS  C:\Users\HUAV\AppData\Local\Temp\ccXi8vBQ.s 			page 39


 1391 0022 222A     		cmp	r2, #34
 1392 0024 01D0     		beq	.L122
 1393              	.LVL100:
 1394              	.L115:
 1395              		.loc 1 401 65 discriminator 1 view .LVU433
 1396              	.LBE5:
 402:Bsp/Bsp_Uart.c ****             (rxstate == HAL_UART_STATE_BUSY_RX))
 403:Bsp/Bsp_Uart.c ****         {
 404:Bsp/Bsp_Uart.c ****             CLEAR_BIT(hdl.Instance->CR3, USART_CR3_DMAR);
 405:Bsp/Bsp_Uart.c **** 
 406:Bsp/Bsp_Uart.c ****             /* Abort the UART DMA Rx channel */
 407:Bsp/Bsp_Uart.c ****             if (hdl.hdmarx != NULL)
 408:Bsp/Bsp_Uart.c ****             {
 409:Bsp/Bsp_Uart.c ****                 HAL_DMA_Abort(hdl.hdmarx);
 410:Bsp/Bsp_Uart.c ****             }
 411:Bsp/Bsp_Uart.c **** 
 412:Bsp/Bsp_Uart.c ****             /* Disable RXNE, PE and ERR (Frame error, noise error, overrun error) interrupts */
 413:Bsp/Bsp_Uart.c ****             CLEAR_BIT(hdl.Instance->CR1, (USART_CR1_RXNEIE | USART_CR1_PEIE));
 414:Bsp/Bsp_Uart.c ****             CLEAR_BIT(hdl.Instance->CR3, USART_CR3_EIE);
 415:Bsp/Bsp_Uart.c **** 
 416:Bsp/Bsp_Uart.c ****             /* At end of Rx process, restore huart->RxState to Ready */
 417:Bsp/Bsp_Uart.c ****             hdl.RxState = HAL_UART_STATE_READY;
 418:Bsp/Bsp_Uart.c ****         }
 419:Bsp/Bsp_Uart.c ****     }
 420:Bsp/Bsp_Uart.c **** }
 1397              		.loc 1 420 1 view .LVU434
 1398 0026 24B0     		add	sp, sp, #144
 1399              	.LCFI22:
 1400              		.cfi_remember_state
 1401              		.cfi_def_cfa_offset 8
 1402              		@ sp needed
 1403 0028 10BD     		pop	{r4, pc}
 1404              	.LVL101:
 1405              	.L122:
 1406              	.LCFI23:
 1407              		.cfi_restore_state
 1408              	.LBB6:
 404:Bsp/Bsp_Uart.c **** 
 1409              		.loc 1 404 13 is_stmt 1 view .LVU435
 1410 002a A368     		ldr	r3, [r4, #8]
 1411 002c 23F04003 		bic	r3, r3, #64
 1412 0030 A360     		str	r3, [r4, #8]
 407:Bsp/Bsp_Uart.c ****             {
 1413              		.loc 1 407 13 view .LVU436
 407:Bsp/Bsp_Uart.c ****             {
 1414              		.loc 1 407 20 is_stmt 0 view .LVU437
 1415 0032 1F98     		ldr	r0, [sp, #124]
 407:Bsp/Bsp_Uart.c ****             {
 1416              		.loc 1 407 16 view .LVU438
 1417 0034 08B1     		cbz	r0, .L117
 409:Bsp/Bsp_Uart.c ****             }
 1418              		.loc 1 409 17 is_stmt 1 view .LVU439
 1419 0036 FFF7FEFF 		bl	HAL_DMA_Abort
 1420              	.LVL102:
 1421              	.L117:
 413:Bsp/Bsp_Uart.c ****             CLEAR_BIT(hdl.Instance->CR3, USART_CR3_EIE);
 1422              		.loc 1 413 13 view .LVU440
ARM GAS  C:\Users\HUAV\AppData\Local\Temp\ccXi8vBQ.s 			page 40


 1423 003a 2368     		ldr	r3, [r4]
 1424 003c 23F49073 		bic	r3, r3, #288
 1425 0040 2360     		str	r3, [r4]
 414:Bsp/Bsp_Uart.c **** 
 1426              		.loc 1 414 13 view .LVU441
 1427 0042 A368     		ldr	r3, [r4, #8]
 1428 0044 23F00103 		bic	r3, r3, #1
 1429 0048 A360     		str	r3, [r4, #8]
 417:Bsp/Bsp_Uart.c ****         }
 1430              		.loc 1 417 13 view .LVU442
 417:Bsp/Bsp_Uart.c ****         }
 1431              		.loc 1 417 25 is_stmt 0 view .LVU443
 1432 004a 2023     		movs	r3, #32
 1433 004c 2293     		str	r3, [sp, #136]
 1434              	.LBE6:
 1435              		.loc 1 420 1 view .LVU444
 1436 004e EAE7     		b	.L115
 1437              	.LVL103:
 1438              	.L119:
 1439              	.LCFI24:
 1440              		.cfi_def_cfa_offset 0
 1441              		.cfi_restore 4
 1442              		.cfi_restore 14
 1443              		.loc 1 420 1 view .LVU445
 1444 0050 7047     		bx	lr
 1445              	.L124:
 1446 0052 00BF     		.align	2
 1447              	.L123:
 1448 0054 00000000 		.word	.LANCHOR0
 1449              		.cfi_endproc
 1450              	.LFE154:
 1452              		.section	.text.BspUart_GetObj_Handle,"ax",%progbits
 1453              		.align	1
 1454              		.global	BspUart_GetObj_Handle
 1455              		.syntax unified
 1456              		.thumb
 1457              		.thumb_func
 1458              		.fpu fpv5-d16
 1460              	BspUart_GetObj_Handle:
 1461              	.LVL104:
 1462              	.LFB152:
 342:Bsp/Bsp_Uart.c ****     if (index >= BspUART_Port_Sum)
 1463              		.loc 1 342 1 is_stmt 1 view -0
 1464              		.cfi_startproc
 1465              		@ args = 0, pretend = 0, frame = 0
 1466              		@ frame_needed = 0, uses_anonymous_args = 0
 1467              		@ link register save eliminated.
 343:Bsp/Bsp_Uart.c ****         return NULL;
 1468              		.loc 1 343 5 view .LVU447
 343:Bsp/Bsp_Uart.c ****         return NULL;
 1469              		.loc 1 343 8 is_stmt 0 view .LVU448
 1470 0000 0228     		cmp	r0, #2
 1471 0002 04D8     		bhi	.L127
 346:Bsp/Bsp_Uart.c **** }
 1472              		.loc 1 346 5 is_stmt 1 view .LVU449
 346:Bsp/Bsp_Uart.c **** }
 1473              		.loc 1 346 30 is_stmt 0 view .LVU450
ARM GAS  C:\Users\HUAV\AppData\Local\Temp\ccXi8vBQ.s 			page 41


 1474 0004 034B     		ldr	r3, .L128
 1475 0006 53F82000 		ldr	r0, [r3, r0, lsl #2]
 1476              	.LVL105:
 346:Bsp/Bsp_Uart.c **** }
 1477              		.loc 1 346 12 view .LVU451
 1478 000a 0930     		adds	r0, r0, #9
 1479 000c 7047     		bx	lr
 1480              	.LVL106:
 1481              	.L127:
 344:Bsp/Bsp_Uart.c **** 
 1482              		.loc 1 344 16 view .LVU452
 1483 000e 0020     		movs	r0, #0
 1484              	.LVL107:
 347:Bsp/Bsp_Uart.c **** 
 1485              		.loc 1 347 1 view .LVU453
 1486 0010 7047     		bx	lr
 1487              	.L129:
 1488 0012 00BF     		.align	2
 1489              	.L128:
 1490 0014 00000000 		.word	.LANCHOR0
 1491              		.cfi_endproc
 1492              	.LFE152:
 1494              		.section	.text.UART_IRQ_Callback,"ax",%progbits
 1495              		.align	1
 1496              		.global	UART_IRQ_Callback
 1497              		.syntax unified
 1498              		.thumb
 1499              		.thumb_func
 1500              		.fpu fpv5-d16
 1502              	UART_IRQ_Callback:
 1503              	.LVL108:
 1504              	.LFB155:
 421:Bsp/Bsp_Uart.c **** 
 422:Bsp/Bsp_Uart.c **** /******************************** irq callback ***********************************/
 423:Bsp/Bsp_Uart.c **** void UART_IRQ_Callback(BspUART_Port_List index)
 424:Bsp/Bsp_Uart.c **** {
 1505              		.loc 1 424 1 is_stmt 1 view -0
 1506              		.cfi_startproc
 1507              		@ args = 0, pretend = 0, frame = 0
 1508              		@ frame_needed = 0, uses_anonymous_args = 0
 425:Bsp/Bsp_Uart.c ****     static UART_HandleTypeDef *hdl = NULL;
 1509              		.loc 1 425 5 view .LVU455
 426:Bsp/Bsp_Uart.c ****     static DMA_HandleTypeDef *rx_dma = NULL;
 1510              		.loc 1 426 5 view .LVU456
 427:Bsp/Bsp_Uart.c ****     uint16_t len = 0;
 1511              		.loc 1 427 5 view .LVU457
 428:Bsp/Bsp_Uart.c ****     uint32_t isrflags = 0;
 1512              		.loc 1 428 5 view .LVU458
 429:Bsp/Bsp_Uart.c ****     uint32_t cr1its = 0;
 1513              		.loc 1 429 5 view .LVU459
 430:Bsp/Bsp_Uart.c ****     uint32_t errorflags = 0;
 1514              		.loc 1 430 5 view .LVU460
 431:Bsp/Bsp_Uart.c ****     uint32_t cr3its = 0;
 1515              		.loc 1 431 5 view .LVU461
 432:Bsp/Bsp_Uart.c **** 
 433:Bsp/Bsp_Uart.c ****     if (BspUart_Obj_List[index])
 1516              		.loc 1 433 5 view .LVU462
ARM GAS  C:\Users\HUAV\AppData\Local\Temp\ccXi8vBQ.s 			page 42


 1517              		.loc 1 433 25 is_stmt 0 view .LVU463
 1518 0000 4B4B     		ldr	r3, .L142
 1519 0002 53F82030 		ldr	r3, [r3, r0, lsl #2]
 1520              		.loc 1 433 8 view .LVU464
 1521 0006 002B     		cmp	r3, #0
 1522 0008 00F09080 		beq	.L138
 424:Bsp/Bsp_Uart.c ****     static UART_HandleTypeDef *hdl = NULL;
 1523              		.loc 1 424 1 view .LVU465
 1524 000c 70B5     		push	{r4, r5, r6, lr}
 1525              	.LCFI25:
 1526              		.cfi_def_cfa_offset 16
 1527              		.cfi_offset 4, -16
 1528              		.cfi_offset 5, -12
 1529              		.cfi_offset 6, -8
 1530              		.cfi_offset 14, -4
 1531 000e 0446     		mov	r4, r0
 434:Bsp/Bsp_Uart.c ****     {
 435:Bsp/Bsp_Uart.c ****         hdl = &(BspUart_Obj_List[index]->hdl);
 1532              		.loc 1 435 9 is_stmt 1 view .LVU466
 1533              		.loc 1 435 15 is_stmt 0 view .LVU467
 1534 0010 03F10901 		add	r1, r3, #9
 1535              		.loc 1 435 13 view .LVU468
 1536 0014 474A     		ldr	r2, .L142+4
 1537 0016 1160     		str	r1, [r2]
 436:Bsp/Bsp_Uart.c ****         isrflags = READ_REG(hdl->Instance->ISR);
 1538              		.loc 1 436 9 is_stmt 1 view .LVU469
 1539              		.loc 1 436 20 is_stmt 0 view .LVU470
 1540 0018 D3F80920 		ldr	r2, [r3, #9]
 1541              		.loc 1 436 18 view .LVU471
 1542 001c D069     		ldr	r0, [r2, #28]
 1543              	.LVL109:
 437:Bsp/Bsp_Uart.c ****         cr1its = READ_REG(hdl->Instance->CR1);
 1544              		.loc 1 437 9 is_stmt 1 view .LVU472
 1545              		.loc 1 437 16 is_stmt 0 view .LVU473
 1546 001e 1568     		ldr	r5, [r2]
 1547              	.LVL110:
 438:Bsp/Bsp_Uart.c ****         cr3its = READ_REG(hdl->Instance->CR3);
 1548              		.loc 1 438 9 is_stmt 1 view .LVU474
 1549              		.loc 1 438 16 is_stmt 0 view .LVU475
 1550 0020 9668     		ldr	r6, [r2, #8]
 1551              	.LVL111:
 439:Bsp/Bsp_Uart.c ****         errorflags = (isrflags & (uint32_t)(USART_ISR_PE | USART_ISR_FE | USART_ISR_ORE | USART_ISR
 1552              		.loc 1 439 9 is_stmt 1 view .LVU476
 440:Bsp/Bsp_Uart.c **** 
 441:Bsp/Bsp_Uart.c ****         if (errorflags != 0)
 1553              		.loc 1 441 9 view .LVU477
 1554              		.loc 1 441 12 is_stmt 0 view .LVU478
 1555 0022 40F60F0C 		movw	ip, #2063
 1556 0026 10EA0C0F 		tst	r0, ip
 1557 002a 04D1     		bne	.L130
 442:Bsp/Bsp_Uart.c ****             return;
 443:Bsp/Bsp_Uart.c **** 
 444:Bsp/Bsp_Uart.c ****         if (BspUart_Obj_List[index]->irq_type == BspUart_IRQ_Type_Idle)
 1558              		.loc 1 444 9 is_stmt 1 view .LVU479
 1559              		.loc 1 444 36 is_stmt 0 view .LVU480
 1560 002c 93F8BBC1 		ldrb	ip, [r3, #443]	@ zero_extendqisi2
 1561              		.loc 1 444 12 view .LVU481
ARM GAS  C:\Users\HUAV\AppData\Local\Temp\ccXi8vBQ.s 			page 43


 1562 0030 BCF1010F 		cmp	ip, #1
 1563 0034 00D0     		beq	.L141
 1564              	.LVL112:
 1565              	.L130:
 445:Bsp/Bsp_Uart.c ****         {
 446:Bsp/Bsp_Uart.c ****             rx_dma = &(BspUart_Obj_List[index]->rx_dma_hdl);
 447:Bsp/Bsp_Uart.c **** 
 448:Bsp/Bsp_Uart.c ****             if (hdl && rx_dma)
 449:Bsp/Bsp_Uart.c ****             {
 450:Bsp/Bsp_Uart.c ****                 const HAL_UART_StateTypeDef rxstate = hdl->RxState;
 451:Bsp/Bsp_Uart.c **** 
 452:Bsp/Bsp_Uart.c ****                 if ((RESET != (isrflags & USART_ISR_IDLE)) && (RESET != (cr1its & USART_CR1_IDLEIE)
 453:Bsp/Bsp_Uart.c ****                 {
 454:Bsp/Bsp_Uart.c ****                     __HAL_UART_CLEAR_IDLEFLAG(hdl);
 455:Bsp/Bsp_Uart.c **** 
 456:Bsp/Bsp_Uart.c ****                     BSP_UART_DMAStopRx(index);
 457:Bsp/Bsp_Uart.c **** 
 458:Bsp/Bsp_Uart.c ****                     len = BspUart_Obj_List[index]->rx_size - __HAL_DMA_GET_COUNTER(rx_dma);
 459:Bsp/Bsp_Uart.c **** 
 460:Bsp/Bsp_Uart.c ****                     if (len)
 461:Bsp/Bsp_Uart.c ****                     {
 462:Bsp/Bsp_Uart.c ****                         /* idle receive callback process */
 463:Bsp/Bsp_Uart.c ****                         if (BspUart_Obj_List[index]->RxCallback)
 464:Bsp/Bsp_Uart.c ****                             BspUart_Obj_List[index]->RxCallback(BspUart_Obj_List[index]->cust_data_
 465:Bsp/Bsp_Uart.c ****                                                                 BspUart_Obj_List[index]->rx_buf,
 466:Bsp/Bsp_Uart.c ****                                                                 len);
 467:Bsp/Bsp_Uart.c **** 
 468:Bsp/Bsp_Uart.c ****                         BspUart_Obj_List[index]->monitor.rx_cnt++;
 469:Bsp/Bsp_Uart.c ****                         HAL_UART_Receive_DMA(hdl, BspUart_Obj_List[index]->rx_buf, BspUart_Obj_List
 470:Bsp/Bsp_Uart.c ****                     }
 471:Bsp/Bsp_Uart.c ****                     else
 472:Bsp/Bsp_Uart.c ****                     {
 473:Bsp/Bsp_Uart.c ****                         BspUart_Obj_List[index]->monitor.rx_err_cnt++;
 474:Bsp/Bsp_Uart.c ****                         READ_REG(hdl->Instance->RDR);
 475:Bsp/Bsp_Uart.c ****                         __HAL_UART_CLEAR_OREFLAG(hdl);
 476:Bsp/Bsp_Uart.c ****                     }
 477:Bsp/Bsp_Uart.c ****                 }
 478:Bsp/Bsp_Uart.c ****             }
 479:Bsp/Bsp_Uart.c ****         }
 480:Bsp/Bsp_Uart.c ****     }
 481:Bsp/Bsp_Uart.c **** }
 1566              		.loc 1 481 1 view .LVU482
 1567 0036 70BD     		pop	{r4, r5, r6, pc}
 1568              	.LVL113:
 1569              	.L141:
 446:Bsp/Bsp_Uart.c **** 
 1570              		.loc 1 446 13 is_stmt 1 view .LVU483
 446:Bsp/Bsp_Uart.c **** 
 1571              		.loc 1 446 22 is_stmt 0 view .LVU484
 1572 0038 03F21513 		addw	r3, r3, #277
 446:Bsp/Bsp_Uart.c **** 
 1573              		.loc 1 446 20 view .LVU485
 1574 003c 3E4E     		ldr	r6, .L142+8
 1575 003e 3360     		str	r3, [r6]
 448:Bsp/Bsp_Uart.c ****             {
 1576              		.loc 1 448 13 is_stmt 1 view .LVU486
 448:Bsp/Bsp_Uart.c ****             {
ARM GAS  C:\Users\HUAV\AppData\Local\Temp\ccXi8vBQ.s 			page 44


 1577              		.loc 1 448 16 is_stmt 0 view .LVU487
 1578 0040 0029     		cmp	r1, #0
 1579 0042 F8D0     		beq	.L130
 448:Bsp/Bsp_Uart.c ****             {
 1580              		.loc 1 448 21 discriminator 1 view .LVU488
 1581 0044 002B     		cmp	r3, #0
 1582 0046 F6D0     		beq	.L130
 1583              	.LBB7:
 450:Bsp/Bsp_Uart.c **** 
 1584              		.loc 1 450 17 is_stmt 1 view .LVU489
 450:Bsp/Bsp_Uart.c **** 
 1585              		.loc 1 450 45 is_stmt 0 view .LVU490
 1586 0048 D1F88830 		ldr	r3, [r1, #136]
 452:Bsp/Bsp_Uart.c ****                 {
 1587              		.loc 1 452 17 is_stmt 1 view .LVU491
 452:Bsp/Bsp_Uart.c ****                 {
 1588              		.loc 1 452 20 is_stmt 0 view .LVU492
 1589 004c 10F0100F 		tst	r0, #16
 1590 0050 F1D0     		beq	.L130
 452:Bsp/Bsp_Uart.c ****                 {
 1591              		.loc 1 452 60 discriminator 1 view .LVU493
 1592 0052 15F0100F 		tst	r5, #16
 1593 0056 EED0     		beq	.L130
 454:Bsp/Bsp_Uart.c **** 
 1594              		.loc 1 454 21 is_stmt 1 view .LVU494
 1595 0058 1023     		movs	r3, #16
 1596 005a 1362     		str	r3, [r2, #32]
 456:Bsp/Bsp_Uart.c **** 
 1597              		.loc 1 456 21 view .LVU495
 1598 005c 2046     		mov	r0, r4
 1599              	.LVL114:
 456:Bsp/Bsp_Uart.c **** 
 1600              		.loc 1 456 21 is_stmt 0 view .LVU496
 1601 005e FFF7FEFF 		bl	BSP_UART_DMAStopRx
 1602              	.LVL115:
 458:Bsp/Bsp_Uart.c **** 
 1603              		.loc 1 458 21 is_stmt 1 view .LVU497
 458:Bsp/Bsp_Uart.c **** 
 1604              		.loc 1 458 43 is_stmt 0 view .LVU498
 1605 0062 334B     		ldr	r3, .L142
 1606 0064 53F82400 		ldr	r0, [r3, r4, lsl #2]
 458:Bsp/Bsp_Uart.c **** 
 1607              		.loc 1 458 50 view .LVU499
 1608 0068 B0F8B121 		ldrh	r2, [r0, #433]	@ unaligned
 458:Bsp/Bsp_Uart.c **** 
 1609              		.loc 1 458 62 view .LVU500
 1610 006c 3368     		ldr	r3, [r6]
 1611 006e 1B68     		ldr	r3, [r3]
 458:Bsp/Bsp_Uart.c **** 
 1612              		.loc 1 458 60 view .LVU501
 1613 0070 324D     		ldr	r5, .L142+12
 1614              	.LVL116:
 458:Bsp/Bsp_Uart.c **** 
 1615              		.loc 1 458 60 view .LVU502
 1616 0072 3349     		ldr	r1, .L142+16
 1617 0074 8B42     		cmp	r3, r1
 1618 0076 18BF     		it	ne
ARM GAS  C:\Users\HUAV\AppData\Local\Temp\ccXi8vBQ.s 			page 45


 1619 0078 AB42     		cmpne	r3, r5
 1620 007a 2DD0     		beq	.L132
 458:Bsp/Bsp_Uart.c **** 
 1621              		.loc 1 458 62 discriminator 2 view .LVU503
 1622 007c 1831     		adds	r1, r1, #24
 1623 007e 8B42     		cmp	r3, r1
 1624 0080 2AD0     		beq	.L132
 458:Bsp/Bsp_Uart.c **** 
 1625              		.loc 1 458 62 discriminator 4 view .LVU504
 1626 0082 1831     		adds	r1, r1, #24
 1627 0084 8B42     		cmp	r3, r1
 1628 0086 27D0     		beq	.L132
 458:Bsp/Bsp_Uart.c **** 
 1629              		.loc 1 458 62 discriminator 6 view .LVU505
 1630 0088 1831     		adds	r1, r1, #24
 1631 008a 8B42     		cmp	r3, r1
 1632 008c 24D0     		beq	.L132
 458:Bsp/Bsp_Uart.c **** 
 1633              		.loc 1 458 62 discriminator 8 view .LVU506
 1634 008e 1831     		adds	r1, r1, #24
 1635 0090 8B42     		cmp	r3, r1
 1636 0092 21D0     		beq	.L132
 458:Bsp/Bsp_Uart.c **** 
 1637              		.loc 1 458 62 discriminator 10 view .LVU507
 1638 0094 1831     		adds	r1, r1, #24
 1639 0096 8B42     		cmp	r3, r1
 1640 0098 1ED0     		beq	.L132
 458:Bsp/Bsp_Uart.c **** 
 1641              		.loc 1 458 62 discriminator 12 view .LVU508
 1642 009a 1831     		adds	r1, r1, #24
 1643 009c 8B42     		cmp	r3, r1
 1644 009e 1BD0     		beq	.L132
 458:Bsp/Bsp_Uart.c **** 
 1645              		.loc 1 458 62 discriminator 14 view .LVU509
 1646 00a0 01F55671 		add	r1, r1, #856
 1647 00a4 8B42     		cmp	r3, r1
 1648 00a6 17D0     		beq	.L132
 458:Bsp/Bsp_Uart.c **** 
 1649              		.loc 1 458 62 discriminator 16 view .LVU510
 1650 00a8 1831     		adds	r1, r1, #24
 1651 00aa 8B42     		cmp	r3, r1
 1652 00ac 14D0     		beq	.L132
 458:Bsp/Bsp_Uart.c **** 
 1653              		.loc 1 458 62 discriminator 18 view .LVU511
 1654 00ae 1831     		adds	r1, r1, #24
 1655 00b0 8B42     		cmp	r3, r1
 1656 00b2 11D0     		beq	.L132
 458:Bsp/Bsp_Uart.c **** 
 1657              		.loc 1 458 62 discriminator 20 view .LVU512
 1658 00b4 1831     		adds	r1, r1, #24
 1659 00b6 8B42     		cmp	r3, r1
 1660 00b8 0ED0     		beq	.L132
 458:Bsp/Bsp_Uart.c **** 
 1661              		.loc 1 458 62 discriminator 22 view .LVU513
 1662 00ba 1831     		adds	r1, r1, #24
 1663 00bc 8B42     		cmp	r3, r1
 1664 00be 0BD0     		beq	.L132
ARM GAS  C:\Users\HUAV\AppData\Local\Temp\ccXi8vBQ.s 			page 46


 458:Bsp/Bsp_Uart.c **** 
 1665              		.loc 1 458 62 discriminator 24 view .LVU514
 1666 00c0 1831     		adds	r1, r1, #24
 1667 00c2 8B42     		cmp	r3, r1
 1668 00c4 08D0     		beq	.L132
 458:Bsp/Bsp_Uart.c **** 
 1669              		.loc 1 458 62 discriminator 26 view .LVU515
 1670 00c6 1831     		adds	r1, r1, #24
 1671 00c8 8B42     		cmp	r3, r1
 1672 00ca 05D0     		beq	.L132
 458:Bsp/Bsp_Uart.c **** 
 1673              		.loc 1 458 62 discriminator 28 view .LVU516
 1674 00cc 1831     		adds	r1, r1, #24
 1675 00ce 8B42     		cmp	r3, r1
 1676 00d0 02D0     		beq	.L132
 458:Bsp/Bsp_Uart.c **** 
 1677              		.loc 1 458 62 discriminator 30 view .LVU517
 1678 00d2 5B68     		ldr	r3, [r3, #4]
 458:Bsp/Bsp_Uart.c **** 
 1679              		.loc 1 458 60 discriminator 30 view .LVU518
 1680 00d4 9BB2     		uxth	r3, r3
 1681 00d6 01E0     		b	.L134
 1682              	.L132:
 458:Bsp/Bsp_Uart.c **** 
 1683              		.loc 1 458 62 discriminator 29 view .LVU519
 1684 00d8 5B68     		ldr	r3, [r3, #4]
 458:Bsp/Bsp_Uart.c **** 
 1685              		.loc 1 458 60 discriminator 29 view .LVU520
 1686 00da 9BB2     		uxth	r3, r3
 1687              	.L134:
 458:Bsp/Bsp_Uart.c **** 
 1688              		.loc 1 458 25 discriminator 32 view .LVU521
 1689 00dc D21A     		subs	r2, r2, r3
 1690 00de 92B2     		uxth	r2, r2
 1691              	.LVL117:
 460:Bsp/Bsp_Uart.c ****                     {
 1692              		.loc 1 460 21 is_stmt 1 discriminator 32 view .LVU522
 460:Bsp/Bsp_Uart.c ****                     {
 1693              		.loc 1 460 24 is_stmt 0 discriminator 32 view .LVU523
 1694 00e0 C2B1     		cbz	r2, .L135
 463:Bsp/Bsp_Uart.c ****                             BspUart_Obj_List[index]->RxCallback(BspUart_Obj_List[index]->cust_data_
 1695              		.loc 1 463 25 is_stmt 1 view .LVU524
 463:Bsp/Bsp_Uart.c ****                             BspUart_Obj_List[index]->RxCallback(BspUart_Obj_List[index]->cust_data_
 1696              		.loc 1 463 52 is_stmt 0 view .LVU525
 1697 00e2 D0F8A931 		ldr	r3, [r0, #425]	@ unaligned
 463:Bsp/Bsp_Uart.c ****                             BspUart_Obj_List[index]->RxCallback(BspUart_Obj_List[index]->cust_data_
 1698              		.loc 1 463 28 view .LVU526
 1699 00e6 23B1     		cbz	r3, .L136
 464:Bsp/Bsp_Uart.c ****                                                                 BspUart_Obj_List[index]->rx_buf,
 1700              		.loc 1 464 29 is_stmt 1 view .LVU527
 1701 00e8 D0F8AD11 		ldr	r1, [r0, #429]	@ unaligned
 1702 00ec D0F8B401 		ldr	r0, [r0, #436]	@ unaligned
 1703 00f0 9847     		blx	r3
 1704              	.LVL118:
 1705              	.L136:
 468:Bsp/Bsp_Uart.c ****                         HAL_UART_Receive_DMA(hdl, BspUart_Obj_List[index]->rx_buf, BspUart_Obj_List
 1706              		.loc 1 468 25 view .LVU528
ARM GAS  C:\Users\HUAV\AppData\Local\Temp\ccXi8vBQ.s 			page 47


 468:Bsp/Bsp_Uart.c ****                         HAL_UART_Receive_DMA(hdl, BspUart_Obj_List[index]->rx_buf, BspUart_Obj_List
 1707              		.loc 1 468 41 is_stmt 0 view .LVU529
 1708 00f2 0F4B     		ldr	r3, .L142
 1709 00f4 53F82430 		ldr	r3, [r3, r4, lsl #2]
 468:Bsp/Bsp_Uart.c ****                         HAL_UART_Receive_DMA(hdl, BspUart_Obj_List[index]->rx_buf, BspUart_Obj_List
 1710              		.loc 1 468 57 view .LVU530
 1711 00f8 D3F8BC21 		ldr	r2, [r3, #444]	@ unaligned
 468:Bsp/Bsp_Uart.c ****                         HAL_UART_Receive_DMA(hdl, BspUart_Obj_List[index]->rx_buf, BspUart_Obj_List
 1712              		.loc 1 468 64 view .LVU531
 1713 00fc 0132     		adds	r2, r2, #1
 1714 00fe C3F8BC21 		str	r2, [r3, #444]	@ unaligned
 469:Bsp/Bsp_Uart.c ****                     }
 1715              		.loc 1 469 25 is_stmt 1 view .LVU532
 1716 0102 B3F8B121 		ldrh	r2, [r3, #433]	@ unaligned
 1717 0106 D3F8AD11 		ldr	r1, [r3, #429]	@ unaligned
 1718 010a 0A4B     		ldr	r3, .L142+4
 1719 010c 1868     		ldr	r0, [r3]
 1720 010e FFF7FEFF 		bl	HAL_UART_Receive_DMA
 1721              	.LVL119:
 1722 0112 90E7     		b	.L130
 1723              	.LVL120:
 1724              	.L135:
 473:Bsp/Bsp_Uart.c ****                         READ_REG(hdl->Instance->RDR);
 1725              		.loc 1 473 25 view .LVU533
 473:Bsp/Bsp_Uart.c ****                         READ_REG(hdl->Instance->RDR);
 1726              		.loc 1 473 57 is_stmt 0 view .LVU534
 1727 0114 D0F8C431 		ldr	r3, [r0, #452]	@ unaligned
 473:Bsp/Bsp_Uart.c ****                         READ_REG(hdl->Instance->RDR);
 1728              		.loc 1 473 68 view .LVU535
 1729 0118 0133     		adds	r3, r3, #1
 1730 011a C0F8C431 		str	r3, [r0, #452]	@ unaligned
 474:Bsp/Bsp_Uart.c ****                         __HAL_UART_CLEAR_OREFLAG(hdl);
 1731              		.loc 1 474 25 is_stmt 1 view .LVU536
 1732 011e 054B     		ldr	r3, .L142+4
 1733 0120 1B68     		ldr	r3, [r3]
 1734 0122 1B68     		ldr	r3, [r3]
 1735 0124 5A6A     		ldr	r2, [r3, #36]
 1736              	.LVL121:
 475:Bsp/Bsp_Uart.c ****                     }
 1737              		.loc 1 475 25 view .LVU537
 1738 0126 0822     		movs	r2, #8
 1739 0128 1A62     		str	r2, [r3, #32]
 475:Bsp/Bsp_Uart.c ****                     }
 1740              		.loc 1 475 25 is_stmt 0 view .LVU538
 1741 012a 84E7     		b	.L130
 1742              	.LVL122:
 1743              	.L138:
 1744              	.LCFI26:
 1745              		.cfi_def_cfa_offset 0
 1746              		.cfi_restore 4
 1747              		.cfi_restore 5
 1748              		.cfi_restore 6
 1749              		.cfi_restore 14
 475:Bsp/Bsp_Uart.c ****                     }
 1750              		.loc 1 475 25 view .LVU539
 1751 012c 7047     		bx	lr
 1752              	.L143:
ARM GAS  C:\Users\HUAV\AppData\Local\Temp\ccXi8vBQ.s 			page 48


 1753 012e 00BF     		.align	2
 1754              	.L142:
 1755 0130 00000000 		.word	.LANCHOR0
 1756 0134 00000000 		.word	.LANCHOR1
 1757 0138 00000000 		.word	.LANCHOR2
 1758 013c 10000240 		.word	1073872912
 1759 0140 28000240 		.word	1073872936
 1760              	.LBE7:
 1761              		.cfi_endproc
 1762              	.LFE155:
 1764              		.section	.text.HAL_UART_RxCpltCallback,"ax",%progbits
 1765              		.align	1
 1766              		.global	HAL_UART_RxCpltCallback
 1767              		.syntax unified
 1768              		.thumb
 1769              		.thumb_func
 1770              		.fpu fpv5-d16
 1772              	HAL_UART_RxCpltCallback:
 1773              	.LVL123:
 1774              	.LFB156:
 482:Bsp/Bsp_Uart.c **** 
 483:Bsp/Bsp_Uart.c **** /* receive full */
 484:Bsp/Bsp_Uart.c **** void HAL_UART_RxCpltCallback(UART_HandleTypeDef *huart)
 485:Bsp/Bsp_Uart.c **** {
 1775              		.loc 1 485 1 is_stmt 1 view -0
 1776              		.cfi_startproc
 1777              		@ args = 0, pretend = 0, frame = 0
 1778              		@ frame_needed = 0, uses_anonymous_args = 0
 1779              		.loc 1 485 1 is_stmt 0 view .LVU541
 1780 0000 38B5     		push	{r3, r4, r5, lr}
 1781              	.LCFI27:
 1782              		.cfi_def_cfa_offset 16
 1783              		.cfi_offset 3, -16
 1784              		.cfi_offset 4, -12
 1785              		.cfi_offset 5, -8
 1786              		.cfi_offset 14, -4
 486:Bsp/Bsp_Uart.c ****     uint8_t index = 0;
 1787              		.loc 1 486 5 is_stmt 1 view .LVU542
 1788              	.LVL124:
 487:Bsp/Bsp_Uart.c **** 
 488:Bsp/Bsp_Uart.c ****     if (huart->Instance == UART4)
 1789              		.loc 1 488 5 view .LVU543
 1790              		.loc 1 488 14 is_stmt 0 view .LVU544
 1791 0002 0368     		ldr	r3, [r0]
 1792              		.loc 1 488 8 view .LVU545
 1793 0004 2B4A     		ldr	r2, .L158
 1794 0006 9342     		cmp	r3, r2
 1795 0008 0AD0     		beq	.L151
 489:Bsp/Bsp_Uart.c ****     {
 490:Bsp/Bsp_Uart.c ****         index = BspUART_Port_4;
 491:Bsp/Bsp_Uart.c ****     }
 492:Bsp/Bsp_Uart.c ****     else if (huart->Instance == USART6)
 1796              		.loc 1 492 10 is_stmt 1 view .LVU546
 1797              		.loc 1 492 13 is_stmt 0 view .LVU547
 1798 000a 02F54842 		add	r2, r2, #51200
 1799 000e 9342     		cmp	r3, r2
 1800 0010 30D0     		beq	.L152
ARM GAS  C:\Users\HUAV\AppData\Local\Temp\ccXi8vBQ.s 			page 49


 493:Bsp/Bsp_Uart.c ****     {
 494:Bsp/Bsp_Uart.c ****         index = BspUART_Port_6;
 495:Bsp/Bsp_Uart.c ****     }
 496:Bsp/Bsp_Uart.c ****     else if (huart->Instance == UART7)
 1801              		.loc 1 496 10 is_stmt 1 view .LVU548
 1802              		.loc 1 496 13 is_stmt 0 view .LVU549
 1803 0012 A2F51C42 		sub	r2, r2, #39936
 1804 0016 9342     		cmp	r3, r2
 1805 0018 00D0     		beq	.L155
 1806              	.LVL125:
 1807              	.L144:
 497:Bsp/Bsp_Uart.c ****     {
 498:Bsp/Bsp_Uart.c ****         index = BspUART_Port_7;
 499:Bsp/Bsp_Uart.c ****     }
 500:Bsp/Bsp_Uart.c ****     else
 501:Bsp/Bsp_Uart.c ****         return;
 502:Bsp/Bsp_Uart.c **** 
 503:Bsp/Bsp_Uart.c ****     if (BspUart_Obj_List[index])
 504:Bsp/Bsp_Uart.c ****     {
 505:Bsp/Bsp_Uart.c ****         if (BspUart_Obj_List[index]->irq_type == BspUart_IRQ_Type_Idle)
 506:Bsp/Bsp_Uart.c ****         {
 507:Bsp/Bsp_Uart.c ****             if (BspUart_Obj_List[index]->RxCallback)
 508:Bsp/Bsp_Uart.c ****                 BspUart_Obj_List[index]->RxCallback(BspUart_Obj_List[index]->cust_data_addr,
 509:Bsp/Bsp_Uart.c ****                                                     BspUart_Obj_List[index]->rx_buf,
 510:Bsp/Bsp_Uart.c ****                                                     BspUart_Obj_List[index]->rx_size);
 511:Bsp/Bsp_Uart.c **** 
 512:Bsp/Bsp_Uart.c ****             HAL_UART_Receive_DMA(&(BspUart_Obj_List[index]->hdl), BspUart_Obj_List[index]->rx_buf, 
 513:Bsp/Bsp_Uart.c **** 
 514:Bsp/Bsp_Uart.c ****             BspUart_Obj_List[index]->monitor.rx_full_cnt++;
 515:Bsp/Bsp_Uart.c ****         }
 516:Bsp/Bsp_Uart.c ****         else if (BspUart_Obj_List[index]->irq_type == BspUart_IRQ_Type_Byte)
 517:Bsp/Bsp_Uart.c ****         {
 518:Bsp/Bsp_Uart.c ****             if (HAL_UART_GetState(&(BspUart_Obj_List[index]->hdl) == HAL_UART_STATE_READY))
 519:Bsp/Bsp_Uart.c ****             {
 520:Bsp/Bsp_Uart.c ****                 if (BspUart_Obj_List[index]->RxCallback)
 521:Bsp/Bsp_Uart.c ****                     BspUart_Obj_List[index]->RxCallback(BspUart_Obj_List[index]->cust_data_addr, &B
 522:Bsp/Bsp_Uart.c **** 
 523:Bsp/Bsp_Uart.c ****                 HAL_UART_Receive_IT(&(BspUart_Obj_List[index]->hdl), &BspUart_Obj_List[index]->rx_s
 524:Bsp/Bsp_Uart.c ****             }
 525:Bsp/Bsp_Uart.c ****         }
 526:Bsp/Bsp_Uart.c ****     }
 527:Bsp/Bsp_Uart.c **** }
 1808              		.loc 1 527 1 view .LVU550
 1809 001a 38BD     		pop	{r3, r4, r5, pc}
 1810              	.LVL126:
 1811              	.L155:
 498:Bsp/Bsp_Uart.c ****     }
 1812              		.loc 1 498 15 view .LVU551
 1813 001c 0223     		movs	r3, #2
 1814 001e 00E0     		b	.L145
 1815              	.L151:
 490:Bsp/Bsp_Uart.c ****     }
 1816              		.loc 1 490 15 view .LVU552
 1817 0020 0023     		movs	r3, #0
 1818              	.L145:
 1819              	.LVL127:
 503:Bsp/Bsp_Uart.c ****     {
ARM GAS  C:\Users\HUAV\AppData\Local\Temp\ccXi8vBQ.s 			page 50


 1820              		.loc 1 503 5 is_stmt 1 view .LVU553
 503:Bsp/Bsp_Uart.c ****     {
 1821              		.loc 1 503 25 is_stmt 0 view .LVU554
 1822 0022 1C46     		mov	r4, r3
 1823 0024 244A     		ldr	r2, .L158+4
 1824 0026 52F82330 		ldr	r3, [r2, r3, lsl #2]
 1825              	.LVL128:
 503:Bsp/Bsp_Uart.c ****     {
 1826              		.loc 1 503 8 view .LVU555
 1827 002a 002B     		cmp	r3, #0
 1828 002c F5D0     		beq	.L144
 505:Bsp/Bsp_Uart.c ****         {
 1829              		.loc 1 505 9 is_stmt 1 view .LVU556
 505:Bsp/Bsp_Uart.c ****         {
 1830              		.loc 1 505 36 is_stmt 0 view .LVU557
 1831 002e 93F8BB21 		ldrb	r2, [r3, #443]	@ zero_extendqisi2
 505:Bsp/Bsp_Uart.c ****         {
 1832              		.loc 1 505 12 view .LVU558
 1833 0032 012A     		cmp	r2, #1
 1834 0034 20D0     		beq	.L156
 516:Bsp/Bsp_Uart.c ****         {
 1835              		.loc 1 516 14 is_stmt 1 view .LVU559
 516:Bsp/Bsp_Uart.c ****         {
 1836              		.loc 1 516 17 is_stmt 0 view .LVU560
 1837 0036 022A     		cmp	r2, #2
 1838 0038 EFD1     		bne	.L144
 518:Bsp/Bsp_Uart.c ****             {
 1839              		.loc 1 518 13 is_stmt 1 view .LVU561
 518:Bsp/Bsp_Uart.c ****             {
 1840              		.loc 1 518 17 is_stmt 0 view .LVU562
 1841 003a 172B     		cmp	r3, #23
 1842 003c 38D0     		beq	.L157
 1843 003e 0020     		movs	r0, #0
 1844              	.LVL129:
 1845              	.L149:
 518:Bsp/Bsp_Uart.c ****             {
 1846              		.loc 1 518 17 discriminator 4 view .LVU563
 1847 0040 FFF7FEFF 		bl	HAL_UART_GetState
 1848              	.LVL130:
 518:Bsp/Bsp_Uart.c ****             {
 1849              		.loc 1 518 16 discriminator 4 view .LVU564
 1850 0044 0028     		cmp	r0, #0
 1851 0046 E8D0     		beq	.L144
 520:Bsp/Bsp_Uart.c ****                     BspUart_Obj_List[index]->RxCallback(BspUart_Obj_List[index]->cust_data_addr, &B
 1852              		.loc 1 520 17 is_stmt 1 view .LVU565
 520:Bsp/Bsp_Uart.c ****                     BspUart_Obj_List[index]->RxCallback(BspUart_Obj_List[index]->cust_data_addr, &B
 1853              		.loc 1 520 37 is_stmt 0 view .LVU566
 1854 0048 1B4B     		ldr	r3, .L158+4
 1855 004a 53F82430 		ldr	r3, [r3, r4, lsl #2]
 520:Bsp/Bsp_Uart.c ****                     BspUart_Obj_List[index]->RxCallback(BspUart_Obj_List[index]->cust_data_addr, &B
 1856              		.loc 1 520 44 view .LVU567
 1857 004e D3F8A951 		ldr	r5, [r3, #425]	@ unaligned
 520:Bsp/Bsp_Uart.c ****                     BspUart_Obj_List[index]->RxCallback(BspUart_Obj_List[index]->cust_data_addr, &B
 1858              		.loc 1 520 20 view .LVU568
 1859 0052 2DB1     		cbz	r5, .L150
 521:Bsp/Bsp_Uart.c **** 
 1860              		.loc 1 521 21 is_stmt 1 view .LVU569
ARM GAS  C:\Users\HUAV\AppData\Local\Temp\ccXi8vBQ.s 			page 51


 1861 0054 0122     		movs	r2, #1
 1862 0056 03F2B311 		addw	r1, r3, #435
 1863 005a D3F8B401 		ldr	r0, [r3, #436]	@ unaligned
 1864 005e A847     		blx	r5
 1865              	.LVL131:
 1866              	.L150:
 523:Bsp/Bsp_Uart.c ****             }
 1867              		.loc 1 523 17 view .LVU570
 523:Bsp/Bsp_Uart.c ****             }
 1868              		.loc 1 523 55 is_stmt 0 view .LVU571
 1869 0060 154B     		ldr	r3, .L158+4
 1870 0062 53F82400 		ldr	r0, [r3, r4, lsl #2]
 523:Bsp/Bsp_Uart.c ****             }
 1871              		.loc 1 523 17 view .LVU572
 1872 0066 0122     		movs	r2, #1
 1873 0068 00F2B311 		addw	r1, r0, #435
 1874 006c 0930     		adds	r0, r0, #9
 1875 006e FFF7FEFF 		bl	HAL_UART_Receive_IT
 1876              	.LVL132:
 1877 0072 D2E7     		b	.L144
 1878              	.LVL133:
 1879              	.L152:
 494:Bsp/Bsp_Uart.c ****     }
 1880              		.loc 1 494 15 view .LVU573
 1881 0074 0123     		movs	r3, #1
 1882 0076 D4E7     		b	.L145
 1883              	.LVL134:
 1884              	.L156:
 507:Bsp/Bsp_Uart.c ****                 BspUart_Obj_List[index]->RxCallback(BspUart_Obj_List[index]->cust_data_addr,
 1885              		.loc 1 507 13 is_stmt 1 view .LVU574
 507:Bsp/Bsp_Uart.c ****                 BspUart_Obj_List[index]->RxCallback(BspUart_Obj_List[index]->cust_data_addr,
 1886              		.loc 1 507 40 is_stmt 0 view .LVU575
 1887 0078 D3F8A951 		ldr	r5, [r3, #425]	@ unaligned
 507:Bsp/Bsp_Uart.c ****                 BspUart_Obj_List[index]->RxCallback(BspUart_Obj_List[index]->cust_data_addr,
 1888              		.loc 1 507 16 view .LVU576
 1889 007c 35B1     		cbz	r5, .L148
 508:Bsp/Bsp_Uart.c ****                                                     BspUart_Obj_List[index]->rx_buf,
 1890              		.loc 1 508 17 is_stmt 1 view .LVU577
 1891 007e B3F8B121 		ldrh	r2, [r3, #433]	@ unaligned
 1892 0082 D3F8AD11 		ldr	r1, [r3, #429]	@ unaligned
 1893 0086 D3F8B401 		ldr	r0, [r3, #436]	@ unaligned
 1894              	.LVL135:
 508:Bsp/Bsp_Uart.c ****                                                     BspUart_Obj_List[index]->rx_buf,
 1895              		.loc 1 508 17 is_stmt 0 view .LVU578
 1896 008a A847     		blx	r5
 1897              	.LVL136:
 1898              	.L148:
 512:Bsp/Bsp_Uart.c **** 
 1899              		.loc 1 512 13 is_stmt 1 view .LVU579
 512:Bsp/Bsp_Uart.c **** 
 1900              		.loc 1 512 52 is_stmt 0 view .LVU580
 1901 008c 0A4D     		ldr	r5, .L158+4
 1902 008e 55F82400 		ldr	r0, [r5, r4, lsl #2]
 512:Bsp/Bsp_Uart.c **** 
 1903              		.loc 1 512 13 view .LVU581
 1904 0092 B0F8B121 		ldrh	r2, [r0, #433]	@ unaligned
 1905 0096 D0F8AD11 		ldr	r1, [r0, #429]	@ unaligned
ARM GAS  C:\Users\HUAV\AppData\Local\Temp\ccXi8vBQ.s 			page 52


 1906 009a 0930     		adds	r0, r0, #9
 1907 009c FFF7FEFF 		bl	HAL_UART_Receive_DMA
 1908              	.LVL137:
 514:Bsp/Bsp_Uart.c ****         }
 1909              		.loc 1 514 13 is_stmt 1 view .LVU582
 514:Bsp/Bsp_Uart.c ****         }
 1910              		.loc 1 514 29 is_stmt 0 view .LVU583
 1911 00a0 55F82420 		ldr	r2, [r5, r4, lsl #2]
 514:Bsp/Bsp_Uart.c ****         }
 1912              		.loc 1 514 45 view .LVU584
 1913 00a4 D2F8C831 		ldr	r3, [r2, #456]	@ unaligned
 514:Bsp/Bsp_Uart.c ****         }
 1914              		.loc 1 514 57 view .LVU585
 1915 00a8 0133     		adds	r3, r3, #1
 1916 00aa C2F8C831 		str	r3, [r2, #456]	@ unaligned
 1917 00ae B4E7     		b	.L144
 1918              	.LVL138:
 1919              	.L157:
 518:Bsp/Bsp_Uart.c ****             {
 1920              		.loc 1 518 17 view .LVU586
 1921 00b0 0120     		movs	r0, #1
 1922              	.LVL139:
 518:Bsp/Bsp_Uart.c ****             {
 1923              		.loc 1 518 17 view .LVU587
 1924 00b2 C5E7     		b	.L149
 1925              	.L159:
 1926              		.align	2
 1927              	.L158:
 1928 00b4 004C0040 		.word	1073761280
 1929 00b8 00000000 		.word	.LANCHOR0
 1930              		.cfi_endproc
 1931              	.LFE156:
 1933              		.section	.text.HAL_UART_TxCpltCallback,"ax",%progbits
 1934              		.align	1
 1935              		.global	HAL_UART_TxCpltCallback
 1936              		.syntax unified
 1937              		.thumb
 1938              		.thumb_func
 1939              		.fpu fpv5-d16
 1941              	HAL_UART_TxCpltCallback:
 1942              	.LVL140:
 1943              	.LFB157:
 528:Bsp/Bsp_Uart.c **** 
 529:Bsp/Bsp_Uart.c **** /* transfer full */
 530:Bsp/Bsp_Uart.c **** void HAL_UART_TxCpltCallback(UART_HandleTypeDef *huart)
 531:Bsp/Bsp_Uart.c **** {
 1944              		.loc 1 531 1 is_stmt 1 view -0
 1945              		.cfi_startproc
 1946              		@ args = 0, pretend = 0, frame = 0
 1947              		@ frame_needed = 0, uses_anonymous_args = 0
 1948              		@ link register save eliminated.
 532:Bsp/Bsp_Uart.c ****     uint8_t index = 0;
 1949              		.loc 1 532 5 view .LVU589
 533:Bsp/Bsp_Uart.c **** 
 534:Bsp/Bsp_Uart.c ****     if (huart->Instance == UART4)
 1950              		.loc 1 534 5 view .LVU590
 1951              		.loc 1 534 14 is_stmt 0 view .LVU591
ARM GAS  C:\Users\HUAV\AppData\Local\Temp\ccXi8vBQ.s 			page 53


 1952 0000 0368     		ldr	r3, [r0]
 1953              		.loc 1 534 8 view .LVU592
 1954 0002 0F4A     		ldr	r2, .L166
 1955 0004 9342     		cmp	r3, r2
 1956 0006 0AD0     		beq	.L163
 535:Bsp/Bsp_Uart.c ****     {
 536:Bsp/Bsp_Uart.c ****         index = BspUART_Port_4;
 537:Bsp/Bsp_Uart.c ****     }
 538:Bsp/Bsp_Uart.c ****     else if (huart->Instance == USART6)
 1957              		.loc 1 538 10 is_stmt 1 view .LVU593
 1958              		.loc 1 538 13 is_stmt 0 view .LVU594
 1959 0008 02F54842 		add	r2, r2, #51200
 1960 000c 9342     		cmp	r3, r2
 1961 000e 14D0     		beq	.L164
 539:Bsp/Bsp_Uart.c ****     {
 540:Bsp/Bsp_Uart.c ****         index = BspUART_Port_6;
 541:Bsp/Bsp_Uart.c ****     }
 542:Bsp/Bsp_Uart.c ****     else if (huart->Instance == UART7)
 1962              		.loc 1 542 10 is_stmt 1 view .LVU595
 1963              		.loc 1 542 13 is_stmt 0 view .LVU596
 1964 0010 A2F51C42 		sub	r2, r2, #39936
 1965 0014 9342     		cmp	r3, r2
 1966 0016 00D0     		beq	.L165
 1967              	.LVL141:
 1968              	.L160:
 543:Bsp/Bsp_Uart.c ****     {
 544:Bsp/Bsp_Uart.c ****         index = BspUART_Port_7;
 545:Bsp/Bsp_Uart.c ****     }
 546:Bsp/Bsp_Uart.c ****     else
 547:Bsp/Bsp_Uart.c ****         return;
 548:Bsp/Bsp_Uart.c **** 
 549:Bsp/Bsp_Uart.c ****     if (BspUart_Obj_List[index])
 550:Bsp/Bsp_Uart.c ****     {
 551:Bsp/Bsp_Uart.c ****         if (BspUart_Obj_List[index]->wait_till_send_finish)
 552:Bsp/Bsp_Uart.c ****             BspUart_Obj_List[index]->send_finish = true;
 553:Bsp/Bsp_Uart.c ****     }
 554:Bsp/Bsp_Uart.c **** }
 1969              		.loc 1 554 1 view .LVU597
 1970 0018 7047     		bx	lr
 1971              	.LVL142:
 1972              	.L165:
 544:Bsp/Bsp_Uart.c ****     }
 1973              		.loc 1 544 15 view .LVU598
 1974 001a 0222     		movs	r2, #2
 1975 001c 00E0     		b	.L161
 1976              	.L163:
 536:Bsp/Bsp_Uart.c ****     }
 1977              		.loc 1 536 15 view .LVU599
 1978 001e 0022     		movs	r2, #0
 1979              	.L161:
 1980              	.LVL143:
 549:Bsp/Bsp_Uart.c ****     {
 1981              		.loc 1 549 5 is_stmt 1 view .LVU600
 549:Bsp/Bsp_Uart.c ****     {
 1982              		.loc 1 549 25 is_stmt 0 view .LVU601
 1983 0020 084B     		ldr	r3, .L166+4
 1984 0022 53F82230 		ldr	r3, [r3, r2, lsl #2]
ARM GAS  C:\Users\HUAV\AppData\Local\Temp\ccXi8vBQ.s 			page 54


 549:Bsp/Bsp_Uart.c ****     {
 1985              		.loc 1 549 8 view .LVU602
 1986 0026 002B     		cmp	r3, #0
 1987 0028 F6D0     		beq	.L160
 551:Bsp/Bsp_Uart.c ****             BspUart_Obj_List[index]->send_finish = true;
 1988              		.loc 1 551 9 is_stmt 1 view .LVU603
 551:Bsp/Bsp_Uart.c ****             BspUart_Obj_List[index]->send_finish = true;
 1989              		.loc 1 551 36 is_stmt 0 view .LVU604
 1990 002a 93F8B821 		ldrb	r2, [r3, #440]	@ zero_extendqisi2
 1991              	.LVL144:
 551:Bsp/Bsp_Uart.c ****             BspUart_Obj_List[index]->send_finish = true;
 1992              		.loc 1 551 12 view .LVU605
 1993 002e 002A     		cmp	r2, #0
 1994 0030 F2D0     		beq	.L160
 552:Bsp/Bsp_Uart.c ****     }
 1995              		.loc 1 552 13 is_stmt 1 view .LVU606
 552:Bsp/Bsp_Uart.c ****     }
 1996              		.loc 1 552 50 is_stmt 0 view .LVU607
 1997 0032 0122     		movs	r2, #1
 1998 0034 83F8B921 		strb	r2, [r3, #441]
 1999 0038 EEE7     		b	.L160
 2000              	.LVL145:
 2001              	.L164:
 540:Bsp/Bsp_Uart.c ****     }
 2002              		.loc 1 540 15 view .LVU608
 2003 003a 0122     		movs	r2, #1
 2004 003c F0E7     		b	.L161
 2005              	.L167:
 2006 003e 00BF     		.align	2
 2007              	.L166:
 2008 0040 004C0040 		.word	1073761280
 2009 0044 00000000 		.word	.LANCHOR0
 2010              		.cfi_endproc
 2011              	.LFE157:
 2013              		.global	BspUart
 2014              		.section	.bss.BspUart_Obj_List,"aw",%nobits
 2015              		.align	2
 2016              		.set	.LANCHOR0,. + 0
 2019              	BspUart_Obj_List:
 2020 0000 00000000 		.space	12
 2020      00000000 
 2020      00000000 
 2021              		.section	.bss.hdl.1,"aw",%nobits
 2022              		.align	2
 2023              		.set	.LANCHOR1,. + 0
 2026              	hdl.1:
 2027 0000 00000000 		.space	4
 2028              		.section	.bss.rx_dma.0,"aw",%nobits
 2029              		.align	2
 2030              		.set	.LANCHOR2,. + 0
 2033              	rx_dma.0:
 2034 0000 00000000 		.space	4
 2035              		.section	.data.BspUart,"aw"
 2036              		.align	2
 2039              	BspUart:
 2040 0000 00000000 		.word	BspUart_Init
 2041 0004 00000000 		.word	BspUart_Set_Parity
ARM GAS  C:\Users\HUAV\AppData\Local\Temp\ccXi8vBQ.s 			page 55


 2042 0008 00000000 		.word	BspUart_Set_StopBit
 2043 000c 00000000 		.word	BspUart_Set_DataBit
 2044 0010 00000000 		.word	BspUart_Swap_Pin
 2045 0014 00000000 		.word	BspUart_Transfer
 2046              		.text
 2047              	.Letext0:
 2048              		.file 2 "HAL_Lib/CMSIS/Device/ST/STM32H7xx/Include/stm32h743xx.h"
 2049              		.file 3 "d:\\software\\zephyr_env_gcc\\gcc-arm-none-eabi-10-2020-q4-major\\arm-none-eabi\\include\
 2050              		.file 4 "d:\\software\\zephyr_env_gcc\\gcc-arm-none-eabi-10-2020-q4-major\\arm-none-eabi\\include\
 2051              		.file 5 "HAL_Lib/CMSIS/Device/ST/STM32H7xx/Include/stm32h7xx.h"
 2052              		.file 6 "HAL_Lib/STM32H7xx_HAL_Driver/Inc/stm32h7xx_hal_def.h"
 2053              		.file 7 "HAL_Lib/STM32H7xx_HAL_Driver/Inc/stm32h7xx_hal_rcc_ex.h"
 2054              		.file 8 "HAL_Lib/STM32H7xx_HAL_Driver/Inc/stm32h7xx_hal_gpio.h"
 2055              		.file 9 "HAL_Lib/STM32H7xx_HAL_Driver/Inc/stm32h7xx_hal_dma.h"
 2056              		.file 10 "HAL_Lib/STM32H7xx_HAL_Driver/Inc/stm32h7xx_hal_uart.h"
 2057              		.file 11 "Bsp/Bsp_GPIO.h"
 2058              		.file 12 "Bsp/Bsp_DMA.h"
 2059              		.file 13 "Bsp/Bsp_Uart.h"
 2060              		.file 14 "HAL_Lib/STM32H7xx_HAL_Driver/Inc/stm32h7xx_hal_uart_ex.h"
 2061              		.file 15 "HAL_Lib/STM32H7xx_HAL_Driver/Inc/stm32h7xx_hal_cortex.h"
 2062              		.file 16 "<built-in>"
ARM GAS  C:\Users\HUAV\AppData\Local\Temp\ccXi8vBQ.s 			page 56


DEFINED SYMBOLS
                            *ABS*:00000000 Bsp_Uart.c
C:\Users\HUAV\AppData\Local\Temp\ccXi8vBQ.s:17     .text.BspUart_Transfer:00000000 $t
C:\Users\HUAV\AppData\Local\Temp\ccXi8vBQ.s:24     .text.BspUart_Transfer:00000000 BspUart_Transfer
C:\Users\HUAV\AppData\Local\Temp\ccXi8vBQ.s:162    .text.BspUart_Set_DataBit:00000000 $t
C:\Users\HUAV\AppData\Local\Temp\ccXi8vBQ.s:169    .text.BspUart_Set_DataBit:00000000 BspUart_Set_DataBit
C:\Users\HUAV\AppData\Local\Temp\ccXi8vBQ.s:219    .text.BspUart_Set_Parity:00000000 $t
C:\Users\HUAV\AppData\Local\Temp\ccXi8vBQ.s:226    .text.BspUart_Set_Parity:00000000 BspUart_Set_Parity
C:\Users\HUAV\AppData\Local\Temp\ccXi8vBQ.s:276    .text.BspUart_Set_StopBit:00000000 $t
C:\Users\HUAV\AppData\Local\Temp\ccXi8vBQ.s:283    .text.BspUart_Set_StopBit:00000000 BspUart_Set_StopBit
C:\Users\HUAV\AppData\Local\Temp\ccXi8vBQ.s:333    .text.BspUart_Swap_Pin:00000000 $t
C:\Users\HUAV\AppData\Local\Temp\ccXi8vBQ.s:340    .text.BspUart_Swap_Pin:00000000 BspUart_Swap_Pin
C:\Users\HUAV\AppData\Local\Temp\ccXi8vBQ.s:416    .text.BspUart_Init_Clock:00000000 $t
C:\Users\HUAV\AppData\Local\Temp\ccXi8vBQ.s:422    .text.BspUart_Init_Clock:00000000 BspUart_Init_Clock
C:\Users\HUAV\AppData\Local\Temp\ccXi8vBQ.s:640    .text.BspUart_Init_Clock:000000f8 $d
C:\Users\HUAV\AppData\Local\Temp\ccXi8vBQ.s:649    .text.BspUart_Init_DMA:00000000 $t
C:\Users\HUAV\AppData\Local\Temp\ccXi8vBQ.s:655    .text.BspUart_Init_DMA:00000000 BspUart_Init_DMA
C:\Users\HUAV\AppData\Local\Temp\ccXi8vBQ.s:900    .text.BspUart_Init_DMA:00000104 $d
C:\Users\HUAV\AppData\Local\Temp\ccXi8vBQ.s:908    .text.BspUart_SetIRQ:00000000 $t
C:\Users\HUAV\AppData\Local\Temp\ccXi8vBQ.s:914    .text.BspUart_SetIRQ:00000000 BspUart_SetIRQ
C:\Users\HUAV\AppData\Local\Temp\ccXi8vBQ.s:1026   .text.BspUart_SetIRQ:00000058 $d
C:\Users\HUAV\AppData\Local\Temp\ccXi8vBQ.s:1031   .text.BspUart_Init:00000000 $t
C:\Users\HUAV\AppData\Local\Temp\ccXi8vBQ.s:1037   .text.BspUart_Init:00000000 BspUart_Init
C:\Users\HUAV\AppData\Local\Temp\ccXi8vBQ.s:1335   .text.BspUart_Init:00000170 $d
C:\Users\HUAV\AppData\Local\Temp\ccXi8vBQ.s:1340   .text.BSP_UART_DMAStopRx:00000000 $t
C:\Users\HUAV\AppData\Local\Temp\ccXi8vBQ.s:1346   .text.BSP_UART_DMAStopRx:00000000 BSP_UART_DMAStopRx
C:\Users\HUAV\AppData\Local\Temp\ccXi8vBQ.s:1448   .text.BSP_UART_DMAStopRx:00000054 $d
C:\Users\HUAV\AppData\Local\Temp\ccXi8vBQ.s:1453   .text.BspUart_GetObj_Handle:00000000 $t
C:\Users\HUAV\AppData\Local\Temp\ccXi8vBQ.s:1460   .text.BspUart_GetObj_Handle:00000000 BspUart_GetObj_Handle
C:\Users\HUAV\AppData\Local\Temp\ccXi8vBQ.s:1490   .text.BspUart_GetObj_Handle:00000014 $d
C:\Users\HUAV\AppData\Local\Temp\ccXi8vBQ.s:1495   .text.UART_IRQ_Callback:00000000 $t
C:\Users\HUAV\AppData\Local\Temp\ccXi8vBQ.s:1502   .text.UART_IRQ_Callback:00000000 UART_IRQ_Callback
C:\Users\HUAV\AppData\Local\Temp\ccXi8vBQ.s:1755   .text.UART_IRQ_Callback:00000130 $d
C:\Users\HUAV\AppData\Local\Temp\ccXi8vBQ.s:1765   .text.HAL_UART_RxCpltCallback:00000000 $t
C:\Users\HUAV\AppData\Local\Temp\ccXi8vBQ.s:1772   .text.HAL_UART_RxCpltCallback:00000000 HAL_UART_RxCpltCallback
C:\Users\HUAV\AppData\Local\Temp\ccXi8vBQ.s:1928   .text.HAL_UART_RxCpltCallback:000000b4 $d
C:\Users\HUAV\AppData\Local\Temp\ccXi8vBQ.s:1934   .text.HAL_UART_TxCpltCallback:00000000 $t
C:\Users\HUAV\AppData\Local\Temp\ccXi8vBQ.s:1941   .text.HAL_UART_TxCpltCallback:00000000 HAL_UART_TxCpltCallback
C:\Users\HUAV\AppData\Local\Temp\ccXi8vBQ.s:2008   .text.HAL_UART_TxCpltCallback:00000040 $d
C:\Users\HUAV\AppData\Local\Temp\ccXi8vBQ.s:2039   .data.BspUart:00000000 BspUart
C:\Users\HUAV\AppData\Local\Temp\ccXi8vBQ.s:2015   .bss.BspUart_Obj_List:00000000 $d
C:\Users\HUAV\AppData\Local\Temp\ccXi8vBQ.s:2019   .bss.BspUart_Obj_List:00000000 BspUart_Obj_List
C:\Users\HUAV\AppData\Local\Temp\ccXi8vBQ.s:2022   .bss.hdl.1:00000000 $d
C:\Users\HUAV\AppData\Local\Temp\ccXi8vBQ.s:2026   .bss.hdl.1:00000000 hdl.1
C:\Users\HUAV\AppData\Local\Temp\ccXi8vBQ.s:2029   .bss.rx_dma.0:00000000 $d
C:\Users\HUAV\AppData\Local\Temp\ccXi8vBQ.s:2033   .bss.rx_dma.0:00000000 rx_dma.0
C:\Users\HUAV\AppData\Local\Temp\ccXi8vBQ.s:2036   .data.BspUart:00000000 $d

UNDEFINED SYMBOLS
HAL_UART_Transmit_DMA
HAL_UART_Init
memset
HAL_RCCEx_PeriphCLKConfig
BspGPIO
memcpy
HAL_DMA_Init
BspDMA
ARM GAS  C:\Users\HUAV\AppData\Local\Temp\ccXi8vBQ.s 			page 57


HAL_NVIC_SetPriority
HAL_NVIC_EnableIRQ
HAL_UARTEx_SetTxFifoThreshold
HAL_UARTEx_SetRxFifoThreshold
HAL_UARTEx_DisableFifoMode
HAL_UART_Receive_DMA
HAL_UART_Receive_IT
HAL_DMA_Abort
HAL_UART_GetState
