ARM GAS  C:\Users\8bit\AppData\Local\Temp\ccJGR6pR.s 			page 1


   1              		.cpu cortex-m4
   2              		.arch armv7e-m
   3              		.fpu fpv4-sp-d16
   4              		.eabi_attribute 27, 1
   5              		.eabi_attribute 28, 1
   6              		.eabi_attribute 20, 1
   7              		.eabi_attribute 21, 1
   8              		.eabi_attribute 23, 3
   9              		.eabi_attribute 24, 1
  10              		.eabi_attribute 25, 1
  11              		.eabi_attribute 26, 1
  12              		.eabi_attribute 30, 1
  13              		.eabi_attribute 34, 1
  14              		.eabi_attribute 18, 4
  15              		.file	"Bsp_Uart.c"
  16              		.text
  17              	.Ltext0:
  18              		.cfi_sections	.debug_frame
  19              		.section	.text.BspUart_Get_MuxSeq,"ax",%progbits
  20              		.align	1
  21              		.syntax unified
  22              		.thumb
  23              		.thumb_func
  25              	BspUart_Get_MuxSeq:
  26              	.LVL0:
  27              	.LFB135:
  28              		.file 1 "HW_Lib/AT32F435/bsp/Bsp_Uart.c"
   1:HW_Lib/AT32F435/bsp/Bsp_Uart.c **** #include "Bsp_Uart.h"
   2:HW_Lib/AT32F435/bsp/Bsp_Uart.c **** #include "Bsp_GPIO.h"
   3:HW_Lib/AT32F435/bsp/Bsp_Uart.c **** #include "Bsp_DMA.h"
   4:HW_Lib/AT32F435/bsp/Bsp_Uart.c **** #include "at32f435_437_usart.h"
   5:HW_Lib/AT32F435/bsp/Bsp_Uart.c **** 
   6:HW_Lib/AT32F435/bsp/Bsp_Uart.c **** #define Uart_Default_Baudrate 460800
   7:HW_Lib/AT32F435/bsp/Bsp_Uart.c **** 
   8:HW_Lib/AT32F435/bsp/Bsp_Uart.c **** #define Uart_Dir_Tx 0
   9:HW_Lib/AT32F435/bsp/Bsp_Uart.c **** #define Uart_Dir_Rx 1
  10:HW_Lib/AT32F435/bsp/Bsp_Uart.c **** 
  11:HW_Lib/AT32F435/bsp/Bsp_Uart.c **** #define To_Uart_Instance(x) ((usart_type *)x)
  12:HW_Lib/AT32F435/bsp/Bsp_Uart.c **** #define To_UartObj_Ptr(x) ((BspUARTObj_TypeDef *)x)
  13:HW_Lib/AT32F435/bsp/Bsp_Uart.c **** 
  14:HW_Lib/AT32F435/bsp/Bsp_Uart.c **** #define BspUart_Opr_TimeOut 100 // 100ms
  15:HW_Lib/AT32F435/bsp/Bsp_Uart.c **** 
  16:HW_Lib/AT32F435/bsp/Bsp_Uart.c **** /* internal variable */
  17:HW_Lib/AT32F435/bsp/Bsp_Uart.c **** static BspUARTObj_TypeDef *BspUart_Obj_List[Bsp_UART_Port_Sum] = {NULL};
  18:HW_Lib/AT32F435/bsp/Bsp_Uart.c **** static BspDMA_IrqCall_Obj_TypeDef BspUart_TxDMA_IrqObj[Bsp_UART_Port_Sum] = {{NULL, NULL}};
  19:HW_Lib/AT32F435/bsp/Bsp_Uart.c **** static BspDMA_IrqCall_Obj_TypeDef BspUart_RxDMA_IrqObj[Bsp_UART_Port_Sum] = {{NULL, NULL}};
  20:HW_Lib/AT32F435/bsp/Bsp_Uart.c ****                                                           
  21:HW_Lib/AT32F435/bsp/Bsp_Uart.c **** /* internal function */
  22:HW_Lib/AT32F435/bsp/Bsp_Uart.c **** static int BspUart_Init_Clock(BspUARTObj_TypeDef *obj);
  23:HW_Lib/AT32F435/bsp/Bsp_Uart.c **** static int BspUart_SetIRQ(BspUARTObj_TypeDef *obj, bool state);
  24:HW_Lib/AT32F435/bsp/Bsp_Uart.c **** static dmamux_requst_id_sel_type BspUart_Get_MuxSeq(usart_type *port, uint8_t dir, void *dma_hdl);
  25:HW_Lib/AT32F435/bsp/Bsp_Uart.c **** static int BspUart_Init_DMA(BspUARTObj_TypeDef *obj);
  26:HW_Lib/AT32F435/bsp/Bsp_Uart.c **** static void BspUart_DMA_TxCplt_Callback(void *arg);
  27:HW_Lib/AT32F435/bsp/Bsp_Uart.c **** static void BspUart_DMA_RxCplt_Callback(void *arg);
  28:HW_Lib/AT32F435/bsp/Bsp_Uart.c **** 
  29:HW_Lib/AT32F435/bsp/Bsp_Uart.c **** /* external function */
  30:HW_Lib/AT32F435/bsp/Bsp_Uart.c **** static bool BspUart_Init(BspUARTObj_TypeDef *obj);
ARM GAS  C:\Users\8bit\AppData\Local\Temp\ccJGR6pR.s 			page 2


  31:HW_Lib/AT32F435/bsp/Bsp_Uart.c **** static bool BspUart_DeInit(BspUARTObj_TypeDef *obj);
  32:HW_Lib/AT32F435/bsp/Bsp_Uart.c **** static bool BspUart_Set_DataBit(BspUARTObj_TypeDef *obj, uint32_t bit);
  33:HW_Lib/AT32F435/bsp/Bsp_Uart.c **** static bool BspUart_Set_Parity(BspUARTObj_TypeDef *obj, uint32_t parity);
  34:HW_Lib/AT32F435/bsp/Bsp_Uart.c **** static bool BspUart_Set_StopBit(BspUARTObj_TypeDef *obj, uint32_t stop_bit);
  35:HW_Lib/AT32F435/bsp/Bsp_Uart.c **** static bool BspUart_Swap_Pin(BspUARTObj_TypeDef *obj, bool swap);
  36:HW_Lib/AT32F435/bsp/Bsp_Uart.c **** static bool BspUart_Transfer(BspUARTObj_TypeDef *obj, uint8_t *tx_buf, uint16_t size);
  37:HW_Lib/AT32F435/bsp/Bsp_Uart.c **** static bool BspUart_Set_Rx_Callback(BspUARTObj_TypeDef *obj, BspUART_Callback callback);
  38:HW_Lib/AT32F435/bsp/Bsp_Uart.c **** static bool BspUart_Set_Tx_Callback(BspUARTObj_TypeDef *obj, BspUART_Callback callback);
  39:HW_Lib/AT32F435/bsp/Bsp_Uart.c **** static bool BspUart_IrqEn_Control(BspUARTObj_TypeDef *obj, bool state);
  40:HW_Lib/AT32F435/bsp/Bsp_Uart.c **** 
  41:HW_Lib/AT32F435/bsp/Bsp_Uart.c **** BspUART_TypeDef BspUart = {
  42:HW_Lib/AT32F435/bsp/Bsp_Uart.c ****     .init = BspUart_Init,
  43:HW_Lib/AT32F435/bsp/Bsp_Uart.c ****     .de_init = BspUart_DeInit,
  44:HW_Lib/AT32F435/bsp/Bsp_Uart.c ****     .set_parity = BspUart_Set_Parity,
  45:HW_Lib/AT32F435/bsp/Bsp_Uart.c ****     .set_stop_bit = BspUart_Set_StopBit,
  46:HW_Lib/AT32F435/bsp/Bsp_Uart.c ****     .set_data_bit = BspUart_Set_DataBit,
  47:HW_Lib/AT32F435/bsp/Bsp_Uart.c ****     .set_swap = BspUart_Swap_Pin,
  48:HW_Lib/AT32F435/bsp/Bsp_Uart.c ****     .Irq_Ctl = BspUart_IrqEn_Control,
  49:HW_Lib/AT32F435/bsp/Bsp_Uart.c ****     .send = BspUart_Transfer,
  50:HW_Lib/AT32F435/bsp/Bsp_Uart.c ****     .set_rx_callback = BspUart_Set_Rx_Callback,
  51:HW_Lib/AT32F435/bsp/Bsp_Uart.c ****     .set_tx_callback = BspUart_Set_Tx_Callback,
  52:HW_Lib/AT32F435/bsp/Bsp_Uart.c **** };
  53:HW_Lib/AT32F435/bsp/Bsp_Uart.c **** 
  54:HW_Lib/AT32F435/bsp/Bsp_Uart.c **** static int BspUart_Init_Clock(BspUARTObj_TypeDef *obj)
  55:HW_Lib/AT32F435/bsp/Bsp_Uart.c **** {
  56:HW_Lib/AT32F435/bsp/Bsp_Uart.c ****     int index = 0;
  57:HW_Lib/AT32F435/bsp/Bsp_Uart.c ****     crm_periph_clock_type clock = CRM_USART1_PERIPH_CLOCK;
  58:HW_Lib/AT32F435/bsp/Bsp_Uart.c **** 
  59:HW_Lib/AT32F435/bsp/Bsp_Uart.c ****     if((obj == NULL) || (obj->instance == NULL))
  60:HW_Lib/AT32F435/bsp/Bsp_Uart.c ****         return BspUart_Clock_Error;
  61:HW_Lib/AT32F435/bsp/Bsp_Uart.c **** 
  62:HW_Lib/AT32F435/bsp/Bsp_Uart.c ****     if(To_Uart_Instance(obj->instance) == USART1)
  63:HW_Lib/AT32F435/bsp/Bsp_Uart.c ****     {
  64:HW_Lib/AT32F435/bsp/Bsp_Uart.c ****         clock = CRM_USART1_PERIPH_CLOCK;
  65:HW_Lib/AT32F435/bsp/Bsp_Uart.c ****         index = Bsp_UART_Port_1;
  66:HW_Lib/AT32F435/bsp/Bsp_Uart.c ****     }
  67:HW_Lib/AT32F435/bsp/Bsp_Uart.c ****     else if(To_Uart_Instance(obj->instance) == USART2)
  68:HW_Lib/AT32F435/bsp/Bsp_Uart.c ****     {
  69:HW_Lib/AT32F435/bsp/Bsp_Uart.c ****         clock = CRM_USART2_PERIPH_CLOCK;
  70:HW_Lib/AT32F435/bsp/Bsp_Uart.c ****         index = Bsp_UART_Port_2;
  71:HW_Lib/AT32F435/bsp/Bsp_Uart.c ****     }
  72:HW_Lib/AT32F435/bsp/Bsp_Uart.c ****     else if(To_Uart_Instance(obj->instance) == USART3)
  73:HW_Lib/AT32F435/bsp/Bsp_Uart.c ****     {
  74:HW_Lib/AT32F435/bsp/Bsp_Uart.c ****         clock = CRM_USART3_PERIPH_CLOCK;
  75:HW_Lib/AT32F435/bsp/Bsp_Uart.c ****         index = Bsp_UART_Port_3;
  76:HW_Lib/AT32F435/bsp/Bsp_Uart.c ****     }
  77:HW_Lib/AT32F435/bsp/Bsp_Uart.c ****     else if(To_Uart_Instance(obj->instance) == UART4)
  78:HW_Lib/AT32F435/bsp/Bsp_Uart.c ****     {
  79:HW_Lib/AT32F435/bsp/Bsp_Uart.c ****         clock = CRM_UART4_PERIPH_CLOCK;
  80:HW_Lib/AT32F435/bsp/Bsp_Uart.c ****         index = Bsp_UART_Port_4;
  81:HW_Lib/AT32F435/bsp/Bsp_Uart.c ****     }
  82:HW_Lib/AT32F435/bsp/Bsp_Uart.c ****     else if(To_Uart_Instance(obj->instance) == UART5)
  83:HW_Lib/AT32F435/bsp/Bsp_Uart.c ****     {
  84:HW_Lib/AT32F435/bsp/Bsp_Uart.c ****         clock = CRM_UART5_PERIPH_CLOCK;
  85:HW_Lib/AT32F435/bsp/Bsp_Uart.c ****         index = Bsp_UART_Port_5;
  86:HW_Lib/AT32F435/bsp/Bsp_Uart.c ****     }
  87:HW_Lib/AT32F435/bsp/Bsp_Uart.c ****     else if(To_Uart_Instance(obj->instance) == USART6)
ARM GAS  C:\Users\8bit\AppData\Local\Temp\ccJGR6pR.s 			page 3


  88:HW_Lib/AT32F435/bsp/Bsp_Uart.c ****     {
  89:HW_Lib/AT32F435/bsp/Bsp_Uart.c ****         clock = CRM_USART6_PERIPH_CLOCK;
  90:HW_Lib/AT32F435/bsp/Bsp_Uart.c ****         index = Bsp_UART_Port_6;
  91:HW_Lib/AT32F435/bsp/Bsp_Uart.c ****     }
  92:HW_Lib/AT32F435/bsp/Bsp_Uart.c ****     else if(To_Uart_Instance(obj->instance) == UART7)
  93:HW_Lib/AT32F435/bsp/Bsp_Uart.c ****     {
  94:HW_Lib/AT32F435/bsp/Bsp_Uart.c ****         clock = CRM_UART7_PERIPH_CLOCK;
  95:HW_Lib/AT32F435/bsp/Bsp_Uart.c ****         index = Bsp_UART_Port_7;
  96:HW_Lib/AT32F435/bsp/Bsp_Uart.c ****     }
  97:HW_Lib/AT32F435/bsp/Bsp_Uart.c ****     else if(To_Uart_Instance(obj->instance) == UART8)
  98:HW_Lib/AT32F435/bsp/Bsp_Uart.c ****     {
  99:HW_Lib/AT32F435/bsp/Bsp_Uart.c ****         clock = CRM_UART8_PERIPH_CLOCK;
 100:HW_Lib/AT32F435/bsp/Bsp_Uart.c ****         index = Bsp_UART_Port_8;
 101:HW_Lib/AT32F435/bsp/Bsp_Uart.c ****     }
 102:HW_Lib/AT32F435/bsp/Bsp_Uart.c ****     else
 103:HW_Lib/AT32F435/bsp/Bsp_Uart.c ****         return BspUart_Clock_Error;
 104:HW_Lib/AT32F435/bsp/Bsp_Uart.c **** 
 105:HW_Lib/AT32F435/bsp/Bsp_Uart.c ****     crm_periph_clock_enable(clock, TRUE);
 106:HW_Lib/AT32F435/bsp/Bsp_Uart.c ****     return index;
 107:HW_Lib/AT32F435/bsp/Bsp_Uart.c **** }
 108:HW_Lib/AT32F435/bsp/Bsp_Uart.c **** 
 109:HW_Lib/AT32F435/bsp/Bsp_Uart.c **** static int BspUart_SetIRQ(BspUARTObj_TypeDef *obj, bool state)
 110:HW_Lib/AT32F435/bsp/Bsp_Uart.c **** {
 111:HW_Lib/AT32F435/bsp/Bsp_Uart.c ****     int index = 0;
 112:HW_Lib/AT32F435/bsp/Bsp_Uart.c ****     IRQn_Type irqn = Bsp_UART_Port_1;
 113:HW_Lib/AT32F435/bsp/Bsp_Uart.c **** 
 114:HW_Lib/AT32F435/bsp/Bsp_Uart.c ****     if((obj == NULL) || (obj->instance == NULL))
 115:HW_Lib/AT32F435/bsp/Bsp_Uart.c ****         return BspUart_Clock_Error;
 116:HW_Lib/AT32F435/bsp/Bsp_Uart.c **** 
 117:HW_Lib/AT32F435/bsp/Bsp_Uart.c ****     if(To_Uart_Instance(obj->instance) == USART1)
 118:HW_Lib/AT32F435/bsp/Bsp_Uart.c ****     {
 119:HW_Lib/AT32F435/bsp/Bsp_Uart.c ****         irqn = USART1_IRQn;
 120:HW_Lib/AT32F435/bsp/Bsp_Uart.c ****         index = Bsp_UART_Port_1;
 121:HW_Lib/AT32F435/bsp/Bsp_Uart.c ****     }
 122:HW_Lib/AT32F435/bsp/Bsp_Uart.c ****     else if(To_Uart_Instance(obj->instance) == USART2)
 123:HW_Lib/AT32F435/bsp/Bsp_Uart.c ****     {
 124:HW_Lib/AT32F435/bsp/Bsp_Uart.c ****         irqn = USART2_IRQn;
 125:HW_Lib/AT32F435/bsp/Bsp_Uart.c ****         index = Bsp_UART_Port_2;
 126:HW_Lib/AT32F435/bsp/Bsp_Uart.c ****     }
 127:HW_Lib/AT32F435/bsp/Bsp_Uart.c ****     else if(To_Uart_Instance(obj->instance) == USART3)
 128:HW_Lib/AT32F435/bsp/Bsp_Uart.c ****     {
 129:HW_Lib/AT32F435/bsp/Bsp_Uart.c ****         irqn = USART3_IRQn;
 130:HW_Lib/AT32F435/bsp/Bsp_Uart.c ****         index = Bsp_UART_Port_3;
 131:HW_Lib/AT32F435/bsp/Bsp_Uart.c ****     }
 132:HW_Lib/AT32F435/bsp/Bsp_Uart.c ****     else if(To_Uart_Instance(obj->instance) == UART4)
 133:HW_Lib/AT32F435/bsp/Bsp_Uart.c ****     {
 134:HW_Lib/AT32F435/bsp/Bsp_Uart.c ****         irqn = UART4_IRQn;
 135:HW_Lib/AT32F435/bsp/Bsp_Uart.c ****         index = Bsp_UART_Port_4;
 136:HW_Lib/AT32F435/bsp/Bsp_Uart.c ****     }
 137:HW_Lib/AT32F435/bsp/Bsp_Uart.c ****     else if(To_Uart_Instance(obj->instance) == UART5)
 138:HW_Lib/AT32F435/bsp/Bsp_Uart.c ****     {
 139:HW_Lib/AT32F435/bsp/Bsp_Uart.c ****         irqn = UART5_IRQn;
 140:HW_Lib/AT32F435/bsp/Bsp_Uart.c ****         index = Bsp_UART_Port_5;
 141:HW_Lib/AT32F435/bsp/Bsp_Uart.c ****     }
 142:HW_Lib/AT32F435/bsp/Bsp_Uart.c ****     else if(To_Uart_Instance(obj->instance) == USART6)
 143:HW_Lib/AT32F435/bsp/Bsp_Uart.c ****     {
 144:HW_Lib/AT32F435/bsp/Bsp_Uart.c ****         irqn = USART6_IRQn;
ARM GAS  C:\Users\8bit\AppData\Local\Temp\ccJGR6pR.s 			page 4


 145:HW_Lib/AT32F435/bsp/Bsp_Uart.c ****         index = Bsp_UART_Port_6;
 146:HW_Lib/AT32F435/bsp/Bsp_Uart.c ****     }
 147:HW_Lib/AT32F435/bsp/Bsp_Uart.c ****     else if(To_Uart_Instance(obj->instance) == UART7)
 148:HW_Lib/AT32F435/bsp/Bsp_Uart.c ****     {
 149:HW_Lib/AT32F435/bsp/Bsp_Uart.c ****         irqn = UART7_IRQn;
 150:HW_Lib/AT32F435/bsp/Bsp_Uart.c ****         index = Bsp_UART_Port_7;
 151:HW_Lib/AT32F435/bsp/Bsp_Uart.c ****     }
 152:HW_Lib/AT32F435/bsp/Bsp_Uart.c ****     else if(To_Uart_Instance(obj->instance) == UART8)
 153:HW_Lib/AT32F435/bsp/Bsp_Uart.c ****     {
 154:HW_Lib/AT32F435/bsp/Bsp_Uart.c ****         irqn = UART8_IRQn;
 155:HW_Lib/AT32F435/bsp/Bsp_Uart.c ****         index = Bsp_UART_Port_8;
 156:HW_Lib/AT32F435/bsp/Bsp_Uart.c ****     }
 157:HW_Lib/AT32F435/bsp/Bsp_Uart.c **** 
 158:HW_Lib/AT32F435/bsp/Bsp_Uart.c ****     nvic_priority_group_config(NVIC_PRIORITY_GROUP_4);
 159:HW_Lib/AT32F435/bsp/Bsp_Uart.c ****     if (state)
 160:HW_Lib/AT32F435/bsp/Bsp_Uart.c ****     {
 161:HW_Lib/AT32F435/bsp/Bsp_Uart.c ****         nvic_irq_enable(irqn, 5, 0);
 162:HW_Lib/AT32F435/bsp/Bsp_Uart.c ****     }
 163:HW_Lib/AT32F435/bsp/Bsp_Uart.c ****     else
 164:HW_Lib/AT32F435/bsp/Bsp_Uart.c ****         nvic_irq_disable(irqn);
 165:HW_Lib/AT32F435/bsp/Bsp_Uart.c **** 
 166:HW_Lib/AT32F435/bsp/Bsp_Uart.c ****     return index;
 167:HW_Lib/AT32F435/bsp/Bsp_Uart.c **** }
 168:HW_Lib/AT32F435/bsp/Bsp_Uart.c **** 
 169:HW_Lib/AT32F435/bsp/Bsp_Uart.c **** static dmamux_requst_id_sel_type BspUart_Get_MuxSeq(usart_type *port, uint8_t dir, void *dma_hdl)
 170:HW_Lib/AT32F435/bsp/Bsp_Uart.c **** {
  29              		.loc 1 170 1 view -0
  30              		.cfi_startproc
  31              		@ args = 0, pretend = 0, frame = 0
  32              		@ frame_needed = 0, uses_anonymous_args = 0
  33              		@ link register save eliminated.
 171:HW_Lib/AT32F435/bsp/Bsp_Uart.c ****     if ((port == NULL) || (dma_hdl == NULL))
  34              		.loc 1 171 5 view .LVU1
  35              		.loc 1 171 8 is_stmt 0 view .LVU2
  36 0000 0028     		cmp	r0, #0
  37 0002 43D0     		beq	.L10
  38              		.loc 1 171 24 discriminator 1 view .LVU3
  39 0004 002A     		cmp	r2, #0
  40 0006 43D0     		beq	.L11
 172:HW_Lib/AT32F435/bsp/Bsp_Uart.c ****         return 0;
 173:HW_Lib/AT32F435/bsp/Bsp_Uart.c **** 
 174:HW_Lib/AT32F435/bsp/Bsp_Uart.c ****     if (port == USART1)
  41              		.loc 1 174 5 is_stmt 1 view .LVU4
  42              		.loc 1 174 8 is_stmt 0 view .LVU5
  43 0008 324A     		ldr	r2, .L37
  44              	.LVL1:
  45              		.loc 1 174 8 view .LVU6
  46 000a 9042     		cmp	r0, r2
  47 000c 16D0     		beq	.L29
 175:HW_Lib/AT32F435/bsp/Bsp_Uart.c ****     {
 176:HW_Lib/AT32F435/bsp/Bsp_Uart.c ****         if (dir == Uart_Dir_Rx)
 177:HW_Lib/AT32F435/bsp/Bsp_Uart.c ****             return DMAMUX_DMAREQ_ID_USART1_RX;
 178:HW_Lib/AT32F435/bsp/Bsp_Uart.c ****         
 179:HW_Lib/AT32F435/bsp/Bsp_Uart.c ****         if (dir == Uart_Dir_Tx)
 180:HW_Lib/AT32F435/bsp/Bsp_Uart.c ****             return DMAMUX_DMAREQ_ID_USART1_TX;
 181:HW_Lib/AT32F435/bsp/Bsp_Uart.c ****     }
 182:HW_Lib/AT32F435/bsp/Bsp_Uart.c ****     else if (port == USART2)
ARM GAS  C:\Users\8bit\AppData\Local\Temp\ccJGR6pR.s 			page 5


  48              		.loc 1 182 10 is_stmt 1 view .LVU7
  49              		.loc 1 182 13 is_stmt 0 view .LVU8
  50 000e 324A     		ldr	r2, .L37+4
  51 0010 9042     		cmp	r0, r2
  52 0012 18D0     		beq	.L30
 183:HW_Lib/AT32F435/bsp/Bsp_Uart.c ****     {
 184:HW_Lib/AT32F435/bsp/Bsp_Uart.c ****         if(dir == Uart_Dir_Rx)
 185:HW_Lib/AT32F435/bsp/Bsp_Uart.c ****             return DMAMUX_DMAREQ_ID_USART2_RX;
 186:HW_Lib/AT32F435/bsp/Bsp_Uart.c ****         
 187:HW_Lib/AT32F435/bsp/Bsp_Uart.c ****         if(dir == Uart_Dir_Tx)
 188:HW_Lib/AT32F435/bsp/Bsp_Uart.c ****             return DMAMUX_DMAREQ_ID_USART2_TX;
 189:HW_Lib/AT32F435/bsp/Bsp_Uart.c ****     }
 190:HW_Lib/AT32F435/bsp/Bsp_Uart.c ****     else if (port == USART3)
  53              		.loc 1 190 10 is_stmt 1 view .LVU9
  54              		.loc 1 190 13 is_stmt 0 view .LVU10
  55 0014 314A     		ldr	r2, .L37+8
  56 0016 9042     		cmp	r0, r2
  57 0018 1AD0     		beq	.L31
 191:HW_Lib/AT32F435/bsp/Bsp_Uart.c ****     {
 192:HW_Lib/AT32F435/bsp/Bsp_Uart.c ****         if (dir == Uart_Dir_Rx)
 193:HW_Lib/AT32F435/bsp/Bsp_Uart.c ****             return DMAMUX_DMAREQ_ID_USART3_RX;
 194:HW_Lib/AT32F435/bsp/Bsp_Uart.c **** 
 195:HW_Lib/AT32F435/bsp/Bsp_Uart.c ****         if (dir == Uart_Dir_Tx)
 196:HW_Lib/AT32F435/bsp/Bsp_Uart.c ****             return DMAMUX_DMAREQ_ID_USART3_TX;
 197:HW_Lib/AT32F435/bsp/Bsp_Uart.c ****     }
 198:HW_Lib/AT32F435/bsp/Bsp_Uart.c ****     else if (port == UART4)
  58              		.loc 1 198 10 is_stmt 1 view .LVU11
  59              		.loc 1 198 13 is_stmt 0 view .LVU12
  60 001a 314A     		ldr	r2, .L37+12
  61 001c 9042     		cmp	r0, r2
  62 001e 1CD0     		beq	.L32
 199:HW_Lib/AT32F435/bsp/Bsp_Uart.c ****     {
 200:HW_Lib/AT32F435/bsp/Bsp_Uart.c ****         if (dir == Uart_Dir_Rx)
 201:HW_Lib/AT32F435/bsp/Bsp_Uart.c ****             return DMAMUX_DMAREQ_ID_UART4_RX;
 202:HW_Lib/AT32F435/bsp/Bsp_Uart.c ****         
 203:HW_Lib/AT32F435/bsp/Bsp_Uart.c ****         if (dir == Uart_Dir_Tx)
 204:HW_Lib/AT32F435/bsp/Bsp_Uart.c ****             return DMAMUX_DMAREQ_ID_UART4_TX;
 205:HW_Lib/AT32F435/bsp/Bsp_Uart.c ****     }
 206:HW_Lib/AT32F435/bsp/Bsp_Uart.c ****     else if (port == UART5)
  63              		.loc 1 206 10 is_stmt 1 view .LVU13
  64              		.loc 1 206 13 is_stmt 0 view .LVU14
  65 0020 304A     		ldr	r2, .L37+16
  66 0022 9042     		cmp	r0, r2
  67 0024 1ED0     		beq	.L33
 207:HW_Lib/AT32F435/bsp/Bsp_Uart.c ****     {
 208:HW_Lib/AT32F435/bsp/Bsp_Uart.c ****         if(dir == Uart_Dir_Rx)
 209:HW_Lib/AT32F435/bsp/Bsp_Uart.c ****             return DMAMUX_DMAREQ_ID_UART5_RX;
 210:HW_Lib/AT32F435/bsp/Bsp_Uart.c ****         
 211:HW_Lib/AT32F435/bsp/Bsp_Uart.c ****         if(dir == Uart_Dir_Tx)
 212:HW_Lib/AT32F435/bsp/Bsp_Uart.c ****             return DMAMUX_DMAREQ_ID_UART5_TX;
 213:HW_Lib/AT32F435/bsp/Bsp_Uart.c ****     }
 214:HW_Lib/AT32F435/bsp/Bsp_Uart.c ****     else if (port == USART6)
  68              		.loc 1 214 10 is_stmt 1 view .LVU15
  69              		.loc 1 214 13 is_stmt 0 view .LVU16
  70 0026 304A     		ldr	r2, .L37+20
  71 0028 9042     		cmp	r0, r2
  72 002a 20D0     		beq	.L34
ARM GAS  C:\Users\8bit\AppData\Local\Temp\ccJGR6pR.s 			page 6


 215:HW_Lib/AT32F435/bsp/Bsp_Uart.c ****     {
 216:HW_Lib/AT32F435/bsp/Bsp_Uart.c ****         if (dir == Uart_Dir_Rx)
 217:HW_Lib/AT32F435/bsp/Bsp_Uart.c ****             return DMAMUX_DMAREQ_ID_USART6_RX;
 218:HW_Lib/AT32F435/bsp/Bsp_Uart.c **** 
 219:HW_Lib/AT32F435/bsp/Bsp_Uart.c ****         if (dir == Uart_Dir_Tx)
 220:HW_Lib/AT32F435/bsp/Bsp_Uart.c ****             return DMAMUX_DMAREQ_ID_USART6_TX;
 221:HW_Lib/AT32F435/bsp/Bsp_Uart.c ****     }
 222:HW_Lib/AT32F435/bsp/Bsp_Uart.c ****     else if (port == UART7)
  73              		.loc 1 222 10 is_stmt 1 view .LVU17
  74              		.loc 1 222 13 is_stmt 0 view .LVU18
  75 002c 2F4A     		ldr	r2, .L37+24
  76 002e 9042     		cmp	r0, r2
  77 0030 22D0     		beq	.L35
 223:HW_Lib/AT32F435/bsp/Bsp_Uart.c ****     {
 224:HW_Lib/AT32F435/bsp/Bsp_Uart.c ****         if (dir == Uart_Dir_Rx)
 225:HW_Lib/AT32F435/bsp/Bsp_Uart.c ****             return DMAMUX_DMAREQ_ID_UART7_RX;
 226:HW_Lib/AT32F435/bsp/Bsp_Uart.c ****         
 227:HW_Lib/AT32F435/bsp/Bsp_Uart.c ****         if (dir == Uart_Dir_Tx)
 228:HW_Lib/AT32F435/bsp/Bsp_Uart.c ****             return DMAMUX_DMAREQ_ID_UART7_TX;
 229:HW_Lib/AT32F435/bsp/Bsp_Uart.c ****     }
 230:HW_Lib/AT32F435/bsp/Bsp_Uart.c ****     else if (port == UART8)
  78              		.loc 1 230 10 is_stmt 1 view .LVU19
  79              		.loc 1 230 13 is_stmt 0 view .LVU20
  80 0032 2F4A     		ldr	r2, .L37+28
  81 0034 9042     		cmp	r0, r2
  82 0036 24D0     		beq	.L36
 231:HW_Lib/AT32F435/bsp/Bsp_Uart.c ****     {
 232:HW_Lib/AT32F435/bsp/Bsp_Uart.c ****         if (dir == Uart_Dir_Rx)
 233:HW_Lib/AT32F435/bsp/Bsp_Uart.c ****             return DMAMUX_DMAREQ_ID_UART8_RX;
 234:HW_Lib/AT32F435/bsp/Bsp_Uart.c ****         
 235:HW_Lib/AT32F435/bsp/Bsp_Uart.c ****         if (dir == Uart_Dir_Tx)
 236:HW_Lib/AT32F435/bsp/Bsp_Uart.c ****             return DMAMUX_DMAREQ_ID_UART8_TX;
 237:HW_Lib/AT32F435/bsp/Bsp_Uart.c ****     }
 238:HW_Lib/AT32F435/bsp/Bsp_Uart.c **** 
 239:HW_Lib/AT32F435/bsp/Bsp_Uart.c ****     return 0;
  83              		.loc 1 239 12 view .LVU21
  84 0038 0020     		movs	r0, #0
  85              	.LVL2:
  86              		.loc 1 239 12 view .LVU22
  87 003a 7047     		bx	lr
  88              	.LVL3:
  89              	.L29:
 176:HW_Lib/AT32F435/bsp/Bsp_Uart.c ****             return DMAMUX_DMAREQ_ID_USART1_RX;
  90              		.loc 1 176 9 is_stmt 1 view .LVU23
 176:HW_Lib/AT32F435/bsp/Bsp_Uart.c ****             return DMAMUX_DMAREQ_ID_USART1_RX;
  91              		.loc 1 176 12 is_stmt 0 view .LVU24
  92 003c 0129     		cmp	r1, #1
  93 003e 29D0     		beq	.L12
 179:HW_Lib/AT32F435/bsp/Bsp_Uart.c ****             return DMAMUX_DMAREQ_ID_USART1_TX;
  94              		.loc 1 179 9 is_stmt 1 view .LVU25
 179:HW_Lib/AT32F435/bsp/Bsp_Uart.c ****             return DMAMUX_DMAREQ_ID_USART1_TX;
  95              		.loc 1 179 12 is_stmt 0 view .LVU26
  96 0040 51B3     		cbz	r1, .L13
  97              		.loc 1 239 12 view .LVU27
  98 0042 0020     		movs	r0, #0
  99              	.LVL4:
 100              		.loc 1 239 12 view .LVU28
ARM GAS  C:\Users\8bit\AppData\Local\Temp\ccJGR6pR.s 			page 7


 101 0044 7047     		bx	lr
 102              	.LVL5:
 103              	.L30:
 184:HW_Lib/AT32F435/bsp/Bsp_Uart.c ****             return DMAMUX_DMAREQ_ID_USART2_RX;
 104              		.loc 1 184 9 is_stmt 1 view .LVU29
 184:HW_Lib/AT32F435/bsp/Bsp_Uart.c ****             return DMAMUX_DMAREQ_ID_USART2_RX;
 105              		.loc 1 184 11 is_stmt 0 view .LVU30
 106 0046 0129     		cmp	r1, #1
 107 0048 28D0     		beq	.L14
 187:HW_Lib/AT32F435/bsp/Bsp_Uart.c ****             return DMAMUX_DMAREQ_ID_USART2_TX;
 108              		.loc 1 187 9 is_stmt 1 view .LVU31
 187:HW_Lib/AT32F435/bsp/Bsp_Uart.c ****             return DMAMUX_DMAREQ_ID_USART2_TX;
 109              		.loc 1 187 11 is_stmt 0 view .LVU32
 110 004a 49B3     		cbz	r1, .L15
 111              		.loc 1 239 12 view .LVU33
 112 004c 0020     		movs	r0, #0
 113              	.LVL6:
 114              		.loc 1 239 12 view .LVU34
 115 004e 7047     		bx	lr
 116              	.LVL7:
 117              	.L31:
 192:HW_Lib/AT32F435/bsp/Bsp_Uart.c ****             return DMAMUX_DMAREQ_ID_USART3_RX;
 118              		.loc 1 192 9 is_stmt 1 view .LVU35
 192:HW_Lib/AT32F435/bsp/Bsp_Uart.c ****             return DMAMUX_DMAREQ_ID_USART3_RX;
 119              		.loc 1 192 12 is_stmt 0 view .LVU36
 120 0050 0129     		cmp	r1, #1
 121 0052 27D0     		beq	.L16
 195:HW_Lib/AT32F435/bsp/Bsp_Uart.c ****             return DMAMUX_DMAREQ_ID_USART3_TX;
 122              		.loc 1 195 9 is_stmt 1 view .LVU37
 195:HW_Lib/AT32F435/bsp/Bsp_Uart.c ****             return DMAMUX_DMAREQ_ID_USART3_TX;
 123              		.loc 1 195 12 is_stmt 0 view .LVU38
 124 0054 41B3     		cbz	r1, .L17
 125              		.loc 1 239 12 view .LVU39
 126 0056 0020     		movs	r0, #0
 127              	.LVL8:
 128              		.loc 1 239 12 view .LVU40
 129 0058 7047     		bx	lr
 130              	.LVL9:
 131              	.L32:
 200:HW_Lib/AT32F435/bsp/Bsp_Uart.c ****             return DMAMUX_DMAREQ_ID_UART4_RX;
 132              		.loc 1 200 9 is_stmt 1 view .LVU41
 200:HW_Lib/AT32F435/bsp/Bsp_Uart.c ****             return DMAMUX_DMAREQ_ID_UART4_RX;
 133              		.loc 1 200 12 is_stmt 0 view .LVU42
 134 005a 0129     		cmp	r1, #1
 135 005c 26D0     		beq	.L18
 203:HW_Lib/AT32F435/bsp/Bsp_Uart.c ****             return DMAMUX_DMAREQ_ID_UART4_TX;
 136              		.loc 1 203 9 is_stmt 1 view .LVU43
 203:HW_Lib/AT32F435/bsp/Bsp_Uart.c ****             return DMAMUX_DMAREQ_ID_UART4_TX;
 137              		.loc 1 203 12 is_stmt 0 view .LVU44
 138 005e 39B3     		cbz	r1, .L19
 139              		.loc 1 239 12 view .LVU45
 140 0060 0020     		movs	r0, #0
 141              	.LVL10:
 142              		.loc 1 239 12 view .LVU46
 143 0062 7047     		bx	lr
 144              	.LVL11:
 145              	.L33:
ARM GAS  C:\Users\8bit\AppData\Local\Temp\ccJGR6pR.s 			page 8


 208:HW_Lib/AT32F435/bsp/Bsp_Uart.c ****             return DMAMUX_DMAREQ_ID_UART5_RX;
 146              		.loc 1 208 9 is_stmt 1 view .LVU47
 208:HW_Lib/AT32F435/bsp/Bsp_Uart.c ****             return DMAMUX_DMAREQ_ID_UART5_RX;
 147              		.loc 1 208 11 is_stmt 0 view .LVU48
 148 0064 0129     		cmp	r1, #1
 149 0066 25D0     		beq	.L20
 211:HW_Lib/AT32F435/bsp/Bsp_Uart.c ****             return DMAMUX_DMAREQ_ID_UART5_TX;
 150              		.loc 1 211 9 is_stmt 1 view .LVU49
 211:HW_Lib/AT32F435/bsp/Bsp_Uart.c ****             return DMAMUX_DMAREQ_ID_UART5_TX;
 151              		.loc 1 211 11 is_stmt 0 view .LVU50
 152 0068 31B3     		cbz	r1, .L21
 153              		.loc 1 239 12 view .LVU51
 154 006a 0020     		movs	r0, #0
 155              	.LVL12:
 156              		.loc 1 239 12 view .LVU52
 157 006c 7047     		bx	lr
 158              	.LVL13:
 159              	.L34:
 216:HW_Lib/AT32F435/bsp/Bsp_Uart.c ****             return DMAMUX_DMAREQ_ID_USART6_RX;
 160              		.loc 1 216 9 is_stmt 1 view .LVU53
 216:HW_Lib/AT32F435/bsp/Bsp_Uart.c ****             return DMAMUX_DMAREQ_ID_USART6_RX;
 161              		.loc 1 216 12 is_stmt 0 view .LVU54
 162 006e 0129     		cmp	r1, #1
 163 0070 24D0     		beq	.L22
 219:HW_Lib/AT32F435/bsp/Bsp_Uart.c ****             return DMAMUX_DMAREQ_ID_USART6_TX;
 164              		.loc 1 219 9 is_stmt 1 view .LVU55
 219:HW_Lib/AT32F435/bsp/Bsp_Uart.c ****             return DMAMUX_DMAREQ_ID_USART6_TX;
 165              		.loc 1 219 12 is_stmt 0 view .LVU56
 166 0072 29B3     		cbz	r1, .L23
 167              		.loc 1 239 12 view .LVU57
 168 0074 0020     		movs	r0, #0
 169              	.LVL14:
 170              		.loc 1 239 12 view .LVU58
 171 0076 7047     		bx	lr
 172              	.LVL15:
 173              	.L35:
 224:HW_Lib/AT32F435/bsp/Bsp_Uart.c ****             return DMAMUX_DMAREQ_ID_UART7_RX;
 174              		.loc 1 224 9 is_stmt 1 view .LVU59
 224:HW_Lib/AT32F435/bsp/Bsp_Uart.c ****             return DMAMUX_DMAREQ_ID_UART7_RX;
 175              		.loc 1 224 12 is_stmt 0 view .LVU60
 176 0078 0129     		cmp	r1, #1
 177 007a 23D0     		beq	.L24
 227:HW_Lib/AT32F435/bsp/Bsp_Uart.c ****             return DMAMUX_DMAREQ_ID_UART7_TX;
 178              		.loc 1 227 9 is_stmt 1 view .LVU61
 227:HW_Lib/AT32F435/bsp/Bsp_Uart.c ****             return DMAMUX_DMAREQ_ID_UART7_TX;
 179              		.loc 1 227 12 is_stmt 0 view .LVU62
 180 007c 21B3     		cbz	r1, .L25
 181              		.loc 1 239 12 view .LVU63
 182 007e 0020     		movs	r0, #0
 183              	.LVL16:
 184              		.loc 1 239 12 view .LVU64
 185 0080 7047     		bx	lr
 186              	.LVL17:
 187              	.L36:
 232:HW_Lib/AT32F435/bsp/Bsp_Uart.c ****             return DMAMUX_DMAREQ_ID_UART8_RX;
 188              		.loc 1 232 9 is_stmt 1 view .LVU65
 232:HW_Lib/AT32F435/bsp/Bsp_Uart.c ****             return DMAMUX_DMAREQ_ID_UART8_RX;
ARM GAS  C:\Users\8bit\AppData\Local\Temp\ccJGR6pR.s 			page 9


 189              		.loc 1 232 12 is_stmt 0 view .LVU66
 190 0082 0129     		cmp	r1, #1
 191 0084 22D0     		beq	.L27
 235:HW_Lib/AT32F435/bsp/Bsp_Uart.c ****             return DMAMUX_DMAREQ_ID_UART8_TX;
 192              		.loc 1 235 9 is_stmt 1 view .LVU67
 235:HW_Lib/AT32F435/bsp/Bsp_Uart.c ****             return DMAMUX_DMAREQ_ID_UART8_TX;
 193              		.loc 1 235 12 is_stmt 0 view .LVU68
 194 0086 19B3     		cbz	r1, .L28
 195              		.loc 1 239 12 view .LVU69
 196 0088 0020     		movs	r0, #0
 197              	.LVL18:
 198              		.loc 1 239 12 view .LVU70
 199 008a 7047     		bx	lr
 200              	.LVL19:
 201              	.L10:
 172:HW_Lib/AT32F435/bsp/Bsp_Uart.c **** 
 202              		.loc 1 172 16 view .LVU71
 203 008c 0020     		movs	r0, #0
 204              	.LVL20:
 172:HW_Lib/AT32F435/bsp/Bsp_Uart.c **** 
 205              		.loc 1 172 16 view .LVU72
 206 008e 7047     		bx	lr
 207              	.LVL21:
 208              	.L11:
 172:HW_Lib/AT32F435/bsp/Bsp_Uart.c **** 
 209              		.loc 1 172 16 view .LVU73
 210 0090 0020     		movs	r0, #0
 211              	.LVL22:
 172:HW_Lib/AT32F435/bsp/Bsp_Uart.c **** 
 212              		.loc 1 172 16 view .LVU74
 213 0092 7047     		bx	lr
 214              	.LVL23:
 215              	.L12:
 177:HW_Lib/AT32F435/bsp/Bsp_Uart.c ****         
 216              		.loc 1 177 20 view .LVU75
 217 0094 1820     		movs	r0, #24
 218              	.LVL24:
 177:HW_Lib/AT32F435/bsp/Bsp_Uart.c ****         
 219              		.loc 1 177 20 view .LVU76
 220 0096 7047     		bx	lr
 221              	.LVL25:
 222              	.L13:
 180:HW_Lib/AT32F435/bsp/Bsp_Uart.c ****     }
 223              		.loc 1 180 20 view .LVU77
 224 0098 1920     		movs	r0, #25
 225              	.LVL26:
 180:HW_Lib/AT32F435/bsp/Bsp_Uart.c ****     }
 226              		.loc 1 180 20 view .LVU78
 227 009a 7047     		bx	lr
 228              	.LVL27:
 229              	.L14:
 185:HW_Lib/AT32F435/bsp/Bsp_Uart.c ****         
 230              		.loc 1 185 20 view .LVU79
 231 009c 1A20     		movs	r0, #26
 232              	.LVL28:
 185:HW_Lib/AT32F435/bsp/Bsp_Uart.c ****         
 233              		.loc 1 185 20 view .LVU80
ARM GAS  C:\Users\8bit\AppData\Local\Temp\ccJGR6pR.s 			page 10


 234 009e 7047     		bx	lr
 235              	.LVL29:
 236              	.L15:
 188:HW_Lib/AT32F435/bsp/Bsp_Uart.c ****     }
 237              		.loc 1 188 20 view .LVU81
 238 00a0 1B20     		movs	r0, #27
 239              	.LVL30:
 188:HW_Lib/AT32F435/bsp/Bsp_Uart.c ****     }
 240              		.loc 1 188 20 view .LVU82
 241 00a2 7047     		bx	lr
 242              	.LVL31:
 243              	.L16:
 193:HW_Lib/AT32F435/bsp/Bsp_Uart.c **** 
 244              		.loc 1 193 20 view .LVU83
 245 00a4 1C20     		movs	r0, #28
 246              	.LVL32:
 193:HW_Lib/AT32F435/bsp/Bsp_Uart.c **** 
 247              		.loc 1 193 20 view .LVU84
 248 00a6 7047     		bx	lr
 249              	.LVL33:
 250              	.L17:
 196:HW_Lib/AT32F435/bsp/Bsp_Uart.c ****     }
 251              		.loc 1 196 20 view .LVU85
 252 00a8 1D20     		movs	r0, #29
 253              	.LVL34:
 196:HW_Lib/AT32F435/bsp/Bsp_Uart.c ****     }
 254              		.loc 1 196 20 view .LVU86
 255 00aa 7047     		bx	lr
 256              	.LVL35:
 257              	.L18:
 201:HW_Lib/AT32F435/bsp/Bsp_Uart.c ****         
 258              		.loc 1 201 20 view .LVU87
 259 00ac 1E20     		movs	r0, #30
 260              	.LVL36:
 201:HW_Lib/AT32F435/bsp/Bsp_Uart.c ****         
 261              		.loc 1 201 20 view .LVU88
 262 00ae 7047     		bx	lr
 263              	.LVL37:
 264              	.L19:
 204:HW_Lib/AT32F435/bsp/Bsp_Uart.c ****     }
 265              		.loc 1 204 20 view .LVU89
 266 00b0 1F20     		movs	r0, #31
 267              	.LVL38:
 204:HW_Lib/AT32F435/bsp/Bsp_Uart.c ****     }
 268              		.loc 1 204 20 view .LVU90
 269 00b2 7047     		bx	lr
 270              	.LVL39:
 271              	.L20:
 209:HW_Lib/AT32F435/bsp/Bsp_Uart.c ****         
 272              		.loc 1 209 20 view .LVU91
 273 00b4 2020     		movs	r0, #32
 274              	.LVL40:
 209:HW_Lib/AT32F435/bsp/Bsp_Uart.c ****         
 275              		.loc 1 209 20 view .LVU92
 276 00b6 7047     		bx	lr
 277              	.LVL41:
 278              	.L21:
ARM GAS  C:\Users\8bit\AppData\Local\Temp\ccJGR6pR.s 			page 11


 212:HW_Lib/AT32F435/bsp/Bsp_Uart.c ****     }
 279              		.loc 1 212 20 view .LVU93
 280 00b8 2120     		movs	r0, #33
 281              	.LVL42:
 212:HW_Lib/AT32F435/bsp/Bsp_Uart.c ****     }
 282              		.loc 1 212 20 view .LVU94
 283 00ba 7047     		bx	lr
 284              	.LVL43:
 285              	.L22:
 217:HW_Lib/AT32F435/bsp/Bsp_Uart.c **** 
 286              		.loc 1 217 20 view .LVU95
 287 00bc 7220     		movs	r0, #114
 288              	.LVL44:
 217:HW_Lib/AT32F435/bsp/Bsp_Uart.c **** 
 289              		.loc 1 217 20 view .LVU96
 290 00be 7047     		bx	lr
 291              	.LVL45:
 292              	.L23:
 220:HW_Lib/AT32F435/bsp/Bsp_Uart.c ****     }
 293              		.loc 1 220 20 view .LVU97
 294 00c0 7320     		movs	r0, #115
 295              	.LVL46:
 220:HW_Lib/AT32F435/bsp/Bsp_Uart.c ****     }
 296              		.loc 1 220 20 view .LVU98
 297 00c2 7047     		bx	lr
 298              	.LVL47:
 299              	.L24:
 225:HW_Lib/AT32F435/bsp/Bsp_Uart.c ****         
 300              		.loc 1 225 20 view .LVU99
 301 00c4 7420     		movs	r0, #116
 302              	.LVL48:
 225:HW_Lib/AT32F435/bsp/Bsp_Uart.c ****         
 303              		.loc 1 225 20 view .LVU100
 304 00c6 7047     		bx	lr
 305              	.LVL49:
 306              	.L25:
 228:HW_Lib/AT32F435/bsp/Bsp_Uart.c ****     }
 307              		.loc 1 228 20 view .LVU101
 308 00c8 7520     		movs	r0, #117
 309              	.LVL50:
 228:HW_Lib/AT32F435/bsp/Bsp_Uart.c ****     }
 310              		.loc 1 228 20 view .LVU102
 311 00ca 7047     		bx	lr
 312              	.LVL51:
 313              	.L27:
 233:HW_Lib/AT32F435/bsp/Bsp_Uart.c ****         
 314              		.loc 1 233 20 view .LVU103
 315 00cc 7620     		movs	r0, #118
 316              	.LVL52:
 233:HW_Lib/AT32F435/bsp/Bsp_Uart.c ****         
 317              		.loc 1 233 20 view .LVU104
 318 00ce 7047     		bx	lr
 319              	.LVL53:
 320              	.L28:
 236:HW_Lib/AT32F435/bsp/Bsp_Uart.c ****     }
 321              		.loc 1 236 20 view .LVU105
 322 00d0 7720     		movs	r0, #119
ARM GAS  C:\Users\8bit\AppData\Local\Temp\ccJGR6pR.s 			page 12


 323              	.LVL54:
 240:HW_Lib/AT32F435/bsp/Bsp_Uart.c **** }
 324              		.loc 1 240 1 view .LVU106
 325 00d2 7047     		bx	lr
 326              	.L38:
 327              		.align	2
 328              	.L37:
 329 00d4 00100140 		.word	1073811456
 330 00d8 00440040 		.word	1073759232
 331 00dc 00480040 		.word	1073760256
 332 00e0 004C0040 		.word	1073761280
 333 00e4 00500040 		.word	1073762304
 334 00e8 00140140 		.word	1073812480
 335 00ec 00780040 		.word	1073772544
 336 00f0 007C0040 		.word	1073773568
 337              		.cfi_endproc
 338              	.LFE135:
 340              		.section	.text.BspUart_Set_StopBit,"ax",%progbits
 341              		.align	1
 342              		.syntax unified
 343              		.thumb
 344              		.thumb_func
 346              	BspUart_Set_StopBit:
 347              	.LVL55:
 348              	.LFB141:
 241:HW_Lib/AT32F435/bsp/Bsp_Uart.c **** 
 242:HW_Lib/AT32F435/bsp/Bsp_Uart.c **** static int BspUart_Init_DMA(BspUARTObj_TypeDef *obj)
 243:HW_Lib/AT32F435/bsp/Bsp_Uart.c **** {
 244:HW_Lib/AT32F435/bsp/Bsp_Uart.c ****     int index = 0;
 245:HW_Lib/AT32F435/bsp/Bsp_Uart.c ****     dma_init_type tx_dma;
 246:HW_Lib/AT32F435/bsp/Bsp_Uart.c ****     dma_init_type rx_dma;
 247:HW_Lib/AT32F435/bsp/Bsp_Uart.c **** 
 248:HW_Lib/AT32F435/bsp/Bsp_Uart.c ****     if ((obj == NULL) || \
 249:HW_Lib/AT32F435/bsp/Bsp_Uart.c ****         (obj->instance == NULL))
 250:HW_Lib/AT32F435/bsp/Bsp_Uart.c ****         return Bspuart_None_Index;
 251:HW_Lib/AT32F435/bsp/Bsp_Uart.c **** 
 252:HW_Lib/AT32F435/bsp/Bsp_Uart.c ****     if (To_Uart_Instance(obj->instance) == USART1)
 253:HW_Lib/AT32F435/bsp/Bsp_Uart.c ****     {
 254:HW_Lib/AT32F435/bsp/Bsp_Uart.c ****         index = Bsp_UART_Port_1;
 255:HW_Lib/AT32F435/bsp/Bsp_Uart.c ****     }
 256:HW_Lib/AT32F435/bsp/Bsp_Uart.c ****     else if (To_Uart_Instance(obj->instance) == USART2)
 257:HW_Lib/AT32F435/bsp/Bsp_Uart.c ****     {
 258:HW_Lib/AT32F435/bsp/Bsp_Uart.c ****         index = Bsp_UART_Port_2;
 259:HW_Lib/AT32F435/bsp/Bsp_Uart.c ****     }
 260:HW_Lib/AT32F435/bsp/Bsp_Uart.c ****     else if (To_Uart_Instance(obj->instance) == USART3)
 261:HW_Lib/AT32F435/bsp/Bsp_Uart.c ****     {
 262:HW_Lib/AT32F435/bsp/Bsp_Uart.c ****         index = Bsp_UART_Port_3;
 263:HW_Lib/AT32F435/bsp/Bsp_Uart.c ****     }
 264:HW_Lib/AT32F435/bsp/Bsp_Uart.c ****     else if (To_Uart_Instance(obj->instance) == UART4)
 265:HW_Lib/AT32F435/bsp/Bsp_Uart.c ****     {
 266:HW_Lib/AT32F435/bsp/Bsp_Uart.c ****         index = Bsp_UART_Port_4;
 267:HW_Lib/AT32F435/bsp/Bsp_Uart.c ****     }
 268:HW_Lib/AT32F435/bsp/Bsp_Uart.c ****     else if (To_Uart_Instance(obj->instance) == UART5)
 269:HW_Lib/AT32F435/bsp/Bsp_Uart.c ****     {
 270:HW_Lib/AT32F435/bsp/Bsp_Uart.c ****         index = Bsp_UART_Port_5;
 271:HW_Lib/AT32F435/bsp/Bsp_Uart.c ****     }
 272:HW_Lib/AT32F435/bsp/Bsp_Uart.c ****     else if (To_Uart_Instance(obj->instance) == USART6)
ARM GAS  C:\Users\8bit\AppData\Local\Temp\ccJGR6pR.s 			page 13


 273:HW_Lib/AT32F435/bsp/Bsp_Uart.c ****     {
 274:HW_Lib/AT32F435/bsp/Bsp_Uart.c ****         index = Bsp_UART_Port_6;
 275:HW_Lib/AT32F435/bsp/Bsp_Uart.c ****     }
 276:HW_Lib/AT32F435/bsp/Bsp_Uart.c ****     else if (To_Uart_Instance(obj->instance) == UART7)
 277:HW_Lib/AT32F435/bsp/Bsp_Uart.c ****     {
 278:HW_Lib/AT32F435/bsp/Bsp_Uart.c ****         index = Bsp_UART_Port_7;
 279:HW_Lib/AT32F435/bsp/Bsp_Uart.c ****     }
 280:HW_Lib/AT32F435/bsp/Bsp_Uart.c ****     else if (To_Uart_Instance(obj->instance) == UART8)
 281:HW_Lib/AT32F435/bsp/Bsp_Uart.c ****     {
 282:HW_Lib/AT32F435/bsp/Bsp_Uart.c ****         index = Bsp_UART_Port_8;
 283:HW_Lib/AT32F435/bsp/Bsp_Uart.c ****     }
 284:HW_Lib/AT32F435/bsp/Bsp_Uart.c ****     else
 285:HW_Lib/AT32F435/bsp/Bsp_Uart.c ****         return Bspuart_None_Index;
 286:HW_Lib/AT32F435/bsp/Bsp_Uart.c **** 
 287:HW_Lib/AT32F435/bsp/Bsp_Uart.c ****     /* rx dma init section */
 288:HW_Lib/AT32F435/bsp/Bsp_Uart.c ****     obj->rx_dma_hdl = BspDMA.get_instance(obj->rx_dma, obj->rx_stream);
 289:HW_Lib/AT32F435/bsp/Bsp_Uart.c ****     if(obj->rx_dma_hdl)
 290:HW_Lib/AT32F435/bsp/Bsp_Uart.c ****     {
 291:HW_Lib/AT32F435/bsp/Bsp_Uart.c ****         if ((obj->rx_buf == NULL) || (obj->rx_size == 0))
 292:HW_Lib/AT32F435/bsp/Bsp_Uart.c ****             return BspUart_Clock_Error;
 293:HW_Lib/AT32F435/bsp/Bsp_Uart.c **** 
 294:HW_Lib/AT32F435/bsp/Bsp_Uart.c ****         dma_reset(obj->rx_dma_hdl);
 295:HW_Lib/AT32F435/bsp/Bsp_Uart.c ****         dma_default_para_init(&rx_dma);
 296:HW_Lib/AT32F435/bsp/Bsp_Uart.c **** 
 297:HW_Lib/AT32F435/bsp/Bsp_Uart.c ****         rx_dma.buffer_size = obj->rx_size;
 298:HW_Lib/AT32F435/bsp/Bsp_Uart.c ****         rx_dma.direction = DMA_DIR_PERIPHERAL_TO_MEMORY;
 299:HW_Lib/AT32F435/bsp/Bsp_Uart.c ****         rx_dma.memory_base_addr = (uint32_t)obj->rx_buf;
 300:HW_Lib/AT32F435/bsp/Bsp_Uart.c ****         rx_dma.memory_data_width = DMA_MEMORY_DATA_WIDTH_BYTE;
 301:HW_Lib/AT32F435/bsp/Bsp_Uart.c ****         rx_dma.memory_inc_enable = TRUE;
 302:HW_Lib/AT32F435/bsp/Bsp_Uart.c ****         rx_dma.peripheral_base_addr = (uint32_t)&(To_Uart_Instance(obj->instance)->dt);
 303:HW_Lib/AT32F435/bsp/Bsp_Uart.c ****         rx_dma.peripheral_data_width = DMA_PERIPHERAL_DATA_WIDTH_BYTE;
 304:HW_Lib/AT32F435/bsp/Bsp_Uart.c ****         rx_dma.peripheral_inc_enable = FALSE;
 305:HW_Lib/AT32F435/bsp/Bsp_Uart.c ****         rx_dma.priority = DMA_PRIORITY_HIGH;
 306:HW_Lib/AT32F435/bsp/Bsp_Uart.c ****         rx_dma.loop_mode_enable = FALSE;
 307:HW_Lib/AT32F435/bsp/Bsp_Uart.c **** 
 308:HW_Lib/AT32F435/bsp/Bsp_Uart.c ****         BspUart_RxDMA_IrqObj[index].BspDMA_Irq_Callback_Func = BspUart_DMA_RxCplt_Callback;
 309:HW_Lib/AT32F435/bsp/Bsp_Uart.c ****         BspUart_RxDMA_IrqObj[index].cus_data = (void *)obj;
 310:HW_Lib/AT32F435/bsp/Bsp_Uart.c **** 
 311:HW_Lib/AT32F435/bsp/Bsp_Uart.c ****         dma_init(obj->rx_dma_hdl, &rx_dma);
 312:HW_Lib/AT32F435/bsp/Bsp_Uart.c ****         BspDMA.enable_irq(obj->rx_dma, obj->rx_stream, 5, 0, \
 313:HW_Lib/AT32F435/bsp/Bsp_Uart.c ****                           BspUart_Get_MuxSeq(To_Uart_Instance(obj->instance), \
 314:HW_Lib/AT32F435/bsp/Bsp_Uart.c ****                           Uart_Dir_Rx, obj->rx_dma_hdl), \
 315:HW_Lib/AT32F435/bsp/Bsp_Uart.c ****                           (void *)&BspUart_RxDMA_IrqObj[index]);
 316:HW_Lib/AT32F435/bsp/Bsp_Uart.c ****     }
 317:HW_Lib/AT32F435/bsp/Bsp_Uart.c **** 
 318:HW_Lib/AT32F435/bsp/Bsp_Uart.c ****     /* tx dma init section */
 319:HW_Lib/AT32F435/bsp/Bsp_Uart.c ****     obj->tx_dma_hdl = BspDMA.get_instance(obj->tx_dma, obj->tx_stream);
 320:HW_Lib/AT32F435/bsp/Bsp_Uart.c ****     if(obj->tx_dma_hdl)
 321:HW_Lib/AT32F435/bsp/Bsp_Uart.c ****     {
 322:HW_Lib/AT32F435/bsp/Bsp_Uart.c ****         dma_reset(obj->tx_dma_hdl);
 323:HW_Lib/AT32F435/bsp/Bsp_Uart.c ****         dma_default_para_init(&tx_dma);
 324:HW_Lib/AT32F435/bsp/Bsp_Uart.c **** 
 325:HW_Lib/AT32F435/bsp/Bsp_Uart.c ****         tx_dma.buffer_size = 0;
 326:HW_Lib/AT32F435/bsp/Bsp_Uart.c ****         tx_dma.direction = DMA_DIR_MEMORY_TO_PERIPHERAL;
 327:HW_Lib/AT32F435/bsp/Bsp_Uart.c ****         tx_dma.memory_base_addr = (uint32_t)0;
 328:HW_Lib/AT32F435/bsp/Bsp_Uart.c ****         tx_dma.memory_data_width = DMA_MEMORY_DATA_WIDTH_BYTE;
 329:HW_Lib/AT32F435/bsp/Bsp_Uart.c ****         tx_dma.memory_inc_enable = TRUE;
ARM GAS  C:\Users\8bit\AppData\Local\Temp\ccJGR6pR.s 			page 14


 330:HW_Lib/AT32F435/bsp/Bsp_Uart.c ****         tx_dma.peripheral_base_addr = (uint32_t)&(To_Uart_Instance(obj->instance)->dt);
 331:HW_Lib/AT32F435/bsp/Bsp_Uart.c ****         tx_dma.peripheral_data_width = DMA_PERIPHERAL_DATA_WIDTH_BYTE;
 332:HW_Lib/AT32F435/bsp/Bsp_Uart.c ****         tx_dma.peripheral_inc_enable = FALSE;
 333:HW_Lib/AT32F435/bsp/Bsp_Uart.c ****         tx_dma.priority = DMA_PRIORITY_HIGH;
 334:HW_Lib/AT32F435/bsp/Bsp_Uart.c ****         tx_dma.loop_mode_enable = FALSE;
 335:HW_Lib/AT32F435/bsp/Bsp_Uart.c **** 
 336:HW_Lib/AT32F435/bsp/Bsp_Uart.c ****         BspUart_TxDMA_IrqObj[index].BspDMA_Irq_Callback_Func = BspUart_DMA_TxCplt_Callback;
 337:HW_Lib/AT32F435/bsp/Bsp_Uart.c ****         BspUart_TxDMA_IrqObj[index].cus_data = (void *)obj;
 338:HW_Lib/AT32F435/bsp/Bsp_Uart.c **** 
 339:HW_Lib/AT32F435/bsp/Bsp_Uart.c ****         dma_init(obj->tx_dma_hdl, &tx_dma);
 340:HW_Lib/AT32F435/bsp/Bsp_Uart.c ****         
 341:HW_Lib/AT32F435/bsp/Bsp_Uart.c ****         BspDMA.enable_irq(obj->tx_dma, obj->tx_stream, 5, 0, \
 342:HW_Lib/AT32F435/bsp/Bsp_Uart.c ****                           BspUart_Get_MuxSeq(To_Uart_Instance(obj->instance), \
 343:HW_Lib/AT32F435/bsp/Bsp_Uart.c ****                           Uart_Dir_Tx, obj->tx_dma_hdl), \
 344:HW_Lib/AT32F435/bsp/Bsp_Uart.c ****                           &BspUart_TxDMA_IrqObj[index]);
 345:HW_Lib/AT32F435/bsp/Bsp_Uart.c ****     }
 346:HW_Lib/AT32F435/bsp/Bsp_Uart.c **** 
 347:HW_Lib/AT32F435/bsp/Bsp_Uart.c ****     return index;
 348:HW_Lib/AT32F435/bsp/Bsp_Uart.c **** }
 349:HW_Lib/AT32F435/bsp/Bsp_Uart.c **** 
 350:HW_Lib/AT32F435/bsp/Bsp_Uart.c **** static bool BspUart_Init(BspUARTObj_TypeDef *obj)
 351:HW_Lib/AT32F435/bsp/Bsp_Uart.c **** {
 352:HW_Lib/AT32F435/bsp/Bsp_Uart.c ****     int port_index = -1;
 353:HW_Lib/AT32F435/bsp/Bsp_Uart.c ****     bool tx_en = false;
 354:HW_Lib/AT32F435/bsp/Bsp_Uart.c ****     bool rx_en = false;
 355:HW_Lib/AT32F435/bsp/Bsp_Uart.c **** 
 356:HW_Lib/AT32F435/bsp/Bsp_Uart.c ****     if ((obj == NULL) || \
 357:HW_Lib/AT32F435/bsp/Bsp_Uart.c ****         (obj->instance == NULL))
 358:HW_Lib/AT32F435/bsp/Bsp_Uart.c ****         return false;
 359:HW_Lib/AT32F435/bsp/Bsp_Uart.c **** 
 360:HW_Lib/AT32F435/bsp/Bsp_Uart.c ****     port_index = BspUart_Init_Clock(obj);
 361:HW_Lib/AT32F435/bsp/Bsp_Uart.c **** 
 362:HW_Lib/AT32F435/bsp/Bsp_Uart.c ****     if(port_index < 0)
 363:HW_Lib/AT32F435/bsp/Bsp_Uart.c ****         return false;
 364:HW_Lib/AT32F435/bsp/Bsp_Uart.c **** 
 365:HW_Lib/AT32F435/bsp/Bsp_Uart.c ****     /* pin init */
 366:HW_Lib/AT32F435/bsp/Bsp_Uart.c ****     tx_en = BspGPIO.alt_init(obj->tx_io, GPIO_OUTPUT_PUSH_PULL);
 367:HW_Lib/AT32F435/bsp/Bsp_Uart.c ****     rx_en = BspGPIO.alt_init(obj->rx_io, GPIO_OUTPUT_PUSH_PULL);
 368:HW_Lib/AT32F435/bsp/Bsp_Uart.c ****           
 369:HW_Lib/AT32F435/bsp/Bsp_Uart.c ****     if(obj->baudrate <= 0)
 370:HW_Lib/AT32F435/bsp/Bsp_Uart.c ****         obj->baudrate = Uart_Default_Baudrate;
 371:HW_Lib/AT32F435/bsp/Bsp_Uart.c **** 
 372:HW_Lib/AT32F435/bsp/Bsp_Uart.c ****     usart_init(To_Uart_Instance(obj->instance), obj->baudrate, USART_DATA_8BITS, USART_STOP_1_BIT);
 373:HW_Lib/AT32F435/bsp/Bsp_Uart.c ****     
 374:HW_Lib/AT32F435/bsp/Bsp_Uart.c ****     if (obj->pin_swap)
 375:HW_Lib/AT32F435/bsp/Bsp_Uart.c ****         usart_transmit_receive_pin_swap(To_Uart_Instance(obj->instance), TRUE);
 376:HW_Lib/AT32F435/bsp/Bsp_Uart.c ****     
 377:HW_Lib/AT32F435/bsp/Bsp_Uart.c ****     if (tx_en)
 378:HW_Lib/AT32F435/bsp/Bsp_Uart.c ****         usart_transmitter_enable(To_Uart_Instance(obj->instance), TRUE);
 379:HW_Lib/AT32F435/bsp/Bsp_Uart.c ****     
 380:HW_Lib/AT32F435/bsp/Bsp_Uart.c ****     if (rx_en)
 381:HW_Lib/AT32F435/bsp/Bsp_Uart.c ****         usart_receiver_enable(To_Uart_Instance(obj->instance), TRUE);
 382:HW_Lib/AT32F435/bsp/Bsp_Uart.c **** 
 383:HW_Lib/AT32F435/bsp/Bsp_Uart.c ****     if(BspUart_Init_DMA(obj) == BspUart_Clock_Error)
 384:HW_Lib/AT32F435/bsp/Bsp_Uart.c ****         return false;
 385:HW_Lib/AT32F435/bsp/Bsp_Uart.c **** 
 386:HW_Lib/AT32F435/bsp/Bsp_Uart.c ****     /* irq config */
ARM GAS  C:\Users\8bit\AppData\Local\Temp\ccJGR6pR.s 			page 15


 387:HW_Lib/AT32F435/bsp/Bsp_Uart.c ****     if(obj->rx_dma_hdl)
 388:HW_Lib/AT32F435/bsp/Bsp_Uart.c ****     {
 389:HW_Lib/AT32F435/bsp/Bsp_Uart.c ****         usart_dma_receiver_enable(To_Uart_Instance(obj->instance), TRUE);
 390:HW_Lib/AT32F435/bsp/Bsp_Uart.c ****         usart_interrupt_enable(To_Uart_Instance(obj->instance), USART_IDLE_INT, TRUE);
 391:HW_Lib/AT32F435/bsp/Bsp_Uart.c ****         obj->irq_type = BspUart_IRQ_Type_Idle;
 392:HW_Lib/AT32F435/bsp/Bsp_Uart.c ****     }
 393:HW_Lib/AT32F435/bsp/Bsp_Uart.c ****     else
 394:HW_Lib/AT32F435/bsp/Bsp_Uart.c ****     {
 395:HW_Lib/AT32F435/bsp/Bsp_Uart.c ****         usart_interrupt_enable(To_Uart_Instance(obj->instance), USART_RDBF_INT, TRUE);
 396:HW_Lib/AT32F435/bsp/Bsp_Uart.c ****         obj->irq_type = BspUart_IRQ_Type_Byte;
 397:HW_Lib/AT32F435/bsp/Bsp_Uart.c ****     }
 398:HW_Lib/AT32F435/bsp/Bsp_Uart.c **** 
 399:HW_Lib/AT32F435/bsp/Bsp_Uart.c ****     if(obj->tx_dma_hdl)
 400:HW_Lib/AT32F435/bsp/Bsp_Uart.c ****         usart_dma_transmitter_enable(To_Uart_Instance(obj->instance), TRUE);
 401:HW_Lib/AT32F435/bsp/Bsp_Uart.c ****     usart_interrupt_enable(To_Uart_Instance(obj->instance), USART_TDBE_INT, FALSE);
 402:HW_Lib/AT32F435/bsp/Bsp_Uart.c **** 
 403:HW_Lib/AT32F435/bsp/Bsp_Uart.c ****     usart_enable(To_Uart_Instance(obj->instance), TRUE);
 404:HW_Lib/AT32F435/bsp/Bsp_Uart.c ****     if(BspUart_SetIRQ(obj, true) < 0)
 405:HW_Lib/AT32F435/bsp/Bsp_Uart.c ****         return false;
 406:HW_Lib/AT32F435/bsp/Bsp_Uart.c ****     
 407:HW_Lib/AT32F435/bsp/Bsp_Uart.c ****     dma_channel_enable(To_DMA_Handle_Ptr(obj->rx_dma_hdl), TRUE);
 408:HW_Lib/AT32F435/bsp/Bsp_Uart.c **** 
 409:HW_Lib/AT32F435/bsp/Bsp_Uart.c ****     BspUart_Obj_List[port_index] = obj;
 410:HW_Lib/AT32F435/bsp/Bsp_Uart.c ****     obj->init_state = true;
 411:HW_Lib/AT32F435/bsp/Bsp_Uart.c ****     
 412:HW_Lib/AT32F435/bsp/Bsp_Uart.c ****     return true;
 413:HW_Lib/AT32F435/bsp/Bsp_Uart.c **** }
 414:HW_Lib/AT32F435/bsp/Bsp_Uart.c **** 
 415:HW_Lib/AT32F435/bsp/Bsp_Uart.c **** static bool BspUart_DeInit(BspUARTObj_TypeDef *obj)
 416:HW_Lib/AT32F435/bsp/Bsp_Uart.c **** {
 417:HW_Lib/AT32F435/bsp/Bsp_Uart.c ****     if (obj && obj->instance)
 418:HW_Lib/AT32F435/bsp/Bsp_Uart.c ****     {
 419:HW_Lib/AT32F435/bsp/Bsp_Uart.c ****         /* deinit dma port */
 420:HW_Lib/AT32F435/bsp/Bsp_Uart.c ****         if (obj->rx_dma_hdl)
 421:HW_Lib/AT32F435/bsp/Bsp_Uart.c ****         {
 422:HW_Lib/AT32F435/bsp/Bsp_Uart.c ****             dma_channel_enable(To_DMA_Handle_Ptr(obj->rx_dma_hdl), FALSE);
 423:HW_Lib/AT32F435/bsp/Bsp_Uart.c ****             dma_reset(To_DMA_Handle_Ptr(obj->rx_dma_hdl));
 424:HW_Lib/AT32F435/bsp/Bsp_Uart.c ****         }
 425:HW_Lib/AT32F435/bsp/Bsp_Uart.c **** 
 426:HW_Lib/AT32F435/bsp/Bsp_Uart.c ****         if (obj->tx_dma_hdl)
 427:HW_Lib/AT32F435/bsp/Bsp_Uart.c ****         {
 428:HW_Lib/AT32F435/bsp/Bsp_Uart.c ****             dma_channel_enable(To_DMA_Handle_Ptr(obj->tx_dma_hdl), FALSE);
 429:HW_Lib/AT32F435/bsp/Bsp_Uart.c ****             dma_reset(To_DMA_Handle_Ptr(obj->tx_dma_hdl));
 430:HW_Lib/AT32F435/bsp/Bsp_Uart.c ****         }
 431:HW_Lib/AT32F435/bsp/Bsp_Uart.c **** 
 432:HW_Lib/AT32F435/bsp/Bsp_Uart.c ****         if (obj->irq_type == BspUart_IRQ_Type_Idle)
 433:HW_Lib/AT32F435/bsp/Bsp_Uart.c ****         {
 434:HW_Lib/AT32F435/bsp/Bsp_Uart.c ****             usart_interrupt_enable(To_Uart_Instance(obj->instance), USART_IDLE_INT, FALSE);
 435:HW_Lib/AT32F435/bsp/Bsp_Uart.c ****         }
 436:HW_Lib/AT32F435/bsp/Bsp_Uart.c ****         else if (obj->irq_type == BspUart_IRQ_Type_Byte)
 437:HW_Lib/AT32F435/bsp/Bsp_Uart.c ****             usart_interrupt_enable(To_Uart_Instance(obj->instance), USART_RDBF_INT, FALSE);
 438:HW_Lib/AT32F435/bsp/Bsp_Uart.c **** 
 439:HW_Lib/AT32F435/bsp/Bsp_Uart.c ****         BspUart_SetIRQ(obj, false);
 440:HW_Lib/AT32F435/bsp/Bsp_Uart.c **** 
 441:HW_Lib/AT32F435/bsp/Bsp_Uart.c ****         BspGPIO.de_init(obj->rx_io);
 442:HW_Lib/AT32F435/bsp/Bsp_Uart.c ****         BspGPIO.de_init(obj->tx_io);
 443:HW_Lib/AT32F435/bsp/Bsp_Uart.c **** 
ARM GAS  C:\Users\8bit\AppData\Local\Temp\ccJGR6pR.s 			page 16


 444:HW_Lib/AT32F435/bsp/Bsp_Uart.c ****         /* deinit uart port */
 445:HW_Lib/AT32F435/bsp/Bsp_Uart.c ****         usart_reset(To_Uart_Instance(obj->instance));
 446:HW_Lib/AT32F435/bsp/Bsp_Uart.c ****     }
 447:HW_Lib/AT32F435/bsp/Bsp_Uart.c **** 
 448:HW_Lib/AT32F435/bsp/Bsp_Uart.c ****     return false;
 449:HW_Lib/AT32F435/bsp/Bsp_Uart.c **** }
 450:HW_Lib/AT32F435/bsp/Bsp_Uart.c **** 
 451:HW_Lib/AT32F435/bsp/Bsp_Uart.c **** static bool BspUart_Set_DataBit(BspUARTObj_TypeDef *obj, uint32_t bit)
 452:HW_Lib/AT32F435/bsp/Bsp_Uart.c **** {
 453:HW_Lib/AT32F435/bsp/Bsp_Uart.c ****     usart_identification_bit_num_type bit_num = (usart_identification_bit_num_type)bit; 
 454:HW_Lib/AT32F435/bsp/Bsp_Uart.c **** 
 455:HW_Lib/AT32F435/bsp/Bsp_Uart.c ****     if(obj && obj->instance && obj->init_state && (bit_num <= USART_ID_RELATED_DATA_BIT))
 456:HW_Lib/AT32F435/bsp/Bsp_Uart.c ****     {
 457:HW_Lib/AT32F435/bsp/Bsp_Uart.c ****         usart_id_bit_num_set(To_Uart_Instance(obj->instance), bit_num);
 458:HW_Lib/AT32F435/bsp/Bsp_Uart.c ****         return true;
 459:HW_Lib/AT32F435/bsp/Bsp_Uart.c ****     }
 460:HW_Lib/AT32F435/bsp/Bsp_Uart.c **** 
 461:HW_Lib/AT32F435/bsp/Bsp_Uart.c ****     return false;
 462:HW_Lib/AT32F435/bsp/Bsp_Uart.c **** }
 463:HW_Lib/AT32F435/bsp/Bsp_Uart.c **** 
 464:HW_Lib/AT32F435/bsp/Bsp_Uart.c **** static bool BspUart_Set_Parity(BspUARTObj_TypeDef *obj, uint32_t parity)
 465:HW_Lib/AT32F435/bsp/Bsp_Uart.c **** {
 466:HW_Lib/AT32F435/bsp/Bsp_Uart.c ****     usart_parity_selection_type parity_tmp = (usart_parity_selection_type)parity;
 467:HW_Lib/AT32F435/bsp/Bsp_Uart.c **** 
 468:HW_Lib/AT32F435/bsp/Bsp_Uart.c ****     if (obj && obj->instance && obj->init_state && (parity_tmp <= USART_PARITY_ODD))
 469:HW_Lib/AT32F435/bsp/Bsp_Uart.c ****     {
 470:HW_Lib/AT32F435/bsp/Bsp_Uart.c ****         usart_parity_selection_config(To_Uart_Instance(obj->instance), parity_tmp);
 471:HW_Lib/AT32F435/bsp/Bsp_Uart.c ****         return true;
 472:HW_Lib/AT32F435/bsp/Bsp_Uart.c ****     }
 473:HW_Lib/AT32F435/bsp/Bsp_Uart.c **** 
 474:HW_Lib/AT32F435/bsp/Bsp_Uart.c ****     return false;
 475:HW_Lib/AT32F435/bsp/Bsp_Uart.c **** }
 476:HW_Lib/AT32F435/bsp/Bsp_Uart.c **** 
 477:HW_Lib/AT32F435/bsp/Bsp_Uart.c **** static bool BspUart_Set_StopBit(BspUARTObj_TypeDef *obj, uint32_t stop_bit)
 478:HW_Lib/AT32F435/bsp/Bsp_Uart.c **** {
 349              		.loc 1 478 1 is_stmt 1 view -0
 350              		.cfi_startproc
 351              		@ args = 0, pretend = 0, frame = 0
 352              		@ frame_needed = 0, uses_anonymous_args = 0
 353              		@ link register save eliminated.
 479:HW_Lib/AT32F435/bsp/Bsp_Uart.c ****     return false;
 354              		.loc 1 479 5 view .LVU108
 480:HW_Lib/AT32F435/bsp/Bsp_Uart.c **** }
 355              		.loc 1 480 1 is_stmt 0 view .LVU109
 356 0000 0020     		movs	r0, #0
 357              	.LVL56:
 358              		.loc 1 480 1 view .LVU110
 359 0002 7047     		bx	lr
 360              		.cfi_endproc
 361              	.LFE141:
 363              		.section	.text.BspUart_Set_Rx_Callback,"ax",%progbits
 364              		.align	1
 365              		.syntax unified
 366              		.thumb
 367              		.thumb_func
 369              	BspUart_Set_Rx_Callback:
 370              	.LVL57:
ARM GAS  C:\Users\8bit\AppData\Local\Temp\ccJGR6pR.s 			page 17


 371              	.LFB144:
 481:HW_Lib/AT32F435/bsp/Bsp_Uart.c **** 
 482:HW_Lib/AT32F435/bsp/Bsp_Uart.c **** static bool BspUart_Swap_Pin(BspUARTObj_TypeDef *obj, bool swap)
 483:HW_Lib/AT32F435/bsp/Bsp_Uart.c **** {
 484:HW_Lib/AT32F435/bsp/Bsp_Uart.c ****     if(obj && obj->instance)
 485:HW_Lib/AT32F435/bsp/Bsp_Uart.c ****     {
 486:HW_Lib/AT32F435/bsp/Bsp_Uart.c ****         obj->pin_swap = true;
 487:HW_Lib/AT32F435/bsp/Bsp_Uart.c ****         
 488:HW_Lib/AT32F435/bsp/Bsp_Uart.c ****         if(obj->init_state)
 489:HW_Lib/AT32F435/bsp/Bsp_Uart.c ****             usart_transmit_receive_pin_swap(To_Uart_Instance(obj->instance), TRUE);
 490:HW_Lib/AT32F435/bsp/Bsp_Uart.c ****     }
 491:HW_Lib/AT32F435/bsp/Bsp_Uart.c **** 
 492:HW_Lib/AT32F435/bsp/Bsp_Uart.c ****     return true;
 493:HW_Lib/AT32F435/bsp/Bsp_Uart.c **** }
 494:HW_Lib/AT32F435/bsp/Bsp_Uart.c **** 
 495:HW_Lib/AT32F435/bsp/Bsp_Uart.c **** static bool BspUart_Transfer(BspUARTObj_TypeDef *obj, uint8_t *tx_buf, uint16_t size)
 496:HW_Lib/AT32F435/bsp/Bsp_Uart.c **** {
 497:HW_Lib/AT32F435/bsp/Bsp_Uart.c ****     if(obj && obj->instance && obj->init_state && tx_buf && size)
 498:HW_Lib/AT32F435/bsp/Bsp_Uart.c ****     {
 499:HW_Lib/AT32F435/bsp/Bsp_Uart.c ****         /* if has dma handle use dma trans */
 500:HW_Lib/AT32F435/bsp/Bsp_Uart.c ****         if(obj->tx_dma_hdl)
 501:HW_Lib/AT32F435/bsp/Bsp_Uart.c ****         {
 502:HW_Lib/AT32F435/bsp/Bsp_Uart.c ****             /* last pack still in transfer */
 503:HW_Lib/AT32F435/bsp/Bsp_Uart.c ****             if(obj->monitor.tx_success_cnt != obj->monitor.tx_cnt)
 504:HW_Lib/AT32F435/bsp/Bsp_Uart.c ****                 return false;
 505:HW_Lib/AT32F435/bsp/Bsp_Uart.c **** 
 506:HW_Lib/AT32F435/bsp/Bsp_Uart.c ****             To_DMA_Handle_Ptr(obj->tx_dma_hdl)->maddr = (uint32_t)tx_buf;
 507:HW_Lib/AT32F435/bsp/Bsp_Uart.c ****             To_DMA_Handle_Ptr(obj->tx_dma_hdl)->dtcnt_bit.cnt = size;
 508:HW_Lib/AT32F435/bsp/Bsp_Uart.c **** 
 509:HW_Lib/AT32F435/bsp/Bsp_Uart.c ****             dma_channel_enable(To_DMA_Handle_Ptr(obj->tx_dma_hdl), TRUE);
 510:HW_Lib/AT32F435/bsp/Bsp_Uart.c ****         }
 511:HW_Lib/AT32F435/bsp/Bsp_Uart.c ****         else
 512:HW_Lib/AT32F435/bsp/Bsp_Uart.c ****         {
 513:HW_Lib/AT32F435/bsp/Bsp_Uart.c ****             for (uint16_t i = 0; i < size; i++)
 514:HW_Lib/AT32F435/bsp/Bsp_Uart.c ****             {
 515:HW_Lib/AT32F435/bsp/Bsp_Uart.c ****                 usart_data_transmit(To_Uart_Instance(obj->instance), tx_buf[i]);
 516:HW_Lib/AT32F435/bsp/Bsp_Uart.c ****                 while (usart_flag_get(To_Uart_Instance(obj->instance), USART_TDBE_FLAG) == RESET);
 517:HW_Lib/AT32F435/bsp/Bsp_Uart.c ****             }
 518:HW_Lib/AT32F435/bsp/Bsp_Uart.c ****         }
 519:HW_Lib/AT32F435/bsp/Bsp_Uart.c ****         obj->monitor.tx_cnt ++;
 520:HW_Lib/AT32F435/bsp/Bsp_Uart.c **** 
 521:HW_Lib/AT32F435/bsp/Bsp_Uart.c ****         return true;
 522:HW_Lib/AT32F435/bsp/Bsp_Uart.c ****     }
 523:HW_Lib/AT32F435/bsp/Bsp_Uart.c **** 
 524:HW_Lib/AT32F435/bsp/Bsp_Uart.c ****     return false;
 525:HW_Lib/AT32F435/bsp/Bsp_Uart.c **** }
 526:HW_Lib/AT32F435/bsp/Bsp_Uart.c **** 
 527:HW_Lib/AT32F435/bsp/Bsp_Uart.c **** static bool BspUart_Set_Rx_Callback(BspUARTObj_TypeDef *obj, BspUART_Callback callback)
 528:HW_Lib/AT32F435/bsp/Bsp_Uart.c **** {
 372              		.loc 1 528 1 is_stmt 1 view -0
 373              		.cfi_startproc
 374              		@ args = 0, pretend = 0, frame = 0
 375              		@ frame_needed = 0, uses_anonymous_args = 0
 376              		@ link register save eliminated.
 529:HW_Lib/AT32F435/bsp/Bsp_Uart.c ****     if (obj && obj->instance && obj->init_state)
 377              		.loc 1 529 5 view .LVU112
 378              		.loc 1 529 8 is_stmt 0 view .LVU113
ARM GAS  C:\Users\8bit\AppData\Local\Temp\ccJGR6pR.s 			page 18


 379 0000 0346     		mov	r3, r0
 380 0002 38B1     		cbz	r0, .L42
 381              		.loc 1 529 19 discriminator 1 view .LVU114
 382 0004 8268     		ldr	r2, [r0, #8]
 383              		.loc 1 529 13 discriminator 1 view .LVU115
 384 0006 3AB1     		cbz	r2, .L43
 385              		.loc 1 529 36 discriminator 2 view .LVU116
 386 0008 90F84C00 		ldrb	r0, [r0, #76]	@ zero_extendqisi2
 387              	.LVL58:
 388              		.loc 1 529 30 discriminator 2 view .LVU117
 389 000c 00B9     		cbnz	r0, .L44
 390              	.L41:
 530:HW_Lib/AT32F435/bsp/Bsp_Uart.c ****     {
 531:HW_Lib/AT32F435/bsp/Bsp_Uart.c ****         obj->RxCallback = callback;
 532:HW_Lib/AT32F435/bsp/Bsp_Uart.c ****         return true;
 533:HW_Lib/AT32F435/bsp/Bsp_Uart.c ****     }
 534:HW_Lib/AT32F435/bsp/Bsp_Uart.c **** 
 535:HW_Lib/AT32F435/bsp/Bsp_Uart.c ****     return false;
 536:HW_Lib/AT32F435/bsp/Bsp_Uart.c **** }
 391              		.loc 1 536 1 view .LVU118
 392 000e 7047     		bx	lr
 393              	.L44:
 531:HW_Lib/AT32F435/bsp/Bsp_Uart.c ****         return true;
 394              		.loc 1 531 9 is_stmt 1 view .LVU119
 531:HW_Lib/AT32F435/bsp/Bsp_Uart.c ****         return true;
 395              		.loc 1 531 25 is_stmt 0 view .LVU120
 396 0010 D963     		str	r1, [r3, #60]
 532:HW_Lib/AT32F435/bsp/Bsp_Uart.c ****     }
 397              		.loc 1 532 9 is_stmt 1 view .LVU121
 532:HW_Lib/AT32F435/bsp/Bsp_Uart.c ****     }
 398              		.loc 1 532 16 is_stmt 0 view .LVU122
 399 0012 7047     		bx	lr
 400              	.LVL59:
 401              	.L42:
 535:HW_Lib/AT32F435/bsp/Bsp_Uart.c **** }
 402              		.loc 1 535 12 view .LVU123
 403 0014 0020     		movs	r0, #0
 404              	.LVL60:
 535:HW_Lib/AT32F435/bsp/Bsp_Uart.c **** }
 405              		.loc 1 535 12 view .LVU124
 406 0016 7047     		bx	lr
 407              	.LVL61:
 408              	.L43:
 535:HW_Lib/AT32F435/bsp/Bsp_Uart.c **** }
 409              		.loc 1 535 12 view .LVU125
 410 0018 0020     		movs	r0, #0
 411              	.LVL62:
 535:HW_Lib/AT32F435/bsp/Bsp_Uart.c **** }
 412              		.loc 1 535 12 view .LVU126
 413 001a F8E7     		b	.L41
 414              		.cfi_endproc
 415              	.LFE144:
 417              		.section	.text.BspUart_Set_Tx_Callback,"ax",%progbits
 418              		.align	1
 419              		.syntax unified
 420              		.thumb
 421              		.thumb_func
ARM GAS  C:\Users\8bit\AppData\Local\Temp\ccJGR6pR.s 			page 19


 423              	BspUart_Set_Tx_Callback:
 424              	.LVL63:
 425              	.LFB145:
 537:HW_Lib/AT32F435/bsp/Bsp_Uart.c **** 
 538:HW_Lib/AT32F435/bsp/Bsp_Uart.c **** static bool BspUart_Set_Tx_Callback(BspUARTObj_TypeDef *obj, BspUART_Callback callback)
 539:HW_Lib/AT32F435/bsp/Bsp_Uart.c **** {
 426              		.loc 1 539 1 is_stmt 1 view -0
 427              		.cfi_startproc
 428              		@ args = 0, pretend = 0, frame = 0
 429              		@ frame_needed = 0, uses_anonymous_args = 0
 430              		@ link register save eliminated.
 540:HW_Lib/AT32F435/bsp/Bsp_Uart.c ****     if (obj && obj->instance && obj->init_state)
 431              		.loc 1 540 5 view .LVU128
 432              		.loc 1 540 8 is_stmt 0 view .LVU129
 433 0000 0346     		mov	r3, r0
 434 0002 38B1     		cbz	r0, .L47
 435              		.loc 1 540 19 discriminator 1 view .LVU130
 436 0004 8268     		ldr	r2, [r0, #8]
 437              		.loc 1 540 13 discriminator 1 view .LVU131
 438 0006 3AB1     		cbz	r2, .L48
 439              		.loc 1 540 36 discriminator 2 view .LVU132
 440 0008 90F84C00 		ldrb	r0, [r0, #76]	@ zero_extendqisi2
 441              	.LVL64:
 442              		.loc 1 540 30 discriminator 2 view .LVU133
 443 000c 00B9     		cbnz	r0, .L49
 444              	.L46:
 541:HW_Lib/AT32F435/bsp/Bsp_Uart.c ****     {
 542:HW_Lib/AT32F435/bsp/Bsp_Uart.c ****         obj->TxCallback = callback;
 543:HW_Lib/AT32F435/bsp/Bsp_Uart.c ****         return true;
 544:HW_Lib/AT32F435/bsp/Bsp_Uart.c ****     }
 545:HW_Lib/AT32F435/bsp/Bsp_Uart.c **** 
 546:HW_Lib/AT32F435/bsp/Bsp_Uart.c ****     return false;
 547:HW_Lib/AT32F435/bsp/Bsp_Uart.c **** }
 445              		.loc 1 547 1 view .LVU134
 446 000e 7047     		bx	lr
 447              	.L49:
 542:HW_Lib/AT32F435/bsp/Bsp_Uart.c ****         return true;
 448              		.loc 1 542 9 is_stmt 1 view .LVU135
 542:HW_Lib/AT32F435/bsp/Bsp_Uart.c ****         return true;
 449              		.loc 1 542 25 is_stmt 0 view .LVU136
 450 0010 9963     		str	r1, [r3, #56]
 543:HW_Lib/AT32F435/bsp/Bsp_Uart.c ****     }
 451              		.loc 1 543 9 is_stmt 1 view .LVU137
 543:HW_Lib/AT32F435/bsp/Bsp_Uart.c ****     }
 452              		.loc 1 543 16 is_stmt 0 view .LVU138
 453 0012 7047     		bx	lr
 454              	.LVL65:
 455              	.L47:
 546:HW_Lib/AT32F435/bsp/Bsp_Uart.c **** }
 456              		.loc 1 546 12 view .LVU139
 457 0014 0020     		movs	r0, #0
 458              	.LVL66:
 546:HW_Lib/AT32F435/bsp/Bsp_Uart.c **** }
 459              		.loc 1 546 12 view .LVU140
 460 0016 7047     		bx	lr
 461              	.LVL67:
 462              	.L48:
ARM GAS  C:\Users\8bit\AppData\Local\Temp\ccJGR6pR.s 			page 20


 546:HW_Lib/AT32F435/bsp/Bsp_Uart.c **** }
 463              		.loc 1 546 12 view .LVU141
 464 0018 0020     		movs	r0, #0
 465              	.LVL68:
 546:HW_Lib/AT32F435/bsp/Bsp_Uart.c **** }
 466              		.loc 1 546 12 view .LVU142
 467 001a F8E7     		b	.L46
 468              		.cfi_endproc
 469              	.LFE145:
 471              		.section	.text.BspUart_DMA_TxCplt_Callback,"ax",%progbits
 472              		.align	1
 473              		.syntax unified
 474              		.thumb
 475              		.thumb_func
 477              	BspUart_DMA_TxCplt_Callback:
 478              	.LVL69:
 479              	.LFB146:
 548:HW_Lib/AT32F435/bsp/Bsp_Uart.c **** 
 549:HW_Lib/AT32F435/bsp/Bsp_Uart.c **** /* dma tx finish */
 550:HW_Lib/AT32F435/bsp/Bsp_Uart.c **** static void BspUart_DMA_TxCplt_Callback(void *arg)
 551:HW_Lib/AT32F435/bsp/Bsp_Uart.c **** {
 480              		.loc 1 551 1 is_stmt 1 view -0
 481              		.cfi_startproc
 482              		@ args = 0, pretend = 0, frame = 0
 483              		@ frame_needed = 0, uses_anonymous_args = 0
 552:HW_Lib/AT32F435/bsp/Bsp_Uart.c ****     usart_type *instance = NULL;
 484              		.loc 1 552 5 view .LVU144
 553:HW_Lib/AT32F435/bsp/Bsp_Uart.c ****     BspUARTObj_TypeDef *obj = NULL;
 485              		.loc 1 553 5 view .LVU145
 554:HW_Lib/AT32F435/bsp/Bsp_Uart.c **** 
 555:HW_Lib/AT32F435/bsp/Bsp_Uart.c ****     if(arg)
 486              		.loc 1 555 5 view .LVU146
 487              		.loc 1 555 7 is_stmt 0 view .LVU147
 488 0000 B0B1     		cbz	r0, .L54
 551:HW_Lib/AT32F435/bsp/Bsp_Uart.c ****     usart_type *instance = NULL;
 489              		.loc 1 551 1 view .LVU148
 490 0002 10B5     		push	{r4, lr}
 491              	.LCFI0:
 492              		.cfi_def_cfa_offset 8
 493              		.cfi_offset 4, -8
 494              		.cfi_offset 14, -4
 495 0004 0446     		mov	r4, r0
 556:HW_Lib/AT32F435/bsp/Bsp_Uart.c ****     {
 557:HW_Lib/AT32F435/bsp/Bsp_Uart.c ****         obj = To_UartObj_Ptr(arg);
 496              		.loc 1 557 9 is_stmt 1 view .LVU149
 497              	.LVL70:
 558:HW_Lib/AT32F435/bsp/Bsp_Uart.c ****         instance = To_Uart_Instance(obj->instance);
 498              		.loc 1 558 9 view .LVU150
 499              		.loc 1 558 18 is_stmt 0 view .LVU151
 500 0006 8368     		ldr	r3, [r0, #8]
 501              	.LVL71:
 559:HW_Lib/AT32F435/bsp/Bsp_Uart.c ****         
 560:HW_Lib/AT32F435/bsp/Bsp_Uart.c ****         if(instance == NULL)
 502              		.loc 1 560 9 is_stmt 1 view .LVU152
 503              		.loc 1 560 11 is_stmt 0 view .LVU153
 504 0008 8BB1     		cbz	r3, .L50
 561:HW_Lib/AT32F435/bsp/Bsp_Uart.c ****             return;
ARM GAS  C:\Users\8bit\AppData\Local\Temp\ccJGR6pR.s 			page 21


 562:HW_Lib/AT32F435/bsp/Bsp_Uart.c **** 
 563:HW_Lib/AT32F435/bsp/Bsp_Uart.c ****         if(obj->tx_dma_hdl)
 505              		.loc 1 563 9 is_stmt 1 view .LVU154
 506              		.loc 1 563 15 is_stmt 0 view .LVU155
 507 000a 4069     		ldr	r0, [r0, #20]
 508              	.LVL72:
 509              		.loc 1 563 11 view .LVU156
 510 000c 60B1     		cbz	r0, .L52
 564:HW_Lib/AT32F435/bsp/Bsp_Uart.c ****         {
 565:HW_Lib/AT32F435/bsp/Bsp_Uart.c ****             dma_channel_enable(To_DMA_Handle_Ptr(obj->tx_dma_hdl), FALSE);
 511              		.loc 1 565 13 is_stmt 1 view .LVU157
 512 000e 0021     		movs	r1, #0
 513 0010 FFF7FEFF 		bl	dma_channel_enable
 514              	.LVL73:
 566:HW_Lib/AT32F435/bsp/Bsp_Uart.c ****             obj->monitor.tx_success_cnt ++;
 515              		.loc 1 566 13 view .LVU158
 516              		.loc 1 566 25 is_stmt 0 view .LVU159
 517 0014 636E     		ldr	r3, [r4, #100]
 518              		.loc 1 566 41 view .LVU160
 519 0016 0133     		adds	r3, r3, #1
 520 0018 6366     		str	r3, [r4, #100]
 567:HW_Lib/AT32F435/bsp/Bsp_Uart.c **** 
 568:HW_Lib/AT32F435/bsp/Bsp_Uart.c ****             if(obj->TxCallback)
 521              		.loc 1 568 13 is_stmt 1 view .LVU161
 522              		.loc 1 568 19 is_stmt 0 view .LVU162
 523 001a A36B     		ldr	r3, [r4, #56]
 524              		.loc 1 568 15 view .LVU163
 525 001c 3BB1     		cbz	r3, .L50
 569:HW_Lib/AT32F435/bsp/Bsp_Uart.c ****                 obj->TxCallback(obj->cust_data_addr, NULL, 0);
 526              		.loc 1 569 17 is_stmt 1 view .LVU164
 527 001e 0022     		movs	r2, #0
 528 0020 1146     		mov	r1, r2
 529 0022 A06C     		ldr	r0, [r4, #72]
 530 0024 9847     		blx	r3
 531              	.LVL74:
 532 0026 02E0     		b	.L50
 533              	.LVL75:
 534              	.L52:
 570:HW_Lib/AT32F435/bsp/Bsp_Uart.c ****         }
 571:HW_Lib/AT32F435/bsp/Bsp_Uart.c ****         else
 572:HW_Lib/AT32F435/bsp/Bsp_Uart.c ****         {
 573:HW_Lib/AT32F435/bsp/Bsp_Uart.c ****             obj->monitor.tx_err_cnt ++;
 535              		.loc 1 573 13 view .LVU165
 536              		.loc 1 573 25 is_stmt 0 view .LVU166
 537 0028 A36E     		ldr	r3, [r4, #104]
 538              	.LVL76:
 539              		.loc 1 573 37 view .LVU167
 540 002a 0133     		adds	r3, r3, #1
 541 002c A366     		str	r3, [r4, #104]
 542              	.LVL77:
 543              	.L50:
 574:HW_Lib/AT32F435/bsp/Bsp_Uart.c ****         }
 575:HW_Lib/AT32F435/bsp/Bsp_Uart.c ****     }
 576:HW_Lib/AT32F435/bsp/Bsp_Uart.c **** }
 544              		.loc 1 576 1 view .LVU168
 545 002e 10BD     		pop	{r4, pc}
 546              	.LVL78:
ARM GAS  C:\Users\8bit\AppData\Local\Temp\ccJGR6pR.s 			page 22


 547              	.L54:
 548              	.LCFI1:
 549              		.cfi_def_cfa_offset 0
 550              		.cfi_restore 4
 551              		.cfi_restore 14
 552              		.loc 1 576 1 view .LVU169
 553 0030 7047     		bx	lr
 554              		.cfi_endproc
 555              	.LFE146:
 557              		.section	.text.BspUart_Transfer,"ax",%progbits
 558              		.align	1
 559              		.syntax unified
 560              		.thumb
 561              		.thumb_func
 563              	BspUart_Transfer:
 564              	.LVL79:
 565              	.LFB143:
 496:HW_Lib/AT32F435/bsp/Bsp_Uart.c ****     if(obj && obj->instance && obj->init_state && tx_buf && size)
 566              		.loc 1 496 1 is_stmt 1 view -0
 567              		.cfi_startproc
 568              		@ args = 0, pretend = 0, frame = 0
 569              		@ frame_needed = 0, uses_anonymous_args = 0
 496:HW_Lib/AT32F435/bsp/Bsp_Uart.c ****     if(obj && obj->instance && obj->init_state && tx_buf && size)
 570              		.loc 1 496 1 is_stmt 0 view .LVU171
 571 0000 2DE9F041 		push	{r4, r5, r6, r7, r8, lr}
 572              	.LCFI2:
 573              		.cfi_def_cfa_offset 24
 574              		.cfi_offset 4, -24
 575              		.cfi_offset 5, -20
 576              		.cfi_offset 6, -16
 577              		.cfi_offset 7, -12
 578              		.cfi_offset 8, -8
 579              		.cfi_offset 14, -4
 497:HW_Lib/AT32F435/bsp/Bsp_Uart.c ****     {
 580              		.loc 1 497 5 is_stmt 1 view .LVU172
 497:HW_Lib/AT32F435/bsp/Bsp_Uart.c ****     {
 581              		.loc 1 497 7 is_stmt 0 view .LVU173
 582 0004 0028     		cmp	r0, #0
 583 0006 38D0     		beq	.L63
 584 0008 0F46     		mov	r7, r1
 585 000a 1646     		mov	r6, r2
 586 000c 0446     		mov	r4, r0
 497:HW_Lib/AT32F435/bsp/Bsp_Uart.c ****     {
 587              		.loc 1 497 18 discriminator 1 view .LVU174
 588 000e 8368     		ldr	r3, [r0, #8]
 497:HW_Lib/AT32F435/bsp/Bsp_Uart.c ****     {
 589              		.loc 1 497 12 discriminator 1 view .LVU175
 590 0010 002B     		cmp	r3, #0
 591 0012 36D0     		beq	.L64
 497:HW_Lib/AT32F435/bsp/Bsp_Uart.c ****     {
 592              		.loc 1 497 35 discriminator 2 view .LVU176
 593 0014 90F84C50 		ldrb	r5, [r0, #76]	@ zero_extendqisi2
 497:HW_Lib/AT32F435/bsp/Bsp_Uart.c ****     {
 594              		.loc 1 497 29 discriminator 2 view .LVU177
 595 0018 002D     		cmp	r5, #0
 596 001a 2FD0     		beq	.L58
 497:HW_Lib/AT32F435/bsp/Bsp_Uart.c ****     {
ARM GAS  C:\Users\8bit\AppData\Local\Temp\ccJGR6pR.s 			page 23


 597              		.loc 1 497 48 discriminator 3 view .LVU178
 598 001c 0029     		cmp	r1, #0
 599 001e 32D0     		beq	.L65
 497:HW_Lib/AT32F435/bsp/Bsp_Uart.c ****     {
 600              		.loc 1 497 58 discriminator 4 view .LVU179
 601 0020 002A     		cmp	r2, #0
 602 0022 32D0     		beq	.L66
 500:HW_Lib/AT32F435/bsp/Bsp_Uart.c ****         {
 603              		.loc 1 500 9 is_stmt 1 view .LVU180
 500:HW_Lib/AT32F435/bsp/Bsp_Uart.c ****         {
 604              		.loc 1 500 15 is_stmt 0 view .LVU181
 605 0024 4369     		ldr	r3, [r0, #20]
 500:HW_Lib/AT32F435/bsp/Bsp_Uart.c ****         {
 606              		.loc 1 500 11 view .LVU182
 607 0026 2BB3     		cbz	r3, .L67
 503:HW_Lib/AT32F435/bsp/Bsp_Uart.c ****                 return false;
 608              		.loc 1 503 13 is_stmt 1 view .LVU183
 503:HW_Lib/AT32F435/bsp/Bsp_Uart.c ****                 return false;
 609              		.loc 1 503 28 is_stmt 0 view .LVU184
 610 0028 416E     		ldr	r1, [r0, #100]
 611              	.LVL80:
 503:HW_Lib/AT32F435/bsp/Bsp_Uart.c ****                 return false;
 612              		.loc 1 503 59 view .LVU185
 613 002a 426D     		ldr	r2, [r0, #84]
 614              	.LVL81:
 503:HW_Lib/AT32F435/bsp/Bsp_Uart.c ****                 return false;
 615              		.loc 1 503 15 view .LVU186
 616 002c 9142     		cmp	r1, r2
 617 002e 01D0     		beq	.L70
 504:HW_Lib/AT32F435/bsp/Bsp_Uart.c **** 
 618              		.loc 1 504 24 view .LVU187
 619 0030 0025     		movs	r5, #0
 620 0032 23E0     		b	.L58
 621              	.L70:
 506:HW_Lib/AT32F435/bsp/Bsp_Uart.c ****             To_DMA_Handle_Ptr(obj->tx_dma_hdl)->dtcnt_bit.cnt = size;
 622              		.loc 1 506 13 is_stmt 1 view .LVU188
 506:HW_Lib/AT32F435/bsp/Bsp_Uart.c ****             To_DMA_Handle_Ptr(obj->tx_dma_hdl)->dtcnt_bit.cnt = size;
 623              		.loc 1 506 55 is_stmt 0 view .LVU189
 624 0034 DF60     		str	r7, [r3, #12]
 507:HW_Lib/AT32F435/bsp/Bsp_Uart.c **** 
 625              		.loc 1 507 13 is_stmt 1 view .LVU190
 626 0036 4369     		ldr	r3, [r0, #20]
 507:HW_Lib/AT32F435/bsp/Bsp_Uart.c **** 
 627              		.loc 1 507 63 is_stmt 0 view .LVU191
 628 0038 5A68     		ldr	r2, [r3, #4]
 629              	.LVL82:
 507:HW_Lib/AT32F435/bsp/Bsp_Uart.c **** 
 630              		.loc 1 507 63 view .LVU192
 631 003a 66F30F02 		bfi	r2, r6, #0, #16
 632 003e 5A60     		str	r2, [r3, #4]
 509:HW_Lib/AT32F435/bsp/Bsp_Uart.c ****         }
 633              		.loc 1 509 13 is_stmt 1 view .LVU193
 634 0040 0121     		movs	r1, #1
 635 0042 4069     		ldr	r0, [r0, #20]
 636              	.LVL83:
 509:HW_Lib/AT32F435/bsp/Bsp_Uart.c ****         }
 637              		.loc 1 509 13 is_stmt 0 view .LVU194
ARM GAS  C:\Users\8bit\AppData\Local\Temp\ccJGR6pR.s 			page 24


 638 0044 FFF7FEFF 		bl	dma_channel_enable
 639              	.LVL84:
 640 0048 10E0     		b	.L60
 641              	.LVL85:
 642              	.L62:
 643              	.LBB2:
 515:HW_Lib/AT32F435/bsp/Bsp_Uart.c ****                 while (usart_flag_get(To_Uart_Instance(obj->instance), USART_TDBE_FLAG) == RESET);
 644              		.loc 1 515 17 is_stmt 1 view .LVU195
 645 004a 17F80810 		ldrb	r1, [r7, r8]	@ zero_extendqisi2
 646 004e A068     		ldr	r0, [r4, #8]
 647 0050 FFF7FEFF 		bl	usart_data_transmit
 648              	.LVL86:
 516:HW_Lib/AT32F435/bsp/Bsp_Uart.c ****             }
 649              		.loc 1 516 17 view .LVU196
 650              	.L61:
 516:HW_Lib/AT32F435/bsp/Bsp_Uart.c ****             }
 651              		.loc 1 516 98 discriminator 1 view .LVU197
 516:HW_Lib/AT32F435/bsp/Bsp_Uart.c ****             }
 652              		.loc 1 516 23 discriminator 1 view .LVU198
 516:HW_Lib/AT32F435/bsp/Bsp_Uart.c ****             }
 653              		.loc 1 516 24 is_stmt 0 discriminator 1 view .LVU199
 654 0054 8021     		movs	r1, #128
 655 0056 A068     		ldr	r0, [r4, #8]
 656 0058 FFF7FEFF 		bl	usart_flag_get
 657              	.LVL87:
 516:HW_Lib/AT32F435/bsp/Bsp_Uart.c ****             }
 658              		.loc 1 516 23 discriminator 1 view .LVU200
 659 005c 0028     		cmp	r0, #0
 660 005e F9D0     		beq	.L61
 513:HW_Lib/AT32F435/bsp/Bsp_Uart.c ****             {
 661              		.loc 1 513 44 is_stmt 1 discriminator 2 view .LVU201
 513:HW_Lib/AT32F435/bsp/Bsp_Uart.c ****             {
 662              		.loc 1 513 45 is_stmt 0 discriminator 2 view .LVU202
 663 0060 08F10108 		add	r8, r8, #1
 664              	.LVL88:
 513:HW_Lib/AT32F435/bsp/Bsp_Uart.c ****             {
 665              		.loc 1 513 45 discriminator 2 view .LVU203
 666 0064 1FFA88F8 		uxth	r8, r8
 667              	.LVL89:
 668              	.L59:
 513:HW_Lib/AT32F435/bsp/Bsp_Uart.c ****             {
 669              		.loc 1 513 34 is_stmt 1 discriminator 1 view .LVU204
 513:HW_Lib/AT32F435/bsp/Bsp_Uart.c ****             {
 670              		.loc 1 513 13 is_stmt 0 discriminator 1 view .LVU205
 671 0068 B045     		cmp	r8, r6
 672 006a EED3     		bcc	.L62
 673              	.LVL90:
 674              	.L60:
 513:HW_Lib/AT32F435/bsp/Bsp_Uart.c ****             {
 675              		.loc 1 513 13 discriminator 1 view .LVU206
 676              	.LBE2:
 519:HW_Lib/AT32F435/bsp/Bsp_Uart.c **** 
 677              		.loc 1 519 9 is_stmt 1 view .LVU207
 519:HW_Lib/AT32F435/bsp/Bsp_Uart.c **** 
 678              		.loc 1 519 21 is_stmt 0 view .LVU208
 679 006c 636D     		ldr	r3, [r4, #84]
 519:HW_Lib/AT32F435/bsp/Bsp_Uart.c **** 
ARM GAS  C:\Users\8bit\AppData\Local\Temp\ccJGR6pR.s 			page 25


 680              		.loc 1 519 29 view .LVU209
 681 006e 0133     		adds	r3, r3, #1
 682 0070 6365     		str	r3, [r4, #84]
 521:HW_Lib/AT32F435/bsp/Bsp_Uart.c ****     }
 683              		.loc 1 521 9 is_stmt 1 view .LVU210
 521:HW_Lib/AT32F435/bsp/Bsp_Uart.c ****     }
 684              		.loc 1 521 16 is_stmt 0 view .LVU211
 685 0072 03E0     		b	.L58
 686              	.LVL91:
 687              	.L67:
 688              	.LBB3:
 513:HW_Lib/AT32F435/bsp/Bsp_Uart.c ****             {
 689              		.loc 1 513 27 view .LVU212
 690 0074 4FF00008 		mov	r8, #0
 691 0078 F6E7     		b	.L59
 692              	.L63:
 513:HW_Lib/AT32F435/bsp/Bsp_Uart.c ****             {
 693              		.loc 1 513 27 view .LVU213
 694              	.LBE3:
 524:HW_Lib/AT32F435/bsp/Bsp_Uart.c **** }
 695              		.loc 1 524 12 view .LVU214
 696 007a 0025     		movs	r5, #0
 697              	.LVL92:
 698              	.L58:
 525:HW_Lib/AT32F435/bsp/Bsp_Uart.c **** 
 699              		.loc 1 525 1 view .LVU215
 700 007c 2846     		mov	r0, r5
 701 007e BDE8F081 		pop	{r4, r5, r6, r7, r8, pc}
 702              	.LVL93:
 703              	.L64:
 524:HW_Lib/AT32F435/bsp/Bsp_Uart.c **** }
 704              		.loc 1 524 12 view .LVU216
 705 0082 0025     		movs	r5, #0
 706 0084 FAE7     		b	.L58
 707              	.L65:
 708 0086 0025     		movs	r5, #0
 709 0088 F8E7     		b	.L58
 710              	.L66:
 711 008a 0025     		movs	r5, #0
 712 008c F6E7     		b	.L58
 713              		.cfi_endproc
 714              	.LFE143:
 716              		.section	.text.BspUart_IrqEn_Control,"ax",%progbits
 717              		.align	1
 718              		.syntax unified
 719              		.thumb
 720              		.thumb_func
 722              	BspUart_IrqEn_Control:
 723              	.LVL94:
 724              	.LFB149:
 577:HW_Lib/AT32F435/bsp/Bsp_Uart.c **** 
 578:HW_Lib/AT32F435/bsp/Bsp_Uart.c **** /* dma rx full */
 579:HW_Lib/AT32F435/bsp/Bsp_Uart.c **** static void BspUart_DMA_RxCplt_Callback(void *arg)
 580:HW_Lib/AT32F435/bsp/Bsp_Uart.c **** {
 581:HW_Lib/AT32F435/bsp/Bsp_Uart.c ****     usart_type *instance = NULL;
 582:HW_Lib/AT32F435/bsp/Bsp_Uart.c ****     BspUARTObj_TypeDef *obj = NULL;
 583:HW_Lib/AT32F435/bsp/Bsp_Uart.c ****     uint32_t dma_rec_size = 0;
ARM GAS  C:\Users\8bit\AppData\Local\Temp\ccJGR6pR.s 			page 26


 584:HW_Lib/AT32F435/bsp/Bsp_Uart.c ****     
 585:HW_Lib/AT32F435/bsp/Bsp_Uart.c ****     if(arg)
 586:HW_Lib/AT32F435/bsp/Bsp_Uart.c ****     {
 587:HW_Lib/AT32F435/bsp/Bsp_Uart.c ****         obj = To_UartObj_Ptr(arg);
 588:HW_Lib/AT32F435/bsp/Bsp_Uart.c ****         instance = To_Uart_Instance(obj->instance);
 589:HW_Lib/AT32F435/bsp/Bsp_Uart.c **** 
 590:HW_Lib/AT32F435/bsp/Bsp_Uart.c ****         if(instance == NULL)
 591:HW_Lib/AT32F435/bsp/Bsp_Uart.c ****             return;
 592:HW_Lib/AT32F435/bsp/Bsp_Uart.c **** 
 593:HW_Lib/AT32F435/bsp/Bsp_Uart.c ****         obj->monitor.rx_full_cnt ++;
 594:HW_Lib/AT32F435/bsp/Bsp_Uart.c **** 
 595:HW_Lib/AT32F435/bsp/Bsp_Uart.c ****         if(obj->rx_dma_hdl)
 596:HW_Lib/AT32F435/bsp/Bsp_Uart.c ****         {
 597:HW_Lib/AT32F435/bsp/Bsp_Uart.c ****             dma_channel_enable(To_DMA_Handle_Ptr(obj->rx_dma_hdl), FALSE);
 598:HW_Lib/AT32F435/bsp/Bsp_Uart.c ****             dma_rec_size = obj->rx_size - dma_data_number_get(To_DMA_Handle_Ptr(obj->rx_dma_hdl));
 599:HW_Lib/AT32F435/bsp/Bsp_Uart.c **** 
 600:HW_Lib/AT32F435/bsp/Bsp_Uart.c ****             /* if full size unequal to uart dma port set max receive size then current receive is e
 601:HW_Lib/AT32F435/bsp/Bsp_Uart.c ****             if(dma_rec_size != obj->rx_size)
 602:HW_Lib/AT32F435/bsp/Bsp_Uart.c ****                 obj->monitor.rx_err_cnt ++;
 603:HW_Lib/AT32F435/bsp/Bsp_Uart.c **** 
 604:HW_Lib/AT32F435/bsp/Bsp_Uart.c ****             if(obj->RxCallback)
 605:HW_Lib/AT32F435/bsp/Bsp_Uart.c ****                 obj->RxCallback(obj->cust_data_addr, obj->rx_buf, dma_rec_size);
 606:HW_Lib/AT32F435/bsp/Bsp_Uart.c ****         }
 607:HW_Lib/AT32F435/bsp/Bsp_Uart.c ****         else
 608:HW_Lib/AT32F435/bsp/Bsp_Uart.c ****         {
 609:HW_Lib/AT32F435/bsp/Bsp_Uart.c ****             obj->monitor.rx_err_cnt ++;
 610:HW_Lib/AT32F435/bsp/Bsp_Uart.c ****         }
 611:HW_Lib/AT32F435/bsp/Bsp_Uart.c ****     }
 612:HW_Lib/AT32F435/bsp/Bsp_Uart.c **** }
 613:HW_Lib/AT32F435/bsp/Bsp_Uart.c **** 
 614:HW_Lib/AT32F435/bsp/Bsp_Uart.c **** void BspUart_Irq_Callback(void *arg)
 615:HW_Lib/AT32F435/bsp/Bsp_Uart.c **** {
 616:HW_Lib/AT32F435/bsp/Bsp_Uart.c ****     usart_type *instance = NULL;
 617:HW_Lib/AT32F435/bsp/Bsp_Uart.c ****     BspUARTObj_TypeDef *obj = NULL;
 618:HW_Lib/AT32F435/bsp/Bsp_Uart.c ****     volatile uint16_t dma_rec_size = 0;
 619:HW_Lib/AT32F435/bsp/Bsp_Uart.c ****     uint8_t rx_byte = 0;
 620:HW_Lib/AT32F435/bsp/Bsp_Uart.c **** 
 621:HW_Lib/AT32F435/bsp/Bsp_Uart.c ****     if (arg)
 622:HW_Lib/AT32F435/bsp/Bsp_Uart.c ****     {
 623:HW_Lib/AT32F435/bsp/Bsp_Uart.c ****         instance = To_Uart_Instance(arg);
 624:HW_Lib/AT32F435/bsp/Bsp_Uart.c ****         usart_data_receive(instance);
 625:HW_Lib/AT32F435/bsp/Bsp_Uart.c ****     
 626:HW_Lib/AT32F435/bsp/Bsp_Uart.c ****         if (instance == USART1)
 627:HW_Lib/AT32F435/bsp/Bsp_Uart.c ****             obj = BspUart_Obj_List[Bsp_UART_Port_1];
 628:HW_Lib/AT32F435/bsp/Bsp_Uart.c **** 
 629:HW_Lib/AT32F435/bsp/Bsp_Uart.c ****         if (instance == USART2)
 630:HW_Lib/AT32F435/bsp/Bsp_Uart.c ****             obj = BspUart_Obj_List[Bsp_UART_Port_2];
 631:HW_Lib/AT32F435/bsp/Bsp_Uart.c ****         
 632:HW_Lib/AT32F435/bsp/Bsp_Uart.c ****         if (instance == USART3)
 633:HW_Lib/AT32F435/bsp/Bsp_Uart.c ****             obj = BspUart_Obj_List[Bsp_UART_Port_3];
 634:HW_Lib/AT32F435/bsp/Bsp_Uart.c **** 
 635:HW_Lib/AT32F435/bsp/Bsp_Uart.c ****         if (instance == UART4)
 636:HW_Lib/AT32F435/bsp/Bsp_Uart.c ****             obj = BspUart_Obj_List[Bsp_UART_Port_4];
 637:HW_Lib/AT32F435/bsp/Bsp_Uart.c ****         
 638:HW_Lib/AT32F435/bsp/Bsp_Uart.c ****         if (instance == UART5)
 639:HW_Lib/AT32F435/bsp/Bsp_Uart.c ****             obj = BspUart_Obj_List[Bsp_UART_Port_5];
 640:HW_Lib/AT32F435/bsp/Bsp_Uart.c ****         
ARM GAS  C:\Users\8bit\AppData\Local\Temp\ccJGR6pR.s 			page 27


 641:HW_Lib/AT32F435/bsp/Bsp_Uart.c ****         if (instance == USART6)
 642:HW_Lib/AT32F435/bsp/Bsp_Uart.c ****             obj = BspUart_Obj_List[Bsp_UART_Port_6];
 643:HW_Lib/AT32F435/bsp/Bsp_Uart.c ****         
 644:HW_Lib/AT32F435/bsp/Bsp_Uart.c ****         if (instance == UART7)
 645:HW_Lib/AT32F435/bsp/Bsp_Uart.c ****             obj = BspUart_Obj_List[Bsp_UART_Port_7];
 646:HW_Lib/AT32F435/bsp/Bsp_Uart.c ****         
 647:HW_Lib/AT32F435/bsp/Bsp_Uart.c ****         if (instance == UART8)
 648:HW_Lib/AT32F435/bsp/Bsp_Uart.c ****             obj = BspUart_Obj_List[Bsp_UART_Port_8];
 649:HW_Lib/AT32F435/bsp/Bsp_Uart.c ****     
 650:HW_Lib/AT32F435/bsp/Bsp_Uart.c ****         if (obj && obj->instance && obj->init_state && (obj->instance == instance))
 651:HW_Lib/AT32F435/bsp/Bsp_Uart.c ****         {
 652:HW_Lib/AT32F435/bsp/Bsp_Uart.c ****             if ((obj->irq_type == BspUart_IRQ_Type_Idle) && obj->rx_dma_hdl)
 653:HW_Lib/AT32F435/bsp/Bsp_Uart.c ****             {
 654:HW_Lib/AT32F435/bsp/Bsp_Uart.c ****                 dma_channel_enable(To_DMA_Handle_Ptr(obj->rx_dma_hdl), FALSE);
 655:HW_Lib/AT32F435/bsp/Bsp_Uart.c **** 
 656:HW_Lib/AT32F435/bsp/Bsp_Uart.c ****                 dma_rec_size = obj->rx_size - dma_data_number_get(obj->rx_dma_hdl);
 657:HW_Lib/AT32F435/bsp/Bsp_Uart.c ****                 
 658:HW_Lib/AT32F435/bsp/Bsp_Uart.c ****                 obj->monitor.rx_cnt ++;
 659:HW_Lib/AT32F435/bsp/Bsp_Uart.c ****                 if(obj->RxCallback)
 660:HW_Lib/AT32F435/bsp/Bsp_Uart.c ****                     obj->RxCallback(obj->cust_data_addr, obj->rx_buf, dma_rec_size);
 661:HW_Lib/AT32F435/bsp/Bsp_Uart.c **** 
 662:HW_Lib/AT32F435/bsp/Bsp_Uart.c ****                 To_DMA_Handle_Ptr(obj->rx_dma_hdl)->maddr = (uint32_t)obj->rx_buf;
 663:HW_Lib/AT32F435/bsp/Bsp_Uart.c ****                 To_DMA_Handle_Ptr(obj->rx_dma_hdl)->dtcnt = obj->rx_size;
 664:HW_Lib/AT32F435/bsp/Bsp_Uart.c ****                 dma_channel_enable(To_DMA_Handle_Ptr(obj->rx_dma_hdl), TRUE);
 665:HW_Lib/AT32F435/bsp/Bsp_Uart.c ****             }
 666:HW_Lib/AT32F435/bsp/Bsp_Uart.c ****             else if (obj->irq_type == BspUart_IRQ_Type_Byte)
 667:HW_Lib/AT32F435/bsp/Bsp_Uart.c ****             {
 668:HW_Lib/AT32F435/bsp/Bsp_Uart.c ****                 rx_byte = usart_data_receive(To_Uart_Instance(obj->instance));
 669:HW_Lib/AT32F435/bsp/Bsp_Uart.c ****                 if(obj->RxCallback)
 670:HW_Lib/AT32F435/bsp/Bsp_Uart.c ****                     obj->RxCallback(obj->cust_data_addr, &rx_byte, 1);
 671:HW_Lib/AT32F435/bsp/Bsp_Uart.c ****             }
 672:HW_Lib/AT32F435/bsp/Bsp_Uart.c ****         }
 673:HW_Lib/AT32F435/bsp/Bsp_Uart.c ****     }
 674:HW_Lib/AT32F435/bsp/Bsp_Uart.c **** }
 675:HW_Lib/AT32F435/bsp/Bsp_Uart.c **** 
 676:HW_Lib/AT32F435/bsp/Bsp_Uart.c **** static bool BspUart_IrqEn_Control(BspUARTObj_TypeDef *obj, bool state)
 677:HW_Lib/AT32F435/bsp/Bsp_Uart.c **** {
 725              		.loc 1 677 1 is_stmt 1 view -0
 726              		.cfi_startproc
 727              		@ args = 0, pretend = 0, frame = 0
 728              		@ frame_needed = 0, uses_anonymous_args = 0
 678:HW_Lib/AT32F435/bsp/Bsp_Uart.c ****     confirm_state new_state = FALSE;
 729              		.loc 1 678 5 view .LVU218
 679:HW_Lib/AT32F435/bsp/Bsp_Uart.c **** 
 680:HW_Lib/AT32F435/bsp/Bsp_Uart.c ****     if (obj && obj->init_state)
 730              		.loc 1 680 5 view .LVU219
 731              		.loc 1 680 8 is_stmt 0 view .LVU220
 732 0000 D0B1     		cbz	r0, .L77
 677:HW_Lib/AT32F435/bsp/Bsp_Uart.c ****     confirm_state new_state = FALSE;
 733              		.loc 1 677 1 discriminator 1 view .LVU221
 734 0002 08B5     		push	{r3, lr}
 735              	.LCFI3:
 736              		.cfi_def_cfa_offset 8
 737              		.cfi_offset 3, -8
 738              		.cfi_offset 14, -4
 739 0004 0346     		mov	r3, r0
 740              		.loc 1 680 19 discriminator 1 view .LVU222
ARM GAS  C:\Users\8bit\AppData\Local\Temp\ccJGR6pR.s 			page 28


 741 0006 90F84C20 		ldrb	r2, [r0, #76]	@ zero_extendqisi2
 742              		.loc 1 680 13 discriminator 1 view .LVU223
 743 000a 3AB1     		cbz	r2, .L72
 681:HW_Lib/AT32F435/bsp/Bsp_Uart.c ****     {
 682:HW_Lib/AT32F435/bsp/Bsp_Uart.c ****         if (state)
 744              		.loc 1 682 9 is_stmt 1 view .LVU224
 745              		.loc 1 682 12 is_stmt 0 view .LVU225
 746 000c 41B9     		cbnz	r1, .L75
 678:HW_Lib/AT32F435/bsp/Bsp_Uart.c **** 
 747              		.loc 1 678 19 view .LVU226
 748 000e 0022     		movs	r2, #0
 749              	.L73:
 750              	.LVL95:
 683:HW_Lib/AT32F435/bsp/Bsp_Uart.c ****             new_state =TRUE;
 684:HW_Lib/AT32F435/bsp/Bsp_Uart.c **** 
 685:HW_Lib/AT32F435/bsp/Bsp_Uart.c ****         if (obj->irq_type == BspUart_IRQ_Type_Idle)
 751              		.loc 1 685 9 is_stmt 1 view .LVU227
 752              		.loc 1 685 16 is_stmt 0 view .LVU228
 753 0010 93F84D10 		ldrb	r1, [r3, #77]	@ zero_extendqisi2
 754              	.LVL96:
 755              		.loc 1 685 12 view .LVU229
 756 0014 0129     		cmp	r1, #1
 757 0016 05D0     		beq	.L80
 686:HW_Lib/AT32F435/bsp/Bsp_Uart.c ****         {
 687:HW_Lib/AT32F435/bsp/Bsp_Uart.c ****             usart_interrupt_enable(To_Uart_Instance(obj->instance), USART_IDLE_INT, new_state);
 688:HW_Lib/AT32F435/bsp/Bsp_Uart.c ****         }
 689:HW_Lib/AT32F435/bsp/Bsp_Uart.c ****         else if (obj->irq_type == BspUart_IRQ_Type_Byte)
 758              		.loc 1 689 14 is_stmt 1 view .LVU230
 759              		.loc 1 689 17 is_stmt 0 view .LVU231
 760 0018 0229     		cmp	r1, #2
 761 001a 08D0     		beq	.L81
 762              	.LVL97:
 763              	.L72:
 690:HW_Lib/AT32F435/bsp/Bsp_Uart.c ****             usart_interrupt_enable(To_Uart_Instance(obj->instance), USART_RDBF_INT, new_state);
 691:HW_Lib/AT32F435/bsp/Bsp_Uart.c ****     }
 692:HW_Lib/AT32F435/bsp/Bsp_Uart.c **** 
 693:HW_Lib/AT32F435/bsp/Bsp_Uart.c ****     return false;
 764              		.loc 1 693 5 is_stmt 1 view .LVU232
 694:HW_Lib/AT32F435/bsp/Bsp_Uart.c **** }
 765              		.loc 1 694 1 is_stmt 0 view .LVU233
 766 001c 0020     		movs	r0, #0
 767 001e 08BD     		pop	{r3, pc}
 768              	.LVL98:
 769              	.L75:
 683:HW_Lib/AT32F435/bsp/Bsp_Uart.c **** 
 770              		.loc 1 683 23 view .LVU234
 771 0020 0122     		movs	r2, #1
 772 0022 F5E7     		b	.L73
 773              	.LVL99:
 774              	.L80:
 687:HW_Lib/AT32F435/bsp/Bsp_Uart.c ****         }
 775              		.loc 1 687 13 is_stmt 1 view .LVU235
 776 0024 0549     		ldr	r1, .L82
 777 0026 9868     		ldr	r0, [r3, #8]
 778              	.LVL100:
 687:HW_Lib/AT32F435/bsp/Bsp_Uart.c ****         }
 779              		.loc 1 687 13 is_stmt 0 view .LVU236
ARM GAS  C:\Users\8bit\AppData\Local\Temp\ccJGR6pR.s 			page 29


 780 0028 FFF7FEFF 		bl	usart_interrupt_enable
 781              	.LVL101:
 687:HW_Lib/AT32F435/bsp/Bsp_Uart.c ****         }
 782              		.loc 1 687 13 view .LVU237
 783 002c F6E7     		b	.L72
 784              	.LVL102:
 785              	.L81:
 690:HW_Lib/AT32F435/bsp/Bsp_Uart.c ****     }
 786              		.loc 1 690 13 is_stmt 1 view .LVU238
 787 002e 0449     		ldr	r1, .L82+4
 788 0030 9868     		ldr	r0, [r3, #8]
 789              	.LVL103:
 690:HW_Lib/AT32F435/bsp/Bsp_Uart.c ****     }
 790              		.loc 1 690 13 is_stmt 0 view .LVU239
 791 0032 FFF7FEFF 		bl	usart_interrupt_enable
 792              	.LVL104:
 690:HW_Lib/AT32F435/bsp/Bsp_Uart.c ****     }
 793              		.loc 1 690 13 view .LVU240
 794 0036 F1E7     		b	.L72
 795              	.LVL105:
 796              	.L77:
 797              	.LCFI4:
 798              		.cfi_def_cfa_offset 0
 799              		.cfi_restore 3
 800              		.cfi_restore 14
 693:HW_Lib/AT32F435/bsp/Bsp_Uart.c **** }
 801              		.loc 1 693 5 is_stmt 1 view .LVU241
 802              		.loc 1 694 1 is_stmt 0 view .LVU242
 803 0038 0020     		movs	r0, #0
 804              	.LVL106:
 805              		.loc 1 694 1 view .LVU243
 806 003a 7047     		bx	lr
 807              	.L83:
 808              		.align	2
 809              	.L82:
 810 003c 04000C00 		.word	786436
 811 0040 05000C00 		.word	786437
 812              		.cfi_endproc
 813              	.LFE149:
 815              		.section	.text.BspUart_Swap_Pin,"ax",%progbits
 816              		.align	1
 817              		.syntax unified
 818              		.thumb
 819              		.thumb_func
 821              	BspUart_Swap_Pin:
 822              	.LVL107:
 823              	.LFB142:
 483:HW_Lib/AT32F435/bsp/Bsp_Uart.c ****     if(obj && obj->instance)
 824              		.loc 1 483 1 is_stmt 1 view -0
 825              		.cfi_startproc
 826              		@ args = 0, pretend = 0, frame = 0
 827              		@ frame_needed = 0, uses_anonymous_args = 0
 484:HW_Lib/AT32F435/bsp/Bsp_Uart.c ****     {
 828              		.loc 1 484 5 view .LVU245
 484:HW_Lib/AT32F435/bsp/Bsp_Uart.c ****     {
 829              		.loc 1 484 7 is_stmt 0 view .LVU246
 830 0000 70B1     		cbz	r0, .L87
ARM GAS  C:\Users\8bit\AppData\Local\Temp\ccJGR6pR.s 			page 30


 483:HW_Lib/AT32F435/bsp/Bsp_Uart.c ****     if(obj && obj->instance)
 831              		.loc 1 483 1 discriminator 1 view .LVU247
 832 0002 08B5     		push	{r3, lr}
 833              	.LCFI5:
 834              		.cfi_def_cfa_offset 8
 835              		.cfi_offset 3, -8
 836              		.cfi_offset 14, -4
 837 0004 0346     		mov	r3, r0
 484:HW_Lib/AT32F435/bsp/Bsp_Uart.c ****     {
 838              		.loc 1 484 18 discriminator 1 view .LVU248
 839 0006 8068     		ldr	r0, [r0, #8]
 840              	.LVL108:
 484:HW_Lib/AT32F435/bsp/Bsp_Uart.c ****     {
 841              		.loc 1 484 12 discriminator 1 view .LVU249
 842 0008 20B1     		cbz	r0, .L85
 486:HW_Lib/AT32F435/bsp/Bsp_Uart.c ****         
 843              		.loc 1 486 9 is_stmt 1 view .LVU250
 486:HW_Lib/AT32F435/bsp/Bsp_Uart.c ****         
 844              		.loc 1 486 23 is_stmt 0 view .LVU251
 845 000a 0122     		movs	r2, #1
 846 000c 1A71     		strb	r2, [r3, #4]
 488:HW_Lib/AT32F435/bsp/Bsp_Uart.c ****             usart_transmit_receive_pin_swap(To_Uart_Instance(obj->instance), TRUE);
 847              		.loc 1 488 9 is_stmt 1 view .LVU252
 488:HW_Lib/AT32F435/bsp/Bsp_Uart.c ****             usart_transmit_receive_pin_swap(To_Uart_Instance(obj->instance), TRUE);
 848              		.loc 1 488 15 is_stmt 0 view .LVU253
 849 000e 93F84C30 		ldrb	r3, [r3, #76]	@ zero_extendqisi2
 850              	.LVL109:
 488:HW_Lib/AT32F435/bsp/Bsp_Uart.c ****             usart_transmit_receive_pin_swap(To_Uart_Instance(obj->instance), TRUE);
 851              		.loc 1 488 11 view .LVU254
 852 0012 0BB9     		cbnz	r3, .L90
 853              	.LVL110:
 854              	.L85:
 492:HW_Lib/AT32F435/bsp/Bsp_Uart.c **** }
 855              		.loc 1 492 5 is_stmt 1 view .LVU255
 493:HW_Lib/AT32F435/bsp/Bsp_Uart.c **** 
 856              		.loc 1 493 1 is_stmt 0 view .LVU256
 857 0014 0120     		movs	r0, #1
 858 0016 08BD     		pop	{r3, pc}
 859              	.LVL111:
 860              	.L90:
 489:HW_Lib/AT32F435/bsp/Bsp_Uart.c ****     }
 861              		.loc 1 489 13 is_stmt 1 view .LVU257
 862 0018 1146     		mov	r1, r2
 863              	.LVL112:
 489:HW_Lib/AT32F435/bsp/Bsp_Uart.c ****     }
 864              		.loc 1 489 13 is_stmt 0 view .LVU258
 865 001a FFF7FEFF 		bl	usart_transmit_receive_pin_swap
 866              	.LVL113:
 867 001e F9E7     		b	.L85
 868              	.LVL114:
 869              	.L87:
 870              	.LCFI6:
 871              		.cfi_def_cfa_offset 0
 872              		.cfi_restore 3
 873              		.cfi_restore 14
 492:HW_Lib/AT32F435/bsp/Bsp_Uart.c **** }
 874              		.loc 1 492 5 is_stmt 1 view .LVU259
ARM GAS  C:\Users\8bit\AppData\Local\Temp\ccJGR6pR.s 			page 31


 493:HW_Lib/AT32F435/bsp/Bsp_Uart.c **** 
 875              		.loc 1 493 1 is_stmt 0 view .LVU260
 876 0020 0120     		movs	r0, #1
 877              	.LVL115:
 493:HW_Lib/AT32F435/bsp/Bsp_Uart.c **** 
 878              		.loc 1 493 1 view .LVU261
 879 0022 7047     		bx	lr
 880              		.cfi_endproc
 881              	.LFE142:
 883              		.section	.text.BspUart_Set_DataBit,"ax",%progbits
 884              		.align	1
 885              		.syntax unified
 886              		.thumb
 887              		.thumb_func
 889              	BspUart_Set_DataBit:
 890              	.LVL116:
 891              	.LFB139:
 452:HW_Lib/AT32F435/bsp/Bsp_Uart.c ****     usart_identification_bit_num_type bit_num = (usart_identification_bit_num_type)bit; 
 892              		.loc 1 452 1 is_stmt 1 view -0
 893              		.cfi_startproc
 894              		@ args = 0, pretend = 0, frame = 0
 895              		@ frame_needed = 0, uses_anonymous_args = 0
 452:HW_Lib/AT32F435/bsp/Bsp_Uart.c ****     usart_identification_bit_num_type bit_num = (usart_identification_bit_num_type)bit; 
 896              		.loc 1 452 1 is_stmt 0 view .LVU263
 897 0000 10B5     		push	{r4, lr}
 898              	.LCFI7:
 899              		.cfi_def_cfa_offset 8
 900              		.cfi_offset 4, -8
 901              		.cfi_offset 14, -4
 453:HW_Lib/AT32F435/bsp/Bsp_Uart.c **** 
 902              		.loc 1 453 5 is_stmt 1 view .LVU264
 903              	.LVL117:
 455:HW_Lib/AT32F435/bsp/Bsp_Uart.c ****     {
 904              		.loc 1 455 5 view .LVU265
 455:HW_Lib/AT32F435/bsp/Bsp_Uart.c ****     {
 905              		.loc 1 455 7 is_stmt 0 view .LVU266
 906 0002 68B1     		cbz	r0, .L93
 907 0004 C9B2     		uxtb	r1, r1
 908              	.LVL118:
 455:HW_Lib/AT32F435/bsp/Bsp_Uart.c ****     {
 909              		.loc 1 455 7 view .LVU267
 910 0006 0346     		mov	r3, r0
 455:HW_Lib/AT32F435/bsp/Bsp_Uart.c ****     {
 911              		.loc 1 455 18 discriminator 1 view .LVU268
 912 0008 8068     		ldr	r0, [r0, #8]
 913              	.LVL119:
 455:HW_Lib/AT32F435/bsp/Bsp_Uart.c ****     {
 914              		.loc 1 455 12 discriminator 1 view .LVU269
 915 000a 60B1     		cbz	r0, .L94
 455:HW_Lib/AT32F435/bsp/Bsp_Uart.c ****     {
 916              		.loc 1 455 35 discriminator 2 view .LVU270
 917 000c 93F84C40 		ldrb	r4, [r3, #76]	@ zero_extendqisi2
 455:HW_Lib/AT32F435/bsp/Bsp_Uart.c ****     {
 918              		.loc 1 455 29 discriminator 2 view .LVU271
 919 0010 3CB1     		cbz	r4, .L92
 455:HW_Lib/AT32F435/bsp/Bsp_Uart.c ****     {
 920              		.loc 1 455 48 discriminator 3 view .LVU272
ARM GAS  C:\Users\8bit\AppData\Local\Temp\ccJGR6pR.s 			page 32


 921 0012 0129     		cmp	r1, #1
 922 0014 01D9     		bls	.L97
 461:HW_Lib/AT32F435/bsp/Bsp_Uart.c **** }
 923              		.loc 1 461 12 view .LVU273
 924 0016 0024     		movs	r4, #0
 925 0018 03E0     		b	.L92
 926              	.L97:
 457:HW_Lib/AT32F435/bsp/Bsp_Uart.c ****         return true;
 927              		.loc 1 457 9 is_stmt 1 view .LVU274
 928 001a FFF7FEFF 		bl	usart_id_bit_num_set
 929              	.LVL120:
 458:HW_Lib/AT32F435/bsp/Bsp_Uart.c ****     }
 930              		.loc 1 458 9 view .LVU275
 458:HW_Lib/AT32F435/bsp/Bsp_Uart.c ****     }
 931              		.loc 1 458 16 is_stmt 0 view .LVU276
 932 001e 00E0     		b	.L92
 933              	.LVL121:
 934              	.L93:
 461:HW_Lib/AT32F435/bsp/Bsp_Uart.c **** }
 935              		.loc 1 461 12 view .LVU277
 936 0020 0024     		movs	r4, #0
 937              	.LVL122:
 938              	.L92:
 462:HW_Lib/AT32F435/bsp/Bsp_Uart.c **** 
 939              		.loc 1 462 1 view .LVU278
 940 0022 2046     		mov	r0, r4
 941 0024 10BD     		pop	{r4, pc}
 942              	.LVL123:
 943              	.L94:
 461:HW_Lib/AT32F435/bsp/Bsp_Uart.c **** }
 944              		.loc 1 461 12 view .LVU279
 945 0026 0024     		movs	r4, #0
 946 0028 FBE7     		b	.L92
 947              		.cfi_endproc
 948              	.LFE139:
 950              		.section	.text.BspUart_Set_Parity,"ax",%progbits
 951              		.align	1
 952              		.syntax unified
 953              		.thumb
 954              		.thumb_func
 956              	BspUart_Set_Parity:
 957              	.LVL124:
 958              	.LFB140:
 465:HW_Lib/AT32F435/bsp/Bsp_Uart.c ****     usart_parity_selection_type parity_tmp = (usart_parity_selection_type)parity;
 959              		.loc 1 465 1 is_stmt 1 view -0
 960              		.cfi_startproc
 961              		@ args = 0, pretend = 0, frame = 0
 962              		@ frame_needed = 0, uses_anonymous_args = 0
 465:HW_Lib/AT32F435/bsp/Bsp_Uart.c ****     usart_parity_selection_type parity_tmp = (usart_parity_selection_type)parity;
 963              		.loc 1 465 1 is_stmt 0 view .LVU281
 964 0000 10B5     		push	{r4, lr}
 965              	.LCFI8:
 966              		.cfi_def_cfa_offset 8
 967              		.cfi_offset 4, -8
 968              		.cfi_offset 14, -4
 466:HW_Lib/AT32F435/bsp/Bsp_Uart.c **** 
 969              		.loc 1 466 5 is_stmt 1 view .LVU282
ARM GAS  C:\Users\8bit\AppData\Local\Temp\ccJGR6pR.s 			page 33


 970              	.LVL125:
 468:HW_Lib/AT32F435/bsp/Bsp_Uart.c ****     {
 971              		.loc 1 468 5 view .LVU283
 468:HW_Lib/AT32F435/bsp/Bsp_Uart.c ****     {
 972              		.loc 1 468 8 is_stmt 0 view .LVU284
 973 0002 68B1     		cbz	r0, .L100
 974 0004 C9B2     		uxtb	r1, r1
 975              	.LVL126:
 468:HW_Lib/AT32F435/bsp/Bsp_Uart.c ****     {
 976              		.loc 1 468 8 view .LVU285
 977 0006 0346     		mov	r3, r0
 468:HW_Lib/AT32F435/bsp/Bsp_Uart.c ****     {
 978              		.loc 1 468 19 discriminator 1 view .LVU286
 979 0008 8068     		ldr	r0, [r0, #8]
 980              	.LVL127:
 468:HW_Lib/AT32F435/bsp/Bsp_Uart.c ****     {
 981              		.loc 1 468 13 discriminator 1 view .LVU287
 982 000a 60B1     		cbz	r0, .L101
 468:HW_Lib/AT32F435/bsp/Bsp_Uart.c ****     {
 983              		.loc 1 468 36 discriminator 2 view .LVU288
 984 000c 93F84C40 		ldrb	r4, [r3, #76]	@ zero_extendqisi2
 468:HW_Lib/AT32F435/bsp/Bsp_Uart.c ****     {
 985              		.loc 1 468 30 discriminator 2 view .LVU289
 986 0010 3CB1     		cbz	r4, .L99
 468:HW_Lib/AT32F435/bsp/Bsp_Uart.c ****     {
 987              		.loc 1 468 49 discriminator 3 view .LVU290
 988 0012 0229     		cmp	r1, #2
 989 0014 01D9     		bls	.L104
 474:HW_Lib/AT32F435/bsp/Bsp_Uart.c **** }
 990              		.loc 1 474 12 view .LVU291
 991 0016 0024     		movs	r4, #0
 992 0018 03E0     		b	.L99
 993              	.L104:
 470:HW_Lib/AT32F435/bsp/Bsp_Uart.c ****         return true;
 994              		.loc 1 470 9 is_stmt 1 view .LVU292
 995 001a FFF7FEFF 		bl	usart_parity_selection_config
 996              	.LVL128:
 471:HW_Lib/AT32F435/bsp/Bsp_Uart.c ****     }
 997              		.loc 1 471 9 view .LVU293
 471:HW_Lib/AT32F435/bsp/Bsp_Uart.c ****     }
 998              		.loc 1 471 16 is_stmt 0 view .LVU294
 999 001e 00E0     		b	.L99
 1000              	.LVL129:
 1001              	.L100:
 474:HW_Lib/AT32F435/bsp/Bsp_Uart.c **** }
 1002              		.loc 1 474 12 view .LVU295
 1003 0020 0024     		movs	r4, #0
 1004              	.LVL130:
 1005              	.L99:
 475:HW_Lib/AT32F435/bsp/Bsp_Uart.c **** 
 1006              		.loc 1 475 1 view .LVU296
 1007 0022 2046     		mov	r0, r4
 1008 0024 10BD     		pop	{r4, pc}
 1009              	.LVL131:
 1010              	.L101:
 474:HW_Lib/AT32F435/bsp/Bsp_Uart.c **** }
 1011              		.loc 1 474 12 view .LVU297
ARM GAS  C:\Users\8bit\AppData\Local\Temp\ccJGR6pR.s 			page 34


 1012 0026 0024     		movs	r4, #0
 1013 0028 FBE7     		b	.L99
 1014              		.cfi_endproc
 1015              	.LFE140:
 1017              		.section	.text.BspUart_SetIRQ,"ax",%progbits
 1018              		.align	1
 1019              		.syntax unified
 1020              		.thumb
 1021              		.thumb_func
 1023              	BspUart_SetIRQ:
 1024              	.LVL132:
 1025              	.LFB134:
 110:HW_Lib/AT32F435/bsp/Bsp_Uart.c ****     int index = 0;
 1026              		.loc 1 110 1 is_stmt 1 view -0
 1027              		.cfi_startproc
 1028              		@ args = 0, pretend = 0, frame = 0
 1029              		@ frame_needed = 0, uses_anonymous_args = 0
 110:HW_Lib/AT32F435/bsp/Bsp_Uart.c ****     int index = 0;
 1030              		.loc 1 110 1 is_stmt 0 view .LVU299
 1031 0000 70B5     		push	{r4, r5, r6, lr}
 1032              	.LCFI9:
 1033              		.cfi_def_cfa_offset 16
 1034              		.cfi_offset 4, -16
 1035              		.cfi_offset 5, -12
 1036              		.cfi_offset 6, -8
 1037              		.cfi_offset 14, -4
 111:HW_Lib/AT32F435/bsp/Bsp_Uart.c ****     IRQn_Type irqn = Bsp_UART_Port_1;
 1038              		.loc 1 111 5 is_stmt 1 view .LVU300
 1039              	.LVL133:
 112:HW_Lib/AT32F435/bsp/Bsp_Uart.c **** 
 1040              		.loc 1 112 5 view .LVU301
 114:HW_Lib/AT32F435/bsp/Bsp_Uart.c ****         return BspUart_Clock_Error;
 1041              		.loc 1 114 5 view .LVU302
 114:HW_Lib/AT32F435/bsp/Bsp_Uart.c ****         return BspUart_Clock_Error;
 1042              		.loc 1 114 7 is_stmt 0 view .LVU303
 1043 0002 0028     		cmp	r0, #0
 1044 0004 4BD0     		beq	.L109
 1045 0006 0C46     		mov	r4, r1
 114:HW_Lib/AT32F435/bsp/Bsp_Uart.c ****         return BspUart_Clock_Error;
 1046              		.loc 1 114 29 discriminator 1 view .LVU304
 1047 0008 8368     		ldr	r3, [r0, #8]
 114:HW_Lib/AT32F435/bsp/Bsp_Uart.c ****         return BspUart_Clock_Error;
 1048              		.loc 1 114 22 discriminator 1 view .LVU305
 1049 000a 002B     		cmp	r3, #0
 1050 000c 4AD0     		beq	.L110
 117:HW_Lib/AT32F435/bsp/Bsp_Uart.c ****     {
 1051              		.loc 1 117 5 is_stmt 1 view .LVU306
 117:HW_Lib/AT32F435/bsp/Bsp_Uart.c ****     {
 1052              		.loc 1 117 7 is_stmt 0 view .LVU307
 1053 000e 274A     		ldr	r2, .L120
 1054 0010 9342     		cmp	r3, r2
 1055 0012 1ED0     		beq	.L111
 122:HW_Lib/AT32F435/bsp/Bsp_Uart.c ****     {
 1056              		.loc 1 122 10 is_stmt 1 view .LVU308
 122:HW_Lib/AT32F435/bsp/Bsp_Uart.c ****     {
 1057              		.loc 1 122 12 is_stmt 0 view .LVU309
 1058 0014 A2F54C42 		sub	r2, r2, #52224
ARM GAS  C:\Users\8bit\AppData\Local\Temp\ccJGR6pR.s 			page 35


 1059 0018 9342     		cmp	r3, r2
 1060 001a 27D0     		beq	.L112
 127:HW_Lib/AT32F435/bsp/Bsp_Uart.c ****     {
 1061              		.loc 1 127 10 is_stmt 1 view .LVU310
 127:HW_Lib/AT32F435/bsp/Bsp_Uart.c ****     {
 1062              		.loc 1 127 12 is_stmt 0 view .LVU311
 1063 001c 02F58062 		add	r2, r2, #1024
 1064 0020 9342     		cmp	r3, r2
 1065 0022 26D0     		beq	.L113
 132:HW_Lib/AT32F435/bsp/Bsp_Uart.c ****     {
 1066              		.loc 1 132 10 is_stmt 1 view .LVU312
 132:HW_Lib/AT32F435/bsp/Bsp_Uart.c ****     {
 1067              		.loc 1 132 12 is_stmt 0 view .LVU313
 1068 0024 02F58062 		add	r2, r2, #1024
 1069 0028 9342     		cmp	r3, r2
 1070 002a 25D0     		beq	.L114
 137:HW_Lib/AT32F435/bsp/Bsp_Uart.c ****     {
 1071              		.loc 1 137 10 is_stmt 1 view .LVU314
 137:HW_Lib/AT32F435/bsp/Bsp_Uart.c ****     {
 1072              		.loc 1 137 12 is_stmt 0 view .LVU315
 1073 002c 02F58062 		add	r2, r2, #1024
 1074 0030 9342     		cmp	r3, r2
 1075 0032 24D0     		beq	.L115
 142:HW_Lib/AT32F435/bsp/Bsp_Uart.c ****     {
 1076              		.loc 1 142 10 is_stmt 1 view .LVU316
 142:HW_Lib/AT32F435/bsp/Bsp_Uart.c ****     {
 1077              		.loc 1 142 12 is_stmt 0 view .LVU317
 1078 0034 02F54442 		add	r2, r2, #50176
 1079 0038 9342     		cmp	r3, r2
 1080 003a 23D0     		beq	.L116
 147:HW_Lib/AT32F435/bsp/Bsp_Uart.c ****     {
 1081              		.loc 1 147 10 is_stmt 1 view .LVU318
 147:HW_Lib/AT32F435/bsp/Bsp_Uart.c ****     {
 1082              		.loc 1 147 12 is_stmt 0 view .LVU319
 1083 003c A2F51C42 		sub	r2, r2, #39936
 1084 0040 9342     		cmp	r3, r2
 1085 0042 22D0     		beq	.L117
 152:HW_Lib/AT32F435/bsp/Bsp_Uart.c ****     {
 1086              		.loc 1 152 10 is_stmt 1 view .LVU320
 152:HW_Lib/AT32F435/bsp/Bsp_Uart.c ****     {
 1087              		.loc 1 152 12 is_stmt 0 view .LVU321
 1088 0044 02F58062 		add	r2, r2, #1024
 1089 0048 9342     		cmp	r3, r2
 1090 004a 21D0     		beq	.L118
 112:HW_Lib/AT32F435/bsp/Bsp_Uart.c **** 
 1091              		.loc 1 112 15 view .LVU322
 1092 004c 0126     		movs	r6, #1
 111:HW_Lib/AT32F435/bsp/Bsp_Uart.c ****     IRQn_Type irqn = Bsp_UART_Port_1;
 1093              		.loc 1 111 9 view .LVU323
 1094 004e 0025     		movs	r5, #0
 1095 0050 01E0     		b	.L107
 1096              	.L111:
 119:HW_Lib/AT32F435/bsp/Bsp_Uart.c ****         index = Bsp_UART_Port_1;
 1097              		.loc 1 119 14 view .LVU324
 1098 0052 2526     		movs	r6, #37
 120:HW_Lib/AT32F435/bsp/Bsp_Uart.c ****     }
 1099              		.loc 1 120 15 view .LVU325
ARM GAS  C:\Users\8bit\AppData\Local\Temp\ccJGR6pR.s 			page 36


 1100 0054 0125     		movs	r5, #1
 1101              	.L107:
 1102              	.LVL134:
 158:HW_Lib/AT32F435/bsp/Bsp_Uart.c ****     if (state)
 1103              		.loc 1 158 5 is_stmt 1 view .LVU326
 1104 0056 0320     		movs	r0, #3
 1105              	.LVL135:
 158:HW_Lib/AT32F435/bsp/Bsp_Uart.c ****     if (state)
 1106              		.loc 1 158 5 is_stmt 0 view .LVU327
 1107 0058 FFF7FEFF 		bl	nvic_priority_group_config
 1108              	.LVL136:
 159:HW_Lib/AT32F435/bsp/Bsp_Uart.c ****     {
 1109              		.loc 1 159 5 is_stmt 1 view .LVU328
 159:HW_Lib/AT32F435/bsp/Bsp_Uart.c ****     {
 1110              		.loc 1 159 8 is_stmt 0 view .LVU329
 1111 005c DCB1     		cbz	r4, .L108
 161:HW_Lib/AT32F435/bsp/Bsp_Uart.c ****     }
 1112              		.loc 1 161 9 is_stmt 1 view .LVU330
 1113 005e 0022     		movs	r2, #0
 1114 0060 0521     		movs	r1, #5
 1115 0062 3046     		mov	r0, r6
 1116 0064 FFF7FEFF 		bl	nvic_irq_enable
 1117              	.LVL137:
 1118              	.L105:
 167:HW_Lib/AT32F435/bsp/Bsp_Uart.c **** 
 1119              		.loc 1 167 1 is_stmt 0 view .LVU331
 1120 0068 2846     		mov	r0, r5
 1121 006a 70BD     		pop	{r4, r5, r6, pc}
 1122              	.LVL138:
 1123              	.L112:
 124:HW_Lib/AT32F435/bsp/Bsp_Uart.c ****         index = Bsp_UART_Port_2;
 1124              		.loc 1 124 14 view .LVU332
 1125 006c 2626     		movs	r6, #38
 125:HW_Lib/AT32F435/bsp/Bsp_Uart.c ****     }
 1126              		.loc 1 125 15 view .LVU333
 1127 006e 0225     		movs	r5, #2
 1128 0070 F1E7     		b	.L107
 1129              	.L113:
 129:HW_Lib/AT32F435/bsp/Bsp_Uart.c ****         index = Bsp_UART_Port_3;
 1130              		.loc 1 129 14 view .LVU334
 1131 0072 2726     		movs	r6, #39
 130:HW_Lib/AT32F435/bsp/Bsp_Uart.c ****     }
 1132              		.loc 1 130 15 view .LVU335
 1133 0074 0325     		movs	r5, #3
 1134 0076 EEE7     		b	.L107
 1135              	.L114:
 134:HW_Lib/AT32F435/bsp/Bsp_Uart.c ****         index = Bsp_UART_Port_4;
 1136              		.loc 1 134 14 view .LVU336
 1137 0078 3426     		movs	r6, #52
 135:HW_Lib/AT32F435/bsp/Bsp_Uart.c ****     }
 1138              		.loc 1 135 15 view .LVU337
 1139 007a 0425     		movs	r5, #4
 1140 007c EBE7     		b	.L107
 1141              	.L115:
 139:HW_Lib/AT32F435/bsp/Bsp_Uart.c ****         index = Bsp_UART_Port_5;
 1142              		.loc 1 139 14 view .LVU338
 1143 007e 3526     		movs	r6, #53
ARM GAS  C:\Users\8bit\AppData\Local\Temp\ccJGR6pR.s 			page 37


 140:HW_Lib/AT32F435/bsp/Bsp_Uart.c ****     }
 1144              		.loc 1 140 15 view .LVU339
 1145 0080 0525     		movs	r5, #5
 1146 0082 E8E7     		b	.L107
 1147              	.L116:
 144:HW_Lib/AT32F435/bsp/Bsp_Uart.c ****         index = Bsp_UART_Port_6;
 1148              		.loc 1 144 14 view .LVU340
 1149 0084 4726     		movs	r6, #71
 145:HW_Lib/AT32F435/bsp/Bsp_Uart.c ****     }
 1150              		.loc 1 145 15 view .LVU341
 1151 0086 0625     		movs	r5, #6
 1152 0088 E5E7     		b	.L107
 1153              	.L117:
 149:HW_Lib/AT32F435/bsp/Bsp_Uart.c ****         index = Bsp_UART_Port_7;
 1154              		.loc 1 149 14 view .LVU342
 1155 008a 5226     		movs	r6, #82
 150:HW_Lib/AT32F435/bsp/Bsp_Uart.c ****     }
 1156              		.loc 1 150 15 view .LVU343
 1157 008c 0725     		movs	r5, #7
 1158 008e E2E7     		b	.L107
 1159              	.L118:
 154:HW_Lib/AT32F435/bsp/Bsp_Uart.c ****         index = Bsp_UART_Port_8;
 1160              		.loc 1 154 14 view .LVU344
 1161 0090 5326     		movs	r6, #83
 155:HW_Lib/AT32F435/bsp/Bsp_Uart.c ****     }
 1162              		.loc 1 155 15 view .LVU345
 1163 0092 0825     		movs	r5, #8
 1164 0094 DFE7     		b	.L107
 1165              	.LVL139:
 1166              	.L108:
 164:HW_Lib/AT32F435/bsp/Bsp_Uart.c **** 
 1167              		.loc 1 164 9 is_stmt 1 view .LVU346
 1168 0096 3046     		mov	r0, r6
 1169 0098 FFF7FEFF 		bl	nvic_irq_disable
 1170              	.LVL140:
 1171 009c E4E7     		b	.L105
 1172              	.LVL141:
 1173              	.L109:
 115:HW_Lib/AT32F435/bsp/Bsp_Uart.c **** 
 1174              		.loc 1 115 16 is_stmt 0 view .LVU347
 1175 009e 4FF0FF35 		mov	r5, #-1
 1176 00a2 E1E7     		b	.L105
 1177              	.L110:
 1178 00a4 4FF0FF35 		mov	r5, #-1
 1179 00a8 DEE7     		b	.L105
 1180              	.L121:
 1181 00aa 00BF     		.align	2
 1182              	.L120:
 1183 00ac 00100140 		.word	1073811456
 1184              		.cfi_endproc
 1185              	.LFE134:
 1187              		.section	.text.BspUart_DeInit,"ax",%progbits
 1188              		.align	1
 1189              		.syntax unified
 1190              		.thumb
 1191              		.thumb_func
 1193              	BspUart_DeInit:
ARM GAS  C:\Users\8bit\AppData\Local\Temp\ccJGR6pR.s 			page 38


 1194              	.LVL142:
 1195              	.LFB138:
 416:HW_Lib/AT32F435/bsp/Bsp_Uart.c ****     if (obj && obj->instance)
 1196              		.loc 1 416 1 is_stmt 1 view -0
 1197              		.cfi_startproc
 1198              		@ args = 0, pretend = 0, frame = 0
 1199              		@ frame_needed = 0, uses_anonymous_args = 0
 417:HW_Lib/AT32F435/bsp/Bsp_Uart.c ****     {
 1200              		.loc 1 417 5 view .LVU349
 417:HW_Lib/AT32F435/bsp/Bsp_Uart.c ****     {
 1201              		.loc 1 417 8 is_stmt 0 view .LVU350
 1202 0000 0028     		cmp	r0, #0
 1203 0002 3BD0     		beq	.L129
 416:HW_Lib/AT32F435/bsp/Bsp_Uart.c ****     if (obj && obj->instance)
 1204              		.loc 1 416 1 discriminator 1 view .LVU351
 1205 0004 38B5     		push	{r3, r4, r5, lr}
 1206              	.LCFI10:
 1207              		.cfi_def_cfa_offset 16
 1208              		.cfi_offset 3, -16
 1209              		.cfi_offset 4, -12
 1210              		.cfi_offset 5, -8
 1211              		.cfi_offset 14, -4
 1212 0006 0446     		mov	r4, r0
 417:HW_Lib/AT32F435/bsp/Bsp_Uart.c ****     {
 1213              		.loc 1 417 19 discriminator 1 view .LVU352
 1214 0008 8368     		ldr	r3, [r0, #8]
 417:HW_Lib/AT32F435/bsp/Bsp_Uart.c ****     {
 1215              		.loc 1 417 13 discriminator 1 view .LVU353
 1216 000a 4BB3     		cbz	r3, .L123
 420:HW_Lib/AT32F435/bsp/Bsp_Uart.c ****         {
 1217              		.loc 1 420 9 is_stmt 1 view .LVU354
 420:HW_Lib/AT32F435/bsp/Bsp_Uart.c ****         {
 1218              		.loc 1 420 16 is_stmt 0 view .LVU355
 1219 000c C069     		ldr	r0, [r0, #28]
 1220              	.LVL143:
 420:HW_Lib/AT32F435/bsp/Bsp_Uart.c ****         {
 1221              		.loc 1 420 12 view .LVU356
 1222 000e 28B1     		cbz	r0, .L124
 422:HW_Lib/AT32F435/bsp/Bsp_Uart.c ****             dma_reset(To_DMA_Handle_Ptr(obj->rx_dma_hdl));
 1223              		.loc 1 422 13 is_stmt 1 view .LVU357
 1224 0010 0021     		movs	r1, #0
 1225 0012 FFF7FEFF 		bl	dma_channel_enable
 1226              	.LVL144:
 423:HW_Lib/AT32F435/bsp/Bsp_Uart.c ****         }
 1227              		.loc 1 423 13 view .LVU358
 1228 0016 E069     		ldr	r0, [r4, #28]
 1229 0018 FFF7FEFF 		bl	dma_reset
 1230              	.LVL145:
 1231              	.L124:
 426:HW_Lib/AT32F435/bsp/Bsp_Uart.c ****         {
 1232              		.loc 1 426 9 view .LVU359
 426:HW_Lib/AT32F435/bsp/Bsp_Uart.c ****         {
 1233              		.loc 1 426 16 is_stmt 0 view .LVU360
 1234 001c 6069     		ldr	r0, [r4, #20]
 426:HW_Lib/AT32F435/bsp/Bsp_Uart.c ****         {
 1235              		.loc 1 426 12 view .LVU361
 1236 001e 28B1     		cbz	r0, .L125
ARM GAS  C:\Users\8bit\AppData\Local\Temp\ccJGR6pR.s 			page 39


 428:HW_Lib/AT32F435/bsp/Bsp_Uart.c ****             dma_reset(To_DMA_Handle_Ptr(obj->tx_dma_hdl));
 1237              		.loc 1 428 13 is_stmt 1 view .LVU362
 1238 0020 0021     		movs	r1, #0
 1239 0022 FFF7FEFF 		bl	dma_channel_enable
 1240              	.LVL146:
 429:HW_Lib/AT32F435/bsp/Bsp_Uart.c ****         }
 1241              		.loc 1 429 13 view .LVU363
 1242 0026 6069     		ldr	r0, [r4, #20]
 1243 0028 FFF7FEFF 		bl	dma_reset
 1244              	.LVL147:
 1245              	.L125:
 432:HW_Lib/AT32F435/bsp/Bsp_Uart.c ****         {
 1246              		.loc 1 432 9 view .LVU364
 432:HW_Lib/AT32F435/bsp/Bsp_Uart.c ****         {
 1247              		.loc 1 432 16 is_stmt 0 view .LVU365
 1248 002c 94F84D30 		ldrb	r3, [r4, #77]	@ zero_extendqisi2
 432:HW_Lib/AT32F435/bsp/Bsp_Uart.c ****         {
 1249              		.loc 1 432 12 view .LVU366
 1250 0030 012B     		cmp	r3, #1
 1251 0032 17D0     		beq	.L132
 436:HW_Lib/AT32F435/bsp/Bsp_Uart.c ****             usart_interrupt_enable(To_Uart_Instance(obj->instance), USART_RDBF_INT, FALSE);
 1252              		.loc 1 436 14 is_stmt 1 view .LVU367
 436:HW_Lib/AT32F435/bsp/Bsp_Uart.c ****             usart_interrupt_enable(To_Uart_Instance(obj->instance), USART_RDBF_INT, FALSE);
 1253              		.loc 1 436 17 is_stmt 0 view .LVU368
 1254 0034 022B     		cmp	r3, #2
 1255 0036 1BD0     		beq	.L133
 1256              	.L127:
 439:HW_Lib/AT32F435/bsp/Bsp_Uart.c **** 
 1257              		.loc 1 439 9 is_stmt 1 view .LVU369
 1258 0038 0021     		movs	r1, #0
 1259 003a 2046     		mov	r0, r4
 1260 003c FFF7FEFF 		bl	BspUart_SetIRQ
 1261              	.LVL148:
 441:HW_Lib/AT32F435/bsp/Bsp_Uart.c ****         BspGPIO.de_init(obj->tx_io);
 1262              		.loc 1 441 9 view .LVU370
 441:HW_Lib/AT32F435/bsp/Bsp_Uart.c ****         BspGPIO.de_init(obj->tx_io);
 1263              		.loc 1 441 16 is_stmt 0 view .LVU371
 1264 0040 0F4D     		ldr	r5, .L134
 441:HW_Lib/AT32F435/bsp/Bsp_Uart.c ****         BspGPIO.de_init(obj->tx_io);
 1265              		.loc 1 441 9 view .LVU372
 1266 0042 04F12C03 		add	r3, r4, #44
 1267 0046 93E80700 		ldm	r3, {r0, r1, r2}
 1268 004a 2B6A     		ldr	r3, [r5, #32]
 1269 004c 9847     		blx	r3
 1270              	.LVL149:
 442:HW_Lib/AT32F435/bsp/Bsp_Uart.c **** 
 1271              		.loc 1 442 9 is_stmt 1 view .LVU373
 442:HW_Lib/AT32F435/bsp/Bsp_Uart.c **** 
 1272              		.loc 1 442 16 is_stmt 0 view .LVU374
 1273 004e 2D6A     		ldr	r5, [r5, #32]
 442:HW_Lib/AT32F435/bsp/Bsp_Uart.c **** 
 1274              		.loc 1 442 9 view .LVU375
 1275 0050 04F12003 		add	r3, r4, #32
 1276 0054 93E80700 		ldm	r3, {r0, r1, r2}
 1277 0058 A847     		blx	r5
 1278              	.LVL150:
 445:HW_Lib/AT32F435/bsp/Bsp_Uart.c ****     }
ARM GAS  C:\Users\8bit\AppData\Local\Temp\ccJGR6pR.s 			page 40


 1279              		.loc 1 445 9 is_stmt 1 view .LVU376
 1280 005a A068     		ldr	r0, [r4, #8]
 1281 005c FFF7FEFF 		bl	usart_reset
 1282              	.LVL151:
 1283              	.L123:
 448:HW_Lib/AT32F435/bsp/Bsp_Uart.c **** }
 1284              		.loc 1 448 5 view .LVU377
 449:HW_Lib/AT32F435/bsp/Bsp_Uart.c **** 
 1285              		.loc 1 449 1 is_stmt 0 view .LVU378
 1286 0060 0020     		movs	r0, #0
 1287 0062 38BD     		pop	{r3, r4, r5, pc}
 1288              	.LVL152:
 1289              	.L132:
 434:HW_Lib/AT32F435/bsp/Bsp_Uart.c ****         }
 1290              		.loc 1 434 13 is_stmt 1 view .LVU379
 1291 0064 0022     		movs	r2, #0
 1292 0066 0749     		ldr	r1, .L134+4
 1293 0068 A068     		ldr	r0, [r4, #8]
 1294 006a FFF7FEFF 		bl	usart_interrupt_enable
 1295              	.LVL153:
 1296 006e E3E7     		b	.L127
 1297              	.L133:
 437:HW_Lib/AT32F435/bsp/Bsp_Uart.c **** 
 1298              		.loc 1 437 13 view .LVU380
 1299 0070 0022     		movs	r2, #0
 1300 0072 0549     		ldr	r1, .L134+8
 1301 0074 A068     		ldr	r0, [r4, #8]
 1302 0076 FFF7FEFF 		bl	usart_interrupt_enable
 1303              	.LVL154:
 1304 007a DDE7     		b	.L127
 1305              	.LVL155:
 1306              	.L129:
 1307              	.LCFI11:
 1308              		.cfi_def_cfa_offset 0
 1309              		.cfi_restore 3
 1310              		.cfi_restore 4
 1311              		.cfi_restore 5
 1312              		.cfi_restore 14
 448:HW_Lib/AT32F435/bsp/Bsp_Uart.c **** }
 1313              		.loc 1 448 5 view .LVU381
 449:HW_Lib/AT32F435/bsp/Bsp_Uart.c **** 
 1314              		.loc 1 449 1 is_stmt 0 view .LVU382
 1315 007c 0020     		movs	r0, #0
 1316              	.LVL156:
 449:HW_Lib/AT32F435/bsp/Bsp_Uart.c **** 
 1317              		.loc 1 449 1 view .LVU383
 1318 007e 7047     		bx	lr
 1319              	.L135:
 1320              		.align	2
 1321              	.L134:
 1322 0080 00000000 		.word	BspGPIO
 1323 0084 04000C00 		.word	786436
 1324 0088 05000C00 		.word	786437
 1325              		.cfi_endproc
 1326              	.LFE138:
 1328              		.section	.text.BspUart_Init_Clock,"ax",%progbits
 1329              		.align	1
ARM GAS  C:\Users\8bit\AppData\Local\Temp\ccJGR6pR.s 			page 41


 1330              		.syntax unified
 1331              		.thumb
 1332              		.thumb_func
 1334              	BspUart_Init_Clock:
 1335              	.LVL157:
 1336              	.LFB133:
  55:HW_Lib/AT32F435/bsp/Bsp_Uart.c ****     int index = 0;
 1337              		.loc 1 55 1 is_stmt 1 view -0
 1338              		.cfi_startproc
 1339              		@ args = 0, pretend = 0, frame = 0
 1340              		@ frame_needed = 0, uses_anonymous_args = 0
  55:HW_Lib/AT32F435/bsp/Bsp_Uart.c ****     int index = 0;
 1341              		.loc 1 55 1 is_stmt 0 view .LVU385
 1342 0000 10B5     		push	{r4, lr}
 1343              	.LCFI12:
 1344              		.cfi_def_cfa_offset 8
 1345              		.cfi_offset 4, -8
 1346              		.cfi_offset 14, -4
  56:HW_Lib/AT32F435/bsp/Bsp_Uart.c ****     crm_periph_clock_type clock = CRM_USART1_PERIPH_CLOCK;
 1347              		.loc 1 56 5 is_stmt 1 view .LVU386
 1348              	.LVL158:
  57:HW_Lib/AT32F435/bsp/Bsp_Uart.c **** 
 1349              		.loc 1 57 5 view .LVU387
  59:HW_Lib/AT32F435/bsp/Bsp_Uart.c ****         return BspUart_Clock_Error;
 1350              		.loc 1 59 5 view .LVU388
  59:HW_Lib/AT32F435/bsp/Bsp_Uart.c ****         return BspUart_Clock_Error;
 1351              		.loc 1 59 7 is_stmt 0 view .LVU389
 1352 0002 0028     		cmp	r0, #0
 1353 0004 3DD0     		beq	.L139
  59:HW_Lib/AT32F435/bsp/Bsp_Uart.c ****         return BspUart_Clock_Error;
 1354              		.loc 1 59 29 discriminator 1 view .LVU390
 1355 0006 8368     		ldr	r3, [r0, #8]
  59:HW_Lib/AT32F435/bsp/Bsp_Uart.c ****         return BspUart_Clock_Error;
 1356              		.loc 1 59 22 discriminator 1 view .LVU391
 1357 0008 002B     		cmp	r3, #0
 1358 000a 3DD0     		beq	.L140
  62:HW_Lib/AT32F435/bsp/Bsp_Uart.c ****     {
 1359              		.loc 1 62 5 is_stmt 1 view .LVU392
  62:HW_Lib/AT32F435/bsp/Bsp_Uart.c ****     {
 1360              		.loc 1 62 7 is_stmt 0 view .LVU393
 1361 000c 214A     		ldr	r2, .L150
 1362 000e 9342     		cmp	r3, r2
 1363 0010 1ED0     		beq	.L141
  67:HW_Lib/AT32F435/bsp/Bsp_Uart.c ****     {
 1364              		.loc 1 67 10 is_stmt 1 view .LVU394
  67:HW_Lib/AT32F435/bsp/Bsp_Uart.c ****     {
 1365              		.loc 1 67 12 is_stmt 0 view .LVU395
 1366 0012 A2F54C42 		sub	r2, r2, #52224
 1367 0016 9342     		cmp	r3, r2
 1368 0018 1DD0     		beq	.L142
  72:HW_Lib/AT32F435/bsp/Bsp_Uart.c ****     {
 1369              		.loc 1 72 10 is_stmt 1 view .LVU396
  72:HW_Lib/AT32F435/bsp/Bsp_Uart.c ****     {
 1370              		.loc 1 72 12 is_stmt 0 view .LVU397
 1371 001a 02F58062 		add	r2, r2, #1024
 1372 001e 9342     		cmp	r3, r2
 1373 0020 20D0     		beq	.L143
ARM GAS  C:\Users\8bit\AppData\Local\Temp\ccJGR6pR.s 			page 42


  77:HW_Lib/AT32F435/bsp/Bsp_Uart.c ****     {
 1374              		.loc 1 77 10 is_stmt 1 view .LVU398
  77:HW_Lib/AT32F435/bsp/Bsp_Uart.c ****     {
 1375              		.loc 1 77 12 is_stmt 0 view .LVU399
 1376 0022 02F58062 		add	r2, r2, #1024
 1377 0026 9342     		cmp	r3, r2
 1378 0028 1FD0     		beq	.L144
  82:HW_Lib/AT32F435/bsp/Bsp_Uart.c ****     {
 1379              		.loc 1 82 10 is_stmt 1 view .LVU400
  82:HW_Lib/AT32F435/bsp/Bsp_Uart.c ****     {
 1380              		.loc 1 82 12 is_stmt 0 view .LVU401
 1381 002a 02F58062 		add	r2, r2, #1024
 1382 002e 9342     		cmp	r3, r2
 1383 0030 1ED0     		beq	.L145
  87:HW_Lib/AT32F435/bsp/Bsp_Uart.c ****     {
 1384              		.loc 1 87 10 is_stmt 1 view .LVU402
  87:HW_Lib/AT32F435/bsp/Bsp_Uart.c ****     {
 1385              		.loc 1 87 12 is_stmt 0 view .LVU403
 1386 0032 02F54442 		add	r2, r2, #50176
 1387 0036 9342     		cmp	r3, r2
 1388 0038 1DD0     		beq	.L146
  92:HW_Lib/AT32F435/bsp/Bsp_Uart.c ****     {
 1389              		.loc 1 92 10 is_stmt 1 view .LVU404
  92:HW_Lib/AT32F435/bsp/Bsp_Uart.c ****     {
 1390              		.loc 1 92 12 is_stmt 0 view .LVU405
 1391 003a A2F51C42 		sub	r2, r2, #39936
 1392 003e 9342     		cmp	r3, r2
 1393 0040 1CD0     		beq	.L147
  97:HW_Lib/AT32F435/bsp/Bsp_Uart.c ****     {
 1394              		.loc 1 97 10 is_stmt 1 view .LVU406
  97:HW_Lib/AT32F435/bsp/Bsp_Uart.c ****     {
 1395              		.loc 1 97 12 is_stmt 0 view .LVU407
 1396 0042 02F58062 		add	r2, r2, #1024
 1397 0046 9342     		cmp	r3, r2
 1398 0048 21D1     		bne	.L148
  99:HW_Lib/AT32F435/bsp/Bsp_Uart.c ****         index = Bsp_UART_Port_8;
 1399              		.loc 1 99 15 view .LVU408
 1400 004a 1348     		ldr	r0, .L150+4
 1401              	.LVL159:
 100:HW_Lib/AT32F435/bsp/Bsp_Uart.c ****     }
 1402              		.loc 1 100 15 view .LVU409
 1403 004c 0824     		movs	r4, #8
 1404 004e 04E0     		b	.L138
 1405              	.LVL160:
 1406              	.L141:
  64:HW_Lib/AT32F435/bsp/Bsp_Uart.c ****         index = Bsp_UART_Port_1;
 1407              		.loc 1 64 15 view .LVU410
 1408 0050 1248     		ldr	r0, .L150+8
 1409              	.LVL161:
  65:HW_Lib/AT32F435/bsp/Bsp_Uart.c ****     }
 1410              		.loc 1 65 15 view .LVU411
 1411 0052 0124     		movs	r4, #1
 1412 0054 01E0     		b	.L138
 1413              	.LVL162:
 1414              	.L142:
  69:HW_Lib/AT32F435/bsp/Bsp_Uart.c ****         index = Bsp_UART_Port_2;
 1415              		.loc 1 69 15 view .LVU412
ARM GAS  C:\Users\8bit\AppData\Local\Temp\ccJGR6pR.s 			page 43


 1416 0056 1248     		ldr	r0, .L150+12
 1417              	.LVL163:
  70:HW_Lib/AT32F435/bsp/Bsp_Uart.c ****     }
 1418              		.loc 1 70 15 view .LVU413
 1419 0058 0224     		movs	r4, #2
 1420              	.L138:
 1421              	.LVL164:
 105:HW_Lib/AT32F435/bsp/Bsp_Uart.c ****     return index;
 1422              		.loc 1 105 5 is_stmt 1 view .LVU414
 1423 005a 0121     		movs	r1, #1
 1424 005c FFF7FEFF 		bl	crm_periph_clock_enable
 1425              	.LVL165:
 106:HW_Lib/AT32F435/bsp/Bsp_Uart.c **** }
 1426              		.loc 1 106 5 view .LVU415
 1427              	.L136:
 107:HW_Lib/AT32F435/bsp/Bsp_Uart.c **** 
 1428              		.loc 1 107 1 is_stmt 0 view .LVU416
 1429 0060 2046     		mov	r0, r4
 1430 0062 10BD     		pop	{r4, pc}
 1431              	.LVL166:
 1432              	.L143:
  74:HW_Lib/AT32F435/bsp/Bsp_Uart.c ****         index = Bsp_UART_Port_3;
 1433              		.loc 1 74 15 view .LVU417
 1434 0064 0F48     		ldr	r0, .L150+16
 1435              	.LVL167:
  75:HW_Lib/AT32F435/bsp/Bsp_Uart.c ****     }
 1436              		.loc 1 75 15 view .LVU418
 1437 0066 0324     		movs	r4, #3
 1438 0068 F7E7     		b	.L138
 1439              	.LVL168:
 1440              	.L144:
  79:HW_Lib/AT32F435/bsp/Bsp_Uart.c ****         index = Bsp_UART_Port_4;
 1441              		.loc 1 79 15 view .LVU419
 1442 006a 0F48     		ldr	r0, .L150+20
 1443              	.LVL169:
  80:HW_Lib/AT32F435/bsp/Bsp_Uart.c ****     }
 1444              		.loc 1 80 15 view .LVU420
 1445 006c 0424     		movs	r4, #4
 1446 006e F4E7     		b	.L138
 1447              	.LVL170:
 1448              	.L145:
  84:HW_Lib/AT32F435/bsp/Bsp_Uart.c ****         index = Bsp_UART_Port_5;
 1449              		.loc 1 84 15 view .LVU421
 1450 0070 0E48     		ldr	r0, .L150+24
 1451              	.LVL171:
  85:HW_Lib/AT32F435/bsp/Bsp_Uart.c ****     }
 1452              		.loc 1 85 15 view .LVU422
 1453 0072 0524     		movs	r4, #5
 1454 0074 F1E7     		b	.L138
 1455              	.LVL172:
 1456              	.L146:
  89:HW_Lib/AT32F435/bsp/Bsp_Uart.c ****         index = Bsp_UART_Port_6;
 1457              		.loc 1 89 15 view .LVU423
 1458 0076 0E48     		ldr	r0, .L150+28
 1459              	.LVL173:
  90:HW_Lib/AT32F435/bsp/Bsp_Uart.c ****     }
 1460              		.loc 1 90 15 view .LVU424
ARM GAS  C:\Users\8bit\AppData\Local\Temp\ccJGR6pR.s 			page 44


 1461 0078 0624     		movs	r4, #6
 1462 007a EEE7     		b	.L138
 1463              	.LVL174:
 1464              	.L147:
  94:HW_Lib/AT32F435/bsp/Bsp_Uart.c ****         index = Bsp_UART_Port_7;
 1465              		.loc 1 94 15 view .LVU425
 1466 007c 0D48     		ldr	r0, .L150+32
 1467              	.LVL175:
  95:HW_Lib/AT32F435/bsp/Bsp_Uart.c ****     }
 1468              		.loc 1 95 15 view .LVU426
 1469 007e 0724     		movs	r4, #7
 1470 0080 EBE7     		b	.L138
 1471              	.LVL176:
 1472              	.L139:
  60:HW_Lib/AT32F435/bsp/Bsp_Uart.c **** 
 1473              		.loc 1 60 16 view .LVU427
 1474 0082 4FF0FF34 		mov	r4, #-1
 1475 0086 EBE7     		b	.L136
 1476              	.L140:
 1477 0088 4FF0FF34 		mov	r4, #-1
 1478 008c E8E7     		b	.L136
 1479              	.L148:
 103:HW_Lib/AT32F435/bsp/Bsp_Uart.c **** 
 1480              		.loc 1 103 16 view .LVU428
 1481 008e 4FF0FF34 		mov	r4, #-1
 1482 0092 E5E7     		b	.L136
 1483              	.L151:
 1484              		.align	2
 1485              	.L150:
 1486 0094 00100140 		.word	1073811456
 1487 0098 1F004000 		.word	4194335
 1488 009c 04004400 		.word	4456452
 1489 00a0 11004000 		.word	4194321
 1490 00a4 12004000 		.word	4194322
 1491 00a8 13004000 		.word	4194323
 1492 00ac 14004000 		.word	4194324
 1493 00b0 05004400 		.word	4456453
 1494 00b4 1E004000 		.word	4194334
 1495              		.cfi_endproc
 1496              	.LFE133:
 1498              		.section	.text.BspUart_Init_DMA,"ax",%progbits
 1499              		.align	1
 1500              		.syntax unified
 1501              		.thumb
 1502              		.thumb_func
 1504              	BspUart_Init_DMA:
 1505              	.LVL177:
 1506              	.LFB136:
 243:HW_Lib/AT32F435/bsp/Bsp_Uart.c ****     int index = 0;
 1507              		.loc 1 243 1 is_stmt 1 view -0
 1508              		.cfi_startproc
 1509              		@ args = 0, pretend = 0, frame = 40
 1510              		@ frame_needed = 0, uses_anonymous_args = 0
 243:HW_Lib/AT32F435/bsp/Bsp_Uart.c ****     int index = 0;
 1511              		.loc 1 243 1 is_stmt 0 view .LVU430
 1512 0000 2DE9F043 		push	{r4, r5, r6, r7, r8, r9, lr}
 1513              	.LCFI13:
ARM GAS  C:\Users\8bit\AppData\Local\Temp\ccJGR6pR.s 			page 45


 1514              		.cfi_def_cfa_offset 28
 1515              		.cfi_offset 4, -28
 1516              		.cfi_offset 5, -24
 1517              		.cfi_offset 6, -20
 1518              		.cfi_offset 7, -16
 1519              		.cfi_offset 8, -12
 1520              		.cfi_offset 9, -8
 1521              		.cfi_offset 14, -4
 1522 0004 8DB0     		sub	sp, sp, #52
 1523              	.LCFI14:
 1524              		.cfi_def_cfa_offset 80
 244:HW_Lib/AT32F435/bsp/Bsp_Uart.c ****     dma_init_type tx_dma;
 1525              		.loc 1 244 5 is_stmt 1 view .LVU431
 1526              	.LVL178:
 245:HW_Lib/AT32F435/bsp/Bsp_Uart.c ****     dma_init_type rx_dma;
 1527              		.loc 1 245 5 view .LVU432
 246:HW_Lib/AT32F435/bsp/Bsp_Uart.c **** 
 1528              		.loc 1 246 5 view .LVU433
 248:HW_Lib/AT32F435/bsp/Bsp_Uart.c ****         (obj->instance == NULL))
 1529              		.loc 1 248 5 view .LVU434
 248:HW_Lib/AT32F435/bsp/Bsp_Uart.c ****         (obj->instance == NULL))
 1530              		.loc 1 248 8 is_stmt 0 view .LVU435
 1531 0006 0028     		cmp	r0, #0
 1532 0008 00F0D080 		beq	.L156
 1533 000c 0446     		mov	r4, r0
 249:HW_Lib/AT32F435/bsp/Bsp_Uart.c ****         return Bspuart_None_Index;
 1534              		.loc 1 249 13 discriminator 1 view .LVU436
 1535 000e 8368     		ldr	r3, [r0, #8]
 248:HW_Lib/AT32F435/bsp/Bsp_Uart.c ****         (obj->instance == NULL))
 1536              		.loc 1 248 23 discriminator 1 view .LVU437
 1537 0010 002B     		cmp	r3, #0
 1538 0012 00F0CE80 		beq	.L157
 252:HW_Lib/AT32F435/bsp/Bsp_Uart.c ****     {
 1539              		.loc 1 252 5 is_stmt 1 view .LVU438
 252:HW_Lib/AT32F435/bsp/Bsp_Uart.c ****     {
 1540              		.loc 1 252 8 is_stmt 0 view .LVU439
 1541 0016 6D4A     		ldr	r2, .L169
 1542 0018 9342     		cmp	r3, r2
 1543 001a 24D0     		beq	.L158
 256:HW_Lib/AT32F435/bsp/Bsp_Uart.c ****     {
 1544              		.loc 1 256 10 is_stmt 1 view .LVU440
 256:HW_Lib/AT32F435/bsp/Bsp_Uart.c ****     {
 1545              		.loc 1 256 13 is_stmt 0 view .LVU441
 1546 001c A2F54C42 		sub	r2, r2, #52224
 1547 0020 9342     		cmp	r3, r2
 1548 0022 00F0B780 		beq	.L159
 260:HW_Lib/AT32F435/bsp/Bsp_Uart.c ****     {
 1549              		.loc 1 260 10 is_stmt 1 view .LVU442
 260:HW_Lib/AT32F435/bsp/Bsp_Uart.c ****     {
 1550              		.loc 1 260 13 is_stmt 0 view .LVU443
 1551 0026 02F58062 		add	r2, r2, #1024
 1552 002a 9342     		cmp	r3, r2
 1553 002c 00F0B480 		beq	.L160
 264:HW_Lib/AT32F435/bsp/Bsp_Uart.c ****     {
 1554              		.loc 1 264 10 is_stmt 1 view .LVU444
 264:HW_Lib/AT32F435/bsp/Bsp_Uart.c ****     {
 1555              		.loc 1 264 13 is_stmt 0 view .LVU445
ARM GAS  C:\Users\8bit\AppData\Local\Temp\ccJGR6pR.s 			page 46


 1556 0030 02F58062 		add	r2, r2, #1024
 1557 0034 9342     		cmp	r3, r2
 1558 0036 00F0B180 		beq	.L161
 268:HW_Lib/AT32F435/bsp/Bsp_Uart.c ****     {
 1559              		.loc 1 268 10 is_stmt 1 view .LVU446
 268:HW_Lib/AT32F435/bsp/Bsp_Uart.c ****     {
 1560              		.loc 1 268 13 is_stmt 0 view .LVU447
 1561 003a 02F58062 		add	r2, r2, #1024
 1562 003e 9342     		cmp	r3, r2
 1563 0040 00F0AE80 		beq	.L162
 272:HW_Lib/AT32F435/bsp/Bsp_Uart.c ****     {
 1564              		.loc 1 272 10 is_stmt 1 view .LVU448
 272:HW_Lib/AT32F435/bsp/Bsp_Uart.c ****     {
 1565              		.loc 1 272 13 is_stmt 0 view .LVU449
 1566 0044 02F54442 		add	r2, r2, #50176
 1567 0048 9342     		cmp	r3, r2
 1568 004a 00F0AB80 		beq	.L163
 276:HW_Lib/AT32F435/bsp/Bsp_Uart.c ****     {
 1569              		.loc 1 276 10 is_stmt 1 view .LVU450
 276:HW_Lib/AT32F435/bsp/Bsp_Uart.c ****     {
 1570              		.loc 1 276 13 is_stmt 0 view .LVU451
 1571 004e A2F51C42 		sub	r2, r2, #39936
 1572 0052 9342     		cmp	r3, r2
 1573 0054 00F0A880 		beq	.L164
 280:HW_Lib/AT32F435/bsp/Bsp_Uart.c ****     {
 1574              		.loc 1 280 10 is_stmt 1 view .LVU452
 280:HW_Lib/AT32F435/bsp/Bsp_Uart.c ****     {
 1575              		.loc 1 280 13 is_stmt 0 view .LVU453
 1576 0058 02F58062 		add	r2, r2, #1024
 1577 005c 9342     		cmp	r3, r2
 1578 005e 40F0AB80 		bne	.L165
 282:HW_Lib/AT32F435/bsp/Bsp_Uart.c ****     }
 1579              		.loc 1 282 15 view .LVU454
 1580 0062 0826     		movs	r6, #8
 1581 0064 00E0     		b	.L154
 1582              	.L158:
 254:HW_Lib/AT32F435/bsp/Bsp_Uart.c ****     }
 1583              		.loc 1 254 15 view .LVU455
 1584 0066 0126     		movs	r6, #1
 1585              	.L154:
 1586              	.LVL179:
 288:HW_Lib/AT32F435/bsp/Bsp_Uart.c ****     if(obj->rx_dma_hdl)
 1587              		.loc 1 288 5 is_stmt 1 view .LVU456
 288:HW_Lib/AT32F435/bsp/Bsp_Uart.c ****     if(obj->rx_dma_hdl)
 1588              		.loc 1 288 29 is_stmt 0 view .LVU457
 1589 0068 594B     		ldr	r3, .L169+4
 1590 006a 1B69     		ldr	r3, [r3, #16]
 288:HW_Lib/AT32F435/bsp/Bsp_Uart.c ****     if(obj->rx_dma_hdl)
 1591              		.loc 1 288 23 view .LVU458
 1592 006c 94F91910 		ldrsb	r1, [r4, #25]
 1593 0070 94F91800 		ldrsb	r0, [r4, #24]
 1594              	.LVL180:
 288:HW_Lib/AT32F435/bsp/Bsp_Uart.c ****     if(obj->rx_dma_hdl)
 1595              		.loc 1 288 23 view .LVU459
 1596 0074 9847     		blx	r3
 1597              	.LVL181:
 288:HW_Lib/AT32F435/bsp/Bsp_Uart.c ****     if(obj->rx_dma_hdl)
ARM GAS  C:\Users\8bit\AppData\Local\Temp\ccJGR6pR.s 			page 47


 1598              		.loc 1 288 21 view .LVU460
 1599 0076 E061     		str	r0, [r4, #28]
 289:HW_Lib/AT32F435/bsp/Bsp_Uart.c ****     {
 1600              		.loc 1 289 5 is_stmt 1 view .LVU461
 289:HW_Lib/AT32F435/bsp/Bsp_Uart.c ****     {
 1601              		.loc 1 289 7 is_stmt 0 view .LVU462
 1602 0078 0028     		cmp	r0, #0
 1603 007a 44D0     		beq	.L155
 291:HW_Lib/AT32F435/bsp/Bsp_Uart.c ****             return BspUart_Clock_Error;
 1604              		.loc 1 291 9 is_stmt 1 view .LVU463
 291:HW_Lib/AT32F435/bsp/Bsp_Uart.c ****             return BspUart_Clock_Error;
 1605              		.loc 1 291 17 is_stmt 0 view .LVU464
 1606 007c 236C     		ldr	r3, [r4, #64]
 291:HW_Lib/AT32F435/bsp/Bsp_Uart.c ****             return BspUart_Clock_Error;
 1607              		.loc 1 291 12 view .LVU465
 1608 007e 002B     		cmp	r3, #0
 1609 0080 00F09D80 		beq	.L166
 291:HW_Lib/AT32F435/bsp/Bsp_Uart.c ****             return BspUart_Clock_Error;
 1610              		.loc 1 291 42 discriminator 1 view .LVU466
 1611 0084 B4F84430 		ldrh	r3, [r4, #68]
 291:HW_Lib/AT32F435/bsp/Bsp_Uart.c ****             return BspUart_Clock_Error;
 1612              		.loc 1 291 35 discriminator 1 view .LVU467
 1613 0088 002B     		cmp	r3, #0
 1614 008a 00F09B80 		beq	.L167
 294:HW_Lib/AT32F435/bsp/Bsp_Uart.c ****         dma_default_para_init(&rx_dma);
 1615              		.loc 1 294 9 is_stmt 1 view .LVU468
 1616 008e FFF7FEFF 		bl	dma_reset
 1617              	.LVL182:
 295:HW_Lib/AT32F435/bsp/Bsp_Uart.c **** 
 1618              		.loc 1 295 9 view .LVU469
 1619 0092 02A8     		add	r0, sp, #8
 1620 0094 FFF7FEFF 		bl	dma_default_para_init
 1621              	.LVL183:
 297:HW_Lib/AT32F435/bsp/Bsp_Uart.c ****         rx_dma.direction = DMA_DIR_PERIPHERAL_TO_MEMORY;
 1622              		.loc 1 297 9 view .LVU470
 297:HW_Lib/AT32F435/bsp/Bsp_Uart.c ****         rx_dma.direction = DMA_DIR_PERIPHERAL_TO_MEMORY;
 1623              		.loc 1 297 33 is_stmt 0 view .LVU471
 1624 0098 B4F84430 		ldrh	r3, [r4, #68]
 297:HW_Lib/AT32F435/bsp/Bsp_Uart.c ****         rx_dma.direction = DMA_DIR_PERIPHERAL_TO_MEMORY;
 1625              		.loc 1 297 28 view .LVU472
 1626 009c ADF81230 		strh	r3, [sp, #18]	@ movhi
 298:HW_Lib/AT32F435/bsp/Bsp_Uart.c ****         rx_dma.memory_base_addr = (uint32_t)obj->rx_buf;
 1627              		.loc 1 298 9 is_stmt 1 view .LVU473
 298:HW_Lib/AT32F435/bsp/Bsp_Uart.c ****         rx_dma.memory_base_addr = (uint32_t)obj->rx_buf;
 1628              		.loc 1 298 26 is_stmt 0 view .LVU474
 1629 00a0 0025     		movs	r5, #0
 1630 00a2 ADF81050 		strh	r5, [sp, #16]	@ movhi
 299:HW_Lib/AT32F435/bsp/Bsp_Uart.c ****         rx_dma.memory_data_width = DMA_MEMORY_DATA_WIDTH_BYTE;
 1631              		.loc 1 299 9 is_stmt 1 view .LVU475
 299:HW_Lib/AT32F435/bsp/Bsp_Uart.c ****         rx_dma.memory_data_width = DMA_MEMORY_DATA_WIDTH_BYTE;
 1632              		.loc 1 299 48 is_stmt 0 view .LVU476
 1633 00a6 236C     		ldr	r3, [r4, #64]
 299:HW_Lib/AT32F435/bsp/Bsp_Uart.c ****         rx_dma.memory_data_width = DMA_MEMORY_DATA_WIDTH_BYTE;
 1634              		.loc 1 299 33 view .LVU477
 1635 00a8 0393     		str	r3, [sp, #12]
 300:HW_Lib/AT32F435/bsp/Bsp_Uart.c ****         rx_dma.memory_inc_enable = TRUE;
 1636              		.loc 1 300 9 is_stmt 1 view .LVU478
ARM GAS  C:\Users\8bit\AppData\Local\Temp\ccJGR6pR.s 			page 48


 300:HW_Lib/AT32F435/bsp/Bsp_Uart.c ****         rx_dma.memory_inc_enable = TRUE;
 1637              		.loc 1 300 34 is_stmt 0 view .LVU479
 1638 00aa 8DF81750 		strb	r5, [sp, #23]
 301:HW_Lib/AT32F435/bsp/Bsp_Uart.c ****         rx_dma.peripheral_base_addr = (uint32_t)&(To_Uart_Instance(obj->instance)->dt);
 1639              		.loc 1 301 9 is_stmt 1 view .LVU480
 301:HW_Lib/AT32F435/bsp/Bsp_Uart.c ****         rx_dma.peripheral_base_addr = (uint32_t)&(To_Uart_Instance(obj->instance)->dt);
 1640              		.loc 1 301 34 is_stmt 0 view .LVU481
 1641 00ae 4FF00108 		mov	r8, #1
 1642 00b2 8DF81580 		strb	r8, [sp, #21]
 302:HW_Lib/AT32F435/bsp/Bsp_Uart.c ****         rx_dma.peripheral_data_width = DMA_PERIPHERAL_DATA_WIDTH_BYTE;
 1643              		.loc 1 302 9 is_stmt 1 view .LVU482
 302:HW_Lib/AT32F435/bsp/Bsp_Uart.c ****         rx_dma.peripheral_data_width = DMA_PERIPHERAL_DATA_WIDTH_BYTE;
 1644              		.loc 1 302 51 is_stmt 0 view .LVU483
 1645 00b6 A368     		ldr	r3, [r4, #8]
 302:HW_Lib/AT32F435/bsp/Bsp_Uart.c ****         rx_dma.peripheral_data_width = DMA_PERIPHERAL_DATA_WIDTH_BYTE;
 1646              		.loc 1 302 49 view .LVU484
 1647 00b8 0433     		adds	r3, r3, #4
 302:HW_Lib/AT32F435/bsp/Bsp_Uart.c ****         rx_dma.peripheral_data_width = DMA_PERIPHERAL_DATA_WIDTH_BYTE;
 1648              		.loc 1 302 37 view .LVU485
 1649 00ba 0293     		str	r3, [sp, #8]
 303:HW_Lib/AT32F435/bsp/Bsp_Uart.c ****         rx_dma.peripheral_inc_enable = FALSE;
 1650              		.loc 1 303 9 is_stmt 1 view .LVU486
 303:HW_Lib/AT32F435/bsp/Bsp_Uart.c ****         rx_dma.peripheral_inc_enable = FALSE;
 1651              		.loc 1 303 38 is_stmt 0 view .LVU487
 1652 00bc 8DF81650 		strb	r5, [sp, #22]
 304:HW_Lib/AT32F435/bsp/Bsp_Uart.c ****         rx_dma.priority = DMA_PRIORITY_HIGH;
 1653              		.loc 1 304 9 is_stmt 1 view .LVU488
 304:HW_Lib/AT32F435/bsp/Bsp_Uart.c ****         rx_dma.priority = DMA_PRIORITY_HIGH;
 1654              		.loc 1 304 38 is_stmt 0 view .LVU489
 1655 00c0 8DF81450 		strb	r5, [sp, #20]
 305:HW_Lib/AT32F435/bsp/Bsp_Uart.c ****         rx_dma.loop_mode_enable = FALSE;
 1656              		.loc 1 305 9 is_stmt 1 view .LVU490
 305:HW_Lib/AT32F435/bsp/Bsp_Uart.c ****         rx_dma.loop_mode_enable = FALSE;
 1657              		.loc 1 305 25 is_stmt 0 view .LVU491
 1658 00c4 0223     		movs	r3, #2
 1659 00c6 8DF81930 		strb	r3, [sp, #25]
 306:HW_Lib/AT32F435/bsp/Bsp_Uart.c **** 
 1660              		.loc 1 306 9 is_stmt 1 view .LVU492
 306:HW_Lib/AT32F435/bsp/Bsp_Uart.c **** 
 1661              		.loc 1 306 33 is_stmt 0 view .LVU493
 1662 00ca 8DF81850 		strb	r5, [sp, #24]
 308:HW_Lib/AT32F435/bsp/Bsp_Uart.c ****         BspUart_RxDMA_IrqObj[index].cus_data = (void *)obj;
 1663              		.loc 1 308 9 is_stmt 1 view .LVU494
 308:HW_Lib/AT32F435/bsp/Bsp_Uart.c ****         BspUart_RxDMA_IrqObj[index].cus_data = (void *)obj;
 1664              		.loc 1 308 62 is_stmt 0 view .LVU495
 1665 00ce 414F     		ldr	r7, .L169+8
 1666 00d0 414B     		ldr	r3, .L169+12
 1667 00d2 47F83630 		str	r3, [r7, r6, lsl #3]
 309:HW_Lib/AT32F435/bsp/Bsp_Uart.c **** 
 1668              		.loc 1 309 9 is_stmt 1 view .LVU496
 309:HW_Lib/AT32F435/bsp/Bsp_Uart.c **** 
 1669              		.loc 1 309 46 is_stmt 0 view .LVU497
 1670 00d6 07EBC607 		add	r7, r7, r6, lsl #3
 1671 00da 7C60     		str	r4, [r7, #4]
 311:HW_Lib/AT32F435/bsp/Bsp_Uart.c ****         BspDMA.enable_irq(obj->rx_dma, obj->rx_stream, 5, 0, \
 1672              		.loc 1 311 9 is_stmt 1 view .LVU498
 1673 00dc 02A9     		add	r1, sp, #8
ARM GAS  C:\Users\8bit\AppData\Local\Temp\ccJGR6pR.s 			page 49


 1674 00de E069     		ldr	r0, [r4, #28]
 1675 00e0 FFF7FEFF 		bl	dma_init
 1676              	.LVL184:
 312:HW_Lib/AT32F435/bsp/Bsp_Uart.c ****                           BspUart_Get_MuxSeq(To_Uart_Instance(obj->instance), \
 1677              		.loc 1 312 9 view .LVU499
 312:HW_Lib/AT32F435/bsp/Bsp_Uart.c ****                           BspUart_Get_MuxSeq(To_Uart_Instance(obj->instance), \
 1678              		.loc 1 312 15 is_stmt 0 view .LVU500
 1679 00e4 3A4B     		ldr	r3, .L169+4
 1680 00e6 D3F81490 		ldr	r9, [r3, #20]
 313:HW_Lib/AT32F435/bsp/Bsp_Uart.c ****                           Uart_Dir_Rx, obj->rx_dma_hdl), \
 1681              		.loc 1 313 27 view .LVU501
 1682 00ea E269     		ldr	r2, [r4, #28]
 1683 00ec 4146     		mov	r1, r8
 1684 00ee A068     		ldr	r0, [r4, #8]
 1685 00f0 FFF7FEFF 		bl	BspUart_Get_MuxSeq
 1686              	.LVL185:
 312:HW_Lib/AT32F435/bsp/Bsp_Uart.c ****                           BspUart_Get_MuxSeq(To_Uart_Instance(obj->instance), \
 1687              		.loc 1 312 9 view .LVU502
 1688 00f4 0197     		str	r7, [sp, #4]
 1689 00f6 0090     		str	r0, [sp]
 1690 00f8 2B46     		mov	r3, r5
 1691 00fa 0522     		movs	r2, #5
 1692 00fc 94F91910 		ldrsb	r1, [r4, #25]
 1693 0100 94F91800 		ldrsb	r0, [r4, #24]
 1694 0104 C847     		blx	r9
 1695              	.LVL186:
 1696              	.L155:
 319:HW_Lib/AT32F435/bsp/Bsp_Uart.c ****     if(obj->tx_dma_hdl)
 1697              		.loc 1 319 5 is_stmt 1 view .LVU503
 319:HW_Lib/AT32F435/bsp/Bsp_Uart.c ****     if(obj->tx_dma_hdl)
 1698              		.loc 1 319 29 is_stmt 0 view .LVU504
 1699 0106 324B     		ldr	r3, .L169+4
 1700 0108 1B69     		ldr	r3, [r3, #16]
 319:HW_Lib/AT32F435/bsp/Bsp_Uart.c ****     if(obj->tx_dma_hdl)
 1701              		.loc 1 319 23 view .LVU505
 1702 010a 94F91110 		ldrsb	r1, [r4, #17]
 1703 010e 94F91000 		ldrsb	r0, [r4, #16]
 1704 0112 9847     		blx	r3
 1705              	.LVL187:
 319:HW_Lib/AT32F435/bsp/Bsp_Uart.c ****     if(obj->tx_dma_hdl)
 1706              		.loc 1 319 21 view .LVU506
 1707 0114 6061     		str	r0, [r4, #20]
 320:HW_Lib/AT32F435/bsp/Bsp_Uart.c ****     {
 1708              		.loc 1 320 5 is_stmt 1 view .LVU507
 320:HW_Lib/AT32F435/bsp/Bsp_Uart.c ****     {
 1709              		.loc 1 320 7 is_stmt 0 view .LVU508
 1710 0116 0028     		cmp	r0, #0
 1711 0118 38D0     		beq	.L152
 322:HW_Lib/AT32F435/bsp/Bsp_Uart.c ****         dma_default_para_init(&tx_dma);
 1712              		.loc 1 322 9 is_stmt 1 view .LVU509
 1713 011a FFF7FEFF 		bl	dma_reset
 1714              	.LVL188:
 323:HW_Lib/AT32F435/bsp/Bsp_Uart.c **** 
 1715              		.loc 1 323 9 view .LVU510
 1716 011e 07A8     		add	r0, sp, #28
 1717 0120 FFF7FEFF 		bl	dma_default_para_init
 1718              	.LVL189:
ARM GAS  C:\Users\8bit\AppData\Local\Temp\ccJGR6pR.s 			page 50


 325:HW_Lib/AT32F435/bsp/Bsp_Uart.c ****         tx_dma.direction = DMA_DIR_MEMORY_TO_PERIPHERAL;
 1719              		.loc 1 325 9 view .LVU511
 325:HW_Lib/AT32F435/bsp/Bsp_Uart.c ****         tx_dma.direction = DMA_DIR_MEMORY_TO_PERIPHERAL;
 1720              		.loc 1 325 28 is_stmt 0 view .LVU512
 1721 0124 0025     		movs	r5, #0
 1722 0126 ADF82650 		strh	r5, [sp, #38]	@ movhi
 326:HW_Lib/AT32F435/bsp/Bsp_Uart.c ****         tx_dma.memory_base_addr = (uint32_t)0;
 1723              		.loc 1 326 9 is_stmt 1 view .LVU513
 326:HW_Lib/AT32F435/bsp/Bsp_Uart.c ****         tx_dma.memory_base_addr = (uint32_t)0;
 1724              		.loc 1 326 26 is_stmt 0 view .LVU514
 1725 012a 1023     		movs	r3, #16
 1726 012c ADF82430 		strh	r3, [sp, #36]	@ movhi
 327:HW_Lib/AT32F435/bsp/Bsp_Uart.c ****         tx_dma.memory_data_width = DMA_MEMORY_DATA_WIDTH_BYTE;
 1727              		.loc 1 327 9 is_stmt 1 view .LVU515
 327:HW_Lib/AT32F435/bsp/Bsp_Uart.c ****         tx_dma.memory_data_width = DMA_MEMORY_DATA_WIDTH_BYTE;
 1728              		.loc 1 327 33 is_stmt 0 view .LVU516
 1729 0130 0895     		str	r5, [sp, #32]
 328:HW_Lib/AT32F435/bsp/Bsp_Uart.c ****         tx_dma.memory_inc_enable = TRUE;
 1730              		.loc 1 328 9 is_stmt 1 view .LVU517
 328:HW_Lib/AT32F435/bsp/Bsp_Uart.c ****         tx_dma.memory_inc_enable = TRUE;
 1731              		.loc 1 328 34 is_stmt 0 view .LVU518
 1732 0132 8DF82B50 		strb	r5, [sp, #43]
 329:HW_Lib/AT32F435/bsp/Bsp_Uart.c ****         tx_dma.peripheral_base_addr = (uint32_t)&(To_Uart_Instance(obj->instance)->dt);
 1733              		.loc 1 329 9 is_stmt 1 view .LVU519
 329:HW_Lib/AT32F435/bsp/Bsp_Uart.c ****         tx_dma.peripheral_base_addr = (uint32_t)&(To_Uart_Instance(obj->instance)->dt);
 1734              		.loc 1 329 34 is_stmt 0 view .LVU520
 1735 0136 0123     		movs	r3, #1
 1736 0138 8DF82930 		strb	r3, [sp, #41]
 330:HW_Lib/AT32F435/bsp/Bsp_Uart.c ****         tx_dma.peripheral_data_width = DMA_PERIPHERAL_DATA_WIDTH_BYTE;
 1737              		.loc 1 330 9 is_stmt 1 view .LVU521
 330:HW_Lib/AT32F435/bsp/Bsp_Uart.c ****         tx_dma.peripheral_data_width = DMA_PERIPHERAL_DATA_WIDTH_BYTE;
 1738              		.loc 1 330 51 is_stmt 0 view .LVU522
 1739 013c A368     		ldr	r3, [r4, #8]
 330:HW_Lib/AT32F435/bsp/Bsp_Uart.c ****         tx_dma.peripheral_data_width = DMA_PERIPHERAL_DATA_WIDTH_BYTE;
 1740              		.loc 1 330 49 view .LVU523
 1741 013e 0433     		adds	r3, r3, #4
 330:HW_Lib/AT32F435/bsp/Bsp_Uart.c ****         tx_dma.peripheral_data_width = DMA_PERIPHERAL_DATA_WIDTH_BYTE;
 1742              		.loc 1 330 37 view .LVU524
 1743 0140 0793     		str	r3, [sp, #28]
 331:HW_Lib/AT32F435/bsp/Bsp_Uart.c ****         tx_dma.peripheral_inc_enable = FALSE;
 1744              		.loc 1 331 9 is_stmt 1 view .LVU525
 331:HW_Lib/AT32F435/bsp/Bsp_Uart.c ****         tx_dma.peripheral_inc_enable = FALSE;
 1745              		.loc 1 331 38 is_stmt 0 view .LVU526
 1746 0142 8DF82A50 		strb	r5, [sp, #42]
 332:HW_Lib/AT32F435/bsp/Bsp_Uart.c ****         tx_dma.priority = DMA_PRIORITY_HIGH;
 1747              		.loc 1 332 9 is_stmt 1 view .LVU527
 332:HW_Lib/AT32F435/bsp/Bsp_Uart.c ****         tx_dma.priority = DMA_PRIORITY_HIGH;
 1748              		.loc 1 332 38 is_stmt 0 view .LVU528
 1749 0146 8DF82850 		strb	r5, [sp, #40]
 333:HW_Lib/AT32F435/bsp/Bsp_Uart.c ****         tx_dma.loop_mode_enable = FALSE;
 1750              		.loc 1 333 9 is_stmt 1 view .LVU529
 333:HW_Lib/AT32F435/bsp/Bsp_Uart.c ****         tx_dma.loop_mode_enable = FALSE;
 1751              		.loc 1 333 25 is_stmt 0 view .LVU530
 1752 014a 0223     		movs	r3, #2
 1753 014c 8DF82D30 		strb	r3, [sp, #45]
 334:HW_Lib/AT32F435/bsp/Bsp_Uart.c **** 
 1754              		.loc 1 334 9 is_stmt 1 view .LVU531
ARM GAS  C:\Users\8bit\AppData\Local\Temp\ccJGR6pR.s 			page 51


 334:HW_Lib/AT32F435/bsp/Bsp_Uart.c **** 
 1755              		.loc 1 334 33 is_stmt 0 view .LVU532
 1756 0150 8DF82C50 		strb	r5, [sp, #44]
 336:HW_Lib/AT32F435/bsp/Bsp_Uart.c ****         BspUart_TxDMA_IrqObj[index].cus_data = (void *)obj;
 1757              		.loc 1 336 9 is_stmt 1 view .LVU533
 336:HW_Lib/AT32F435/bsp/Bsp_Uart.c ****         BspUart_TxDMA_IrqObj[index].cus_data = (void *)obj;
 1758              		.loc 1 336 62 is_stmt 0 view .LVU534
 1759 0154 214F     		ldr	r7, .L169+16
 1760 0156 224B     		ldr	r3, .L169+20
 1761 0158 47F83630 		str	r3, [r7, r6, lsl #3]
 337:HW_Lib/AT32F435/bsp/Bsp_Uart.c **** 
 1762              		.loc 1 337 9 is_stmt 1 view .LVU535
 337:HW_Lib/AT32F435/bsp/Bsp_Uart.c **** 
 1763              		.loc 1 337 46 is_stmt 0 view .LVU536
 1764 015c 07EBC607 		add	r7, r7, r6, lsl #3
 1765 0160 7C60     		str	r4, [r7, #4]
 339:HW_Lib/AT32F435/bsp/Bsp_Uart.c ****         
 1766              		.loc 1 339 9 is_stmt 1 view .LVU537
 1767 0162 07A9     		add	r1, sp, #28
 1768 0164 6069     		ldr	r0, [r4, #20]
 1769 0166 FFF7FEFF 		bl	dma_init
 1770              	.LVL190:
 341:HW_Lib/AT32F435/bsp/Bsp_Uart.c ****                           BspUart_Get_MuxSeq(To_Uart_Instance(obj->instance), \
 1771              		.loc 1 341 9 view .LVU538
 341:HW_Lib/AT32F435/bsp/Bsp_Uart.c ****                           BspUart_Get_MuxSeq(To_Uart_Instance(obj->instance), \
 1772              		.loc 1 341 15 is_stmt 0 view .LVU539
 1773 016a 194B     		ldr	r3, .L169+4
 1774 016c D3F81480 		ldr	r8, [r3, #20]
 342:HW_Lib/AT32F435/bsp/Bsp_Uart.c ****                           Uart_Dir_Tx, obj->tx_dma_hdl), \
 1775              		.loc 1 342 27 view .LVU540
 1776 0170 6269     		ldr	r2, [r4, #20]
 1777 0172 2946     		mov	r1, r5
 1778 0174 A068     		ldr	r0, [r4, #8]
 1779 0176 FFF7FEFF 		bl	BspUart_Get_MuxSeq
 1780              	.LVL191:
 341:HW_Lib/AT32F435/bsp/Bsp_Uart.c ****                           BspUart_Get_MuxSeq(To_Uart_Instance(obj->instance), \
 1781              		.loc 1 341 9 view .LVU541
 1782 017a 0197     		str	r7, [sp, #4]
 1783 017c 0090     		str	r0, [sp]
 1784 017e 2B46     		mov	r3, r5
 1785 0180 0522     		movs	r2, #5
 1786 0182 94F91110 		ldrsb	r1, [r4, #17]
 1787 0186 94F91000 		ldrsb	r0, [r4, #16]
 1788 018a C047     		blx	r8
 1789              	.LVL192:
 1790              	.L152:
 348:HW_Lib/AT32F435/bsp/Bsp_Uart.c **** 
 1791              		.loc 1 348 1 view .LVU542
 1792 018c 3046     		mov	r0, r6
 1793 018e 0DB0     		add	sp, sp, #52
 1794              	.LCFI15:
 1795              		.cfi_remember_state
 1796              		.cfi_def_cfa_offset 28
 1797              		@ sp needed
 1798 0190 BDE8F083 		pop	{r4, r5, r6, r7, r8, r9, pc}
 1799              	.LVL193:
 1800              	.L159:
ARM GAS  C:\Users\8bit\AppData\Local\Temp\ccJGR6pR.s 			page 52


 1801              	.LCFI16:
 1802              		.cfi_restore_state
 258:HW_Lib/AT32F435/bsp/Bsp_Uart.c ****     }
 1803              		.loc 1 258 15 view .LVU543
 1804 0194 0226     		movs	r6, #2
 1805 0196 67E7     		b	.L154
 1806              	.L160:
 262:HW_Lib/AT32F435/bsp/Bsp_Uart.c ****     }
 1807              		.loc 1 262 15 view .LVU544
 1808 0198 0326     		movs	r6, #3
 1809 019a 65E7     		b	.L154
 1810              	.L161:
 266:HW_Lib/AT32F435/bsp/Bsp_Uart.c ****     }
 1811              		.loc 1 266 15 view .LVU545
 1812 019c 0426     		movs	r6, #4
 1813 019e 63E7     		b	.L154
 1814              	.L162:
 270:HW_Lib/AT32F435/bsp/Bsp_Uart.c ****     }
 1815              		.loc 1 270 15 view .LVU546
 1816 01a0 0526     		movs	r6, #5
 1817 01a2 61E7     		b	.L154
 1818              	.L163:
 274:HW_Lib/AT32F435/bsp/Bsp_Uart.c ****     }
 1819              		.loc 1 274 15 view .LVU547
 1820 01a4 0626     		movs	r6, #6
 1821 01a6 5FE7     		b	.L154
 1822              	.L164:
 278:HW_Lib/AT32F435/bsp/Bsp_Uart.c ****     }
 1823              		.loc 1 278 15 view .LVU548
 1824 01a8 0726     		movs	r6, #7
 1825 01aa 5DE7     		b	.L154
 1826              	.L156:
 250:HW_Lib/AT32F435/bsp/Bsp_Uart.c **** 
 1827              		.loc 1 250 16 view .LVU549
 1828 01ac 4FF0FF36 		mov	r6, #-1
 1829 01b0 ECE7     		b	.L152
 1830              	.L157:
 250:HW_Lib/AT32F435/bsp/Bsp_Uart.c **** 
 1831              		.loc 1 250 16 view .LVU550
 1832 01b2 4FF0FF36 		mov	r6, #-1
 1833 01b6 E9E7     		b	.L152
 1834              	.L165:
 285:HW_Lib/AT32F435/bsp/Bsp_Uart.c **** 
 1835              		.loc 1 285 16 view .LVU551
 1836 01b8 4FF0FF36 		mov	r6, #-1
 1837 01bc E6E7     		b	.L152
 1838              	.LVL194:
 1839              	.L166:
 292:HW_Lib/AT32F435/bsp/Bsp_Uart.c **** 
 1840              		.loc 1 292 20 view .LVU552
 1841 01be 4FF0FF36 		mov	r6, #-1
 1842              	.LVL195:
 292:HW_Lib/AT32F435/bsp/Bsp_Uart.c **** 
 1843              		.loc 1 292 20 view .LVU553
 1844 01c2 E3E7     		b	.L152
 1845              	.LVL196:
 1846              	.L167:
ARM GAS  C:\Users\8bit\AppData\Local\Temp\ccJGR6pR.s 			page 53


 292:HW_Lib/AT32F435/bsp/Bsp_Uart.c **** 
 1847              		.loc 1 292 20 view .LVU554
 1848 01c4 4FF0FF36 		mov	r6, #-1
 1849              	.LVL197:
 292:HW_Lib/AT32F435/bsp/Bsp_Uart.c **** 
 1850              		.loc 1 292 20 view .LVU555
 1851 01c8 E0E7     		b	.L152
 1852              	.L170:
 1853 01ca 00BF     		.align	2
 1854              	.L169:
 1855 01cc 00100140 		.word	1073811456
 1856 01d0 00000000 		.word	BspDMA
 1857 01d4 00000000 		.word	.LANCHOR0
 1858 01d8 00000000 		.word	BspUart_DMA_RxCplt_Callback
 1859 01dc 00000000 		.word	.LANCHOR1
 1860 01e0 00000000 		.word	BspUart_DMA_TxCplt_Callback
 1861              		.cfi_endproc
 1862              	.LFE136:
 1864              		.section	.text.BspUart_Init,"ax",%progbits
 1865              		.align	1
 1866              		.syntax unified
 1867              		.thumb
 1868              		.thumb_func
 1870              	BspUart_Init:
 1871              	.LVL198:
 1872              	.LFB137:
 351:HW_Lib/AT32F435/bsp/Bsp_Uart.c ****     int port_index = -1;
 1873              		.loc 1 351 1 is_stmt 1 view -0
 1874              		.cfi_startproc
 1875              		@ args = 0, pretend = 0, frame = 0
 1876              		@ frame_needed = 0, uses_anonymous_args = 0
 352:HW_Lib/AT32F435/bsp/Bsp_Uart.c ****     bool tx_en = false;
 1877              		.loc 1 352 5 view .LVU557
 353:HW_Lib/AT32F435/bsp/Bsp_Uart.c ****     bool rx_en = false;
 1878              		.loc 1 353 5 view .LVU558
 354:HW_Lib/AT32F435/bsp/Bsp_Uart.c **** 
 1879              		.loc 1 354 5 view .LVU559
 356:HW_Lib/AT32F435/bsp/Bsp_Uart.c ****         (obj->instance == NULL))
 1880              		.loc 1 356 5 view .LVU560
 356:HW_Lib/AT32F435/bsp/Bsp_Uart.c ****         (obj->instance == NULL))
 1881              		.loc 1 356 8 is_stmt 0 view .LVU561
 1882 0000 0028     		cmp	r0, #0
 1883 0002 76D0     		beq	.L180
 351:HW_Lib/AT32F435/bsp/Bsp_Uart.c ****     int port_index = -1;
 1884              		.loc 1 351 1 discriminator 1 view .LVU562
 1885 0004 F8B5     		push	{r3, r4, r5, r6, r7, lr}
 1886              	.LCFI17:
 1887              		.cfi_def_cfa_offset 24
 1888              		.cfi_offset 3, -24
 1889              		.cfi_offset 4, -20
 1890              		.cfi_offset 5, -16
 1891              		.cfi_offset 6, -12
 1892              		.cfi_offset 7, -8
 1893              		.cfi_offset 14, -4
 1894 0006 0446     		mov	r4, r0
 357:HW_Lib/AT32F435/bsp/Bsp_Uart.c ****         return false;
 1895              		.loc 1 357 13 discriminator 1 view .LVU563
ARM GAS  C:\Users\8bit\AppData\Local\Temp\ccJGR6pR.s 			page 54


 1896 0008 8368     		ldr	r3, [r0, #8]
 356:HW_Lib/AT32F435/bsp/Bsp_Uart.c ****         (obj->instance == NULL))
 1897              		.loc 1 356 23 discriminator 1 view .LVU564
 1898 000a 002B     		cmp	r3, #0
 1899 000c 73D0     		beq	.L181
 360:HW_Lib/AT32F435/bsp/Bsp_Uart.c **** 
 1900              		.loc 1 360 5 is_stmt 1 view .LVU565
 360:HW_Lib/AT32F435/bsp/Bsp_Uart.c **** 
 1901              		.loc 1 360 18 is_stmt 0 view .LVU566
 1902 000e FFF7FEFF 		bl	BspUart_Init_Clock
 1903              	.LVL199:
 362:HW_Lib/AT32F435/bsp/Bsp_Uart.c ****         return false;
 1904              		.loc 1 362 5 is_stmt 1 view .LVU567
 362:HW_Lib/AT32F435/bsp/Bsp_Uart.c ****         return false;
 1905              		.loc 1 362 7 is_stmt 0 view .LVU568
 1906 0012 051E     		subs	r5, r0, #0
 1907 0014 71DB     		blt	.L182
 366:HW_Lib/AT32F435/bsp/Bsp_Uart.c ****     rx_en = BspGPIO.alt_init(obj->rx_io, GPIO_OUTPUT_PUSH_PULL);
 1908              		.loc 1 366 5 is_stmt 1 view .LVU569
 366:HW_Lib/AT32F435/bsp/Bsp_Uart.c ****     rx_en = BspGPIO.alt_init(obj->rx_io, GPIO_OUTPUT_PUSH_PULL);
 1909              		.loc 1 366 20 is_stmt 0 view .LVU570
 1910 0016 3C4E     		ldr	r6, .L192
 1911 0018 F768     		ldr	r7, [r6, #12]
 366:HW_Lib/AT32F435/bsp/Bsp_Uart.c ****     rx_en = BspGPIO.alt_init(obj->rx_io, GPIO_OUTPUT_PUSH_PULL);
 1912              		.loc 1 366 13 view .LVU571
 1913 001a 0023     		movs	r3, #0
 1914 001c 04F12002 		add	r2, r4, #32
 1915 0020 07CA     		ldm	r2, {r0, r1, r2}
 1916              	.LVL200:
 366:HW_Lib/AT32F435/bsp/Bsp_Uart.c ****     rx_en = BspGPIO.alt_init(obj->rx_io, GPIO_OUTPUT_PUSH_PULL);
 1917              		.loc 1 366 13 view .LVU572
 1918 0022 B847     		blx	r7
 1919              	.LVL201:
 1920 0024 0746     		mov	r7, r0
 1921              	.LVL202:
 367:HW_Lib/AT32F435/bsp/Bsp_Uart.c ****           
 1922              		.loc 1 367 5 is_stmt 1 view .LVU573
 367:HW_Lib/AT32F435/bsp/Bsp_Uart.c ****           
 1923              		.loc 1 367 20 is_stmt 0 view .LVU574
 1924 0026 F668     		ldr	r6, [r6, #12]
 367:HW_Lib/AT32F435/bsp/Bsp_Uart.c ****           
 1925              		.loc 1 367 13 view .LVU575
 1926 0028 0023     		movs	r3, #0
 1927 002a 04F12C02 		add	r2, r4, #44
 1928 002e 07CA     		ldm	r2, {r0, r1, r2}
 1929 0030 B047     		blx	r6
 1930              	.LVL203:
 1931 0032 0646     		mov	r6, r0
 1932              	.LVL204:
 369:HW_Lib/AT32F435/bsp/Bsp_Uart.c ****         obj->baudrate = Uart_Default_Baudrate;
 1933              		.loc 1 369 5 is_stmt 1 view .LVU576
 369:HW_Lib/AT32F435/bsp/Bsp_Uart.c ****         obj->baudrate = Uart_Default_Baudrate;
 1934              		.loc 1 369 11 is_stmt 0 view .LVU577
 1935 0034 2368     		ldr	r3, [r4]
 369:HW_Lib/AT32F435/bsp/Bsp_Uart.c ****         obj->baudrate = Uart_Default_Baudrate;
 1936              		.loc 1 369 7 view .LVU578
 1937 0036 13B9     		cbnz	r3, .L173
ARM GAS  C:\Users\8bit\AppData\Local\Temp\ccJGR6pR.s 			page 55


 370:HW_Lib/AT32F435/bsp/Bsp_Uart.c **** 
 1938              		.loc 1 370 9 is_stmt 1 view .LVU579
 370:HW_Lib/AT32F435/bsp/Bsp_Uart.c **** 
 1939              		.loc 1 370 23 is_stmt 0 view .LVU580
 1940 0038 4FF4E123 		mov	r3, #460800
 1941 003c 2360     		str	r3, [r4]
 1942              	.L173:
 372:HW_Lib/AT32F435/bsp/Bsp_Uart.c ****     
 1943              		.loc 1 372 5 is_stmt 1 view .LVU581
 1944 003e 0023     		movs	r3, #0
 1945 0040 0122     		movs	r2, #1
 1946 0042 2168     		ldr	r1, [r4]
 1947 0044 A068     		ldr	r0, [r4, #8]
 1948 0046 FFF7FEFF 		bl	usart_init
 1949              	.LVL205:
 374:HW_Lib/AT32F435/bsp/Bsp_Uart.c ****         usart_transmit_receive_pin_swap(To_Uart_Instance(obj->instance), TRUE);
 1950              		.loc 1 374 5 view .LVU582
 374:HW_Lib/AT32F435/bsp/Bsp_Uart.c ****         usart_transmit_receive_pin_swap(To_Uart_Instance(obj->instance), TRUE);
 1951              		.loc 1 374 12 is_stmt 0 view .LVU583
 1952 004a 2379     		ldrb	r3, [r4, #4]	@ zero_extendqisi2
 374:HW_Lib/AT32F435/bsp/Bsp_Uart.c ****         usart_transmit_receive_pin_swap(To_Uart_Instance(obj->instance), TRUE);
 1953              		.loc 1 374 8 view .LVU584
 1954 004c 002B     		cmp	r3, #0
 1955 004e 38D1     		bne	.L189
 1956              	.L174:
 377:HW_Lib/AT32F435/bsp/Bsp_Uart.c ****         usart_transmitter_enable(To_Uart_Instance(obj->instance), TRUE);
 1957              		.loc 1 377 5 is_stmt 1 view .LVU585
 377:HW_Lib/AT32F435/bsp/Bsp_Uart.c ****         usart_transmitter_enable(To_Uart_Instance(obj->instance), TRUE);
 1958              		.loc 1 377 8 is_stmt 0 view .LVU586
 1959 0050 002F     		cmp	r7, #0
 1960 0052 3BD1     		bne	.L190
 1961              	.L175:
 380:HW_Lib/AT32F435/bsp/Bsp_Uart.c ****         usart_receiver_enable(To_Uart_Instance(obj->instance), TRUE);
 1962              		.loc 1 380 5 is_stmt 1 view .LVU587
 380:HW_Lib/AT32F435/bsp/Bsp_Uart.c ****         usart_receiver_enable(To_Uart_Instance(obj->instance), TRUE);
 1963              		.loc 1 380 8 is_stmt 0 view .LVU588
 1964 0054 002E     		cmp	r6, #0
 1965 0056 3ED1     		bne	.L191
 1966              	.L176:
 383:HW_Lib/AT32F435/bsp/Bsp_Uart.c ****         return false;
 1967              		.loc 1 383 5 is_stmt 1 view .LVU589
 383:HW_Lib/AT32F435/bsp/Bsp_Uart.c ****         return false;
 1968              		.loc 1 383 8 is_stmt 0 view .LVU590
 1969 0058 2046     		mov	r0, r4
 1970 005a FFF7FEFF 		bl	BspUart_Init_DMA
 1971              	.LVL206:
 383:HW_Lib/AT32F435/bsp/Bsp_Uart.c ****         return false;
 1972              		.loc 1 383 7 view .LVU591
 1973 005e B0F1FF3F 		cmp	r0, #-1
 1974 0062 4CD0     		beq	.L183
 387:HW_Lib/AT32F435/bsp/Bsp_Uart.c ****     {
 1975              		.loc 1 387 5 is_stmt 1 view .LVU592
 387:HW_Lib/AT32F435/bsp/Bsp_Uart.c ****     {
 1976              		.loc 1 387 11 is_stmt 0 view .LVU593
 1977 0064 E369     		ldr	r3, [r4, #28]
 387:HW_Lib/AT32F435/bsp/Bsp_Uart.c ****     {
 1978              		.loc 1 387 7 view .LVU594
ARM GAS  C:\Users\8bit\AppData\Local\Temp\ccJGR6pR.s 			page 56


 1979 0066 002B     		cmp	r3, #0
 1980 0068 3AD0     		beq	.L177
 389:HW_Lib/AT32F435/bsp/Bsp_Uart.c ****         usart_interrupt_enable(To_Uart_Instance(obj->instance), USART_IDLE_INT, TRUE);
 1981              		.loc 1 389 9 is_stmt 1 view .LVU595
 1982 006a 0121     		movs	r1, #1
 1983 006c A068     		ldr	r0, [r4, #8]
 1984 006e FFF7FEFF 		bl	usart_dma_receiver_enable
 1985              	.LVL207:
 390:HW_Lib/AT32F435/bsp/Bsp_Uart.c ****         obj->irq_type = BspUart_IRQ_Type_Idle;
 1986              		.loc 1 390 9 view .LVU596
 1987 0072 0122     		movs	r2, #1
 1988 0074 2549     		ldr	r1, .L192+4
 1989 0076 A068     		ldr	r0, [r4, #8]
 1990 0078 FFF7FEFF 		bl	usart_interrupt_enable
 1991              	.LVL208:
 391:HW_Lib/AT32F435/bsp/Bsp_Uart.c ****     }
 1992              		.loc 1 391 9 view .LVU597
 391:HW_Lib/AT32F435/bsp/Bsp_Uart.c ****     }
 1993              		.loc 1 391 23 is_stmt 0 view .LVU598
 1994 007c 0123     		movs	r3, #1
 1995 007e 84F84D30 		strb	r3, [r4, #77]
 1996              	.L178:
 399:HW_Lib/AT32F435/bsp/Bsp_Uart.c ****         usart_dma_transmitter_enable(To_Uart_Instance(obj->instance), TRUE);
 1997              		.loc 1 399 5 is_stmt 1 view .LVU599
 399:HW_Lib/AT32F435/bsp/Bsp_Uart.c ****         usart_dma_transmitter_enable(To_Uart_Instance(obj->instance), TRUE);
 1998              		.loc 1 399 11 is_stmt 0 view .LVU600
 1999 0082 6369     		ldr	r3, [r4, #20]
 399:HW_Lib/AT32F435/bsp/Bsp_Uart.c ****         usart_dma_transmitter_enable(To_Uart_Instance(obj->instance), TRUE);
 2000              		.loc 1 399 7 view .LVU601
 2001 0084 1BB1     		cbz	r3, .L179
 400:HW_Lib/AT32F435/bsp/Bsp_Uart.c ****     usart_interrupt_enable(To_Uart_Instance(obj->instance), USART_TDBE_INT, FALSE);
 2002              		.loc 1 400 9 is_stmt 1 view .LVU602
 2003 0086 0121     		movs	r1, #1
 2004 0088 A068     		ldr	r0, [r4, #8]
 2005 008a FFF7FEFF 		bl	usart_dma_transmitter_enable
 2006              	.LVL209:
 2007              	.L179:
 401:HW_Lib/AT32F435/bsp/Bsp_Uart.c **** 
 2008              		.loc 1 401 5 view .LVU603
 2009 008e 0022     		movs	r2, #0
 2010 0090 1F49     		ldr	r1, .L192+8
 2011 0092 A068     		ldr	r0, [r4, #8]
 2012 0094 FFF7FEFF 		bl	usart_interrupt_enable
 2013              	.LVL210:
 403:HW_Lib/AT32F435/bsp/Bsp_Uart.c ****     if(BspUart_SetIRQ(obj, true) < 0)
 2014              		.loc 1 403 5 view .LVU604
 2015 0098 0121     		movs	r1, #1
 2016 009a A068     		ldr	r0, [r4, #8]
 2017 009c FFF7FEFF 		bl	usart_enable
 2018              	.LVL211:
 404:HW_Lib/AT32F435/bsp/Bsp_Uart.c ****         return false;
 2019              		.loc 1 404 5 view .LVU605
 404:HW_Lib/AT32F435/bsp/Bsp_Uart.c ****         return false;
 2020              		.loc 1 404 8 is_stmt 0 view .LVU606
 2021 00a0 0121     		movs	r1, #1
 2022 00a2 2046     		mov	r0, r4
 2023 00a4 FFF7FEFF 		bl	BspUart_SetIRQ
ARM GAS  C:\Users\8bit\AppData\Local\Temp\ccJGR6pR.s 			page 57


 2024              	.LVL212:
 404:HW_Lib/AT32F435/bsp/Bsp_Uart.c ****         return false;
 2025              		.loc 1 404 7 view .LVU607
 2026 00a8 0028     		cmp	r0, #0
 2027 00aa 2ADB     		blt	.L184
 407:HW_Lib/AT32F435/bsp/Bsp_Uart.c **** 
 2028              		.loc 1 407 5 is_stmt 1 view .LVU608
 2029 00ac 0121     		movs	r1, #1
 2030 00ae E069     		ldr	r0, [r4, #28]
 2031 00b0 FFF7FEFF 		bl	dma_channel_enable
 2032              	.LVL213:
 409:HW_Lib/AT32F435/bsp/Bsp_Uart.c ****     obj->init_state = true;
 2033              		.loc 1 409 5 view .LVU609
 409:HW_Lib/AT32F435/bsp/Bsp_Uart.c ****     obj->init_state = true;
 2034              		.loc 1 409 34 is_stmt 0 view .LVU610
 2035 00b4 174B     		ldr	r3, .L192+12
 2036 00b6 43F82540 		str	r4, [r3, r5, lsl #2]
 410:HW_Lib/AT32F435/bsp/Bsp_Uart.c ****     
 2037              		.loc 1 410 5 is_stmt 1 view .LVU611
 410:HW_Lib/AT32F435/bsp/Bsp_Uart.c ****     
 2038              		.loc 1 410 21 is_stmt 0 view .LVU612
 2039 00ba 0120     		movs	r0, #1
 2040 00bc 84F84C00 		strb	r0, [r4, #76]
 412:HW_Lib/AT32F435/bsp/Bsp_Uart.c **** }
 2041              		.loc 1 412 5 is_stmt 1 view .LVU613
 412:HW_Lib/AT32F435/bsp/Bsp_Uart.c **** }
 2042              		.loc 1 412 12 is_stmt 0 view .LVU614
 2043 00c0 1AE0     		b	.L172
 2044              	.L189:
 375:HW_Lib/AT32F435/bsp/Bsp_Uart.c ****     
 2045              		.loc 1 375 9 is_stmt 1 view .LVU615
 2046 00c2 0121     		movs	r1, #1
 2047 00c4 A068     		ldr	r0, [r4, #8]
 2048 00c6 FFF7FEFF 		bl	usart_transmit_receive_pin_swap
 2049              	.LVL214:
 2050 00ca C1E7     		b	.L174
 2051              	.L190:
 378:HW_Lib/AT32F435/bsp/Bsp_Uart.c ****     
 2052              		.loc 1 378 9 view .LVU616
 2053 00cc 0121     		movs	r1, #1
 2054 00ce A068     		ldr	r0, [r4, #8]
 2055 00d0 FFF7FEFF 		bl	usart_transmitter_enable
 2056              	.LVL215:
 2057 00d4 BEE7     		b	.L175
 2058              	.L191:
 381:HW_Lib/AT32F435/bsp/Bsp_Uart.c **** 
 2059              		.loc 1 381 9 view .LVU617
 2060 00d6 0121     		movs	r1, #1
 2061 00d8 A068     		ldr	r0, [r4, #8]
 2062 00da FFF7FEFF 		bl	usart_receiver_enable
 2063              	.LVL216:
 2064 00de BBE7     		b	.L176
 2065              	.L177:
 395:HW_Lib/AT32F435/bsp/Bsp_Uart.c ****         obj->irq_type = BspUart_IRQ_Type_Byte;
 2066              		.loc 1 395 9 view .LVU618
 2067 00e0 0122     		movs	r2, #1
 2068 00e2 0D49     		ldr	r1, .L192+16
ARM GAS  C:\Users\8bit\AppData\Local\Temp\ccJGR6pR.s 			page 58


 2069 00e4 A068     		ldr	r0, [r4, #8]
 2070 00e6 FFF7FEFF 		bl	usart_interrupt_enable
 2071              	.LVL217:
 396:HW_Lib/AT32F435/bsp/Bsp_Uart.c ****     }
 2072              		.loc 1 396 9 view .LVU619
 396:HW_Lib/AT32F435/bsp/Bsp_Uart.c ****     }
 2073              		.loc 1 396 23 is_stmt 0 view .LVU620
 2074 00ea 0223     		movs	r3, #2
 2075 00ec 84F84D30 		strb	r3, [r4, #77]
 2076 00f0 C7E7     		b	.L178
 2077              	.LVL218:
 2078              	.L180:
 2079              	.LCFI18:
 2080              		.cfi_def_cfa_offset 0
 2081              		.cfi_restore 3
 2082              		.cfi_restore 4
 2083              		.cfi_restore 5
 2084              		.cfi_restore 6
 2085              		.cfi_restore 7
 2086              		.cfi_restore 14
 358:HW_Lib/AT32F435/bsp/Bsp_Uart.c **** 
 2087              		.loc 1 358 16 view .LVU621
 2088 00f2 0020     		movs	r0, #0
 2089              	.LVL219:
 413:HW_Lib/AT32F435/bsp/Bsp_Uart.c **** 
 2090              		.loc 1 413 1 view .LVU622
 2091 00f4 7047     		bx	lr
 2092              	.LVL220:
 2093              	.L181:
 2094              	.LCFI19:
 2095              		.cfi_def_cfa_offset 24
 2096              		.cfi_offset 3, -24
 2097              		.cfi_offset 4, -20
 2098              		.cfi_offset 5, -16
 2099              		.cfi_offset 6, -12
 2100              		.cfi_offset 7, -8
 2101              		.cfi_offset 14, -4
 358:HW_Lib/AT32F435/bsp/Bsp_Uart.c **** 
 2102              		.loc 1 358 16 view .LVU623
 2103 00f6 0020     		movs	r0, #0
 2104              	.LVL221:
 2105              	.L172:
 413:HW_Lib/AT32F435/bsp/Bsp_Uart.c **** 
 2106              		.loc 1 413 1 view .LVU624
 2107 00f8 F8BD     		pop	{r3, r4, r5, r6, r7, pc}
 2108              	.LVL222:
 2109              	.L182:
 363:HW_Lib/AT32F435/bsp/Bsp_Uart.c **** 
 2110              		.loc 1 363 16 view .LVU625
 2111 00fa 0020     		movs	r0, #0
 2112              	.LVL223:
 363:HW_Lib/AT32F435/bsp/Bsp_Uart.c **** 
 2113              		.loc 1 363 16 view .LVU626
 2114 00fc FCE7     		b	.L172
 2115              	.LVL224:
 2116              	.L183:
 384:HW_Lib/AT32F435/bsp/Bsp_Uart.c **** 
ARM GAS  C:\Users\8bit\AppData\Local\Temp\ccJGR6pR.s 			page 59


 2117              		.loc 1 384 16 view .LVU627
 2118 00fe 0020     		movs	r0, #0
 2119 0100 FAE7     		b	.L172
 2120              	.L184:
 405:HW_Lib/AT32F435/bsp/Bsp_Uart.c ****     
 2121              		.loc 1 405 16 view .LVU628
 2122 0102 0020     		movs	r0, #0
 2123 0104 F8E7     		b	.L172
 2124              	.L193:
 2125 0106 00BF     		.align	2
 2126              	.L192:
 2127 0108 00000000 		.word	BspGPIO
 2128 010c 04000C00 		.word	786436
 2129 0110 07000C00 		.word	786439
 2130 0114 00000000 		.word	.LANCHOR2
 2131 0118 05000C00 		.word	786437
 2132              		.cfi_endproc
 2133              	.LFE137:
 2135              		.section	.text.BspUart_DMA_RxCplt_Callback,"ax",%progbits
 2136              		.align	1
 2137              		.syntax unified
 2138              		.thumb
 2139              		.thumb_func
 2141              	BspUart_DMA_RxCplt_Callback:
 2142              	.LVL225:
 2143              	.LFB147:
 580:HW_Lib/AT32F435/bsp/Bsp_Uart.c ****     usart_type *instance = NULL;
 2144              		.loc 1 580 1 is_stmt 1 view -0
 2145              		.cfi_startproc
 2146              		@ args = 0, pretend = 0, frame = 0
 2147              		@ frame_needed = 0, uses_anonymous_args = 0
 581:HW_Lib/AT32F435/bsp/Bsp_Uart.c ****     BspUARTObj_TypeDef *obj = NULL;
 2148              		.loc 1 581 5 view .LVU630
 582:HW_Lib/AT32F435/bsp/Bsp_Uart.c ****     uint32_t dma_rec_size = 0;
 2149              		.loc 1 582 5 view .LVU631
 583:HW_Lib/AT32F435/bsp/Bsp_Uart.c ****     
 2150              		.loc 1 583 5 view .LVU632
 585:HW_Lib/AT32F435/bsp/Bsp_Uart.c ****     {
 2151              		.loc 1 585 5 view .LVU633
 585:HW_Lib/AT32F435/bsp/Bsp_Uart.c ****     {
 2152              		.loc 1 585 7 is_stmt 0 view .LVU634
 2153 0000 20B3     		cbz	r0, .L199
 580:HW_Lib/AT32F435/bsp/Bsp_Uart.c ****     usart_type *instance = NULL;
 2154              		.loc 1 580 1 view .LVU635
 2155 0002 38B5     		push	{r3, r4, r5, lr}
 2156              	.LCFI20:
 2157              		.cfi_def_cfa_offset 16
 2158              		.cfi_offset 3, -16
 2159              		.cfi_offset 4, -12
 2160              		.cfi_offset 5, -8
 2161              		.cfi_offset 14, -4
 2162 0004 0446     		mov	r4, r0
 587:HW_Lib/AT32F435/bsp/Bsp_Uart.c ****         instance = To_Uart_Instance(obj->instance);
 2163              		.loc 1 587 9 is_stmt 1 view .LVU636
 2164              	.LVL226:
 588:HW_Lib/AT32F435/bsp/Bsp_Uart.c **** 
 2165              		.loc 1 588 9 view .LVU637
ARM GAS  C:\Users\8bit\AppData\Local\Temp\ccJGR6pR.s 			page 60


 588:HW_Lib/AT32F435/bsp/Bsp_Uart.c **** 
 2166              		.loc 1 588 18 is_stmt 0 view .LVU638
 2167 0006 8368     		ldr	r3, [r0, #8]
 2168              	.LVL227:
 590:HW_Lib/AT32F435/bsp/Bsp_Uart.c ****             return;
 2169              		.loc 1 590 9 is_stmt 1 view .LVU639
 590:HW_Lib/AT32F435/bsp/Bsp_Uart.c ****             return;
 2170              		.loc 1 590 11 is_stmt 0 view .LVU640
 2171 0008 FBB1     		cbz	r3, .L194
 593:HW_Lib/AT32F435/bsp/Bsp_Uart.c **** 
 2172              		.loc 1 593 9 is_stmt 1 view .LVU641
 593:HW_Lib/AT32F435/bsp/Bsp_Uart.c **** 
 2173              		.loc 1 593 21 is_stmt 0 view .LVU642
 2174 000a 036E     		ldr	r3, [r0, #96]
 2175              	.LVL228:
 593:HW_Lib/AT32F435/bsp/Bsp_Uart.c **** 
 2176              		.loc 1 593 34 view .LVU643
 2177 000c 0133     		adds	r3, r3, #1
 2178 000e 0366     		str	r3, [r0, #96]
 595:HW_Lib/AT32F435/bsp/Bsp_Uart.c ****         {
 2179              		.loc 1 595 9 is_stmt 1 view .LVU644
 595:HW_Lib/AT32F435/bsp/Bsp_Uart.c ****         {
 2180              		.loc 1 595 15 is_stmt 0 view .LVU645
 2181 0010 C069     		ldr	r0, [r0, #28]
 2182              	.LVL229:
 595:HW_Lib/AT32F435/bsp/Bsp_Uart.c ****         {
 2183              		.loc 1 595 11 view .LVU646
 2184 0012 B8B1     		cbz	r0, .L196
 597:HW_Lib/AT32F435/bsp/Bsp_Uart.c ****             dma_rec_size = obj->rx_size - dma_data_number_get(To_DMA_Handle_Ptr(obj->rx_dma_hdl));
 2185              		.loc 1 597 13 is_stmt 1 view .LVU647
 2186 0014 0021     		movs	r1, #0
 2187 0016 FFF7FEFF 		bl	dma_channel_enable
 2188              	.LVL230:
 598:HW_Lib/AT32F435/bsp/Bsp_Uart.c **** 
 2189              		.loc 1 598 13 view .LVU648
 598:HW_Lib/AT32F435/bsp/Bsp_Uart.c **** 
 2190              		.loc 1 598 31 is_stmt 0 view .LVU649
 2191 001a B4F84450 		ldrh	r5, [r4, #68]
 598:HW_Lib/AT32F435/bsp/Bsp_Uart.c **** 
 2192              		.loc 1 598 43 view .LVU650
 2193 001e E069     		ldr	r0, [r4, #28]
 2194 0020 FFF7FEFF 		bl	dma_data_number_get
 2195              	.LVL231:
 598:HW_Lib/AT32F435/bsp/Bsp_Uart.c **** 
 2196              		.loc 1 598 41 view .LVU651
 2197 0024 2B1A     		subs	r3, r5, r0
 2198              	.LVL232:
 601:HW_Lib/AT32F435/bsp/Bsp_Uart.c ****                 obj->monitor.rx_err_cnt ++;
 2199              		.loc 1 601 13 is_stmt 1 view .LVU652
 601:HW_Lib/AT32F435/bsp/Bsp_Uart.c ****                 obj->monitor.rx_err_cnt ++;
 2200              		.loc 1 601 35 is_stmt 0 view .LVU653
 2201 0026 B4F84420 		ldrh	r2, [r4, #68]
 601:HW_Lib/AT32F435/bsp/Bsp_Uart.c ****                 obj->monitor.rx_err_cnt ++;
 2202              		.loc 1 601 15 view .LVU654
 2203 002a 9A42     		cmp	r2, r3
 2204 002c 02D0     		beq	.L197
 602:HW_Lib/AT32F435/bsp/Bsp_Uart.c **** 
ARM GAS  C:\Users\8bit\AppData\Local\Temp\ccJGR6pR.s 			page 61


 2205              		.loc 1 602 17 is_stmt 1 view .LVU655
 602:HW_Lib/AT32F435/bsp/Bsp_Uart.c **** 
 2206              		.loc 1 602 29 is_stmt 0 view .LVU656
 2207 002e A36D     		ldr	r3, [r4, #88]
 2208              	.LVL233:
 602:HW_Lib/AT32F435/bsp/Bsp_Uart.c **** 
 2209              		.loc 1 602 41 view .LVU657
 2210 0030 0133     		adds	r3, r3, #1
 2211 0032 A365     		str	r3, [r4, #88]
 2212              	.L197:
 604:HW_Lib/AT32F435/bsp/Bsp_Uart.c ****                 obj->RxCallback(obj->cust_data_addr, obj->rx_buf, dma_rec_size);
 2213              		.loc 1 604 13 is_stmt 1 view .LVU658
 604:HW_Lib/AT32F435/bsp/Bsp_Uart.c ****                 obj->RxCallback(obj->cust_data_addr, obj->rx_buf, dma_rec_size);
 2214              		.loc 1 604 19 is_stmt 0 view .LVU659
 2215 0034 E36B     		ldr	r3, [r4, #60]
 604:HW_Lib/AT32F435/bsp/Bsp_Uart.c ****                 obj->RxCallback(obj->cust_data_addr, obj->rx_buf, dma_rec_size);
 2216              		.loc 1 604 15 view .LVU660
 2217 0036 43B1     		cbz	r3, .L194
 605:HW_Lib/AT32F435/bsp/Bsp_Uart.c ****         }
 2218              		.loc 1 605 17 is_stmt 1 view .LVU661
 2219 0038 2A1A     		subs	r2, r5, r0
 2220 003a 92B2     		uxth	r2, r2
 2221 003c 216C     		ldr	r1, [r4, #64]
 2222 003e A06C     		ldr	r0, [r4, #72]
 2223              	.LVL234:
 605:HW_Lib/AT32F435/bsp/Bsp_Uart.c ****         }
 2224              		.loc 1 605 17 is_stmt 0 view .LVU662
 2225 0040 9847     		blx	r3
 2226              	.LVL235:
 2227 0042 02E0     		b	.L194
 2228              	.LVL236:
 2229              	.L196:
 609:HW_Lib/AT32F435/bsp/Bsp_Uart.c ****         }
 2230              		.loc 1 609 13 is_stmt 1 view .LVU663
 609:HW_Lib/AT32F435/bsp/Bsp_Uart.c ****         }
 2231              		.loc 1 609 25 is_stmt 0 view .LVU664
 2232 0044 A36D     		ldr	r3, [r4, #88]
 609:HW_Lib/AT32F435/bsp/Bsp_Uart.c ****         }
 2233              		.loc 1 609 37 view .LVU665
 2234 0046 0133     		adds	r3, r3, #1
 2235 0048 A365     		str	r3, [r4, #88]
 2236              	.LVL237:
 2237              	.L194:
 612:HW_Lib/AT32F435/bsp/Bsp_Uart.c **** 
 2238              		.loc 1 612 1 view .LVU666
 2239 004a 38BD     		pop	{r3, r4, r5, pc}
 2240              	.LVL238:
 2241              	.L199:
 2242              	.LCFI21:
 2243              		.cfi_def_cfa_offset 0
 2244              		.cfi_restore 3
 2245              		.cfi_restore 4
 2246              		.cfi_restore 5
 2247              		.cfi_restore 14
 612:HW_Lib/AT32F435/bsp/Bsp_Uart.c **** 
 2248              		.loc 1 612 1 view .LVU667
 2249 004c 7047     		bx	lr
ARM GAS  C:\Users\8bit\AppData\Local\Temp\ccJGR6pR.s 			page 62


 2250              		.cfi_endproc
 2251              	.LFE147:
 2253              		.section	.text.BspUart_Irq_Callback,"ax",%progbits
 2254              		.align	1
 2255              		.global	BspUart_Irq_Callback
 2256              		.syntax unified
 2257              		.thumb
 2258              		.thumb_func
 2260              	BspUart_Irq_Callback:
 2261              	.LVL239:
 2262              	.LFB148:
 615:HW_Lib/AT32F435/bsp/Bsp_Uart.c ****     usart_type *instance = NULL;
 2263              		.loc 1 615 1 is_stmt 1 view -0
 2264              		.cfi_startproc
 2265              		@ args = 0, pretend = 0, frame = 8
 2266              		@ frame_needed = 0, uses_anonymous_args = 0
 615:HW_Lib/AT32F435/bsp/Bsp_Uart.c ****     usart_type *instance = NULL;
 2267              		.loc 1 615 1 is_stmt 0 view .LVU669
 2268 0000 30B5     		push	{r4, r5, lr}
 2269              	.LCFI22:
 2270              		.cfi_def_cfa_offset 12
 2271              		.cfi_offset 4, -12
 2272              		.cfi_offset 5, -8
 2273              		.cfi_offset 14, -4
 2274 0002 83B0     		sub	sp, sp, #12
 2275              	.LCFI23:
 2276              		.cfi_def_cfa_offset 24
 616:HW_Lib/AT32F435/bsp/Bsp_Uart.c ****     BspUARTObj_TypeDef *obj = NULL;
 2277              		.loc 1 616 5 is_stmt 1 view .LVU670
 2278              	.LVL240:
 617:HW_Lib/AT32F435/bsp/Bsp_Uart.c ****     volatile uint16_t dma_rec_size = 0;
 2279              		.loc 1 617 5 view .LVU671
 618:HW_Lib/AT32F435/bsp/Bsp_Uart.c ****     uint8_t rx_byte = 0;
 2280              		.loc 1 618 5 view .LVU672
 618:HW_Lib/AT32F435/bsp/Bsp_Uart.c ****     uint8_t rx_byte = 0;
 2281              		.loc 1 618 23 is_stmt 0 view .LVU673
 2282 0004 0023     		movs	r3, #0
 2283 0006 ADF80630 		strh	r3, [sp, #6]	@ movhi
 619:HW_Lib/AT32F435/bsp/Bsp_Uart.c **** 
 2284              		.loc 1 619 5 is_stmt 1 view .LVU674
 619:HW_Lib/AT32F435/bsp/Bsp_Uart.c **** 
 2285              		.loc 1 619 13 is_stmt 0 view .LVU675
 2286 000a 8DF80530 		strb	r3, [sp, #5]
 621:HW_Lib/AT32F435/bsp/Bsp_Uart.c ****     {
 2287              		.loc 1 621 5 is_stmt 1 view .LVU676
 621:HW_Lib/AT32F435/bsp/Bsp_Uart.c ****     {
 2288              		.loc 1 621 8 is_stmt 0 view .LVU677
 2289 000e 18B3     		cbz	r0, .L202
 2290 0010 0446     		mov	r4, r0
 623:HW_Lib/AT32F435/bsp/Bsp_Uart.c ****         usart_data_receive(instance);
 2291              		.loc 1 623 9 is_stmt 1 view .LVU678
 2292              	.LVL241:
 624:HW_Lib/AT32F435/bsp/Bsp_Uart.c ****     
 2293              		.loc 1 624 9 view .LVU679
 2294 0012 FFF7FEFF 		bl	usart_data_receive
 2295              	.LVL242:
 626:HW_Lib/AT32F435/bsp/Bsp_Uart.c ****             obj = BspUart_Obj_List[Bsp_UART_Port_1];
ARM GAS  C:\Users\8bit\AppData\Local\Temp\ccJGR6pR.s 			page 63


 2296              		.loc 1 626 9 view .LVU680
 626:HW_Lib/AT32F435/bsp/Bsp_Uart.c ****             obj = BspUart_Obj_List[Bsp_UART_Port_1];
 2297              		.loc 1 626 12 is_stmt 0 view .LVU681
 2298 0016 3A4B     		ldr	r3, .L226
 2299 0018 9C42     		cmp	r4, r3
 2300 001a 1FD0     		beq	.L216
 617:HW_Lib/AT32F435/bsp/Bsp_Uart.c ****     volatile uint16_t dma_rec_size = 0;
 2301              		.loc 1 617 25 view .LVU682
 2302 001c 0025     		movs	r5, #0
 2303              	.LVL243:
 2304              	.L204:
 629:HW_Lib/AT32F435/bsp/Bsp_Uart.c ****             obj = BspUart_Obj_List[Bsp_UART_Port_2];
 2305              		.loc 1 629 9 is_stmt 1 view .LVU683
 629:HW_Lib/AT32F435/bsp/Bsp_Uart.c ****             obj = BspUart_Obj_List[Bsp_UART_Port_2];
 2306              		.loc 1 629 12 is_stmt 0 view .LVU684
 2307 001e 394B     		ldr	r3, .L226+4
 2308 0020 9C42     		cmp	r4, r3
 2309 0022 1ED0     		beq	.L217
 2310              	.L205:
 632:HW_Lib/AT32F435/bsp/Bsp_Uart.c ****             obj = BspUart_Obj_List[Bsp_UART_Port_3];
 2311              		.loc 1 632 9 is_stmt 1 view .LVU685
 632:HW_Lib/AT32F435/bsp/Bsp_Uart.c ****             obj = BspUart_Obj_List[Bsp_UART_Port_3];
 2312              		.loc 1 632 12 is_stmt 0 view .LVU686
 2313 0024 384B     		ldr	r3, .L226+8
 2314 0026 9C42     		cmp	r4, r3
 2315 0028 1ED0     		beq	.L218
 2316              	.L206:
 635:HW_Lib/AT32F435/bsp/Bsp_Uart.c ****             obj = BspUart_Obj_List[Bsp_UART_Port_4];
 2317              		.loc 1 635 9 is_stmt 1 view .LVU687
 635:HW_Lib/AT32F435/bsp/Bsp_Uart.c ****             obj = BspUart_Obj_List[Bsp_UART_Port_4];
 2318              		.loc 1 635 12 is_stmt 0 view .LVU688
 2319 002a 384B     		ldr	r3, .L226+12
 2320 002c 9C42     		cmp	r4, r3
 2321 002e 1ED0     		beq	.L219
 2322              	.L207:
 638:HW_Lib/AT32F435/bsp/Bsp_Uart.c ****             obj = BspUart_Obj_List[Bsp_UART_Port_5];
 2323              		.loc 1 638 9 is_stmt 1 view .LVU689
 638:HW_Lib/AT32F435/bsp/Bsp_Uart.c ****             obj = BspUart_Obj_List[Bsp_UART_Port_5];
 2324              		.loc 1 638 12 is_stmt 0 view .LVU690
 2325 0030 374B     		ldr	r3, .L226+16
 2326 0032 9C42     		cmp	r4, r3
 2327 0034 1ED0     		beq	.L220
 2328              	.L208:
 641:HW_Lib/AT32F435/bsp/Bsp_Uart.c ****             obj = BspUart_Obj_List[Bsp_UART_Port_6];
 2329              		.loc 1 641 9 is_stmt 1 view .LVU691
 641:HW_Lib/AT32F435/bsp/Bsp_Uart.c ****             obj = BspUart_Obj_List[Bsp_UART_Port_6];
 2330              		.loc 1 641 12 is_stmt 0 view .LVU692
 2331 0036 374B     		ldr	r3, .L226+20
 2332 0038 9C42     		cmp	r4, r3
 2333 003a 1ED0     		beq	.L221
 2334              	.L209:
 644:HW_Lib/AT32F435/bsp/Bsp_Uart.c ****             obj = BspUart_Obj_List[Bsp_UART_Port_7];
 2335              		.loc 1 644 9 is_stmt 1 view .LVU693
 644:HW_Lib/AT32F435/bsp/Bsp_Uart.c ****             obj = BspUart_Obj_List[Bsp_UART_Port_7];
 2336              		.loc 1 644 12 is_stmt 0 view .LVU694
 2337 003c 364B     		ldr	r3, .L226+24
 2338 003e 9C42     		cmp	r4, r3
ARM GAS  C:\Users\8bit\AppData\Local\Temp\ccJGR6pR.s 			page 64


 2339 0040 1ED0     		beq	.L222
 2340              	.L210:
 647:HW_Lib/AT32F435/bsp/Bsp_Uart.c ****             obj = BspUart_Obj_List[Bsp_UART_Port_8];
 2341              		.loc 1 647 9 is_stmt 1 view .LVU695
 647:HW_Lib/AT32F435/bsp/Bsp_Uart.c ****             obj = BspUart_Obj_List[Bsp_UART_Port_8];
 2342              		.loc 1 647 12 is_stmt 0 view .LVU696
 2343 0042 364B     		ldr	r3, .L226+28
 2344 0044 9C42     		cmp	r4, r3
 2345 0046 1ED0     		beq	.L223
 2346              	.L211:
 650:HW_Lib/AT32F435/bsp/Bsp_Uart.c ****         {
 2347              		.loc 1 650 9 is_stmt 1 view .LVU697
 650:HW_Lib/AT32F435/bsp/Bsp_Uart.c ****         {
 2348              		.loc 1 650 12 is_stmt 0 view .LVU698
 2349 0048 35B1     		cbz	r5, .L202
 650:HW_Lib/AT32F435/bsp/Bsp_Uart.c ****         {
 2350              		.loc 1 650 23 discriminator 1 view .LVU699
 2351 004a AB68     		ldr	r3, [r5, #8]
 650:HW_Lib/AT32F435/bsp/Bsp_Uart.c ****         {
 2352              		.loc 1 650 17 discriminator 1 view .LVU700
 2353 004c 23B1     		cbz	r3, .L202
 650:HW_Lib/AT32F435/bsp/Bsp_Uart.c ****         {
 2354              		.loc 1 650 40 discriminator 2 view .LVU701
 2355 004e 95F84C20 		ldrb	r2, [r5, #76]	@ zero_extendqisi2
 650:HW_Lib/AT32F435/bsp/Bsp_Uart.c ****         {
 2356              		.loc 1 650 34 discriminator 2 view .LVU702
 2357 0052 0AB1     		cbz	r2, .L202
 650:HW_Lib/AT32F435/bsp/Bsp_Uart.c ****         {
 2358              		.loc 1 650 53 discriminator 3 view .LVU703
 2359 0054 A342     		cmp	r3, r4
 2360 0056 19D0     		beq	.L224
 2361              	.LVL244:
 2362              	.L202:
 674:HW_Lib/AT32F435/bsp/Bsp_Uart.c **** 
 2363              		.loc 1 674 1 view .LVU704
 2364 0058 03B0     		add	sp, sp, #12
 2365              	.LCFI24:
 2366              		.cfi_remember_state
 2367              		.cfi_def_cfa_offset 12
 2368              		@ sp needed
 2369 005a 30BD     		pop	{r4, r5, pc}
 2370              	.LVL245:
 2371              	.L216:
 2372              	.LCFI25:
 2373              		.cfi_restore_state
 627:HW_Lib/AT32F435/bsp/Bsp_Uart.c **** 
 2374              		.loc 1 627 13 is_stmt 1 view .LVU705
 627:HW_Lib/AT32F435/bsp/Bsp_Uart.c **** 
 2375              		.loc 1 627 17 is_stmt 0 view .LVU706
 2376 005c 304B     		ldr	r3, .L226+32
 2377 005e 5D68     		ldr	r5, [r3, #4]
 2378              	.LVL246:
 627:HW_Lib/AT32F435/bsp/Bsp_Uart.c **** 
 2379              		.loc 1 627 17 view .LVU707
 2380 0060 DDE7     		b	.L204
 2381              	.L217:
 630:HW_Lib/AT32F435/bsp/Bsp_Uart.c ****         
ARM GAS  C:\Users\8bit\AppData\Local\Temp\ccJGR6pR.s 			page 65


 2382              		.loc 1 630 13 is_stmt 1 view .LVU708
 630:HW_Lib/AT32F435/bsp/Bsp_Uart.c ****         
 2383              		.loc 1 630 17 is_stmt 0 view .LVU709
 2384 0062 2F4B     		ldr	r3, .L226+32
 2385 0064 9D68     		ldr	r5, [r3, #8]
 2386              	.LVL247:
 630:HW_Lib/AT32F435/bsp/Bsp_Uart.c ****         
 2387              		.loc 1 630 17 view .LVU710
 2388 0066 DDE7     		b	.L205
 2389              	.L218:
 633:HW_Lib/AT32F435/bsp/Bsp_Uart.c **** 
 2390              		.loc 1 633 13 is_stmt 1 view .LVU711
 633:HW_Lib/AT32F435/bsp/Bsp_Uart.c **** 
 2391              		.loc 1 633 17 is_stmt 0 view .LVU712
 2392 0068 2D4B     		ldr	r3, .L226+32
 2393 006a DD68     		ldr	r5, [r3, #12]
 2394              	.LVL248:
 633:HW_Lib/AT32F435/bsp/Bsp_Uart.c **** 
 2395              		.loc 1 633 17 view .LVU713
 2396 006c DDE7     		b	.L206
 2397              	.L219:
 636:HW_Lib/AT32F435/bsp/Bsp_Uart.c ****         
 2398              		.loc 1 636 13 is_stmt 1 view .LVU714
 636:HW_Lib/AT32F435/bsp/Bsp_Uart.c ****         
 2399              		.loc 1 636 17 is_stmt 0 view .LVU715
 2400 006e 2C4B     		ldr	r3, .L226+32
 2401 0070 1D69     		ldr	r5, [r3, #16]
 2402              	.LVL249:
 636:HW_Lib/AT32F435/bsp/Bsp_Uart.c ****         
 2403              		.loc 1 636 17 view .LVU716
 2404 0072 DDE7     		b	.L207
 2405              	.L220:
 639:HW_Lib/AT32F435/bsp/Bsp_Uart.c ****         
 2406              		.loc 1 639 13 is_stmt 1 view .LVU717
 639:HW_Lib/AT32F435/bsp/Bsp_Uart.c ****         
 2407              		.loc 1 639 17 is_stmt 0 view .LVU718
 2408 0074 2A4B     		ldr	r3, .L226+32
 2409 0076 5D69     		ldr	r5, [r3, #20]
 2410              	.LVL250:
 639:HW_Lib/AT32F435/bsp/Bsp_Uart.c ****         
 2411              		.loc 1 639 17 view .LVU719
 2412 0078 DDE7     		b	.L208
 2413              	.L221:
 642:HW_Lib/AT32F435/bsp/Bsp_Uart.c ****         
 2414              		.loc 1 642 13 is_stmt 1 view .LVU720
 642:HW_Lib/AT32F435/bsp/Bsp_Uart.c ****         
 2415              		.loc 1 642 17 is_stmt 0 view .LVU721
 2416 007a 294B     		ldr	r3, .L226+32
 2417 007c 9D69     		ldr	r5, [r3, #24]
 2418              	.LVL251:
 642:HW_Lib/AT32F435/bsp/Bsp_Uart.c ****         
 2419              		.loc 1 642 17 view .LVU722
 2420 007e DDE7     		b	.L209
 2421              	.L222:
 645:HW_Lib/AT32F435/bsp/Bsp_Uart.c ****         
 2422              		.loc 1 645 13 is_stmt 1 view .LVU723
 645:HW_Lib/AT32F435/bsp/Bsp_Uart.c ****         
ARM GAS  C:\Users\8bit\AppData\Local\Temp\ccJGR6pR.s 			page 66


 2423              		.loc 1 645 17 is_stmt 0 view .LVU724
 2424 0080 274B     		ldr	r3, .L226+32
 2425 0082 DD69     		ldr	r5, [r3, #28]
 2426              	.LVL252:
 645:HW_Lib/AT32F435/bsp/Bsp_Uart.c ****         
 2427              		.loc 1 645 17 view .LVU725
 2428 0084 DDE7     		b	.L210
 2429              	.L223:
 648:HW_Lib/AT32F435/bsp/Bsp_Uart.c ****     
 2430              		.loc 1 648 13 is_stmt 1 view .LVU726
 648:HW_Lib/AT32F435/bsp/Bsp_Uart.c ****     
 2431              		.loc 1 648 17 is_stmt 0 view .LVU727
 2432 0086 264B     		ldr	r3, .L226+32
 2433 0088 1D6A     		ldr	r5, [r3, #32]
 2434              	.LVL253:
 648:HW_Lib/AT32F435/bsp/Bsp_Uart.c ****     
 2435              		.loc 1 648 17 view .LVU728
 2436 008a DDE7     		b	.L211
 2437              	.L224:
 652:HW_Lib/AT32F435/bsp/Bsp_Uart.c ****             {
 2438              		.loc 1 652 13 is_stmt 1 view .LVU729
 652:HW_Lib/AT32F435/bsp/Bsp_Uart.c ****             {
 2439              		.loc 1 652 21 is_stmt 0 view .LVU730
 2440 008c 95F84D20 		ldrb	r2, [r5, #77]	@ zero_extendqisi2
 652:HW_Lib/AT32F435/bsp/Bsp_Uart.c ****             {
 2441              		.loc 1 652 16 view .LVU731
 2442 0090 012A     		cmp	r2, #1
 2443 0092 0FD0     		beq	.L225
 2444              	.L212:
 666:HW_Lib/AT32F435/bsp/Bsp_Uart.c ****             {
 2445              		.loc 1 666 18 is_stmt 1 view .LVU732
 666:HW_Lib/AT32F435/bsp/Bsp_Uart.c ****             {
 2446              		.loc 1 666 21 is_stmt 0 view .LVU733
 2447 0094 022A     		cmp	r2, #2
 2448 0096 DFD1     		bne	.L202
 668:HW_Lib/AT32F435/bsp/Bsp_Uart.c ****                 if(obj->RxCallback)
 2449              		.loc 1 668 17 is_stmt 1 view .LVU734
 668:HW_Lib/AT32F435/bsp/Bsp_Uart.c ****                 if(obj->RxCallback)
 2450              		.loc 1 668 27 is_stmt 0 view .LVU735
 2451 0098 1846     		mov	r0, r3
 2452 009a FFF7FEFF 		bl	usart_data_receive
 2453              	.LVL254:
 668:HW_Lib/AT32F435/bsp/Bsp_Uart.c ****                 if(obj->RxCallback)
 2454              		.loc 1 668 25 view .LVU736
 2455 009e 8DF80500 		strb	r0, [sp, #5]
 669:HW_Lib/AT32F435/bsp/Bsp_Uart.c ****                     obj->RxCallback(obj->cust_data_addr, &rx_byte, 1);
 2456              		.loc 1 669 17 is_stmt 1 view .LVU737
 669:HW_Lib/AT32F435/bsp/Bsp_Uart.c ****                     obj->RxCallback(obj->cust_data_addr, &rx_byte, 1);
 2457              		.loc 1 669 23 is_stmt 0 view .LVU738
 2458 00a2 EB6B     		ldr	r3, [r5, #60]
 669:HW_Lib/AT32F435/bsp/Bsp_Uart.c ****                     obj->RxCallback(obj->cust_data_addr, &rx_byte, 1);
 2459              		.loc 1 669 19 view .LVU739
 2460 00a4 002B     		cmp	r3, #0
 2461 00a6 D7D0     		beq	.L202
 670:HW_Lib/AT32F435/bsp/Bsp_Uart.c ****             }
 2462              		.loc 1 670 21 is_stmt 1 view .LVU740
 2463 00a8 0122     		movs	r2, #1
ARM GAS  C:\Users\8bit\AppData\Local\Temp\ccJGR6pR.s 			page 67


 2464 00aa 0DF10501 		add	r1, sp, #5
 2465 00ae A86C     		ldr	r0, [r5, #72]
 2466 00b0 9847     		blx	r3
 2467              	.LVL255:
 674:HW_Lib/AT32F435/bsp/Bsp_Uart.c **** 
 2468              		.loc 1 674 1 is_stmt 0 view .LVU741
 2469 00b2 D1E7     		b	.L202
 2470              	.L225:
 652:HW_Lib/AT32F435/bsp/Bsp_Uart.c ****             {
 2471              		.loc 1 652 64 discriminator 1 view .LVU742
 2472 00b4 E869     		ldr	r0, [r5, #28]
 652:HW_Lib/AT32F435/bsp/Bsp_Uart.c ****             {
 2473              		.loc 1 652 58 discriminator 1 view .LVU743
 2474 00b6 0028     		cmp	r0, #0
 2475 00b8 ECD0     		beq	.L212
 654:HW_Lib/AT32F435/bsp/Bsp_Uart.c **** 
 2476              		.loc 1 654 17 is_stmt 1 view .LVU744
 2477 00ba 0021     		movs	r1, #0
 2478 00bc FFF7FEFF 		bl	dma_channel_enable
 2479              	.LVL256:
 656:HW_Lib/AT32F435/bsp/Bsp_Uart.c ****                 
 2480              		.loc 1 656 17 view .LVU745
 656:HW_Lib/AT32F435/bsp/Bsp_Uart.c ****                 
 2481              		.loc 1 656 35 is_stmt 0 view .LVU746
 2482 00c0 B5F84440 		ldrh	r4, [r5, #68]
 2483              	.LVL257:
 656:HW_Lib/AT32F435/bsp/Bsp_Uart.c ****                 
 2484              		.loc 1 656 47 view .LVU747
 2485 00c4 E869     		ldr	r0, [r5, #28]
 2486 00c6 FFF7FEFF 		bl	dma_data_number_get
 2487              	.LVL258:
 656:HW_Lib/AT32F435/bsp/Bsp_Uart.c ****                 
 2488              		.loc 1 656 45 view .LVU748
 2489 00ca 231A     		subs	r3, r4, r0
 2490 00cc 9BB2     		uxth	r3, r3
 656:HW_Lib/AT32F435/bsp/Bsp_Uart.c ****                 
 2491              		.loc 1 656 30 view .LVU749
 2492 00ce ADF80630 		strh	r3, [sp, #6]	@ movhi
 658:HW_Lib/AT32F435/bsp/Bsp_Uart.c ****                 if(obj->RxCallback)
 2493              		.loc 1 658 17 is_stmt 1 view .LVU750
 658:HW_Lib/AT32F435/bsp/Bsp_Uart.c ****                 if(obj->RxCallback)
 2494              		.loc 1 658 29 is_stmt 0 view .LVU751
 2495 00d2 2B6D     		ldr	r3, [r5, #80]
 658:HW_Lib/AT32F435/bsp/Bsp_Uart.c ****                 if(obj->RxCallback)
 2496              		.loc 1 658 37 view .LVU752
 2497 00d4 0133     		adds	r3, r3, #1
 2498 00d6 2B65     		str	r3, [r5, #80]
 659:HW_Lib/AT32F435/bsp/Bsp_Uart.c ****                     obj->RxCallback(obj->cust_data_addr, obj->rx_buf, dma_rec_size);
 2499              		.loc 1 659 17 is_stmt 1 view .LVU753
 659:HW_Lib/AT32F435/bsp/Bsp_Uart.c ****                     obj->RxCallback(obj->cust_data_addr, obj->rx_buf, dma_rec_size);
 2500              		.loc 1 659 23 is_stmt 0 view .LVU754
 2501 00d8 EB6B     		ldr	r3, [r5, #60]
 659:HW_Lib/AT32F435/bsp/Bsp_Uart.c ****                     obj->RxCallback(obj->cust_data_addr, obj->rx_buf, dma_rec_size);
 2502              		.loc 1 659 19 view .LVU755
 2503 00da 2BB1     		cbz	r3, .L213
 660:HW_Lib/AT32F435/bsp/Bsp_Uart.c **** 
 2504              		.loc 1 660 21 is_stmt 1 view .LVU756
ARM GAS  C:\Users\8bit\AppData\Local\Temp\ccJGR6pR.s 			page 68


 2505 00dc BDF80620 		ldrh	r2, [sp, #6]
 2506 00e0 92B2     		uxth	r2, r2
 2507 00e2 296C     		ldr	r1, [r5, #64]
 2508 00e4 A86C     		ldr	r0, [r5, #72]
 2509 00e6 9847     		blx	r3
 2510              	.LVL259:
 2511              	.L213:
 662:HW_Lib/AT32F435/bsp/Bsp_Uart.c ****                 To_DMA_Handle_Ptr(obj->rx_dma_hdl)->dtcnt = obj->rx_size;
 2512              		.loc 1 662 17 view .LVU757
 662:HW_Lib/AT32F435/bsp/Bsp_Uart.c ****                 To_DMA_Handle_Ptr(obj->rx_dma_hdl)->dtcnt = obj->rx_size;
 2513              		.loc 1 662 74 is_stmt 0 view .LVU758
 2514 00e8 2A6C     		ldr	r2, [r5, #64]
 662:HW_Lib/AT32F435/bsp/Bsp_Uart.c ****                 To_DMA_Handle_Ptr(obj->rx_dma_hdl)->dtcnt = obj->rx_size;
 2515              		.loc 1 662 17 view .LVU759
 2516 00ea EB69     		ldr	r3, [r5, #28]
 662:HW_Lib/AT32F435/bsp/Bsp_Uart.c ****                 To_DMA_Handle_Ptr(obj->rx_dma_hdl)->dtcnt = obj->rx_size;
 2517              		.loc 1 662 59 view .LVU760
 2518 00ec DA60     		str	r2, [r3, #12]
 663:HW_Lib/AT32F435/bsp/Bsp_Uart.c ****                 dma_channel_enable(To_DMA_Handle_Ptr(obj->rx_dma_hdl), TRUE);
 2519              		.loc 1 663 17 is_stmt 1 view .LVU761
 2520 00ee EB69     		ldr	r3, [r5, #28]
 663:HW_Lib/AT32F435/bsp/Bsp_Uart.c ****                 dma_channel_enable(To_DMA_Handle_Ptr(obj->rx_dma_hdl), TRUE);
 2521              		.loc 1 663 64 is_stmt 0 view .LVU762
 2522 00f0 B5F84420 		ldrh	r2, [r5, #68]
 663:HW_Lib/AT32F435/bsp/Bsp_Uart.c ****                 dma_channel_enable(To_DMA_Handle_Ptr(obj->rx_dma_hdl), TRUE);
 2523              		.loc 1 663 59 view .LVU763
 2524 00f4 5A60     		str	r2, [r3, #4]
 664:HW_Lib/AT32F435/bsp/Bsp_Uart.c ****             }
 2525              		.loc 1 664 17 is_stmt 1 view .LVU764
 2526 00f6 0121     		movs	r1, #1
 2527 00f8 E869     		ldr	r0, [r5, #28]
 2528 00fa FFF7FEFF 		bl	dma_channel_enable
 2529              	.LVL260:
 2530 00fe ABE7     		b	.L202
 2531              	.L227:
 2532              		.align	2
 2533              	.L226:
 2534 0100 00100140 		.word	1073811456
 2535 0104 00440040 		.word	1073759232
 2536 0108 00480040 		.word	1073760256
 2537 010c 004C0040 		.word	1073761280
 2538 0110 00500040 		.word	1073762304
 2539 0114 00140140 		.word	1073812480
 2540 0118 00780040 		.word	1073772544
 2541 011c 007C0040 		.word	1073773568
 2542 0120 00000000 		.word	.LANCHOR2
 2543              		.cfi_endproc
 2544              	.LFE148:
 2546              		.global	BspUart
 2547              		.section	.bss.BspUart_Obj_List,"aw",%nobits
 2548              		.align	2
 2549              		.set	.LANCHOR2,. + 0
 2552              	BspUart_Obj_List:
 2553 0000 00000000 		.space	36
 2553      00000000 
 2553      00000000 
 2553      00000000 
ARM GAS  C:\Users\8bit\AppData\Local\Temp\ccJGR6pR.s 			page 69


 2553      00000000 
 2554              		.section	.bss.BspUart_RxDMA_IrqObj,"aw",%nobits
 2555              		.align	2
 2556              		.set	.LANCHOR0,. + 0
 2559              	BspUart_RxDMA_IrqObj:
 2560 0000 00000000 		.space	72
 2560      00000000 
 2560      00000000 
 2560      00000000 
 2560      00000000 
 2561              		.section	.bss.BspUart_TxDMA_IrqObj,"aw",%nobits
 2562              		.align	2
 2563              		.set	.LANCHOR1,. + 0
 2566              	BspUart_TxDMA_IrqObj:
 2567 0000 00000000 		.space	72
 2567      00000000 
 2567      00000000 
 2567      00000000 
 2567      00000000 
 2568              		.section	.data.BspUart,"aw"
 2569              		.align	2
 2572              	BspUart:
 2573 0000 00000000 		.word	BspUart_Init
 2574 0004 00000000 		.word	BspUart_DeInit
 2575 0008 00000000 		.word	BspUart_Set_Parity
 2576 000c 00000000 		.word	BspUart_Set_StopBit
 2577 0010 00000000 		.word	BspUart_Set_DataBit
 2578 0014 00000000 		.word	BspUart_Swap_Pin
 2579 0018 00000000 		.word	BspUart_IrqEn_Control
 2580 001c 00000000 		.word	BspUart_Transfer
 2581 0020 00000000 		.word	BspUart_Set_Rx_Callback
 2582 0024 00000000 		.word	BspUart_Set_Tx_Callback
 2583              		.text
 2584              	.Letext0:
 2585              		.file 2 "c:\\program files (x86)\\gnu arm embedded toolchain\\10 2021.10\\arm-none-eabi\\include\\
 2586              		.file 3 "c:\\program files (x86)\\gnu arm embedded toolchain\\10 2021.10\\arm-none-eabi\\include\\
 2587              		.file 4 "HW_Lib/Port_Def/Bsp_GPIO_Port_Def.h"
 2588              		.file 5 "HW_Lib/Port_Def/Bsp_Uart_Port_Def.h"
 2589              		.file 6 "HW_Lib/AT32F435/bsp/Bsp_Uart.h"
 2590              		.file 7 "HW_Lib/AT32F435/device_support/at32f435_437.h"
 2591              		.file 8 "HW_Lib/AT32F435/drivers/inc/at32f435_437_crm.h"
 2592              		.file 9 "HW_Lib/AT32F435/drivers/inc/at32f435_437_tmr.h"
 2593              		.file 10 "HW_Lib/AT32F435/drivers/inc/at32f435_437_gpio.h"
 2594              		.file 11 "HW_Lib/AT32F435/drivers/inc/at32f435_437_usart.h"
 2595              		.file 12 "HW_Lib/AT32F435/drivers/inc/at32f435_437_dma.h"
 2596              		.file 13 "HW_Lib/AT32F435/drivers/inc/at32f435_437_misc.h"
 2597              		.file 14 "HW_Lib/AT32F435/bsp/Bsp_GPIO.h"
 2598              		.file 15 "HW_Lib/Port_Def/Bsp_DMA_Port_Def.h"
 2599              		.file 16 "HW_Lib/AT32F435/bsp/Bsp_DMA.h"
ARM GAS  C:\Users\8bit\AppData\Local\Temp\ccJGR6pR.s 			page 70


DEFINED SYMBOLS
                            *ABS*:00000000 Bsp_Uart.c
C:\Users\8bit\AppData\Local\Temp\ccJGR6pR.s:20     .text.BspUart_Get_MuxSeq:00000000 $t
C:\Users\8bit\AppData\Local\Temp\ccJGR6pR.s:25     .text.BspUart_Get_MuxSeq:00000000 BspUart_Get_MuxSeq
C:\Users\8bit\AppData\Local\Temp\ccJGR6pR.s:329    .text.BspUart_Get_MuxSeq:000000d4 $d
C:\Users\8bit\AppData\Local\Temp\ccJGR6pR.s:341    .text.BspUart_Set_StopBit:00000000 $t
C:\Users\8bit\AppData\Local\Temp\ccJGR6pR.s:346    .text.BspUart_Set_StopBit:00000000 BspUart_Set_StopBit
C:\Users\8bit\AppData\Local\Temp\ccJGR6pR.s:364    .text.BspUart_Set_Rx_Callback:00000000 $t
C:\Users\8bit\AppData\Local\Temp\ccJGR6pR.s:369    .text.BspUart_Set_Rx_Callback:00000000 BspUart_Set_Rx_Callback
C:\Users\8bit\AppData\Local\Temp\ccJGR6pR.s:418    .text.BspUart_Set_Tx_Callback:00000000 $t
C:\Users\8bit\AppData\Local\Temp\ccJGR6pR.s:423    .text.BspUart_Set_Tx_Callback:00000000 BspUart_Set_Tx_Callback
C:\Users\8bit\AppData\Local\Temp\ccJGR6pR.s:472    .text.BspUart_DMA_TxCplt_Callback:00000000 $t
C:\Users\8bit\AppData\Local\Temp\ccJGR6pR.s:477    .text.BspUart_DMA_TxCplt_Callback:00000000 BspUart_DMA_TxCplt_Callback
C:\Users\8bit\AppData\Local\Temp\ccJGR6pR.s:558    .text.BspUart_Transfer:00000000 $t
C:\Users\8bit\AppData\Local\Temp\ccJGR6pR.s:563    .text.BspUart_Transfer:00000000 BspUart_Transfer
C:\Users\8bit\AppData\Local\Temp\ccJGR6pR.s:717    .text.BspUart_IrqEn_Control:00000000 $t
C:\Users\8bit\AppData\Local\Temp\ccJGR6pR.s:722    .text.BspUart_IrqEn_Control:00000000 BspUart_IrqEn_Control
C:\Users\8bit\AppData\Local\Temp\ccJGR6pR.s:810    .text.BspUart_IrqEn_Control:0000003c $d
C:\Users\8bit\AppData\Local\Temp\ccJGR6pR.s:816    .text.BspUart_Swap_Pin:00000000 $t
C:\Users\8bit\AppData\Local\Temp\ccJGR6pR.s:821    .text.BspUart_Swap_Pin:00000000 BspUart_Swap_Pin
C:\Users\8bit\AppData\Local\Temp\ccJGR6pR.s:884    .text.BspUart_Set_DataBit:00000000 $t
C:\Users\8bit\AppData\Local\Temp\ccJGR6pR.s:889    .text.BspUart_Set_DataBit:00000000 BspUart_Set_DataBit
C:\Users\8bit\AppData\Local\Temp\ccJGR6pR.s:951    .text.BspUart_Set_Parity:00000000 $t
C:\Users\8bit\AppData\Local\Temp\ccJGR6pR.s:956    .text.BspUart_Set_Parity:00000000 BspUart_Set_Parity
C:\Users\8bit\AppData\Local\Temp\ccJGR6pR.s:1018   .text.BspUart_SetIRQ:00000000 $t
C:\Users\8bit\AppData\Local\Temp\ccJGR6pR.s:1023   .text.BspUart_SetIRQ:00000000 BspUart_SetIRQ
C:\Users\8bit\AppData\Local\Temp\ccJGR6pR.s:1183   .text.BspUart_SetIRQ:000000ac $d
C:\Users\8bit\AppData\Local\Temp\ccJGR6pR.s:1188   .text.BspUart_DeInit:00000000 $t
C:\Users\8bit\AppData\Local\Temp\ccJGR6pR.s:1193   .text.BspUart_DeInit:00000000 BspUart_DeInit
C:\Users\8bit\AppData\Local\Temp\ccJGR6pR.s:1322   .text.BspUart_DeInit:00000080 $d
C:\Users\8bit\AppData\Local\Temp\ccJGR6pR.s:1329   .text.BspUart_Init_Clock:00000000 $t
C:\Users\8bit\AppData\Local\Temp\ccJGR6pR.s:1334   .text.BspUart_Init_Clock:00000000 BspUart_Init_Clock
C:\Users\8bit\AppData\Local\Temp\ccJGR6pR.s:1486   .text.BspUart_Init_Clock:00000094 $d
C:\Users\8bit\AppData\Local\Temp\ccJGR6pR.s:1499   .text.BspUart_Init_DMA:00000000 $t
C:\Users\8bit\AppData\Local\Temp\ccJGR6pR.s:1504   .text.BspUart_Init_DMA:00000000 BspUart_Init_DMA
C:\Users\8bit\AppData\Local\Temp\ccJGR6pR.s:1855   .text.BspUart_Init_DMA:000001cc $d
C:\Users\8bit\AppData\Local\Temp\ccJGR6pR.s:2141   .text.BspUart_DMA_RxCplt_Callback:00000000 BspUart_DMA_RxCplt_Callback
C:\Users\8bit\AppData\Local\Temp\ccJGR6pR.s:1865   .text.BspUart_Init:00000000 $t
C:\Users\8bit\AppData\Local\Temp\ccJGR6pR.s:1870   .text.BspUart_Init:00000000 BspUart_Init
C:\Users\8bit\AppData\Local\Temp\ccJGR6pR.s:2127   .text.BspUart_Init:00000108 $d
C:\Users\8bit\AppData\Local\Temp\ccJGR6pR.s:2136   .text.BspUart_DMA_RxCplt_Callback:00000000 $t
C:\Users\8bit\AppData\Local\Temp\ccJGR6pR.s:2254   .text.BspUart_Irq_Callback:00000000 $t
C:\Users\8bit\AppData\Local\Temp\ccJGR6pR.s:2260   .text.BspUart_Irq_Callback:00000000 BspUart_Irq_Callback
C:\Users\8bit\AppData\Local\Temp\ccJGR6pR.s:2534   .text.BspUart_Irq_Callback:00000100 $d
C:\Users\8bit\AppData\Local\Temp\ccJGR6pR.s:2572   .data.BspUart:00000000 BspUart
C:\Users\8bit\AppData\Local\Temp\ccJGR6pR.s:2548   .bss.BspUart_Obj_List:00000000 $d
C:\Users\8bit\AppData\Local\Temp\ccJGR6pR.s:2552   .bss.BspUart_Obj_List:00000000 BspUart_Obj_List
C:\Users\8bit\AppData\Local\Temp\ccJGR6pR.s:2555   .bss.BspUart_RxDMA_IrqObj:00000000 $d
C:\Users\8bit\AppData\Local\Temp\ccJGR6pR.s:2559   .bss.BspUart_RxDMA_IrqObj:00000000 BspUart_RxDMA_IrqObj
C:\Users\8bit\AppData\Local\Temp\ccJGR6pR.s:2562   .bss.BspUart_TxDMA_IrqObj:00000000 $d
C:\Users\8bit\AppData\Local\Temp\ccJGR6pR.s:2566   .bss.BspUart_TxDMA_IrqObj:00000000 BspUart_TxDMA_IrqObj
C:\Users\8bit\AppData\Local\Temp\ccJGR6pR.s:2569   .data.BspUart:00000000 $d

UNDEFINED SYMBOLS
dma_channel_enable
usart_data_transmit
usart_flag_get
ARM GAS  C:\Users\8bit\AppData\Local\Temp\ccJGR6pR.s 			page 71


usart_interrupt_enable
usart_transmit_receive_pin_swap
usart_id_bit_num_set
usart_parity_selection_config
nvic_priority_group_config
nvic_irq_enable
nvic_irq_disable
dma_reset
usart_reset
BspGPIO
crm_periph_clock_enable
dma_default_para_init
dma_init
BspDMA
usart_init
usart_dma_receiver_enable
usart_dma_transmitter_enable
usart_enable
usart_transmitter_enable
usart_receiver_enable
dma_data_number_get
usart_data_receive
