ARM GAS  C:\Users\8bit\AppData\Local\Temp\ccfNnq5p.s 			page 1


   1              		.cpu cortex-m4
   2              		.arch armv7e-m
   3              		.fpu fpv4-sp-d16
   4              		.eabi_attribute 27, 1
   5              		.eabi_attribute 28, 1
   6              		.eabi_attribute 20, 1
   7              		.eabi_attribute 21, 1
   8              		.eabi_attribute 23, 3
   9              		.eabi_attribute 24, 1
  10              		.eabi_attribute 25, 1
  11              		.eabi_attribute 26, 1
  12              		.eabi_attribute 30, 1
  13              		.eabi_attribute 34, 1
  14              		.eabi_attribute 18, 4
  15              		.file	"cdc_desc.c"
  16              		.text
  17              	.Ltext0:
  18              		.cfi_sections	.debug_frame
  19              		.section	.text.usbd_unicode_convert,"ax",%progbits
  20              		.align	1
  21              		.syntax unified
  22              		.thumb
  23              		.thumb_func
  25              	usbd_unicode_convert:
  26              	.LVL0:
  27              	.LFB136:
  28              		.file 1 "HW_Lib/AT32F435/USB/usbd_class/cdc/cdc_desc.c"
   1:HW_Lib/AT32F435/USB/usbd_class/cdc/cdc_desc.c **** /**
   2:HW_Lib/AT32F435/USB/usbd_class/cdc/cdc_desc.c ****   **************************************************************************
   3:HW_Lib/AT32F435/USB/usbd_class/cdc/cdc_desc.c ****   * @file     cdc_desc.c
   4:HW_Lib/AT32F435/USB/usbd_class/cdc/cdc_desc.c ****   * @version  v2.0.8
   5:HW_Lib/AT32F435/USB/usbd_class/cdc/cdc_desc.c ****   * @date     2022-04-25
   6:HW_Lib/AT32F435/USB/usbd_class/cdc/cdc_desc.c ****   * @brief    usb cdc device descriptor
   7:HW_Lib/AT32F435/USB/usbd_class/cdc/cdc_desc.c ****   **************************************************************************
   8:HW_Lib/AT32F435/USB/usbd_class/cdc/cdc_desc.c ****   *                       Copyright notice & Disclaimer
   9:HW_Lib/AT32F435/USB/usbd_class/cdc/cdc_desc.c ****   *
  10:HW_Lib/AT32F435/USB/usbd_class/cdc/cdc_desc.c ****   * The software Board Support Package (BSP) that is made available to
  11:HW_Lib/AT32F435/USB/usbd_class/cdc/cdc_desc.c ****   * download from Artery official website is the copyrighted work of Artery.
  12:HW_Lib/AT32F435/USB/usbd_class/cdc/cdc_desc.c ****   * Artery authorizes customers to use, copy, and distribute the BSP
  13:HW_Lib/AT32F435/USB/usbd_class/cdc/cdc_desc.c ****   * software and its related documentation for the purpose of design and
  14:HW_Lib/AT32F435/USB/usbd_class/cdc/cdc_desc.c ****   * development in conjunction with Artery microcontrollers. Use of the
  15:HW_Lib/AT32F435/USB/usbd_class/cdc/cdc_desc.c ****   * software is governed by this copyright notice and the following disclaimer.
  16:HW_Lib/AT32F435/USB/usbd_class/cdc/cdc_desc.c ****   *
  17:HW_Lib/AT32F435/USB/usbd_class/cdc/cdc_desc.c ****   * THIS SOFTWARE IS PROVIDED ON "AS IS" BASIS WITHOUT WARRANTIES,
  18:HW_Lib/AT32F435/USB/usbd_class/cdc/cdc_desc.c ****   * GUARANTEES OR REPRESENTATIONS OF ANY KIND. ARTERY EXPRESSLY DISCLAIMS,
  19:HW_Lib/AT32F435/USB/usbd_class/cdc/cdc_desc.c ****   * TO THE FULLEST EXTENT PERMITTED BY LAW, ALL EXPRESS, IMPLIED OR
  20:HW_Lib/AT32F435/USB/usbd_class/cdc/cdc_desc.c ****   * STATUTORY OR OTHER WARRANTIES, GUARANTEES OR REPRESENTATIONS,
  21:HW_Lib/AT32F435/USB/usbd_class/cdc/cdc_desc.c ****   * INCLUDING BUT NOT LIMITED TO, THE IMPLIED WARRANTIES OF MERCHANTABILITY,
  22:HW_Lib/AT32F435/USB/usbd_class/cdc/cdc_desc.c ****   * FITNESS FOR A PARTICULAR PURPOSE, OR NON-INFRINGEMENT.
  23:HW_Lib/AT32F435/USB/usbd_class/cdc/cdc_desc.c ****   *
  24:HW_Lib/AT32F435/USB/usbd_class/cdc/cdc_desc.c ****   **************************************************************************
  25:HW_Lib/AT32F435/USB/usbd_class/cdc/cdc_desc.c ****   */
  26:HW_Lib/AT32F435/USB/usbd_class/cdc/cdc_desc.c **** #include "stdio.h"
  27:HW_Lib/AT32F435/USB/usbd_class/cdc/cdc_desc.c **** #include "usb_std.h"
  28:HW_Lib/AT32F435/USB/usbd_class/cdc/cdc_desc.c **** #include "usbd_sdr.h"
  29:HW_Lib/AT32F435/USB/usbd_class/cdc/cdc_desc.c **** #include "usbd_core.h"
  30:HW_Lib/AT32F435/USB/usbd_class/cdc/cdc_desc.c **** #include "cdc_desc.h"
ARM GAS  C:\Users\8bit\AppData\Local\Temp\ccfNnq5p.s 			page 2


  31:HW_Lib/AT32F435/USB/usbd_class/cdc/cdc_desc.c **** 
  32:HW_Lib/AT32F435/USB/usbd_class/cdc/cdc_desc.c **** /** @addtogroup AT32F435_437_middlewares_usbd_class
  33:HW_Lib/AT32F435/USB/usbd_class/cdc/cdc_desc.c ****   * @{
  34:HW_Lib/AT32F435/USB/usbd_class/cdc/cdc_desc.c ****   */
  35:HW_Lib/AT32F435/USB/usbd_class/cdc/cdc_desc.c **** 
  36:HW_Lib/AT32F435/USB/usbd_class/cdc/cdc_desc.c **** /** @defgroup USB_cdc_desc
  37:HW_Lib/AT32F435/USB/usbd_class/cdc/cdc_desc.c ****   * @brief usb device cdc descriptor
  38:HW_Lib/AT32F435/USB/usbd_class/cdc/cdc_desc.c ****   * @{
  39:HW_Lib/AT32F435/USB/usbd_class/cdc/cdc_desc.c ****   */
  40:HW_Lib/AT32F435/USB/usbd_class/cdc/cdc_desc.c **** 
  41:HW_Lib/AT32F435/USB/usbd_class/cdc/cdc_desc.c **** /** @defgroup USB_cdc_desc_private_functions
  42:HW_Lib/AT32F435/USB/usbd_class/cdc/cdc_desc.c ****   * @{
  43:HW_Lib/AT32F435/USB/usbd_class/cdc/cdc_desc.c ****   */
  44:HW_Lib/AT32F435/USB/usbd_class/cdc/cdc_desc.c **** 
  45:HW_Lib/AT32F435/USB/usbd_class/cdc/cdc_desc.c **** static usbd_desc_t *get_device_descriptor(void);
  46:HW_Lib/AT32F435/USB/usbd_class/cdc/cdc_desc.c **** static usbd_desc_t *get_device_qualifier(void);
  47:HW_Lib/AT32F435/USB/usbd_class/cdc/cdc_desc.c **** static usbd_desc_t *get_device_configuration(void);
  48:HW_Lib/AT32F435/USB/usbd_class/cdc/cdc_desc.c **** static usbd_desc_t *get_device_other_speed(void);
  49:HW_Lib/AT32F435/USB/usbd_class/cdc/cdc_desc.c **** static usbd_desc_t *get_device_lang_id(void);
  50:HW_Lib/AT32F435/USB/usbd_class/cdc/cdc_desc.c **** static usbd_desc_t *get_device_manufacturer_string(void);
  51:HW_Lib/AT32F435/USB/usbd_class/cdc/cdc_desc.c **** static usbd_desc_t *get_device_product_string(void);
  52:HW_Lib/AT32F435/USB/usbd_class/cdc/cdc_desc.c **** static usbd_desc_t *get_device_serial_string(void);
  53:HW_Lib/AT32F435/USB/usbd_class/cdc/cdc_desc.c **** static usbd_desc_t *get_device_interface_string(void);
  54:HW_Lib/AT32F435/USB/usbd_class/cdc/cdc_desc.c **** static usbd_desc_t *get_device_config_string(void);
  55:HW_Lib/AT32F435/USB/usbd_class/cdc/cdc_desc.c **** 
  56:HW_Lib/AT32F435/USB/usbd_class/cdc/cdc_desc.c **** static uint16_t usbd_unicode_convert(uint8_t *string, uint8_t *unicode_buf);
  57:HW_Lib/AT32F435/USB/usbd_class/cdc/cdc_desc.c **** static void usbd_int_to_unicode (uint32_t value , uint8_t *pbuf , uint8_t len);
  58:HW_Lib/AT32F435/USB/usbd_class/cdc/cdc_desc.c **** static void get_serial_num(void);
  59:HW_Lib/AT32F435/USB/usbd_class/cdc/cdc_desc.c **** static uint8_t g_usbd_desc_buffer[256];
  60:HW_Lib/AT32F435/USB/usbd_class/cdc/cdc_desc.c **** 
  61:HW_Lib/AT32F435/USB/usbd_class/cdc/cdc_desc.c **** /**
  62:HW_Lib/AT32F435/USB/usbd_class/cdc/cdc_desc.c ****   * @brief device descriptor handler structure
  63:HW_Lib/AT32F435/USB/usbd_class/cdc/cdc_desc.c ****   */
  64:HW_Lib/AT32F435/USB/usbd_class/cdc/cdc_desc.c **** usbd_desc_handler cdc_desc_handler =
  65:HW_Lib/AT32F435/USB/usbd_class/cdc/cdc_desc.c **** {
  66:HW_Lib/AT32F435/USB/usbd_class/cdc/cdc_desc.c ****   get_device_descriptor,
  67:HW_Lib/AT32F435/USB/usbd_class/cdc/cdc_desc.c ****   get_device_qualifier,
  68:HW_Lib/AT32F435/USB/usbd_class/cdc/cdc_desc.c ****   get_device_configuration,
  69:HW_Lib/AT32F435/USB/usbd_class/cdc/cdc_desc.c ****   get_device_other_speed,
  70:HW_Lib/AT32F435/USB/usbd_class/cdc/cdc_desc.c ****   get_device_lang_id,
  71:HW_Lib/AT32F435/USB/usbd_class/cdc/cdc_desc.c ****   get_device_manufacturer_string,
  72:HW_Lib/AT32F435/USB/usbd_class/cdc/cdc_desc.c ****   get_device_product_string,
  73:HW_Lib/AT32F435/USB/usbd_class/cdc/cdc_desc.c ****   get_device_serial_string,
  74:HW_Lib/AT32F435/USB/usbd_class/cdc/cdc_desc.c ****   get_device_interface_string,
  75:HW_Lib/AT32F435/USB/usbd_class/cdc/cdc_desc.c ****   get_device_config_string,
  76:HW_Lib/AT32F435/USB/usbd_class/cdc/cdc_desc.c **** };
  77:HW_Lib/AT32F435/USB/usbd_class/cdc/cdc_desc.c **** 
  78:HW_Lib/AT32F435/USB/usbd_class/cdc/cdc_desc.c **** /**
  79:HW_Lib/AT32F435/USB/usbd_class/cdc/cdc_desc.c ****   * @brief usb device standard descriptor
  80:HW_Lib/AT32F435/USB/usbd_class/cdc/cdc_desc.c ****   */
  81:HW_Lib/AT32F435/USB/usbd_class/cdc/cdc_desc.c **** #if defined ( __ICCARM__ ) /* iar compiler */
  82:HW_Lib/AT32F435/USB/usbd_class/cdc/cdc_desc.c ****   #pragma data_alignment=4
  83:HW_Lib/AT32F435/USB/usbd_class/cdc/cdc_desc.c **** #endif
  84:HW_Lib/AT32F435/USB/usbd_class/cdc/cdc_desc.c **** ALIGNED_HEAD static uint8_t g_usbd_descriptor[USB_DEVICE_DESC_LEN] ALIGNED_TAIL =
  85:HW_Lib/AT32F435/USB/usbd_class/cdc/cdc_desc.c **** {
  86:HW_Lib/AT32F435/USB/usbd_class/cdc/cdc_desc.c ****   USB_DEVICE_DESC_LEN,                   /* bLength */
  87:HW_Lib/AT32F435/USB/usbd_class/cdc/cdc_desc.c ****   USB_DESCIPTOR_TYPE_DEVICE,             /* bDescriptorType */
ARM GAS  C:\Users\8bit\AppData\Local\Temp\ccfNnq5p.s 			page 3


  88:HW_Lib/AT32F435/USB/usbd_class/cdc/cdc_desc.c ****   0x00,                                  /* bcdUSB */
  89:HW_Lib/AT32F435/USB/usbd_class/cdc/cdc_desc.c ****   0x02,
  90:HW_Lib/AT32F435/USB/usbd_class/cdc/cdc_desc.c ****   0x02,                                  /* bDeviceClass */
  91:HW_Lib/AT32F435/USB/usbd_class/cdc/cdc_desc.c ****   0x00,                                  /* bDeviceSubClass */
  92:HW_Lib/AT32F435/USB/usbd_class/cdc/cdc_desc.c ****   0x00,                                  /* bDeviceProtocol */
  93:HW_Lib/AT32F435/USB/usbd_class/cdc/cdc_desc.c ****   USB_MAX_EP0_SIZE,                      /* bMaxPacketSize */
  94:HW_Lib/AT32F435/USB/usbd_class/cdc/cdc_desc.c ****   LBYTE(USBD_CDC_VENDOR_ID),             /* idVendor */
  95:HW_Lib/AT32F435/USB/usbd_class/cdc/cdc_desc.c ****   HBYTE(USBD_CDC_VENDOR_ID),             /* idVendor */
  96:HW_Lib/AT32F435/USB/usbd_class/cdc/cdc_desc.c ****   LBYTE(USBD_CDC_PRODUCT_ID),            /* idProduct */
  97:HW_Lib/AT32F435/USB/usbd_class/cdc/cdc_desc.c ****   HBYTE(USBD_CDC_PRODUCT_ID),            /* idProduct */
  98:HW_Lib/AT32F435/USB/usbd_class/cdc/cdc_desc.c ****   0x00,                                  /* bcdDevice rel. 2.00 */
  99:HW_Lib/AT32F435/USB/usbd_class/cdc/cdc_desc.c ****   0x02,
 100:HW_Lib/AT32F435/USB/usbd_class/cdc/cdc_desc.c ****   USB_MFC_STRING,                        /* Index of manufacturer string */
 101:HW_Lib/AT32F435/USB/usbd_class/cdc/cdc_desc.c ****   USB_PRODUCT_STRING,                    /* Index of product string */
 102:HW_Lib/AT32F435/USB/usbd_class/cdc/cdc_desc.c ****   USB_SERIAL_STRING,                     /* Index of serial number string */
 103:HW_Lib/AT32F435/USB/usbd_class/cdc/cdc_desc.c ****   1                                      /* bNumConfigurations */
 104:HW_Lib/AT32F435/USB/usbd_class/cdc/cdc_desc.c **** };
 105:HW_Lib/AT32F435/USB/usbd_class/cdc/cdc_desc.c **** 
 106:HW_Lib/AT32F435/USB/usbd_class/cdc/cdc_desc.c **** /**
 107:HW_Lib/AT32F435/USB/usbd_class/cdc/cdc_desc.c ****   * @brief usb configuration standard descriptor
 108:HW_Lib/AT32F435/USB/usbd_class/cdc/cdc_desc.c ****   */
 109:HW_Lib/AT32F435/USB/usbd_class/cdc/cdc_desc.c **** #if defined ( __ICCARM__ ) /* iar compiler */
 110:HW_Lib/AT32F435/USB/usbd_class/cdc/cdc_desc.c ****   #pragma data_alignment=4
 111:HW_Lib/AT32F435/USB/usbd_class/cdc/cdc_desc.c **** #endif
 112:HW_Lib/AT32F435/USB/usbd_class/cdc/cdc_desc.c **** ALIGNED_HEAD static uint8_t g_usbd_configuration[USBD_CDC_CONFIG_DESC_SIZE] ALIGNED_TAIL =
 113:HW_Lib/AT32F435/USB/usbd_class/cdc/cdc_desc.c **** {
 114:HW_Lib/AT32F435/USB/usbd_class/cdc/cdc_desc.c ****   USB_DEVICE_CFG_DESC_LEN,               /* bLength: configuration descriptor size */
 115:HW_Lib/AT32F435/USB/usbd_class/cdc/cdc_desc.c ****   USB_DESCIPTOR_TYPE_CONFIGURATION,      /* bDescriptorType: configuration */
 116:HW_Lib/AT32F435/USB/usbd_class/cdc/cdc_desc.c ****   LBYTE(USBD_CDC_CONFIG_DESC_SIZE),          /* wTotalLength: bytes returned */
 117:HW_Lib/AT32F435/USB/usbd_class/cdc/cdc_desc.c ****   HBYTE(USBD_CDC_CONFIG_DESC_SIZE),          /* wTotalLength: bytes returned */
 118:HW_Lib/AT32F435/USB/usbd_class/cdc/cdc_desc.c ****   0x02,                                  /* bNumInterfaces: 2 interface */
 119:HW_Lib/AT32F435/USB/usbd_class/cdc/cdc_desc.c ****   0x01,                                  /* bConfigurationValue: configuration value */
 120:HW_Lib/AT32F435/USB/usbd_class/cdc/cdc_desc.c ****   0x00,                                  /* iConfiguration: index of string descriptor describing
 121:HW_Lib/AT32F435/USB/usbd_class/cdc/cdc_desc.c ****                                             the configuration */
 122:HW_Lib/AT32F435/USB/usbd_class/cdc/cdc_desc.c ****   0xC0,                                  /* bmAttributes: self powered */
 123:HW_Lib/AT32F435/USB/usbd_class/cdc/cdc_desc.c ****   0x32,                                  /* MaxPower 100 mA: this current is used for detecting vbu
 124:HW_Lib/AT32F435/USB/usbd_class/cdc/cdc_desc.c **** 
 125:HW_Lib/AT32F435/USB/usbd_class/cdc/cdc_desc.c ****   USB_DEVICE_IF_DESC_LEN,                /* bLength: interface descriptor size */
 126:HW_Lib/AT32F435/USB/usbd_class/cdc/cdc_desc.c ****   USB_DESCIPTOR_TYPE_INTERFACE,          /* bDescriptorType: interface descriptor type */
 127:HW_Lib/AT32F435/USB/usbd_class/cdc/cdc_desc.c ****   0x00,                                  /* bInterfaceNumber: number of interface */
 128:HW_Lib/AT32F435/USB/usbd_class/cdc/cdc_desc.c ****   0x00,                                  /* bAlternateSetting: alternate set */
 129:HW_Lib/AT32F435/USB/usbd_class/cdc/cdc_desc.c ****   0x01,                                  /* bNumEndpoints: number of endpoints */
 130:HW_Lib/AT32F435/USB/usbd_class/cdc/cdc_desc.c ****   USB_CLASS_CODE_CDC,                    /* bInterfaceClass: CDC class code */
 131:HW_Lib/AT32F435/USB/usbd_class/cdc/cdc_desc.c ****   0x02,                                  /* bInterfaceSubClass: subclass code, Abstract Control Mod
 132:HW_Lib/AT32F435/USB/usbd_class/cdc/cdc_desc.c ****   0x01,                                  /* bInterfaceProtocol: protocol code, AT Command */
 133:HW_Lib/AT32F435/USB/usbd_class/cdc/cdc_desc.c ****   0x00,                                  /* iInterface: index of string descriptor */
 134:HW_Lib/AT32F435/USB/usbd_class/cdc/cdc_desc.c **** 
 135:HW_Lib/AT32F435/USB/usbd_class/cdc/cdc_desc.c ****   0x05,                                  /* bFunctionLength: size of this descriptor in bytes */
 136:HW_Lib/AT32F435/USB/usbd_class/cdc/cdc_desc.c ****   USBD_CDC_CS_INTERFACE,                 /* bDescriptorType: CDC interface descriptor type */
 137:HW_Lib/AT32F435/USB/usbd_class/cdc/cdc_desc.c ****   USBD_CDC_SUBTYPE_HEADER,               /* bDescriptorSubtype: Header function Descriptor 0x00*/
 138:HW_Lib/AT32F435/USB/usbd_class/cdc/cdc_desc.c ****   LBYTE(CDC_BCD_NUM),
 139:HW_Lib/AT32F435/USB/usbd_class/cdc/cdc_desc.c ****   HBYTE(CDC_BCD_NUM),                    /* bcdCDC: USB class definitions for communications */
 140:HW_Lib/AT32F435/USB/usbd_class/cdc/cdc_desc.c **** 
 141:HW_Lib/AT32F435/USB/usbd_class/cdc/cdc_desc.c ****   0x05,                                  /* bFunctionLength: size of this descriptor in bytes */
 142:HW_Lib/AT32F435/USB/usbd_class/cdc/cdc_desc.c ****   USBD_CDC_CS_INTERFACE,                 /* bDescriptorType: CDC interface descriptor type */
 143:HW_Lib/AT32F435/USB/usbd_class/cdc/cdc_desc.c ****   USBD_CDC_SUBTYPE_CMF,                  /* bDescriptorSubtype: Call Management function descriptor
 144:HW_Lib/AT32F435/USB/usbd_class/cdc/cdc_desc.c ****   0x00,                                  /* bmCapabilities: 0x00*/
ARM GAS  C:\Users\8bit\AppData\Local\Temp\ccfNnq5p.s 			page 4


 145:HW_Lib/AT32F435/USB/usbd_class/cdc/cdc_desc.c ****   0x01,                                  /* bDataInterface: interface number of data class interfac
 146:HW_Lib/AT32F435/USB/usbd_class/cdc/cdc_desc.c **** 
 147:HW_Lib/AT32F435/USB/usbd_class/cdc/cdc_desc.c ****   0x04,                                  /* bFunctionLength: size of this descriptor in bytes */
 148:HW_Lib/AT32F435/USB/usbd_class/cdc/cdc_desc.c ****   USBD_CDC_CS_INTERFACE,                 /* bDescriptorType: CDC interface descriptor type */
 149:HW_Lib/AT32F435/USB/usbd_class/cdc/cdc_desc.c ****   USBD_CDC_SUBTYPE_ACM,                  /* bDescriptorSubtype: Abstract Control Management functio
 150:HW_Lib/AT32F435/USB/usbd_class/cdc/cdc_desc.c ****   0x02,                                  /* bmCapabilities: Support Set_Line_Coding and Get_Line_Co
 151:HW_Lib/AT32F435/USB/usbd_class/cdc/cdc_desc.c **** 
 152:HW_Lib/AT32F435/USB/usbd_class/cdc/cdc_desc.c ****   0x05,                                  /* bFunctionLength: size of this descriptor in bytes */
 153:HW_Lib/AT32F435/USB/usbd_class/cdc/cdc_desc.c ****   USBD_CDC_CS_INTERFACE,                 /* bDescriptorType: CDC interface descriptor type */
 154:HW_Lib/AT32F435/USB/usbd_class/cdc/cdc_desc.c ****   USBD_CDC_SUBTYPE_UFD,                  /* bDescriptorSubtype: Union Function Descriptor subtype 0
 155:HW_Lib/AT32F435/USB/usbd_class/cdc/cdc_desc.c ****   0x00,                                  /* bControlInterface: The interface number of the communic
 156:HW_Lib/AT32F435/USB/usbd_class/cdc/cdc_desc.c ****   0x01,                                  /* bSubordinateInterface0: interface number of first subor
 157:HW_Lib/AT32F435/USB/usbd_class/cdc/cdc_desc.c **** 
 158:HW_Lib/AT32F435/USB/usbd_class/cdc/cdc_desc.c ****   USB_DEVICE_EPT_LEN,                    /* bLength: size of endpoint descriptor in bytes */
 159:HW_Lib/AT32F435/USB/usbd_class/cdc/cdc_desc.c ****   USB_DESCIPTOR_TYPE_ENDPOINT,           /* bDescriptorType: endpoint descriptor type */
 160:HW_Lib/AT32F435/USB/usbd_class/cdc/cdc_desc.c ****   USBD_CDC_INT_EPT,                       /* bEndpointAddress: the address of endpoint on usb devic
 161:HW_Lib/AT32F435/USB/usbd_class/cdc/cdc_desc.c ****   USB_EPT_DESC_INTERRUPT,                /* bmAttributes: endpoint attributes */
 162:HW_Lib/AT32F435/USB/usbd_class/cdc/cdc_desc.c ****   LBYTE(USBD_CDC_CMD_MAXPACKET_SIZE),
 163:HW_Lib/AT32F435/USB/usbd_class/cdc/cdc_desc.c ****   HBYTE(USBD_CDC_CMD_MAXPACKET_SIZE),    /* wMaxPacketSize: maximum packe size this endpoint */
 164:HW_Lib/AT32F435/USB/usbd_class/cdc/cdc_desc.c ****   CDC_HID_BINTERVAL_TIME,                    /* bInterval: interval for polling endpoint for data t
 165:HW_Lib/AT32F435/USB/usbd_class/cdc/cdc_desc.c **** 
 166:HW_Lib/AT32F435/USB/usbd_class/cdc/cdc_desc.c **** 
 167:HW_Lib/AT32F435/USB/usbd_class/cdc/cdc_desc.c ****   USB_DEVICE_IF_DESC_LEN,                /* bLength: interface descriptor size */
 168:HW_Lib/AT32F435/USB/usbd_class/cdc/cdc_desc.c ****   USB_DESCIPTOR_TYPE_INTERFACE,          /* bDescriptorType: interface descriptor type */
 169:HW_Lib/AT32F435/USB/usbd_class/cdc/cdc_desc.c ****   0x01,                                  /* bInterfaceNumber: number of interface */
 170:HW_Lib/AT32F435/USB/usbd_class/cdc/cdc_desc.c ****   0x00,                                  /* bAlternateSetting: alternate set */
 171:HW_Lib/AT32F435/USB/usbd_class/cdc/cdc_desc.c ****   0x02,                                  /* bNumEndpoints: number of endpoints */
 172:HW_Lib/AT32F435/USB/usbd_class/cdc/cdc_desc.c ****   USB_CLASS_CODE_CDCDATA,                /* bInterfaceClass: CDC-data class code */
 173:HW_Lib/AT32F435/USB/usbd_class/cdc/cdc_desc.c ****   0x00,                                  /* bInterfaceSubClass: Data interface subclass code 0x00*/
 174:HW_Lib/AT32F435/USB/usbd_class/cdc/cdc_desc.c ****   0x00,                                  /* bInterfaceProtocol: data class protocol code 0x00 */
 175:HW_Lib/AT32F435/USB/usbd_class/cdc/cdc_desc.c ****   0x00,                                  /* iInterface: index of string descriptor */
 176:HW_Lib/AT32F435/USB/usbd_class/cdc/cdc_desc.c **** 
 177:HW_Lib/AT32F435/USB/usbd_class/cdc/cdc_desc.c ****   USB_DEVICE_EPT_LEN,                    /* bLength: size of endpoint descriptor in bytes */
 178:HW_Lib/AT32F435/USB/usbd_class/cdc/cdc_desc.c ****   USB_DESCIPTOR_TYPE_ENDPOINT,           /* bDescriptorType: endpoint descriptor type */
 179:HW_Lib/AT32F435/USB/usbd_class/cdc/cdc_desc.c ****   USBD_CDC_BULK_IN_EPT,                  /* bEndpointAddress: the address of endpoint on usb device
 180:HW_Lib/AT32F435/USB/usbd_class/cdc/cdc_desc.c ****   USB_EPT_DESC_BULK,                     /* bmAttributes: endpoint attributes */
 181:HW_Lib/AT32F435/USB/usbd_class/cdc/cdc_desc.c ****   LBYTE(USBD_CDC_IN_MAXPACKET_SIZE),
 182:HW_Lib/AT32F435/USB/usbd_class/cdc/cdc_desc.c ****   HBYTE(USBD_CDC_IN_MAXPACKET_SIZE),         /* wMaxPacketSize: maximum packe size this endpoint */
 183:HW_Lib/AT32F435/USB/usbd_class/cdc/cdc_desc.c ****   0x00,                                  /* bInterval: interval for polling endpoint for data trans
 184:HW_Lib/AT32F435/USB/usbd_class/cdc/cdc_desc.c **** 
 185:HW_Lib/AT32F435/USB/usbd_class/cdc/cdc_desc.c ****   USB_DEVICE_EPT_LEN,                    /* bLength: size of endpoint descriptor in bytes */
 186:HW_Lib/AT32F435/USB/usbd_class/cdc/cdc_desc.c ****   USB_DESCIPTOR_TYPE_ENDPOINT,           /* bDescriptorType: endpoint descriptor type */
 187:HW_Lib/AT32F435/USB/usbd_class/cdc/cdc_desc.c ****   USBD_CDC_BULK_OUT_EPT,                 /* bEndpointAddress: the address of endpoint on usb device
 188:HW_Lib/AT32F435/USB/usbd_class/cdc/cdc_desc.c ****   USB_EPT_DESC_BULK,                     /* bmAttributes: endpoint attributes */
 189:HW_Lib/AT32F435/USB/usbd_class/cdc/cdc_desc.c ****   LBYTE(USBD_CDC_OUT_MAXPACKET_SIZE),
 190:HW_Lib/AT32F435/USB/usbd_class/cdc/cdc_desc.c ****   HBYTE(USBD_CDC_OUT_MAXPACKET_SIZE),        /* wMaxPacketSize: maximum packe size this endpoint */
 191:HW_Lib/AT32F435/USB/usbd_class/cdc/cdc_desc.c ****   0x00,                                  /* bInterval: interval for polling endpoint for data trans
 192:HW_Lib/AT32F435/USB/usbd_class/cdc/cdc_desc.c **** };
 193:HW_Lib/AT32F435/USB/usbd_class/cdc/cdc_desc.c **** 
 194:HW_Lib/AT32F435/USB/usbd_class/cdc/cdc_desc.c **** /**
 195:HW_Lib/AT32F435/USB/usbd_class/cdc/cdc_desc.c ****   * @brief usb string lang id
 196:HW_Lib/AT32F435/USB/usbd_class/cdc/cdc_desc.c ****   */
 197:HW_Lib/AT32F435/USB/usbd_class/cdc/cdc_desc.c **** #if defined ( __ICCARM__ ) /* iar compiler */
 198:HW_Lib/AT32F435/USB/usbd_class/cdc/cdc_desc.c ****   #pragma data_alignment=4
 199:HW_Lib/AT32F435/USB/usbd_class/cdc/cdc_desc.c **** #endif
 200:HW_Lib/AT32F435/USB/usbd_class/cdc/cdc_desc.c **** ALIGNED_HEAD static uint8_t g_string_lang_id[USBD_CDC_SIZ_STRING_LANGID] ALIGNED_TAIL =
 201:HW_Lib/AT32F435/USB/usbd_class/cdc/cdc_desc.c **** {
ARM GAS  C:\Users\8bit\AppData\Local\Temp\ccfNnq5p.s 			page 5


 202:HW_Lib/AT32F435/USB/usbd_class/cdc/cdc_desc.c ****   USBD_CDC_SIZ_STRING_LANGID,
 203:HW_Lib/AT32F435/USB/usbd_class/cdc/cdc_desc.c ****   USB_DESCIPTOR_TYPE_STRING,
 204:HW_Lib/AT32F435/USB/usbd_class/cdc/cdc_desc.c ****   0x09,
 205:HW_Lib/AT32F435/USB/usbd_class/cdc/cdc_desc.c ****   0x04,
 206:HW_Lib/AT32F435/USB/usbd_class/cdc/cdc_desc.c **** };
 207:HW_Lib/AT32F435/USB/usbd_class/cdc/cdc_desc.c **** 
 208:HW_Lib/AT32F435/USB/usbd_class/cdc/cdc_desc.c **** /**
 209:HW_Lib/AT32F435/USB/usbd_class/cdc/cdc_desc.c ****   * @brief usb string serial
 210:HW_Lib/AT32F435/USB/usbd_class/cdc/cdc_desc.c ****   */
 211:HW_Lib/AT32F435/USB/usbd_class/cdc/cdc_desc.c **** #if defined ( __ICCARM__ ) /* iar compiler */
 212:HW_Lib/AT32F435/USB/usbd_class/cdc/cdc_desc.c ****   #pragma data_alignment=4
 213:HW_Lib/AT32F435/USB/usbd_class/cdc/cdc_desc.c **** #endif
 214:HW_Lib/AT32F435/USB/usbd_class/cdc/cdc_desc.c **** ALIGNED_HEAD static uint8_t g_string_serial[USBD_CDC_SIZ_STRING_SERIAL] ALIGNED_TAIL =
 215:HW_Lib/AT32F435/USB/usbd_class/cdc/cdc_desc.c **** {
 216:HW_Lib/AT32F435/USB/usbd_class/cdc/cdc_desc.c ****   USBD_CDC_SIZ_STRING_SERIAL,
 217:HW_Lib/AT32F435/USB/usbd_class/cdc/cdc_desc.c ****   USB_DESCIPTOR_TYPE_STRING,
 218:HW_Lib/AT32F435/USB/usbd_class/cdc/cdc_desc.c **** };
 219:HW_Lib/AT32F435/USB/usbd_class/cdc/cdc_desc.c **** 
 220:HW_Lib/AT32F435/USB/usbd_class/cdc/cdc_desc.c **** 
 221:HW_Lib/AT32F435/USB/usbd_class/cdc/cdc_desc.c **** /* device descriptor */
 222:HW_Lib/AT32F435/USB/usbd_class/cdc/cdc_desc.c **** static usbd_desc_t device_descriptor =
 223:HW_Lib/AT32F435/USB/usbd_class/cdc/cdc_desc.c **** {
 224:HW_Lib/AT32F435/USB/usbd_class/cdc/cdc_desc.c ****   USB_DEVICE_DESC_LEN,
 225:HW_Lib/AT32F435/USB/usbd_class/cdc/cdc_desc.c ****   g_usbd_descriptor
 226:HW_Lib/AT32F435/USB/usbd_class/cdc/cdc_desc.c **** };
 227:HW_Lib/AT32F435/USB/usbd_class/cdc/cdc_desc.c **** 
 228:HW_Lib/AT32F435/USB/usbd_class/cdc/cdc_desc.c **** /* config descriptor */
 229:HW_Lib/AT32F435/USB/usbd_class/cdc/cdc_desc.c **** static usbd_desc_t config_descriptor =
 230:HW_Lib/AT32F435/USB/usbd_class/cdc/cdc_desc.c **** {
 231:HW_Lib/AT32F435/USB/usbd_class/cdc/cdc_desc.c ****   USBD_CDC_CONFIG_DESC_SIZE,
 232:HW_Lib/AT32F435/USB/usbd_class/cdc/cdc_desc.c ****   g_usbd_configuration
 233:HW_Lib/AT32F435/USB/usbd_class/cdc/cdc_desc.c **** };
 234:HW_Lib/AT32F435/USB/usbd_class/cdc/cdc_desc.c **** 
 235:HW_Lib/AT32F435/USB/usbd_class/cdc/cdc_desc.c **** /* langid descriptor */
 236:HW_Lib/AT32F435/USB/usbd_class/cdc/cdc_desc.c **** static usbd_desc_t langid_descriptor =
 237:HW_Lib/AT32F435/USB/usbd_class/cdc/cdc_desc.c **** {
 238:HW_Lib/AT32F435/USB/usbd_class/cdc/cdc_desc.c ****   USBD_CDC_SIZ_STRING_LANGID,
 239:HW_Lib/AT32F435/USB/usbd_class/cdc/cdc_desc.c ****   g_string_lang_id
 240:HW_Lib/AT32F435/USB/usbd_class/cdc/cdc_desc.c **** };
 241:HW_Lib/AT32F435/USB/usbd_class/cdc/cdc_desc.c **** 
 242:HW_Lib/AT32F435/USB/usbd_class/cdc/cdc_desc.c **** /* serial descriptor */
 243:HW_Lib/AT32F435/USB/usbd_class/cdc/cdc_desc.c **** static usbd_desc_t serial_descriptor =
 244:HW_Lib/AT32F435/USB/usbd_class/cdc/cdc_desc.c **** {
 245:HW_Lib/AT32F435/USB/usbd_class/cdc/cdc_desc.c ****   USBD_CDC_SIZ_STRING_SERIAL,
 246:HW_Lib/AT32F435/USB/usbd_class/cdc/cdc_desc.c ****   g_string_serial
 247:HW_Lib/AT32F435/USB/usbd_class/cdc/cdc_desc.c **** };
 248:HW_Lib/AT32F435/USB/usbd_class/cdc/cdc_desc.c **** 
 249:HW_Lib/AT32F435/USB/usbd_class/cdc/cdc_desc.c **** static usbd_desc_t vp_desc;
 250:HW_Lib/AT32F435/USB/usbd_class/cdc/cdc_desc.c **** 
 251:HW_Lib/AT32F435/USB/usbd_class/cdc/cdc_desc.c **** /**
 252:HW_Lib/AT32F435/USB/usbd_class/cdc/cdc_desc.c ****   * @brief  standard usb unicode convert
 253:HW_Lib/AT32F435/USB/usbd_class/cdc/cdc_desc.c ****   * @param  string: source string
 254:HW_Lib/AT32F435/USB/usbd_class/cdc/cdc_desc.c ****   * @param  unicode_buf: unicode buffer
 255:HW_Lib/AT32F435/USB/usbd_class/cdc/cdc_desc.c ****   * @retval length
 256:HW_Lib/AT32F435/USB/usbd_class/cdc/cdc_desc.c ****   */
 257:HW_Lib/AT32F435/USB/usbd_class/cdc/cdc_desc.c **** static uint16_t usbd_unicode_convert(uint8_t *string, uint8_t *unicode_buf)
 258:HW_Lib/AT32F435/USB/usbd_class/cdc/cdc_desc.c **** {
ARM GAS  C:\Users\8bit\AppData\Local\Temp\ccfNnq5p.s 			page 6


  29              		.loc 1 258 1 view -0
  30              		.cfi_startproc
  31              		@ args = 0, pretend = 0, frame = 0
  32              		@ frame_needed = 0, uses_anonymous_args = 0
  33              		@ link register save eliminated.
  34              		.loc 1 258 1 is_stmt 0 view .LVU1
  35 0000 10B4     		push	{r4}
  36              	.LCFI0:
  37              		.cfi_def_cfa_offset 4
  38              		.cfi_offset 4, -4
 259:HW_Lib/AT32F435/USB/usbd_class/cdc/cdc_desc.c ****   uint16_t str_len = 0, id_pos = 2;
  39              		.loc 1 259 3 is_stmt 1 view .LVU2
  40              	.LVL1:
 260:HW_Lib/AT32F435/USB/usbd_class/cdc/cdc_desc.c ****   uint8_t *tmp_str = string;
  41              		.loc 1 260 3 view .LVU3
 261:HW_Lib/AT32F435/USB/usbd_class/cdc/cdc_desc.c **** 
 262:HW_Lib/AT32F435/USB/usbd_class/cdc/cdc_desc.c ****   while(*tmp_str != '\0')
  42              		.loc 1 262 3 view .LVU4
 259:HW_Lib/AT32F435/USB/usbd_class/cdc/cdc_desc.c ****   uint8_t *tmp_str = string;
  43              		.loc 1 259 25 is_stmt 0 view .LVU5
  44 0002 0223     		movs	r3, #2
 259:HW_Lib/AT32F435/USB/usbd_class/cdc/cdc_desc.c ****   uint8_t *tmp_str = string;
  45              		.loc 1 259 12 view .LVU6
  46 0004 0022     		movs	r2, #0
  47              		.loc 1 262 8 view .LVU7
  48 0006 0CE0     		b	.L2
  49              	.LVL2:
  50              	.L3:
 263:HW_Lib/AT32F435/USB/usbd_class/cdc/cdc_desc.c ****   {
 264:HW_Lib/AT32F435/USB/usbd_class/cdc/cdc_desc.c ****     str_len ++;
  51              		.loc 1 264 5 is_stmt 1 view .LVU8
  52              		.loc 1 264 13 is_stmt 0 view .LVU9
  53 0008 0132     		adds	r2, r2, #1
  54              	.LVL3:
  55              		.loc 1 264 13 view .LVU10
  56 000a 92B2     		uxth	r2, r2
  57              	.LVL4:
 265:HW_Lib/AT32F435/USB/usbd_class/cdc/cdc_desc.c ****     unicode_buf[id_pos ++] = *tmp_str ++;
  58              		.loc 1 265 5 is_stmt 1 view .LVU11
  59              		.loc 1 265 39 is_stmt 0 view .LVU12
  60 000c 0130     		adds	r0, r0, #1
  61              	.LVL5:
  62              		.loc 1 265 24 view .LVU13
  63 000e 03F1010C 		add	ip, r3, #1
  64 0012 1FFA8CFC 		uxth	ip, ip
  65              	.LVL6:
  66              		.loc 1 265 28 view .LVU14
  67 0016 CC54     		strb	r4, [r1, r3]
 266:HW_Lib/AT32F435/USB/usbd_class/cdc/cdc_desc.c ****     unicode_buf[id_pos ++] = 0x00;
  68              		.loc 1 266 5 is_stmt 1 view .LVU15
  69              		.loc 1 266 24 is_stmt 0 view .LVU16
  70 0018 0233     		adds	r3, r3, #2
  71 001a 9BB2     		uxth	r3, r3
  72              	.LVL7:
  73              		.loc 1 266 28 view .LVU17
  74 001c 0024     		movs	r4, #0
  75 001e 01F80C40 		strb	r4, [r1, ip]
ARM GAS  C:\Users\8bit\AppData\Local\Temp\ccfNnq5p.s 			page 7


  76              	.LVL8:
  77              	.L2:
 262:HW_Lib/AT32F435/USB/usbd_class/cdc/cdc_desc.c ****   {
  78              		.loc 1 262 8 is_stmt 1 view .LVU18
 262:HW_Lib/AT32F435/USB/usbd_class/cdc/cdc_desc.c ****   {
  79              		.loc 1 262 9 is_stmt 0 view .LVU19
  80 0022 0478     		ldrb	r4, [r0]	@ zero_extendqisi2
 262:HW_Lib/AT32F435/USB/usbd_class/cdc/cdc_desc.c ****   {
  81              		.loc 1 262 8 view .LVU20
  82 0024 002C     		cmp	r4, #0
  83 0026 EFD1     		bne	.L3
 267:HW_Lib/AT32F435/USB/usbd_class/cdc/cdc_desc.c ****   }
 268:HW_Lib/AT32F435/USB/usbd_class/cdc/cdc_desc.c **** 
 269:HW_Lib/AT32F435/USB/usbd_class/cdc/cdc_desc.c ****   str_len = str_len * 2 + 2;
  84              		.loc 1 269 3 is_stmt 1 view .LVU21
  85              		.loc 1 269 11 is_stmt 0 view .LVU22
  86 0028 0132     		adds	r2, r2, #1
  87              	.LVL9:
  88              		.loc 1 269 11 view .LVU23
  89 002a 92B2     		uxth	r2, r2
  90 002c 5200     		lsls	r2, r2, #1
  91 002e 90B2     		uxth	r0, r2
  92              	.LVL10:
 270:HW_Lib/AT32F435/USB/usbd_class/cdc/cdc_desc.c ****   unicode_buf[0] = (uint8_t)str_len;
  93              		.loc 1 270 3 is_stmt 1 view .LVU24
  94              		.loc 1 270 18 is_stmt 0 view .LVU25
  95 0030 0A70     		strb	r2, [r1]
 271:HW_Lib/AT32F435/USB/usbd_class/cdc/cdc_desc.c ****   unicode_buf[1] = USB_DESCIPTOR_TYPE_STRING;
  96              		.loc 1 271 3 is_stmt 1 view .LVU26
  97              		.loc 1 271 18 is_stmt 0 view .LVU27
  98 0032 0323     		movs	r3, #3
  99              	.LVL11:
 100              		.loc 1 271 18 view .LVU28
 101 0034 4B70     		strb	r3, [r1, #1]
 272:HW_Lib/AT32F435/USB/usbd_class/cdc/cdc_desc.c **** 
 273:HW_Lib/AT32F435/USB/usbd_class/cdc/cdc_desc.c ****   return str_len;
 102              		.loc 1 273 3 is_stmt 1 view .LVU29
 274:HW_Lib/AT32F435/USB/usbd_class/cdc/cdc_desc.c **** }
 103              		.loc 1 274 1 is_stmt 0 view .LVU30
 104 0036 5DF8044B 		ldr	r4, [sp], #4
 105              	.LCFI1:
 106              		.cfi_restore 4
 107              		.cfi_def_cfa_offset 0
 108 003a 7047     		bx	lr
 109              		.cfi_endproc
 110              	.LFE136:
 112              		.section	.text.usbd_int_to_unicode,"ax",%progbits
 113              		.align	1
 114              		.syntax unified
 115              		.thumb
 116              		.thumb_func
 118              	usbd_int_to_unicode:
 119              	.LVL12:
 120              	.LFB137:
 275:HW_Lib/AT32F435/USB/usbd_class/cdc/cdc_desc.c **** 
 276:HW_Lib/AT32F435/USB/usbd_class/cdc/cdc_desc.c **** /**
 277:HW_Lib/AT32F435/USB/usbd_class/cdc/cdc_desc.c ****   * @brief  usb int convert to unicode
ARM GAS  C:\Users\8bit\AppData\Local\Temp\ccfNnq5p.s 			page 8


 278:HW_Lib/AT32F435/USB/usbd_class/cdc/cdc_desc.c ****   * @param  value: int value
 279:HW_Lib/AT32F435/USB/usbd_class/cdc/cdc_desc.c ****   * @param  pbus: unicode buffer
 280:HW_Lib/AT32F435/USB/usbd_class/cdc/cdc_desc.c ****   * @param  len: length
 281:HW_Lib/AT32F435/USB/usbd_class/cdc/cdc_desc.c ****   * @retval none
 282:HW_Lib/AT32F435/USB/usbd_class/cdc/cdc_desc.c ****   */
 283:HW_Lib/AT32F435/USB/usbd_class/cdc/cdc_desc.c **** static void usbd_int_to_unicode (uint32_t value , uint8_t *pbuf , uint8_t len)
 284:HW_Lib/AT32F435/USB/usbd_class/cdc/cdc_desc.c **** {
 121              		.loc 1 284 1 is_stmt 1 view -0
 122              		.cfi_startproc
 123              		@ args = 0, pretend = 0, frame = 0
 124              		@ frame_needed = 0, uses_anonymous_args = 0
 285:HW_Lib/AT32F435/USB/usbd_class/cdc/cdc_desc.c ****   uint8_t idx = 0;
 125              		.loc 1 285 3 view .LVU32
 286:HW_Lib/AT32F435/USB/usbd_class/cdc/cdc_desc.c **** 
 287:HW_Lib/AT32F435/USB/usbd_class/cdc/cdc_desc.c ****   for( idx = 0 ; idx < len ; idx ++)
 126              		.loc 1 287 3 view .LVU33
 127              		.loc 1 287 12 is_stmt 0 view .LVU34
 128 0000 0023     		movs	r3, #0
 129              	.LVL13:
 130              		.loc 1 287 18 is_stmt 1 view .LVU35
 131              		.loc 1 287 3 is_stmt 0 view .LVU36
 132 0002 9342     		cmp	r3, r2
 133 0004 1ED2     		bcs	.L13
 284:HW_Lib/AT32F435/USB/usbd_class/cdc/cdc_desc.c ****   uint8_t idx = 0;
 134              		.loc 1 284 1 view .LVU37
 135 0006 00B5     		push	{lr}
 136              	.LCFI2:
 137              		.cfi_def_cfa_offset 4
 138              		.cfi_offset 14, -4
 139 0008 10E0     		b	.L9
 140              	.L7:
 288:HW_Lib/AT32F435/USB/usbd_class/cdc/cdc_desc.c ****   {
 289:HW_Lib/AT32F435/USB/usbd_class/cdc/cdc_desc.c ****     if( ((value >> 28)) < 0xA )
 290:HW_Lib/AT32F435/USB/usbd_class/cdc/cdc_desc.c ****     {
 291:HW_Lib/AT32F435/USB/usbd_class/cdc/cdc_desc.c ****       pbuf[ 2 * idx] = (value >> 28) + '0';
 292:HW_Lib/AT32F435/USB/usbd_class/cdc/cdc_desc.c ****   }
 293:HW_Lib/AT32F435/USB/usbd_class/cdc/cdc_desc.c ****   else
 294:HW_Lib/AT32F435/USB/usbd_class/cdc/cdc_desc.c ****   {
 295:HW_Lib/AT32F435/USB/usbd_class/cdc/cdc_desc.c ****       pbuf[2 * idx] = (value >> 28) + 'A' - 10;
 141              		.loc 1 295 7 is_stmt 1 view .LVU38
 142              		.loc 1 295 43 is_stmt 0 view .LVU39
 143 000a 0CF1370C 		add	ip, ip, #55
 144              		.loc 1 295 21 view .LVU40
 145 000e 01F813C0 		strb	ip, [r1, r3, lsl #1]
 146              	.L8:
 296:HW_Lib/AT32F435/USB/usbd_class/cdc/cdc_desc.c ****     }
 297:HW_Lib/AT32F435/USB/usbd_class/cdc/cdc_desc.c **** 
 298:HW_Lib/AT32F435/USB/usbd_class/cdc/cdc_desc.c ****     value = value << 4;
 147              		.loc 1 298 5 is_stmt 1 discriminator 2 view .LVU41
 148              		.loc 1 298 11 is_stmt 0 discriminator 2 view .LVU42
 149 0012 0001     		lsls	r0, r0, #4
 150              	.LVL14:
 299:HW_Lib/AT32F435/USB/usbd_class/cdc/cdc_desc.c **** 
 300:HW_Lib/AT32F435/USB/usbd_class/cdc/cdc_desc.c ****     pbuf[2 * idx + 1] = 0;
 151              		.loc 1 300 5 is_stmt 1 discriminator 2 view .LVU43
 152              		.loc 1 300 12 is_stmt 0 discriminator 2 view .LVU44
 153 0014 4FEA430C 		lsl	ip, r3, #1
ARM GAS  C:\Users\8bit\AppData\Local\Temp\ccfNnq5p.s 			page 9


 154              		.loc 1 300 9 discriminator 2 view .LVU45
 155 0018 0CF1010C 		add	ip, ip, #1
 156              		.loc 1 300 23 discriminator 2 view .LVU46
 157 001c 4FF0000E 		mov	lr, #0
 158 0020 01F80CE0 		strb	lr, [r1, ip]
 287:HW_Lib/AT32F435/USB/usbd_class/cdc/cdc_desc.c ****   {
 159              		.loc 1 287 30 is_stmt 1 discriminator 2 view .LVU47
 287:HW_Lib/AT32F435/USB/usbd_class/cdc/cdc_desc.c ****   {
 160              		.loc 1 287 34 is_stmt 0 discriminator 2 view .LVU48
 161 0024 0133     		adds	r3, r3, #1
 162              	.LVL15:
 287:HW_Lib/AT32F435/USB/usbd_class/cdc/cdc_desc.c ****   {
 163              		.loc 1 287 34 discriminator 2 view .LVU49
 164 0026 DBB2     		uxtb	r3, r3
 165              	.LVL16:
 287:HW_Lib/AT32F435/USB/usbd_class/cdc/cdc_desc.c ****   {
 166              		.loc 1 287 18 is_stmt 1 discriminator 2 view .LVU50
 287:HW_Lib/AT32F435/USB/usbd_class/cdc/cdc_desc.c ****   {
 167              		.loc 1 287 3 is_stmt 0 discriminator 2 view .LVU51
 168 0028 9342     		cmp	r3, r2
 169 002a 09D2     		bcs	.L14
 170              	.L9:
 289:HW_Lib/AT32F435/USB/usbd_class/cdc/cdc_desc.c ****     {
 171              		.loc 1 289 5 is_stmt 1 view .LVU52
 289:HW_Lib/AT32F435/USB/usbd_class/cdc/cdc_desc.c ****     {
 172              		.loc 1 289 17 is_stmt 0 view .LVU53
 173 002c 4FEA107C 		lsr	ip, r0, #28
 289:HW_Lib/AT32F435/USB/usbd_class/cdc/cdc_desc.c ****     {
 174              		.loc 1 289 7 view .LVU54
 175 0030 B0F1204F 		cmp	r0, #-1610612736
 176 0034 E9D2     		bcs	.L7
 291:HW_Lib/AT32F435/USB/usbd_class/cdc/cdc_desc.c ****   }
 177              		.loc 1 291 7 is_stmt 1 view .LVU55
 291:HW_Lib/AT32F435/USB/usbd_class/cdc/cdc_desc.c ****   }
 178              		.loc 1 291 38 is_stmt 0 view .LVU56
 179 0036 0CF1300C 		add	ip, ip, #48
 291:HW_Lib/AT32F435/USB/usbd_class/cdc/cdc_desc.c ****   }
 180              		.loc 1 291 22 view .LVU57
 181 003a 01F813C0 		strb	ip, [r1, r3, lsl #1]
 182 003e E8E7     		b	.L8
 183              	.L14:
 301:HW_Lib/AT32F435/USB/usbd_class/cdc/cdc_desc.c ****   }
 302:HW_Lib/AT32F435/USB/usbd_class/cdc/cdc_desc.c **** }
 184              		.loc 1 302 1 view .LVU58
 185 0040 5DF804FB 		ldr	pc, [sp], #4
 186              	.L13:
 187              	.LCFI3:
 188              		.cfi_def_cfa_offset 0
 189              		.cfi_restore 14
 190              		.loc 1 302 1 view .LVU59
 191 0044 7047     		bx	lr
 192              		.cfi_endproc
 193              	.LFE137:
 195              		.section	.text.get_serial_num,"ax",%progbits
 196              		.align	1
 197              		.syntax unified
 198              		.thumb
ARM GAS  C:\Users\8bit\AppData\Local\Temp\ccfNnq5p.s 			page 10


 199              		.thumb_func
 201              	get_serial_num:
 202              	.LFB138:
 303:HW_Lib/AT32F435/USB/usbd_class/cdc/cdc_desc.c **** 
 304:HW_Lib/AT32F435/USB/usbd_class/cdc/cdc_desc.c **** /**
 305:HW_Lib/AT32F435/USB/usbd_class/cdc/cdc_desc.c ****   * @brief  usb get serial number
 306:HW_Lib/AT32F435/USB/usbd_class/cdc/cdc_desc.c ****   * @param  none
 307:HW_Lib/AT32F435/USB/usbd_class/cdc/cdc_desc.c ****   * @retval none
 308:HW_Lib/AT32F435/USB/usbd_class/cdc/cdc_desc.c ****   */
 309:HW_Lib/AT32F435/USB/usbd_class/cdc/cdc_desc.c **** static void get_serial_num(void)
 310:HW_Lib/AT32F435/USB/usbd_class/cdc/cdc_desc.c **** {
 203              		.loc 1 310 1 is_stmt 1 view -0
 204              		.cfi_startproc
 205              		@ args = 0, pretend = 0, frame = 0
 206              		@ frame_needed = 0, uses_anonymous_args = 0
 207 0000 38B5     		push	{r3, r4, r5, lr}
 208              	.LCFI4:
 209              		.cfi_def_cfa_offset 16
 210              		.cfi_offset 3, -16
 211              		.cfi_offset 4, -12
 212              		.cfi_offset 5, -8
 213              		.cfi_offset 14, -4
 311:HW_Lib/AT32F435/USB/usbd_class/cdc/cdc_desc.c ****   uint32_t serial0, serial1, serial2;
 214              		.loc 1 311 3 view .LVU61
 312:HW_Lib/AT32F435/USB/usbd_class/cdc/cdc_desc.c **** 
 313:HW_Lib/AT32F435/USB/usbd_class/cdc/cdc_desc.c ****   serial0 = *(uint32_t*)MCU_ID1;
 215              		.loc 1 313 3 view .LVU62
 216              		.loc 1 313 11 is_stmt 0 view .LVU63
 217 0002 0B4B     		ldr	r3, .L19
 218 0004 D3F8E807 		ldr	r0, [r3, #2024]
 219              	.LVL17:
 314:HW_Lib/AT32F435/USB/usbd_class/cdc/cdc_desc.c ****   serial1 = *(uint32_t*)MCU_ID2;
 220              		.loc 1 314 3 is_stmt 1 view .LVU64
 221              		.loc 1 314 11 is_stmt 0 view .LVU65
 222 0008 D3F8EC47 		ldr	r4, [r3, #2028]
 223              	.LVL18:
 315:HW_Lib/AT32F435/USB/usbd_class/cdc/cdc_desc.c ****   serial2 = *(uint32_t*)MCU_ID3;
 224              		.loc 1 315 3 is_stmt 1 view .LVU66
 225              		.loc 1 315 11 is_stmt 0 view .LVU67
 226 000c D3F8F037 		ldr	r3, [r3, #2032]
 227              	.LVL19:
 316:HW_Lib/AT32F435/USB/usbd_class/cdc/cdc_desc.c **** 
 317:HW_Lib/AT32F435/USB/usbd_class/cdc/cdc_desc.c ****   serial0 += serial2;
 228              		.loc 1 317 3 is_stmt 1 view .LVU68
 318:HW_Lib/AT32F435/USB/usbd_class/cdc/cdc_desc.c **** 
 319:HW_Lib/AT32F435/USB/usbd_class/cdc/cdc_desc.c ****   if (serial0 != 0)
 229              		.loc 1 319 3 view .LVU69
 230              		.loc 1 319 6 is_stmt 0 view .LVU70
 231 0010 C018     		adds	r0, r0, r3
 232              	.LVL20:
 233              		.loc 1 319 6 view .LVU71
 234 0012 00D1     		bne	.L18
 235              	.LVL21:
 236              	.L15:
 320:HW_Lib/AT32F435/USB/usbd_class/cdc/cdc_desc.c ****   {
 321:HW_Lib/AT32F435/USB/usbd_class/cdc/cdc_desc.c ****     usbd_int_to_unicode (serial0, &g_string_serial[2] ,8);
 322:HW_Lib/AT32F435/USB/usbd_class/cdc/cdc_desc.c ****     usbd_int_to_unicode (serial1, &g_string_serial[18] ,4);
ARM GAS  C:\Users\8bit\AppData\Local\Temp\ccfNnq5p.s 			page 11


 323:HW_Lib/AT32F435/USB/usbd_class/cdc/cdc_desc.c ****   }
 324:HW_Lib/AT32F435/USB/usbd_class/cdc/cdc_desc.c **** }
 237              		.loc 1 324 1 view .LVU72
 238 0014 38BD     		pop	{r3, r4, r5, pc}
 239              	.LVL22:
 240              	.L18:
 321:HW_Lib/AT32F435/USB/usbd_class/cdc/cdc_desc.c ****     usbd_int_to_unicode (serial1, &g_string_serial[18] ,4);
 241              		.loc 1 321 5 is_stmt 1 view .LVU73
 242 0016 074D     		ldr	r5, .L19+4
 243 0018 0822     		movs	r2, #8
 244 001a A91C     		adds	r1, r5, #2
 245 001c FFF7FEFF 		bl	usbd_int_to_unicode
 246              	.LVL23:
 322:HW_Lib/AT32F435/USB/usbd_class/cdc/cdc_desc.c ****   }
 247              		.loc 1 322 5 view .LVU74
 248 0020 0422     		movs	r2, #4
 249 0022 05F11201 		add	r1, r5, #18
 250 0026 2046     		mov	r0, r4
 251 0028 FFF7FEFF 		bl	usbd_int_to_unicode
 252              	.LVL24:
 253              		.loc 1 324 1 is_stmt 0 view .LVU75
 254 002c F2E7     		b	.L15
 255              	.L20:
 256 002e 00BF     		.align	2
 257              	.L19:
 258 0030 00F0FF1F 		.word	536866816
 259 0034 00000000 		.word	.LANCHOR0
 260              		.cfi_endproc
 261              	.LFE138:
 263              		.section	.text.get_device_descriptor,"ax",%progbits
 264              		.align	1
 265              		.syntax unified
 266              		.thumb
 267              		.thumb_func
 269              	get_device_descriptor:
 270              	.LFB139:
 325:HW_Lib/AT32F435/USB/usbd_class/cdc/cdc_desc.c **** 
 326:HW_Lib/AT32F435/USB/usbd_class/cdc/cdc_desc.c **** /**
 327:HW_Lib/AT32F435/USB/usbd_class/cdc/cdc_desc.c ****   * @brief  get device descriptor
 328:HW_Lib/AT32F435/USB/usbd_class/cdc/cdc_desc.c ****   * @param  none
 329:HW_Lib/AT32F435/USB/usbd_class/cdc/cdc_desc.c ****   * @retval usbd_desc
 330:HW_Lib/AT32F435/USB/usbd_class/cdc/cdc_desc.c ****   */
 331:HW_Lib/AT32F435/USB/usbd_class/cdc/cdc_desc.c **** static usbd_desc_t *get_device_descriptor(void)
 332:HW_Lib/AT32F435/USB/usbd_class/cdc/cdc_desc.c **** {
 271              		.loc 1 332 1 is_stmt 1 view -0
 272              		.cfi_startproc
 273              		@ args = 0, pretend = 0, frame = 0
 274              		@ frame_needed = 0, uses_anonymous_args = 0
 275              		@ link register save eliminated.
 333:HW_Lib/AT32F435/USB/usbd_class/cdc/cdc_desc.c ****   return &device_descriptor;
 276              		.loc 1 333 3 view .LVU77
 334:HW_Lib/AT32F435/USB/usbd_class/cdc/cdc_desc.c **** }
 277              		.loc 1 334 1 is_stmt 0 view .LVU78
 278 0000 0048     		ldr	r0, .L22
 279 0002 7047     		bx	lr
 280              	.L23:
 281              		.align	2
ARM GAS  C:\Users\8bit\AppData\Local\Temp\ccfNnq5p.s 			page 12


 282              	.L22:
 283 0004 00000000 		.word	.LANCHOR1
 284              		.cfi_endproc
 285              	.LFE139:
 287              		.section	.text.get_device_qualifier,"ax",%progbits
 288              		.align	1
 289              		.syntax unified
 290              		.thumb
 291              		.thumb_func
 293              	get_device_qualifier:
 294              	.LFB140:
 335:HW_Lib/AT32F435/USB/usbd_class/cdc/cdc_desc.c **** 
 336:HW_Lib/AT32F435/USB/usbd_class/cdc/cdc_desc.c **** /**
 337:HW_Lib/AT32F435/USB/usbd_class/cdc/cdc_desc.c ****   * @brief  get device qualifier
 338:HW_Lib/AT32F435/USB/usbd_class/cdc/cdc_desc.c ****   * @param  none
 339:HW_Lib/AT32F435/USB/usbd_class/cdc/cdc_desc.c ****   * @retval usbd_desc
 340:HW_Lib/AT32F435/USB/usbd_class/cdc/cdc_desc.c ****   */
 341:HW_Lib/AT32F435/USB/usbd_class/cdc/cdc_desc.c **** static usbd_desc_t * get_device_qualifier(void)
 342:HW_Lib/AT32F435/USB/usbd_class/cdc/cdc_desc.c **** {
 295              		.loc 1 342 1 is_stmt 1 view -0
 296              		.cfi_startproc
 297              		@ args = 0, pretend = 0, frame = 0
 298              		@ frame_needed = 0, uses_anonymous_args = 0
 299              		@ link register save eliminated.
 343:HW_Lib/AT32F435/USB/usbd_class/cdc/cdc_desc.c ****   return NULL;
 300              		.loc 1 343 3 view .LVU80
 344:HW_Lib/AT32F435/USB/usbd_class/cdc/cdc_desc.c **** }
 301              		.loc 1 344 1 is_stmt 0 view .LVU81
 302 0000 0020     		movs	r0, #0
 303 0002 7047     		bx	lr
 304              		.cfi_endproc
 305              	.LFE140:
 307              		.section	.text.get_device_configuration,"ax",%progbits
 308              		.align	1
 309              		.syntax unified
 310              		.thumb
 311              		.thumb_func
 313              	get_device_configuration:
 314              	.LFB141:
 345:HW_Lib/AT32F435/USB/usbd_class/cdc/cdc_desc.c **** 
 346:HW_Lib/AT32F435/USB/usbd_class/cdc/cdc_desc.c **** /**
 347:HW_Lib/AT32F435/USB/usbd_class/cdc/cdc_desc.c ****   * @brief  get config descriptor
 348:HW_Lib/AT32F435/USB/usbd_class/cdc/cdc_desc.c ****   * @param  none
 349:HW_Lib/AT32F435/USB/usbd_class/cdc/cdc_desc.c ****   * @retval usbd_desc
 350:HW_Lib/AT32F435/USB/usbd_class/cdc/cdc_desc.c ****   */
 351:HW_Lib/AT32F435/USB/usbd_class/cdc/cdc_desc.c **** static usbd_desc_t *get_device_configuration(void)
 352:HW_Lib/AT32F435/USB/usbd_class/cdc/cdc_desc.c **** {
 315              		.loc 1 352 1 is_stmt 1 view -0
 316              		.cfi_startproc
 317              		@ args = 0, pretend = 0, frame = 0
 318              		@ frame_needed = 0, uses_anonymous_args = 0
 319              		@ link register save eliminated.
 353:HW_Lib/AT32F435/USB/usbd_class/cdc/cdc_desc.c ****   return &config_descriptor;
 320              		.loc 1 353 3 view .LVU83
 354:HW_Lib/AT32F435/USB/usbd_class/cdc/cdc_desc.c **** }
 321              		.loc 1 354 1 is_stmt 0 view .LVU84
 322 0000 0048     		ldr	r0, .L26
ARM GAS  C:\Users\8bit\AppData\Local\Temp\ccfNnq5p.s 			page 13


 323 0002 7047     		bx	lr
 324              	.L27:
 325              		.align	2
 326              	.L26:
 327 0004 00000000 		.word	.LANCHOR2
 328              		.cfi_endproc
 329              	.LFE141:
 331              		.section	.text.get_device_other_speed,"ax",%progbits
 332              		.align	1
 333              		.syntax unified
 334              		.thumb
 335              		.thumb_func
 337              	get_device_other_speed:
 338              	.LFB142:
 355:HW_Lib/AT32F435/USB/usbd_class/cdc/cdc_desc.c **** 
 356:HW_Lib/AT32F435/USB/usbd_class/cdc/cdc_desc.c **** /**
 357:HW_Lib/AT32F435/USB/usbd_class/cdc/cdc_desc.c ****   * @brief  get other speed descriptor
 358:HW_Lib/AT32F435/USB/usbd_class/cdc/cdc_desc.c ****   * @param  none
 359:HW_Lib/AT32F435/USB/usbd_class/cdc/cdc_desc.c ****   * @retval usbd_desc
 360:HW_Lib/AT32F435/USB/usbd_class/cdc/cdc_desc.c ****   */
 361:HW_Lib/AT32F435/USB/usbd_class/cdc/cdc_desc.c **** static usbd_desc_t *get_device_other_speed(void)
 362:HW_Lib/AT32F435/USB/usbd_class/cdc/cdc_desc.c **** {
 339              		.loc 1 362 1 is_stmt 1 view -0
 340              		.cfi_startproc
 341              		@ args = 0, pretend = 0, frame = 0
 342              		@ frame_needed = 0, uses_anonymous_args = 0
 343              		@ link register save eliminated.
 363:HW_Lib/AT32F435/USB/usbd_class/cdc/cdc_desc.c ****   return NULL;
 344              		.loc 1 363 3 view .LVU86
 364:HW_Lib/AT32F435/USB/usbd_class/cdc/cdc_desc.c **** }
 345              		.loc 1 364 1 is_stmt 0 view .LVU87
 346 0000 0020     		movs	r0, #0
 347 0002 7047     		bx	lr
 348              		.cfi_endproc
 349              	.LFE142:
 351              		.section	.text.get_device_lang_id,"ax",%progbits
 352              		.align	1
 353              		.syntax unified
 354              		.thumb
 355              		.thumb_func
 357              	get_device_lang_id:
 358              	.LFB143:
 365:HW_Lib/AT32F435/USB/usbd_class/cdc/cdc_desc.c **** 
 366:HW_Lib/AT32F435/USB/usbd_class/cdc/cdc_desc.c **** /**
 367:HW_Lib/AT32F435/USB/usbd_class/cdc/cdc_desc.c ****   * @brief  get lang id descriptor
 368:HW_Lib/AT32F435/USB/usbd_class/cdc/cdc_desc.c ****   * @param  none
 369:HW_Lib/AT32F435/USB/usbd_class/cdc/cdc_desc.c ****   * @retval usbd_desc
 370:HW_Lib/AT32F435/USB/usbd_class/cdc/cdc_desc.c ****   */
 371:HW_Lib/AT32F435/USB/usbd_class/cdc/cdc_desc.c **** static usbd_desc_t *get_device_lang_id(void)
 372:HW_Lib/AT32F435/USB/usbd_class/cdc/cdc_desc.c **** {
 359              		.loc 1 372 1 is_stmt 1 view -0
 360              		.cfi_startproc
 361              		@ args = 0, pretend = 0, frame = 0
 362              		@ frame_needed = 0, uses_anonymous_args = 0
 363              		@ link register save eliminated.
 373:HW_Lib/AT32F435/USB/usbd_class/cdc/cdc_desc.c ****   return &langid_descriptor;
 364              		.loc 1 373 3 view .LVU89
ARM GAS  C:\Users\8bit\AppData\Local\Temp\ccfNnq5p.s 			page 14


 374:HW_Lib/AT32F435/USB/usbd_class/cdc/cdc_desc.c **** }
 365              		.loc 1 374 1 is_stmt 0 view .LVU90
 366 0000 0048     		ldr	r0, .L30
 367 0002 7047     		bx	lr
 368              	.L31:
 369              		.align	2
 370              	.L30:
 371 0004 00000000 		.word	.LANCHOR3
 372              		.cfi_endproc
 373              	.LFE143:
 375              		.section	.rodata.get_device_manufacturer_string.str1.4,"aMS",%progbits,1
 376              		.align	2
 377              	.LC0:
 378 0000 385F4221 		.ascii	"8_B!T0\000"
 378      543000
 379              		.section	.text.get_device_manufacturer_string,"ax",%progbits
 380              		.align	1
 381              		.syntax unified
 382              		.thumb
 383              		.thumb_func
 385              	get_device_manufacturer_string:
 386              	.LFB144:
 375:HW_Lib/AT32F435/USB/usbd_class/cdc/cdc_desc.c **** 
 376:HW_Lib/AT32F435/USB/usbd_class/cdc/cdc_desc.c **** 
 377:HW_Lib/AT32F435/USB/usbd_class/cdc/cdc_desc.c **** /**
 378:HW_Lib/AT32F435/USB/usbd_class/cdc/cdc_desc.c ****   * @brief  get manufacturer descriptor
 379:HW_Lib/AT32F435/USB/usbd_class/cdc/cdc_desc.c ****   * @param  none
 380:HW_Lib/AT32F435/USB/usbd_class/cdc/cdc_desc.c ****   * @retval usbd_desc
 381:HW_Lib/AT32F435/USB/usbd_class/cdc/cdc_desc.c ****   */
 382:HW_Lib/AT32F435/USB/usbd_class/cdc/cdc_desc.c **** static usbd_desc_t *get_device_manufacturer_string(void)
 383:HW_Lib/AT32F435/USB/usbd_class/cdc/cdc_desc.c **** {
 387              		.loc 1 383 1 is_stmt 1 view -0
 388              		.cfi_startproc
 389              		@ args = 0, pretend = 0, frame = 0
 390              		@ frame_needed = 0, uses_anonymous_args = 0
 391 0000 10B5     		push	{r4, lr}
 392              	.LCFI5:
 393              		.cfi_def_cfa_offset 8
 394              		.cfi_offset 4, -8
 395              		.cfi_offset 14, -4
 384:HW_Lib/AT32F435/USB/usbd_class/cdc/cdc_desc.c ****   vp_desc.length = usbd_unicode_convert((uint8_t *)USBD_CDC_DESC_MANUFACTURER_STRING, g_usbd_desc_b
 396              		.loc 1 384 3 view .LVU92
 397              		.loc 1 384 20 is_stmt 0 view .LVU93
 398 0002 054C     		ldr	r4, .L34
 399 0004 2146     		mov	r1, r4
 400 0006 0548     		ldr	r0, .L34+4
 401 0008 FFF7FEFF 		bl	usbd_unicode_convert
 402              	.LVL25:
 403              		.loc 1 384 18 view .LVU94
 404 000c 044B     		ldr	r3, .L34+8
 405 000e 1880     		strh	r0, [r3]	@ movhi
 385:HW_Lib/AT32F435/USB/usbd_class/cdc/cdc_desc.c ****   vp_desc.descriptor = g_usbd_desc_buffer;
 406              		.loc 1 385 3 is_stmt 1 view .LVU95
 407              		.loc 1 385 22 is_stmt 0 view .LVU96
 408 0010 5C60     		str	r4, [r3, #4]
 386:HW_Lib/AT32F435/USB/usbd_class/cdc/cdc_desc.c ****   return &vp_desc;
 409              		.loc 1 386 3 is_stmt 1 view .LVU97
ARM GAS  C:\Users\8bit\AppData\Local\Temp\ccfNnq5p.s 			page 15


 387:HW_Lib/AT32F435/USB/usbd_class/cdc/cdc_desc.c **** }
 410              		.loc 1 387 1 is_stmt 0 view .LVU98
 411 0012 1846     		mov	r0, r3
 412 0014 10BD     		pop	{r4, pc}
 413              	.L35:
 414 0016 00BF     		.align	2
 415              	.L34:
 416 0018 00000000 		.word	.LANCHOR4
 417 001c 00000000 		.word	.LC0
 418 0020 00000000 		.word	.LANCHOR5
 419              		.cfi_endproc
 420              	.LFE144:
 422              		.section	.rodata.get_device_product_string.str1.4,"aMS",%progbits,1
 423              		.align	2
 424              	.LC1:
 425 0000 48374643 		.ascii	"H7FC\000"
 425      00
 426              		.section	.text.get_device_product_string,"ax",%progbits
 427              		.align	1
 428              		.syntax unified
 429              		.thumb
 430              		.thumb_func
 432              	get_device_product_string:
 433              	.LFB145:
 388:HW_Lib/AT32F435/USB/usbd_class/cdc/cdc_desc.c **** 
 389:HW_Lib/AT32F435/USB/usbd_class/cdc/cdc_desc.c **** /**
 390:HW_Lib/AT32F435/USB/usbd_class/cdc/cdc_desc.c ****   * @brief  get product descriptor
 391:HW_Lib/AT32F435/USB/usbd_class/cdc/cdc_desc.c ****   * @param  none
 392:HW_Lib/AT32F435/USB/usbd_class/cdc/cdc_desc.c ****   * @retval usbd_desc
 393:HW_Lib/AT32F435/USB/usbd_class/cdc/cdc_desc.c ****   */
 394:HW_Lib/AT32F435/USB/usbd_class/cdc/cdc_desc.c **** static usbd_desc_t *get_device_product_string(void)
 395:HW_Lib/AT32F435/USB/usbd_class/cdc/cdc_desc.c **** {
 434              		.loc 1 395 1 is_stmt 1 view -0
 435              		.cfi_startproc
 436              		@ args = 0, pretend = 0, frame = 0
 437              		@ frame_needed = 0, uses_anonymous_args = 0
 438 0000 10B5     		push	{r4, lr}
 439              	.LCFI6:
 440              		.cfi_def_cfa_offset 8
 441              		.cfi_offset 4, -8
 442              		.cfi_offset 14, -4
 396:HW_Lib/AT32F435/USB/usbd_class/cdc/cdc_desc.c ****   vp_desc.length = usbd_unicode_convert((uint8_t *)USBD_CDC_DESC_PRODUCT_STRING, g_usbd_desc_buffer
 443              		.loc 1 396 3 view .LVU100
 444              		.loc 1 396 20 is_stmt 0 view .LVU101
 445 0002 054C     		ldr	r4, .L38
 446 0004 2146     		mov	r1, r4
 447 0006 0548     		ldr	r0, .L38+4
 448 0008 FFF7FEFF 		bl	usbd_unicode_convert
 449              	.LVL26:
 450              		.loc 1 396 18 view .LVU102
 451 000c 044B     		ldr	r3, .L38+8
 452 000e 1880     		strh	r0, [r3]	@ movhi
 397:HW_Lib/AT32F435/USB/usbd_class/cdc/cdc_desc.c ****   vp_desc.descriptor = g_usbd_desc_buffer;
 453              		.loc 1 397 3 is_stmt 1 view .LVU103
 454              		.loc 1 397 22 is_stmt 0 view .LVU104
 455 0010 5C60     		str	r4, [r3, #4]
 398:HW_Lib/AT32F435/USB/usbd_class/cdc/cdc_desc.c ****   return &vp_desc;
ARM GAS  C:\Users\8bit\AppData\Local\Temp\ccfNnq5p.s 			page 16


 456              		.loc 1 398 3 is_stmt 1 view .LVU105
 399:HW_Lib/AT32F435/USB/usbd_class/cdc/cdc_desc.c **** }
 457              		.loc 1 399 1 is_stmt 0 view .LVU106
 458 0012 1846     		mov	r0, r3
 459 0014 10BD     		pop	{r4, pc}
 460              	.L39:
 461 0016 00BF     		.align	2
 462              	.L38:
 463 0018 00000000 		.word	.LANCHOR4
 464 001c 00000000 		.word	.LC1
 465 0020 00000000 		.word	.LANCHOR5
 466              		.cfi_endproc
 467              	.LFE145:
 469              		.section	.text.get_device_serial_string,"ax",%progbits
 470              		.align	1
 471              		.syntax unified
 472              		.thumb
 473              		.thumb_func
 475              	get_device_serial_string:
 476              	.LFB146:
 400:HW_Lib/AT32F435/USB/usbd_class/cdc/cdc_desc.c **** 
 401:HW_Lib/AT32F435/USB/usbd_class/cdc/cdc_desc.c **** /**
 402:HW_Lib/AT32F435/USB/usbd_class/cdc/cdc_desc.c ****   * @brief  get serial descriptor
 403:HW_Lib/AT32F435/USB/usbd_class/cdc/cdc_desc.c ****   * @param  none
 404:HW_Lib/AT32F435/USB/usbd_class/cdc/cdc_desc.c ****   * @retval usbd_desc
 405:HW_Lib/AT32F435/USB/usbd_class/cdc/cdc_desc.c ****   */
 406:HW_Lib/AT32F435/USB/usbd_class/cdc/cdc_desc.c **** static usbd_desc_t *get_device_serial_string(void)
 407:HW_Lib/AT32F435/USB/usbd_class/cdc/cdc_desc.c **** {
 477              		.loc 1 407 1 is_stmt 1 view -0
 478              		.cfi_startproc
 479              		@ args = 0, pretend = 0, frame = 0
 480              		@ frame_needed = 0, uses_anonymous_args = 0
 481 0000 08B5     		push	{r3, lr}
 482              	.LCFI7:
 483              		.cfi_def_cfa_offset 8
 484              		.cfi_offset 3, -8
 485              		.cfi_offset 14, -4
 408:HW_Lib/AT32F435/USB/usbd_class/cdc/cdc_desc.c ****   get_serial_num();
 486              		.loc 1 408 3 view .LVU108
 487 0002 FFF7FEFF 		bl	get_serial_num
 488              	.LVL27:
 409:HW_Lib/AT32F435/USB/usbd_class/cdc/cdc_desc.c ****   return &serial_descriptor;
 489              		.loc 1 409 3 view .LVU109
 410:HW_Lib/AT32F435/USB/usbd_class/cdc/cdc_desc.c **** }
 490              		.loc 1 410 1 is_stmt 0 view .LVU110
 491 0006 0148     		ldr	r0, .L42
 492 0008 08BD     		pop	{r3, pc}
 493              	.L43:
 494 000a 00BF     		.align	2
 495              	.L42:
 496 000c 00000000 		.word	.LANCHOR6
 497              		.cfi_endproc
 498              	.LFE146:
 500              		.section	.rodata.get_device_interface_string.str1.4,"aMS",%progbits,1
 501              		.align	2
 502              	.LC2:
 503 0000 56697274 		.ascii	"Virtual ComPort Interface\000"
ARM GAS  C:\Users\8bit\AppData\Local\Temp\ccfNnq5p.s 			page 17


 503      75616C20 
 503      436F6D50 
 503      6F727420 
 503      496E7465 
 504              		.section	.text.get_device_interface_string,"ax",%progbits
 505              		.align	1
 506              		.syntax unified
 507              		.thumb
 508              		.thumb_func
 510              	get_device_interface_string:
 511              	.LFB147:
 411:HW_Lib/AT32F435/USB/usbd_class/cdc/cdc_desc.c **** 
 412:HW_Lib/AT32F435/USB/usbd_class/cdc/cdc_desc.c **** /**
 413:HW_Lib/AT32F435/USB/usbd_class/cdc/cdc_desc.c ****   * @brief  get interface descriptor
 414:HW_Lib/AT32F435/USB/usbd_class/cdc/cdc_desc.c ****   * @param  none
 415:HW_Lib/AT32F435/USB/usbd_class/cdc/cdc_desc.c ****   * @retval usbd_desc
 416:HW_Lib/AT32F435/USB/usbd_class/cdc/cdc_desc.c ****   */
 417:HW_Lib/AT32F435/USB/usbd_class/cdc/cdc_desc.c **** static usbd_desc_t *get_device_interface_string(void)
 418:HW_Lib/AT32F435/USB/usbd_class/cdc/cdc_desc.c **** {
 512              		.loc 1 418 1 is_stmt 1 view -0
 513              		.cfi_startproc
 514              		@ args = 0, pretend = 0, frame = 0
 515              		@ frame_needed = 0, uses_anonymous_args = 0
 516 0000 10B5     		push	{r4, lr}
 517              	.LCFI8:
 518              		.cfi_def_cfa_offset 8
 519              		.cfi_offset 4, -8
 520              		.cfi_offset 14, -4
 419:HW_Lib/AT32F435/USB/usbd_class/cdc/cdc_desc.c ****   vp_desc.length = usbd_unicode_convert((uint8_t *)USBD_CDC_DESC_INTERFACE_STRING, g_usbd_desc_buff
 521              		.loc 1 419 3 view .LVU112
 522              		.loc 1 419 20 is_stmt 0 view .LVU113
 523 0002 054C     		ldr	r4, .L46
 524 0004 2146     		mov	r1, r4
 525 0006 0548     		ldr	r0, .L46+4
 526 0008 FFF7FEFF 		bl	usbd_unicode_convert
 527              	.LVL28:
 528              		.loc 1 419 18 view .LVU114
 529 000c 044B     		ldr	r3, .L46+8
 530 000e 1880     		strh	r0, [r3]	@ movhi
 420:HW_Lib/AT32F435/USB/usbd_class/cdc/cdc_desc.c ****   vp_desc.descriptor = g_usbd_desc_buffer;
 531              		.loc 1 420 3 is_stmt 1 view .LVU115
 532              		.loc 1 420 22 is_stmt 0 view .LVU116
 533 0010 5C60     		str	r4, [r3, #4]
 421:HW_Lib/AT32F435/USB/usbd_class/cdc/cdc_desc.c ****   return &vp_desc;
 534              		.loc 1 421 3 is_stmt 1 view .LVU117
 422:HW_Lib/AT32F435/USB/usbd_class/cdc/cdc_desc.c **** }
 535              		.loc 1 422 1 is_stmt 0 view .LVU118
 536 0012 1846     		mov	r0, r3
 537 0014 10BD     		pop	{r4, pc}
 538              	.L47:
 539 0016 00BF     		.align	2
 540              	.L46:
 541 0018 00000000 		.word	.LANCHOR4
 542 001c 00000000 		.word	.LC2
 543 0020 00000000 		.word	.LANCHOR5
 544              		.cfi_endproc
 545              	.LFE147:
ARM GAS  C:\Users\8bit\AppData\Local\Temp\ccfNnq5p.s 			page 18


 547              		.section	.rodata.get_device_config_string.str1.4,"aMS",%progbits,1
 548              		.align	2
 549              	.LC3:
 550 0000 56697274 		.ascii	"Virtual ComPort Config\000"
 550      75616C20 
 550      436F6D50 
 550      6F727420 
 550      436F6E66 
 551              		.section	.text.get_device_config_string,"ax",%progbits
 552              		.align	1
 553              		.syntax unified
 554              		.thumb
 555              		.thumb_func
 557              	get_device_config_string:
 558              	.LFB148:
 423:HW_Lib/AT32F435/USB/usbd_class/cdc/cdc_desc.c **** 
 424:HW_Lib/AT32F435/USB/usbd_class/cdc/cdc_desc.c **** /**
 425:HW_Lib/AT32F435/USB/usbd_class/cdc/cdc_desc.c ****   * @brief  get device config descriptor
 426:HW_Lib/AT32F435/USB/usbd_class/cdc/cdc_desc.c ****   * @param  none
 427:HW_Lib/AT32F435/USB/usbd_class/cdc/cdc_desc.c ****   * @retval usbd_desc
 428:HW_Lib/AT32F435/USB/usbd_class/cdc/cdc_desc.c ****   */
 429:HW_Lib/AT32F435/USB/usbd_class/cdc/cdc_desc.c **** static usbd_desc_t *get_device_config_string(void)
 430:HW_Lib/AT32F435/USB/usbd_class/cdc/cdc_desc.c **** {
 559              		.loc 1 430 1 is_stmt 1 view -0
 560              		.cfi_startproc
 561              		@ args = 0, pretend = 0, frame = 0
 562              		@ frame_needed = 0, uses_anonymous_args = 0
 563 0000 10B5     		push	{r4, lr}
 564              	.LCFI9:
 565              		.cfi_def_cfa_offset 8
 566              		.cfi_offset 4, -8
 567              		.cfi_offset 14, -4
 431:HW_Lib/AT32F435/USB/usbd_class/cdc/cdc_desc.c ****   vp_desc.length = usbd_unicode_convert((uint8_t *)USBD_CDC_DESC_CONFIGURATION_STRING, g_usbd_desc_
 568              		.loc 1 431 3 view .LVU120
 569              		.loc 1 431 20 is_stmt 0 view .LVU121
 570 0002 054C     		ldr	r4, .L50
 571 0004 2146     		mov	r1, r4
 572 0006 0548     		ldr	r0, .L50+4
 573 0008 FFF7FEFF 		bl	usbd_unicode_convert
 574              	.LVL29:
 575              		.loc 1 431 18 view .LVU122
 576 000c 044B     		ldr	r3, .L50+8
 577 000e 1880     		strh	r0, [r3]	@ movhi
 432:HW_Lib/AT32F435/USB/usbd_class/cdc/cdc_desc.c ****   vp_desc.descriptor = g_usbd_desc_buffer;
 578              		.loc 1 432 3 is_stmt 1 view .LVU123
 579              		.loc 1 432 22 is_stmt 0 view .LVU124
 580 0010 5C60     		str	r4, [r3, #4]
 433:HW_Lib/AT32F435/USB/usbd_class/cdc/cdc_desc.c ****   return &vp_desc;
 581              		.loc 1 433 3 is_stmt 1 view .LVU125
 434:HW_Lib/AT32F435/USB/usbd_class/cdc/cdc_desc.c **** }
 582              		.loc 1 434 1 is_stmt 0 view .LVU126
 583 0012 1846     		mov	r0, r3
 584 0014 10BD     		pop	{r4, pc}
 585              	.L51:
 586 0016 00BF     		.align	2
 587              	.L50:
 588 0018 00000000 		.word	.LANCHOR4
ARM GAS  C:\Users\8bit\AppData\Local\Temp\ccfNnq5p.s 			page 19


 589 001c 00000000 		.word	.LC3
 590 0020 00000000 		.word	.LANCHOR5
 591              		.cfi_endproc
 592              	.LFE148:
 594              		.global	cdc_desc_handler
 595              		.section	.bss.g_usbd_desc_buffer,"aw",%nobits
 596              		.align	2
 597              		.set	.LANCHOR4,. + 0
 600              	g_usbd_desc_buffer:
 601 0000 00000000 		.space	256
 601      00000000 
 601      00000000 
 601      00000000 
 601      00000000 
 602              		.section	.bss.vp_desc,"aw",%nobits
 603              		.align	2
 604              		.set	.LANCHOR5,. + 0
 607              	vp_desc:
 608 0000 00000000 		.space	8
 608      00000000 
 609              		.section	.data.cdc_desc_handler,"aw"
 610              		.align	2
 613              	cdc_desc_handler:
 614 0000 00000000 		.word	get_device_descriptor
 615 0004 00000000 		.word	get_device_qualifier
 616 0008 00000000 		.word	get_device_configuration
 617 000c 00000000 		.word	get_device_other_speed
 618 0010 00000000 		.word	get_device_lang_id
 619 0014 00000000 		.word	get_device_manufacturer_string
 620 0018 00000000 		.word	get_device_product_string
 621 001c 00000000 		.word	get_device_serial_string
 622 0020 00000000 		.word	get_device_interface_string
 623 0024 00000000 		.word	get_device_config_string
 624              		.section	.data.config_descriptor,"aw"
 625              		.align	2
 626              		.set	.LANCHOR2,. + 0
 629              	config_descriptor:
 630 0000 4300     		.short	67
 631 0002 0000     		.space	2
 632 0004 00000000 		.word	g_usbd_configuration
 633              		.section	.data.device_descriptor,"aw"
 634              		.align	2
 635              		.set	.LANCHOR1,. + 0
 638              	device_descriptor:
 639 0000 1200     		.short	18
 640 0002 0000     		.space	2
 641 0004 00000000 		.word	g_usbd_descriptor
 642              		.section	.data.g_string_lang_id,"aw"
 643              		.align	2
 646              	g_string_lang_id:
 647 0000 04030904 		.ascii	"\004\003\011\004"
 648              		.section	.data.g_string_serial,"aw"
 649              		.align	2
 650              		.set	.LANCHOR0,. + 0
 653              	g_string_serial:
 654 0000 1A0300   		.ascii	"\032\003\000"
 655 0003 00000000 		.space	23
ARM GAS  C:\Users\8bit\AppData\Local\Temp\ccfNnq5p.s 			page 20


 655      00000000 
 655      00000000 
 655      00000000 
 655      00000000 
 656              		.section	.data.g_usbd_configuration,"aw"
 657              		.align	2
 660              	g_usbd_configuration:
 661 0000 09024300 		.ascii	"\011\002C\000\002\001\000\3002\011\004\000\000\001\002"
 661      020100C0 
 661      32090400 
 661      000102
 662 000f 02010005 		.ascii	"\002\001\000\005$\000\020\001\005$\001\000\001\004$"
 662      24001001 
 662      05240100 
 662      010424
 663 001e 02020524 		.ascii	"\002\002\005$\006\000\001\007\005\202\003\010\000\377"
 663      06000107 
 663      05820308 
 663      00FF
 664 002c 09040100 		.ascii	"\011\004\001\000\002\012\000\000\000\007\005\201\002"
 664      020A0000 
 664      00070581 
 664      02
 665 0039 40000007 		.ascii	"@\000\000\007\005\001\002@\000\000"
 665      05010240 
 665      0000
 666              		.section	.data.g_usbd_descriptor,"aw"
 667              		.align	2
 670              	g_usbd_descriptor:
 671 0000 12010002 		.ascii	"\022\001\000\002\002\000\000@<.@W\000\002\001\002\003"
 671      02000040 
 671      3C2E4057 
 671      00020102 
 671      03
 672 0011 01       		.ascii	"\001"
 673              		.section	.data.langid_descriptor,"aw"
 674              		.align	2
 675              		.set	.LANCHOR3,. + 0
 678              	langid_descriptor:
 679 0000 0400     		.short	4
 680 0002 0000     		.space	2
 681 0004 00000000 		.word	g_string_lang_id
 682              		.section	.data.serial_descriptor,"aw"
 683              		.align	2
 684              		.set	.LANCHOR6,. + 0
 687              	serial_descriptor:
 688 0000 1A00     		.short	26
 689 0002 0000     		.space	2
 690 0004 00000000 		.word	g_string_serial
 691              		.text
 692              	.Letext0:
 693              		.file 2 "c:\\program files (x86)\\gnu arm embedded toolchain\\10 2021.10\\arm-none-eabi\\include\\
 694              		.file 3 "c:\\program files (x86)\\gnu arm embedded toolchain\\10 2021.10\\arm-none-eabi\\include\\
 695              		.file 4 "HW_Lib/AT32F435/drivers/inc/at32f435_437_tmr.h"
 696              		.file 5 "HW_Lib/AT32F435/USB/usb_drivers/inc/usbd_core.h"
 697              		.file 6 "HW_Lib/AT32F435/USB/usbd_class/cdc/cdc_desc.h"
ARM GAS  C:\Users\8bit\AppData\Local\Temp\ccfNnq5p.s 			page 21

