ARM GAS  C:\Users\8bit\AppData\Local\Temp\ccOOCmGZ.s 			page 1


   1              		.cpu cortex-m4
   2              		.arch armv7e-m
   3              		.fpu fpv4-sp-d16
   4              		.eabi_attribute 27, 1
   5              		.eabi_attribute 28, 1
   6              		.eabi_attribute 20, 1
   7              		.eabi_attribute 21, 1
   8              		.eabi_attribute 23, 3
   9              		.eabi_attribute 24, 1
  10              		.eabi_attribute 25, 1
  11              		.eabi_attribute 26, 1
  12              		.eabi_attribute 30, 1
  13              		.eabi_attribute 34, 1
  14              		.eabi_attribute 18, 4
  15              		.file	"cmsis_os.c"
  16              		.text
  17              	.Ltext0:
  18              		.cfi_sections	.debug_frame
  19              		.section	.text.makeFreeRtosPriority,"ax",%progbits
  20              		.align	1
  21              		.syntax unified
  22              		.thumb
  23              		.thumb_func
  25              	makeFreeRtosPriority:
  26              	.LVL0:
  27              	.LFB110:
  28              		.file 1 "System/FreeRTOS/CMSIS_RTOS/cmsis_os.c"
   1:System/FreeRTOS/CMSIS_RTOS/cmsis_os.c **** /* ----------------------------------------------------------------------
   2:System/FreeRTOS/CMSIS_RTOS/cmsis_os.c ****  * $Date:        5. February 2013
   3:System/FreeRTOS/CMSIS_RTOS/cmsis_os.c ****  * $Revision:    V1.02
   4:System/FreeRTOS/CMSIS_RTOS/cmsis_os.c ****  *
   5:System/FreeRTOS/CMSIS_RTOS/cmsis_os.c ****  * Project:      CMSIS-RTOS API
   6:System/FreeRTOS/CMSIS_RTOS/cmsis_os.c ****  * Title:        cmsis_os.c
   7:System/FreeRTOS/CMSIS_RTOS/cmsis_os.c ****  *
   8:System/FreeRTOS/CMSIS_RTOS/cmsis_os.c ****  * Version 0.02
   9:System/FreeRTOS/CMSIS_RTOS/cmsis_os.c ****  *    Initial Proposal Phase
  10:System/FreeRTOS/CMSIS_RTOS/cmsis_os.c ****  * Version 0.03
  11:System/FreeRTOS/CMSIS_RTOS/cmsis_os.c ****  *    osKernelStart added, optional feature: main started as thread
  12:System/FreeRTOS/CMSIS_RTOS/cmsis_os.c ****  *    osSemaphores have standard behavior
  13:System/FreeRTOS/CMSIS_RTOS/cmsis_os.c ****  *    osTimerCreate does not start the timer, added osTimerStart
  14:System/FreeRTOS/CMSIS_RTOS/cmsis_os.c ****  *    osThreadPass is renamed to osThreadYield
  15:System/FreeRTOS/CMSIS_RTOS/cmsis_os.c ****  * Version 1.01
  16:System/FreeRTOS/CMSIS_RTOS/cmsis_os.c ****  *    Support for C++ interface
  17:System/FreeRTOS/CMSIS_RTOS/cmsis_os.c ****  *     - const attribute removed from the osXxxxDef_t typedef's
  18:System/FreeRTOS/CMSIS_RTOS/cmsis_os.c ****  *     - const attribute added to the osXxxxDef macros
  19:System/FreeRTOS/CMSIS_RTOS/cmsis_os.c ****  *    Added: osTimerDelete, osMutexDelete, osSemaphoreDelete
  20:System/FreeRTOS/CMSIS_RTOS/cmsis_os.c ****  *    Added: osKernelInitialize
  21:System/FreeRTOS/CMSIS_RTOS/cmsis_os.c ****  * Version 1.02
  22:System/FreeRTOS/CMSIS_RTOS/cmsis_os.c ****  *    Control functions for short timeouts in microsecond resolution:
  23:System/FreeRTOS/CMSIS_RTOS/cmsis_os.c ****  *    Added: osKernelSysTick, osKernelSysTickFrequency, osKernelSysTickMicroSec
  24:System/FreeRTOS/CMSIS_RTOS/cmsis_os.c ****  *    Removed: osSignalGet 
  25:System/FreeRTOS/CMSIS_RTOS/cmsis_os.c ****  *    
  26:System/FreeRTOS/CMSIS_RTOS/cmsis_os.c ****  *  
  27:System/FreeRTOS/CMSIS_RTOS/cmsis_os.c ****  *----------------------------------------------------------------------------
  28:System/FreeRTOS/CMSIS_RTOS/cmsis_os.c ****  *
  29:System/FreeRTOS/CMSIS_RTOS/cmsis_os.c ****  * Portions Copyright © 2016 STMicroelectronics International N.V. All rights reserved.
  30:System/FreeRTOS/CMSIS_RTOS/cmsis_os.c ****  * Portions Copyright (c) 2013 ARM LIMITED
ARM GAS  C:\Users\8bit\AppData\Local\Temp\ccOOCmGZ.s 			page 2


  31:System/FreeRTOS/CMSIS_RTOS/cmsis_os.c ****  * All rights reserved.
  32:System/FreeRTOS/CMSIS_RTOS/cmsis_os.c ****  * Redistribution and use in source and binary forms, with or without
  33:System/FreeRTOS/CMSIS_RTOS/cmsis_os.c ****  * modification, are permitted provided that the following conditions are met:
  34:System/FreeRTOS/CMSIS_RTOS/cmsis_os.c ****  *  - Redistributions of source code must retain the above copyright
  35:System/FreeRTOS/CMSIS_RTOS/cmsis_os.c ****  *    notice, this list of conditions and the following disclaimer.
  36:System/FreeRTOS/CMSIS_RTOS/cmsis_os.c ****  *  - Redistributions in binary form must reproduce the above copyright
  37:System/FreeRTOS/CMSIS_RTOS/cmsis_os.c ****  *    notice, this list of conditions and the following disclaimer in the
  38:System/FreeRTOS/CMSIS_RTOS/cmsis_os.c ****  *    documentation and/or other materials provided with the distribution.
  39:System/FreeRTOS/CMSIS_RTOS/cmsis_os.c ****  *  - Neither the name of ARM  nor the names of its contributors may be used
  40:System/FreeRTOS/CMSIS_RTOS/cmsis_os.c ****  *    to endorse or promote products derived from this software without
  41:System/FreeRTOS/CMSIS_RTOS/cmsis_os.c ****  *    specific prior written permission.
  42:System/FreeRTOS/CMSIS_RTOS/cmsis_os.c ****  *
  43:System/FreeRTOS/CMSIS_RTOS/cmsis_os.c ****  * THIS SOFTWARE IS PROVIDED BY THE COPYRIGHT HOLDERS AND CONTRIBUTORS "AS IS"
  44:System/FreeRTOS/CMSIS_RTOS/cmsis_os.c ****  * AND ANY EXPRESS OR IMPLIED WARRANTIES, INCLUDING, BUT NOT LIMITED TO, THE
  45:System/FreeRTOS/CMSIS_RTOS/cmsis_os.c ****  * IMPLIED WARRANTIES OF MERCHANTABILITY AND FITNESS FOR A PARTICULAR PURPOSE
  46:System/FreeRTOS/CMSIS_RTOS/cmsis_os.c ****  * ARE DISCLAIMED. IN NO EVENT SHALL COPYRIGHT HOLDERS AND CONTRIBUTORS BE
  47:System/FreeRTOS/CMSIS_RTOS/cmsis_os.c ****  * LIABLE FOR ANY DIRECT, INDIRECT, INCIDENTAL, SPECIAL, EXEMPLARY, OR
  48:System/FreeRTOS/CMSIS_RTOS/cmsis_os.c ****  * CONSEQUENTIAL DAMAGES (INCLUDING, BUT NOT LIMITED TO, PROCUREMENT OF
  49:System/FreeRTOS/CMSIS_RTOS/cmsis_os.c ****  * SUBSTITUTE GOODS OR SERVICES; LOSS OF USE, DATA, OR PROFITS; OR BUSINESS
  50:System/FreeRTOS/CMSIS_RTOS/cmsis_os.c ****  * INTERRUPTION) HOWEVER CAUSED AND ON ANY THEORY OF LIABILITY, WHETHER IN
  51:System/FreeRTOS/CMSIS_RTOS/cmsis_os.c ****  * CONTRACT, STRICT LIABILITY, OR TORT (INCLUDING NEGLIGENCE OR OTHERWISE)
  52:System/FreeRTOS/CMSIS_RTOS/cmsis_os.c ****  * ARISING IN ANY WAY OUT OF THE USE OF THIS SOFTWARE, EVEN IF ADVISED OF THE
  53:System/FreeRTOS/CMSIS_RTOS/cmsis_os.c ****  * POSSIBILITY OF SUCH DAMAGE.
  54:System/FreeRTOS/CMSIS_RTOS/cmsis_os.c ****  *---------------------------------------------------------------------------*/
  55:System/FreeRTOS/CMSIS_RTOS/cmsis_os.c **** 
  56:System/FreeRTOS/CMSIS_RTOS/cmsis_os.c **** #include <string.h>
  57:System/FreeRTOS/CMSIS_RTOS/cmsis_os.c **** #include "cmsis_os.h"
  58:System/FreeRTOS/CMSIS_RTOS/cmsis_os.c **** 
  59:System/FreeRTOS/CMSIS_RTOS/cmsis_os.c **** /*
  60:System/FreeRTOS/CMSIS_RTOS/cmsis_os.c ****  * ARM Compiler 4/5
  61:System/FreeRTOS/CMSIS_RTOS/cmsis_os.c ****  */
  62:System/FreeRTOS/CMSIS_RTOS/cmsis_os.c **** #if   defined ( __CC_ARM )
  63:System/FreeRTOS/CMSIS_RTOS/cmsis_os.c **** 
  64:System/FreeRTOS/CMSIS_RTOS/cmsis_os.c ****   #define __ASM            __asm                                      
  65:System/FreeRTOS/CMSIS_RTOS/cmsis_os.c ****   #define __INLINE         __inline                                     
  66:System/FreeRTOS/CMSIS_RTOS/cmsis_os.c ****   #define __STATIC_INLINE  static __inline
  67:System/FreeRTOS/CMSIS_RTOS/cmsis_os.c **** 
  68:System/FreeRTOS/CMSIS_RTOS/cmsis_os.c ****   #include "cmsis_armcc.h"
  69:System/FreeRTOS/CMSIS_RTOS/cmsis_os.c **** 
  70:System/FreeRTOS/CMSIS_RTOS/cmsis_os.c **** /*
  71:System/FreeRTOS/CMSIS_RTOS/cmsis_os.c ****  * GNU Compiler
  72:System/FreeRTOS/CMSIS_RTOS/cmsis_os.c ****  */
  73:System/FreeRTOS/CMSIS_RTOS/cmsis_os.c **** #elif defined ( __GNUC__ )
  74:System/FreeRTOS/CMSIS_RTOS/cmsis_os.c **** 
  75:System/FreeRTOS/CMSIS_RTOS/cmsis_os.c ****   #define __ASM            __asm                                      /*!< asm keyword for GNU Comp
  76:System/FreeRTOS/CMSIS_RTOS/cmsis_os.c ****   #define __INLINE         inline                                     /*!< inline keyword for GNU C
  77:System/FreeRTOS/CMSIS_RTOS/cmsis_os.c ****   #define __STATIC_INLINE  static inline
  78:System/FreeRTOS/CMSIS_RTOS/cmsis_os.c **** 
  79:System/FreeRTOS/CMSIS_RTOS/cmsis_os.c ****   #include "cmsis_gcc.h"
  80:System/FreeRTOS/CMSIS_RTOS/cmsis_os.c **** 
  81:System/FreeRTOS/CMSIS_RTOS/cmsis_os.c **** 
  82:System/FreeRTOS/CMSIS_RTOS/cmsis_os.c **** /*
  83:System/FreeRTOS/CMSIS_RTOS/cmsis_os.c ****  * IAR Compiler
  84:System/FreeRTOS/CMSIS_RTOS/cmsis_os.c ****  */
  85:System/FreeRTOS/CMSIS_RTOS/cmsis_os.c **** #elif defined ( __ICCARM__ )
  86:System/FreeRTOS/CMSIS_RTOS/cmsis_os.c **** 
  87:System/FreeRTOS/CMSIS_RTOS/cmsis_os.c ****   #ifndef   __ASM
ARM GAS  C:\Users\8bit\AppData\Local\Temp\ccOOCmGZ.s 			page 3


  88:System/FreeRTOS/CMSIS_RTOS/cmsis_os.c ****     #define __ASM                     __asm
  89:System/FreeRTOS/CMSIS_RTOS/cmsis_os.c ****   #endif
  90:System/FreeRTOS/CMSIS_RTOS/cmsis_os.c ****   #ifndef   __INLINE
  91:System/FreeRTOS/CMSIS_RTOS/cmsis_os.c ****     #define __INLINE                  inline
  92:System/FreeRTOS/CMSIS_RTOS/cmsis_os.c ****   #endif
  93:System/FreeRTOS/CMSIS_RTOS/cmsis_os.c ****   #ifndef   __STATIC_INLINE
  94:System/FreeRTOS/CMSIS_RTOS/cmsis_os.c ****     #define __STATIC_INLINE           static inline
  95:System/FreeRTOS/CMSIS_RTOS/cmsis_os.c ****   #endif
  96:System/FreeRTOS/CMSIS_RTOS/cmsis_os.c **** 
  97:System/FreeRTOS/CMSIS_RTOS/cmsis_os.c ****   #include <cmsis_iar.h>
  98:System/FreeRTOS/CMSIS_RTOS/cmsis_os.c **** #endif
  99:System/FreeRTOS/CMSIS_RTOS/cmsis_os.c **** 
 100:System/FreeRTOS/CMSIS_RTOS/cmsis_os.c **** extern void xPortSysTickHandler(void);
 101:System/FreeRTOS/CMSIS_RTOS/cmsis_os.c **** 
 102:System/FreeRTOS/CMSIS_RTOS/cmsis_os.c **** /* Convert from CMSIS type osPriority to FreeRTOS priority number */
 103:System/FreeRTOS/CMSIS_RTOS/cmsis_os.c **** static unsigned portBASE_TYPE makeFreeRtosPriority (osPriority priority)
 104:System/FreeRTOS/CMSIS_RTOS/cmsis_os.c **** {
  29              		.loc 1 104 1 view -0
  30              		.cfi_startproc
  31              		@ args = 0, pretend = 0, frame = 0
  32              		@ frame_needed = 0, uses_anonymous_args = 0
  33              		@ link register save eliminated.
 105:System/FreeRTOS/CMSIS_RTOS/cmsis_os.c ****   unsigned portBASE_TYPE fpriority = tskIDLE_PRIORITY;
  34              		.loc 1 105 3 view .LVU1
 106:System/FreeRTOS/CMSIS_RTOS/cmsis_os.c ****   
 107:System/FreeRTOS/CMSIS_RTOS/cmsis_os.c ****   if (priority != osPriorityError) {
  35              		.loc 1 107 3 view .LVU2
  36              		.loc 1 107 6 is_stmt 0 view .LVU3
  37 0000 8428     		cmp	r0, #132
  38 0002 01D0     		beq	.L3
 108:System/FreeRTOS/CMSIS_RTOS/cmsis_os.c ****     fpriority += (priority - osPriorityIdle);
  39              		.loc 1 108 5 is_stmt 1 view .LVU4
  40              		.loc 1 108 15 is_stmt 0 view .LVU5
  41 0004 0330     		adds	r0, r0, #3
  42              	.LVL1:
  43              		.loc 1 108 15 view .LVU6
  44 0006 7047     		bx	lr
  45              	.LVL2:
  46              	.L3:
 105:System/FreeRTOS/CMSIS_RTOS/cmsis_os.c ****   unsigned portBASE_TYPE fpriority = tskIDLE_PRIORITY;
  47              		.loc 1 105 26 view .LVU7
  48 0008 0020     		movs	r0, #0
  49              	.LVL3:
 109:System/FreeRTOS/CMSIS_RTOS/cmsis_os.c ****   }
 110:System/FreeRTOS/CMSIS_RTOS/cmsis_os.c ****   
 111:System/FreeRTOS/CMSIS_RTOS/cmsis_os.c ****   return fpriority;
  50              		.loc 1 111 3 is_stmt 1 view .LVU8
 112:System/FreeRTOS/CMSIS_RTOS/cmsis_os.c **** }
  51              		.loc 1 112 1 is_stmt 0 view .LVU9
  52 000a 7047     		bx	lr
  53              		.cfi_endproc
  54              	.LFE110:
  56              		.section	.text.makeCmsisPriority,"ax",%progbits
  57              		.align	1
  58              		.syntax unified
  59              		.thumb
  60              		.thumb_func
ARM GAS  C:\Users\8bit\AppData\Local\Temp\ccOOCmGZ.s 			page 4


  62              	makeCmsisPriority:
  63              	.LVL4:
  64              	.LFB111:
 113:System/FreeRTOS/CMSIS_RTOS/cmsis_os.c **** 
 114:System/FreeRTOS/CMSIS_RTOS/cmsis_os.c **** #if (INCLUDE_uxTaskPriorityGet == 1)
 115:System/FreeRTOS/CMSIS_RTOS/cmsis_os.c **** /* Convert from FreeRTOS priority number to CMSIS type osPriority */
 116:System/FreeRTOS/CMSIS_RTOS/cmsis_os.c **** static osPriority makeCmsisPriority (unsigned portBASE_TYPE fpriority)
 117:System/FreeRTOS/CMSIS_RTOS/cmsis_os.c **** {
  65              		.loc 1 117 1 is_stmt 1 view -0
  66              		.cfi_startproc
  67              		@ args = 0, pretend = 0, frame = 0
  68              		@ frame_needed = 0, uses_anonymous_args = 0
  69              		@ link register save eliminated.
 118:System/FreeRTOS/CMSIS_RTOS/cmsis_os.c ****   osPriority priority = osPriorityError;
  70              		.loc 1 118 3 view .LVU11
 119:System/FreeRTOS/CMSIS_RTOS/cmsis_os.c ****   
 120:System/FreeRTOS/CMSIS_RTOS/cmsis_os.c ****   if ((fpriority - tskIDLE_PRIORITY) <= (osPriorityRealtime - osPriorityIdle)) {
  71              		.loc 1 120 3 view .LVU12
  72              		.loc 1 120 6 is_stmt 0 view .LVU13
  73 0000 0628     		cmp	r0, #6
  74 0002 02D8     		bhi	.L6
 121:System/FreeRTOS/CMSIS_RTOS/cmsis_os.c ****     priority = (osPriority)((int)osPriorityIdle + (int)(fpriority - tskIDLE_PRIORITY));
  75              		.loc 1 121 5 is_stmt 1 view .LVU14
  76              		.loc 1 121 49 is_stmt 0 view .LVU15
  77 0004 0338     		subs	r0, r0, #3
  78              	.LVL5:
  79              		.loc 1 121 14 view .LVU16
  80 0006 00B2     		sxth	r0, r0
  81              	.LVL6:
  82              		.loc 1 121 14 view .LVU17
  83 0008 7047     		bx	lr
  84              	.LVL7:
  85              	.L6:
 118:System/FreeRTOS/CMSIS_RTOS/cmsis_os.c ****   osPriority priority = osPriorityError;
  86              		.loc 1 118 14 view .LVU18
  87 000a 8420     		movs	r0, #132
  88              	.LVL8:
 122:System/FreeRTOS/CMSIS_RTOS/cmsis_os.c ****   }
 123:System/FreeRTOS/CMSIS_RTOS/cmsis_os.c ****   
 124:System/FreeRTOS/CMSIS_RTOS/cmsis_os.c ****   return priority;
  89              		.loc 1 124 3 is_stmt 1 view .LVU19
 125:System/FreeRTOS/CMSIS_RTOS/cmsis_os.c **** }
  90              		.loc 1 125 1 is_stmt 0 view .LVU20
  91 000c 7047     		bx	lr
  92              		.cfi_endproc
  93              	.LFE111:
  95              		.section	.text.inHandlerMode,"ax",%progbits
  96              		.align	1
  97              		.syntax unified
  98              		.thumb
  99              		.thumb_func
 101              	inHandlerMode:
 102              	.LFB112:
 126:System/FreeRTOS/CMSIS_RTOS/cmsis_os.c **** #endif
 127:System/FreeRTOS/CMSIS_RTOS/cmsis_os.c **** 
 128:System/FreeRTOS/CMSIS_RTOS/cmsis_os.c **** 
 129:System/FreeRTOS/CMSIS_RTOS/cmsis_os.c **** /* Determine whether we are in thread mode or handler mode. */
ARM GAS  C:\Users\8bit\AppData\Local\Temp\ccOOCmGZ.s 			page 5


 130:System/FreeRTOS/CMSIS_RTOS/cmsis_os.c **** static int inHandlerMode (void)
 131:System/FreeRTOS/CMSIS_RTOS/cmsis_os.c **** {
 103              		.loc 1 131 1 is_stmt 1 view -0
 104              		.cfi_startproc
 105              		@ args = 0, pretend = 0, frame = 0
 106              		@ frame_needed = 0, uses_anonymous_args = 0
 107              		@ link register save eliminated.
 132:System/FreeRTOS/CMSIS_RTOS/cmsis_os.c ****   return __get_IPSR() != 0;
 108              		.loc 1 132 3 view .LVU22
 109              	.LBB8:
 110              	.LBI8:
 111              		.file 2 "HW_Lib/AT32F435/cmsis/cm4/core_support/cmsis_gcc.h"
   1:HW_Lib/AT32F435/cmsis/cm4/core_support/cmsis_gcc.h **** /******************************************************************************
   2:HW_Lib/AT32F435/cmsis/cm4/core_support/cmsis_gcc.h ****  * @file     cmsis_gcc.h
   3:HW_Lib/AT32F435/cmsis/cm4/core_support/cmsis_gcc.h ****  * @brief    CMSIS compiler GCC header file
   4:HW_Lib/AT32F435/cmsis/cm4/core_support/cmsis_gcc.h ****  * @version  V5.3.0
   5:HW_Lib/AT32F435/cmsis/cm4/core_support/cmsis_gcc.h ****  * @date     26. March 2020
   6:HW_Lib/AT32F435/cmsis/cm4/core_support/cmsis_gcc.h ****  ******************************************************************************/
   7:HW_Lib/AT32F435/cmsis/cm4/core_support/cmsis_gcc.h **** /*
   8:HW_Lib/AT32F435/cmsis/cm4/core_support/cmsis_gcc.h ****  * Copyright (c) 2009-2020 Arm Limited. All rights reserved.
   9:HW_Lib/AT32F435/cmsis/cm4/core_support/cmsis_gcc.h ****  *
  10:HW_Lib/AT32F435/cmsis/cm4/core_support/cmsis_gcc.h ****  * SPDX-License-Identifier: Apache-2.0
  11:HW_Lib/AT32F435/cmsis/cm4/core_support/cmsis_gcc.h ****  *
  12:HW_Lib/AT32F435/cmsis/cm4/core_support/cmsis_gcc.h ****  * Licensed under the Apache License, Version 2.0 (the License); you may
  13:HW_Lib/AT32F435/cmsis/cm4/core_support/cmsis_gcc.h ****  * not use this file except in compliance with the License.
  14:HW_Lib/AT32F435/cmsis/cm4/core_support/cmsis_gcc.h ****  * You may obtain a copy of the License at
  15:HW_Lib/AT32F435/cmsis/cm4/core_support/cmsis_gcc.h ****  *
  16:HW_Lib/AT32F435/cmsis/cm4/core_support/cmsis_gcc.h ****  * www.apache.org/licenses/LICENSE-2.0
  17:HW_Lib/AT32F435/cmsis/cm4/core_support/cmsis_gcc.h ****  *
  18:HW_Lib/AT32F435/cmsis/cm4/core_support/cmsis_gcc.h ****  * Unless required by applicable law or agreed to in writing, software
  19:HW_Lib/AT32F435/cmsis/cm4/core_support/cmsis_gcc.h ****  * distributed under the License is distributed on an AS IS BASIS, WITHOUT
  20:HW_Lib/AT32F435/cmsis/cm4/core_support/cmsis_gcc.h ****  * WARRANTIES OR CONDITIONS OF ANY KIND, either express or implied.
  21:HW_Lib/AT32F435/cmsis/cm4/core_support/cmsis_gcc.h ****  * See the License for the specific language governing permissions and
  22:HW_Lib/AT32F435/cmsis/cm4/core_support/cmsis_gcc.h ****  * limitations under the License.
  23:HW_Lib/AT32F435/cmsis/cm4/core_support/cmsis_gcc.h ****  */
  24:HW_Lib/AT32F435/cmsis/cm4/core_support/cmsis_gcc.h **** 
  25:HW_Lib/AT32F435/cmsis/cm4/core_support/cmsis_gcc.h **** #ifndef __CMSIS_GCC_H
  26:HW_Lib/AT32F435/cmsis/cm4/core_support/cmsis_gcc.h **** #define __CMSIS_GCC_H
  27:HW_Lib/AT32F435/cmsis/cm4/core_support/cmsis_gcc.h **** 
  28:HW_Lib/AT32F435/cmsis/cm4/core_support/cmsis_gcc.h **** /* ignore some GCC warnings */
  29:HW_Lib/AT32F435/cmsis/cm4/core_support/cmsis_gcc.h **** #pragma GCC diagnostic push
  30:HW_Lib/AT32F435/cmsis/cm4/core_support/cmsis_gcc.h **** #pragma GCC diagnostic ignored "-Wsign-conversion"
  31:HW_Lib/AT32F435/cmsis/cm4/core_support/cmsis_gcc.h **** #pragma GCC diagnostic ignored "-Wconversion"
  32:HW_Lib/AT32F435/cmsis/cm4/core_support/cmsis_gcc.h **** #pragma GCC diagnostic ignored "-Wunused-parameter"
  33:HW_Lib/AT32F435/cmsis/cm4/core_support/cmsis_gcc.h **** 
  34:HW_Lib/AT32F435/cmsis/cm4/core_support/cmsis_gcc.h **** /* Fallback for __has_builtin */
  35:HW_Lib/AT32F435/cmsis/cm4/core_support/cmsis_gcc.h **** #ifndef __has_builtin
  36:HW_Lib/AT32F435/cmsis/cm4/core_support/cmsis_gcc.h ****   #define __has_builtin(x) (0)
  37:HW_Lib/AT32F435/cmsis/cm4/core_support/cmsis_gcc.h **** #endif
  38:HW_Lib/AT32F435/cmsis/cm4/core_support/cmsis_gcc.h **** 
  39:HW_Lib/AT32F435/cmsis/cm4/core_support/cmsis_gcc.h **** /* CMSIS compiler specific defines */
  40:HW_Lib/AT32F435/cmsis/cm4/core_support/cmsis_gcc.h **** #ifndef   __ASM
  41:HW_Lib/AT32F435/cmsis/cm4/core_support/cmsis_gcc.h ****   #define __ASM                                  __asm
  42:HW_Lib/AT32F435/cmsis/cm4/core_support/cmsis_gcc.h **** #endif
  43:HW_Lib/AT32F435/cmsis/cm4/core_support/cmsis_gcc.h **** #ifndef   __INLINE
  44:HW_Lib/AT32F435/cmsis/cm4/core_support/cmsis_gcc.h ****   #define __INLINE                               inline
  45:HW_Lib/AT32F435/cmsis/cm4/core_support/cmsis_gcc.h **** #endif
ARM GAS  C:\Users\8bit\AppData\Local\Temp\ccOOCmGZ.s 			page 6


  46:HW_Lib/AT32F435/cmsis/cm4/core_support/cmsis_gcc.h **** #ifndef   __STATIC_INLINE
  47:HW_Lib/AT32F435/cmsis/cm4/core_support/cmsis_gcc.h ****   #define __STATIC_INLINE                        static inline
  48:HW_Lib/AT32F435/cmsis/cm4/core_support/cmsis_gcc.h **** #endif
  49:HW_Lib/AT32F435/cmsis/cm4/core_support/cmsis_gcc.h **** #ifndef   __STATIC_FORCEINLINE
  50:HW_Lib/AT32F435/cmsis/cm4/core_support/cmsis_gcc.h ****   #define __STATIC_FORCEINLINE                   __attribute__((always_inline)) static inline
  51:HW_Lib/AT32F435/cmsis/cm4/core_support/cmsis_gcc.h **** #endif
  52:HW_Lib/AT32F435/cmsis/cm4/core_support/cmsis_gcc.h **** #ifndef   __NO_RETURN
  53:HW_Lib/AT32F435/cmsis/cm4/core_support/cmsis_gcc.h ****   #define __NO_RETURN                            __attribute__((__noreturn__))
  54:HW_Lib/AT32F435/cmsis/cm4/core_support/cmsis_gcc.h **** #endif
  55:HW_Lib/AT32F435/cmsis/cm4/core_support/cmsis_gcc.h **** #ifndef   __USED
  56:HW_Lib/AT32F435/cmsis/cm4/core_support/cmsis_gcc.h ****   #define __USED                                 __attribute__((used))
  57:HW_Lib/AT32F435/cmsis/cm4/core_support/cmsis_gcc.h **** #endif
  58:HW_Lib/AT32F435/cmsis/cm4/core_support/cmsis_gcc.h **** #ifndef   __WEAK
  59:HW_Lib/AT32F435/cmsis/cm4/core_support/cmsis_gcc.h ****   #define __WEAK                                 __attribute__((weak))
  60:HW_Lib/AT32F435/cmsis/cm4/core_support/cmsis_gcc.h **** #endif
  61:HW_Lib/AT32F435/cmsis/cm4/core_support/cmsis_gcc.h **** #ifndef   __PACKED
  62:HW_Lib/AT32F435/cmsis/cm4/core_support/cmsis_gcc.h ****   #define __PACKED                               __attribute__((packed, aligned(1)))
  63:HW_Lib/AT32F435/cmsis/cm4/core_support/cmsis_gcc.h **** #endif
  64:HW_Lib/AT32F435/cmsis/cm4/core_support/cmsis_gcc.h **** #ifndef   __PACKED_STRUCT
  65:HW_Lib/AT32F435/cmsis/cm4/core_support/cmsis_gcc.h ****   #define __PACKED_STRUCT                        struct __attribute__((packed, aligned(1)))
  66:HW_Lib/AT32F435/cmsis/cm4/core_support/cmsis_gcc.h **** #endif
  67:HW_Lib/AT32F435/cmsis/cm4/core_support/cmsis_gcc.h **** #ifndef   __PACKED_UNION
  68:HW_Lib/AT32F435/cmsis/cm4/core_support/cmsis_gcc.h ****   #define __PACKED_UNION                         union __attribute__((packed, aligned(1)))
  69:HW_Lib/AT32F435/cmsis/cm4/core_support/cmsis_gcc.h **** #endif
  70:HW_Lib/AT32F435/cmsis/cm4/core_support/cmsis_gcc.h **** #ifndef   __UNALIGNED_UINT32        /* deprecated */
  71:HW_Lib/AT32F435/cmsis/cm4/core_support/cmsis_gcc.h ****   #pragma GCC diagnostic push
  72:HW_Lib/AT32F435/cmsis/cm4/core_support/cmsis_gcc.h ****   #pragma GCC diagnostic ignored "-Wpacked"
  73:HW_Lib/AT32F435/cmsis/cm4/core_support/cmsis_gcc.h ****   #pragma GCC diagnostic ignored "-Wattributes"
  74:HW_Lib/AT32F435/cmsis/cm4/core_support/cmsis_gcc.h ****   struct __attribute__((packed)) T_UINT32 { uint32_t v; };
  75:HW_Lib/AT32F435/cmsis/cm4/core_support/cmsis_gcc.h ****   #pragma GCC diagnostic pop
  76:HW_Lib/AT32F435/cmsis/cm4/core_support/cmsis_gcc.h ****   #define __UNALIGNED_UINT32(x)                  (((struct T_UINT32 *)(x))->v)
  77:HW_Lib/AT32F435/cmsis/cm4/core_support/cmsis_gcc.h **** #endif
  78:HW_Lib/AT32F435/cmsis/cm4/core_support/cmsis_gcc.h **** #ifndef   __UNALIGNED_UINT16_WRITE
  79:HW_Lib/AT32F435/cmsis/cm4/core_support/cmsis_gcc.h ****   #pragma GCC diagnostic push
  80:HW_Lib/AT32F435/cmsis/cm4/core_support/cmsis_gcc.h ****   #pragma GCC diagnostic ignored "-Wpacked"
  81:HW_Lib/AT32F435/cmsis/cm4/core_support/cmsis_gcc.h ****   #pragma GCC diagnostic ignored "-Wattributes"
  82:HW_Lib/AT32F435/cmsis/cm4/core_support/cmsis_gcc.h ****   __PACKED_STRUCT T_UINT16_WRITE { uint16_t v; };
  83:HW_Lib/AT32F435/cmsis/cm4/core_support/cmsis_gcc.h ****   #pragma GCC diagnostic pop
  84:HW_Lib/AT32F435/cmsis/cm4/core_support/cmsis_gcc.h ****   #define __UNALIGNED_UINT16_WRITE(addr, val)    (void)((((struct T_UINT16_WRITE *)(void *)(addr))-
  85:HW_Lib/AT32F435/cmsis/cm4/core_support/cmsis_gcc.h **** #endif
  86:HW_Lib/AT32F435/cmsis/cm4/core_support/cmsis_gcc.h **** #ifndef   __UNALIGNED_UINT16_READ
  87:HW_Lib/AT32F435/cmsis/cm4/core_support/cmsis_gcc.h ****   #pragma GCC diagnostic push
  88:HW_Lib/AT32F435/cmsis/cm4/core_support/cmsis_gcc.h ****   #pragma GCC diagnostic ignored "-Wpacked"
  89:HW_Lib/AT32F435/cmsis/cm4/core_support/cmsis_gcc.h ****   #pragma GCC diagnostic ignored "-Wattributes"
  90:HW_Lib/AT32F435/cmsis/cm4/core_support/cmsis_gcc.h ****   __PACKED_STRUCT T_UINT16_READ { uint16_t v; };
  91:HW_Lib/AT32F435/cmsis/cm4/core_support/cmsis_gcc.h ****   #pragma GCC diagnostic pop
  92:HW_Lib/AT32F435/cmsis/cm4/core_support/cmsis_gcc.h ****   #define __UNALIGNED_UINT16_READ(addr)          (((const struct T_UINT16_READ *)(const void *)(add
  93:HW_Lib/AT32F435/cmsis/cm4/core_support/cmsis_gcc.h **** #endif
  94:HW_Lib/AT32F435/cmsis/cm4/core_support/cmsis_gcc.h **** #ifndef   __UNALIGNED_UINT32_WRITE
  95:HW_Lib/AT32F435/cmsis/cm4/core_support/cmsis_gcc.h ****   #pragma GCC diagnostic push
  96:HW_Lib/AT32F435/cmsis/cm4/core_support/cmsis_gcc.h ****   #pragma GCC diagnostic ignored "-Wpacked"
  97:HW_Lib/AT32F435/cmsis/cm4/core_support/cmsis_gcc.h ****   #pragma GCC diagnostic ignored "-Wattributes"
  98:HW_Lib/AT32F435/cmsis/cm4/core_support/cmsis_gcc.h ****   __PACKED_STRUCT T_UINT32_WRITE { uint32_t v; };
  99:HW_Lib/AT32F435/cmsis/cm4/core_support/cmsis_gcc.h ****   #pragma GCC diagnostic pop
 100:HW_Lib/AT32F435/cmsis/cm4/core_support/cmsis_gcc.h ****   #define __UNALIGNED_UINT32_WRITE(addr, val)    (void)((((struct T_UINT32_WRITE *)(void *)(addr))-
 101:HW_Lib/AT32F435/cmsis/cm4/core_support/cmsis_gcc.h **** #endif
 102:HW_Lib/AT32F435/cmsis/cm4/core_support/cmsis_gcc.h **** #ifndef   __UNALIGNED_UINT32_READ
ARM GAS  C:\Users\8bit\AppData\Local\Temp\ccOOCmGZ.s 			page 7


 103:HW_Lib/AT32F435/cmsis/cm4/core_support/cmsis_gcc.h ****   #pragma GCC diagnostic push
 104:HW_Lib/AT32F435/cmsis/cm4/core_support/cmsis_gcc.h ****   #pragma GCC diagnostic ignored "-Wpacked"
 105:HW_Lib/AT32F435/cmsis/cm4/core_support/cmsis_gcc.h ****   #pragma GCC diagnostic ignored "-Wattributes"
 106:HW_Lib/AT32F435/cmsis/cm4/core_support/cmsis_gcc.h ****   __PACKED_STRUCT T_UINT32_READ { uint32_t v; };
 107:HW_Lib/AT32F435/cmsis/cm4/core_support/cmsis_gcc.h ****   #pragma GCC diagnostic pop
 108:HW_Lib/AT32F435/cmsis/cm4/core_support/cmsis_gcc.h ****   #define __UNALIGNED_UINT32_READ(addr)          (((const struct T_UINT32_READ *)(const void *)(add
 109:HW_Lib/AT32F435/cmsis/cm4/core_support/cmsis_gcc.h **** #endif
 110:HW_Lib/AT32F435/cmsis/cm4/core_support/cmsis_gcc.h **** #ifndef   __ALIGNED
 111:HW_Lib/AT32F435/cmsis/cm4/core_support/cmsis_gcc.h ****   #define __ALIGNED(x)                           __attribute__((aligned(x)))
 112:HW_Lib/AT32F435/cmsis/cm4/core_support/cmsis_gcc.h **** #endif
 113:HW_Lib/AT32F435/cmsis/cm4/core_support/cmsis_gcc.h **** #ifndef   __RESTRICT
 114:HW_Lib/AT32F435/cmsis/cm4/core_support/cmsis_gcc.h ****   #define __RESTRICT                             __restrict
 115:HW_Lib/AT32F435/cmsis/cm4/core_support/cmsis_gcc.h **** #endif
 116:HW_Lib/AT32F435/cmsis/cm4/core_support/cmsis_gcc.h **** #ifndef   __COMPILER_BARRIER
 117:HW_Lib/AT32F435/cmsis/cm4/core_support/cmsis_gcc.h ****   #define __COMPILER_BARRIER()                   __ASM volatile("":::"memory")
 118:HW_Lib/AT32F435/cmsis/cm4/core_support/cmsis_gcc.h **** #endif
 119:HW_Lib/AT32F435/cmsis/cm4/core_support/cmsis_gcc.h **** 
 120:HW_Lib/AT32F435/cmsis/cm4/core_support/cmsis_gcc.h **** /* #########################  Startup and Lowlevel Init  ######################## */
 121:HW_Lib/AT32F435/cmsis/cm4/core_support/cmsis_gcc.h **** 
 122:HW_Lib/AT32F435/cmsis/cm4/core_support/cmsis_gcc.h **** #ifndef __PROGRAM_START
 123:HW_Lib/AT32F435/cmsis/cm4/core_support/cmsis_gcc.h **** 
 124:HW_Lib/AT32F435/cmsis/cm4/core_support/cmsis_gcc.h **** /**
 125:HW_Lib/AT32F435/cmsis/cm4/core_support/cmsis_gcc.h ****   \brief   Initializes data and bss sections
 126:HW_Lib/AT32F435/cmsis/cm4/core_support/cmsis_gcc.h ****   \details This default implementations initialized all data and additional bss
 127:HW_Lib/AT32F435/cmsis/cm4/core_support/cmsis_gcc.h ****            sections relying on .copy.table and .zero.table specified properly
 128:HW_Lib/AT32F435/cmsis/cm4/core_support/cmsis_gcc.h ****            in the used linker script.
 129:HW_Lib/AT32F435/cmsis/cm4/core_support/cmsis_gcc.h **** 
 130:HW_Lib/AT32F435/cmsis/cm4/core_support/cmsis_gcc.h ****  */
 131:HW_Lib/AT32F435/cmsis/cm4/core_support/cmsis_gcc.h **** __STATIC_FORCEINLINE __NO_RETURN void __cmsis_start(void)
 132:HW_Lib/AT32F435/cmsis/cm4/core_support/cmsis_gcc.h **** {
 133:HW_Lib/AT32F435/cmsis/cm4/core_support/cmsis_gcc.h ****   extern void _start(void) __NO_RETURN;
 134:HW_Lib/AT32F435/cmsis/cm4/core_support/cmsis_gcc.h **** 
 135:HW_Lib/AT32F435/cmsis/cm4/core_support/cmsis_gcc.h ****   typedef struct {
 136:HW_Lib/AT32F435/cmsis/cm4/core_support/cmsis_gcc.h ****     uint32_t const* src;
 137:HW_Lib/AT32F435/cmsis/cm4/core_support/cmsis_gcc.h ****     uint32_t* dest;
 138:HW_Lib/AT32F435/cmsis/cm4/core_support/cmsis_gcc.h ****     uint32_t  wlen;
 139:HW_Lib/AT32F435/cmsis/cm4/core_support/cmsis_gcc.h ****   } __copy_table_t;
 140:HW_Lib/AT32F435/cmsis/cm4/core_support/cmsis_gcc.h **** 
 141:HW_Lib/AT32F435/cmsis/cm4/core_support/cmsis_gcc.h ****   typedef struct {
 142:HW_Lib/AT32F435/cmsis/cm4/core_support/cmsis_gcc.h ****     uint32_t* dest;
 143:HW_Lib/AT32F435/cmsis/cm4/core_support/cmsis_gcc.h ****     uint32_t  wlen;
 144:HW_Lib/AT32F435/cmsis/cm4/core_support/cmsis_gcc.h ****   } __zero_table_t;
 145:HW_Lib/AT32F435/cmsis/cm4/core_support/cmsis_gcc.h **** 
 146:HW_Lib/AT32F435/cmsis/cm4/core_support/cmsis_gcc.h ****   extern const __copy_table_t __copy_table_start__;
 147:HW_Lib/AT32F435/cmsis/cm4/core_support/cmsis_gcc.h ****   extern const __copy_table_t __copy_table_end__;
 148:HW_Lib/AT32F435/cmsis/cm4/core_support/cmsis_gcc.h ****   extern const __zero_table_t __zero_table_start__;
 149:HW_Lib/AT32F435/cmsis/cm4/core_support/cmsis_gcc.h ****   extern const __zero_table_t __zero_table_end__;
 150:HW_Lib/AT32F435/cmsis/cm4/core_support/cmsis_gcc.h **** 
 151:HW_Lib/AT32F435/cmsis/cm4/core_support/cmsis_gcc.h ****   for (__copy_table_t const* pTable = &__copy_table_start__; pTable < &__copy_table_end__; ++pTable
 152:HW_Lib/AT32F435/cmsis/cm4/core_support/cmsis_gcc.h ****     for(uint32_t i=0u; i<pTable->wlen; ++i) {
 153:HW_Lib/AT32F435/cmsis/cm4/core_support/cmsis_gcc.h ****       pTable->dest[i] = pTable->src[i];
 154:HW_Lib/AT32F435/cmsis/cm4/core_support/cmsis_gcc.h ****     }
 155:HW_Lib/AT32F435/cmsis/cm4/core_support/cmsis_gcc.h ****   }
 156:HW_Lib/AT32F435/cmsis/cm4/core_support/cmsis_gcc.h **** 
 157:HW_Lib/AT32F435/cmsis/cm4/core_support/cmsis_gcc.h ****   for (__zero_table_t const* pTable = &__zero_table_start__; pTable < &__zero_table_end__; ++pTable
 158:HW_Lib/AT32F435/cmsis/cm4/core_support/cmsis_gcc.h ****     for(uint32_t i=0u; i<pTable->wlen; ++i) {
 159:HW_Lib/AT32F435/cmsis/cm4/core_support/cmsis_gcc.h ****       pTable->dest[i] = 0u;
ARM GAS  C:\Users\8bit\AppData\Local\Temp\ccOOCmGZ.s 			page 8


 160:HW_Lib/AT32F435/cmsis/cm4/core_support/cmsis_gcc.h ****     }
 161:HW_Lib/AT32F435/cmsis/cm4/core_support/cmsis_gcc.h ****   }
 162:HW_Lib/AT32F435/cmsis/cm4/core_support/cmsis_gcc.h **** 
 163:HW_Lib/AT32F435/cmsis/cm4/core_support/cmsis_gcc.h ****   _start();
 164:HW_Lib/AT32F435/cmsis/cm4/core_support/cmsis_gcc.h **** }
 165:HW_Lib/AT32F435/cmsis/cm4/core_support/cmsis_gcc.h **** 
 166:HW_Lib/AT32F435/cmsis/cm4/core_support/cmsis_gcc.h **** #define __PROGRAM_START           __cmsis_start
 167:HW_Lib/AT32F435/cmsis/cm4/core_support/cmsis_gcc.h **** #endif
 168:HW_Lib/AT32F435/cmsis/cm4/core_support/cmsis_gcc.h **** 
 169:HW_Lib/AT32F435/cmsis/cm4/core_support/cmsis_gcc.h **** #ifndef __INITIAL_SP
 170:HW_Lib/AT32F435/cmsis/cm4/core_support/cmsis_gcc.h **** #define __INITIAL_SP              __StackTop
 171:HW_Lib/AT32F435/cmsis/cm4/core_support/cmsis_gcc.h **** #endif
 172:HW_Lib/AT32F435/cmsis/cm4/core_support/cmsis_gcc.h **** 
 173:HW_Lib/AT32F435/cmsis/cm4/core_support/cmsis_gcc.h **** #ifndef __STACK_LIMIT
 174:HW_Lib/AT32F435/cmsis/cm4/core_support/cmsis_gcc.h **** #define __STACK_LIMIT             __StackLimit
 175:HW_Lib/AT32F435/cmsis/cm4/core_support/cmsis_gcc.h **** #endif
 176:HW_Lib/AT32F435/cmsis/cm4/core_support/cmsis_gcc.h **** 
 177:HW_Lib/AT32F435/cmsis/cm4/core_support/cmsis_gcc.h **** #ifndef __VECTOR_TABLE
 178:HW_Lib/AT32F435/cmsis/cm4/core_support/cmsis_gcc.h **** #define __VECTOR_TABLE            __Vectors
 179:HW_Lib/AT32F435/cmsis/cm4/core_support/cmsis_gcc.h **** #endif
 180:HW_Lib/AT32F435/cmsis/cm4/core_support/cmsis_gcc.h **** 
 181:HW_Lib/AT32F435/cmsis/cm4/core_support/cmsis_gcc.h **** #ifndef __VECTOR_TABLE_ATTRIBUTE
 182:HW_Lib/AT32F435/cmsis/cm4/core_support/cmsis_gcc.h **** #define __VECTOR_TABLE_ATTRIBUTE  __attribute__((used, section(".vectors")))
 183:HW_Lib/AT32F435/cmsis/cm4/core_support/cmsis_gcc.h **** #endif
 184:HW_Lib/AT32F435/cmsis/cm4/core_support/cmsis_gcc.h **** 
 185:HW_Lib/AT32F435/cmsis/cm4/core_support/cmsis_gcc.h **** /* ###########################  Core Function Access  ########################### */
 186:HW_Lib/AT32F435/cmsis/cm4/core_support/cmsis_gcc.h **** /** \ingroup  CMSIS_Core_FunctionInterface
 187:HW_Lib/AT32F435/cmsis/cm4/core_support/cmsis_gcc.h ****     \defgroup CMSIS_Core_RegAccFunctions CMSIS Core Register Access Functions
 188:HW_Lib/AT32F435/cmsis/cm4/core_support/cmsis_gcc.h ****   @{
 189:HW_Lib/AT32F435/cmsis/cm4/core_support/cmsis_gcc.h ****  */
 190:HW_Lib/AT32F435/cmsis/cm4/core_support/cmsis_gcc.h **** 
 191:HW_Lib/AT32F435/cmsis/cm4/core_support/cmsis_gcc.h **** /**
 192:HW_Lib/AT32F435/cmsis/cm4/core_support/cmsis_gcc.h ****   \brief   Enable IRQ Interrupts
 193:HW_Lib/AT32F435/cmsis/cm4/core_support/cmsis_gcc.h ****   \details Enables IRQ interrupts by clearing the I-bit in the CPSR.
 194:HW_Lib/AT32F435/cmsis/cm4/core_support/cmsis_gcc.h ****            Can only be executed in Privileged modes.
 195:HW_Lib/AT32F435/cmsis/cm4/core_support/cmsis_gcc.h ****  */
 196:HW_Lib/AT32F435/cmsis/cm4/core_support/cmsis_gcc.h **** __STATIC_FORCEINLINE void __enable_irq(void)
 197:HW_Lib/AT32F435/cmsis/cm4/core_support/cmsis_gcc.h **** {
 198:HW_Lib/AT32F435/cmsis/cm4/core_support/cmsis_gcc.h ****   __ASM volatile ("cpsie i" : : : "memory");
 199:HW_Lib/AT32F435/cmsis/cm4/core_support/cmsis_gcc.h **** }
 200:HW_Lib/AT32F435/cmsis/cm4/core_support/cmsis_gcc.h **** 
 201:HW_Lib/AT32F435/cmsis/cm4/core_support/cmsis_gcc.h **** 
 202:HW_Lib/AT32F435/cmsis/cm4/core_support/cmsis_gcc.h **** /**
 203:HW_Lib/AT32F435/cmsis/cm4/core_support/cmsis_gcc.h ****   \brief   Disable IRQ Interrupts
 204:HW_Lib/AT32F435/cmsis/cm4/core_support/cmsis_gcc.h ****   \details Disables IRQ interrupts by setting the I-bit in the CPSR.
 205:HW_Lib/AT32F435/cmsis/cm4/core_support/cmsis_gcc.h ****            Can only be executed in Privileged modes.
 206:HW_Lib/AT32F435/cmsis/cm4/core_support/cmsis_gcc.h ****  */
 207:HW_Lib/AT32F435/cmsis/cm4/core_support/cmsis_gcc.h **** __STATIC_FORCEINLINE void __disable_irq(void)
 208:HW_Lib/AT32F435/cmsis/cm4/core_support/cmsis_gcc.h **** {
 209:HW_Lib/AT32F435/cmsis/cm4/core_support/cmsis_gcc.h ****   __ASM volatile ("cpsid i" : : : "memory");
 210:HW_Lib/AT32F435/cmsis/cm4/core_support/cmsis_gcc.h **** }
 211:HW_Lib/AT32F435/cmsis/cm4/core_support/cmsis_gcc.h **** 
 212:HW_Lib/AT32F435/cmsis/cm4/core_support/cmsis_gcc.h **** 
 213:HW_Lib/AT32F435/cmsis/cm4/core_support/cmsis_gcc.h **** /**
 214:HW_Lib/AT32F435/cmsis/cm4/core_support/cmsis_gcc.h ****   \brief   Get Control Register
 215:HW_Lib/AT32F435/cmsis/cm4/core_support/cmsis_gcc.h ****   \details Returns the content of the Control Register.
 216:HW_Lib/AT32F435/cmsis/cm4/core_support/cmsis_gcc.h ****   \return               Control Register value
ARM GAS  C:\Users\8bit\AppData\Local\Temp\ccOOCmGZ.s 			page 9


 217:HW_Lib/AT32F435/cmsis/cm4/core_support/cmsis_gcc.h ****  */
 218:HW_Lib/AT32F435/cmsis/cm4/core_support/cmsis_gcc.h **** __STATIC_FORCEINLINE uint32_t __get_CONTROL(void)
 219:HW_Lib/AT32F435/cmsis/cm4/core_support/cmsis_gcc.h **** {
 220:HW_Lib/AT32F435/cmsis/cm4/core_support/cmsis_gcc.h ****   uint32_t result;
 221:HW_Lib/AT32F435/cmsis/cm4/core_support/cmsis_gcc.h **** 
 222:HW_Lib/AT32F435/cmsis/cm4/core_support/cmsis_gcc.h ****   __ASM volatile ("MRS %0, control" : "=r" (result) );
 223:HW_Lib/AT32F435/cmsis/cm4/core_support/cmsis_gcc.h ****   return(result);
 224:HW_Lib/AT32F435/cmsis/cm4/core_support/cmsis_gcc.h **** }
 225:HW_Lib/AT32F435/cmsis/cm4/core_support/cmsis_gcc.h **** 
 226:HW_Lib/AT32F435/cmsis/cm4/core_support/cmsis_gcc.h **** 
 227:HW_Lib/AT32F435/cmsis/cm4/core_support/cmsis_gcc.h **** #if (defined (__ARM_FEATURE_CMSE ) && (__ARM_FEATURE_CMSE == 3))
 228:HW_Lib/AT32F435/cmsis/cm4/core_support/cmsis_gcc.h **** /**
 229:HW_Lib/AT32F435/cmsis/cm4/core_support/cmsis_gcc.h ****   \brief   Get Control Register (non-secure)
 230:HW_Lib/AT32F435/cmsis/cm4/core_support/cmsis_gcc.h ****   \details Returns the content of the non-secure Control Register when in secure mode.
 231:HW_Lib/AT32F435/cmsis/cm4/core_support/cmsis_gcc.h ****   \return               non-secure Control Register value
 232:HW_Lib/AT32F435/cmsis/cm4/core_support/cmsis_gcc.h ****  */
 233:HW_Lib/AT32F435/cmsis/cm4/core_support/cmsis_gcc.h **** __STATIC_FORCEINLINE uint32_t __TZ_get_CONTROL_NS(void)
 234:HW_Lib/AT32F435/cmsis/cm4/core_support/cmsis_gcc.h **** {
 235:HW_Lib/AT32F435/cmsis/cm4/core_support/cmsis_gcc.h ****   uint32_t result;
 236:HW_Lib/AT32F435/cmsis/cm4/core_support/cmsis_gcc.h **** 
 237:HW_Lib/AT32F435/cmsis/cm4/core_support/cmsis_gcc.h ****   __ASM volatile ("MRS %0, control_ns" : "=r" (result) );
 238:HW_Lib/AT32F435/cmsis/cm4/core_support/cmsis_gcc.h ****   return(result);
 239:HW_Lib/AT32F435/cmsis/cm4/core_support/cmsis_gcc.h **** }
 240:HW_Lib/AT32F435/cmsis/cm4/core_support/cmsis_gcc.h **** #endif
 241:HW_Lib/AT32F435/cmsis/cm4/core_support/cmsis_gcc.h **** 
 242:HW_Lib/AT32F435/cmsis/cm4/core_support/cmsis_gcc.h **** 
 243:HW_Lib/AT32F435/cmsis/cm4/core_support/cmsis_gcc.h **** /**
 244:HW_Lib/AT32F435/cmsis/cm4/core_support/cmsis_gcc.h ****   \brief   Set Control Register
 245:HW_Lib/AT32F435/cmsis/cm4/core_support/cmsis_gcc.h ****   \details Writes the given value to the Control Register.
 246:HW_Lib/AT32F435/cmsis/cm4/core_support/cmsis_gcc.h ****   \param [in]    control  Control Register value to set
 247:HW_Lib/AT32F435/cmsis/cm4/core_support/cmsis_gcc.h ****  */
 248:HW_Lib/AT32F435/cmsis/cm4/core_support/cmsis_gcc.h **** __STATIC_FORCEINLINE void __set_CONTROL(uint32_t control)
 249:HW_Lib/AT32F435/cmsis/cm4/core_support/cmsis_gcc.h **** {
 250:HW_Lib/AT32F435/cmsis/cm4/core_support/cmsis_gcc.h ****   __ASM volatile ("MSR control, %0" : : "r" (control) : "memory");
 251:HW_Lib/AT32F435/cmsis/cm4/core_support/cmsis_gcc.h **** }
 252:HW_Lib/AT32F435/cmsis/cm4/core_support/cmsis_gcc.h **** 
 253:HW_Lib/AT32F435/cmsis/cm4/core_support/cmsis_gcc.h **** 
 254:HW_Lib/AT32F435/cmsis/cm4/core_support/cmsis_gcc.h **** #if (defined (__ARM_FEATURE_CMSE ) && (__ARM_FEATURE_CMSE == 3))
 255:HW_Lib/AT32F435/cmsis/cm4/core_support/cmsis_gcc.h **** /**
 256:HW_Lib/AT32F435/cmsis/cm4/core_support/cmsis_gcc.h ****   \brief   Set Control Register (non-secure)
 257:HW_Lib/AT32F435/cmsis/cm4/core_support/cmsis_gcc.h ****   \details Writes the given value to the non-secure Control Register when in secure state.
 258:HW_Lib/AT32F435/cmsis/cm4/core_support/cmsis_gcc.h ****   \param [in]    control  Control Register value to set
 259:HW_Lib/AT32F435/cmsis/cm4/core_support/cmsis_gcc.h ****  */
 260:HW_Lib/AT32F435/cmsis/cm4/core_support/cmsis_gcc.h **** __STATIC_FORCEINLINE void __TZ_set_CONTROL_NS(uint32_t control)
 261:HW_Lib/AT32F435/cmsis/cm4/core_support/cmsis_gcc.h **** {
 262:HW_Lib/AT32F435/cmsis/cm4/core_support/cmsis_gcc.h ****   __ASM volatile ("MSR control_ns, %0" : : "r" (control) : "memory");
 263:HW_Lib/AT32F435/cmsis/cm4/core_support/cmsis_gcc.h **** }
 264:HW_Lib/AT32F435/cmsis/cm4/core_support/cmsis_gcc.h **** #endif
 265:HW_Lib/AT32F435/cmsis/cm4/core_support/cmsis_gcc.h **** 
 266:HW_Lib/AT32F435/cmsis/cm4/core_support/cmsis_gcc.h **** 
 267:HW_Lib/AT32F435/cmsis/cm4/core_support/cmsis_gcc.h **** /**
 268:HW_Lib/AT32F435/cmsis/cm4/core_support/cmsis_gcc.h ****   \brief   Get IPSR Register
 269:HW_Lib/AT32F435/cmsis/cm4/core_support/cmsis_gcc.h ****   \details Returns the content of the IPSR Register.
 270:HW_Lib/AT32F435/cmsis/cm4/core_support/cmsis_gcc.h ****   \return               IPSR Register value
 271:HW_Lib/AT32F435/cmsis/cm4/core_support/cmsis_gcc.h ****  */
 272:HW_Lib/AT32F435/cmsis/cm4/core_support/cmsis_gcc.h **** __STATIC_FORCEINLINE uint32_t __get_IPSR(void)
 112              		.loc 2 272 31 view .LVU23
ARM GAS  C:\Users\8bit\AppData\Local\Temp\ccOOCmGZ.s 			page 10


 113              	.LBB9:
 273:HW_Lib/AT32F435/cmsis/cm4/core_support/cmsis_gcc.h **** {
 274:HW_Lib/AT32F435/cmsis/cm4/core_support/cmsis_gcc.h ****   uint32_t result;
 114              		.loc 2 274 3 view .LVU24
 275:HW_Lib/AT32F435/cmsis/cm4/core_support/cmsis_gcc.h **** 
 276:HW_Lib/AT32F435/cmsis/cm4/core_support/cmsis_gcc.h ****   __ASM volatile ("MRS %0, ipsr" : "=r" (result) );
 115              		.loc 2 276 3 view .LVU25
 116              		.syntax unified
 117              	@ 276 "HW_Lib/AT32F435/cmsis/cm4/core_support/cmsis_gcc.h" 1
 118 0000 EFF30580 		MRS r0, ipsr
 119              	@ 0 "" 2
 120              	.LVL9:
 277:HW_Lib/AT32F435/cmsis/cm4/core_support/cmsis_gcc.h ****   return(result);
 121              		.loc 2 277 3 view .LVU26
 122              		.loc 2 277 3 is_stmt 0 view .LVU27
 123              		.thumb
 124              		.syntax unified
 125              	.LBE9:
 126              	.LBE8:
 133:System/FreeRTOS/CMSIS_RTOS/cmsis_os.c **** }
 127              		.loc 1 133 1 view .LVU28
 128 0004 0038     		subs	r0, r0, #0
 129 0006 18BF     		it	ne
 130 0008 0120     		movne	r0, #1
 131 000a 7047     		bx	lr
 132              		.cfi_endproc
 133              	.LFE112:
 135              		.section	.text.osKernelStart,"ax",%progbits
 136              		.align	1
 137              		.global	osKernelStart
 138              		.syntax unified
 139              		.thumb
 140              		.thumb_func
 142              	osKernelStart:
 143              	.LFB113:
 134:System/FreeRTOS/CMSIS_RTOS/cmsis_os.c **** 
 135:System/FreeRTOS/CMSIS_RTOS/cmsis_os.c **** /*********************** Kernel Control Functions *****************************/
 136:System/FreeRTOS/CMSIS_RTOS/cmsis_os.c **** /**
 137:System/FreeRTOS/CMSIS_RTOS/cmsis_os.c **** * @brief  Initialize the RTOS Kernel for creating objects.
 138:System/FreeRTOS/CMSIS_RTOS/cmsis_os.c **** * @retval status code that indicates the execution status of the function.
 139:System/FreeRTOS/CMSIS_RTOS/cmsis_os.c **** * @note   MUST REMAIN UNCHANGED: \b osKernelInitialize shall be consistent in every CMSIS-RTOS.
 140:System/FreeRTOS/CMSIS_RTOS/cmsis_os.c **** */
 141:System/FreeRTOS/CMSIS_RTOS/cmsis_os.c **** osStatus osKernelInitialize (void);
 142:System/FreeRTOS/CMSIS_RTOS/cmsis_os.c **** 
 143:System/FreeRTOS/CMSIS_RTOS/cmsis_os.c **** /**
 144:System/FreeRTOS/CMSIS_RTOS/cmsis_os.c **** * @brief  Start the RTOS Kernel with executing the specified thread.
 145:System/FreeRTOS/CMSIS_RTOS/cmsis_os.c **** * @param  thread_def    thread definition referenced with \ref osThread.
 146:System/FreeRTOS/CMSIS_RTOS/cmsis_os.c **** * @param  argument      pointer that is passed to the thread function as start argument.
 147:System/FreeRTOS/CMSIS_RTOS/cmsis_os.c **** * @retval status code that indicates the execution status of the function
 148:System/FreeRTOS/CMSIS_RTOS/cmsis_os.c **** * @note   MUST REMAIN UNCHANGED: \b osKernelStart shall be consistent in every CMSIS-RTOS.
 149:System/FreeRTOS/CMSIS_RTOS/cmsis_os.c **** */
 150:System/FreeRTOS/CMSIS_RTOS/cmsis_os.c **** osStatus osKernelStart (void)
 151:System/FreeRTOS/CMSIS_RTOS/cmsis_os.c **** {
 144              		.loc 1 151 1 is_stmt 1 view -0
 145              		.cfi_startproc
 146              		@ args = 0, pretend = 0, frame = 0
 147              		@ frame_needed = 0, uses_anonymous_args = 0
ARM GAS  C:\Users\8bit\AppData\Local\Temp\ccOOCmGZ.s 			page 11


 148 0000 08B5     		push	{r3, lr}
 149              	.LCFI0:
 150              		.cfi_def_cfa_offset 8
 151              		.cfi_offset 3, -8
 152              		.cfi_offset 14, -4
 152:System/FreeRTOS/CMSIS_RTOS/cmsis_os.c ****   vTaskStartScheduler();
 153              		.loc 1 152 3 view .LVU30
 154 0002 FFF7FEFF 		bl	vTaskStartScheduler
 155              	.LVL10:
 153:System/FreeRTOS/CMSIS_RTOS/cmsis_os.c ****   
 154:System/FreeRTOS/CMSIS_RTOS/cmsis_os.c ****   return osOK;
 156              		.loc 1 154 3 view .LVU31
 155:System/FreeRTOS/CMSIS_RTOS/cmsis_os.c **** }
 157              		.loc 1 155 1 is_stmt 0 view .LVU32
 158 0006 0020     		movs	r0, #0
 159 0008 08BD     		pop	{r3, pc}
 160              		.cfi_endproc
 161              	.LFE113:
 163              		.section	.text.osKernelRunning,"ax",%progbits
 164              		.align	1
 165              		.global	osKernelRunning
 166              		.syntax unified
 167              		.thumb
 168              		.thumb_func
 170              	osKernelRunning:
 171              	.LFB114:
 156:System/FreeRTOS/CMSIS_RTOS/cmsis_os.c **** 
 157:System/FreeRTOS/CMSIS_RTOS/cmsis_os.c **** /**
 158:System/FreeRTOS/CMSIS_RTOS/cmsis_os.c **** * @brief  Check if the RTOS kernel is already started
 159:System/FreeRTOS/CMSIS_RTOS/cmsis_os.c **** * @param  None
 160:System/FreeRTOS/CMSIS_RTOS/cmsis_os.c **** * @retval (0) RTOS is not started
 161:System/FreeRTOS/CMSIS_RTOS/cmsis_os.c **** *         (1) RTOS is started
 162:System/FreeRTOS/CMSIS_RTOS/cmsis_os.c **** *         (-1) if this feature is disabled in FreeRTOSConfig.h 
 163:System/FreeRTOS/CMSIS_RTOS/cmsis_os.c **** * @note  MUST REMAIN UNCHANGED: \b osKernelRunning shall be consistent in every CMSIS-RTOS.
 164:System/FreeRTOS/CMSIS_RTOS/cmsis_os.c **** */
 165:System/FreeRTOS/CMSIS_RTOS/cmsis_os.c **** int32_t osKernelRunning(void)
 166:System/FreeRTOS/CMSIS_RTOS/cmsis_os.c **** {
 172              		.loc 1 166 1 is_stmt 1 view -0
 173              		.cfi_startproc
 174              		@ args = 0, pretend = 0, frame = 0
 175              		@ frame_needed = 0, uses_anonymous_args = 0
 176 0000 08B5     		push	{r3, lr}
 177              	.LCFI1:
 178              		.cfi_def_cfa_offset 8
 179              		.cfi_offset 3, -8
 180              		.cfi_offset 14, -4
 167:System/FreeRTOS/CMSIS_RTOS/cmsis_os.c **** #if ( ( INCLUDE_xTaskGetSchedulerState == 1 ) || ( configUSE_TIMERS == 1 ) )
 168:System/FreeRTOS/CMSIS_RTOS/cmsis_os.c ****   if (xTaskGetSchedulerState() == taskSCHEDULER_NOT_STARTED)
 181              		.loc 1 168 3 view .LVU34
 182              		.loc 1 168 7 is_stmt 0 view .LVU35
 183 0002 FFF7FEFF 		bl	xTaskGetSchedulerState
 184              	.LVL11:
 185              		.loc 1 168 6 view .LVU36
 186 0006 0128     		cmp	r0, #1
 187 0008 01D0     		beq	.L14
 169:System/FreeRTOS/CMSIS_RTOS/cmsis_os.c ****     return 0;
 170:System/FreeRTOS/CMSIS_RTOS/cmsis_os.c ****   else
ARM GAS  C:\Users\8bit\AppData\Local\Temp\ccOOCmGZ.s 			page 12


 171:System/FreeRTOS/CMSIS_RTOS/cmsis_os.c ****     return 1;
 188              		.loc 1 171 12 view .LVU37
 189 000a 0120     		movs	r0, #1
 190              	.L10:
 172:System/FreeRTOS/CMSIS_RTOS/cmsis_os.c **** #else
 173:System/FreeRTOS/CMSIS_RTOS/cmsis_os.c **** 	return (-1);
 174:System/FreeRTOS/CMSIS_RTOS/cmsis_os.c **** #endif	
 175:System/FreeRTOS/CMSIS_RTOS/cmsis_os.c **** }
 191              		.loc 1 175 1 view .LVU38
 192 000c 08BD     		pop	{r3, pc}
 193              	.L14:
 169:System/FreeRTOS/CMSIS_RTOS/cmsis_os.c ****     return 0;
 194              		.loc 1 169 12 view .LVU39
 195 000e 0020     		movs	r0, #0
 196 0010 FCE7     		b	.L10
 197              		.cfi_endproc
 198              	.LFE114:
 200              		.section	.text.osKernelSysTick,"ax",%progbits
 201              		.align	1
 202              		.global	osKernelSysTick
 203              		.syntax unified
 204              		.thumb
 205              		.thumb_func
 207              	osKernelSysTick:
 208              	.LFB115:
 176:System/FreeRTOS/CMSIS_RTOS/cmsis_os.c **** 
 177:System/FreeRTOS/CMSIS_RTOS/cmsis_os.c **** #if (defined (osFeature_SysTick)  &&  (osFeature_SysTick != 0))     // System Timer available
 178:System/FreeRTOS/CMSIS_RTOS/cmsis_os.c **** /**
 179:System/FreeRTOS/CMSIS_RTOS/cmsis_os.c **** * @brief  Get the value of the Kernel SysTick timer
 180:System/FreeRTOS/CMSIS_RTOS/cmsis_os.c **** * @param  None
 181:System/FreeRTOS/CMSIS_RTOS/cmsis_os.c **** * @retval None
 182:System/FreeRTOS/CMSIS_RTOS/cmsis_os.c **** * @note   MUST REMAIN UNCHANGED: \b osKernelSysTick shall be consistent in every CMSIS-RTOS.
 183:System/FreeRTOS/CMSIS_RTOS/cmsis_os.c **** */
 184:System/FreeRTOS/CMSIS_RTOS/cmsis_os.c **** uint32_t osKernelSysTick(void)
 185:System/FreeRTOS/CMSIS_RTOS/cmsis_os.c **** {
 209              		.loc 1 185 1 is_stmt 1 view -0
 210              		.cfi_startproc
 211              		@ args = 0, pretend = 0, frame = 0
 212              		@ frame_needed = 0, uses_anonymous_args = 0
 213 0000 08B5     		push	{r3, lr}
 214              	.LCFI2:
 215              		.cfi_def_cfa_offset 8
 216              		.cfi_offset 3, -8
 217              		.cfi_offset 14, -4
 186:System/FreeRTOS/CMSIS_RTOS/cmsis_os.c ****   if (inHandlerMode()) {
 218              		.loc 1 186 3 view .LVU41
 219              		.loc 1 186 7 is_stmt 0 view .LVU42
 220 0002 FFF7FEFF 		bl	inHandlerMode
 221              	.LVL12:
 222              		.loc 1 186 6 view .LVU43
 223 0006 10B1     		cbz	r0, .L16
 187:System/FreeRTOS/CMSIS_RTOS/cmsis_os.c ****     return xTaskGetTickCountFromISR();
 224              		.loc 1 187 5 is_stmt 1 view .LVU44
 225              		.loc 1 187 12 is_stmt 0 view .LVU45
 226 0008 FFF7FEFF 		bl	xTaskGetTickCountFromISR
 227              	.LVL13:
 228              	.L15:
ARM GAS  C:\Users\8bit\AppData\Local\Temp\ccOOCmGZ.s 			page 13


 188:System/FreeRTOS/CMSIS_RTOS/cmsis_os.c ****   }
 189:System/FreeRTOS/CMSIS_RTOS/cmsis_os.c ****   else {
 190:System/FreeRTOS/CMSIS_RTOS/cmsis_os.c ****     return xTaskGetTickCount();
 191:System/FreeRTOS/CMSIS_RTOS/cmsis_os.c ****   }
 192:System/FreeRTOS/CMSIS_RTOS/cmsis_os.c **** }
 229              		.loc 1 192 1 view .LVU46
 230 000c 08BD     		pop	{r3, pc}
 231              	.L16:
 190:System/FreeRTOS/CMSIS_RTOS/cmsis_os.c ****   }
 232              		.loc 1 190 5 is_stmt 1 view .LVU47
 190:System/FreeRTOS/CMSIS_RTOS/cmsis_os.c ****   }
 233              		.loc 1 190 12 is_stmt 0 view .LVU48
 234 000e FFF7FEFF 		bl	xTaskGetTickCount
 235              	.LVL14:
 236 0012 FBE7     		b	.L15
 237              		.cfi_endproc
 238              	.LFE115:
 240              		.section	.text.osThreadCreate,"ax",%progbits
 241              		.align	1
 242              		.global	osThreadCreate
 243              		.syntax unified
 244              		.thumb
 245              		.thumb_func
 247              	osThreadCreate:
 248              	.LVL15:
 249              	.LFB116:
 193:System/FreeRTOS/CMSIS_RTOS/cmsis_os.c **** #endif    // System Timer available
 194:System/FreeRTOS/CMSIS_RTOS/cmsis_os.c **** /*********************** Thread Management *****************************/
 195:System/FreeRTOS/CMSIS_RTOS/cmsis_os.c **** /**
 196:System/FreeRTOS/CMSIS_RTOS/cmsis_os.c **** * @brief  Create a thread and add it to Active Threads and set it to state READY.
 197:System/FreeRTOS/CMSIS_RTOS/cmsis_os.c **** * @param  thread_def    thread definition referenced with \ref osThread.
 198:System/FreeRTOS/CMSIS_RTOS/cmsis_os.c **** * @param  argument      pointer that is passed to the thread function as start argument.
 199:System/FreeRTOS/CMSIS_RTOS/cmsis_os.c **** * @retval thread ID for reference by other functions or NULL in case of error.
 200:System/FreeRTOS/CMSIS_RTOS/cmsis_os.c **** * @note   MUST REMAIN UNCHANGED: \b osThreadCreate shall be consistent in every CMSIS-RTOS.
 201:System/FreeRTOS/CMSIS_RTOS/cmsis_os.c **** */
 202:System/FreeRTOS/CMSIS_RTOS/cmsis_os.c **** osThreadId osThreadCreate (const osThreadDef_t *thread_def, void *argument)
 203:System/FreeRTOS/CMSIS_RTOS/cmsis_os.c **** {
 250              		.loc 1 203 1 is_stmt 1 view -0
 251              		.cfi_startproc
 252              		@ args = 0, pretend = 0, frame = 8
 253              		@ frame_needed = 0, uses_anonymous_args = 0
 254              		.loc 1 203 1 is_stmt 0 view .LVU50
 255 0000 2DE9F043 		push	{r4, r5, r6, r7, r8, r9, lr}
 256              	.LCFI3:
 257              		.cfi_def_cfa_offset 28
 258              		.cfi_offset 4, -28
 259              		.cfi_offset 5, -24
 260              		.cfi_offset 6, -20
 261              		.cfi_offset 7, -16
 262              		.cfi_offset 8, -12
 263              		.cfi_offset 9, -8
 264              		.cfi_offset 14, -4
 265 0004 87B0     		sub	sp, sp, #28
 266              	.LCFI4:
 267              		.cfi_def_cfa_offset 56
 268 0006 0446     		mov	r4, r0
 269 0008 0F46     		mov	r7, r1
ARM GAS  C:\Users\8bit\AppData\Local\Temp\ccOOCmGZ.s 			page 14


 204:System/FreeRTOS/CMSIS_RTOS/cmsis_os.c ****   TaskHandle_t handle;
 270              		.loc 1 204 3 is_stmt 1 view .LVU51
 205:System/FreeRTOS/CMSIS_RTOS/cmsis_os.c ****   
 206:System/FreeRTOS/CMSIS_RTOS/cmsis_os.c **** #if( configSUPPORT_STATIC_ALLOCATION == 1 ) &&  ( configSUPPORT_DYNAMIC_ALLOCATION == 1 )
 207:System/FreeRTOS/CMSIS_RTOS/cmsis_os.c ****   if((thread_def->buffer != NULL) && (thread_def->controlblock != NULL)) {
 271              		.loc 1 207 3 view .LVU52
 272              		.loc 1 207 17 is_stmt 0 view .LVU53
 273 000a 4569     		ldr	r5, [r0, #20]
 274              		.loc 1 207 5 view .LVU54
 275 000c BDB1     		cbz	r5, .L20
 276              		.loc 1 207 49 discriminator 1 view .LVU55
 277 000e 8669     		ldr	r6, [r0, #24]
 278              		.loc 1 207 35 discriminator 1 view .LVU56
 279 0010 AEB1     		cbz	r6, .L20
 208:System/FreeRTOS/CMSIS_RTOS/cmsis_os.c ****     handle = xTaskCreateStatic((TaskFunction_t)thread_def->pthread,(const portCHAR *)thread_def->na
 280              		.loc 1 208 5 is_stmt 1 view .LVU57
 281              		.loc 1 208 58 is_stmt 0 view .LVU58
 282 0012 D0F80480 		ldr	r8, [r0, #4]
 283              		.loc 1 208 96 view .LVU59
 284 0016 D0F80090 		ldr	r9, [r0]
 285              		.loc 1 208 14 view .LVU60
 286 001a B0F90800 		ldrsh	r0, [r0, #8]
 287              	.LVL16:
 288              		.loc 1 208 14 view .LVU61
 289 001e FFF7FEFF 		bl	makeFreeRtosPriority
 290              	.LVL17:
 291              		.loc 1 208 14 view .LVU62
 292 0022 0296     		str	r6, [sp, #8]
 293 0024 0195     		str	r5, [sp, #4]
 294 0026 0090     		str	r0, [sp]
 295 0028 3B46     		mov	r3, r7
 296 002a 2269     		ldr	r2, [r4, #16]
 297 002c 4946     		mov	r1, r9
 298 002e 4046     		mov	r0, r8
 299 0030 FFF7FEFF 		bl	xTaskCreateStatic
 300              	.LVL18:
 301              		.loc 1 208 12 view .LVU63
 302 0034 0590     		str	r0, [sp, #20]
 303              	.L21:
 209:System/FreeRTOS/CMSIS_RTOS/cmsis_os.c ****               thread_def->stacksize, argument, makeFreeRtosPriority(thread_def->tpriority),
 210:System/FreeRTOS/CMSIS_RTOS/cmsis_os.c ****               thread_def->buffer, thread_def->controlblock);
 211:System/FreeRTOS/CMSIS_RTOS/cmsis_os.c ****   }
 212:System/FreeRTOS/CMSIS_RTOS/cmsis_os.c ****   else {
 213:System/FreeRTOS/CMSIS_RTOS/cmsis_os.c ****     if (xTaskCreate((TaskFunction_t)thread_def->pthread,(const portCHAR *)thread_def->name,
 214:System/FreeRTOS/CMSIS_RTOS/cmsis_os.c ****               thread_def->stacksize, argument, makeFreeRtosPriority(thread_def->tpriority),
 215:System/FreeRTOS/CMSIS_RTOS/cmsis_os.c ****               &handle) != pdPASS)  {
 216:System/FreeRTOS/CMSIS_RTOS/cmsis_os.c ****       return NULL;
 217:System/FreeRTOS/CMSIS_RTOS/cmsis_os.c ****     } 
 218:System/FreeRTOS/CMSIS_RTOS/cmsis_os.c ****   }
 219:System/FreeRTOS/CMSIS_RTOS/cmsis_os.c **** #elif( configSUPPORT_STATIC_ALLOCATION == 1 )
 220:System/FreeRTOS/CMSIS_RTOS/cmsis_os.c **** 
 221:System/FreeRTOS/CMSIS_RTOS/cmsis_os.c ****     handle = xTaskCreateStatic((TaskFunction_t)thread_def->pthread,(const portCHAR *)thread_def->na
 222:System/FreeRTOS/CMSIS_RTOS/cmsis_os.c ****               thread_def->stacksize, argument, makeFreeRtosPriority(thread_def->tpriority),
 223:System/FreeRTOS/CMSIS_RTOS/cmsis_os.c ****               thread_def->buffer, thread_def->controlblock);
 224:System/FreeRTOS/CMSIS_RTOS/cmsis_os.c **** #else
 225:System/FreeRTOS/CMSIS_RTOS/cmsis_os.c ****   if (xTaskCreate((TaskFunction_t)thread_def->pthread,(const portCHAR *)thread_def->name,
 226:System/FreeRTOS/CMSIS_RTOS/cmsis_os.c ****                    thread_def->stacksize, argument, makeFreeRtosPriority(thread_def->tpriority),
ARM GAS  C:\Users\8bit\AppData\Local\Temp\ccOOCmGZ.s 			page 15


 227:System/FreeRTOS/CMSIS_RTOS/cmsis_os.c ****                    &handle) != pdPASS)  {
 228:System/FreeRTOS/CMSIS_RTOS/cmsis_os.c ****     return NULL;
 229:System/FreeRTOS/CMSIS_RTOS/cmsis_os.c ****   }     
 230:System/FreeRTOS/CMSIS_RTOS/cmsis_os.c **** #endif
 231:System/FreeRTOS/CMSIS_RTOS/cmsis_os.c ****   
 232:System/FreeRTOS/CMSIS_RTOS/cmsis_os.c ****   return handle;
 304              		.loc 1 232 3 is_stmt 1 view .LVU64
 305              		.loc 1 232 10 is_stmt 0 view .LVU65
 306 0036 0598     		ldr	r0, [sp, #20]
 307              	.L19:
 233:System/FreeRTOS/CMSIS_RTOS/cmsis_os.c **** }
 308              		.loc 1 233 1 view .LVU66
 309 0038 07B0     		add	sp, sp, #28
 310              	.LCFI5:
 311              		.cfi_remember_state
 312              		.cfi_def_cfa_offset 28
 313              		@ sp needed
 314 003a BDE8F083 		pop	{r4, r5, r6, r7, r8, r9, pc}
 315              	.LVL19:
 316              	.L20:
 317              	.LCFI6:
 318              		.cfi_restore_state
 213:System/FreeRTOS/CMSIS_RTOS/cmsis_os.c ****               thread_def->stacksize, argument, makeFreeRtosPriority(thread_def->tpriority),
 319              		.loc 1 213 5 is_stmt 1 view .LVU67
 213:System/FreeRTOS/CMSIS_RTOS/cmsis_os.c ****               thread_def->stacksize, argument, makeFreeRtosPriority(thread_def->tpriority),
 320              		.loc 1 213 47 is_stmt 0 view .LVU68
 321 003e 6568     		ldr	r5, [r4, #4]
 213:System/FreeRTOS/CMSIS_RTOS/cmsis_os.c ****               thread_def->stacksize, argument, makeFreeRtosPriority(thread_def->tpriority),
 322              		.loc 1 213 85 view .LVU69
 323 0040 2668     		ldr	r6, [r4]
 214:System/FreeRTOS/CMSIS_RTOS/cmsis_os.c ****               &handle) != pdPASS)  {
 324              		.loc 1 214 25 view .LVU70
 325 0042 D4F81080 		ldr	r8, [r4, #16]
 213:System/FreeRTOS/CMSIS_RTOS/cmsis_os.c ****               thread_def->stacksize, argument, makeFreeRtosPriority(thread_def->tpriority),
 326              		.loc 1 213 9 view .LVU71
 327 0046 B4F90800 		ldrsh	r0, [r4, #8]
 328              	.LVL20:
 213:System/FreeRTOS/CMSIS_RTOS/cmsis_os.c ****               thread_def->stacksize, argument, makeFreeRtosPriority(thread_def->tpriority),
 329              		.loc 1 213 9 view .LVU72
 330 004a FFF7FEFF 		bl	makeFreeRtosPriority
 331              	.LVL21:
 213:System/FreeRTOS/CMSIS_RTOS/cmsis_os.c ****               thread_def->stacksize, argument, makeFreeRtosPriority(thread_def->tpriority),
 332              		.loc 1 213 9 view .LVU73
 333 004e 05AB     		add	r3, sp, #20
 334 0050 0193     		str	r3, [sp, #4]
 335 0052 0090     		str	r0, [sp]
 336 0054 3B46     		mov	r3, r7
 337 0056 1FFA88F2 		uxth	r2, r8
 338 005a 3146     		mov	r1, r6
 339 005c 2846     		mov	r0, r5
 340 005e FFF7FEFF 		bl	xTaskCreate
 341              	.LVL22:
 213:System/FreeRTOS/CMSIS_RTOS/cmsis_os.c ****               thread_def->stacksize, argument, makeFreeRtosPriority(thread_def->tpriority),
 342              		.loc 1 213 8 view .LVU74
 343 0062 0128     		cmp	r0, #1
 344 0064 E7D0     		beq	.L21
 216:System/FreeRTOS/CMSIS_RTOS/cmsis_os.c ****     } 
ARM GAS  C:\Users\8bit\AppData\Local\Temp\ccOOCmGZ.s 			page 16


 345              		.loc 1 216 14 view .LVU75
 346 0066 0020     		movs	r0, #0
 347 0068 E6E7     		b	.L19
 348              		.cfi_endproc
 349              	.LFE116:
 351              		.section	.text.osThreadGetId,"ax",%progbits
 352              		.align	1
 353              		.global	osThreadGetId
 354              		.syntax unified
 355              		.thumb
 356              		.thumb_func
 358              	osThreadGetId:
 359              	.LFB117:
 234:System/FreeRTOS/CMSIS_RTOS/cmsis_os.c **** 
 235:System/FreeRTOS/CMSIS_RTOS/cmsis_os.c **** /**
 236:System/FreeRTOS/CMSIS_RTOS/cmsis_os.c **** * @brief  Return the thread ID of the current running thread.
 237:System/FreeRTOS/CMSIS_RTOS/cmsis_os.c **** * @retval thread ID for reference by other functions or NULL in case of error.
 238:System/FreeRTOS/CMSIS_RTOS/cmsis_os.c **** * @note   MUST REMAIN UNCHANGED: \b osThreadGetId shall be consistent in every CMSIS-RTOS.
 239:System/FreeRTOS/CMSIS_RTOS/cmsis_os.c **** */
 240:System/FreeRTOS/CMSIS_RTOS/cmsis_os.c **** osThreadId osThreadGetId (void)
 241:System/FreeRTOS/CMSIS_RTOS/cmsis_os.c **** {
 360              		.loc 1 241 1 is_stmt 1 view -0
 361              		.cfi_startproc
 362              		@ args = 0, pretend = 0, frame = 0
 363              		@ frame_needed = 0, uses_anonymous_args = 0
 364 0000 08B5     		push	{r3, lr}
 365              	.LCFI7:
 366              		.cfi_def_cfa_offset 8
 367              		.cfi_offset 3, -8
 368              		.cfi_offset 14, -4
 242:System/FreeRTOS/CMSIS_RTOS/cmsis_os.c **** #if ( ( INCLUDE_xTaskGetCurrentTaskHandle == 1 ) || ( configUSE_MUTEXES == 1 ) )
 243:System/FreeRTOS/CMSIS_RTOS/cmsis_os.c ****   return xTaskGetCurrentTaskHandle();
 369              		.loc 1 243 3 view .LVU77
 370              		.loc 1 243 10 is_stmt 0 view .LVU78
 371 0002 FFF7FEFF 		bl	xTaskGetCurrentTaskHandle
 372              	.LVL23:
 244:System/FreeRTOS/CMSIS_RTOS/cmsis_os.c **** #else
 245:System/FreeRTOS/CMSIS_RTOS/cmsis_os.c **** 	return NULL;
 246:System/FreeRTOS/CMSIS_RTOS/cmsis_os.c **** #endif
 247:System/FreeRTOS/CMSIS_RTOS/cmsis_os.c **** }
 373              		.loc 1 247 1 view .LVU79
 374 0006 08BD     		pop	{r3, pc}
 375              		.cfi_endproc
 376              	.LFE117:
 378              		.section	.text.osThreadTerminate,"ax",%progbits
 379              		.align	1
 380              		.global	osThreadTerminate
 381              		.syntax unified
 382              		.thumb
 383              		.thumb_func
 385              	osThreadTerminate:
 386              	.LVL24:
 387              	.LFB118:
 248:System/FreeRTOS/CMSIS_RTOS/cmsis_os.c **** 
 249:System/FreeRTOS/CMSIS_RTOS/cmsis_os.c **** /**
 250:System/FreeRTOS/CMSIS_RTOS/cmsis_os.c **** * @brief  Terminate execution of a thread and remove it from Active Threads.
 251:System/FreeRTOS/CMSIS_RTOS/cmsis_os.c **** * @param   thread_id   thread ID obtained by \ref osThreadCreate or \ref osThreadGetId.
ARM GAS  C:\Users\8bit\AppData\Local\Temp\ccOOCmGZ.s 			page 17


 252:System/FreeRTOS/CMSIS_RTOS/cmsis_os.c **** * @retval  status code that indicates the execution status of the function.
 253:System/FreeRTOS/CMSIS_RTOS/cmsis_os.c **** * @note   MUST REMAIN UNCHANGED: \b osThreadTerminate shall be consistent in every CMSIS-RTOS.
 254:System/FreeRTOS/CMSIS_RTOS/cmsis_os.c **** */
 255:System/FreeRTOS/CMSIS_RTOS/cmsis_os.c **** osStatus osThreadTerminate (osThreadId thread_id)
 256:System/FreeRTOS/CMSIS_RTOS/cmsis_os.c **** {
 388              		.loc 1 256 1 is_stmt 1 view -0
 389              		.cfi_startproc
 390              		@ args = 0, pretend = 0, frame = 0
 391              		@ frame_needed = 0, uses_anonymous_args = 0
 392              		.loc 1 256 1 is_stmt 0 view .LVU81
 393 0000 08B5     		push	{r3, lr}
 394              	.LCFI8:
 395              		.cfi_def_cfa_offset 8
 396              		.cfi_offset 3, -8
 397              		.cfi_offset 14, -4
 257:System/FreeRTOS/CMSIS_RTOS/cmsis_os.c **** #if (INCLUDE_vTaskDelete == 1)
 258:System/FreeRTOS/CMSIS_RTOS/cmsis_os.c ****   vTaskDelete(thread_id);
 398              		.loc 1 258 3 is_stmt 1 view .LVU82
 399 0002 FFF7FEFF 		bl	vTaskDelete
 400              	.LVL25:
 259:System/FreeRTOS/CMSIS_RTOS/cmsis_os.c ****   return osOK;
 401              		.loc 1 259 3 view .LVU83
 260:System/FreeRTOS/CMSIS_RTOS/cmsis_os.c **** #else
 261:System/FreeRTOS/CMSIS_RTOS/cmsis_os.c ****   return osErrorOS;
 262:System/FreeRTOS/CMSIS_RTOS/cmsis_os.c **** #endif
 263:System/FreeRTOS/CMSIS_RTOS/cmsis_os.c **** }
 402              		.loc 1 263 1 is_stmt 0 view .LVU84
 403 0006 0020     		movs	r0, #0
 404 0008 08BD     		pop	{r3, pc}
 405              		.cfi_endproc
 406              	.LFE118:
 408              		.section	.text.osThreadYield,"ax",%progbits
 409              		.align	1
 410              		.global	osThreadYield
 411              		.syntax unified
 412              		.thumb
 413              		.thumb_func
 415              	osThreadYield:
 416              	.LFB119:
 264:System/FreeRTOS/CMSIS_RTOS/cmsis_os.c **** 
 265:System/FreeRTOS/CMSIS_RTOS/cmsis_os.c **** /**
 266:System/FreeRTOS/CMSIS_RTOS/cmsis_os.c **** * @brief  Pass control to next thread that is in state \b READY.
 267:System/FreeRTOS/CMSIS_RTOS/cmsis_os.c **** * @retval status code that indicates the execution status of the function.
 268:System/FreeRTOS/CMSIS_RTOS/cmsis_os.c **** * @note   MUST REMAIN UNCHANGED: \b osThreadYield shall be consistent in every CMSIS-RTOS.
 269:System/FreeRTOS/CMSIS_RTOS/cmsis_os.c **** */
 270:System/FreeRTOS/CMSIS_RTOS/cmsis_os.c **** osStatus osThreadYield (void)
 271:System/FreeRTOS/CMSIS_RTOS/cmsis_os.c **** {
 417              		.loc 1 271 1 is_stmt 1 view -0
 418              		.cfi_startproc
 419              		@ args = 0, pretend = 0, frame = 0
 420              		@ frame_needed = 0, uses_anonymous_args = 0
 421              		@ link register save eliminated.
 272:System/FreeRTOS/CMSIS_RTOS/cmsis_os.c ****   taskYIELD();
 422              		.loc 1 272 3 view .LVU86
 423 0000 4FF0E023 		mov	r3, #-536813568
 424 0004 4FF08052 		mov	r2, #268435456
 425 0008 C3F8042D 		str	r2, [r3, #3332]
ARM GAS  C:\Users\8bit\AppData\Local\Temp\ccOOCmGZ.s 			page 18


 426              		.loc 1 272 3 view .LVU87
 427              		.syntax unified
 428              	@ 272 "System/FreeRTOS/CMSIS_RTOS/cmsis_os.c" 1
 429 000c BFF34F8F 		dsb
 430              	@ 0 "" 2
 431              		.loc 1 272 3 view .LVU88
 432              	@ 272 "System/FreeRTOS/CMSIS_RTOS/cmsis_os.c" 1
 433 0010 BFF36F8F 		isb
 434              	@ 0 "" 2
 435              		.loc 1 272 14 view .LVU89
 273:System/FreeRTOS/CMSIS_RTOS/cmsis_os.c ****   
 274:System/FreeRTOS/CMSIS_RTOS/cmsis_os.c ****   return osOK;
 436              		.loc 1 274 3 view .LVU90
 275:System/FreeRTOS/CMSIS_RTOS/cmsis_os.c **** }
 437              		.loc 1 275 1 is_stmt 0 view .LVU91
 438              		.thumb
 439              		.syntax unified
 440 0014 0020     		movs	r0, #0
 441 0016 7047     		bx	lr
 442              		.cfi_endproc
 443              	.LFE119:
 445              		.section	.text.osThreadSetPriority,"ax",%progbits
 446              		.align	1
 447              		.global	osThreadSetPriority
 448              		.syntax unified
 449              		.thumb
 450              		.thumb_func
 452              	osThreadSetPriority:
 453              	.LVL26:
 454              	.LFB120:
 276:System/FreeRTOS/CMSIS_RTOS/cmsis_os.c **** 
 277:System/FreeRTOS/CMSIS_RTOS/cmsis_os.c **** /**
 278:System/FreeRTOS/CMSIS_RTOS/cmsis_os.c **** * @brief   Change priority of an active thread.
 279:System/FreeRTOS/CMSIS_RTOS/cmsis_os.c **** * @param   thread_id     thread ID obtained by \ref osThreadCreate or \ref osThreadGetId.
 280:System/FreeRTOS/CMSIS_RTOS/cmsis_os.c **** * @param   priority      new priority value for the thread function.
 281:System/FreeRTOS/CMSIS_RTOS/cmsis_os.c **** * @retval  status code that indicates the execution status of the function.
 282:System/FreeRTOS/CMSIS_RTOS/cmsis_os.c **** * @note   MUST REMAIN UNCHANGED: \b osThreadSetPriority shall be consistent in every CMSIS-RTOS.
 283:System/FreeRTOS/CMSIS_RTOS/cmsis_os.c **** */
 284:System/FreeRTOS/CMSIS_RTOS/cmsis_os.c **** osStatus osThreadSetPriority (osThreadId thread_id, osPriority priority)
 285:System/FreeRTOS/CMSIS_RTOS/cmsis_os.c **** {
 455              		.loc 1 285 1 is_stmt 1 view -0
 456              		.cfi_startproc
 457              		@ args = 0, pretend = 0, frame = 0
 458              		@ frame_needed = 0, uses_anonymous_args = 0
 459              		.loc 1 285 1 is_stmt 0 view .LVU93
 460 0000 10B5     		push	{r4, lr}
 461              	.LCFI9:
 462              		.cfi_def_cfa_offset 8
 463              		.cfi_offset 4, -8
 464              		.cfi_offset 14, -4
 465 0002 0446     		mov	r4, r0
 286:System/FreeRTOS/CMSIS_RTOS/cmsis_os.c **** #if (INCLUDE_vTaskPrioritySet == 1)
 287:System/FreeRTOS/CMSIS_RTOS/cmsis_os.c ****   vTaskPrioritySet(thread_id, makeFreeRtosPriority(priority));
 466              		.loc 1 287 3 is_stmt 1 view .LVU94
 467 0004 0846     		mov	r0, r1
 468              	.LVL27:
 469              		.loc 1 287 3 is_stmt 0 view .LVU95
ARM GAS  C:\Users\8bit\AppData\Local\Temp\ccOOCmGZ.s 			page 19


 470 0006 FFF7FEFF 		bl	makeFreeRtosPriority
 471              	.LVL28:
 472              		.loc 1 287 3 view .LVU96
 473 000a 0146     		mov	r1, r0
 474 000c 2046     		mov	r0, r4
 475 000e FFF7FEFF 		bl	vTaskPrioritySet
 476              	.LVL29:
 288:System/FreeRTOS/CMSIS_RTOS/cmsis_os.c ****   return osOK;
 477              		.loc 1 288 3 is_stmt 1 view .LVU97
 289:System/FreeRTOS/CMSIS_RTOS/cmsis_os.c **** #else
 290:System/FreeRTOS/CMSIS_RTOS/cmsis_os.c ****   return osErrorOS;
 291:System/FreeRTOS/CMSIS_RTOS/cmsis_os.c **** #endif
 292:System/FreeRTOS/CMSIS_RTOS/cmsis_os.c **** }
 478              		.loc 1 292 1 is_stmt 0 view .LVU98
 479 0012 0020     		movs	r0, #0
 480 0014 10BD     		pop	{r4, pc}
 481              		.loc 1 292 1 view .LVU99
 482              		.cfi_endproc
 483              	.LFE120:
 485              		.section	.text.osThreadGetPriority,"ax",%progbits
 486              		.align	1
 487              		.global	osThreadGetPriority
 488              		.syntax unified
 489              		.thumb
 490              		.thumb_func
 492              	osThreadGetPriority:
 493              	.LVL30:
 494              	.LFB121:
 293:System/FreeRTOS/CMSIS_RTOS/cmsis_os.c **** 
 294:System/FreeRTOS/CMSIS_RTOS/cmsis_os.c **** /**
 295:System/FreeRTOS/CMSIS_RTOS/cmsis_os.c **** * @brief   Get current priority of an active thread.
 296:System/FreeRTOS/CMSIS_RTOS/cmsis_os.c **** * @param   thread_id     thread ID obtained by \ref osThreadCreate or \ref osThreadGetId.
 297:System/FreeRTOS/CMSIS_RTOS/cmsis_os.c **** * @retval  current priority value of the thread function.
 298:System/FreeRTOS/CMSIS_RTOS/cmsis_os.c **** * @note   MUST REMAIN UNCHANGED: \b osThreadGetPriority shall be consistent in every CMSIS-RTOS.
 299:System/FreeRTOS/CMSIS_RTOS/cmsis_os.c **** */
 300:System/FreeRTOS/CMSIS_RTOS/cmsis_os.c **** osPriority osThreadGetPriority (osThreadId thread_id)
 301:System/FreeRTOS/CMSIS_RTOS/cmsis_os.c **** {
 495              		.loc 1 301 1 is_stmt 1 view -0
 496              		.cfi_startproc
 497              		@ args = 0, pretend = 0, frame = 0
 498              		@ frame_needed = 0, uses_anonymous_args = 0
 499              		.loc 1 301 1 is_stmt 0 view .LVU101
 500 0000 10B5     		push	{r4, lr}
 501              	.LCFI10:
 502              		.cfi_def_cfa_offset 8
 503              		.cfi_offset 4, -8
 504              		.cfi_offset 14, -4
 505 0002 0446     		mov	r4, r0
 302:System/FreeRTOS/CMSIS_RTOS/cmsis_os.c **** #if (INCLUDE_uxTaskPriorityGet == 1)
 303:System/FreeRTOS/CMSIS_RTOS/cmsis_os.c ****   if (inHandlerMode())
 506              		.loc 1 303 3 is_stmt 1 view .LVU102
 507              		.loc 1 303 7 is_stmt 0 view .LVU103
 508 0004 FFF7FEFF 		bl	inHandlerMode
 509              	.LVL31:
 510              		.loc 1 303 6 view .LVU104
 511 0008 28B1     		cbz	r0, .L33
 304:System/FreeRTOS/CMSIS_RTOS/cmsis_os.c ****   {
ARM GAS  C:\Users\8bit\AppData\Local\Temp\ccOOCmGZ.s 			page 20


 305:System/FreeRTOS/CMSIS_RTOS/cmsis_os.c ****     return makeCmsisPriority(uxTaskPriorityGetFromISR(thread_id));  
 512              		.loc 1 305 5 is_stmt 1 view .LVU105
 513              		.loc 1 305 12 is_stmt 0 view .LVU106
 514 000a 2046     		mov	r0, r4
 515 000c FFF7FEFF 		bl	uxTaskPriorityGetFromISR
 516              	.LVL32:
 517 0010 FFF7FEFF 		bl	makeCmsisPriority
 518              	.LVL33:
 519              	.L34:
 306:System/FreeRTOS/CMSIS_RTOS/cmsis_os.c ****   }
 307:System/FreeRTOS/CMSIS_RTOS/cmsis_os.c ****   else
 308:System/FreeRTOS/CMSIS_RTOS/cmsis_os.c ****   {  
 309:System/FreeRTOS/CMSIS_RTOS/cmsis_os.c ****     return makeCmsisPriority(uxTaskPriorityGet(thread_id));
 310:System/FreeRTOS/CMSIS_RTOS/cmsis_os.c ****   }
 311:System/FreeRTOS/CMSIS_RTOS/cmsis_os.c **** #else
 312:System/FreeRTOS/CMSIS_RTOS/cmsis_os.c ****   return osPriorityError;
 313:System/FreeRTOS/CMSIS_RTOS/cmsis_os.c **** #endif
 314:System/FreeRTOS/CMSIS_RTOS/cmsis_os.c **** }
 520              		.loc 1 314 1 view .LVU107
 521 0014 10BD     		pop	{r4, pc}
 522              	.LVL34:
 523              	.L33:
 309:System/FreeRTOS/CMSIS_RTOS/cmsis_os.c ****   }
 524              		.loc 1 309 5 is_stmt 1 view .LVU108
 309:System/FreeRTOS/CMSIS_RTOS/cmsis_os.c ****   }
 525              		.loc 1 309 12 is_stmt 0 view .LVU109
 526 0016 2046     		mov	r0, r4
 527 0018 FFF7FEFF 		bl	uxTaskPriorityGet
 528              	.LVL35:
 529 001c FFF7FEFF 		bl	makeCmsisPriority
 530              	.LVL36:
 531 0020 F8E7     		b	.L34
 532              		.cfi_endproc
 533              	.LFE121:
 535              		.section	.text.osDelay,"ax",%progbits
 536              		.align	1
 537              		.global	osDelay
 538              		.syntax unified
 539              		.thumb
 540              		.thumb_func
 542              	osDelay:
 543              	.LVL37:
 544              	.LFB122:
 315:System/FreeRTOS/CMSIS_RTOS/cmsis_os.c **** 
 316:System/FreeRTOS/CMSIS_RTOS/cmsis_os.c **** /*********************** Generic Wait Functions *******************************/
 317:System/FreeRTOS/CMSIS_RTOS/cmsis_os.c **** /**
 318:System/FreeRTOS/CMSIS_RTOS/cmsis_os.c **** * @brief   Wait for Timeout (Time Delay)
 319:System/FreeRTOS/CMSIS_RTOS/cmsis_os.c **** * @param   millisec      time delay value
 320:System/FreeRTOS/CMSIS_RTOS/cmsis_os.c **** * @retval  status code that indicates the execution status of the function.
 321:System/FreeRTOS/CMSIS_RTOS/cmsis_os.c **** */
 322:System/FreeRTOS/CMSIS_RTOS/cmsis_os.c **** osStatus osDelay (uint32_t millisec)
 323:System/FreeRTOS/CMSIS_RTOS/cmsis_os.c **** {
 545              		.loc 1 323 1 is_stmt 1 view -0
 546              		.cfi_startproc
 547              		@ args = 0, pretend = 0, frame = 0
 548              		@ frame_needed = 0, uses_anonymous_args = 0
 549              		.loc 1 323 1 is_stmt 0 view .LVU111
ARM GAS  C:\Users\8bit\AppData\Local\Temp\ccOOCmGZ.s 			page 21


 550 0000 08B5     		push	{r3, lr}
 551              	.LCFI11:
 552              		.cfi_def_cfa_offset 8
 553              		.cfi_offset 3, -8
 554              		.cfi_offset 14, -4
 324:System/FreeRTOS/CMSIS_RTOS/cmsis_os.c **** #if INCLUDE_vTaskDelay
 325:System/FreeRTOS/CMSIS_RTOS/cmsis_os.c ****   TickType_t ticks = millisec / portTICK_PERIOD_MS;
 555              		.loc 1 325 3 is_stmt 1 view .LVU112
 556              	.LVL38:
 326:System/FreeRTOS/CMSIS_RTOS/cmsis_os.c ****   
 327:System/FreeRTOS/CMSIS_RTOS/cmsis_os.c ****   vTaskDelay(ticks ? ticks : 1);          /* Minimum delay = 1 tick */
 557              		.loc 1 327 3 view .LVU113
 558 0002 00B9     		cbnz	r0, .L37
 559 0004 0120     		movs	r0, #1
 560              	.LVL39:
 561              	.L37:
 562              		.loc 1 327 3 is_stmt 0 discriminator 4 view .LVU114
 563 0006 FFF7FEFF 		bl	vTaskDelay
 564              	.LVL40:
 328:System/FreeRTOS/CMSIS_RTOS/cmsis_os.c ****   
 329:System/FreeRTOS/CMSIS_RTOS/cmsis_os.c ****   return osOK;
 565              		.loc 1 329 3 is_stmt 1 discriminator 4 view .LVU115
 330:System/FreeRTOS/CMSIS_RTOS/cmsis_os.c **** #else
 331:System/FreeRTOS/CMSIS_RTOS/cmsis_os.c ****   (void) millisec;
 332:System/FreeRTOS/CMSIS_RTOS/cmsis_os.c ****   
 333:System/FreeRTOS/CMSIS_RTOS/cmsis_os.c ****   return osErrorResource;
 334:System/FreeRTOS/CMSIS_RTOS/cmsis_os.c **** #endif
 335:System/FreeRTOS/CMSIS_RTOS/cmsis_os.c **** }
 566              		.loc 1 335 1 is_stmt 0 discriminator 4 view .LVU116
 567 000a 0020     		movs	r0, #0
 568 000c 08BD     		pop	{r3, pc}
 569              		.cfi_endproc
 570              	.LFE122:
 572              		.section	.text.osTimerCreate,"ax",%progbits
 573              		.align	1
 574              		.global	osTimerCreate
 575              		.syntax unified
 576              		.thumb
 577              		.thumb_func
 579              	osTimerCreate:
 580              	.LVL41:
 581              	.LFB123:
 336:System/FreeRTOS/CMSIS_RTOS/cmsis_os.c **** 
 337:System/FreeRTOS/CMSIS_RTOS/cmsis_os.c **** #if (defined (osFeature_Wait)  &&  (osFeature_Wait != 0)) /* Generic Wait available */
 338:System/FreeRTOS/CMSIS_RTOS/cmsis_os.c **** /**
 339:System/FreeRTOS/CMSIS_RTOS/cmsis_os.c **** * @brief  Wait for Signal, Message, Mail, or Timeout
 340:System/FreeRTOS/CMSIS_RTOS/cmsis_os.c **** * @param   millisec  timeout value or 0 in case of no time-out
 341:System/FreeRTOS/CMSIS_RTOS/cmsis_os.c **** * @retval  event that contains signal, message, or mail information or error code.
 342:System/FreeRTOS/CMSIS_RTOS/cmsis_os.c **** * @note   MUST REMAIN UNCHANGED: \b osWait shall be consistent in every CMSIS-RTOS.
 343:System/FreeRTOS/CMSIS_RTOS/cmsis_os.c **** */
 344:System/FreeRTOS/CMSIS_RTOS/cmsis_os.c **** osEvent osWait (uint32_t millisec);
 345:System/FreeRTOS/CMSIS_RTOS/cmsis_os.c **** 
 346:System/FreeRTOS/CMSIS_RTOS/cmsis_os.c **** #endif  /* Generic Wait available */
 347:System/FreeRTOS/CMSIS_RTOS/cmsis_os.c **** 
 348:System/FreeRTOS/CMSIS_RTOS/cmsis_os.c **** /***********************  Timer Management Functions ***************************/
 349:System/FreeRTOS/CMSIS_RTOS/cmsis_os.c **** /**
 350:System/FreeRTOS/CMSIS_RTOS/cmsis_os.c **** * @brief  Create a timer.
ARM GAS  C:\Users\8bit\AppData\Local\Temp\ccOOCmGZ.s 			page 22


 351:System/FreeRTOS/CMSIS_RTOS/cmsis_os.c **** * @param  timer_def     timer object referenced with \ref osTimer.
 352:System/FreeRTOS/CMSIS_RTOS/cmsis_os.c **** * @param  type          osTimerOnce for one-shot or osTimerPeriodic for periodic behavior.
 353:System/FreeRTOS/CMSIS_RTOS/cmsis_os.c **** * @param  argument      argument to the timer call back function.
 354:System/FreeRTOS/CMSIS_RTOS/cmsis_os.c **** * @retval  timer ID for reference by other functions or NULL in case of error.
 355:System/FreeRTOS/CMSIS_RTOS/cmsis_os.c **** * @note   MUST REMAIN UNCHANGED: \b osTimerCreate shall be consistent in every CMSIS-RTOS.
 356:System/FreeRTOS/CMSIS_RTOS/cmsis_os.c **** */
 357:System/FreeRTOS/CMSIS_RTOS/cmsis_os.c **** osTimerId osTimerCreate (const osTimerDef_t *timer_def, os_timer_type type, void *argument)
 358:System/FreeRTOS/CMSIS_RTOS/cmsis_os.c **** {
 582              		.loc 1 358 1 is_stmt 1 view -0
 583              		.cfi_startproc
 584              		@ args = 0, pretend = 0, frame = 0
 585              		@ frame_needed = 0, uses_anonymous_args = 0
 586              		@ link register save eliminated.
 359:System/FreeRTOS/CMSIS_RTOS/cmsis_os.c **** #if (configUSE_TIMERS == 1)
 360:System/FreeRTOS/CMSIS_RTOS/cmsis_os.c **** 
 361:System/FreeRTOS/CMSIS_RTOS/cmsis_os.c **** #if( ( configSUPPORT_STATIC_ALLOCATION == 1 ) && ( configSUPPORT_DYNAMIC_ALLOCATION == 1 ) ) 
 362:System/FreeRTOS/CMSIS_RTOS/cmsis_os.c ****   if(timer_def->controlblock != NULL) {
 363:System/FreeRTOS/CMSIS_RTOS/cmsis_os.c ****     return xTimerCreateStatic((const char *)"",
 364:System/FreeRTOS/CMSIS_RTOS/cmsis_os.c ****                       1, // period should be filled when starting the Timer using osTimerStart
 365:System/FreeRTOS/CMSIS_RTOS/cmsis_os.c ****                       (type == osTimerPeriodic) ? pdTRUE : pdFALSE,
 366:System/FreeRTOS/CMSIS_RTOS/cmsis_os.c ****                       (void *) argument,
 367:System/FreeRTOS/CMSIS_RTOS/cmsis_os.c ****                       (TimerCallbackFunction_t)timer_def->ptimer,
 368:System/FreeRTOS/CMSIS_RTOS/cmsis_os.c ****                       (StaticTimer_t *)timer_def->controlblock);
 369:System/FreeRTOS/CMSIS_RTOS/cmsis_os.c ****   }
 370:System/FreeRTOS/CMSIS_RTOS/cmsis_os.c ****   else {
 371:System/FreeRTOS/CMSIS_RTOS/cmsis_os.c ****     return xTimerCreate((const char *)"",
 372:System/FreeRTOS/CMSIS_RTOS/cmsis_os.c ****                       1, // period should be filled when starting the Timer using osTimerStart
 373:System/FreeRTOS/CMSIS_RTOS/cmsis_os.c ****                       (type == osTimerPeriodic) ? pdTRUE : pdFALSE,
 374:System/FreeRTOS/CMSIS_RTOS/cmsis_os.c ****                       (void *) argument,
 375:System/FreeRTOS/CMSIS_RTOS/cmsis_os.c ****                       (TimerCallbackFunction_t)timer_def->ptimer);
 376:System/FreeRTOS/CMSIS_RTOS/cmsis_os.c ****  }
 377:System/FreeRTOS/CMSIS_RTOS/cmsis_os.c **** #elif( configSUPPORT_STATIC_ALLOCATION == 1 )
 378:System/FreeRTOS/CMSIS_RTOS/cmsis_os.c ****   return xTimerCreateStatic((const char *)"",
 379:System/FreeRTOS/CMSIS_RTOS/cmsis_os.c ****                       1, // period should be filled when starting the Timer using osTimerStart
 380:System/FreeRTOS/CMSIS_RTOS/cmsis_os.c ****                       (type == osTimerPeriodic) ? pdTRUE : pdFALSE,
 381:System/FreeRTOS/CMSIS_RTOS/cmsis_os.c ****                       (void *) argument,
 382:System/FreeRTOS/CMSIS_RTOS/cmsis_os.c ****                       (TimerCallbackFunction_t)timer_def->ptimer,
 383:System/FreeRTOS/CMSIS_RTOS/cmsis_os.c ****                       (StaticTimer_t *)timer_def->controlblock);  
 384:System/FreeRTOS/CMSIS_RTOS/cmsis_os.c **** #else
 385:System/FreeRTOS/CMSIS_RTOS/cmsis_os.c ****   return xTimerCreate((const char *)"",
 386:System/FreeRTOS/CMSIS_RTOS/cmsis_os.c ****                       1, // period should be filled when starting the Timer using osTimerStart
 387:System/FreeRTOS/CMSIS_RTOS/cmsis_os.c ****                       (type == osTimerPeriodic) ? pdTRUE : pdFALSE,
 388:System/FreeRTOS/CMSIS_RTOS/cmsis_os.c ****                       (void *) argument,
 389:System/FreeRTOS/CMSIS_RTOS/cmsis_os.c ****                       (TimerCallbackFunction_t)timer_def->ptimer);
 390:System/FreeRTOS/CMSIS_RTOS/cmsis_os.c **** #endif
 391:System/FreeRTOS/CMSIS_RTOS/cmsis_os.c **** 
 392:System/FreeRTOS/CMSIS_RTOS/cmsis_os.c **** #else 
 393:System/FreeRTOS/CMSIS_RTOS/cmsis_os.c **** 	return NULL;
 587              		.loc 1 393 2 view .LVU118
 394:System/FreeRTOS/CMSIS_RTOS/cmsis_os.c **** #endif
 395:System/FreeRTOS/CMSIS_RTOS/cmsis_os.c **** }
 588              		.loc 1 395 1 is_stmt 0 view .LVU119
 589 0000 0020     		movs	r0, #0
 590              	.LVL42:
 591              		.loc 1 395 1 view .LVU120
 592 0002 7047     		bx	lr
 593              		.cfi_endproc
ARM GAS  C:\Users\8bit\AppData\Local\Temp\ccOOCmGZ.s 			page 23


 594              	.LFE123:
 596              		.section	.text.osTimerStart,"ax",%progbits
 597              		.align	1
 598              		.global	osTimerStart
 599              		.syntax unified
 600              		.thumb
 601              		.thumb_func
 603              	osTimerStart:
 604              	.LVL43:
 605              	.LFB124:
 396:System/FreeRTOS/CMSIS_RTOS/cmsis_os.c **** 
 397:System/FreeRTOS/CMSIS_RTOS/cmsis_os.c **** /**
 398:System/FreeRTOS/CMSIS_RTOS/cmsis_os.c **** * @brief  Start or restart a timer.
 399:System/FreeRTOS/CMSIS_RTOS/cmsis_os.c **** * @param  timer_id      timer ID obtained by \ref osTimerCreate.
 400:System/FreeRTOS/CMSIS_RTOS/cmsis_os.c **** * @param  millisec      time delay value of the timer.
 401:System/FreeRTOS/CMSIS_RTOS/cmsis_os.c **** * @retval  status code that indicates the execution status of the function
 402:System/FreeRTOS/CMSIS_RTOS/cmsis_os.c **** * @note   MUST REMAIN UNCHANGED: \b osTimerStart shall be consistent in every CMSIS-RTOS.
 403:System/FreeRTOS/CMSIS_RTOS/cmsis_os.c **** */
 404:System/FreeRTOS/CMSIS_RTOS/cmsis_os.c **** osStatus osTimerStart (osTimerId timer_id, uint32_t millisec)
 405:System/FreeRTOS/CMSIS_RTOS/cmsis_os.c **** {
 606              		.loc 1 405 1 is_stmt 1 view -0
 607              		.cfi_startproc
 608              		@ args = 0, pretend = 0, frame = 0
 609              		@ frame_needed = 0, uses_anonymous_args = 0
 610              		@ link register save eliminated.
 406:System/FreeRTOS/CMSIS_RTOS/cmsis_os.c ****   osStatus result = osOK;
 611              		.loc 1 406 3 view .LVU122
 407:System/FreeRTOS/CMSIS_RTOS/cmsis_os.c **** #if (configUSE_TIMERS == 1)  
 408:System/FreeRTOS/CMSIS_RTOS/cmsis_os.c ****   portBASE_TYPE taskWoken = pdFALSE;
 409:System/FreeRTOS/CMSIS_RTOS/cmsis_os.c ****   TickType_t ticks = millisec / portTICK_PERIOD_MS;
 410:System/FreeRTOS/CMSIS_RTOS/cmsis_os.c **** 
 411:System/FreeRTOS/CMSIS_RTOS/cmsis_os.c ****   if (ticks == 0)
 412:System/FreeRTOS/CMSIS_RTOS/cmsis_os.c ****     ticks = 1;
 413:System/FreeRTOS/CMSIS_RTOS/cmsis_os.c ****     
 414:System/FreeRTOS/CMSIS_RTOS/cmsis_os.c ****   if (inHandlerMode()) 
 415:System/FreeRTOS/CMSIS_RTOS/cmsis_os.c ****   {
 416:System/FreeRTOS/CMSIS_RTOS/cmsis_os.c ****     if (xTimerChangePeriodFromISR(timer_id, ticks, &taskWoken) != pdPASS)
 417:System/FreeRTOS/CMSIS_RTOS/cmsis_os.c ****     {
 418:System/FreeRTOS/CMSIS_RTOS/cmsis_os.c ****       result = osErrorOS;
 419:System/FreeRTOS/CMSIS_RTOS/cmsis_os.c ****     }
 420:System/FreeRTOS/CMSIS_RTOS/cmsis_os.c ****     else
 421:System/FreeRTOS/CMSIS_RTOS/cmsis_os.c ****     {
 422:System/FreeRTOS/CMSIS_RTOS/cmsis_os.c ****       portEND_SWITCHING_ISR(taskWoken);     
 423:System/FreeRTOS/CMSIS_RTOS/cmsis_os.c ****     }
 424:System/FreeRTOS/CMSIS_RTOS/cmsis_os.c ****   }
 425:System/FreeRTOS/CMSIS_RTOS/cmsis_os.c ****   else 
 426:System/FreeRTOS/CMSIS_RTOS/cmsis_os.c ****   {
 427:System/FreeRTOS/CMSIS_RTOS/cmsis_os.c ****     if (xTimerChangePeriod(timer_id, ticks, 0) != pdPASS)
 428:System/FreeRTOS/CMSIS_RTOS/cmsis_os.c ****       result = osErrorOS;
 429:System/FreeRTOS/CMSIS_RTOS/cmsis_os.c ****   }
 430:System/FreeRTOS/CMSIS_RTOS/cmsis_os.c **** 
 431:System/FreeRTOS/CMSIS_RTOS/cmsis_os.c **** #else 
 432:System/FreeRTOS/CMSIS_RTOS/cmsis_os.c ****   result = osErrorOS;
 612              		.loc 1 432 3 view .LVU123
 433:System/FreeRTOS/CMSIS_RTOS/cmsis_os.c **** #endif
 434:System/FreeRTOS/CMSIS_RTOS/cmsis_os.c ****   return result;
 613              		.loc 1 434 3 view .LVU124
ARM GAS  C:\Users\8bit\AppData\Local\Temp\ccOOCmGZ.s 			page 24


 435:System/FreeRTOS/CMSIS_RTOS/cmsis_os.c **** }
 614              		.loc 1 435 1 is_stmt 0 view .LVU125
 615 0000 FF20     		movs	r0, #255
 616              	.LVL44:
 617              		.loc 1 435 1 view .LVU126
 618 0002 7047     		bx	lr
 619              		.cfi_endproc
 620              	.LFE124:
 622              		.section	.text.osTimerStop,"ax",%progbits
 623              		.align	1
 624              		.global	osTimerStop
 625              		.syntax unified
 626              		.thumb
 627              		.thumb_func
 629              	osTimerStop:
 630              	.LVL45:
 631              	.LFB125:
 436:System/FreeRTOS/CMSIS_RTOS/cmsis_os.c **** 
 437:System/FreeRTOS/CMSIS_RTOS/cmsis_os.c **** /**
 438:System/FreeRTOS/CMSIS_RTOS/cmsis_os.c **** * @brief  Stop a timer.
 439:System/FreeRTOS/CMSIS_RTOS/cmsis_os.c **** * @param  timer_id      timer ID obtained by \ref osTimerCreate
 440:System/FreeRTOS/CMSIS_RTOS/cmsis_os.c **** * @retval  status code that indicates the execution status of the function.
 441:System/FreeRTOS/CMSIS_RTOS/cmsis_os.c **** * @note   MUST REMAIN UNCHANGED: \b osTimerStop shall be consistent in every CMSIS-RTOS.
 442:System/FreeRTOS/CMSIS_RTOS/cmsis_os.c **** */
 443:System/FreeRTOS/CMSIS_RTOS/cmsis_os.c **** osStatus osTimerStop (osTimerId timer_id)
 444:System/FreeRTOS/CMSIS_RTOS/cmsis_os.c **** {
 632              		.loc 1 444 1 is_stmt 1 view -0
 633              		.cfi_startproc
 634              		@ args = 0, pretend = 0, frame = 0
 635              		@ frame_needed = 0, uses_anonymous_args = 0
 636              		@ link register save eliminated.
 445:System/FreeRTOS/CMSIS_RTOS/cmsis_os.c ****   osStatus result = osOK;
 637              		.loc 1 445 3 view .LVU128
 446:System/FreeRTOS/CMSIS_RTOS/cmsis_os.c **** #if (configUSE_TIMERS == 1)  
 447:System/FreeRTOS/CMSIS_RTOS/cmsis_os.c ****   portBASE_TYPE taskWoken = pdFALSE;
 448:System/FreeRTOS/CMSIS_RTOS/cmsis_os.c **** 
 449:System/FreeRTOS/CMSIS_RTOS/cmsis_os.c ****   if (inHandlerMode()) {
 450:System/FreeRTOS/CMSIS_RTOS/cmsis_os.c ****     if (xTimerStopFromISR(timer_id, &taskWoken) != pdPASS) {
 451:System/FreeRTOS/CMSIS_RTOS/cmsis_os.c ****       return osErrorOS;
 452:System/FreeRTOS/CMSIS_RTOS/cmsis_os.c ****     }
 453:System/FreeRTOS/CMSIS_RTOS/cmsis_os.c ****     portEND_SWITCHING_ISR(taskWoken);
 454:System/FreeRTOS/CMSIS_RTOS/cmsis_os.c ****   }
 455:System/FreeRTOS/CMSIS_RTOS/cmsis_os.c ****   else {
 456:System/FreeRTOS/CMSIS_RTOS/cmsis_os.c ****     if (xTimerStop(timer_id, 0) != pdPASS) {
 457:System/FreeRTOS/CMSIS_RTOS/cmsis_os.c ****       result = osErrorOS;
 458:System/FreeRTOS/CMSIS_RTOS/cmsis_os.c ****     }
 459:System/FreeRTOS/CMSIS_RTOS/cmsis_os.c ****   }
 460:System/FreeRTOS/CMSIS_RTOS/cmsis_os.c **** #else 
 461:System/FreeRTOS/CMSIS_RTOS/cmsis_os.c ****   result = osErrorOS;
 638              		.loc 1 461 3 view .LVU129
 462:System/FreeRTOS/CMSIS_RTOS/cmsis_os.c **** #endif 
 463:System/FreeRTOS/CMSIS_RTOS/cmsis_os.c ****   return result;
 639              		.loc 1 463 3 view .LVU130
 464:System/FreeRTOS/CMSIS_RTOS/cmsis_os.c **** }
 640              		.loc 1 464 1 is_stmt 0 view .LVU131
 641 0000 FF20     		movs	r0, #255
 642              	.LVL46:
ARM GAS  C:\Users\8bit\AppData\Local\Temp\ccOOCmGZ.s 			page 25


 643              		.loc 1 464 1 view .LVU132
 644 0002 7047     		bx	lr
 645              		.cfi_endproc
 646              	.LFE125:
 648              		.section	.text.osTimerDelete,"ax",%progbits
 649              		.align	1
 650              		.global	osTimerDelete
 651              		.syntax unified
 652              		.thumb
 653              		.thumb_func
 655              	osTimerDelete:
 656              	.LVL47:
 657              	.LFB126:
 465:System/FreeRTOS/CMSIS_RTOS/cmsis_os.c **** 
 466:System/FreeRTOS/CMSIS_RTOS/cmsis_os.c **** /**
 467:System/FreeRTOS/CMSIS_RTOS/cmsis_os.c **** * @brief  Delete a timer.
 468:System/FreeRTOS/CMSIS_RTOS/cmsis_os.c **** * @param  timer_id      timer ID obtained by \ref osTimerCreate
 469:System/FreeRTOS/CMSIS_RTOS/cmsis_os.c **** * @retval  status code that indicates the execution status of the function.
 470:System/FreeRTOS/CMSIS_RTOS/cmsis_os.c **** * @note   MUST REMAIN UNCHANGED: \b osTimerDelete shall be consistent in every CMSIS-RTOS.
 471:System/FreeRTOS/CMSIS_RTOS/cmsis_os.c **** */
 472:System/FreeRTOS/CMSIS_RTOS/cmsis_os.c **** osStatus osTimerDelete (osTimerId timer_id)
 473:System/FreeRTOS/CMSIS_RTOS/cmsis_os.c **** {
 658              		.loc 1 473 1 is_stmt 1 view -0
 659              		.cfi_startproc
 660              		@ args = 0, pretend = 0, frame = 0
 661              		@ frame_needed = 0, uses_anonymous_args = 0
 662              		@ link register save eliminated.
 474:System/FreeRTOS/CMSIS_RTOS/cmsis_os.c **** osStatus result = osOK;
 663              		.loc 1 474 1 view .LVU134
 475:System/FreeRTOS/CMSIS_RTOS/cmsis_os.c **** 
 476:System/FreeRTOS/CMSIS_RTOS/cmsis_os.c **** #if (configUSE_TIMERS == 1)
 477:System/FreeRTOS/CMSIS_RTOS/cmsis_os.c **** 
 478:System/FreeRTOS/CMSIS_RTOS/cmsis_os.c ****    if (inHandlerMode()) {
 479:System/FreeRTOS/CMSIS_RTOS/cmsis_os.c ****      return osErrorISR;
 480:System/FreeRTOS/CMSIS_RTOS/cmsis_os.c ****   }
 481:System/FreeRTOS/CMSIS_RTOS/cmsis_os.c ****   else { 
 482:System/FreeRTOS/CMSIS_RTOS/cmsis_os.c ****     if ((xTimerDelete(timer_id, osWaitForever )) != pdPASS) {
 483:System/FreeRTOS/CMSIS_RTOS/cmsis_os.c ****       result = osErrorOS;
 484:System/FreeRTOS/CMSIS_RTOS/cmsis_os.c ****     }
 485:System/FreeRTOS/CMSIS_RTOS/cmsis_os.c ****   } 
 486:System/FreeRTOS/CMSIS_RTOS/cmsis_os.c ****     
 487:System/FreeRTOS/CMSIS_RTOS/cmsis_os.c **** #else 
 488:System/FreeRTOS/CMSIS_RTOS/cmsis_os.c ****   result = osErrorOS;
 664              		.loc 1 488 3 view .LVU135
 489:System/FreeRTOS/CMSIS_RTOS/cmsis_os.c **** #endif 
 490:System/FreeRTOS/CMSIS_RTOS/cmsis_os.c ****  
 491:System/FreeRTOS/CMSIS_RTOS/cmsis_os.c ****   return result;
 665              		.loc 1 491 3 view .LVU136
 492:System/FreeRTOS/CMSIS_RTOS/cmsis_os.c **** }
 666              		.loc 1 492 1 is_stmt 0 view .LVU137
 667 0000 FF20     		movs	r0, #255
 668              	.LVL48:
 669              		.loc 1 492 1 view .LVU138
 670 0002 7047     		bx	lr
 671              		.cfi_endproc
 672              	.LFE126:
 674              		.section	.text.osSignalSet,"ax",%progbits
ARM GAS  C:\Users\8bit\AppData\Local\Temp\ccOOCmGZ.s 			page 26


 675              		.align	1
 676              		.global	osSignalSet
 677              		.syntax unified
 678              		.thumb
 679              		.thumb_func
 681              	osSignalSet:
 682              	.LVL49:
 683              	.LFB127:
 493:System/FreeRTOS/CMSIS_RTOS/cmsis_os.c **** 
 494:System/FreeRTOS/CMSIS_RTOS/cmsis_os.c **** /***************************  Signal Management ********************************/
 495:System/FreeRTOS/CMSIS_RTOS/cmsis_os.c **** /**
 496:System/FreeRTOS/CMSIS_RTOS/cmsis_os.c **** * @brief  Set the specified Signal Flags of an active thread.
 497:System/FreeRTOS/CMSIS_RTOS/cmsis_os.c **** * @param  thread_id     thread ID obtained by \ref osThreadCreate or \ref osThreadGetId.
 498:System/FreeRTOS/CMSIS_RTOS/cmsis_os.c **** * @param  signals       specifies the signal flags of the thread that should be set.
 499:System/FreeRTOS/CMSIS_RTOS/cmsis_os.c **** * @retval previous signal flags of the specified thread or 0x80000000 in case of incorrect paramete
 500:System/FreeRTOS/CMSIS_RTOS/cmsis_os.c **** * @note   MUST REMAIN UNCHANGED: \b osSignalSet shall be consistent in every CMSIS-RTOS.
 501:System/FreeRTOS/CMSIS_RTOS/cmsis_os.c **** */
 502:System/FreeRTOS/CMSIS_RTOS/cmsis_os.c **** int32_t osSignalSet (osThreadId thread_id, int32_t signal)
 503:System/FreeRTOS/CMSIS_RTOS/cmsis_os.c **** {
 684              		.loc 1 503 1 is_stmt 1 view -0
 685              		.cfi_startproc
 686              		@ args = 0, pretend = 0, frame = 8
 687              		@ frame_needed = 0, uses_anonymous_args = 0
 688              		.loc 1 503 1 is_stmt 0 view .LVU140
 689 0000 30B5     		push	{r4, r5, lr}
 690              	.LCFI12:
 691              		.cfi_def_cfa_offset 12
 692              		.cfi_offset 4, -12
 693              		.cfi_offset 5, -8
 694              		.cfi_offset 14, -4
 695 0002 85B0     		sub	sp, sp, #20
 696              	.LCFI13:
 697              		.cfi_def_cfa_offset 32
 698 0004 0446     		mov	r4, r0
 699 0006 0D46     		mov	r5, r1
 504:System/FreeRTOS/CMSIS_RTOS/cmsis_os.c **** #if( configUSE_TASK_NOTIFICATIONS == 1 )	
 505:System/FreeRTOS/CMSIS_RTOS/cmsis_os.c ****   BaseType_t xHigherPriorityTaskWoken = pdFALSE;
 700              		.loc 1 505 3 is_stmt 1 view .LVU141
 701              		.loc 1 505 14 is_stmt 0 view .LVU142
 702 0008 0023     		movs	r3, #0
 703 000a 0393     		str	r3, [sp, #12]
 506:System/FreeRTOS/CMSIS_RTOS/cmsis_os.c ****   uint32_t ulPreviousNotificationValue = 0;
 704              		.loc 1 506 3 is_stmt 1 view .LVU143
 705              		.loc 1 506 12 is_stmt 0 view .LVU144
 706 000c 0293     		str	r3, [sp, #8]
 507:System/FreeRTOS/CMSIS_RTOS/cmsis_os.c ****   
 508:System/FreeRTOS/CMSIS_RTOS/cmsis_os.c ****   if (inHandlerMode())
 707              		.loc 1 508 3 is_stmt 1 view .LVU145
 708              		.loc 1 508 7 is_stmt 0 view .LVU146
 709 000e FFF7FEFF 		bl	inHandlerMode
 710              	.LVL50:
 711              		.loc 1 508 6 view .LVU147
 712 0012 B0B1     		cbz	r0, .L45
 509:System/FreeRTOS/CMSIS_RTOS/cmsis_os.c ****   {
 510:System/FreeRTOS/CMSIS_RTOS/cmsis_os.c ****     if(xTaskGenericNotifyFromISR( thread_id , (uint32_t)signal, eSetBits, &ulPreviousNotificationVa
 713              		.loc 1 510 5 is_stmt 1 view .LVU148
 714              		.loc 1 510 8 is_stmt 0 view .LVU149
ARM GAS  C:\Users\8bit\AppData\Local\Temp\ccOOCmGZ.s 			page 27


 715 0014 03AB     		add	r3, sp, #12
 716 0016 0093     		str	r3, [sp]
 717 0018 02AB     		add	r3, sp, #8
 718 001a 0122     		movs	r2, #1
 719 001c 2946     		mov	r1, r5
 720 001e 2046     		mov	r0, r4
 721 0020 FFF7FEFF 		bl	xTaskGenericNotifyFromISR
 722              	.LVL51:
 723              		.loc 1 510 7 view .LVU150
 724 0024 0128     		cmp	r0, #1
 725 0026 17D1     		bne	.L48
 511:System/FreeRTOS/CMSIS_RTOS/cmsis_os.c ****       return 0x80000000;
 512:System/FreeRTOS/CMSIS_RTOS/cmsis_os.c ****     
 513:System/FreeRTOS/CMSIS_RTOS/cmsis_os.c ****     portYIELD_FROM_ISR( xHigherPriorityTaskWoken );
 726              		.loc 1 513 5 is_stmt 1 view .LVU151
 727 0028 039B     		ldr	r3, [sp, #12]
 728 002a 93B1     		cbz	r3, .L47
 729              		.loc 1 513 5 discriminator 1 view .LVU152
 730 002c 4FF0E023 		mov	r3, #-536813568
 731 0030 4FF08052 		mov	r2, #268435456
 732 0034 C3F8042D 		str	r2, [r3, #3332]
 733              		.loc 1 513 5 discriminator 1 view .LVU153
 734              		.syntax unified
 735              	@ 513 "System/FreeRTOS/CMSIS_RTOS/cmsis_os.c" 1
 736 0038 BFF34F8F 		dsb
 737              	@ 0 "" 2
 738              		.loc 1 513 5 discriminator 1 view .LVU154
 739              	@ 513 "System/FreeRTOS/CMSIS_RTOS/cmsis_os.c" 1
 740 003c BFF36F8F 		isb
 741              	@ 0 "" 2
 742              		.thumb
 743              		.syntax unified
 744 0040 07E0     		b	.L47
 745              	.L45:
 514:System/FreeRTOS/CMSIS_RTOS/cmsis_os.c ****   }  
 515:System/FreeRTOS/CMSIS_RTOS/cmsis_os.c ****   else if(xTaskGenericNotify( thread_id , (uint32_t)signal, eSetBits, &ulPreviousNotificationValue)
 746              		.loc 1 515 8 view .LVU155
 747              		.loc 1 515 11 is_stmt 0 view .LVU156
 748 0042 02AB     		add	r3, sp, #8
 749 0044 0122     		movs	r2, #1
 750 0046 2946     		mov	r1, r5
 751 0048 2046     		mov	r0, r4
 752 004a FFF7FEFF 		bl	xTaskGenericNotify
 753              	.LVL52:
 754              		.loc 1 515 10 view .LVU157
 755 004e 0128     		cmp	r0, #1
 756 0050 05D1     		bne	.L49
 757              	.L47:
 516:System/FreeRTOS/CMSIS_RTOS/cmsis_os.c ****     return 0x80000000;
 517:System/FreeRTOS/CMSIS_RTOS/cmsis_os.c ****   
 518:System/FreeRTOS/CMSIS_RTOS/cmsis_os.c ****   return ulPreviousNotificationValue;
 758              		.loc 1 518 3 is_stmt 1 view .LVU158
 759              		.loc 1 518 10 is_stmt 0 view .LVU159
 760 0052 0298     		ldr	r0, [sp, #8]
 761              	.L44:
 519:System/FreeRTOS/CMSIS_RTOS/cmsis_os.c **** #else
 520:System/FreeRTOS/CMSIS_RTOS/cmsis_os.c ****   (void) thread_id;
ARM GAS  C:\Users\8bit\AppData\Local\Temp\ccOOCmGZ.s 			page 28


 521:System/FreeRTOS/CMSIS_RTOS/cmsis_os.c ****   (void) signal;
 522:System/FreeRTOS/CMSIS_RTOS/cmsis_os.c **** 
 523:System/FreeRTOS/CMSIS_RTOS/cmsis_os.c ****   return 0x80000000; /* Task Notification not supported */ 	
 524:System/FreeRTOS/CMSIS_RTOS/cmsis_os.c **** #endif
 525:System/FreeRTOS/CMSIS_RTOS/cmsis_os.c **** }
 762              		.loc 1 525 1 view .LVU160
 763 0054 05B0     		add	sp, sp, #20
 764              	.LCFI14:
 765              		.cfi_remember_state
 766              		.cfi_def_cfa_offset 12
 767              		@ sp needed
 768 0056 30BD     		pop	{r4, r5, pc}
 769              	.LVL53:
 770              	.L48:
 771              	.LCFI15:
 772              		.cfi_restore_state
 511:System/FreeRTOS/CMSIS_RTOS/cmsis_os.c ****     
 773              		.loc 1 511 14 view .LVU161
 774 0058 4FF00040 		mov	r0, #-2147483648
 775 005c FAE7     		b	.L44
 776              	.L49:
 516:System/FreeRTOS/CMSIS_RTOS/cmsis_os.c ****     return 0x80000000;
 777              		.loc 1 516 12 view .LVU162
 778 005e 4FF00040 		mov	r0, #-2147483648
 779 0062 F7E7     		b	.L44
 780              		.cfi_endproc
 781              	.LFE127:
 783              		.section	.text.osSignalWait,"ax",%progbits
 784              		.align	1
 785              		.global	osSignalWait
 786              		.syntax unified
 787              		.thumb
 788              		.thumb_func
 790              	osSignalWait:
 791              	.LVL54:
 792              	.LFB128:
 526:System/FreeRTOS/CMSIS_RTOS/cmsis_os.c **** 
 527:System/FreeRTOS/CMSIS_RTOS/cmsis_os.c **** /**
 528:System/FreeRTOS/CMSIS_RTOS/cmsis_os.c **** * @brief  Clear the specified Signal Flags of an active thread.
 529:System/FreeRTOS/CMSIS_RTOS/cmsis_os.c **** * @param  thread_id  thread ID obtained by \ref osThreadCreate or \ref osThreadGetId.
 530:System/FreeRTOS/CMSIS_RTOS/cmsis_os.c **** * @param  signals    specifies the signal flags of the thread that shall be cleared.
 531:System/FreeRTOS/CMSIS_RTOS/cmsis_os.c **** * @retval  previous signal flags of the specified thread or 0x80000000 in case of incorrect paramet
 532:System/FreeRTOS/CMSIS_RTOS/cmsis_os.c **** * @note   MUST REMAIN UNCHANGED: \b osSignalClear shall be consistent in every CMSIS-RTOS.
 533:System/FreeRTOS/CMSIS_RTOS/cmsis_os.c **** */
 534:System/FreeRTOS/CMSIS_RTOS/cmsis_os.c **** int32_t osSignalClear (osThreadId thread_id, int32_t signal);
 535:System/FreeRTOS/CMSIS_RTOS/cmsis_os.c **** 
 536:System/FreeRTOS/CMSIS_RTOS/cmsis_os.c **** /**
 537:System/FreeRTOS/CMSIS_RTOS/cmsis_os.c **** * @brief  Wait for one or more Signal Flags to become signaled for the current \b RUNNING thread.
 538:System/FreeRTOS/CMSIS_RTOS/cmsis_os.c **** * @param  signals   wait until all specified signal flags set or 0 for any single signal flag.
 539:System/FreeRTOS/CMSIS_RTOS/cmsis_os.c **** * @param  millisec  timeout value or 0 in case of no time-out.
 540:System/FreeRTOS/CMSIS_RTOS/cmsis_os.c **** * @retval  event flag information or error code.
 541:System/FreeRTOS/CMSIS_RTOS/cmsis_os.c **** * @note   MUST REMAIN UNCHANGED: \b osSignalWait shall be consistent in every CMSIS-RTOS.
 542:System/FreeRTOS/CMSIS_RTOS/cmsis_os.c **** */
 543:System/FreeRTOS/CMSIS_RTOS/cmsis_os.c **** osEvent osSignalWait (int32_t signals, uint32_t millisec)
 544:System/FreeRTOS/CMSIS_RTOS/cmsis_os.c **** {
 793              		.loc 1 544 1 is_stmt 1 view -0
 794              		.cfi_startproc
ARM GAS  C:\Users\8bit\AppData\Local\Temp\ccOOCmGZ.s 			page 29


 795              		@ args = 0, pretend = 0, frame = 16
 796              		@ frame_needed = 0, uses_anonymous_args = 0
 797              		.loc 1 544 1 is_stmt 0 view .LVU164
 798 0000 70B5     		push	{r4, r5, r6, lr}
 799              	.LCFI16:
 800              		.cfi_def_cfa_offset 16
 801              		.cfi_offset 4, -16
 802              		.cfi_offset 5, -12
 803              		.cfi_offset 6, -8
 804              		.cfi_offset 14, -4
 805 0002 84B0     		sub	sp, sp, #16
 806              	.LCFI17:
 807              		.cfi_def_cfa_offset 32
 808 0004 0446     		mov	r4, r0
 809 0006 0E46     		mov	r6, r1
 810 0008 1546     		mov	r5, r2
 545:System/FreeRTOS/CMSIS_RTOS/cmsis_os.c ****   osEvent ret;
 811              		.loc 1 545 3 is_stmt 1 view .LVU165
 546:System/FreeRTOS/CMSIS_RTOS/cmsis_os.c **** 
 547:System/FreeRTOS/CMSIS_RTOS/cmsis_os.c **** #if( configUSE_TASK_NOTIFICATIONS == 1 )
 548:System/FreeRTOS/CMSIS_RTOS/cmsis_os.c **** 	
 549:System/FreeRTOS/CMSIS_RTOS/cmsis_os.c ****   TickType_t ticks;
 812              		.loc 1 549 3 view .LVU166
 550:System/FreeRTOS/CMSIS_RTOS/cmsis_os.c **** 
 551:System/FreeRTOS/CMSIS_RTOS/cmsis_os.c ****   ret.value.signals = 0;  
 813              		.loc 1 551 3 view .LVU167
 814              		.loc 1 551 21 is_stmt 0 view .LVU168
 815 000a 0023     		movs	r3, #0
 816 000c 0293     		str	r3, [sp, #8]
 552:System/FreeRTOS/CMSIS_RTOS/cmsis_os.c ****   ticks = 0;
 817              		.loc 1 552 3 is_stmt 1 view .LVU169
 818              	.LVL55:
 553:System/FreeRTOS/CMSIS_RTOS/cmsis_os.c ****   if (millisec == osWaitForever) {
 819              		.loc 1 553 3 view .LVU170
 554:System/FreeRTOS/CMSIS_RTOS/cmsis_os.c ****     ticks = portMAX_DELAY;
 555:System/FreeRTOS/CMSIS_RTOS/cmsis_os.c ****   }
 556:System/FreeRTOS/CMSIS_RTOS/cmsis_os.c ****   else if (millisec != 0) {
 557:System/FreeRTOS/CMSIS_RTOS/cmsis_os.c ****     ticks = millisec / portTICK_PERIOD_MS;
 558:System/FreeRTOS/CMSIS_RTOS/cmsis_os.c ****     if (ticks == 0) {
 559:System/FreeRTOS/CMSIS_RTOS/cmsis_os.c ****       ticks = 1;
 560:System/FreeRTOS/CMSIS_RTOS/cmsis_os.c ****     }
 561:System/FreeRTOS/CMSIS_RTOS/cmsis_os.c ****   }  
 562:System/FreeRTOS/CMSIS_RTOS/cmsis_os.c ****   
 563:System/FreeRTOS/CMSIS_RTOS/cmsis_os.c ****   if (inHandlerMode())
 820              		.loc 1 563 3 view .LVU171
 821              		.loc 1 563 7 is_stmt 0 view .LVU172
 822 000e FFF7FEFF 		bl	inHandlerMode
 823              	.LVL56:
 824              		.loc 1 563 6 view .LVU173
 825 0012 48B1     		cbz	r0, .L52
 564:System/FreeRTOS/CMSIS_RTOS/cmsis_os.c ****   {
 565:System/FreeRTOS/CMSIS_RTOS/cmsis_os.c ****     ret.status = osErrorISR;  /*Not allowed in ISR*/
 826              		.loc 1 565 5 is_stmt 1 view .LVU174
 827              		.loc 1 565 16 is_stmt 0 view .LVU175
 828 0014 8223     		movs	r3, #130
 829 0016 0193     		str	r3, [sp, #4]
 830              	.L53:
ARM GAS  C:\Users\8bit\AppData\Local\Temp\ccOOCmGZ.s 			page 30


 566:System/FreeRTOS/CMSIS_RTOS/cmsis_os.c ****   }
 567:System/FreeRTOS/CMSIS_RTOS/cmsis_os.c ****   else
 568:System/FreeRTOS/CMSIS_RTOS/cmsis_os.c ****   {
 569:System/FreeRTOS/CMSIS_RTOS/cmsis_os.c ****     if(xTaskNotifyWait( 0,(uint32_t) signals, (uint32_t *)&ret.value.signals, ticks) != pdTRUE)
 570:System/FreeRTOS/CMSIS_RTOS/cmsis_os.c ****     {
 571:System/FreeRTOS/CMSIS_RTOS/cmsis_os.c ****       if(ticks == 0)  ret.status = osOK;
 572:System/FreeRTOS/CMSIS_RTOS/cmsis_os.c ****       else  ret.status = osEventTimeout;
 573:System/FreeRTOS/CMSIS_RTOS/cmsis_os.c ****     }
 574:System/FreeRTOS/CMSIS_RTOS/cmsis_os.c ****     else if(ret.value.signals < 0)
 575:System/FreeRTOS/CMSIS_RTOS/cmsis_os.c ****     {
 576:System/FreeRTOS/CMSIS_RTOS/cmsis_os.c ****       ret.status =  osErrorValue;     
 577:System/FreeRTOS/CMSIS_RTOS/cmsis_os.c ****     }
 578:System/FreeRTOS/CMSIS_RTOS/cmsis_os.c ****     else  ret.status =  osEventSignal;
 579:System/FreeRTOS/CMSIS_RTOS/cmsis_os.c ****   }
 580:System/FreeRTOS/CMSIS_RTOS/cmsis_os.c **** #else
 581:System/FreeRTOS/CMSIS_RTOS/cmsis_os.c ****   (void) signals;
 582:System/FreeRTOS/CMSIS_RTOS/cmsis_os.c ****   (void) millisec;
 583:System/FreeRTOS/CMSIS_RTOS/cmsis_os.c **** 	
 584:System/FreeRTOS/CMSIS_RTOS/cmsis_os.c ****   ret.status =  osErrorOS;	/* Task Notification not supported */
 585:System/FreeRTOS/CMSIS_RTOS/cmsis_os.c **** #endif
 586:System/FreeRTOS/CMSIS_RTOS/cmsis_os.c ****   
 587:System/FreeRTOS/CMSIS_RTOS/cmsis_os.c ****   return ret;
 831              		.loc 1 587 3 is_stmt 1 view .LVU176
 832              		.loc 1 587 10 is_stmt 0 view .LVU177
 833 0018 04AB     		add	r3, sp, #16
 834 001a 13E90700 		ldmdb	r3, {r0, r1, r2}
 835 001e 84E80700 		stm	r4, {r0, r1, r2}
 588:System/FreeRTOS/CMSIS_RTOS/cmsis_os.c **** }
 836              		.loc 1 588 1 view .LVU178
 837 0022 2046     		mov	r0, r4
 838 0024 04B0     		add	sp, sp, #16
 839              	.LCFI18:
 840              		.cfi_remember_state
 841              		.cfi_def_cfa_offset 16
 842              		@ sp needed
 843 0026 70BD     		pop	{r4, r5, r6, pc}
 844              	.LVL57:
 845              	.L52:
 846              	.LCFI19:
 847              		.cfi_restore_state
 569:System/FreeRTOS/CMSIS_RTOS/cmsis_os.c ****     {
 848              		.loc 1 569 5 is_stmt 1 view .LVU179
 569:System/FreeRTOS/CMSIS_RTOS/cmsis_os.c ****     {
 849              		.loc 1 569 8 is_stmt 0 view .LVU180
 850 0028 2B46     		mov	r3, r5
 851 002a 02AA     		add	r2, sp, #8
 852 002c 3146     		mov	r1, r6
 853 002e 0020     		movs	r0, #0
 854 0030 FFF7FEFF 		bl	xTaskNotifyWait
 855              	.LVL58:
 569:System/FreeRTOS/CMSIS_RTOS/cmsis_os.c ****     {
 856              		.loc 1 569 7 view .LVU181
 857 0034 0128     		cmp	r0, #1
 858 0036 06D0     		beq	.L54
 571:System/FreeRTOS/CMSIS_RTOS/cmsis_os.c ****       else  ret.status = osEventTimeout;
 859              		.loc 1 571 7 is_stmt 1 view .LVU182
 571:System/FreeRTOS/CMSIS_RTOS/cmsis_os.c ****       else  ret.status = osEventTimeout;
ARM GAS  C:\Users\8bit\AppData\Local\Temp\ccOOCmGZ.s 			page 31


 860              		.loc 1 571 9 is_stmt 0 view .LVU183
 861 0038 15B9     		cbnz	r5, .L55
 571:System/FreeRTOS/CMSIS_RTOS/cmsis_os.c ****       else  ret.status = osEventTimeout;
 862              		.loc 1 571 23 is_stmt 1 discriminator 1 view .LVU184
 571:System/FreeRTOS/CMSIS_RTOS/cmsis_os.c ****       else  ret.status = osEventTimeout;
 863              		.loc 1 571 34 is_stmt 0 discriminator 1 view .LVU185
 864 003a 0023     		movs	r3, #0
 865 003c 0193     		str	r3, [sp, #4]
 866 003e EBE7     		b	.L53
 867              	.L55:
 572:System/FreeRTOS/CMSIS_RTOS/cmsis_os.c ****     }
 868              		.loc 1 572 13 is_stmt 1 view .LVU186
 572:System/FreeRTOS/CMSIS_RTOS/cmsis_os.c ****     }
 869              		.loc 1 572 24 is_stmt 0 view .LVU187
 870 0040 4023     		movs	r3, #64
 871 0042 0193     		str	r3, [sp, #4]
 872 0044 E8E7     		b	.L53
 873              	.L54:
 574:System/FreeRTOS/CMSIS_RTOS/cmsis_os.c ****     {
 874              		.loc 1 574 10 is_stmt 1 view .LVU188
 574:System/FreeRTOS/CMSIS_RTOS/cmsis_os.c ****     {
 875              		.loc 1 574 22 is_stmt 0 view .LVU189
 876 0046 029B     		ldr	r3, [sp, #8]
 574:System/FreeRTOS/CMSIS_RTOS/cmsis_os.c ****     {
 877              		.loc 1 574 12 view .LVU190
 878 0048 002B     		cmp	r3, #0
 879 004a 02DB     		blt	.L58
 578:System/FreeRTOS/CMSIS_RTOS/cmsis_os.c ****   }
 880              		.loc 1 578 11 is_stmt 1 view .LVU191
 578:System/FreeRTOS/CMSIS_RTOS/cmsis_os.c ****   }
 881              		.loc 1 578 22 is_stmt 0 view .LVU192
 882 004c 0823     		movs	r3, #8
 883 004e 0193     		str	r3, [sp, #4]
 884 0050 E2E7     		b	.L53
 885              	.L58:
 576:System/FreeRTOS/CMSIS_RTOS/cmsis_os.c ****     }
 886              		.loc 1 576 7 is_stmt 1 view .LVU193
 576:System/FreeRTOS/CMSIS_RTOS/cmsis_os.c ****     }
 887              		.loc 1 576 18 is_stmt 0 view .LVU194
 888 0052 8623     		movs	r3, #134
 889 0054 0193     		str	r3, [sp, #4]
 890 0056 DFE7     		b	.L53
 891              		.cfi_endproc
 892              	.LFE128:
 894              		.section	.text.osMutexCreate,"ax",%progbits
 895              		.align	1
 896              		.global	osMutexCreate
 897              		.syntax unified
 898              		.thumb
 899              		.thumb_func
 901              	osMutexCreate:
 902              	.LVL59:
 903              	.LFB129:
 589:System/FreeRTOS/CMSIS_RTOS/cmsis_os.c **** 
 590:System/FreeRTOS/CMSIS_RTOS/cmsis_os.c **** /****************************  Mutex Management ********************************/
 591:System/FreeRTOS/CMSIS_RTOS/cmsis_os.c **** /**
 592:System/FreeRTOS/CMSIS_RTOS/cmsis_os.c **** * @brief  Create and Initialize a Mutex object
ARM GAS  C:\Users\8bit\AppData\Local\Temp\ccOOCmGZ.s 			page 32


 593:System/FreeRTOS/CMSIS_RTOS/cmsis_os.c **** * @param  mutex_def     mutex definition referenced with \ref osMutex.
 594:System/FreeRTOS/CMSIS_RTOS/cmsis_os.c **** * @retval  mutex ID for reference by other functions or NULL in case of error.
 595:System/FreeRTOS/CMSIS_RTOS/cmsis_os.c **** * @note   MUST REMAIN UNCHANGED: \b osMutexCreate shall be consistent in every CMSIS-RTOS.
 596:System/FreeRTOS/CMSIS_RTOS/cmsis_os.c **** */
 597:System/FreeRTOS/CMSIS_RTOS/cmsis_os.c **** osMutexId osMutexCreate (const osMutexDef_t *mutex_def)
 598:System/FreeRTOS/CMSIS_RTOS/cmsis_os.c **** {
 904              		.loc 1 598 1 is_stmt 1 view -0
 905              		.cfi_startproc
 906              		@ args = 0, pretend = 0, frame = 0
 907              		@ frame_needed = 0, uses_anonymous_args = 0
 908              		.loc 1 598 1 is_stmt 0 view .LVU196
 909 0000 08B5     		push	{r3, lr}
 910              	.LCFI20:
 911              		.cfi_def_cfa_offset 8
 912              		.cfi_offset 3, -8
 913              		.cfi_offset 14, -4
 599:System/FreeRTOS/CMSIS_RTOS/cmsis_os.c **** #if ( configUSE_MUTEXES == 1)
 600:System/FreeRTOS/CMSIS_RTOS/cmsis_os.c **** 
 601:System/FreeRTOS/CMSIS_RTOS/cmsis_os.c **** #if( configSUPPORT_STATIC_ALLOCATION == 1 ) && ( configSUPPORT_DYNAMIC_ALLOCATION == 1 )
 602:System/FreeRTOS/CMSIS_RTOS/cmsis_os.c **** 
 603:System/FreeRTOS/CMSIS_RTOS/cmsis_os.c ****   if (mutex_def->controlblock != NULL) {
 914              		.loc 1 603 3 is_stmt 1 view .LVU197
 915              		.loc 1 603 16 is_stmt 0 view .LVU198
 916 0002 4168     		ldr	r1, [r0, #4]
 917              		.loc 1 603 6 view .LVU199
 918 0004 19B1     		cbz	r1, .L60
 604:System/FreeRTOS/CMSIS_RTOS/cmsis_os.c ****     return xSemaphoreCreateMutexStatic( mutex_def->controlblock );
 919              		.loc 1 604 5 is_stmt 1 view .LVU200
 920              		.loc 1 604 12 is_stmt 0 view .LVU201
 921 0006 0120     		movs	r0, #1
 922              	.LVL60:
 923              		.loc 1 604 12 view .LVU202
 924 0008 FFF7FEFF 		bl	xQueueCreateMutexStatic
 925              	.LVL61:
 926              	.L59:
 605:System/FreeRTOS/CMSIS_RTOS/cmsis_os.c ****      }
 606:System/FreeRTOS/CMSIS_RTOS/cmsis_os.c ****   else {
 607:System/FreeRTOS/CMSIS_RTOS/cmsis_os.c ****     return xSemaphoreCreateMutex(); 
 608:System/FreeRTOS/CMSIS_RTOS/cmsis_os.c ****   }
 609:System/FreeRTOS/CMSIS_RTOS/cmsis_os.c **** #elif ( configSUPPORT_STATIC_ALLOCATION == 1 )
 610:System/FreeRTOS/CMSIS_RTOS/cmsis_os.c ****   return xSemaphoreCreateMutexStatic( mutex_def->controlblock );
 611:System/FreeRTOS/CMSIS_RTOS/cmsis_os.c **** #else  
 612:System/FreeRTOS/CMSIS_RTOS/cmsis_os.c ****     return xSemaphoreCreateMutex(); 
 613:System/FreeRTOS/CMSIS_RTOS/cmsis_os.c **** #endif
 614:System/FreeRTOS/CMSIS_RTOS/cmsis_os.c **** #else
 615:System/FreeRTOS/CMSIS_RTOS/cmsis_os.c ****   return NULL;
 616:System/FreeRTOS/CMSIS_RTOS/cmsis_os.c **** #endif
 617:System/FreeRTOS/CMSIS_RTOS/cmsis_os.c **** }
 927              		.loc 1 617 1 view .LVU203
 928 000c 08BD     		pop	{r3, pc}
 929              	.LVL62:
 930              	.L60:
 607:System/FreeRTOS/CMSIS_RTOS/cmsis_os.c ****   }
 931              		.loc 1 607 5 is_stmt 1 view .LVU204
 607:System/FreeRTOS/CMSIS_RTOS/cmsis_os.c ****   }
 932              		.loc 1 607 12 is_stmt 0 view .LVU205
 933 000e 0120     		movs	r0, #1
ARM GAS  C:\Users\8bit\AppData\Local\Temp\ccOOCmGZ.s 			page 33


 934              	.LVL63:
 607:System/FreeRTOS/CMSIS_RTOS/cmsis_os.c ****   }
 935              		.loc 1 607 12 view .LVU206
 936 0010 FFF7FEFF 		bl	xQueueCreateMutex
 937              	.LVL64:
 938 0014 FAE7     		b	.L59
 939              		.cfi_endproc
 940              	.LFE129:
 942              		.section	.text.osMutexWait,"ax",%progbits
 943              		.align	1
 944              		.global	osMutexWait
 945              		.syntax unified
 946              		.thumb
 947              		.thumb_func
 949              	osMutexWait:
 950              	.LVL65:
 951              	.LFB130:
 618:System/FreeRTOS/CMSIS_RTOS/cmsis_os.c **** 
 619:System/FreeRTOS/CMSIS_RTOS/cmsis_os.c **** /**
 620:System/FreeRTOS/CMSIS_RTOS/cmsis_os.c **** * @brief Wait until a Mutex becomes available
 621:System/FreeRTOS/CMSIS_RTOS/cmsis_os.c **** * @param mutex_id      mutex ID obtained by \ref osMutexCreate.
 622:System/FreeRTOS/CMSIS_RTOS/cmsis_os.c **** * @param millisec      timeout value or 0 in case of no time-out.
 623:System/FreeRTOS/CMSIS_RTOS/cmsis_os.c **** * @retval  status code that indicates the execution status of the function.
 624:System/FreeRTOS/CMSIS_RTOS/cmsis_os.c **** * @note   MUST REMAIN UNCHANGED: \b osMutexWait shall be consistent in every CMSIS-RTOS.
 625:System/FreeRTOS/CMSIS_RTOS/cmsis_os.c **** */
 626:System/FreeRTOS/CMSIS_RTOS/cmsis_os.c **** osStatus osMutexWait (osMutexId mutex_id, uint32_t millisec)
 627:System/FreeRTOS/CMSIS_RTOS/cmsis_os.c **** {
 952              		.loc 1 627 1 is_stmt 1 view -0
 953              		.cfi_startproc
 954              		@ args = 0, pretend = 0, frame = 8
 955              		@ frame_needed = 0, uses_anonymous_args = 0
 956              		.loc 1 627 1 is_stmt 0 view .LVU208
 957 0000 30B5     		push	{r4, r5, lr}
 958              	.LCFI21:
 959              		.cfi_def_cfa_offset 12
 960              		.cfi_offset 4, -12
 961              		.cfi_offset 5, -8
 962              		.cfi_offset 14, -4
 963 0002 83B0     		sub	sp, sp, #12
 964              	.LCFI22:
 965              		.cfi_def_cfa_offset 24
 628:System/FreeRTOS/CMSIS_RTOS/cmsis_os.c ****   TickType_t ticks;
 966              		.loc 1 628 3 is_stmt 1 view .LVU209
 629:System/FreeRTOS/CMSIS_RTOS/cmsis_os.c ****   portBASE_TYPE taskWoken = pdFALSE;  
 967              		.loc 1 629 3 view .LVU210
 968              		.loc 1 629 17 is_stmt 0 view .LVU211
 969 0004 0023     		movs	r3, #0
 970 0006 0193     		str	r3, [sp, #4]
 630:System/FreeRTOS/CMSIS_RTOS/cmsis_os.c ****   
 631:System/FreeRTOS/CMSIS_RTOS/cmsis_os.c ****   
 632:System/FreeRTOS/CMSIS_RTOS/cmsis_os.c ****   if (mutex_id == NULL) {
 971              		.loc 1 632 3 is_stmt 1 view .LVU212
 972              		.loc 1 632 6 is_stmt 0 view .LVU213
 973 0008 10B3     		cbz	r0, .L66
 974 000a 0C46     		mov	r4, r1
 975 000c 0546     		mov	r5, r0
 633:System/FreeRTOS/CMSIS_RTOS/cmsis_os.c ****     return osErrorParameter;
ARM GAS  C:\Users\8bit\AppData\Local\Temp\ccOOCmGZ.s 			page 34


 634:System/FreeRTOS/CMSIS_RTOS/cmsis_os.c ****   }
 635:System/FreeRTOS/CMSIS_RTOS/cmsis_os.c ****   
 636:System/FreeRTOS/CMSIS_RTOS/cmsis_os.c ****   ticks = 0;
 976              		.loc 1 636 3 is_stmt 1 view .LVU214
 977              	.LVL66:
 637:System/FreeRTOS/CMSIS_RTOS/cmsis_os.c ****   if (millisec == osWaitForever) {
 978              		.loc 1 637 3 view .LVU215
 638:System/FreeRTOS/CMSIS_RTOS/cmsis_os.c ****     ticks = portMAX_DELAY;
 639:System/FreeRTOS/CMSIS_RTOS/cmsis_os.c ****   }
 640:System/FreeRTOS/CMSIS_RTOS/cmsis_os.c ****   else if (millisec != 0) {
 641:System/FreeRTOS/CMSIS_RTOS/cmsis_os.c ****     ticks = millisec / portTICK_PERIOD_MS;
 642:System/FreeRTOS/CMSIS_RTOS/cmsis_os.c ****     if (ticks == 0) {
 643:System/FreeRTOS/CMSIS_RTOS/cmsis_os.c ****       ticks = 1;
 644:System/FreeRTOS/CMSIS_RTOS/cmsis_os.c ****     }
 645:System/FreeRTOS/CMSIS_RTOS/cmsis_os.c ****   }
 646:System/FreeRTOS/CMSIS_RTOS/cmsis_os.c ****   
 647:System/FreeRTOS/CMSIS_RTOS/cmsis_os.c ****   if (inHandlerMode()) {
 979              		.loc 1 647 3 view .LVU216
 980              		.loc 1 647 7 is_stmt 0 view .LVU217
 981 000e FFF7FEFF 		bl	inHandlerMode
 982              	.LVL67:
 983              		.loc 1 647 6 view .LVU218
 984 0012 A0B1     		cbz	r0, .L65
 648:System/FreeRTOS/CMSIS_RTOS/cmsis_os.c ****     if (xSemaphoreTakeFromISR(mutex_id, &taskWoken) != pdTRUE) {
 985              		.loc 1 648 5 is_stmt 1 view .LVU219
 986              		.loc 1 648 9 is_stmt 0 view .LVU220
 987 0014 01AA     		add	r2, sp, #4
 988 0016 0021     		movs	r1, #0
 989 0018 2846     		mov	r0, r5
 990 001a FFF7FEFF 		bl	xQueueReceiveFromISR
 991              	.LVL68:
 992              		.loc 1 648 8 view .LVU221
 993 001e 0128     		cmp	r0, #1
 994 0020 18D1     		bne	.L67
 649:System/FreeRTOS/CMSIS_RTOS/cmsis_os.c ****       return osErrorOS;
 650:System/FreeRTOS/CMSIS_RTOS/cmsis_os.c ****     }
 651:System/FreeRTOS/CMSIS_RTOS/cmsis_os.c **** 	portEND_SWITCHING_ISR(taskWoken);
 995              		.loc 1 651 2 is_stmt 1 view .LVU222
 996 0022 019B     		ldr	r3, [sp, #4]
 997 0024 C3B1     		cbz	r3, .L68
 998              		.loc 1 651 2 discriminator 1 view .LVU223
 999 0026 4FF0E023 		mov	r3, #-536813568
 1000 002a 4FF08052 		mov	r2, #268435456
 1001 002e C3F8042D 		str	r2, [r3, #3332]
 1002              		.loc 1 651 2 discriminator 1 view .LVU224
 1003              		.syntax unified
 1004              	@ 651 "System/FreeRTOS/CMSIS_RTOS/cmsis_os.c" 1
 1005 0032 BFF34F8F 		dsb
 1006              	@ 0 "" 2
 1007              		.loc 1 651 2 discriminator 1 view .LVU225
 1008              	@ 651 "System/FreeRTOS/CMSIS_RTOS/cmsis_os.c" 1
 1009 0036 BFF36F8F 		isb
 1010              	@ 0 "" 2
 652:System/FreeRTOS/CMSIS_RTOS/cmsis_os.c ****   } 
 653:System/FreeRTOS/CMSIS_RTOS/cmsis_os.c ****   else if (xSemaphoreTake(mutex_id, ticks) != pdTRUE) {
 654:System/FreeRTOS/CMSIS_RTOS/cmsis_os.c ****     return osErrorOS;
 655:System/FreeRTOS/CMSIS_RTOS/cmsis_os.c ****   }
ARM GAS  C:\Users\8bit\AppData\Local\Temp\ccOOCmGZ.s 			page 35


 656:System/FreeRTOS/CMSIS_RTOS/cmsis_os.c ****   
 657:System/FreeRTOS/CMSIS_RTOS/cmsis_os.c ****   return osOK;
 1011              		.loc 1 657 10 is_stmt 0 discriminator 1 view .LVU226
 1012              		.thumb
 1013              		.syntax unified
 1014 003a 0020     		movs	r0, #0
 1015 003c 06E0     		b	.L63
 1016              	.L65:
 653:System/FreeRTOS/CMSIS_RTOS/cmsis_os.c ****     return osErrorOS;
 1017              		.loc 1 653 8 is_stmt 1 view .LVU227
 653:System/FreeRTOS/CMSIS_RTOS/cmsis_os.c ****     return osErrorOS;
 1018              		.loc 1 653 12 is_stmt 0 view .LVU228
 1019 003e 2146     		mov	r1, r4
 1020 0040 2846     		mov	r0, r5
 1021 0042 FFF7FEFF 		bl	xQueueSemaphoreTake
 1022              	.LVL69:
 653:System/FreeRTOS/CMSIS_RTOS/cmsis_os.c ****     return osErrorOS;
 1023              		.loc 1 653 11 view .LVU229
 1024 0046 0128     		cmp	r0, #1
 1025 0048 08D1     		bne	.L69
 1026              		.loc 1 657 10 view .LVU230
 1027 004a 0020     		movs	r0, #0
 1028              	.LVL70:
 1029              	.L63:
 658:System/FreeRTOS/CMSIS_RTOS/cmsis_os.c **** }
 1030              		.loc 1 658 1 view .LVU231
 1031 004c 03B0     		add	sp, sp, #12
 1032              	.LCFI23:
 1033              		.cfi_remember_state
 1034              		.cfi_def_cfa_offset 12
 1035              		@ sp needed
 1036 004e 30BD     		pop	{r4, r5, pc}
 1037              	.LVL71:
 1038              	.L66:
 1039              	.LCFI24:
 1040              		.cfi_restore_state
 633:System/FreeRTOS/CMSIS_RTOS/cmsis_os.c ****   }
 1041              		.loc 1 633 12 view .LVU232
 1042 0050 8020     		movs	r0, #128
 1043              	.LVL72:
 633:System/FreeRTOS/CMSIS_RTOS/cmsis_os.c ****   }
 1044              		.loc 1 633 12 view .LVU233
 1045 0052 FBE7     		b	.L63
 1046              	.LVL73:
 1047              	.L67:
 649:System/FreeRTOS/CMSIS_RTOS/cmsis_os.c ****     }
 1048              		.loc 1 649 14 view .LVU234
 1049 0054 FF20     		movs	r0, #255
 1050 0056 F9E7     		b	.L63
 1051              	.L68:
 657:System/FreeRTOS/CMSIS_RTOS/cmsis_os.c **** }
 1052              		.loc 1 657 10 view .LVU235
 1053 0058 0020     		movs	r0, #0
 1054 005a F7E7     		b	.L63
 1055              	.L69:
 654:System/FreeRTOS/CMSIS_RTOS/cmsis_os.c ****   }
 1056              		.loc 1 654 12 view .LVU236
ARM GAS  C:\Users\8bit\AppData\Local\Temp\ccOOCmGZ.s 			page 36


 1057 005c FF20     		movs	r0, #255
 1058 005e F5E7     		b	.L63
 1059              		.cfi_endproc
 1060              	.LFE130:
 1062              		.section	.text.osMutexRelease,"ax",%progbits
 1063              		.align	1
 1064              		.global	osMutexRelease
 1065              		.syntax unified
 1066              		.thumb
 1067              		.thumb_func
 1069              	osMutexRelease:
 1070              	.LVL74:
 1071              	.LFB131:
 659:System/FreeRTOS/CMSIS_RTOS/cmsis_os.c **** 
 660:System/FreeRTOS/CMSIS_RTOS/cmsis_os.c **** /**
 661:System/FreeRTOS/CMSIS_RTOS/cmsis_os.c **** * @brief Release a Mutex that was obtained by \ref osMutexWait
 662:System/FreeRTOS/CMSIS_RTOS/cmsis_os.c **** * @param mutex_id      mutex ID obtained by \ref osMutexCreate.
 663:System/FreeRTOS/CMSIS_RTOS/cmsis_os.c **** * @retval  status code that indicates the execution status of the function.
 664:System/FreeRTOS/CMSIS_RTOS/cmsis_os.c **** * @note   MUST REMAIN UNCHANGED: \b osMutexRelease shall be consistent in every CMSIS-RTOS.
 665:System/FreeRTOS/CMSIS_RTOS/cmsis_os.c **** */
 666:System/FreeRTOS/CMSIS_RTOS/cmsis_os.c **** osStatus osMutexRelease (osMutexId mutex_id)
 667:System/FreeRTOS/CMSIS_RTOS/cmsis_os.c **** {
 1072              		.loc 1 667 1 is_stmt 1 view -0
 1073              		.cfi_startproc
 1074              		@ args = 0, pretend = 0, frame = 8
 1075              		@ frame_needed = 0, uses_anonymous_args = 0
 1076              		.loc 1 667 1 is_stmt 0 view .LVU238
 1077 0000 10B5     		push	{r4, lr}
 1078              	.LCFI25:
 1079              		.cfi_def_cfa_offset 8
 1080              		.cfi_offset 4, -8
 1081              		.cfi_offset 14, -4
 1082 0002 82B0     		sub	sp, sp, #8
 1083              	.LCFI26:
 1084              		.cfi_def_cfa_offset 16
 1085 0004 0446     		mov	r4, r0
 668:System/FreeRTOS/CMSIS_RTOS/cmsis_os.c ****   osStatus result = osOK;
 1086              		.loc 1 668 3 is_stmt 1 view .LVU239
 1087              	.LVL75:
 669:System/FreeRTOS/CMSIS_RTOS/cmsis_os.c ****   portBASE_TYPE taskWoken = pdFALSE;
 1088              		.loc 1 669 3 view .LVU240
 1089              		.loc 1 669 17 is_stmt 0 view .LVU241
 1090 0006 0023     		movs	r3, #0
 1091 0008 0193     		str	r3, [sp, #4]
 670:System/FreeRTOS/CMSIS_RTOS/cmsis_os.c ****   
 671:System/FreeRTOS/CMSIS_RTOS/cmsis_os.c ****   if (inHandlerMode()) {
 1092              		.loc 1 671 3 is_stmt 1 view .LVU242
 1093              		.loc 1 671 7 is_stmt 0 view .LVU243
 1094 000a FFF7FEFF 		bl	inHandlerMode
 1095              	.LVL76:
 1096              		.loc 1 671 6 view .LVU244
 1097 000e 98B1     		cbz	r0, .L72
 672:System/FreeRTOS/CMSIS_RTOS/cmsis_os.c ****     if (xSemaphoreGiveFromISR(mutex_id, &taskWoken) != pdTRUE) {
 1098              		.loc 1 672 5 is_stmt 1 view .LVU245
 1099              		.loc 1 672 9 is_stmt 0 view .LVU246
 1100 0010 01A9     		add	r1, sp, #4
 1101 0012 2046     		mov	r0, r4
ARM GAS  C:\Users\8bit\AppData\Local\Temp\ccOOCmGZ.s 			page 37


 1102 0014 FFF7FEFF 		bl	xQueueGiveFromISR
 1103              	.LVL77:
 1104              		.loc 1 672 8 view .LVU247
 1105 0018 0128     		cmp	r0, #1
 1106 001a 1AD1     		bne	.L74
 673:System/FreeRTOS/CMSIS_RTOS/cmsis_os.c ****       return osErrorOS;
 674:System/FreeRTOS/CMSIS_RTOS/cmsis_os.c ****     }
 675:System/FreeRTOS/CMSIS_RTOS/cmsis_os.c ****     portEND_SWITCHING_ISR(taskWoken);
 1107              		.loc 1 675 5 is_stmt 1 view .LVU248
 1108 001c 019B     		ldr	r3, [sp, #4]
 1109 001e D3B1     		cbz	r3, .L75
 1110              		.loc 1 675 5 discriminator 1 view .LVU249
 1111 0020 4FF0E023 		mov	r3, #-536813568
 1112 0024 4FF08052 		mov	r2, #268435456
 1113 0028 C3F8042D 		str	r2, [r3, #3332]
 1114              		.loc 1 675 5 discriminator 1 view .LVU250
 1115              		.syntax unified
 1116              	@ 675 "System/FreeRTOS/CMSIS_RTOS/cmsis_os.c" 1
 1117 002c BFF34F8F 		dsb
 1118              	@ 0 "" 2
 1119              		.loc 1 675 5 discriminator 1 view .LVU251
 1120              	@ 675 "System/FreeRTOS/CMSIS_RTOS/cmsis_os.c" 1
 1121 0030 BFF36F8F 		isb
 1122              	@ 0 "" 2
 668:System/FreeRTOS/CMSIS_RTOS/cmsis_os.c ****   portBASE_TYPE taskWoken = pdFALSE;
 1123              		.loc 1 668 12 is_stmt 0 discriminator 1 view .LVU252
 1124              		.thumb
 1125              		.syntax unified
 1126 0034 0020     		movs	r0, #0
 1127 0036 08E0     		b	.L71
 1128              	.L72:
 676:System/FreeRTOS/CMSIS_RTOS/cmsis_os.c ****   }
 677:System/FreeRTOS/CMSIS_RTOS/cmsis_os.c ****   else if (xSemaphoreGive(mutex_id) != pdTRUE) 
 1129              		.loc 1 677 8 is_stmt 1 view .LVU253
 1130              		.loc 1 677 12 is_stmt 0 view .LVU254
 1131 0038 0023     		movs	r3, #0
 1132 003a 1A46     		mov	r2, r3
 1133 003c 1946     		mov	r1, r3
 1134 003e 2046     		mov	r0, r4
 1135 0040 FFF7FEFF 		bl	xQueueGenericSend
 1136              	.LVL78:
 1137              		.loc 1 677 11 view .LVU255
 1138 0044 0128     		cmp	r0, #1
 1139 0046 02D0     		beq	.L78
 678:System/FreeRTOS/CMSIS_RTOS/cmsis_os.c ****   {
 679:System/FreeRTOS/CMSIS_RTOS/cmsis_os.c ****     result = osErrorOS;
 1140              		.loc 1 679 12 view .LVU256
 1141 0048 FF20     		movs	r0, #255
 1142              	.LVL79:
 1143              	.L71:
 680:System/FreeRTOS/CMSIS_RTOS/cmsis_os.c ****   }
 681:System/FreeRTOS/CMSIS_RTOS/cmsis_os.c ****   return result;
 682:System/FreeRTOS/CMSIS_RTOS/cmsis_os.c **** }
 1144              		.loc 1 682 1 view .LVU257
 1145 004a 02B0     		add	sp, sp, #8
 1146              	.LCFI27:
 1147              		.cfi_remember_state
ARM GAS  C:\Users\8bit\AppData\Local\Temp\ccOOCmGZ.s 			page 38


 1148              		.cfi_def_cfa_offset 8
 1149              		@ sp needed
 1150 004c 10BD     		pop	{r4, pc}
 1151              	.LVL80:
 1152              	.L78:
 1153              	.LCFI28:
 1154              		.cfi_restore_state
 668:System/FreeRTOS/CMSIS_RTOS/cmsis_os.c ****   portBASE_TYPE taskWoken = pdFALSE;
 1155              		.loc 1 668 12 view .LVU258
 1156 004e 0020     		movs	r0, #0
 1157 0050 FBE7     		b	.L71
 1158              	.L74:
 673:System/FreeRTOS/CMSIS_RTOS/cmsis_os.c ****     }
 1159              		.loc 1 673 14 view .LVU259
 1160 0052 FF20     		movs	r0, #255
 1161 0054 F9E7     		b	.L71
 1162              	.L75:
 668:System/FreeRTOS/CMSIS_RTOS/cmsis_os.c ****   portBASE_TYPE taskWoken = pdFALSE;
 1163              		.loc 1 668 12 view .LVU260
 1164 0056 0020     		movs	r0, #0
 1165 0058 F7E7     		b	.L71
 1166              		.cfi_endproc
 1167              	.LFE131:
 1169              		.section	.text.osMutexDelete,"ax",%progbits
 1170              		.align	1
 1171              		.global	osMutexDelete
 1172              		.syntax unified
 1173              		.thumb
 1174              		.thumb_func
 1176              	osMutexDelete:
 1177              	.LVL81:
 1178              	.LFB132:
 683:System/FreeRTOS/CMSIS_RTOS/cmsis_os.c **** 
 684:System/FreeRTOS/CMSIS_RTOS/cmsis_os.c **** /**
 685:System/FreeRTOS/CMSIS_RTOS/cmsis_os.c **** * @brief Delete a Mutex
 686:System/FreeRTOS/CMSIS_RTOS/cmsis_os.c **** * @param mutex_id  mutex ID obtained by \ref osMutexCreate.
 687:System/FreeRTOS/CMSIS_RTOS/cmsis_os.c **** * @retval  status code that indicates the execution status of the function.
 688:System/FreeRTOS/CMSIS_RTOS/cmsis_os.c **** * @note   MUST REMAIN UNCHANGED: \b osMutexDelete shall be consistent in every CMSIS-RTOS.
 689:System/FreeRTOS/CMSIS_RTOS/cmsis_os.c **** */
 690:System/FreeRTOS/CMSIS_RTOS/cmsis_os.c **** osStatus osMutexDelete (osMutexId mutex_id)
 691:System/FreeRTOS/CMSIS_RTOS/cmsis_os.c **** {
 1179              		.loc 1 691 1 is_stmt 1 view -0
 1180              		.cfi_startproc
 1181              		@ args = 0, pretend = 0, frame = 0
 1182              		@ frame_needed = 0, uses_anonymous_args = 0
 1183              		.loc 1 691 1 is_stmt 0 view .LVU262
 1184 0000 10B5     		push	{r4, lr}
 1185              	.LCFI29:
 1186              		.cfi_def_cfa_offset 8
 1187              		.cfi_offset 4, -8
 1188              		.cfi_offset 14, -4
 1189 0002 0446     		mov	r4, r0
 692:System/FreeRTOS/CMSIS_RTOS/cmsis_os.c ****   if (inHandlerMode()) {
 1190              		.loc 1 692 3 is_stmt 1 view .LVU263
 1191              		.loc 1 692 7 is_stmt 0 view .LVU264
 1192 0004 FFF7FEFF 		bl	inHandlerMode
 1193              	.LVL82:
ARM GAS  C:\Users\8bit\AppData\Local\Temp\ccOOCmGZ.s 			page 39


 1194              		.loc 1 692 6 view .LVU265
 1195 0008 20B9     		cbnz	r0, .L81
 693:System/FreeRTOS/CMSIS_RTOS/cmsis_os.c ****     return osErrorISR;
 694:System/FreeRTOS/CMSIS_RTOS/cmsis_os.c ****   }
 695:System/FreeRTOS/CMSIS_RTOS/cmsis_os.c **** 
 696:System/FreeRTOS/CMSIS_RTOS/cmsis_os.c ****   vQueueDelete(mutex_id);
 1196              		.loc 1 696 3 is_stmt 1 view .LVU266
 1197 000a 2046     		mov	r0, r4
 1198 000c FFF7FEFF 		bl	vQueueDelete
 1199              	.LVL83:
 697:System/FreeRTOS/CMSIS_RTOS/cmsis_os.c **** 
 698:System/FreeRTOS/CMSIS_RTOS/cmsis_os.c ****   return osOK;
 1200              		.loc 1 698 3 view .LVU267
 1201              		.loc 1 698 10 is_stmt 0 view .LVU268
 1202 0010 0020     		movs	r0, #0
 1203              	.L79:
 699:System/FreeRTOS/CMSIS_RTOS/cmsis_os.c **** }
 1204              		.loc 1 699 1 view .LVU269
 1205 0012 10BD     		pop	{r4, pc}
 1206              	.LVL84:
 1207              	.L81:
 693:System/FreeRTOS/CMSIS_RTOS/cmsis_os.c ****     return osErrorISR;
 1208              		.loc 1 693 12 view .LVU270
 1209 0014 8220     		movs	r0, #130
 1210 0016 FCE7     		b	.L79
 1211              		.cfi_endproc
 1212              	.LFE132:
 1214              		.section	.text.osSemaphoreCreate,"ax",%progbits
 1215              		.align	1
 1216              		.global	osSemaphoreCreate
 1217              		.syntax unified
 1218              		.thumb
 1219              		.thumb_func
 1221              	osSemaphoreCreate:
 1222              	.LVL85:
 1223              	.LFB133:
 700:System/FreeRTOS/CMSIS_RTOS/cmsis_os.c **** 
 701:System/FreeRTOS/CMSIS_RTOS/cmsis_os.c **** /********************  Semaphore Management Functions **************************/
 702:System/FreeRTOS/CMSIS_RTOS/cmsis_os.c **** 
 703:System/FreeRTOS/CMSIS_RTOS/cmsis_os.c **** #if (defined (osFeature_Semaphore)  &&  (osFeature_Semaphore != 0))
 704:System/FreeRTOS/CMSIS_RTOS/cmsis_os.c **** 
 705:System/FreeRTOS/CMSIS_RTOS/cmsis_os.c **** /**
 706:System/FreeRTOS/CMSIS_RTOS/cmsis_os.c **** * @brief Create and Initialize a Semaphore object used for managing resources
 707:System/FreeRTOS/CMSIS_RTOS/cmsis_os.c **** * @param semaphore_def semaphore definition referenced with \ref osSemaphore.
 708:System/FreeRTOS/CMSIS_RTOS/cmsis_os.c **** * @param count         number of available resources.
 709:System/FreeRTOS/CMSIS_RTOS/cmsis_os.c **** * @retval  semaphore ID for reference by other functions or NULL in case of error.
 710:System/FreeRTOS/CMSIS_RTOS/cmsis_os.c **** * @note   MUST REMAIN UNCHANGED: \b osSemaphoreCreate shall be consistent in every CMSIS-RTOS.
 711:System/FreeRTOS/CMSIS_RTOS/cmsis_os.c **** */
 712:System/FreeRTOS/CMSIS_RTOS/cmsis_os.c **** osSemaphoreId osSemaphoreCreate (const osSemaphoreDef_t *semaphore_def, int32_t count)
 713:System/FreeRTOS/CMSIS_RTOS/cmsis_os.c **** { 
 1224              		.loc 1 713 1 is_stmt 1 view -0
 1225              		.cfi_startproc
 1226              		@ args = 0, pretend = 0, frame = 0
 1227              		@ frame_needed = 0, uses_anonymous_args = 0
 1228              		.loc 1 713 1 is_stmt 0 view .LVU272
 1229 0000 10B5     		push	{r4, lr}
 1230              	.LCFI30:
ARM GAS  C:\Users\8bit\AppData\Local\Temp\ccOOCmGZ.s 			page 40


 1231              		.cfi_def_cfa_offset 8
 1232              		.cfi_offset 4, -8
 1233              		.cfi_offset 14, -4
 1234 0002 82B0     		sub	sp, sp, #8
 1235              	.LCFI31:
 1236              		.cfi_def_cfa_offset 16
 714:System/FreeRTOS/CMSIS_RTOS/cmsis_os.c **** #if( configSUPPORT_STATIC_ALLOCATION == 1 ) && ( configSUPPORT_DYNAMIC_ALLOCATION == 1 )
 715:System/FreeRTOS/CMSIS_RTOS/cmsis_os.c **** 
 716:System/FreeRTOS/CMSIS_RTOS/cmsis_os.c ****   osSemaphoreId sema;
 1237              		.loc 1 716 3 is_stmt 1 view .LVU273
 717:System/FreeRTOS/CMSIS_RTOS/cmsis_os.c ****   
 718:System/FreeRTOS/CMSIS_RTOS/cmsis_os.c ****   if (semaphore_def->controlblock != NULL){
 1238              		.loc 1 718 3 view .LVU274
 1239              		.loc 1 718 20 is_stmt 0 view .LVU275
 1240 0004 4268     		ldr	r2, [r0, #4]
 1241              		.loc 1 718 6 view .LVU276
 1242 0006 92B1     		cbz	r2, .L84
 719:System/FreeRTOS/CMSIS_RTOS/cmsis_os.c ****     if (count == 1) {
 1243              		.loc 1 719 5 is_stmt 1 view .LVU277
 1244              		.loc 1 719 8 is_stmt 0 view .LVU278
 1245 0008 0129     		cmp	r1, #1
 1246 000a 06D0     		beq	.L90
 720:System/FreeRTOS/CMSIS_RTOS/cmsis_os.c ****       return xSemaphoreCreateBinaryStatic( semaphore_def->controlblock );
 721:System/FreeRTOS/CMSIS_RTOS/cmsis_os.c ****     }
 722:System/FreeRTOS/CMSIS_RTOS/cmsis_os.c ****     else {
 723:System/FreeRTOS/CMSIS_RTOS/cmsis_os.c **** #if (configUSE_COUNTING_SEMAPHORES == 1 )
 724:System/FreeRTOS/CMSIS_RTOS/cmsis_os.c ****       return xSemaphoreCreateCountingStatic( count, count, semaphore_def->controlblock );
 1247              		.loc 1 724 7 is_stmt 1 view .LVU279
 1248              		.loc 1 724 14 is_stmt 0 view .LVU280
 1249 000c 0846     		mov	r0, r1
 1250              	.LVL86:
 1251              		.loc 1 724 14 view .LVU281
 1252 000e FFF7FEFF 		bl	xQueueCreateCountingSemaphoreStatic
 1253              	.LVL87:
 1254              		.loc 1 724 14 view .LVU282
 1255 0012 0446     		mov	r4, r0
 1256              	.L83:
 725:System/FreeRTOS/CMSIS_RTOS/cmsis_os.c **** #else
 726:System/FreeRTOS/CMSIS_RTOS/cmsis_os.c ****       return NULL;
 727:System/FreeRTOS/CMSIS_RTOS/cmsis_os.c **** #endif
 728:System/FreeRTOS/CMSIS_RTOS/cmsis_os.c ****     }
 729:System/FreeRTOS/CMSIS_RTOS/cmsis_os.c ****   }
 730:System/FreeRTOS/CMSIS_RTOS/cmsis_os.c ****   else {
 731:System/FreeRTOS/CMSIS_RTOS/cmsis_os.c ****     if (count == 1) {
 732:System/FreeRTOS/CMSIS_RTOS/cmsis_os.c ****       vSemaphoreCreateBinary(sema);
 733:System/FreeRTOS/CMSIS_RTOS/cmsis_os.c ****       return sema;
 734:System/FreeRTOS/CMSIS_RTOS/cmsis_os.c ****     }
 735:System/FreeRTOS/CMSIS_RTOS/cmsis_os.c ****     else {
 736:System/FreeRTOS/CMSIS_RTOS/cmsis_os.c **** #if (configUSE_COUNTING_SEMAPHORES == 1 )	
 737:System/FreeRTOS/CMSIS_RTOS/cmsis_os.c ****       return xSemaphoreCreateCounting(count, count);
 738:System/FreeRTOS/CMSIS_RTOS/cmsis_os.c **** #else
 739:System/FreeRTOS/CMSIS_RTOS/cmsis_os.c ****       return NULL;
 740:System/FreeRTOS/CMSIS_RTOS/cmsis_os.c **** #endif    
 741:System/FreeRTOS/CMSIS_RTOS/cmsis_os.c ****     }
 742:System/FreeRTOS/CMSIS_RTOS/cmsis_os.c ****   }
 743:System/FreeRTOS/CMSIS_RTOS/cmsis_os.c **** #elif ( configSUPPORT_STATIC_ALLOCATION == 1 ) // configSUPPORT_DYNAMIC_ALLOCATION == 0
 744:System/FreeRTOS/CMSIS_RTOS/cmsis_os.c ****   if(count == 1) {
ARM GAS  C:\Users\8bit\AppData\Local\Temp\ccOOCmGZ.s 			page 41


 745:System/FreeRTOS/CMSIS_RTOS/cmsis_os.c ****     return xSemaphoreCreateBinaryStatic( semaphore_def->controlblock );
 746:System/FreeRTOS/CMSIS_RTOS/cmsis_os.c ****   }
 747:System/FreeRTOS/CMSIS_RTOS/cmsis_os.c ****   else
 748:System/FreeRTOS/CMSIS_RTOS/cmsis_os.c ****   {
 749:System/FreeRTOS/CMSIS_RTOS/cmsis_os.c **** #if (configUSE_COUNTING_SEMAPHORES == 1 )
 750:System/FreeRTOS/CMSIS_RTOS/cmsis_os.c ****       return xSemaphoreCreateCountingStatic( count, count, semaphore_def->controlblock );
 751:System/FreeRTOS/CMSIS_RTOS/cmsis_os.c **** #else
 752:System/FreeRTOS/CMSIS_RTOS/cmsis_os.c ****       return NULL;
 753:System/FreeRTOS/CMSIS_RTOS/cmsis_os.c **** #endif    
 754:System/FreeRTOS/CMSIS_RTOS/cmsis_os.c ****   }
 755:System/FreeRTOS/CMSIS_RTOS/cmsis_os.c **** #else  // configSUPPORT_STATIC_ALLOCATION == 0  && configSUPPORT_DYNAMIC_ALLOCATION == 1
 756:System/FreeRTOS/CMSIS_RTOS/cmsis_os.c ****   osSemaphoreId sema;
 757:System/FreeRTOS/CMSIS_RTOS/cmsis_os.c ****  
 758:System/FreeRTOS/CMSIS_RTOS/cmsis_os.c ****   if (count == 1) {
 759:System/FreeRTOS/CMSIS_RTOS/cmsis_os.c ****     vSemaphoreCreateBinary(sema);
 760:System/FreeRTOS/CMSIS_RTOS/cmsis_os.c ****     return sema;
 761:System/FreeRTOS/CMSIS_RTOS/cmsis_os.c ****   }
 762:System/FreeRTOS/CMSIS_RTOS/cmsis_os.c ****   else {
 763:System/FreeRTOS/CMSIS_RTOS/cmsis_os.c **** #if (configUSE_COUNTING_SEMAPHORES == 1 )	
 764:System/FreeRTOS/CMSIS_RTOS/cmsis_os.c ****     return xSemaphoreCreateCounting(count, count);
 765:System/FreeRTOS/CMSIS_RTOS/cmsis_os.c **** #else
 766:System/FreeRTOS/CMSIS_RTOS/cmsis_os.c ****     return NULL;
 767:System/FreeRTOS/CMSIS_RTOS/cmsis_os.c **** #endif
 768:System/FreeRTOS/CMSIS_RTOS/cmsis_os.c ****   }
 769:System/FreeRTOS/CMSIS_RTOS/cmsis_os.c **** #endif
 770:System/FreeRTOS/CMSIS_RTOS/cmsis_os.c **** }
 1257              		.loc 1 770 1 view .LVU283
 1258 0014 2046     		mov	r0, r4
 1259 0016 02B0     		add	sp, sp, #8
 1260              	.LCFI32:
 1261              		.cfi_remember_state
 1262              		.cfi_def_cfa_offset 8
 1263              		@ sp needed
 1264 0018 10BD     		pop	{r4, pc}
 1265              	.LVL88:
 1266              	.L90:
 1267              	.LCFI33:
 1268              		.cfi_restore_state
 720:System/FreeRTOS/CMSIS_RTOS/cmsis_os.c ****       return xSemaphoreCreateBinaryStatic( semaphore_def->controlblock );
 1269              		.loc 1 720 7 is_stmt 1 view .LVU284
 720:System/FreeRTOS/CMSIS_RTOS/cmsis_os.c ****       return xSemaphoreCreateBinaryStatic( semaphore_def->controlblock );
 1270              		.loc 1 720 14 is_stmt 0 view .LVU285
 1271 001a 0323     		movs	r3, #3
 1272 001c 0093     		str	r3, [sp]
 1273 001e 1346     		mov	r3, r2
 1274 0020 0022     		movs	r2, #0
 1275 0022 1146     		mov	r1, r2
 1276              	.LVL89:
 720:System/FreeRTOS/CMSIS_RTOS/cmsis_os.c ****       return xSemaphoreCreateBinaryStatic( semaphore_def->controlblock );
 1277              		.loc 1 720 14 view .LVU286
 1278 0024 0120     		movs	r0, #1
 1279              	.LVL90:
 720:System/FreeRTOS/CMSIS_RTOS/cmsis_os.c ****       return xSemaphoreCreateBinaryStatic( semaphore_def->controlblock );
 1280              		.loc 1 720 14 view .LVU287
 1281 0026 FFF7FEFF 		bl	xQueueGenericCreateStatic
 1282              	.LVL91:
 1283 002a 0446     		mov	r4, r0
ARM GAS  C:\Users\8bit\AppData\Local\Temp\ccOOCmGZ.s 			page 42


 1284 002c F2E7     		b	.L83
 1285              	.LVL92:
 1286              	.L84:
 731:System/FreeRTOS/CMSIS_RTOS/cmsis_os.c ****       vSemaphoreCreateBinary(sema);
 1287              		.loc 1 731 5 is_stmt 1 view .LVU288
 731:System/FreeRTOS/CMSIS_RTOS/cmsis_os.c ****       vSemaphoreCreateBinary(sema);
 1288              		.loc 1 731 8 is_stmt 0 view .LVU289
 1289 002e 0129     		cmp	r1, #1
 1290 0030 04D0     		beq	.L91
 737:System/FreeRTOS/CMSIS_RTOS/cmsis_os.c **** #else
 1291              		.loc 1 737 7 is_stmt 1 view .LVU290
 737:System/FreeRTOS/CMSIS_RTOS/cmsis_os.c **** #else
 1292              		.loc 1 737 14 is_stmt 0 view .LVU291
 1293 0032 0846     		mov	r0, r1
 1294              	.LVL93:
 737:System/FreeRTOS/CMSIS_RTOS/cmsis_os.c **** #else
 1295              		.loc 1 737 14 view .LVU292
 1296 0034 FFF7FEFF 		bl	xQueueCreateCountingSemaphore
 1297              	.LVL94:
 737:System/FreeRTOS/CMSIS_RTOS/cmsis_os.c **** #else
 1298              		.loc 1 737 14 view .LVU293
 1299 0038 0446     		mov	r4, r0
 1300 003a EBE7     		b	.L83
 1301              	.LVL95:
 1302              	.L91:
 732:System/FreeRTOS/CMSIS_RTOS/cmsis_os.c ****       return sema;
 1303              		.loc 1 732 7 is_stmt 1 view .LVU294
 1304 003c 0322     		movs	r2, #3
 1305 003e 0021     		movs	r1, #0
 1306              	.LVL96:
 732:System/FreeRTOS/CMSIS_RTOS/cmsis_os.c ****       return sema;
 1307              		.loc 1 732 7 is_stmt 0 view .LVU295
 1308 0040 0120     		movs	r0, #1
 1309              	.LVL97:
 732:System/FreeRTOS/CMSIS_RTOS/cmsis_os.c ****       return sema;
 1310              		.loc 1 732 7 view .LVU296
 1311 0042 FFF7FEFF 		bl	xQueueGenericCreate
 1312              	.LVL98:
 732:System/FreeRTOS/CMSIS_RTOS/cmsis_os.c ****       return sema;
 1313              		.loc 1 732 7 is_stmt 1 view .LVU297
 1314 0046 0446     		mov	r4, r0
 1315 0048 0028     		cmp	r0, #0
 1316 004a E3D0     		beq	.L83
 732:System/FreeRTOS/CMSIS_RTOS/cmsis_os.c ****       return sema;
 1317              		.loc 1 732 7 discriminator 1 view .LVU298
 1318 004c 0023     		movs	r3, #0
 1319 004e 1A46     		mov	r2, r3
 1320 0050 1946     		mov	r1, r3
 1321 0052 FFF7FEFF 		bl	xQueueGenericSend
 1322              	.LVL99:
 732:System/FreeRTOS/CMSIS_RTOS/cmsis_os.c ****       return sema;
 1323              		.loc 1 732 35 discriminator 1 view .LVU299
 733:System/FreeRTOS/CMSIS_RTOS/cmsis_os.c ****     }
 1324              		.loc 1 733 7 discriminator 1 view .LVU300
 733:System/FreeRTOS/CMSIS_RTOS/cmsis_os.c ****     }
 1325              		.loc 1 733 14 is_stmt 0 discriminator 1 view .LVU301
 1326 0056 DDE7     		b	.L83
ARM GAS  C:\Users\8bit\AppData\Local\Temp\ccOOCmGZ.s 			page 43


 1327              		.cfi_endproc
 1328              	.LFE133:
 1330              		.section	.text.osSemaphoreWait,"ax",%progbits
 1331              		.align	1
 1332              		.global	osSemaphoreWait
 1333              		.syntax unified
 1334              		.thumb
 1335              		.thumb_func
 1337              	osSemaphoreWait:
 1338              	.LVL100:
 1339              	.LFB134:
 771:System/FreeRTOS/CMSIS_RTOS/cmsis_os.c **** 
 772:System/FreeRTOS/CMSIS_RTOS/cmsis_os.c **** /**
 773:System/FreeRTOS/CMSIS_RTOS/cmsis_os.c **** * @brief Wait until a Semaphore token becomes available
 774:System/FreeRTOS/CMSIS_RTOS/cmsis_os.c **** * @param  semaphore_id  semaphore object referenced with \ref osSemaphore.
 775:System/FreeRTOS/CMSIS_RTOS/cmsis_os.c **** * @param  millisec      timeout value or 0 in case of no time-out.
 776:System/FreeRTOS/CMSIS_RTOS/cmsis_os.c **** * @retval  number of available tokens, or -1 in case of incorrect parameters.
 777:System/FreeRTOS/CMSIS_RTOS/cmsis_os.c **** * @note   MUST REMAIN UNCHANGED: \b osSemaphoreWait shall be consistent in every CMSIS-RTOS.
 778:System/FreeRTOS/CMSIS_RTOS/cmsis_os.c **** */
 779:System/FreeRTOS/CMSIS_RTOS/cmsis_os.c **** int32_t osSemaphoreWait (osSemaphoreId semaphore_id, uint32_t millisec)
 780:System/FreeRTOS/CMSIS_RTOS/cmsis_os.c **** {
 1340              		.loc 1 780 1 is_stmt 1 view -0
 1341              		.cfi_startproc
 1342              		@ args = 0, pretend = 0, frame = 8
 1343              		@ frame_needed = 0, uses_anonymous_args = 0
 1344              		.loc 1 780 1 is_stmt 0 view .LVU303
 1345 0000 70B5     		push	{r4, r5, r6, lr}
 1346              	.LCFI34:
 1347              		.cfi_def_cfa_offset 16
 1348              		.cfi_offset 4, -16
 1349              		.cfi_offset 5, -12
 1350              		.cfi_offset 6, -8
 1351              		.cfi_offset 14, -4
 1352 0002 82B0     		sub	sp, sp, #8
 1353              	.LCFI35:
 1354              		.cfi_def_cfa_offset 24
 781:System/FreeRTOS/CMSIS_RTOS/cmsis_os.c ****   TickType_t ticks;
 1355              		.loc 1 781 3 is_stmt 1 view .LVU304
 782:System/FreeRTOS/CMSIS_RTOS/cmsis_os.c ****   portBASE_TYPE taskWoken = pdFALSE;  
 1356              		.loc 1 782 3 view .LVU305
 1357              		.loc 1 782 17 is_stmt 0 view .LVU306
 1358 0004 0023     		movs	r3, #0
 1359 0006 0193     		str	r3, [sp, #4]
 783:System/FreeRTOS/CMSIS_RTOS/cmsis_os.c ****   
 784:System/FreeRTOS/CMSIS_RTOS/cmsis_os.c ****   
 785:System/FreeRTOS/CMSIS_RTOS/cmsis_os.c ****   if (semaphore_id == NULL) {
 1360              		.loc 1 785 3 is_stmt 1 view .LVU307
 1361              		.loc 1 785 6 is_stmt 0 view .LVU308
 1362 0008 18B3     		cbz	r0, .L95
 1363 000a 0C46     		mov	r4, r1
 1364 000c 0646     		mov	r6, r0
 786:System/FreeRTOS/CMSIS_RTOS/cmsis_os.c ****     return osErrorParameter;
 787:System/FreeRTOS/CMSIS_RTOS/cmsis_os.c ****   }
 788:System/FreeRTOS/CMSIS_RTOS/cmsis_os.c ****   
 789:System/FreeRTOS/CMSIS_RTOS/cmsis_os.c ****   ticks = 0;
 1365              		.loc 1 789 3 is_stmt 1 view .LVU309
 1366              	.LVL101:
ARM GAS  C:\Users\8bit\AppData\Local\Temp\ccOOCmGZ.s 			page 44


 790:System/FreeRTOS/CMSIS_RTOS/cmsis_os.c ****   if (millisec == osWaitForever) {
 1367              		.loc 1 790 3 view .LVU310
 791:System/FreeRTOS/CMSIS_RTOS/cmsis_os.c ****     ticks = portMAX_DELAY;
 792:System/FreeRTOS/CMSIS_RTOS/cmsis_os.c ****   }
 793:System/FreeRTOS/CMSIS_RTOS/cmsis_os.c ****   else if (millisec != 0) {
 794:System/FreeRTOS/CMSIS_RTOS/cmsis_os.c ****     ticks = millisec / portTICK_PERIOD_MS;
 795:System/FreeRTOS/CMSIS_RTOS/cmsis_os.c ****     if (ticks == 0) {
 796:System/FreeRTOS/CMSIS_RTOS/cmsis_os.c ****       ticks = 1;
 797:System/FreeRTOS/CMSIS_RTOS/cmsis_os.c ****     }
 798:System/FreeRTOS/CMSIS_RTOS/cmsis_os.c ****   }
 799:System/FreeRTOS/CMSIS_RTOS/cmsis_os.c ****   
 800:System/FreeRTOS/CMSIS_RTOS/cmsis_os.c ****   if (inHandlerMode()) {
 1368              		.loc 1 800 3 view .LVU311
 1369              		.loc 1 800 7 is_stmt 0 view .LVU312
 1370 000e FFF7FEFF 		bl	inHandlerMode
 1371              	.LVL102:
 1372              		.loc 1 800 6 view .LVU313
 1373 0012 0546     		mov	r5, r0
 1374 0014 A0B1     		cbz	r0, .L94
 801:System/FreeRTOS/CMSIS_RTOS/cmsis_os.c ****     if (xSemaphoreTakeFromISR(semaphore_id, &taskWoken) != pdTRUE) {
 1375              		.loc 1 801 5 is_stmt 1 view .LVU314
 1376              		.loc 1 801 9 is_stmt 0 view .LVU315
 1377 0016 01AA     		add	r2, sp, #4
 1378 0018 0021     		movs	r1, #0
 1379 001a 3046     		mov	r0, r6
 1380 001c FFF7FEFF 		bl	xQueueReceiveFromISR
 1381              	.LVL103:
 1382              		.loc 1 801 8 view .LVU316
 1383 0020 0128     		cmp	r0, #1
 1384 0022 18D1     		bne	.L96
 802:System/FreeRTOS/CMSIS_RTOS/cmsis_os.c ****       return osErrorOS;
 803:System/FreeRTOS/CMSIS_RTOS/cmsis_os.c ****     }
 804:System/FreeRTOS/CMSIS_RTOS/cmsis_os.c **** 	portEND_SWITCHING_ISR(taskWoken);
 1385              		.loc 1 804 2 is_stmt 1 view .LVU317
 1386 0024 019D     		ldr	r5, [sp, #4]
 1387 0026 8DB1     		cbz	r5, .L92
 1388              		.loc 1 804 2 discriminator 1 view .LVU318
 1389 0028 4FF0E023 		mov	r3, #-536813568
 1390 002c 4FF08052 		mov	r2, #268435456
 1391 0030 C3F8042D 		str	r2, [r3, #3332]
 1392              		.loc 1 804 2 discriminator 1 view .LVU319
 1393              		.syntax unified
 1394              	@ 804 "System/FreeRTOS/CMSIS_RTOS/cmsis_os.c" 1
 1395 0034 BFF34F8F 		dsb
 1396              	@ 0 "" 2
 1397              		.loc 1 804 2 discriminator 1 view .LVU320
 1398              	@ 804 "System/FreeRTOS/CMSIS_RTOS/cmsis_os.c" 1
 1399 0038 BFF36F8F 		isb
 1400              	@ 0 "" 2
 805:System/FreeRTOS/CMSIS_RTOS/cmsis_os.c ****   }  
 806:System/FreeRTOS/CMSIS_RTOS/cmsis_os.c ****   else if (xSemaphoreTake(semaphore_id, ticks) != pdTRUE) {
 807:System/FreeRTOS/CMSIS_RTOS/cmsis_os.c ****     return osErrorOS;
 808:System/FreeRTOS/CMSIS_RTOS/cmsis_os.c ****   }
 809:System/FreeRTOS/CMSIS_RTOS/cmsis_os.c ****   
 810:System/FreeRTOS/CMSIS_RTOS/cmsis_os.c ****   return osOK;
 1401              		.loc 1 810 10 is_stmt 0 discriminator 1 view .LVU321
 1402              		.thumb
ARM GAS  C:\Users\8bit\AppData\Local\Temp\ccOOCmGZ.s 			page 45


 1403              		.syntax unified
 1404 003c 0025     		movs	r5, #0
 1405 003e 05E0     		b	.L92
 1406              	.L94:
 806:System/FreeRTOS/CMSIS_RTOS/cmsis_os.c ****     return osErrorOS;
 1407              		.loc 1 806 8 is_stmt 1 view .LVU322
 806:System/FreeRTOS/CMSIS_RTOS/cmsis_os.c ****     return osErrorOS;
 1408              		.loc 1 806 12 is_stmt 0 view .LVU323
 1409 0040 2146     		mov	r1, r4
 1410 0042 3046     		mov	r0, r6
 1411 0044 FFF7FEFF 		bl	xQueueSemaphoreTake
 1412              	.LVL104:
 806:System/FreeRTOS/CMSIS_RTOS/cmsis_os.c ****     return osErrorOS;
 1413              		.loc 1 806 11 view .LVU324
 1414 0048 0128     		cmp	r0, #1
 1415 004a 06D1     		bne	.L99
 1416              	.LVL105:
 1417              	.L92:
 811:System/FreeRTOS/CMSIS_RTOS/cmsis_os.c **** }
 1418              		.loc 1 811 1 view .LVU325
 1419 004c 2846     		mov	r0, r5
 1420 004e 02B0     		add	sp, sp, #8
 1421              	.LCFI36:
 1422              		.cfi_remember_state
 1423              		.cfi_def_cfa_offset 16
 1424              		@ sp needed
 1425 0050 70BD     		pop	{r4, r5, r6, pc}
 1426              	.LVL106:
 1427              	.L95:
 1428              	.LCFI37:
 1429              		.cfi_restore_state
 786:System/FreeRTOS/CMSIS_RTOS/cmsis_os.c ****   }
 1430              		.loc 1 786 12 view .LVU326
 1431 0052 8025     		movs	r5, #128
 1432 0054 FAE7     		b	.L92
 1433              	.LVL107:
 1434              	.L96:
 802:System/FreeRTOS/CMSIS_RTOS/cmsis_os.c ****     }
 1435              		.loc 1 802 14 view .LVU327
 1436 0056 FF25     		movs	r5, #255
 1437 0058 F8E7     		b	.L92
 1438              	.L99:
 807:System/FreeRTOS/CMSIS_RTOS/cmsis_os.c ****   }
 1439              		.loc 1 807 12 view .LVU328
 1440 005a FF25     		movs	r5, #255
 1441 005c F6E7     		b	.L92
 1442              		.cfi_endproc
 1443              	.LFE134:
 1445              		.section	.text.osSemaphoreRelease,"ax",%progbits
 1446              		.align	1
 1447              		.global	osSemaphoreRelease
 1448              		.syntax unified
 1449              		.thumb
 1450              		.thumb_func
 1452              	osSemaphoreRelease:
 1453              	.LVL108:
 1454              	.LFB135:
ARM GAS  C:\Users\8bit\AppData\Local\Temp\ccOOCmGZ.s 			page 46


 812:System/FreeRTOS/CMSIS_RTOS/cmsis_os.c **** 
 813:System/FreeRTOS/CMSIS_RTOS/cmsis_os.c **** /**
 814:System/FreeRTOS/CMSIS_RTOS/cmsis_os.c **** * @brief Release a Semaphore token
 815:System/FreeRTOS/CMSIS_RTOS/cmsis_os.c **** * @param  semaphore_id  semaphore object referenced with \ref osSemaphore.
 816:System/FreeRTOS/CMSIS_RTOS/cmsis_os.c **** * @retval  status code that indicates the execution status of the function.
 817:System/FreeRTOS/CMSIS_RTOS/cmsis_os.c **** * @note   MUST REMAIN UNCHANGED: \b osSemaphoreRelease shall be consistent in every CMSIS-RTOS.
 818:System/FreeRTOS/CMSIS_RTOS/cmsis_os.c **** */
 819:System/FreeRTOS/CMSIS_RTOS/cmsis_os.c **** osStatus osSemaphoreRelease (osSemaphoreId semaphore_id)
 820:System/FreeRTOS/CMSIS_RTOS/cmsis_os.c **** {
 1455              		.loc 1 820 1 is_stmt 1 view -0
 1456              		.cfi_startproc
 1457              		@ args = 0, pretend = 0, frame = 8
 1458              		@ frame_needed = 0, uses_anonymous_args = 0
 1459              		.loc 1 820 1 is_stmt 0 view .LVU330
 1460 0000 10B5     		push	{r4, lr}
 1461              	.LCFI38:
 1462              		.cfi_def_cfa_offset 8
 1463              		.cfi_offset 4, -8
 1464              		.cfi_offset 14, -4
 1465 0002 82B0     		sub	sp, sp, #8
 1466              	.LCFI39:
 1467              		.cfi_def_cfa_offset 16
 1468 0004 0446     		mov	r4, r0
 821:System/FreeRTOS/CMSIS_RTOS/cmsis_os.c ****   osStatus result = osOK;
 1469              		.loc 1 821 3 is_stmt 1 view .LVU331
 1470              	.LVL109:
 822:System/FreeRTOS/CMSIS_RTOS/cmsis_os.c ****   portBASE_TYPE taskWoken = pdFALSE;
 1471              		.loc 1 822 3 view .LVU332
 1472              		.loc 1 822 17 is_stmt 0 view .LVU333
 1473 0006 0023     		movs	r3, #0
 1474 0008 0193     		str	r3, [sp, #4]
 823:System/FreeRTOS/CMSIS_RTOS/cmsis_os.c ****   
 824:System/FreeRTOS/CMSIS_RTOS/cmsis_os.c ****   
 825:System/FreeRTOS/CMSIS_RTOS/cmsis_os.c ****   if (inHandlerMode()) {
 1475              		.loc 1 825 3 is_stmt 1 view .LVU334
 1476              		.loc 1 825 7 is_stmt 0 view .LVU335
 1477 000a FFF7FEFF 		bl	inHandlerMode
 1478              	.LVL110:
 1479              		.loc 1 825 6 view .LVU336
 1480 000e 98B1     		cbz	r0, .L101
 826:System/FreeRTOS/CMSIS_RTOS/cmsis_os.c ****     if (xSemaphoreGiveFromISR(semaphore_id, &taskWoken) != pdTRUE) {
 1481              		.loc 1 826 5 is_stmt 1 view .LVU337
 1482              		.loc 1 826 9 is_stmt 0 view .LVU338
 1483 0010 01A9     		add	r1, sp, #4
 1484 0012 2046     		mov	r0, r4
 1485 0014 FFF7FEFF 		bl	xQueueGiveFromISR
 1486              	.LVL111:
 1487              		.loc 1 826 8 view .LVU339
 1488 0018 0128     		cmp	r0, #1
 1489 001a 1AD1     		bne	.L103
 827:System/FreeRTOS/CMSIS_RTOS/cmsis_os.c ****       return osErrorOS;
 828:System/FreeRTOS/CMSIS_RTOS/cmsis_os.c ****     }
 829:System/FreeRTOS/CMSIS_RTOS/cmsis_os.c ****     portEND_SWITCHING_ISR(taskWoken);
 1490              		.loc 1 829 5 is_stmt 1 view .LVU340
 1491 001c 019B     		ldr	r3, [sp, #4]
 1492 001e D3B1     		cbz	r3, .L104
 1493              		.loc 1 829 5 discriminator 1 view .LVU341
ARM GAS  C:\Users\8bit\AppData\Local\Temp\ccOOCmGZ.s 			page 47


 1494 0020 4FF0E023 		mov	r3, #-536813568
 1495 0024 4FF08052 		mov	r2, #268435456
 1496 0028 C3F8042D 		str	r2, [r3, #3332]
 1497              		.loc 1 829 5 discriminator 1 view .LVU342
 1498              		.syntax unified
 1499              	@ 829 "System/FreeRTOS/CMSIS_RTOS/cmsis_os.c" 1
 1500 002c BFF34F8F 		dsb
 1501              	@ 0 "" 2
 1502              		.loc 1 829 5 discriminator 1 view .LVU343
 1503              	@ 829 "System/FreeRTOS/CMSIS_RTOS/cmsis_os.c" 1
 1504 0030 BFF36F8F 		isb
 1505              	@ 0 "" 2
 821:System/FreeRTOS/CMSIS_RTOS/cmsis_os.c ****   portBASE_TYPE taskWoken = pdFALSE;
 1506              		.loc 1 821 12 is_stmt 0 discriminator 1 view .LVU344
 1507              		.thumb
 1508              		.syntax unified
 1509 0034 0020     		movs	r0, #0
 1510 0036 08E0     		b	.L100
 1511              	.L101:
 830:System/FreeRTOS/CMSIS_RTOS/cmsis_os.c ****   }
 831:System/FreeRTOS/CMSIS_RTOS/cmsis_os.c ****   else {
 832:System/FreeRTOS/CMSIS_RTOS/cmsis_os.c ****     if (xSemaphoreGive(semaphore_id) != pdTRUE) {
 1512              		.loc 1 832 5 is_stmt 1 view .LVU345
 1513              		.loc 1 832 9 is_stmt 0 view .LVU346
 1514 0038 0023     		movs	r3, #0
 1515 003a 1A46     		mov	r2, r3
 1516 003c 1946     		mov	r1, r3
 1517 003e 2046     		mov	r0, r4
 1518 0040 FFF7FEFF 		bl	xQueueGenericSend
 1519              	.LVL112:
 1520              		.loc 1 832 8 view .LVU347
 1521 0044 0128     		cmp	r0, #1
 1522 0046 02D0     		beq	.L107
 833:System/FreeRTOS/CMSIS_RTOS/cmsis_os.c ****       result = osErrorOS;
 1523              		.loc 1 833 14 view .LVU348
 1524 0048 FF20     		movs	r0, #255
 1525              	.LVL113:
 1526              	.L100:
 834:System/FreeRTOS/CMSIS_RTOS/cmsis_os.c ****     }
 835:System/FreeRTOS/CMSIS_RTOS/cmsis_os.c ****   }
 836:System/FreeRTOS/CMSIS_RTOS/cmsis_os.c ****   
 837:System/FreeRTOS/CMSIS_RTOS/cmsis_os.c ****   return result;
 838:System/FreeRTOS/CMSIS_RTOS/cmsis_os.c **** }
 1527              		.loc 1 838 1 view .LVU349
 1528 004a 02B0     		add	sp, sp, #8
 1529              	.LCFI40:
 1530              		.cfi_remember_state
 1531              		.cfi_def_cfa_offset 8
 1532              		@ sp needed
 1533 004c 10BD     		pop	{r4, pc}
 1534              	.LVL114:
 1535              	.L107:
 1536              	.LCFI41:
 1537              		.cfi_restore_state
 821:System/FreeRTOS/CMSIS_RTOS/cmsis_os.c ****   portBASE_TYPE taskWoken = pdFALSE;
 1538              		.loc 1 821 12 view .LVU350
 1539 004e 0020     		movs	r0, #0
ARM GAS  C:\Users\8bit\AppData\Local\Temp\ccOOCmGZ.s 			page 48


 1540 0050 FBE7     		b	.L100
 1541              	.L103:
 827:System/FreeRTOS/CMSIS_RTOS/cmsis_os.c ****     }
 1542              		.loc 1 827 14 view .LVU351
 1543 0052 FF20     		movs	r0, #255
 1544 0054 F9E7     		b	.L100
 1545              	.L104:
 821:System/FreeRTOS/CMSIS_RTOS/cmsis_os.c ****   portBASE_TYPE taskWoken = pdFALSE;
 1546              		.loc 1 821 12 view .LVU352
 1547 0056 0020     		movs	r0, #0
 1548 0058 F7E7     		b	.L100
 1549              		.cfi_endproc
 1550              	.LFE135:
 1552              		.section	.text.osSemaphoreDelete,"ax",%progbits
 1553              		.align	1
 1554              		.global	osSemaphoreDelete
 1555              		.syntax unified
 1556              		.thumb
 1557              		.thumb_func
 1559              	osSemaphoreDelete:
 1560              	.LVL115:
 1561              	.LFB136:
 839:System/FreeRTOS/CMSIS_RTOS/cmsis_os.c **** 
 840:System/FreeRTOS/CMSIS_RTOS/cmsis_os.c **** /**
 841:System/FreeRTOS/CMSIS_RTOS/cmsis_os.c **** * @brief Delete a Semaphore
 842:System/FreeRTOS/CMSIS_RTOS/cmsis_os.c **** * @param  semaphore_id  semaphore object referenced with \ref osSemaphore.
 843:System/FreeRTOS/CMSIS_RTOS/cmsis_os.c **** * @retval  status code that indicates the execution status of the function.
 844:System/FreeRTOS/CMSIS_RTOS/cmsis_os.c **** * @note   MUST REMAIN UNCHANGED: \b osSemaphoreDelete shall be consistent in every CMSIS-RTOS.
 845:System/FreeRTOS/CMSIS_RTOS/cmsis_os.c **** */
 846:System/FreeRTOS/CMSIS_RTOS/cmsis_os.c **** osStatus osSemaphoreDelete (osSemaphoreId semaphore_id)
 847:System/FreeRTOS/CMSIS_RTOS/cmsis_os.c **** {
 1562              		.loc 1 847 1 is_stmt 1 view -0
 1563              		.cfi_startproc
 1564              		@ args = 0, pretend = 0, frame = 0
 1565              		@ frame_needed = 0, uses_anonymous_args = 0
 1566              		.loc 1 847 1 is_stmt 0 view .LVU354
 1567 0000 10B5     		push	{r4, lr}
 1568              	.LCFI42:
 1569              		.cfi_def_cfa_offset 8
 1570              		.cfi_offset 4, -8
 1571              		.cfi_offset 14, -4
 1572 0002 0446     		mov	r4, r0
 848:System/FreeRTOS/CMSIS_RTOS/cmsis_os.c ****   if (inHandlerMode()) {
 1573              		.loc 1 848 3 is_stmt 1 view .LVU355
 1574              		.loc 1 848 7 is_stmt 0 view .LVU356
 1575 0004 FFF7FEFF 		bl	inHandlerMode
 1576              	.LVL116:
 1577              		.loc 1 848 6 view .LVU357
 1578 0008 20B9     		cbnz	r0, .L110
 849:System/FreeRTOS/CMSIS_RTOS/cmsis_os.c ****     return osErrorISR;
 850:System/FreeRTOS/CMSIS_RTOS/cmsis_os.c ****   }
 851:System/FreeRTOS/CMSIS_RTOS/cmsis_os.c **** 
 852:System/FreeRTOS/CMSIS_RTOS/cmsis_os.c ****   vSemaphoreDelete(semaphore_id);
 1579              		.loc 1 852 3 is_stmt 1 view .LVU358
 1580 000a 2046     		mov	r0, r4
 1581 000c FFF7FEFF 		bl	vQueueDelete
 1582              	.LVL117:
ARM GAS  C:\Users\8bit\AppData\Local\Temp\ccOOCmGZ.s 			page 49


 853:System/FreeRTOS/CMSIS_RTOS/cmsis_os.c **** 
 854:System/FreeRTOS/CMSIS_RTOS/cmsis_os.c ****   return osOK; 
 1583              		.loc 1 854 3 view .LVU359
 1584              		.loc 1 854 10 is_stmt 0 view .LVU360
 1585 0010 0020     		movs	r0, #0
 1586              	.L108:
 855:System/FreeRTOS/CMSIS_RTOS/cmsis_os.c **** }
 1587              		.loc 1 855 1 view .LVU361
 1588 0012 10BD     		pop	{r4, pc}
 1589              	.LVL118:
 1590              	.L110:
 849:System/FreeRTOS/CMSIS_RTOS/cmsis_os.c ****     return osErrorISR;
 1591              		.loc 1 849 12 view .LVU362
 1592 0014 8220     		movs	r0, #130
 1593 0016 FCE7     		b	.L108
 1594              		.cfi_endproc
 1595              	.LFE136:
 1597              		.section	.text.osPoolCreate,"ax",%progbits
 1598              		.align	1
 1599              		.global	osPoolCreate
 1600              		.syntax unified
 1601              		.thumb
 1602              		.thumb_func
 1604              	osPoolCreate:
 1605              	.LVL119:
 1606              	.LFB137:
 856:System/FreeRTOS/CMSIS_RTOS/cmsis_os.c **** 
 857:System/FreeRTOS/CMSIS_RTOS/cmsis_os.c **** #endif    /* Use Semaphores */
 858:System/FreeRTOS/CMSIS_RTOS/cmsis_os.c **** 
 859:System/FreeRTOS/CMSIS_RTOS/cmsis_os.c **** /*******************   Memory Pool Management Functions  ***********************/
 860:System/FreeRTOS/CMSIS_RTOS/cmsis_os.c **** 
 861:System/FreeRTOS/CMSIS_RTOS/cmsis_os.c **** #if (defined (osFeature_Pool)  &&  (osFeature_Pool != 0)) 
 862:System/FreeRTOS/CMSIS_RTOS/cmsis_os.c **** 
 863:System/FreeRTOS/CMSIS_RTOS/cmsis_os.c **** //TODO
 864:System/FreeRTOS/CMSIS_RTOS/cmsis_os.c **** //This is a primitive and inefficient wrapper around the existing FreeRTOS memory management.
 865:System/FreeRTOS/CMSIS_RTOS/cmsis_os.c **** //A better implementation will have to modify heap_x.c!
 866:System/FreeRTOS/CMSIS_RTOS/cmsis_os.c **** 
 867:System/FreeRTOS/CMSIS_RTOS/cmsis_os.c **** 
 868:System/FreeRTOS/CMSIS_RTOS/cmsis_os.c **** typedef struct os_pool_cb {
 869:System/FreeRTOS/CMSIS_RTOS/cmsis_os.c ****   void *pool;
 870:System/FreeRTOS/CMSIS_RTOS/cmsis_os.c ****   uint8_t *markers;
 871:System/FreeRTOS/CMSIS_RTOS/cmsis_os.c ****   uint32_t pool_sz;
 872:System/FreeRTOS/CMSIS_RTOS/cmsis_os.c ****   uint32_t item_sz;
 873:System/FreeRTOS/CMSIS_RTOS/cmsis_os.c ****   uint32_t currentIndex;
 874:System/FreeRTOS/CMSIS_RTOS/cmsis_os.c **** } os_pool_cb_t;
 875:System/FreeRTOS/CMSIS_RTOS/cmsis_os.c **** 
 876:System/FreeRTOS/CMSIS_RTOS/cmsis_os.c **** 
 877:System/FreeRTOS/CMSIS_RTOS/cmsis_os.c **** /**
 878:System/FreeRTOS/CMSIS_RTOS/cmsis_os.c **** * @brief Create and Initialize a memory pool
 879:System/FreeRTOS/CMSIS_RTOS/cmsis_os.c **** * @param  pool_def      memory pool definition referenced with \ref osPool.
 880:System/FreeRTOS/CMSIS_RTOS/cmsis_os.c **** * @retval  memory pool ID for reference by other functions or NULL in case of error.
 881:System/FreeRTOS/CMSIS_RTOS/cmsis_os.c **** * @note   MUST REMAIN UNCHANGED: \b osPoolCreate shall be consistent in every CMSIS-RTOS.
 882:System/FreeRTOS/CMSIS_RTOS/cmsis_os.c **** */
 883:System/FreeRTOS/CMSIS_RTOS/cmsis_os.c **** osPoolId osPoolCreate (const osPoolDef_t *pool_def)
 884:System/FreeRTOS/CMSIS_RTOS/cmsis_os.c **** {
 1607              		.loc 1 884 1 is_stmt 1 view -0
 1608              		.cfi_startproc
ARM GAS  C:\Users\8bit\AppData\Local\Temp\ccOOCmGZ.s 			page 50


 1609              		@ args = 0, pretend = 0, frame = 0
 1610              		@ frame_needed = 0, uses_anonymous_args = 0
 1611              		.loc 1 884 1 is_stmt 0 view .LVU364
 1612 0000 F8B5     		push	{r3, r4, r5, r6, r7, lr}
 1613              	.LCFI43:
 1614              		.cfi_def_cfa_offset 24
 1615              		.cfi_offset 3, -24
 1616              		.cfi_offset 4, -20
 1617              		.cfi_offset 5, -16
 1618              		.cfi_offset 6, -12
 1619              		.cfi_offset 7, -8
 1620              		.cfi_offset 14, -4
 1621 0002 0446     		mov	r4, r0
 885:System/FreeRTOS/CMSIS_RTOS/cmsis_os.c **** #if (configSUPPORT_DYNAMIC_ALLOCATION == 1)
 886:System/FreeRTOS/CMSIS_RTOS/cmsis_os.c ****   osPoolId thePool;
 1622              		.loc 1 886 3 is_stmt 1 view .LVU365
 887:System/FreeRTOS/CMSIS_RTOS/cmsis_os.c ****   int itemSize = 4 * ((pool_def->item_sz + 3) / 4);
 1623              		.loc 1 887 3 view .LVU366
 1624              		.loc 1 887 32 is_stmt 0 view .LVU367
 1625 0004 4368     		ldr	r3, [r0, #4]
 1626              		.loc 1 887 42 view .LVU368
 1627 0006 0333     		adds	r3, r3, #3
 1628              		.loc 1 887 7 view .LVU369
 1629 0008 23F00306 		bic	r6, r3, #3
 1630              	.LVL120:
 888:System/FreeRTOS/CMSIS_RTOS/cmsis_os.c ****   uint32_t i;
 1631              		.loc 1 888 3 is_stmt 1 view .LVU370
 889:System/FreeRTOS/CMSIS_RTOS/cmsis_os.c ****   
 890:System/FreeRTOS/CMSIS_RTOS/cmsis_os.c ****   /* First have to allocate memory for the pool control block. */
 891:System/FreeRTOS/CMSIS_RTOS/cmsis_os.c ****  thePool = pvPortMalloc(sizeof(os_pool_cb_t));
 1632              		.loc 1 891 2 view .LVU371
 1633              		.loc 1 891 12 is_stmt 0 view .LVU372
 1634 000c 1420     		movs	r0, #20
 1635              	.LVL121:
 1636              		.loc 1 891 12 view .LVU373
 1637 000e FFF7FEFF 		bl	pvPortMalloc
 1638              	.LVL122:
 892:System/FreeRTOS/CMSIS_RTOS/cmsis_os.c **** 
 893:System/FreeRTOS/CMSIS_RTOS/cmsis_os.c ****   
 894:System/FreeRTOS/CMSIS_RTOS/cmsis_os.c ****   if (thePool) {
 1639              		.loc 1 894 3 is_stmt 1 view .LVU374
 1640              		.loc 1 894 6 is_stmt 0 view .LVU375
 1641 0012 0546     		mov	r5, r0
 1642 0014 D8B1     		cbz	r0, .L112
 895:System/FreeRTOS/CMSIS_RTOS/cmsis_os.c ****     thePool->pool_sz = pool_def->pool_sz;
 1643              		.loc 1 895 5 is_stmt 1 view .LVU376
 1644              		.loc 1 895 32 is_stmt 0 view .LVU377
 1645 0016 2368     		ldr	r3, [r4]
 1646              		.loc 1 895 22 view .LVU378
 1647 0018 8360     		str	r3, [r0, #8]
 896:System/FreeRTOS/CMSIS_RTOS/cmsis_os.c ****     thePool->item_sz = itemSize;
 1648              		.loc 1 896 5 is_stmt 1 view .LVU379
 1649              		.loc 1 896 22 is_stmt 0 view .LVU380
 1650 001a C660     		str	r6, [r0, #12]
 897:System/FreeRTOS/CMSIS_RTOS/cmsis_os.c ****     thePool->currentIndex = 0;
 1651              		.loc 1 897 5 is_stmt 1 view .LVU381
 1652              		.loc 1 897 27 is_stmt 0 view .LVU382
ARM GAS  C:\Users\8bit\AppData\Local\Temp\ccOOCmGZ.s 			page 51


 1653 001c 0023     		movs	r3, #0
 1654 001e 0361     		str	r3, [r0, #16]
 898:System/FreeRTOS/CMSIS_RTOS/cmsis_os.c ****     
 899:System/FreeRTOS/CMSIS_RTOS/cmsis_os.c ****     /* Memory for markers */
 900:System/FreeRTOS/CMSIS_RTOS/cmsis_os.c ****     thePool->markers = pvPortMalloc(pool_def->pool_sz);
 1655              		.loc 1 900 5 is_stmt 1 view .LVU383
 1656              		.loc 1 900 24 is_stmt 0 view .LVU384
 1657 0020 2068     		ldr	r0, [r4]
 1658              	.LVL123:
 1659              		.loc 1 900 24 view .LVU385
 1660 0022 FFF7FEFF 		bl	pvPortMalloc
 1661              	.LVL124:
 1662 0026 0746     		mov	r7, r0
 1663              		.loc 1 900 22 view .LVU386
 1664 0028 6860     		str	r0, [r5, #4]
 901:System/FreeRTOS/CMSIS_RTOS/cmsis_os.c ****    
 902:System/FreeRTOS/CMSIS_RTOS/cmsis_os.c ****     if (thePool->markers) {
 1665              		.loc 1 902 5 is_stmt 1 view .LVU387
 1666              		.loc 1 902 8 is_stmt 0 view .LVU388
 1667 002a D0B1     		cbz	r0, .L114
 903:System/FreeRTOS/CMSIS_RTOS/cmsis_os.c ****       /* Now allocate the pool itself. */
 904:System/FreeRTOS/CMSIS_RTOS/cmsis_os.c ****      thePool->pool = pvPortMalloc(pool_def->pool_sz * itemSize);
 1668              		.loc 1 904 6 is_stmt 1 view .LVU389
 1669              		.loc 1 904 43 is_stmt 0 view .LVU390
 1670 002c 2068     		ldr	r0, [r4]
 1671              		.loc 1 904 22 view .LVU391
 1672 002e 06FB00F0 		mul	r0, r6, r0
 1673 0032 FFF7FEFF 		bl	pvPortMalloc
 1674              	.LVL125:
 1675 0036 0646     		mov	r6, r0
 1676              	.LVL126:
 1677              		.loc 1 904 20 view .LVU392
 1678 0038 2860     		str	r0, [r5]
 905:System/FreeRTOS/CMSIS_RTOS/cmsis_os.c ****       
 906:System/FreeRTOS/CMSIS_RTOS/cmsis_os.c ****       if (thePool->pool) {
 1679              		.loc 1 906 7 is_stmt 1 view .LVU393
 1680              		.loc 1 906 10 is_stmt 0 view .LVU394
 1681 003a 50B1     		cbz	r0, .L121
 907:System/FreeRTOS/CMSIS_RTOS/cmsis_os.c ****         for (i = 0; i < pool_def->pool_sz; i++) {
 1682              		.loc 1 907 16 view .LVU395
 1683 003c 0023     		movs	r3, #0
 1684 003e 03E0     		b	.L115
 1685              	.LVL127:
 1686              	.L117:
 908:System/FreeRTOS/CMSIS_RTOS/cmsis_os.c ****           thePool->markers[i] = 0;
 1687              		.loc 1 908 11 is_stmt 1 discriminator 3 view .LVU396
 1688              		.loc 1 908 18 is_stmt 0 discriminator 3 view .LVU397
 1689 0040 6A68     		ldr	r2, [r5, #4]
 1690              		.loc 1 908 31 discriminator 3 view .LVU398
 1691 0042 0021     		movs	r1, #0
 1692 0044 D154     		strb	r1, [r2, r3]
 907:System/FreeRTOS/CMSIS_RTOS/cmsis_os.c ****         for (i = 0; i < pool_def->pool_sz; i++) {
 1693              		.loc 1 907 44 is_stmt 1 discriminator 3 view .LVU399
 907:System/FreeRTOS/CMSIS_RTOS/cmsis_os.c ****         for (i = 0; i < pool_def->pool_sz; i++) {
 1694              		.loc 1 907 45 is_stmt 0 discriminator 3 view .LVU400
 1695 0046 0133     		adds	r3, r3, #1
 1696              	.LVL128:
ARM GAS  C:\Users\8bit\AppData\Local\Temp\ccOOCmGZ.s 			page 52


 1697              	.L115:
 907:System/FreeRTOS/CMSIS_RTOS/cmsis_os.c ****         for (i = 0; i < pool_def->pool_sz; i++) {
 1698              		.loc 1 907 21 is_stmt 1 discriminator 1 view .LVU401
 907:System/FreeRTOS/CMSIS_RTOS/cmsis_os.c ****         for (i = 0; i < pool_def->pool_sz; i++) {
 1699              		.loc 1 907 33 is_stmt 0 discriminator 1 view .LVU402
 1700 0048 2268     		ldr	r2, [r4]
 907:System/FreeRTOS/CMSIS_RTOS/cmsis_os.c ****         for (i = 0; i < pool_def->pool_sz; i++) {
 1701              		.loc 1 907 9 discriminator 1 view .LVU403
 1702 004a 9A42     		cmp	r2, r3
 1703 004c F8D8     		bhi	.L117
 1704              	.LVL129:
 1705              	.L112:
 909:System/FreeRTOS/CMSIS_RTOS/cmsis_os.c ****         }
 910:System/FreeRTOS/CMSIS_RTOS/cmsis_os.c ****       }
 911:System/FreeRTOS/CMSIS_RTOS/cmsis_os.c ****       else {
 912:System/FreeRTOS/CMSIS_RTOS/cmsis_os.c ****         vPortFree(thePool->markers);
 913:System/FreeRTOS/CMSIS_RTOS/cmsis_os.c ****         vPortFree(thePool);
 914:System/FreeRTOS/CMSIS_RTOS/cmsis_os.c ****         thePool = NULL;
 915:System/FreeRTOS/CMSIS_RTOS/cmsis_os.c ****       }
 916:System/FreeRTOS/CMSIS_RTOS/cmsis_os.c ****     }
 917:System/FreeRTOS/CMSIS_RTOS/cmsis_os.c ****     else {
 918:System/FreeRTOS/CMSIS_RTOS/cmsis_os.c ****       vPortFree(thePool);
 919:System/FreeRTOS/CMSIS_RTOS/cmsis_os.c ****       thePool = NULL;
 920:System/FreeRTOS/CMSIS_RTOS/cmsis_os.c ****     }
 921:System/FreeRTOS/CMSIS_RTOS/cmsis_os.c ****   }
 922:System/FreeRTOS/CMSIS_RTOS/cmsis_os.c **** 
 923:System/FreeRTOS/CMSIS_RTOS/cmsis_os.c ****   return thePool;
 924:System/FreeRTOS/CMSIS_RTOS/cmsis_os.c ****  
 925:System/FreeRTOS/CMSIS_RTOS/cmsis_os.c **** #else
 926:System/FreeRTOS/CMSIS_RTOS/cmsis_os.c ****   return NULL;
 927:System/FreeRTOS/CMSIS_RTOS/cmsis_os.c **** #endif
 928:System/FreeRTOS/CMSIS_RTOS/cmsis_os.c **** }
 1706              		.loc 1 928 1 view .LVU404
 1707 004e 2846     		mov	r0, r5
 1708 0050 F8BD     		pop	{r3, r4, r5, r6, r7, pc}
 1709              	.LVL130:
 1710              	.L121:
 912:System/FreeRTOS/CMSIS_RTOS/cmsis_os.c ****         vPortFree(thePool);
 1711              		.loc 1 912 9 is_stmt 1 view .LVU405
 1712 0052 6868     		ldr	r0, [r5, #4]
 1713 0054 FFF7FEFF 		bl	vPortFree
 1714              	.LVL131:
 913:System/FreeRTOS/CMSIS_RTOS/cmsis_os.c ****         thePool = NULL;
 1715              		.loc 1 913 9 view .LVU406
 1716 0058 2846     		mov	r0, r5
 1717 005a FFF7FEFF 		bl	vPortFree
 1718              	.LVL132:
 914:System/FreeRTOS/CMSIS_RTOS/cmsis_os.c ****       }
 1719              		.loc 1 914 9 view .LVU407
 914:System/FreeRTOS/CMSIS_RTOS/cmsis_os.c ****       }
 1720              		.loc 1 914 17 is_stmt 0 view .LVU408
 1721 005e 3546     		mov	r5, r6
 1722 0060 F5E7     		b	.L112
 1723              	.LVL133:
 1724              	.L114:
 918:System/FreeRTOS/CMSIS_RTOS/cmsis_os.c ****       thePool = NULL;
 1725              		.loc 1 918 7 is_stmt 1 view .LVU409
ARM GAS  C:\Users\8bit\AppData\Local\Temp\ccOOCmGZ.s 			page 53


 1726 0062 2846     		mov	r0, r5
 1727 0064 FFF7FEFF 		bl	vPortFree
 1728              	.LVL134:
 919:System/FreeRTOS/CMSIS_RTOS/cmsis_os.c ****     }
 1729              		.loc 1 919 7 view .LVU410
 919:System/FreeRTOS/CMSIS_RTOS/cmsis_os.c ****     }
 1730              		.loc 1 919 15 is_stmt 0 view .LVU411
 1731 0068 3D46     		mov	r5, r7
 1732              	.LVL135:
 923:System/FreeRTOS/CMSIS_RTOS/cmsis_os.c ****  
 1733              		.loc 1 923 3 is_stmt 1 view .LVU412
 923:System/FreeRTOS/CMSIS_RTOS/cmsis_os.c ****  
 1734              		.loc 1 923 10 is_stmt 0 view .LVU413
 1735 006a F0E7     		b	.L112
 1736              		.cfi_endproc
 1737              	.LFE137:
 1739              		.section	.text.osPoolAlloc,"ax",%progbits
 1740              		.align	1
 1741              		.global	osPoolAlloc
 1742              		.syntax unified
 1743              		.thumb
 1744              		.thumb_func
 1746              	osPoolAlloc:
 1747              	.LVL136:
 1748              	.LFB138:
 929:System/FreeRTOS/CMSIS_RTOS/cmsis_os.c **** 
 930:System/FreeRTOS/CMSIS_RTOS/cmsis_os.c **** /**
 931:System/FreeRTOS/CMSIS_RTOS/cmsis_os.c **** * @brief Allocate a memory block from a memory pool
 932:System/FreeRTOS/CMSIS_RTOS/cmsis_os.c **** * @param pool_id       memory pool ID obtain referenced with \ref osPoolCreate.
 933:System/FreeRTOS/CMSIS_RTOS/cmsis_os.c **** * @retval  address of the allocated memory block or NULL in case of no memory available.
 934:System/FreeRTOS/CMSIS_RTOS/cmsis_os.c **** * @note   MUST REMAIN UNCHANGED: \b osPoolAlloc shall be consistent in every CMSIS-RTOS.
 935:System/FreeRTOS/CMSIS_RTOS/cmsis_os.c **** */
 936:System/FreeRTOS/CMSIS_RTOS/cmsis_os.c **** void *osPoolAlloc (osPoolId pool_id)
 937:System/FreeRTOS/CMSIS_RTOS/cmsis_os.c **** {
 1749              		.loc 1 937 1 is_stmt 1 view -0
 1750              		.cfi_startproc
 1751              		@ args = 0, pretend = 0, frame = 0
 1752              		@ frame_needed = 0, uses_anonymous_args = 0
 1753              		.loc 1 937 1 is_stmt 0 view .LVU415
 1754 0000 70B5     		push	{r4, r5, r6, lr}
 1755              	.LCFI44:
 1756              		.cfi_def_cfa_offset 16
 1757              		.cfi_offset 4, -16
 1758              		.cfi_offset 5, -12
 1759              		.cfi_offset 6, -8
 1760              		.cfi_offset 14, -4
 1761 0002 0446     		mov	r4, r0
 938:System/FreeRTOS/CMSIS_RTOS/cmsis_os.c ****   int dummy = 0;
 1762              		.loc 1 938 3 is_stmt 1 view .LVU416
 1763              	.LVL137:
 939:System/FreeRTOS/CMSIS_RTOS/cmsis_os.c ****   void *p = NULL;
 1764              		.loc 1 939 3 view .LVU417
 940:System/FreeRTOS/CMSIS_RTOS/cmsis_os.c ****   uint32_t i;
 1765              		.loc 1 940 3 view .LVU418
 941:System/FreeRTOS/CMSIS_RTOS/cmsis_os.c ****   uint32_t index;
 1766              		.loc 1 941 3 view .LVU419
 942:System/FreeRTOS/CMSIS_RTOS/cmsis_os.c ****   
ARM GAS  C:\Users\8bit\AppData\Local\Temp\ccOOCmGZ.s 			page 54


 943:System/FreeRTOS/CMSIS_RTOS/cmsis_os.c ****   if (inHandlerMode()) {
 1767              		.loc 1 943 3 view .LVU420
 1768              		.loc 1 943 7 is_stmt 0 view .LVU421
 1769 0004 FFF7FEFF 		bl	inHandlerMode
 1770              	.LVL138:
 1771              		.loc 1 943 6 view .LVU422
 1772 0008 58B1     		cbz	r0, .L123
 944:System/FreeRTOS/CMSIS_RTOS/cmsis_os.c ****     dummy = portSET_INTERRUPT_MASK_FROM_ISR();
 1773              		.loc 1 944 5 is_stmt 1 view .LVU423
 1774              	.LBB10:
 1775              	.LBI10:
 1776              		.file 3 "System/FreeRTOS/portable/GCC/ARM_CM4F/portmacro.h"
   1:System/FreeRTOS/portable/GCC/ARM_CM4F/portmacro.h **** /*
   2:System/FreeRTOS/portable/GCC/ARM_CM4F/portmacro.h ****  * FreeRTOS Kernel V10.3.1
   3:System/FreeRTOS/portable/GCC/ARM_CM4F/portmacro.h ****  * Copyright (C) 2020 Amazon.com, Inc. or its affiliates.  All Rights Reserved.
   4:System/FreeRTOS/portable/GCC/ARM_CM4F/portmacro.h ****  *
   5:System/FreeRTOS/portable/GCC/ARM_CM4F/portmacro.h ****  * Permission is hereby granted, free of charge, to any person obtaining a copy of
   6:System/FreeRTOS/portable/GCC/ARM_CM4F/portmacro.h ****  * this software and associated documentation files (the "Software"), to deal in
   7:System/FreeRTOS/portable/GCC/ARM_CM4F/portmacro.h ****  * the Software without restriction, including without limitation the rights to
   8:System/FreeRTOS/portable/GCC/ARM_CM4F/portmacro.h ****  * use, copy, modify, merge, publish, distribute, sublicense, and/or sell copies of
   9:System/FreeRTOS/portable/GCC/ARM_CM4F/portmacro.h ****  * the Software, and to permit persons to whom the Software is furnished to do so,
  10:System/FreeRTOS/portable/GCC/ARM_CM4F/portmacro.h ****  * subject to the following conditions:
  11:System/FreeRTOS/portable/GCC/ARM_CM4F/portmacro.h ****  *
  12:System/FreeRTOS/portable/GCC/ARM_CM4F/portmacro.h ****  * The above copyright notice and this permission notice shall be included in all
  13:System/FreeRTOS/portable/GCC/ARM_CM4F/portmacro.h ****  * copies or substantial portions of the Software.
  14:System/FreeRTOS/portable/GCC/ARM_CM4F/portmacro.h ****  *
  15:System/FreeRTOS/portable/GCC/ARM_CM4F/portmacro.h ****  * THE SOFTWARE IS PROVIDED "AS IS", WITHOUT WARRANTY OF ANY KIND, EXPRESS OR
  16:System/FreeRTOS/portable/GCC/ARM_CM4F/portmacro.h ****  * IMPLIED, INCLUDING BUT NOT LIMITED TO THE WARRANTIES OF MERCHANTABILITY, FITNESS
  17:System/FreeRTOS/portable/GCC/ARM_CM4F/portmacro.h ****  * FOR A PARTICULAR PURPOSE AND NONINFRINGEMENT. IN NO EVENT SHALL THE AUTHORS OR
  18:System/FreeRTOS/portable/GCC/ARM_CM4F/portmacro.h ****  * COPYRIGHT HOLDERS BE LIABLE FOR ANY CLAIM, DAMAGES OR OTHER LIABILITY, WHETHER
  19:System/FreeRTOS/portable/GCC/ARM_CM4F/portmacro.h ****  * IN AN ACTION OF CONTRACT, TORT OR OTHERWISE, ARISING FROM, OUT OF OR IN
  20:System/FreeRTOS/portable/GCC/ARM_CM4F/portmacro.h ****  * CONNECTION WITH THE SOFTWARE OR THE USE OR OTHER DEALINGS IN THE SOFTWARE.
  21:System/FreeRTOS/portable/GCC/ARM_CM4F/portmacro.h ****  *
  22:System/FreeRTOS/portable/GCC/ARM_CM4F/portmacro.h ****  * http://www.FreeRTOS.org
  23:System/FreeRTOS/portable/GCC/ARM_CM4F/portmacro.h ****  * http://aws.amazon.com/freertos
  24:System/FreeRTOS/portable/GCC/ARM_CM4F/portmacro.h ****  *
  25:System/FreeRTOS/portable/GCC/ARM_CM4F/portmacro.h ****  * 1 tab == 4 spaces!
  26:System/FreeRTOS/portable/GCC/ARM_CM4F/portmacro.h ****  */
  27:System/FreeRTOS/portable/GCC/ARM_CM4F/portmacro.h **** 
  28:System/FreeRTOS/portable/GCC/ARM_CM4F/portmacro.h **** 
  29:System/FreeRTOS/portable/GCC/ARM_CM4F/portmacro.h **** #ifndef PORTMACRO_H
  30:System/FreeRTOS/portable/GCC/ARM_CM4F/portmacro.h **** #define PORTMACRO_H
  31:System/FreeRTOS/portable/GCC/ARM_CM4F/portmacro.h **** 
  32:System/FreeRTOS/portable/GCC/ARM_CM4F/portmacro.h **** #ifdef __cplusplus
  33:System/FreeRTOS/portable/GCC/ARM_CM4F/portmacro.h **** extern "C" {
  34:System/FreeRTOS/portable/GCC/ARM_CM4F/portmacro.h **** #endif
  35:System/FreeRTOS/portable/GCC/ARM_CM4F/portmacro.h **** 
  36:System/FreeRTOS/portable/GCC/ARM_CM4F/portmacro.h **** /*-----------------------------------------------------------
  37:System/FreeRTOS/portable/GCC/ARM_CM4F/portmacro.h ****  * Port specific definitions.
  38:System/FreeRTOS/portable/GCC/ARM_CM4F/portmacro.h ****  *
  39:System/FreeRTOS/portable/GCC/ARM_CM4F/portmacro.h ****  * The settings in this file configure FreeRTOS correctly for the
  40:System/FreeRTOS/portable/GCC/ARM_CM4F/portmacro.h ****  * given hardware and compiler.
  41:System/FreeRTOS/portable/GCC/ARM_CM4F/portmacro.h ****  *
  42:System/FreeRTOS/portable/GCC/ARM_CM4F/portmacro.h ****  * These settings should not be altered.
  43:System/FreeRTOS/portable/GCC/ARM_CM4F/portmacro.h ****  *-----------------------------------------------------------
  44:System/FreeRTOS/portable/GCC/ARM_CM4F/portmacro.h ****  */
  45:System/FreeRTOS/portable/GCC/ARM_CM4F/portmacro.h **** 
ARM GAS  C:\Users\8bit\AppData\Local\Temp\ccOOCmGZ.s 			page 55


  46:System/FreeRTOS/portable/GCC/ARM_CM4F/portmacro.h **** /* Type definitions. */
  47:System/FreeRTOS/portable/GCC/ARM_CM4F/portmacro.h **** #define portCHAR		char
  48:System/FreeRTOS/portable/GCC/ARM_CM4F/portmacro.h **** #define portFLOAT		float
  49:System/FreeRTOS/portable/GCC/ARM_CM4F/portmacro.h **** #define portDOUBLE		double
  50:System/FreeRTOS/portable/GCC/ARM_CM4F/portmacro.h **** #define portLONG		long
  51:System/FreeRTOS/portable/GCC/ARM_CM4F/portmacro.h **** #define portSHORT		short
  52:System/FreeRTOS/portable/GCC/ARM_CM4F/portmacro.h **** #define portSTACK_TYPE	uint32_t
  53:System/FreeRTOS/portable/GCC/ARM_CM4F/portmacro.h **** #define portBASE_TYPE	long
  54:System/FreeRTOS/portable/GCC/ARM_CM4F/portmacro.h **** 
  55:System/FreeRTOS/portable/GCC/ARM_CM4F/portmacro.h **** typedef portSTACK_TYPE StackType_t;
  56:System/FreeRTOS/portable/GCC/ARM_CM4F/portmacro.h **** typedef long BaseType_t;
  57:System/FreeRTOS/portable/GCC/ARM_CM4F/portmacro.h **** typedef unsigned long UBaseType_t;
  58:System/FreeRTOS/portable/GCC/ARM_CM4F/portmacro.h **** 
  59:System/FreeRTOS/portable/GCC/ARM_CM4F/portmacro.h **** #if( configUSE_16_BIT_TICKS == 1 )
  60:System/FreeRTOS/portable/GCC/ARM_CM4F/portmacro.h **** 	typedef uint16_t TickType_t;
  61:System/FreeRTOS/portable/GCC/ARM_CM4F/portmacro.h **** 	#define portMAX_DELAY ( TickType_t ) 0xffff
  62:System/FreeRTOS/portable/GCC/ARM_CM4F/portmacro.h **** #else
  63:System/FreeRTOS/portable/GCC/ARM_CM4F/portmacro.h **** 	typedef uint32_t TickType_t;
  64:System/FreeRTOS/portable/GCC/ARM_CM4F/portmacro.h **** 	#define portMAX_DELAY ( TickType_t ) 0xffffffffUL
  65:System/FreeRTOS/portable/GCC/ARM_CM4F/portmacro.h **** 
  66:System/FreeRTOS/portable/GCC/ARM_CM4F/portmacro.h **** 	/* 32-bit tick type on a 32-bit architecture, so reads of the tick count do
  67:System/FreeRTOS/portable/GCC/ARM_CM4F/portmacro.h **** 	not need to be guarded with a critical section. */
  68:System/FreeRTOS/portable/GCC/ARM_CM4F/portmacro.h **** 	#define portTICK_TYPE_IS_ATOMIC 1
  69:System/FreeRTOS/portable/GCC/ARM_CM4F/portmacro.h **** #endif
  70:System/FreeRTOS/portable/GCC/ARM_CM4F/portmacro.h **** /*-----------------------------------------------------------*/
  71:System/FreeRTOS/portable/GCC/ARM_CM4F/portmacro.h **** 
  72:System/FreeRTOS/portable/GCC/ARM_CM4F/portmacro.h **** /* Architecture specifics. */
  73:System/FreeRTOS/portable/GCC/ARM_CM4F/portmacro.h **** #define portSTACK_GROWTH			( -1 )
  74:System/FreeRTOS/portable/GCC/ARM_CM4F/portmacro.h **** #define portTICK_PERIOD_MS			( ( TickType_t ) 1000 / configTICK_RATE_HZ )
  75:System/FreeRTOS/portable/GCC/ARM_CM4F/portmacro.h **** #define portBYTE_ALIGNMENT			8
  76:System/FreeRTOS/portable/GCC/ARM_CM4F/portmacro.h **** /*-----------------------------------------------------------*/
  77:System/FreeRTOS/portable/GCC/ARM_CM4F/portmacro.h **** 
  78:System/FreeRTOS/portable/GCC/ARM_CM4F/portmacro.h **** /* Scheduler utilities. */
  79:System/FreeRTOS/portable/GCC/ARM_CM4F/portmacro.h **** #define portYIELD() 															\
  80:System/FreeRTOS/portable/GCC/ARM_CM4F/portmacro.h **** {																				\
  81:System/FreeRTOS/portable/GCC/ARM_CM4F/portmacro.h **** 	/* Set a PendSV to request a context switch. */								\
  82:System/FreeRTOS/portable/GCC/ARM_CM4F/portmacro.h **** 	portNVIC_INT_CTRL_REG = portNVIC_PENDSVSET_BIT;								\
  83:System/FreeRTOS/portable/GCC/ARM_CM4F/portmacro.h **** 																				\
  84:System/FreeRTOS/portable/GCC/ARM_CM4F/portmacro.h **** 	/* Barriers are normally not required but do ensure the code is completely	\
  85:System/FreeRTOS/portable/GCC/ARM_CM4F/portmacro.h **** 	within the specified behaviour for the architecture. */						\
  86:System/FreeRTOS/portable/GCC/ARM_CM4F/portmacro.h **** 	__asm volatile( "dsb" ::: "memory" );										\
  87:System/FreeRTOS/portable/GCC/ARM_CM4F/portmacro.h **** 	__asm volatile( "isb" );													\
  88:System/FreeRTOS/portable/GCC/ARM_CM4F/portmacro.h **** }
  89:System/FreeRTOS/portable/GCC/ARM_CM4F/portmacro.h **** 
  90:System/FreeRTOS/portable/GCC/ARM_CM4F/portmacro.h **** #define portNVIC_INT_CTRL_REG		( * ( ( volatile uint32_t * ) 0xe000ed04 ) )
  91:System/FreeRTOS/portable/GCC/ARM_CM4F/portmacro.h **** #define portNVIC_PENDSVSET_BIT		( 1UL << 28UL )
  92:System/FreeRTOS/portable/GCC/ARM_CM4F/portmacro.h **** #define portEND_SWITCHING_ISR( xSwitchRequired ) if( xSwitchRequired != pdFALSE ) portYIELD()
  93:System/FreeRTOS/portable/GCC/ARM_CM4F/portmacro.h **** #define portYIELD_FROM_ISR( x ) portEND_SWITCHING_ISR( x )
  94:System/FreeRTOS/portable/GCC/ARM_CM4F/portmacro.h **** /*-----------------------------------------------------------*/
  95:System/FreeRTOS/portable/GCC/ARM_CM4F/portmacro.h **** 
  96:System/FreeRTOS/portable/GCC/ARM_CM4F/portmacro.h **** /* Critical section management. */
  97:System/FreeRTOS/portable/GCC/ARM_CM4F/portmacro.h **** extern void vPortEnterCritical( void );
  98:System/FreeRTOS/portable/GCC/ARM_CM4F/portmacro.h **** extern void vPortExitCritical( void );
  99:System/FreeRTOS/portable/GCC/ARM_CM4F/portmacro.h **** #define portSET_INTERRUPT_MASK_FROM_ISR()		ulPortRaiseBASEPRI()
 100:System/FreeRTOS/portable/GCC/ARM_CM4F/portmacro.h **** #define portCLEAR_INTERRUPT_MASK_FROM_ISR(x)	vPortSetBASEPRI(x)
 101:System/FreeRTOS/portable/GCC/ARM_CM4F/portmacro.h **** #define portDISABLE_INTERRUPTS()				vPortRaiseBASEPRI()
 102:System/FreeRTOS/portable/GCC/ARM_CM4F/portmacro.h **** #define portENABLE_INTERRUPTS()					vPortSetBASEPRI(0)
ARM GAS  C:\Users\8bit\AppData\Local\Temp\ccOOCmGZ.s 			page 56


 103:System/FreeRTOS/portable/GCC/ARM_CM4F/portmacro.h **** #define portENTER_CRITICAL()					vPortEnterCritical()
 104:System/FreeRTOS/portable/GCC/ARM_CM4F/portmacro.h **** #define portEXIT_CRITICAL()						vPortExitCritical()
 105:System/FreeRTOS/portable/GCC/ARM_CM4F/portmacro.h **** 
 106:System/FreeRTOS/portable/GCC/ARM_CM4F/portmacro.h **** /*-----------------------------------------------------------*/
 107:System/FreeRTOS/portable/GCC/ARM_CM4F/portmacro.h **** 
 108:System/FreeRTOS/portable/GCC/ARM_CM4F/portmacro.h **** /* Task function macros as described on the FreeRTOS.org WEB site.  These are
 109:System/FreeRTOS/portable/GCC/ARM_CM4F/portmacro.h **** not necessary for to use this port.  They are defined so the common demo files
 110:System/FreeRTOS/portable/GCC/ARM_CM4F/portmacro.h **** (which build with all the ports) will build. */
 111:System/FreeRTOS/portable/GCC/ARM_CM4F/portmacro.h **** #define portTASK_FUNCTION_PROTO( vFunction, pvParameters ) void vFunction( void *pvParameters )
 112:System/FreeRTOS/portable/GCC/ARM_CM4F/portmacro.h **** #define portTASK_FUNCTION( vFunction, pvParameters ) void vFunction( void *pvParameters )
 113:System/FreeRTOS/portable/GCC/ARM_CM4F/portmacro.h **** /*-----------------------------------------------------------*/
 114:System/FreeRTOS/portable/GCC/ARM_CM4F/portmacro.h **** 
 115:System/FreeRTOS/portable/GCC/ARM_CM4F/portmacro.h **** /* Tickless idle/low power functionality. */
 116:System/FreeRTOS/portable/GCC/ARM_CM4F/portmacro.h **** #ifndef portSUPPRESS_TICKS_AND_SLEEP
 117:System/FreeRTOS/portable/GCC/ARM_CM4F/portmacro.h **** 	extern void vPortSuppressTicksAndSleep( TickType_t xExpectedIdleTime );
 118:System/FreeRTOS/portable/GCC/ARM_CM4F/portmacro.h **** 	#define portSUPPRESS_TICKS_AND_SLEEP( xExpectedIdleTime ) vPortSuppressTicksAndSleep( xExpectedIdl
 119:System/FreeRTOS/portable/GCC/ARM_CM4F/portmacro.h **** #endif
 120:System/FreeRTOS/portable/GCC/ARM_CM4F/portmacro.h **** /*-----------------------------------------------------------*/
 121:System/FreeRTOS/portable/GCC/ARM_CM4F/portmacro.h **** 
 122:System/FreeRTOS/portable/GCC/ARM_CM4F/portmacro.h **** /* Architecture specific optimisations. */
 123:System/FreeRTOS/portable/GCC/ARM_CM4F/portmacro.h **** #ifndef configUSE_PORT_OPTIMISED_TASK_SELECTION
 124:System/FreeRTOS/portable/GCC/ARM_CM4F/portmacro.h **** 	#define configUSE_PORT_OPTIMISED_TASK_SELECTION 1
 125:System/FreeRTOS/portable/GCC/ARM_CM4F/portmacro.h **** #endif
 126:System/FreeRTOS/portable/GCC/ARM_CM4F/portmacro.h **** 
 127:System/FreeRTOS/portable/GCC/ARM_CM4F/portmacro.h **** #if configUSE_PORT_OPTIMISED_TASK_SELECTION == 1
 128:System/FreeRTOS/portable/GCC/ARM_CM4F/portmacro.h **** 
 129:System/FreeRTOS/portable/GCC/ARM_CM4F/portmacro.h **** 	/* Generic helper function. */
 130:System/FreeRTOS/portable/GCC/ARM_CM4F/portmacro.h **** 	__attribute__( ( always_inline ) ) static inline uint8_t ucPortCountLeadingZeros( uint32_t ulBitma
 131:System/FreeRTOS/portable/GCC/ARM_CM4F/portmacro.h **** 	{
 132:System/FreeRTOS/portable/GCC/ARM_CM4F/portmacro.h **** 	uint8_t ucReturn;
 133:System/FreeRTOS/portable/GCC/ARM_CM4F/portmacro.h **** 
 134:System/FreeRTOS/portable/GCC/ARM_CM4F/portmacro.h **** 		__asm volatile ( "clz %0, %1" : "=r" ( ucReturn ) : "r" ( ulBitmap ) : "memory" );
 135:System/FreeRTOS/portable/GCC/ARM_CM4F/portmacro.h **** 		return ucReturn;
 136:System/FreeRTOS/portable/GCC/ARM_CM4F/portmacro.h **** 	}
 137:System/FreeRTOS/portable/GCC/ARM_CM4F/portmacro.h **** 
 138:System/FreeRTOS/portable/GCC/ARM_CM4F/portmacro.h **** 	/* Check the configuration. */
 139:System/FreeRTOS/portable/GCC/ARM_CM4F/portmacro.h **** 	#if( configMAX_PRIORITIES > 32 )
 140:System/FreeRTOS/portable/GCC/ARM_CM4F/portmacro.h **** 		#error configUSE_PORT_OPTIMISED_TASK_SELECTION can only be set to 1 when configMAX_PRIORITIES is 
 141:System/FreeRTOS/portable/GCC/ARM_CM4F/portmacro.h **** 	#endif
 142:System/FreeRTOS/portable/GCC/ARM_CM4F/portmacro.h **** 
 143:System/FreeRTOS/portable/GCC/ARM_CM4F/portmacro.h **** 	/* Store/clear the ready priorities in a bit map. */
 144:System/FreeRTOS/portable/GCC/ARM_CM4F/portmacro.h **** 	#define portRECORD_READY_PRIORITY( uxPriority, uxReadyPriorities ) ( uxReadyPriorities ) |= ( 1UL 
 145:System/FreeRTOS/portable/GCC/ARM_CM4F/portmacro.h **** 	#define portRESET_READY_PRIORITY( uxPriority, uxReadyPriorities ) ( uxReadyPriorities ) &= ~( 1UL 
 146:System/FreeRTOS/portable/GCC/ARM_CM4F/portmacro.h **** 
 147:System/FreeRTOS/portable/GCC/ARM_CM4F/portmacro.h **** 	/*-----------------------------------------------------------*/
 148:System/FreeRTOS/portable/GCC/ARM_CM4F/portmacro.h **** 
 149:System/FreeRTOS/portable/GCC/ARM_CM4F/portmacro.h **** 	#define portGET_HIGHEST_PRIORITY( uxTopPriority, uxReadyPriorities ) uxTopPriority = ( 31UL - ( ui
 150:System/FreeRTOS/portable/GCC/ARM_CM4F/portmacro.h **** 
 151:System/FreeRTOS/portable/GCC/ARM_CM4F/portmacro.h **** #endif /* configUSE_PORT_OPTIMISED_TASK_SELECTION */
 152:System/FreeRTOS/portable/GCC/ARM_CM4F/portmacro.h **** 
 153:System/FreeRTOS/portable/GCC/ARM_CM4F/portmacro.h **** /*-----------------------------------------------------------*/
 154:System/FreeRTOS/portable/GCC/ARM_CM4F/portmacro.h **** 
 155:System/FreeRTOS/portable/GCC/ARM_CM4F/portmacro.h **** #ifdef configASSERT
 156:System/FreeRTOS/portable/GCC/ARM_CM4F/portmacro.h **** 	void vPortValidateInterruptPriority( void );
 157:System/FreeRTOS/portable/GCC/ARM_CM4F/portmacro.h **** 	#define portASSERT_IF_INTERRUPT_PRIORITY_INVALID() 	vPortValidateInterruptPriority()
 158:System/FreeRTOS/portable/GCC/ARM_CM4F/portmacro.h **** #endif
 159:System/FreeRTOS/portable/GCC/ARM_CM4F/portmacro.h **** 
ARM GAS  C:\Users\8bit\AppData\Local\Temp\ccOOCmGZ.s 			page 57


 160:System/FreeRTOS/portable/GCC/ARM_CM4F/portmacro.h **** /* portNOP() is not required by this port. */
 161:System/FreeRTOS/portable/GCC/ARM_CM4F/portmacro.h **** #define portNOP()
 162:System/FreeRTOS/portable/GCC/ARM_CM4F/portmacro.h **** 
 163:System/FreeRTOS/portable/GCC/ARM_CM4F/portmacro.h **** #define portINLINE	__inline
 164:System/FreeRTOS/portable/GCC/ARM_CM4F/portmacro.h **** 
 165:System/FreeRTOS/portable/GCC/ARM_CM4F/portmacro.h **** #ifndef portFORCE_INLINE
 166:System/FreeRTOS/portable/GCC/ARM_CM4F/portmacro.h **** 	#define portFORCE_INLINE inline __attribute__(( always_inline))
 167:System/FreeRTOS/portable/GCC/ARM_CM4F/portmacro.h **** #endif
 168:System/FreeRTOS/portable/GCC/ARM_CM4F/portmacro.h **** 
 169:System/FreeRTOS/portable/GCC/ARM_CM4F/portmacro.h **** portFORCE_INLINE static BaseType_t xPortIsInsideInterrupt( void )
 170:System/FreeRTOS/portable/GCC/ARM_CM4F/portmacro.h **** {
 171:System/FreeRTOS/portable/GCC/ARM_CM4F/portmacro.h **** uint32_t ulCurrentInterrupt;
 172:System/FreeRTOS/portable/GCC/ARM_CM4F/portmacro.h **** BaseType_t xReturn;
 173:System/FreeRTOS/portable/GCC/ARM_CM4F/portmacro.h **** 
 174:System/FreeRTOS/portable/GCC/ARM_CM4F/portmacro.h **** 	/* Obtain the number of the currently executing interrupt. */
 175:System/FreeRTOS/portable/GCC/ARM_CM4F/portmacro.h **** 	__asm volatile( "mrs %0, ipsr" : "=r"( ulCurrentInterrupt ) :: "memory" );
 176:System/FreeRTOS/portable/GCC/ARM_CM4F/portmacro.h **** 
 177:System/FreeRTOS/portable/GCC/ARM_CM4F/portmacro.h **** 	if( ulCurrentInterrupt == 0 )
 178:System/FreeRTOS/portable/GCC/ARM_CM4F/portmacro.h **** 	{
 179:System/FreeRTOS/portable/GCC/ARM_CM4F/portmacro.h **** 		xReturn = pdFALSE;
 180:System/FreeRTOS/portable/GCC/ARM_CM4F/portmacro.h **** 	}
 181:System/FreeRTOS/portable/GCC/ARM_CM4F/portmacro.h **** 	else
 182:System/FreeRTOS/portable/GCC/ARM_CM4F/portmacro.h **** 	{
 183:System/FreeRTOS/portable/GCC/ARM_CM4F/portmacro.h **** 		xReturn = pdTRUE;
 184:System/FreeRTOS/portable/GCC/ARM_CM4F/portmacro.h **** 	}
 185:System/FreeRTOS/portable/GCC/ARM_CM4F/portmacro.h **** 
 186:System/FreeRTOS/portable/GCC/ARM_CM4F/portmacro.h **** 	return xReturn;
 187:System/FreeRTOS/portable/GCC/ARM_CM4F/portmacro.h **** }
 188:System/FreeRTOS/portable/GCC/ARM_CM4F/portmacro.h **** 
 189:System/FreeRTOS/portable/GCC/ARM_CM4F/portmacro.h **** /*-----------------------------------------------------------*/
 190:System/FreeRTOS/portable/GCC/ARM_CM4F/portmacro.h **** 
 191:System/FreeRTOS/portable/GCC/ARM_CM4F/portmacro.h **** portFORCE_INLINE static void vPortRaiseBASEPRI( void )
 192:System/FreeRTOS/portable/GCC/ARM_CM4F/portmacro.h **** {
 193:System/FreeRTOS/portable/GCC/ARM_CM4F/portmacro.h **** uint32_t ulNewBASEPRI;
 194:System/FreeRTOS/portable/GCC/ARM_CM4F/portmacro.h **** 
 195:System/FreeRTOS/portable/GCC/ARM_CM4F/portmacro.h **** 	__asm volatile
 196:System/FreeRTOS/portable/GCC/ARM_CM4F/portmacro.h **** 	(
 197:System/FreeRTOS/portable/GCC/ARM_CM4F/portmacro.h **** 		"	mov %0, %1												\n"	\
 198:System/FreeRTOS/portable/GCC/ARM_CM4F/portmacro.h **** 		"	msr basepri, %0											\n" \
 199:System/FreeRTOS/portable/GCC/ARM_CM4F/portmacro.h **** 		"	isb														\n" \
 200:System/FreeRTOS/portable/GCC/ARM_CM4F/portmacro.h **** 		"	dsb														\n" \
 201:System/FreeRTOS/portable/GCC/ARM_CM4F/portmacro.h **** 		:"=r" (ulNewBASEPRI) : "i" ( configMAX_SYSCALL_INTERRUPT_PRIORITY ) : "memory"
 202:System/FreeRTOS/portable/GCC/ARM_CM4F/portmacro.h **** 	);
 203:System/FreeRTOS/portable/GCC/ARM_CM4F/portmacro.h **** }
 204:System/FreeRTOS/portable/GCC/ARM_CM4F/portmacro.h **** 
 205:System/FreeRTOS/portable/GCC/ARM_CM4F/portmacro.h **** /*-----------------------------------------------------------*/
 206:System/FreeRTOS/portable/GCC/ARM_CM4F/portmacro.h **** 
 207:System/FreeRTOS/portable/GCC/ARM_CM4F/portmacro.h **** portFORCE_INLINE static uint32_t ulPortRaiseBASEPRI( void )
 1777              		.loc 3 207 34 view .LVU424
 1778              	.LBB11:
 208:System/FreeRTOS/portable/GCC/ARM_CM4F/portmacro.h **** {
 209:System/FreeRTOS/portable/GCC/ARM_CM4F/portmacro.h **** uint32_t ulOriginalBASEPRI, ulNewBASEPRI;
 1779              		.loc 3 209 1 view .LVU425
 210:System/FreeRTOS/portable/GCC/ARM_CM4F/portmacro.h **** 
 211:System/FreeRTOS/portable/GCC/ARM_CM4F/portmacro.h **** 	__asm volatile
 1780              		.loc 3 211 2 view .LVU426
 1781              		.syntax unified
ARM GAS  C:\Users\8bit\AppData\Local\Temp\ccOOCmGZ.s 			page 58


 1782              	@ 211 "System/FreeRTOS/portable/GCC/ARM_CM4F/portmacro.h" 1
 1783 000a EFF31185 			mrs r5, basepri											
 1784 000e 4FF05003 		mov r3, #80												
 1785 0012 83F31188 		msr basepri, r3											
 1786 0016 BFF36F8F 		isb														
 1787 001a BFF34F8F 		dsb														
 1788              	
 1789              	@ 0 "" 2
 1790              	.LVL139:
 212:System/FreeRTOS/portable/GCC/ARM_CM4F/portmacro.h **** 	(
 213:System/FreeRTOS/portable/GCC/ARM_CM4F/portmacro.h **** 		"	mrs %0, basepri											\n" \
 214:System/FreeRTOS/portable/GCC/ARM_CM4F/portmacro.h **** 		"	mov %1, %2												\n"	\
 215:System/FreeRTOS/portable/GCC/ARM_CM4F/portmacro.h **** 		"	msr basepri, %1											\n" \
 216:System/FreeRTOS/portable/GCC/ARM_CM4F/portmacro.h **** 		"	isb														\n" \
 217:System/FreeRTOS/portable/GCC/ARM_CM4F/portmacro.h **** 		"	dsb														\n" \
 218:System/FreeRTOS/portable/GCC/ARM_CM4F/portmacro.h **** 		:"=r" (ulOriginalBASEPRI), "=r" (ulNewBASEPRI) : "i" ( configMAX_SYSCALL_INTERRUPT_PRIORITY ) : "
 219:System/FreeRTOS/portable/GCC/ARM_CM4F/portmacro.h **** 	);
 220:System/FreeRTOS/portable/GCC/ARM_CM4F/portmacro.h **** 
 221:System/FreeRTOS/portable/GCC/ARM_CM4F/portmacro.h **** 	/* This return will not be reached but is necessary to prevent compiler
 222:System/FreeRTOS/portable/GCC/ARM_CM4F/portmacro.h **** 	warnings. */
 223:System/FreeRTOS/portable/GCC/ARM_CM4F/portmacro.h **** 	return ulOriginalBASEPRI;
 1791              		.loc 3 223 2 view .LVU427
 1792              		.thumb
 1793              		.syntax unified
 1794              	.L124:
 1795              		.loc 3 223 2 is_stmt 0 view .LVU428
 1796              	.LBE11:
 1797              	.LBE10:
 945:System/FreeRTOS/CMSIS_RTOS/cmsis_os.c ****   }
 946:System/FreeRTOS/CMSIS_RTOS/cmsis_os.c ****   else {
 947:System/FreeRTOS/CMSIS_RTOS/cmsis_os.c ****     vPortEnterCritical();
 948:System/FreeRTOS/CMSIS_RTOS/cmsis_os.c ****   }
 949:System/FreeRTOS/CMSIS_RTOS/cmsis_os.c ****   
 950:System/FreeRTOS/CMSIS_RTOS/cmsis_os.c ****   for (i = 0; i < pool_id->pool_sz; i++) {
 1798              		.loc 1 950 3 is_stmt 1 view .LVU429
 1799              		.loc 1 950 10 is_stmt 0 view .LVU430
 1800 001e 0021     		movs	r1, #0
 1801              		.loc 1 950 3 view .LVU431
 1802 0020 04E0     		b	.L125
 1803              	.LVL140:
 1804              	.L123:
 1805              		.loc 1 950 3 view .LVU432
 1806 0022 0546     		mov	r5, r0
 947:System/FreeRTOS/CMSIS_RTOS/cmsis_os.c ****   }
 1807              		.loc 1 947 5 is_stmt 1 view .LVU433
 1808 0024 FFF7FEFF 		bl	vPortEnterCritical
 1809              	.LVL141:
 1810 0028 F9E7     		b	.L124
 1811              	.LVL142:
 1812              	.L126:
 1813              		.loc 1 950 37 discriminator 2 view .LVU434
 1814              		.loc 1 950 38 is_stmt 0 discriminator 2 view .LVU435
 1815 002a 0131     		adds	r1, r1, #1
 1816              	.LVL143:
 1817              	.L125:
 1818              		.loc 1 950 15 is_stmt 1 discriminator 1 view .LVU436
 1819              		.loc 1 950 26 is_stmt 0 discriminator 1 view .LVU437
ARM GAS  C:\Users\8bit\AppData\Local\Temp\ccOOCmGZ.s 			page 59


 1820 002c A268     		ldr	r2, [r4, #8]
 1821              		.loc 1 950 3 discriminator 1 view .LVU438
 1822 002e 8A42     		cmp	r2, r1
 1823 0030 12D9     		bls	.L132
 951:System/FreeRTOS/CMSIS_RTOS/cmsis_os.c ****     index = (pool_id->currentIndex + i) % pool_id->pool_sz;
 1824              		.loc 1 951 5 is_stmt 1 view .LVU439
 1825              		.loc 1 951 21 is_stmt 0 view .LVU440
 1826 0032 2369     		ldr	r3, [r4, #16]
 1827              		.loc 1 951 36 view .LVU441
 1828 0034 0B44     		add	r3, r3, r1
 1829              		.loc 1 951 11 view .LVU442
 1830 0036 B3FBF2F0 		udiv	r0, r3, r2
 1831 003a 02FB1033 		mls	r3, r2, r0, r3
 1832              	.LVL144:
 952:System/FreeRTOS/CMSIS_RTOS/cmsis_os.c ****     
 953:System/FreeRTOS/CMSIS_RTOS/cmsis_os.c ****     if (pool_id->markers[index] == 0) {
 1833              		.loc 1 953 5 is_stmt 1 view .LVU443
 1834              		.loc 1 953 16 is_stmt 0 view .LVU444
 1835 003e 6268     		ldr	r2, [r4, #4]
 1836              		.loc 1 953 25 view .LVU445
 1837 0040 D018     		adds	r0, r2, r3
 1838 0042 D25C     		ldrb	r2, [r2, r3]	@ zero_extendqisi2
 1839              		.loc 1 953 8 view .LVU446
 1840 0044 002A     		cmp	r2, #0
 1841 0046 F0D1     		bne	.L126
 954:System/FreeRTOS/CMSIS_RTOS/cmsis_os.c ****       pool_id->markers[index] = 1;
 1842              		.loc 1 954 7 is_stmt 1 view .LVU447
 1843              		.loc 1 954 31 is_stmt 0 view .LVU448
 1844 0048 0122     		movs	r2, #1
 1845 004a 0270     		strb	r2, [r0]
 955:System/FreeRTOS/CMSIS_RTOS/cmsis_os.c ****       p = (void *)((uint32_t)(pool_id->pool) + (index * pool_id->item_sz));
 1846              		.loc 1 955 7 is_stmt 1 view .LVU449
 1847              		.loc 1 955 38 is_stmt 0 view .LVU450
 1848 004c 2668     		ldr	r6, [r4]
 1849              		.loc 1 955 64 view .LVU451
 1850 004e E268     		ldr	r2, [r4, #12]
 1851              		.loc 1 955 46 view .LVU452
 1852 0050 03FB0266 		mla	r6, r3, r2, r6
 1853              	.LVL145:
 956:System/FreeRTOS/CMSIS_RTOS/cmsis_os.c ****       pool_id->currentIndex = index;
 1854              		.loc 1 956 7 is_stmt 1 view .LVU453
 1855              		.loc 1 956 29 is_stmt 0 view .LVU454
 1856 0054 2361     		str	r3, [r4, #16]
 957:System/FreeRTOS/CMSIS_RTOS/cmsis_os.c ****       break;
 1857              		.loc 1 957 7 is_stmt 1 view .LVU455
 1858 0056 00E0     		b	.L127
 1859              	.LVL146:
 1860              	.L132:
 939:System/FreeRTOS/CMSIS_RTOS/cmsis_os.c ****   uint32_t i;
 1861              		.loc 1 939 9 is_stmt 0 view .LVU456
 1862 0058 0026     		movs	r6, #0
 1863              	.LVL147:
 1864              	.L127:
 958:System/FreeRTOS/CMSIS_RTOS/cmsis_os.c ****     }
 959:System/FreeRTOS/CMSIS_RTOS/cmsis_os.c ****   }
 960:System/FreeRTOS/CMSIS_RTOS/cmsis_os.c ****   
 961:System/FreeRTOS/CMSIS_RTOS/cmsis_os.c ****   if (inHandlerMode()) {
ARM GAS  C:\Users\8bit\AppData\Local\Temp\ccOOCmGZ.s 			page 60


 1865              		.loc 1 961 3 is_stmt 1 view .LVU457
 1866              		.loc 1 961 7 is_stmt 0 view .LVU458
 1867 005a FFF7FEFF 		bl	inHandlerMode
 1868              	.LVL148:
 1869              		.loc 1 961 6 view .LVU459
 1870 005e 18B1     		cbz	r0, .L129
 962:System/FreeRTOS/CMSIS_RTOS/cmsis_os.c ****     portCLEAR_INTERRUPT_MASK_FROM_ISR(dummy);
 1871              		.loc 1 962 5 is_stmt 1 view .LVU460
 1872              	.LVL149:
 1873              	.LBB12:
 1874              	.LBI12:
 224:System/FreeRTOS/portable/GCC/ARM_CM4F/portmacro.h **** }
 225:System/FreeRTOS/portable/GCC/ARM_CM4F/portmacro.h **** /*-----------------------------------------------------------*/
 226:System/FreeRTOS/portable/GCC/ARM_CM4F/portmacro.h **** 
 227:System/FreeRTOS/portable/GCC/ARM_CM4F/portmacro.h **** portFORCE_INLINE static void vPortSetBASEPRI( uint32_t ulNewMaskValue )
 1875              		.loc 3 227 30 view .LVU461
 1876              	.LBB13:
 228:System/FreeRTOS/portable/GCC/ARM_CM4F/portmacro.h **** {
 229:System/FreeRTOS/portable/GCC/ARM_CM4F/portmacro.h **** 	__asm volatile
 1877              		.loc 3 229 2 view .LVU462
 1878              		.syntax unified
 1879              	@ 229 "System/FreeRTOS/portable/GCC/ARM_CM4F/portmacro.h" 1
 1880 0060 85F31188 			msr basepri, r5	
 1881              	@ 0 "" 2
 1882              	.LVL150:
 1883              		.thumb
 1884              		.syntax unified
 1885              	.L122:
 1886              		.loc 3 229 2 is_stmt 0 view .LVU463
 1887              	.LBE13:
 1888              	.LBE12:
 963:System/FreeRTOS/CMSIS_RTOS/cmsis_os.c ****   }
 964:System/FreeRTOS/CMSIS_RTOS/cmsis_os.c ****   else {
 965:System/FreeRTOS/CMSIS_RTOS/cmsis_os.c ****     vPortExitCritical();
 966:System/FreeRTOS/CMSIS_RTOS/cmsis_os.c ****   }
 967:System/FreeRTOS/CMSIS_RTOS/cmsis_os.c ****   
 968:System/FreeRTOS/CMSIS_RTOS/cmsis_os.c ****   return p;
 969:System/FreeRTOS/CMSIS_RTOS/cmsis_os.c **** }
 1889              		.loc 1 969 1 view .LVU464
 1890 0064 3046     		mov	r0, r6
 1891 0066 70BD     		pop	{r4, r5, r6, pc}
 1892              	.LVL151:
 1893              	.L129:
 965:System/FreeRTOS/CMSIS_RTOS/cmsis_os.c ****   }
 1894              		.loc 1 965 5 is_stmt 1 view .LVU465
 1895 0068 FFF7FEFF 		bl	vPortExitCritical
 1896              	.LVL152:
 968:System/FreeRTOS/CMSIS_RTOS/cmsis_os.c **** }
 1897              		.loc 1 968 3 view .LVU466
 968:System/FreeRTOS/CMSIS_RTOS/cmsis_os.c **** }
 1898              		.loc 1 968 10 is_stmt 0 view .LVU467
 1899 006c FAE7     		b	.L122
 1900              		.cfi_endproc
 1901              	.LFE138:
 1903              		.section	.text.osPoolCAlloc,"ax",%progbits
 1904              		.align	1
 1905              		.global	osPoolCAlloc
ARM GAS  C:\Users\8bit\AppData\Local\Temp\ccOOCmGZ.s 			page 61


 1906              		.syntax unified
 1907              		.thumb
 1908              		.thumb_func
 1910              	osPoolCAlloc:
 1911              	.LVL153:
 1912              	.LFB139:
 970:System/FreeRTOS/CMSIS_RTOS/cmsis_os.c **** 
 971:System/FreeRTOS/CMSIS_RTOS/cmsis_os.c **** /**
 972:System/FreeRTOS/CMSIS_RTOS/cmsis_os.c **** * @brief Allocate a memory block from a memory pool and set memory block to zero
 973:System/FreeRTOS/CMSIS_RTOS/cmsis_os.c **** * @param  pool_id       memory pool ID obtain referenced with \ref osPoolCreate.
 974:System/FreeRTOS/CMSIS_RTOS/cmsis_os.c **** * @retval  address of the allocated memory block or NULL in case of no memory available.
 975:System/FreeRTOS/CMSIS_RTOS/cmsis_os.c **** * @note   MUST REMAIN UNCHANGED: \b osPoolCAlloc shall be consistent in every CMSIS-RTOS.
 976:System/FreeRTOS/CMSIS_RTOS/cmsis_os.c **** */
 977:System/FreeRTOS/CMSIS_RTOS/cmsis_os.c **** void *osPoolCAlloc (osPoolId pool_id)
 978:System/FreeRTOS/CMSIS_RTOS/cmsis_os.c **** {
 1913              		.loc 1 978 1 is_stmt 1 view -0
 1914              		.cfi_startproc
 1915              		@ args = 0, pretend = 0, frame = 0
 1916              		@ frame_needed = 0, uses_anonymous_args = 0
 1917              		.loc 1 978 1 is_stmt 0 view .LVU469
 1918 0000 08B5     		push	{r3, lr}
 1919              	.LCFI45:
 1920              		.cfi_def_cfa_offset 8
 1921              		.cfi_offset 3, -8
 1922              		.cfi_offset 14, -4
 979:System/FreeRTOS/CMSIS_RTOS/cmsis_os.c ****   void *p = osPoolAlloc(pool_id);
 1923              		.loc 1 979 3 is_stmt 1 view .LVU470
 1924              		.loc 1 979 13 is_stmt 0 view .LVU471
 1925 0002 FFF7FEFF 		bl	osPoolAlloc
 1926              	.LVL154:
 980:System/FreeRTOS/CMSIS_RTOS/cmsis_os.c ****   
 981:System/FreeRTOS/CMSIS_RTOS/cmsis_os.c ****   if (p != NULL)
 1927              		.loc 1 981 3 is_stmt 1 view .LVU472
 1928              		.loc 1 981 6 is_stmt 0 view .LVU473
 1929 0006 08B1     		cbz	r0, .L133
 982:System/FreeRTOS/CMSIS_RTOS/cmsis_os.c ****   {
 983:System/FreeRTOS/CMSIS_RTOS/cmsis_os.c ****     memset(p, 0, sizeof(pool_id->pool_sz));
 1930              		.loc 1 983 5 is_stmt 1 view .LVU474
 1931 0008 0023     		movs	r3, #0
 1932 000a 0360     		str	r3, [r0]	@ unaligned
 984:System/FreeRTOS/CMSIS_RTOS/cmsis_os.c ****   }
 985:System/FreeRTOS/CMSIS_RTOS/cmsis_os.c ****   
 986:System/FreeRTOS/CMSIS_RTOS/cmsis_os.c ****   return p;
 1933              		.loc 1 986 3 view .LVU475
 1934              	.L133:
 987:System/FreeRTOS/CMSIS_RTOS/cmsis_os.c **** }
 1935              		.loc 1 987 1 is_stmt 0 view .LVU476
 1936 000c 08BD     		pop	{r3, pc}
 1937              		.cfi_endproc
 1938              	.LFE139:
 1940              		.section	.text.osPoolFree,"ax",%progbits
 1941              		.align	1
 1942              		.global	osPoolFree
 1943              		.syntax unified
 1944              		.thumb
 1945              		.thumb_func
 1947              	osPoolFree:
ARM GAS  C:\Users\8bit\AppData\Local\Temp\ccOOCmGZ.s 			page 62


 1948              	.LVL155:
 1949              	.LFB140:
 988:System/FreeRTOS/CMSIS_RTOS/cmsis_os.c **** 
 989:System/FreeRTOS/CMSIS_RTOS/cmsis_os.c **** /**
 990:System/FreeRTOS/CMSIS_RTOS/cmsis_os.c **** * @brief Return an allocated memory block back to a specific memory pool
 991:System/FreeRTOS/CMSIS_RTOS/cmsis_os.c **** * @param  pool_id       memory pool ID obtain referenced with \ref osPoolCreate.
 992:System/FreeRTOS/CMSIS_RTOS/cmsis_os.c **** * @param  block         address of the allocated memory block that is returned to the memory pool.
 993:System/FreeRTOS/CMSIS_RTOS/cmsis_os.c **** * @retval  status code that indicates the execution status of the function.
 994:System/FreeRTOS/CMSIS_RTOS/cmsis_os.c **** * @note   MUST REMAIN UNCHANGED: \b osPoolFree shall be consistent in every CMSIS-RTOS.
 995:System/FreeRTOS/CMSIS_RTOS/cmsis_os.c **** */
 996:System/FreeRTOS/CMSIS_RTOS/cmsis_os.c **** osStatus osPoolFree (osPoolId pool_id, void *block)
 997:System/FreeRTOS/CMSIS_RTOS/cmsis_os.c **** {
 1950              		.loc 1 997 1 is_stmt 1 view -0
 1951              		.cfi_startproc
 1952              		@ args = 0, pretend = 0, frame = 0
 1953              		@ frame_needed = 0, uses_anonymous_args = 0
 1954              		@ link register save eliminated.
 998:System/FreeRTOS/CMSIS_RTOS/cmsis_os.c ****   uint32_t index;
 1955              		.loc 1 998 3 view .LVU478
 999:System/FreeRTOS/CMSIS_RTOS/cmsis_os.c ****   
1000:System/FreeRTOS/CMSIS_RTOS/cmsis_os.c ****   if (pool_id == NULL) {
 1956              		.loc 1 1000 3 view .LVU479
 1957              		.loc 1 1000 6 is_stmt 0 view .LVU480
 1958 0000 0346     		mov	r3, r0
 1959 0002 98B1     		cbz	r0, .L138
1001:System/FreeRTOS/CMSIS_RTOS/cmsis_os.c ****     return osErrorParameter;
1002:System/FreeRTOS/CMSIS_RTOS/cmsis_os.c ****   }
1003:System/FreeRTOS/CMSIS_RTOS/cmsis_os.c ****   
1004:System/FreeRTOS/CMSIS_RTOS/cmsis_os.c ****   if (block == NULL) {
 1960              		.loc 1 1004 3 is_stmt 1 view .LVU481
 1961              		.loc 1 1004 6 is_stmt 0 view .LVU482
 1962 0004 A1B1     		cbz	r1, .L139
1005:System/FreeRTOS/CMSIS_RTOS/cmsis_os.c ****     return osErrorParameter;
1006:System/FreeRTOS/CMSIS_RTOS/cmsis_os.c ****   }
1007:System/FreeRTOS/CMSIS_RTOS/cmsis_os.c ****   
1008:System/FreeRTOS/CMSIS_RTOS/cmsis_os.c ****   if (block < pool_id->pool) {
 1963              		.loc 1 1008 3 is_stmt 1 view .LVU483
 1964              		.loc 1 1008 22 is_stmt 0 view .LVU484
 1965 0006 0268     		ldr	r2, [r0]
 1966              		.loc 1 1008 6 view .LVU485
 1967 0008 8A42     		cmp	r2, r1
 1968 000a 13D8     		bhi	.L140
1009:System/FreeRTOS/CMSIS_RTOS/cmsis_os.c ****     return osErrorParameter;
1010:System/FreeRTOS/CMSIS_RTOS/cmsis_os.c ****   }
1011:System/FreeRTOS/CMSIS_RTOS/cmsis_os.c ****   
1012:System/FreeRTOS/CMSIS_RTOS/cmsis_os.c ****   index = (uint32_t)block - (uint32_t)(pool_id->pool);
 1969              		.loc 1 1012 3 is_stmt 1 view .LVU486
 1970              		.loc 1 1012 9 is_stmt 0 view .LVU487
 1971 000c 891A     		subs	r1, r1, r2
 1972              	.LVL156:
1013:System/FreeRTOS/CMSIS_RTOS/cmsis_os.c ****   if (index % pool_id->item_sz) {
 1973              		.loc 1 1013 3 is_stmt 1 view .LVU488
 1974              		.loc 1 1013 22 is_stmt 0 view .LVU489
 1975 000e C268     		ldr	r2, [r0, #12]
 1976              		.loc 1 1013 13 view .LVU490
 1977 0010 B1FBF2F0 		udiv	r0, r1, r2
 1978              	.LVL157:
ARM GAS  C:\Users\8bit\AppData\Local\Temp\ccOOCmGZ.s 			page 63


 1979              		.loc 1 1013 13 view .LVU491
 1980 0014 02FB1010 		mls	r0, r2, r0, r1
 1981              		.loc 1 1013 6 view .LVU492
 1982 0018 70B9     		cbnz	r0, .L141
1014:System/FreeRTOS/CMSIS_RTOS/cmsis_os.c ****     return osErrorParameter;
1015:System/FreeRTOS/CMSIS_RTOS/cmsis_os.c ****   }
1016:System/FreeRTOS/CMSIS_RTOS/cmsis_os.c ****   index = index / pool_id->item_sz;
 1983              		.loc 1 1016 3 is_stmt 1 view .LVU493
 1984              		.loc 1 1016 9 is_stmt 0 view .LVU494
 1985 001a B1FBF2F1 		udiv	r1, r1, r2
 1986              	.LVL158:
1017:System/FreeRTOS/CMSIS_RTOS/cmsis_os.c ****   if (index >= pool_id->pool_sz) {
 1987              		.loc 1 1017 3 is_stmt 1 view .LVU495
 1988              		.loc 1 1017 23 is_stmt 0 view .LVU496
 1989 001e 9A68     		ldr	r2, [r3, #8]
 1990              		.loc 1 1017 6 view .LVU497
 1991 0020 8A42     		cmp	r2, r1
 1992 0022 0BD9     		bls	.L142
1018:System/FreeRTOS/CMSIS_RTOS/cmsis_os.c ****     return osErrorParameter;
1019:System/FreeRTOS/CMSIS_RTOS/cmsis_os.c ****   }
1020:System/FreeRTOS/CMSIS_RTOS/cmsis_os.c ****   
1021:System/FreeRTOS/CMSIS_RTOS/cmsis_os.c ****   pool_id->markers[index] = 0;
 1993              		.loc 1 1021 3 is_stmt 1 view .LVU498
 1994              		.loc 1 1021 10 is_stmt 0 view .LVU499
 1995 0024 5B68     		ldr	r3, [r3, #4]
 1996              	.LVL159:
 1997              		.loc 1 1021 27 view .LVU500
 1998 0026 0022     		movs	r2, #0
 1999 0028 5A54     		strb	r2, [r3, r1]
1022:System/FreeRTOS/CMSIS_RTOS/cmsis_os.c ****   
1023:System/FreeRTOS/CMSIS_RTOS/cmsis_os.c ****   return osOK;
 2000              		.loc 1 1023 3 is_stmt 1 view .LVU501
 2001              		.loc 1 1023 10 is_stmt 0 view .LVU502
 2002 002a 7047     		bx	lr
 2003              	.LVL160:
 2004              	.L138:
1001:System/FreeRTOS/CMSIS_RTOS/cmsis_os.c ****   }
 2005              		.loc 1 1001 12 view .LVU503
 2006 002c 8020     		movs	r0, #128
 2007              	.LVL161:
1001:System/FreeRTOS/CMSIS_RTOS/cmsis_os.c ****   }
 2008              		.loc 1 1001 12 view .LVU504
 2009 002e 7047     		bx	lr
 2010              	.LVL162:
 2011              	.L139:
1005:System/FreeRTOS/CMSIS_RTOS/cmsis_os.c ****   }
 2012              		.loc 1 1005 12 view .LVU505
 2013 0030 8020     		movs	r0, #128
 2014              	.LVL163:
1005:System/FreeRTOS/CMSIS_RTOS/cmsis_os.c ****   }
 2015              		.loc 1 1005 12 view .LVU506
 2016 0032 7047     		bx	lr
 2017              	.LVL164:
 2018              	.L140:
1009:System/FreeRTOS/CMSIS_RTOS/cmsis_os.c ****   }
 2019              		.loc 1 1009 12 view .LVU507
 2020 0034 8020     		movs	r0, #128
ARM GAS  C:\Users\8bit\AppData\Local\Temp\ccOOCmGZ.s 			page 64


 2021              	.LVL165:
1009:System/FreeRTOS/CMSIS_RTOS/cmsis_os.c ****   }
 2022              		.loc 1 1009 12 view .LVU508
 2023 0036 7047     		bx	lr
 2024              	.LVL166:
 2025              	.L141:
1014:System/FreeRTOS/CMSIS_RTOS/cmsis_os.c ****   }
 2026              		.loc 1 1014 12 view .LVU509
 2027 0038 8020     		movs	r0, #128
 2028 003a 7047     		bx	lr
 2029              	.L142:
1018:System/FreeRTOS/CMSIS_RTOS/cmsis_os.c ****   }
 2030              		.loc 1 1018 12 view .LVU510
 2031 003c 8020     		movs	r0, #128
1024:System/FreeRTOS/CMSIS_RTOS/cmsis_os.c **** }
 2032              		.loc 1 1024 1 view .LVU511
 2033 003e 7047     		bx	lr
 2034              		.cfi_endproc
 2035              	.LFE140:
 2037              		.section	.text.osMessageCreate,"ax",%progbits
 2038              		.align	1
 2039              		.global	osMessageCreate
 2040              		.syntax unified
 2041              		.thumb
 2042              		.thumb_func
 2044              	osMessageCreate:
 2045              	.LVL167:
 2046              	.LFB141:
1025:System/FreeRTOS/CMSIS_RTOS/cmsis_os.c **** 
1026:System/FreeRTOS/CMSIS_RTOS/cmsis_os.c **** 
1027:System/FreeRTOS/CMSIS_RTOS/cmsis_os.c **** #endif   /* Use Memory Pool Management */
1028:System/FreeRTOS/CMSIS_RTOS/cmsis_os.c **** 
1029:System/FreeRTOS/CMSIS_RTOS/cmsis_os.c **** /*******************   Message Queue Management Functions  *********************/
1030:System/FreeRTOS/CMSIS_RTOS/cmsis_os.c **** 
1031:System/FreeRTOS/CMSIS_RTOS/cmsis_os.c **** #if (defined (osFeature_MessageQ)  &&  (osFeature_MessageQ != 0)) /* Use Message Queues */
1032:System/FreeRTOS/CMSIS_RTOS/cmsis_os.c **** 
1033:System/FreeRTOS/CMSIS_RTOS/cmsis_os.c **** /**
1034:System/FreeRTOS/CMSIS_RTOS/cmsis_os.c **** * @brief Create and Initialize a Message Queue
1035:System/FreeRTOS/CMSIS_RTOS/cmsis_os.c **** * @param queue_def     queue definition referenced with \ref osMessageQ.
1036:System/FreeRTOS/CMSIS_RTOS/cmsis_os.c **** * @param  thread_id     thread ID (obtained by \ref osThreadCreate or \ref osThreadGetId) or NULL.
1037:System/FreeRTOS/CMSIS_RTOS/cmsis_os.c **** * @retval  message queue ID for reference by other functions or NULL in case of error.
1038:System/FreeRTOS/CMSIS_RTOS/cmsis_os.c **** * @note   MUST REMAIN UNCHANGED: \b osMessageCreate shall be consistent in every CMSIS-RTOS.
1039:System/FreeRTOS/CMSIS_RTOS/cmsis_os.c **** */
1040:System/FreeRTOS/CMSIS_RTOS/cmsis_os.c **** osMessageQId osMessageCreate (const osMessageQDef_t *queue_def, osThreadId thread_id)
1041:System/FreeRTOS/CMSIS_RTOS/cmsis_os.c **** {
 2047              		.loc 1 1041 1 is_stmt 1 view -0
 2048              		.cfi_startproc
 2049              		@ args = 0, pretend = 0, frame = 0
 2050              		@ frame_needed = 0, uses_anonymous_args = 0
 2051              		.loc 1 1041 1 is_stmt 0 view .LVU513
 2052 0000 00B5     		push	{lr}
 2053              	.LCFI46:
 2054              		.cfi_def_cfa_offset 4
 2055              		.cfi_offset 14, -4
 2056 0002 83B0     		sub	sp, sp, #12
 2057              	.LCFI47:
 2058              		.cfi_def_cfa_offset 16
ARM GAS  C:\Users\8bit\AppData\Local\Temp\ccOOCmGZ.s 			page 65


1042:System/FreeRTOS/CMSIS_RTOS/cmsis_os.c ****   (void) thread_id;
 2059              		.loc 1 1042 3 is_stmt 1 view .LVU514
1043:System/FreeRTOS/CMSIS_RTOS/cmsis_os.c ****   
1044:System/FreeRTOS/CMSIS_RTOS/cmsis_os.c **** #if( configSUPPORT_STATIC_ALLOCATION == 1 ) && ( configSUPPORT_DYNAMIC_ALLOCATION == 1 )
1045:System/FreeRTOS/CMSIS_RTOS/cmsis_os.c **** 
1046:System/FreeRTOS/CMSIS_RTOS/cmsis_os.c ****   if ((queue_def->buffer != NULL) && (queue_def->controlblock != NULL)) {
 2060              		.loc 1 1046 3 view .LVU515
 2061              		.loc 1 1046 17 is_stmt 0 view .LVU516
 2062 0004 8268     		ldr	r2, [r0, #8]
 2063              		.loc 1 1046 6 view .LVU517
 2064 0006 42B1     		cbz	r2, .L144
 2065              		.loc 1 1046 48 discriminator 1 view .LVU518
 2066 0008 C368     		ldr	r3, [r0, #12]
 2067              		.loc 1 1046 35 discriminator 1 view .LVU519
 2068 000a 33B1     		cbz	r3, .L144
1047:System/FreeRTOS/CMSIS_RTOS/cmsis_os.c ****     return xQueueCreateStatic(queue_def->queue_sz, queue_def->item_sz, queue_def->buffer, queue_def
 2069              		.loc 1 1047 5 is_stmt 1 view .LVU520
 2070              		.loc 1 1047 12 is_stmt 0 view .LVU521
 2071 000c 0021     		movs	r1, #0
 2072              	.LVL168:
 2073              		.loc 1 1047 12 view .LVU522
 2074 000e 0091     		str	r1, [sp]
 2075 0010 4168     		ldr	r1, [r0, #4]
 2076 0012 0068     		ldr	r0, [r0]
 2077              	.LVL169:
 2078              		.loc 1 1047 12 view .LVU523
 2079 0014 FFF7FEFF 		bl	xQueueGenericCreateStatic
 2080              	.LVL170:
 2081 0018 04E0     		b	.L143
 2082              	.LVL171:
 2083              	.L144:
1048:System/FreeRTOS/CMSIS_RTOS/cmsis_os.c ****   }
1049:System/FreeRTOS/CMSIS_RTOS/cmsis_os.c ****   else {
1050:System/FreeRTOS/CMSIS_RTOS/cmsis_os.c ****     return xQueueCreate(queue_def->queue_sz, queue_def->item_sz);
 2084              		.loc 1 1050 5 is_stmt 1 view .LVU524
 2085              		.loc 1 1050 12 is_stmt 0 view .LVU525
 2086 001a 0022     		movs	r2, #0
 2087 001c 4168     		ldr	r1, [r0, #4]
 2088              	.LVL172:
 2089              		.loc 1 1050 12 view .LVU526
 2090 001e 0068     		ldr	r0, [r0]
 2091              	.LVL173:
 2092              		.loc 1 1050 12 view .LVU527
 2093 0020 FFF7FEFF 		bl	xQueueGenericCreate
 2094              	.LVL174:
 2095              	.L143:
1051:System/FreeRTOS/CMSIS_RTOS/cmsis_os.c ****   }
1052:System/FreeRTOS/CMSIS_RTOS/cmsis_os.c **** #elif ( configSUPPORT_STATIC_ALLOCATION == 1 )
1053:System/FreeRTOS/CMSIS_RTOS/cmsis_os.c ****   return xQueueCreateStatic(queue_def->queue_sz, queue_def->item_sz, queue_def->buffer, queue_def->
1054:System/FreeRTOS/CMSIS_RTOS/cmsis_os.c **** #else  
1055:System/FreeRTOS/CMSIS_RTOS/cmsis_os.c ****   return xQueueCreate(queue_def->queue_sz, queue_def->item_sz);
1056:System/FreeRTOS/CMSIS_RTOS/cmsis_os.c **** #endif
1057:System/FreeRTOS/CMSIS_RTOS/cmsis_os.c **** }
 2096              		.loc 1 1057 1 view .LVU528
 2097 0024 03B0     		add	sp, sp, #12
 2098              	.LCFI48:
 2099              		.cfi_def_cfa_offset 4
ARM GAS  C:\Users\8bit\AppData\Local\Temp\ccOOCmGZ.s 			page 66


 2100              		@ sp needed
 2101 0026 5DF804FB 		ldr	pc, [sp], #4
 2102              		.cfi_endproc
 2103              	.LFE141:
 2105              		.section	.text.osMessagePut,"ax",%progbits
 2106              		.align	1
 2107              		.global	osMessagePut
 2108              		.syntax unified
 2109              		.thumb
 2110              		.thumb_func
 2112              	osMessagePut:
 2113              	.LVL175:
 2114              	.LFB142:
1058:System/FreeRTOS/CMSIS_RTOS/cmsis_os.c **** 
1059:System/FreeRTOS/CMSIS_RTOS/cmsis_os.c **** /**
1060:System/FreeRTOS/CMSIS_RTOS/cmsis_os.c **** * @brief Put a Message to a Queue.
1061:System/FreeRTOS/CMSIS_RTOS/cmsis_os.c **** * @param  queue_id  message queue ID obtained with \ref osMessageCreate.
1062:System/FreeRTOS/CMSIS_RTOS/cmsis_os.c **** * @param  info      message information.
1063:System/FreeRTOS/CMSIS_RTOS/cmsis_os.c **** * @param  millisec  timeout value or 0 in case of no time-out.
1064:System/FreeRTOS/CMSIS_RTOS/cmsis_os.c **** * @retval status code that indicates the execution status of the function.
1065:System/FreeRTOS/CMSIS_RTOS/cmsis_os.c **** * @note   MUST REMAIN UNCHANGED: \b osMessagePut shall be consistent in every CMSIS-RTOS.
1066:System/FreeRTOS/CMSIS_RTOS/cmsis_os.c **** */
1067:System/FreeRTOS/CMSIS_RTOS/cmsis_os.c **** osStatus osMessagePut (osMessageQId queue_id, uint32_t info, uint32_t millisec)
1068:System/FreeRTOS/CMSIS_RTOS/cmsis_os.c **** {
 2115              		.loc 1 1068 1 is_stmt 1 view -0
 2116              		.cfi_startproc
 2117              		@ args = 0, pretend = 0, frame = 16
 2118              		@ frame_needed = 0, uses_anonymous_args = 0
 2119              		.loc 1 1068 1 is_stmt 0 view .LVU530
 2120 0000 30B5     		push	{r4, r5, lr}
 2121              	.LCFI49:
 2122              		.cfi_def_cfa_offset 12
 2123              		.cfi_offset 4, -12
 2124              		.cfi_offset 5, -8
 2125              		.cfi_offset 14, -4
 2126 0002 85B0     		sub	sp, sp, #20
 2127              	.LCFI50:
 2128              		.cfi_def_cfa_offset 32
 2129 0004 0446     		mov	r4, r0
 2130 0006 0191     		str	r1, [sp, #4]
1069:System/FreeRTOS/CMSIS_RTOS/cmsis_os.c ****   portBASE_TYPE taskWoken = pdFALSE;
 2131              		.loc 1 1069 3 is_stmt 1 view .LVU531
 2132              		.loc 1 1069 17 is_stmt 0 view .LVU532
 2133 0008 0023     		movs	r3, #0
 2134 000a 0393     		str	r3, [sp, #12]
1070:System/FreeRTOS/CMSIS_RTOS/cmsis_os.c ****   TickType_t ticks;
 2135              		.loc 1 1070 3 is_stmt 1 view .LVU533
1071:System/FreeRTOS/CMSIS_RTOS/cmsis_os.c ****   
1072:System/FreeRTOS/CMSIS_RTOS/cmsis_os.c ****   ticks = millisec / portTICK_PERIOD_MS;
 2136              		.loc 1 1072 3 view .LVU534
 2137              	.LVL176:
1073:System/FreeRTOS/CMSIS_RTOS/cmsis_os.c ****   if (ticks == 0) {
 2138              		.loc 1 1073 3 view .LVU535
 2139              		.loc 1 1073 6 is_stmt 0 view .LVU536
 2140 000c 1546     		mov	r5, r2
 2141 000e 02B9     		cbnz	r2, .L148
1074:System/FreeRTOS/CMSIS_RTOS/cmsis_os.c ****     ticks = 1;
ARM GAS  C:\Users\8bit\AppData\Local\Temp\ccOOCmGZ.s 			page 67


 2142              		.loc 1 1074 11 view .LVU537
 2143 0010 0125     		movs	r5, #1
 2144              	.L148:
 2145              	.LVL177:
1075:System/FreeRTOS/CMSIS_RTOS/cmsis_os.c ****   }
1076:System/FreeRTOS/CMSIS_RTOS/cmsis_os.c ****   
1077:System/FreeRTOS/CMSIS_RTOS/cmsis_os.c ****   if (inHandlerMode()) {
 2146              		.loc 1 1077 3 is_stmt 1 view .LVU538
 2147              		.loc 1 1077 7 is_stmt 0 view .LVU539
 2148 0012 FFF7FEFF 		bl	inHandlerMode
 2149              	.LVL178:
 2150              		.loc 1 1077 6 view .LVU540
 2151 0016 A8B1     		cbz	r0, .L149
1078:System/FreeRTOS/CMSIS_RTOS/cmsis_os.c ****     if (xQueueSendFromISR(queue_id, &info, &taskWoken) != pdTRUE) {
 2152              		.loc 1 1078 5 is_stmt 1 view .LVU541
 2153              		.loc 1 1078 9 is_stmt 0 view .LVU542
 2154 0018 0023     		movs	r3, #0
 2155 001a 03AA     		add	r2, sp, #12
 2156 001c 01A9     		add	r1, sp, #4
 2157 001e 2046     		mov	r0, r4
 2158 0020 FFF7FEFF 		bl	xQueueGenericSendFromISR
 2159              	.LVL179:
 2160              		.loc 1 1078 8 view .LVU543
 2161 0024 0128     		cmp	r0, #1
 2162 0026 18D1     		bne	.L152
1079:System/FreeRTOS/CMSIS_RTOS/cmsis_os.c ****       return osErrorOS;
1080:System/FreeRTOS/CMSIS_RTOS/cmsis_os.c ****     }
1081:System/FreeRTOS/CMSIS_RTOS/cmsis_os.c ****     portEND_SWITCHING_ISR(taskWoken);
 2163              		.loc 1 1081 5 is_stmt 1 view .LVU544
 2164 0028 039B     		ldr	r3, [sp, #12]
 2165 002a C3B1     		cbz	r3, .L153
 2166              		.loc 1 1081 5 discriminator 1 view .LVU545
 2167 002c 4FF0E023 		mov	r3, #-536813568
 2168 0030 4FF08052 		mov	r2, #268435456
 2169 0034 C3F8042D 		str	r2, [r3, #3332]
 2170              		.loc 1 1081 5 discriminator 1 view .LVU546
 2171              		.syntax unified
 2172              	@ 1081 "System/FreeRTOS/CMSIS_RTOS/cmsis_os.c" 1
 2173 0038 BFF34F8F 		dsb
 2174              	@ 0 "" 2
 2175              		.loc 1 1081 5 discriminator 1 view .LVU547
 2176              	@ 1081 "System/FreeRTOS/CMSIS_RTOS/cmsis_os.c" 1
 2177 003c BFF36F8F 		isb
 2178              	@ 0 "" 2
1082:System/FreeRTOS/CMSIS_RTOS/cmsis_os.c ****   }
1083:System/FreeRTOS/CMSIS_RTOS/cmsis_os.c ****   else {
1084:System/FreeRTOS/CMSIS_RTOS/cmsis_os.c ****     if (xQueueSend(queue_id, &info, ticks) != pdTRUE) {
1085:System/FreeRTOS/CMSIS_RTOS/cmsis_os.c ****       return osErrorOS;
1086:System/FreeRTOS/CMSIS_RTOS/cmsis_os.c ****     }
1087:System/FreeRTOS/CMSIS_RTOS/cmsis_os.c ****   }
1088:System/FreeRTOS/CMSIS_RTOS/cmsis_os.c ****   
1089:System/FreeRTOS/CMSIS_RTOS/cmsis_os.c ****   return osOK;
 2179              		.loc 1 1089 10 is_stmt 0 discriminator 1 view .LVU548
 2180              		.thumb
 2181              		.syntax unified
 2182 0040 0020     		movs	r0, #0
 2183 0042 08E0     		b	.L147
ARM GAS  C:\Users\8bit\AppData\Local\Temp\ccOOCmGZ.s 			page 68


 2184              	.L149:
1084:System/FreeRTOS/CMSIS_RTOS/cmsis_os.c ****       return osErrorOS;
 2185              		.loc 1 1084 5 is_stmt 1 view .LVU549
1084:System/FreeRTOS/CMSIS_RTOS/cmsis_os.c ****       return osErrorOS;
 2186              		.loc 1 1084 9 is_stmt 0 view .LVU550
 2187 0044 0023     		movs	r3, #0
 2188 0046 2A46     		mov	r2, r5
 2189 0048 01A9     		add	r1, sp, #4
 2190 004a 2046     		mov	r0, r4
 2191 004c FFF7FEFF 		bl	xQueueGenericSend
 2192              	.LVL180:
1084:System/FreeRTOS/CMSIS_RTOS/cmsis_os.c ****       return osErrorOS;
 2193              		.loc 1 1084 8 view .LVU551
 2194 0050 0128     		cmp	r0, #1
 2195 0052 06D1     		bne	.L154
 2196              		.loc 1 1089 10 view .LVU552
 2197 0054 0020     		movs	r0, #0
 2198              	.L147:
1090:System/FreeRTOS/CMSIS_RTOS/cmsis_os.c **** }
 2199              		.loc 1 1090 1 view .LVU553
 2200 0056 05B0     		add	sp, sp, #20
 2201              	.LCFI51:
 2202              		.cfi_remember_state
 2203              		.cfi_def_cfa_offset 12
 2204              		@ sp needed
 2205 0058 30BD     		pop	{r4, r5, pc}
 2206              	.LVL181:
 2207              	.L152:
 2208              	.LCFI52:
 2209              		.cfi_restore_state
1079:System/FreeRTOS/CMSIS_RTOS/cmsis_os.c ****     }
 2210              		.loc 1 1079 14 view .LVU554
 2211 005a FF20     		movs	r0, #255
 2212 005c FBE7     		b	.L147
 2213              	.L153:
1089:System/FreeRTOS/CMSIS_RTOS/cmsis_os.c **** }
 2214              		.loc 1 1089 10 view .LVU555
 2215 005e 0020     		movs	r0, #0
 2216 0060 F9E7     		b	.L147
 2217              	.L154:
1085:System/FreeRTOS/CMSIS_RTOS/cmsis_os.c ****     }
 2218              		.loc 1 1085 14 view .LVU556
 2219 0062 FF20     		movs	r0, #255
 2220 0064 F7E7     		b	.L147
 2221              		.cfi_endproc
 2222              	.LFE142:
 2224              		.section	.text.osMessageGet,"ax",%progbits
 2225              		.align	1
 2226              		.global	osMessageGet
 2227              		.syntax unified
 2228              		.thumb
 2229              		.thumb_func
 2231              	osMessageGet:
 2232              	.LVL182:
 2233              	.LFB143:
1091:System/FreeRTOS/CMSIS_RTOS/cmsis_os.c **** 
1092:System/FreeRTOS/CMSIS_RTOS/cmsis_os.c **** /**
ARM GAS  C:\Users\8bit\AppData\Local\Temp\ccOOCmGZ.s 			page 69


1093:System/FreeRTOS/CMSIS_RTOS/cmsis_os.c **** * @brief Get a Message or Wait for a Message from a Queue.
1094:System/FreeRTOS/CMSIS_RTOS/cmsis_os.c **** * @param  queue_id  message queue ID obtained with \ref osMessageCreate.
1095:System/FreeRTOS/CMSIS_RTOS/cmsis_os.c **** * @param  millisec  timeout value or 0 in case of no time-out.
1096:System/FreeRTOS/CMSIS_RTOS/cmsis_os.c **** * @retval event information that includes status code.
1097:System/FreeRTOS/CMSIS_RTOS/cmsis_os.c **** * @note   MUST REMAIN UNCHANGED: \b osMessageGet shall be consistent in every CMSIS-RTOS.
1098:System/FreeRTOS/CMSIS_RTOS/cmsis_os.c **** */
1099:System/FreeRTOS/CMSIS_RTOS/cmsis_os.c **** osEvent osMessageGet (osMessageQId queue_id, uint32_t millisec)
1100:System/FreeRTOS/CMSIS_RTOS/cmsis_os.c **** {
 2234              		.loc 1 1100 1 is_stmt 1 view -0
 2235              		.cfi_startproc
 2236              		@ args = 0, pretend = 0, frame = 16
 2237              		@ frame_needed = 0, uses_anonymous_args = 0
 2238              		.loc 1 1100 1 is_stmt 0 view .LVU558
 2239 0000 70B5     		push	{r4, r5, r6, lr}
 2240              	.LCFI53:
 2241              		.cfi_def_cfa_offset 16
 2242              		.cfi_offset 4, -16
 2243              		.cfi_offset 5, -12
 2244              		.cfi_offset 6, -8
 2245              		.cfi_offset 14, -4
 2246 0002 84B0     		sub	sp, sp, #16
 2247              	.LCFI54:
 2248              		.cfi_def_cfa_offset 32
 2249 0004 0446     		mov	r4, r0
1101:System/FreeRTOS/CMSIS_RTOS/cmsis_os.c ****   portBASE_TYPE taskWoken;
 2250              		.loc 1 1101 3 is_stmt 1 view .LVU559
1102:System/FreeRTOS/CMSIS_RTOS/cmsis_os.c ****   TickType_t ticks;
 2251              		.loc 1 1102 3 view .LVU560
1103:System/FreeRTOS/CMSIS_RTOS/cmsis_os.c ****   osEvent event;
 2252              		.loc 1 1103 3 view .LVU561
1104:System/FreeRTOS/CMSIS_RTOS/cmsis_os.c ****   
1105:System/FreeRTOS/CMSIS_RTOS/cmsis_os.c ****   event.def.message_id = queue_id;
 2253              		.loc 1 1105 3 view .LVU562
 2254              		.loc 1 1105 24 is_stmt 0 view .LVU563
 2255 0006 0291     		str	r1, [sp, #8]
1106:System/FreeRTOS/CMSIS_RTOS/cmsis_os.c ****   event.value.v = 0;
 2256              		.loc 1 1106 3 is_stmt 1 view .LVU564
 2257              		.loc 1 1106 17 is_stmt 0 view .LVU565
 2258 0008 0023     		movs	r3, #0
 2259 000a 0193     		str	r3, [sp, #4]
1107:System/FreeRTOS/CMSIS_RTOS/cmsis_os.c ****   
1108:System/FreeRTOS/CMSIS_RTOS/cmsis_os.c ****   if (queue_id == NULL) {
 2260              		.loc 1 1108 3 is_stmt 1 view .LVU566
 2261              		.loc 1 1108 6 is_stmt 0 view .LVU567
 2262 000c E1B1     		cbz	r1, .L167
 2263 000e 0D46     		mov	r5, r1
 2264 0010 1646     		mov	r6, r2
1109:System/FreeRTOS/CMSIS_RTOS/cmsis_os.c ****     event.status = osErrorParameter;
1110:System/FreeRTOS/CMSIS_RTOS/cmsis_os.c ****     return event;
1111:System/FreeRTOS/CMSIS_RTOS/cmsis_os.c ****   }
1112:System/FreeRTOS/CMSIS_RTOS/cmsis_os.c ****   
1113:System/FreeRTOS/CMSIS_RTOS/cmsis_os.c ****   taskWoken = pdFALSE;
 2265              		.loc 1 1113 3 is_stmt 1 view .LVU568
 2266              		.loc 1 1113 13 is_stmt 0 view .LVU569
 2267 0012 0023     		movs	r3, #0
 2268 0014 0393     		str	r3, [sp, #12]
1114:System/FreeRTOS/CMSIS_RTOS/cmsis_os.c ****   
ARM GAS  C:\Users\8bit\AppData\Local\Temp\ccOOCmGZ.s 			page 70


1115:System/FreeRTOS/CMSIS_RTOS/cmsis_os.c ****   ticks = 0;
 2269              		.loc 1 1115 3 is_stmt 1 view .LVU570
 2270              	.LVL183:
1116:System/FreeRTOS/CMSIS_RTOS/cmsis_os.c ****   if (millisec == osWaitForever) {
 2271              		.loc 1 1116 3 view .LVU571
1117:System/FreeRTOS/CMSIS_RTOS/cmsis_os.c ****     ticks = portMAX_DELAY;
1118:System/FreeRTOS/CMSIS_RTOS/cmsis_os.c ****   }
1119:System/FreeRTOS/CMSIS_RTOS/cmsis_os.c ****   else if (millisec != 0) {
1120:System/FreeRTOS/CMSIS_RTOS/cmsis_os.c ****     ticks = millisec / portTICK_PERIOD_MS;
1121:System/FreeRTOS/CMSIS_RTOS/cmsis_os.c ****     if (ticks == 0) {
1122:System/FreeRTOS/CMSIS_RTOS/cmsis_os.c ****       ticks = 1;
1123:System/FreeRTOS/CMSIS_RTOS/cmsis_os.c ****     }
1124:System/FreeRTOS/CMSIS_RTOS/cmsis_os.c ****   }
1125:System/FreeRTOS/CMSIS_RTOS/cmsis_os.c ****   
1126:System/FreeRTOS/CMSIS_RTOS/cmsis_os.c ****   if (inHandlerMode()) {
 2272              		.loc 1 1126 3 view .LVU572
 2273              		.loc 1 1126 7 is_stmt 0 view .LVU573
 2274 0016 FFF7FEFF 		bl	inHandlerMode
 2275              	.LVL184:
 2276              		.loc 1 1126 6 view .LVU574
 2277 001a 00B3     		cbz	r0, .L159
1127:System/FreeRTOS/CMSIS_RTOS/cmsis_os.c ****     if (xQueueReceiveFromISR(queue_id, &event.value.v, &taskWoken) == pdTRUE) {
 2278              		.loc 1 1127 5 is_stmt 1 view .LVU575
 2279              		.loc 1 1127 9 is_stmt 0 view .LVU576
 2280 001c 03AA     		add	r2, sp, #12
 2281 001e 01A9     		add	r1, sp, #4
 2282 0020 2846     		mov	r0, r5
 2283 0022 FFF7FEFF 		bl	xQueueReceiveFromISR
 2284              	.LVL185:
 2285              		.loc 1 1127 8 view .LVU577
 2286 0026 0128     		cmp	r0, #1
 2287 0028 16D0     		beq	.L168
1128:System/FreeRTOS/CMSIS_RTOS/cmsis_os.c ****       /* We have mail */
1129:System/FreeRTOS/CMSIS_RTOS/cmsis_os.c ****       event.status = osEventMessage;
1130:System/FreeRTOS/CMSIS_RTOS/cmsis_os.c ****     }
1131:System/FreeRTOS/CMSIS_RTOS/cmsis_os.c ****     else {
1132:System/FreeRTOS/CMSIS_RTOS/cmsis_os.c ****       event.status = osOK;
 2288              		.loc 1 1132 7 is_stmt 1 view .LVU578
 2289              		.loc 1 1132 20 is_stmt 0 view .LVU579
 2290 002a 0023     		movs	r3, #0
 2291 002c 0093     		str	r3, [sp]
 2292              	.L161:
1133:System/FreeRTOS/CMSIS_RTOS/cmsis_os.c ****     }
1134:System/FreeRTOS/CMSIS_RTOS/cmsis_os.c ****     portEND_SWITCHING_ISR(taskWoken);
 2293              		.loc 1 1134 5 is_stmt 1 view .LVU580
 2294 002e 039B     		ldr	r3, [sp, #12]
 2295 0030 FBB1     		cbz	r3, .L162
 2296              		.loc 1 1134 5 discriminator 1 view .LVU581
 2297 0032 4FF0E023 		mov	r3, #-536813568
 2298 0036 4FF08052 		mov	r2, #268435456
 2299 003a C3F8042D 		str	r2, [r3, #3332]
 2300              		.loc 1 1134 5 discriminator 1 view .LVU582
 2301              		.syntax unified
 2302              	@ 1134 "System/FreeRTOS/CMSIS_RTOS/cmsis_os.c" 1
 2303 003e BFF34F8F 		dsb
 2304              	@ 0 "" 2
 2305              		.loc 1 1134 5 discriminator 1 view .LVU583
ARM GAS  C:\Users\8bit\AppData\Local\Temp\ccOOCmGZ.s 			page 71


 2306              	@ 1134 "System/FreeRTOS/CMSIS_RTOS/cmsis_os.c" 1
 2307 0042 BFF36F8F 		isb
 2308              	@ 0 "" 2
 2309              		.thumb
 2310              		.syntax unified
 2311 0046 14E0     		b	.L162
 2312              	.LVL186:
 2313              	.L167:
1109:System/FreeRTOS/CMSIS_RTOS/cmsis_os.c ****     return event;
 2314              		.loc 1 1109 5 view .LVU584
1109:System/FreeRTOS/CMSIS_RTOS/cmsis_os.c ****     return event;
 2315              		.loc 1 1109 18 is_stmt 0 view .LVU585
 2316 0048 8023     		movs	r3, #128
 2317 004a 0093     		str	r3, [sp]
1110:System/FreeRTOS/CMSIS_RTOS/cmsis_os.c ****   }
 2318              		.loc 1 1110 5 is_stmt 1 view .LVU586
1110:System/FreeRTOS/CMSIS_RTOS/cmsis_os.c ****   }
 2319              		.loc 1 1110 12 is_stmt 0 view .LVU587
 2320 004c 6B46     		mov	r3, sp
 2321 004e 93E80700 		ldm	r3, {r0, r1, r2}
 2322              	.LVL187:
1110:System/FreeRTOS/CMSIS_RTOS/cmsis_os.c ****   }
 2323              		.loc 1 1110 12 view .LVU588
 2324 0052 84E80700 		stm	r4, {r0, r1, r2}
 2325 0056 11E0     		b	.L156
 2326              	.LVL188:
 2327              	.L168:
1129:System/FreeRTOS/CMSIS_RTOS/cmsis_os.c ****     }
 2328              		.loc 1 1129 7 is_stmt 1 view .LVU589
1129:System/FreeRTOS/CMSIS_RTOS/cmsis_os.c ****     }
 2329              		.loc 1 1129 20 is_stmt 0 view .LVU590
 2330 0058 1023     		movs	r3, #16
 2331 005a 0093     		str	r3, [sp]
 2332 005c E7E7     		b	.L161
 2333              	.L159:
1135:System/FreeRTOS/CMSIS_RTOS/cmsis_os.c ****   }
1136:System/FreeRTOS/CMSIS_RTOS/cmsis_os.c ****   else {
1137:System/FreeRTOS/CMSIS_RTOS/cmsis_os.c ****     if (xQueueReceive(queue_id, &event.value.v, ticks) == pdTRUE) {
 2334              		.loc 1 1137 5 is_stmt 1 view .LVU591
 2335              		.loc 1 1137 9 is_stmt 0 view .LVU592
 2336 005e 3246     		mov	r2, r6
 2337 0060 01A9     		add	r1, sp, #4
 2338 0062 2846     		mov	r0, r5
 2339 0064 FFF7FEFF 		bl	xQueueReceive
 2340              	.LVL189:
 2341              		.loc 1 1137 8 view .LVU593
 2342 0068 0128     		cmp	r0, #1
 2343 006a 0AD0     		beq	.L169
1138:System/FreeRTOS/CMSIS_RTOS/cmsis_os.c ****       /* We have mail */
1139:System/FreeRTOS/CMSIS_RTOS/cmsis_os.c ****       event.status = osEventMessage;
1140:System/FreeRTOS/CMSIS_RTOS/cmsis_os.c ****     }
1141:System/FreeRTOS/CMSIS_RTOS/cmsis_os.c ****     else {
1142:System/FreeRTOS/CMSIS_RTOS/cmsis_os.c ****       event.status = (ticks == 0) ? osOK : osEventTimeout;
 2344              		.loc 1 1142 7 is_stmt 1 view .LVU594
 2345              		.loc 1 1142 42 is_stmt 0 view .LVU595
 2346 006c 06B1     		cbz	r6, .L164
 2347 006e 4026     		movs	r6, #64
ARM GAS  C:\Users\8bit\AppData\Local\Temp\ccOOCmGZ.s 			page 72


 2348              	.LVL190:
 2349              	.L164:
 2350              		.loc 1 1142 20 discriminator 4 view .LVU596
 2351 0070 0096     		str	r6, [sp]
 2352              	.L162:
1143:System/FreeRTOS/CMSIS_RTOS/cmsis_os.c ****     }
1144:System/FreeRTOS/CMSIS_RTOS/cmsis_os.c ****   }
1145:System/FreeRTOS/CMSIS_RTOS/cmsis_os.c ****   
1146:System/FreeRTOS/CMSIS_RTOS/cmsis_os.c ****   return event;
 2353              		.loc 1 1146 3 is_stmt 1 view .LVU597
 2354              		.loc 1 1146 10 is_stmt 0 view .LVU598
 2355 0072 6B46     		mov	r3, sp
 2356 0074 93E80700 		ldm	r3, {r0, r1, r2}
 2357 0078 84E80700 		stm	r4, {r0, r1, r2}
 2358              	.LVL191:
 2359              	.L156:
1147:System/FreeRTOS/CMSIS_RTOS/cmsis_os.c **** }
 2360              		.loc 1 1147 1 view .LVU599
 2361 007c 2046     		mov	r0, r4
 2362 007e 04B0     		add	sp, sp, #16
 2363              	.LCFI55:
 2364              		.cfi_remember_state
 2365              		.cfi_def_cfa_offset 16
 2366              		@ sp needed
 2367 0080 70BD     		pop	{r4, r5, r6, pc}
 2368              	.LVL192:
 2369              	.L169:
 2370              	.LCFI56:
 2371              		.cfi_restore_state
1139:System/FreeRTOS/CMSIS_RTOS/cmsis_os.c ****     }
 2372              		.loc 1 1139 7 is_stmt 1 view .LVU600
1139:System/FreeRTOS/CMSIS_RTOS/cmsis_os.c ****     }
 2373              		.loc 1 1139 20 is_stmt 0 view .LVU601
 2374 0082 1023     		movs	r3, #16
 2375 0084 0093     		str	r3, [sp]
 2376 0086 F4E7     		b	.L162
 2377              		.cfi_endproc
 2378              	.LFE143:
 2380              		.section	.text.osMailCreate,"ax",%progbits
 2381              		.align	1
 2382              		.global	osMailCreate
 2383              		.syntax unified
 2384              		.thumb
 2385              		.thumb_func
 2387              	osMailCreate:
 2388              	.LVL193:
 2389              	.LFB144:
1148:System/FreeRTOS/CMSIS_RTOS/cmsis_os.c **** 
1149:System/FreeRTOS/CMSIS_RTOS/cmsis_os.c **** #endif     /* Use Message Queues */
1150:System/FreeRTOS/CMSIS_RTOS/cmsis_os.c **** 
1151:System/FreeRTOS/CMSIS_RTOS/cmsis_os.c **** /********************   Mail Queue Management Functions  ***********************/
1152:System/FreeRTOS/CMSIS_RTOS/cmsis_os.c **** #if (defined (osFeature_MailQ)  &&  (osFeature_MailQ != 0))  /* Use Mail Queues */
1153:System/FreeRTOS/CMSIS_RTOS/cmsis_os.c **** 
1154:System/FreeRTOS/CMSIS_RTOS/cmsis_os.c **** 
1155:System/FreeRTOS/CMSIS_RTOS/cmsis_os.c **** typedef struct os_mailQ_cb {
1156:System/FreeRTOS/CMSIS_RTOS/cmsis_os.c ****   const osMailQDef_t *queue_def;
1157:System/FreeRTOS/CMSIS_RTOS/cmsis_os.c ****   QueueHandle_t handle;
ARM GAS  C:\Users\8bit\AppData\Local\Temp\ccOOCmGZ.s 			page 73


1158:System/FreeRTOS/CMSIS_RTOS/cmsis_os.c ****   osPoolId pool;
1159:System/FreeRTOS/CMSIS_RTOS/cmsis_os.c **** } os_mailQ_cb_t;
1160:System/FreeRTOS/CMSIS_RTOS/cmsis_os.c **** 
1161:System/FreeRTOS/CMSIS_RTOS/cmsis_os.c **** /**
1162:System/FreeRTOS/CMSIS_RTOS/cmsis_os.c **** * @brief Create and Initialize mail queue
1163:System/FreeRTOS/CMSIS_RTOS/cmsis_os.c **** * @param  queue_def     reference to the mail queue definition obtain with \ref osMailQ
1164:System/FreeRTOS/CMSIS_RTOS/cmsis_os.c **** * @param   thread_id     thread ID (obtained by \ref osThreadCreate or \ref osThreadGetId) or NULL.
1165:System/FreeRTOS/CMSIS_RTOS/cmsis_os.c **** * @retval mail queue ID for reference by other functions or NULL in case of error.
1166:System/FreeRTOS/CMSIS_RTOS/cmsis_os.c **** * @note   MUST REMAIN UNCHANGED: \b osMailCreate shall be consistent in every CMSIS-RTOS.
1167:System/FreeRTOS/CMSIS_RTOS/cmsis_os.c **** */
1168:System/FreeRTOS/CMSIS_RTOS/cmsis_os.c **** osMailQId osMailCreate (const osMailQDef_t *queue_def, osThreadId thread_id)
1169:System/FreeRTOS/CMSIS_RTOS/cmsis_os.c **** {
 2390              		.loc 1 1169 1 is_stmt 1 view -0
 2391              		.cfi_startproc
 2392              		@ args = 0, pretend = 0, frame = 16
 2393              		@ frame_needed = 0, uses_anonymous_args = 0
 2394              		.loc 1 1169 1 is_stmt 0 view .LVU603
 2395 0000 70B5     		push	{r4, r5, r6, lr}
 2396              	.LCFI57:
 2397              		.cfi_def_cfa_offset 16
 2398              		.cfi_offset 4, -16
 2399              		.cfi_offset 5, -12
 2400              		.cfi_offset 6, -8
 2401              		.cfi_offset 14, -4
 2402 0002 84B0     		sub	sp, sp, #16
 2403              	.LCFI58:
 2404              		.cfi_def_cfa_offset 32
 2405 0004 0446     		mov	r4, r0
1170:System/FreeRTOS/CMSIS_RTOS/cmsis_os.c **** #if (configSUPPORT_DYNAMIC_ALLOCATION == 1)
1171:System/FreeRTOS/CMSIS_RTOS/cmsis_os.c ****   (void) thread_id;
 2406              		.loc 1 1171 3 is_stmt 1 view .LVU604
1172:System/FreeRTOS/CMSIS_RTOS/cmsis_os.c ****   
1173:System/FreeRTOS/CMSIS_RTOS/cmsis_os.c ****   osPoolDef_t pool_def = {queue_def->queue_sz, queue_def->item_sz, NULL};
 2407              		.loc 1 1173 3 view .LVU605
 2408              		.loc 1 1173 36 is_stmt 0 view .LVU606
 2409 0006 0368     		ldr	r3, [r0]
 2410              		.loc 1 1173 15 view .LVU607
 2411 0008 0193     		str	r3, [sp, #4]
 2412              		.loc 1 1173 57 view .LVU608
 2413 000a 4368     		ldr	r3, [r0, #4]
 2414              		.loc 1 1173 15 view .LVU609
 2415 000c 0293     		str	r3, [sp, #8]
 2416 000e 0023     		movs	r3, #0
 2417 0010 0393     		str	r3, [sp, #12]
1174:System/FreeRTOS/CMSIS_RTOS/cmsis_os.c ****   
1175:System/FreeRTOS/CMSIS_RTOS/cmsis_os.c ****   /* Create a mail queue control block */
1176:System/FreeRTOS/CMSIS_RTOS/cmsis_os.c **** 
1177:System/FreeRTOS/CMSIS_RTOS/cmsis_os.c ****   *(queue_def->cb) = pvPortMalloc(sizeof(struct os_mailQ_cb));
 2418              		.loc 1 1177 3 is_stmt 1 view .LVU610
 2419              		.loc 1 1177 14 is_stmt 0 view .LVU611
 2420 0012 8568     		ldr	r5, [r0, #8]
 2421              		.loc 1 1177 22 view .LVU612
 2422 0014 0C20     		movs	r0, #12
 2423              	.LVL194:
 2424              		.loc 1 1177 22 view .LVU613
 2425 0016 FFF7FEFF 		bl	pvPortMalloc
 2426              	.LVL195:
ARM GAS  C:\Users\8bit\AppData\Local\Temp\ccOOCmGZ.s 			page 74


 2427              		.loc 1 1177 20 view .LVU614
 2428 001a 2860     		str	r0, [r5]
1178:System/FreeRTOS/CMSIS_RTOS/cmsis_os.c **** 
1179:System/FreeRTOS/CMSIS_RTOS/cmsis_os.c ****   if (*(queue_def->cb) == NULL) {
 2429              		.loc 1 1179 3 is_stmt 1 view .LVU615
 2430              		.loc 1 1179 18 is_stmt 0 view .LVU616
 2431 001c A368     		ldr	r3, [r4, #8]
 2432              		.loc 1 1179 7 view .LVU617
 2433 001e 1D68     		ldr	r5, [r3]
 2434              		.loc 1 1179 6 view .LVU618
 2435 0020 A5B1     		cbz	r5, .L170
1180:System/FreeRTOS/CMSIS_RTOS/cmsis_os.c ****     return NULL;
1181:System/FreeRTOS/CMSIS_RTOS/cmsis_os.c ****   }
1182:System/FreeRTOS/CMSIS_RTOS/cmsis_os.c ****   (*(queue_def->cb))->queue_def = queue_def;
 2436              		.loc 1 1182 3 is_stmt 1 view .LVU619
 2437              		.loc 1 1182 33 is_stmt 0 view .LVU620
 2438 0022 2C60     		str	r4, [r5]
1183:System/FreeRTOS/CMSIS_RTOS/cmsis_os.c ****   
1184:System/FreeRTOS/CMSIS_RTOS/cmsis_os.c ****   /* Create a queue in FreeRTOS */
1185:System/FreeRTOS/CMSIS_RTOS/cmsis_os.c ****   (*(queue_def->cb))->handle = xQueueCreate(queue_def->queue_sz, sizeof(void *));
 2439              		.loc 1 1185 3 is_stmt 1 view .LVU621
 2440              		.loc 1 1185 15 is_stmt 0 view .LVU622
 2441 0024 A368     		ldr	r3, [r4, #8]
 2442              		.loc 1 1185 4 view .LVU623
 2443 0026 1D68     		ldr	r5, [r3]
 2444              		.loc 1 1185 32 view .LVU624
 2445 0028 0022     		movs	r2, #0
 2446 002a 0421     		movs	r1, #4
 2447 002c 2068     		ldr	r0, [r4]
 2448 002e FFF7FEFF 		bl	xQueueGenericCreate
 2449              	.LVL196:
 2450              		.loc 1 1185 30 view .LVU625
 2451 0032 6860     		str	r0, [r5, #4]
1186:System/FreeRTOS/CMSIS_RTOS/cmsis_os.c **** 
1187:System/FreeRTOS/CMSIS_RTOS/cmsis_os.c **** 
1188:System/FreeRTOS/CMSIS_RTOS/cmsis_os.c ****   if ((*(queue_def->cb))->handle == NULL) {
 2452              		.loc 1 1188 3 is_stmt 1 view .LVU626
 2453              		.loc 1 1188 19 is_stmt 0 view .LVU627
 2454 0034 A368     		ldr	r3, [r4, #8]
 2455              		.loc 1 1188 8 view .LVU628
 2456 0036 1E68     		ldr	r6, [r3]
 2457              		.loc 1 1188 25 view .LVU629
 2458 0038 7568     		ldr	r5, [r6, #4]
 2459              		.loc 1 1188 6 view .LVU630
 2460 003a 55B1     		cbz	r5, .L174
1189:System/FreeRTOS/CMSIS_RTOS/cmsis_os.c ****     vPortFree(*(queue_def->cb));
