ARM GAS  C:\Users\8bit\AppData\Local\Temp\ccDKYaHL.s 			page 1


   1              		.cpu cortex-m4
   2              		.arch armv7e-m
   3              		.fpu fpv4-sp-d16
   4              		.eabi_attribute 27, 1
   5              		.eabi_attribute 28, 1
   6              		.eabi_attribute 20, 1
   7              		.eabi_attribute 21, 1
   8              		.eabi_attribute 23, 3
   9              		.eabi_attribute 24, 1
  10              		.eabi_attribute 25, 1
  11              		.eabi_attribute 26, 1
  12              		.eabi_attribute 30, 1
  13              		.eabi_attribute 34, 1
  14              		.eabi_attribute 18, 4
  15              		.file	"controller.c"
  16              		.text
  17              	.Ltext0:
  18              		.cfi_sections	.debug_frame
  19              		.section	.text.Controller_AttControl,"ax",%progbits
  20              		.align	1
  21              		.syntax unified
  22              		.thumb
  23              		.thumb_func
  25              	Controller_AttControl:
  26              	.LVL0:
  27              	.LFB149:
  28              		.file 1 "Algorithm/Control_Dep/controller.c"
   1:Algorithm/Control_Dep/controller.c **** #include "controller.h"
   2:Algorithm/Control_Dep/controller.c **** #include "../../System/storage/Storage.h"
   3:Algorithm/Control_Dep/controller.c **** #include "shell_port.h"
   4:Algorithm/Control_Dep/controller.c **** #include "Att_Casecade_PID.h"
   5:Algorithm/Control_Dep/controller.c **** 
   6:Algorithm/Control_Dep/controller.c **** #define ATTITUDE_PID_PARAM_SEC_NAME "pid_att"
   7:Algorithm/Control_Dep/controller.c **** #define ALTITUDE_PID_PARAM_SEC_NAME "pid_alt"
   8:Algorithm/Control_Dep/controller.c **** 
   9:Algorithm/Control_Dep/controller.c **** typedef struct
  10:Algorithm/Control_Dep/controller.c **** {
  11:Algorithm/Control_Dep/controller.c ****     Storage_ItemSearchOut_TypeDef Att_SSO;  /* attitude control parameter section search out */
  12:Algorithm/Control_Dep/controller.c ****     Storage_ItemSearchOut_TypeDef Alt_SSO;  /* altitude control parameter section search out */
  13:Algorithm/Control_Dep/controller.c **** } ControllerMonitor_TypeDef;
  14:Algorithm/Control_Dep/controller.c **** 
  15:Algorithm/Control_Dep/controller.c **** /* internanl vriable */
  16:Algorithm/Control_Dep/controller.c **** ControllerMonitor_TypeDef ControllerMonitor;
  17:Algorithm/Control_Dep/controller.c **** 
  18:Algorithm/Control_Dep/controller.c **** /* internal function */
  19:Algorithm/Control_Dep/controller.c **** /* PID controller section */
  20:Algorithm/Control_Dep/controller.c **** static bool Controller_PID_AttControl_ParamLoad(void);
  21:Algorithm/Control_Dep/controller.c **** 
  22:Algorithm/Control_Dep/controller.c **** /* external function */
  23:Algorithm/Control_Dep/controller.c **** /* attitude section */
  24:Algorithm/Control_Dep/controller.c **** static bool Controller_Att_Init(ControlMode_List mode);
  25:Algorithm/Control_Dep/controller.c **** static bool Controller_AttControl(ControlMode_List mode, uint32_t sys_ms, bool angular_only, AttCon
  26:Algorithm/Control_Dep/controller.c **** 
  27:Algorithm/Control_Dep/controller.c **** /* altitude section */
  28:Algorithm/Control_Dep/controller.c **** static bool Controller_Alt_Init(ControlMode_List mode);
  29:Algorithm/Control_Dep/controller.c **** 
  30:Algorithm/Control_Dep/controller.c **** Control_TypeDef Controller = {
ARM GAS  C:\Users\8bit\AppData\Local\Temp\ccDKYaHL.s 			page 2


  31:Algorithm/Control_Dep/controller.c ****     .att_ctl_init = Controller_Att_Init,
  32:Algorithm/Control_Dep/controller.c ****     .alt_ctl_init = Controller_Alt_Init,
  33:Algorithm/Control_Dep/controller.c ****     
  34:Algorithm/Control_Dep/controller.c ****     .att_ctl = Controller_AttControl,
  35:Algorithm/Control_Dep/controller.c **** };
  36:Algorithm/Control_Dep/controller.c **** 
  37:Algorithm/Control_Dep/controller.c **** static bool Controller_Att_Init(ControlMode_List mode)
  38:Algorithm/Control_Dep/controller.c **** {
  39:Algorithm/Control_Dep/controller.c ****     memset(&ControllerMonitor.Att_SSO, 0, sizeof(Storage_ItemSearchOut_TypeDef));
  40:Algorithm/Control_Dep/controller.c **** 
  41:Algorithm/Control_Dep/controller.c ****     switch ((uint8_t) mode)
  42:Algorithm/Control_Dep/controller.c ****     {
  43:Algorithm/Control_Dep/controller.c ****         case CtlM_PID: return Controller_PID_AttControl_ParamLoad();
  44:Algorithm/Control_Dep/controller.c ****         default: return false;
  45:Algorithm/Control_Dep/controller.c ****     }
  46:Algorithm/Control_Dep/controller.c **** 
  47:Algorithm/Control_Dep/controller.c ****     return false;
  48:Algorithm/Control_Dep/controller.c **** }
  49:Algorithm/Control_Dep/controller.c **** 
  50:Algorithm/Control_Dep/controller.c **** static bool Controller_AttControl(ControlMode_List mode, uint32_t sys_ms, bool angular_only, AttCon
  51:Algorithm/Control_Dep/controller.c **** {
  29              		.loc 1 51 1 view -0
  30              		.cfi_startproc
  31              		@ args = 48, pretend = 8, frame = 0
  32              		@ frame_needed = 0, uses_anonymous_args = 0
  33              		.loc 1 51 1 is_stmt 0 view .LVU1
  34 0000 82B0     		sub	sp, sp, #8
  35              	.LCFI0:
  36              		.cfi_def_cfa_offset 8
  37 0002 70B5     		push	{r4, r5, r6, lr}
  38              	.LCFI1:
  39              		.cfi_def_cfa_offset 24
  40              		.cfi_offset 4, -24
  41              		.cfi_offset 5, -20
  42              		.cfi_offset 6, -16
  43              		.cfi_offset 14, -12
  44 0004 8AB0     		sub	sp, sp, #40
  45              	.LCFI2:
  46              		.cfi_def_cfa_offset 64
  47 0006 0F93     		str	r3, [sp, #60]
  52:Algorithm/Control_Dep/controller.c ****     switch ((uint8_t) mode)
  48              		.loc 1 52 5 is_stmt 1 view .LVU2
  49 0008 00BB     		cbnz	r0, .L3
  50 000a 0D46     		mov	r5, r1
  51 000c 1446     		mov	r4, r2
  53:Algorithm/Control_Dep/controller.c ****     {
  54:Algorithm/Control_Dep/controller.c ****         case CtlM_PID: return Att_CasecadePID_Controller.process(sys_ms, angular_only, exp, mea, ou
  52              		.loc 1 54 24 view .LVU3
  53              		.loc 1 54 57 is_stmt 0 view .LVU4
  54 000e 104B     		ldr	r3, .L5
  55 0010 9E68     		ldr	r6, [r3, #8]
  56              		.loc 1 54 31 view .LVU5
  57 0012 199B     		ldr	r3, [sp, #100]
  58 0014 0893     		str	r3, [sp, #32]
  59 0016 0DF10C0C 		add	ip, sp, #12
  60 001a 0DF1500E 		add	lr, sp, #80
  61 001e BEE80F00 		ldmia	lr!, {r0, r1, r2, r3}
ARM GAS  C:\Users\8bit\AppData\Local\Temp\ccDKYaHL.s 			page 3


  62              	.LVL1:
  63              		.loc 1 54 31 view .LVU6
  64 0022 ACE80F00 		stmia	ip!, {r0, r1, r2, r3}
  65 0026 DEF80030 		ldr	r3, [lr]
  66 002a CCF80030 		str	r3, [ip]
  67 002e 11AB     		add	r3, sp, #68
  68 0030 93E80700 		ldm	r3, {r0, r1, r2}
  69 0034 8DE80700 		stm	sp, {r0, r1, r2}
  70 0038 0FAB     		add	r3, sp, #60
  71 003a 0CCB     		ldm	r3, {r2, r3}
  72 003c 2146     		mov	r1, r4
  73 003e 2846     		mov	r0, r5
  74 0040 B047     		blx	r6
  75              	.LVL2:
  76              	.L2:
  55:Algorithm/Control_Dep/controller.c ****         default: return false;
  56:Algorithm/Control_Dep/controller.c ****     }
  57:Algorithm/Control_Dep/controller.c **** 
  58:Algorithm/Control_Dep/controller.c ****     return false;
  59:Algorithm/Control_Dep/controller.c **** }
  77              		.loc 1 59 1 view .LVU7
  78 0042 0AB0     		add	sp, sp, #40
  79              	.LCFI3:
  80              		.cfi_remember_state
  81              		.cfi_def_cfa_offset 24
  82              		@ sp needed
  83 0044 BDE87040 		pop	{r4, r5, r6, lr}
  84              	.LCFI4:
  85              		.cfi_restore 14
  86              		.cfi_restore 6
  87              		.cfi_restore 5
  88              		.cfi_restore 4
  89              		.cfi_def_cfa_offset 8
  90 0048 02B0     		add	sp, sp, #8
  91              	.LCFI5:
  92              		.cfi_def_cfa_offset 0
  93 004a 7047     		bx	lr
  94              	.LVL3:
  95              	.L3:
  96              	.LCFI6:
  97              		.cfi_restore_state
  55:Algorithm/Control_Dep/controller.c ****         default: return false;
  98              		.loc 1 55 25 view .LVU8
  99 004c 0020     		movs	r0, #0
 100              	.LVL4:
  55:Algorithm/Control_Dep/controller.c ****         default: return false;
 101              		.loc 1 55 25 view .LVU9
 102 004e F8E7     		b	.L2
 103              	.L6:
 104              		.align	2
 105              	.L5:
 106 0050 00000000 		.word	Att_CasecadePID_Controller
 107              		.cfi_endproc
 108              	.LFE149:
 110              		.section	.rodata.Controller_PID_AttControl_ParamLoad.str1.4,"aMS",%progbits,1
 111              		.align	2
 112              	.LC0:
ARM GAS  C:\Users\8bit\AppData\Local\Temp\ccDKYaHL.s 			page 4


 113 0000 7069645F 		.ascii	"pid_att\000"
 113      61747400 
 114              		.section	.text.Controller_PID_AttControl_ParamLoad,"ax",%progbits
 115              		.align	1
 116              		.syntax unified
 117              		.thumb
 118              		.thumb_func
 120              	Controller_PID_AttControl_ParamLoad:
 121              	.LFB150:
  60:Algorithm/Control_Dep/controller.c **** 
  61:Algorithm/Control_Dep/controller.c **** /****************************************************************** pid controller section ********
  62:Algorithm/Control_Dep/controller.c **** static bool Controller_PID_AttControl_ParamLoad(void)
  63:Algorithm/Control_Dep/controller.c **** {
 122              		.loc 1 63 1 is_stmt 1 view -0
 123              		.cfi_startproc
 124              		@ args = 0, pretend = 0, frame = 240
 125              		@ frame_needed = 0, uses_anonymous_args = 0
  64:Algorithm/Control_Dep/controller.c ****     Storage_ErrorCode_List stor_err = Storage_Error_None;
 126              		.loc 1 64 5 view .LVU11
 127              	.LVL5:
  65:Algorithm/Control_Dep/controller.c ****     AttCaseCadePID_Param_TypeDef pid_param;
 128              		.loc 1 65 5 view .LVU12
  66:Algorithm/Control_Dep/controller.c **** 
  67:Algorithm/Control_Dep/controller.c ****     if (Att_CasecadePID_Controller.default_param == NULL)
 129              		.loc 1 67 5 view .LVU13
 130              		.loc 1 67 35 is_stmt 0 view .LVU14
 131 0000 354B     		ldr	r3, .L19
 132 0002 5B68     		ldr	r3, [r3, #4]
 133              		.loc 1 67 8 view .LVU15
 134 0004 002B     		cmp	r3, #0
 135 0006 64D0     		beq	.L12
  63:Algorithm/Control_Dep/controller.c ****     Storage_ErrorCode_List stor_err = Storage_Error_None;
 136              		.loc 1 63 1 view .LVU16
 137 0008 2DE9F043 		push	{r4, r5, r6, r7, r8, r9, lr}
 138              	.LCFI7:
 139              		.cfi_def_cfa_offset 28
 140              		.cfi_offset 4, -28
 141              		.cfi_offset 5, -24
 142              		.cfi_offset 6, -20
 143              		.cfi_offset 7, -16
 144              		.cfi_offset 8, -12
 145              		.cfi_offset 9, -8
 146              		.cfi_offset 14, -4
 147 000c D7B0     		sub	sp, sp, #348
 148              	.LCFI8:
 149              		.cfi_def_cfa_offset 376
  68:Algorithm/Control_Dep/controller.c ****         return false;
  69:Algorithm/Control_Dep/controller.c **** 
  70:Algorithm/Control_Dep/controller.c ****     pid_param = Att_CasecadePID_Controller.default_param();
 150              		.loc 1 70 5 is_stmt 1 view .LVU17
 151              		.loc 1 70 17 is_stmt 0 view .LVU18
 152 000e 1AA8     		add	r0, sp, #104
 153 0010 9847     		blx	r3
 154              	.LVL6:
 155 0012 7822     		movs	r2, #120
 156 0014 1AA9     		add	r1, sp, #104
 157 0016 38A8     		add	r0, sp, #224
ARM GAS  C:\Users\8bit\AppData\Local\Temp\ccDKYaHL.s 			page 5


 158 0018 FFF7FEFF 		bl	memcpy
 159              	.LVL7:
  71:Algorithm/Control_Dep/controller.c **** 
  72:Algorithm/Control_Dep/controller.c ****     /* load parameter */
  73:Algorithm/Control_Dep/controller.c ****     ControllerMonitor.Att_SSO = Storage.search(Para_User, ATTITUDE_PID_PARAM_SEC_NAME);
 160              		.loc 1 73 5 is_stmt 1 view .LVU19
 161              		.loc 1 73 40 is_stmt 0 view .LVU20
 162 001c 2F4B     		ldr	r3, .L19+4
 163 001e 5B68     		ldr	r3, [r3, #4]
 164              		.loc 1 73 33 view .LVU21
 165 0020 2F4C     		ldr	r4, .L19+8
 166 0022 304A     		ldr	r2, .L19+12
 167 0024 0221     		movs	r1, #2
 168 0026 1AA8     		add	r0, sp, #104
 169 0028 9847     		blx	r3
 170              	.LVL8:
 171 002a 4522     		movs	r2, #69
 172 002c 1AA9     		add	r1, sp, #104
 173 002e 2046     		mov	r0, r4
 174 0030 FFF7FEFF 		bl	memcpy
 175              	.LVL9:
  74:Algorithm/Control_Dep/controller.c ****     if (ControllerMonitor.Att_SSO.item_addr == 0)
 176              		.loc 1 74 5 is_stmt 1 view .LVU22
 177              		.loc 1 74 34 is_stmt 0 view .LVU23
 178 0034 2368     		ldr	r3, [r4]
 179              		.loc 1 74 8 view .LVU24
 180 0036 4BB9     		cbnz	r3, .L9
  75:Algorithm/Control_Dep/controller.c ****     {
  76:Algorithm/Control_Dep/controller.c ****         /* no section found */
  77:Algorithm/Control_Dep/controller.c ****         /* create pid attitude controller parameter section in storage */
  78:Algorithm/Control_Dep/controller.c ****         stor_err = Storage.create(Para_User, ATTITUDE_PID_PARAM_SEC_NAME, (uint8_t *)&pid_param, AT
 181              		.loc 1 78 9 is_stmt 1 view .LVU25
 182              		.loc 1 78 27 is_stmt 0 view .LVU26
 183 0038 284B     		ldr	r3, .L19+4
 184 003a 9C68     		ldr	r4, [r3, #8]
 185              		.loc 1 78 20 view .LVU27
 186 003c 7823     		movs	r3, #120
 187 003e 38AA     		add	r2, sp, #224
 188 0040 2849     		ldr	r1, .L19+12
 189 0042 0220     		movs	r0, #2
 190 0044 A047     		blx	r4
 191              	.LVL10:
  79:Algorithm/Control_Dep/controller.c ****         if (stor_err != Storage_Error_None)
 192              		.loc 1 79 9 is_stmt 1 view .LVU28
 193              		.loc 1 79 12 is_stmt 0 view .LVU29
 194 0046 60B3     		cbz	r0, .L10
  80:Algorithm/Control_Dep/controller.c ****             return false;
 195              		.loc 1 80 20 view .LVU30
 196 0048 0020     		movs	r0, #0
 197              	.LVL11:
 198              		.loc 1 80 20 view .LVU31
 199 004a 34E0     		b	.L8
 200              	.LVL12:
 201              	.L9:
  81:Algorithm/Control_Dep/controller.c ****     }
  82:Algorithm/Control_Dep/controller.c ****     else
  83:Algorithm/Control_Dep/controller.c ****     {
ARM GAS  C:\Users\8bit\AppData\Local\Temp\ccDKYaHL.s 			page 6


  84:Algorithm/Control_Dep/controller.c ****         /* section found */
  85:Algorithm/Control_Dep/controller.c ****         stor_err = Storage.get(Para_User, ControllerMonitor.Att_SSO.item, (uint8_t *)&pid_param, AT
 202              		.loc 1 85 9 is_stmt 1 view .LVU32
 203              		.loc 1 85 27 is_stmt 0 view .LVU33
 204 004c 234B     		ldr	r3, .L19+4
 205 004e 1E69     		ldr	r6, [r3, #16]
 206              		.loc 1 85 20 view .LVU34
 207 0050 234C     		ldr	r4, .L19+8
 208 0052 7822     		movs	r2, #120
 209 0054 0E92     		str	r2, [sp, #56]
 210 0056 38AA     		add	r2, sp, #224
 211 0058 0D92     		str	r2, [sp, #52]
 212 005a D4F80590 		ldr	r9, [r4, #5]	@ unaligned
 213 005e D4F80980 		ldr	r8, [r4, #9]	@ unaligned
 214 0062 D4F80D70 		ldr	r7, [r4, #13]	@ unaligned
 215 0066 04F1110C 		add	ip, r4, #17
 216 006a 6D46     		mov	r5, sp
 217 006c 4134     		adds	r4, r4, #65
 218              	.L11:
 219 006e AE46     		mov	lr, r5
 220 0070 DCF80000 		ldr	r0, [ip]	@ unaligned
 221 0074 DCF80410 		ldr	r1, [ip, #4]	@ unaligned
 222 0078 DCF80820 		ldr	r2, [ip, #8]	@ unaligned
 223 007c DCF80C30 		ldr	r3, [ip, #12]	@ unaligned
 224 0080 AEE80F00 		stmia	lr!, {r0, r1, r2, r3}
 225 0084 0CF1100C 		add	ip, ip, #16
 226 0088 7546     		mov	r5, lr
 227 008a A445     		cmp	ip, r4
 228 008c EFD1     		bne	.L11
 229 008e DCF80000 		ldr	r0, [ip]	@ unaligned
 230 0092 CEF80000 		str	r0, [lr]
 231 0096 4946     		mov	r1, r9
 232 0098 4246     		mov	r2, r8
 233 009a 3B46     		mov	r3, r7
 234 009c 0220     		movs	r0, #2
 235 009e B047     		blx	r6
 236              	.LVL13:
  86:Algorithm/Control_Dep/controller.c ****         if (stor_err != Storage_Error_None)
 237              		.loc 1 86 9 is_stmt 1 view .LVU35
 238              		.loc 1 86 12 is_stmt 0 view .LVU36
 239 00a0 60B9     		cbnz	r0, .L18
 240              	.L10:
  87:Algorithm/Control_Dep/controller.c ****         {
  88:Algorithm/Control_Dep/controller.c ****             /* set parameter as default */
  89:Algorithm/Control_Dep/controller.c ****             pid_param = Att_CasecadePID_Controller.default_param();
  90:Algorithm/Control_Dep/controller.c ****             return false;
  91:Algorithm/Control_Dep/controller.c ****         }
  92:Algorithm/Control_Dep/controller.c ****     }
  93:Algorithm/Control_Dep/controller.c **** 
  94:Algorithm/Control_Dep/controller.c ****     /* test */
  95:Algorithm/Control_Dep/controller.c ****     /* set parameter */
  96:Algorithm/Control_Dep/controller.c ****     /* test */
  97:Algorithm/Control_Dep/controller.c **** 
  98:Algorithm/Control_Dep/controller.c ****     return Att_CasecadePID_Controller.init(pid_param);
 241              		.loc 1 98 5 is_stmt 1 view .LVU37
 242              		.loc 1 98 38 is_stmt 0 view .LVU38
 243 00a2 0D4B     		ldr	r3, .L19
ARM GAS  C:\Users\8bit\AppData\Local\Temp\ccDKYaHL.s 			page 7


 244 00a4 1C68     		ldr	r4, [r3]
 245              		.loc 1 98 12 view .LVU39
 246 00a6 6822     		movs	r2, #104
 247 00a8 3CA9     		add	r1, sp, #240
 248 00aa 6846     		mov	r0, sp
 249              	.LVL14:
 250              		.loc 1 98 12 view .LVU40
 251 00ac FFF7FEFF 		bl	memcpy
 252              	.LVL15:
 253 00b0 38AB     		add	r3, sp, #224
 254 00b2 0FCB     		ldm	r3, {r0, r1, r2, r3}
 255 00b4 A047     		blx	r4
 256              	.LVL16:
 257              	.L8:
  99:Algorithm/Control_Dep/controller.c **** }
 258              		.loc 1 99 1 view .LVU41
 259 00b6 57B0     		add	sp, sp, #348
 260              	.LCFI9:
 261              		.cfi_remember_state
 262              		.cfi_def_cfa_offset 28
 263              		@ sp needed
 264 00b8 BDE8F083 		pop	{r4, r5, r6, r7, r8, r9, pc}
 265              	.LVL17:
 266              	.L18:
 267              	.LCFI10:
 268              		.cfi_restore_state
  89:Algorithm/Control_Dep/controller.c ****             return false;
 269              		.loc 1 89 13 is_stmt 1 view .LVU42
  89:Algorithm/Control_Dep/controller.c ****             return false;
 270              		.loc 1 89 51 is_stmt 0 view .LVU43
 271 00bc 064B     		ldr	r3, .L19
 272 00be 5B68     		ldr	r3, [r3, #4]
  89:Algorithm/Control_Dep/controller.c ****             return false;
 273              		.loc 1 89 25 view .LVU44
 274 00c0 1AA8     		add	r0, sp, #104
 275              	.LVL18:
  89:Algorithm/Control_Dep/controller.c ****             return false;
 276              		.loc 1 89 25 view .LVU45
 277 00c2 9847     		blx	r3
 278              	.LVL19:
 279 00c4 7822     		movs	r2, #120
 280 00c6 1AA9     		add	r1, sp, #104
 281 00c8 38A8     		add	r0, sp, #224
 282 00ca FFF7FEFF 		bl	memcpy
 283              	.LVL20:
  90:Algorithm/Control_Dep/controller.c ****         }
 284              		.loc 1 90 13 is_stmt 1 view .LVU46
  90:Algorithm/Control_Dep/controller.c ****         }
 285              		.loc 1 90 20 is_stmt 0 view .LVU47
 286 00ce 0020     		movs	r0, #0
 287 00d0 F1E7     		b	.L8
 288              	.LVL21:
 289              	.L12:
 290              	.LCFI11:
 291              		.cfi_def_cfa_offset 0
 292              		.cfi_restore 4
 293              		.cfi_restore 5
ARM GAS  C:\Users\8bit\AppData\Local\Temp\ccDKYaHL.s 			page 8


 294              		.cfi_restore 6
 295              		.cfi_restore 7
 296              		.cfi_restore 8
 297              		.cfi_restore 9
 298              		.cfi_restore 14
  68:Algorithm/Control_Dep/controller.c **** 
 299              		.loc 1 68 16 view .LVU48
 300 00d2 0020     		movs	r0, #0
 301              		.loc 1 99 1 view .LVU49
 302 00d4 7047     		bx	lr
 303              	.L20:
 304 00d6 00BF     		.align	2
 305              	.L19:
 306 00d8 00000000 		.word	Att_CasecadePID_Controller
 307 00dc 00000000 		.word	Storage
 308 00e0 00000000 		.word	.LANCHOR0
 309 00e4 00000000 		.word	.LC0
 310              		.cfi_endproc
 311              	.LFE150:
 313              		.section	.text.Controller_Alt_Init,"ax",%progbits
 314              		.align	1
 315              		.syntax unified
 316              		.thumb
 317              		.thumb_func
 319              	Controller_Alt_Init:
 320              	.LVL22:
 321              	.LFB151:
 100:Algorithm/Control_Dep/controller.c **** 
 101:Algorithm/Control_Dep/controller.c **** static bool Controller_Alt_Init(ControlMode_List mode)
 102:Algorithm/Control_Dep/controller.c **** {
 322              		.loc 1 102 1 is_stmt 1 view -0
 323              		.cfi_startproc
 324              		@ args = 0, pretend = 0, frame = 0
 325              		@ frame_needed = 0, uses_anonymous_args = 0
 326              		@ link register save eliminated.
 103:Algorithm/Control_Dep/controller.c ****     return false;
 327              		.loc 1 103 5 view .LVU51
 104:Algorithm/Control_Dep/controller.c **** }
 328              		.loc 1 104 1 is_stmt 0 view .LVU52
 329 0000 0020     		movs	r0, #0
 330              	.LVL23:
 331              		.loc 1 104 1 view .LVU53
 332 0002 7047     		bx	lr
 333              		.cfi_endproc
 334              	.LFE151:
 336              		.section	.text.Controller_Att_Init,"ax",%progbits
 337              		.align	1
 338              		.syntax unified
 339              		.thumb
 340              		.thumb_func
 342              	Controller_Att_Init:
 343              	.LVL24:
 344              	.LFB148:
  38:Algorithm/Control_Dep/controller.c ****     memset(&ControllerMonitor.Att_SSO, 0, sizeof(Storage_ItemSearchOut_TypeDef));
 345              		.loc 1 38 1 is_stmt 1 view -0
 346              		.cfi_startproc
 347              		@ args = 0, pretend = 0, frame = 0
ARM GAS  C:\Users\8bit\AppData\Local\Temp\ccDKYaHL.s 			page 9


 348              		@ frame_needed = 0, uses_anonymous_args = 0
  38:Algorithm/Control_Dep/controller.c ****     memset(&ControllerMonitor.Att_SSO, 0, sizeof(Storage_ItemSearchOut_TypeDef));
 349              		.loc 1 38 1 is_stmt 0 view .LVU55
 350 0000 10B5     		push	{r4, lr}
 351              	.LCFI12:
 352              		.cfi_def_cfa_offset 8
 353              		.cfi_offset 4, -8
 354              		.cfi_offset 14, -4
 355 0002 0446     		mov	r4, r0
  39:Algorithm/Control_Dep/controller.c **** 
 356              		.loc 1 39 5 is_stmt 1 view .LVU56
 357 0004 4522     		movs	r2, #69
 358 0006 0021     		movs	r1, #0
 359 0008 0448     		ldr	r0, .L27
 360              	.LVL25:
  39:Algorithm/Control_Dep/controller.c **** 
 361              		.loc 1 39 5 is_stmt 0 view .LVU57
 362 000a FFF7FEFF 		bl	memset
 363              	.LVL26:
  41:Algorithm/Control_Dep/controller.c ****     {
 364              		.loc 1 41 5 is_stmt 1 view .LVU58
 365 000e 0CB1     		cbz	r4, .L26
  44:Algorithm/Control_Dep/controller.c ****     }
 366              		.loc 1 44 25 is_stmt 0 view .LVU59
 367 0010 0020     		movs	r0, #0
 368              	.L23:
  48:Algorithm/Control_Dep/controller.c **** 
 369              		.loc 1 48 1 view .LVU60
 370 0012 10BD     		pop	{r4, pc}
 371              	.L26:
  43:Algorithm/Control_Dep/controller.c ****         default: return false;
 372              		.loc 1 43 24 is_stmt 1 view .LVU61
  43:Algorithm/Control_Dep/controller.c ****         default: return false;
 373              		.loc 1 43 31 is_stmt 0 view .LVU62
 374 0014 FFF7FEFF 		bl	Controller_PID_AttControl_ParamLoad
 375              	.LVL27:
 376 0018 FBE7     		b	.L23
 377              	.L28:
 378 001a 00BF     		.align	2
 379              	.L27:
 380 001c 00000000 		.word	.LANCHOR0
 381              		.cfi_endproc
 382              	.LFE148:
 384              		.global	Controller
 385              		.global	ControllerMonitor
 386              		.section	.bss.ControllerMonitor,"aw",%nobits
 387              		.align	2
 388              		.set	.LANCHOR0,. + 0
 391              	ControllerMonitor:
 392 0000 00000000 		.space	138
 392      00000000 
 392      00000000 
 392      00000000 
 392      00000000 
 393              		.section	.data.Controller,"aw"
 394              		.align	2
 397              	Controller:
ARM GAS  C:\Users\8bit\AppData\Local\Temp\ccDKYaHL.s 			page 10


 398 0000 00000000 		.word	Controller_Att_Init
 399 0004 00000000 		.word	Controller_Alt_Init
 400 0008 00000000 		.word	Controller_AttControl
 401              		.text
 402              	.Letext0:
 403              		.file 2 "c:\\program files (x86)\\gnu arm embedded toolchain\\10 2021.10\\arm-none-eabi\\include\\
 404              		.file 3 "c:\\program files (x86)\\gnu arm embedded toolchain\\10 2021.10\\arm-none-eabi\\include\\
 405              		.file 4 "Algorithm/Control_Dep/pid.h"
 406              		.file 5 "Algorithm/Control_Dep/Attitude/Att_Control_Base.h"
 407              		.file 6 "Algorithm/Control_Dep/Attitude/Att_Casecade_PID.h"
 408              		.file 7 "Algorithm/Control_Dep/controller.h"
 409              		.file 8 "HW_Lib/AT32F435/drivers/inc/at32f435_437_tmr.h"
 410              		.file 9 "Device/Dev_Dshot.h"
 411              		.file 10 "common/Error_Log/../../common/gen_physic_def/imu_data.h"
 412              		.file 11 "Service/control_data.h"
 413              		.file 12 "Algorithm/Control_Dep/../../System/storage/Storage_Dev_Port.h"
 414              		.file 13 "Algorithm/Control_Dep/../../System/storage/Storage.h"
 415              		.file 14 "<built-in>"
ARM GAS  C:\Users\8bit\AppData\Local\Temp\ccDKYaHL.s 			page 11

