ARM GAS  C:\Users\8bit\AppData\Local\Temp\ccqtn6lb.s 			page 1


   1              		.cpu cortex-m4
   2              		.arch armv7e-m
   3              		.fpu fpv4-sp-d16
   4              		.eabi_attribute 27, 1
   5              		.eabi_attribute 28, 1
   6              		.eabi_attribute 20, 1
   7              		.eabi_attribute 21, 1
   8              		.eabi_attribute 23, 3
   9              		.eabi_attribute 24, 1
  10              		.eabi_attribute 25, 1
  11              		.eabi_attribute 26, 1
  12              		.eabi_attribute 30, 1
  13              		.eabi_attribute 34, 1
  14              		.eabi_attribute 18, 4
  15              		.file	"CusQueue.c"
  16              		.text
  17              	.Ltext0:
  18              		.cfi_sections	.debug_frame
  19              		.section	.text.Queue_UpdateState,"ax",%progbits
  20              		.align	1
  21              		.syntax unified
  22              		.thumb
  23              		.thumb_func
  25              	Queue_UpdateState:
  26              	.LVL0:
  27              	.LFB11:
  28              		.file 1 "DataStructure/CusQueue.c"
   1:DataStructure/CusQueue.c **** #include "CusQueue.h"
   2:DataStructure/CusQueue.c **** #include <stdio.h>
   3:DataStructure/CusQueue.c **** #include <string.h>
   4:DataStructure/CusQueue.c **** #include <stdlib.h>
   5:DataStructure/CusQueue.c **** #include <stddef.h>
   6:DataStructure/CusQueue.c **** #include <stdio.h>
   7:DataStructure/CusQueue.c **** #include "Srv_OsCommon.h"
   8:DataStructure/CusQueue.c **** 
   9:DataStructure/CusQueue.c **** #define Queue_Mem_Malloc(x) SrvOsCommon.malloc(x)
  10:DataStructure/CusQueue.c **** #define Queue_Mem_Free(x) SrvOsCommon.free(x)
  11:DataStructure/CusQueue.c **** 
  12:DataStructure/CusQueue.c **** /* internal function */
  13:DataStructure/CusQueue.c **** static Queue_state Queue_UpdateState(QueueObj_TypeDef *obj);
  14:DataStructure/CusQueue.c **** 
  15:DataStructure/CusQueue.c **** /* external function */
  16:DataStructure/CusQueue.c **** static bool Queue_Create_Auto(QueueObj_TypeDef *obj, char *name, uint16_t len);
  17:DataStructure/CusQueue.c **** static bool Queue_Create_WithCertainBuff(QueueObj_TypeDef *obj, char *name, uint8_t *buff, uint16_t
  18:DataStructure/CusQueue.c **** static bool Queue_Reset(QueueObj_TypeDef *obj);
  19:DataStructure/CusQueue.c **** static Queue_state Queue_GetState(QueueObj_TypeDef obj);
  20:DataStructure/CusQueue.c **** static Queue_state Queue_Push(QueueObj_TypeDef *obj, uint8_t *data, uint16_t size);
  21:DataStructure/CusQueue.c **** static Queue_state Queue_Pop(QueueObj_TypeDef *obj, uint8_t *data, uint16_t size);
  22:DataStructure/CusQueue.c **** static bool Queue_Check(QueueObj_TypeDef *obj, uint16_t index, uint8_t *data, uint16_t size);
  23:DataStructure/CusQueue.c **** static uint16_t Queue_GetSize(QueueObj_TypeDef obj);
  24:DataStructure/CusQueue.c **** static uint16_t Queue_GetRemain(QueueObj_TypeDef obj);
  25:DataStructure/CusQueue.c **** static bool Queue_PopTo(QueueObj_TypeDef *src, QueueObj_TypeDef *dst);
  26:DataStructure/CusQueue.c **** 
  27:DataStructure/CusQueue.c **** /* extern virable */
  28:DataStructure/CusQueue.c **** Queue_TypeDef Queue = {
  29:DataStructure/CusQueue.c ****     .create_auto = Queue_Create_Auto,
  30:DataStructure/CusQueue.c ****     .create_with_buf = Queue_Create_WithCertainBuff,
ARM GAS  C:\Users\8bit\AppData\Local\Temp\ccqtn6lb.s 			page 2


  31:DataStructure/CusQueue.c ****     .reset = Queue_Reset,
  32:DataStructure/CusQueue.c ****     .push = Queue_Push,
  33:DataStructure/CusQueue.c ****     .pop = Queue_Pop,
  34:DataStructure/CusQueue.c ****     .check = Queue_Check,
  35:DataStructure/CusQueue.c ****     .state = Queue_GetState,
  36:DataStructure/CusQueue.c ****     .size = Queue_GetSize,
  37:DataStructure/CusQueue.c ****     .remain = Queue_GetRemain,
  38:DataStructure/CusQueue.c ****     .pop_to_queue = Queue_PopTo,
  39:DataStructure/CusQueue.c **** };
  40:DataStructure/CusQueue.c **** 
  41:DataStructure/CusQueue.c **** static bool Queue_Create_WithCertainBuff(QueueObj_TypeDef *obj, char *name, uint8_t *buff, uint16_t
  42:DataStructure/CusQueue.c **** {
  43:DataStructure/CusQueue.c ****     if ((obj == NULL) || (len == 0))
  44:DataStructure/CusQueue.c ****         return false;
  45:DataStructure/CusQueue.c **** 
  46:DataStructure/CusQueue.c ****     obj->name = name;
  47:DataStructure/CusQueue.c ****     obj->end_pos = 0;
  48:DataStructure/CusQueue.c ****     obj->head_pos = 0;
  49:DataStructure/CusQueue.c ****     obj->size = 0;
  50:DataStructure/CusQueue.c ****     obj->lenth = len;
  51:DataStructure/CusQueue.c **** 
  52:DataStructure/CusQueue.c ****     obj->buff = buff;
  53:DataStructure/CusQueue.c ****     memset(obj->buff, 0, obj->lenth);
  54:DataStructure/CusQueue.c **** 
  55:DataStructure/CusQueue.c ****     if (obj->buff == NULL)
  56:DataStructure/CusQueue.c ****         return false;
  57:DataStructure/CusQueue.c **** 
  58:DataStructure/CusQueue.c ****     obj->state = Queue_empty;
  59:DataStructure/CusQueue.c **** 
  60:DataStructure/CusQueue.c ****     return true;  
  61:DataStructure/CusQueue.c **** }
  62:DataStructure/CusQueue.c **** 
  63:DataStructure/CusQueue.c **** static bool Queue_Create_Auto(QueueObj_TypeDef *obj, char *name, uint16_t len)
  64:DataStructure/CusQueue.c **** {
  65:DataStructure/CusQueue.c ****     if ((obj == NULL) || (len == 0))
  66:DataStructure/CusQueue.c ****         return false;
  67:DataStructure/CusQueue.c **** 
  68:DataStructure/CusQueue.c ****     obj->name = name;
  69:DataStructure/CusQueue.c ****     obj->end_pos = 0;
  70:DataStructure/CusQueue.c ****     obj->head_pos = 0;
  71:DataStructure/CusQueue.c ****     obj->size = 0;
  72:DataStructure/CusQueue.c ****     obj->lenth = len;
  73:DataStructure/CusQueue.c **** 
  74:DataStructure/CusQueue.c ****     obj->buff = (uint8_t *)Queue_Mem_Malloc(len);
  75:DataStructure/CusQueue.c ****     memset(obj->buff, 0, obj->lenth);
  76:DataStructure/CusQueue.c **** 
  77:DataStructure/CusQueue.c ****     if (obj->buff == NULL)
  78:DataStructure/CusQueue.c ****         return false;
  79:DataStructure/CusQueue.c **** 
  80:DataStructure/CusQueue.c ****     obj->state = Queue_empty;
  81:DataStructure/CusQueue.c **** 
  82:DataStructure/CusQueue.c ****     return true;
  83:DataStructure/CusQueue.c **** }
  84:DataStructure/CusQueue.c **** 
  85:DataStructure/CusQueue.c **** static bool Queue_Reset(QueueObj_TypeDef *obj)
  86:DataStructure/CusQueue.c **** {
  87:DataStructure/CusQueue.c ****     if ((obj == NULL) || (obj->buff == NULL) || (obj->lenth == 0))
ARM GAS  C:\Users\8bit\AppData\Local\Temp\ccqtn6lb.s 			page 3


  88:DataStructure/CusQueue.c ****         return false;
  89:DataStructure/CusQueue.c **** 
  90:DataStructure/CusQueue.c ****     obj->end_pos = 0;
  91:DataStructure/CusQueue.c ****     obj->head_pos = 0;
  92:DataStructure/CusQueue.c ****     obj->size = 0;
  93:DataStructure/CusQueue.c **** 
  94:DataStructure/CusQueue.c ****     obj->state = Queue_empty;
  95:DataStructure/CusQueue.c ****     memset(obj->buff, 0, obj->lenth);
  96:DataStructure/CusQueue.c **** 
  97:DataStructure/CusQueue.c ****     return true;
  98:DataStructure/CusQueue.c **** }
  99:DataStructure/CusQueue.c **** 
 100:DataStructure/CusQueue.c **** static Queue_state Queue_UpdateState(QueueObj_TypeDef *obj)
 101:DataStructure/CusQueue.c **** {
  29              		.loc 1 101 1 view -0
  30              		.cfi_startproc
  31              		@ args = 0, pretend = 0, frame = 0
  32              		@ frame_needed = 0, uses_anonymous_args = 0
  33              		@ link register save eliminated.
 102:DataStructure/CusQueue.c ****     if ((obj->head_pos == obj->end_pos) && (obj->size == 0))
  34              		.loc 1 102 5 view .LVU1
  35              		.loc 1 102 13 is_stmt 0 view .LVU2
  36 0000 B0F80910 		ldrh	r1, [r0, #9]	@ unaligned
  37              		.loc 1 102 30 view .LVU3
  38 0004 B0F80B30 		ldrh	r3, [r0, #11]	@ unaligned
  39              		.loc 1 102 8 view .LVU4
  40 0008 9942     		cmp	r1, r3
  41 000a 0ED0     		beq	.L6
  42              	.L2:
 103:DataStructure/CusQueue.c ****     {
 104:DataStructure/CusQueue.c ****         obj->state = Queue_empty;
 105:DataStructure/CusQueue.c ****         return Queue_empty;
 106:DataStructure/CusQueue.c ****     }
 107:DataStructure/CusQueue.c **** 
 108:DataStructure/CusQueue.c ****     if ((((obj->end_pos + 1) % obj->lenth) == obj->head_pos) || (obj->size == obj->lenth))
  43              		.loc 1 108 5 is_stmt 1 view .LVU5
  44              		.loc 1 108 25 is_stmt 0 view .LVU6
  45 000c 0133     		adds	r3, r3, #1
  46              		.loc 1 108 35 view .LVU7
  47 000e 8288     		ldrh	r2, [r0, #4]	@ unaligned
  48              		.loc 1 108 30 view .LVU8
  49 0010 93FBF2FC 		sdiv	ip, r3, r2
  50 0014 02FB1C33 		mls	r3, r2, ip, r3
  51              		.loc 1 108 8 view .LVU9
  52 0018 8B42     		cmp	r3, r1
  53 001a 0DD0     		beq	.L4
  54              		.loc 1 108 69 discriminator 1 view .LVU10
  55 001c C388     		ldrh	r3, [r0, #6]	@ unaligned
  56              		.loc 1 108 62 discriminator 1 view .LVU11
  57 001e 9A42     		cmp	r2, r3
  58 0020 0AD0     		beq	.L4
 109:DataStructure/CusQueue.c ****     {
 110:DataStructure/CusQueue.c ****         obj->state = Queue_full;
 111:DataStructure/CusQueue.c ****         return Queue_full;
 112:DataStructure/CusQueue.c ****     }
 113:DataStructure/CusQueue.c **** 
 114:DataStructure/CusQueue.c ****     obj->state = Queue_ok;
ARM GAS  C:\Users\8bit\AppData\Local\Temp\ccqtn6lb.s 			page 4


  59              		.loc 1 114 5 is_stmt 1 view .LVU12
  60              		.loc 1 114 16 is_stmt 0 view .LVU13
  61 0022 0023     		movs	r3, #0
  62 0024 0372     		strb	r3, [r0, #8]
 115:DataStructure/CusQueue.c ****     return obj->state;
  63              		.loc 1 115 5 is_stmt 1 view .LVU14
  64              		.loc 1 115 15 is_stmt 0 view .LVU15
  65 0026 1846     		mov	r0, r3
  66              	.LVL1:
 116:DataStructure/CusQueue.c **** }
  67              		.loc 1 116 1 view .LVU16
  68 0028 7047     		bx	lr
  69              	.LVL2:
  70              	.L6:
 102:DataStructure/CusQueue.c ****     {
  71              		.loc 1 102 48 discriminator 1 view .LVU17
  72 002a C288     		ldrh	r2, [r0, #6]	@ unaligned
 102:DataStructure/CusQueue.c ****     {
  73              		.loc 1 102 41 discriminator 1 view .LVU18
  74 002c 002A     		cmp	r2, #0
  75 002e EDD1     		bne	.L2
 104:DataStructure/CusQueue.c ****         return Queue_empty;
  76              		.loc 1 104 9 is_stmt 1 view .LVU19
 104:DataStructure/CusQueue.c ****         return Queue_empty;
  77              		.loc 1 104 20 is_stmt 0 view .LVU20
  78 0030 0323     		movs	r3, #3
  79 0032 0372     		strb	r3, [r0, #8]
 105:DataStructure/CusQueue.c ****     }
  80              		.loc 1 105 9 is_stmt 1 view .LVU21
 105:DataStructure/CusQueue.c ****     }
  81              		.loc 1 105 16 is_stmt 0 view .LVU22
  82 0034 1846     		mov	r0, r3
  83              	.LVL3:
 105:DataStructure/CusQueue.c ****     }
  84              		.loc 1 105 16 view .LVU23
  85 0036 7047     		bx	lr
  86              	.LVL4:
  87              	.L4:
 110:DataStructure/CusQueue.c ****         return Queue_full;
  88              		.loc 1 110 9 is_stmt 1 view .LVU24
 110:DataStructure/CusQueue.c ****         return Queue_full;
  89              		.loc 1 110 20 is_stmt 0 view .LVU25
  90 0038 0423     		movs	r3, #4
  91 003a 0372     		strb	r3, [r0, #8]
 111:DataStructure/CusQueue.c ****     }
  92              		.loc 1 111 9 is_stmt 1 view .LVU26
 111:DataStructure/CusQueue.c ****     }
  93              		.loc 1 111 16 is_stmt 0 view .LVU27
  94 003c 1846     		mov	r0, r3
  95              	.LVL5:
 111:DataStructure/CusQueue.c ****     }
  96              		.loc 1 111 16 view .LVU28
  97 003e 7047     		bx	lr
  98              		.cfi_endproc
  99              	.LFE11:
 101              		.section	.text.Queue_Push,"ax",%progbits
 102              		.align	1
ARM GAS  C:\Users\8bit\AppData\Local\Temp\ccqtn6lb.s 			page 5


 103              		.syntax unified
 104              		.thumb
 105              		.thumb_func
 107              	Queue_Push:
 108              	.LVL6:
 109              	.LFB13:
 117:DataStructure/CusQueue.c **** 
 118:DataStructure/CusQueue.c **** static bool Queue_PopTo(QueueObj_TypeDef *src, QueueObj_TypeDef *dst)
 119:DataStructure/CusQueue.c **** {
 120:DataStructure/CusQueue.c ****     uint16_t dst_remain_size = 0;
 121:DataStructure/CusQueue.c ****     uint16_t src_size = 0;
 122:DataStructure/CusQueue.c ****     uint16_t copy_size = 0;
 123:DataStructure/CusQueue.c **** 
 124:DataStructure/CusQueue.c ****     if((src == NULL) || (dst == NULL) || (src->size == 0) || (dst->lenth == dst->size))
 125:DataStructure/CusQueue.c ****         return false;
 126:DataStructure/CusQueue.c **** 
 127:DataStructure/CusQueue.c ****     dst_remain_size = Queue_GetRemain(*dst);
 128:DataStructure/CusQueue.c ****     src_size = Queue_GetSize(*src);
 129:DataStructure/CusQueue.c **** 
 130:DataStructure/CusQueue.c ****     copy_size = (dst_remain_size <= src_size) ? dst_remain_size : src_size;
 131:DataStructure/CusQueue.c **** 
 132:DataStructure/CusQueue.c ****     for(uint16_t i = 0; i < copy_size; i++)
 133:DataStructure/CusQueue.c ****     {
 134:DataStructure/CusQueue.c ****         dst->end_pos %= dst->lenth;
 135:DataStructure/CusQueue.c ****         src->head_pos %= src->lenth;
 136:DataStructure/CusQueue.c **** 
 137:DataStructure/CusQueue.c ****         dst->buff[dst->end_pos] = src->buff[src->head_pos];
 138:DataStructure/CusQueue.c ****         src->buff[src->head_pos] = 0;
 139:DataStructure/CusQueue.c **** 
 140:DataStructure/CusQueue.c ****         src->head_pos++;
 141:DataStructure/CusQueue.c ****         src->size--;
 142:DataStructure/CusQueue.c ****         
 143:DataStructure/CusQueue.c ****         dst->end_pos++;
 144:DataStructure/CusQueue.c ****         dst->size++;
 145:DataStructure/CusQueue.c **** 
 146:DataStructure/CusQueue.c ****         Queue_UpdateState(dst);
 147:DataStructure/CusQueue.c ****         Queue_UpdateState(src);
 148:DataStructure/CusQueue.c ****     }
 149:DataStructure/CusQueue.c **** 
 150:DataStructure/CusQueue.c ****     return true;
 151:DataStructure/CusQueue.c **** }
 152:DataStructure/CusQueue.c **** 
 153:DataStructure/CusQueue.c **** static Queue_state Queue_Push(QueueObj_TypeDef *obj, uint8_t *data, uint16_t size)
 154:DataStructure/CusQueue.c **** {
 110              		.loc 1 154 1 is_stmt 1 view -0
 111              		.cfi_startproc
 112              		@ args = 0, pretend = 0, frame = 0
 113              		@ frame_needed = 0, uses_anonymous_args = 0
 155:DataStructure/CusQueue.c ****     if ((obj == NULL) || (obj->lenth == 0))
 114              		.loc 1 155 5 view .LVU30
 115              		.loc 1 155 8 is_stmt 0 view .LVU31
 116 0000 80B3     		cbz	r0, .L13
 154:DataStructure/CusQueue.c ****     if ((obj == NULL) || (obj->lenth == 0))
 117              		.loc 1 154 1 discriminator 1 view .LVU32
 118 0002 F8B5     		push	{r3, r4, r5, r6, r7, lr}
 119              	.LCFI0:
 120              		.cfi_def_cfa_offset 24
ARM GAS  C:\Users\8bit\AppData\Local\Temp\ccqtn6lb.s 			page 6


 121              		.cfi_offset 3, -24
 122              		.cfi_offset 4, -20
 123              		.cfi_offset 5, -16
 124              		.cfi_offset 6, -12
 125              		.cfi_offset 7, -8
 126              		.cfi_offset 14, -4
 127 0004 0F46     		mov	r7, r1
 128 0006 1646     		mov	r6, r2
 129 0008 0446     		mov	r4, r0
 130              		.loc 1 155 30 discriminator 1 view .LVU33
 131 000a 8388     		ldrh	r3, [r0, #4]	@ unaligned
 132              		.loc 1 155 23 discriminator 1 view .LVU34
 133 000c 63B3     		cbz	r3, .L14
 156:DataStructure/CusQueue.c ****         return Queue_obj_error;
 157:DataStructure/CusQueue.c **** 
 158:DataStructure/CusQueue.c ****     if ((obj->state == Queue_ok) || (obj->state == Queue_empty))
 134              		.loc 1 158 5 is_stmt 1 view .LVU35
 135              		.loc 1 158 13 is_stmt 0 view .LVU36
 136 000e 027A     		ldrb	r2, [r0, #8]	@ zero_extendqisi2
 137              	.LVL7:
 138              		.loc 1 158 8 view .LVU37
 139 0010 0AB1     		cbz	r2, .L9
 140              		.loc 1 158 34 discriminator 1 view .LVU38
 141 0012 032A     		cmp	r2, #3
 142 0014 24D1     		bne	.L10
 143              	.L9:
 159:DataStructure/CusQueue.c ****     {
 160:DataStructure/CusQueue.c ****         if (size <= (obj->lenth - obj->size))
 144              		.loc 1 160 9 is_stmt 1 view .LVU39
 145              		.loc 1 160 38 is_stmt 0 view .LVU40
 146 0016 E288     		ldrh	r2, [r4, #6]	@ unaligned
 147              		.loc 1 160 33 view .LVU41
 148 0018 9B1A     		subs	r3, r3, r2
 149              		.loc 1 160 12 view .LVU42
 150 001a 9E42     		cmp	r6, r3
 151 001c 01DC     		bgt	.L20
 152              	.LBB2:
 161:DataStructure/CusQueue.c ****         {
 162:DataStructure/CusQueue.c ****             for (uint16_t i = 0; i < size; i++)
 153              		.loc 1 162 27 view .LVU43
 154 001e 0025     		movs	r5, #0
 155 0020 1CE0     		b	.L11
 156              	.L20:
 157              	.LBE2:
 163:DataStructure/CusQueue.c ****             {
 164:DataStructure/CusQueue.c ****                 obj->end_pos %= obj->lenth;
 165:DataStructure/CusQueue.c ****                 obj->buff[obj->end_pos] = data[i];
 166:DataStructure/CusQueue.c ****                 obj->end_pos++;
 167:DataStructure/CusQueue.c **** 
 168:DataStructure/CusQueue.c ****                 obj->size++;
 169:DataStructure/CusQueue.c **** 
 170:DataStructure/CusQueue.c ****                 Queue_UpdateState(obj);
 171:DataStructure/CusQueue.c ****             }
 172:DataStructure/CusQueue.c ****         }
 173:DataStructure/CusQueue.c ****         else
 174:DataStructure/CusQueue.c ****             return Queue_overflow_w;
 158              		.loc 1 174 20 view .LVU44
ARM GAS  C:\Users\8bit\AppData\Local\Temp\ccqtn6lb.s 			page 7


 159 0022 0120     		movs	r0, #1
 160              	.LVL8:
 161              		.loc 1 174 20 view .LVU45
 162 0024 1DE0     		b	.L8
 163              	.LVL9:
 164              	.L12:
 165              	.LBB3:
 164:DataStructure/CusQueue.c ****                 obj->buff[obj->end_pos] = data[i];
 166              		.loc 1 164 17 is_stmt 1 discriminator 3 view .LVU46
 164:DataStructure/CusQueue.c ****                 obj->buff[obj->end_pos] = data[i];
 167              		.loc 1 164 36 is_stmt 0 discriminator 3 view .LVU47
 168 0026 A288     		ldrh	r2, [r4, #4]	@ unaligned
 164:DataStructure/CusQueue.c ****                 obj->buff[obj->end_pos] = data[i];
 169              		.loc 1 164 30 discriminator 3 view .LVU48
 170 0028 B4F80B30 		ldrh	r3, [r4, #11]	@ unaligned
 171 002c B3FBF2F1 		udiv	r1, r3, r2
 172 0030 02FB1133 		mls	r3, r2, r1, r3
 173 0034 9AB2     		uxth	r2, r3
 174 0036 A4F80B30 		strh	r3, [r4, #11]	@ unaligned
 165:DataStructure/CusQueue.c ****                 obj->end_pos++;
 175              		.loc 1 165 17 is_stmt 1 discriminator 3 view .LVU49
 165:DataStructure/CusQueue.c ****                 obj->end_pos++;
 176              		.loc 1 165 20 is_stmt 0 discriminator 3 view .LVU50
 177 003a D4F80D30 		ldr	r3, [r4, #13]	@ unaligned
 165:DataStructure/CusQueue.c ****                 obj->end_pos++;
 178              		.loc 1 165 47 discriminator 3 view .LVU51
 179 003e 795D     		ldrb	r1, [r7, r5]	@ zero_extendqisi2
 165:DataStructure/CusQueue.c ****                 obj->end_pos++;
 180              		.loc 1 165 41 discriminator 3 view .LVU52
 181 0040 9954     		strb	r1, [r3, r2]
 166:DataStructure/CusQueue.c **** 
 182              		.loc 1 166 17 is_stmt 1 discriminator 3 view .LVU53
 166:DataStructure/CusQueue.c **** 
 183              		.loc 1 166 20 is_stmt 0 discriminator 3 view .LVU54
 184 0042 B4F80B30 		ldrh	r3, [r4, #11]	@ unaligned
 166:DataStructure/CusQueue.c **** 
 185              		.loc 1 166 29 discriminator 3 view .LVU55
 186 0046 0133     		adds	r3, r3, #1
 187 0048 A4F80B30 		strh	r3, [r4, #11]	@ unaligned
 168:DataStructure/CusQueue.c **** 
 188              		.loc 1 168 17 is_stmt 1 discriminator 3 view .LVU56
 168:DataStructure/CusQueue.c **** 
 189              		.loc 1 168 20 is_stmt 0 discriminator 3 view .LVU57
 190 004c E388     		ldrh	r3, [r4, #6]	@ unaligned
 168:DataStructure/CusQueue.c **** 
 191              		.loc 1 168 26 discriminator 3 view .LVU58
 192 004e 0133     		adds	r3, r3, #1
 193 0050 E380     		strh	r3, [r4, #6]	@ unaligned
 170:DataStructure/CusQueue.c ****             }
 194              		.loc 1 170 17 is_stmt 1 discriminator 3 view .LVU59
 195 0052 2046     		mov	r0, r4
 196 0054 FFF7FEFF 		bl	Queue_UpdateState
 197              	.LVL10:
 162:DataStructure/CusQueue.c ****             {
 198              		.loc 1 162 44 discriminator 3 view .LVU60
 162:DataStructure/CusQueue.c ****             {
 199              		.loc 1 162 45 is_stmt 0 discriminator 3 view .LVU61
ARM GAS  C:\Users\8bit\AppData\Local\Temp\ccqtn6lb.s 			page 8


 200 0058 0135     		adds	r5, r5, #1
 201              	.LVL11:
 162:DataStructure/CusQueue.c ****             {
 202              		.loc 1 162 45 discriminator 3 view .LVU62
 203 005a ADB2     		uxth	r5, r5
 204              	.LVL12:
 205              	.L11:
 162:DataStructure/CusQueue.c ****             {
 206              		.loc 1 162 34 is_stmt 1 discriminator 1 view .LVU63
 162:DataStructure/CusQueue.c ****             {
 207              		.loc 1 162 13 is_stmt 0 discriminator 1 view .LVU64
 208 005c B542     		cmp	r5, r6
 209 005e E2D3     		bcc	.L12
 210              	.LVL13:
 211              	.L10:
 162:DataStructure/CusQueue.c ****             {
 212              		.loc 1 162 13 discriminator 1 view .LVU65
 213              	.LBE3:
 175:DataStructure/CusQueue.c ****     }
 176:DataStructure/CusQueue.c **** 
 177:DataStructure/CusQueue.c ****     return obj->state;
 214              		.loc 1 177 5 is_stmt 1 view .LVU66
 215              		.loc 1 177 15 is_stmt 0 view .LVU67
 216 0060 207A     		ldrb	r0, [r4, #8]	@ zero_extendqisi2
 217              	.L8:
 178:DataStructure/CusQueue.c **** }
 218              		.loc 1 178 1 view .LVU68
 219 0062 F8BD     		pop	{r3, r4, r5, r6, r7, pc}
 220              	.LVL14:
 221              	.L13:
 222              	.LCFI1:
 223              		.cfi_def_cfa_offset 0
 224              		.cfi_restore 3
 225              		.cfi_restore 4
 226              		.cfi_restore 5
 227              		.cfi_restore 6
 228              		.cfi_restore 7
 229              		.cfi_restore 14
 156:DataStructure/CusQueue.c **** 
 230              		.loc 1 156 16 view .LVU69
 231 0064 0520     		movs	r0, #5
 232              	.LVL15:
 233              		.loc 1 178 1 view .LVU70
 234 0066 7047     		bx	lr
 235              	.LVL16:
 236              	.L14:
 237              	.LCFI2:
 238              		.cfi_def_cfa_offset 24
 239              		.cfi_offset 3, -24
 240              		.cfi_offset 4, -20
 241              		.cfi_offset 5, -16
 242              		.cfi_offset 6, -12
 243              		.cfi_offset 7, -8
 244              		.cfi_offset 14, -4
 156:DataStructure/CusQueue.c **** 
 245              		.loc 1 156 16 view .LVU71
 246 0068 0520     		movs	r0, #5
ARM GAS  C:\Users\8bit\AppData\Local\Temp\ccqtn6lb.s 			page 9


 247              	.LVL17:
 156:DataStructure/CusQueue.c **** 
 248              		.loc 1 156 16 view .LVU72
 249 006a FAE7     		b	.L8
 250              		.cfi_endproc
 251              	.LFE13:
 253              		.section	.text.Queue_Pop,"ax",%progbits
 254              		.align	1
 255              		.syntax unified
 256              		.thumb
 257              		.thumb_func
 259              	Queue_Pop:
 260              	.LVL18:
 261              	.LFB14:
 179:DataStructure/CusQueue.c **** 
 180:DataStructure/CusQueue.c **** /* still can be optimize */
 181:DataStructure/CusQueue.c **** static Queue_state Queue_Pop(QueueObj_TypeDef *obj, uint8_t *data, uint16_t size)
 182:DataStructure/CusQueue.c **** {
 262              		.loc 1 182 1 is_stmt 1 view -0
 263              		.cfi_startproc
 264              		@ args = 0, pretend = 0, frame = 0
 265              		@ frame_needed = 0, uses_anonymous_args = 0
 183:DataStructure/CusQueue.c ****     if ((obj == NULL) || (obj->lenth == 0))
 266              		.loc 1 183 5 view .LVU74
 267              		.loc 1 183 8 is_stmt 0 view .LVU75
 268 0000 A8B3     		cbz	r0, .L27
 182:DataStructure/CusQueue.c ****     if ((obj == NULL) || (obj->lenth == 0))
 269              		.loc 1 182 1 discriminator 1 view .LVU76
 270 0002 F8B5     		push	{r3, r4, r5, r6, r7, lr}
 271              	.LCFI3:
 272              		.cfi_def_cfa_offset 24
 273              		.cfi_offset 3, -24
 274              		.cfi_offset 4, -20
 275              		.cfi_offset 5, -16
 276              		.cfi_offset 6, -12
 277              		.cfi_offset 7, -8
 278              		.cfi_offset 14, -4
 279 0004 0F46     		mov	r7, r1
 280 0006 1646     		mov	r6, r2
 281 0008 0446     		mov	r4, r0
 282              		.loc 1 183 30 discriminator 1 view .LVU77
 283 000a 8388     		ldrh	r3, [r0, #4]	@ unaligned
 284              		.loc 1 183 23 discriminator 1 view .LVU78
 285 000c 8BB3     		cbz	r3, .L28
 184:DataStructure/CusQueue.c ****         return Queue_obj_error;
 185:DataStructure/CusQueue.c **** 
 186:DataStructure/CusQueue.c ****     if ((obj->state == Queue_ok) || (obj->state == Queue_full))
 286              		.loc 1 186 5 is_stmt 1 view .LVU79
 287              		.loc 1 186 13 is_stmt 0 view .LVU80
 288 000e 037A     		ldrb	r3, [r0, #8]	@ zero_extendqisi2
 289              		.loc 1 186 8 view .LVU81
 290 0010 0BB1     		cbz	r3, .L23
 291              		.loc 1 186 34 discriminator 1 view .LVU82
 292 0012 042B     		cmp	r3, #4
 293 0014 29D1     		bne	.L24
 294              	.L23:
 187:DataStructure/CusQueue.c ****     {
ARM GAS  C:\Users\8bit\AppData\Local\Temp\ccqtn6lb.s 			page 10


 188:DataStructure/CusQueue.c ****         if (size <= obj->size)
 295              		.loc 1 188 9 is_stmt 1 view .LVU83
 296              		.loc 1 188 24 is_stmt 0 view .LVU84
 297 0016 E388     		ldrh	r3, [r4, #6]	@ unaligned
 298              		.loc 1 188 12 view .LVU85
 299 0018 B342     		cmp	r3, r6
 300 001a 01D3     		bcc	.L34
 301              	.LBB4:
 189:DataStructure/CusQueue.c ****         {
 190:DataStructure/CusQueue.c ****             for (uint16_t i = 0; i < size; i++)
 302              		.loc 1 190 27 view .LVU86
 303 001c 0025     		movs	r5, #0
 304 001e 22E0     		b	.L25
 305              	.L34:
 306              	.LBE4:
 191:DataStructure/CusQueue.c ****             {
 192:DataStructure/CusQueue.c ****                 obj->head_pos %= obj->lenth;
 193:DataStructure/CusQueue.c ****                 data[i] = obj->buff[obj->head_pos];
 194:DataStructure/CusQueue.c ****                 obj->buff[obj->head_pos] = 0;
 195:DataStructure/CusQueue.c ****                 obj->head_pos++;
 196:DataStructure/CusQueue.c **** 
 197:DataStructure/CusQueue.c ****                 obj->size--;
 198:DataStructure/CusQueue.c **** 
 199:DataStructure/CusQueue.c ****                 Queue_UpdateState(obj);
 200:DataStructure/CusQueue.c ****             }
 201:DataStructure/CusQueue.c ****         }
 202:DataStructure/CusQueue.c ****         else
 203:DataStructure/CusQueue.c ****             return Queue_overflow_r;
 307              		.loc 1 203 20 view .LVU87
 308 0020 0220     		movs	r0, #2
 309              	.LVL19:
 310              		.loc 1 203 20 view .LVU88
 311 0022 23E0     		b	.L22
 312              	.LVL20:
 313              	.L26:
 314              	.LBB5:
 192:DataStructure/CusQueue.c ****                 data[i] = obj->buff[obj->head_pos];
 315              		.loc 1 192 17 is_stmt 1 discriminator 3 view .LVU89
 192:DataStructure/CusQueue.c ****                 data[i] = obj->buff[obj->head_pos];
 316              		.loc 1 192 37 is_stmt 0 discriminator 3 view .LVU90
 317 0024 A288     		ldrh	r2, [r4, #4]	@ unaligned
 192:DataStructure/CusQueue.c ****                 data[i] = obj->buff[obj->head_pos];
 318              		.loc 1 192 31 discriminator 3 view .LVU91
 319 0026 B4F80930 		ldrh	r3, [r4, #9]	@ unaligned
 320 002a B3FBF2F1 		udiv	r1, r3, r2
 321 002e 02FB1133 		mls	r3, r2, r1, r3
 322 0032 9AB2     		uxth	r2, r3
 323 0034 A4F80930 		strh	r3, [r4, #9]	@ unaligned
 193:DataStructure/CusQueue.c ****                 obj->buff[obj->head_pos] = 0;
 324              		.loc 1 193 17 is_stmt 1 discriminator 3 view .LVU92
 193:DataStructure/CusQueue.c ****                 obj->buff[obj->head_pos] = 0;
 325              		.loc 1 193 30 is_stmt 0 discriminator 3 view .LVU93
 326 0038 D4F80D30 		ldr	r3, [r4, #13]	@ unaligned
 193:DataStructure/CusQueue.c ****                 obj->buff[obj->head_pos] = 0;
 327              		.loc 1 193 36 discriminator 3 view .LVU94
 328 003c 9B5C     		ldrb	r3, [r3, r2]	@ zero_extendqisi2
 193:DataStructure/CusQueue.c ****                 obj->buff[obj->head_pos] = 0;
ARM GAS  C:\Users\8bit\AppData\Local\Temp\ccqtn6lb.s 			page 11


 329              		.loc 1 193 25 discriminator 3 view .LVU95
 330 003e 7B55     		strb	r3, [r7, r5]
 194:DataStructure/CusQueue.c ****                 obj->head_pos++;
 331              		.loc 1 194 17 is_stmt 1 discriminator 3 view .LVU96
 194:DataStructure/CusQueue.c ****                 obj->head_pos++;
 332              		.loc 1 194 20 is_stmt 0 discriminator 3 view .LVU97
 333 0040 D4F80D20 		ldr	r2, [r4, #13]	@ unaligned
 194:DataStructure/CusQueue.c ****                 obj->head_pos++;
 334              		.loc 1 194 30 discriminator 3 view .LVU98
 335 0044 B4F80930 		ldrh	r3, [r4, #9]	@ unaligned
 194:DataStructure/CusQueue.c ****                 obj->head_pos++;
 336              		.loc 1 194 42 discriminator 3 view .LVU99
 337 0048 0021     		movs	r1, #0
 338 004a D154     		strb	r1, [r2, r3]
 195:DataStructure/CusQueue.c **** 
 339              		.loc 1 195 17 is_stmt 1 discriminator 3 view .LVU100
 195:DataStructure/CusQueue.c **** 
 340              		.loc 1 195 20 is_stmt 0 discriminator 3 view .LVU101
 341 004c B4F80930 		ldrh	r3, [r4, #9]	@ unaligned
 195:DataStructure/CusQueue.c **** 
 342              		.loc 1 195 30 discriminator 3 view .LVU102
 343 0050 0133     		adds	r3, r3, #1
 344 0052 A4F80930 		strh	r3, [r4, #9]	@ unaligned
 197:DataStructure/CusQueue.c **** 
 345              		.loc 1 197 17 is_stmt 1 discriminator 3 view .LVU103
 197:DataStructure/CusQueue.c **** 
 346              		.loc 1 197 20 is_stmt 0 discriminator 3 view .LVU104
 347 0056 E388     		ldrh	r3, [r4, #6]	@ unaligned
 197:DataStructure/CusQueue.c **** 
 348              		.loc 1 197 26 discriminator 3 view .LVU105
 349 0058 013B     		subs	r3, r3, #1
 350 005a E380     		strh	r3, [r4, #6]	@ unaligned
 199:DataStructure/CusQueue.c ****             }
 351              		.loc 1 199 17 is_stmt 1 discriminator 3 view .LVU106
 352 005c 2046     		mov	r0, r4
 353 005e FFF7FEFF 		bl	Queue_UpdateState
 354              	.LVL21:
 190:DataStructure/CusQueue.c ****             {
 355              		.loc 1 190 44 discriminator 3 view .LVU107
 190:DataStructure/CusQueue.c ****             {
 356              		.loc 1 190 45 is_stmt 0 discriminator 3 view .LVU108
 357 0062 0135     		adds	r5, r5, #1
 358              	.LVL22:
 190:DataStructure/CusQueue.c ****             {
 359              		.loc 1 190 45 discriminator 3 view .LVU109
 360 0064 ADB2     		uxth	r5, r5
 361              	.LVL23:
 362              	.L25:
 190:DataStructure/CusQueue.c ****             {
 363              		.loc 1 190 34 is_stmt 1 discriminator 1 view .LVU110
 190:DataStructure/CusQueue.c ****             {
 364              		.loc 1 190 13 is_stmt 0 discriminator 1 view .LVU111
 365 0066 B542     		cmp	r5, r6
 366 0068 DCD3     		bcc	.L26
 367              	.LVL24:
 368              	.L24:
 190:DataStructure/CusQueue.c ****             {
ARM GAS  C:\Users\8bit\AppData\Local\Temp\ccqtn6lb.s 			page 12


 369              		.loc 1 190 13 discriminator 1 view .LVU112
 370              	.LBE5:
 204:DataStructure/CusQueue.c ****     }
 205:DataStructure/CusQueue.c **** 
 206:DataStructure/CusQueue.c ****     return obj->state;
 371              		.loc 1 206 5 is_stmt 1 view .LVU113
 372              		.loc 1 206 15 is_stmt 0 view .LVU114
 373 006a 207A     		ldrb	r0, [r4, #8]	@ zero_extendqisi2
 374              	.L22:
 207:DataStructure/CusQueue.c **** }
 375              		.loc 1 207 1 view .LVU115
 376 006c F8BD     		pop	{r3, r4, r5, r6, r7, pc}
 377              	.LVL25:
 378              	.L27:
 379              	.LCFI4:
 380              		.cfi_def_cfa_offset 0
 381              		.cfi_restore 3
 382              		.cfi_restore 4
 383              		.cfi_restore 5
 384              		.cfi_restore 6
 385              		.cfi_restore 7
 386              		.cfi_restore 14
 184:DataStructure/CusQueue.c **** 
 387              		.loc 1 184 16 view .LVU116
 388 006e 0520     		movs	r0, #5
 389              	.LVL26:
 390              		.loc 1 207 1 view .LVU117
 391 0070 7047     		bx	lr
 392              	.LVL27:
 393              	.L28:
 394              	.LCFI5:
 395              		.cfi_def_cfa_offset 24
 396              		.cfi_offset 3, -24
 397              		.cfi_offset 4, -20
 398              		.cfi_offset 5, -16
 399              		.cfi_offset 6, -12
 400              		.cfi_offset 7, -8
 401              		.cfi_offset 14, -4
 184:DataStructure/CusQueue.c **** 
 402              		.loc 1 184 16 view .LVU118
 403 0072 0520     		movs	r0, #5
 404              	.LVL28:
 184:DataStructure/CusQueue.c **** 
 405              		.loc 1 184 16 view .LVU119
 406 0074 FAE7     		b	.L22
 407              		.cfi_endproc
 408              	.LFE14:
 410              		.section	.text.Queue_GetRemain,"ax",%progbits
 411              		.align	1
 412              		.syntax unified
 413              		.thumb
 414              		.thumb_func
 416              	Queue_GetRemain:
 417              	.LFB15:
 208:DataStructure/CusQueue.c **** 
 209:DataStructure/CusQueue.c **** static uint16_t Queue_GetRemain(QueueObj_TypeDef obj)
 210:DataStructure/CusQueue.c **** {
ARM GAS  C:\Users\8bit\AppData\Local\Temp\ccqtn6lb.s 			page 13


 418              		.loc 1 210 1 is_stmt 1 view -0
 419              		.cfi_startproc
 420              		@ args = 20, pretend = 16, frame = 0
 421              		@ frame_needed = 0, uses_anonymous_args = 0
 422              		@ link register save eliminated.
 423 0000 84B0     		sub	sp, sp, #16
 424              	.LCFI6:
 425              		.cfi_def_cfa_offset 16
 426 0002 8DE80F00 		stm	sp, {r0, r1, r2, r3}
 211:DataStructure/CusQueue.c ****     return obj.lenth - obj.size;
 427              		.loc 1 211 5 view .LVU121
 428              		.loc 1 211 15 is_stmt 0 view .LVU122
 429 0006 BDF80400 		ldrh	r0, [sp, #4]
 430              		.loc 1 211 27 view .LVU123
 431 000a BDF80630 		ldrh	r3, [sp, #6]
 432              		.loc 1 211 22 view .LVU124
 433 000e C01A     		subs	r0, r0, r3
 212:DataStructure/CusQueue.c **** }
 434              		.loc 1 212 1 view .LVU125
 435 0010 80B2     		uxth	r0, r0
 436 0012 04B0     		add	sp, sp, #16
 437              	.LCFI7:
 438              		.cfi_def_cfa_offset 0
 439 0014 7047     		bx	lr
 440              		.cfi_endproc
 441              	.LFE15:
 443              		.section	.text.Queue_Check,"ax",%progbits
 444              		.align	1
 445              		.syntax unified
 446              		.thumb
 447              		.thumb_func
 449              	Queue_Check:
 450              	.LVL29:
 451              	.LFB16:
 213:DataStructure/CusQueue.c **** 
 214:DataStructure/CusQueue.c **** static bool Queue_Check(QueueObj_TypeDef *obj, uint16_t index, uint8_t *data, uint16_t size)
 215:DataStructure/CusQueue.c **** {
 452              		.loc 1 215 1 is_stmt 1 view -0
 453              		.cfi_startproc
 454              		@ args = 0, pretend = 0, frame = 0
 455              		@ frame_needed = 0, uses_anonymous_args = 0
 216:DataStructure/CusQueue.c ****     if (obj == NULL || (size == 0) || (data == NULL))
 456              		.loc 1 216 5 view .LVU127
 457              		.loc 1 216 8 is_stmt 0 view .LVU128
 458 0000 F8B1     		cbz	r0, .L41
 215:DataStructure/CusQueue.c ****     if (obj == NULL || (size == 0) || (data == NULL))
 459              		.loc 1 215 1 discriminator 1 view .LVU129
 460 0002 70B5     		push	{r4, r5, r6, lr}
 461              	.LCFI8:
 462              		.cfi_def_cfa_offset 16
 463              		.cfi_offset 4, -16
 464              		.cfi_offset 5, -12
 465              		.cfi_offset 6, -8
 466              		.cfi_offset 14, -4
 467 0004 8646     		mov	lr, r0
 468              		.loc 1 216 21 discriminator 1 view .LVU130
 469 0006 F3B1     		cbz	r3, .L42
ARM GAS  C:\Users\8bit\AppData\Local\Temp\ccqtn6lb.s 			page 14


 470              		.loc 1 216 36 discriminator 2 view .LVU131
 471 0008 FAB1     		cbz	r2, .L43
 472              	.LBB6:
 217:DataStructure/CusQueue.c ****         return false;
 218:DataStructure/CusQueue.c **** 
 219:DataStructure/CusQueue.c ****     for (uint8_t i = 0; i < size; i++)
 473              		.loc 1 219 18 view .LVU132
 474 000a 4FF0000C 		mov	ip, #0
 475 000e 12E0     		b	.L39
 476              	.LVL30:
 477              	.L40:
 220:DataStructure/CusQueue.c ****     {
 221:DataStructure/CusQueue.c ****         data[i] = obj->buff[(obj->head_pos + index + i) % obj->lenth];
 478              		.loc 1 221 9 is_stmt 1 discriminator 3 view .LVU133
 479              		.loc 1 221 22 is_stmt 0 discriminator 3 view .LVU134
 480 0010 DEF80D50 		ldr	r5, [lr, #13]	@ unaligned
 481              		.loc 1 221 33 discriminator 3 view .LVU135
 482 0014 BEF80900 		ldrh	r0, [lr, #9]	@ unaligned
 483              		.loc 1 221 44 discriminator 3 view .LVU136
 484 0018 0844     		add	r0, r0, r1
 485              		.loc 1 221 52 discriminator 3 view .LVU137
 486 001a 6044     		add	r0, r0, ip
 487              		.loc 1 221 62 discriminator 3 view .LVU138
 488 001c BEF80440 		ldrh	r4, [lr, #4]	@ unaligned
 489              		.loc 1 221 57 discriminator 3 view .LVU139
 490 0020 90FBF4F6 		sdiv	r6, r0, r4
 491 0024 04FB1600 		mls	r0, r4, r6, r0
 492              		.loc 1 221 28 discriminator 3 view .LVU140
 493 0028 285C     		ldrb	r0, [r5, r0]	@ zero_extendqisi2
 494              		.loc 1 221 17 discriminator 3 view .LVU141
 495 002a 02F80C00 		strb	r0, [r2, ip]
 219:DataStructure/CusQueue.c ****     {
 496              		.loc 1 219 35 is_stmt 1 discriminator 3 view .LVU142
 219:DataStructure/CusQueue.c ****     {
 497              		.loc 1 219 36 is_stmt 0 discriminator 3 view .LVU143
 498 002e 0CF1010C 		add	ip, ip, #1
 499              	.LVL31:
 219:DataStructure/CusQueue.c ****     {
 500              		.loc 1 219 36 discriminator 3 view .LVU144
 501 0032 5FFA8CFC 		uxtb	ip, ip
 502              	.LVL32:
 503              	.L39:
 219:DataStructure/CusQueue.c ****     {
 504              		.loc 1 219 25 is_stmt 1 discriminator 1 view .LVU145
 219:DataStructure/CusQueue.c ****     {
 505              		.loc 1 219 27 is_stmt 0 discriminator 1 view .LVU146
 506 0036 1FFA8CF0 		uxth	r0, ip
 219:DataStructure/CusQueue.c ****     {
 507              		.loc 1 219 5 discriminator 1 view .LVU147
 508 003a 9842     		cmp	r0, r3
 509 003c E8D3     		bcc	.L40
 510              	.LBE6:
 222:DataStructure/CusQueue.c ****     }
 223:DataStructure/CusQueue.c **** 
 224:DataStructure/CusQueue.c ****     return true;
 511              		.loc 1 224 12 view .LVU148
 512 003e 0120     		movs	r0, #1
ARM GAS  C:\Users\8bit\AppData\Local\Temp\ccqtn6lb.s 			page 15


 513              	.LVL33:
 514              	.L38:
 225:DataStructure/CusQueue.c **** }
 515              		.loc 1 225 1 view .LVU149
 516 0040 70BD     		pop	{r4, r5, r6, pc}
 517              	.LVL34:
 518              	.L41:
 519              	.LCFI9:
 520              		.cfi_def_cfa_offset 0
 521              		.cfi_restore 4
 522              		.cfi_restore 5
 523              		.cfi_restore 6
 524              		.cfi_restore 14
 217:DataStructure/CusQueue.c **** 
 525              		.loc 1 217 16 view .LVU150
 526 0042 0020     		movs	r0, #0
 527              	.LVL35:
 528              		.loc 1 225 1 view .LVU151
 529 0044 7047     		bx	lr
 530              	.LVL36:
 531              	.L42:
 532              	.LCFI10:
 533              		.cfi_def_cfa_offset 16
 534              		.cfi_offset 4, -16
 535              		.cfi_offset 5, -12
 536              		.cfi_offset 6, -8
 537              		.cfi_offset 14, -4
 217:DataStructure/CusQueue.c **** 
 538              		.loc 1 217 16 view .LVU152
 539 0046 0020     		movs	r0, #0
 540              	.LVL37:
 217:DataStructure/CusQueue.c **** 
 541              		.loc 1 217 16 view .LVU153
 542 0048 FAE7     		b	.L38
 543              	.LVL38:
 544              	.L43:
 217:DataStructure/CusQueue.c **** 
 545              		.loc 1 217 16 view .LVU154
 546 004a 0020     		movs	r0, #0
 547              	.LVL39:
 217:DataStructure/CusQueue.c **** 
 548              		.loc 1 217 16 view .LVU155
 549 004c F8E7     		b	.L38
 550              		.cfi_endproc
 551              	.LFE16:
 553              		.section	.text.Queue_GetState,"ax",%progbits
 554              		.align	1
 555              		.syntax unified
 556              		.thumb
 557              		.thumb_func
 559              	Queue_GetState:
 560              	.LFB17:
 226:DataStructure/CusQueue.c **** 
 227:DataStructure/CusQueue.c **** static Queue_state Queue_GetState(QueueObj_TypeDef obj)
 228:DataStructure/CusQueue.c **** {
 561              		.loc 1 228 1 is_stmt 1 view -0
 562              		.cfi_startproc
ARM GAS  C:\Users\8bit\AppData\Local\Temp\ccqtn6lb.s 			page 16


 563              		@ args = 20, pretend = 16, frame = 0
 564              		@ frame_needed = 0, uses_anonymous_args = 0
 565              		@ link register save eliminated.
 566 0000 84B0     		sub	sp, sp, #16
 567              	.LCFI11:
 568              		.cfi_def_cfa_offset 16
 569 0002 8DE80F00 		stm	sp, {r0, r1, r2, r3}
 229:DataStructure/CusQueue.c ****     return obj.state;
 570              		.loc 1 229 5 view .LVU157
 230:DataStructure/CusQueue.c **** }
 571              		.loc 1 230 1 is_stmt 0 view .LVU158
 572 0006 9DF80800 		ldrb	r0, [sp, #8]	@ zero_extendqisi2
 573 000a 04B0     		add	sp, sp, #16
 574              	.LCFI12:
 575              		.cfi_def_cfa_offset 0
 576 000c 7047     		bx	lr
 577              		.cfi_endproc
 578              	.LFE17:
 580              		.section	.text.Queue_GetSize,"ax",%progbits
 581              		.align	1
 582              		.syntax unified
 583              		.thumb
 584              		.thumb_func
 586              	Queue_GetSize:
 587              	.LFB18:
 231:DataStructure/CusQueue.c **** 
 232:DataStructure/CusQueue.c **** static uint16_t Queue_GetSize(QueueObj_TypeDef obj)
 233:DataStructure/CusQueue.c **** {
 588              		.loc 1 233 1 is_stmt 1 view -0
 589              		.cfi_startproc
 590              		@ args = 20, pretend = 16, frame = 0
 591              		@ frame_needed = 0, uses_anonymous_args = 0
 592              		@ link register save eliminated.
 593 0000 84B0     		sub	sp, sp, #16
 594              	.LCFI13:
 595              		.cfi_def_cfa_offset 16
 596 0002 8DE80F00 		stm	sp, {r0, r1, r2, r3}
 234:DataStructure/CusQueue.c ****     return obj.size;
 597              		.loc 1 234 5 view .LVU160
 235:DataStructure/CusQueue.c **** }
 598              		.loc 1 235 1 is_stmt 0 view .LVU161
 599 0006 BDF80600 		ldrh	r0, [sp, #6]
 600 000a 04B0     		add	sp, sp, #16
 601              	.LCFI14:
 602              		.cfi_def_cfa_offset 0
 603 000c 7047     		bx	lr
 604              		.cfi_endproc
 605              	.LFE18:
 607              		.section	.text.Queue_PopTo,"ax",%progbits
 608              		.align	1
 609              		.syntax unified
 610              		.thumb
 611              		.thumb_func
 613              	Queue_PopTo:
 614              	.LVL40:
 615              	.LFB12:
 119:DataStructure/CusQueue.c ****     uint16_t dst_remain_size = 0;
ARM GAS  C:\Users\8bit\AppData\Local\Temp\ccqtn6lb.s 			page 17


 616              		.loc 1 119 1 is_stmt 1 view -0
 617              		.cfi_startproc
 618              		@ args = 0, pretend = 0, frame = 0
 619              		@ frame_needed = 0, uses_anonymous_args = 0
 120:DataStructure/CusQueue.c ****     uint16_t src_size = 0;
 620              		.loc 1 120 5 view .LVU163
 121:DataStructure/CusQueue.c ****     uint16_t copy_size = 0;
 621              		.loc 1 121 5 view .LVU164
 122:DataStructure/CusQueue.c **** 
 622              		.loc 1 122 5 view .LVU165
 124:DataStructure/CusQueue.c ****         return false;
 623              		.loc 1 124 5 view .LVU166
 124:DataStructure/CusQueue.c ****         return false;
 624              		.loc 1 124 7 is_stmt 0 view .LVU167
 625 0000 0028     		cmp	r0, #0
 626 0002 63D0     		beq	.L56
 119:DataStructure/CusQueue.c ****     uint16_t dst_remain_size = 0;
 627              		.loc 1 119 1 discriminator 1 view .LVU168
 628 0004 F0B5     		push	{r4, r5, r6, r7, lr}
 629              	.LCFI15:
 630              		.cfi_def_cfa_offset 20
 631              		.cfi_offset 4, -20
 632              		.cfi_offset 5, -16
 633              		.cfi_offset 6, -12
 634              		.cfi_offset 7, -8
 635              		.cfi_offset 14, -4
 636 0006 83B0     		sub	sp, sp, #12
 637              	.LCFI16:
 638              		.cfi_def_cfa_offset 32
 639 0008 0C46     		mov	r4, r1
 640 000a 0546     		mov	r5, r0
 124:DataStructure/CusQueue.c ****         return false;
 641              		.loc 1 124 22 discriminator 1 view .LVU169
 642 000c 0029     		cmp	r1, #0
 643 000e 5FD0     		beq	.L57
 124:DataStructure/CusQueue.c ****         return false;
 644              		.loc 1 124 46 discriminator 2 view .LVU170
 645 0010 C388     		ldrh	r3, [r0, #6]	@ unaligned
 124:DataStructure/CusQueue.c ****         return false;
 646              		.loc 1 124 39 discriminator 2 view .LVU171
 647 0012 002B     		cmp	r3, #0
 648 0014 5ED0     		beq	.L58
 124:DataStructure/CusQueue.c ****         return false;
 649              		.loc 1 124 66 discriminator 3 view .LVU172
 650 0016 8A88     		ldrh	r2, [r1, #4]	@ unaligned
 124:DataStructure/CusQueue.c ****         return false;
 651              		.loc 1 124 80 discriminator 3 view .LVU173
 652 0018 CB88     		ldrh	r3, [r1, #6]	@ unaligned
 124:DataStructure/CusQueue.c ****         return false;
 653              		.loc 1 124 59 discriminator 3 view .LVU174
 654 001a 9A42     		cmp	r2, r3
 655 001c 5CD0     		beq	.L59
 127:DataStructure/CusQueue.c ****     src_size = Queue_GetSize(*src);
 656              		.loc 1 127 5 is_stmt 1 view .LVU175
 127:DataStructure/CusQueue.c ****     src_size = Queue_GetSize(*src);
 657              		.loc 1 127 23 is_stmt 0 view .LVU176
 658 001e 0B7C     		ldrb	r3, [r1, #16]	@ zero_extendqisi2
ARM GAS  C:\Users\8bit\AppData\Local\Temp\ccqtn6lb.s 			page 18


 659 0020 8DF80030 		strb	r3, [sp]
 660 0024 0868     		ldr	r0, [r1]	@ unaligned
 661              	.LVL41:
 127:DataStructure/CusQueue.c ****     src_size = Queue_GetSize(*src);
 662              		.loc 1 127 23 view .LVU177
 663 0026 4968     		ldr	r1, [r1, #4]	@ unaligned
 664              	.LVL42:
 127:DataStructure/CusQueue.c ****     src_size = Queue_GetSize(*src);
 665              		.loc 1 127 23 view .LVU178
 666 0028 A268     		ldr	r2, [r4, #8]	@ unaligned
 667 002a E368     		ldr	r3, [r4, #12]	@ unaligned
 668 002c FFF7FEFF 		bl	Queue_GetRemain
 669              	.LVL43:
 670 0030 0746     		mov	r7, r0
 671              	.LVL44:
 128:DataStructure/CusQueue.c **** 
 672              		.loc 1 128 5 is_stmt 1 view .LVU179
 128:DataStructure/CusQueue.c **** 
 673              		.loc 1 128 16 is_stmt 0 view .LVU180
 674 0032 2B7C     		ldrb	r3, [r5, #16]	@ zero_extendqisi2
 675 0034 8DF80030 		strb	r3, [sp]
 676 0038 2868     		ldr	r0, [r5]	@ unaligned
 677 003a 6968     		ldr	r1, [r5, #4]	@ unaligned
 678 003c AA68     		ldr	r2, [r5, #8]	@ unaligned
 679 003e EB68     		ldr	r3, [r5, #12]	@ unaligned
 680 0040 FFF7FEFF 		bl	Queue_GetSize
 681              	.LVL45:
 130:DataStructure/CusQueue.c **** 
 682              		.loc 1 130 5 is_stmt 1 view .LVU181
 130:DataStructure/CusQueue.c **** 
 683              		.loc 1 130 15 is_stmt 0 view .LVU182
 684 0044 8742     		cmp	r7, r0
 685 0046 28BF     		it	cs
 686 0048 0746     		movcs	r7, r0
 687              	.LVL46:
 130:DataStructure/CusQueue.c **** 
 688              		.loc 1 130 15 view .LVU183
 689 004a BFB2     		uxth	r7, r7
 690              	.LVL47:
 132:DataStructure/CusQueue.c ****     {
 691              		.loc 1 132 5 is_stmt 1 view .LVU184
 692              	.LBB7:
 132:DataStructure/CusQueue.c ****     {
 693              		.loc 1 132 9 view .LVU185
 132:DataStructure/CusQueue.c ****     {
 694              		.loc 1 132 18 is_stmt 0 view .LVU186
 695 004c 0026     		movs	r6, #0
 132:DataStructure/CusQueue.c ****     {
 696              		.loc 1 132 5 view .LVU187
 697 004e 38E0     		b	.L54
 698              	.LVL48:
 699              	.L55:
 134:DataStructure/CusQueue.c ****         src->head_pos %= src->lenth;
 700              		.loc 1 134 9 is_stmt 1 discriminator 3 view .LVU188
 134:DataStructure/CusQueue.c ****         src->head_pos %= src->lenth;
 701              		.loc 1 134 28 is_stmt 0 discriminator 3 view .LVU189
 702 0050 A288     		ldrh	r2, [r4, #4]	@ unaligned
ARM GAS  C:\Users\8bit\AppData\Local\Temp\ccqtn6lb.s 			page 19


 134:DataStructure/CusQueue.c ****         src->head_pos %= src->lenth;
 703              		.loc 1 134 22 discriminator 3 view .LVU190
 704 0052 B4F80B30 		ldrh	r3, [r4, #11]	@ unaligned
 705 0056 B3FBF2F1 		udiv	r1, r3, r2
 706 005a 02FB1133 		mls	r3, r2, r1, r3
 707 005e A4F80B30 		strh	r3, [r4, #11]	@ unaligned
 135:DataStructure/CusQueue.c **** 
 708              		.loc 1 135 9 is_stmt 1 discriminator 3 view .LVU191
 135:DataStructure/CusQueue.c **** 
 709              		.loc 1 135 29 is_stmt 0 discriminator 3 view .LVU192
 710 0062 AA88     		ldrh	r2, [r5, #4]	@ unaligned
 135:DataStructure/CusQueue.c **** 
 711              		.loc 1 135 23 discriminator 3 view .LVU193
 712 0064 B5F80930 		ldrh	r3, [r5, #9]	@ unaligned
 713 0068 B3FBF2F1 		udiv	r1, r3, r2
 714 006c 02FB1133 		mls	r3, r2, r1, r3
 715 0070 99B2     		uxth	r1, r3
 716 0072 A5F80930 		strh	r3, [r5, #9]	@ unaligned
 137:DataStructure/CusQueue.c ****         src->buff[src->head_pos] = 0;
 717              		.loc 1 137 9 is_stmt 1 discriminator 3 view .LVU194
 137:DataStructure/CusQueue.c ****         src->buff[src->head_pos] = 0;
 718              		.loc 1 137 38 is_stmt 0 discriminator 3 view .LVU195
 719 0076 D5F80D00 		ldr	r0, [r5, #13]	@ unaligned
 137:DataStructure/CusQueue.c ****         src->buff[src->head_pos] = 0;
 720              		.loc 1 137 12 discriminator 3 view .LVU196
 721 007a D4F80D20 		ldr	r2, [r4, #13]	@ unaligned
 137:DataStructure/CusQueue.c ****         src->buff[src->head_pos] = 0;
 722              		.loc 1 137 22 discriminator 3 view .LVU197
 723 007e B4F80B30 		ldrh	r3, [r4, #11]	@ unaligned
 137:DataStructure/CusQueue.c ****         src->buff[src->head_pos] = 0;
 724              		.loc 1 137 44 discriminator 3 view .LVU198
 725 0082 415C     		ldrb	r1, [r0, r1]	@ zero_extendqisi2
 137:DataStructure/CusQueue.c ****         src->buff[src->head_pos] = 0;
 726              		.loc 1 137 33 discriminator 3 view .LVU199
 727 0084 D154     		strb	r1, [r2, r3]
 138:DataStructure/CusQueue.c **** 
 728              		.loc 1 138 9 is_stmt 1 discriminator 3 view .LVU200
 138:DataStructure/CusQueue.c **** 
 729              		.loc 1 138 12 is_stmt 0 discriminator 3 view .LVU201
 730 0086 D5F80D20 		ldr	r2, [r5, #13]	@ unaligned
 138:DataStructure/CusQueue.c **** 
 731              		.loc 1 138 22 discriminator 3 view .LVU202
 732 008a B5F80930 		ldrh	r3, [r5, #9]	@ unaligned
 138:DataStructure/CusQueue.c **** 
 733              		.loc 1 138 34 discriminator 3 view .LVU203
 734 008e 0021     		movs	r1, #0
 735 0090 D154     		strb	r1, [r2, r3]
 140:DataStructure/CusQueue.c ****         src->size--;
 736              		.loc 1 140 9 is_stmt 1 discriminator 3 view .LVU204
 140:DataStructure/CusQueue.c ****         src->size--;
 737              		.loc 1 140 12 is_stmt 0 discriminator 3 view .LVU205
 738 0092 B5F80930 		ldrh	r3, [r5, #9]	@ unaligned
 140:DataStructure/CusQueue.c ****         src->size--;
 739              		.loc 1 140 22 discriminator 3 view .LVU206
 740 0096 0133     		adds	r3, r3, #1
 741 0098 A5F80930 		strh	r3, [r5, #9]	@ unaligned
 141:DataStructure/CusQueue.c ****         
ARM GAS  C:\Users\8bit\AppData\Local\Temp\ccqtn6lb.s 			page 20


 742              		.loc 1 141 9 is_stmt 1 discriminator 3 view .LVU207
 141:DataStructure/CusQueue.c ****         
 743              		.loc 1 141 12 is_stmt 0 discriminator 3 view .LVU208
 744 009c EB88     		ldrh	r3, [r5, #6]	@ unaligned
 141:DataStructure/CusQueue.c ****         
 745              		.loc 1 141 18 discriminator 3 view .LVU209
 746 009e 013B     		subs	r3, r3, #1
 747 00a0 EB80     		strh	r3, [r5, #6]	@ unaligned
 143:DataStructure/CusQueue.c ****         dst->size++;
 748              		.loc 1 143 9 is_stmt 1 discriminator 3 view .LVU210
 143:DataStructure/CusQueue.c ****         dst->size++;
 749              		.loc 1 143 12 is_stmt 0 discriminator 3 view .LVU211
 750 00a2 B4F80B30 		ldrh	r3, [r4, #11]	@ unaligned
 143:DataStructure/CusQueue.c ****         dst->size++;
 751              		.loc 1 143 21 discriminator 3 view .LVU212
 752 00a6 0133     		adds	r3, r3, #1
 753 00a8 A4F80B30 		strh	r3, [r4, #11]	@ unaligned
 144:DataStructure/CusQueue.c **** 
 754              		.loc 1 144 9 is_stmt 1 discriminator 3 view .LVU213
 144:DataStructure/CusQueue.c **** 
 755              		.loc 1 144 12 is_stmt 0 discriminator 3 view .LVU214
 756 00ac E388     		ldrh	r3, [r4, #6]	@ unaligned
 144:DataStructure/CusQueue.c **** 
 757              		.loc 1 144 18 discriminator 3 view .LVU215
 758 00ae 0133     		adds	r3, r3, #1
 759 00b0 E380     		strh	r3, [r4, #6]	@ unaligned
 146:DataStructure/CusQueue.c ****         Queue_UpdateState(src);
 760              		.loc 1 146 9 is_stmt 1 discriminator 3 view .LVU216
 761 00b2 2046     		mov	r0, r4
 762 00b4 FFF7FEFF 		bl	Queue_UpdateState
 763              	.LVL49:
 147:DataStructure/CusQueue.c ****     }
 764              		.loc 1 147 9 discriminator 3 view .LVU217
 765 00b8 2846     		mov	r0, r5
 766 00ba FFF7FEFF 		bl	Queue_UpdateState
 767              	.LVL50:
 132:DataStructure/CusQueue.c ****     {
 768              		.loc 1 132 40 discriminator 3 view .LVU218
 132:DataStructure/CusQueue.c ****     {
 769              		.loc 1 132 41 is_stmt 0 discriminator 3 view .LVU219
 770 00be 0136     		adds	r6, r6, #1
 771              	.LVL51:
 132:DataStructure/CusQueue.c ****     {
 772              		.loc 1 132 41 discriminator 3 view .LVU220
 773 00c0 B6B2     		uxth	r6, r6
 774              	.LVL52:
 775              	.L54:
 132:DataStructure/CusQueue.c ****     {
 776              		.loc 1 132 25 is_stmt 1 discriminator 1 view .LVU221
 132:DataStructure/CusQueue.c ****     {
 777              		.loc 1 132 5 is_stmt 0 discriminator 1 view .LVU222
 778 00c2 BE42     		cmp	r6, r7
 779 00c4 C4D3     		bcc	.L55
 780              	.LBE7:
 150:DataStructure/CusQueue.c **** }
 781              		.loc 1 150 12 view .LVU223
 782 00c6 0120     		movs	r0, #1
ARM GAS  C:\Users\8bit\AppData\Local\Temp\ccqtn6lb.s 			page 21


 783              	.LVL53:
 784              	.L53:
 151:DataStructure/CusQueue.c **** 
 785              		.loc 1 151 1 view .LVU224
 786 00c8 03B0     		add	sp, sp, #12
 787              	.LCFI17:
 788              		.cfi_def_cfa_offset 20
 789              		@ sp needed
 790 00ca F0BD     		pop	{r4, r5, r6, r7, pc}
 791              	.LVL54:
 792              	.L56:
 793              	.LCFI18:
 794              		.cfi_def_cfa_offset 0
 795              		.cfi_restore 4
 796              		.cfi_restore 5
 797              		.cfi_restore 6
 798              		.cfi_restore 7
 799              		.cfi_restore 14
 125:DataStructure/CusQueue.c **** 
 800              		.loc 1 125 16 view .LVU225
 801 00cc 0020     		movs	r0, #0
 802              	.LVL55:
 151:DataStructure/CusQueue.c **** 
 803              		.loc 1 151 1 view .LVU226
 804 00ce 7047     		bx	lr
 805              	.LVL56:
 806              	.L57:
 807              	.LCFI19:
 808              		.cfi_def_cfa_offset 32
 809              		.cfi_offset 4, -20
 810              		.cfi_offset 5, -16
 811              		.cfi_offset 6, -12
 812              		.cfi_offset 7, -8
 813              		.cfi_offset 14, -4
 125:DataStructure/CusQueue.c **** 
 814              		.loc 1 125 16 view .LVU227
 815 00d0 0020     		movs	r0, #0
 816              	.LVL57:
 125:DataStructure/CusQueue.c **** 
 817              		.loc 1 125 16 view .LVU228
 818 00d2 F9E7     		b	.L53
 819              	.LVL58:
 820              	.L58:
 125:DataStructure/CusQueue.c **** 
 821              		.loc 1 125 16 view .LVU229
 822 00d4 0020     		movs	r0, #0
 823              	.LVL59:
 125:DataStructure/CusQueue.c **** 
 824              		.loc 1 125 16 view .LVU230
 825 00d6 F7E7     		b	.L53
 826              	.LVL60:
 827              	.L59:
 125:DataStructure/CusQueue.c **** 
 828              		.loc 1 125 16 view .LVU231
 829 00d8 0020     		movs	r0, #0
 830              	.LVL61:
 125:DataStructure/CusQueue.c **** 
ARM GAS  C:\Users\8bit\AppData\Local\Temp\ccqtn6lb.s 			page 22


 831              		.loc 1 125 16 view .LVU232
 832 00da F5E7     		b	.L53
 833              		.cfi_endproc
 834              	.LFE12:
 836              		.section	.text.Queue_Reset,"ax",%progbits
 837              		.align	1
 838              		.syntax unified
 839              		.thumb
 840              		.thumb_func
 842              	Queue_Reset:
 843              	.LVL62:
 844              	.LFB10:
  86:DataStructure/CusQueue.c ****     if ((obj == NULL) || (obj->buff == NULL) || (obj->lenth == 0))
 845              		.loc 1 86 1 is_stmt 1 view -0
 846              		.cfi_startproc
 847              		@ args = 0, pretend = 0, frame = 0
 848              		@ frame_needed = 0, uses_anonymous_args = 0
  87:DataStructure/CusQueue.c ****         return false;
 849              		.loc 1 87 5 view .LVU234
  87:DataStructure/CusQueue.c ****         return false;
 850              		.loc 1 87 8 is_stmt 0 view .LVU235
 851 0000 B8B1     		cbz	r0, .L66
  86:DataStructure/CusQueue.c ****     if ((obj == NULL) || (obj->buff == NULL) || (obj->lenth == 0))
 852              		.loc 1 86 1 discriminator 1 view .LVU236
 853 0002 08B5     		push	{r3, lr}
 854              	.LCFI20:
 855              		.cfi_def_cfa_offset 8
 856              		.cfi_offset 3, -8
 857              		.cfi_offset 14, -4
 858 0004 0346     		mov	r3, r0
  87:DataStructure/CusQueue.c ****         return false;
 859              		.loc 1 87 30 discriminator 1 view .LVU237
 860 0006 D0F80D00 		ldr	r0, [r0, #13]	@ unaligned
 861              	.LVL63:
  87:DataStructure/CusQueue.c ****         return false;
 862              		.loc 1 87 23 discriminator 1 view .LVU238
 863 000a A0B1     		cbz	r0, .L67
  87:DataStructure/CusQueue.c ****         return false;
 864              		.loc 1 87 53 discriminator 2 view .LVU239
 865 000c 9A88     		ldrh	r2, [r3, #4]	@ unaligned
  87:DataStructure/CusQueue.c ****         return false;
 866              		.loc 1 87 46 discriminator 2 view .LVU240
 867 000e 0AB9     		cbnz	r2, .L73
  88:DataStructure/CusQueue.c **** 
 868              		.loc 1 88 16 view .LVU241
 869 0010 0020     		movs	r0, #0
 870              	.LVL64:
 871              	.L65:
  98:DataStructure/CusQueue.c **** 
 872              		.loc 1 98 1 view .LVU242
 873 0012 08BD     		pop	{r3, pc}
 874              	.LVL65:
 875              	.L73:
  90:DataStructure/CusQueue.c ****     obj->head_pos = 0;
 876              		.loc 1 90 5 is_stmt 1 view .LVU243
  90:DataStructure/CusQueue.c ****     obj->head_pos = 0;
 877              		.loc 1 90 18 is_stmt 0 view .LVU244
ARM GAS  C:\Users\8bit\AppData\Local\Temp\ccqtn6lb.s 			page 23


 878 0014 0021     		movs	r1, #0
 879 0016 D972     		strb	r1, [r3, #11]
 880 0018 1973     		strb	r1, [r3, #12]
  91:DataStructure/CusQueue.c ****     obj->size = 0;
 881              		.loc 1 91 5 is_stmt 1 view .LVU245
  91:DataStructure/CusQueue.c ****     obj->size = 0;
 882              		.loc 1 91 19 is_stmt 0 view .LVU246
 883 001a 5972     		strb	r1, [r3, #9]
 884 001c 9972     		strb	r1, [r3, #10]
  92:DataStructure/CusQueue.c **** 
 885              		.loc 1 92 5 is_stmt 1 view .LVU247
  92:DataStructure/CusQueue.c **** 
 886              		.loc 1 92 15 is_stmt 0 view .LVU248
 887 001e 9971     		strb	r1, [r3, #6]
 888 0020 D971     		strb	r1, [r3, #7]
  94:DataStructure/CusQueue.c ****     memset(obj->buff, 0, obj->lenth);
 889              		.loc 1 94 5 is_stmt 1 view .LVU249
  94:DataStructure/CusQueue.c ****     memset(obj->buff, 0, obj->lenth);
 890              		.loc 1 94 16 is_stmt 0 view .LVU250
 891 0022 4FF0030C 		mov	ip, #3
 892 0026 83F808C0 		strb	ip, [r3, #8]
  95:DataStructure/CusQueue.c **** 
 893              		.loc 1 95 5 is_stmt 1 view .LVU251
 894 002a FFF7FEFF 		bl	memset
 895              	.LVL66:
  97:DataStructure/CusQueue.c **** }
 896              		.loc 1 97 5 view .LVU252
  97:DataStructure/CusQueue.c **** }
 897              		.loc 1 97 12 is_stmt 0 view .LVU253
 898 002e 0120     		movs	r0, #1
 899 0030 EFE7     		b	.L65
 900              	.LVL67:
 901              	.L66:
 902              	.LCFI21:
 903              		.cfi_def_cfa_offset 0
 904              		.cfi_restore 3
 905              		.cfi_restore 14
  88:DataStructure/CusQueue.c **** 
 906              		.loc 1 88 16 view .LVU254
 907 0032 0020     		movs	r0, #0
 908              	.LVL68:
  98:DataStructure/CusQueue.c **** 
 909              		.loc 1 98 1 view .LVU255
 910 0034 7047     		bx	lr
 911              	.LVL69:
 912              	.L67:
 913              	.LCFI22:
 914              		.cfi_def_cfa_offset 8
 915              		.cfi_offset 3, -8
 916              		.cfi_offset 14, -4
  88:DataStructure/CusQueue.c **** 
 917              		.loc 1 88 16 view .LVU256
 918 0036 0020     		movs	r0, #0
 919 0038 EBE7     		b	.L65
 920              		.cfi_endproc
 921              	.LFE10:
 923              		.section	.text.Queue_Create_WithCertainBuff,"ax",%progbits
ARM GAS  C:\Users\8bit\AppData\Local\Temp\ccqtn6lb.s 			page 24


 924              		.align	1
 925              		.syntax unified
 926              		.thumb
 927              		.thumb_func
 929              	Queue_Create_WithCertainBuff:
 930              	.LVL70:
 931              	.LFB8:
  42:DataStructure/CusQueue.c ****     if ((obj == NULL) || (len == 0))
 932              		.loc 1 42 1 is_stmt 1 view -0
 933              		.cfi_startproc
 934              		@ args = 0, pretend = 0, frame = 0
 935              		@ frame_needed = 0, uses_anonymous_args = 0
  43:DataStructure/CusQueue.c ****         return false;
 936              		.loc 1 43 5 view .LVU258
  43:DataStructure/CusQueue.c ****         return false;
 937              		.loc 1 43 8 is_stmt 0 view .LVU259
 938 0000 D8B1     		cbz	r0, .L76
  42:DataStructure/CusQueue.c ****     if ((obj == NULL) || (len == 0))
 939              		.loc 1 42 1 discriminator 1 view .LVU260
 940 0002 10B5     		push	{r4, lr}
 941              	.LCFI23:
 942              		.cfi_def_cfa_offset 8
 943              		.cfi_offset 4, -8
 944              		.cfi_offset 14, -4
 945 0004 9446     		mov	ip, r2
 946 0006 0446     		mov	r4, r0
  43:DataStructure/CusQueue.c ****         return false;
 947              		.loc 1 43 23 discriminator 1 view .LVU261
 948 0008 0BB9     		cbnz	r3, .L83
  44:DataStructure/CusQueue.c **** 
 949              		.loc 1 44 16 view .LVU262
 950 000a 0020     		movs	r0, #0
 951              	.LVL71:
 952              	.L75:
  61:DataStructure/CusQueue.c **** 
 953              		.loc 1 61 1 view .LVU263
 954 000c 10BD     		pop	{r4, pc}
 955              	.LVL72:
 956              	.L83:
  46:DataStructure/CusQueue.c ****     obj->end_pos = 0;
 957              		.loc 1 46 5 is_stmt 1 view .LVU264
  46:DataStructure/CusQueue.c ****     obj->end_pos = 0;
 958              		.loc 1 46 15 is_stmt 0 view .LVU265
 959 000e 0160     		str	r1, [r0]	@ unaligned
  47:DataStructure/CusQueue.c ****     obj->head_pos = 0;
 960              		.loc 1 47 5 is_stmt 1 view .LVU266
  47:DataStructure/CusQueue.c ****     obj->head_pos = 0;
 961              		.loc 1 47 18 is_stmt 0 view .LVU267
 962 0010 0021     		movs	r1, #0
 963              	.LVL73:
  47:DataStructure/CusQueue.c ****     obj->head_pos = 0;
 964              		.loc 1 47 18 view .LVU268
 965 0012 C172     		strb	r1, [r0, #11]
 966 0014 0173     		strb	r1, [r0, #12]
  48:DataStructure/CusQueue.c ****     obj->size = 0;
 967              		.loc 1 48 5 is_stmt 1 view .LVU269
  48:DataStructure/CusQueue.c ****     obj->size = 0;
ARM GAS  C:\Users\8bit\AppData\Local\Temp\ccqtn6lb.s 			page 25


 968              		.loc 1 48 19 is_stmt 0 view .LVU270
 969 0016 4172     		strb	r1, [r0, #9]
 970 0018 8172     		strb	r1, [r0, #10]
  49:DataStructure/CusQueue.c ****     obj->lenth = len;
 971              		.loc 1 49 5 is_stmt 1 view .LVU271
  49:DataStructure/CusQueue.c ****     obj->lenth = len;
 972              		.loc 1 49 15 is_stmt 0 view .LVU272
 973 001a 8171     		strb	r1, [r0, #6]
 974 001c C171     		strb	r1, [r0, #7]
  50:DataStructure/CusQueue.c **** 
 975              		.loc 1 50 5 is_stmt 1 view .LVU273
  50:DataStructure/CusQueue.c **** 
 976              		.loc 1 50 16 is_stmt 0 view .LVU274
 977 001e 8380     		strh	r3, [r0, #4]	@ unaligned
  52:DataStructure/CusQueue.c ****     memset(obj->buff, 0, obj->lenth);
 978              		.loc 1 52 5 is_stmt 1 view .LVU275
  52:DataStructure/CusQueue.c ****     memset(obj->buff, 0, obj->lenth);
 979              		.loc 1 52 15 is_stmt 0 view .LVU276
 980 0020 C0F80D20 		str	r2, [r0, #13]	@ unaligned
  53:DataStructure/CusQueue.c **** 
 981              		.loc 1 53 5 is_stmt 1 view .LVU277
 982 0024 1A46     		mov	r2, r3
 983              	.LVL74:
  53:DataStructure/CusQueue.c **** 
 984              		.loc 1 53 5 is_stmt 0 view .LVU278
 985 0026 6046     		mov	r0, ip
 986              	.LVL75:
  53:DataStructure/CusQueue.c **** 
 987              		.loc 1 53 5 view .LVU279
 988 0028 FFF7FEFF 		bl	memset
 989              	.LVL76:
  55:DataStructure/CusQueue.c ****         return false;
 990              		.loc 1 55 5 is_stmt 1 view .LVU280
  55:DataStructure/CusQueue.c ****         return false;
 991              		.loc 1 55 12 is_stmt 0 view .LVU281
 992 002c D4F80D30 		ldr	r3, [r4, #13]	@ unaligned
  55:DataStructure/CusQueue.c ****         return false;
 993              		.loc 1 55 8 view .LVU282
 994 0030 2BB1     		cbz	r3, .L78
  58:DataStructure/CusQueue.c **** 
 995              		.loc 1 58 5 is_stmt 1 view .LVU283
  58:DataStructure/CusQueue.c **** 
 996              		.loc 1 58 16 is_stmt 0 view .LVU284
 997 0032 0323     		movs	r3, #3
 998 0034 2372     		strb	r3, [r4, #8]
  60:DataStructure/CusQueue.c **** }
 999              		.loc 1 60 5 is_stmt 1 view .LVU285
  60:DataStructure/CusQueue.c **** }
 1000              		.loc 1 60 12 is_stmt 0 view .LVU286
 1001 0036 0120     		movs	r0, #1
 1002 0038 E8E7     		b	.L75
 1003              	.LVL77:
 1004              	.L76:
 1005              	.LCFI24:
 1006              		.cfi_def_cfa_offset 0
 1007              		.cfi_restore 4
 1008              		.cfi_restore 14
ARM GAS  C:\Users\8bit\AppData\Local\Temp\ccqtn6lb.s 			page 26


  44:DataStructure/CusQueue.c **** 
 1009              		.loc 1 44 16 view .LVU287
 1010 003a 0020     		movs	r0, #0
 1011              	.LVL78:
  61:DataStructure/CusQueue.c **** 
 1012              		.loc 1 61 1 view .LVU288
 1013 003c 7047     		bx	lr
 1014              	.LVL79:
 1015              	.L78:
 1016              	.LCFI25:
 1017              		.cfi_def_cfa_offset 8
 1018              		.cfi_offset 4, -8
 1019              		.cfi_offset 14, -4
  56:DataStructure/CusQueue.c **** 
 1020              		.loc 1 56 16 view .LVU289
 1021 003e 0020     		movs	r0, #0
 1022 0040 E4E7     		b	.L75
 1023              		.cfi_endproc
 1024              	.LFE8:
 1026              		.section	.text.Queue_Create_Auto,"ax",%progbits
 1027              		.align	1
 1028              		.syntax unified
 1029              		.thumb
 1030              		.thumb_func
 1032              	Queue_Create_Auto:
 1033              	.LVL80:
 1034              	.LFB9:
  64:DataStructure/CusQueue.c ****     if ((obj == NULL) || (len == 0))
 1035              		.loc 1 64 1 is_stmt 1 view -0
 1036              		.cfi_startproc
 1037              		@ args = 0, pretend = 0, frame = 0
 1038              		@ frame_needed = 0, uses_anonymous_args = 0
  65:DataStructure/CusQueue.c ****         return false;
 1039              		.loc 1 65 5 view .LVU291
  65:DataStructure/CusQueue.c ****         return false;
 1040              		.loc 1 65 8 is_stmt 0 view .LVU292
 1041 0000 E0B1     		cbz	r0, .L86
  64:DataStructure/CusQueue.c ****     if ((obj == NULL) || (len == 0))
 1042              		.loc 1 64 1 discriminator 1 view .LVU293
 1043 0002 38B5     		push	{r3, r4, r5, lr}
 1044              	.LCFI26:
 1045              		.cfi_def_cfa_offset 16
 1046              		.cfi_offset 3, -16
 1047              		.cfi_offset 4, -12
 1048              		.cfi_offset 5, -8
 1049              		.cfi_offset 14, -4
 1050 0004 0446     		mov	r4, r0
  65:DataStructure/CusQueue.c ****         return false;
 1051              		.loc 1 65 23 discriminator 1 view .LVU294
 1052 0006 DAB1     		cbz	r2, .L87
  68:DataStructure/CusQueue.c ****     obj->end_pos = 0;
 1053              		.loc 1 68 5 is_stmt 1 view .LVU295
  68:DataStructure/CusQueue.c ****     obj->end_pos = 0;
 1054              		.loc 1 68 15 is_stmt 0 view .LVU296
 1055 0008 0160     		str	r1, [r0]	@ unaligned
  69:DataStructure/CusQueue.c ****     obj->head_pos = 0;
 1056              		.loc 1 69 5 is_stmt 1 view .LVU297
ARM GAS  C:\Users\8bit\AppData\Local\Temp\ccqtn6lb.s 			page 27


  69:DataStructure/CusQueue.c ****     obj->head_pos = 0;
 1057              		.loc 1 69 18 is_stmt 0 view .LVU298
 1058 000a 0025     		movs	r5, #0
 1059 000c C572     		strb	r5, [r0, #11]
 1060 000e 0573     		strb	r5, [r0, #12]
  70:DataStructure/CusQueue.c ****     obj->size = 0;
 1061              		.loc 1 70 5 is_stmt 1 view .LVU299
  70:DataStructure/CusQueue.c ****     obj->size = 0;
 1062              		.loc 1 70 19 is_stmt 0 view .LVU300
 1063 0010 4572     		strb	r5, [r0, #9]
 1064 0012 8572     		strb	r5, [r0, #10]
  71:DataStructure/CusQueue.c ****     obj->lenth = len;
 1065              		.loc 1 71 5 is_stmt 1 view .LVU301
  71:DataStructure/CusQueue.c ****     obj->lenth = len;
 1066              		.loc 1 71 15 is_stmt 0 view .LVU302
 1067 0014 8571     		strb	r5, [r0, #6]
 1068 0016 C571     		strb	r5, [r0, #7]
  72:DataStructure/CusQueue.c **** 
 1069              		.loc 1 72 5 is_stmt 1 view .LVU303
  72:DataStructure/CusQueue.c **** 
 1070              		.loc 1 72 16 is_stmt 0 view .LVU304
 1071 0018 8280     		strh	r2, [r0, #4]	@ unaligned
  74:DataStructure/CusQueue.c ****     memset(obj->buff, 0, obj->lenth);
 1072              		.loc 1 74 5 is_stmt 1 view .LVU305
  74:DataStructure/CusQueue.c ****     memset(obj->buff, 0, obj->lenth);
 1073              		.loc 1 74 28 is_stmt 0 view .LVU306
 1074 001a 0B4B     		ldr	r3, .L93
 1075 001c 9B6A     		ldr	r3, [r3, #40]
 1076 001e 1046     		mov	r0, r2
 1077              	.LVL81:
  74:DataStructure/CusQueue.c ****     memset(obj->buff, 0, obj->lenth);
 1078              		.loc 1 74 28 view .LVU307
 1079 0020 9847     		blx	r3
 1080              	.LVL82:
  74:DataStructure/CusQueue.c ****     memset(obj->buff, 0, obj->lenth);
 1081              		.loc 1 74 15 view .LVU308
 1082 0022 C4F80D00 		str	r0, [r4, #13]	@ unaligned
  75:DataStructure/CusQueue.c **** 
 1083              		.loc 1 75 5 is_stmt 1 view .LVU309
 1084 0026 A288     		ldrh	r2, [r4, #4]	@ unaligned
 1085 0028 2946     		mov	r1, r5
 1086 002a FFF7FEFF 		bl	memset
 1087              	.LVL83:
  77:DataStructure/CusQueue.c ****         return false;
 1088              		.loc 1 77 5 view .LVU310
  77:DataStructure/CusQueue.c ****         return false;
 1089              		.loc 1 77 12 is_stmt 0 view .LVU311
 1090 002e D4F80D30 		ldr	r3, [r4, #13]	@ unaligned
  77:DataStructure/CusQueue.c ****         return false;
 1091              		.loc 1 77 8 view .LVU312
 1092 0032 3BB1     		cbz	r3, .L88
  80:DataStructure/CusQueue.c **** 
 1093              		.loc 1 80 5 is_stmt 1 view .LVU313
  80:DataStructure/CusQueue.c **** 
 1094              		.loc 1 80 16 is_stmt 0 view .LVU314
 1095 0034 0323     		movs	r3, #3
 1096 0036 2372     		strb	r3, [r4, #8]
ARM GAS  C:\Users\8bit\AppData\Local\Temp\ccqtn6lb.s 			page 28


  82:DataStructure/CusQueue.c **** }
 1097              		.loc 1 82 5 is_stmt 1 view .LVU315
  82:DataStructure/CusQueue.c **** }
 1098              		.loc 1 82 12 is_stmt 0 view .LVU316
 1099 0038 0120     		movs	r0, #1
 1100              	.L85:
  83:DataStructure/CusQueue.c **** 
 1101              		.loc 1 83 1 view .LVU317
 1102 003a 38BD     		pop	{r3, r4, r5, pc}
 1103              	.LVL84:
 1104              	.L86:
 1105              	.LCFI27:
 1106              		.cfi_def_cfa_offset 0
 1107              		.cfi_restore 3
 1108              		.cfi_restore 4
 1109              		.cfi_restore 5
 1110              		.cfi_restore 14
  66:DataStructure/CusQueue.c **** 
 1111              		.loc 1 66 16 view .LVU318
 1112 003c 0020     		movs	r0, #0
 1113              	.LVL85:
  83:DataStructure/CusQueue.c **** 
 1114              		.loc 1 83 1 view .LVU319
 1115 003e 7047     		bx	lr
 1116              	.LVL86:
 1117              	.L87:
 1118              	.LCFI28:
 1119              		.cfi_def_cfa_offset 16
 1120              		.cfi_offset 3, -16
 1121              		.cfi_offset 4, -12
 1122              		.cfi_offset 5, -8
 1123              		.cfi_offset 14, -4
  66:DataStructure/CusQueue.c **** 
 1124              		.loc 1 66 16 view .LVU320
 1125 0040 0020     		movs	r0, #0
 1126              	.LVL87:
  66:DataStructure/CusQueue.c **** 
 1127              		.loc 1 66 16 view .LVU321
 1128 0042 FAE7     		b	.L85
 1129              	.LVL88:
 1130              	.L88:
  78:DataStructure/CusQueue.c **** 
 1131              		.loc 1 78 16 view .LVU322
 1132 0044 0020     		movs	r0, #0
 1133 0046 F8E7     		b	.L85
 1134              	.L94:
 1135              		.align	2
 1136              	.L93:
 1137 0048 00000000 		.word	SrvOsCommon
 1138              		.cfi_endproc
 1139              	.LFE9:
 1141              		.global	Queue
 1142              		.section	.data.Queue,"aw"
 1143              		.align	2
 1146              	Queue:
 1147 0000 00000000 		.word	Queue_GetSize
 1148 0004 00000000 		.word	Queue_GetRemain
ARM GAS  C:\Users\8bit\AppData\Local\Temp\ccqtn6lb.s 			page 29


 1149 0008 00000000 		.word	Queue_Create_Auto
 1150 000c 00000000 		.word	Queue_Create_WithCertainBuff
 1151 0010 00000000 		.word	Queue_Reset
 1152 0014 00000000 		.word	Queue_Check
 1153 0018 00000000 		.word	Queue_Push
 1154 001c 00000000 		.word	Queue_Pop
 1155 0020 00000000 		.word	Queue_GetState
 1156 0024 00000000 		.word	Queue_PopTo
 1157              		.text
 1158              	.Letext0:
 1159              		.file 2 "c:\\program files (x86)\\gnu arm embedded toolchain\\10 2021.10\\arm-none-eabi\\include\\
 1160              		.file 3 "c:\\program files (x86)\\gnu arm embedded toolchain\\10 2021.10\\arm-none-eabi\\include\\
 1161              		.file 4 "c:\\program files (x86)\\gnu arm embedded toolchain\\10 2021.10\\lib\\gcc\\arm-none-eabi\
 1162              		.file 5 "DataStructure/CusQueue.h"
 1163              		.file 6 "System/FreeRTOS/include/portable.h"
 1164              		.file 7 "Service/Srv_OsCommon.h"
 1165              		.file 8 "System/FreeRTOS/FreeRTOSConfig.h"
 1166              		.file 9 "<built-in>"
ARM GAS  C:\Users\8bit\AppData\Local\Temp\ccqtn6lb.s 			page 30

