ARM GAS  C:\Users\HUAV\AppData\Local\Temp\ccDjsjhl.s 			page 1


   1              		.cpu cortex-m7
   2              		.eabi_attribute 28, 1
   3              		.eabi_attribute 20, 1
   4              		.eabi_attribute 21, 1
   5              		.eabi_attribute 23, 3
   6              		.eabi_attribute 24, 1
   7              		.eabi_attribute 25, 1
   8              		.eabi_attribute 26, 1
   9              		.eabi_attribute 30, 1
  10              		.eabi_attribute 34, 1
  11              		.eabi_attribute 18, 4
  12              		.file	"Data_Convert_Util.c"
  13              		.text
  14              	.Ltext0:
  15              		.cfi_sections	.debug_frame
  16              		.section	.text.LEndian2Word,"ax",%progbits
  17              		.align	1
  18              		.global	LEndian2Word
  19              		.arch armv7e-m
  20              		.syntax unified
  21              		.thumb
  22              		.thumb_func
  23              		.fpu fpv5-d16
  25              	LEndian2Word:
  26              	.LVL0:
  27              	.LFB0:
  28              		.file 1 "DataStructure/Data_Convert_Util.c"
   1:DataStructure/Data_Convert_Util.c **** #include "Data_Convert_Util.h"
   2:DataStructure/Data_Convert_Util.c **** 
   3:DataStructure/Data_Convert_Util.c **** /******************************************************* Small Endain Convert *********************
   4:DataStructure/Data_Convert_Util.c **** 
   5:DataStructure/Data_Convert_Util.c **** uint32_t LEndian2Word(const uint8_t *ptr)
   6:DataStructure/Data_Convert_Util.c **** {
  29              		.loc 1 6 1 view -0
  30              		.cfi_startproc
  31              		@ args = 0, pretend = 0, frame = 0
  32              		@ frame_needed = 0, uses_anonymous_args = 0
  33              		@ link register save eliminated.
   7:DataStructure/Data_Convert_Util.c ****     uint32_t tmp = 0;
  34              		.loc 1 7 5 view .LVU1
   8:DataStructure/Data_Convert_Util.c **** 
   9:DataStructure/Data_Convert_Util.c ****     tmp |= ptr[0];
  35              		.loc 1 9 5 view .LVU2
  36              		.loc 1 9 15 is_stmt 0 view .LVU3
  37 0000 0378     		ldrb	r3, [r0]	@ zero_extendqisi2
  38              	.LVL1:
  10:DataStructure/Data_Convert_Util.c ****     tmp |= ptr[1] << 8;
  39              		.loc 1 10 5 is_stmt 1 view .LVU4
  40              		.loc 1 10 15 is_stmt 0 view .LVU5
  41 0002 4278     		ldrb	r2, [r0, #1]	@ zero_extendqisi2
  42              		.loc 1 10 9 view .LVU6
  43 0004 43EA0223 		orr	r3, r3, r2, lsl #8
  44              	.LVL2:
  11:DataStructure/Data_Convert_Util.c ****     tmp |= ptr[2] << 16;
  45              		.loc 1 11 5 is_stmt 1 view .LVU7
  46              		.loc 1 11 15 is_stmt 0 view .LVU8
  47 0008 8278     		ldrb	r2, [r0, #2]	@ zero_extendqisi2
ARM GAS  C:\Users\HUAV\AppData\Local\Temp\ccDjsjhl.s 			page 2


  48              		.loc 1 11 9 view .LVU9
  49 000a 43EA0243 		orr	r3, r3, r2, lsl #16
  50              	.LVL3:
  12:DataStructure/Data_Convert_Util.c ****     tmp |= ptr[3] << 24;
  51              		.loc 1 12 5 is_stmt 1 view .LVU10
  52              		.loc 1 12 15 is_stmt 0 view .LVU11
  53 000e C078     		ldrb	r0, [r0, #3]	@ zero_extendqisi2
  54              	.LVL4:
  13:DataStructure/Data_Convert_Util.c **** 
  14:DataStructure/Data_Convert_Util.c ****     return tmp;
  55              		.loc 1 14 5 is_stmt 1 view .LVU12
  15:DataStructure/Data_Convert_Util.c **** }
  56              		.loc 1 15 1 is_stmt 0 view .LVU13
  57 0010 43EA0060 		orr	r0, r3, r0, lsl #24
  58              	.LVL5:
  59              		.loc 1 15 1 view .LVU14
  60 0014 7047     		bx	lr
  61              		.cfi_endproc
  62              	.LFE0:
  64              		.section	.text.LEndian2HalfWord,"ax",%progbits
  65              		.align	1
  66              		.global	LEndian2HalfWord
  67              		.syntax unified
  68              		.thumb
  69              		.thumb_func
  70              		.fpu fpv5-d16
  72              	LEndian2HalfWord:
  73              	.LVL6:
  74              	.LFB1:
  16:DataStructure/Data_Convert_Util.c **** 
  17:DataStructure/Data_Convert_Util.c **** uint16_t LEndian2HalfWord(const uint8_t *ptr)
  18:DataStructure/Data_Convert_Util.c **** {
  75              		.loc 1 18 1 is_stmt 1 view -0
  76              		.cfi_startproc
  77              		@ args = 0, pretend = 0, frame = 0
  78              		@ frame_needed = 0, uses_anonymous_args = 0
  79              		@ link register save eliminated.
  19:DataStructure/Data_Convert_Util.c ****     uint16_t tmp = 0;
  80              		.loc 1 19 5 view .LVU16
  20:DataStructure/Data_Convert_Util.c **** 
  21:DataStructure/Data_Convert_Util.c ****     tmp |= ptr[0];
  81              		.loc 1 21 5 view .LVU17
  82              		.loc 1 21 15 is_stmt 0 view .LVU18
  83 0000 0378     		ldrb	r3, [r0]	@ zero_extendqisi2
  84              	.LVL7:
  22:DataStructure/Data_Convert_Util.c ****     tmp |= ptr[1] << 8;
  85              		.loc 1 22 5 is_stmt 1 view .LVU19
  86              		.loc 1 22 15 is_stmt 0 view .LVU20
  87 0002 4078     		ldrb	r0, [r0, #1]	@ zero_extendqisi2
  88              	.LVL8:
  23:DataStructure/Data_Convert_Util.c **** 
  24:DataStructure/Data_Convert_Util.c ****     return tmp;
  89              		.loc 1 24 5 is_stmt 1 view .LVU21
  25:DataStructure/Data_Convert_Util.c **** }
  90              		.loc 1 25 1 is_stmt 0 view .LVU22
  91 0004 43EA0020 		orr	r0, r3, r0, lsl #8
  92              	.LVL9:
ARM GAS  C:\Users\HUAV\AppData\Local\Temp\ccDjsjhl.s 			page 3


  93              		.loc 1 25 1 view .LVU23
  94 0008 7047     		bx	lr
  95              		.cfi_endproc
  96              	.LFE1:
  98              		.section	.text.LEndianWord2BytesArray,"ax",%progbits
  99              		.align	1
 100              		.global	LEndianWord2BytesArray
 101              		.syntax unified
 102              		.thumb
 103              		.thumb_func
 104              		.fpu fpv5-d16
 106              	LEndianWord2BytesArray:
 107              	.LVL10:
 108              	.LFB2:
  26:DataStructure/Data_Convert_Util.c **** 
  27:DataStructure/Data_Convert_Util.c **** bool LEndianWord2BytesArray(const uint32_t target, uint8_t *p_bytes)
  28:DataStructure/Data_Convert_Util.c **** {
 109              		.loc 1 28 1 is_stmt 1 view -0
 110              		.cfi_startproc
 111              		@ args = 0, pretend = 0, frame = 0
 112              		@ frame_needed = 0, uses_anonymous_args = 0
 113              		@ link register save eliminated.
  29:DataStructure/Data_Convert_Util.c ****     if (p_bytes)
 114              		.loc 1 29 5 view .LVU25
 115              		.loc 1 29 8 is_stmt 0 view .LVU26
 116 0000 59B1     		cbz	r1, .L5
  30:DataStructure/Data_Convert_Util.c ****     {
  31:DataStructure/Data_Convert_Util.c ****         p_bytes[0] = ((uint8_t *)&target)[0];
 117              		.loc 1 31 9 is_stmt 1 view .LVU27
 118              		.loc 1 31 20 is_stmt 0 view .LVU28
 119 0002 0870     		strb	r0, [r1]
  32:DataStructure/Data_Convert_Util.c ****         p_bytes[1] = ((uint8_t *)&target)[1];
 120              		.loc 1 32 9 is_stmt 1 view .LVU29
 121              		.loc 1 32 20 is_stmt 0 view .LVU30
 122 0004 C0F30722 		ubfx	r2, r0, #8, #8
 123 0008 4A70     		strb	r2, [r1, #1]
  33:DataStructure/Data_Convert_Util.c ****         p_bytes[2] = ((uint8_t *)&target)[2];
 124              		.loc 1 33 9 is_stmt 1 view .LVU31
 125              		.loc 1 33 20 is_stmt 0 view .LVU32
 126 000a C0F30742 		ubfx	r2, r0, #16, #8
 127 000e 8A70     		strb	r2, [r1, #2]
  34:DataStructure/Data_Convert_Util.c ****         p_bytes[3] = ((uint8_t *)&target)[3];
 128              		.loc 1 34 9 is_stmt 1 view .LVU33
 129              		.loc 1 34 20 is_stmt 0 view .LVU34
 130 0010 C0F30760 		ubfx	r0, r0, #24, #8
 131              	.LVL11:
 132              		.loc 1 34 20 view .LVU35
 133 0014 C870     		strb	r0, [r1, #3]
  35:DataStructure/Data_Convert_Util.c ****         return true;
 134              		.loc 1 35 9 is_stmt 1 view .LVU36
 135              		.loc 1 35 16 is_stmt 0 view .LVU37
 136 0016 0120     		movs	r0, #1
 137 0018 7047     		bx	lr
 138              	.LVL12:
 139              	.L5:
  36:DataStructure/Data_Convert_Util.c ****     }
  37:DataStructure/Data_Convert_Util.c **** 
ARM GAS  C:\Users\HUAV\AppData\Local\Temp\ccDjsjhl.s 			page 4


  38:DataStructure/Data_Convert_Util.c ****     return false;
 140              		.loc 1 38 12 view .LVU38
 141 001a 0020     		movs	r0, #0
 142              	.LVL13:
  39:DataStructure/Data_Convert_Util.c **** }
 143              		.loc 1 39 1 view .LVU39
 144 001c 7047     		bx	lr
 145              		.cfi_endproc
 146              	.LFE2:
 148              		.section	.text.LEndianHalfWord2BytesArray,"ax",%progbits
 149              		.align	1
 150              		.global	LEndianHalfWord2BytesArray
 151              		.syntax unified
 152              		.thumb
 153              		.thumb_func
 154              		.fpu fpv5-d16
 156              	LEndianHalfWord2BytesArray:
 157              	.LVL14:
 158              	.LFB3:
  40:DataStructure/Data_Convert_Util.c **** 
  41:DataStructure/Data_Convert_Util.c **** bool LEndianHalfWord2BytesArray(const uint16_t target, uint8_t *p_bytes)
  42:DataStructure/Data_Convert_Util.c **** {
 159              		.loc 1 42 1 is_stmt 1 view -0
 160              		.cfi_startproc
 161              		@ args = 0, pretend = 0, frame = 0
 162              		@ frame_needed = 0, uses_anonymous_args = 0
 163              		@ link register save eliminated.
  43:DataStructure/Data_Convert_Util.c ****     if (p_bytes)
 164              		.loc 1 43 5 view .LVU41
 165              		.loc 1 43 8 is_stmt 0 view .LVU42
 166 0000 29B1     		cbz	r1, .L8
  44:DataStructure/Data_Convert_Util.c ****     {
  45:DataStructure/Data_Convert_Util.c ****         p_bytes[0] = ((uint8_t *)&target)[0];
 167              		.loc 1 45 9 is_stmt 1 view .LVU43
 168              		.loc 1 45 20 is_stmt 0 view .LVU44
 169 0002 0870     		strb	r0, [r1]
  46:DataStructure/Data_Convert_Util.c ****         p_bytes[1] = ((uint8_t *)&target)[1];
 170              		.loc 1 46 9 is_stmt 1 view .LVU45
 171              		.loc 1 46 20 is_stmt 0 view .LVU46
 172 0004 C0F30720 		ubfx	r0, r0, #8, #8
 173              	.LVL15:
 174              		.loc 1 46 20 view .LVU47
 175 0008 4870     		strb	r0, [r1, #1]
  47:DataStructure/Data_Convert_Util.c ****         return true;
 176              		.loc 1 47 9 is_stmt 1 view .LVU48
 177              		.loc 1 47 16 is_stmt 0 view .LVU49
 178 000a 0120     		movs	r0, #1
 179 000c 7047     		bx	lr
 180              	.LVL16:
 181              	.L8:
  48:DataStructure/Data_Convert_Util.c ****     }
  49:DataStructure/Data_Convert_Util.c **** 
  50:DataStructure/Data_Convert_Util.c ****     return false;
 182              		.loc 1 50 12 view .LVU50
 183 000e 0020     		movs	r0, #0
 184              	.LVL17:
  51:DataStructure/Data_Convert_Util.c **** }
ARM GAS  C:\Users\HUAV\AppData\Local\Temp\ccDjsjhl.s 			page 5


 185              		.loc 1 51 1 view .LVU51
 186 0010 7047     		bx	lr
 187              		.cfi_endproc
 188              	.LFE3:
 190              		.section	.text.BEndian2HalfWord,"ax",%progbits
 191              		.align	1
 192              		.global	BEndian2HalfWord
 193              		.syntax unified
 194              		.thumb
 195              		.thumb_func
 196              		.fpu fpv5-d16
 198              	BEndian2HalfWord:
 199              	.LVL18:
 200              	.LFB4:
  52:DataStructure/Data_Convert_Util.c **** 
  53:DataStructure/Data_Convert_Util.c **** /******************************************************* Big Endain Convert ***********************
  54:DataStructure/Data_Convert_Util.c **** 
  55:DataStructure/Data_Convert_Util.c **** uint16_t BEndian2HalfWord(const uint8_t *p_data)
  56:DataStructure/Data_Convert_Util.c **** {
 201              		.loc 1 56 1 is_stmt 1 view -0
 202              		.cfi_startproc
 203              		@ args = 0, pretend = 0, frame = 8
 204              		@ frame_needed = 0, uses_anonymous_args = 0
 205              		@ link register save eliminated.
 206              		.loc 1 56 1 is_stmt 0 view .LVU53
 207 0000 82B0     		sub	sp, sp, #8
 208              	.LCFI0:
 209              		.cfi_def_cfa_offset 8
  57:DataStructure/Data_Convert_Util.c ****     uint16_t tmp = 0;
 210              		.loc 1 57 5 is_stmt 1 view .LVU54
 211              		.loc 1 57 14 is_stmt 0 view .LVU55
 212 0002 0023     		movs	r3, #0
 213 0004 ADF80630 		strh	r3, [sp, #6]	@ movhi
  58:DataStructure/Data_Convert_Util.c **** 
  59:DataStructure/Data_Convert_Util.c ****     if (p_data == NULL)
 214              		.loc 1 59 5 is_stmt 1 view .LVU56
 215              		.loc 1 59 8 is_stmt 0 view .LVU57
 216 0008 48B1     		cbz	r0, .L11
  60:DataStructure/Data_Convert_Util.c ****         return 0;
  61:DataStructure/Data_Convert_Util.c **** 
  62:DataStructure/Data_Convert_Util.c ****     ((uint8_t *)&tmp)[0] = p_data[1];
 217              		.loc 1 62 5 is_stmt 1 view .LVU58
 218              		.loc 1 62 26 is_stmt 0 view .LVU59
 219 000a 4278     		ldrb	r2, [r0, #1]	@ zero_extendqisi2
 220 000c 8DF80620 		strb	r2, [sp, #6]
  63:DataStructure/Data_Convert_Util.c ****     ((uint8_t *)&tmp)[1] = p_data[0];
 221              		.loc 1 63 5 is_stmt 1 view .LVU60
 222              		.loc 1 63 34 is_stmt 0 view .LVU61
 223 0010 0378     		ldrb	r3, [r0]	@ zero_extendqisi2
 224              		.loc 1 63 26 view .LVU62
 225 0012 8DF80730 		strb	r3, [sp, #7]
  64:DataStructure/Data_Convert_Util.c **** 
  65:DataStructure/Data_Convert_Util.c ****     return tmp;
 226              		.loc 1 65 5 is_stmt 1 view .LVU63
 227              		.loc 1 65 12 is_stmt 0 view .LVU64
 228 0016 BDF80600 		ldrh	r0, [sp, #6]
 229              	.LVL19:
ARM GAS  C:\Users\HUAV\AppData\Local\Temp\ccDjsjhl.s 			page 6


 230              	.L10:
  66:DataStructure/Data_Convert_Util.c **** }
 231              		.loc 1 66 1 view .LVU65
 232 001a 02B0     		add	sp, sp, #8
 233              	.LCFI1:
 234              		.cfi_remember_state
 235              		.cfi_def_cfa_offset 0
 236              		@ sp needed
 237 001c 7047     		bx	lr
 238              	.LVL20:
 239              	.L11:
 240              	.LCFI2:
 241              		.cfi_restore_state
  60:DataStructure/Data_Convert_Util.c **** 
 242              		.loc 1 60 16 view .LVU66
 243 001e 0020     		movs	r0, #0
 244              	.LVL21:
  60:DataStructure/Data_Convert_Util.c **** 
 245              		.loc 1 60 16 view .LVU67
 246 0020 FBE7     		b	.L10
 247              		.cfi_endproc
 248              	.LFE4:
 250              		.section	.text.BEndian2Word,"ax",%progbits
 251              		.align	1
 252              		.global	BEndian2Word
 253              		.syntax unified
 254              		.thumb
 255              		.thumb_func
 256              		.fpu fpv5-d16
 258              	BEndian2Word:
 259              	.LVL22:
 260              	.LFB5:
  67:DataStructure/Data_Convert_Util.c **** 
  68:DataStructure/Data_Convert_Util.c **** uint32_t BEndian2Word(const uint8_t *p_data)
  69:DataStructure/Data_Convert_Util.c **** {
 261              		.loc 1 69 1 is_stmt 1 view -0
 262              		.cfi_startproc
 263              		@ args = 0, pretend = 0, frame = 8
 264              		@ frame_needed = 0, uses_anonymous_args = 0
 265              		@ link register save eliminated.
 266              		.loc 1 69 1 is_stmt 0 view .LVU69
 267 0000 82B0     		sub	sp, sp, #8
 268              	.LCFI3:
 269              		.cfi_def_cfa_offset 8
  70:DataStructure/Data_Convert_Util.c ****     uint32_t tmp = 0;
 270              		.loc 1 70 5 is_stmt 1 view .LVU70
 271              		.loc 1 70 14 is_stmt 0 view .LVU71
 272 0002 0023     		movs	r3, #0
 273 0004 0193     		str	r3, [sp, #4]
  71:DataStructure/Data_Convert_Util.c ****     uint8_t byte_index = sizeof(uint32_t) - 1;
 274              		.loc 1 71 5 is_stmt 1 view .LVU72
 275              	.LVL23:
  72:DataStructure/Data_Convert_Util.c **** 
  73:DataStructure/Data_Convert_Util.c ****     if (p_data == NULL)
 276              		.loc 1 73 5 view .LVU73
 277              		.loc 1 73 8 is_stmt 0 view .LVU74
 278 0006 70B1     		cbz	r0, .L17
ARM GAS  C:\Users\HUAV\AppData\Local\Temp\ccDjsjhl.s 			page 7


 279 0008 8446     		mov	ip, r0
 280 000a 07E0     		b	.L15
 281              	.LVL24:
 282              	.L16:
 283              	.LBB2:
  74:DataStructure/Data_Convert_Util.c ****         return 0;
  75:DataStructure/Data_Convert_Util.c **** 
  76:DataStructure/Data_Convert_Util.c ****     for (uint8_t i = 0; i < sizeof(uint32_t); i++)
  77:DataStructure/Data_Convert_Util.c ****     {
  78:DataStructure/Data_Convert_Util.c ****         ((uint8_t *)&tmp)[i] = p_data[byte_index - i];
 284              		.loc 1 78 9 is_stmt 1 discriminator 3 view .LVU75
 285              		.loc 1 78 50 is_stmt 0 discriminator 3 view .LVU76
 286 000c C3F10302 		rsb	r2, r3, #3
 287              		.loc 1 78 38 discriminator 3 view .LVU77
 288 0010 1CF80210 		ldrb	r1, [ip, r2]	@ zero_extendqisi2
 289              		.loc 1 78 30 discriminator 3 view .LVU78
 290 0014 01AA     		add	r2, sp, #4
 291 0016 D154     		strb	r1, [r2, r3]
  76:DataStructure/Data_Convert_Util.c ****     {
 292              		.loc 1 76 47 is_stmt 1 discriminator 3 view .LVU79
  76:DataStructure/Data_Convert_Util.c ****     {
 293              		.loc 1 76 48 is_stmt 0 discriminator 3 view .LVU80
 294 0018 0133     		adds	r3, r3, #1
 295              	.LVL25:
  76:DataStructure/Data_Convert_Util.c ****     {
 296              		.loc 1 76 48 discriminator 3 view .LVU81
 297 001a DBB2     		uxtb	r3, r3
 298              	.LVL26:
 299              	.L15:
  76:DataStructure/Data_Convert_Util.c ****     {
 300              		.loc 1 76 25 is_stmt 1 discriminator 1 view .LVU82
  76:DataStructure/Data_Convert_Util.c ****     {
 301              		.loc 1 76 5 is_stmt 0 discriminator 1 view .LVU83
 302 001c 032B     		cmp	r3, #3
 303 001e F5D9     		bls	.L16
 304              	.LBE2:
  79:DataStructure/Data_Convert_Util.c ****     }
  80:DataStructure/Data_Convert_Util.c **** 
  81:DataStructure/Data_Convert_Util.c ****     return tmp;
 305              		.loc 1 81 5 is_stmt 1 view .LVU84
 306              		.loc 1 81 12 is_stmt 0 view .LVU85
 307 0020 0198     		ldr	r0, [sp, #4]
 308              	.LVL27:
 309              	.L13:
  82:DataStructure/Data_Convert_Util.c **** }...
 310              		.loc 1 82 1 view .LVU86
 311 0022 02B0     		add	sp, sp, #8
 312              	.LCFI4:
 313              		.cfi_remember_state
 314              		.cfi_def_cfa_offset 0
 315              		@ sp needed
 316 0024 7047     		bx	lr
 317              	.LVL28:
 318              	.L17:
 319              	.LCFI5:
 320              		.cfi_restore_state
  74:DataStructure/Data_Convert_Util.c ****         return 0;
ARM GAS  C:\Users\HUAV\AppData\Local\Temp\ccDjsjhl.s 			page 8


 321              		.loc 1 74 16 view .LVU87
 322 0026 0020     		movs	r0, #0
 323              	.LVL29:
  74:DataStructure/Data_Convert_Util.c ****         return 0;
 324              		.loc 1 74 16 view .LVU88
 325 0028 FBE7     		b	.L13
 326              		.cfi_endproc
 327              	.LFE5:
 329              		.text
 330              	.Letext0:
 331              		.file 2 "d:\\software\\zephyr_env_gcc\\gcc-arm-none-eabi-10-2020-q4-major\\arm-none-eabi\\include\
 332              		.file 3 "d:\\software\\zephyr_env_gcc\\gcc-arm-none-eabi-10-2020-q4-major\\arm-none-eabi\\include\
ARM GAS  C:\Users\HUAV\AppData\Local\Temp\ccDjsjhl.s 			page 9

