ARM GAS  /var/folders/lx/hc4sn_b53233_zkc9xbbl97r0000gp/T//ccsbjjqH.s 			page 1


   1              		.cpu cortex-m7
   2              		.eabi_attribute 28, 1
   3              		.eabi_attribute 20, 1
   4              		.eabi_attribute 21, 1
   5              		.eabi_attribute 23, 3
   6              		.eabi_attribute 24, 1
   7              		.eabi_attribute 25, 1
   8              		.eabi_attribute 26, 1
   9              		.eabi_attribute 30, 1
  10              		.eabi_attribute 34, 1
  11              		.eabi_attribute 18, 4
  12              		.file	"debug_util.c"
  13              		.text
  14              	.Ltext0:
  15              		.cfi_sections	.debug_frame
  16              		.section	.text.DebugPin_Init,"ax",%progbits
  17              		.align	1
  18              		.arch armv7e-m
  19              		.syntax unified
  20              		.thumb
  21              		.thumb_func
  22              		.fpu fpv5-d16
  24              	DebugPin_Init:
  25              	.LFB333:
  26              		.file 1 "debug/debug_util.c"
   1:debug/debug_util.c **** #include "debug_util.h"
   2:debug/debug_util.c **** #include "system_cfg.h"
   3:debug/debug_util.c **** 
   4:debug/debug_util.c **** static bool DebugPin_Init(DebugPinObj_TypeDef pin);
   5:debug/debug_util.c **** static bool DebugPin_Ctl(DebugPinObj_TypeDef pin, bool state);
   6:debug/debug_util.c **** 
   7:debug/debug_util.c **** DebugPin_TypeDef DebugPin = {
   8:debug/debug_util.c ****     .init = DebugPin_Init,
   9:debug/debug_util.c ****     .ctl = DebugPin_Ctl,
  10:debug/debug_util.c **** };
  11:debug/debug_util.c **** 
  12:debug/debug_util.c **** static bool DebugPin_Init(DebugPinObj_TypeDef debug_pin)
  13:debug/debug_util.c **** {
  27              		.loc 1 13 1 view -0
  28              		.cfi_startproc
  29              		@ args = 0, pretend = 0, frame = 40
  30              		@ frame_needed = 0, uses_anonymous_args = 0
  31 0000 10B5     		push	{r4, lr}
  32              	.LCFI0:
  33              		.cfi_def_cfa_offset 8
  34              		.cfi_offset 4, -8
  35              		.cfi_offset 14, -4
  36 0002 8EB0     		sub	sp, sp, #56
  37              	.LCFI1:
  38              		.cfi_def_cfa_offset 64
  39 0004 04AB     		add	r3, sp, #16
  40 0006 83E80300 		stm	r3, {r0, r1}
  14:debug/debug_util.c ****     BspGPIO_Obj_TypeDef debug_pin_cfg;
  41              		.loc 1 14 5 view .LVU1
  15:debug/debug_util.c **** 
  16:debug/debug_util.c ****     if (BspGPIO.init == NULL)
  42              		.loc 1 16 5 view .LVU2
ARM GAS  /var/folders/lx/hc4sn_b53233_zkc9xbbl97r0000gp/T//ccsbjjqH.s 			page 2


  43              		.loc 1 16 16 is_stmt 0 view .LVU3
  44 000a 174B     		ldr	r3, .L5
  45 000c 1C68     		ldr	r4, [r3]
  46              		.loc 1 16 8 view .LVU4
  47 000e 44B3     		cbz	r4, .L4
  17:debug/debug_util.c ****         return false;
  18:debug/debug_util.c **** 
  19:debug/debug_util.c ****     debug_pin_cfg.pin = debug_pin.pin;
  48              		.loc 1 19 5 is_stmt 1 view .LVU5
  49              		.loc 1 19 34 is_stmt 0 view .LVU6
  50 0010 BDF81430 		ldrh	r3, [sp, #20]
  51              		.loc 1 19 23 view .LVU7
  52 0014 ADF82030 		strh	r3, [sp, #32]	@ movhi
  20:debug/debug_util.c ****     debug_pin_cfg.port = debug_pin.port;
  53              		.loc 1 20 5 is_stmt 1 view .LVU8
  54              		.loc 1 20 35 is_stmt 0 view .LVU9
  55 0018 049A     		ldr	r2, [sp, #16]
  56              		.loc 1 20 24 view .LVU10
  57 001a 0792     		str	r2, [sp, #28]
  21:debug/debug_util.c ****     debug_pin_cfg.init_state = debug_pin.default_state;
  58              		.loc 1 21 5 is_stmt 1 view .LVU11
  59              		.loc 1 21 41 is_stmt 0 view .LVU12
  60 001c 9DF81620 		ldrb	r2, [sp, #22]	@ zero_extendqisi2
  61              		.loc 1 21 30 view .LVU13
  62 0020 8DF83620 		strb	r2, [sp, #54]
  22:debug/debug_util.c ****     debug_pin_cfg.cfg_structure.Pin = debug_pin.pin;
  63              		.loc 1 22 5 is_stmt 1 view .LVU14
  64              		.loc 1 22 37 is_stmt 0 view .LVU15
  65 0024 CDF82230 		str	r3, [sp, #34]	@ unaligned
  23:debug/debug_util.c ****     debug_pin_cfg.cfg_structure.Mode = GPIO_MODE_OUTPUT_PP;
  66              		.loc 1 23 5 is_stmt 1 view .LVU16
  67              		.loc 1 23 38 is_stmt 0 view .LVU17
  68 0028 0023     		movs	r3, #0
  69 002a 0122     		movs	r2, #1
  70 002c ADF82620 		strh	r2, [sp, #38]	@ movhi
  71 0030 ADF82830 		strh	r3, [sp, #40]	@ movhi
  24:debug/debug_util.c ****     debug_pin_cfg.cfg_structure.Pull = GPIO_NOPULL;
  72              		.loc 1 24 5 is_stmt 1 view .LVU18
  73              		.loc 1 24 38 is_stmt 0 view .LVU19
  74 0034 ADF82A30 		strh	r3, [sp, #42]	@ movhi
  75 0038 ADF82C30 		strh	r3, [sp, #44]	@ movhi
  25:debug/debug_util.c ****     debug_pin_cfg.cfg_structure.Speed = GPIO_SPEED_FREQ_VERY_HIGH;
  76              		.loc 1 25 5 is_stmt 1 view .LVU20
  77              		.loc 1 25 39 is_stmt 0 view .LVU21
  78 003c 0322     		movs	r2, #3
  79 003e ADF82E20 		strh	r2, [sp, #46]	@ movhi
  80 0042 ADF83030 		strh	r3, [sp, #48]	@ movhi
  26:debug/debug_util.c **** 
  27:debug/debug_util.c ****     BspGPIO.init(debug_pin_cfg);
  81              		.loc 1 27 5 is_stmt 1 view .LVU22
  82 0046 6B46     		mov	r3, sp
  83 0048 0EAA     		add	r2, sp, #56
  84 004a 12E90700 		ldmdb	r2, {r0, r1, r2}
  85 004e 03C3     		stmia	r3!, {r0, r1}
  86 0050 23F8022B 		strh	r2, [r3], #2	@ movhi
  87 0054 120C     		lsrs	r2, r2, #16
  88 0056 1A70     		strb	r2, [r3]
ARM GAS  /var/folders/lx/hc4sn_b53233_zkc9xbbl97r0000gp/T//ccsbjjqH.s 			page 3


  89 0058 07AB     		add	r3, sp, #28
  90 005a 0FCB     		ldm	r3, {r0, r1, r2, r3}
  91 005c A047     		blx	r4
  92              	.LVL0:
  93              	.L1:
  28:debug/debug_util.c **** }
  94              		.loc 1 28 1 is_stmt 0 view .LVU23
  95 005e 0EB0     		add	sp, sp, #56
  96              	.LCFI2:
  97              		.cfi_remember_state
  98              		.cfi_def_cfa_offset 8
  99              		@ sp needed
 100 0060 10BD     		pop	{r4, pc}
 101              	.L4:
 102              	.LCFI3:
 103              		.cfi_restore_state
  17:debug/debug_util.c **** 
 104              		.loc 1 17 9 is_stmt 1 view .LVU24
  17:debug/debug_util.c **** 
 105              		.loc 1 17 16 is_stmt 0 view .LVU25
 106 0062 0020     		movs	r0, #0
 107 0064 FBE7     		b	.L1
 108              	.L6:
 109 0066 00BF     		.align	2
 110              	.L5:
 111 0068 00000000 		.word	BspGPIO
 112              		.cfi_endproc
 113              	.LFE333:
 115              		.section	.text.DebugPin_Ctl,"ax",%progbits
 116              		.align	1
 117              		.syntax unified
 118              		.thumb
 119              		.thumb_func
 120              		.fpu fpv5-d16
 122              	DebugPin_Ctl:
 123              	.LVL1:
 124              	.LFB334:
  29:debug/debug_util.c **** 
  30:debug/debug_util.c **** static bool DebugPin_Ctl(DebugPinObj_TypeDef debug_pin, bool state)
  31:debug/debug_util.c **** {
 125              		.loc 1 31 1 is_stmt 1 view -0
 126              		.cfi_startproc
 127              		@ args = 0, pretend = 0, frame = 8
 128              		@ frame_needed = 0, uses_anonymous_args = 0
 129              		.loc 1 31 1 is_stmt 0 view .LVU27
 130 0000 00B5     		push	{lr}
 131              	.LCFI4:
 132              		.cfi_def_cfa_offset 4
 133              		.cfi_offset 14, -4
 134 0002 83B0     		sub	sp, sp, #12
 135              	.LCFI5:
 136              		.cfi_def_cfa_offset 16
 137 0004 02AB     		add	r3, sp, #8
 138 0006 03E90300 		stmdb	r3, {r0, r1}
  32:debug/debug_util.c ****     if (BspGPIO.write == NULL)
 139              		.loc 1 32 5 is_stmt 1 view .LVU28
 140              		.loc 1 32 16 is_stmt 0 view .LVU29
ARM GAS  /var/folders/lx/hc4sn_b53233_zkc9xbbl97r0000gp/T//ccsbjjqH.s 			page 4


 141 000a 064B     		ldr	r3, .L11
 142 000c 9B68     		ldr	r3, [r3, #8]
 143              		.loc 1 32 8 view .LVU30
 144 000e 33B1     		cbz	r3, .L9
  33:debug/debug_util.c ****         return false;
  34:debug/debug_util.c **** 
  35:debug/debug_util.c ****     BspGPIO.write(debug_pin.port, debug_pin.pin, state);
 145              		.loc 1 35 5 is_stmt 1 view .LVU31
 146 0010 BDF80410 		ldrh	r1, [sp, #4]
 147 0014 9847     		blx	r3
 148              	.LVL2:
  36:debug/debug_util.c ****     return true;
 149              		.loc 1 36 5 view .LVU32
 150              		.loc 1 36 12 is_stmt 0 view .LVU33
 151 0016 0120     		movs	r0, #1
 152              	.L8:
  37:debug/debug_util.c **** }
 153              		.loc 1 37 1 view .LVU34
 154 0018 03B0     		add	sp, sp, #12
 155              	.LCFI6:
 156              		.cfi_remember_state
 157              		.cfi_def_cfa_offset 4
 158              		@ sp needed
 159 001a 5DF804FB 		ldr	pc, [sp], #4
 160              	.LVL3:
 161              	.L9:
 162              	.LCFI7:
 163              		.cfi_restore_state
  33:debug/debug_util.c ****         return false;
 164              		.loc 1 33 16 view .LVU35
 165 001e 0020     		movs	r0, #0
 166 0020 FAE7     		b	.L8
 167              	.L12:
 168 0022 00BF     		.align	2
 169              	.L11:
 170 0024 00000000 		.word	BspGPIO
 171              		.cfi_endproc
 172              	.LFE334:
 174              		.section	.text.assert,"ax",%progbits
 175              		.align	1
 176              		.global	assert
 177              		.syntax unified
 178              		.thumb
 179              		.thumb_func
 180              		.fpu fpv5-d16
 182              	assert:
 183              	.LVL4:
 184              	.LFB335:
  38:debug/debug_util.c **** 
  39:debug/debug_util.c **** void assert(bool state)
  40:debug/debug_util.c **** {
 185              		.loc 1 40 1 is_stmt 1 view -0
 186              		.cfi_startproc
 187              		@ args = 0, pretend = 0, frame = 0
 188              		@ frame_needed = 0, uses_anonymous_args = 0
 189              		@ link register save eliminated.
  41:debug/debug_util.c ****     if (state)
ARM GAS  /var/folders/lx/hc4sn_b53233_zkc9xbbl97r0000gp/T//ccsbjjqH.s 			page 5


 190              		.loc 1 41 5 view .LVU37
 191              		.loc 1 41 8 is_stmt 0 view .LVU38
 192 0000 00B1     		cbz	r0, .L13
 193              	.L15:
  42:debug/debug_util.c ****         while (true)
 194              		.loc 1 42 9 is_stmt 1 discriminator 1 view .LVU39
  43:debug/debug_util.c ****             ;
 195              		.loc 1 43 13 discriminator 1 view .LVU40
  42:debug/debug_util.c ****         while (true)
 196              		.loc 1 42 15 discriminator 1 view .LVU41
 197 0002 FEE7     		b	.L15
 198              	.L13:
  44:debug/debug_util.c **** }
 199              		.loc 1 44 1 is_stmt 0 view .LVU42
 200 0004 7047     		bx	lr
 201              		.cfi_endproc
 202              	.LFE335:
 204              		.global	DebugPin
 205              		.section	.data.DebugPin,"aw"
 206              		.align	2
 209              	DebugPin:
 210 0000 00000000 		.word	DebugPin_Init
 211 0004 00000000 		.word	DebugPin_Ctl
 212              		.text
 213              	.Letext0:
 214              		.file 2 "/usr/local/arm-none-eabi-gcc/gcc-arm-none-eabi-10-2020-q4-major/arm-none-eabi/include/mac
 215              		.file 3 "/usr/local/arm-none-eabi-gcc/gcc-arm-none-eabi-10-2020-q4-major/arm-none-eabi/include/sys
 216              		.file 4 "HAL_Lib/CMSIS/Device/ST/STM32H7xx/Include/stm32h743xx.h"
 217              		.file 5 "HAL_Lib/STM32H7xx_HAL_Driver/Inc/stm32h7xx_hal_gpio.h"
 218              		.file 6 "Bsp/Bsp_GPIO.h"
 219              		.file 7 "debug/debug_util.h"
ARM GAS  /var/folders/lx/hc4sn_b53233_zkc9xbbl97r0000gp/T//ccsbjjqH.s 			page 6


DEFINED SYMBOLS
                            *ABS*:0000000000000000 debug_util.c
/var/folders/lx/hc4sn_b53233_zkc9xbbl97r0000gp/T//ccsbjjqH.s:17     .text.DebugPin_Init:0000000000000000 $t
/var/folders/lx/hc4sn_b53233_zkc9xbbl97r0000gp/T//ccsbjjqH.s:24     .text.DebugPin_Init:0000000000000000 DebugPin_Init
/var/folders/lx/hc4sn_b53233_zkc9xbbl97r0000gp/T//ccsbjjqH.s:111    .text.DebugPin_Init:0000000000000068 $d
/var/folders/lx/hc4sn_b53233_zkc9xbbl97r0000gp/T//ccsbjjqH.s:116    .text.DebugPin_Ctl:0000000000000000 $t
/var/folders/lx/hc4sn_b53233_zkc9xbbl97r0000gp/T//ccsbjjqH.s:122    .text.DebugPin_Ctl:0000000000000000 DebugPin_Ctl
/var/folders/lx/hc4sn_b53233_zkc9xbbl97r0000gp/T//ccsbjjqH.s:170    .text.DebugPin_Ctl:0000000000000024 $d
/var/folders/lx/hc4sn_b53233_zkc9xbbl97r0000gp/T//ccsbjjqH.s:175    .text.assert:0000000000000000 $t
/var/folders/lx/hc4sn_b53233_zkc9xbbl97r0000gp/T//ccsbjjqH.s:182    .text.assert:0000000000000000 assert
/var/folders/lx/hc4sn_b53233_zkc9xbbl97r0000gp/T//ccsbjjqH.s:209    .data.DebugPin:0000000000000000 DebugPin
/var/folders/lx/hc4sn_b53233_zkc9xbbl97r0000gp/T//ccsbjjqH.s:206    .data.DebugPin:0000000000000000 $d

UNDEFINED SYMBOLS
BspGPIO
