ARM GAS  /var/folders/lx/hc4sn_b53233_zkc9xbbl97r0000gp/T//cc7OApJW.s 			page 1


   1              		.cpu cortex-m7
   2              		.eabi_attribute 28, 1
   3              		.eabi_attribute 20, 1
   4              		.eabi_attribute 21, 1
   5              		.eabi_attribute 23, 3
   6              		.eabi_attribute 24, 1
   7              		.eabi_attribute 25, 1
   8              		.eabi_attribute 26, 1
   9              		.eabi_attribute 30, 1
  10              		.eabi_attribute 34, 1
  11              		.eabi_attribute 18, 4
  12              		.file	"debug_util.c"
  13              		.text
  14              	.Ltext0:
  15              		.cfi_sections	.debug_frame
  16              		.section	.text.DebugPin_Init,"ax",%progbits
  17              		.align	1
  18              		.arch armv7e-m
  19              		.syntax unified
  20              		.thumb
  21              		.thumb_func
  22              		.fpu fpv5-d16
  24              	DebugPin_Init:
  25              	.LFB144:
  26              		.file 1 "debug/debug_util.c"
   1:debug/debug_util.c **** #include "debug_util.h"
   2:debug/debug_util.c **** #include "system_cfg.h"
   3:debug/debug_util.c **** 
   4:debug/debug_util.c **** static bool DebugPin_Init(DebugPinObj_TypeDef pin);
   5:debug/debug_util.c **** static bool DebugPin_Ctl(DebugPinObj_TypeDef pin, bool state);
   6:debug/debug_util.c **** 
   7:debug/debug_util.c **** DebugPin_TypeDef DebugPin = {
   8:debug/debug_util.c ****     .init = DebugPin_Init,
   9:debug/debug_util.c ****     .ctl = DebugPin_Ctl,
  10:debug/debug_util.c **** };
  11:debug/debug_util.c **** 
  12:debug/debug_util.c **** static bool DebugPin_Init(DebugPinObj_TypeDef debug_pin)
  13:debug/debug_util.c **** {
  27              		.loc 1 13 1 view -0
  28              		.cfi_startproc
  29              		@ args = 0, pretend = 0, frame = 16
  30              		@ frame_needed = 0, uses_anonymous_args = 0
  31 0000 00B5     		push	{lr}
  32              	.LCFI0:
  33              		.cfi_def_cfa_offset 4
  34              		.cfi_offset 14, -4
  35 0002 85B0     		sub	sp, sp, #20
  36              	.LCFI1:
  37              		.cfi_def_cfa_offset 24
  38 0004 04AB     		add	r3, sp, #16
  39 0006 03E90700 		stmdb	r3, {r0, r1, r2}
  14:debug/debug_util.c ****     if (BspGPIO.out_init == NULL)
  40              		.loc 1 14 5 view .LVU1
  41              		.loc 1 14 16 is_stmt 0 view .LVU2
  42 000a 064B     		ldr	r3, .L5
  43 000c 5B68     		ldr	r3, [r3, #4]
  44              		.loc 1 14 8 view .LVU3
ARM GAS  /var/folders/lx/hc4sn_b53233_zkc9xbbl97r0000gp/T//cc7OApJW.s 			page 2


  45 000e 33B1     		cbz	r3, .L3
  15:debug/debug_util.c ****         return false;
  16:debug/debug_util.c **** 
  17:debug/debug_util.c ****     return BspGPIO.out_init(debug_pin);
  46              		.loc 1 17 5 is_stmt 1 view .LVU4
  47              		.loc 1 17 12 is_stmt 0 view .LVU5
  48 0010 04AA     		add	r2, sp, #16
  49 0012 12E90700 		ldmdb	r2, {r0, r1, r2}
  50 0016 9847     		blx	r3
  51              	.LVL0:
  52              	.L2:
  18:debug/debug_util.c **** }
  53              		.loc 1 18 1 view .LVU6
  54 0018 05B0     		add	sp, sp, #20
  55              	.LCFI2:
  56              		.cfi_remember_state
  57              		.cfi_def_cfa_offset 4
  58              		@ sp needed
  59 001a 5DF804FB 		ldr	pc, [sp], #4
  60              	.L3:
  61              	.LCFI3:
  62              		.cfi_restore_state
  15:debug/debug_util.c ****         return false;
  63              		.loc 1 15 16 view .LVU7
  64 001e 0020     		movs	r0, #0
  65 0020 FAE7     		b	.L2
  66              	.L6:
  67 0022 00BF     		.align	2
  68              	.L5:
  69 0024 00000000 		.word	BspGPIO
  70              		.cfi_endproc
  71              	.LFE144:
  73              		.section	.text.DebugPin_Ctl,"ax",%progbits
  74              		.align	1
  75              		.syntax unified
  76              		.thumb
  77              		.thumb_func
  78              		.fpu fpv5-d16
  80              	DebugPin_Ctl:
  81              	.LVL1:
  82              	.LFB145:
  19:debug/debug_util.c **** 
  20:debug/debug_util.c **** static bool DebugPin_Ctl(DebugPinObj_TypeDef debug_pin, bool state)
  21:debug/debug_util.c **** {
  83              		.loc 1 21 1 is_stmt 1 view -0
  84              		.cfi_startproc
  85              		@ args = 0, pretend = 0, frame = 16
  86              		@ frame_needed = 0, uses_anonymous_args = 0
  87              		.loc 1 21 1 is_stmt 0 view .LVU9
  88 0000 00B5     		push	{lr}
  89              	.LCFI4:
  90              		.cfi_def_cfa_offset 4
  91              		.cfi_offset 14, -4
  92 0002 85B0     		sub	sp, sp, #20
  93              	.LCFI5:
  94              		.cfi_def_cfa_offset 24
  95 0004 0DF1100C 		add	ip, sp, #16
ARM GAS  /var/folders/lx/hc4sn_b53233_zkc9xbbl97r0000gp/T//cc7OApJW.s 			page 3


  96 0008 0CE90700 		stmdb	ip, {r0, r1, r2}
  97 000c 1A46     		mov	r2, r3
  22:debug/debug_util.c ****     if (BspGPIO.write == NULL)
  98              		.loc 1 22 5 is_stmt 1 view .LVU10
  99              		.loc 1 22 16 is_stmt 0 view .LVU11
 100 000e 064B     		ldr	r3, .L11
 101              	.LVL2:
 102              		.loc 1 22 16 view .LVU12
 103 0010 DB69     		ldr	r3, [r3, #28]
 104              		.loc 1 22 8 view .LVU13
 105 0012 33B1     		cbz	r3, .L9
  23:debug/debug_util.c ****         return false;
  24:debug/debug_util.c **** 
  25:debug/debug_util.c ****     BspGPIO.write(debug_pin.port, debug_pin.pin, state);
 106              		.loc 1 25 5 is_stmt 1 view .LVU14
 107 0014 BDF80810 		ldrh	r1, [sp, #8]
 108 0018 9847     		blx	r3
 109              	.LVL3:
  26:debug/debug_util.c ****     return true;
 110              		.loc 1 26 5 view .LVU15
 111              		.loc 1 26 12 is_stmt 0 view .LVU16
 112 001a 0120     		movs	r0, #1
 113              	.L8:
  27:debug/debug_util.c **** }
 114              		.loc 1 27 1 view .LVU17
 115 001c 05B0     		add	sp, sp, #20
 116              	.LCFI6:
 117              		.cfi_remember_state
 118              		.cfi_def_cfa_offset 4
 119              		@ sp needed
 120 001e 5DF804FB 		ldr	pc, [sp], #4
 121              	.L9:
 122              	.LCFI7:
 123              		.cfi_restore_state
  23:debug/debug_util.c ****         return false;
 124              		.loc 1 23 16 view .LVU18
 125 0022 0020     		movs	r0, #0
 126 0024 FAE7     		b	.L8
 127              	.L12:
 128 0026 00BF     		.align	2
 129              	.L11:
 130 0028 00000000 		.word	BspGPIO
 131              		.cfi_endproc
 132              	.LFE145:
 134              		.section	.text.assert,"ax",%progbits
 135              		.align	1
 136              		.global	assert
 137              		.syntax unified
 138              		.thumb
 139              		.thumb_func
 140              		.fpu fpv5-d16
 142              	assert:
 143              	.LVL4:
 144              	.LFB146:
  28:debug/debug_util.c **** 
  29:debug/debug_util.c **** void assert(bool state)
  30:debug/debug_util.c **** {
ARM GAS  /var/folders/lx/hc4sn_b53233_zkc9xbbl97r0000gp/T//cc7OApJW.s 			page 4


 145              		.loc 1 30 1 is_stmt 1 view -0
 146              		.cfi_startproc
 147              		@ args = 0, pretend = 0, frame = 0
 148              		@ frame_needed = 0, uses_anonymous_args = 0
 149              		@ link register save eliminated.
  31:debug/debug_util.c ****     if (state)
 150              		.loc 1 31 5 view .LVU20
 151              		.loc 1 31 8 is_stmt 0 view .LVU21
 152 0000 00B1     		cbz	r0, .L13
 153              	.L15:
  32:debug/debug_util.c ****         while (true)
 154              		.loc 1 32 9 is_stmt 1 discriminator 1 view .LVU22
  33:debug/debug_util.c ****             ;
 155              		.loc 1 33 13 discriminator 1 view .LVU23
  32:debug/debug_util.c ****         while (true)
 156              		.loc 1 32 15 discriminator 1 view .LVU24
 157 0002 FEE7     		b	.L15
 158              	.L13:
  34:debug/debug_util.c **** }
 159              		.loc 1 34 1 is_stmt 0 view .LVU25
 160 0004 7047     		bx	lr
 161              		.cfi_endproc
 162              	.LFE146:
 164              		.global	DebugPin
 165              		.section	.data.DebugPin,"aw"
 166              		.align	2
 169              	DebugPin:
 170 0000 00000000 		.word	DebugPin_Init
 171 0004 00000000 		.word	DebugPin_Ctl
 172              		.text
 173              	.Letext0:
 174              		.file 2 "/usr/local/arm-none-eabi-gcc/gcc-arm-none-eabi-10-2020-q4-major/arm-none-eabi/include/mac
 175              		.file 3 "/usr/local/arm-none-eabi-gcc/gcc-arm-none-eabi-10-2020-q4-major/arm-none-eabi/include/sys
 176              		.file 4 "HAL_Lib/CMSIS/Device/ST/STM32H7xx/Include/stm32h743xx.h"
 177              		.file 5 "HAL_Lib/STM32H7xx_HAL_Driver/Inc/stm32h7xx_hal_gpio.h"
 178              		.file 6 "Bsp/Bsp_GPIO.h"
 179              		.file 7 "debug/debug_util.h"
ARM GAS  /var/folders/lx/hc4sn_b53233_zkc9xbbl97r0000gp/T//cc7OApJW.s 			page 5


DEFINED SYMBOLS
                            *ABS*:0000000000000000 debug_util.c
/var/folders/lx/hc4sn_b53233_zkc9xbbl97r0000gp/T//cc7OApJW.s:17     .text.DebugPin_Init:0000000000000000 $t
/var/folders/lx/hc4sn_b53233_zkc9xbbl97r0000gp/T//cc7OApJW.s:24     .text.DebugPin_Init:0000000000000000 DebugPin_Init
/var/folders/lx/hc4sn_b53233_zkc9xbbl97r0000gp/T//cc7OApJW.s:69     .text.DebugPin_Init:0000000000000024 $d
/var/folders/lx/hc4sn_b53233_zkc9xbbl97r0000gp/T//cc7OApJW.s:74     .text.DebugPin_Ctl:0000000000000000 $t
/var/folders/lx/hc4sn_b53233_zkc9xbbl97r0000gp/T//cc7OApJW.s:80     .text.DebugPin_Ctl:0000000000000000 DebugPin_Ctl
/var/folders/lx/hc4sn_b53233_zkc9xbbl97r0000gp/T//cc7OApJW.s:130    .text.DebugPin_Ctl:0000000000000028 $d
/var/folders/lx/hc4sn_b53233_zkc9xbbl97r0000gp/T//cc7OApJW.s:135    .text.assert:0000000000000000 $t
/var/folders/lx/hc4sn_b53233_zkc9xbbl97r0000gp/T//cc7OApJW.s:142    .text.assert:0000000000000000 assert
/var/folders/lx/hc4sn_b53233_zkc9xbbl97r0000gp/T//cc7OApJW.s:169    .data.DebugPin:0000000000000000 DebugPin
/var/folders/lx/hc4sn_b53233_zkc9xbbl97r0000gp/T//cc7OApJW.s:166    .data.DebugPin:0000000000000000 $d

UNDEFINED SYMBOLS
BspGPIO
