ARM GAS  C:\Users\8bit\AppData\Local\Temp\ccCpaURx.s 			page 1


   1              		.cpu cortex-m4
   2              		.arch armv7e-m
   3              		.fpu fpv4-sp-d16
   4              		.eabi_attribute 27, 1
   5              		.eabi_attribute 28, 1
   6              		.eabi_attribute 20, 1
   7              		.eabi_attribute 21, 1
   8              		.eabi_attribute 23, 3
   9              		.eabi_attribute 24, 1
  10              		.eabi_attribute 25, 1
  11              		.eabi_attribute 26, 1
  12              		.eabi_attribute 30, 1
  13              		.eabi_attribute 34, 1
  14              		.eabi_attribute 18, 4
  15              		.file	"debug_util.c"
  16              		.text
  17              	.Ltext0:
  18              		.cfi_sections	.debug_frame
  19              		.section	.text.DebugPin_Init,"ax",%progbits
  20              		.align	1
  21              		.syntax unified
  22              		.thumb
  23              		.thumb_func
  25              	DebugPin_Init:
  26              	.LFB133:
  27              		.file 1 "debug/debug_util.c"
   1:debug/debug_util.c **** #include "debug_util.h"
   2:debug/debug_util.c **** 
   3:debug/debug_util.c **** #define MAX_PRINT_SIZE ((uint16_t)512)
   4:debug/debug_util.c **** 
   5:debug/debug_util.c **** static bool DebugPin_Init(DebugPinObj_TypeDef pin);
   6:debug/debug_util.c **** static bool DebugPin_Ctl(DebugPinObj_TypeDef pin, bool state);
   7:debug/debug_util.c **** 
   8:debug/debug_util.c **** DebugPin_TypeDef DebugPin = {
   9:debug/debug_util.c ****     .init = DebugPin_Init,
  10:debug/debug_util.c ****     .ctl = DebugPin_Ctl,
  11:debug/debug_util.c **** };
  12:debug/debug_util.c **** 
  13:debug/debug_util.c **** static bool DebugPin_Init(DebugPinObj_TypeDef debug_pin)
  14:debug/debug_util.c **** {
  28              		.loc 1 14 1 view -0
  29              		.cfi_startproc
  30              		@ args = 0, pretend = 0, frame = 16
  31              		@ frame_needed = 0, uses_anonymous_args = 0
  32 0000 00B5     		push	{lr}
  33              	.LCFI0:
  34              		.cfi_def_cfa_offset 4
  35              		.cfi_offset 14, -4
  36 0002 85B0     		sub	sp, sp, #20
  37              	.LCFI1:
  38              		.cfi_def_cfa_offset 24
  39 0004 04AB     		add	r3, sp, #16
  40 0006 03E90700 		stmdb	r3, {r0, r1, r2}
  15:debug/debug_util.c ****     if (BspGPIO.out_init == NULL)
  41              		.loc 1 15 5 view .LVU1
  42              		.loc 1 15 16 is_stmt 0 view .LVU2
  43 000a 064B     		ldr	r3, .L5
ARM GAS  C:\Users\8bit\AppData\Local\Temp\ccCpaURx.s 			page 2


  44 000c 5B68     		ldr	r3, [r3, #4]
  45              		.loc 1 15 8 view .LVU3
  46 000e 33B1     		cbz	r3, .L3
  16:debug/debug_util.c ****         return false;
  17:debug/debug_util.c **** 
  18:debug/debug_util.c ****     return BspGPIO.out_init(debug_pin);
  47              		.loc 1 18 5 is_stmt 1 view .LVU4
  48              		.loc 1 18 12 is_stmt 0 view .LVU5
  49 0010 04AA     		add	r2, sp, #16
  50 0012 12E90700 		ldmdb	r2, {r0, r1, r2}
  51 0016 9847     		blx	r3
  52              	.LVL0:
  53              	.L2:
  19:debug/debug_util.c **** }
  54              		.loc 1 19 1 view .LVU6
  55 0018 05B0     		add	sp, sp, #20
  56              	.LCFI2:
  57              		.cfi_remember_state
  58              		.cfi_def_cfa_offset 4
  59              		@ sp needed
  60 001a 5DF804FB 		ldr	pc, [sp], #4
  61              	.L3:
  62              	.LCFI3:
  63              		.cfi_restore_state
  16:debug/debug_util.c ****         return false;
  64              		.loc 1 16 16 view .LVU7
  65 001e 0020     		movs	r0, #0
  66 0020 FAE7     		b	.L2
  67              	.L6:
  68 0022 00BF     		.align	2
  69              	.L5:
  70 0024 00000000 		.word	BspGPIO
  71              		.cfi_endproc
  72              	.LFE133:
  74              		.section	.text.DebugPin_Ctl,"ax",%progbits
  75              		.align	1
  76              		.syntax unified
  77              		.thumb
  78              		.thumb_func
  80              	DebugPin_Ctl:
  81              	.LVL1:
  82              	.LFB134:
  20:debug/debug_util.c **** 
  21:debug/debug_util.c **** static bool DebugPin_Ctl(DebugPinObj_TypeDef debug_pin, bool state)
  22:debug/debug_util.c **** {
  83              		.loc 1 22 1 is_stmt 1 view -0
  84              		.cfi_startproc
  85              		@ args = 0, pretend = 0, frame = 16
  86              		@ frame_needed = 0, uses_anonymous_args = 0
  87              		.loc 1 22 1 is_stmt 0 view .LVU9
  88 0000 10B5     		push	{r4, lr}
  89              	.LCFI4:
  90              		.cfi_def_cfa_offset 8
  91              		.cfi_offset 4, -8
  92              		.cfi_offset 14, -4
  93 0002 84B0     		sub	sp, sp, #16
  94              	.LCFI5:
ARM GAS  C:\Users\8bit\AppData\Local\Temp\ccCpaURx.s 			page 3


  95              		.cfi_def_cfa_offset 24
  96 0004 04AC     		add	r4, sp, #16
  97 0006 04E90700 		stmdb	r4, {r0, r1, r2}
  23:debug/debug_util.c ****     if (BspGPIO.write == NULL)
  98              		.loc 1 23 5 is_stmt 1 view .LVU10
  99              		.loc 1 23 16 is_stmt 0 view .LVU11
 100 000a 064A     		ldr	r2, .L11
 101 000c D469     		ldr	r4, [r2, #28]
 102              		.loc 1 23 8 view .LVU12
 103 000e 34B1     		cbz	r4, .L9
  24:debug/debug_util.c ****         return false;
  25:debug/debug_util.c **** 
  26:debug/debug_util.c ****     BspGPIO.write(debug_pin, state);
 104              		.loc 1 26 5 is_stmt 1 view .LVU13
 105 0010 04AA     		add	r2, sp, #16
 106 0012 12E90700 		ldmdb	r2, {r0, r1, r2}
 107 0016 A047     		blx	r4
 108              	.LVL2:
  27:debug/debug_util.c ****     return true;
 109              		.loc 1 27 5 view .LVU14
 110              		.loc 1 27 12 is_stmt 0 view .LVU15
 111 0018 0120     		movs	r0, #1
 112              	.L8:
  28:debug/debug_util.c **** }
 113              		.loc 1 28 1 view .LVU16
 114 001a 04B0     		add	sp, sp, #16
 115              	.LCFI6:
 116              		.cfi_remember_state
 117              		.cfi_def_cfa_offset 8
 118              		@ sp needed
 119 001c 10BD     		pop	{r4, pc}
 120              	.LVL3:
 121              	.L9:
 122              	.LCFI7:
 123              		.cfi_restore_state
  24:debug/debug_util.c ****         return false;
 124              		.loc 1 24 16 view .LVU17
 125 001e 0020     		movs	r0, #0
 126 0020 FBE7     		b	.L8
 127              	.L12:
 128 0022 00BF     		.align	2
 129              	.L11:
 130 0024 00000000 		.word	BspGPIO
 131              		.cfi_endproc
 132              	.LFE134:
 134              		.section	.text.Debug_PrintOut,"ax",%progbits
 135              		.align	1
 136              		.syntax unified
 137              		.thumb
 138              		.thumb_func
 140              	Debug_PrintOut:
 141              	.LVL4:
 142              	.LFB136:
  29:debug/debug_util.c **** 
  30:debug/debug_util.c **** void assert(bool state)
  31:debug/debug_util.c **** {
  32:debug/debug_util.c ****     while (state);
ARM GAS  C:\Users\8bit\AppData\Local\Temp\ccCpaURx.s 			page 4


  33:debug/debug_util.c **** }
  34:debug/debug_util.c **** 
  35:debug/debug_util.c **** static void Debug_PrintOut(DebugPrintObj_TypeDef *Obj, uint8_t *p_data, uint16_t len)
  36:debug/debug_util.c **** {
 143              		.loc 1 36 1 is_stmt 1 view -0
 144              		.cfi_startproc
 145              		@ args = 0, pretend = 0, frame = 0
 146              		@ frame_needed = 0, uses_anonymous_args = 0
  37:debug/debug_util.c ****     if (p_data && len)
 147              		.loc 1 37 5 view .LVU19
 148              		.loc 1 37 8 is_stmt 0 view .LVU20
 149 0000 41B1     		cbz	r1, .L16
 150 0002 0B46     		mov	r3, r1
 151              		.loc 1 37 16 discriminator 1 view .LVU21
 152 0004 32B1     		cbz	r2, .L16
  36:debug/debug_util.c ****     if (p_data && len)
 153              		.loc 1 36 1 view .LVU22
 154 0006 10B5     		push	{r4, lr}
 155              	.LCFI8:
 156              		.cfi_def_cfa_offset 8
 157              		.cfi_offset 4, -8
 158              		.cfi_offset 14, -4
  38:debug/debug_util.c ****         BspUart.send(To_BspUart_Obj(Obj->port_obj), p_data, len);
 159              		.loc 1 38 9 is_stmt 1 view .LVU23
 160              		.loc 1 38 16 is_stmt 0 view .LVU24
 161 0008 0349     		ldr	r1, .L19
 162              	.LVL5:
 163              		.loc 1 38 16 view .LVU25
 164 000a CC69     		ldr	r4, [r1, #28]
 165              		.loc 1 38 9 view .LVU26
 166 000c 1946     		mov	r1, r3
 167 000e 0068     		ldr	r0, [r0]
 168              	.LVL6:
 169              		.loc 1 38 9 view .LVU27
 170 0010 A047     		blx	r4
 171              	.LVL7:
  39:debug/debug_util.c **** }
 172              		.loc 1 39 1 view .LVU28
 173 0012 10BD     		pop	{r4, pc}
 174              	.LVL8:
 175              	.L16:
 176              	.LCFI9:
 177              		.cfi_def_cfa_offset 0
 178              		.cfi_restore 4
 179              		.cfi_restore 14
 180              		.loc 1 39 1 view .LVU29
 181 0014 7047     		bx	lr
 182              	.L20:
 183 0016 00BF     		.align	2
 184              	.L19:
 185 0018 00000000 		.word	BspUart
 186              		.cfi_endproc
 187              	.LFE136:
 189              		.section	.text.assert,"ax",%progbits
 190              		.align	1
 191              		.global	assert
 192              		.syntax unified
ARM GAS  C:\Users\8bit\AppData\Local\Temp\ccCpaURx.s 			page 5


 193              		.thumb
 194              		.thumb_func
 196              	assert:
 197              	.LFB135:
  31:debug/debug_util.c ****     while (state);
 198              		.loc 1 31 1 is_stmt 1 view -0
 199              		.cfi_startproc
 200              		@ args = 0, pretend = 0, frame = 0
 201              		@ frame_needed = 0, uses_anonymous_args = 0
 202              		@ link register save eliminated.
 203              	.LVL9:
 204              	.L22:
  32:debug/debug_util.c **** }
 205              		.loc 1 32 18 discriminator 1 view .LVU31
  32:debug/debug_util.c **** }
 206              		.loc 1 32 11 discriminator 1 view .LVU32
 207 0000 0028     		cmp	r0, #0
 208 0002 FDD1     		bne	.L22
  33:debug/debug_util.c **** 
 209              		.loc 1 33 1 is_stmt 0 view .LVU33
 210 0004 7047     		bx	lr
 211              		.cfi_endproc
 212              	.LFE135:
 214              		.section	.text.Debug_Port_Init,"ax",%progbits
 215              		.align	1
 216              		.global	Debug_Port_Init
 217              		.syntax unified
 218              		.thumb
 219              		.thumb_func
 221              	Debug_Port_Init:
 222              	.LVL10:
 223              	.LFB137:
  40:debug/debug_util.c **** 
  41:debug/debug_util.c **** void Debug_Port_Init(DebugPrintObj_TypeDef *Obj)
  42:debug/debug_util.c **** {
 224              		.loc 1 42 1 is_stmt 1 view -0
 225              		.cfi_startproc
 226              		@ args = 0, pretend = 0, frame = 0
 227              		@ frame_needed = 0, uses_anonymous_args = 0
 228              		.loc 1 42 1 is_stmt 0 view .LVU35
 229 0000 10B5     		push	{r4, lr}
 230              	.LCFI10:
 231              		.cfi_def_cfa_offset 8
 232              		.cfi_offset 4, -8
 233              		.cfi_offset 14, -4
 234 0002 0446     		mov	r4, r0
  43:debug/debug_util.c **** #if defined STM32H743xx
  44:debug/debug_util.c ****     To_BspUart_Obj(Obj->port_obj)->hdl = Obj->malloc(UART_HandleType_Size);
  45:debug/debug_util.c ****     if (To_BspUart_Obj(Obj->port_obj)->hdl == NULL)
  46:debug/debug_util.c ****         return;
  47:debug/debug_util.c **** #endif
  48:debug/debug_util.c **** 
  49:debug/debug_util.c ****     if (!Obj->port_obj || !BspUart.init(To_BspUart_Obj(Obj->port_obj)))
 235              		.loc 1 49 5 is_stmt 1 view .LVU36
 236              		.loc 1 49 13 is_stmt 0 view .LVU37
 237 0004 0068     		ldr	r0, [r0]
 238              	.LVL11:
ARM GAS  C:\Users\8bit\AppData\Local\Temp\ccCpaURx.s 			page 6


 239              		.loc 1 49 8 view .LVU38
 240 0006 40B1     		cbz	r0, .L24
 241              		.loc 1 49 35 discriminator 1 view .LVU39
 242 0008 054B     		ldr	r3, .L28
 243 000a 1B68     		ldr	r3, [r3]
 244              		.loc 1 49 28 discriminator 1 view .LVU40
 245 000c 9847     		blx	r3
 246              	.LVL12:
 247              		.loc 1 49 24 discriminator 1 view .LVU41
 248 000e 20B1     		cbz	r0, .L24
  50:debug/debug_util.c ****     {
  51:debug/debug_util.c ****         Obj->port_obj = NULL;
  52:debug/debug_util.c ****         return;
  53:debug/debug_util.c ****     }
  54:debug/debug_util.c **** 
  55:debug/debug_util.c ****     Obj->init = true;
 249              		.loc 1 55 5 is_stmt 1 view .LVU42
 250              		.loc 1 55 15 is_stmt 0 view .LVU43
 251 0010 0123     		movs	r3, #1
 252 0012 2371     		strb	r3, [r4, #4]
  56:debug/debug_util.c ****     To_BspUart_Obj(Obj->port_obj)->cust_data_addr = ((uint32_t)Obj);
 253              		.loc 1 56 5 is_stmt 1 view .LVU44
 254 0014 2368     		ldr	r3, [r4]
 255              		.loc 1 56 51 is_stmt 0 view .LVU45
 256 0016 9C64     		str	r4, [r3, #72]
 257              	.L23:
  57:debug/debug_util.c **** }
 258              		.loc 1 57 1 view .LVU46
 259 0018 10BD     		pop	{r4, pc}
 260              	.LVL13:
 261              	.L24:
  51:debug/debug_util.c ****         return;
 262              		.loc 1 51 9 is_stmt 1 view .LVU47
  51:debug/debug_util.c ****         return;
 263              		.loc 1 51 23 is_stmt 0 view .LVU48
 264 001a 0023     		movs	r3, #0
 265 001c 2360     		str	r3, [r4]
  52:debug/debug_util.c ****     }
 266              		.loc 1 52 9 is_stmt 1 view .LVU49
 267 001e FBE7     		b	.L23
 268              	.L29:
 269              		.align	2
 270              	.L28:
 271 0020 00000000 		.word	BspUart
 272              		.cfi_endproc
 273              	.LFE137:
 275              		.section	.text.Debug_Print,"ax",%progbits
 276              		.align	1
 277              		.global	Debug_Print
 278              		.syntax unified
 279              		.thumb
 280              		.thumb_func
 282              	Debug_Print:
 283              	.LVL14:
 284              	.LFB138:
  58:debug/debug_util.c **** 
  59:debug/debug_util.c **** void Debug_Print(DebugPrintObj_TypeDef *Obj, const char *tag, const char* fmt, ...)
ARM GAS  C:\Users\8bit\AppData\Local\Temp\ccCpaURx.s 			page 7


  60:debug/debug_util.c **** {
 285              		.loc 1 60 1 view -0
 286              		.cfi_startproc
 287              		@ args = 4, pretend = 8, frame = 136
 288              		@ frame_needed = 0, uses_anonymous_args = 1
 289              		.loc 1 60 1 is_stmt 0 view .LVU51
 290 0000 0CB4     		push	{r2, r3}
 291              	.LCFI11:
 292              		.cfi_def_cfa_offset 8
 293              		.cfi_offset 2, -8
 294              		.cfi_offset 3, -4
 295 0002 30B5     		push	{r4, r5, lr}
 296              	.LCFI12:
 297              		.cfi_def_cfa_offset 20
 298              		.cfi_offset 4, -20
 299              		.cfi_offset 5, -16
 300              		.cfi_offset 14, -12
 301 0004 A3B0     		sub	sp, sp, #140
 302              	.LCFI13:
 303              		.cfi_def_cfa_offset 160
  61:debug/debug_util.c **** 	va_list ap;
 304              		.loc 1 61 2 is_stmt 1 view .LVU52
  62:debug/debug_util.c ****     uint16_t length = 0;
 305              		.loc 1 62 5 view .LVU53
 306              	.LVL15:
  63:debug/debug_util.c ****     char new_fmt[128];
 307              		.loc 1 63 5 view .LVU54
  64:debug/debug_util.c **** 
  65:debug/debug_util.c ****     if (!Obj->init)
 308              		.loc 1 65 5 view .LVU55
 309              		.loc 1 65 13 is_stmt 0 view .LVU56
 310 0006 0379     		ldrb	r3, [r0, #4]	@ zero_extendqisi2
 311              		.loc 1 65 8 view .LVU57
 312 0008 002B     		cmp	r3, #0
 313 000a 37D0     		beq	.L30
 314 000c 0446     		mov	r4, r0
 315 000e 0D46     		mov	r5, r1
  66:debug/debug_util.c ****         return;
  67:debug/debug_util.c **** 
  68:debug/debug_util.c ****     if (Obj->free && Obj->malloc && (Obj->p_buf == NULL))
 316              		.loc 1 68 5 is_stmt 1 view .LVU58
 317              		.loc 1 68 12 is_stmt 0 view .LVU59
 318 0010 0369     		ldr	r3, [r0, #16]
 319              		.loc 1 68 8 view .LVU60
 320 0012 23B1     		cbz	r3, .L32
 321              		.loc 1 68 25 discriminator 1 view .LVU61
 322 0014 C368     		ldr	r3, [r0, #12]
 323              		.loc 1 68 19 discriminator 1 view .LVU62
 324 0016 13B1     		cbz	r3, .L32
 325              		.loc 1 68 41 discriminator 2 view .LVU63
 326 0018 8268     		ldr	r2, [r0, #8]
 327              		.loc 1 68 34 discriminator 2 view .LVU64
 328 001a 002A     		cmp	r2, #0
 329 001c 33D0     		beq	.L38
 330              	.LVL16:
 331              	.L32:
  69:debug/debug_util.c ****     {
ARM GAS  C:\Users\8bit\AppData\Local\Temp\ccCpaURx.s 			page 8


  70:debug/debug_util.c ****         Obj->p_buf = Obj->malloc(MAX_PRINT_SIZE);
  71:debug/debug_util.c ****         if (Obj->p_buf == NULL)
  72:debug/debug_util.c ****             return;
  73:debug/debug_util.c ****     }
  74:debug/debug_util.c **** 
  75:debug/debug_util.c ****     memset(Obj->p_buf, 0, MAX_PRINT_SIZE);
 332              		.loc 1 75 5 is_stmt 1 view .LVU65
 333 001e 4FF40072 		mov	r2, #512
 334 0022 0021     		movs	r1, #0
 335 0024 A068     		ldr	r0, [r4, #8]
 336 0026 FFF7FEFF 		bl	memset
 337              	.LVL17:
  76:debug/debug_util.c ****     memset(new_fmt, 0, sizeof(new_fmt));
 338              		.loc 1 76 5 view .LVU66
 339 002a 8022     		movs	r2, #128
 340 002c 0021     		movs	r1, #0
 341 002e 01A8     		add	r0, sp, #4
 342 0030 FFF7FEFF 		bl	memset
 343              	.LVL18:
  77:debug/debug_util.c ****     strcpy(new_fmt, tag);
 344              		.loc 1 77 5 view .LVU67
 345 0034 2946     		mov	r1, r5
 346 0036 01A8     		add	r0, sp, #4
 347 0038 FFF7FEFF 		bl	strcpy
 348              	.LVL19:
  78:debug/debug_util.c ****     strcat(new_fmt, fmt);
 349              		.loc 1 78 5 view .LVU68
 350 003c 2699     		ldr	r1, [sp, #152]
 351 003e 01A8     		add	r0, sp, #4
 352 0040 FFF7FEFF 		bl	strcat
 353              	.LVL20:
  79:debug/debug_util.c **** 
  80:debug/debug_util.c ****     if (Obj->p_buf && Obj->port_obj)
 354              		.loc 1 80 5 view .LVU69
 355              		.loc 1 80 12 is_stmt 0 view .LVU70
 356 0044 A368     		ldr	r3, [r4, #8]
 357              		.loc 1 80 8 view .LVU71
 358 0046 CBB1     		cbz	r3, .L30
 359              		.loc 1 80 26 discriminator 1 view .LVU72
 360 0048 2368     		ldr	r3, [r4]
 361              		.loc 1 80 20 discriminator 1 view .LVU73
 362 004a BBB1     		cbz	r3, .L30
 363              	.LBB2:
  81:debug/debug_util.c ****     {
  82:debug/debug_util.c **** 	    va_start(ap, new_fmt);
 364              		.loc 1 82 6 is_stmt 1 view .LVU74
 365 004c 27AB     		add	r3, sp, #156
 366 004e 2193     		str	r3, [sp, #132]
  83:debug/debug_util.c **** 	    length = vsnprintf(Obj->p_buf, MAX_PRINT_SIZE, new_fmt, ap);
 367              		.loc 1 83 6 view .LVU75
 368              		.loc 1 83 15 is_stmt 0 view .LVU76
 369 0050 01AA     		add	r2, sp, #4
 370 0052 4FF40071 		mov	r1, #512
 371 0056 A068     		ldr	r0, [r4, #8]
 372 0058 FFF7FEFF 		bl	vsnprintf
 373              	.LVL21:
 374              		.loc 1 83 13 view .LVU77
ARM GAS  C:\Users\8bit\AppData\Local\Temp\ccCpaURx.s 			page 9


 375 005c 85B2     		uxth	r5, r0
 376              	.LVL22:
  84:debug/debug_util.c **** 	    va_end(ap);
 377              		.loc 1 84 6 is_stmt 1 view .LVU78
  85:debug/debug_util.c **** 
  86:debug/debug_util.c ****         if (length > MAX_PRINT_SIZE)
 378              		.loc 1 86 9 view .LVU79
 379              		.loc 1 86 12 is_stmt 0 view .LVU80
 380 005e B5F5007F 		cmp	r5, #512
 381 0062 01D9     		bls	.L34
  87:debug/debug_util.c ****             length = MAX_PRINT_SIZE;
 382              		.loc 1 87 20 view .LVU81
 383 0064 4FF40075 		mov	r5, #512
 384              	.LVL23:
 385              	.L34:
  88:debug/debug_util.c **** 
  89:debug/debug_util.c ****         Debug_PrintOut(Obj, Obj->p_buf, length);
 386              		.loc 1 89 9 is_stmt 1 view .LVU82
 387 0068 2A46     		mov	r2, r5
 388 006a A168     		ldr	r1, [r4, #8]
 389 006c 2046     		mov	r0, r4
 390 006e FFF7FEFF 		bl	Debug_PrintOut
 391              	.LVL24:
  90:debug/debug_util.c ****         memset(Obj->p_buf, 0, length);
 392              		.loc 1 90 9 view .LVU83
 393 0072 2A46     		mov	r2, r5
 394 0074 0021     		movs	r1, #0
 395 0076 A068     		ldr	r0, [r4, #8]
 396 0078 FFF7FEFF 		bl	memset
 397              	.LVL25:
 398              	.L30:
 399              		.loc 1 90 9 is_stmt 0 view .LVU84
 400              	.LBE2:
  91:debug/debug_util.c ****     }
  92:debug/debug_util.c **** }
 401              		.loc 1 92 1 view .LVU85
 402 007c 23B0     		add	sp, sp, #140
 403              	.LCFI14:
 404              		.cfi_remember_state
 405              		.cfi_def_cfa_offset 20
 406              		@ sp needed
 407 007e BDE83040 		pop	{r4, r5, lr}
 408              	.LCFI15:
 409              		.cfi_restore 14
 410              		.cfi_restore 5
 411              		.cfi_restore 4
 412              		.cfi_def_cfa_offset 8
 413 0082 02B0     		add	sp, sp, #8
 414              	.LCFI16:
 415              		.cfi_restore 3
 416              		.cfi_restore 2
 417              		.cfi_def_cfa_offset 0
 418 0084 7047     		bx	lr
 419              	.LVL26:
 420              	.L38:
 421              	.LCFI17:
 422              		.cfi_restore_state
ARM GAS  C:\Users\8bit\AppData\Local\Temp\ccCpaURx.s 			page 10


  70:debug/debug_util.c ****         if (Obj->p_buf == NULL)
 423              		.loc 1 70 9 is_stmt 1 view .LVU86
  70:debug/debug_util.c ****         if (Obj->p_buf == NULL)
 424              		.loc 1 70 22 is_stmt 0 view .LVU87
 425 0086 4FF40070 		mov	r0, #512
 426              	.LVL27:
  70:debug/debug_util.c ****         if (Obj->p_buf == NULL)
 427              		.loc 1 70 22 view .LVU88
 428 008a 9847     		blx	r3
 429              	.LVL28:
  70:debug/debug_util.c ****         if (Obj->p_buf == NULL)
 430              		.loc 1 70 20 view .LVU89
 431 008c A060     		str	r0, [r4, #8]
  71:debug/debug_util.c ****             return;
 432              		.loc 1 71 9 is_stmt 1 view .LVU90
  71:debug/debug_util.c ****             return;
 433              		.loc 1 71 12 is_stmt 0 view .LVU91
 434 008e 0028     		cmp	r0, #0
 435 0090 C5D1     		bne	.L32
 436 0092 F3E7     		b	.L30
 437              		.cfi_endproc
 438              	.LFE138:
 440              		.global	DebugPin
 441              		.section	.data.DebugPin,"aw"
 442              		.align	2
 445              	DebugPin:
 446 0000 00000000 		.word	DebugPin_Init
 447 0004 00000000 		.word	DebugPin_Ctl
 448              		.text
 449              	.Letext0:
 450              		.file 2 "c:\\program files (x86)\\gnu arm embedded toolchain\\10 2021.10\\arm-none-eabi\\include\\
 451              		.file 3 "c:\\program files (x86)\\gnu arm embedded toolchain\\10 2021.10\\arm-none-eabi\\include\\
 452              		.file 4 "c:\\program files (x86)\\gnu arm embedded toolchain\\10 2021.10\\lib\\gcc\\arm-none-eabi\
 453              		.file 5 "HW_Lib/AT32F435/drivers/inc/at32f435_437_tmr.h"
 454              		.file 6 "HW_Lib/PortApi_Def/Bsp_GPIO_Port_Def.h"
 455              		.file 7 "HW_Lib/PortApi_Def/Bsp_Uart_Port_Def.h"
 456              		.file 8 "HW_Lib/AT32F435/bsp/Bsp_GPIO.h"
 457              		.file 9 "HW_Lib/AT32F435/bsp/Bsp_Uart.h"
 458              		.file 10 "debug/debug_util.h"
 459              		.file 11 "<built-in>"
 460              		.file 12 "c:\\program files (x86)\\gnu arm embedded toolchain\\10 2021.10\\arm-none-eabi\\include\
ARM GAS  C:\Users\8bit\AppData\Local\Temp\ccCpaURx.s 			page 11


DEFINED SYMBOLS
                            *ABS*:00000000 debug_util.c
C:\Users\8bit\AppData\Local\Temp\ccCpaURx.s:20     .text.DebugPin_Init:00000000 $t
C:\Users\8bit\AppData\Local\Temp\ccCpaURx.s:25     .text.DebugPin_Init:00000000 DebugPin_Init
C:\Users\8bit\AppData\Local\Temp\ccCpaURx.s:70     .text.DebugPin_Init:00000024 $d
C:\Users\8bit\AppData\Local\Temp\ccCpaURx.s:75     .text.DebugPin_Ctl:00000000 $t
C:\Users\8bit\AppData\Local\Temp\ccCpaURx.s:80     .text.DebugPin_Ctl:00000000 DebugPin_Ctl
C:\Users\8bit\AppData\Local\Temp\ccCpaURx.s:130    .text.DebugPin_Ctl:00000024 $d
C:\Users\8bit\AppData\Local\Temp\ccCpaURx.s:135    .text.Debug_PrintOut:00000000 $t
C:\Users\8bit\AppData\Local\Temp\ccCpaURx.s:140    .text.Debug_PrintOut:00000000 Debug_PrintOut
C:\Users\8bit\AppData\Local\Temp\ccCpaURx.s:185    .text.Debug_PrintOut:00000018 $d
C:\Users\8bit\AppData\Local\Temp\ccCpaURx.s:190    .text.assert:00000000 $t
C:\Users\8bit\AppData\Local\Temp\ccCpaURx.s:196    .text.assert:00000000 assert
C:\Users\8bit\AppData\Local\Temp\ccCpaURx.s:215    .text.Debug_Port_Init:00000000 $t
C:\Users\8bit\AppData\Local\Temp\ccCpaURx.s:221    .text.Debug_Port_Init:00000000 Debug_Port_Init
C:\Users\8bit\AppData\Local\Temp\ccCpaURx.s:271    .text.Debug_Port_Init:00000020 $d
C:\Users\8bit\AppData\Local\Temp\ccCpaURx.s:276    .text.Debug_Print:00000000 $t
C:\Users\8bit\AppData\Local\Temp\ccCpaURx.s:282    .text.Debug_Print:00000000 Debug_Print
C:\Users\8bit\AppData\Local\Temp\ccCpaURx.s:445    .data.DebugPin:00000000 DebugPin
C:\Users\8bit\AppData\Local\Temp\ccCpaURx.s:442    .data.DebugPin:00000000 $d

UNDEFINED SYMBOLS
BspGPIO
BspUart
memset
strcpy
strcat
vsnprintf
