ARM GAS  C:\Users\8bit\AppData\Local\Temp\ccZKwwLX.s 			page 1


   1              		.cpu cortex-m4
   2              		.arch armv7e-m
   3              		.fpu fpv4-sp-d16
   4              		.eabi_attribute 27, 1
   5              		.eabi_attribute 28, 1
   6              		.eabi_attribute 20, 1
   7              		.eabi_attribute 21, 1
   8              		.eabi_attribute 23, 3
   9              		.eabi_attribute 24, 1
  10              		.eabi_attribute 25, 1
  11              		.eabi_attribute 26, 1
  12              		.eabi_attribute 30, 1
  13              		.eabi_attribute 34, 1
  14              		.eabi_attribute 18, 4
  15              		.file	"Dev_BrushMoto.c"
  16              		.text
  17              	.Ltext0:
  18              		.cfi_sections	.debug_frame
  19              		.section	.text.Brush_Port_Init,"ax",%progbits
  20              		.align	1
  21              		.weak	Brush_Port_Init
  22              		.syntax unified
  23              		.thumb
  24              		.thumb_func
  26              	Brush_Port_Init:
  27              	.LVL0:
  28              	.LFB0:
  29              		.file 1 "Device/Dev_BrushMoto.c"
   1:Device/Dev_BrushMoto.c **** #include "Dev_BrushMoto.h"
   2:Device/Dev_BrushMoto.c **** 
   3:Device/Dev_BrushMoto.c **** #define BRUSH_TMR_CLK_FREQ  1000000
   4:Device/Dev_BrushMoto.c **** #define BRUSH_TMR_PERIOD    BRUSH_MAX_THROTTLE
   5:Device/Dev_BrushMoto.c **** 
   6:Device/Dev_BrushMoto.c **** __attribute__((weak)) bool Brush_Port_Init(void *obj, uint32_t prescaler, uint32_t autoreload, void
  30              		.loc 1 6 140 view -0
  31              		.cfi_startproc
  32              		@ args = 8, pretend = 0, frame = 0
  33              		@ frame_needed = 0, uses_anonymous_args = 0
  34              		@ link register save eliminated.
  35              		.loc 1 6 141 view .LVU1
  36              		.loc 1 6 154 is_stmt 0 view .LVU2
  37 0000 0020     		movs	r0, #0
  38              	.LVL1:
  39              		.loc 1 6 154 view .LVU3
  40 0002 7047     		bx	lr
  41              		.cfi_endproc
  42              	.LFE0:
  44              		.section	.text.Brush_Port_DeInit,"ax",%progbits
  45              		.align	1
  46              		.weak	Brush_Port_DeInit
  47              		.syntax unified
  48              		.thumb
  49              		.thumb_func
  51              	Brush_Port_DeInit:
  52              	.LVL2:
  53              	.LFB1:
   7:Device/Dev_BrushMoto.c **** __attribute__((weak)) bool Brush_Port_DeInit(void *obj){return false;}
ARM GAS  C:\Users\8bit\AppData\Local\Temp\ccZKwwLX.s 			page 2


  54              		.loc 1 7 56 is_stmt 1 view -0
  55              		.cfi_startproc
  56              		@ args = 0, pretend = 0, frame = 0
  57              		@ frame_needed = 0, uses_anonymous_args = 0
  58              		@ link register save eliminated.
  59              		.loc 1 7 57 view .LVU5
  60              		.loc 1 7 70 is_stmt 0 view .LVU6
  61 0000 0020     		movs	r0, #0
  62              	.LVL3:
  63              		.loc 1 7 70 view .LVU7
  64 0002 7047     		bx	lr
  65              		.cfi_endproc
  66              	.LFE1:
  68              		.section	.text.DevBrushMoto_Deinit,"ax",%progbits
  69              		.align	1
  70              		.syntax unified
  71              		.thumb
  72              		.thumb_func
  74              	DevBrushMoto_Deinit:
  75              	.LVL4:
  76              	.LFB5:
   8:Device/Dev_BrushMoto.c **** __attribute__((weak)) void Brush_Port_Trans(void *obj, uint16_t val){return;}
   9:Device/Dev_BrushMoto.c **** __attribute__((weak)) uint32_t Brush_Get_Timer_CLKFreq(void *tmr_obj){return 0;}
  10:Device/Dev_BrushMoto.c **** 
  11:Device/Dev_BrushMoto.c **** /* external function */
  12:Device/Dev_BrushMoto.c **** static bool DevBrushMoto_Init(DevBrushMotoObj_TypeDef *obj, void *timer_ins, uint32_t ch, void *pin
  13:Device/Dev_BrushMoto.c **** static bool DevBrushMoto_Deinit(DevBrushMotoObj_TypeDef *obj);
  14:Device/Dev_BrushMoto.c **** static void DevBrushMoto_Control(DevBrushMotoObj_TypeDef *obj, uint16_t val);
  15:Device/Dev_BrushMoto.c **** 
  16:Device/Dev_BrushMoto.c **** DevBrushMoto_TypeDef DevBrushMoto = {
  17:Device/Dev_BrushMoto.c ****     .init = DevBrushMoto_Init,
  18:Device/Dev_BrushMoto.c ****     .de_init = DevBrushMoto_Deinit,
  19:Device/Dev_BrushMoto.c ****     .control = DevBrushMoto_Control,
  20:Device/Dev_BrushMoto.c **** };
  21:Device/Dev_BrushMoto.c **** 
  22:Device/Dev_BrushMoto.c **** static bool DevBrushMoto_Init(DevBrushMotoObj_TypeDef *obj, void *timer_ins, uint32_t ch, void *pin
  23:Device/Dev_BrushMoto.c **** {
  24:Device/Dev_BrushMoto.c ****     uint32_t tmr_clk = 0;
  25:Device/Dev_BrushMoto.c ****     uint32_t prescaler = 0;
  26:Device/Dev_BrushMoto.c ****     uint32_t autoreload = 0;
  27:Device/Dev_BrushMoto.c **** 
  28:Device/Dev_BrushMoto.c ****     if ((obj == NULL) || \
  29:Device/Dev_BrushMoto.c ****         (timer_ins == NULL))
  30:Device/Dev_BrushMoto.c ****         return false;
  31:Device/Dev_BrushMoto.c **** 
  32:Device/Dev_BrushMoto.c ****     tmr_clk = Brush_Get_Timer_CLKFreq(obj);
  33:Device/Dev_BrushMoto.c ****     if (tmr_clk == 0)
  34:Device/Dev_BrushMoto.c ****         return false;
  35:Device/Dev_BrushMoto.c **** 
  36:Device/Dev_BrushMoto.c ****     prescaler = tmr_clk / BRUSH_TMR_CLK_FREQ;
  37:Device/Dev_BrushMoto.c ****     autoreload = BRUSH_TMR_PERIOD;
  38:Device/Dev_BrushMoto.c **** 
  39:Device/Dev_BrushMoto.c ****     return Brush_Port_Init(obj, prescaler, autoreload, timer_ins, ch, pin);
  40:Device/Dev_BrushMoto.c **** }
  41:Device/Dev_BrushMoto.c **** 
  42:Device/Dev_BrushMoto.c **** static bool DevBrushMoto_Deinit(DevBrushMotoObj_TypeDef *obj)
  43:Device/Dev_BrushMoto.c **** {
ARM GAS  C:\Users\8bit\AppData\Local\Temp\ccZKwwLX.s 			page 3


  77              		.loc 1 43 1 is_stmt 1 view -0
  78              		.cfi_startproc
  79              		@ args = 0, pretend = 0, frame = 0
  80              		@ frame_needed = 0, uses_anonymous_args = 0
  44:Device/Dev_BrushMoto.c ****     if ((obj == NULL) || \
  81              		.loc 1 44 5 view .LVU9
  82              		.loc 1 44 8 is_stmt 0 view .LVU10
  83 0000 28B1     		cbz	r0, .L5
  43:Device/Dev_BrushMoto.c ****     if ((obj == NULL) || \
  84              		.loc 1 43 1 discriminator 1 view .LVU11
  85 0002 08B5     		push	{r3, lr}
  86              	.LCFI0:
  87              		.cfi_def_cfa_offset 8
  88              		.cfi_offset 3, -8
  89              		.cfi_offset 14, -4
  45:Device/Dev_BrushMoto.c ****         (obj->p_timer_obj == NULL))
  90              		.loc 1 45 13 discriminator 1 view .LVU12
  91 0004 4268     		ldr	r2, [r0, #4]
  44:Device/Dev_BrushMoto.c ****     if ((obj == NULL) || \
  92              		.loc 1 44 23 discriminator 1 view .LVU13
  93 0006 22B1     		cbz	r2, .L6
  46:Device/Dev_BrushMoto.c ****         return false;
  47:Device/Dev_BrushMoto.c **** 
  48:Device/Dev_BrushMoto.c ****     return Brush_Port_DeInit(obj);
  94              		.loc 1 48 5 is_stmt 1 view .LVU14
  95              		.loc 1 48 12 is_stmt 0 view .LVU15
  96 0008 FFF7FEFF 		bl	Brush_Port_DeInit
  97              	.LVL5:
  98              	.L4:
  49:Device/Dev_BrushMoto.c **** }
  99              		.loc 1 49 1 view .LVU16
 100 000c 08BD     		pop	{r3, pc}
 101              	.LVL6:
 102              	.L5:
 103              	.LCFI1:
 104              		.cfi_def_cfa_offset 0
 105              		.cfi_restore 3
 106              		.cfi_restore 14
  46:Device/Dev_BrushMoto.c ****         return false;
 107              		.loc 1 46 16 view .LVU17
 108 000e 0020     		movs	r0, #0
 109              	.LVL7:
 110              		.loc 1 49 1 view .LVU18
 111 0010 7047     		bx	lr
 112              	.LVL8:
 113              	.L6:
 114              	.LCFI2:
 115              		.cfi_def_cfa_offset 8
 116              		.cfi_offset 3, -8
 117              		.cfi_offset 14, -4
  46:Device/Dev_BrushMoto.c ****         return false;
 118              		.loc 1 46 16 view .LVU19
 119 0012 0020     		movs	r0, #0
 120              	.LVL9:
  46:Device/Dev_BrushMoto.c ****         return false;
 121              		.loc 1 46 16 view .LVU20
 122 0014 FAE7     		b	.L4
ARM GAS  C:\Users\8bit\AppData\Local\Temp\ccZKwwLX.s 			page 4


 123              		.cfi_endproc
 124              	.LFE5:
 126              		.section	.text.Brush_Port_Trans,"ax",%progbits
 127              		.align	1
 128              		.weak	Brush_Port_Trans
 129              		.syntax unified
 130              		.thumb
 131              		.thumb_func
 133              	Brush_Port_Trans:
 134              	.LVL10:
 135              	.LFB2:
   8:Device/Dev_BrushMoto.c **** __attribute__((weak)) uint32_t Brush_Get_Timer_CLKFreq(void *tmr_obj){return 0;}
 136              		.loc 1 8 69 is_stmt 1 view -0
 137              		.cfi_startproc
 138              		@ args = 0, pretend = 0, frame = 0
 139              		@ frame_needed = 0, uses_anonymous_args = 0
 140              		@ link register save eliminated.
   8:Device/Dev_BrushMoto.c **** __attribute__((weak)) uint32_t Brush_Get_Timer_CLKFreq(void *tmr_obj){return 0;}
 141              		.loc 1 8 70 view .LVU22
   8:Device/Dev_BrushMoto.c **** __attribute__((weak)) uint32_t Brush_Get_Timer_CLKFreq(void *tmr_obj){return 0;}
 142              		.loc 1 8 77 is_stmt 0 view .LVU23
 143 0000 7047     		bx	lr
 144              		.cfi_endproc
 145              	.LFE2:
 147              		.section	.text.DevBrushMoto_Control,"ax",%progbits
 148              		.align	1
 149              		.syntax unified
 150              		.thumb
 151              		.thumb_func
 153              	DevBrushMoto_Control:
 154              	.LVL11:
 155              	.LFB6:
  50:Device/Dev_BrushMoto.c **** 
  51:Device/Dev_BrushMoto.c **** static void DevBrushMoto_Control(DevBrushMotoObj_TypeDef *obj, uint16_t val)
  52:Device/Dev_BrushMoto.c **** {
 156              		.loc 1 52 1 is_stmt 1 view -0
 157              		.cfi_startproc
 158              		@ args = 0, pretend = 0, frame = 0
 159              		@ frame_needed = 0, uses_anonymous_args = 0
  53:Device/Dev_BrushMoto.c ****     if ((obj == NULL) || \
 160              		.loc 1 53 5 view .LVU25
 161              		.loc 1 53 8 is_stmt 0 view .LVU26
 162 0000 30B1     		cbz	r0, .L15
  52:Device/Dev_BrushMoto.c ****     if ((obj == NULL) || \
 163              		.loc 1 52 1 discriminator 1 view .LVU27
 164 0002 08B5     		push	{r3, lr}
 165              	.LCFI3:
 166              		.cfi_def_cfa_offset 8
 167              		.cfi_offset 3, -8
 168              		.cfi_offset 14, -4
  54:Device/Dev_BrushMoto.c ****         (obj->p_timer_obj == NULL))
 169              		.loc 1 54 13 discriminator 1 view .LVU28
 170 0004 4268     		ldr	r2, [r0, #4]
  53:Device/Dev_BrushMoto.c ****     if ((obj == NULL) || \
 171              		.loc 1 53 23 discriminator 1 view .LVU29
 172 0006 12B1     		cbz	r2, .L12
  55:Device/Dev_BrushMoto.c ****         return;
ARM GAS  C:\Users\8bit\AppData\Local\Temp\ccZKwwLX.s 			page 5


  56:Device/Dev_BrushMoto.c **** 
  57:Device/Dev_BrushMoto.c ****     obj->ctl_val = val;
 173              		.loc 1 57 5 is_stmt 1 view .LVU30
 174              		.loc 1 57 18 is_stmt 0 view .LVU31
 175 0008 0181     		strh	r1, [r0, #8]	@ movhi
  58:Device/Dev_BrushMoto.c ****     Brush_Port_Trans(obj, val);
 176              		.loc 1 58 5 is_stmt 1 view .LVU32
 177 000a FFF7FEFF 		bl	Brush_Port_Trans
 178              	.LVL12:
 179              	.L12:
  59:Device/Dev_BrushMoto.c **** }
 180              		.loc 1 59 1 is_stmt 0 view .LVU33
 181 000e 08BD     		pop	{r3, pc}
 182              	.LVL13:
 183              	.L15:
 184              	.LCFI4:
 185              		.cfi_def_cfa_offset 0
 186              		.cfi_restore 3
 187              		.cfi_restore 14
 188              		.loc 1 59 1 view .LVU34
 189 0010 7047     		bx	lr
 190              		.cfi_endproc
 191              	.LFE6:
 193              		.section	.text.Brush_Get_Timer_CLKFreq,"ax",%progbits
 194              		.align	1
 195              		.weak	Brush_Get_Timer_CLKFreq
 196              		.syntax unified
 197              		.thumb
 198              		.thumb_func
 200              	Brush_Get_Timer_CLKFreq:
 201              	.LVL14:
 202              	.LFB3:
   9:Device/Dev_BrushMoto.c **** 
 203              		.loc 1 9 70 is_stmt 1 view -0
 204              		.cfi_startproc
 205              		@ args = 0, pretend = 0, frame = 0
 206              		@ frame_needed = 0, uses_anonymous_args = 0
 207              		@ link register save eliminated.
   9:Device/Dev_BrushMoto.c **** 
 208              		.loc 1 9 71 view .LVU36
   9:Device/Dev_BrushMoto.c **** 
 209              		.loc 1 9 80 is_stmt 0 view .LVU37
 210 0000 0020     		movs	r0, #0
 211              	.LVL15:
   9:Device/Dev_BrushMoto.c **** 
 212              		.loc 1 9 80 view .LVU38
 213 0002 7047     		bx	lr
 214              		.cfi_endproc
 215              	.LFE3:
 217              		.section	.text.DevBrushMoto_Init,"ax",%progbits
 218              		.align	1
 219              		.syntax unified
 220              		.thumb
 221              		.thumb_func
 223              	DevBrushMoto_Init:
 224              	.LVL16:
 225              	.LFB4:
ARM GAS  C:\Users\8bit\AppData\Local\Temp\ccZKwwLX.s 			page 6


  23:Device/Dev_BrushMoto.c ****     uint32_t tmr_clk = 0;
 226              		.loc 1 23 1 is_stmt 1 view -0
 227              		.cfi_startproc
 228              		@ args = 0, pretend = 0, frame = 0
 229              		@ frame_needed = 0, uses_anonymous_args = 0
  24:Device/Dev_BrushMoto.c ****     uint32_t prescaler = 0;
 230              		.loc 1 24 5 view .LVU40
  25:Device/Dev_BrushMoto.c ****     uint32_t autoreload = 0;
 231              		.loc 1 25 5 view .LVU41
  26:Device/Dev_BrushMoto.c **** 
 232              		.loc 1 26 5 view .LVU42
  28:Device/Dev_BrushMoto.c ****         (timer_ins == NULL))
 233              		.loc 1 28 5 view .LVU43
  28:Device/Dev_BrushMoto.c ****         (timer_ins == NULL))
 234              		.loc 1 28 8 is_stmt 0 view .LVU44
 235 0000 C8B1     		cbz	r0, .L21
  23:Device/Dev_BrushMoto.c ****     uint32_t tmr_clk = 0;
 236              		.loc 1 23 1 discriminator 1 view .LVU45
 237 0002 F0B5     		push	{r4, r5, r6, r7, lr}
 238              	.LCFI5:
 239              		.cfi_def_cfa_offset 20
 240              		.cfi_offset 4, -20
 241              		.cfi_offset 5, -16
 242              		.cfi_offset 6, -12
 243              		.cfi_offset 7, -8
 244              		.cfi_offset 14, -4
 245 0004 83B0     		sub	sp, sp, #12
 246              	.LCFI6:
 247              		.cfi_def_cfa_offset 32
 248 0006 0C46     		mov	r4, r1
 249 0008 1646     		mov	r6, r2
 250 000a 1D46     		mov	r5, r3
 251 000c 0746     		mov	r7, r0
  28:Device/Dev_BrushMoto.c ****         (timer_ins == NULL))
 252              		.loc 1 28 23 discriminator 1 view .LVU46
 253 000e A1B1     		cbz	r1, .L22
  32:Device/Dev_BrushMoto.c ****     if (tmr_clk == 0)
 254              		.loc 1 32 5 is_stmt 1 view .LVU47
  32:Device/Dev_BrushMoto.c ****     if (tmr_clk == 0)
 255              		.loc 1 32 15 is_stmt 0 view .LVU48
 256 0010 FFF7FEFF 		bl	Brush_Get_Timer_CLKFreq
 257              	.LVL17:
  33:Device/Dev_BrushMoto.c ****         return false;
 258              		.loc 1 33 5 is_stmt 1 view .LVU49
  33:Device/Dev_BrushMoto.c ****         return false;
 259              		.loc 1 33 8 is_stmt 0 view .LVU50
 260 0014 10B9     		cbnz	r0, .L28
  34:Device/Dev_BrushMoto.c **** 
 261              		.loc 1 34 16 view .LVU51
 262 0016 0020     		movs	r0, #0
 263              	.LVL18:
 264              	.L20:
  40:Device/Dev_BrushMoto.c **** 
 265              		.loc 1 40 1 view .LVU52
 266 0018 03B0     		add	sp, sp, #12
 267              	.LCFI7:
 268              		.cfi_remember_state
ARM GAS  C:\Users\8bit\AppData\Local\Temp\ccZKwwLX.s 			page 7


 269              		.cfi_def_cfa_offset 20
 270              		@ sp needed
 271 001a F0BD     		pop	{r4, r5, r6, r7, pc}
 272              	.LVL19:
 273              	.L28:
 274              	.LCFI8:
 275              		.cfi_restore_state
  36:Device/Dev_BrushMoto.c ****     autoreload = BRUSH_TMR_PERIOD;
 276              		.loc 1 36 5 is_stmt 1 view .LVU53
  36:Device/Dev_BrushMoto.c ****     autoreload = BRUSH_TMR_PERIOD;
 277              		.loc 1 36 15 is_stmt 0 view .LVU54
 278 001c 084B     		ldr	r3, .L29
 279 001e A3FB0031 		umull	r3, r1, r3, r0
 280              	.LVL20:
  37:Device/Dev_BrushMoto.c **** 
 281              		.loc 1 37 5 is_stmt 1 view .LVU55
  39:Device/Dev_BrushMoto.c **** }
 282              		.loc 1 39 5 view .LVU56
  39:Device/Dev_BrushMoto.c **** }
 283              		.loc 1 39 12 is_stmt 0 view .LVU57
 284 0022 0195     		str	r5, [sp, #4]
 285 0024 0096     		str	r6, [sp]
 286 0026 2346     		mov	r3, r4
 287 0028 4FF47A72 		mov	r2, #1000
 288 002c 890C     		lsrs	r1, r1, #18
 289              	.LVL21:
  39:Device/Dev_BrushMoto.c **** }
 290              		.loc 1 39 12 view .LVU58
 291 002e 3846     		mov	r0, r7
 292              	.LVL22:
  39:Device/Dev_BrushMoto.c **** }
 293              		.loc 1 39 12 view .LVU59
 294 0030 FFF7FEFF 		bl	Brush_Port_Init
 295              	.LVL23:
  39:Device/Dev_BrushMoto.c **** }
 296              		.loc 1 39 12 view .LVU60
 297 0034 F0E7     		b	.L20
 298              	.LVL24:
 299              	.L21:
 300              	.LCFI9:
 301              		.cfi_def_cfa_offset 0
 302              		.cfi_restore 4
 303              		.cfi_restore 5
 304              		.cfi_restore 6
 305              		.cfi_restore 7
 306              		.cfi_restore 14
  30:Device/Dev_BrushMoto.c **** 
 307              		.loc 1 30 16 view .LVU61
 308 0036 0020     		movs	r0, #0
 309              	.LVL25:
  40:Device/Dev_BrushMoto.c **** 
 310              		.loc 1 40 1 view .LVU62
 311 0038 7047     		bx	lr
 312              	.LVL26:
 313              	.L22:
 314              	.LCFI10:
 315              		.cfi_def_cfa_offset 32
ARM GAS  C:\Users\8bit\AppData\Local\Temp\ccZKwwLX.s 			page 8


 316              		.cfi_offset 4, -20
 317              		.cfi_offset 5, -16
 318              		.cfi_offset 6, -12
 319              		.cfi_offset 7, -8
 320              		.cfi_offset 14, -4
  30:Device/Dev_BrushMoto.c **** 
 321              		.loc 1 30 16 view .LVU63
 322 003a 0020     		movs	r0, #0
 323              	.LVL27:
  30:Device/Dev_BrushMoto.c **** 
 324              		.loc 1 30 16 view .LVU64
 325 003c ECE7     		b	.L20
 326              	.L30:
 327 003e 00BF     		.align	2
 328              	.L29:
 329 0040 83DE1B43 		.word	1125899907
 330              		.cfi_endproc
 331              	.LFE4:
 333              		.global	DevBrushMoto
 334              		.section	.data.DevBrushMoto,"aw"
 335              		.align	2
 338              	DevBrushMoto:
 339 0000 00000000 		.word	DevBrushMoto_Init
 340 0004 00000000 		.word	DevBrushMoto_Deinit
 341 0008 00000000 		.word	DevBrushMoto_Control
 342              		.text
 343              	.Letext0:
 344              		.file 2 "c:\\program files (x86)\\gnu arm embedded toolchain\\10 2021.10\\arm-none-eabi\\include\\
 345              		.file 3 "c:\\program files (x86)\\gnu arm embedded toolchain\\10 2021.10\\arm-none-eabi\\include\\
 346              		.file 4 "Device/Dev_BrushMoto.h"
ARM GAS  C:\Users\8bit\AppData\Local\Temp\ccZKwwLX.s 			page 9

