ARM GAS  C:\Users\8bit\AppData\Local\Temp\ccsC5s0r.s 			page 1


   1              		.cpu cortex-m4
   2              		.arch armv7e-m
   3              		.fpu fpv4-sp-d16
   4              		.eabi_attribute 27, 1
   5              		.eabi_attribute 28, 1
   6              		.eabi_attribute 20, 1
   7              		.eabi_attribute 21, 1
   8              		.eabi_attribute 23, 3
   9              		.eabi_attribute 24, 1
  10              		.eabi_attribute 25, 1
  11              		.eabi_attribute 26, 1
  12              		.eabi_attribute 30, 1
  13              		.eabi_attribute 34, 1
  14              		.eabi_attribute 18, 4
  15              		.file	"Dev_Flow_3901U.c"
  16              		.text
  17              	.Ltext0:
  18              		.cfi_sections	.debug_frame
  19              		.section	.text.DevFlow3901_Init,"ax",%progbits
  20              		.align	1
  21              		.syntax unified
  22              		.thumb
  23              		.thumb_func
  25              	DevFlow3901_Init:
  26              	.LVL0:
  27              	.LFB0:
  28              		.file 1 "Device/Dev_Flow_3901U.c"
   1:Device/Dev_Flow_3901U.c **** #include "Dev_Flow_3901U.h"
   2:Device/Dev_Flow_3901U.c **** 
   3:Device/Dev_Flow_3901U.c **** /* noticed: sensor max update frequence is about 66Hz */
   4:Device/Dev_Flow_3901U.c **** 
   5:Device/Dev_Flow_3901U.c **** #define FLOW3901U_Frame_Header      0xFE
   6:Device/Dev_Flow_3901U.c **** #define FLOW3901U_Payload_Size      0x04
   7:Device/Dev_Flow_3901U.c **** #define FLOW3901U_General_Ender     0xAA
   8:Device/Dev_Flow_3901U.c **** #define FLOW3901U_YawMode_Ender     0xBB
   9:Device/Dev_Flow_3901U.c **** #define FLOW3901U_Frame_Size        sizeof(Dev3901U_Frame_TypeDef)
  10:Device/Dev_Flow_3901U.c **** 
  11:Device/Dev_Flow_3901U.c **** #define FLOW3901U_Max_UpdateFreq    66
  12:Device/Dev_Flow_3901U.c **** 
  13:Device/Dev_Flow_3901U.c **** typedef struct
  14:Device/Dev_Flow_3901U.c **** {
  15:Device/Dev_Flow_3901U.c ****     uint8_t header;
  16:Device/Dev_Flow_3901U.c ****     uint8_t byte;
  17:Device/Dev_Flow_3901U.c ****     uint8_t data[4];
  18:Device/Dev_Flow_3901U.c ****     uint8_t check_sum;
  19:Device/Dev_Flow_3901U.c ****     uint8_t env_quality;
  20:Device/Dev_Flow_3901U.c ****     uint8_t ender;
  21:Device/Dev_Flow_3901U.c **** } Dev3901U_Frame_TypeDef;
  22:Device/Dev_Flow_3901U.c **** 
  23:Device/Dev_Flow_3901U.c **** /* internal function */
  24:Device/Dev_Flow_3901U.c **** static uint8_t DevFlow3901U_GetCheckSum(uint8_t *p_data);
  25:Device/Dev_Flow_3901U.c **** 
  26:Device/Dev_Flow_3901U.c **** /* external function */
  27:Device/Dev_Flow_3901U.c **** static uint8_t DevFlow3901_Init(DevFlow3901Obj_TypeDef *obj);
  28:Device/Dev_Flow_3901U.c **** static void DevFLow3901U_Decode_Callback(DevFlow3901Obj_TypeDef *obj, uint8_t *p_buf, uint16_t len)
  29:Device/Dev_Flow_3901U.c **** static void DevFlow3901U_GetData(DevFlow3901Obj_TypeDef *obj, uint32_t *time, int16_t *x, int16_t *
  30:Device/Dev_Flow_3901U.c **** 
ARM GAS  C:\Users\8bit\AppData\Local\Temp\ccsC5s0r.s 			page 2


  31:Device/Dev_Flow_3901U.c **** DevFlow3901_TypeDef DevFlow3901 = {
  32:Device/Dev_Flow_3901U.c ****     .init = DevFlow3901_Init,
  33:Device/Dev_Flow_3901U.c ****     .recv = DevFLow3901U_Decode_Callback,
  34:Device/Dev_Flow_3901U.c ****     .get  = DevFlow3901U_GetData,
  35:Device/Dev_Flow_3901U.c ****     .yaw_mode = NULL,
  36:Device/Dev_Flow_3901U.c **** };
  37:Device/Dev_Flow_3901U.c **** 
  38:Device/Dev_Flow_3901U.c **** /* return update frequence */
  39:Device/Dev_Flow_3901U.c **** static uint8_t DevFlow3901_Init(DevFlow3901Obj_TypeDef *obj)
  40:Device/Dev_Flow_3901U.c **** {
  29              		.loc 1 40 1 view -0
  30              		.cfi_startproc
  31              		@ args = 0, pretend = 0, frame = 0
  32              		@ frame_needed = 0, uses_anonymous_args = 0
  41:Device/Dev_Flow_3901U.c ****     if (obj && obj->get_sys_time)
  33              		.loc 1 41 5 view .LVU1
  34              		.loc 1 41 8 is_stmt 0 view .LVU2
  35 0000 A8B1     		cbz	r0, .L4
  40:Device/Dev_Flow_3901U.c ****     if (obj && obj->get_sys_time)
  36              		.loc 1 40 1 discriminator 1 view .LVU3
  37 0002 08B5     		push	{r3, lr}
  38              	.LCFI0:
  39              		.cfi_def_cfa_offset 8
  40              		.cfi_offset 3, -8
  41              		.cfi_offset 14, -4
  42              		.loc 1 41 19 discriminator 1 view .LVU4
  43 0004 426A     		ldr	r2, [r0, #36]
  44              		.loc 1 41 13 discriminator 1 view .LVU5
  45 0006 0AB9     		cbnz	r2, .L10
  42:Device/Dev_Flow_3901U.c ****     {
  43:Device/Dev_Flow_3901U.c ****         obj->init = true;
  44:Device/Dev_Flow_3901U.c ****         obj->time_stamp = 0;
  45:Device/Dev_Flow_3901U.c ****         obj->dis_x = 0;
  46:Device/Dev_Flow_3901U.c ****         obj->dis_y = 0;
  47:Device/Dev_Flow_3901U.c **** 
  48:Device/Dev_Flow_3901U.c ****         obj->recv_cnt = 0;
  49:Device/Dev_Flow_3901U.c ****         obj->recv_byte = 0;
  50:Device/Dev_Flow_3901U.c **** 
  51:Device/Dev_Flow_3901U.c ****         obj->decode_s = 0;
  52:Device/Dev_Flow_3901U.c ****         obj->decode_f = 0;
  53:Device/Dev_Flow_3901U.c **** 
  54:Device/Dev_Flow_3901U.c ****         obj->yaw_mode_state = true;
  55:Device/Dev_Flow_3901U.c ****         if (obj->yaw_mode_ctl)
  56:Device/Dev_Flow_3901U.c ****             obj->yaw_mode_ctl(obj->yaw_mode_en);
  57:Device/Dev_Flow_3901U.c **** 
  58:Device/Dev_Flow_3901U.c ****         return FLOW3901U_Max_UpdateFreq;
  59:Device/Dev_Flow_3901U.c ****     }
  60:Device/Dev_Flow_3901U.c **** 
  61:Device/Dev_Flow_3901U.c ****     return 0;
  46              		.loc 1 61 12 view .LVU6
  47 0008 0020     		movs	r0, #0
  48              	.LVL1:
  49              	.L2:
  62:Device/Dev_Flow_3901U.c **** }
  50              		.loc 1 62 1 view .LVU7
  51 000a 08BD     		pop	{r3, pc}
  52              	.LVL2:
ARM GAS  C:\Users\8bit\AppData\Local\Temp\ccsC5s0r.s 			page 3


  53              	.L10:
  43:Device/Dev_Flow_3901U.c ****         obj->time_stamp = 0;
  54              		.loc 1 43 9 is_stmt 1 view .LVU8
  43:Device/Dev_Flow_3901U.c ****         obj->time_stamp = 0;
  55              		.loc 1 43 19 is_stmt 0 view .LVU9
  56 000c 0121     		movs	r1, #1
  57 000e 0170     		strb	r1, [r0]
  44:Device/Dev_Flow_3901U.c ****         obj->dis_x = 0;
  58              		.loc 1 44 9 is_stmt 1 view .LVU10
  44:Device/Dev_Flow_3901U.c ****         obj->dis_x = 0;
  59              		.loc 1 44 25 is_stmt 0 view .LVU11
  60 0010 0022     		movs	r2, #0
  61 0012 4260     		str	r2, [r0, #4]
  45:Device/Dev_Flow_3901U.c ****         obj->dis_y = 0;
  62              		.loc 1 45 9 is_stmt 1 view .LVU12
  45:Device/Dev_Flow_3901U.c ****         obj->dis_y = 0;
  63              		.loc 1 45 20 is_stmt 0 view .LVU13
  64 0014 0281     		strh	r2, [r0, #8]	@ movhi
  46:Device/Dev_Flow_3901U.c **** 
  65              		.loc 1 46 9 is_stmt 1 view .LVU14
  46:Device/Dev_Flow_3901U.c **** 
  66              		.loc 1 46 20 is_stmt 0 view .LVU15
  67 0016 4281     		strh	r2, [r0, #10]	@ movhi
  48:Device/Dev_Flow_3901U.c ****         obj->recv_byte = 0;
  68              		.loc 1 48 9 is_stmt 1 view .LVU16
  48:Device/Dev_Flow_3901U.c ****         obj->recv_byte = 0;
  69              		.loc 1 48 23 is_stmt 0 view .LVU17
  70 0018 0261     		str	r2, [r0, #16]
  49:Device/Dev_Flow_3901U.c **** 
  71              		.loc 1 49 9 is_stmt 1 view .LVU18
  49:Device/Dev_Flow_3901U.c **** 
  72              		.loc 1 49 24 is_stmt 0 view .LVU19
  73 001a 4261     		str	r2, [r0, #20]
  51:Device/Dev_Flow_3901U.c ****         obj->decode_f = 0;
  74              		.loc 1 51 9 is_stmt 1 view .LVU20
  51:Device/Dev_Flow_3901U.c ****         obj->decode_f = 0;
  75              		.loc 1 51 23 is_stmt 0 view .LVU21
  76 001c 8261     		str	r2, [r0, #24]
  52:Device/Dev_Flow_3901U.c **** 
  77              		.loc 1 52 9 is_stmt 1 view .LVU22
  52:Device/Dev_Flow_3901U.c **** 
  78              		.loc 1 52 23 is_stmt 0 view .LVU23
  79 001e C261     		str	r2, [r0, #28]
  54:Device/Dev_Flow_3901U.c ****         if (obj->yaw_mode_ctl)
  80              		.loc 1 54 9 is_stmt 1 view .LVU24
  54:Device/Dev_Flow_3901U.c ****         if (obj->yaw_mode_ctl)
  81              		.loc 1 54 29 is_stmt 0 view .LVU25
  82 0020 8170     		strb	r1, [r0, #2]
  55:Device/Dev_Flow_3901U.c ****             obj->yaw_mode_ctl(obj->yaw_mode_en);
  83              		.loc 1 55 9 is_stmt 1 view .LVU26
  55:Device/Dev_Flow_3901U.c ****             obj->yaw_mode_ctl(obj->yaw_mode_en);
  84              		.loc 1 55 16 is_stmt 0 view .LVU27
  85 0022 826A     		ldr	r2, [r0, #40]
  55:Device/Dev_Flow_3901U.c ****             obj->yaw_mode_ctl(obj->yaw_mode_en);
  86              		.loc 1 55 12 view .LVU28
  87 0024 0AB1     		cbz	r2, .L3
  56:Device/Dev_Flow_3901U.c **** 
ARM GAS  C:\Users\8bit\AppData\Local\Temp\ccsC5s0r.s 			page 4


  88              		.loc 1 56 13 is_stmt 1 view .LVU29
  89 0026 4078     		ldrb	r0, [r0, #1]	@ zero_extendqisi2
  90              	.LVL3:
  56:Device/Dev_Flow_3901U.c **** 
  91              		.loc 1 56 13 is_stmt 0 view .LVU30
  92 0028 9047     		blx	r2
  93              	.LVL4:
  94              	.L3:
  58:Device/Dev_Flow_3901U.c ****     }
  95              		.loc 1 58 9 is_stmt 1 view .LVU31
  58:Device/Dev_Flow_3901U.c ****     }
  96              		.loc 1 58 16 is_stmt 0 view .LVU32
  97 002a 4220     		movs	r0, #66
  98 002c EDE7     		b	.L2
  99              	.LVL5:
 100              	.L4:
 101              	.LCFI1:
 102              		.cfi_def_cfa_offset 0
 103              		.cfi_restore 3
 104              		.cfi_restore 14
  61:Device/Dev_Flow_3901U.c **** }
 105              		.loc 1 61 12 view .LVU33
 106 002e 0020     		movs	r0, #0
 107              	.LVL6:
 108              		.loc 1 62 1 view .LVU34
 109 0030 7047     		bx	lr
 110              		.cfi_endproc
 111              	.LFE0:
 113              		.section	.text.DevFlow3901U_GetData,"ax",%progbits
 114              		.align	1
 115              		.syntax unified
 116              		.thumb
 117              		.thumb_func
 119              	DevFlow3901U_GetData:
 120              	.LVL7:
 121              	.LFB2:
  63:Device/Dev_Flow_3901U.c **** 
  64:Device/Dev_Flow_3901U.c **** static void DevFLow3901U_Decode_Callback(DevFlow3901Obj_TypeDef *obj, uint8_t *p_buf, uint16_t len)
  65:Device/Dev_Flow_3901U.c **** {
  66:Device/Dev_Flow_3901U.c ****     Dev3901U_Frame_TypeDef frame;
  67:Device/Dev_Flow_3901U.c ****     memset(&frame, 0, sizeof(Dev3901U_Frame_TypeDef));
  68:Device/Dev_Flow_3901U.c **** 
  69:Device/Dev_Flow_3901U.c ****     if (obj && obj->init && p_buf && len)
  70:Device/Dev_Flow_3901U.c ****     {
  71:Device/Dev_Flow_3901U.c ****         obj->recv_cnt ++;
  72:Device/Dev_Flow_3901U.c ****         obj->recv_byte += len;
  73:Device/Dev_Flow_3901U.c **** 
  74:Device/Dev_Flow_3901U.c ****         if (len >= FLOW3901U_Frame_Size)
  75:Device/Dev_Flow_3901U.c ****         {
  76:Device/Dev_Flow_3901U.c ****             obj->accessing = false;
  77:Device/Dev_Flow_3901U.c **** 
  78:Device/Dev_Flow_3901U.c ****             /* decode directly */
  79:Device/Dev_Flow_3901U.c ****             memcpy(&frame, p_buf, FLOW3901U_Frame_Size);
  80:Device/Dev_Flow_3901U.c ****         
  81:Device/Dev_Flow_3901U.c ****             if ((frame.header == FLOW3901U_Frame_Header) && \
  82:Device/Dev_Flow_3901U.c ****                 (frame.byte == FLOW3901U_Payload_Size) && \
  83:Device/Dev_Flow_3901U.c ****                 (frame.check_sum == DevFlow3901U_GetCheckSum(frame.data)) && \
ARM GAS  C:\Users\8bit\AppData\Local\Temp\ccsC5s0r.s 			page 5


  84:Device/Dev_Flow_3901U.c ****                 ((frame.ender == FLOW3901U_General_Ender) || \
  85:Device/Dev_Flow_3901U.c ****                  (frame.ender == FLOW3901U_YawMode_Ender)))
  86:Device/Dev_Flow_3901U.c ****             {
  87:Device/Dev_Flow_3901U.c ****                 obj->time_stamp = obj->get_sys_time();
  88:Device/Dev_Flow_3901U.c ****                 obj->dis_x = frame.data[0];
  89:Device/Dev_Flow_3901U.c ****                 obj->dis_x |= frame.data[1] << 8;
  90:Device/Dev_Flow_3901U.c ****                 obj->dis_y = frame.data[2];
  91:Device/Dev_Flow_3901U.c ****                 obj->dis_y |= frame.data[3] << 8;
  92:Device/Dev_Flow_3901U.c ****                 obj->quality = frame.env_quality;
  93:Device/Dev_Flow_3901U.c **** 
  94:Device/Dev_Flow_3901U.c ****                 if (frame.ender == FLOW3901U_YawMode_Ender)
  95:Device/Dev_Flow_3901U.c ****                     obj->yaw_mode_state = true;
  96:Device/Dev_Flow_3901U.c **** 
  97:Device/Dev_Flow_3901U.c ****                 obj->decode_s ++;
  98:Device/Dev_Flow_3901U.c ****             }
  99:Device/Dev_Flow_3901U.c ****         }
 100:Device/Dev_Flow_3901U.c ****         else
 101:Device/Dev_Flow_3901U.c ****             obj->decode_f ++;
 102:Device/Dev_Flow_3901U.c ****     }
 103:Device/Dev_Flow_3901U.c **** }
 104:Device/Dev_Flow_3901U.c **** 
 105:Device/Dev_Flow_3901U.c **** static void DevFlow3901U_GetData(DevFlow3901Obj_TypeDef *obj, uint32_t *time, int16_t *x, int16_t *
 106:Device/Dev_Flow_3901U.c **** {
 122              		.loc 1 106 1 is_stmt 1 view -0
 123              		.cfi_startproc
 124              		@ args = 4, pretend = 0, frame = 0
 125              		@ frame_needed = 0, uses_anonymous_args = 0
 126              		@ link register save eliminated.
 127              		.loc 1 106 1 is_stmt 0 view .LVU36
 128 0000 10B4     		push	{r4}
 129              	.LCFI2:
 130              		.cfi_def_cfa_offset 4
 131              		.cfi_offset 4, -4
 132 0002 019C     		ldr	r4, [sp, #4]
 107:Device/Dev_Flow_3901U.c ****     if (obj && obj->init)
 133              		.loc 1 107 5 is_stmt 1 view .LVU37
 134              		.loc 1 107 8 is_stmt 0 view .LVU38
 135 0004 10B1     		cbz	r0, .L11
 136 0006 8446     		mov	ip, r0
 137              		.loc 1 107 19 discriminator 1 view .LVU39
 138 0008 0078     		ldrb	r0, [r0]	@ zero_extendqisi2
 139              	.LVL8:
 140              		.loc 1 107 13 discriminator 1 view .LVU40
 141 000a 40B9     		cbnz	r0, .L13
 142              	.LVL9:
 143              	.L11:
 108:Device/Dev_Flow_3901U.c ****     {
 109:Device/Dev_Flow_3901U.c **** reupdate_flow_sensor:
 110:Device/Dev_Flow_3901U.c ****         obj->accessing = true;
 111:Device/Dev_Flow_3901U.c ****         if (time)
 112:Device/Dev_Flow_3901U.c ****             *time = obj->time_stamp;
 113:Device/Dev_Flow_3901U.c ****         
 114:Device/Dev_Flow_3901U.c ****         if (x)
 115:Device/Dev_Flow_3901U.c ****             *x = obj->dis_x;
 116:Device/Dev_Flow_3901U.c ****         
 117:Device/Dev_Flow_3901U.c ****         if (y)
 118:Device/Dev_Flow_3901U.c ****             *y = obj->dis_y;
ARM GAS  C:\Users\8bit\AppData\Local\Temp\ccsC5s0r.s 			page 6


 119:Device/Dev_Flow_3901U.c **** 
 120:Device/Dev_Flow_3901U.c ****         if (quality)
 121:Device/Dev_Flow_3901U.c ****             *quality = obj->quality;
 122:Device/Dev_Flow_3901U.c **** 
 123:Device/Dev_Flow_3901U.c ****         /* if its updating in parse process */
 124:Device/Dev_Flow_3901U.c ****         /* re_update flow pos */
 125:Device/Dev_Flow_3901U.c ****         if (!obj->accessing)
 126:Device/Dev_Flow_3901U.c ****             goto reupdate_flow_sensor;
 127:Device/Dev_Flow_3901U.c **** 
 128:Device/Dev_Flow_3901U.c ****         obj->accessing = false;
 129:Device/Dev_Flow_3901U.c ****     }
 130:Device/Dev_Flow_3901U.c **** }
 144              		.loc 1 130 1 view .LVU41
 145 000c 5DF8044B 		ldr	r4, [sp], #4
 146              	.LCFI3:
 147              		.cfi_remember_state
 148              		.cfi_restore 4
 149              		.cfi_def_cfa_offset 0
 150              	.LVL10:
 151              		.loc 1 130 1 view .LVU42
 152 0010 7047     		bx	lr
 153              	.LVL11:
 154              	.L20:
 155              	.LCFI4:
 156              		.cfi_restore_state
 121:Device/Dev_Flow_3901U.c **** 
 157              		.loc 1 121 13 is_stmt 1 view .LVU43
 121:Device/Dev_Flow_3901U.c **** 
 158              		.loc 1 121 27 is_stmt 0 view .LVU44
 159 0012 9CF80C00 		ldrb	r0, [ip, #12]	@ zero_extendqisi2
 121:Device/Dev_Flow_3901U.c **** 
 160              		.loc 1 121 22 view .LVU45
 161 0016 2070     		strb	r0, [r4]
 162              	.L17:
 125:Device/Dev_Flow_3901U.c ****             goto reupdate_flow_sensor;
 163              		.loc 1 125 9 is_stmt 1 view .LVU46
 125:Device/Dev_Flow_3901U.c ****             goto reupdate_flow_sensor;
 164              		.loc 1 125 17 is_stmt 0 view .LVU47
 165 0018 9CF82000 		ldrb	r0, [ip, #32]	@ zero_extendqisi2
 125:Device/Dev_Flow_3901U.c ****             goto reupdate_flow_sensor;
 166              		.loc 1 125 12 view .LVU48
 167 001c 88B9     		cbnz	r0, .L19
 168              	.L13:
 110:Device/Dev_Flow_3901U.c ****         if (time)
 169              		.loc 1 110 9 is_stmt 1 view .LVU49
 110:Device/Dev_Flow_3901U.c ****         if (time)
 170              		.loc 1 110 24 is_stmt 0 view .LVU50
 171 001e 0120     		movs	r0, #1
 172 0020 8CF82000 		strb	r0, [ip, #32]
 111:Device/Dev_Flow_3901U.c ****             *time = obj->time_stamp;
 173              		.loc 1 111 9 is_stmt 1 view .LVU51
 111:Device/Dev_Flow_3901U.c ****             *time = obj->time_stamp;
 174              		.loc 1 111 12 is_stmt 0 view .LVU52
 175 0024 11B1     		cbz	r1, .L14
 112:Device/Dev_Flow_3901U.c ****         
 176              		.loc 1 112 13 is_stmt 1 view .LVU53
 112:Device/Dev_Flow_3901U.c ****         
ARM GAS  C:\Users\8bit\AppData\Local\Temp\ccsC5s0r.s 			page 7


 177              		.loc 1 112 24 is_stmt 0 view .LVU54
 178 0026 DCF80400 		ldr	r0, [ip, #4]
 112:Device/Dev_Flow_3901U.c ****         
 179              		.loc 1 112 19 view .LVU55
 180 002a 0860     		str	r0, [r1]
 181              	.L14:
 114:Device/Dev_Flow_3901U.c ****             *x = obj->dis_x;
 182              		.loc 1 114 9 is_stmt 1 view .LVU56
 114:Device/Dev_Flow_3901U.c ****             *x = obj->dis_x;
 183              		.loc 1 114 12 is_stmt 0 view .LVU57
 184 002c 12B1     		cbz	r2, .L15
 115:Device/Dev_Flow_3901U.c ****         
 185              		.loc 1 115 13 is_stmt 1 view .LVU58
 115:Device/Dev_Flow_3901U.c ****         
 186              		.loc 1 115 21 is_stmt 0 view .LVU59
 187 002e BCF90800 		ldrsh	r0, [ip, #8]
 115:Device/Dev_Flow_3901U.c ****         
 188              		.loc 1 115 16 view .LVU60
 189 0032 1080     		strh	r0, [r2]	@ movhi
 190              	.L15:
 117:Device/Dev_Flow_3901U.c ****             *y = obj->dis_y;
 191              		.loc 1 117 9 is_stmt 1 view .LVU61
 117:Device/Dev_Flow_3901U.c ****             *y = obj->dis_y;
 192              		.loc 1 117 12 is_stmt 0 view .LVU62
 193 0034 13B1     		cbz	r3, .L16
 118:Device/Dev_Flow_3901U.c **** 
 194              		.loc 1 118 13 is_stmt 1 view .LVU63
 118:Device/Dev_Flow_3901U.c **** 
 195              		.loc 1 118 21 is_stmt 0 view .LVU64
 196 0036 BCF90A00 		ldrsh	r0, [ip, #10]
 118:Device/Dev_Flow_3901U.c **** 
 197              		.loc 1 118 16 view .LVU65
 198 003a 1880     		strh	r0, [r3]	@ movhi
 199              	.L16:
 120:Device/Dev_Flow_3901U.c ****             *quality = obj->quality;
 200              		.loc 1 120 9 is_stmt 1 view .LVU66
 120:Device/Dev_Flow_3901U.c ****             *quality = obj->quality;
 201              		.loc 1 120 12 is_stmt 0 view .LVU67
 202 003c 002C     		cmp	r4, #0
 203 003e E8D1     		bne	.L20
 204 0040 EAE7     		b	.L17
 205              	.L19:
 128:Device/Dev_Flow_3901U.c ****     }
 206              		.loc 1 128 9 is_stmt 1 view .LVU68
 128:Device/Dev_Flow_3901U.c ****     }
 207              		.loc 1 128 24 is_stmt 0 view .LVU69
 208 0042 0023     		movs	r3, #0
 209              	.LVL12:
 128:Device/Dev_Flow_3901U.c ****     }
 210              		.loc 1 128 24 view .LVU70
 211 0044 8CF82030 		strb	r3, [ip, #32]
 212              		.loc 1 130 1 view .LVU71
 213 0048 E0E7     		b	.L11
 214              		.cfi_endproc
 215              	.LFE2:
 217              		.section	.text.DevFlow3901U_GetCheckSum,"ax",%progbits
 218              		.align	1
ARM GAS  C:\Users\8bit\AppData\Local\Temp\ccsC5s0r.s 			page 8


 219              		.syntax unified
 220              		.thumb
 221              		.thumb_func
 223              	DevFlow3901U_GetCheckSum:
 224              	.LVL13:
 225              	.LFB3:
 131:Device/Dev_Flow_3901U.c **** 
 132:Device/Dev_Flow_3901U.c **** static uint8_t DevFlow3901U_GetCheckSum(uint8_t *p_data)
 133:Device/Dev_Flow_3901U.c **** {
 226              		.loc 1 133 1 is_stmt 1 view -0
 227              		.cfi_startproc
 228              		@ args = 0, pretend = 0, frame = 0
 229              		@ frame_needed = 0, uses_anonymous_args = 0
 230              		@ link register save eliminated.
 134:Device/Dev_Flow_3901U.c ****     uint8_t check_sum = 0;
 231              		.loc 1 134 5 view .LVU73
 135:Device/Dev_Flow_3901U.c **** 
 136:Device/Dev_Flow_3901U.c ****     if (p_data)
 232              		.loc 1 136 5 view .LVU74
 233              		.loc 1 136 8 is_stmt 0 view .LVU75
 234 0000 0146     		mov	r1, r0
 235 0002 10B1     		cbz	r0, .L26
 236              	.LBB2:
 137:Device/Dev_Flow_3901U.c ****     {
 138:Device/Dev_Flow_3901U.c ****         for (uint8_t i = 0; i < 4; i ++)
 237              		.loc 1 138 22 view .LVU76
 238 0004 0023     		movs	r3, #0
 239              	.LBE2:
 134:Device/Dev_Flow_3901U.c **** 
 240              		.loc 1 134 13 view .LVU77
 241 0006 1846     		mov	r0, r3
 242              	.LVL14:
 134:Device/Dev_Flow_3901U.c **** 
 243              		.loc 1 134 13 view .LVU78
 244 0008 05E0     		b	.L22
 245              	.LVL15:
 246              	.L26:
 134:Device/Dev_Flow_3901U.c **** 
 247              		.loc 1 134 13 view .LVU79
 248 000a 7047     		bx	lr
 249              	.LVL16:
 250              	.L24:
 251              	.LBB3:
 139:Device/Dev_Flow_3901U.c ****             check_sum += p_data[i];
 252              		.loc 1 139 13 is_stmt 1 discriminator 3 view .LVU80
 253              		.loc 1 139 32 is_stmt 0 discriminator 3 view .LVU81
 254 000c CA5C     		ldrb	r2, [r1, r3]	@ zero_extendqisi2
 255              		.loc 1 139 23 discriminator 3 view .LVU82
 256 000e 1044     		add	r0, r0, r2
 257              	.LVL17:
 258              		.loc 1 139 23 discriminator 3 view .LVU83
 259 0010 C0B2     		uxtb	r0, r0
 260              	.LVL18:
 138:Device/Dev_Flow_3901U.c ****             check_sum += p_data[i];
 261              		.loc 1 138 36 is_stmt 1 discriminator 3 view .LVU84
 138:Device/Dev_Flow_3901U.c ****             check_sum += p_data[i];
 262              		.loc 1 138 38 is_stmt 0 discriminator 3 view .LVU85
ARM GAS  C:\Users\8bit\AppData\Local\Temp\ccsC5s0r.s 			page 9


 263 0012 0133     		adds	r3, r3, #1
 264              	.LVL19:
 138:Device/Dev_Flow_3901U.c ****             check_sum += p_data[i];
 265              		.loc 1 138 38 discriminator 3 view .LVU86
 266 0014 DBB2     		uxtb	r3, r3
 267              	.LVL20:
 268              	.L22:
 138:Device/Dev_Flow_3901U.c ****             check_sum += p_data[i];
 269              		.loc 1 138 29 is_stmt 1 discriminator 1 view .LVU87
 138:Device/Dev_Flow_3901U.c ****             check_sum += p_data[i];
 270              		.loc 1 138 9 is_stmt 0 discriminator 1 view .LVU88
 271 0016 032B     		cmp	r3, #3
 272 0018 F8D9     		bls	.L24
 138:Device/Dev_Flow_3901U.c ****             check_sum += p_data[i];
 273              		.loc 1 138 9 discriminator 1 view .LVU89
 274              	.LBE3:
 140:Device/Dev_Flow_3901U.c ****     }
 141:Device/Dev_Flow_3901U.c **** 
 142:Device/Dev_Flow_3901U.c ****     return check_sum;
 275              		.loc 1 142 5 is_stmt 1 view .LVU90
 143:Device/Dev_Flow_3901U.c **** }
 276              		.loc 1 143 1 is_stmt 0 view .LVU91
 277 001a 7047     		bx	lr
 278              		.cfi_endproc
 279              	.LFE3:
 281              		.section	.text.DevFLow3901U_Decode_Callback,"ax",%progbits
 282              		.align	1
 283              		.syntax unified
 284              		.thumb
 285              		.thumb_func
 287              	DevFLow3901U_Decode_Callback:
 288              	.LVL21:
 289              	.LFB1:
  65:Device/Dev_Flow_3901U.c ****     Dev3901U_Frame_TypeDef frame;
 290              		.loc 1 65 1 is_stmt 1 view -0
 291              		.cfi_startproc
 292              		@ args = 0, pretend = 0, frame = 16
 293              		@ frame_needed = 0, uses_anonymous_args = 0
  65:Device/Dev_Flow_3901U.c ****     Dev3901U_Frame_TypeDef frame;
 294              		.loc 1 65 1 is_stmt 0 view .LVU93
 295 0000 30B5     		push	{r4, r5, lr}
 296              	.LCFI5:
 297              		.cfi_def_cfa_offset 12
 298              		.cfi_offset 4, -12
 299              		.cfi_offset 5, -8
 300              		.cfi_offset 14, -4
 301 0002 85B0     		sub	sp, sp, #20
 302              	.LCFI6:
 303              		.cfi_def_cfa_offset 32
  66:Device/Dev_Flow_3901U.c ****     memset(&frame, 0, sizeof(Dev3901U_Frame_TypeDef));
 304              		.loc 1 66 5 is_stmt 1 view .LVU94
  67:Device/Dev_Flow_3901U.c **** 
 305              		.loc 1 67 5 view .LVU95
 306 0004 0023     		movs	r3, #0
 307 0006 0193     		str	r3, [sp, #4]
 308 0008 0293     		str	r3, [sp, #8]
 309 000a 8DF80C30 		strb	r3, [sp, #12]
ARM GAS  C:\Users\8bit\AppData\Local\Temp\ccsC5s0r.s 			page 10


  69:Device/Dev_Flow_3901U.c ****     {
 310              		.loc 1 69 5 view .LVU96
  69:Device/Dev_Flow_3901U.c ****     {
 311              		.loc 1 69 8 is_stmt 0 view .LVU97
 312 000e 0028     		cmp	r0, #0
 313 0010 53D0     		beq	.L27
 314 0012 0C46     		mov	r4, r1
 315 0014 0546     		mov	r5, r0
  69:Device/Dev_Flow_3901U.c ****     {
 316              		.loc 1 69 19 discriminator 1 view .LVU98
 317 0016 0378     		ldrb	r3, [r0]	@ zero_extendqisi2
  69:Device/Dev_Flow_3901U.c ****     {
 318              		.loc 1 69 13 discriminator 1 view .LVU99
 319 0018 002B     		cmp	r3, #0
 320 001a 4ED0     		beq	.L27
  69:Device/Dev_Flow_3901U.c ****     {
 321              		.loc 1 69 26 discriminator 2 view .LVU100
 322 001c 0029     		cmp	r1, #0
 323 001e 4CD0     		beq	.L27
  69:Device/Dev_Flow_3901U.c ****     {
 324              		.loc 1 69 35 discriminator 3 view .LVU101
 325 0020 002A     		cmp	r2, #0
 326 0022 4AD0     		beq	.L27
  71:Device/Dev_Flow_3901U.c ****         obj->recv_byte += len;
 327              		.loc 1 71 9 is_stmt 1 view .LVU102
  71:Device/Dev_Flow_3901U.c ****         obj->recv_byte += len;
 328              		.loc 1 71 12 is_stmt 0 view .LVU103
 329 0024 0369     		ldr	r3, [r0, #16]
  71:Device/Dev_Flow_3901U.c ****         obj->recv_byte += len;
 330              		.loc 1 71 23 view .LVU104
 331 0026 0133     		adds	r3, r3, #1
 332 0028 0361     		str	r3, [r0, #16]
  72:Device/Dev_Flow_3901U.c **** 
 333              		.loc 1 72 9 is_stmt 1 view .LVU105
  72:Device/Dev_Flow_3901U.c **** 
 334              		.loc 1 72 24 is_stmt 0 view .LVU106
 335 002a 4369     		ldr	r3, [r0, #20]
 336 002c 1344     		add	r3, r3, r2
 337 002e 4361     		str	r3, [r0, #20]
  74:Device/Dev_Flow_3901U.c ****         {
 338              		.loc 1 74 9 is_stmt 1 view .LVU107
  74:Device/Dev_Flow_3901U.c ****         {
 339              		.loc 1 74 12 is_stmt 0 view .LVU108
 340 0030 082A     		cmp	r2, #8
 341 0032 3FD9     		bls	.L29
  76:Device/Dev_Flow_3901U.c **** 
 342              		.loc 1 76 13 is_stmt 1 view .LVU109
  76:Device/Dev_Flow_3901U.c **** 
 343              		.loc 1 76 28 is_stmt 0 view .LVU110
 344 0034 0023     		movs	r3, #0
 345 0036 80F82030 		strb	r3, [r0, #32]
  79:Device/Dev_Flow_3901U.c ****         
 346              		.loc 1 79 13 is_stmt 1 view .LVU111
 347 003a 01AB     		add	r3, sp, #4
 348 003c 0868     		ldr	r0, [r1]	@ unaligned
 349              	.LVL22:
  79:Device/Dev_Flow_3901U.c ****         
ARM GAS  C:\Users\8bit\AppData\Local\Temp\ccsC5s0r.s 			page 11


 350              		.loc 1 79 13 is_stmt 0 view .LVU112
 351 003e 4968     		ldr	r1, [r1, #4]	@ unaligned
 352              	.LVL23:
  79:Device/Dev_Flow_3901U.c ****         
 353              		.loc 1 79 13 view .LVU113
 354 0040 03C3     		stmia	r3!, {r0, r1}
 355 0042 227A     		ldrb	r2, [r4, #8]	@ zero_extendqisi2
 356              	.LVL24:
  79:Device/Dev_Flow_3901U.c ****         
 357              		.loc 1 79 13 view .LVU114
 358 0044 1A70     		strb	r2, [r3]
  81:Device/Dev_Flow_3901U.c ****                 (frame.byte == FLOW3901U_Payload_Size) && \
 359              		.loc 1 81 13 is_stmt 1 view .LVU115
  81:Device/Dev_Flow_3901U.c ****                 (frame.byte == FLOW3901U_Payload_Size) && \
 360              		.loc 1 81 23 is_stmt 0 view .LVU116
 361 0046 9DF80430 		ldrb	r3, [sp, #4]	@ zero_extendqisi2
  81:Device/Dev_Flow_3901U.c ****                 (frame.byte == FLOW3901U_Payload_Size) && \
 362              		.loc 1 81 16 view .LVU117
 363 004a FE2B     		cmp	r3, #254
 364 004c 35D1     		bne	.L27
  82:Device/Dev_Flow_3901U.c ****                 (frame.check_sum == DevFlow3901U_GetCheckSum(frame.data)) && \
 365              		.loc 1 82 23 discriminator 1 view .LVU118
 366 004e 9DF80530 		ldrb	r3, [sp, #5]	@ zero_extendqisi2
  81:Device/Dev_Flow_3901U.c ****                 (frame.byte == FLOW3901U_Payload_Size) && \
 367              		.loc 1 81 58 discriminator 1 view .LVU119
 368 0052 042B     		cmp	r3, #4
 369 0054 31D1     		bne	.L27
  83:Device/Dev_Flow_3901U.c ****                 ((frame.ender == FLOW3901U_General_Ender) || \
 370              		.loc 1 83 23 view .LVU120
 371 0056 9DF80A40 		ldrb	r4, [sp, #10]	@ zero_extendqisi2
 372              	.LVL25:
  83:Device/Dev_Flow_3901U.c ****                 ((frame.ender == FLOW3901U_General_Ender) || \
 373              		.loc 1 83 37 view .LVU121
 374 005a 0DF10600 		add	r0, sp, #6
 375 005e FFF7FEFF 		bl	DevFlow3901U_GetCheckSum
 376              	.LVL26:
  82:Device/Dev_Flow_3901U.c ****                 (frame.check_sum == DevFlow3901U_GetCheckSum(frame.data)) && \
 377              		.loc 1 82 56 view .LVU122
 378 0062 8442     		cmp	r4, r0
 379 0064 29D1     		bne	.L27
  84:Device/Dev_Flow_3901U.c ****                  (frame.ender == FLOW3901U_YawMode_Ender)))
 380              		.loc 1 84 24 view .LVU123
 381 0066 9DF80C30 		ldrb	r3, [sp, #12]	@ zero_extendqisi2
  83:Device/Dev_Flow_3901U.c ****                 ((frame.ender == FLOW3901U_General_Ender) || \
 382              		.loc 1 83 75 view .LVU124
 383 006a AA2B     		cmp	r3, #170
 384 006c 01D0     		beq	.L30
  84:Device/Dev_Flow_3901U.c ****                  (frame.ender == FLOW3901U_YawMode_Ender)))
 385              		.loc 1 84 59 view .LVU125
 386 006e BB2B     		cmp	r3, #187
 387 0070 23D1     		bne	.L27
 388              	.L30:
  87:Device/Dev_Flow_3901U.c ****                 obj->dis_x = frame.data[0];
 389              		.loc 1 87 17 is_stmt 1 view .LVU126
  87:Device/Dev_Flow_3901U.c ****                 obj->dis_x = frame.data[0];
 390              		.loc 1 87 38 is_stmt 0 view .LVU127
 391 0072 6B6A     		ldr	r3, [r5, #36]
ARM GAS  C:\Users\8bit\AppData\Local\Temp\ccsC5s0r.s 			page 12


  87:Device/Dev_Flow_3901U.c ****                 obj->dis_x = frame.data[0];
 392              		.loc 1 87 35 view .LVU128
 393 0074 9847     		blx	r3
 394              	.LVL27:
  87:Device/Dev_Flow_3901U.c ****                 obj->dis_x = frame.data[0];
 395              		.loc 1 87 33 view .LVU129
 396 0076 6860     		str	r0, [r5, #4]
  88:Device/Dev_Flow_3901U.c ****                 obj->dis_x |= frame.data[1] << 8;
 397              		.loc 1 88 17 is_stmt 1 view .LVU130
  88:Device/Dev_Flow_3901U.c ****                 obj->dis_x |= frame.data[1] << 8;
 398              		.loc 1 88 40 is_stmt 0 view .LVU131
 399 0078 9DF80630 		ldrb	r3, [sp, #6]	@ zero_extendqisi2
  88:Device/Dev_Flow_3901U.c ****                 obj->dis_x |= frame.data[1] << 8;
 400              		.loc 1 88 28 view .LVU132
 401 007c 2B81     		strh	r3, [r5, #8]	@ movhi
  89:Device/Dev_Flow_3901U.c ****                 obj->dis_y = frame.data[2];
 402              		.loc 1 89 17 is_stmt 1 view .LVU133
  89:Device/Dev_Flow_3901U.c ****                 obj->dis_y = frame.data[2];
 403              		.loc 1 89 41 is_stmt 0 view .LVU134
 404 007e 9DF80720 		ldrb	r2, [sp, #7]	@ zero_extendqisi2
  89:Device/Dev_Flow_3901U.c ****                 obj->dis_y = frame.data[2];
 405              		.loc 1 89 28 view .LVU135
 406 0082 43EA0223 		orr	r3, r3, r2, lsl #8
 407 0086 2B81     		strh	r3, [r5, #8]	@ movhi
  90:Device/Dev_Flow_3901U.c ****                 obj->dis_y |= frame.data[3] << 8;
 408              		.loc 1 90 17 is_stmt 1 view .LVU136
  90:Device/Dev_Flow_3901U.c ****                 obj->dis_y |= frame.data[3] << 8;
 409              		.loc 1 90 40 is_stmt 0 view .LVU137
 410 0088 9DF80830 		ldrb	r3, [sp, #8]	@ zero_extendqisi2
  90:Device/Dev_Flow_3901U.c ****                 obj->dis_y |= frame.data[3] << 8;
 411              		.loc 1 90 28 view .LVU138
 412 008c 6B81     		strh	r3, [r5, #10]	@ movhi
  91:Device/Dev_Flow_3901U.c ****                 obj->quality = frame.env_quality;
 413              		.loc 1 91 17 is_stmt 1 view .LVU139
  91:Device/Dev_Flow_3901U.c ****                 obj->quality = frame.env_quality;
 414              		.loc 1 91 41 is_stmt 0 view .LVU140
 415 008e 9DF80920 		ldrb	r2, [sp, #9]	@ zero_extendqisi2
  91:Device/Dev_Flow_3901U.c ****                 obj->quality = frame.env_quality;
 416              		.loc 1 91 28 view .LVU141
 417 0092 43EA0223 		orr	r3, r3, r2, lsl #8
 418 0096 6B81     		strh	r3, [r5, #10]	@ movhi
  92:Device/Dev_Flow_3901U.c **** 
 419              		.loc 1 92 17 is_stmt 1 view .LVU142
  92:Device/Dev_Flow_3901U.c **** 
 420              		.loc 1 92 37 is_stmt 0 view .LVU143
 421 0098 9DF80B30 		ldrb	r3, [sp, #11]	@ zero_extendqisi2
  92:Device/Dev_Flow_3901U.c **** 
 422              		.loc 1 92 30 view .LVU144
 423 009c 2B73     		strb	r3, [r5, #12]
  94:Device/Dev_Flow_3901U.c ****                     obj->yaw_mode_state = true;
 424              		.loc 1 94 17 is_stmt 1 view .LVU145
  94:Device/Dev_Flow_3901U.c ****                     obj->yaw_mode_state = true;
 425              		.loc 1 94 26 is_stmt 0 view .LVU146
 426 009e 9DF80C30 		ldrb	r3, [sp, #12]	@ zero_extendqisi2
  94:Device/Dev_Flow_3901U.c ****                     obj->yaw_mode_state = true;
 427              		.loc 1 94 20 view .LVU147
 428 00a2 BB2B     		cmp	r3, #187
ARM GAS  C:\Users\8bit\AppData\Local\Temp\ccsC5s0r.s 			page 13


 429 00a4 03D0     		beq	.L33
 430              	.L31:
  97:Device/Dev_Flow_3901U.c ****             }
 431              		.loc 1 97 17 is_stmt 1 view .LVU148
  97:Device/Dev_Flow_3901U.c ****             }
 432              		.loc 1 97 20 is_stmt 0 view .LVU149
 433 00a6 AB69     		ldr	r3, [r5, #24]
  97:Device/Dev_Flow_3901U.c ****             }
 434              		.loc 1 97 31 view .LVU150
 435 00a8 0133     		adds	r3, r3, #1
 436 00aa AB61     		str	r3, [r5, #24]
 437 00ac 05E0     		b	.L27
 438              	.L33:
  95:Device/Dev_Flow_3901U.c **** 
 439              		.loc 1 95 21 is_stmt 1 view .LVU151
  95:Device/Dev_Flow_3901U.c **** 
 440              		.loc 1 95 41 is_stmt 0 view .LVU152
 441 00ae 0123     		movs	r3, #1
 442 00b0 AB70     		strb	r3, [r5, #2]
 443 00b2 F8E7     		b	.L31
 444              	.LVL28:
 445              	.L29:
 101:Device/Dev_Flow_3901U.c ****     }
 446              		.loc 1 101 13 is_stmt 1 view .LVU153
 101:Device/Dev_Flow_3901U.c ****     }
 447              		.loc 1 101 16 is_stmt 0 view .LVU154
 448 00b4 C369     		ldr	r3, [r0, #28]
 101:Device/Dev_Flow_3901U.c ****     }
 449              		.loc 1 101 27 view .LVU155
 450 00b6 0133     		adds	r3, r3, #1
 451 00b8 C361     		str	r3, [r0, #28]
 452              	.LVL29:
 453              	.L27:
 103:Device/Dev_Flow_3901U.c **** 
 454              		.loc 1 103 1 view .LVU156
 455 00ba 05B0     		add	sp, sp, #20
 456              	.LCFI7:
 457              		.cfi_def_cfa_offset 12
 458              		@ sp needed
 459 00bc 30BD     		pop	{r4, r5, pc}
 460              		.cfi_endproc
 461              	.LFE1:
 463              		.global	DevFlow3901
 464              		.section	.data.DevFlow3901,"aw"
 465              		.align	2
 468              	DevFlow3901:
 469 0000 00000000 		.word	DevFlow3901_Init
 470 0004 00000000 		.word	DevFLow3901U_Decode_Callback
 471 0008 00000000 		.word	DevFlow3901U_GetData
 472 000c 00000000 		.word	0
 473              		.text
 474              	.Letext0:
 475              		.file 2 "c:\\program files (x86)\\gnu arm embedded toolchain\\10 2021.10\\arm-none-eabi\\include\\
 476              		.file 3 "c:\\program files (x86)\\gnu arm embedded toolchain\\10 2021.10\\arm-none-eabi\\include\\
 477              		.file 4 "Device/Dev_Flow_3901U.h"
ARM GAS  C:\Users\8bit\AppData\Local\Temp\ccsC5s0r.s 			page 14

