ARM GAS  C:\Users\8bit\AppData\Local\Temp\cc7ydeXi.s 			page 1


   1              		.cpu cortex-m4
   2              		.arch armv7e-m
   3              		.fpu fpv4-sp-d16
   4              		.eabi_attribute 27, 1
   5              		.eabi_attribute 28, 1
   6              		.eabi_attribute 20, 1
   7              		.eabi_attribute 21, 1
   8              		.eabi_attribute 23, 3
   9              		.eabi_attribute 24, 1
  10              		.eabi_attribute 25, 1
  11              		.eabi_attribute 26, 1
  12              		.eabi_attribute 30, 1
  13              		.eabi_attribute 34, 1
  14              		.eabi_attribute 18, 4
  15              		.file	"Dev_CRSF.c"
  16              		.text
  17              	.Ltext0:
  18              		.cfi_sections	.debug_frame
  19              		.section	.text.crsf_crc8,"ax",%progbits
  20              		.align	1
  21              		.syntax unified
  22              		.thumb
  23              		.thumb_func
  25              	crsf_crc8:
  26              	.LVL0:
  27              	.LFB0:
  28              		.file 1 "Device/Dev_CRSF.c"
   1:Device/Dev_CRSF.c **** #include "Dev_CRSF.h"
   2:Device/Dev_CRSF.c **** 
   3:Device/Dev_CRSF.c **** /*
   4:Device/Dev_CRSF.c ****  * CRSF protocol
   5:Device/Dev_CRSF.c ****  *
   6:Device/Dev_CRSF.c ****  * CRSF protocol uses a single wire half duplex uart connection.
   7:Device/Dev_CRSF.c ****  * The master sends one frame every 4ms and the slave replies between two frames from the master.
   8:Device/Dev_CRSF.c ****  *
   9:Device/Dev_CRSF.c ****  * 420000 baud
  10:Device/Dev_CRSF.c ****  * not inverted
  11:Device/Dev_CRSF.c ****  * 8 Bit
  12:Device/Dev_CRSF.c ****  * 1 Stop bit
  13:Device/Dev_CRSF.c ****  * Big endian
  14:Device/Dev_CRSF.c ****  * 420000 bit/s = 46667 byte/s (including stop bit) = 21.43us per byte
  15:Device/Dev_CRSF.c ****  * Max frame size is 64 bytes
  16:Device/Dev_CRSF.c ****  * A 64 byte frame plus 1 sync byte can be transmitted in 1393 microseconds.
  17:Device/Dev_CRSF.c ****  *
  18:Device/Dev_CRSF.c ****  * CRSF_TIME_NEEDED_PER_FRAME_US is set conservatively at 1500 microseconds
  19:Device/Dev_CRSF.c ****  *
  20:Device/Dev_CRSF.c ****  * Every frame has the structure:
  21:Device/Dev_CRSF.c ****  * <Device address><Frame length><Type><Payload><CRC>
  22:Device/Dev_CRSF.c ****  *
  23:Device/Dev_CRSF.c ****  * Device address: (uint8_t)
  24:Device/Dev_CRSF.c ****  * Frame length:   length in  bytes including Type (uint8_t)
  25:Device/Dev_CRSF.c ****  * Type:           (uint8_t)
  26:Device/Dev_CRSF.c ****  * Payload:        (uint8_t)
  27:Device/Dev_CRSF.c ****  * CRC:            (uint8_t)
  28:Device/Dev_CRSF.c ****  *
  29:Device/Dev_CRSF.c ****  */
  30:Device/Dev_CRSF.c **** 
ARM GAS  C:\Users\8bit\AppData\Local\Temp\cc7ydeXi.s 			page 2


  31:Device/Dev_CRSF.c **** #define Debug_Pin_En 0
  32:Device/Dev_CRSF.c **** 
  33:Device/Dev_CRSF.c **** static bool DevCrsf_Init(DevCRSFObj_TypeDef *obj);
  34:Device/Dev_CRSF.c **** static uint8_t DevCRSF_Decode(DevCRSFObj_TypeDef *obj);
  35:Device/Dev_CRSF.c **** static void DevCRSF_Get_Channel(DevCRSFObj_TypeDef *obj, uint16_t *ch_in);
  36:Device/Dev_CRSF.c **** static crsf_LinkStatistics_t DevCESF_Get_Statistics(DevCRSFObj_TypeDef *obj);
  37:Device/Dev_CRSF.c **** static uint8_t DevCRSF_FIFO_In(DevCRSFObj_TypeDef *obj, uint8_t *p_data, uint16_t arg);
  38:Device/Dev_CRSF.c **** 
  39:Device/Dev_CRSF.c **** DevCRSF_TypeDef DevCRSF = {
  40:Device/Dev_CRSF.c ****     .init = DevCrsf_Init,
  41:Device/Dev_CRSF.c ****     .decode = DevCRSF_FIFO_In,
  42:Device/Dev_CRSF.c ****     .get_channel = DevCRSF_Get_Channel,
  43:Device/Dev_CRSF.c ****     .get_statistics = DevCESF_Get_Statistics,
  44:Device/Dev_CRSF.c **** };
  45:Device/Dev_CRSF.c **** 
  46:Device/Dev_CRSF.c **** static uint8_t crsf_crc8tab[256] = {
  47:Device/Dev_CRSF.c ****     0x00, 0xD5, 0x7F, 0xAA, 0xFE, 0x2B, 0x81, 0x54, 0x29, 0xFC, 0x56, 0x83, 0xD7, 0x02, 0xA8, 0x7D,
  48:Device/Dev_CRSF.c ****     0x52, 0x87, 0x2D, 0xF8, 0xAC, 0x79, 0xD3, 0x06, 0x7B, 0xAE, 0x04, 0xD1, 0x85, 0x50, 0xFA, 0x2F,
  49:Device/Dev_CRSF.c ****     0xA4, 0x71, 0xDB, 0x0E, 0x5A, 0x8F, 0x25, 0xF0, 0x8D, 0x58, 0xF2, 0x27, 0x73, 0xA6, 0x0C, 0xD9,
  50:Device/Dev_CRSF.c ****     0xF6, 0x23, 0x89, 0x5C, 0x08, 0xDD, 0x77, 0xA2, 0xDF, 0x0A, 0xA0, 0x75, 0x21, 0xF4, 0x5E, 0x8B,
  51:Device/Dev_CRSF.c ****     0x9D, 0x48, 0xE2, 0x37, 0x63, 0xB6, 0x1C, 0xC9, 0xB4, 0x61, 0xCB, 0x1E, 0x4A, 0x9F, 0x35, 0xE0,
  52:Device/Dev_CRSF.c ****     0xCF, 0x1A, 0xB0, 0x65, 0x31, 0xE4, 0x4E, 0x9B, 0xE6, 0x33, 0x99, 0x4C, 0x18, 0xCD, 0x67, 0xB2,
  53:Device/Dev_CRSF.c ****     0x39, 0xEC, 0x46, 0x93, 0xC7, 0x12, 0xB8, 0x6D, 0x10, 0xC5, 0x6F, 0xBA, 0xEE, 0x3B, 0x91, 0x44,
  54:Device/Dev_CRSF.c ****     0x6B, 0xBE, 0x14, 0xC1, 0x95, 0x40, 0xEA, 0x3F, 0x42, 0x97, 0x3D, 0xE8, 0xBC, 0x69, 0xC3, 0x16,
  55:Device/Dev_CRSF.c ****     0xEF, 0x3A, 0x90, 0x45, 0x11, 0xC4, 0x6E, 0xBB, 0xC6, 0x13, 0xB9, 0x6C, 0x38, 0xED, 0x47, 0x92,
  56:Device/Dev_CRSF.c ****     0xBD, 0x68, 0xC2, 0x17, 0x43, 0x96, 0x3C, 0xE9, 0x94, 0x41, 0xEB, 0x3E, 0x6A, 0xBF, 0x15, 0xC0,
  57:Device/Dev_CRSF.c ****     0x4B, 0x9E, 0x34, 0xE1, 0xB5, 0x60, 0xCA, 0x1F, 0x62, 0xB7, 0x1D, 0xC8, 0x9C, 0x49, 0xE3, 0x36,
  58:Device/Dev_CRSF.c ****     0x19, 0xCC, 0x66, 0xB3, 0xE7, 0x32, 0x98, 0x4D, 0x30, 0xE5, 0x4F, 0x9A, 0xCE, 0x1B, 0xB1, 0x64,
  59:Device/Dev_CRSF.c ****     0x72, 0xA7, 0x0D, 0xD8, 0x8C, 0x59, 0xF3, 0x26, 0x5B, 0x8E, 0x24, 0xF1, 0xA5, 0x70, 0xDA, 0x0F,
  60:Device/Dev_CRSF.c ****     0x20, 0xF5, 0x5F, 0x8A, 0xDE, 0x0B, 0xA1, 0x74, 0x09, 0xDC, 0x76, 0xA3, 0xF7, 0x22, 0x88, 0x5D,
  61:Device/Dev_CRSF.c ****     0xD6, 0x03, 0xA9, 0x7C, 0x28, 0xFD, 0x57, 0x82, 0xFF, 0x2A, 0x80, 0x55, 0x01, 0xD4, 0x7E, 0xAB,
  62:Device/Dev_CRSF.c ****     0x84, 0x51, 0xFB, 0x2E, 0x7A, 0xAF, 0x05, 0xD0, 0xAD, 0x78, 0xD2, 0x07, 0x53, 0x86, 0x2C, 0xF9}
  63:Device/Dev_CRSF.c **** 
  64:Device/Dev_CRSF.c **** static uint8_t crsf_crc8(uint8_t *ptr, uint16_t len)
  65:Device/Dev_CRSF.c **** {
  29              		.loc 1 65 1 view -0
  30              		.cfi_startproc
  31              		@ args = 0, pretend = 0, frame = 0
  32              		@ frame_needed = 0, uses_anonymous_args = 0
  33              		@ link register save eliminated.
  34              		.loc 1 65 1 is_stmt 0 view .LVU1
  35 0000 0346     		mov	r3, r0
  66:Device/Dev_CRSF.c ****     uint8_t crc = 0;
  36              		.loc 1 66 5 is_stmt 1 view .LVU2
  37              	.LVL1:
  67:Device/Dev_CRSF.c ****     for (uint8_t i = 0; i < len; i++)
  38              		.loc 1 67 5 view .LVU3
  39              	.LBB2:
  40              		.loc 1 67 10 view .LVU4
  41              		.loc 1 67 18 is_stmt 0 view .LVU5
  42 0002 0022     		movs	r2, #0
  43              	.LBE2:
  66:Device/Dev_CRSF.c ****     uint8_t crc = 0;
  44              		.loc 1 66 13 view .LVU6
  45 0004 1046     		mov	r0, r2
  46              	.LVL2:
  47              	.LBB3:
ARM GAS  C:\Users\8bit\AppData\Local\Temp\cc7ydeXi.s 			page 3


  48              		.loc 1 67 5 view .LVU7
  49 0006 08E0     		b	.L2
  50              	.LVL3:
  51              	.L3:
  68:Device/Dev_CRSF.c ****     {
  69:Device/Dev_CRSF.c ****         crc = crsf_crc8tab[crc ^ *(ptr++)];
  52              		.loc 1 69 9 is_stmt 1 discriminator 3 view .LVU8
  53              		.loc 1 69 34 is_stmt 0 discriminator 3 view .LVU9
  54 0008 13F801CB 		ldrb	ip, [r3], #1	@ zero_extendqisi2
  55              	.LVL4:
  56              		.loc 1 69 32 discriminator 3 view .LVU10
  57 000c 8CEA000C 		eor	ip, ip, r0
  58              		.loc 1 69 13 discriminator 3 view .LVU11
  59 0010 0448     		ldr	r0, .L4
  60              	.LVL5:
  61              		.loc 1 69 13 discriminator 3 view .LVU12
  62 0012 10F80C00 		ldrb	r0, [r0, ip]	@ zero_extendqisi2
  63              	.LVL6:
  67:Device/Dev_CRSF.c ****     for (uint8_t i = 0; i < len; i++)
  64              		.loc 1 67 34 is_stmt 1 discriminator 3 view .LVU13
  67:Device/Dev_CRSF.c ****     for (uint8_t i = 0; i < len; i++)
  65              		.loc 1 67 35 is_stmt 0 discriminator 3 view .LVU14
  66 0016 0132     		adds	r2, r2, #1
  67              	.LVL7:
  67:Device/Dev_CRSF.c ****     for (uint8_t i = 0; i < len; i++)
  68              		.loc 1 67 35 discriminator 3 view .LVU15
  69 0018 D2B2     		uxtb	r2, r2
  70              	.LVL8:
  71              	.L2:
  67:Device/Dev_CRSF.c ****     for (uint8_t i = 0; i < len; i++)
  72              		.loc 1 67 25 is_stmt 1 discriminator 1 view .LVU16
  67:Device/Dev_CRSF.c ****     for (uint8_t i = 0; i < len; i++)
  73              		.loc 1 67 27 is_stmt 0 discriminator 1 view .LVU17
  74 001a 1FFA82FC 		uxth	ip, r2
  67:Device/Dev_CRSF.c ****     for (uint8_t i = 0; i < len; i++)
  75              		.loc 1 67 5 discriminator 1 view .LVU18
  76 001e 8C45     		cmp	ip, r1
  77 0020 F2D3     		bcc	.L3
  67:Device/Dev_CRSF.c ****     for (uint8_t i = 0; i < len; i++)
  78              		.loc 1 67 5 discriminator 1 view .LVU19
  79              	.LBE3:
  70:Device/Dev_CRSF.c ****     }
  71:Device/Dev_CRSF.c ****     return crc;
  80              		.loc 1 71 5 is_stmt 1 view .LVU20
  72:Device/Dev_CRSF.c **** }
  81              		.loc 1 72 1 is_stmt 0 view .LVU21
  82 0022 7047     		bx	lr
  83              	.L5:
  84              		.align	2
  85              	.L4:
  86 0024 00000000 		.word	.LANCHOR0
  87              		.cfi_endproc
  88              	.LFE0:
  90              		.section	.text.DevCESF_Get_Statistics,"ax",%progbits
  91              		.align	1
  92              		.syntax unified
  93              		.thumb
ARM GAS  C:\Users\8bit\AppData\Local\Temp\cc7ydeXi.s 			page 4


  94              		.thumb_func
  96              	DevCESF_Get_Statistics:
  97              	.LVL9:
  98              	.LFB5:
  73:Device/Dev_CRSF.c **** 
  74:Device/Dev_CRSF.c **** static bool DevCrsf_Init(DevCRSFObj_TypeDef *obj)
  75:Device/Dev_CRSF.c **** {
  76:Device/Dev_CRSF.c ****     if (obj == NULL)
  77:Device/Dev_CRSF.c ****         return false;
  78:Device/Dev_CRSF.c **** 
  79:Device/Dev_CRSF.c ****     memset(obj, 0, sizeof(DevCRSFObj_TypeDef));
  80:Device/Dev_CRSF.c **** 
  81:Device/Dev_CRSF.c ****     obj->state = CRSF_State_LinkDown;
  82:Device/Dev_CRSF.c ****     obj->rec_cnt = 0;
  83:Device/Dev_CRSF.c ****     obj->rec_stage = CRSF_Stage_Header;
  84:Device/Dev_CRSF.c **** 
  85:Device/Dev_CRSF.c ****     return true;
  86:Device/Dev_CRSF.c **** }
  87:Device/Dev_CRSF.c **** 
  88:Device/Dev_CRSF.c **** static uint8_t DevCRSF_FIFO_In(DevCRSFObj_TypeDef *obj, uint8_t *p_data, uint16_t arg)
  89:Device/Dev_CRSF.c **** {
  90:Device/Dev_CRSF.c ****     uint8_t decode_state = 0;
  91:Device/Dev_CRSF.c **** 
  92:Device/Dev_CRSF.c ****     if (obj && arg)
  93:Device/Dev_CRSF.c ****     {
  94:Device/Dev_CRSF.c ****         for (uint16_t i = 0; i < arg; i ++)
  95:Device/Dev_CRSF.c ****         {
  96:Device/Dev_CRSF.c ****             switch ((uint8_t)(obj->rec_stage))
  97:Device/Dev_CRSF.c ****             {
  98:Device/Dev_CRSF.c ****             case CRSF_Stage_Header:
  99:Device/Dev_CRSF.c ****                 obj->rec_cnt = 0;
 100:Device/Dev_CRSF.c ****                 if (p_data[i] == CRSF_ADDRESS_FLIGHT_CONTROLLER)
 101:Device/Dev_CRSF.c ****                 {
 102:Device/Dev_CRSF.c ****                     obj->rec_stage = CRSF_Stage_Size;
 103:Device/Dev_CRSF.c ****                     obj->frame.addr = p_data[i];
 104:Device/Dev_CRSF.c ****                     obj->match_header_num ++;
 105:Device/Dev_CRSF.c **** 
 106:Device/Dev_CRSF.c **** #if (Debug_Pin_En == 1)
 107:Device/Dev_CRSF.c ****                     DebugPin.ctl(Debug_PC0, false);
 108:Device/Dev_CRSF.c ****                     DebugPin.ctl(Debug_PC0, true);
 109:Device/Dev_CRSF.c **** #endif
 110:Device/Dev_CRSF.c ****                 }
 111:Device/Dev_CRSF.c ****                 else
 112:Device/Dev_CRSF.c ****                     memset(&obj->frame, 0, sizeof(obj->frame));
 113:Device/Dev_CRSF.c ****                 break;
 114:Device/Dev_CRSF.c **** 
 115:Device/Dev_CRSF.c ****             case CRSF_Stage_Size:
 116:Device/Dev_CRSF.c ****                 obj->rec_cnt = 0;
 117:Device/Dev_CRSF.c ****                 if ((p_data[i] == (CRSF_FRAME_RC_CHANNELS_PAYLOAD_SIZE + CRSF_FRAME_ORIGIN_DEST_SIZ
 118:Device/Dev_CRSF.c ****                     (p_data[i] == CRSF_FRAME_LINK_STATISTICS_PAYLOAD_SIZE + CRSF_FRAME_ORIGIN_DEST_
 119:Device/Dev_CRSF.c ****                 {
 120:Device/Dev_CRSF.c ****                     obj->rec_stage = CRSF_Stage_Payload;
 121:Device/Dev_CRSF.c ****                     obj->frame.length = p_data[i];
 122:Device/Dev_CRSF.c ****                 }
 123:Device/Dev_CRSF.c ****                 else
 124:Device/Dev_CRSF.c ****                 {
 125:Device/Dev_CRSF.c ****                     obj->rec_stage = CRSF_Stage_Header;
ARM GAS  C:\Users\8bit\AppData\Local\Temp\cc7ydeXi.s 			page 5


 126:Device/Dev_CRSF.c ****                     memset(&obj->frame, 0, sizeof(obj->frame));
 127:Device/Dev_CRSF.c ****                 }
 128:Device/Dev_CRSF.c ****                 break;
 129:Device/Dev_CRSF.c **** 
 130:Device/Dev_CRSF.c ****             case CRSF_Stage_Payload:
 131:Device/Dev_CRSF.c ****                 if (obj->frame.length)
 132:Device/Dev_CRSF.c ****                 {
 133:Device/Dev_CRSF.c ****                     if (obj->rec_cnt == 0)
 134:Device/Dev_CRSF.c ****                         obj->frame.type = p_data[i];
 135:Device/Dev_CRSF.c **** 
 136:Device/Dev_CRSF.c ****                     obj->frame.data[obj->rec_cnt] = p_data[i];
 137:Device/Dev_CRSF.c ****                     obj->rec_cnt++;
 138:Device/Dev_CRSF.c ****                     
 139:Device/Dev_CRSF.c ****                     if (obj->rec_cnt == obj->frame.length)
 140:Device/Dev_CRSF.c ****                     {                
 141:Device/Dev_CRSF.c ****                         decode_state = DevCRSF_Decode(obj);
 142:Device/Dev_CRSF.c ****                         obj->rec_stage = CRSF_Stage_Header;
 143:Device/Dev_CRSF.c ****                         obj->rec_cnt = 0;
 144:Device/Dev_CRSF.c ****                         memset(&obj->frame, 0, sizeof(obj->frame));
 145:Device/Dev_CRSF.c ****                         return decode_state;
 146:Device/Dev_CRSF.c ****                     }
 147:Device/Dev_CRSF.c ****                 }
 148:Device/Dev_CRSF.c ****                 else
 149:Device/Dev_CRSF.c ****                 {
 150:Device/Dev_CRSF.c ****                     obj->rec_cnt = 0;
 151:Device/Dev_CRSF.c ****                     memset(&obj->frame, 0, sizeof(obj->frame));
 152:Device/Dev_CRSF.c ****                     obj->rec_stage = CRSF_Stage_Header;
 153:Device/Dev_CRSF.c ****                 }
 154:Device/Dev_CRSF.c ****                 break;
 155:Device/Dev_CRSF.c ****             }
 156:Device/Dev_CRSF.c ****         }
 157:Device/Dev_CRSF.c ****     }
 158:Device/Dev_CRSF.c **** 
 159:Device/Dev_CRSF.c ****     return 0;
 160:Device/Dev_CRSF.c **** }
 161:Device/Dev_CRSF.c **** 
 162:Device/Dev_CRSF.c **** /* serial receiver receive callback */
 163:Device/Dev_CRSF.c **** static uint8_t DevCRSF_Decode(DevCRSFObj_TypeDef *obj)
 164:Device/Dev_CRSF.c **** {
 165:Device/Dev_CRSF.c ****     volatile uint8_t comput_crc = 0;
 166:Device/Dev_CRSF.c ****     volatile uint8_t frame_crc = 0;
 167:Device/Dev_CRSF.c **** 
 168:Device/Dev_CRSF.c ****     if ((obj == NULL) || (obj->rec_cnt == 0) || (obj->frame.length <= 3))
 169:Device/Dev_CRSF.c ****         return CRSF_DECODE_ERROR;
 170:Device/Dev_CRSF.c **** 
 171:Device/Dev_CRSF.c ****     comput_crc = crsf_crc8(obj->frame.data, (obj->frame.length - 1));
 172:Device/Dev_CRSF.c ****     frame_crc = obj->frame.data[obj->frame.length - 1];
 173:Device/Dev_CRSF.c **** 
 174:Device/Dev_CRSF.c ****     /* check crc first */
 175:Device/Dev_CRSF.c ****     if (comput_crc == frame_crc)
 176:Device/Dev_CRSF.c ****     {
 177:Device/Dev_CRSF.c ****         /* check frame type */
 178:Device/Dev_CRSF.c ****         switch (obj->frame.type)
 179:Device/Dev_CRSF.c ****         {
 180:Device/Dev_CRSF.c ****         case CRSF_FRAMETYPE_LINK_STATISTICS:
 181:Device/Dev_CRSF.c ****             if ((CRSF_ADDRESS_FLIGHT_CONTROLLER == obj->frame.addr) && \
 182:Device/Dev_CRSF.c ****                 ((CRSF_FRAME_ORIGIN_DEST_SIZE + CRSF_FRAME_LINK_STATISTICS_PAYLOAD_SIZE) == obj->fr
ARM GAS  C:\Users\8bit\AppData\Local\Temp\cc7ydeXi.s 			page 6


 183:Device/Dev_CRSF.c ****             {                
 184:Device/Dev_CRSF.c ****                 const crsf_LinkStatistics_t *stats = (const crsf_LinkStatistics_t *)&(obj->frame.da
 185:Device/Dev_CRSF.c ****                 memcpy(&obj->statistics, stats, sizeof(crsf_LinkStatistics_t));
 186:Device/Dev_CRSF.c ****                 obj->state = CRSF_State_LinkUp;
 187:Device/Dev_CRSF.c **** 
 188:Device/Dev_CRSF.c ****                 return CRSF_FRAMETYPE_LINK_STATISTICS;
 189:Device/Dev_CRSF.c ****             }
 190:Device/Dev_CRSF.c ****             break;
 191:Device/Dev_CRSF.c **** 
 192:Device/Dev_CRSF.c ****         case CRSF_FRAMETYPE_RC_CHANNELS_PACKED:
 193:Device/Dev_CRSF.c ****             if ((CRSF_ADDRESS_FLIGHT_CONTROLLER == obj->frame.addr) && \
 194:Device/Dev_CRSF.c ****                 ((CRSF_FRAME_ORIGIN_DEST_SIZE + CRSF_FRAME_RC_CHANNELS_PAYLOAD_SIZE) == obj->frame.
 195:Device/Dev_CRSF.c ****             {
 196:Device/Dev_CRSF.c **** #if (Debug_Pin_En == 1)
 197:Device/Dev_CRSF.c ****                 DebugPin.ctl(Debug_PC8, false);
 198:Device/Dev_CRSF.c ****                 DebugPin.ctl(Debug_PC8, true);
 199:Device/Dev_CRSF.c **** #endif
 200:Device/Dev_CRSF.c **** 
 201:Device/Dev_CRSF.c ****                 const crsf_channels_t *channel_val_ptr = (const crsf_channels_t *)(obj->frame.data 
 202:Device/Dev_CRSF.c ****                 obj->channel[0] = channel_val_ptr->ch0;
 203:Device/Dev_CRSF.c ****                 obj->channel[1] = channel_val_ptr->ch1;
 204:Device/Dev_CRSF.c ****                 obj->channel[2] = channel_val_ptr->ch2;
 205:Device/Dev_CRSF.c ****                 obj->channel[3] = channel_val_ptr->ch3;
 206:Device/Dev_CRSF.c ****                 obj->channel[4] = channel_val_ptr->ch4;
 207:Device/Dev_CRSF.c ****                 obj->channel[5] = channel_val_ptr->ch5;
 208:Device/Dev_CRSF.c ****                 obj->channel[6] = channel_val_ptr->ch6;
 209:Device/Dev_CRSF.c ****                 obj->channel[7] = channel_val_ptr->ch7;
 210:Device/Dev_CRSF.c ****                 obj->channel[8] = channel_val_ptr->ch8;
 211:Device/Dev_CRSF.c ****                 obj->channel[9] = channel_val_ptr->ch9;
 212:Device/Dev_CRSF.c ****                 obj->channel[10] = channel_val_ptr->ch10;
 213:Device/Dev_CRSF.c ****                 obj->channel[11] = channel_val_ptr->ch11;
 214:Device/Dev_CRSF.c ****                 obj->channel[12] = channel_val_ptr->ch12;
 215:Device/Dev_CRSF.c ****                 obj->channel[13] = channel_val_ptr->ch13;
 216:Device/Dev_CRSF.c ****                 obj->channel[14] = channel_val_ptr->ch14;
 217:Device/Dev_CRSF.c ****                 obj->channel[15] = channel_val_ptr->ch15;
 218:Device/Dev_CRSF.c **** 
 219:Device/Dev_CRSF.c ****                 if (obj->val_access)
 220:Device/Dev_CRSF.c ****                     obj->val_access = false;
 221:Device/Dev_CRSF.c **** 
 222:Device/Dev_CRSF.c ****                 obj->state = CRSF_State_LinkUp;
 223:Device/Dev_CRSF.c ****                 obj->decode_success_num ++;
 224:Device/Dev_CRSF.c ****                 return CRSF_FRAMETYPE_RC_CHANNELS_PACKED;
 225:Device/Dev_CRSF.c ****             }
 226:Device/Dev_CRSF.c ****             break;
 227:Device/Dev_CRSF.c **** 
 228:Device/Dev_CRSF.c ****         default:
 229:Device/Dev_CRSF.c ****             return CRSF_DECODE_ERROR;
 230:Device/Dev_CRSF.c ****         }
 231:Device/Dev_CRSF.c ****     }
 232:Device/Dev_CRSF.c **** 
 233:Device/Dev_CRSF.c ****     return CRSF_DECODE_ERROR;
 234:Device/Dev_CRSF.c **** }
 235:Device/Dev_CRSF.c **** 
 236:Device/Dev_CRSF.c **** static void DevCRSF_Get_Channel(DevCRSFObj_TypeDef *obj, uint16_t *ch_in)
 237:Device/Dev_CRSF.c **** {
 238:Device/Dev_CRSF.c ****     if (obj && ch_in)
 239:Device/Dev_CRSF.c ****     {
ARM GAS  C:\Users\8bit\AppData\Local\Temp\cc7ydeXi.s 			page 7


 240:Device/Dev_CRSF.c **** re_get_crsf:
 241:Device/Dev_CRSF.c ****         obj->val_access = true;
 242:Device/Dev_CRSF.c ****         
 243:Device/Dev_CRSF.c ****         /* fresh new data */
 244:Device/Dev_CRSF.c ****         memcpy(ch_in, obj->channel, sizeof(obj->channel));
 245:Device/Dev_CRSF.c ****     
 246:Device/Dev_CRSF.c ****         if (!obj->val_access)
 247:Device/Dev_CRSF.c ****             goto re_get_crsf;
 248:Device/Dev_CRSF.c ****     }
 249:Device/Dev_CRSF.c **** }
 250:Device/Dev_CRSF.c **** 
 251:Device/Dev_CRSF.c **** static crsf_LinkStatistics_t DevCESF_Get_Statistics(DevCRSFObj_TypeDef *obj)
 252:Device/Dev_CRSF.c **** {
  99              		.loc 1 252 1 is_stmt 1 view -0
 100              		.cfi_startproc
 101              		@ args = 0, pretend = 0, frame = 16
 102              		@ frame_needed = 0, uses_anonymous_args = 0
 103              		@ link register save eliminated.
 104              		.loc 1 252 1 is_stmt 0 view .LVU23
 105 0000 84B0     		sub	sp, sp, #16
 106              	.LCFI0:
 107              		.cfi_def_cfa_offset 16
 108 0002 0346     		mov	r3, r0
 253:Device/Dev_CRSF.c ****     crsf_LinkStatistics_t statistics;
 109              		.loc 1 253 5 is_stmt 1 view .LVU24
 254:Device/Dev_CRSF.c **** 
 255:Device/Dev_CRSF.c ****     memset(&statistics, 0, sizeof(crsf_LinkStatistics_t));
 110              		.loc 1 255 5 view .LVU25
 111 0004 0022     		movs	r2, #0
 112 0006 0192     		str	r2, [sp, #4]
 113 0008 0292     		str	r2, [sp, #8]
 114 000a ADF80C20 		strh	r2, [sp, #12]	@ movhi
 256:Device/Dev_CRSF.c **** 
 257:Device/Dev_CRSF.c ****     if (obj)
 115              		.loc 1 257 5 view .LVU26
 116              		.loc 1 257 8 is_stmt 0 view .LVU27
 117 000e 49B1     		cbz	r1, .L7
 118 0010 8C46     		mov	ip, r1
 258:Device/Dev_CRSF.c ****         memcpy(&statistics, &obj->statistics, sizeof(crsf_LinkStatistics_t));
 119              		.loc 1 258 9 is_stmt 1 view .LVU28
 120 0012 01AA     		add	r2, sp, #4
 121 0014 D1F84300 		ldr	r0, [r1, #67]	@ unaligned
 122              	.LVL10:
 123              		.loc 1 258 9 is_stmt 0 view .LVU29
 124 0018 D1F84710 		ldr	r1, [r1, #71]	@ unaligned
 125              	.LVL11:
 126              		.loc 1 258 9 view .LVU30
 127 001c 03C2     		stmia	r2!, {r0, r1}
 128 001e BCF84B10 		ldrh	r1, [ip, #75]	@ unaligned
 129 0022 1180     		strh	r1, [r2]	@ unaligned
 130              	.LVL12:
 131              	.L7:
 259:Device/Dev_CRSF.c **** 
 260:Device/Dev_CRSF.c ****     return statistics;
 132              		.loc 1 260 5 is_stmt 1 view .LVU31
 133              		.loc 1 260 12 is_stmt 0 view .LVU32
 134 0024 01AA     		add	r2, sp, #4
ARM GAS  C:\Users\8bit\AppData\Local\Temp\cc7ydeXi.s 			page 8


 135 0026 03CA     		ldmia	r2!, {r0, r1}
 136 0028 1860     		str	r0, [r3]	@ unaligned
 137 002a 5960     		str	r1, [r3, #4]	@ unaligned
 138 002c 1288     		ldrh	r2, [r2]	@ unaligned
 139 002e 1A81     		strh	r2, [r3, #8]	@ unaligned
 261:Device/Dev_CRSF.c **** }
 140              		.loc 1 261 1 view .LVU33
 141 0030 1846     		mov	r0, r3
 142 0032 04B0     		add	sp, sp, #16
 143              	.LCFI1:
 144              		.cfi_def_cfa_offset 0
 145              		@ sp needed
 146 0034 7047     		bx	lr
 147              		.cfi_endproc
 148              	.LFE5:
 150              		.section	.text.DevCrsf_Init,"ax",%progbits
 151              		.align	1
 152              		.syntax unified
 153              		.thumb
 154              		.thumb_func
 156              	DevCrsf_Init:
 157              	.LVL13:
 158              	.LFB1:
  75:Device/Dev_CRSF.c ****     if (obj == NULL)
 159              		.loc 1 75 1 is_stmt 1 view -0
 160              		.cfi_startproc
 161              		@ args = 0, pretend = 0, frame = 0
 162              		@ frame_needed = 0, uses_anonymous_args = 0
  76:Device/Dev_CRSF.c ****         return false;
 163              		.loc 1 76 5 view .LVU35
  76:Device/Dev_CRSF.c ****         return false;
 164              		.loc 1 76 8 is_stmt 0 view .LVU36
 165 0000 48B1     		cbz	r0, .L11
  75:Device/Dev_CRSF.c ****     if (obj == NULL)
 166              		.loc 1 75 1 view .LVU37
 167 0002 10B5     		push	{r4, lr}
 168              	.LCFI2:
 169              		.cfi_def_cfa_offset 8
 170              		.cfi_offset 4, -8
 171              		.cfi_offset 14, -4
 172 0004 0446     		mov	r4, r0
  79:Device/Dev_CRSF.c **** 
 173              		.loc 1 79 5 is_stmt 1 view .LVU38
 174 0006 7C22     		movs	r2, #124
 175 0008 0021     		movs	r1, #0
 176 000a FFF7FEFF 		bl	memset
 177              	.LVL14:
  81:Device/Dev_CRSF.c ****     obj->rec_cnt = 0;
 178              		.loc 1 81 5 view .LVU39
  81:Device/Dev_CRSF.c ****     obj->rec_cnt = 0;
 179              		.loc 1 81 16 is_stmt 0 view .LVU40
 180 000e 0120     		movs	r0, #1
 181 0010 84F84200 		strb	r0, [r4, #66]
  82:Device/Dev_CRSF.c ****     obj->rec_stage = CRSF_Stage_Header;
 182              		.loc 1 82 5 is_stmt 1 view .LVU41
  83:Device/Dev_CRSF.c **** 
 183              		.loc 1 83 5 view .LVU42
ARM GAS  C:\Users\8bit\AppData\Local\Temp\cc7ydeXi.s 			page 9


  85:Device/Dev_CRSF.c **** }
 184              		.loc 1 85 5 view .LVU43
  86:Device/Dev_CRSF.c **** 
 185              		.loc 1 86 1 is_stmt 0 view .LVU44
 186 0014 10BD     		pop	{r4, pc}
 187              	.LVL15:
 188              	.L11:
 189              	.LCFI3:
 190              		.cfi_def_cfa_offset 0
 191              		.cfi_restore 4
 192              		.cfi_restore 14
  77:Device/Dev_CRSF.c **** 
 193              		.loc 1 77 16 view .LVU45
 194 0016 0020     		movs	r0, #0
 195              	.LVL16:
  86:Device/Dev_CRSF.c **** 
 196              		.loc 1 86 1 view .LVU46
 197 0018 7047     		bx	lr
 198              		.cfi_endproc
 199              	.LFE1:
 201              		.section	.text.DevCRSF_Get_Channel,"ax",%progbits
 202              		.align	1
 203              		.syntax unified
 204              		.thumb
 205              		.thumb_func
 207              	DevCRSF_Get_Channel:
 208              	.LVL17:
 209              	.LFB4:
 237:Device/Dev_CRSF.c ****     if (obj && ch_in)
 210              		.loc 1 237 1 is_stmt 1 view -0
 211              		.cfi_startproc
 212              		@ args = 0, pretend = 0, frame = 0
 213              		@ frame_needed = 0, uses_anonymous_args = 0
 238:Device/Dev_CRSF.c ****     {
 214              		.loc 1 238 5 view .LVU48
 238:Device/Dev_CRSF.c ****     {
 215              		.loc 1 238 8 is_stmt 0 view .LVU49
 216 0000 38B3     		cbz	r0, .L20
 217 0002 0346     		mov	r3, r0
 238:Device/Dev_CRSF.c ****     {
 218              		.loc 1 238 13 discriminator 1 view .LVU50
 219 0004 29B3     		cbz	r1, .L20
 237:Device/Dev_CRSF.c ****     if (obj && ch_in)
 220              		.loc 1 237 1 view .LVU51
 221 0006 00B5     		push	{lr}
 222              	.LCFI4:
 223              		.cfi_def_cfa_offset 4
 224              		.cfi_offset 14, -4
 225              	.LVL18:
 226              	.L18:
 241:Device/Dev_CRSF.c ****         
 227              		.loc 1 241 9 is_stmt 1 view .LVU52
 241:Device/Dev_CRSF.c ****         
 228              		.loc 1 241 25 is_stmt 0 view .LVU53
 229 0008 0122     		movs	r2, #1
 230 000a 83F85820 		strb	r2, [r3, #88]
 244:Device/Dev_CRSF.c ****     
ARM GAS  C:\Users\8bit\AppData\Local\Temp\cc7ydeXi.s 			page 10


 231              		.loc 1 244 9 is_stmt 1 view .LVU54
 232 000e D3F85AE0 		ldr	lr, [r3, #90]	@ unaligned
 233 0012 D3F85EC0 		ldr	ip, [r3, #94]	@ unaligned
 234 0016 D3F86200 		ldr	r0, [r3, #98]	@ unaligned
 235 001a D3F86620 		ldr	r2, [r3, #102]	@ unaligned
 236 001e C1F800E0 		str	lr, [r1]	@ unaligned
 237 0022 C1F804C0 		str	ip, [r1, #4]	@ unaligned
 238 0026 8860     		str	r0, [r1, #8]	@ unaligned
 239 0028 CA60     		str	r2, [r1, #12]	@ unaligned
 240 002a D3F86AE0 		ldr	lr, [r3, #106]	@ unaligned
 241 002e D3F86EC0 		ldr	ip, [r3, #110]	@ unaligned
 242 0032 D3F87200 		ldr	r0, [r3, #114]	@ unaligned
 243 0036 D3F87620 		ldr	r2, [r3, #118]	@ unaligned
 244 003a C1F810E0 		str	lr, [r1, #16]	@ unaligned
 245 003e C1F814C0 		str	ip, [r1, #20]	@ unaligned
 246 0042 8861     		str	r0, [r1, #24]	@ unaligned
 247 0044 CA61     		str	r2, [r1, #28]	@ unaligned
 246:Device/Dev_CRSF.c ****             goto re_get_crsf;
 248              		.loc 1 246 9 view .LVU55
 246:Device/Dev_CRSF.c ****             goto re_get_crsf;
 249              		.loc 1 246 17 is_stmt 0 view .LVU56
 250 0046 93F85820 		ldrb	r2, [r3, #88]	@ zero_extendqisi2
 246:Device/Dev_CRSF.c ****             goto re_get_crsf;
 251              		.loc 1 246 12 view .LVU57
 252 004a 002A     		cmp	r2, #0
 253 004c DCD0     		beq	.L18
 249:Device/Dev_CRSF.c **** 
 254              		.loc 1 249 1 view .LVU58
 255 004e 5DF804FB 		ldr	pc, [sp], #4
 256              	.LVL19:
 257              	.L20:
 258              	.LCFI5:
 259              		.cfi_def_cfa_offset 0
 260              		.cfi_restore 14
 249:Device/Dev_CRSF.c **** 
 261              		.loc 1 249 1 view .LVU59
 262 0052 7047     		bx	lr
 263              		.cfi_endproc
 264              	.LFE4:
 266              		.section	.text.DevCRSF_Decode,"ax",%progbits
 267              		.align	1
 268              		.syntax unified
 269              		.thumb
 270              		.thumb_func
 272              	DevCRSF_Decode:
 273              	.LVL20:
 274              	.LFB3:
 164:Device/Dev_CRSF.c ****     volatile uint8_t comput_crc = 0;
 275              		.loc 1 164 1 is_stmt 1 view -0
 276              		.cfi_startproc
 277              		@ args = 0, pretend = 0, frame = 8
 278              		@ frame_needed = 0, uses_anonymous_args = 0
 164:Device/Dev_CRSF.c ****     volatile uint8_t comput_crc = 0;
 279              		.loc 1 164 1 is_stmt 0 view .LVU61
 280 0000 70B5     		push	{r4, r5, r6, lr}
 281              	.LCFI6:
 282              		.cfi_def_cfa_offset 16
ARM GAS  C:\Users\8bit\AppData\Local\Temp\cc7ydeXi.s 			page 11


 283              		.cfi_offset 4, -16
 284              		.cfi_offset 5, -12
 285              		.cfi_offset 6, -8
 286              		.cfi_offset 14, -4
 287 0002 82B0     		sub	sp, sp, #8
 288              	.LCFI7:
 289              		.cfi_def_cfa_offset 24
 165:Device/Dev_CRSF.c ****     volatile uint8_t frame_crc = 0;
 290              		.loc 1 165 5 is_stmt 1 view .LVU62
 165:Device/Dev_CRSF.c ****     volatile uint8_t frame_crc = 0;
 291              		.loc 1 165 22 is_stmt 0 view .LVU63
 292 0004 0023     		movs	r3, #0
 293 0006 8DF80730 		strb	r3, [sp, #7]
 166:Device/Dev_CRSF.c **** 
 294              		.loc 1 166 5 is_stmt 1 view .LVU64
 166:Device/Dev_CRSF.c **** 
 295              		.loc 1 166 22 is_stmt 0 view .LVU65
 296 000a 8DF80630 		strb	r3, [sp, #6]
 168:Device/Dev_CRSF.c ****         return CRSF_DECODE_ERROR;
 297              		.loc 1 168 5 is_stmt 1 view .LVU66
 168:Device/Dev_CRSF.c ****         return CRSF_DECODE_ERROR;
 298              		.loc 1 168 8 is_stmt 0 view .LVU67
 299 000e 0028     		cmp	r0, #0
 300 0010 00F0DA80 		beq	.L27
 301 0014 0446     		mov	r4, r0
 168:Device/Dev_CRSF.c ****         return CRSF_DECODE_ERROR;
 302              		.loc 1 168 30 discriminator 1 view .LVU68
 303 0016 90F84030 		ldrb	r3, [r0, #64]	@ zero_extendqisi2
 168:Device/Dev_CRSF.c ****         return CRSF_DECODE_ERROR;
 304              		.loc 1 168 23 discriminator 1 view .LVU69
 305 001a 002B     		cmp	r3, #0
 306 001c 00F0D680 		beq	.L28
 168:Device/Dev_CRSF.c ****         return CRSF_DECODE_ERROR;
 307              		.loc 1 168 60 discriminator 2 view .LVU70
 308 0020 4578     		ldrb	r5, [r0, #1]	@ zero_extendqisi2
 168:Device/Dev_CRSF.c ****         return CRSF_DECODE_ERROR;
 309              		.loc 1 168 46 discriminator 2 view .LVU71
 310 0022 032D     		cmp	r5, #3
 311 0024 01D8     		bhi	.L34
 169:Device/Dev_CRSF.c **** 
 312              		.loc 1 169 16 view .LVU72
 313 0026 FF20     		movs	r0, #255
 314              	.LVL21:
 169:Device/Dev_CRSF.c **** 
 315              		.loc 1 169 16 view .LVU73
 316 0028 D1E0     		b	.L23
 317              	.LVL22:
 318              	.L34:
 171:Device/Dev_CRSF.c ****     frame_crc = obj->frame.data[obj->frame.length - 1];
 319              		.loc 1 171 5 is_stmt 1 view .LVU74
 171:Device/Dev_CRSF.c ****     frame_crc = obj->frame.data[obj->frame.length - 1];
 320              		.loc 1 171 38 is_stmt 0 view .LVU75
 321 002a C61C     		adds	r6, r0, #3
 171:Device/Dev_CRSF.c ****     frame_crc = obj->frame.data[obj->frame.length - 1];
 322              		.loc 1 171 18 view .LVU76
 323 002c 691E     		subs	r1, r5, #1
 324 002e 89B2     		uxth	r1, r1
ARM GAS  C:\Users\8bit\AppData\Local\Temp\cc7ydeXi.s 			page 12


 325 0030 3046     		mov	r0, r6
 326              	.LVL23:
 171:Device/Dev_CRSF.c ****     frame_crc = obj->frame.data[obj->frame.length - 1];
 327              		.loc 1 171 18 view .LVU77
 328 0032 FFF7FEFF 		bl	crsf_crc8
 329              	.LVL24:
 171:Device/Dev_CRSF.c ****     frame_crc = obj->frame.data[obj->frame.length - 1];
 330              		.loc 1 171 16 view .LVU78
 331 0036 8DF80700 		strb	r0, [sp, #7]
 172:Device/Dev_CRSF.c **** 
 332              		.loc 1 172 5 is_stmt 1 view .LVU79
 172:Device/Dev_CRSF.c **** 
 333              		.loc 1 172 51 is_stmt 0 view .LVU80
 334 003a 013D     		subs	r5, r5, #1
 172:Device/Dev_CRSF.c **** 
 335              		.loc 1 172 32 view .LVU81
 336 003c 2544     		add	r5, r5, r4
 337 003e EB78     		ldrb	r3, [r5, #3]	@ zero_extendqisi2
 172:Device/Dev_CRSF.c **** 
 338              		.loc 1 172 15 view .LVU82
 339 0040 8DF80630 		strb	r3, [sp, #6]
 175:Device/Dev_CRSF.c ****     {
 340              		.loc 1 175 5 is_stmt 1 view .LVU83
 175:Device/Dev_CRSF.c ****     {
 341              		.loc 1 175 20 is_stmt 0 view .LVU84
 342 0044 9DF80720 		ldrb	r2, [sp, #7]	@ zero_extendqisi2
 343 0048 D2B2     		uxtb	r2, r2
 344 004a 9DF80630 		ldrb	r3, [sp, #6]	@ zero_extendqisi2
 345 004e DBB2     		uxtb	r3, r3
 175:Device/Dev_CRSF.c ****     {
 346              		.loc 1 175 8 view .LVU85
 347 0050 9A42     		cmp	r2, r3
 348 0052 01D0     		beq	.L35
 233:Device/Dev_CRSF.c **** }
 349              		.loc 1 233 12 view .LVU86
 350 0054 FF20     		movs	r0, #255
 351 0056 BAE0     		b	.L23
 352              	.L35:
 178:Device/Dev_CRSF.c ****         {
 353              		.loc 1 178 9 is_stmt 1 view .LVU87
 178:Device/Dev_CRSF.c ****         {
 354              		.loc 1 178 27 is_stmt 0 view .LVU88
 355 0058 A078     		ldrb	r0, [r4, #2]	@ zero_extendqisi2
 178:Device/Dev_CRSF.c ****         {
 356              		.loc 1 178 9 view .LVU89
 357 005a 1428     		cmp	r0, #20
 358 005c 03D0     		beq	.L24
 359 005e 1628     		cmp	r0, #22
 360 0060 16D0     		beq	.L25
 361 0062 FF20     		movs	r0, #255
 362 0064 B3E0     		b	.L23
 363              	.L24:
 181:Device/Dev_CRSF.c ****                 ((CRSF_FRAME_ORIGIN_DEST_SIZE + CRSF_FRAME_LINK_STATISTICS_PAYLOAD_SIZE) == obj->fr
 364              		.loc 1 181 13 is_stmt 1 view .LVU90
 181:Device/Dev_CRSF.c ****                 ((CRSF_FRAME_ORIGIN_DEST_SIZE + CRSF_FRAME_LINK_STATISTICS_PAYLOAD_SIZE) == obj->fr
 365              		.loc 1 181 69 is_stmt 0 view .LVU91
 366 0066 2288     		ldrh	r2, [r4]	@ unaligned
ARM GAS  C:\Users\8bit\AppData\Local\Temp\cc7ydeXi.s 			page 13


 181:Device/Dev_CRSF.c ****                 ((CRSF_FRAME_ORIGIN_DEST_SIZE + CRSF_FRAME_LINK_STATISTICS_PAYLOAD_SIZE) == obj->fr
 367              		.loc 1 181 16 view .LVU92
 368 0068 40F6C843 		movw	r3, #3272
 369 006c 9A42     		cmp	r2, r3
 370 006e 01D0     		beq	.L36
 233:Device/Dev_CRSF.c **** }
 371              		.loc 1 233 12 view .LVU93
 372 0070 FF20     		movs	r0, #255
 373 0072 ACE0     		b	.L23
 374              	.L36:
 375              	.LBB4:
 184:Device/Dev_CRSF.c ****                 memcpy(&obj->statistics, stats, sizeof(crsf_LinkStatistics_t));
 376              		.loc 1 184 17 is_stmt 1 view .LVU94
 377              	.LVL25:
 185:Device/Dev_CRSF.c ****                 obj->state = CRSF_State_LinkUp;
 378              		.loc 1 185 17 view .LVU95
 379 0074 D4F80320 		ldr	r2, [r4, #3]	@ unaligned
 380 0078 7368     		ldr	r3, [r6, #4]	@ unaligned
 381 007a C4F84320 		str	r2, [r4, #67]	@ unaligned
 382 007e C4F84730 		str	r3, [r4, #71]	@ unaligned
 383 0082 3389     		ldrh	r3, [r6, #8]	@ unaligned
 384 0084 A4F84B30 		strh	r3, [r4, #75]	@ unaligned
 186:Device/Dev_CRSF.c **** 
 385              		.loc 1 186 17 view .LVU96
 186:Device/Dev_CRSF.c **** 
 386              		.loc 1 186 28 is_stmt 0 view .LVU97
 387 0088 0023     		movs	r3, #0
 388 008a 84F84230 		strb	r3, [r4, #66]
 188:Device/Dev_CRSF.c ****             }
 389              		.loc 1 188 17 is_stmt 1 view .LVU98
 188:Device/Dev_CRSF.c ****             }
 390              		.loc 1 188 24 is_stmt 0 view .LVU99
 391 008e 9EE0     		b	.L23
 392              	.LVL26:
 393              	.L25:
 188:Device/Dev_CRSF.c ****             }
 394              		.loc 1 188 24 view .LVU100
 395              	.LBE4:
 193:Device/Dev_CRSF.c ****                 ((CRSF_FRAME_ORIGIN_DEST_SIZE + CRSF_FRAME_RC_CHANNELS_PAYLOAD_SIZE) == obj->frame.
 396              		.loc 1 193 13 is_stmt 1 view .LVU101
 193:Device/Dev_CRSF.c ****                 ((CRSF_FRAME_ORIGIN_DEST_SIZE + CRSF_FRAME_RC_CHANNELS_PAYLOAD_SIZE) == obj->frame.
 397              		.loc 1 193 69 is_stmt 0 view .LVU102
 398 0090 2288     		ldrh	r2, [r4]	@ unaligned
 193:Device/Dev_CRSF.c ****                 ((CRSF_FRAME_ORIGIN_DEST_SIZE + CRSF_FRAME_RC_CHANNELS_PAYLOAD_SIZE) == obj->frame.
 399              		.loc 1 193 16 view .LVU103
 400 0092 41F6C803 		movw	r3, #6344
 401 0096 9A42     		cmp	r2, r3
 402 0098 01D0     		beq	.L37
 233:Device/Dev_CRSF.c **** }
 403              		.loc 1 233 12 view .LVU104
 404 009a FF20     		movs	r0, #255
 405 009c 97E0     		b	.L23
 406              	.L37:
 407              	.LBB5:
 201:Device/Dev_CRSF.c ****                 obj->channel[0] = channel_val_ptr->ch0;
 408              		.loc 1 201 17 is_stmt 1 view .LVU105
 409              	.LVL27:
ARM GAS  C:\Users\8bit\AppData\Local\Temp\cc7ydeXi.s 			page 14


 202:Device/Dev_CRSF.c ****                 obj->channel[1] = channel_val_ptr->ch1;
 410              		.loc 1 202 17 view .LVU106
 202:Device/Dev_CRSF.c ****                 obj->channel[1] = channel_val_ptr->ch1;
 411              		.loc 1 202 50 is_stmt 0 view .LVU107
 412 009e 2379     		ldrb	r3, [r4, #4]	@ zero_extendqisi2
 413 00a0 6179     		ldrb	r1, [r4, #5]	@ zero_extendqisi2
 414 00a2 01F00702 		and	r2, r1, #7
 415 00a6 43EA0223 		orr	r3, r3, r2, lsl #8
 202:Device/Dev_CRSF.c ****                 obj->channel[1] = channel_val_ptr->ch1;
 416              		.loc 1 202 33 view .LVU108
 417 00aa A4F85A30 		strh	r3, [r4, #90]	@ movhi
 203:Device/Dev_CRSF.c ****                 obj->channel[2] = channel_val_ptr->ch2;
 418              		.loc 1 203 17 is_stmt 1 view .LVU109
 203:Device/Dev_CRSF.c ****                 obj->channel[2] = channel_val_ptr->ch2;
 419              		.loc 1 203 50 is_stmt 0 view .LVU110
 420 00ae A279     		ldrb	r2, [r4, #6]	@ zero_extendqisi2
 421 00b0 02F03F03 		and	r3, r2, #63
 422 00b4 5B01     		lsls	r3, r3, #5
 423 00b6 43EAD103 		orr	r3, r3, r1, lsr #3
 203:Device/Dev_CRSF.c ****                 obj->channel[2] = channel_val_ptr->ch2;
 424              		.loc 1 203 33 view .LVU111
 425 00ba A4F85C30 		strh	r3, [r4, #92]	@ movhi
 204:Device/Dev_CRSF.c ****                 obj->channel[3] = channel_val_ptr->ch3;
 426              		.loc 1 204 17 is_stmt 1 view .LVU112
 204:Device/Dev_CRSF.c ****                 obj->channel[3] = channel_val_ptr->ch3;
 427              		.loc 1 204 50 is_stmt 0 view .LVU113
 428 00be E379     		ldrb	r3, [r4, #7]	@ zero_extendqisi2
 429 00c0 9B00     		lsls	r3, r3, #2
 430 00c2 43EA9213 		orr	r3, r3, r2, lsr #6
 431 00c6 227A     		ldrb	r2, [r4, #8]	@ zero_extendqisi2
 432 00c8 02F00101 		and	r1, r2, #1
 433 00cc 43EA8123 		orr	r3, r3, r1, lsl #10
 204:Device/Dev_CRSF.c ****                 obj->channel[3] = channel_val_ptr->ch3;
 434              		.loc 1 204 33 view .LVU114
 435 00d0 A4F85E30 		strh	r3, [r4, #94]	@ movhi
 205:Device/Dev_CRSF.c ****                 obj->channel[4] = channel_val_ptr->ch4;
 436              		.loc 1 205 17 is_stmt 1 view .LVU115
 205:Device/Dev_CRSF.c ****                 obj->channel[4] = channel_val_ptr->ch4;
 437              		.loc 1 205 50 is_stmt 0 view .LVU116
 438 00d4 617A     		ldrb	r1, [r4, #9]	@ zero_extendqisi2
 439 00d6 01F00F03 		and	r3, r1, #15
 440 00da DB01     		lsls	r3, r3, #7
 441 00dc 43EA5203 		orr	r3, r3, r2, lsr #1
 205:Device/Dev_CRSF.c ****                 obj->channel[4] = channel_val_ptr->ch4;
 442              		.loc 1 205 33 view .LVU117
 443 00e0 A4F86030 		strh	r3, [r4, #96]	@ movhi
 206:Device/Dev_CRSF.c ****                 obj->channel[5] = channel_val_ptr->ch5;
 444              		.loc 1 206 17 is_stmt 1 view .LVU118
 206:Device/Dev_CRSF.c ****                 obj->channel[5] = channel_val_ptr->ch5;
 445              		.loc 1 206 50 is_stmt 0 view .LVU119
 446 00e4 A27A     		ldrb	r2, [r4, #10]	@ zero_extendqisi2
 447 00e6 02F07F03 		and	r3, r2, #127
 448 00ea 1B01     		lsls	r3, r3, #4
 449 00ec 43EA1113 		orr	r3, r3, r1, lsr #4
 206:Device/Dev_CRSF.c ****                 obj->channel[5] = channel_val_ptr->ch5;
 450              		.loc 1 206 33 view .LVU120
 451 00f0 A4F86230 		strh	r3, [r4, #98]	@ movhi
ARM GAS  C:\Users\8bit\AppData\Local\Temp\cc7ydeXi.s 			page 15


 207:Device/Dev_CRSF.c ****                 obj->channel[6] = channel_val_ptr->ch6;
 452              		.loc 1 207 17 is_stmt 1 view .LVU121
 207:Device/Dev_CRSF.c ****                 obj->channel[6] = channel_val_ptr->ch6;
 453              		.loc 1 207 50 is_stmt 0 view .LVU122
 454 00f4 E37A     		ldrb	r3, [r4, #11]	@ zero_extendqisi2
 455 00f6 5B00     		lsls	r3, r3, #1
 456 00f8 43EAD213 		orr	r3, r3, r2, lsr #7
 457 00fc 217B     		ldrb	r1, [r4, #12]	@ zero_extendqisi2
 458 00fe 01F00302 		and	r2, r1, #3
 459 0102 43EA4223 		orr	r3, r3, r2, lsl #9
 207:Device/Dev_CRSF.c ****                 obj->channel[6] = channel_val_ptr->ch6;
 460              		.loc 1 207 33 view .LVU123
 461 0106 A4F86430 		strh	r3, [r4, #100]	@ movhi
 208:Device/Dev_CRSF.c ****                 obj->channel[7] = channel_val_ptr->ch7;
 462              		.loc 1 208 17 is_stmt 1 view .LVU124
 208:Device/Dev_CRSF.c ****                 obj->channel[7] = channel_val_ptr->ch7;
 463              		.loc 1 208 50 is_stmt 0 view .LVU125
 464 010a 627B     		ldrb	r2, [r4, #13]	@ zero_extendqisi2
 465 010c 02F01F03 		and	r3, r2, #31
 466 0110 9B01     		lsls	r3, r3, #6
 467 0112 43EA9103 		orr	r3, r3, r1, lsr #2
 208:Device/Dev_CRSF.c ****                 obj->channel[7] = channel_val_ptr->ch7;
 468              		.loc 1 208 33 view .LVU126
 469 0116 A4F86630 		strh	r3, [r4, #102]	@ movhi
 209:Device/Dev_CRSF.c ****                 obj->channel[8] = channel_val_ptr->ch8;
 470              		.loc 1 209 17 is_stmt 1 view .LVU127
 209:Device/Dev_CRSF.c ****                 obj->channel[8] = channel_val_ptr->ch8;
 471              		.loc 1 209 50 is_stmt 0 view .LVU128
 472 011a A37B     		ldrb	r3, [r4, #14]	@ zero_extendqisi2
 473 011c DB00     		lsls	r3, r3, #3
 474 011e 43EA5213 		orr	r3, r3, r2, lsr #5
 209:Device/Dev_CRSF.c ****                 obj->channel[8] = channel_val_ptr->ch8;
 475              		.loc 1 209 33 view .LVU129
 476 0122 A4F86830 		strh	r3, [r4, #104]	@ movhi
 210:Device/Dev_CRSF.c ****                 obj->channel[9] = channel_val_ptr->ch9;
 477              		.loc 1 210 17 is_stmt 1 view .LVU130
 210:Device/Dev_CRSF.c ****                 obj->channel[9] = channel_val_ptr->ch9;
 478              		.loc 1 210 50 is_stmt 0 view .LVU131
 479 0126 E37B     		ldrb	r3, [r4, #15]	@ zero_extendqisi2
 480 0128 217C     		ldrb	r1, [r4, #16]	@ zero_extendqisi2
 481 012a 01F00702 		and	r2, r1, #7
 482 012e 43EA0223 		orr	r3, r3, r2, lsl #8
 210:Device/Dev_CRSF.c ****                 obj->channel[9] = channel_val_ptr->ch9;
 483              		.loc 1 210 33 view .LVU132
 484 0132 A4F86A30 		strh	r3, [r4, #106]	@ movhi
 211:Device/Dev_CRSF.c ****                 obj->channel[10] = channel_val_ptr->ch10;
 485              		.loc 1 211 17 is_stmt 1 view .LVU133
 211:Device/Dev_CRSF.c ****                 obj->channel[10] = channel_val_ptr->ch10;
 486              		.loc 1 211 50 is_stmt 0 view .LVU134
 487 0136 627C     		ldrb	r2, [r4, #17]	@ zero_extendqisi2
 488 0138 02F03F03 		and	r3, r2, #63
 489 013c 5B01     		lsls	r3, r3, #5
 490 013e 43EAD103 		orr	r3, r3, r1, lsr #3
 211:Device/Dev_CRSF.c ****                 obj->channel[10] = channel_val_ptr->ch10;
 491              		.loc 1 211 33 view .LVU135
 492 0142 A4F86C30 		strh	r3, [r4, #108]	@ movhi
 212:Device/Dev_CRSF.c ****                 obj->channel[11] = channel_val_ptr->ch11;
ARM GAS  C:\Users\8bit\AppData\Local\Temp\cc7ydeXi.s 			page 16


 493              		.loc 1 212 17 is_stmt 1 view .LVU136
 212:Device/Dev_CRSF.c ****                 obj->channel[11] = channel_val_ptr->ch11;
 494              		.loc 1 212 51 is_stmt 0 view .LVU137
 495 0146 A37C     		ldrb	r3, [r4, #18]	@ zero_extendqisi2
 496 0148 9B00     		lsls	r3, r3, #2
 497 014a 43EA9213 		orr	r3, r3, r2, lsr #6
 498 014e E27C     		ldrb	r2, [r4, #19]	@ zero_extendqisi2
 499 0150 02F00101 		and	r1, r2, #1
 500 0154 43EA8123 		orr	r3, r3, r1, lsl #10
 212:Device/Dev_CRSF.c ****                 obj->channel[11] = channel_val_ptr->ch11;
 501              		.loc 1 212 34 view .LVU138
 502 0158 A4F86E30 		strh	r3, [r4, #110]	@ movhi
 213:Device/Dev_CRSF.c ****                 obj->channel[12] = channel_val_ptr->ch12;
 503              		.loc 1 213 17 is_stmt 1 view .LVU139
 213:Device/Dev_CRSF.c ****                 obj->channel[12] = channel_val_ptr->ch12;
 504              		.loc 1 213 51 is_stmt 0 view .LVU140
 505 015c 217D     		ldrb	r1, [r4, #20]	@ zero_extendqisi2
 506 015e 01F00F03 		and	r3, r1, #15
 507 0162 DB01     		lsls	r3, r3, #7
 508 0164 43EA5203 		orr	r3, r3, r2, lsr #1
 213:Device/Dev_CRSF.c ****                 obj->channel[12] = channel_val_ptr->ch12;
 509              		.loc 1 213 34 view .LVU141
 510 0168 A4F87030 		strh	r3, [r4, #112]	@ movhi
 214:Device/Dev_CRSF.c ****                 obj->channel[13] = channel_val_ptr->ch13;
 511              		.loc 1 214 17 is_stmt 1 view .LVU142
 214:Device/Dev_CRSF.c ****                 obj->channel[13] = channel_val_ptr->ch13;
 512              		.loc 1 214 51 is_stmt 0 view .LVU143
 513 016c 627D     		ldrb	r2, [r4, #21]	@ zero_extendqisi2
 514 016e 02F07F03 		and	r3, r2, #127
 515 0172 1B01     		lsls	r3, r3, #4
 516 0174 43EA1113 		orr	r3, r3, r1, lsr #4
 214:Device/Dev_CRSF.c ****                 obj->channel[13] = channel_val_ptr->ch13;
 517              		.loc 1 214 34 view .LVU144
 518 0178 A4F87230 		strh	r3, [r4, #114]	@ movhi
 215:Device/Dev_CRSF.c ****                 obj->channel[14] = channel_val_ptr->ch14;
 519              		.loc 1 215 17 is_stmt 1 view .LVU145
 215:Device/Dev_CRSF.c ****                 obj->channel[14] = channel_val_ptr->ch14;
 520              		.loc 1 215 51 is_stmt 0 view .LVU146
 521 017c A37D     		ldrb	r3, [r4, #22]	@ zero_extendqisi2
 522 017e 5B00     		lsls	r3, r3, #1
 523 0180 43EAD213 		orr	r3, r3, r2, lsr #7
 524 0184 E17D     		ldrb	r1, [r4, #23]	@ zero_extendqisi2
 525 0186 01F00302 		and	r2, r1, #3
 526 018a 43EA4223 		orr	r3, r3, r2, lsl #9
 215:Device/Dev_CRSF.c ****                 obj->channel[14] = channel_val_ptr->ch14;
 527              		.loc 1 215 34 view .LVU147
 528 018e A4F87430 		strh	r3, [r4, #116]	@ movhi
 216:Device/Dev_CRSF.c ****                 obj->channel[15] = channel_val_ptr->ch15;
 529              		.loc 1 216 17 is_stmt 1 view .LVU148
 216:Device/Dev_CRSF.c ****                 obj->channel[15] = channel_val_ptr->ch15;
 530              		.loc 1 216 51 is_stmt 0 view .LVU149
 531 0192 227E     		ldrb	r2, [r4, #24]	@ zero_extendqisi2
 532 0194 02F01F03 		and	r3, r2, #31
 533 0198 9B01     		lsls	r3, r3, #6
 534 019a 43EA9103 		orr	r3, r3, r1, lsr #2
 216:Device/Dev_CRSF.c ****                 obj->channel[15] = channel_val_ptr->ch15;
 535              		.loc 1 216 34 view .LVU150
ARM GAS  C:\Users\8bit\AppData\Local\Temp\cc7ydeXi.s 			page 17


 536 019e A4F87630 		strh	r3, [r4, #118]	@ movhi
 217:Device/Dev_CRSF.c **** 
 537              		.loc 1 217 17 is_stmt 1 view .LVU151
 217:Device/Dev_CRSF.c **** 
 538              		.loc 1 217 51 is_stmt 0 view .LVU152
 539 01a2 637E     		ldrb	r3, [r4, #25]	@ zero_extendqisi2
 540 01a4 DB00     		lsls	r3, r3, #3
 541 01a6 43EA5213 		orr	r3, r3, r2, lsr #5
 217:Device/Dev_CRSF.c **** 
 542              		.loc 1 217 34 view .LVU153
 543 01aa A4F87830 		strh	r3, [r4, #120]	@ movhi
 219:Device/Dev_CRSF.c ****                     obj->val_access = false;
 544              		.loc 1 219 17 is_stmt 1 view .LVU154
 219:Device/Dev_CRSF.c ****                     obj->val_access = false;
 545              		.loc 1 219 24 is_stmt 0 view .LVU155
 546 01ae 94F85830 		ldrb	r3, [r4, #88]	@ zero_extendqisi2
 219:Device/Dev_CRSF.c ****                     obj->val_access = false;
 547              		.loc 1 219 20 view .LVU156
 548 01b2 13B1     		cbz	r3, .L26
 220:Device/Dev_CRSF.c **** 
 549              		.loc 1 220 21 is_stmt 1 view .LVU157
 220:Device/Dev_CRSF.c **** 
 550              		.loc 1 220 37 is_stmt 0 view .LVU158
 551 01b4 0023     		movs	r3, #0
 552 01b6 84F85830 		strb	r3, [r4, #88]
 553              	.L26:
 222:Device/Dev_CRSF.c ****                 obj->decode_success_num ++;
 554              		.loc 1 222 17 is_stmt 1 view .LVU159
 222:Device/Dev_CRSF.c ****                 obj->decode_success_num ++;
 555              		.loc 1 222 28 is_stmt 0 view .LVU160
 556 01ba 0023     		movs	r3, #0
 557 01bc 84F84230 		strb	r3, [r4, #66]
 223:Device/Dev_CRSF.c ****                 return CRSF_FRAMETYPE_RC_CHANNELS_PACKED;
 558              		.loc 1 223 17 is_stmt 1 view .LVU161
 223:Device/Dev_CRSF.c ****                 return CRSF_FRAMETYPE_RC_CHANNELS_PACKED;
 559              		.loc 1 223 20 is_stmt 0 view .LVU162
 560 01c0 636D     		ldr	r3, [r4, #84]
 223:Device/Dev_CRSF.c ****                 return CRSF_FRAMETYPE_RC_CHANNELS_PACKED;
 561              		.loc 1 223 41 view .LVU163
 562 01c2 0133     		adds	r3, r3, #1
 563 01c4 6365     		str	r3, [r4, #84]
 224:Device/Dev_CRSF.c ****             }
 564              		.loc 1 224 17 is_stmt 1 view .LVU164
 224:Device/Dev_CRSF.c ****             }
 565              		.loc 1 224 24 is_stmt 0 view .LVU165
 566 01c6 02E0     		b	.L23
 567              	.LVL28:
 568              	.L27:
 224:Device/Dev_CRSF.c ****             }
 569              		.loc 1 224 24 view .LVU166
 570              	.LBE5:
 169:Device/Dev_CRSF.c **** 
 571              		.loc 1 169 16 view .LVU167
 572 01c8 FF20     		movs	r0, #255
 573              	.LVL29:
 169:Device/Dev_CRSF.c **** 
 574              		.loc 1 169 16 view .LVU168
ARM GAS  C:\Users\8bit\AppData\Local\Temp\cc7ydeXi.s 			page 18


 575 01ca 00E0     		b	.L23
 576              	.LVL30:
 577              	.L28:
 169:Device/Dev_CRSF.c **** 
 578              		.loc 1 169 16 view .LVU169
 579 01cc FF20     		movs	r0, #255
 580              	.LVL31:
 581              	.L23:
 234:Device/Dev_CRSF.c **** 
 582              		.loc 1 234 1 view .LVU170
 583 01ce 02B0     		add	sp, sp, #8
 584              	.LCFI8:
 585              		.cfi_def_cfa_offset 16
 586              		@ sp needed
 587 01d0 70BD     		pop	{r4, r5, r6, pc}
 588              		.cfi_endproc
 589              	.LFE3:
 591              		.section	.text.DevCRSF_FIFO_In,"ax",%progbits
 592              		.align	1
 593              		.syntax unified
 594              		.thumb
 595              		.thumb_func
 597              	DevCRSF_FIFO_In:
 598              	.LVL32:
 599              	.LFB2:
  89:Device/Dev_CRSF.c ****     uint8_t decode_state = 0;
 600              		.loc 1 89 1 is_stmt 1 view -0
 601              		.cfi_startproc
 602              		@ args = 0, pretend = 0, frame = 0
 603              		@ frame_needed = 0, uses_anonymous_args = 0
  89:Device/Dev_CRSF.c ****     uint8_t decode_state = 0;
 604              		.loc 1 89 1 is_stmt 0 view .LVU172
 605 0000 2DE9F041 		push	{r4, r5, r6, r7, r8, lr}
 606              	.LCFI9:
 607              		.cfi_def_cfa_offset 24
 608              		.cfi_offset 4, -24
 609              		.cfi_offset 5, -20
 610              		.cfi_offset 6, -16
 611              		.cfi_offset 7, -12
 612              		.cfi_offset 8, -8
 613              		.cfi_offset 14, -4
  90:Device/Dev_CRSF.c **** 
 614              		.loc 1 90 5 is_stmt 1 view .LVU173
 615              	.LVL33:
  92:Device/Dev_CRSF.c ****     {
 616              		.loc 1 92 5 view .LVU174
  92:Device/Dev_CRSF.c ****     {
 617              		.loc 1 92 8 is_stmt 0 view .LVU175
 618 0004 0028     		cmp	r0, #0
 619 0006 6CD0     		beq	.L50
 620 0008 0F46     		mov	r7, r1
 621 000a 1646     		mov	r6, r2
 622 000c 0546     		mov	r5, r0
  92:Device/Dev_CRSF.c ****     {
 623              		.loc 1 92 13 discriminator 1 view .LVU176
 624 000e 002A     		cmp	r2, #0
 625 0010 63D1     		bne	.L51
ARM GAS  C:\Users\8bit\AppData\Local\Temp\cc7ydeXi.s 			page 19


 159:Device/Dev_CRSF.c **** }
 626              		.loc 1 159 12 view .LVU177
 627 0012 0024     		movs	r4, #0
 628              	.LVL34:
 629              	.L39:
 160:Device/Dev_CRSF.c **** 
 630              		.loc 1 160 1 view .LVU178
 631 0014 2046     		mov	r0, r4
 632 0016 BDE8F081 		pop	{r4, r5, r6, r7, r8, pc}
 633              	.LVL35:
 634              	.L44:
 635              	.LBB6:
 112:Device/Dev_CRSF.c ****                 break;
 636              		.loc 1 112 21 is_stmt 1 view .LVU179
 637 001a 4022     		movs	r2, #64
 638 001c 0021     		movs	r1, #0
 639 001e 2846     		mov	r0, r5
 640 0020 FFF7FEFF 		bl	memset
 641              	.LVL36:
 642 0024 0DE0     		b	.L43
 643              	.L41:
 116:Device/Dev_CRSF.c ****                 if ((p_data[i] == (CRSF_FRAME_RC_CHANNELS_PAYLOAD_SIZE + CRSF_FRAME_ORIGIN_DEST_SIZ
 644              		.loc 1 116 17 view .LVU180
 116:Device/Dev_CRSF.c ****                 if ((p_data[i] == (CRSF_FRAME_RC_CHANNELS_PAYLOAD_SIZE + CRSF_FRAME_ORIGIN_DEST_SIZ
 645              		.loc 1 116 30 is_stmt 0 view .LVU181
 646 0026 0023     		movs	r3, #0
 647 0028 85F84030 		strb	r3, [r5, #64]
 117:Device/Dev_CRSF.c ****                     (p_data[i] == CRSF_FRAME_LINK_STATISTICS_PAYLOAD_SIZE + CRSF_FRAME_ORIGIN_DEST_
 648              		.loc 1 117 17 is_stmt 1 view .LVU182
 117:Device/Dev_CRSF.c ****                     (p_data[i] == CRSF_FRAME_LINK_STATISTICS_PAYLOAD_SIZE + CRSF_FRAME_ORIGIN_DEST_
 649              		.loc 1 117 28 is_stmt 0 view .LVU183
 650 002c 3A19     		adds	r2, r7, r4
 651 002e 3B5D     		ldrb	r3, [r7, r4]	@ zero_extendqisi2
 117:Device/Dev_CRSF.c ****                     (p_data[i] == CRSF_FRAME_LINK_STATISTICS_PAYLOAD_SIZE + CRSF_FRAME_ORIGIN_DEST_
 652              		.loc 1 117 20 view .LVU184
 653 0030 182B     		cmp	r3, #24
 654 0032 01D0     		beq	.L45
 117:Device/Dev_CRSF.c ****                     (p_data[i] == CRSF_FRAME_LINK_STATISTICS_PAYLOAD_SIZE + CRSF_FRAME_ORIGIN_DEST_
 655              		.loc 1 117 104 discriminator 1 view .LVU185
 656 0034 0C2B     		cmp	r3, #12
 657 0036 1ED1     		bne	.L46
 658              	.L45:
 120:Device/Dev_CRSF.c ****                     obj->frame.length = p_data[i];
 659              		.loc 1 120 21 is_stmt 1 view .LVU186
 120:Device/Dev_CRSF.c ****                     obj->frame.length = p_data[i];
 660              		.loc 1 120 36 is_stmt 0 view .LVU187
 661 0038 0223     		movs	r3, #2
 662 003a 85F84130 		strb	r3, [r5, #65]
 121:Device/Dev_CRSF.c ****                 }
 663              		.loc 1 121 21 is_stmt 1 view .LVU188
 121:Device/Dev_CRSF.c ****                 }
 664              		.loc 1 121 47 is_stmt 0 view .LVU189
 665 003e 1378     		ldrb	r3, [r2]	@ zero_extendqisi2
 121:Device/Dev_CRSF.c ****                 }
 666              		.loc 1 121 39 view .LVU190
 667 0040 6B70     		strb	r3, [r5, #1]
 668              	.L43:
ARM GAS  C:\Users\8bit\AppData\Local\Temp\cc7ydeXi.s 			page 20


  94:Device/Dev_CRSF.c ****         {
 669              		.loc 1 94 39 is_stmt 1 discriminator 2 view .LVU191
  94:Device/Dev_CRSF.c ****         {
 670              		.loc 1 94 41 is_stmt 0 discriminator 2 view .LVU192
 671 0042 0134     		adds	r4, r4, #1
 672              	.LVL37:
  94:Device/Dev_CRSF.c ****         {
 673              		.loc 1 94 41 discriminator 2 view .LVU193
 674 0044 A4B2     		uxth	r4, r4
 675              	.LVL38:
 676              	.L40:
  94:Device/Dev_CRSF.c ****         {
 677              		.loc 1 94 30 is_stmt 1 discriminator 1 view .LVU194
  94:Device/Dev_CRSF.c ****         {
 678              		.loc 1 94 9 is_stmt 0 discriminator 1 view .LVU195
 679 0046 B442     		cmp	r4, r6
 680 0048 49D2     		bcs	.L53
  96:Device/Dev_CRSF.c ****             {
 681              		.loc 1 96 13 is_stmt 1 view .LVU196
  96:Device/Dev_CRSF.c ****             {
 682              		.loc 1 96 34 is_stmt 0 view .LVU197
 683 004a 95F84130 		ldrb	r3, [r5, #65]	@ zero_extendqisi2
  96:Device/Dev_CRSF.c ****             {
 684              		.loc 1 96 13 view .LVU198
 685 004e 012B     		cmp	r3, #1
 686 0050 E9D0     		beq	.L41
 687 0052 022B     		cmp	r3, #2
 688 0054 17D0     		beq	.L42
 689 0056 002B     		cmp	r3, #0
 690 0058 F3D1     		bne	.L43
  99:Device/Dev_CRSF.c ****                 if (p_data[i] == CRSF_ADDRESS_FLIGHT_CONTROLLER)
 691              		.loc 1 99 17 is_stmt 1 view .LVU199
  99:Device/Dev_CRSF.c ****                 if (p_data[i] == CRSF_ADDRESS_FLIGHT_CONTROLLER)
 692              		.loc 1 99 30 is_stmt 0 view .LVU200
 693 005a 85F84030 		strb	r3, [r5, #64]
 100:Device/Dev_CRSF.c ****                 {
 694              		.loc 1 100 17 is_stmt 1 view .LVU201
 100:Device/Dev_CRSF.c ****                 {
 695              		.loc 1 100 27 is_stmt 0 view .LVU202
 696 005e 3B5D     		ldrb	r3, [r7, r4]	@ zero_extendqisi2
 100:Device/Dev_CRSF.c ****                 {
 697              		.loc 1 100 20 view .LVU203
 698 0060 C82B     		cmp	r3, #200
 699 0062 DAD1     		bne	.L44
 102:Device/Dev_CRSF.c ****                     obj->frame.addr = p_data[i];
 700              		.loc 1 102 21 is_stmt 1 view .LVU204
 102:Device/Dev_CRSF.c ****                     obj->frame.addr = p_data[i];
 701              		.loc 1 102 36 is_stmt 0 view .LVU205
 702 0064 0123     		movs	r3, #1
 703 0066 85F84130 		strb	r3, [r5, #65]
 103:Device/Dev_CRSF.c ****                     obj->match_header_num ++;
 704              		.loc 1 103 21 is_stmt 1 view .LVU206
 103:Device/Dev_CRSF.c ****                     obj->match_header_num ++;
 705              		.loc 1 103 45 is_stmt 0 view .LVU207
 706 006a 3B5D     		ldrb	r3, [r7, r4]	@ zero_extendqisi2
 103:Device/Dev_CRSF.c ****                     obj->match_header_num ++;
 707              		.loc 1 103 37 view .LVU208
ARM GAS  C:\Users\8bit\AppData\Local\Temp\cc7ydeXi.s 			page 21


 708 006c 2B70     		strb	r3, [r5]
 104:Device/Dev_CRSF.c **** 
 709              		.loc 1 104 21 is_stmt 1 view .LVU209
 104:Device/Dev_CRSF.c **** 
 710              		.loc 1 104 24 is_stmt 0 view .LVU210
 711 006e 2B6D     		ldr	r3, [r5, #80]
 104:Device/Dev_CRSF.c **** 
 712              		.loc 1 104 43 view .LVU211
 713 0070 0133     		adds	r3, r3, #1
 714 0072 2B65     		str	r3, [r5, #80]
 715 0074 E5E7     		b	.L43
 716              	.L46:
 125:Device/Dev_CRSF.c ****                     memset(&obj->frame, 0, sizeof(obj->frame));
 717              		.loc 1 125 21 is_stmt 1 view .LVU212
 125:Device/Dev_CRSF.c ****                     memset(&obj->frame, 0, sizeof(obj->frame));
 718              		.loc 1 125 36 is_stmt 0 view .LVU213
 719 0076 0021     		movs	r1, #0
 720 0078 85F84110 		strb	r1, [r5, #65]
 126:Device/Dev_CRSF.c ****                 }
 721              		.loc 1 126 21 is_stmt 1 view .LVU214
 722 007c 4022     		movs	r2, #64
 723 007e 2846     		mov	r0, r5
 724 0080 FFF7FEFF 		bl	memset
 725              	.LVL39:
 726 0084 DDE7     		b	.L43
 727              	.L42:
 131:Device/Dev_CRSF.c ****                 {
 728              		.loc 1 131 17 view .LVU215
 131:Device/Dev_CRSF.c ****                 {
 729              		.loc 1 131 31 is_stmt 0 view .LVU216
 730 0086 6A78     		ldrb	r2, [r5, #1]	@ zero_extendqisi2
 131:Device/Dev_CRSF.c ****                 {
 731              		.loc 1 131 20 view .LVU217
 732 0088 DAB1     		cbz	r2, .L47
 133:Device/Dev_CRSF.c ****                         obj->frame.type = p_data[i];
 733              		.loc 1 133 21 is_stmt 1 view .LVU218
 133:Device/Dev_CRSF.c ****                         obj->frame.type = p_data[i];
 734              		.loc 1 133 28 is_stmt 0 view .LVU219
 735 008a 95F84030 		ldrb	r3, [r5, #64]	@ zero_extendqisi2
 133:Device/Dev_CRSF.c ****                         obj->frame.type = p_data[i];
 736              		.loc 1 133 24 view .LVU220
 737 008e 0BB9     		cbnz	r3, .L48
 134:Device/Dev_CRSF.c **** 
 738              		.loc 1 134 25 is_stmt 1 view .LVU221
 134:Device/Dev_CRSF.c **** 
 739              		.loc 1 134 49 is_stmt 0 view .LVU222
 740 0090 395D     		ldrb	r1, [r7, r4]	@ zero_extendqisi2
 134:Device/Dev_CRSF.c **** 
 741              		.loc 1 134 41 view .LVU223
 742 0092 A970     		strb	r1, [r5, #2]
 743              	.L48:
 136:Device/Dev_CRSF.c ****                     obj->rec_cnt++;
 744              		.loc 1 136 21 is_stmt 1 view .LVU224
 136:Device/Dev_CRSF.c ****                     obj->rec_cnt++;
 745              		.loc 1 136 59 is_stmt 0 view .LVU225
 746 0094 385D     		ldrb	r0, [r7, r4]	@ zero_extendqisi2
 136:Device/Dev_CRSF.c ****                     obj->rec_cnt++;
ARM GAS  C:\Users\8bit\AppData\Local\Temp\cc7ydeXi.s 			page 22


 747              		.loc 1 136 51 view .LVU226
 748 0096 E918     		adds	r1, r5, r3
 749 0098 C870     		strb	r0, [r1, #3]
 137:Device/Dev_CRSF.c ****                     
 750              		.loc 1 137 21 is_stmt 1 view .LVU227
 137:Device/Dev_CRSF.c ****                     
 751              		.loc 1 137 33 is_stmt 0 view .LVU228
 752 009a 0133     		adds	r3, r3, #1
 753 009c DBB2     		uxtb	r3, r3
 754 009e 85F84030 		strb	r3, [r5, #64]
 139:Device/Dev_CRSF.c ****                     {                
 755              		.loc 1 139 21 is_stmt 1 view .LVU229
 139:Device/Dev_CRSF.c ****                     {                
 756              		.loc 1 139 24 is_stmt 0 view .LVU230
 757 00a2 9A42     		cmp	r2, r3
 758 00a4 CDD1     		bne	.L43
 141:Device/Dev_CRSF.c ****                         obj->rec_stage = CRSF_Stage_Header;
 759              		.loc 1 141 25 is_stmt 1 view .LVU231
 141:Device/Dev_CRSF.c ****                         obj->rec_stage = CRSF_Stage_Header;
 760              		.loc 1 141 40 is_stmt 0 view .LVU232
 761 00a6 2846     		mov	r0, r5
 762 00a8 FFF7FEFF 		bl	DevCRSF_Decode
 763              	.LVL40:
 764 00ac 0446     		mov	r4, r0
 765              	.LVL41:
 142:Device/Dev_CRSF.c ****                         obj->rec_cnt = 0;
 766              		.loc 1 142 25 is_stmt 1 view .LVU233
 142:Device/Dev_CRSF.c ****                         obj->rec_cnt = 0;
 767              		.loc 1 142 40 is_stmt 0 view .LVU234
 768 00ae 0021     		movs	r1, #0
 769 00b0 85F84110 		strb	r1, [r5, #65]
 143:Device/Dev_CRSF.c ****                         memset(&obj->frame, 0, sizeof(obj->frame));
 770              		.loc 1 143 25 is_stmt 1 view .LVU235
 143:Device/Dev_CRSF.c ****                         memset(&obj->frame, 0, sizeof(obj->frame));
 771              		.loc 1 143 38 is_stmt 0 view .LVU236
 772 00b4 85F84010 		strb	r1, [r5, #64]
 144:Device/Dev_CRSF.c ****                         return decode_state;
 773              		.loc 1 144 25 is_stmt 1 view .LVU237
 774 00b8 4022     		movs	r2, #64
 775 00ba 2846     		mov	r0, r5
 776 00bc FFF7FEFF 		bl	memset
 777              	.LVL42:
 145:Device/Dev_CRSF.c ****                     }
 778              		.loc 1 145 25 view .LVU238
 145:Device/Dev_CRSF.c ****                     }
 779              		.loc 1 145 32 is_stmt 0 view .LVU239
 780 00c0 A8E7     		b	.L39
 781              	.LVL43:
 782              	.L47:
 150:Device/Dev_CRSF.c ****                     memset(&obj->frame, 0, sizeof(obj->frame));
 783              		.loc 1 150 21 is_stmt 1 view .LVU240
 150:Device/Dev_CRSF.c ****                     memset(&obj->frame, 0, sizeof(obj->frame));
 784              		.loc 1 150 34 is_stmt 0 view .LVU241
 785 00c2 4FF00008 		mov	r8, #0
 786 00c6 85F84080 		strb	r8, [r5, #64]
 151:Device/Dev_CRSF.c ****                     obj->rec_stage = CRSF_Stage_Header;
 787              		.loc 1 151 21 is_stmt 1 view .LVU242
ARM GAS  C:\Users\8bit\AppData\Local\Temp\cc7ydeXi.s 			page 23


 788 00ca 4022     		movs	r2, #64
 789 00cc 4146     		mov	r1, r8
 790 00ce 2846     		mov	r0, r5
 791 00d0 FFF7FEFF 		bl	memset
 792              	.LVL44:
 152:Device/Dev_CRSF.c ****                 }
 793              		.loc 1 152 21 view .LVU243
 152:Device/Dev_CRSF.c ****                 }
 794              		.loc 1 152 36 is_stmt 0 view .LVU244
 795 00d4 85F84180 		strb	r8, [r5, #65]
 796 00d8 B3E7     		b	.L43
 797              	.LVL45:
 798              	.L51:
  94:Device/Dev_CRSF.c ****         {
 799              		.loc 1 94 23 view .LVU245
 800 00da 0024     		movs	r4, #0
 801 00dc B3E7     		b	.L40
 802              	.LVL46:
 803              	.L53:
  94:Device/Dev_CRSF.c ****         {
 804              		.loc 1 94 23 view .LVU246
 805              	.LBE6:
 159:Device/Dev_CRSF.c **** }
 806              		.loc 1 159 12 view .LVU247
 807 00de 0024     		movs	r4, #0
 808              	.LVL47:
 809              	.LBB7:
 159:Device/Dev_CRSF.c **** }
 810              		.loc 1 159 12 view .LVU248
 811 00e0 98E7     		b	.L39
 812              	.LVL48:
 813              	.L50:
 159:Device/Dev_CRSF.c **** }
 814              		.loc 1 159 12 view .LVU249
 815              	.LBE7:
 816 00e2 0024     		movs	r4, #0
 817 00e4 96E7     		b	.L39
 818              		.cfi_endproc
 819              	.LFE2:
 821              		.global	DevCRSF
 822              		.section	.data.DevCRSF,"aw"
 823              		.align	2
 826              	DevCRSF:
 827 0000 00000000 		.word	DevCrsf_Init
 828 0004 00000000 		.word	DevCRSF_FIFO_In
 829 0008 00000000 		.word	DevCRSF_Get_Channel
 830 000c 00000000 		.word	DevCESF_Get_Statistics
 831              		.section	.rodata.crsf_crc8tab,"a"
 832              		.align	2
 833              		.set	.LANCHOR0,. + 0
 836              	crsf_crc8tab:
 837 0000 00D57FAA 		.ascii	"\000\325\177\252\376+\201T)\374V\203\327\002\250}R\207"
 837      FE2B8154 
 837      29FC5683 
 837      D702A87D 
 837      5287
 838 0012 2DF8AC79 		.ascii	"-\370\254y\323\006{\256\004\321\205P\372/\244q\333\016"
ARM GAS  C:\Users\8bit\AppData\Local\Temp\cc7ydeXi.s 			page 24


 838      D3067BAE 
 838      04D18550 
 838      FA2FA471 
 838      DB0E
 839 0024 5A8F25F0 		.ascii	"Z\217%\360\215X\362's\246\014\331\366#\211\\\010\335"
 839      8D58F227 
 839      73A60CD9 
 839      F623895C 
 839      08DD
 840 0036 77A2DF0A 		.ascii	"w\242\337\012\240u!\364^\213\235H\3427c\266\034\311"
 840      A07521F4 
 840      5E8B9D48 
 840      E23763B6 
 840      1CC9
 841 0048 B461CB1E 		.ascii	"\264a\313\036J\2375\340\317\032\260e1\344N\233\3463"
 841      4A9F35E0 
 841      CF1AB065 
 841      31E44E9B 
 841      E633
 842 005a 994C18CD 		.ascii	"\231L\030\315g\2629\354F\223\307\022\270m\020\305o\272"
 842      67B239EC 
 842      4693C712 
 842      B86D10C5 
 842      6FBA
 843 006c EE3B9144 		.ascii	"\356;\221Dk\276\024\301\225@\352?B\227=\350\274i\303"
 843      6BBE14C1 
 843      9540EA3F 
 843      42973DE8 
 843      BC69C3
 844 007f 16EF3A90 		.ascii	"\026\357:\220E\021\304n\273\306\023\271l8\355G\222\275"
 844      4511C46E 
 844      BBC613B9 
 844      6C38ED47 
 844      92BD
 845 0091 68C21743 		.ascii	"h\302\027C\226<\351\224A\353>j\277\025\300K\2364\341"
 845      963CE994 
 845      41EB3E6A 
 845      BF15C04B 
 845      9E34E1
 846 00a4 B560CA1F 		.ascii	"\265`\312\037b\267\035\310\234I\3436\031\314f\263\347"
 846      62B71DC8 
 846      9C49E336 
 846      19CC66B3 
 846      E7
 847 00b5 32984D30 		.ascii	"2\230M0\345O\232\316\033\261dr\247\015\330\214Y\363"
 847      E54F9ACE 
 847      1BB16472 
 847      A70DD88C 
 847      59F3
 848 00c7 265B8E24 		.ascii	"&[\216$\361\245p\332\017 \365_\212\336\013\241t\011"
 848      F1A570DA 
 848      0F20F55F 
 848      8ADE0BA1 
 848      7409
 849 00d9 DC76A3F7 		.ascii	"\334v\243\367\"\210]\326\003\251|(\375W\202\377*\200"
 849      22885DD6 
 849      03A97C28 
ARM GAS  C:\Users\8bit\AppData\Local\Temp\cc7ydeXi.s 			page 25


 849      FD5782FF 
 849      2A80
 850 00eb 5501D47E 		.ascii	"U\001\324~\253\204Q\373.z\257\005\320\255x\322\007S"
 850      AB8451FB 
 850      2E7AAF05 
 850      D0AD78D2 
 850      0753
 851 00fd 862CF9   		.ascii	"\206,\371"
 852              		.text
 853              	.Letext0:
 854              		.file 2 "c:\\program files (x86)\\gnu arm embedded toolchain\\10 2021.10\\arm-none-eabi\\include\\
 855              		.file 3 "c:\\program files (x86)\\gnu arm embedded toolchain\\10 2021.10\\arm-none-eabi\\include\\
 856              		.file 4 "Device/Dev_CRSF.h"
 857              		.file 5 "<built-in>"
ARM GAS  C:\Users\8bit\AppData\Local\Temp\cc7ydeXi.s 			page 26

