ARM GAS  C:\Users\HUAV\AppData\Local\Temp\cc8AWPUm.s 			page 1


   1              		.cpu cortex-m7
   2              		.eabi_attribute 28, 1
   3              		.eabi_attribute 20, 1
   4              		.eabi_attribute 21, 1
   5              		.eabi_attribute 23, 3
   6              		.eabi_attribute 24, 1
   7              		.eabi_attribute 25, 1
   8              		.eabi_attribute 26, 1
   9              		.eabi_attribute 30, 1
  10              		.eabi_attribute 34, 1
  11              		.eabi_attribute 18, 4
  12              		.file	"Dev_MPU6000.c"
  13              		.text
  14              	.Ltext0:
  15              		.cfi_sections	.debug_frame
  16              		.section	.text.Dev_MPU6000_Regs_Read,"ax",%progbits
  17              		.align	1
  18              		.arch armv7e-m
  19              		.syntax unified
  20              		.thumb
  21              		.thumb_func
  22              		.fpu fpv5-d16
  24              	Dev_MPU6000_Regs_Read:
  25              	.LVL0:
  26              	.LFB0:
  27              		.file 1 "Device/Dev_MPU6000.c"
   1:Device/Dev_MPU6000.c **** #include "Dev_MPU6000.h"
   2:Device/Dev_MPU6000.c **** 
   3:Device/Dev_MPU6000.c **** /* internal function */
   4:Device/Dev_MPU6000.c **** static bool DevMPU6000_Reg_Read(DevMPU6000Obj_TypeDef *sensor_obj, uint8_t addr, uint8_t *rx);
   5:Device/Dev_MPU6000.c **** static bool DevMPU6000_Reg_Write(DevMPU6000Obj_TypeDef *sensor_obj, uint8_t addr, uint8_t tx);
   6:Device/Dev_MPU6000.c **** 
   7:Device/Dev_MPU6000.c **** /* external function */
   8:Device/Dev_MPU6000.c **** static void DevMPU6000_PreInit(DevMPU6000Obj_TypeDef *sensor_obj,
   9:Device/Dev_MPU6000.c ****                                cs_ctl_callback cs_ctl,
  10:Device/Dev_MPU6000.c ****                                bus_trans_callback bus_trans,
  11:Device/Dev_MPU6000.c ****                                delay_callback delay,
  12:Device/Dev_MPU6000.c ****                                get_time_stamp_callback ge_time_stamp);
  13:Device/Dev_MPU6000.c **** 
  14:Device/Dev_MPU6000.c **** static bool DevMPU6000_Config(DevMPU6000Obj_TypeDef *sensor_obj,
  15:Device/Dev_MPU6000.c ****                               DevMPU6000_SampleRate_List rate,
  16:Device/Dev_MPU6000.c ****                               DevMPU6000_AccTrip_List AccTrip,
  17:Device/Dev_MPU6000.c ****                               DevMPU6000_GyrTrip_List GyrTrip);
  18:Device/Dev_MPU6000.c **** 
  19:Device/Dev_MPU6000.c **** static bool DevMPU6000_Init(DevMPU6000Obj_TypeDef *sensor_obj);
  20:Device/Dev_MPU6000.c **** static void DevMPU6000_SetDRDY(DevMPU6000Obj_TypeDef *sensor_obj);
  21:Device/Dev_MPU6000.c **** static bool DevMPU6000_GetReady(DevMPU6000Obj_TypeDef *sensor_obj);
  22:Device/Dev_MPU6000.c **** static bool DevMPU6000_SwReset(DevMPU6000Obj_TypeDef *sensor_obj);
  23:Device/Dev_MPU6000.c **** static bool DevMPU6000_Sample(DevMPU6000Obj_TypeDef *sensor_obj);
  24:Device/Dev_MPU6000.c **** static IMUData_TypeDef DevMPU6000_Get_Data(DevMPU6000Obj_TypeDef *sensor_obj);
  25:Device/Dev_MPU6000.c **** static DevMPU6000_Error_List DevMPU6000_Get_InitError(DevMPU6000Obj_TypeDef *sensor_obj);
  26:Device/Dev_MPU6000.c **** static IMUModuleScale_TypeDef DevMPU6000_Get_Scale(const DevMPU6000Obj_TypeDef sensor_obj);
  27:Device/Dev_MPU6000.c **** 
  28:Device/Dev_MPU6000.c **** /* external MPU6000 Object */
  29:Device/Dev_MPU6000.c **** DevMPU6000_TypeDef DevMPU6000 = {
  30:Device/Dev_MPU6000.c ****     .pre_init = DevMPU6000_PreInit,
  31:Device/Dev_MPU6000.c ****     .init = DevMPU6000_Init,
ARM GAS  C:\Users\HUAV\AppData\Local\Temp\cc8AWPUm.s 			page 2


  32:Device/Dev_MPU6000.c ****     .config = DevMPU6000_Config,
  33:Device/Dev_MPU6000.c ****     .reset = DevMPU6000_SwReset,
  34:Device/Dev_MPU6000.c ****     .set_drdy = DevMPU6000_SetDRDY,
  35:Device/Dev_MPU6000.c ****     .get_drdy = DevMPU6000_GetReady,
  36:Device/Dev_MPU6000.c ****     .sample = DevMPU6000_Sample,
  37:Device/Dev_MPU6000.c ****     .get_data = DevMPU6000_Get_Data,
  38:Device/Dev_MPU6000.c ****     .get_error = DevMPU6000_Get_InitError,
  39:Device/Dev_MPU6000.c ****     .get_scale = DevMPU6000_Get_Scale,
  40:Device/Dev_MPU6000.c **** };
  41:Device/Dev_MPU6000.c **** 
  42:Device/Dev_MPU6000.c **** static bool Dev_MPU6000_Regs_Read(DevMPU6000Obj_TypeDef *sensor_obj, uint8_t addr, uint8_t *tx, uin
  43:Device/Dev_MPU6000.c **** {
  28              		.loc 1 43 1 view -0
  29              		.cfi_startproc
  30              		@ args = 4, pretend = 0, frame = 8
  31              		@ frame_needed = 0, uses_anonymous_args = 0
  32              		.loc 1 43 1 is_stmt 0 view .LVU1
  33 0000 70B5     		push	{r4, r5, r6, lr}
  34              	.LCFI0:
  35              		.cfi_def_cfa_offset 16
  36              		.cfi_offset 4, -16
  37              		.cfi_offset 5, -12
  38              		.cfi_offset 6, -8
  39              		.cfi_offset 14, -4
  40 0002 82B0     		sub	sp, sp, #8
  41              	.LCFI1:
  42              		.cfi_def_cfa_offset 24
  43 0004 1546     		mov	r5, r2
  44:Device/Dev_MPU6000.c ****     bool state = false;
  44              		.loc 1 44 5 is_stmt 1 view .LVU2
  45              	.LVL1:
  45:Device/Dev_MPU6000.c ****     uint8_t addr_tmp = addr | MPU6000_WRITE_MASK;
  46              		.loc 1 45 5 view .LVU3
  47              		.loc 1 45 13 is_stmt 0 view .LVU4
  48 0006 61F07F01 		orn	r1, r1, #127
  49              	.LVL2:
  50              		.loc 1 45 13 view .LVU5
  51 000a 8DF80710 		strb	r1, [sp, #7]
  46:Device/Dev_MPU6000.c ****     uint8_t read_tmp = 0;
  52              		.loc 1 46 5 is_stmt 1 view .LVU6
  53              		.loc 1 46 13 is_stmt 0 view .LVU7
  54 000e 0022     		movs	r2, #0
  55              	.LVL3:
  56              		.loc 1 46 13 view .LVU8
  57 0010 8DF80620 		strb	r2, [sp, #6]
  47:Device/Dev_MPU6000.c **** 
  48:Device/Dev_MPU6000.c ****     if (sensor_obj == NULL || sensor_obj->cs_ctl == NULL || sensor_obj->bus_trans == NULL)
  58              		.loc 1 48 5 is_stmt 1 view .LVU9
  59              		.loc 1 48 8 is_stmt 0 view .LVU10
  60 0014 D8B1     		cbz	r0, .L3
  61 0016 1E46     		mov	r6, r3
  62 0018 0446     		mov	r4, r0
  63              		.loc 1 48 41 discriminator 1 view .LVU11
  64 001a 0268     		ldr	r2, [r0]
  65              		.loc 1 48 28 discriminator 1 view .LVU12
  66 001c CAB1     		cbz	r2, .L4
  67              		.loc 1 48 71 discriminator 2 view .LVU13
ARM GAS  C:\Users\HUAV\AppData\Local\Temp\cc8AWPUm.s 			page 3


  68 001e 4368     		ldr	r3, [r0, #4]
  69              	.LVL4:
  70              		.loc 1 48 58 discriminator 2 view .LVU14
  71 0020 CBB1     		cbz	r3, .L5
  49:Device/Dev_MPU6000.c ****         return false;
  50:Device/Dev_MPU6000.c **** 
  51:Device/Dev_MPU6000.c ****     /* CS Low */
  52:Device/Dev_MPU6000.c ****     sensor_obj->cs_ctl(false);
  72              		.loc 1 52 5 is_stmt 1 view .LVU15
  73 0022 0020     		movs	r0, #0
  74              	.LVL5:
  75              		.loc 1 52 5 is_stmt 0 view .LVU16
  76 0024 9047     		blx	r2
  77              	.LVL6:
  53:Device/Dev_MPU6000.c **** 
  54:Device/Dev_MPU6000.c ****     state = sensor_obj->bus_trans(&addr_tmp, &read_tmp, 1);
  78              		.loc 1 54 5 is_stmt 1 view .LVU17
  79              		.loc 1 54 23 is_stmt 0 view .LVU18
  80 0026 6368     		ldr	r3, [r4, #4]
  81              		.loc 1 54 13 view .LVU19
  82 0028 0122     		movs	r2, #1
  83 002a 0DF10601 		add	r1, sp, #6
  84 002e 0DF10700 		add	r0, sp, #7
  85 0032 9847     		blx	r3
  86              	.LVL7:
  55:Device/Dev_MPU6000.c ****     state = sensor_obj->bus_trans(tx, rx, size);
  87              		.loc 1 55 5 is_stmt 1 view .LVU20
  88              		.loc 1 55 23 is_stmt 0 view .LVU21
  89 0034 6368     		ldr	r3, [r4, #4]
  90              		.loc 1 55 13 view .LVU22
  91 0036 9DF81820 		ldrb	r2, [sp, #24]	@ zero_extendqisi2
  92 003a 3146     		mov	r1, r6
  93 003c 2846     		mov	r0, r5
  94 003e 9847     		blx	r3
  95              	.LVL8:
  96 0040 0546     		mov	r5, r0
  97              	.LVL9:
  56:Device/Dev_MPU6000.c **** 
  57:Device/Dev_MPU6000.c ****     /* CS High */
  58:Device/Dev_MPU6000.c ****     sensor_obj->cs_ctl(true);
  98              		.loc 1 58 5 is_stmt 1 view .LVU23
  99              		.loc 1 58 15 is_stmt 0 view .LVU24
 100 0042 2368     		ldr	r3, [r4]
 101              		.loc 1 58 5 view .LVU25
 102 0044 0120     		movs	r0, #1
 103 0046 9847     		blx	r3
 104              	.LVL10:
  59:Device/Dev_MPU6000.c **** 
  60:Device/Dev_MPU6000.c ****     return state;
 105              		.loc 1 60 5 is_stmt 1 view .LVU26
 106              	.L2:
  61:Device/Dev_MPU6000.c **** }
 107              		.loc 1 61 1 is_stmt 0 view .LVU27
 108 0048 2846     		mov	r0, r5
 109 004a 02B0     		add	sp, sp, #8
 110              	.LCFI2:
 111              		.cfi_remember_state
ARM GAS  C:\Users\HUAV\AppData\Local\Temp\cc8AWPUm.s 			page 4


 112              		.cfi_def_cfa_offset 16
 113              		@ sp needed
 114 004c 70BD     		pop	{r4, r5, r6, pc}
 115              	.LVL11:
 116              	.L3:
 117              	.LCFI3:
 118              		.cfi_restore_state
  49:Device/Dev_MPU6000.c **** 
 119              		.loc 1 49 16 view .LVU28
 120 004e 0025     		movs	r5, #0
 121              	.LVL12:
  49:Device/Dev_MPU6000.c **** 
 122              		.loc 1 49 16 view .LVU29
 123 0050 FAE7     		b	.L2
 124              	.LVL13:
 125              	.L4:
  49:Device/Dev_MPU6000.c **** 
 126              		.loc 1 49 16 view .LVU30
 127 0052 0025     		movs	r5, #0
 128              	.LVL14:
  49:Device/Dev_MPU6000.c **** 
 129              		.loc 1 49 16 view .LVU31
 130 0054 F8E7     		b	.L2
 131              	.LVL15:
 132              	.L5:
  49:Device/Dev_MPU6000.c **** 
 133              		.loc 1 49 16 view .LVU32
 134 0056 0025     		movs	r5, #0
 135              	.LVL16:
  49:Device/Dev_MPU6000.c **** 
 136              		.loc 1 49 16 view .LVU33
 137 0058 F6E7     		b	.L2
 138              		.cfi_endproc
 139              	.LFE0:
 141              		.section	.text.DevMPU6000_Reg_Read,"ax",%progbits
 142              		.align	1
 143              		.syntax unified
 144              		.thumb
 145              		.thumb_func
 146              		.fpu fpv5-d16
 148              	DevMPU6000_Reg_Read:
 149              	.LVL17:
 150              	.LFB1:
  62:Device/Dev_MPU6000.c **** 
  63:Device/Dev_MPU6000.c **** static bool DevMPU6000_Reg_Read(DevMPU6000Obj_TypeDef *sensor_obj, uint8_t addr, uint8_t *rx)
  64:Device/Dev_MPU6000.c **** {
 151              		.loc 1 64 1 is_stmt 1 view -0
 152              		.cfi_startproc
 153              		@ args = 0, pretend = 0, frame = 8
 154              		@ frame_needed = 0, uses_anonymous_args = 0
 155              		.loc 1 64 1 is_stmt 0 view .LVU35
 156 0000 70B5     		push	{r4, r5, r6, lr}
 157              	.LCFI4:
 158              		.cfi_def_cfa_offset 16
 159              		.cfi_offset 4, -16
 160              		.cfi_offset 5, -12
 161              		.cfi_offset 6, -8
ARM GAS  C:\Users\HUAV\AppData\Local\Temp\cc8AWPUm.s 			page 5


 162              		.cfi_offset 14, -4
 163 0002 82B0     		sub	sp, sp, #8
 164              	.LCFI5:
 165              		.cfi_def_cfa_offset 24
  65:Device/Dev_MPU6000.c ****     uint8_t write_buff[2] = {0};
 166              		.loc 1 65 5 is_stmt 1 view .LVU36
 167              		.loc 1 65 13 is_stmt 0 view .LVU37
 168 0004 0023     		movs	r3, #0
 169 0006 ADF80430 		strh	r3, [sp, #4]	@ movhi
  66:Device/Dev_MPU6000.c ****     uint8_t read_buff[2] = {0};
 170              		.loc 1 66 5 is_stmt 1 view .LVU38
 171              		.loc 1 66 13 is_stmt 0 view .LVU39
 172 000a ADF80030 		strh	r3, [sp]	@ movhi
  67:Device/Dev_MPU6000.c ****     bool state = false;
 173              		.loc 1 67 5 is_stmt 1 view .LVU40
 174              	.LVL18:
  68:Device/Dev_MPU6000.c **** 
  69:Device/Dev_MPU6000.c ****     if (sensor_obj == NULL || sensor_obj->cs_ctl == NULL || sensor_obj->bus_trans == NULL)
 175              		.loc 1 69 5 view .LVU41
 176              		.loc 1 69 8 is_stmt 0 view .LVU42
 177 000e D8B1     		cbz	r0, .L9
 178 0010 1646     		mov	r6, r2
 179 0012 0446     		mov	r4, r0
 180              		.loc 1 69 41 discriminator 1 view .LVU43
 181 0014 0368     		ldr	r3, [r0]
 182              		.loc 1 69 28 discriminator 1 view .LVU44
 183 0016 CBB1     		cbz	r3, .L10
 184              		.loc 1 69 71 discriminator 2 view .LVU45
 185 0018 4368     		ldr	r3, [r0, #4]
 186              		.loc 1 69 58 discriminator 2 view .LVU46
 187 001a CBB1     		cbz	r3, .L11
  70:Device/Dev_MPU6000.c ****         return false;
  71:Device/Dev_MPU6000.c **** 
  72:Device/Dev_MPU6000.c ****     write_buff[0] = addr | MPU6000_WRITE_MASK;
 188              		.loc 1 72 5 is_stmt 1 view .LVU47
 189              		.loc 1 72 19 is_stmt 0 view .LVU48
 190 001c 61F07F01 		orn	r1, r1, #127
 191              	.LVL19:
 192              		.loc 1 72 19 view .LVU49
 193 0020 8DF80410 		strb	r1, [sp, #4]
  73:Device/Dev_MPU6000.c **** 
  74:Device/Dev_MPU6000.c ****     /* CS Low */
  75:Device/Dev_MPU6000.c ****     sensor_obj->cs_ctl(false);
 194              		.loc 1 75 5 is_stmt 1 view .LVU50
 195              		.loc 1 75 15 is_stmt 0 view .LVU51
 196 0024 0368     		ldr	r3, [r0]
 197              		.loc 1 75 5 view .LVU52
 198 0026 0020     		movs	r0, #0
 199              	.LVL20:
 200              		.loc 1 75 5 view .LVU53
 201 0028 9847     		blx	r3
 202              	.LVL21:
  76:Device/Dev_MPU6000.c **** 
  77:Device/Dev_MPU6000.c ****     state = sensor_obj->bus_trans(write_buff, read_buff, 2);
 203              		.loc 1 77 5 is_stmt 1 view .LVU54
 204              		.loc 1 77 23 is_stmt 0 view .LVU55
 205 002a 6368     		ldr	r3, [r4, #4]
ARM GAS  C:\Users\HUAV\AppData\Local\Temp\cc8AWPUm.s 			page 6


 206              		.loc 1 77 13 view .LVU56
 207 002c 0222     		movs	r2, #2
 208 002e 6946     		mov	r1, sp
 209 0030 01A8     		add	r0, sp, #4
 210 0032 9847     		blx	r3
 211              	.LVL22:
 212 0034 0546     		mov	r5, r0
 213              	.LVL23:
  78:Device/Dev_MPU6000.c **** 
  79:Device/Dev_MPU6000.c ****     /* CS High */
  80:Device/Dev_MPU6000.c ****     sensor_obj->cs_ctl(true);
 214              		.loc 1 80 5 is_stmt 1 view .LVU57
 215              		.loc 1 80 15 is_stmt 0 view .LVU58
 216 0036 2368     		ldr	r3, [r4]
 217              		.loc 1 80 5 view .LVU59
 218 0038 0120     		movs	r0, #1
 219 003a 9847     		blx	r3
 220              	.LVL24:
  81:Device/Dev_MPU6000.c **** 
  82:Device/Dev_MPU6000.c ****     *rx = read_buff[1];
 221              		.loc 1 82 5 is_stmt 1 view .LVU60
 222              		.loc 1 82 20 is_stmt 0 view .LVU61
 223 003c 9DF80130 		ldrb	r3, [sp, #1]	@ zero_extendqisi2
 224              		.loc 1 82 9 view .LVU62
 225 0040 3370     		strb	r3, [r6]
  83:Device/Dev_MPU6000.c **** 
  84:Device/Dev_MPU6000.c ****     return state;
 226              		.loc 1 84 5 is_stmt 1 view .LVU63
 227              	.LVL25:
 228              	.L8:
  85:Device/Dev_MPU6000.c **** }
 229              		.loc 1 85 1 is_stmt 0 view .LVU64
 230 0042 2846     		mov	r0, r5
 231 0044 02B0     		add	sp, sp, #8
 232              	.LCFI6:
 233              		.cfi_remember_state
 234              		.cfi_def_cfa_offset 16
 235              		@ sp needed
 236 0046 70BD     		pop	{r4, r5, r6, pc}
 237              	.LVL26:
 238              	.L9:
 239              	.LCFI7:
 240              		.cfi_restore_state
  70:Device/Dev_MPU6000.c **** 
 241              		.loc 1 70 16 view .LVU65
 242 0048 0025     		movs	r5, #0
 243 004a FAE7     		b	.L8
 244              	.L10:
  70:Device/Dev_MPU6000.c **** 
 245              		.loc 1 70 16 view .LVU66
 246 004c 0025     		movs	r5, #0
 247 004e F8E7     		b	.L8
 248              	.L11:
 249 0050 0025     		movs	r5, #0
 250 0052 F6E7     		b	.L8
 251              		.cfi_endproc
 252              	.LFE1:
ARM GAS  C:\Users\HUAV\AppData\Local\Temp\cc8AWPUm.s 			page 7


 254              		.section	.text.DevMPU6000_Reg_Write,"ax",%progbits
 255              		.align	1
 256              		.syntax unified
 257              		.thumb
 258              		.thumb_func
 259              		.fpu fpv5-d16
 261              	DevMPU6000_Reg_Write:
 262              	.LVL27:
 263              	.LFB2:
  86:Device/Dev_MPU6000.c **** 
  87:Device/Dev_MPU6000.c **** /* MAX Byte I&O Speed 20k */
  88:Device/Dev_MPU6000.c **** static bool DevMPU6000_Reg_Write(DevMPU6000Obj_TypeDef *sensor_obj, uint8_t addr, uint8_t tx)
  89:Device/Dev_MPU6000.c **** {
 264              		.loc 1 89 1 is_stmt 1 view -0
 265              		.cfi_startproc
 266              		@ args = 0, pretend = 0, frame = 8
 267              		@ frame_needed = 0, uses_anonymous_args = 0
 268              		.loc 1 89 1 is_stmt 0 view .LVU68
 269 0000 30B5     		push	{r4, r5, lr}
 270              	.LCFI8:
 271              		.cfi_def_cfa_offset 12
 272              		.cfi_offset 4, -12
 273              		.cfi_offset 5, -8
 274              		.cfi_offset 14, -4
 275 0002 83B0     		sub	sp, sp, #12
 276              	.LCFI9:
 277              		.cfi_def_cfa_offset 24
  90:Device/Dev_MPU6000.c ****     uint8_t write_buff[2] = {0};
 278              		.loc 1 90 5 is_stmt 1 view .LVU69
 279              		.loc 1 90 13 is_stmt 0 view .LVU70
 280 0004 0023     		movs	r3, #0
  91:Device/Dev_MPU6000.c ****     uint8_t read_buff[2] = {0};
 281              		.loc 1 91 5 is_stmt 1 view .LVU71
 282              		.loc 1 91 13 is_stmt 0 view .LVU72
 283 0006 ADF80030 		strh	r3, [sp]	@ movhi
  92:Device/Dev_MPU6000.c ****     bool state = false;
 284              		.loc 1 92 5 is_stmt 1 view .LVU73
 285              	.LVL28:
  93:Device/Dev_MPU6000.c **** 
  94:Device/Dev_MPU6000.c ****     if (sensor_obj == NULL || sensor_obj->cs_ctl == NULL || sensor_obj->bus_trans == NULL)
 286              		.loc 1 94 5 view .LVU74
 287              		.loc 1 94 8 is_stmt 0 view .LVU75
 288 000a B8B1     		cbz	r0, .L15
 289 000c 0446     		mov	r4, r0
 290              		.loc 1 94 41 discriminator 1 view .LVU76
 291 000e 0368     		ldr	r3, [r0]
 292              		.loc 1 94 28 discriminator 1 view .LVU77
 293 0010 B3B1     		cbz	r3, .L16
 294              		.loc 1 94 71 discriminator 2 view .LVU78
 295 0012 4368     		ldr	r3, [r0, #4]
 296              		.loc 1 94 58 discriminator 2 view .LVU79
 297 0014 B3B1     		cbz	r3, .L17
  95:Device/Dev_MPU6000.c ****         return false;
  96:Device/Dev_MPU6000.c **** 
  97:Device/Dev_MPU6000.c ****     write_buff[0] = addr;
 298              		.loc 1 97 5 is_stmt 1 view .LVU80
 299              		.loc 1 97 19 is_stmt 0 view .LVU81
ARM GAS  C:\Users\HUAV\AppData\Local\Temp\cc8AWPUm.s 			page 8


 300 0016 8DF80410 		strb	r1, [sp, #4]
  98:Device/Dev_MPU6000.c ****     write_buff[1] = tx;
 301              		.loc 1 98 5 is_stmt 1 view .LVU82
 302              		.loc 1 98 19 is_stmt 0 view .LVU83
 303 001a 8DF80520 		strb	r2, [sp, #5]
  99:Device/Dev_MPU6000.c **** 
 100:Device/Dev_MPU6000.c ****     /* CS Low */
 101:Device/Dev_MPU6000.c ****     sensor_obj->cs_ctl(false);
 304              		.loc 1 101 5 is_stmt 1 view .LVU84
 305              		.loc 1 101 15 is_stmt 0 view .LVU85
 306 001e 0368     		ldr	r3, [r0]
 307              		.loc 1 101 5 view .LVU86
 308 0020 0020     		movs	r0, #0
 309              	.LVL29:
 310              		.loc 1 101 5 view .LVU87
 311 0022 9847     		blx	r3
 312              	.LVL30:
 102:Device/Dev_MPU6000.c **** 
 103:Device/Dev_MPU6000.c ****     state = sensor_obj->bus_trans(write_buff, read_buff, 2);
 313              		.loc 1 103 5 is_stmt 1 view .LVU88
 314              		.loc 1 103 23 is_stmt 0 view .LVU89
 315 0024 6368     		ldr	r3, [r4, #4]
 316              		.loc 1 103 13 view .LVU90
 317 0026 0222     		movs	r2, #2
 318 0028 6946     		mov	r1, sp
 319 002a 01A8     		add	r0, sp, #4
 320 002c 9847     		blx	r3
 321              	.LVL31:
 322 002e 0546     		mov	r5, r0
 323              	.LVL32:
 104:Device/Dev_MPU6000.c **** 
 105:Device/Dev_MPU6000.c ****     /* CS High */
 106:Device/Dev_MPU6000.c ****     sensor_obj->cs_ctl(true);
 324              		.loc 1 106 5 is_stmt 1 view .LVU91
 325              		.loc 1 106 15 is_stmt 0 view .LVU92
 326 0030 2368     		ldr	r3, [r4]
 327              		.loc 1 106 5 view .LVU93
 328 0032 0120     		movs	r0, #1
 329 0034 9847     		blx	r3
 330              	.LVL33:
 107:Device/Dev_MPU6000.c **** 
 108:Device/Dev_MPU6000.c ****     return state;
 331              		.loc 1 108 5 is_stmt 1 view .LVU94
 332              	.L14:
 109:Device/Dev_MPU6000.c **** }
 333              		.loc 1 109 1 is_stmt 0 view .LVU95
 334 0036 2846     		mov	r0, r5
 335 0038 03B0     		add	sp, sp, #12
 336              	.LCFI10:
 337              		.cfi_remember_state
 338              		.cfi_def_cfa_offset 12
 339              		@ sp needed
 340 003a 30BD     		pop	{r4, r5, pc}
 341              	.LVL34:
 342              	.L15:
 343              	.LCFI11:
 344              		.cfi_restore_state
ARM GAS  C:\Users\HUAV\AppData\Local\Temp\cc8AWPUm.s 			page 9


  95:Device/Dev_MPU6000.c **** 
 345              		.loc 1 95 16 view .LVU96
 346 003c 0025     		movs	r5, #0
 347 003e FAE7     		b	.L14
 348              	.L16:
  95:Device/Dev_MPU6000.c **** 
 349              		.loc 1 95 16 view .LVU97
 350 0040 0025     		movs	r5, #0
 351 0042 F8E7     		b	.L14
 352              	.L17:
 353 0044 0025     		movs	r5, #0
 354 0046 F6E7     		b	.L14
 355              		.cfi_endproc
 356              	.LFE2:
 358              		.section	.text.DevMPU6000_Config,"ax",%progbits
 359              		.align	1
 360              		.syntax unified
 361              		.thumb
 362              		.thumb_func
 363              		.fpu fpv5-d16
 365              	DevMPU6000_Config:
 366              	.LVL35:
 367              	.LFB3:
 110:Device/Dev_MPU6000.c **** 
 111:Device/Dev_MPU6000.c **** static bool DevMPU6000_Config(DevMPU6000Obj_TypeDef *sensor_obj, DevMPU6000_SampleRate_List rate, D
 112:Device/Dev_MPU6000.c **** {
 368              		.loc 1 112 1 is_stmt 1 view -0
 369              		.cfi_startproc
 370              		@ args = 0, pretend = 0, frame = 0
 371              		@ frame_needed = 0, uses_anonymous_args = 0
 372              		@ link register save eliminated.
 373              		.loc 1 112 1 is_stmt 0 view .LVU99
 374 0000 70B4     		push	{r4, r5, r6}
 375              	.LCFI12:
 376              		.cfi_def_cfa_offset 12
 377              		.cfi_offset 4, -12
 378              		.cfi_offset 5, -8
 379              		.cfi_offset 6, -4
 113:Device/Dev_MPU6000.c ****     switch ((uint8_t)sensor_obj->rate)
 380              		.loc 1 113 5 is_stmt 1 view .LVU100
 381              		.loc 1 113 32 is_stmt 0 view .LVU101
 382 0002 457F     		ldrb	r5, [r0, #29]	@ zero_extendqisi2
 383 0004 072D     		cmp	r5, #7
 384 0006 94BF     		ite	ls
 385 0008 0026     		movls	r6, #0
 386 000a 0126     		movhi	r6, #1
 387 000c 002E     		cmp	r6, #0
 388 000e 35D1     		bne	.L33
 389 0010 0446     		mov	r4, r0
 390 0012 0120     		movs	r0, #1
 391              	.LVL36:
 392              		.loc 1 113 32 view .LVU102
 393 0014 A840     		lsls	r0, r0, r5
 394 0016 10F08B0F 		tst	r0, #139
 395 001a 14BF     		ite	ne
 396 001c 0120     		movne	r0, #1
 397 001e 0020     		moveq	r0, #0
ARM GAS  C:\Users\HUAV\AppData\Local\Temp\cc8AWPUm.s 			page 10


 398 0020 21D0     		beq	.L20
 114:Device/Dev_MPU6000.c ****     {
 115:Device/Dev_MPU6000.c ****     case MPU6000_SampleRate_8K:
 116:Device/Dev_MPU6000.c ****     case MPU6000_SampleRate_4K:
 117:Device/Dev_MPU6000.c ****     case MPU6000_SampleRate_2K:
 118:Device/Dev_MPU6000.c ****     case MPU6000_SampleRate_1K:
 119:Device/Dev_MPU6000.c ****         break;
 399              		.loc 1 119 9 is_stmt 1 view .LVU103
 120:Device/Dev_MPU6000.c **** 
 121:Device/Dev_MPU6000.c ****     default:
 122:Device/Dev_MPU6000.c ****         return false;
 123:Device/Dev_MPU6000.c ****     }
 124:Device/Dev_MPU6000.c **** 
 125:Device/Dev_MPU6000.c ****     sensor_obj->rate = rate;
 400              		.loc 1 125 5 view .LVU104
 401              		.loc 1 125 22 is_stmt 0 view .LVU105
 402 0022 6177     		strb	r1, [r4, #29]
 126:Device/Dev_MPU6000.c **** 
 127:Device/Dev_MPU6000.c ****     switch ((uint8_t)AccTrip)
 403              		.loc 1 127 5 is_stmt 1 view .LVU106
 404 0024 032A     		cmp	r2, #3
 405 0026 2BD8     		bhi	.L34
 406 0028 DFE802F0 		tbb	[pc, r2]
 407              	.LVL37:
 408              	.L22:
 409 002c 02       		.byte	(.L25-.L22)/2
 410 002d 0B       		.byte	(.L24-.L22)/2
 411 002e 0F       		.byte	(.L23-.L22)/2
 412 002f 13       		.byte	(.L21-.L22)/2
 413              		.p2align 1
 414              	.L25:
 128:Device/Dev_MPU6000.c ****     {
 129:Device/Dev_MPU6000.c ****     case MPU6000_Acc_2G:
 130:Device/Dev_MPU6000.c ****         sensor_obj->acc_scale = MPU6000_ACC_2G_SCALE;
 415              		.loc 1 130 9 view .LVU107
 416              		.loc 1 130 31 is_stmt 0 view .LVU108
 417 0030 4FF08D41 		mov	r1, #1182793728
 418 0034 6161     		str	r1, [r4, #20]	@ float
 131:Device/Dev_MPU6000.c ****         break;
 419              		.loc 1 131 9 is_stmt 1 view .LVU109
 420              	.L26:
 132:Device/Dev_MPU6000.c **** 
 133:Device/Dev_MPU6000.c ****     case MPU6000_Acc_4G:
 134:Device/Dev_MPU6000.c ****         sensor_obj->acc_scale = MPU6000_ACC_4G_SCALE;
 135:Device/Dev_MPU6000.c ****         break;
 136:Device/Dev_MPU6000.c **** 
 137:Device/Dev_MPU6000.c ****     case MPU6000_Acc_8G:
 138:Device/Dev_MPU6000.c ****         sensor_obj->acc_scale = MPU6000_ACC_8G_SCALE;
 139:Device/Dev_MPU6000.c ****         break;
 140:Device/Dev_MPU6000.c **** 
 141:Device/Dev_MPU6000.c ****     case MPU6000_Acc_16G:
 142:Device/Dev_MPU6000.c ****         sensor_obj->acc_scale = MPU6000_ACC_16G_SCALE;
 143:Device/Dev_MPU6000.c ****         break;
 144:Device/Dev_MPU6000.c **** 
 145:Device/Dev_MPU6000.c ****     default:
 146:Device/Dev_MPU6000.c ****         return false;
 147:Device/Dev_MPU6000.c ****     }
ARM GAS  C:\Users\HUAV\AppData\Local\Temp\cc8AWPUm.s 			page 11


 148:Device/Dev_MPU6000.c **** 
 149:Device/Dev_MPU6000.c ****     switch ((uint8_t)GyrTrip)
 421              		.loc 1 149 5 view .LVU110
 422 0036 032B     		cmp	r3, #3
 423 0038 24D8     		bhi	.L35
 424 003a DFE803F0 		tbb	[pc, r3]
 425              	.L28:
 426 003e 0E       		.byte	(.L31-.L28)/2
 427 003f 16       		.byte	(.L30-.L28)/2
 428 0040 19       		.byte	(.L29-.L28)/2
 429 0041 1C       		.byte	(.L27-.L28)/2
 430              		.p2align 1
 431              	.L24:
 134:Device/Dev_MPU6000.c ****         break;
 432              		.loc 1 134 9 view .LVU111
 134:Device/Dev_MPU6000.c ****         break;
 433              		.loc 1 134 31 is_stmt 0 view .LVU112
 434 0042 4FF08C41 		mov	r1, #1174405120
 435 0046 6161     		str	r1, [r4, #20]	@ float
 135:Device/Dev_MPU6000.c **** 
 436              		.loc 1 135 9 is_stmt 1 view .LVU113
 437 0048 F5E7     		b	.L26
 438              	.L23:
 138:Device/Dev_MPU6000.c ****         break;
 439              		.loc 1 138 9 view .LVU114
 138:Device/Dev_MPU6000.c ****         break;
 440              		.loc 1 138 31 is_stmt 0 view .LVU115
 441 004a 4FF08B41 		mov	r1, #1166016512
 442 004e 6161     		str	r1, [r4, #20]	@ float
 139:Device/Dev_MPU6000.c **** 
 443              		.loc 1 139 9 is_stmt 1 view .LVU116
 444 0050 F1E7     		b	.L26
 445              	.L21:
 142:Device/Dev_MPU6000.c ****         break;
 446              		.loc 1 142 9 view .LVU117
 142:Device/Dev_MPU6000.c ****         break;
 447              		.loc 1 142 31 is_stmt 0 view .LVU118
 448 0052 4FF08A41 		mov	r1, #1157627904
 449 0056 6161     		str	r1, [r4, #20]	@ float
 143:Device/Dev_MPU6000.c **** 
 450              		.loc 1 143 9 is_stmt 1 view .LVU119
 451 0058 EDE7     		b	.L26
 452              	.L31:
 150:Device/Dev_MPU6000.c ****     {
 151:Device/Dev_MPU6000.c ****     case MPU6000_Gyr_250DPS:
 152:Device/Dev_MPU6000.c ****         sensor_obj->gyr_scale = MPU6000_GYR_250DPS_SCALE;
 453              		.loc 1 152 9 view .LVU120
 454              		.loc 1 152 31 is_stmt 0 view .LVU121
 455 005a 0B49     		ldr	r1, .L37
 456 005c A161     		str	r1, [r4, #24]	@ float
 153:Device/Dev_MPU6000.c ****         break;
 457              		.loc 1 153 9 is_stmt 1 view .LVU122
 458              	.L32:
 154:Device/Dev_MPU6000.c **** 
 155:Device/Dev_MPU6000.c ****     case MPU6000_Gyr_500DPS:
 156:Device/Dev_MPU6000.c ****         sensor_obj->gyr_scale = MPU6000_GYR_500DPS_SCALE;
 157:Device/Dev_MPU6000.c ****         break;
ARM GAS  C:\Users\HUAV\AppData\Local\Temp\cc8AWPUm.s 			page 12


 158:Device/Dev_MPU6000.c **** 
 159:Device/Dev_MPU6000.c ****     case MPU6000_Gyr_1000DPS:
 160:Device/Dev_MPU6000.c ****         sensor_obj->gyr_scale = MPU6000_GYR_1000DPS_SCALE;
 161:Device/Dev_MPU6000.c ****         break;
 162:Device/Dev_MPU6000.c **** 
 163:Device/Dev_MPU6000.c ****     case MPU6000_Gyr_2000DPS:
 164:Device/Dev_MPU6000.c ****         sensor_obj->gyr_scale = MPU6000_GYR_2000DPS_SCALE;
 165:Device/Dev_MPU6000.c ****         break;
 166:Device/Dev_MPU6000.c **** 
 167:Device/Dev_MPU6000.c ****     default:
 168:Device/Dev_MPU6000.c ****         return false;
 169:Device/Dev_MPU6000.c ****     }
 170:Device/Dev_MPU6000.c **** 
 171:Device/Dev_MPU6000.c ****     sensor_obj->AccTrip = ConvertToTrip_Reg(AccTrip);
 459              		.loc 1 171 5 view .LVU123
 460              		.loc 1 171 27 is_stmt 0 view .LVU124
 461 005e D200     		lsls	r2, r2, #3
 462              	.LVL38:
 463              		.loc 1 171 25 view .LVU125
 464 0060 2274     		strb	r2, [r4, #16]
 172:Device/Dev_MPU6000.c ****     sensor_obj->GyrTrip = ConvertToTrip_Reg(GyrTrip);
 465              		.loc 1 172 5 is_stmt 1 view .LVU126
 466              		.loc 1 172 27 is_stmt 0 view .LVU127
 467 0062 DB00     		lsls	r3, r3, #3
 468              	.LVL39:
 469              		.loc 1 172 25 view .LVU128
 470 0064 6374     		strb	r3, [r4, #17]
 173:Device/Dev_MPU6000.c **** 
 174:Device/Dev_MPU6000.c ****     return true;
 471              		.loc 1 174 5 is_stmt 1 view .LVU129
 472              	.LVL40:
 473              	.L20:
 175:Device/Dev_MPU6000.c **** }
 474              		.loc 1 175 1 is_stmt 0 view .LVU130
 475 0066 70BC     		pop	{r4, r5, r6}
 476              	.LCFI13:
 477              		.cfi_remember_state
 478              		.cfi_restore 6
 479              		.cfi_restore 5
 480              		.cfi_restore 4
 481              		.cfi_def_cfa_offset 0
 482 0068 7047     		bx	lr
 483              	.LVL41:
 484              	.L30:
 485              	.LCFI14:
 486              		.cfi_restore_state
 156:Device/Dev_MPU6000.c ****         break;
 487              		.loc 1 156 9 is_stmt 1 view .LVU131
 156:Device/Dev_MPU6000.c ****         break;
 488              		.loc 1 156 31 is_stmt 0 view .LVU132
 489 006a 0849     		ldr	r1, .L37+4
 490 006c A161     		str	r1, [r4, #24]	@ float
 157:Device/Dev_MPU6000.c **** 
 491              		.loc 1 157 9 is_stmt 1 view .LVU133
 492 006e F6E7     		b	.L32
 493              	.L29:
 160:Device/Dev_MPU6000.c ****         break;
ARM GAS  C:\Users\HUAV\AppData\Local\Temp\cc8AWPUm.s 			page 13


 494              		.loc 1 160 9 view .LVU134
 160:Device/Dev_MPU6000.c ****         break;
 495              		.loc 1 160 31 is_stmt 0 view .LVU135
 496 0070 0749     		ldr	r1, .L37+8
 497 0072 A161     		str	r1, [r4, #24]	@ float
 161:Device/Dev_MPU6000.c **** 
 498              		.loc 1 161 9 is_stmt 1 view .LVU136
 499 0074 F3E7     		b	.L32
 500              	.L27:
 164:Device/Dev_MPU6000.c ****         break;
 501              		.loc 1 164 9 view .LVU137
 164:Device/Dev_MPU6000.c ****         break;
 502              		.loc 1 164 31 is_stmt 0 view .LVU138
 503 0076 0749     		ldr	r1, .L37+12
 504 0078 A161     		str	r1, [r4, #24]	@ float
 165:Device/Dev_MPU6000.c **** 
 505              		.loc 1 165 9 is_stmt 1 view .LVU139
 506 007a F0E7     		b	.L32
 507              	.LVL42:
 508              	.L33:
 113:Device/Dev_MPU6000.c ****     {
 509              		.loc 1 113 32 is_stmt 0 view .LVU140
 510 007c 0020     		movs	r0, #0
 511              	.LVL43:
 113:Device/Dev_MPU6000.c ****     {
 512              		.loc 1 113 32 view .LVU141
 513 007e F2E7     		b	.L20
 514              	.LVL44:
 515              	.L34:
 125:Device/Dev_MPU6000.c **** 
 516              		.loc 1 125 22 view .LVU142
 517 0080 3046     		mov	r0, r6
 518 0082 F0E7     		b	.L20
 519              	.L35:
 113:Device/Dev_MPU6000.c ****     {
 520              		.loc 1 113 32 view .LVU143
 521 0084 3046     		mov	r0, r6
 522 0086 EEE7     		b	.L20
 523              	.L38:
 524              		.align	2
 525              	.L37:
 526 0088 00000343 		.word	1124270080
 527 008c 00008342 		.word	1115881472
 528 0090 33330342 		.word	1107505971
 529 0094 33338341 		.word	1099117363
 530              		.cfi_endproc
 531              	.LFE3:
 533              		.section	.text.DevMPU6000_PreInit,"ax",%progbits
 534              		.align	1
 535              		.syntax unified
 536              		.thumb
 537              		.thumb_func
 538              		.fpu fpv5-d16
 540              	DevMPU6000_PreInit:
 541              	.LVL45:
 542              	.LFB4:
 176:Device/Dev_MPU6000.c **** 
ARM GAS  C:\Users\HUAV\AppData\Local\Temp\cc8AWPUm.s 			page 14


 177:Device/Dev_MPU6000.c **** static void DevMPU6000_PreInit(DevMPU6000Obj_TypeDef *sensor_obj,
 178:Device/Dev_MPU6000.c ****                                cs_ctl_callback cs_ctl,
 179:Device/Dev_MPU6000.c ****                                bus_trans_callback bus_trans,
 180:Device/Dev_MPU6000.c ****                                delay_callback delay,
 181:Device/Dev_MPU6000.c ****                                get_time_stamp_callback get_time_stamp)
 182:Device/Dev_MPU6000.c **** {
 543              		.loc 1 182 1 is_stmt 1 view -0
 544              		.cfi_startproc
 545              		@ args = 4, pretend = 0, frame = 0
 546              		@ frame_needed = 0, uses_anonymous_args = 0
 547              		@ link register save eliminated.
 183:Device/Dev_MPU6000.c ****     sensor_obj->cs_ctl = cs_ctl;
 548              		.loc 1 183 5 view .LVU145
 549              		.loc 1 183 24 is_stmt 0 view .LVU146
 550 0000 0160     		str	r1, [r0]
 184:Device/Dev_MPU6000.c ****     sensor_obj->bus_trans = bus_trans;
 551              		.loc 1 184 5 is_stmt 1 view .LVU147
 552              		.loc 1 184 27 is_stmt 0 view .LVU148
 553 0002 4260     		str	r2, [r0, #4]
 185:Device/Dev_MPU6000.c ****     sensor_obj->delay = delay;
 554              		.loc 1 185 5 is_stmt 1 view .LVU149
 555              		.loc 1 185 23 is_stmt 0 view .LVU150
 556 0004 8360     		str	r3, [r0, #8]
 186:Device/Dev_MPU6000.c ****     sensor_obj->get_timestamp = get_time_stamp;
 557              		.loc 1 186 5 is_stmt 1 view .LVU151
 558              		.loc 1 186 31 is_stmt 0 view .LVU152
 559 0006 009B     		ldr	r3, [sp]
 560              	.LVL46:
 561              		.loc 1 186 31 view .LVU153
 562 0008 C360     		str	r3, [r0, #12]
 187:Device/Dev_MPU6000.c **** }
 563              		.loc 1 187 1 view .LVU154
 564 000a 7047     		bx	lr
 565              		.cfi_endproc
 566              	.LFE4:
 568              		.section	.text.DevMPU6000_Init,"ax",%progbits
 569              		.align	1
 570              		.syntax unified
 571              		.thumb
 572              		.thumb_func
 573              		.fpu fpv5-d16
 575              	DevMPU6000_Init:
 576              	.LVL47:
 577              	.LFB5:
 188:Device/Dev_MPU6000.c **** 
 189:Device/Dev_MPU6000.c **** static bool DevMPU6000_Init(DevMPU6000Obj_TypeDef *sensor_obj)
 190:Device/Dev_MPU6000.c **** {
 578              		.loc 1 190 1 is_stmt 1 view -0
 579              		.cfi_startproc
 580              		@ args = 0, pretend = 0, frame = 8
 581              		@ frame_needed = 0, uses_anonymous_args = 0
 582              		.loc 1 190 1 is_stmt 0 view .LVU156
 583 0000 30B5     		push	{r4, r5, lr}
 584              	.LCFI15:
 585              		.cfi_def_cfa_offset 12
 586              		.cfi_offset 4, -12
 587              		.cfi_offset 5, -8
ARM GAS  C:\Users\HUAV\AppData\Local\Temp\cc8AWPUm.s 			page 15


 588              		.cfi_offset 14, -4
 589 0002 83B0     		sub	sp, sp, #12
 590              	.LCFI16:
 591              		.cfi_def_cfa_offset 24
 191:Device/Dev_MPU6000.c ****     uint8_t read_out = 0;
 592              		.loc 1 191 5 is_stmt 1 view .LVU157
 593              		.loc 1 191 13 is_stmt 0 view .LVU158
 594 0004 0023     		movs	r3, #0
 595 0006 8DF80730 		strb	r3, [sp, #7]
 192:Device/Dev_MPU6000.c **** 
 193:Device/Dev_MPU6000.c ****     if ((sensor_obj == NULL) ||
 596              		.loc 1 193 5 is_stmt 1 view .LVU159
 597              		.loc 1 193 8 is_stmt 0 view .LVU160
 598 000a 0446     		mov	r4, r0
 599 000c 00B3     		cbz	r0, .L41
 194:Device/Dev_MPU6000.c ****         (sensor_obj->bus_trans == NULL) ||
 600              		.loc 1 194 20 discriminator 1 view .LVU161
 601 000e 4368     		ldr	r3, [r0, #4]
 193:Device/Dev_MPU6000.c ****         (sensor_obj->bus_trans == NULL) ||
 602              		.loc 1 193 30 discriminator 1 view .LVU162
 603 0010 F3B1     		cbz	r3, .L41
 195:Device/Dev_MPU6000.c ****         (sensor_obj->cs_ctl == NULL))
 604              		.loc 1 195 20 view .LVU163
 605 0012 0368     		ldr	r3, [r0]
 194:Device/Dev_MPU6000.c ****         (sensor_obj->bus_trans == NULL) ||
 606              		.loc 1 194 41 view .LVU164
 607 0014 E3B1     		cbz	r3, .L41
 196:Device/Dev_MPU6000.c ****     {
 197:Device/Dev_MPU6000.c ****         sensor_obj->error = MPU6000_Obj_Error;
 198:Device/Dev_MPU6000.c ****         return false;
 199:Device/Dev_MPU6000.c ****     }
 200:Device/Dev_MPU6000.c **** 
 201:Device/Dev_MPU6000.c ****     /* reset power manage register first */
 202:Device/Dev_MPU6000.c ****     if (!DevMPU6000_Reg_Write(sensor_obj, MPU6000_PWR_MGMT_1, BIT_H_RESET))
 608              		.loc 1 202 5 is_stmt 1 view .LVU165
 609              		.loc 1 202 10 is_stmt 0 view .LVU166
 610 0016 8022     		movs	r2, #128
 611 0018 6B21     		movs	r1, #107
 612 001a FFF7FEFF 		bl	DevMPU6000_Reg_Write
 613              	.LVL48:
 614              		.loc 1 202 8 view .LVU167
 615 001e 0546     		mov	r5, r0
 616 0020 E8B1     		cbz	r0, .L57
 203:Device/Dev_MPU6000.c ****     {
 204:Device/Dev_MPU6000.c ****         sensor_obj->error = MPU6000_BusCommunicate_Error;
 205:Device/Dev_MPU6000.c ****         return false;
 206:Device/Dev_MPU6000.c ****     }
 207:Device/Dev_MPU6000.c ****     sensor_obj->delay(15);
 617              		.loc 1 207 5 is_stmt 1 view .LVU168
 618              		.loc 1 207 15 is_stmt 0 view .LVU169
 619 0022 A368     		ldr	r3, [r4, #8]
 620              		.loc 1 207 5 view .LVU170
 621 0024 0F20     		movs	r0, #15
 622 0026 9847     		blx	r3
 623              	.LVL49:
 208:Device/Dev_MPU6000.c **** 
 209:Device/Dev_MPU6000.c ****     if (!DevMPU6000_Reg_Read(sensor_obj, MPU6000_WHOAMI, &read_out))
ARM GAS  C:\Users\HUAV\AppData\Local\Temp\cc8AWPUm.s 			page 16


 624              		.loc 1 209 5 is_stmt 1 view .LVU171
 625              		.loc 1 209 10 is_stmt 0 view .LVU172
 626 0028 0DF10702 		add	r2, sp, #7
 627 002c 7521     		movs	r1, #117
 628 002e 2046     		mov	r0, r4
 629 0030 FFF7FEFF 		bl	DevMPU6000_Reg_Read
 630              	.LVL50:
 631              		.loc 1 209 8 view .LVU173
 632 0034 0546     		mov	r5, r0
 633 0036 B0B1     		cbz	r0, .L58
 210:Device/Dev_MPU6000.c ****     {
 211:Device/Dev_MPU6000.c ****         sensor_obj->error = MPU6000_BusCommunicate_Error;
 212:Device/Dev_MPU6000.c ****         return false;
 213:Device/Dev_MPU6000.c ****     }
 214:Device/Dev_MPU6000.c **** 
 215:Device/Dev_MPU6000.c ****     if (read_out != MPU6000_DEV_ID)
 634              		.loc 1 215 5 is_stmt 1 view .LVU174
 635              		.loc 1 215 18 is_stmt 0 view .LVU175
 636 0038 9DF80730 		ldrb	r3, [sp, #7]	@ zero_extendqisi2
 637              		.loc 1 215 8 view .LVU176
 638 003c 682B     		cmp	r3, #104
 639 003e 16D0     		beq	.L46
 216:Device/Dev_MPU6000.c ****     {
 217:Device/Dev_MPU6000.c ****         sensor_obj->error = MPU6000_DevID_Error;
 640              		.loc 1 217 9 is_stmt 1 view .LVU177
 641              		.loc 1 217 27 is_stmt 0 view .LVU178
 642 0040 0423     		movs	r3, #4
 643 0042 84F86A30 		strb	r3, [r4, #106]
 218:Device/Dev_MPU6000.c ****         sensor_obj->delay(15);
 644              		.loc 1 218 9 is_stmt 1 view .LVU179
 645              		.loc 1 218 19 is_stmt 0 view .LVU180
 646 0046 A368     		ldr	r3, [r4, #8]
 647              		.loc 1 218 9 view .LVU181
 648 0048 0F20     		movs	r0, #15
 649 004a 9847     		blx	r3
 650              	.LVL51:
 219:Device/Dev_MPU6000.c ****         return false;
 651              		.loc 1 219 9 is_stmt 1 view .LVU182
 652              		.loc 1 219 16 is_stmt 0 view .LVU183
 653 004c 0025     		movs	r5, #0
 654 004e 03E0     		b	.L43
 655              	.LVL52:
 656              	.L41:
 197:Device/Dev_MPU6000.c ****         return false;
 657              		.loc 1 197 9 is_stmt 1 view .LVU184
 197:Device/Dev_MPU6000.c ****         return false;
 658              		.loc 1 197 27 is_stmt 0 view .LVU185
 659 0050 0123     		movs	r3, #1
 660 0052 84F86A30 		strb	r3, [r4, #106]
 198:Device/Dev_MPU6000.c ****     }
 661              		.loc 1 198 9 is_stmt 1 view .LVU186
 198:Device/Dev_MPU6000.c ****     }
 662              		.loc 1 198 16 is_stmt 0 view .LVU187
 663 0056 0025     		movs	r5, #0
 664              	.LVL53:
 665              	.L43:
 220:Device/Dev_MPU6000.c ****     }
ARM GAS  C:\Users\HUAV\AppData\Local\Temp\cc8AWPUm.s 			page 17


 221:Device/Dev_MPU6000.c **** 
 222:Device/Dev_MPU6000.c ****     if (!DevMPU6000_Reg_Write(sensor_obj, MPU6000_SIGNAL_PATH_RESET, BIT_GYRO | BIT_ACC | BIT_TEMP)
 223:Device/Dev_MPU6000.c ****     {
 224:Device/Dev_MPU6000.c ****         sensor_obj->error = MPU6000_SignalPathReset_Error;
 225:Device/Dev_MPU6000.c ****         return false;
 226:Device/Dev_MPU6000.c ****     }
 227:Device/Dev_MPU6000.c ****     sensor_obj->delay(15);
 228:Device/Dev_MPU6000.c **** 
 229:Device/Dev_MPU6000.c ****     /* Clock Source PPL with Z axis gyro reference */
 230:Device/Dev_MPU6000.c ****     if (!DevMPU6000_Reg_Write(sensor_obj, MPU6000_PWR_MGMT_1, MPU_CLK_SEL_PLLGYROZ))
 231:Device/Dev_MPU6000.c ****     {
 232:Device/Dev_MPU6000.c ****         sensor_obj->error = MPU6000_SignalPathReset_Error;
 233:Device/Dev_MPU6000.c ****         return false;
 234:Device/Dev_MPU6000.c ****     }
 235:Device/Dev_MPU6000.c ****     sensor_obj->delay(15);
 236:Device/Dev_MPU6000.c **** 
 237:Device/Dev_MPU6000.c ****     /* Disable Primary I2C Interface */
 238:Device/Dev_MPU6000.c ****     if (!DevMPU6000_Reg_Write(sensor_obj, MPU6000_USER_CTRL, BIT_I2C_IF_DIS))
 239:Device/Dev_MPU6000.c ****     {
 240:Device/Dev_MPU6000.c ****         sensor_obj->error = MPU6000_DisableI2C_Error;
 241:Device/Dev_MPU6000.c ****         return false;
 242:Device/Dev_MPU6000.c ****     }
 243:Device/Dev_MPU6000.c ****     sensor_obj->delay(15);
 244:Device/Dev_MPU6000.c **** 
 245:Device/Dev_MPU6000.c ****     if (!DevMPU6000_Reg_Write(sensor_obj, MPU6000_PWR_MGMT_2, 0x00))
 246:Device/Dev_MPU6000.c ****     {
 247:Device/Dev_MPU6000.c ****         sensor_obj->error = MPU6000_PWRMNG2_Set_Error;
 248:Device/Dev_MPU6000.c ****         return false;
 249:Device/Dev_MPU6000.c ****     }
 250:Device/Dev_MPU6000.c ****     sensor_obj->delay(15);
 251:Device/Dev_MPU6000.c **** 
 252:Device/Dev_MPU6000.c ****     if (!DevMPU6000_Reg_Write(sensor_obj, MPU6000_SMPLRT_DIV, sensor_obj->rate))
 253:Device/Dev_MPU6000.c ****     {
 254:Device/Dev_MPU6000.c ****         sensor_obj->error = MPU6000_DIV_Set_Error;
 255:Device/Dev_MPU6000.c ****         return false;
 256:Device/Dev_MPU6000.c ****     }
 257:Device/Dev_MPU6000.c ****     sensor_obj->delay(15);
 258:Device/Dev_MPU6000.c **** 
 259:Device/Dev_MPU6000.c ****     /* set gyro range 2000dps */
 260:Device/Dev_MPU6000.c ****     if (!DevMPU6000_Reg_Write(sensor_obj, MPU6000_GYRO_CONFIG, sensor_obj->GyrTrip))
 261:Device/Dev_MPU6000.c ****     {
 262:Device/Dev_MPU6000.c ****         sensor_obj->error = MPU6000_Gyr_Cfg_Error;
 263:Device/Dev_MPU6000.c ****         return false;
 264:Device/Dev_MPU6000.c ****     }
 265:Device/Dev_MPU6000.c ****     sensor_obj->delay(15);
 266:Device/Dev_MPU6000.c **** 
 267:Device/Dev_MPU6000.c ****     /* set acc range 16G */
 268:Device/Dev_MPU6000.c ****     if (!DevMPU6000_Reg_Write(sensor_obj, MPU6000_ACCEL_CONFIG, sensor_obj->AccTrip))
 269:Device/Dev_MPU6000.c ****     {
 270:Device/Dev_MPU6000.c ****         sensor_obj->error = MPU6000_Acc_Cfg_Error;
 271:Device/Dev_MPU6000.c ****         return false;
 272:Device/Dev_MPU6000.c ****     }
 273:Device/Dev_MPU6000.c ****     sensor_obj->delay(15);
 274:Device/Dev_MPU6000.c **** 
 275:Device/Dev_MPU6000.c ****     /* interrupt pin config */
 276:Device/Dev_MPU6000.c ****     if (!DevMPU6000_Reg_Write(sensor_obj, MPU6000_INT_PIN_CFG, 0 << 7 | 0 << 6 | 0 << 5 | 1 << 4 | 
 277:Device/Dev_MPU6000.c ****     {
ARM GAS  C:\Users\HUAV\AppData\Local\Temp\cc8AWPUm.s 			page 18


 278:Device/Dev_MPU6000.c ****         sensor_obj->error = MPU6000_IntPin_Set_Error;
 279:Device/Dev_MPU6000.c ****         return false;
 280:Device/Dev_MPU6000.c ****     }
 281:Device/Dev_MPU6000.c ****     sensor_obj->delay(15);
 282:Device/Dev_MPU6000.c **** 
 283:Device/Dev_MPU6000.c ****     /* enable interrupt */
 284:Device/Dev_MPU6000.c ****     if (!DevMPU6000_Reg_Write(sensor_obj, MPU6000_INT_ENABLE, MPU_RF_DATA_RDY_EN))
 285:Device/Dev_MPU6000.c ****     {
 286:Device/Dev_MPU6000.c ****         sensor_obj->error = MPU6000_EnableInt_Error;
 287:Device/Dev_MPU6000.c ****         return false;
 288:Device/Dev_MPU6000.c ****     }
 289:Device/Dev_MPU6000.c ****     sensor_obj->delay(15);
 290:Device/Dev_MPU6000.c **** 
 291:Device/Dev_MPU6000.c ****     sensor_obj->error = MPU6000_No_Error;
 292:Device/Dev_MPU6000.c ****     return true;
 293:Device/Dev_MPU6000.c **** }
 666              		.loc 1 293 1 view .LVU188
 667 0058 2846     		mov	r0, r5
 668 005a 03B0     		add	sp, sp, #12
 669              	.LCFI17:
 670              		.cfi_remember_state
 671              		.cfi_def_cfa_offset 12
 672              		@ sp needed
 673 005c 30BD     		pop	{r4, r5, pc}
 674              	.LVL54:
 675              	.L57:
 676              	.LCFI18:
 677              		.cfi_restore_state
 204:Device/Dev_MPU6000.c ****         return false;
 678              		.loc 1 204 9 is_stmt 1 view .LVU189
 204:Device/Dev_MPU6000.c ****         return false;
 679              		.loc 1 204 27 is_stmt 0 view .LVU190
 680 005e 0323     		movs	r3, #3
 681 0060 84F86A30 		strb	r3, [r4, #106]
 205:Device/Dev_MPU6000.c ****     }
 682              		.loc 1 205 9 is_stmt 1 view .LVU191
 205:Device/Dev_MPU6000.c ****     }
 683              		.loc 1 205 16 is_stmt 0 view .LVU192
 684 0064 F8E7     		b	.L43
 685              	.L58:
 211:Device/Dev_MPU6000.c ****         return false;
 686              		.loc 1 211 9 is_stmt 1 view .LVU193
 211:Device/Dev_MPU6000.c ****         return false;
 687              		.loc 1 211 27 is_stmt 0 view .LVU194
 688 0066 0323     		movs	r3, #3
 689 0068 84F86A30 		strb	r3, [r4, #106]
 212:Device/Dev_MPU6000.c ****     }
 690              		.loc 1 212 9 is_stmt 1 view .LVU195
 212:Device/Dev_MPU6000.c ****     }
 691              		.loc 1 212 16 is_stmt 0 view .LVU196
 692 006c F4E7     		b	.L43
 693              	.L46:
 222:Device/Dev_MPU6000.c ****     {
 694              		.loc 1 222 5 is_stmt 1 view .LVU197
 222:Device/Dev_MPU6000.c ****     {
 695              		.loc 1 222 10 is_stmt 0 view .LVU198
 696 006e 0322     		movs	r2, #3
ARM GAS  C:\Users\HUAV\AppData\Local\Temp\cc8AWPUm.s 			page 19


 697 0070 6821     		movs	r1, #104
 698 0072 2046     		mov	r0, r4
 699 0074 FFF7FEFF 		bl	DevMPU6000_Reg_Write
 700              	.LVL55:
 222:Device/Dev_MPU6000.c ****     {
 701              		.loc 1 222 8 view .LVU199
 702 0078 0546     		mov	r5, r0
 703 007a 0028     		cmp	r0, #0
 704 007c 5BD0     		beq	.L59
 227:Device/Dev_MPU6000.c **** 
 705              		.loc 1 227 5 is_stmt 1 view .LVU200
 227:Device/Dev_MPU6000.c **** 
 706              		.loc 1 227 15 is_stmt 0 view .LVU201
 707 007e A368     		ldr	r3, [r4, #8]
 227:Device/Dev_MPU6000.c **** 
 708              		.loc 1 227 5 view .LVU202
 709 0080 0F20     		movs	r0, #15
 710 0082 9847     		blx	r3
 711              	.LVL56:
 230:Device/Dev_MPU6000.c ****     {
 712              		.loc 1 230 5 is_stmt 1 view .LVU203
 230:Device/Dev_MPU6000.c ****     {
 713              		.loc 1 230 10 is_stmt 0 view .LVU204
 714 0084 0322     		movs	r2, #3
 715 0086 6B21     		movs	r1, #107
 716 0088 2046     		mov	r0, r4
 717 008a FFF7FEFF 		bl	DevMPU6000_Reg_Write
 718              	.LVL57:
 230:Device/Dev_MPU6000.c ****     {
 719              		.loc 1 230 8 view .LVU205
 720 008e 0546     		mov	r5, r0
 721 0090 0028     		cmp	r0, #0
 722 0092 54D0     		beq	.L60
 235:Device/Dev_MPU6000.c **** 
 723              		.loc 1 235 5 is_stmt 1 view .LVU206
 235:Device/Dev_MPU6000.c **** 
 724              		.loc 1 235 15 is_stmt 0 view .LVU207
 725 0094 A368     		ldr	r3, [r4, #8]
 235:Device/Dev_MPU6000.c **** 
 726              		.loc 1 235 5 view .LVU208
 727 0096 0F20     		movs	r0, #15
 728 0098 9847     		blx	r3
 729              	.LVL58:
 238:Device/Dev_MPU6000.c ****     {
 730              		.loc 1 238 5 is_stmt 1 view .LVU209
 238:Device/Dev_MPU6000.c ****     {
 731              		.loc 1 238 10 is_stmt 0 view .LVU210
 732 009a 1022     		movs	r2, #16
 733 009c 6A21     		movs	r1, #106
 734 009e 2046     		mov	r0, r4
 735 00a0 FFF7FEFF 		bl	DevMPU6000_Reg_Write
 736              	.LVL59:
 238:Device/Dev_MPU6000.c ****     {
 737              		.loc 1 238 8 view .LVU211
 738 00a4 0546     		mov	r5, r0
 739 00a6 0028     		cmp	r0, #0
 740 00a8 4DD0     		beq	.L61
ARM GAS  C:\Users\HUAV\AppData\Local\Temp\cc8AWPUm.s 			page 20


 243:Device/Dev_MPU6000.c **** 
 741              		.loc 1 243 5 is_stmt 1 view .LVU212
 243:Device/Dev_MPU6000.c **** 
 742              		.loc 1 243 15 is_stmt 0 view .LVU213
 743 00aa A368     		ldr	r3, [r4, #8]
 243:Device/Dev_MPU6000.c **** 
 744              		.loc 1 243 5 view .LVU214
 745 00ac 0F20     		movs	r0, #15
 746 00ae 9847     		blx	r3
 747              	.LVL60:
 245:Device/Dev_MPU6000.c ****     {
 748              		.loc 1 245 5 is_stmt 1 view .LVU215
 245:Device/Dev_MPU6000.c ****     {
 749              		.loc 1 245 10 is_stmt 0 view .LVU216
 750 00b0 0022     		movs	r2, #0
 751 00b2 6C21     		movs	r1, #108
 752 00b4 2046     		mov	r0, r4
 753 00b6 FFF7FEFF 		bl	DevMPU6000_Reg_Write
 754              	.LVL61:
 245:Device/Dev_MPU6000.c ****     {
 755              		.loc 1 245 8 view .LVU217
 756 00ba 0546     		mov	r5, r0
 757 00bc 0028     		cmp	r0, #0
 758 00be 46D0     		beq	.L62
 250:Device/Dev_MPU6000.c **** 
 759              		.loc 1 250 5 is_stmt 1 view .LVU218
 250:Device/Dev_MPU6000.c **** 
 760              		.loc 1 250 15 is_stmt 0 view .LVU219
 761 00c0 A368     		ldr	r3, [r4, #8]
 250:Device/Dev_MPU6000.c **** 
 762              		.loc 1 250 5 view .LVU220
 763 00c2 0F20     		movs	r0, #15
 764 00c4 9847     		blx	r3
 765              	.LVL62:
 252:Device/Dev_MPU6000.c ****     {
 766              		.loc 1 252 5 is_stmt 1 view .LVU221
 252:Device/Dev_MPU6000.c ****     {
 767              		.loc 1 252 10 is_stmt 0 view .LVU222
 768 00c6 627F     		ldrb	r2, [r4, #29]	@ zero_extendqisi2
 769 00c8 1921     		movs	r1, #25
 770 00ca 2046     		mov	r0, r4
 771 00cc FFF7FEFF 		bl	DevMPU6000_Reg_Write
 772              	.LVL63:
 252:Device/Dev_MPU6000.c ****     {
 773              		.loc 1 252 8 view .LVU223
 774 00d0 0546     		mov	r5, r0
 775 00d2 0028     		cmp	r0, #0
 776 00d4 3FD0     		beq	.L63
 257:Device/Dev_MPU6000.c **** 
 777              		.loc 1 257 5 is_stmt 1 view .LVU224
 257:Device/Dev_MPU6000.c **** 
 778              		.loc 1 257 15 is_stmt 0 view .LVU225
 779 00d6 A368     		ldr	r3, [r4, #8]
 257:Device/Dev_MPU6000.c **** 
 780              		.loc 1 257 5 view .LVU226
 781 00d8 0F20     		movs	r0, #15
 782 00da 9847     		blx	r3
ARM GAS  C:\Users\HUAV\AppData\Local\Temp\cc8AWPUm.s 			page 21


 783              	.LVL64:
 260:Device/Dev_MPU6000.c ****     {
 784              		.loc 1 260 5 is_stmt 1 view .LVU227
 260:Device/Dev_MPU6000.c ****     {
 785              		.loc 1 260 10 is_stmt 0 view .LVU228
 786 00dc 627C     		ldrb	r2, [r4, #17]	@ zero_extendqisi2
 787 00de 1B21     		movs	r1, #27
 788 00e0 2046     		mov	r0, r4
 789 00e2 FFF7FEFF 		bl	DevMPU6000_Reg_Write
 790              	.LVL65:
 260:Device/Dev_MPU6000.c ****     {
 791              		.loc 1 260 8 view .LVU229
 792 00e6 0546     		mov	r5, r0
 793 00e8 0028     		cmp	r0, #0
 794 00ea 38D0     		beq	.L64
 265:Device/Dev_MPU6000.c **** 
 795              		.loc 1 265 5 is_stmt 1 view .LVU230
 265:Device/Dev_MPU6000.c **** 
 796              		.loc 1 265 15 is_stmt 0 view .LVU231
 797 00ec A368     		ldr	r3, [r4, #8]
 265:Device/Dev_MPU6000.c **** 
 798              		.loc 1 265 5 view .LVU232
 799 00ee 0F20     		movs	r0, #15
 800 00f0 9847     		blx	r3
 801              	.LVL66:
 268:Device/Dev_MPU6000.c ****     {
 802              		.loc 1 268 5 is_stmt 1 view .LVU233
 268:Device/Dev_MPU6000.c ****     {
 803              		.loc 1 268 10 is_stmt 0 view .LVU234
 804 00f2 227C     		ldrb	r2, [r4, #16]	@ zero_extendqisi2
 805 00f4 1C21     		movs	r1, #28
 806 00f6 2046     		mov	r0, r4
 807 00f8 FFF7FEFF 		bl	DevMPU6000_Reg_Write
 808              	.LVL67:
 268:Device/Dev_MPU6000.c ****     {
 809              		.loc 1 268 8 view .LVU235
 810 00fc 0546     		mov	r5, r0
 811 00fe 90B3     		cbz	r0, .L65
 273:Device/Dev_MPU6000.c **** 
 812              		.loc 1 273 5 is_stmt 1 view .LVU236
 273:Device/Dev_MPU6000.c **** 
 813              		.loc 1 273 15 is_stmt 0 view .LVU237
 814 0100 A368     		ldr	r3, [r4, #8]
 273:Device/Dev_MPU6000.c **** 
 815              		.loc 1 273 5 view .LVU238
 816 0102 0F20     		movs	r0, #15
 817 0104 9847     		blx	r3
 818              	.LVL68:
 276:Device/Dev_MPU6000.c ****     {
 819              		.loc 1 276 5 is_stmt 1 view .LVU239
 276:Device/Dev_MPU6000.c ****     {
 820              		.loc 1 276 10 is_stmt 0 view .LVU240
 821 0106 1022     		movs	r2, #16
 822 0108 3721     		movs	r1, #55
 823 010a 2046     		mov	r0, r4
 824 010c FFF7FEFF 		bl	DevMPU6000_Reg_Write
 825              	.LVL69:
ARM GAS  C:\Users\HUAV\AppData\Local\Temp\cc8AWPUm.s 			page 22


 276:Device/Dev_MPU6000.c ****     {
 826              		.loc 1 276 8 view .LVU241
 827 0110 0546     		mov	r5, r0
 828 0112 60B3     		cbz	r0, .L66
 281:Device/Dev_MPU6000.c **** 
 829              		.loc 1 281 5 is_stmt 1 view .LVU242
 281:Device/Dev_MPU6000.c **** 
 830              		.loc 1 281 15 is_stmt 0 view .LVU243
 831 0114 A368     		ldr	r3, [r4, #8]
 281:Device/Dev_MPU6000.c **** 
 832              		.loc 1 281 5 view .LVU244
 833 0116 0F20     		movs	r0, #15
 834 0118 9847     		blx	r3
 835              	.LVL70:
 284:Device/Dev_MPU6000.c ****     {
 836              		.loc 1 284 5 is_stmt 1 view .LVU245
 284:Device/Dev_MPU6000.c ****     {
 837              		.loc 1 284 10 is_stmt 0 view .LVU246
 838 011a 0122     		movs	r2, #1
 839 011c 3821     		movs	r1, #56
 840 011e 2046     		mov	r0, r4
 841 0120 FFF7FEFF 		bl	DevMPU6000_Reg_Write
 842              	.LVL71:
 284:Device/Dev_MPU6000.c ****     {
 843              		.loc 1 284 8 view .LVU247
 844 0124 0546     		mov	r5, r0
 845 0126 30B3     		cbz	r0, .L67
 289:Device/Dev_MPU6000.c **** 
 846              		.loc 1 289 5 is_stmt 1 view .LVU248
 289:Device/Dev_MPU6000.c **** 
 847              		.loc 1 289 15 is_stmt 0 view .LVU249
 848 0128 A368     		ldr	r3, [r4, #8]
 289:Device/Dev_MPU6000.c **** 
 849              		.loc 1 289 5 view .LVU250
 850 012a 0F20     		movs	r0, #15
 851 012c 9847     		blx	r3
 852              	.LVL72:
 291:Device/Dev_MPU6000.c ****     return true;
 853              		.loc 1 291 5 is_stmt 1 view .LVU251
 291:Device/Dev_MPU6000.c ****     return true;
 854              		.loc 1 291 23 is_stmt 0 view .LVU252
 855 012e 0023     		movs	r3, #0
 856 0130 84F86A30 		strb	r3, [r4, #106]
 292:Device/Dev_MPU6000.c **** }
 857              		.loc 1 292 5 is_stmt 1 view .LVU253
 292:Device/Dev_MPU6000.c **** }
 858              		.loc 1 292 12 is_stmt 0 view .LVU254
 859 0134 90E7     		b	.L43
 860              	.L59:
 224:Device/Dev_MPU6000.c ****         return false;
 861              		.loc 1 224 9 is_stmt 1 view .LVU255
 224:Device/Dev_MPU6000.c ****         return false;
 862              		.loc 1 224 27 is_stmt 0 view .LVU256
 863 0136 0523     		movs	r3, #5
 864 0138 84F86A30 		strb	r3, [r4, #106]
 225:Device/Dev_MPU6000.c ****     }
 865              		.loc 1 225 9 is_stmt 1 view .LVU257
ARM GAS  C:\Users\HUAV\AppData\Local\Temp\cc8AWPUm.s 			page 23


 225:Device/Dev_MPU6000.c ****     }
 866              		.loc 1 225 16 is_stmt 0 view .LVU258
 867 013c 8CE7     		b	.L43
 868              	.L60:
 232:Device/Dev_MPU6000.c ****         return false;
 869              		.loc 1 232 9 is_stmt 1 view .LVU259
 232:Device/Dev_MPU6000.c ****         return false;
 870              		.loc 1 232 27 is_stmt 0 view .LVU260
 871 013e 0523     		movs	r3, #5
 872 0140 84F86A30 		strb	r3, [r4, #106]
 233:Device/Dev_MPU6000.c ****     }
 873              		.loc 1 233 9 is_stmt 1 view .LVU261
 233:Device/Dev_MPU6000.c ****     }
 874              		.loc 1 233 16 is_stmt 0 view .LVU262
 875 0144 88E7     		b	.L43
 876              	.L61:
 240:Device/Dev_MPU6000.c ****         return false;
 877              		.loc 1 240 9 is_stmt 1 view .LVU263
 240:Device/Dev_MPU6000.c ****         return false;
 878              		.loc 1 240 27 is_stmt 0 view .LVU264
 879 0146 0623     		movs	r3, #6
 880 0148 84F86A30 		strb	r3, [r4, #106]
 241:Device/Dev_MPU6000.c ****     }
 881              		.loc 1 241 9 is_stmt 1 view .LVU265
 241:Device/Dev_MPU6000.c ****     }
 882              		.loc 1 241 16 is_stmt 0 view .LVU266
 883 014c 84E7     		b	.L43
 884              	.L62:
 247:Device/Dev_MPU6000.c ****         return false;
 885              		.loc 1 247 9 is_stmt 1 view .LVU267
 247:Device/Dev_MPU6000.c ****         return false;
 886              		.loc 1 247 27 is_stmt 0 view .LVU268
 887 014e 0723     		movs	r3, #7
 888 0150 84F86A30 		strb	r3, [r4, #106]
 248:Device/Dev_MPU6000.c ****     }
 889              		.loc 1 248 9 is_stmt 1 view .LVU269
 248:Device/Dev_MPU6000.c ****     }
 890              		.loc 1 248 16 is_stmt 0 view .LVU270
 891 0154 80E7     		b	.L43
 892              	.L63:
 254:Device/Dev_MPU6000.c ****         return false;
 893              		.loc 1 254 9 is_stmt 1 view .LVU271
 254:Device/Dev_MPU6000.c ****         return false;
 894              		.loc 1 254 27 is_stmt 0 view .LVU272
 895 0156 0823     		movs	r3, #8
 896 0158 84F86A30 		strb	r3, [r4, #106]
 255:Device/Dev_MPU6000.c ****     }
 897              		.loc 1 255 9 is_stmt 1 view .LVU273
 255:Device/Dev_MPU6000.c ****     }
 898              		.loc 1 255 16 is_stmt 0 view .LVU274
 899 015c 7CE7     		b	.L43
 900              	.L64:
 262:Device/Dev_MPU6000.c ****         return false;
 901              		.loc 1 262 9 is_stmt 1 view .LVU275
 262:Device/Dev_MPU6000.c ****         return false;
 902              		.loc 1 262 27 is_stmt 0 view .LVU276
 903 015e 0923     		movs	r3, #9
ARM GAS  C:\Users\HUAV\AppData\Local\Temp\cc8AWPUm.s 			page 24


 904 0160 84F86A30 		strb	r3, [r4, #106]
 263:Device/Dev_MPU6000.c ****     }
 905              		.loc 1 263 9 is_stmt 1 view .LVU277
 263:Device/Dev_MPU6000.c ****     }
 906              		.loc 1 263 16 is_stmt 0 view .LVU278
 907 0164 78E7     		b	.L43
 908              	.L65:
 270:Device/Dev_MPU6000.c ****         return false;
 909              		.loc 1 270 9 is_stmt 1 view .LVU279
 270:Device/Dev_MPU6000.c ****         return false;
 910              		.loc 1 270 27 is_stmt 0 view .LVU280
 911 0166 0A23     		movs	r3, #10
 912 0168 84F86A30 		strb	r3, [r4, #106]
 271:Device/Dev_MPU6000.c ****     }
 913              		.loc 1 271 9 is_stmt 1 view .LVU281
 271:Device/Dev_MPU6000.c ****     }
 914              		.loc 1 271 16 is_stmt 0 view .LVU282
 915 016c 74E7     		b	.L43
 916              	.L66:
 278:Device/Dev_MPU6000.c ****         return false;
 917              		.loc 1 278 9 is_stmt 1 view .LVU283
 278:Device/Dev_MPU6000.c ****         return false;
 918              		.loc 1 278 27 is_stmt 0 view .LVU284
 919 016e 0B23     		movs	r3, #11
 920 0170 84F86A30 		strb	r3, [r4, #106]
 279:Device/Dev_MPU6000.c ****     }
 921              		.loc 1 279 9 is_stmt 1 view .LVU285
 279:Device/Dev_MPU6000.c ****     }
 922              		.loc 1 279 16 is_stmt 0 view .LVU286
 923 0174 70E7     		b	.L43
 924              	.L67:
 286:Device/Dev_MPU6000.c ****         return false;
 925              		.loc 1 286 9 is_stmt 1 view .LVU287
 286:Device/Dev_MPU6000.c ****         return false;
 926              		.loc 1 286 27 is_stmt 0 view .LVU288
 927 0176 0C23     		movs	r3, #12
 928 0178 84F86A30 		strb	r3, [r4, #106]
 287:Device/Dev_MPU6000.c ****     }
 929              		.loc 1 287 9 is_stmt 1 view .LVU289
 287:Device/Dev_MPU6000.c ****     }
 930              		.loc 1 287 16 is_stmt 0 view .LVU290
 931 017c 6CE7     		b	.L43
 932              		.cfi_endproc
 933              	.LFE5:
 935              		.section	.text.DevMPU6000_Get_InitError,"ax",%progbits
 936              		.align	1
 937              		.syntax unified
 938              		.thumb
 939              		.thumb_func
 940              		.fpu fpv5-d16
 942              	DevMPU6000_Get_InitError:
 943              	.LVL73:
 944              	.LFB6:
 294:Device/Dev_MPU6000.c **** 
 295:Device/Dev_MPU6000.c **** static DevMPU6000_Error_List DevMPU6000_Get_InitError(DevMPU6000Obj_TypeDef *sensor_obj)
 296:Device/Dev_MPU6000.c **** {
 945              		.loc 1 296 1 is_stmt 1 view -0
ARM GAS  C:\Users\HUAV\AppData\Local\Temp\cc8AWPUm.s 			page 25


 946              		.cfi_startproc
 947              		@ args = 0, pretend = 0, frame = 0
 948              		@ frame_needed = 0, uses_anonymous_args = 0
 949              		@ link register save eliminated.
 297:Device/Dev_MPU6000.c ****     return sensor_obj->error;
 950              		.loc 1 297 5 view .LVU292
 298:Device/Dev_MPU6000.c **** }
 951              		.loc 1 298 1 is_stmt 0 view .LVU293
 952 0000 90F86A00 		ldrb	r0, [r0, #106]	@ zero_extendqisi2
 953              	.LVL74:
 954              		.loc 1 298 1 view .LVU294
 955 0004 7047     		bx	lr
 956              		.cfi_endproc
 957              	.LFE6:
 959              		.section	.text.DevMPU6000_SetDRDY,"ax",%progbits
 960              		.align	1
 961              		.syntax unified
 962              		.thumb
 963              		.thumb_func
 964              		.fpu fpv5-d16
 966              	DevMPU6000_SetDRDY:
 967              	.LVL75:
 968              	.LFB7:
 299:Device/Dev_MPU6000.c **** 
 300:Device/Dev_MPU6000.c **** static void DevMPU6000_SetDRDY(DevMPU6000Obj_TypeDef *sensor_obj)
 301:Device/Dev_MPU6000.c **** {
 969              		.loc 1 301 1 is_stmt 1 view -0
 970              		.cfi_startproc
 971              		@ args = 0, pretend = 0, frame = 0
 972              		@ frame_needed = 0, uses_anonymous_args = 0
 973              		@ link register save eliminated.
 302:Device/Dev_MPU6000.c ****     sensor_obj->drdy = true;
 974              		.loc 1 302 5 view .LVU296
 975              		.loc 1 302 22 is_stmt 0 view .LVU297
 976 0000 0123     		movs	r3, #1
 977 0002 0377     		strb	r3, [r0, #28]
 303:Device/Dev_MPU6000.c **** }
 978              		.loc 1 303 1 view .LVU298
 979 0004 7047     		bx	lr
 980              		.cfi_endproc
 981              	.LFE7:
 983              		.section	.text.DevMPU6000_GetReady,"ax",%progbits
 984              		.align	1
 985              		.syntax unified
 986              		.thumb
 987              		.thumb_func
 988              		.fpu fpv5-d16
 990              	DevMPU6000_GetReady:
 991              	.LVL76:
 992              	.LFB8:
 304:Device/Dev_MPU6000.c **** 
 305:Device/Dev_MPU6000.c **** static bool DevMPU6000_GetReady(DevMPU6000Obj_TypeDef *sensor_obj)
 306:Device/Dev_MPU6000.c **** {
 993              		.loc 1 306 1 is_stmt 1 view -0
 994              		.cfi_startproc
 995              		@ args = 0, pretend = 0, frame = 0
 996              		@ frame_needed = 0, uses_anonymous_args = 0
ARM GAS  C:\Users\HUAV\AppData\Local\Temp\cc8AWPUm.s 			page 26


 997              		@ link register save eliminated.
 307:Device/Dev_MPU6000.c ****     return sensor_obj->drdy;
 998              		.loc 1 307 5 view .LVU300
 308:Device/Dev_MPU6000.c **** }
 999              		.loc 1 308 1 is_stmt 0 view .LVU301
 1000 0000 007F     		ldrb	r0, [r0, #28]	@ zero_extendqisi2
 1001              	.LVL77:
 1002              		.loc 1 308 1 view .LVU302
 1003 0002 7047     		bx	lr
 1004              		.cfi_endproc
 1005              	.LFE8:
 1007              		.section	.text.DevMPU6000_SwReset,"ax",%progbits
 1008              		.align	1
 1009              		.syntax unified
 1010              		.thumb
 1011              		.thumb_func
 1012              		.fpu fpv5-d16
 1014              	DevMPU6000_SwReset:
 1015              	.LVL78:
 1016              	.LFB9:
 309:Device/Dev_MPU6000.c **** 
 310:Device/Dev_MPU6000.c **** /* half develop */
 311:Device/Dev_MPU6000.c **** static bool DevMPU6000_SwReset(DevMPU6000Obj_TypeDef *sensor_obj)
 312:Device/Dev_MPU6000.c **** {
 1017              		.loc 1 312 1 is_stmt 1 view -0
 1018              		.cfi_startproc
 1019              		@ args = 0, pretend = 0, frame = 0
 1020              		@ frame_needed = 0, uses_anonymous_args = 0
 1021              		@ link register save eliminated.
 313:Device/Dev_MPU6000.c ****     bool state = false;
 1022              		.loc 1 313 5 view .LVU304
 314:Device/Dev_MPU6000.c **** 
 315:Device/Dev_MPU6000.c ****     if (sensor_obj == NULL)
 1023              		.loc 1 315 5 view .LVU305
 316:Device/Dev_MPU6000.c ****         return false;
 317:Device/Dev_MPU6000.c **** 
 318:Device/Dev_MPU6000.c ****     return state;
 319:Device/Dev_MPU6000.c **** }
 1024              		.loc 1 319 1 is_stmt 0 view .LVU306
 1025 0000 0020     		movs	r0, #0
 1026              	.LVL79:
 1027              		.loc 1 319 1 view .LVU307
 1028 0002 7047     		bx	lr
 1029              		.cfi_endproc
 1030              	.LFE9:
 1032              		.section	.text.DevMPU6000_Sample,"ax",%progbits
 1033              		.align	1
 1034              		.syntax unified
 1035              		.thumb
 1036              		.thumb_func
 1037              		.fpu fpv5-d16
 1039              	DevMPU6000_Sample:
 1040              	.LVL80:
 1041              	.LFB10:
 320:Device/Dev_MPU6000.c **** 
 321:Device/Dev_MPU6000.c **** static bool DevMPU6000_Sample(DevMPU6000Obj_TypeDef *sensor_obj)
 322:Device/Dev_MPU6000.c **** {
ARM GAS  C:\Users\HUAV\AppData\Local\Temp\cc8AWPUm.s 			page 27


 1042              		.loc 1 322 1 is_stmt 1 view -0
 1043              		.cfi_startproc
 1044              		@ args = 0, pretend = 0, frame = 32
 1045              		@ frame_needed = 0, uses_anonymous_args = 0
 1046              		.loc 1 322 1 is_stmt 0 view .LVU309
 1047 0000 70B5     		push	{r4, r5, r6, lr}
 1048              	.LCFI19:
 1049              		.cfi_def_cfa_offset 16
 1050              		.cfi_offset 4, -16
 1051              		.cfi_offset 5, -12
 1052              		.cfi_offset 6, -8
 1053              		.cfi_offset 14, -4
 1054 0002 8AB0     		sub	sp, sp, #40
 1055              	.LCFI20:
 1056              		.cfi_def_cfa_offset 56
 323:Device/Dev_MPU6000.c ****     uint8_t Tx[14] = {0};
 1057              		.loc 1 323 5 is_stmt 1 view .LVU310
 1058              		.loc 1 323 13 is_stmt 0 view .LVU311
 1059 0004 0023     		movs	r3, #0
 1060 0006 0693     		str	r3, [sp, #24]
 1061 0008 0793     		str	r3, [sp, #28]
 1062 000a 0893     		str	r3, [sp, #32]
 1063 000c ADF82430 		strh	r3, [sp, #36]	@ movhi
 324:Device/Dev_MPU6000.c ****     uint8_t Rx[14] = {0};
 1064              		.loc 1 324 5 is_stmt 1 view .LVU312
 1065              		.loc 1 324 13 is_stmt 0 view .LVU313
 1066 0010 0293     		str	r3, [sp, #8]
 1067 0012 0393     		str	r3, [sp, #12]
 1068 0014 0493     		str	r3, [sp, #16]
 1069 0016 ADF81430 		strh	r3, [sp, #20]	@ movhi
 325:Device/Dev_MPU6000.c **** 
 326:Device/Dev_MPU6000.c ****     if ((sensor_obj->error == MPU6000_No_Error) && (sensor_obj->drdy))
 1070              		.loc 1 326 5 is_stmt 1 view .LVU314
 1071              		.loc 1 326 20 is_stmt 0 view .LVU315
 1072 001a 90F86A50 		ldrb	r5, [r0, #106]	@ zero_extendqisi2
 1073              		.loc 1 326 8 view .LVU316
 1074 001e 002D     		cmp	r5, #0
 1075 0020 62D1     		bne	.L76
 1076 0022 0446     		mov	r4, r0
 1077              		.loc 1 326 63 discriminator 1 view .LVU317
 1078 0024 067F     		ldrb	r6, [r0, #28]	@ zero_extendqisi2
 1079              		.loc 1 326 49 discriminator 1 view .LVU318
 1080 0026 002E     		cmp	r6, #0
 1081 0028 5FD0     		beq	.L73
 327:Device/Dev_MPU6000.c ****     {
 328:Device/Dev_MPU6000.c ****         sensor_obj->OriData.time_stamp = sensor_obj->get_timestamp();
 1082              		.loc 1 328 9 is_stmt 1 view .LVU319
 1083              		.loc 1 328 52 is_stmt 0 view .LVU320
 1084 002a C368     		ldr	r3, [r0, #12]
 1085              		.loc 1 328 42 view .LVU321
 1086 002c 9847     		blx	r3
 1087              	.LVL81:
 1088              		.loc 1 328 40 view .LVU322
 1089 002e C4F81E00 		str	r0, [r4, #30]	@ unaligned
 1090 0032 C4F82210 		str	r1, [r4, #34]	@ unaligned
 329:Device/Dev_MPU6000.c **** 
 330:Device/Dev_MPU6000.c ****         Dev_MPU6000_Regs_Read(sensor_obj, MPU6000_ACCEL_XOUT_H, Tx, Rx, 14);
ARM GAS  C:\Users\HUAV\AppData\Local\Temp\cc8AWPUm.s 			page 28


 1091              		.loc 1 330 9 is_stmt 1 view .LVU323
 1092 0036 0E23     		movs	r3, #14
 1093 0038 0093     		str	r3, [sp]
 1094 003a 02AB     		add	r3, sp, #8
 1095 003c 06AA     		add	r2, sp, #24
 1096 003e 3B21     		movs	r1, #59
 1097 0040 2046     		mov	r0, r4
 1098 0042 FFF7FEFF 		bl	Dev_MPU6000_Regs_Read
 1099              	.LVL82:
 331:Device/Dev_MPU6000.c **** 
 332:Device/Dev_MPU6000.c ****         for (uint8_t axis = Axis_X; axis < Axis_Sum; axis++)
 1100              		.loc 1 332 9 view .LVU324
 1101              	.LBB2:
 1102              		.loc 1 332 14 view .LVU325
 1103              		.loc 1 332 9 is_stmt 0 view .LVU326
 1104 0046 44E0     		b	.L74
 1105              	.LVL83:
 1106              	.L75:
 333:Device/Dev_MPU6000.c ****         {
 334:Device/Dev_MPU6000.c ****             sensor_obj->OriData.acc_int[axis] = (int16_t)((Rx[axis * 2] << 8) | Rx[axis * 2 + 1]);
 1107              		.loc 1 334 13 is_stmt 1 discriminator 3 view .LVU327
 1108              		.loc 1 334 68 is_stmt 0 discriminator 3 view .LVU328
 1109 0048 6A00     		lsls	r2, r5, #1
 1110              		.loc 1 334 62 discriminator 3 view .LVU329
 1111 004a 0AAB     		add	r3, sp, #40
 1112 004c 03EB4503 		add	r3, r3, r5, lsl #1
 1113 0050 13F8200C 		ldrb	r0, [r3, #-32]	@ zero_extendqisi2
 1114              		.loc 1 334 93 discriminator 3 view .LVU330
 1115 0054 511C     		adds	r1, r2, #1
 1116              		.loc 1 334 83 discriminator 3 view .LVU331
 1117 0056 0AAB     		add	r3, sp, #40
 1118 0058 1944     		add	r1, r1, r3
 1119 005a 11F8203C 		ldrb	r3, [r1, #-32]	@ zero_extendqisi2
 1120              		.loc 1 334 49 discriminator 3 view .LVU332
 1121 005e 43EA0023 		orr	r3, r3, r0, lsl #8
 1122 0062 1BB2     		sxth	r3, r3
 1123              		.loc 1 334 47 discriminator 3 view .LVU333
 1124 0064 05F11801 		add	r1, r5, #24
 1125 0068 04EB4101 		add	r1, r4, r1, lsl #1
 1126 006c CB80     		strh	r3, [r1, #6]	@ movhi
 335:Device/Dev_MPU6000.c ****             sensor_obj->OriData.gyr_int[axis] = (int16_t)((Rx[axis * 2 + 8] << 8) | Rx[axis * 2 + 9
 1127              		.loc 1 335 13 is_stmt 1 discriminator 3 view .LVU334
 1128              		.loc 1 335 72 is_stmt 0 discriminator 3 view .LVU335
 1129 006e 291D     		adds	r1, r5, #4
 1130              		.loc 1 335 62 discriminator 3 view .LVU336
 1131 0070 0AA8     		add	r0, sp, #40
 1132 0072 00EB4101 		add	r1, r0, r1, lsl #1
 1133 0076 11F8200C 		ldrb	r0, [r1, #-32]	@ zero_extendqisi2
 1134              		.loc 1 335 97 discriminator 3 view .LVU337
 1135 007a 0932     		adds	r2, r2, #9
 1136              		.loc 1 335 87 discriminator 3 view .LVU338
 1137 007c 0AA9     		add	r1, sp, #40
 1138 007e 0A44     		add	r2, r2, r1
 1139 0080 12F8201C 		ldrb	r1, [r2, #-32]	@ zero_extendqisi2
 1140              		.loc 1 335 49 discriminator 3 view .LVU339
 1141 0084 41EA0021 		orr	r1, r1, r0, lsl #8
 1142              		.loc 1 335 47 discriminator 3 view .LVU340
ARM GAS  C:\Users\HUAV\AppData\Local\Temp\cc8AWPUm.s 			page 29


 1143 0088 05F11402 		add	r2, r5, #20
 1144 008c 04EB4202 		add	r2, r4, r2, lsl #1
 1145 0090 1181     		strh	r1, [r2, #8]	@ movhi
 336:Device/Dev_MPU6000.c **** 
 337:Device/Dev_MPU6000.c ****             /* convert int data to float */
 338:Device/Dev_MPU6000.c ****             sensor_obj->OriData.acc_flt[axis] = ((float)sensor_obj->OriData.acc_int[axis] / sensor_
 1146              		.loc 1 338 13 is_stmt 1 discriminator 3 view .LVU341
 1147              		.loc 1 338 50 is_stmt 0 discriminator 3 view .LVU342
 1148 0092 07EE903A 		vmov	s15, r3	@ int
 1149 0096 F8EEE77A 		vcvt.f32.s32	s15, s15
 1150              		.loc 1 338 103 discriminator 3 view .LVU343
 1151 009a D4ED056A 		vldr.32	s13, [r4, #20]
 1152              		.loc 1 338 91 discriminator 3 view .LVU344
 1153 009e 87EEA67A 		vdiv.f32	s14, s15, s13
 1154              		.loc 1 338 47 discriminator 3 view .LVU345
 1155 00a2 05F11003 		add	r3, r5, #16
 1156 00a6 04EB8303 		add	r3, r4, r3, lsl #2
 1157 00aa 83ED037A 		vstr.32	s14, [r3, #12]
 339:Device/Dev_MPU6000.c ****             sensor_obj->OriData.gyr_flt[axis] = ((float)sensor_obj->OriData.gyr_int[axis] / sensor_
 1158              		.loc 1 339 13 is_stmt 1 discriminator 3 view .LVU346
 1159              		.loc 1 339 84 is_stmt 0 discriminator 3 view .LVU347
 1160 00ae B2F90830 		ldrsh	r3, [r2, #8]
 1161 00b2 07EE903A 		vmov	s15, r3	@ int
 1162              		.loc 1 339 50 discriminator 3 view .LVU348
 1163 00b6 F8EEE77A 		vcvt.f32.s32	s15, s15
 1164              		.loc 1 339 103 discriminator 3 view .LVU349
 1165 00ba D4ED066A 		vldr.32	s13, [r4, #24]
 1166              		.loc 1 339 91 discriminator 3 view .LVU350
 1167 00be 87EEA67A 		vdiv.f32	s14, s15, s13
 1168              		.loc 1 339 47 discriminator 3 view .LVU351
 1169 00c2 05F10E03 		add	r3, r5, #14
 1170 00c6 04EB8303 		add	r3, r4, r3, lsl #2
 1171 00ca 83ED027A 		vstr.32	s14, [r3, #8]
 332:Device/Dev_MPU6000.c ****         {
 1172              		.loc 1 332 54 is_stmt 1 discriminator 3 view .LVU352
 332:Device/Dev_MPU6000.c ****         {
 1173              		.loc 1 332 58 is_stmt 0 discriminator 3 view .LVU353
 1174 00ce 0135     		adds	r5, r5, #1
 1175              	.LVL84:
 332:Device/Dev_MPU6000.c ****         {
 1176              		.loc 1 332 58 discriminator 3 view .LVU354
 1177 00d0 EDB2     		uxtb	r5, r5
 1178              	.LVL85:
 1179              	.L74:
 332:Device/Dev_MPU6000.c ****         {
 1180              		.loc 1 332 37 is_stmt 1 discriminator 1 view .LVU355
 332:Device/Dev_MPU6000.c ****         {
 1181              		.loc 1 332 9 is_stmt 0 discriminator 1 view .LVU356
 1182 00d2 022D     		cmp	r5, #2
 1183 00d4 B8D9     		bls	.L75
 1184              	.LBE2:
 340:Device/Dev_MPU6000.c ****         }
 341:Device/Dev_MPU6000.c **** 
 342:Device/Dev_MPU6000.c ****         sensor_obj->OriData.time_stamp = sensor_obj->get_timestamp();
 1185              		.loc 1 342 9 is_stmt 1 view .LVU357
 1186              		.loc 1 342 52 is_stmt 0 view .LVU358
 1187 00d6 E368     		ldr	r3, [r4, #12]
ARM GAS  C:\Users\HUAV\AppData\Local\Temp\cc8AWPUm.s 			page 30


 1188              		.loc 1 342 42 view .LVU359
 1189 00d8 9847     		blx	r3
 1190              	.LVL86:
 1191              		.loc 1 342 40 view .LVU360
 1192 00da C4F81E00 		str	r0, [r4, #30]	@ unaligned
 1193 00de C4F82210 		str	r1, [r4, #34]	@ unaligned
 343:Device/Dev_MPU6000.c ****         sensor_obj->drdy = false;
 1194              		.loc 1 343 9 is_stmt 1 view .LVU361
 1195              		.loc 1 343 26 is_stmt 0 view .LVU362
 1196 00e2 0023     		movs	r3, #0
 1197 00e4 2377     		strb	r3, [r4, #28]
 344:Device/Dev_MPU6000.c ****         return true;
 1198              		.loc 1 344 9 is_stmt 1 view .LVU363
 1199              		.loc 1 344 16 is_stmt 0 view .LVU364
 1200 00e6 00E0     		b	.L73
 1201              	.LVL87:
 1202              	.L76:
 345:Device/Dev_MPU6000.c ****     }
 346:Device/Dev_MPU6000.c **** 
 347:Device/Dev_MPU6000.c ****     return false;
 1203              		.loc 1 347 12 view .LVU365
 1204 00e8 0026     		movs	r6, #0
 1205              	.LVL88:
 1206              	.L73:
 348:Device/Dev_MPU6000.c **** }
 1207              		.loc 1 348 1 view .LVU366
 1208 00ea 3046     		mov	r0, r6
 1209 00ec 0AB0     		add	sp, sp, #40
 1210              	.LCFI21:
 1211              		.cfi_def_cfa_offset 16
 1212              		@ sp needed
 1213 00ee 70BD     		pop	{r4, r5, r6, pc}
 1214              		.cfi_endproc
 1215              	.LFE10:
 1217              		.section	.text.DevMPU6000_Get_Scale,"ax",%progbits
 1218              		.align	1
 1219              		.syntax unified
 1220              		.thumb
 1221              		.thumb_func
 1222              		.fpu fpv5-d16
 1224              	DevMPU6000_Get_Scale:
 1225              	.LFB12:
 349:Device/Dev_MPU6000.c **** 
 350:Device/Dev_MPU6000.c **** static IMUData_TypeDef DevMPU6000_Get_Data(DevMPU6000Obj_TypeDef *sensor_obj)
 351:Device/Dev_MPU6000.c **** {
 352:Device/Dev_MPU6000.c ****     IMUData_TypeDef tmp;
 353:Device/Dev_MPU6000.c **** 
 354:Device/Dev_MPU6000.c ****     memset(&tmp, NULL, sizeof(tmp));
 355:Device/Dev_MPU6000.c ****     if (sensor_obj->error == MPU6000_No_Error)
 356:Device/Dev_MPU6000.c ****         return sensor_obj->OriData;
 357:Device/Dev_MPU6000.c **** 
 358:Device/Dev_MPU6000.c ****     return tmp;
 359:Device/Dev_MPU6000.c **** }
 360:Device/Dev_MPU6000.c **** 
 361:Device/Dev_MPU6000.c **** static IMUModuleScale_TypeDef DevMPU6000_Get_Scale(const DevMPU6000Obj_TypeDef sensor_obj)
 362:Device/Dev_MPU6000.c **** {
 1226              		.loc 1 362 1 is_stmt 1 view -0
ARM GAS  C:\Users\HUAV\AppData\Local\Temp\cc8AWPUm.s 			page 31


 1227              		.cfi_startproc
 1228              		@ args = 108, pretend = 16, frame = 24
 1229              		@ frame_needed = 0, uses_anonymous_args = 0
 1230              		@ link register save eliminated.
 1231 0000 84B0     		sub	sp, sp, #16
 1232              	.LCFI22:
 1233              		.cfi_def_cfa_offset 16
 1234 0002 86B0     		sub	sp, sp, #24
 1235              	.LCFI23:
 1236              		.cfi_def_cfa_offset 40
 1237 0004 0DF1180C 		add	ip, sp, #24
 1238 0008 8CE80F00 		stm	ip, {r0, r1, r2, r3}
 363:Device/Dev_MPU6000.c ****     IMUModuleScale_TypeDef scale_tmp;
 1239              		.loc 1 363 5 view .LVU368
 364:Device/Dev_MPU6000.c **** 
 365:Device/Dev_MPU6000.c ****     scale_tmp.acc_scale = sensor_obj.acc_scale;
 1240              		.loc 1 365 5 view .LVU369
 1241              		.loc 1 365 37 is_stmt 0 view .LVU370
 1242 000c 0B9B     		ldr	r3, [sp, #44]	@ float
 1243              		.loc 1 365 25 view .LVU371
 1244 000e 0293     		str	r3, [sp, #8]	@ float
 366:Device/Dev_MPU6000.c ****     scale_tmp.gyr_scale = sensor_obj.gyr_scale;
 1245              		.loc 1 366 5 is_stmt 1 view .LVU372
 1246              		.loc 1 366 37 is_stmt 0 view .LVU373
 1247 0010 0C9B     		ldr	r3, [sp, #48]	@ float
 1248              		.loc 1 366 25 view .LVU374
 1249 0012 0393     		str	r3, [sp, #12]	@ float
 367:Device/Dev_MPU6000.c **** 
 368:Device/Dev_MPU6000.c ****     return scale_tmp;
 1250              		.loc 1 368 5 is_stmt 1 view .LVU375
 1251              		.loc 1 368 12 is_stmt 0 view .LVU376
 1252 0014 0399     		ldr	r1, [sp, #12]
 1253 0016 0298     		ldr	r0, [sp, #8]
 1254 0018 4CE90201 		strd	r0, r1, [ip, #-8]
 369:Device/Dev_MPU6000.c **** }...
 1255              		.loc 1 369 1 view .LVU377
 1256 001c 9DED040A 		vldr.32	s0, [sp, #16]
 1257 0020 DDED050A 		vldr.32	s1, [sp, #20]
 1258 0024 06B0     		add	sp, sp, #24
 1259              	.LCFI24:
 1260              		.cfi_def_cfa_offset 16
 1261              		@ sp needed
 1262 0026 04B0     		add	sp, sp, #16
 1263              	.LCFI25:
 1264              		.cfi_def_cfa_offset 0
 1265 0028 7047     		bx	lr
 1266              		.cfi_endproc
 1267              	.LFE12:
 1269              		.section	.text.DevMPU6000_Get_Data,"ax",%progbits
 1270              		.align	1
 1271              		.syntax unified
 1272              		.thumb
 1273              		.thumb_func
 1274              		.fpu fpv5-d16
 1276              	DevMPU6000_Get_Data:
 1277              	.LVL89:
 1278              	.LFB11:
ARM GAS  C:\Users\HUAV\AppData\Local\Temp\cc8AWPUm.s 			page 32


 351:Device/Dev_MPU6000.c **** {
 1279              		.loc 1 351 1 is_stmt 1 view -0
 1280              		.cfi_startproc
 1281              		@ args = 0, pretend = 0, frame = 80
 1282              		@ frame_needed = 0, uses_anonymous_args = 0
 351:Device/Dev_MPU6000.c **** {
 1283              		.loc 1 351 1 is_stmt 0 view .LVU379
 1284 0000 30B5     		push	{r4, r5, lr}
 1285              	.LCFI26:
 1286              		.cfi_def_cfa_offset 12
 1287              		.cfi_offset 4, -12
 1288              		.cfi_offset 5, -8
 1289              		.cfi_offset 14, -4
 1290 0002 95B0     		sub	sp, sp, #84
 1291              	.LCFI27:
 1292              		.cfi_def_cfa_offset 96
 1293 0004 0446     		mov	r4, r0
 1294 0006 0D46     		mov	r5, r1
 352:Device/Dev_MPU6000.c ****     IMUData_TypeDef tmp;
 1295              		.loc 1 352 5 is_stmt 1 view .LVU380
 354:Device/Dev_MPU6000.c ****     memset(&tmp, NULL, sizeof(tmp));
 1296              		.loc 1 354 5 view .LVU381
 1297 0008 4C22     		movs	r2, #76
 1298 000a 0021     		movs	r1, #0
 1299              	.LVL90:
 354:Device/Dev_MPU6000.c ****     memset(&tmp, NULL, sizeof(tmp));
 1300              		.loc 1 354 5 is_stmt 0 view .LVU382
 1301 000c 01A8     		add	r0, sp, #4
 1302              	.LVL91:
 354:Device/Dev_MPU6000.c ****     memset(&tmp, NULL, sizeof(tmp));
 1303              		.loc 1 354 5 view .LVU383
 1304 000e FFF7FEFF 		bl	memset
 1305              	.LVL92:
 355:Device/Dev_MPU6000.c ****     if (sensor_obj->error == MPU6000_No_Error)
 1306              		.loc 1 355 5 is_stmt 1 view .LVU384
 355:Device/Dev_MPU6000.c ****     if (sensor_obj->error == MPU6000_No_Error)
 1307              		.loc 1 355 19 is_stmt 0 view .LVU385
 1308 0012 95F86A30 		ldrb	r3, [r5, #106]	@ zero_extendqisi2
 355:Device/Dev_MPU6000.c ****     if (sensor_obj->error == MPU6000_No_Error)
 1309              		.loc 1 355 8 view .LVU386
 1310 0016 3BB1     		cbz	r3, .L84
 358:Device/Dev_MPU6000.c ****     return tmp;
 1311              		.loc 1 358 5 is_stmt 1 view .LVU387
 358:Device/Dev_MPU6000.c ****     return tmp;
 1312              		.loc 1 358 12 is_stmt 0 view .LVU388
 1313 0018 4C22     		movs	r2, #76
 1314 001a 0021     		movs	r1, #0
 1315 001c 2046     		mov	r0, r4
 1316 001e FFF7FEFF 		bl	memset
 1317              	.LVL93:
 1318              	.L80:
 359:Device/Dev_MPU6000.c **** }
 1319              		.loc 1 359 1 view .LVU389
 1320 0022 2046     		mov	r0, r4
 1321 0024 15B0     		add	sp, sp, #84
 1322              	.LCFI28:
 1323              		.cfi_remember_state
ARM GAS  C:\Users\HUAV\AppData\Local\Temp\cc8AWPUm.s 			page 33


 1324              		.cfi_def_cfa_offset 12
 1325              		@ sp needed
 1326 0026 30BD     		pop	{r4, r5, pc}
 1327              	.LVL94:
 1328              	.L84:
 1329              	.LCFI29:
 1330              		.cfi_restore_state
 356:Device/Dev_MPU6000.c ****         return sensor_obj->OriData;
 1331              		.loc 1 356 9 is_stmt 1 view .LVU390
 356:Device/Dev_MPU6000.c ****         return sensor_obj->OriData;
 1332              		.loc 1 356 26 is_stmt 0 view .LVU391
 1333 0028 4C22     		movs	r2, #76
 1334 002a 05F11E01 		add	r1, r5, #30
 1335 002e 2046     		mov	r0, r4
 1336 0030 FFF7FEFF 		bl	memcpy
 1337              	.LVL95:
 1338 0034 F5E7     		b	.L80
 1339              		.cfi_endproc
 1340              	.LFE11:
 1342              		.global	DevMPU6000
 1343              		.section	.data.DevMPU6000,"aw"
 1344              		.align	2
 1347              	DevMPU6000:
 1348 0000 00000000 		.word	DevMPU6000_PreInit
 1349 0004 00000000 		.word	DevMPU6000_Config
 1350 0008 00000000 		.word	DevMPU6000_Init
 1351 000c 00000000 		.word	DevMPU6000_SwReset
 1352 0010 00000000 		.word	DevMPU6000_GetReady
 1353 0014 00000000 		.word	DevMPU6000_SetDRDY
 1354 0018 00000000 		.word	DevMPU6000_Sample
 1355 001c 00000000 		.word	DevMPU6000_Get_Data
 1356 0020 00000000 		.word	DevMPU6000_Get_InitError
 1357 0024 00000000 		.word	DevMPU6000_Get_Scale
 1358              		.text
 1359              	.Letext0:
 1360              		.file 2 "d:\\software\\zephyr_env_gcc\\gcc-arm-none-eabi-9-2019-q4-major-win32\\arm-none-eabi\\inc
 1361              		.file 3 "d:\\software\\zephyr_env_gcc\\gcc-arm-none-eabi-9-2019-q4-major-win32\\arm-none-eabi\\inc
 1362              		.file 4 "d:\\software\\zephyr_env_gcc\\gcc-arm-none-eabi-9-2019-q4-major-win32\\arm-none-eabi\\inc
 1363              		.file 5 "d:\\software\\zephyr_env_gcc\\gcc-arm-none-eabi-9-2019-q4-major-win32\\arm-none-eabi\\inc
 1364              		.file 6 "d:\\software\\zephyr_env_gcc\\gcc-arm-none-eabi-9-2019-q4-major-win32\\lib\\gcc\\arm-none
 1365              		.file 7 "d:\\software\\zephyr_env_gcc\\gcc-arm-none-eabi-9-2019-q4-major-win32\\arm-none-eabi\\inc
 1366              		.file 8 "Service/imu_data.h"
 1367              		.file 9 "Device/Dev_MPU6000.h"
 1368              		.file 10 "<built-in>"
ARM GAS  C:\Users\HUAV\AppData\Local\Temp\cc8AWPUm.s 			page 34

