ARM GAS  C:\Users\8bit\AppData\Local\Temp\ccNZMjib.s 			page 1


   1              		.cpu cortex-m4
   2              		.arch armv7e-m
   3              		.fpu fpv4-sp-d16
   4              		.eabi_attribute 27, 1
   5              		.eabi_attribute 28, 1
   6              		.eabi_attribute 20, 1
   7              		.eabi_attribute 21, 1
   8              		.eabi_attribute 23, 3
   9              		.eabi_attribute 24, 1
  10              		.eabi_attribute 25, 1
  11              		.eabi_attribute 26, 1
  12              		.eabi_attribute 30, 1
  13              		.eabi_attribute 34, 1
  14              		.eabi_attribute 18, 4
  15              		.file	"Dev_ICM426xx.c"
  16              		.text
  17              	.Ltext0:
  18              		.cfi_sections	.debug_frame
  19              		.section	.text.DevICM426xx_Detect,"ax",%progbits
  20              		.align	1
  21              		.syntax unified
  22              		.thumb
  23              		.thumb_func
  25              	DevICM426xx_Detect:
  26              	.LVL0:
  27              	.LFB1:
  28              		.file 1 "Device/Dev_ICM426xx.c"
   1:Device/Dev_ICM426xx.c **** #include "Dev_ICM426xx.h"
   2:Device/Dev_ICM426xx.c **** 
   3:Device/Dev_ICM426xx.c **** #define ConvertToICM426xxTrip_Reg(trip, odr) ((3 - trip) << 5 | (odr & 0x0F))
   4:Device/Dev_ICM426xx.c **** #define UserBankToReg(x) (x & 7) 
   5:Device/Dev_ICM426xx.c **** 
   6:Device/Dev_ICM426xx.c **** // Possible gyro Anti-Alias Filter (AAF) cutoffs for ICM-42688P
   7:Device/Dev_ICM426xx.c **** // see table in section 5.3
   8:Device/Dev_ICM426xx.c **** static ICM426xx_AAF_Config_TypeDef aafLUT42688[ICM426xx_AAF_Sum] = {
   9:Device/Dev_ICM426xx.c ****     [ICM426xx_AAF_258Hz]  = {  6,   36, 10 },
  10:Device/Dev_ICM426xx.c ****     [ICM426xx_AAF_536Hz]  = { 12,  144,  8 },
  11:Device/Dev_ICM426xx.c ****     [ICM426xx_AAF_997Hz]  = { 21,  440,  6 },
  12:Device/Dev_ICM426xx.c ****     [ICM426xx_AAF_1962Hz] = { 37, 1376,  4 },
  13:Device/Dev_ICM426xx.c **** };
  14:Device/Dev_ICM426xx.c **** 
  15:Device/Dev_ICM426xx.c **** // Possible gyro Anti-Alias Filter (AAF) cutoffs for ICM-42605
  16:Device/Dev_ICM426xx.c **** // actual cutoff differs slightly from those of the 42605
  17:Device/Dev_ICM426xx.c ****   // see table in section 5.3
  18:Device/Dev_ICM426xx.c **** static ICM426xx_AAF_Config_TypeDef aafLUT42605[ICM426xx_AAF_Sum] = {
  19:Device/Dev_ICM426xx.c ****     [ICM426xx_AAF_258Hz]  = { 21,  440,  6 }, // actually 249 Hz
  20:Device/Dev_ICM426xx.c ****     [ICM426xx_AAF_536Hz]  = { 39, 1536,  4 }, // actually 524 Hz
  21:Device/Dev_ICM426xx.c ****     [ICM426xx_AAF_997Hz]  = { 63, 3968,  3 }, // actually 995 Hz
  22:Device/Dev_ICM426xx.c ****     [ICM426xx_AAF_1962Hz] = { 63, 3968,  3 }, // 995 Hz is the max cutoff on the 42605
  23:Device/Dev_ICM426xx.c **** };
  24:Device/Dev_ICM426xx.c **** 
  25:Device/Dev_ICM426xx.c **** /* internal function */
  26:Device/Dev_ICM426xx.c **** static bool DevICM426xx_Regs_Read(DevICM426xxObj_TypeDef *sensor_obj, uint32_t addr, uint8_t *tx, u
  27:Device/Dev_ICM426xx.c **** static bool DevICM426xx_Reg_Write(DevICM426xxObj_TypeDef *sensor_obj, uint8_t addr, uint8_t tx);
  28:Device/Dev_ICM426xx.c **** static bool DevICM426xx_Reg_Read(DevICM426xxObj_TypeDef *sensor_obj, uint8_t addr, uint8_t *rx);
  29:Device/Dev_ICM426xx.c **** 
  30:Device/Dev_ICM426xx.c **** static bool DevICM426xx_SetUserBank(DevICM426xxObj_TypeDef *sensor_obj, const uint8_t bank);
ARM GAS  C:\Users\8bit\AppData\Local\Temp\ccNZMjib.s 			page 2


  31:Device/Dev_ICM426xx.c **** static bool DevICM426xx_TurnOff_AccGyro(DevICM426xxObj_TypeDef *sensor_obj);
  32:Device/Dev_ICM426xx.c **** static bool DevICM426xx_TurnOn_AccGyro(DevICM426xxObj_TypeDef *sensor_obj);
  33:Device/Dev_ICM426xx.c **** 
  34:Device/Dev_ICM426xx.c **** /* external function */
  35:Device/Dev_ICM426xx.c **** static ICM426xx_Sensor_TypeList DevICM426xx_Detect(bus_trans_callback trans, cs_ctl_callback cs_ctl
  36:Device/Dev_ICM426xx.c **** static bool DevICM426xx_Config(DevICM426xxObj_TypeDef *Obj, 
  37:Device/Dev_ICM426xx.c ****                                ICM426xx_SampleRate_List rate, 
  38:Device/Dev_ICM426xx.c ****                                ICM426xx_GyrTrip_List GyrTrip, 
  39:Device/Dev_ICM426xx.c ****                                ICM426xx_AccTrip_List AccTrip);
  40:Device/Dev_ICM426xx.c **** static void DevICM426xx_PreInit(DevICM426xxObj_TypeDef *sensor_obj,
  41:Device/Dev_ICM426xx.c ****                                cs_ctl_callback cs_ctl,
  42:Device/Dev_ICM426xx.c ****                                bus_trans_callback bus_trans,
  43:Device/Dev_ICM426xx.c ****                                delay_callback delay,
  44:Device/Dev_ICM426xx.c ****                                get_time_stamp_callback get_time_stamp);
  45:Device/Dev_ICM426xx.c **** static bool DevICM426xx_Init(DevICM426xxObj_TypeDef *sensor_obj);
  46:Device/Dev_ICM426xx.c **** static void DevICM426xx_SetDRDY(DevICM426xxObj_TypeDef *sensor_obj);
  47:Device/Dev_ICM426xx.c **** static bool DevICM426xx_GetDRDY(DevICM426xxObj_TypeDef *sensor_obj);
  48:Device/Dev_ICM426xx.c **** static IMU_Error_TypeDef DevICM426xx_GetError(DevICM426xxObj_TypeDef *sensor_obj);
  49:Device/Dev_ICM426xx.c **** static bool DevICM426xx_Sample(DevICM426xxObj_TypeDef *sensor_obj);
  50:Device/Dev_ICM426xx.c **** static IMUData_TypeDef DevICM426xx_Get_Data(DevICM426xxObj_TypeDef *sensor_obj);
  51:Device/Dev_ICM426xx.c **** static IMUModuleScale_TypeDef DevICM426xx_Get_Scale(const DevICM426xxObj_TypeDef *sensor_obj);
  52:Device/Dev_ICM426xx.c **** static float DevICM426xx_Get_Specified_AngularSpeed_Diff(const DevICM426xxObj_TypeDef *sensor_obj);
  53:Device/Dev_ICM426xx.c **** 
  54:Device/Dev_ICM426xx.c **** /* external variable */
  55:Device/Dev_ICM426xx.c **** DevICM426xx_TypeDef DevICM426xx = {
  56:Device/Dev_ICM426xx.c ****     .detect = DevICM426xx_Detect,
  57:Device/Dev_ICM426xx.c ****     .config = DevICM426xx_Config,
  58:Device/Dev_ICM426xx.c ****     .init = DevICM426xx_Init,
  59:Device/Dev_ICM426xx.c ****     .pre_init = DevICM426xx_PreInit,
  60:Device/Dev_ICM426xx.c ****     .set_ready = DevICM426xx_SetDRDY,
  61:Device/Dev_ICM426xx.c ****     .get_ready = DevICM426xx_GetDRDY,
  62:Device/Dev_ICM426xx.c ****     .get_error = DevICM426xx_GetError,
  63:Device/Dev_ICM426xx.c ****     .get_data = DevICM426xx_Get_Data,
  64:Device/Dev_ICM426xx.c ****     .get_gyr_angular_speed_diff = DevICM426xx_Get_Specified_AngularSpeed_Diff,
  65:Device/Dev_ICM426xx.c ****     .get_scale = DevICM426xx_Get_Scale,
  66:Device/Dev_ICM426xx.c ****     .sample = DevICM426xx_Sample,
  67:Device/Dev_ICM426xx.c **** };
  68:Device/Dev_ICM426xx.c **** 
  69:Device/Dev_ICM426xx.c **** static ICM426xx_Sensor_TypeList DevICM426xx_Detect(bus_trans_callback trans, cs_ctl_callback cs_ctl
  70:Device/Dev_ICM426xx.c **** {
  29              		.loc 1 70 1 view -0
  30              		.cfi_startproc
  31              		@ args = 0, pretend = 0, frame = 8
  32              		@ frame_needed = 0, uses_anonymous_args = 0
  33              		.loc 1 70 1 is_stmt 0 view .LVU1
  34 0000 30B5     		push	{r4, r5, lr}
  35              	.LCFI0:
  36              		.cfi_def_cfa_offset 12
  37              		.cfi_offset 4, -12
  38              		.cfi_offset 5, -8
  39              		.cfi_offset 14, -4
  40 0002 83B0     		sub	sp, sp, #12
  41              	.LCFI1:
  42              		.cfi_def_cfa_offset 24
  71:Device/Dev_ICM426xx.c ****     uint8_t write_buff[2] = {0};
  43              		.loc 1 71 5 is_stmt 1 view .LVU2
  44              		.loc 1 71 13 is_stmt 0 view .LVU3
ARM GAS  C:\Users\8bit\AppData\Local\Temp\ccNZMjib.s 			page 3


  45 0004 0023     		movs	r3, #0
  46 0006 ADF80430 		strh	r3, [sp, #4]	@ movhi
  72:Device/Dev_ICM426xx.c ****     uint8_t read_buff[2] = {0};
  47              		.loc 1 72 5 is_stmt 1 view .LVU4
  48              		.loc 1 72 13 is_stmt 0 view .LVU5
  49 000a ADF80030 		strh	r3, [sp]	@ movhi
  73:Device/Dev_ICM426xx.c ****     bool state = false;
  50              		.loc 1 73 5 is_stmt 1 view .LVU6
  51              	.LVL1:
  74:Device/Dev_ICM426xx.c **** 
  75:Device/Dev_ICM426xx.c ****     if (cs_ctl == NULL || trans == NULL)
  52              		.loc 1 75 5 view .LVU7
  53              		.loc 1 75 8 is_stmt 0 view .LVU8
  54 000e C1B1     		cbz	r1, .L3
  55 0010 0446     		mov	r4, r0
  56 0012 0D46     		mov	r5, r1
  57              		.loc 1 75 24 discriminator 1 view .LVU9
  58 0014 B8B1     		cbz	r0, .L4
  76:Device/Dev_ICM426xx.c ****         return false;
  77:Device/Dev_ICM426xx.c **** 
  78:Device/Dev_ICM426xx.c ****     write_buff[0] = ICM426XX_WHO_AM_I | ICM426XX_READ_MASK;
  59              		.loc 1 78 5 is_stmt 1 view .LVU10
  60              		.loc 1 78 19 is_stmt 0 view .LVU11
  61 0016 F523     		movs	r3, #245
  62 0018 8DF80430 		strb	r3, [sp, #4]
  79:Device/Dev_ICM426xx.c **** 
  80:Device/Dev_ICM426xx.c ****     /* CS Low */
  81:Device/Dev_ICM426xx.c ****     cs_ctl(false);
  63              		.loc 1 81 5 is_stmt 1 view .LVU12
  64 001c 0020     		movs	r0, #0
  65              	.LVL2:
  66              		.loc 1 81 5 is_stmt 0 view .LVU13
  67 001e 8847     		blx	r1
  68              	.LVL3:
  82:Device/Dev_ICM426xx.c **** 
  83:Device/Dev_ICM426xx.c ****     state = trans(write_buff, read_buff, 2);
  69              		.loc 1 83 5 is_stmt 1 view .LVU14
  70              		.loc 1 83 13 is_stmt 0 view .LVU15
  71 0020 0222     		movs	r2, #2
  72 0022 6946     		mov	r1, sp
  73 0024 01A8     		add	r0, sp, #4
  74 0026 A047     		blx	r4
  75              	.LVL4:
  76 0028 0446     		mov	r4, r0
  77              	.LVL5:
  84:Device/Dev_ICM426xx.c **** 
  85:Device/Dev_ICM426xx.c ****     /* CS High */
  86:Device/Dev_ICM426xx.c ****     cs_ctl(true);
  78              		.loc 1 86 5 is_stmt 1 view .LVU16
  79 002a 0120     		movs	r0, #1
  80 002c A847     		blx	r5
  81              	.LVL6:
  87:Device/Dev_ICM426xx.c **** 
  88:Device/Dev_ICM426xx.c ****     if(!state)
  82              		.loc 1 88 5 view .LVU17
  83              		.loc 1 88 7 is_stmt 0 view .LVU18
  84 002e 64B1     		cbz	r4, .L5
ARM GAS  C:\Users\8bit\AppData\Local\Temp\ccNZMjib.s 			page 4


  89:Device/Dev_ICM426xx.c ****         return ICM_NONE;
  90:Device/Dev_ICM426xx.c **** 
  91:Device/Dev_ICM426xx.c ****     switch(read_buff[1])
  85              		.loc 1 91 5 is_stmt 1 view .LVU19
  86              		.loc 1 91 21 is_stmt 0 view .LVU20
  87 0030 9DF80130 		ldrb	r3, [sp, #1]	@ zero_extendqisi2
  88              		.loc 1 91 5 view .LVU21
  89 0034 422B     		cmp	r3, #66
  90 0036 0AD0     		beq	.L6
  91 0038 472B     		cmp	r3, #71
  92 003a 0AD1     		bne	.L7
  92:Device/Dev_ICM426xx.c ****     {
  93:Device/Dev_ICM426xx.c ****         case ICM42605_DEV_ID: return ICM42605;
  94:Device/Dev_ICM426xx.c ****         case ICM42688P_DEV_ID: return ICM42688P;
  93              		.loc 1 94 39 view .LVU22
  94 003c 0020     		movs	r0, #0
  95              	.LVL7:
  96              	.L2:
  95:Device/Dev_ICM426xx.c ****         default: return ICM_NONE;
  96:Device/Dev_ICM426xx.c ****     }
  97:Device/Dev_ICM426xx.c **** 
  98:Device/Dev_ICM426xx.c ****     return ICM_NONE;
  99:Device/Dev_ICM426xx.c **** }
  97              		.loc 1 99 1 view .LVU23
  98 003e 03B0     		add	sp, sp, #12
  99              	.LCFI2:
 100              		.cfi_remember_state
 101              		.cfi_def_cfa_offset 12
 102              		@ sp needed
 103 0040 30BD     		pop	{r4, r5, pc}
 104              	.LVL8:
 105              	.L3:
 106              	.LCFI3:
 107              		.cfi_restore_state
  76:Device/Dev_ICM426xx.c **** 
 108              		.loc 1 76 16 view .LVU24
 109 0042 0020     		movs	r0, #0
 110              	.LVL9:
  76:Device/Dev_ICM426xx.c **** 
 111              		.loc 1 76 16 view .LVU25
 112 0044 FBE7     		b	.L2
 113              	.LVL10:
 114              	.L4:
  76:Device/Dev_ICM426xx.c **** 
 115              		.loc 1 76 16 view .LVU26
 116 0046 0020     		movs	r0, #0
 117              	.LVL11:
  76:Device/Dev_ICM426xx.c **** 
 118              		.loc 1 76 16 view .LVU27
 119 0048 F9E7     		b	.L2
 120              	.LVL12:
 121              	.L5:
  89:Device/Dev_ICM426xx.c **** 
 122              		.loc 1 89 16 view .LVU28
 123 004a 0220     		movs	r0, #2
 124 004c F7E7     		b	.L2
 125              	.L6:
ARM GAS  C:\Users\8bit\AppData\Local\Temp\ccNZMjib.s 			page 5


  91:Device/Dev_ICM426xx.c ****     {
 126              		.loc 1 91 5 view .LVU29
 127 004e 0120     		movs	r0, #1
 128 0050 F5E7     		b	.L2
 129              	.L7:
  95:Device/Dev_ICM426xx.c ****     }
 130              		.loc 1 95 25 view .LVU30
 131 0052 0220     		movs	r0, #2
 132 0054 F3E7     		b	.L2
 133              		.cfi_endproc
 134              	.LFE1:
 136              		.section	.text.DevICM426xx_Regs_Read,"ax",%progbits
 137              		.align	1
 138              		.syntax unified
 139              		.thumb
 140              		.thumb_func
 142              	DevICM426xx_Regs_Read:
 143              	.LVL13:
 144              	.LFB2:
 100:Device/Dev_ICM426xx.c **** 
 101:Device/Dev_ICM426xx.c **** static bool DevICM426xx_Regs_Read(DevICM426xxObj_TypeDef *sensor_obj, uint32_t addr, uint8_t *tx, u
 102:Device/Dev_ICM426xx.c **** {
 145              		.loc 1 102 1 is_stmt 1 view -0
 146              		.cfi_startproc
 147              		@ args = 4, pretend = 0, frame = 8
 148              		@ frame_needed = 0, uses_anonymous_args = 0
 149              		.loc 1 102 1 is_stmt 0 view .LVU32
 150 0000 70B5     		push	{r4, r5, r6, lr}
 151              	.LCFI4:
 152              		.cfi_def_cfa_offset 16
 153              		.cfi_offset 4, -16
 154              		.cfi_offset 5, -12
 155              		.cfi_offset 6, -8
 156              		.cfi_offset 14, -4
 157 0002 82B0     		sub	sp, sp, #8
 158              	.LCFI5:
 159              		.cfi_def_cfa_offset 24
 160 0004 1546     		mov	r5, r2
 103:Device/Dev_ICM426xx.c ****     bool state = false;
 161              		.loc 1 103 5 is_stmt 1 view .LVU33
 162              	.LVL14:
 104:Device/Dev_ICM426xx.c ****     uint8_t addr_tmp = addr | ICM426XX_READ_MASK;
 163              		.loc 1 104 5 view .LVU34
 164              		.loc 1 104 29 is_stmt 0 view .LVU35
 165 0006 61F07F01 		orn	r1, r1, #127
 166              	.LVL15:
 167              		.loc 1 104 13 view .LVU36
 168 000a 8DF80710 		strb	r1, [sp, #7]
 105:Device/Dev_ICM426xx.c ****     uint8_t read_tmp = 0;
 169              		.loc 1 105 5 is_stmt 1 view .LVU37
 170              		.loc 1 105 13 is_stmt 0 view .LVU38
 171 000e 0022     		movs	r2, #0
 172              	.LVL16:
 173              		.loc 1 105 13 view .LVU39
 174 0010 8DF80620 		strb	r2, [sp, #6]
 106:Device/Dev_ICM426xx.c **** 
 107:Device/Dev_ICM426xx.c ****     if (sensor_obj == NULL || sensor_obj->cs_ctl == NULL || sensor_obj->bus_trans == NULL)
ARM GAS  C:\Users\8bit\AppData\Local\Temp\ccNZMjib.s 			page 6


 175              		.loc 1 107 5 is_stmt 1 view .LVU40
 176              		.loc 1 107 8 is_stmt 0 view .LVU41
 177 0014 D8B1     		cbz	r0, .L11
 178 0016 1E46     		mov	r6, r3
 179 0018 0446     		mov	r4, r0
 180              		.loc 1 107 41 discriminator 1 view .LVU42
 181 001a 4268     		ldr	r2, [r0, #4]
 182              		.loc 1 107 28 discriminator 1 view .LVU43
 183 001c CAB1     		cbz	r2, .L12
 184              		.loc 1 107 71 discriminator 2 view .LVU44
 185 001e 8368     		ldr	r3, [r0, #8]
 186              	.LVL17:
 187              		.loc 1 107 58 discriminator 2 view .LVU45
 188 0020 CBB1     		cbz	r3, .L13
 108:Device/Dev_ICM426xx.c ****         return false;
 109:Device/Dev_ICM426xx.c **** 
 110:Device/Dev_ICM426xx.c ****     /* CS Low */
 111:Device/Dev_ICM426xx.c ****     sensor_obj->cs_ctl(false);
 189              		.loc 1 111 5 is_stmt 1 view .LVU46
 190 0022 0020     		movs	r0, #0
 191              	.LVL18:
 192              		.loc 1 111 5 is_stmt 0 view .LVU47
 193 0024 9047     		blx	r2
 194              	.LVL19:
 112:Device/Dev_ICM426xx.c **** 
 113:Device/Dev_ICM426xx.c ****     state = sensor_obj->bus_trans(&addr_tmp, &read_tmp, 1);
 195              		.loc 1 113 5 is_stmt 1 view .LVU48
 196              		.loc 1 113 23 is_stmt 0 view .LVU49
 197 0026 A368     		ldr	r3, [r4, #8]
 198              		.loc 1 113 13 view .LVU50
 199 0028 0122     		movs	r2, #1
 200 002a 0DF10601 		add	r1, sp, #6
 201 002e 0DF10700 		add	r0, sp, #7
 202 0032 9847     		blx	r3
 203              	.LVL20:
 114:Device/Dev_ICM426xx.c ****     state = sensor_obj->bus_trans(tx, rx, size);
 204              		.loc 1 114 5 is_stmt 1 view .LVU51
 205              		.loc 1 114 23 is_stmt 0 view .LVU52
 206 0034 A368     		ldr	r3, [r4, #8]
 207              		.loc 1 114 13 view .LVU53
 208 0036 BDF81820 		ldrh	r2, [sp, #24]
 209 003a 3146     		mov	r1, r6
 210 003c 2846     		mov	r0, r5
 211 003e 9847     		blx	r3
 212              	.LVL21:
 213 0040 0546     		mov	r5, r0
 214              	.LVL22:
 115:Device/Dev_ICM426xx.c **** 
 116:Device/Dev_ICM426xx.c ****     /* CS High */
 117:Device/Dev_ICM426xx.c ****     sensor_obj->cs_ctl(true);
 215              		.loc 1 117 5 is_stmt 1 view .LVU54
 216              		.loc 1 117 15 is_stmt 0 view .LVU55
 217 0042 6368     		ldr	r3, [r4, #4]
 218              		.loc 1 117 5 view .LVU56
 219 0044 0120     		movs	r0, #1
 220 0046 9847     		blx	r3
 221              	.LVL23:
ARM GAS  C:\Users\8bit\AppData\Local\Temp\ccNZMjib.s 			page 7


 118:Device/Dev_ICM426xx.c **** 
 119:Device/Dev_ICM426xx.c ****     return state;
 222              		.loc 1 119 5 is_stmt 1 view .LVU57
 223              	.L10:
 120:Device/Dev_ICM426xx.c **** }
 224              		.loc 1 120 1 is_stmt 0 view .LVU58
 225 0048 2846     		mov	r0, r5
 226 004a 02B0     		add	sp, sp, #8
 227              	.LCFI6:
 228              		.cfi_remember_state
 229              		.cfi_def_cfa_offset 16
 230              		@ sp needed
 231 004c 70BD     		pop	{r4, r5, r6, pc}
 232              	.LVL24:
 233              	.L11:
 234              	.LCFI7:
 235              		.cfi_restore_state
 108:Device/Dev_ICM426xx.c **** 
 236              		.loc 1 108 16 view .LVU59
 237 004e 0025     		movs	r5, #0
 238              	.LVL25:
 108:Device/Dev_ICM426xx.c **** 
 239              		.loc 1 108 16 view .LVU60
 240 0050 FAE7     		b	.L10
 241              	.LVL26:
 242              	.L12:
 108:Device/Dev_ICM426xx.c **** 
 243              		.loc 1 108 16 view .LVU61
 244 0052 0025     		movs	r5, #0
 245              	.LVL27:
 108:Device/Dev_ICM426xx.c **** 
 246              		.loc 1 108 16 view .LVU62
 247 0054 F8E7     		b	.L10
 248              	.LVL28:
 249              	.L13:
 108:Device/Dev_ICM426xx.c **** 
 250              		.loc 1 108 16 view .LVU63
 251 0056 0025     		movs	r5, #0
 252              	.LVL29:
 108:Device/Dev_ICM426xx.c **** 
 253              		.loc 1 108 16 view .LVU64
 254 0058 F6E7     		b	.L10
 255              		.cfi_endproc
 256              	.LFE2:
 258              		.section	.text.DevICM426xx_Reg_Read,"ax",%progbits
 259              		.align	1
 260              		.syntax unified
 261              		.thumb
 262              		.thumb_func
 264              	DevICM426xx_Reg_Read:
 265              	.LVL30:
 266              	.LFB3:
 121:Device/Dev_ICM426xx.c **** 
 122:Device/Dev_ICM426xx.c **** static bool DevICM426xx_Reg_Read(DevICM426xxObj_TypeDef *sensor_obj, uint8_t addr, uint8_t *rx)
 123:Device/Dev_ICM426xx.c **** {
 267              		.loc 1 123 1 is_stmt 1 view -0
 268              		.cfi_startproc
ARM GAS  C:\Users\8bit\AppData\Local\Temp\ccNZMjib.s 			page 8


 269              		@ args = 0, pretend = 0, frame = 8
 270              		@ frame_needed = 0, uses_anonymous_args = 0
 271              		.loc 1 123 1 is_stmt 0 view .LVU66
 272 0000 70B5     		push	{r4, r5, r6, lr}
 273              	.LCFI8:
 274              		.cfi_def_cfa_offset 16
 275              		.cfi_offset 4, -16
 276              		.cfi_offset 5, -12
 277              		.cfi_offset 6, -8
 278              		.cfi_offset 14, -4
 279 0002 82B0     		sub	sp, sp, #8
 280              	.LCFI9:
 281              		.cfi_def_cfa_offset 24
 124:Device/Dev_ICM426xx.c ****     uint8_t Rx_Tmp[2] = {0};
 282              		.loc 1 124 5 is_stmt 1 view .LVU67
 283              		.loc 1 124 13 is_stmt 0 view .LVU68
 284 0004 0023     		movs	r3, #0
 285 0006 ADF80430 		strh	r3, [sp, #4]	@ movhi
 125:Device/Dev_ICM426xx.c ****     uint8_t Tx_Tmp[2] = {0};
 286              		.loc 1 125 5 is_stmt 1 view .LVU69
 287              		.loc 1 125 13 is_stmt 0 view .LVU70
 288 000a ADF80030 		strh	r3, [sp]	@ movhi
 126:Device/Dev_ICM426xx.c ****     bool state = false;
 289              		.loc 1 126 5 is_stmt 1 view .LVU71
 290              	.LVL31:
 127:Device/Dev_ICM426xx.c **** 
 128:Device/Dev_ICM426xx.c ****     if (sensor_obj == NULL || sensor_obj->cs_ctl == NULL || sensor_obj->bus_trans == NULL)
 291              		.loc 1 128 5 view .LVU72
 292              		.loc 1 128 8 is_stmt 0 view .LVU73
 293 000e D0B1     		cbz	r0, .L17
 294 0010 1546     		mov	r5, r2
 295 0012 0446     		mov	r4, r0
 296              		.loc 1 128 41 discriminator 1 view .LVU74
 297 0014 4368     		ldr	r3, [r0, #4]
 298              		.loc 1 128 28 discriminator 1 view .LVU75
 299 0016 C3B1     		cbz	r3, .L18
 300              		.loc 1 128 71 discriminator 2 view .LVU76
 301 0018 8268     		ldr	r2, [r0, #8]
 302              	.LVL32:
 303              		.loc 1 128 58 discriminator 2 view .LVU77
 304 001a C2B1     		cbz	r2, .L19
 129:Device/Dev_ICM426xx.c ****         return false;
 130:Device/Dev_ICM426xx.c **** 
 131:Device/Dev_ICM426xx.c ****     Tx_Tmp[0] = addr | ICM426XX_READ_MASK;
 305              		.loc 1 131 5 is_stmt 1 view .LVU78
 306              		.loc 1 131 15 is_stmt 0 view .LVU79
 307 001c 61F07F01 		orn	r1, r1, #127
 308              	.LVL33:
 309              		.loc 1 131 15 view .LVU80
 310 0020 8DF80010 		strb	r1, [sp]
 132:Device/Dev_ICM426xx.c **** 
 133:Device/Dev_ICM426xx.c ****     /* cs low */
 134:Device/Dev_ICM426xx.c ****     sensor_obj->cs_ctl(false);
 311              		.loc 1 134 5 is_stmt 1 view .LVU81
 312 0024 0020     		movs	r0, #0
 313              	.LVL34:
 314              		.loc 1 134 5 is_stmt 0 view .LVU82
ARM GAS  C:\Users\8bit\AppData\Local\Temp\ccNZMjib.s 			page 9


 315 0026 9847     		blx	r3
 316              	.LVL35:
 135:Device/Dev_ICM426xx.c **** 
 136:Device/Dev_ICM426xx.c ****     state = sensor_obj->bus_trans(Tx_Tmp, Rx_Tmp, 2);
 317              		.loc 1 136 5 is_stmt 1 view .LVU83
 318              		.loc 1 136 23 is_stmt 0 view .LVU84
 319 0028 A368     		ldr	r3, [r4, #8]
 320              		.loc 1 136 13 view .LVU85
 321 002a 0222     		movs	r2, #2
 322 002c 01A9     		add	r1, sp, #4
 323 002e 6846     		mov	r0, sp
 324 0030 9847     		blx	r3
 325              	.LVL36:
 326 0032 0646     		mov	r6, r0
 327              	.LVL37:
 137:Device/Dev_ICM426xx.c **** 
 138:Device/Dev_ICM426xx.c ****     /* cs high */
 139:Device/Dev_ICM426xx.c ****     sensor_obj->cs_ctl(true);
 328              		.loc 1 139 5 is_stmt 1 view .LVU86
 329              		.loc 1 139 15 is_stmt 0 view .LVU87
 330 0034 6368     		ldr	r3, [r4, #4]
 331              		.loc 1 139 5 view .LVU88
 332 0036 0120     		movs	r0, #1
 333 0038 9847     		blx	r3
 334              	.LVL38:
 140:Device/Dev_ICM426xx.c **** 
 141:Device/Dev_ICM426xx.c ****     *rx = Rx_Tmp[1];
 335              		.loc 1 141 5 is_stmt 1 view .LVU89
 336              		.loc 1 141 17 is_stmt 0 view .LVU90
 337 003a 9DF80530 		ldrb	r3, [sp, #5]	@ zero_extendqisi2
 338              		.loc 1 141 9 view .LVU91
 339 003e 2B70     		strb	r3, [r5]
 142:Device/Dev_ICM426xx.c **** 
 143:Device/Dev_ICM426xx.c ****     return state;
 340              		.loc 1 143 5 is_stmt 1 view .LVU92
 341              	.LVL39:
 342              	.L16:
 144:Device/Dev_ICM426xx.c **** }
 343              		.loc 1 144 1 is_stmt 0 view .LVU93
 344 0040 3046     		mov	r0, r6
 345 0042 02B0     		add	sp, sp, #8
 346              	.LCFI10:
 347              		.cfi_remember_state
 348              		.cfi_def_cfa_offset 16
 349              		@ sp needed
 350 0044 70BD     		pop	{r4, r5, r6, pc}
 351              	.LVL40:
 352              	.L17:
 353              	.LCFI11:
 354              		.cfi_restore_state
 129:Device/Dev_ICM426xx.c **** 
 355              		.loc 1 129 16 view .LVU94
 356 0046 0026     		movs	r6, #0
 357 0048 FAE7     		b	.L16
 358              	.L18:
 129:Device/Dev_ICM426xx.c **** 
 359              		.loc 1 129 16 view .LVU95
ARM GAS  C:\Users\8bit\AppData\Local\Temp\ccNZMjib.s 			page 10


 360 004a 0026     		movs	r6, #0
 361 004c F8E7     		b	.L16
 362              	.LVL41:
 363              	.L19:
 129:Device/Dev_ICM426xx.c **** 
 364              		.loc 1 129 16 view .LVU96
 365 004e 0026     		movs	r6, #0
 366 0050 F6E7     		b	.L16
 367              		.cfi_endproc
 368              	.LFE3:
 370              		.section	.text.DevICM426xx_Reg_Write,"ax",%progbits
 371              		.align	1
 372              		.syntax unified
 373              		.thumb
 374              		.thumb_func
 376              	DevICM426xx_Reg_Write:
 377              	.LVL42:
 378              	.LFB4:
 145:Device/Dev_ICM426xx.c **** 
 146:Device/Dev_ICM426xx.c **** static bool DevICM426xx_Reg_Write(DevICM426xxObj_TypeDef *sensor_obj, uint8_t addr, uint8_t tx)
 147:Device/Dev_ICM426xx.c **** {
 379              		.loc 1 147 1 is_stmt 1 view -0
 380              		.cfi_startproc
 381              		@ args = 0, pretend = 0, frame = 8
 382              		@ frame_needed = 0, uses_anonymous_args = 0
 383              		.loc 1 147 1 is_stmt 0 view .LVU98
 384 0000 30B5     		push	{r4, r5, lr}
 385              	.LCFI12:
 386              		.cfi_def_cfa_offset 12
 387              		.cfi_offset 4, -12
 388              		.cfi_offset 5, -8
 389              		.cfi_offset 14, -4
 390 0002 83B0     		sub	sp, sp, #12
 391              	.LCFI13:
 392              		.cfi_def_cfa_offset 24
 148:Device/Dev_ICM426xx.c ****     uint8_t Rx_Tmp[2] = {0};
 393              		.loc 1 148 5 is_stmt 1 view .LVU99
 394              		.loc 1 148 13 is_stmt 0 view .LVU100
 395 0004 0023     		movs	r3, #0
 396 0006 ADF80430 		strh	r3, [sp, #4]	@ movhi
 149:Device/Dev_ICM426xx.c ****     uint8_t Tx_Tmp[2] = {0};
 397              		.loc 1 149 5 is_stmt 1 view .LVU101
 398              		.loc 1 149 13 is_stmt 0 view .LVU102
 399 000a ADF80030 		strh	r3, [sp]	@ movhi
 150:Device/Dev_ICM426xx.c ****     bool state = false;
 400              		.loc 1 150 5 is_stmt 1 view .LVU103
 401              	.LVL43:
 151:Device/Dev_ICM426xx.c **** 
 152:Device/Dev_ICM426xx.c ****     if (sensor_obj == NULL || sensor_obj->cs_ctl == NULL || sensor_obj->bus_trans == NULL)
 402              		.loc 1 152 5 view .LVU104
 403              		.loc 1 152 8 is_stmt 0 view .LVU105
 404 000e B0B1     		cbz	r0, .L23
 405 0010 0446     		mov	r4, r0
 406              		.loc 1 152 41 discriminator 1 view .LVU106
 407 0012 4368     		ldr	r3, [r0, #4]
 408              		.loc 1 152 28 discriminator 1 view .LVU107
 409 0014 ABB1     		cbz	r3, .L24
ARM GAS  C:\Users\8bit\AppData\Local\Temp\ccNZMjib.s 			page 11


 410              		.loc 1 152 71 discriminator 2 view .LVU108
 411 0016 8068     		ldr	r0, [r0, #8]
 412              	.LVL44:
 413              		.loc 1 152 58 discriminator 2 view .LVU109
 414 0018 A8B1     		cbz	r0, .L25
 153:Device/Dev_ICM426xx.c ****         return false;
 154:Device/Dev_ICM426xx.c **** 
 155:Device/Dev_ICM426xx.c ****     Tx_Tmp[0] = addr;
 415              		.loc 1 155 5 is_stmt 1 view .LVU110
 416              		.loc 1 155 15 is_stmt 0 view .LVU111
 417 001a 8DF80010 		strb	r1, [sp]
 156:Device/Dev_ICM426xx.c ****     Tx_Tmp[1] = tx;
 418              		.loc 1 156 5 is_stmt 1 view .LVU112
 419              		.loc 1 156 15 is_stmt 0 view .LVU113
 420 001e 8DF80120 		strb	r2, [sp, #1]
 157:Device/Dev_ICM426xx.c **** 
 158:Device/Dev_ICM426xx.c ****     /* cs low */
 159:Device/Dev_ICM426xx.c ****     sensor_obj->cs_ctl(false);
 421              		.loc 1 159 5 is_stmt 1 view .LVU114
 422 0022 0020     		movs	r0, #0
 423 0024 9847     		blx	r3
 424              	.LVL45:
 160:Device/Dev_ICM426xx.c **** 
 161:Device/Dev_ICM426xx.c ****     state = sensor_obj->bus_trans(Tx_Tmp, Rx_Tmp, 2);
 425              		.loc 1 161 5 view .LVU115
 426              		.loc 1 161 23 is_stmt 0 view .LVU116
 427 0026 A368     		ldr	r3, [r4, #8]
 428              		.loc 1 161 13 view .LVU117
 429 0028 0222     		movs	r2, #2
 430 002a 01A9     		add	r1, sp, #4
 431 002c 6846     		mov	r0, sp
 432 002e 9847     		blx	r3
 433              	.LVL46:
 434 0030 0546     		mov	r5, r0
 435              	.LVL47:
 162:Device/Dev_ICM426xx.c **** 
 163:Device/Dev_ICM426xx.c ****     /* cs high */
 164:Device/Dev_ICM426xx.c ****     sensor_obj->cs_ctl(true);
 436              		.loc 1 164 5 is_stmt 1 view .LVU118
 437              		.loc 1 164 15 is_stmt 0 view .LVU119
 438 0032 6368     		ldr	r3, [r4, #4]
 439              		.loc 1 164 5 view .LVU120
 440 0034 0120     		movs	r0, #1
 441 0036 9847     		blx	r3
 442              	.LVL48:
 165:Device/Dev_ICM426xx.c **** 
 166:Device/Dev_ICM426xx.c ****     return state;
 443              		.loc 1 166 5 is_stmt 1 view .LVU121
 444              	.L22:
 167:Device/Dev_ICM426xx.c **** }
 445              		.loc 1 167 1 is_stmt 0 view .LVU122
 446 0038 2846     		mov	r0, r5
 447 003a 03B0     		add	sp, sp, #12
 448              	.LCFI14:
 449              		.cfi_remember_state
 450              		.cfi_def_cfa_offset 12
 451              		@ sp needed
ARM GAS  C:\Users\8bit\AppData\Local\Temp\ccNZMjib.s 			page 12


 452 003c 30BD     		pop	{r4, r5, pc}
 453              	.LVL49:
 454              	.L23:
 455              	.LCFI15:
 456              		.cfi_restore_state
 153:Device/Dev_ICM426xx.c **** 
 457              		.loc 1 153 16 view .LVU123
 458 003e 0025     		movs	r5, #0
 459 0040 FAE7     		b	.L22
 460              	.L24:
 153:Device/Dev_ICM426xx.c **** 
 461              		.loc 1 153 16 view .LVU124
 462 0042 0025     		movs	r5, #0
 463 0044 F8E7     		b	.L22
 464              	.LVL50:
 465              	.L25:
 153:Device/Dev_ICM426xx.c **** 
 466              		.loc 1 153 16 view .LVU125
 467 0046 0025     		movs	r5, #0
 468 0048 F6E7     		b	.L22
 469              		.cfi_endproc
 470              	.LFE4:
 472              		.section	.text.DevICM426xx_Config,"ax",%progbits
 473              		.align	1
 474              		.syntax unified
 475              		.thumb
 476              		.thumb_func
 478              	DevICM426xx_Config:
 479              	.LVL51:
 480              	.LFB5:
 168:Device/Dev_ICM426xx.c **** 
 169:Device/Dev_ICM426xx.c **** static bool DevICM426xx_Config(DevICM426xxObj_TypeDef *sensor_obj, 
 170:Device/Dev_ICM426xx.c ****                                ICM426xx_SampleRate_List rate, 
 171:Device/Dev_ICM426xx.c ****                                ICM426xx_GyrTrip_List GyrTrip, 
 172:Device/Dev_ICM426xx.c ****                                ICM426xx_AccTrip_List AccTrip)
 173:Device/Dev_ICM426xx.c **** {
 481              		.loc 1 173 1 is_stmt 1 view -0
 482              		.cfi_startproc
 483              		@ args = 0, pretend = 0, frame = 0
 484              		@ frame_needed = 0, uses_anonymous_args = 0
 174:Device/Dev_ICM426xx.c ****     uint8_t odr_reg_val = 0;
 485              		.loc 1 174 5 view .LVU127
 175:Device/Dev_ICM426xx.c **** 
 176:Device/Dev_ICM426xx.c ****     if(sensor_obj == NULL)
 486              		.loc 1 176 5 view .LVU128
 487              		.loc 1 176 7 is_stmt 0 view .LVU129
 488 0000 0028     		cmp	r0, #0
 489 0002 6AD0     		beq	.L46
 173:Device/Dev_ICM426xx.c ****     uint8_t odr_reg_val = 0;
 490              		.loc 1 173 1 view .LVU130
 491 0004 00B5     		push	{lr}
 492              	.LCFI16:
 493              		.cfi_def_cfa_offset 4
 494              		.cfi_offset 14, -4
 495 0006 8446     		mov	ip, r0
 177:Device/Dev_ICM426xx.c ****         return false;
 178:Device/Dev_ICM426xx.c **** 
ARM GAS  C:\Users\8bit\AppData\Local\Temp\ccNZMjib.s 			page 13


 179:Device/Dev_ICM426xx.c ****     switch ((uint8_t)sensor_obj->rate)
 496              		.loc 1 179 5 is_stmt 1 view .LVU131
 497              		.loc 1 179 32 is_stmt 0 view .LVU132
 498 0008 90F83400 		ldrb	r0, [r0, #52]	@ zero_extendqisi2
 499              	.LVL52:
 500              		.loc 1 179 5 view .LVU133
 501 000c 0328     		cmp	r0, #3
 502 000e 66D8     		bhi	.L47
 503 0010 DFE800F0 		tbb	[pc, r0]
 504              	.L30:
 505 0014 02       		.byte	(.L33-.L30)/2
 506 0015 0F       		.byte	(.L48-.L30)/2
 507 0016 0B       		.byte	(.L31-.L30)/2
 508 0017 0D       		.byte	(.L29-.L30)/2
 509              		.p2align 1
 510              	.L33:
 511 0018 0320     		movs	r0, #3
 512              	.LVL53:
 513              	.L32:
 180:Device/Dev_ICM426xx.c ****     {
 181:Device/Dev_ICM426xx.c ****     case ICM426xx_SampleRate_8K:
 182:Device/Dev_ICM426xx.c ****         odr_reg_val = ICM426xx_ODR_8K;
 183:Device/Dev_ICM426xx.c ****         break;
 184:Device/Dev_ICM426xx.c **** 
 185:Device/Dev_ICM426xx.c ****     case ICM426xx_SampleRate_4K:
 186:Device/Dev_ICM426xx.c ****         odr_reg_val = ICM426xx_ODR_4K;
 187:Device/Dev_ICM426xx.c ****         break;
 188:Device/Dev_ICM426xx.c **** 
 189:Device/Dev_ICM426xx.c ****     case ICM426xx_SampleRate_2K:
 190:Device/Dev_ICM426xx.c ****         odr_reg_val = ICM426xx_ODR_2K;
 191:Device/Dev_ICM426xx.c ****         break;
 192:Device/Dev_ICM426xx.c **** 
 193:Device/Dev_ICM426xx.c ****     case ICM426xx_SampleRate_1K:
 194:Device/Dev_ICM426xx.c ****         odr_reg_val = ICM426xx_ODR_1K;
 195:Device/Dev_ICM426xx.c ****         break;
 196:Device/Dev_ICM426xx.c **** 
 197:Device/Dev_ICM426xx.c ****     default:
 198:Device/Dev_ICM426xx.c ****         return false;
 199:Device/Dev_ICM426xx.c ****     }
 200:Device/Dev_ICM426xx.c **** 
 201:Device/Dev_ICM426xx.c ****     sensor_obj->rate = rate;
 514              		.loc 1 201 5 is_stmt 1 view .LVU134
 515              		.loc 1 201 22 is_stmt 0 view .LVU135
 516 001a 8CF83410 		strb	r1, [ip, #52]
 202:Device/Dev_ICM426xx.c **** 
 203:Device/Dev_ICM426xx.c ****     switch ((uint8_t)AccTrip)
 517              		.loc 1 203 5 is_stmt 1 view .LVU136
 518 001e 032B     		cmp	r3, #3
 519 0020 5FD8     		bhi	.L49
 520 0022 DFE803F0 		tbb	[pc, r3]
 521              	.LVL54:
 522              	.L35:
 523 0026 08       		.byte	(.L38-.L35)/2
 524 0027 15       		.byte	(.L37-.L35)/2
 525 0028 1D       		.byte	(.L36-.L35)/2
 526 0029 25       		.byte	(.L34-.L35)/2
 527              		.p2align 1
ARM GAS  C:\Users\8bit\AppData\Local\Temp\ccNZMjib.s 			page 14


 528              	.L31:
 190:Device/Dev_ICM426xx.c ****         break;
 529              		.loc 1 190 9 view .LVU137
 191:Device/Dev_ICM426xx.c **** 
 530              		.loc 1 191 9 view .LVU138
 190:Device/Dev_ICM426xx.c ****         break;
 531              		.loc 1 190 21 is_stmt 0 view .LVU139
 532 002a 0520     		movs	r0, #5
 191:Device/Dev_ICM426xx.c **** 
 533              		.loc 1 191 9 view .LVU140
 534 002c F5E7     		b	.L32
 535              	.LVL55:
 536              	.L29:
 194:Device/Dev_ICM426xx.c ****         break;
 537              		.loc 1 194 9 is_stmt 1 view .LVU141
 195:Device/Dev_ICM426xx.c **** 
 538              		.loc 1 195 9 view .LVU142
 194:Device/Dev_ICM426xx.c ****         break;
 539              		.loc 1 194 21 is_stmt 0 view .LVU143
 540 002e 0620     		movs	r0, #6
 195:Device/Dev_ICM426xx.c **** 
 541              		.loc 1 195 9 view .LVU144
 542 0030 F3E7     		b	.L32
 543              	.LVL56:
 544              	.L48:
 186:Device/Dev_ICM426xx.c ****         break;
 545              		.loc 1 186 21 view .LVU145
 546 0032 0420     		movs	r0, #4
 547 0034 F1E7     		b	.L32
 548              	.LVL57:
 549              	.L38:
 204:Device/Dev_ICM426xx.c ****     {
 205:Device/Dev_ICM426xx.c ****     case ICM426xx_Acc_2G:
 206:Device/Dev_ICM426xx.c ****         sensor_obj->acc_scale = ICM426XX_ACC_2G_SCALE;
 550              		.loc 1 206 9 is_stmt 1 view .LVU146
 551              		.loc 1 206 31 is_stmt 0 view .LVU147
 552 0036 4FF08D41 		mov	r1, #1182793728
 553 003a CCF81C10 		str	r1, [ip, #28]	@ float
 207:Device/Dev_ICM426xx.c ****         sensor_obj->PHY_AccTrip_Val = 2;
 554              		.loc 1 207 9 is_stmt 1 view .LVU148
 555              		.loc 1 207 37 is_stmt 0 view .LVU149
 556 003e 0221     		movs	r1, #2
 557 0040 8CF81810 		strb	r1, [ip, #24]
 208:Device/Dev_ICM426xx.c ****         break;
 558              		.loc 1 208 9 is_stmt 1 view .LVU150
 559              	.L39:
 209:Device/Dev_ICM426xx.c **** 
 210:Device/Dev_ICM426xx.c ****     case ICM426xx_Acc_4G:
 211:Device/Dev_ICM426xx.c ****         sensor_obj->acc_scale = ICM426XX_ACC_4G_SCALE;
 212:Device/Dev_ICM426xx.c ****         sensor_obj->PHY_AccTrip_Val = 4;
 213:Device/Dev_ICM426xx.c ****         break;
 214:Device/Dev_ICM426xx.c **** 
 215:Device/Dev_ICM426xx.c ****     case ICM426xx_Acc_8G:
 216:Device/Dev_ICM426xx.c ****         sensor_obj->acc_scale = ICM426XX_ACC_8G_SCALE;
 217:Device/Dev_ICM426xx.c ****         sensor_obj->PHY_AccTrip_Val = 8;
 218:Device/Dev_ICM426xx.c ****         break;
 219:Device/Dev_ICM426xx.c **** 
ARM GAS  C:\Users\8bit\AppData\Local\Temp\ccNZMjib.s 			page 15


 220:Device/Dev_ICM426xx.c ****     case ICM426xx_Acc_16G:
 221:Device/Dev_ICM426xx.c ****         sensor_obj->acc_scale = ICM426XX_ACC_16G_SCALE;
 222:Device/Dev_ICM426xx.c ****         sensor_obj->PHY_AccTrip_Val = 16;
 223:Device/Dev_ICM426xx.c ****         break;
 224:Device/Dev_ICM426xx.c **** 
 225:Device/Dev_ICM426xx.c ****     default:
 226:Device/Dev_ICM426xx.c ****         return false;
 227:Device/Dev_ICM426xx.c ****     }
 228:Device/Dev_ICM426xx.c **** 
 229:Device/Dev_ICM426xx.c ****     switch ((uint8_t)GyrTrip)
 560              		.loc 1 229 5 view .LVU151
 561 0044 032A     		cmp	r2, #3
 562 0046 4ED8     		bhi	.L50
 563 0048 DFE802F0 		tbb	[pc, r2]
 564              	.L41:
 565 004c 1A       		.byte	(.L44-.L41)/2
 566 004d 2F       		.byte	(.L43-.L41)/2
 567 004e 37       		.byte	(.L42-.L41)/2
 568 004f 3F       		.byte	(.L40-.L41)/2
 569              		.p2align 1
 570              	.L37:
 211:Device/Dev_ICM426xx.c ****         sensor_obj->PHY_AccTrip_Val = 4;
 571              		.loc 1 211 9 view .LVU152
 211:Device/Dev_ICM426xx.c ****         sensor_obj->PHY_AccTrip_Val = 4;
 572              		.loc 1 211 31 is_stmt 0 view .LVU153
 573 0050 4FF08C41 		mov	r1, #1174405120
 574 0054 CCF81C10 		str	r1, [ip, #28]	@ float
 212:Device/Dev_ICM426xx.c ****         break;
 575              		.loc 1 212 9 is_stmt 1 view .LVU154
 212:Device/Dev_ICM426xx.c ****         break;
 576              		.loc 1 212 37 is_stmt 0 view .LVU155
 577 0058 0421     		movs	r1, #4
 578 005a 8CF81810 		strb	r1, [ip, #24]
 213:Device/Dev_ICM426xx.c **** 
 579              		.loc 1 213 9 is_stmt 1 view .LVU156
 580 005e F1E7     		b	.L39
 581              	.L36:
 216:Device/Dev_ICM426xx.c ****         sensor_obj->PHY_AccTrip_Val = 8;
 582              		.loc 1 216 9 view .LVU157
 216:Device/Dev_ICM426xx.c ****         sensor_obj->PHY_AccTrip_Val = 8;
 583              		.loc 1 216 31 is_stmt 0 view .LVU158
 584 0060 4FF08B41 		mov	r1, #1166016512
 585 0064 CCF81C10 		str	r1, [ip, #28]	@ float
 217:Device/Dev_ICM426xx.c ****         break;
 586              		.loc 1 217 9 is_stmt 1 view .LVU159
 217:Device/Dev_ICM426xx.c ****         break;
 587              		.loc 1 217 37 is_stmt 0 view .LVU160
 588 0068 0821     		movs	r1, #8
 589 006a 8CF81810 		strb	r1, [ip, #24]
 218:Device/Dev_ICM426xx.c **** 
 590              		.loc 1 218 9 is_stmt 1 view .LVU161
 591 006e E9E7     		b	.L39
 592              	.L34:
 221:Device/Dev_ICM426xx.c ****         sensor_obj->PHY_AccTrip_Val = 16;
 593              		.loc 1 221 9 view .LVU162
 221:Device/Dev_ICM426xx.c ****         sensor_obj->PHY_AccTrip_Val = 16;
 594              		.loc 1 221 31 is_stmt 0 view .LVU163
ARM GAS  C:\Users\8bit\AppData\Local\Temp\ccNZMjib.s 			page 16


 595 0070 4FF08A41 		mov	r1, #1157627904
 596 0074 CCF81C10 		str	r1, [ip, #28]	@ float
 222:Device/Dev_ICM426xx.c ****         break;
 597              		.loc 1 222 9 is_stmt 1 view .LVU164
 222:Device/Dev_ICM426xx.c ****         break;
 598              		.loc 1 222 37 is_stmt 0 view .LVU165
 599 0078 1021     		movs	r1, #16
 600 007a 8CF81810 		strb	r1, [ip, #24]
 223:Device/Dev_ICM426xx.c **** 
 601              		.loc 1 223 9 is_stmt 1 view .LVU166
 602 007e E1E7     		b	.L39
 603              	.L44:
 230:Device/Dev_ICM426xx.c ****     {
 231:Device/Dev_ICM426xx.c ****     case ICM426xx_Gyr_250DPS:
 232:Device/Dev_ICM426xx.c ****         sensor_obj->gyr_scale = ICM426XX_GYR_250DPS_SCALE;
 604              		.loc 1 232 9 view .LVU167
 605              		.loc 1 232 31 is_stmt 0 view .LVU168
 606 0080 1A49     		ldr	r1, .L55
 607 0082 CCF82010 		str	r1, [ip, #32]	@ float
 233:Device/Dev_ICM426xx.c ****         sensor_obj->PHY_GyrTrip_Val = 250;
 608              		.loc 1 233 9 is_stmt 1 view .LVU169
 609              		.loc 1 233 37 is_stmt 0 view .LVU170
 610 0086 FA21     		movs	r1, #250
 611 0088 ACF81A10 		strh	r1, [ip, #26]	@ movhi
 234:Device/Dev_ICM426xx.c ****         break;
 612              		.loc 1 234 9 is_stmt 1 view .LVU171
 613              	.L45:
 235:Device/Dev_ICM426xx.c **** 
 236:Device/Dev_ICM426xx.c ****     case ICM426xx_Gyr_500DPS:
 237:Device/Dev_ICM426xx.c ****         sensor_obj->gyr_scale = ICM426XX_GYR_500DPS_SCALE;
 238:Device/Dev_ICM426xx.c ****         sensor_obj->PHY_GyrTrip_Val = 500;
 239:Device/Dev_ICM426xx.c ****         break;
 240:Device/Dev_ICM426xx.c **** 
 241:Device/Dev_ICM426xx.c ****     case ICM426xx_Gyr_1000DPS:
 242:Device/Dev_ICM426xx.c ****         sensor_obj->gyr_scale = ICM426XX_GYR_1000DPS_SCALE;
 243:Device/Dev_ICM426xx.c ****         sensor_obj->PHY_GyrTrip_Val = 1000;
 244:Device/Dev_ICM426xx.c ****         break;
 245:Device/Dev_ICM426xx.c **** 
 246:Device/Dev_ICM426xx.c ****     case ICM426xx_Gyr_2000DPS:
 247:Device/Dev_ICM426xx.c ****         sensor_obj->gyr_scale = ICM426XX_GYR_2000DPS_SCALE;
 248:Device/Dev_ICM426xx.c ****         sensor_obj->PHY_GyrTrip_Val = 2000;
 249:Device/Dev_ICM426xx.c ****         break;
 250:Device/Dev_ICM426xx.c **** 
 251:Device/Dev_ICM426xx.c ****     default:
 252:Device/Dev_ICM426xx.c ****         return false;
 253:Device/Dev_ICM426xx.c ****     }
 254:Device/Dev_ICM426xx.c **** 
 255:Device/Dev_ICM426xx.c ****     /* set AccTrip and GyrTrip reg val */
 256:Device/Dev_ICM426xx.c ****     sensor_obj->AccTrip = ConvertToICM426xxTrip_Reg(AccTrip, odr_reg_val);
 614              		.loc 1 256 5 view .LVU172
 615              		.loc 1 256 27 is_stmt 0 view .LVU173
 616 008c C3F10303 		rsb	r3, r3, #3
 617              	.LVL58:
 618              		.loc 1 256 27 view .LVU174
 619 0090 40EA4313 		orr	r3, r0, r3, lsl #5
 620              		.loc 1 256 25 view .LVU175
 621 0094 8CF81630 		strb	r3, [ip, #22]
ARM GAS  C:\Users\8bit\AppData\Local\Temp\ccNZMjib.s 			page 17


 257:Device/Dev_ICM426xx.c ****     sensor_obj->GyrTrip = ConvertToICM426xxTrip_Reg(GyrTrip, odr_reg_val);
 622              		.loc 1 257 5 is_stmt 1 view .LVU176
 623              		.loc 1 257 27 is_stmt 0 view .LVU177
 624 0098 C2F10302 		rsb	r2, r2, #3
 625              	.LVL59:
 626              		.loc 1 257 27 view .LVU178
 627 009c 40EA4212 		orr	r2, r0, r2, lsl #5
 628              		.loc 1 257 25 view .LVU179
 629 00a0 8CF81720 		strb	r2, [ip, #23]
 258:Device/Dev_ICM426xx.c **** 
 259:Device/Dev_ICM426xx.c ****     return true;
 630              		.loc 1 259 5 is_stmt 1 view .LVU180
 631              		.loc 1 259 12 is_stmt 0 view .LVU181
 632 00a4 0120     		movs	r0, #1
 633              	.LVL60:
 634              	.L28:
 260:Device/Dev_ICM426xx.c **** }
 635              		.loc 1 260 1 view .LVU182
 636 00a6 5DF804FB 		ldr	pc, [sp], #4
 637              	.LVL61:
 638              	.L43:
 237:Device/Dev_ICM426xx.c ****         sensor_obj->PHY_GyrTrip_Val = 500;
 639              		.loc 1 237 9 is_stmt 1 view .LVU183
 237:Device/Dev_ICM426xx.c ****         sensor_obj->PHY_GyrTrip_Val = 500;
 640              		.loc 1 237 31 is_stmt 0 view .LVU184
 641 00aa 1149     		ldr	r1, .L55+4
 642 00ac CCF82010 		str	r1, [ip, #32]	@ float
 238:Device/Dev_ICM426xx.c ****         break;
 643              		.loc 1 238 9 is_stmt 1 view .LVU185
 238:Device/Dev_ICM426xx.c ****         break;
 644              		.loc 1 238 37 is_stmt 0 view .LVU186
 645 00b0 4FF4FA71 		mov	r1, #500
 646 00b4 ACF81A10 		strh	r1, [ip, #26]	@ movhi
 239:Device/Dev_ICM426xx.c **** 
 647              		.loc 1 239 9 is_stmt 1 view .LVU187
 648 00b8 E8E7     		b	.L45
 649              	.L42:
 242:Device/Dev_ICM426xx.c ****         sensor_obj->PHY_GyrTrip_Val = 1000;
 650              		.loc 1 242 9 view .LVU188
 242:Device/Dev_ICM426xx.c ****         sensor_obj->PHY_GyrTrip_Val = 1000;
 651              		.loc 1 242 31 is_stmt 0 view .LVU189
 652 00ba 0E49     		ldr	r1, .L55+8
 653 00bc CCF82010 		str	r1, [ip, #32]	@ float
 243:Device/Dev_ICM426xx.c ****         break;
 654              		.loc 1 243 9 is_stmt 1 view .LVU190
 243:Device/Dev_ICM426xx.c ****         break;
 655              		.loc 1 243 37 is_stmt 0 view .LVU191
 656 00c0 4FF47A71 		mov	r1, #1000
 657 00c4 ACF81A10 		strh	r1, [ip, #26]	@ movhi
 244:Device/Dev_ICM426xx.c **** 
 658              		.loc 1 244 9 is_stmt 1 view .LVU192
 659 00c8 E0E7     		b	.L45
 660              	.L40:
 247:Device/Dev_ICM426xx.c ****         sensor_obj->PHY_GyrTrip_Val = 2000;
 661              		.loc 1 247 9 view .LVU193
 247:Device/Dev_ICM426xx.c ****         sensor_obj->PHY_GyrTrip_Val = 2000;
 662              		.loc 1 247 31 is_stmt 0 view .LVU194
ARM GAS  C:\Users\8bit\AppData\Local\Temp\ccNZMjib.s 			page 18


 663 00ca 0B49     		ldr	r1, .L55+12
 664 00cc CCF82010 		str	r1, [ip, #32]	@ float
 248:Device/Dev_ICM426xx.c ****         break;
 665              		.loc 1 248 9 is_stmt 1 view .LVU195
 248:Device/Dev_ICM426xx.c ****         break;
 666              		.loc 1 248 37 is_stmt 0 view .LVU196
 667 00d0 4FF4FA61 		mov	r1, #2000
 668 00d4 ACF81A10 		strh	r1, [ip, #26]	@ movhi
 249:Device/Dev_ICM426xx.c **** 
 669              		.loc 1 249 9 is_stmt 1 view .LVU197
 670 00d8 D8E7     		b	.L45
 671              	.LVL62:
 672              	.L46:
 673              	.LCFI17:
 674              		.cfi_def_cfa_offset 0
 675              		.cfi_restore 14
 177:Device/Dev_ICM426xx.c **** 
 676              		.loc 1 177 16 is_stmt 0 view .LVU198
 677 00da 0020     		movs	r0, #0
 678              	.LVL63:
 679              		.loc 1 260 1 view .LVU199
 680 00dc 7047     		bx	lr
 681              	.LVL64:
 682              	.L47:
 683              	.LCFI18:
 684              		.cfi_def_cfa_offset 4
 685              		.cfi_offset 14, -4
 179:Device/Dev_ICM426xx.c ****     {
 686              		.loc 1 179 5 view .LVU200
 687 00de 0020     		movs	r0, #0
 688 00e0 E1E7     		b	.L28
 689              	.LVL65:
 690              	.L49:
 203:Device/Dev_ICM426xx.c ****     {
 691              		.loc 1 203 5 view .LVU201
 692 00e2 0020     		movs	r0, #0
 693              	.LVL66:
 203:Device/Dev_ICM426xx.c ****     {
 694              		.loc 1 203 5 view .LVU202
 695 00e4 DFE7     		b	.L28
 696              	.LVL67:
 697              	.L50:
 229:Device/Dev_ICM426xx.c ****     {
 698              		.loc 1 229 5 view .LVU203
 699 00e6 0020     		movs	r0, #0
 700              	.LVL68:
 229:Device/Dev_ICM426xx.c ****     {
 701              		.loc 1 229 5 view .LVU204
 702 00e8 DDE7     		b	.L28
 703              	.L56:
 704 00ea 00BF     		.align	2
 705              	.L55:
 706 00ec 00000343 		.word	1124270080
 707 00f0 00008342 		.word	1115881472
 708 00f4 33330342 		.word	1107505971
 709 00f8 33338341 		.word	1099117363
 710              		.cfi_endproc
ARM GAS  C:\Users\8bit\AppData\Local\Temp\ccNZMjib.s 			page 19


 711              	.LFE5:
 713              		.section	.text.DevICM426xx_PreInit,"ax",%progbits
 714              		.align	1
 715              		.syntax unified
 716              		.thumb
 717              		.thumb_func
 719              	DevICM426xx_PreInit:
 720              	.LVL69:
 721              	.LFB6:
 261:Device/Dev_ICM426xx.c **** 
 262:Device/Dev_ICM426xx.c **** static void DevICM426xx_PreInit(DevICM426xxObj_TypeDef *sensor_obj,
 263:Device/Dev_ICM426xx.c ****                                cs_ctl_callback cs_ctl,
 264:Device/Dev_ICM426xx.c ****                                bus_trans_callback bus_trans,
 265:Device/Dev_ICM426xx.c ****                                delay_callback delay,
 266:Device/Dev_ICM426xx.c ****                                get_time_stamp_callback get_time_stamp)
 267:Device/Dev_ICM426xx.c **** {
 722              		.loc 1 267 1 is_stmt 1 view -0
 723              		.cfi_startproc
 724              		@ args = 4, pretend = 0, frame = 0
 725              		@ frame_needed = 0, uses_anonymous_args = 0
 726              		@ link register save eliminated.
 268:Device/Dev_ICM426xx.c ****     sensor_obj->cs_ctl = cs_ctl;
 727              		.loc 1 268 5 view .LVU206
 728              		.loc 1 268 24 is_stmt 0 view .LVU207
 729 0000 4160     		str	r1, [r0, #4]
 269:Device/Dev_ICM426xx.c ****     sensor_obj->bus_trans = bus_trans;
 730              		.loc 1 269 5 is_stmt 1 view .LVU208
 731              		.loc 1 269 27 is_stmt 0 view .LVU209
 732 0002 8260     		str	r2, [r0, #8]
 270:Device/Dev_ICM426xx.c ****     sensor_obj->delay = delay;
 733              		.loc 1 270 5 is_stmt 1 view .LVU210
 734              		.loc 1 270 23 is_stmt 0 view .LVU211
 735 0004 C360     		str	r3, [r0, #12]
 271:Device/Dev_ICM426xx.c ****     sensor_obj->get_timestamp = get_time_stamp;
 736              		.loc 1 271 5 is_stmt 1 view .LVU212
 737              		.loc 1 271 31 is_stmt 0 view .LVU213
 738 0006 009B     		ldr	r3, [sp]
 739              	.LVL70:
 740              		.loc 1 271 31 view .LVU214
 741 0008 0361     		str	r3, [r0, #16]
 272:Device/Dev_ICM426xx.c **** }
 742              		.loc 1 272 1 view .LVU215
 743 000a 7047     		bx	lr
 744              		.cfi_endproc
 745              	.LFE6:
 747              		.section	.text.DevICM426xx_SetUserBank,"ax",%progbits
 748              		.align	1
 749              		.syntax unified
 750              		.thumb
 751              		.thumb_func
 753              	DevICM426xx_SetUserBank:
 754              	.LVL71:
 755              	.LFB7:
 273:Device/Dev_ICM426xx.c **** 
 274:Device/Dev_ICM426xx.c **** static bool DevICM426xx_SetUserBank(DevICM426xxObj_TypeDef *sensor_obj, const uint8_t bank)
 275:Device/Dev_ICM426xx.c **** {
 756              		.loc 1 275 1 is_stmt 1 view -0
ARM GAS  C:\Users\8bit\AppData\Local\Temp\ccNZMjib.s 			page 20


 757              		.cfi_startproc
 758              		@ args = 0, pretend = 0, frame = 8
 759              		@ frame_needed = 0, uses_anonymous_args = 0
 760              		.loc 1 275 1 is_stmt 0 view .LVU217
 761 0000 30B5     		push	{r4, r5, lr}
 762              	.LCFI19:
 763              		.cfi_def_cfa_offset 12
 764              		.cfi_offset 4, -12
 765              		.cfi_offset 5, -8
 766              		.cfi_offset 14, -4
 767 0002 83B0     		sub	sp, sp, #12
 768              	.LCFI20:
 769              		.cfi_def_cfa_offset 24
 276:Device/Dev_ICM426xx.c ****     bool state = true;
 770              		.loc 1 276 5 is_stmt 1 view .LVU218
 771              	.LVL72:
 277:Device/Dev_ICM426xx.c ****     uint8_t read_out = 0;
 772              		.loc 1 277 5 view .LVU219
 773              		.loc 1 277 13 is_stmt 0 view .LVU220
 774 0004 0023     		movs	r3, #0
 775 0006 8DF80730 		strb	r3, [sp, #7]
 278:Device/Dev_ICM426xx.c **** 
 279:Device/Dev_ICM426xx.c ****     if(sensor_obj == NULL)
 776              		.loc 1 279 5 is_stmt 1 view .LVU221
 777              		.loc 1 279 7 is_stmt 0 view .LVU222
 778 000a C8B1     		cbz	r0, .L60
 779 000c 0546     		mov	r5, r0
 280:Device/Dev_ICM426xx.c ****         return false;
 281:Device/Dev_ICM426xx.c **** 
 282:Device/Dev_ICM426xx.c ****     state = DevICM426xx_Reg_Write(sensor_obj, ICM426XX_RA_REG_BANK_SEL, UserBankToReg(bank));
 780              		.loc 1 282 5 is_stmt 1 view .LVU223
 781              		.loc 1 282 13 is_stmt 0 view .LVU224
 782 000e 01F00704 		and	r4, r1, #7
 783 0012 2246     		mov	r2, r4
 784 0014 7621     		movs	r1, #118
 785              	.LVL73:
 786              		.loc 1 282 13 view .LVU225
 787 0016 FFF7FEFF 		bl	DevICM426xx_Reg_Write
 788              	.LVL74:
 283:Device/Dev_ICM426xx.c **** 
 284:Device/Dev_ICM426xx.c ****     if(!state)
 789              		.loc 1 284 5 is_stmt 1 view .LVU226
 790              		.loc 1 284 7 is_stmt 0 view .LVU227
 791 001a 0346     		mov	r3, r0
 792 001c 10B9     		cbnz	r0, .L64
 793              	.LVL75:
 794              	.L59:
 285:Device/Dev_ICM426xx.c ****         return false;
 286:Device/Dev_ICM426xx.c **** 
 287:Device/Dev_ICM426xx.c ****     state = DevICM426xx_Reg_Read(sensor_obj, ICM426XX_RA_REG_BANK_SEL, &read_out);
 288:Device/Dev_ICM426xx.c ****     if((!state) || (read_out != UserBankToReg(bank)))
 289:Device/Dev_ICM426xx.c ****         return false;
 290:Device/Dev_ICM426xx.c **** 
 291:Device/Dev_ICM426xx.c ****     return true;
 292:Device/Dev_ICM426xx.c **** }
 795              		.loc 1 292 1 view .LVU228
 796 001e 1846     		mov	r0, r3
ARM GAS  C:\Users\8bit\AppData\Local\Temp\ccNZMjib.s 			page 21


 797 0020 03B0     		add	sp, sp, #12
 798              	.LCFI21:
 799              		.cfi_remember_state
 800              		.cfi_def_cfa_offset 12
 801              		@ sp needed
 802 0022 30BD     		pop	{r4, r5, pc}
 803              	.LVL76:
 804              	.L64:
 805              	.LCFI22:
 806              		.cfi_restore_state
 287:Device/Dev_ICM426xx.c ****     if((!state) || (read_out != UserBankToReg(bank)))
 807              		.loc 1 287 5 is_stmt 1 view .LVU229
 287:Device/Dev_ICM426xx.c ****     if((!state) || (read_out != UserBankToReg(bank)))
 808              		.loc 1 287 13 is_stmt 0 view .LVU230
 809 0024 0DF10702 		add	r2, sp, #7
 810 0028 7621     		movs	r1, #118
 811 002a 2846     		mov	r0, r5
 812              	.LVL77:
 287:Device/Dev_ICM426xx.c ****     if((!state) || (read_out != UserBankToReg(bank)))
 813              		.loc 1 287 13 view .LVU231
 814 002c FFF7FEFF 		bl	DevICM426xx_Reg_Read
 815              	.LVL78:
 288:Device/Dev_ICM426xx.c ****         return false;
 816              		.loc 1 288 5 is_stmt 1 view .LVU232
 288:Device/Dev_ICM426xx.c ****         return false;
 817              		.loc 1 288 7 is_stmt 0 view .LVU233
 818 0030 0346     		mov	r3, r0
 819 0032 38B1     		cbz	r0, .L61
 288:Device/Dev_ICM426xx.c ****         return false;
 820              		.loc 1 288 30 discriminator 1 view .LVU234
 821 0034 9DF80720 		ldrb	r2, [sp, #7]	@ zero_extendqisi2
 288:Device/Dev_ICM426xx.c ****         return false;
 822              		.loc 1 288 17 discriminator 1 view .LVU235
 823 0038 9442     		cmp	r4, r2
 824 003a F0D0     		beq	.L59
 289:Device/Dev_ICM426xx.c **** 
 825              		.loc 1 289 16 view .LVU236
 826 003c 0023     		movs	r3, #0
 827 003e EEE7     		b	.L59
 828              	.LVL79:
 829              	.L60:
 280:Device/Dev_ICM426xx.c **** 
 830              		.loc 1 280 16 view .LVU237
 831 0040 0023     		movs	r3, #0
 832 0042 ECE7     		b	.L59
 833              	.LVL80:
 834              	.L61:
 289:Device/Dev_ICM426xx.c **** 
 835              		.loc 1 289 16 view .LVU238
 836 0044 0023     		movs	r3, #0
 837 0046 EAE7     		b	.L59
 838              		.cfi_endproc
 839              	.LFE7:
 841              		.section	.text.DevICM426xx_TurnOff_AccGyro,"ax",%progbits
 842              		.align	1
 843              		.syntax unified
 844              		.thumb
ARM GAS  C:\Users\8bit\AppData\Local\Temp\ccNZMjib.s 			page 22


 845              		.thumb_func
 847              	DevICM426xx_TurnOff_AccGyro:
 848              	.LVL81:
 849              	.LFB8:
 293:Device/Dev_ICM426xx.c **** 
 294:Device/Dev_ICM426xx.c **** static bool DevICM426xx_TurnOff_AccGyro(DevICM426xxObj_TypeDef *sensor_obj)
 295:Device/Dev_ICM426xx.c **** {
 850              		.loc 1 295 1 is_stmt 1 view -0
 851              		.cfi_startproc
 852              		@ args = 0, pretend = 0, frame = 8
 853              		@ frame_needed = 0, uses_anonymous_args = 0
 854              		.loc 1 295 1 is_stmt 0 view .LVU240
 855 0000 10B5     		push	{r4, lr}
 856              	.LCFI23:
 857              		.cfi_def_cfa_offset 8
 858              		.cfi_offset 4, -8
 859              		.cfi_offset 14, -4
 860 0002 82B0     		sub	sp, sp, #8
 861              	.LCFI24:
 862              		.cfi_def_cfa_offset 16
 296:Device/Dev_ICM426xx.c ****     bool state = true;
 863              		.loc 1 296 5 is_stmt 1 view .LVU241
 864              	.LVL82:
 297:Device/Dev_ICM426xx.c ****     uint8_t read_out = 0;
 865              		.loc 1 297 5 view .LVU242
 866              		.loc 1 297 13 is_stmt 0 view .LVU243
 867 0004 0023     		movs	r3, #0
 868 0006 8DF80730 		strb	r3, [sp, #7]
 298:Device/Dev_ICM426xx.c **** 
 299:Device/Dev_ICM426xx.c ****     if(sensor_obj == NULL)
 869              		.loc 1 299 5 is_stmt 1 view .LVU244
 870              		.loc 1 299 7 is_stmt 0 view .LVU245
 871 000a B8B1     		cbz	r0, .L67
 872 000c 0446     		mov	r4, r0
 300:Device/Dev_ICM426xx.c ****         return false;
 301:Device/Dev_ICM426xx.c **** 
 302:Device/Dev_ICM426xx.c ****     state = DevICM426xx_Reg_Write(sensor_obj, ICM426XX_RA_PWR_MGMT0, ICM426XX_PWR_MGMT0_GYRO_ACCEL_
 873              		.loc 1 302 5 is_stmt 1 view .LVU246
 874              		.loc 1 302 13 is_stmt 0 view .LVU247
 875 000e 1A46     		mov	r2, r3
 876 0010 4E21     		movs	r1, #78
 877 0012 FFF7FEFF 		bl	DevICM426xx_Reg_Write
 878              	.LVL83:
 303:Device/Dev_ICM426xx.c **** 
 304:Device/Dev_ICM426xx.c ****     if(!state)
 879              		.loc 1 304 5 is_stmt 1 view .LVU248
 880              		.loc 1 304 7 is_stmt 0 view .LVU249
 881 0016 0346     		mov	r3, r0
 882 0018 10B9     		cbnz	r0, .L71
 883              	.LVL84:
 884              	.L66:
 305:Device/Dev_ICM426xx.c ****         return false;
 306:Device/Dev_ICM426xx.c **** 
 307:Device/Dev_ICM426xx.c ****     state = DevICM426xx_Reg_Read(sensor_obj, ICM426XX_RA_PWR_MGMT0, &read_out);
 308:Device/Dev_ICM426xx.c ****     if((!state) || (read_out != ICM426XX_PWR_MGMT0_GYRO_ACCEL_MODE_OFF))
 309:Device/Dev_ICM426xx.c ****         return false;
 310:Device/Dev_ICM426xx.c **** 
ARM GAS  C:\Users\8bit\AppData\Local\Temp\ccNZMjib.s 			page 23


 311:Device/Dev_ICM426xx.c ****     return true;
 312:Device/Dev_ICM426xx.c **** }
 885              		.loc 1 312 1 view .LVU250
 886 001a 1846     		mov	r0, r3
 887 001c 02B0     		add	sp, sp, #8
 888              	.LCFI25:
 889              		.cfi_remember_state
 890              		.cfi_def_cfa_offset 8
 891              		@ sp needed
 892 001e 10BD     		pop	{r4, pc}
 893              	.LVL85:
 894              	.L71:
 895              	.LCFI26:
 896              		.cfi_restore_state
 307:Device/Dev_ICM426xx.c ****     if((!state) || (read_out != ICM426XX_PWR_MGMT0_GYRO_ACCEL_MODE_OFF))
 897              		.loc 1 307 5 is_stmt 1 view .LVU251
 307:Device/Dev_ICM426xx.c ****     if((!state) || (read_out != ICM426XX_PWR_MGMT0_GYRO_ACCEL_MODE_OFF))
 898              		.loc 1 307 13 is_stmt 0 view .LVU252
 899 0020 0DF10702 		add	r2, sp, #7
 900 0024 4E21     		movs	r1, #78
 901 0026 2046     		mov	r0, r4
 902              	.LVL86:
 307:Device/Dev_ICM426xx.c ****     if((!state) || (read_out != ICM426XX_PWR_MGMT0_GYRO_ACCEL_MODE_OFF))
 903              		.loc 1 307 13 view .LVU253
 904 0028 FFF7FEFF 		bl	DevICM426xx_Reg_Read
 905              	.LVL87:
 308:Device/Dev_ICM426xx.c ****         return false;
 906              		.loc 1 308 5 is_stmt 1 view .LVU254
 308:Device/Dev_ICM426xx.c ****         return false;
 907              		.loc 1 308 7 is_stmt 0 view .LVU255
 908 002c 0346     		mov	r3, r0
 909 002e 38B1     		cbz	r0, .L68
 308:Device/Dev_ICM426xx.c ****         return false;
 910              		.loc 1 308 30 discriminator 1 view .LVU256
 911 0030 9DF80720 		ldrb	r2, [sp, #7]	@ zero_extendqisi2
 308:Device/Dev_ICM426xx.c ****         return false;
 912              		.loc 1 308 17 discriminator 1 view .LVU257
 913 0034 002A     		cmp	r2, #0
 914 0036 F0D0     		beq	.L66
 309:Device/Dev_ICM426xx.c **** 
 915              		.loc 1 309 16 view .LVU258
 916 0038 0023     		movs	r3, #0
 917 003a EEE7     		b	.L66
 918              	.LVL88:
 919              	.L67:
 300:Device/Dev_ICM426xx.c **** 
 920              		.loc 1 300 16 view .LVU259
 921 003c 0023     		movs	r3, #0
 922 003e ECE7     		b	.L66
 923              	.LVL89:
 924              	.L68:
 309:Device/Dev_ICM426xx.c **** 
 925              		.loc 1 309 16 view .LVU260
 926 0040 0023     		movs	r3, #0
 927 0042 EAE7     		b	.L66
 928              		.cfi_endproc
 929              	.LFE8:
ARM GAS  C:\Users\8bit\AppData\Local\Temp\ccNZMjib.s 			page 24


 931              		.section	.text.DevICM426xx_TurnOn_AccGyro,"ax",%progbits
 932              		.align	1
 933              		.syntax unified
 934              		.thumb
 935              		.thumb_func
 937              	DevICM426xx_TurnOn_AccGyro:
 938              	.LVL90:
 939              	.LFB9:
 313:Device/Dev_ICM426xx.c **** 
 314:Device/Dev_ICM426xx.c **** static bool DevICM426xx_TurnOn_AccGyro(DevICM426xxObj_TypeDef *sensor_obj)
 315:Device/Dev_ICM426xx.c **** {
 940              		.loc 1 315 1 is_stmt 1 view -0
 941              		.cfi_startproc
 942              		@ args = 0, pretend = 0, frame = 8
 943              		@ frame_needed = 0, uses_anonymous_args = 0
 944              		.loc 1 315 1 is_stmt 0 view .LVU262
 945 0000 30B5     		push	{r4, r5, lr}
 946              	.LCFI27:
 947              		.cfi_def_cfa_offset 12
 948              		.cfi_offset 4, -12
 949              		.cfi_offset 5, -8
 950              		.cfi_offset 14, -4
 951 0002 83B0     		sub	sp, sp, #12
 952              	.LCFI28:
 953              		.cfi_def_cfa_offset 24
 316:Device/Dev_ICM426xx.c ****     bool state = true;
 954              		.loc 1 316 5 is_stmt 1 view .LVU263
 955              	.LVL91:
 317:Device/Dev_ICM426xx.c ****     uint8_t read_out = 0;
 956              		.loc 1 317 5 view .LVU264
 957              		.loc 1 317 13 is_stmt 0 view .LVU265
 958 0004 0023     		movs	r3, #0
 959 0006 8DF80730 		strb	r3, [sp, #7]
 318:Device/Dev_ICM426xx.c **** 
 319:Device/Dev_ICM426xx.c ****     if((sensor_obj == NULL) || (sensor_obj->delay == NULL))
 960              		.loc 1 319 5 is_stmt 1 view .LVU266
 961              		.loc 1 319 7 is_stmt 0 view .LVU267
 962 000a E0B1     		cbz	r0, .L74
 963 000c 0546     		mov	r5, r0
 964              		.loc 1 319 43 discriminator 1 view .LVU268
 965 000e C368     		ldr	r3, [r0, #12]
 966              		.loc 1 319 29 discriminator 1 view .LVU269
 967 0010 DBB1     		cbz	r3, .L75
 320:Device/Dev_ICM426xx.c ****         return false;
 321:Device/Dev_ICM426xx.c **** 
 322:Device/Dev_ICM426xx.c ****     state = DevICM426xx_Reg_Write(sensor_obj, ICM426XX_RA_PWR_MGMT0, ICM426XX_PWR_MGMT0_TEMP_DISABL
 968              		.loc 1 322 5 is_stmt 1 view .LVU270
 969              		.loc 1 322 13 is_stmt 0 view .LVU271
 970 0012 0F22     		movs	r2, #15
 971 0014 4E21     		movs	r1, #78
 972 0016 FFF7FEFF 		bl	DevICM426xx_Reg_Write
 973              	.LVL92:
 974              		.loc 1 322 13 view .LVU272
 975 001a 0446     		mov	r4, r0
 976              	.LVL93:
 323:Device/Dev_ICM426xx.c ****     sensor_obj->delay(1);
 977              		.loc 1 323 5 is_stmt 1 view .LVU273
ARM GAS  C:\Users\8bit\AppData\Local\Temp\ccNZMjib.s 			page 25


 978              		.loc 1 323 15 is_stmt 0 view .LVU274
 979 001c EB68     		ldr	r3, [r5, #12]
 980              		.loc 1 323 5 view .LVU275
 981 001e 0120     		movs	r0, #1
 982 0020 9847     		blx	r3
 983              	.LVL94:
 324:Device/Dev_ICM426xx.c **** 
 325:Device/Dev_ICM426xx.c ****     if(!state)
 984              		.loc 1 325 5 is_stmt 1 view .LVU276
 985              		.loc 1 325 7 is_stmt 0 view .LVU277
 986 0022 14B9     		cbnz	r4, .L79
 987              	.LVL95:
 988              	.L73:
 326:Device/Dev_ICM426xx.c ****         return false;
 327:Device/Dev_ICM426xx.c **** 
 328:Device/Dev_ICM426xx.c ****     state = DevICM426xx_Reg_Read(sensor_obj, ICM426XX_RA_PWR_MGMT0, &read_out);
 329:Device/Dev_ICM426xx.c ****     if((!state) || (read_out != (ICM426XX_PWR_MGMT0_TEMP_DISABLE_OFF | ICM426XX_PWR_MGMT0_ACCEL_MOD
 330:Device/Dev_ICM426xx.c ****         return false;
 331:Device/Dev_ICM426xx.c **** 
 332:Device/Dev_ICM426xx.c ****     return true;
 333:Device/Dev_ICM426xx.c **** }
 989              		.loc 1 333 1 view .LVU278
 990 0024 2046     		mov	r0, r4
 991 0026 03B0     		add	sp, sp, #12
 992              	.LCFI29:
 993              		.cfi_remember_state
 994              		.cfi_def_cfa_offset 12
 995              		@ sp needed
 996 0028 30BD     		pop	{r4, r5, pc}
 997              	.LVL96:
 998              	.L79:
 999              	.LCFI30:
 1000              		.cfi_restore_state
 328:Device/Dev_ICM426xx.c ****     if((!state) || (read_out != (ICM426XX_PWR_MGMT0_TEMP_DISABLE_OFF | ICM426XX_PWR_MGMT0_ACCEL_MOD
 1001              		.loc 1 328 5 is_stmt 1 view .LVU279
 328:Device/Dev_ICM426xx.c ****     if((!state) || (read_out != (ICM426XX_PWR_MGMT0_TEMP_DISABLE_OFF | ICM426XX_PWR_MGMT0_ACCEL_MOD
 1002              		.loc 1 328 13 is_stmt 0 view .LVU280
 1003 002a 0DF10702 		add	r2, sp, #7
 1004 002e 4E21     		movs	r1, #78
 1005 0030 2846     		mov	r0, r5
 1006 0032 FFF7FEFF 		bl	DevICM426xx_Reg_Read
 1007              	.LVL97:
 329:Device/Dev_ICM426xx.c ****         return false;
 1008              		.loc 1 329 5 is_stmt 1 view .LVU281
 329:Device/Dev_ICM426xx.c ****         return false;
 1009              		.loc 1 329 7 is_stmt 0 view .LVU282
 1010 0036 0446     		mov	r4, r0
 1011 0038 48B1     		cbz	r0, .L76
 329:Device/Dev_ICM426xx.c ****         return false;
 1012              		.loc 1 329 30 discriminator 1 view .LVU283
 1013 003a 9DF80730 		ldrb	r3, [sp, #7]	@ zero_extendqisi2
 329:Device/Dev_ICM426xx.c ****         return false;
 1014              		.loc 1 329 17 discriminator 1 view .LVU284
 1015 003e 0F2B     		cmp	r3, #15
 1016 0040 F0D0     		beq	.L73
 330:Device/Dev_ICM426xx.c **** 
 1017              		.loc 1 330 16 view .LVU285
ARM GAS  C:\Users\8bit\AppData\Local\Temp\ccNZMjib.s 			page 26


 1018 0042 0024     		movs	r4, #0
 1019 0044 EEE7     		b	.L73
 1020              	.LVL98:
 1021              	.L74:
 320:Device/Dev_ICM426xx.c **** 
 1022              		.loc 1 320 16 view .LVU286
 1023 0046 0024     		movs	r4, #0
 1024 0048 ECE7     		b	.L73
 1025              	.L75:
 320:Device/Dev_ICM426xx.c **** 
 1026              		.loc 1 320 16 view .LVU287
 1027 004a 0024     		movs	r4, #0
 1028 004c EAE7     		b	.L73
 1029              	.LVL99:
 1030              	.L76:
 330:Device/Dev_ICM426xx.c **** 
 1031              		.loc 1 330 16 view .LVU288
 1032 004e 0024     		movs	r4, #0
 1033 0050 E8E7     		b	.L73
 1034              		.cfi_endproc
 1035              	.LFE9:
 1037              		.section	.rodata.DevICM426xx_Init.str1.4,"aMS",%progbits,1
 1038              		.align	2
 1039              	.LC0:
 1040 0000 00       		.ascii	"\000"
 1041              		.section	.text.DevICM426xx_Init,"ax",%progbits
 1042              		.align	1
 1043              		.syntax unified
 1044              		.thumb
 1045              		.thumb_func
 1047              	DevICM426xx_Init:
 1048              	.LVL100:
 1049              	.LFB10:
 334:Device/Dev_ICM426xx.c **** 
 335:Device/Dev_ICM426xx.c **** static bool DevICM426xx_Init(DevICM426xxObj_TypeDef *sensor_obj)
 336:Device/Dev_ICM426xx.c **** {
 1050              		.loc 1 336 1 is_stmt 1 view -0
 1051              		.cfi_startproc
 1052              		@ args = 0, pretend = 0, frame = 8
 1053              		@ frame_needed = 0, uses_anonymous_args = 0
 1054              		.loc 1 336 1 is_stmt 0 view .LVU290
 1055 0000 30B5     		push	{r4, r5, lr}
 1056              	.LCFI31:
 1057              		.cfi_def_cfa_offset 12
 1058              		.cfi_offset 4, -12
 1059              		.cfi_offset 5, -8
 1060              		.cfi_offset 14, -4
 1061 0002 83B0     		sub	sp, sp, #12
 1062              	.LCFI32:
 1063              		.cfi_def_cfa_offset 24
 337:Device/Dev_ICM426xx.c ****     uint8_t read_out = 0;
 1064              		.loc 1 337 5 is_stmt 1 view .LVU291
 1065              		.loc 1 337 13 is_stmt 0 view .LVU292
 1066 0004 0023     		movs	r3, #0
 1067 0006 8DF80730 		strb	r3, [sp, #7]
 338:Device/Dev_ICM426xx.c ****     uint8_t intConfig1Value = 0;
 1068              		.loc 1 338 5 is_stmt 1 view .LVU293
ARM GAS  C:\Users\8bit\AppData\Local\Temp\ccNZMjib.s 			page 27


 1069              		.loc 1 338 13 is_stmt 0 view .LVU294
 1070 000a 8DF80630 		strb	r3, [sp, #6]
 339:Device/Dev_ICM426xx.c ****     ICM426xx_AAF_Config_TypeDef *aaf_tab = NULL;
 1071              		.loc 1 339 5 is_stmt 1 view .LVU295
 1072              	.LVL101:
 340:Device/Dev_ICM426xx.c **** 
 341:Device/Dev_ICM426xx.c ****     if((sensor_obj == NULL) || 
 1073              		.loc 1 341 5 view .LVU296
 1074              		.loc 1 341 7 is_stmt 0 view .LVU297
 1075 000e 0446     		mov	r4, r0
 1076 0010 B0B1     		cbz	r0, .L81
 342:Device/Dev_ICM426xx.c ****        (sensor_obj->cs_ctl == NULL) || 
 1077              		.loc 1 342 19 discriminator 1 view .LVU298
 1078 0012 4368     		ldr	r3, [r0, #4]
 341:Device/Dev_ICM426xx.c ****        (sensor_obj->cs_ctl == NULL) || 
 1079              		.loc 1 341 29 discriminator 1 view .LVU299
 1080 0014 A3B1     		cbz	r3, .L81
 343:Device/Dev_ICM426xx.c ****        (sensor_obj->bus_trans == NULL))
 1081              		.loc 1 343 19 view .LVU300
 1082 0016 8368     		ldr	r3, [r0, #8]
 342:Device/Dev_ICM426xx.c ****        (sensor_obj->cs_ctl == NULL) || 
 1083              		.loc 1 342 37 view .LVU301
 1084 0018 93B1     		cbz	r3, .L81
 344:Device/Dev_ICM426xx.c ****     {
 345:Device/Dev_ICM426xx.c ****         IMUData_SetError(&(sensor_obj->error), ICM426xx_Obj_Error, __FUNCTION__, __LINE__, 0, 0, 0)
 346:Device/Dev_ICM426xx.c ****         return false;
 347:Device/Dev_ICM426xx.c ****     }
 348:Device/Dev_ICM426xx.c **** 
 349:Device/Dev_ICM426xx.c ****     /* get sensor type first */
 350:Device/Dev_ICM426xx.c ****     if(!DevICM426xx_Reg_Read(sensor_obj, ICM426XX_WHO_AM_I, &read_out))
 1085              		.loc 1 350 5 is_stmt 1 view .LVU302
 1086              		.loc 1 350 9 is_stmt 0 view .LVU303
 1087 001a 0DF10702 		add	r2, sp, #7
 1088 001e 7521     		movs	r1, #117
 1089 0020 FFF7FEFF 		bl	DevICM426xx_Reg_Read
 1090              	.LVL102:
 1091              		.loc 1 350 7 view .LVU304
 1092 0024 08B3     		cbz	r0, .L174
 351:Device/Dev_ICM426xx.c ****     {
 352:Device/Dev_ICM426xx.c ****         IMUData_SetError(&(sensor_obj->error), ICM426xx_Reg_RW_Error, __FUNCTION__, __LINE__, 0, 0,
 353:Device/Dev_ICM426xx.c ****         return false;
 354:Device/Dev_ICM426xx.c ****     }
 355:Device/Dev_ICM426xx.c **** 
 356:Device/Dev_ICM426xx.c ****     switch (read_out)
 1093              		.loc 1 356 5 is_stmt 1 view .LVU305
 1094 0026 9DF80730 		ldrb	r3, [sp, #7]	@ zero_extendqisi2
 1095 002a 422B     		cmp	r3, #66
 1096 002c 30D0     		beq	.L87
 1097 002e 472B     		cmp	r3, #71
 1098 0030 49D0     		beq	.L88
 357:Device/Dev_ICM426xx.c ****     {
 358:Device/Dev_ICM426xx.c ****         case ICM42605_DEV_ID:
 359:Device/Dev_ICM426xx.c ****             sensor_obj->type = ICM42605;
 360:Device/Dev_ICM426xx.c ****             aaf_tab = aafLUT42605;
 361:Device/Dev_ICM426xx.c ****             break;
 362:Device/Dev_ICM426xx.c **** 
 363:Device/Dev_ICM426xx.c ****         case ICM42688P_DEV_ID:
ARM GAS  C:\Users\8bit\AppData\Local\Temp\ccNZMjib.s 			page 28


 364:Device/Dev_ICM426xx.c ****             sensor_obj->type = ICM42688P;
 365:Device/Dev_ICM426xx.c ****             aaf_tab = aafLUT42688;
 366:Device/Dev_ICM426xx.c ****             break; 
 367:Device/Dev_ICM426xx.c **** 
 368:Device/Dev_ICM426xx.c ****         default:
 369:Device/Dev_ICM426xx.c ****             sensor_obj->type = ICM_NONE;
 1099              		.loc 1 369 13 view .LVU306
 1100              		.loc 1 369 30 is_stmt 0 view .LVU307
 1101 0032 0223     		movs	r3, #2
 1102 0034 2370     		strb	r3, [r4]
 370:Device/Dev_ICM426xx.c ****             sensor_obj->error.code = ICM426xx_DevID_Error;
 1103              		.loc 1 370 13 is_stmt 1 view .LVU308
 1104              		.loc 1 370 36 is_stmt 0 view .LVU309
 1105 0036 0923     		movs	r3, #9
 1106 0038 84F82430 		strb	r3, [r4, #36]
 371:Device/Dev_ICM426xx.c ****             return false;
 1107              		.loc 1 371 13 is_stmt 1 view .LVU310
 1108              		.loc 1 371 20 is_stmt 0 view .LVU311
 1109 003c 0020     		movs	r0, #0
 1110 003e 12E0     		b	.L84
 1111              	.LVL103:
 1112              	.L81:
 345:Device/Dev_ICM426xx.c ****         return false;
 1113              		.loc 1 345 9 is_stmt 1 view .LVU312
 1114              	.LBB78:
 1115              	.LBI78:
 1116              		.file 2 "common/gen_physic_def/imu_data.h"
   1:common/gen_physic_def/imu_data.h **** #ifndef __IMU_DATA_H
   2:common/gen_physic_def/imu_data.h **** #define __IMU_DATA_H
   3:common/gen_physic_def/imu_data.h **** 
   4:common/gen_physic_def/imu_data.h **** #ifdef __cplusplus
   5:common/gen_physic_def/imu_data.h **** extern "C" {
   6:common/gen_physic_def/imu_data.h **** #endif
   7:common/gen_physic_def/imu_data.h **** 
   8:common/gen_physic_def/imu_data.h **** #include <stdbool.h>
   9:common/gen_physic_def/imu_data.h **** #include <stdint.h>
  10:common/gen_physic_def/imu_data.h **** #include <string.h>
  11:common/gen_physic_def/imu_data.h **** 
  12:common/gen_physic_def/imu_data.h **** /*
  13:common/gen_physic_def/imu_data.h ****  *  CNT 100 in 2K Sample Frequence is about keeping 50Ms abnormality data
  14:common/gen_physic_def/imu_data.h ****  */
  15:common/gen_physic_def/imu_data.h **** #define IMU_BLUNT_SAMPLE_CNT 100
  16:common/gen_physic_def/imu_data.h **** 
  17:common/gen_physic_def/imu_data.h **** typedef void (*cs_ctl_callback)(bool state);
  18:common/gen_physic_def/imu_data.h **** typedef bool (*bus_trans_callback)(uint8_t *tx, uint8_t *rx, uint16_t len);
  19:common/gen_physic_def/imu_data.h **** typedef int32_t (*delay_callback)(uint32_t ms);
  20:common/gen_physic_def/imu_data.h **** typedef uint32_t (*get_time_stamp_callback)(void);
  21:common/gen_physic_def/imu_data.h **** 
  22:common/gen_physic_def/imu_data.h **** typedef enum
  23:common/gen_physic_def/imu_data.h **** {
  24:common/gen_physic_def/imu_data.h ****     Att_Pitch = 0,
  25:common/gen_physic_def/imu_data.h ****     Att_Roll,
  26:common/gen_physic_def/imu_data.h ****     Att_Ctl_Sum,
  27:common/gen_physic_def/imu_data.h ****     Att_Heading,
  28:common/gen_physic_def/imu_data.h **** } Attitude_List;
  29:common/gen_physic_def/imu_data.h **** 
  30:common/gen_physic_def/imu_data.h **** typedef enum
ARM GAS  C:\Users\8bit\AppData\Local\Temp\ccNZMjib.s 			page 29


  31:common/gen_physic_def/imu_data.h **** {
  32:common/gen_physic_def/imu_data.h ****     Axis_X = 0,
  33:common/gen_physic_def/imu_data.h ****     Axis_Y,
  34:common/gen_physic_def/imu_data.h ****     Axis_Z,
  35:common/gen_physic_def/imu_data.h ****     Axis_Sum,
  36:common/gen_physic_def/imu_data.h **** } Axis_List;
  37:common/gen_physic_def/imu_data.h **** 
  38:common/gen_physic_def/imu_data.h **** #pragma pack(1)
  39:common/gen_physic_def/imu_data.h **** typedef struct
  40:common/gen_physic_def/imu_data.h **** {
  41:common/gen_physic_def/imu_data.h ****     uint32_t time_stamp;
  42:common/gen_physic_def/imu_data.h ****     uint8_t cycle_cnt;
  43:common/gen_physic_def/imu_data.h **** 
  44:common/gen_physic_def/imu_data.h ****     int16_t temp_int;
  45:common/gen_physic_def/imu_data.h ****     int16_t gyr_int[Axis_Sum];
  46:common/gen_physic_def/imu_data.h ****     int16_t acc_int[Axis_Sum];
  47:common/gen_physic_def/imu_data.h **** 
  48:common/gen_physic_def/imu_data.h ****     float temp_flt;
  49:common/gen_physic_def/imu_data.h ****     float gyr_flt[Axis_Sum];
  50:common/gen_physic_def/imu_data.h ****     float acc_flt[Axis_Sum];
  51:common/gen_physic_def/imu_data.h **** 
  52:common/gen_physic_def/imu_data.h ****     int16_t gyr_int_lst[Axis_Sum];
  53:common/gen_physic_def/imu_data.h ****     int16_t acc_int_lst[Axis_Sum];
  54:common/gen_physic_def/imu_data.h **** 
  55:common/gen_physic_def/imu_data.h ****     uint16_t gyr_blunt_cnt[Axis_Sum];
  56:common/gen_physic_def/imu_data.h ****     uint16_t acc_blunt_cnt[Axis_Sum];
  57:common/gen_physic_def/imu_data.h **** } IMUData_TypeDef;
  58:common/gen_physic_def/imu_data.h **** 
  59:common/gen_physic_def/imu_data.h **** typedef struct
  60:common/gen_physic_def/imu_data.h **** {
  61:common/gen_physic_def/imu_data.h ****     float acc_scale;
  62:common/gen_physic_def/imu_data.h ****     float gyr_scale;
  63:common/gen_physic_def/imu_data.h **** } IMUModuleScale_TypeDef;
  64:common/gen_physic_def/imu_data.h **** 
  65:common/gen_physic_def/imu_data.h **** typedef struct
  66:common/gen_physic_def/imu_data.h **** {
  67:common/gen_physic_def/imu_data.h ****     uint32_t time_stamp;
  68:common/gen_physic_def/imu_data.h ****     float pitch;
  69:common/gen_physic_def/imu_data.h ****     float roll;
  70:common/gen_physic_def/imu_data.h ****     float yaw;
  71:common/gen_physic_def/imu_data.h ****     float q0;
  72:common/gen_physic_def/imu_data.h ****     float q1;
  73:common/gen_physic_def/imu_data.h ****     float q2;
  74:common/gen_physic_def/imu_data.h ****     float q3;
  75:common/gen_physic_def/imu_data.h ****     bool flip_over;
  76:common/gen_physic_def/imu_data.h ****     uint8_t err_code;
  77:common/gen_physic_def/imu_data.h **** } IMUAtt_TypeDef;
  78:common/gen_physic_def/imu_data.h **** #pragma pack()
  79:common/gen_physic_def/imu_data.h **** 
  80:common/gen_physic_def/imu_data.h **** typedef struct
  81:common/gen_physic_def/imu_data.h **** {
  82:common/gen_physic_def/imu_data.h ****     uint8_t code;
  83:common/gen_physic_def/imu_data.h ****     char* function;
  84:common/gen_physic_def/imu_data.h ****     uint16_t line;
  85:common/gen_physic_def/imu_data.h **** 
  86:common/gen_physic_def/imu_data.h ****     uint8_t tar_reg;
  87:common/gen_physic_def/imu_data.h ****     uint8_t reg_r_val;
ARM GAS  C:\Users\8bit\AppData\Local\Temp\ccNZMjib.s 			page 30


  88:common/gen_physic_def/imu_data.h ****     uint8_t reg_t_val;
  89:common/gen_physic_def/imu_data.h **** }IMU_Error_TypeDef;
  90:common/gen_physic_def/imu_data.h **** 
  91:common/gen_physic_def/imu_data.h **** inline void IMUData_SetError(IMU_Error_TypeDef *error, uint8_t code, const char* func, uint16_t lin
 1117              		.loc 2 91 13 view .LVU313
 1118              	.LBB79:
  92:common/gen_physic_def/imu_data.h **** {
  93:common/gen_physic_def/imu_data.h ****     if(error)
 1119              		.loc 2 93 5 view .LVU314
 1120              		.loc 2 93 7 is_stmt 0 view .LVU315
 1121 0040 14F1240F 		cmn	r4, #36
 1122 0044 0ED0     		beq	.L83
  94:common/gen_physic_def/imu_data.h ****     {
  95:common/gen_physic_def/imu_data.h ****         error->code = code;
 1123              		.loc 2 95 9 is_stmt 1 view .LVU316
 1124              		.loc 2 95 21 is_stmt 0 view .LVU317
 1125 0046 0123     		movs	r3, #1
 1126 0048 84F82430 		strb	r3, [r4, #36]
  96:common/gen_physic_def/imu_data.h ****         error->function = (char *)func;
 1127              		.loc 2 96 9 is_stmt 1 view .LVU318
 1128              		.loc 2 96 25 is_stmt 0 view .LVU319
 1129 004c B04B     		ldr	r3, .L183
 1130 004e A362     		str	r3, [r4, #40]
  97:common/gen_physic_def/imu_data.h ****         error->line = line;
 1131              		.loc 2 97 9 is_stmt 1 view .LVU320
 1132              		.loc 2 97 21 is_stmt 0 view .LVU321
 1133 0050 40F25913 		movw	r3, #345
 1134 0054 A385     		strh	r3, [r4, #44]	@ movhi
  98:common/gen_physic_def/imu_data.h **** 
  99:common/gen_physic_def/imu_data.h ****         error->tar_reg = reg;
 1135              		.loc 2 99 9 is_stmt 1 view .LVU322
 1136              		.loc 2 99 24 is_stmt 0 view .LVU323
 1137 0056 0023     		movs	r3, #0
 1138 0058 84F82E30 		strb	r3, [r4, #46]
 100:common/gen_physic_def/imu_data.h ****         error->reg_r_val = reg_r;
 1139              		.loc 2 100 9 is_stmt 1 view .LVU324
 1140              		.loc 2 100 26 is_stmt 0 view .LVU325
 1141 005c 84F82F30 		strb	r3, [r4, #47]
 101:common/gen_physic_def/imu_data.h ****         error->reg_t_val = reg_t;
 1142              		.loc 2 101 9 is_stmt 1 view .LVU326
 1143              		.loc 2 101 26 is_stmt 0 view .LVU327
 1144 0060 84F83030 		strb	r3, [r4, #48]
 1145              	.L83:
 1146              	.LVL104:
 1147              		.loc 2 101 26 view .LVU328
 1148              	.LBE79:
 1149              	.LBE78:
 346:Device/Dev_ICM426xx.c ****     }
 1150              		.loc 1 346 9 is_stmt 1 view .LVU329
 346:Device/Dev_ICM426xx.c ****     }
 1151              		.loc 1 346 16 is_stmt 0 view .LVU330
 1152 0064 0020     		movs	r0, #0
 1153              	.LVL105:
 1154              	.L84:
 372:Device/Dev_ICM426xx.c ****     }
 373:Device/Dev_ICM426xx.c **** 
 374:Device/Dev_ICM426xx.c ****     if(!DevICM426xx_SetUserBank(sensor_obj, ICM426XX_BANK_SELECT0))
ARM GAS  C:\Users\8bit\AppData\Local\Temp\ccNZMjib.s 			page 31


 375:Device/Dev_ICM426xx.c ****     {
 376:Device/Dev_ICM426xx.c ****         IMUData_SetError(&(sensor_obj->error), ICM426xx_Reg_RW_Error, __FUNCTION__, __LINE__, 0, 0,
 377:Device/Dev_ICM426xx.c ****         return false;
 378:Device/Dev_ICM426xx.c ****     }
 379:Device/Dev_ICM426xx.c **** 
 380:Device/Dev_ICM426xx.c ****     /* turn acc gyro off for setting */
 381:Device/Dev_ICM426xx.c ****     if(!DevICM426xx_TurnOff_AccGyro(sensor_obj))
 382:Device/Dev_ICM426xx.c ****     {
 383:Device/Dev_ICM426xx.c ****         IMUData_SetError(&(sensor_obj->error), ICM426xx_AccGyr_TurnOff_Error, __FUNCTION__, __LINE_
 384:Device/Dev_ICM426xx.c ****         return false;
 385:Device/Dev_ICM426xx.c ****     }
 386:Device/Dev_ICM426xx.c **** 
 387:Device/Dev_ICM426xx.c ****     /* config gyro */
 388:Device/Dev_ICM426xx.c ****     if(!DevICM426xx_SetUserBank(sensor_obj, ICM426XX_BANK_SELECT1))
 389:Device/Dev_ICM426xx.c ****     {
 390:Device/Dev_ICM426xx.c ****         IMUData_SetError(&(sensor_obj->error), ICM426xx_Reg_RW_Error, __FUNCTION__, __LINE__, 0, 0,
 391:Device/Dev_ICM426xx.c ****         return false;
 392:Device/Dev_ICM426xx.c ****     }
 393:Device/Dev_ICM426xx.c **** 
 394:Device/Dev_ICM426xx.c ****     if(!DevICM426xx_Reg_Write(sensor_obj, ICM426XX_RA_GYRO_CONFIG_STATIC3, aaf_tab[ICM426xx_AAF_258
 395:Device/Dev_ICM426xx.c ****        !DevICM426xx_Reg_Read(sensor_obj, ICM426XX_RA_GYRO_CONFIG_STATIC3, &read_out))
 396:Device/Dev_ICM426xx.c ****     {
 397:Device/Dev_ICM426xx.c ****         IMUData_SetError(&(sensor_obj->error), ICM426xx_Reg_RW_Error, __FUNCTION__, __LINE__, 0, 0,
 398:Device/Dev_ICM426xx.c ****         return false;
 399:Device/Dev_ICM426xx.c ****     }
 400:Device/Dev_ICM426xx.c **** 
 401:Device/Dev_ICM426xx.c ****     if(read_out != aaf_tab[ICM426xx_AAF_258Hz].delt)
 402:Device/Dev_ICM426xx.c ****     {
 403:Device/Dev_ICM426xx.c ****         IMUData_SetError(&(sensor_obj->error), ICM426xx_GyrAAF_Error, __FUNCTION__, __LINE__, ICM42
 404:Device/Dev_ICM426xx.c ****         return false;
 405:Device/Dev_ICM426xx.c ****     }
 406:Device/Dev_ICM426xx.c **** 
 407:Device/Dev_ICM426xx.c ****     if(!DevICM426xx_Reg_Write(sensor_obj, ICM426XX_RA_GYRO_CONFIG_STATIC4, aaf_tab[ICM426xx_AAF_258
 408:Device/Dev_ICM426xx.c ****        !DevICM426xx_Reg_Read(sensor_obj, ICM426XX_RA_GYRO_CONFIG_STATIC4, &read_out))
 409:Device/Dev_ICM426xx.c ****     {
 410:Device/Dev_ICM426xx.c ****         IMUData_SetError(&(sensor_obj->error), ICM426xx_Reg_RW_Error, __FUNCTION__, __LINE__, 0, 0,
 411:Device/Dev_ICM426xx.c ****         return false;
 412:Device/Dev_ICM426xx.c ****     }
 413:Device/Dev_ICM426xx.c **** 
 414:Device/Dev_ICM426xx.c ****     if(read_out != (aaf_tab[ICM426xx_AAF_258Hz].deltSqr & 0xFF))
 415:Device/Dev_ICM426xx.c ****     {
 416:Device/Dev_ICM426xx.c ****         IMUData_SetError(&(sensor_obj->error), ICM426xx_GyrAAF_Error, __FUNCTION__, __LINE__, ICM42
 417:Device/Dev_ICM426xx.c ****                          aaf_tab[ICM426xx_AAF_258Hz].deltSqr & 0xFF);
 418:Device/Dev_ICM426xx.c ****         return false;
 419:Device/Dev_ICM426xx.c ****     }
 420:Device/Dev_ICM426xx.c **** 
 421:Device/Dev_ICM426xx.c ****     if(!DevICM426xx_Reg_Write(sensor_obj, ICM426XX_RA_GYRO_CONFIG_STATIC5, (aaf_tab[ICM426xx_AAF_25
 422:Device/Dev_ICM426xx.c ****        !DevICM426xx_Reg_Read(sensor_obj, ICM426XX_RA_GYRO_CONFIG_STATIC5, &read_out))
 423:Device/Dev_ICM426xx.c ****     {
 424:Device/Dev_ICM426xx.c ****         IMUData_SetError(&(sensor_obj->error), ICM426xx_Reg_RW_Error, __FUNCTION__, __LINE__, 0, 0,
 425:Device/Dev_ICM426xx.c ****         return false;
 426:Device/Dev_ICM426xx.c ****     }
 427:Device/Dev_ICM426xx.c **** 
 428:Device/Dev_ICM426xx.c ****     if(read_out != ((aaf_tab[ICM426xx_AAF_258Hz].deltSqr >> 8) | (aaf_tab[ICM426xx_AAF_258Hz].bitsh
 429:Device/Dev_ICM426xx.c ****     {
 430:Device/Dev_ICM426xx.c ****         IMUData_SetError(&(sensor_obj->error), ICM426xx_GyrAAF_Error, __FUNCTION__, __LINE__, ICM42
 431:Device/Dev_ICM426xx.c ****                          (aaf_tab[ICM426xx_AAF_258Hz].deltSqr >> 8) | (aaf_tab[ICM426xx_AAF_258Hz].
ARM GAS  C:\Users\8bit\AppData\Local\Temp\ccNZMjib.s 			page 32


 432:Device/Dev_ICM426xx.c ****         return false;
 433:Device/Dev_ICM426xx.c ****     }
 434:Device/Dev_ICM426xx.c **** 
 435:Device/Dev_ICM426xx.c ****     /* config acc */
 436:Device/Dev_ICM426xx.c ****     if(!DevICM426xx_SetUserBank(sensor_obj, ICM426XX_BANK_SELECT2))
 437:Device/Dev_ICM426xx.c ****     {
 438:Device/Dev_ICM426xx.c ****         IMUData_SetError(&(sensor_obj->error), ICM426xx_Reg_RW_Error, __FUNCTION__, __LINE__, 0, 0,
 439:Device/Dev_ICM426xx.c ****         return false;
 440:Device/Dev_ICM426xx.c ****     }
 441:Device/Dev_ICM426xx.c **** 
 442:Device/Dev_ICM426xx.c ****     if(!DevICM426xx_Reg_Write(sensor_obj, ICM426XX_RA_ACCEL_CONFIG_STATIC2, aaf_tab[ICM426xx_AAF_25
 443:Device/Dev_ICM426xx.c ****        !DevICM426xx_Reg_Read(sensor_obj, ICM426XX_RA_ACCEL_CONFIG_STATIC2, &read_out))
 444:Device/Dev_ICM426xx.c ****     {
 445:Device/Dev_ICM426xx.c ****         IMUData_SetError(&(sensor_obj->error), ICM426xx_Reg_RW_Error, __FUNCTION__, __LINE__, 0, 0,
 446:Device/Dev_ICM426xx.c ****         return false;
 447:Device/Dev_ICM426xx.c ****     }
 448:Device/Dev_ICM426xx.c **** 
 449:Device/Dev_ICM426xx.c ****     if(read_out != (aaf_tab[ICM426xx_AAF_258Hz].delt << 1))
 450:Device/Dev_ICM426xx.c ****     {
 451:Device/Dev_ICM426xx.c ****         IMUData_SetError(&(sensor_obj->error), ICM426xx_AccAAF_Error, __FUNCTION__, __LINE__, ICM42
 452:Device/Dev_ICM426xx.c ****         return false;
 453:Device/Dev_ICM426xx.c ****     }
 454:Device/Dev_ICM426xx.c **** 
 455:Device/Dev_ICM426xx.c ****     if(!DevICM426xx_Reg_Write(sensor_obj, ICM426XX_RA_ACCEL_CONFIG_STATIC3, aaf_tab[ICM426xx_AAF_25
 456:Device/Dev_ICM426xx.c ****        !DevICM426xx_Reg_Read(sensor_obj, ICM426XX_RA_ACCEL_CONFIG_STATIC3, &read_out))
 457:Device/Dev_ICM426xx.c ****     {
 458:Device/Dev_ICM426xx.c ****         IMUData_SetError(&(sensor_obj->error), ICM426xx_Reg_RW_Error, __FUNCTION__, __LINE__, 0, 0,
 459:Device/Dev_ICM426xx.c ****         return false;
 460:Device/Dev_ICM426xx.c ****     }
 461:Device/Dev_ICM426xx.c **** 
 462:Device/Dev_ICM426xx.c ****     if(read_out != (aaf_tab[ICM426xx_AAF_258Hz].deltSqr & 0xFF))
 463:Device/Dev_ICM426xx.c ****     {
 464:Device/Dev_ICM426xx.c ****         IMUData_SetError(&(sensor_obj->error), ICM426xx_AccAAF_Error, __FUNCTION__, __LINE__, ICM42
 465:Device/Dev_ICM426xx.c ****                          aaf_tab[ICM426xx_AAF_258Hz].deltSqr & 0xFF);
 466:Device/Dev_ICM426xx.c ****         return false;
 467:Device/Dev_ICM426xx.c ****     }
 468:Device/Dev_ICM426xx.c **** 
 469:Device/Dev_ICM426xx.c ****     if(!DevICM426xx_Reg_Write(sensor_obj, ICM426XX_RA_ACCEL_CONFIG_STATIC4, (aaf_tab[ICM426xx_AAF_2
 470:Device/Dev_ICM426xx.c ****        !DevICM426xx_Reg_Read(sensor_obj, ICM426XX_RA_ACCEL_CONFIG_STATIC4, &read_out))
 471:Device/Dev_ICM426xx.c ****     {
 472:Device/Dev_ICM426xx.c ****         IMUData_SetError(&(sensor_obj->error), ICM426xx_Reg_RW_Error, __FUNCTION__, __LINE__, 0, 0,
 473:Device/Dev_ICM426xx.c ****         return false;
 474:Device/Dev_ICM426xx.c ****     }
 475:Device/Dev_ICM426xx.c **** 
 476:Device/Dev_ICM426xx.c ****     if(read_out != ((aaf_tab[ICM426xx_AAF_258Hz].deltSqr >> 8) | (aaf_tab[ICM426xx_AAF_258Hz].bitsh
 477:Device/Dev_ICM426xx.c ****     {
 478:Device/Dev_ICM426xx.c ****         IMUData_SetError(&(sensor_obj->error), ICM426xx_AccAAF_Error, __FUNCTION__, __LINE__, ICM42
 479:Device/Dev_ICM426xx.c ****                          (aaf_tab[ICM426xx_AAF_258Hz].deltSqr >> 8) | (aaf_tab[ICM426xx_AAF_258Hz].
 480:Device/Dev_ICM426xx.c ****         return false;
 481:Device/Dev_ICM426xx.c ****     }
 482:Device/Dev_ICM426xx.c **** 
 483:Device/Dev_ICM426xx.c ****     /* config UI filter */
 484:Device/Dev_ICM426xx.c ****     if(!DevICM426xx_SetUserBank(sensor_obj, ICM426XX_BANK_SELECT0))
 485:Device/Dev_ICM426xx.c ****     {
 486:Device/Dev_ICM426xx.c ****         IMUData_SetError(&(sensor_obj->error), ICM426xx_Reg_RW_Error, __FUNCTION__, __LINE__, 0, 0,
 487:Device/Dev_ICM426xx.c ****         return false;
 488:Device/Dev_ICM426xx.c ****     }
ARM GAS  C:\Users\8bit\AppData\Local\Temp\ccNZMjib.s 			page 33


 489:Device/Dev_ICM426xx.c **** 
 490:Device/Dev_ICM426xx.c ****     if(!DevICM426xx_Reg_Write(sensor_obj, ICM426XX_RA_GYRO_ACCEL_CONFIG0, ICM426XX_ACCEL_UI_FILT_BW
 491:Device/Dev_ICM426xx.c ****        !DevICM426xx_Reg_Read(sensor_obj, ICM426XX_RA_GYRO_ACCEL_CONFIG0, &read_out))
 492:Device/Dev_ICM426xx.c ****     {
 493:Device/Dev_ICM426xx.c ****         IMUData_SetError(&(sensor_obj->error), ICM426xx_Reg_RW_Error, __FUNCTION__, __LINE__, 0, 0,
 494:Device/Dev_ICM426xx.c ****         return false;
 495:Device/Dev_ICM426xx.c ****     }
 496:Device/Dev_ICM426xx.c **** 
 497:Device/Dev_ICM426xx.c ****     if(read_out != (ICM426XX_ACCEL_UI_FILT_BW_LOW_LATENCY | ICM426XX_GYRO_UI_FILT_BW_LOW_LATENCY))
 498:Device/Dev_ICM426xx.c ****     {
 499:Device/Dev_ICM426xx.c ****         IMUData_SetError(&(sensor_obj->error), ICM426xx_UI_Filter_Error, __FUNCTION__, __LINE__, IC
 500:Device/Dev_ICM426xx.c ****                          ICM426XX_ACCEL_UI_FILT_BW_LOW_LATENCY | ICM426XX_GYRO_UI_FILT_BW_LOW_LATEN
 501:Device/Dev_ICM426xx.c ****         return false;
 502:Device/Dev_ICM426xx.c ****     }
 503:Device/Dev_ICM426xx.c **** 
 504:Device/Dev_ICM426xx.c ****     /* config interrupt */
 505:Device/Dev_ICM426xx.c ****     if(!DevICM426xx_Reg_Write(sensor_obj, ICM426XX_RA_INT_CONFIG, ICM426XX_INT1_MODE_PULSED | ICM42
 506:Device/Dev_ICM426xx.c ****        !DevICM426xx_Reg_Read(sensor_obj, ICM426XX_RA_INT_CONFIG, &read_out))
 507:Device/Dev_ICM426xx.c ****     {
 508:Device/Dev_ICM426xx.c ****         IMUData_SetError(&(sensor_obj->error), ICM426xx_Reg_RW_Error, __FUNCTION__, __LINE__, 0, 0,
 509:Device/Dev_ICM426xx.c ****         return false;
 510:Device/Dev_ICM426xx.c ****     }
 511:Device/Dev_ICM426xx.c **** 
 512:Device/Dev_ICM426xx.c ****     if(read_out != (ICM426XX_INT1_MODE_PULSED | ICM426XX_INT1_DRIVE_CIRCUIT_PP | ICM426XX_INT1_POLA
 513:Device/Dev_ICM426xx.c ****     {
 514:Device/Dev_ICM426xx.c ****         IMUData_SetError(&(sensor_obj->error), ICM426xx_INT_Set_Error, __FUNCTION__, __LINE__, ICM4
 515:Device/Dev_ICM426xx.c ****                          ICM426XX_INT1_MODE_PULSED | ICM426XX_INT1_DRIVE_CIRCUIT_PP | ICM426XX_INT1
 516:Device/Dev_ICM426xx.c ****         return false;
 517:Device/Dev_ICM426xx.c ****     }
 518:Device/Dev_ICM426xx.c **** 
 519:Device/Dev_ICM426xx.c ****     if(!DevICM426xx_Reg_Write(sensor_obj, ICM426XX_RA_INT_CONFIG0, ICM426XX_UI_DRDY_INT_CLEAR_ON_SB
 520:Device/Dev_ICM426xx.c ****        !DevICM426xx_Reg_Read(sensor_obj, ICM426XX_RA_INT_CONFIG0, &read_out))
 521:Device/Dev_ICM426xx.c ****     {
 522:Device/Dev_ICM426xx.c ****         IMUData_SetError(&(sensor_obj->error), ICM426xx_Reg_RW_Error, __FUNCTION__, __LINE__, 0, 0,
 523:Device/Dev_ICM426xx.c ****         return false;
 524:Device/Dev_ICM426xx.c ****     }
 525:Device/Dev_ICM426xx.c **** 
 526:Device/Dev_ICM426xx.c ****     if(read_out != ICM426XX_UI_DRDY_INT_CLEAR_ON_SBR)
 527:Device/Dev_ICM426xx.c ****     {
 528:Device/Dev_ICM426xx.c ****         IMUData_SetError(&(sensor_obj->error), ICM426xx_INT_Set_Error, __FUNCTION__, __LINE__, ICM4
 529:Device/Dev_ICM426xx.c ****         return false;
 530:Device/Dev_ICM426xx.c ****     }
 531:Device/Dev_ICM426xx.c **** 
 532:Device/Dev_ICM426xx.c ****     if(!DevICM426xx_Reg_Write(sensor_obj, ICM426XX_RA_INT_SOURCE0, ICM426XX_UI_DRDY_INT1_EN_ENABLED
 533:Device/Dev_ICM426xx.c ****        !DevICM426xx_Reg_Read(sensor_obj, ICM426XX_RA_INT_SOURCE0, &read_out))
 534:Device/Dev_ICM426xx.c ****     {
 535:Device/Dev_ICM426xx.c ****         IMUData_SetError(&(sensor_obj->error), ICM426xx_Reg_RW_Error, __FUNCTION__, __LINE__, 0, 0,
 536:Device/Dev_ICM426xx.c ****         return false;
 537:Device/Dev_ICM426xx.c ****     }
 538:Device/Dev_ICM426xx.c **** 
 539:Device/Dev_ICM426xx.c ****     if(read_out != ICM426XX_UI_DRDY_INT1_EN_ENABLED)
 540:Device/Dev_ICM426xx.c ****     {
 541:Device/Dev_ICM426xx.c ****         IMUData_SetError(&(sensor_obj->error), ICM426xx_INT_Set_Error, __FUNCTION__, __LINE__, ICM4
 542:Device/Dev_ICM426xx.c ****         return false;
 543:Device/Dev_ICM426xx.c ****     }
 544:Device/Dev_ICM426xx.c **** 
 545:Device/Dev_ICM426xx.c ****     if(!DevICM426xx_Reg_Read(sensor_obj, ICM426XX_RA_INT_CONFIG1, &intConfig1Value))
ARM GAS  C:\Users\8bit\AppData\Local\Temp\ccNZMjib.s 			page 34


 546:Device/Dev_ICM426xx.c ****     {
 547:Device/Dev_ICM426xx.c ****         IMUData_SetError(&(sensor_obj->error), ICM426xx_Reg_RW_Error, __FUNCTION__, __LINE__, 0, 0,
 548:Device/Dev_ICM426xx.c ****         return false;
 549:Device/Dev_ICM426xx.c ****     }
 550:Device/Dev_ICM426xx.c ****     // Datasheet says: "User should change setting to 0 from default setting of 1, for proper INT1 
 551:Device/Dev_ICM426xx.c ****     intConfig1Value &= ~(1 << ICM426XX_INT_ASYNC_RESET_BIT);
 552:Device/Dev_ICM426xx.c ****     intConfig1Value |= (ICM426XX_INT_TPULSE_DURATION_8 | ICM426XX_INT_TDEASSERT_DISABLED);
 553:Device/Dev_ICM426xx.c **** 
 554:Device/Dev_ICM426xx.c ****     if(!DevICM426xx_Reg_Write(sensor_obj, ICM426XX_RA_INT_CONFIG1, intConfig1Value) ||
 555:Device/Dev_ICM426xx.c ****        !DevICM426xx_Reg_Read(sensor_obj, ICM426XX_RA_INT_CONFIG1, &read_out))
 556:Device/Dev_ICM426xx.c ****     {
 557:Device/Dev_ICM426xx.c ****         IMUData_SetError(&(sensor_obj->error), ICM426xx_Reg_RW_Error, __FUNCTION__, __LINE__, 0, 0,
 558:Device/Dev_ICM426xx.c ****         return false;
 559:Device/Dev_ICM426xx.c ****     }
 560:Device/Dev_ICM426xx.c **** 
 561:Device/Dev_ICM426xx.c ****     if(read_out != intConfig1Value)
 562:Device/Dev_ICM426xx.c ****     {
 563:Device/Dev_ICM426xx.c ****         IMUData_SetError(&(sensor_obj->error), ICM426xx_INT_Set_Error, __FUNCTION__, __LINE__, ICM4
 564:Device/Dev_ICM426xx.c ****         return false;
 565:Device/Dev_ICM426xx.c ****     }
 566:Device/Dev_ICM426xx.c **** 
 567:Device/Dev_ICM426xx.c ****     /* turn acc gyro on */
 568:Device/Dev_ICM426xx.c ****     if(!DevICM426xx_TurnOn_AccGyro(sensor_obj))
 569:Device/Dev_ICM426xx.c ****     {
 570:Device/Dev_ICM426xx.c ****         IMUData_SetError(&(sensor_obj->error), ICM426xx_AccGyr_TurnOn_Error, __FUNCTION__, __LINE__
 571:Device/Dev_ICM426xx.c ****         return false;
 572:Device/Dev_ICM426xx.c ****     }
 573:Device/Dev_ICM426xx.c **** 
 574:Device/Dev_ICM426xx.c ****     /* config sample data range and odr */
 575:Device/Dev_ICM426xx.c ****     if(!DevICM426xx_Reg_Write(sensor_obj, ICM426XX_RA_GYRO_CONFIG0, sensor_obj->GyrTrip))
 576:Device/Dev_ICM426xx.c ****     {
 577:Device/Dev_ICM426xx.c ****         IMUData_SetError(&(sensor_obj->error), ICM426xx_Reg_RW_Error, __FUNCTION__, __LINE__, 0, 0,
 578:Device/Dev_ICM426xx.c ****         return false;
 579:Device/Dev_ICM426xx.c ****     }
 580:Device/Dev_ICM426xx.c ****     sensor_obj->delay(15);
 581:Device/Dev_ICM426xx.c **** 
 582:Device/Dev_ICM426xx.c ****     if(!DevICM426xx_Reg_Read(sensor_obj, ICM426XX_RA_GYRO_CONFIG0, &read_out))
 583:Device/Dev_ICM426xx.c ****     {
 584:Device/Dev_ICM426xx.c ****         IMUData_SetError(&(sensor_obj->error), ICM426xx_Reg_RW_Error, __FUNCTION__, __LINE__, 0, 0,
 585:Device/Dev_ICM426xx.c ****         return false;
 586:Device/Dev_ICM426xx.c ****     }
 587:Device/Dev_ICM426xx.c **** 
 588:Device/Dev_ICM426xx.c ****     if(read_out != sensor_obj->GyrTrip)
 589:Device/Dev_ICM426xx.c ****     {
 590:Device/Dev_ICM426xx.c ****         IMUData_SetError(&(sensor_obj->error), ICM426xx_GyrRangeOdr_Set_Error, __FUNCTION__, __LINE
 591:Device/Dev_ICM426xx.c ****         return false;
 592:Device/Dev_ICM426xx.c ****     }
 593:Device/Dev_ICM426xx.c **** 
 594:Device/Dev_ICM426xx.c ****     if(!DevICM426xx_Reg_Write(sensor_obj, ICM426XX_RA_ACCEL_CONFIG0, sensor_obj->AccTrip))
 595:Device/Dev_ICM426xx.c ****     {
 596:Device/Dev_ICM426xx.c ****         IMUData_SetError(&(sensor_obj->error), ICM426xx_Reg_RW_Error, __FUNCTION__, __LINE__, 0, 0,
 597:Device/Dev_ICM426xx.c **** 
 598:Device/Dev_ICM426xx.c ****         return false;
 599:Device/Dev_ICM426xx.c ****     }
 600:Device/Dev_ICM426xx.c ****     sensor_obj->delay(15);
 601:Device/Dev_ICM426xx.c **** 
 602:Device/Dev_ICM426xx.c ****     if(!DevICM426xx_Reg_Read(sensor_obj, ICM426XX_RA_ACCEL_CONFIG0, &read_out))
ARM GAS  C:\Users\8bit\AppData\Local\Temp\ccNZMjib.s 			page 35


 603:Device/Dev_ICM426xx.c ****     {
 604:Device/Dev_ICM426xx.c ****         IMUData_SetError(&(sensor_obj->error), ICM426xx_Reg_RW_Error, __FUNCTION__, __LINE__, 0, 0,
 605:Device/Dev_ICM426xx.c ****         return false;
 606:Device/Dev_ICM426xx.c ****     }
 607:Device/Dev_ICM426xx.c **** 
 608:Device/Dev_ICM426xx.c ****     if(read_out != sensor_obj->AccTrip)
 609:Device/Dev_ICM426xx.c ****     {
 610:Device/Dev_ICM426xx.c ****         IMUData_SetError(&(sensor_obj->error), ICM426xx_AccRangeOdr_Set_Error, __FUNCTION__, __LINE
 611:Device/Dev_ICM426xx.c ****         return false;
 612:Device/Dev_ICM426xx.c ****     }
 613:Device/Dev_ICM426xx.c **** 
 614:Device/Dev_ICM426xx.c ****     IMUData_SetError(&(sensor_obj->error), ICM426xx_No_Error, "", 0, 0, 0, 0);
 615:Device/Dev_ICM426xx.c ****     return true;
 616:Device/Dev_ICM426xx.c **** }
 1155              		.loc 1 616 1 view .LVU331
 1156 0066 03B0     		add	sp, sp, #12
 1157              	.LCFI33:
 1158              		.cfi_remember_state
 1159              		.cfi_def_cfa_offset 12
 1160              		@ sp needed
 1161 0068 30BD     		pop	{r4, r5, pc}
 1162              	.LVL106:
 1163              	.L174:
 1164              	.LCFI34:
 1165              		.cfi_restore_state
 352:Device/Dev_ICM426xx.c ****         return false;
 1166              		.loc 1 352 9 is_stmt 1 view .LVU332
 1167              	.LBB80:
 1168              	.LBI80:
  91:common/gen_physic_def/imu_data.h **** {
 1169              		.loc 2 91 13 view .LVU333
 1170              	.LBB81:
  93:common/gen_physic_def/imu_data.h ****     {
 1171              		.loc 2 93 5 view .LVU334
  93:common/gen_physic_def/imu_data.h ****     {
 1172              		.loc 2 93 7 is_stmt 0 view .LVU335
 1173 006a 14F1240F 		cmn	r4, #36
 1174 006e FAD0     		beq	.L84
  95:common/gen_physic_def/imu_data.h ****         error->function = (char *)func;
 1175              		.loc 2 95 9 is_stmt 1 view .LVU336
  95:common/gen_physic_def/imu_data.h ****         error->function = (char *)func;
 1176              		.loc 2 95 21 is_stmt 0 view .LVU337
 1177 0070 0723     		movs	r3, #7
 1178 0072 84F82430 		strb	r3, [r4, #36]
  96:common/gen_physic_def/imu_data.h ****         error->line = line;
 1179              		.loc 2 96 9 is_stmt 1 view .LVU338
  96:common/gen_physic_def/imu_data.h ****         error->line = line;
 1180              		.loc 2 96 25 is_stmt 0 view .LVU339
 1181 0076 A64B     		ldr	r3, .L183
 1182 0078 A362     		str	r3, [r4, #40]
  97:common/gen_physic_def/imu_data.h **** 
 1183              		.loc 2 97 9 is_stmt 1 view .LVU340
  97:common/gen_physic_def/imu_data.h **** 
 1184              		.loc 2 97 21 is_stmt 0 view .LVU341
 1185 007a 4FF4B073 		mov	r3, #352
 1186 007e A385     		strh	r3, [r4, #44]	@ movhi
  99:common/gen_physic_def/imu_data.h ****         error->reg_r_val = reg_r;
ARM GAS  C:\Users\8bit\AppData\Local\Temp\ccNZMjib.s 			page 36


 1187              		.loc 2 99 9 is_stmt 1 view .LVU342
  99:common/gen_physic_def/imu_data.h ****         error->reg_r_val = reg_r;
 1188              		.loc 2 99 24 is_stmt 0 view .LVU343
 1189 0080 0023     		movs	r3, #0
 1190 0082 84F82E30 		strb	r3, [r4, #46]
 100:common/gen_physic_def/imu_data.h ****         error->reg_t_val = reg_t;
 1191              		.loc 2 100 9 is_stmt 1 view .LVU344
 100:common/gen_physic_def/imu_data.h ****         error->reg_t_val = reg_t;
 1192              		.loc 2 100 26 is_stmt 0 view .LVU345
 1193 0086 84F82F30 		strb	r3, [r4, #47]
 1194              		.loc 2 101 9 is_stmt 1 view .LVU346
 1195              		.loc 2 101 26 is_stmt 0 view .LVU347
 1196 008a 84F83030 		strb	r3, [r4, #48]
 1197              	.LVL107:
 1198              		.loc 2 101 26 view .LVU348
 1199              	.LBE81:
 1200              	.LBE80:
 353:Device/Dev_ICM426xx.c ****     }
 1201              		.loc 1 353 9 is_stmt 1 view .LVU349
 353:Device/Dev_ICM426xx.c ****     }
 1202              		.loc 1 353 16 is_stmt 0 view .LVU350
 1203 008e EAE7     		b	.L84
 1204              	.L87:
 359:Device/Dev_ICM426xx.c ****             aaf_tab = aafLUT42605;
 1205              		.loc 1 359 13 is_stmt 1 view .LVU351
 359:Device/Dev_ICM426xx.c ****             aaf_tab = aafLUT42605;
 1206              		.loc 1 359 30 is_stmt 0 view .LVU352
 1207 0090 0123     		movs	r3, #1
 1208 0092 2370     		strb	r3, [r4]
 360:Device/Dev_ICM426xx.c ****             break;
 1209              		.loc 1 360 13 is_stmt 1 view .LVU353
 1210              	.LVL108:
 361:Device/Dev_ICM426xx.c **** 
 1211              		.loc 1 361 13 view .LVU354
 360:Device/Dev_ICM426xx.c ****             break;
 1212              		.loc 1 360 21 is_stmt 0 view .LVU355
 1213 0094 9F4D     		ldr	r5, .L183+4
 1214              	.LVL109:
 1215              	.L90:
 374:Device/Dev_ICM426xx.c ****     {
 1216              		.loc 1 374 5 is_stmt 1 view .LVU356
 374:Device/Dev_ICM426xx.c ****     {
 1217              		.loc 1 374 9 is_stmt 0 view .LVU357
 1218 0096 0021     		movs	r1, #0
 1219 0098 2046     		mov	r0, r4
 1220 009a FFF7FEFF 		bl	DevICM426xx_SetUserBank
 1221              	.LVL110:
 374:Device/Dev_ICM426xx.c ****     {
 1222              		.loc 1 374 7 view .LVU358
 1223 009e B0B9     		cbnz	r0, .L91
 376:Device/Dev_ICM426xx.c ****         return false;
 1224              		.loc 1 376 9 is_stmt 1 view .LVU359
 1225              	.LVL111:
 1226              	.LBB82:
 1227              	.LBI82:
  91:common/gen_physic_def/imu_data.h **** {
 1228              		.loc 2 91 13 view .LVU360
ARM GAS  C:\Users\8bit\AppData\Local\Temp\ccNZMjib.s 			page 37


 1229              	.LBB83:
  93:common/gen_physic_def/imu_data.h ****     {
 1230              		.loc 2 93 5 view .LVU361
  93:common/gen_physic_def/imu_data.h ****     {
 1231              		.loc 2 93 7 is_stmt 0 view .LVU362
 1232 00a0 14F1240F 		cmn	r4, #36
 1233 00a4 DFD0     		beq	.L84
  95:common/gen_physic_def/imu_data.h ****         error->function = (char *)func;
 1234              		.loc 2 95 9 is_stmt 1 view .LVU363
  95:common/gen_physic_def/imu_data.h ****         error->function = (char *)func;
 1235              		.loc 2 95 21 is_stmt 0 view .LVU364
 1236 00a6 0723     		movs	r3, #7
 1237 00a8 84F82430 		strb	r3, [r4, #36]
  96:common/gen_physic_def/imu_data.h ****         error->line = line;
 1238              		.loc 2 96 9 is_stmt 1 view .LVU365
  96:common/gen_physic_def/imu_data.h ****         error->line = line;
 1239              		.loc 2 96 25 is_stmt 0 view .LVU366
 1240 00ac 984B     		ldr	r3, .L183
 1241 00ae A362     		str	r3, [r4, #40]
  97:common/gen_physic_def/imu_data.h **** 
 1242              		.loc 2 97 9 is_stmt 1 view .LVU367
  97:common/gen_physic_def/imu_data.h **** 
 1243              		.loc 2 97 21 is_stmt 0 view .LVU368
 1244 00b0 4FF4BC73 		mov	r3, #376
 1245 00b4 A385     		strh	r3, [r4, #44]	@ movhi
  99:common/gen_physic_def/imu_data.h ****         error->reg_r_val = reg_r;
 1246              		.loc 2 99 9 is_stmt 1 view .LVU369
  99:common/gen_physic_def/imu_data.h ****         error->reg_r_val = reg_r;
 1247              		.loc 2 99 24 is_stmt 0 view .LVU370
 1248 00b6 0023     		movs	r3, #0
 1249 00b8 84F82E30 		strb	r3, [r4, #46]
 100:common/gen_physic_def/imu_data.h ****         error->reg_t_val = reg_t;
 1250              		.loc 2 100 9 is_stmt 1 view .LVU371
 100:common/gen_physic_def/imu_data.h ****         error->reg_t_val = reg_t;
 1251              		.loc 2 100 26 is_stmt 0 view .LVU372
 1252 00bc 84F82F30 		strb	r3, [r4, #47]
 1253              		.loc 2 101 9 is_stmt 1 view .LVU373
 1254              		.loc 2 101 26 is_stmt 0 view .LVU374
 1255 00c0 84F83030 		strb	r3, [r4, #48]
 1256              	.LVL112:
 1257              		.loc 2 101 26 view .LVU375
 1258              	.LBE83:
 1259              	.LBE82:
 377:Device/Dev_ICM426xx.c ****     }
 1260              		.loc 1 377 9 is_stmt 1 view .LVU376
 377:Device/Dev_ICM426xx.c ****     }
 1261              		.loc 1 377 16 is_stmt 0 view .LVU377
 1262 00c4 CFE7     		b	.L84
 1263              	.LVL113:
 1264              	.L88:
 364:Device/Dev_ICM426xx.c ****             aaf_tab = aafLUT42688;
 1265              		.loc 1 364 13 is_stmt 1 view .LVU378
 364:Device/Dev_ICM426xx.c ****             aaf_tab = aafLUT42688;
 1266              		.loc 1 364 30 is_stmt 0 view .LVU379
 1267 00c6 0023     		movs	r3, #0
 1268 00c8 2370     		strb	r3, [r4]
 365:Device/Dev_ICM426xx.c ****             break; 
ARM GAS  C:\Users\8bit\AppData\Local\Temp\ccNZMjib.s 			page 38


 1269              		.loc 1 365 13 is_stmt 1 view .LVU380
 1270              	.LVL114:
 366:Device/Dev_ICM426xx.c **** 
 1271              		.loc 1 366 13 view .LVU381
 365:Device/Dev_ICM426xx.c ****             break; 
 1272              		.loc 1 365 21 is_stmt 0 view .LVU382
 1273 00ca 934D     		ldr	r5, .L183+8
 366:Device/Dev_ICM426xx.c **** 
 1274              		.loc 1 366 13 view .LVU383
 1275 00cc E3E7     		b	.L90
 1276              	.LVL115:
 1277              	.L91:
 381:Device/Dev_ICM426xx.c ****     {
 1278              		.loc 1 381 5 is_stmt 1 view .LVU384
 381:Device/Dev_ICM426xx.c ****     {
 1279              		.loc 1 381 9 is_stmt 0 view .LVU385
 1280 00ce 2046     		mov	r0, r4
 1281 00d0 FFF7FEFF 		bl	DevICM426xx_TurnOff_AccGyro
 1282              	.LVL116:
 381:Device/Dev_ICM426xx.c ****     {
 1283              		.loc 1 381 7 view .LVU386
 1284 00d4 90B9     		cbnz	r0, .L93
 383:Device/Dev_ICM426xx.c ****         return false;
 1285              		.loc 1 383 9 is_stmt 1 view .LVU387
 1286              	.LVL117:
 1287              	.LBB84:
 1288              	.LBI84:
  91:common/gen_physic_def/imu_data.h **** {
 1289              		.loc 2 91 13 view .LVU388
 1290              	.LBB85:
  93:common/gen_physic_def/imu_data.h ****     {
 1291              		.loc 2 93 5 view .LVU389
  93:common/gen_physic_def/imu_data.h ****     {
 1292              		.loc 2 93 7 is_stmt 0 view .LVU390
 1293 00d6 14F1240F 		cmn	r4, #36
 1294 00da C4D0     		beq	.L84
  95:common/gen_physic_def/imu_data.h ****         error->function = (char *)func;
 1295              		.loc 2 95 9 is_stmt 1 view .LVU391
  95:common/gen_physic_def/imu_data.h ****         error->function = (char *)func;
 1296              		.loc 2 95 21 is_stmt 0 view .LVU392
 1297 00dc 0C23     		movs	r3, #12
 1298 00de 84F82430 		strb	r3, [r4, #36]
  96:common/gen_physic_def/imu_data.h ****         error->line = line;
 1299              		.loc 2 96 9 is_stmt 1 view .LVU393
  96:common/gen_physic_def/imu_data.h ****         error->line = line;
 1300              		.loc 2 96 25 is_stmt 0 view .LVU394
 1301 00e2 8B4B     		ldr	r3, .L183
 1302 00e4 A362     		str	r3, [r4, #40]
  97:common/gen_physic_def/imu_data.h **** 
 1303              		.loc 2 97 9 is_stmt 1 view .LVU395
  97:common/gen_physic_def/imu_data.h **** 
 1304              		.loc 2 97 21 is_stmt 0 view .LVU396
 1305 00e6 40F27F13 		movw	r3, #383
 1306 00ea A385     		strh	r3, [r4, #44]	@ movhi
  99:common/gen_physic_def/imu_data.h ****         error->reg_r_val = reg_r;
 1307              		.loc 2 99 9 is_stmt 1 view .LVU397
  99:common/gen_physic_def/imu_data.h ****         error->reg_r_val = reg_r;
ARM GAS  C:\Users\8bit\AppData\Local\Temp\ccNZMjib.s 			page 39


 1308              		.loc 2 99 24 is_stmt 0 view .LVU398
 1309 00ec 0023     		movs	r3, #0
 1310 00ee 84F82E30 		strb	r3, [r4, #46]
 100:common/gen_physic_def/imu_data.h ****         error->reg_t_val = reg_t;
 1311              		.loc 2 100 9 is_stmt 1 view .LVU399
 100:common/gen_physic_def/imu_data.h ****         error->reg_t_val = reg_t;
 1312              		.loc 2 100 26 is_stmt 0 view .LVU400
 1313 00f2 84F82F30 		strb	r3, [r4, #47]
 1314              		.loc 2 101 9 is_stmt 1 view .LVU401
 1315              		.loc 2 101 26 is_stmt 0 view .LVU402
 1316 00f6 84F83030 		strb	r3, [r4, #48]
 1317              	.LVL118:
 1318              		.loc 2 101 26 view .LVU403
 1319              	.LBE85:
 1320              	.LBE84:
 384:Device/Dev_ICM426xx.c ****     }
 1321              		.loc 1 384 9 is_stmt 1 view .LVU404
 384:Device/Dev_ICM426xx.c ****     }
 1322              		.loc 1 384 16 is_stmt 0 view .LVU405
 1323 00fa B4E7     		b	.L84
 1324              	.L93:
 388:Device/Dev_ICM426xx.c ****     {
 1325              		.loc 1 388 5 is_stmt 1 view .LVU406
 388:Device/Dev_ICM426xx.c ****     {
 1326              		.loc 1 388 9 is_stmt 0 view .LVU407
 1327 00fc 0121     		movs	r1, #1
 1328 00fe 2046     		mov	r0, r4
 1329 0100 FFF7FEFF 		bl	DevICM426xx_SetUserBank
 1330              	.LVL119:
 388:Device/Dev_ICM426xx.c ****     {
 1331              		.loc 1 388 7 view .LVU408
 1332 0104 90B9     		cbnz	r0, .L95
 390:Device/Dev_ICM426xx.c ****         return false;
 1333              		.loc 1 390 9 is_stmt 1 view .LVU409
 1334              	.LVL120:
 1335              	.LBB86:
 1336              	.LBI86:
  91:common/gen_physic_def/imu_data.h **** {
 1337              		.loc 2 91 13 view .LVU410
 1338              	.LBB87:
  93:common/gen_physic_def/imu_data.h ****     {
 1339              		.loc 2 93 5 view .LVU411
  93:common/gen_physic_def/imu_data.h ****     {
 1340              		.loc 2 93 7 is_stmt 0 view .LVU412
 1341 0106 14F1240F 		cmn	r4, #36
 1342 010a ACD0     		beq	.L84
  95:common/gen_physic_def/imu_data.h ****         error->function = (char *)func;
 1343              		.loc 2 95 9 is_stmt 1 view .LVU413
  95:common/gen_physic_def/imu_data.h ****         error->function = (char *)func;
 1344              		.loc 2 95 21 is_stmt 0 view .LVU414
 1345 010c 0723     		movs	r3, #7
 1346 010e 84F82430 		strb	r3, [r4, #36]
  96:common/gen_physic_def/imu_data.h ****         error->line = line;
 1347              		.loc 2 96 9 is_stmt 1 view .LVU415
  96:common/gen_physic_def/imu_data.h ****         error->line = line;
 1348              		.loc 2 96 25 is_stmt 0 view .LVU416
 1349 0112 7F4B     		ldr	r3, .L183
ARM GAS  C:\Users\8bit\AppData\Local\Temp\ccNZMjib.s 			page 40


 1350 0114 A362     		str	r3, [r4, #40]
  97:common/gen_physic_def/imu_data.h **** 
 1351              		.loc 2 97 9 is_stmt 1 view .LVU417
  97:common/gen_physic_def/imu_data.h **** 
 1352              		.loc 2 97 21 is_stmt 0 view .LVU418
 1353 0116 4FF4C373 		mov	r3, #390
 1354 011a A385     		strh	r3, [r4, #44]	@ movhi
  99:common/gen_physic_def/imu_data.h ****         error->reg_r_val = reg_r;
 1355              		.loc 2 99 9 is_stmt 1 view .LVU419
  99:common/gen_physic_def/imu_data.h ****         error->reg_r_val = reg_r;
 1356              		.loc 2 99 24 is_stmt 0 view .LVU420
 1357 011c 0023     		movs	r3, #0
 1358 011e 84F82E30 		strb	r3, [r4, #46]
 100:common/gen_physic_def/imu_data.h ****         error->reg_t_val = reg_t;
 1359              		.loc 2 100 9 is_stmt 1 view .LVU421
 100:common/gen_physic_def/imu_data.h ****         error->reg_t_val = reg_t;
 1360              		.loc 2 100 26 is_stmt 0 view .LVU422
 1361 0122 84F82F30 		strb	r3, [r4, #47]
 1362              		.loc 2 101 9 is_stmt 1 view .LVU423
 1363              		.loc 2 101 26 is_stmt 0 view .LVU424
 1364 0126 84F83030 		strb	r3, [r4, #48]
 1365              	.LVL121:
 1366              		.loc 2 101 26 view .LVU425
 1367              	.LBE87:
 1368              	.LBE86:
 391:Device/Dev_ICM426xx.c ****     }
 1369              		.loc 1 391 9 is_stmt 1 view .LVU426
 391:Device/Dev_ICM426xx.c ****     }
 1370              		.loc 1 391 16 is_stmt 0 view .LVU427
 1371 012a 9CE7     		b	.L84
 1372              	.L95:
 394:Device/Dev_ICM426xx.c ****        !DevICM426xx_Reg_Read(sensor_obj, ICM426XX_RA_GYRO_CONFIG_STATIC3, &read_out))
 1373              		.loc 1 394 5 is_stmt 1 view .LVU428
 394:Device/Dev_ICM426xx.c ****        !DevICM426xx_Reg_Read(sensor_obj, ICM426XX_RA_GYRO_CONFIG_STATIC3, &read_out))
 1374              		.loc 1 394 9 is_stmt 0 view .LVU429
 1375 012c 2A78     		ldrb	r2, [r5]	@ zero_extendqisi2
 1376 012e 0C21     		movs	r1, #12
 1377 0130 2046     		mov	r0, r4
 1378 0132 FFF7FEFF 		bl	DevICM426xx_Reg_Write
 1379              	.LVL122:
 394:Device/Dev_ICM426xx.c ****        !DevICM426xx_Reg_Read(sensor_obj, ICM426XX_RA_GYRO_CONFIG_STATIC3, &read_out))
 1380              		.loc 1 394 7 view .LVU430
 1381 0136 98B9     		cbnz	r0, .L175
 1382              	.L97:
 397:Device/Dev_ICM426xx.c ****         return false;
 1383              		.loc 1 397 9 is_stmt 1 view .LVU431
 1384              	.LVL123:
 1385              	.LBB88:
 1386              	.LBI88:
  91:common/gen_physic_def/imu_data.h **** {
 1387              		.loc 2 91 13 view .LVU432
 1388              	.LBB89:
  93:common/gen_physic_def/imu_data.h ****     {
 1389              		.loc 2 93 5 view .LVU433
  93:common/gen_physic_def/imu_data.h ****     {
 1390              		.loc 2 93 7 is_stmt 0 view .LVU434
 1391 0138 14F1240F 		cmn	r4, #36
ARM GAS  C:\Users\8bit\AppData\Local\Temp\ccNZMjib.s 			page 41


 1392 013c 0ED0     		beq	.L99
  95:common/gen_physic_def/imu_data.h ****         error->function = (char *)func;
 1393              		.loc 2 95 9 is_stmt 1 view .LVU435
  95:common/gen_physic_def/imu_data.h ****         error->function = (char *)func;
 1394              		.loc 2 95 21 is_stmt 0 view .LVU436
 1395 013e 0723     		movs	r3, #7
 1396 0140 84F82430 		strb	r3, [r4, #36]
  96:common/gen_physic_def/imu_data.h ****         error->line = line;
 1397              		.loc 2 96 9 is_stmt 1 view .LVU437
  96:common/gen_physic_def/imu_data.h ****         error->line = line;
 1398              		.loc 2 96 25 is_stmt 0 view .LVU438
 1399 0144 724B     		ldr	r3, .L183
 1400 0146 A362     		str	r3, [r4, #40]
  97:common/gen_physic_def/imu_data.h **** 
 1401              		.loc 2 97 9 is_stmt 1 view .LVU439
  97:common/gen_physic_def/imu_data.h **** 
 1402              		.loc 2 97 21 is_stmt 0 view .LVU440
 1403 0148 40F28D13 		movw	r3, #397
 1404 014c A385     		strh	r3, [r4, #44]	@ movhi
  99:common/gen_physic_def/imu_data.h ****         error->reg_r_val = reg_r;
 1405              		.loc 2 99 9 is_stmt 1 view .LVU441
  99:common/gen_physic_def/imu_data.h ****         error->reg_r_val = reg_r;
 1406              		.loc 2 99 24 is_stmt 0 view .LVU442
 1407 014e 0023     		movs	r3, #0
 1408 0150 84F82E30 		strb	r3, [r4, #46]
 100:common/gen_physic_def/imu_data.h ****         error->reg_t_val = reg_t;
 1409              		.loc 2 100 9 is_stmt 1 view .LVU443
 100:common/gen_physic_def/imu_data.h ****         error->reg_t_val = reg_t;
 1410              		.loc 2 100 26 is_stmt 0 view .LVU444
 1411 0154 84F82F30 		strb	r3, [r4, #47]
 1412              		.loc 2 101 9 is_stmt 1 view .LVU445
 1413              		.loc 2 101 26 is_stmt 0 view .LVU446
 1414 0158 84F83030 		strb	r3, [r4, #48]
 1415              	.L99:
 1416              	.LVL124:
 1417              		.loc 2 101 26 view .LVU447
 1418              	.LBE89:
 1419              	.LBE88:
 398:Device/Dev_ICM426xx.c ****     }
 1420              		.loc 1 398 9 is_stmt 1 view .LVU448
 398:Device/Dev_ICM426xx.c ****     }
 1421              		.loc 1 398 16 is_stmt 0 view .LVU449
 1422 015c 0020     		movs	r0, #0
 1423 015e 82E7     		b	.L84
 1424              	.L175:
 395:Device/Dev_ICM426xx.c ****     {
 1425              		.loc 1 395 9 discriminator 1 view .LVU450
 1426 0160 0DF10702 		add	r2, sp, #7
 1427 0164 0C21     		movs	r1, #12
 1428 0166 2046     		mov	r0, r4
 1429 0168 FFF7FEFF 		bl	DevICM426xx_Reg_Read
 1430              	.LVL125:
 394:Device/Dev_ICM426xx.c ****        !DevICM426xx_Reg_Read(sensor_obj, ICM426XX_RA_GYRO_CONFIG_STATIC3, &read_out))
 1431              		.loc 1 394 110 discriminator 1 view .LVU451
 1432 016c 0028     		cmp	r0, #0
 1433 016e E3D0     		beq	.L97
 401:Device/Dev_ICM426xx.c ****     {
ARM GAS  C:\Users\8bit\AppData\Local\Temp\ccNZMjib.s 			page 42


 1434              		.loc 1 401 5 is_stmt 1 view .LVU452
 401:Device/Dev_ICM426xx.c ****     {
 1435              		.loc 1 401 47 is_stmt 0 view .LVU453
 1436 0170 2B78     		ldrb	r3, [r5]	@ zero_extendqisi2
 401:Device/Dev_ICM426xx.c ****     {
 1437              		.loc 1 401 17 view .LVU454
 1438 0172 9DF80720 		ldrb	r2, [sp, #7]	@ zero_extendqisi2
 401:Device/Dev_ICM426xx.c ****     {
 1439              		.loc 1 401 7 view .LVU455
 1440 0176 9342     		cmp	r3, r2
 1441 0178 13D0     		beq	.L100
 403:Device/Dev_ICM426xx.c ****         return false;
 1442              		.loc 1 403 9 is_stmt 1 view .LVU456
 1443              	.LVL126:
 1444              	.LBB90:
 1445              	.LBI90:
  91:common/gen_physic_def/imu_data.h **** {
 1446              		.loc 2 91 13 view .LVU457
 1447              	.LBB91:
  93:common/gen_physic_def/imu_data.h ****     {
 1448              		.loc 2 93 5 view .LVU458
  93:common/gen_physic_def/imu_data.h ****     {
 1449              		.loc 2 93 7 is_stmt 0 view .LVU459
 1450 017a 14F1240F 		cmn	r4, #36
 1451 017e 0ED0     		beq	.L101
  95:common/gen_physic_def/imu_data.h ****         error->function = (char *)func;
 1452              		.loc 2 95 9 is_stmt 1 view .LVU460
  95:common/gen_physic_def/imu_data.h ****         error->function = (char *)func;
 1453              		.loc 2 95 21 is_stmt 0 view .LVU461
 1454 0180 0621     		movs	r1, #6
 1455 0182 84F82410 		strb	r1, [r4, #36]
  96:common/gen_physic_def/imu_data.h ****         error->line = line;
 1456              		.loc 2 96 9 is_stmt 1 view .LVU462
  96:common/gen_physic_def/imu_data.h ****         error->line = line;
 1457              		.loc 2 96 25 is_stmt 0 view .LVU463
 1458 0186 6249     		ldr	r1, .L183
 1459 0188 A162     		str	r1, [r4, #40]
  97:common/gen_physic_def/imu_data.h **** 
 1460              		.loc 2 97 9 is_stmt 1 view .LVU464
  97:common/gen_physic_def/imu_data.h **** 
 1461              		.loc 2 97 21 is_stmt 0 view .LVU465
 1462 018a 40F29311 		movw	r1, #403
 1463 018e A185     		strh	r1, [r4, #44]	@ movhi
  99:common/gen_physic_def/imu_data.h ****         error->reg_r_val = reg_r;
 1464              		.loc 2 99 9 is_stmt 1 view .LVU466
  99:common/gen_physic_def/imu_data.h ****         error->reg_r_val = reg_r;
 1465              		.loc 2 99 24 is_stmt 0 view .LVU467
 1466 0190 0C21     		movs	r1, #12
 1467 0192 84F82E10 		strb	r1, [r4, #46]
 100:common/gen_physic_def/imu_data.h ****         error->reg_t_val = reg_t;
 1468              		.loc 2 100 9 is_stmt 1 view .LVU468
 100:common/gen_physic_def/imu_data.h ****         error->reg_t_val = reg_t;
 1469              		.loc 2 100 26 is_stmt 0 view .LVU469
 1470 0196 84F82F20 		strb	r2, [r4, #47]
 1471              		.loc 2 101 9 is_stmt 1 view .LVU470
 1472              		.loc 2 101 26 is_stmt 0 view .LVU471
 1473 019a 84F83030 		strb	r3, [r4, #48]
ARM GAS  C:\Users\8bit\AppData\Local\Temp\ccNZMjib.s 			page 43


 1474              	.L101:
 1475              	.LVL127:
 1476              		.loc 2 101 26 view .LVU472
 1477              	.LBE91:
 1478              	.LBE90:
 404:Device/Dev_ICM426xx.c ****     }
 1479              		.loc 1 404 9 is_stmt 1 view .LVU473
 404:Device/Dev_ICM426xx.c ****     }
 1480              		.loc 1 404 16 is_stmt 0 view .LVU474
 1481 019e 0020     		movs	r0, #0
 1482 01a0 61E7     		b	.L84
 1483              	.L100:
 407:Device/Dev_ICM426xx.c ****        !DevICM426xx_Reg_Read(sensor_obj, ICM426XX_RA_GYRO_CONFIG_STATIC4, &read_out))
 1484              		.loc 1 407 5 is_stmt 1 view .LVU475
 407:Device/Dev_ICM426xx.c ****        !DevICM426xx_Reg_Read(sensor_obj, ICM426XX_RA_GYRO_CONFIG_STATIC4, &read_out))
 1485              		.loc 1 407 9 is_stmt 0 view .LVU476
 1486 01a2 AA78     		ldrb	r2, [r5, #2]	@ zero_extendqisi2
 1487 01a4 0D21     		movs	r1, #13
 1488 01a6 2046     		mov	r0, r4
 1489 01a8 FFF7FEFF 		bl	DevICM426xx_Reg_Write
 1490              	.LVL128:
 407:Device/Dev_ICM426xx.c ****        !DevICM426xx_Reg_Read(sensor_obj, ICM426XX_RA_GYRO_CONFIG_STATIC4, &read_out))
 1491              		.loc 1 407 7 view .LVU477
 1492 01ac 98B9     		cbnz	r0, .L176
 1493              	.L102:
 410:Device/Dev_ICM426xx.c ****         return false;
 1494              		.loc 1 410 9 is_stmt 1 view .LVU478
 1495              	.LVL129:
 1496              	.LBB92:
 1497              	.LBI92:
  91:common/gen_physic_def/imu_data.h **** {
 1498              		.loc 2 91 13 view .LVU479
 1499              	.LBB93:
  93:common/gen_physic_def/imu_data.h ****     {
 1500              		.loc 2 93 5 view .LVU480
  93:common/gen_physic_def/imu_data.h ****     {
 1501              		.loc 2 93 7 is_stmt 0 view .LVU481
 1502 01ae 14F1240F 		cmn	r4, #36
 1503 01b2 0ED0     		beq	.L104
  95:common/gen_physic_def/imu_data.h ****         error->function = (char *)func;
 1504              		.loc 2 95 9 is_stmt 1 view .LVU482
  95:common/gen_physic_def/imu_data.h ****         error->function = (char *)func;
 1505              		.loc 2 95 21 is_stmt 0 view .LVU483
 1506 01b4 0723     		movs	r3, #7
 1507 01b6 84F82430 		strb	r3, [r4, #36]
  96:common/gen_physic_def/imu_data.h ****         error->line = line;
 1508              		.loc 2 96 9 is_stmt 1 view .LVU484
  96:common/gen_physic_def/imu_data.h ****         error->line = line;
 1509              		.loc 2 96 25 is_stmt 0 view .LVU485
 1510 01ba 554B     		ldr	r3, .L183
 1511 01bc A362     		str	r3, [r4, #40]
  97:common/gen_physic_def/imu_data.h **** 
 1512              		.loc 2 97 9 is_stmt 1 view .LVU486
  97:common/gen_physic_def/imu_data.h **** 
 1513              		.loc 2 97 21 is_stmt 0 view .LVU487
 1514 01be 4FF4CD73 		mov	r3, #410
 1515 01c2 A385     		strh	r3, [r4, #44]	@ movhi
ARM GAS  C:\Users\8bit\AppData\Local\Temp\ccNZMjib.s 			page 44


  99:common/gen_physic_def/imu_data.h ****         error->reg_r_val = reg_r;
 1516              		.loc 2 99 9 is_stmt 1 view .LVU488
  99:common/gen_physic_def/imu_data.h ****         error->reg_r_val = reg_r;
 1517              		.loc 2 99 24 is_stmt 0 view .LVU489
 1518 01c4 0023     		movs	r3, #0
 1519 01c6 84F82E30 		strb	r3, [r4, #46]
 100:common/gen_physic_def/imu_data.h ****         error->reg_t_val = reg_t;
 1520              		.loc 2 100 9 is_stmt 1 view .LVU490
 100:common/gen_physic_def/imu_data.h ****         error->reg_t_val = reg_t;
 1521              		.loc 2 100 26 is_stmt 0 view .LVU491
 1522 01ca 84F82F30 		strb	r3, [r4, #47]
 1523              		.loc 2 101 9 is_stmt 1 view .LVU492
 1524              		.loc 2 101 26 is_stmt 0 view .LVU493
 1525 01ce 84F83030 		strb	r3, [r4, #48]
 1526              	.L104:
 1527              	.LVL130:
 1528              		.loc 2 101 26 view .LVU494
 1529              	.LBE93:
 1530              	.LBE92:
 411:Device/Dev_ICM426xx.c ****     }
 1531              		.loc 1 411 9 is_stmt 1 view .LVU495
 411:Device/Dev_ICM426xx.c ****     }
 1532              		.loc 1 411 16 is_stmt 0 view .LVU496
 1533 01d2 0020     		movs	r0, #0
 1534 01d4 47E7     		b	.L84
 1535              	.L176:
 408:Device/Dev_ICM426xx.c ****     {
 1536              		.loc 1 408 9 discriminator 1 view .LVU497
 1537 01d6 0DF10702 		add	r2, sp, #7
 1538 01da 0D21     		movs	r1, #13
 1539 01dc 2046     		mov	r0, r4
 1540 01de FFF7FEFF 		bl	DevICM426xx_Reg_Read
 1541              	.LVL131:
 407:Device/Dev_ICM426xx.c ****        !DevICM426xx_Reg_Read(sensor_obj, ICM426XX_RA_GYRO_CONFIG_STATIC4, &read_out))
 1542              		.loc 1 407 120 discriminator 1 view .LVU498
 1543 01e2 0028     		cmp	r0, #0
 1544 01e4 E3D0     		beq	.L102
 414:Device/Dev_ICM426xx.c ****     {
 1545              		.loc 1 414 5 is_stmt 1 view .LVU499
 414:Device/Dev_ICM426xx.c ****     {
 1546              		.loc 1 414 17 is_stmt 0 view .LVU500
 1547 01e6 9DF80720 		ldrb	r2, [sp, #7]	@ zero_extendqisi2
 414:Device/Dev_ICM426xx.c ****     {
 1548              		.loc 1 414 48 view .LVU501
 1549 01ea 6B88     		ldrh	r3, [r5, #2]
 414:Device/Dev_ICM426xx.c ****     {
 1550              		.loc 1 414 57 view .LVU502
 1551 01ec A978     		ldrb	r1, [r5, #2]	@ zero_extendqisi2
 414:Device/Dev_ICM426xx.c ****     {
 1552              		.loc 1 414 7 view .LVU503
 1553 01ee 8A42     		cmp	r2, r1
 1554 01f0 14D0     		beq	.L105
 416:Device/Dev_ICM426xx.c ****                          aaf_tab[ICM426xx_AAF_258Hz].deltSqr & 0xFF);
 1555              		.loc 1 416 9 is_stmt 1 view .LVU504
 1556 01f2 DBB2     		uxtb	r3, r3
 1557              	.LVL132:
 1558              	.LBB94:
ARM GAS  C:\Users\8bit\AppData\Local\Temp\ccNZMjib.s 			page 45


 1559              	.LBI94:
  91:common/gen_physic_def/imu_data.h **** {
 1560              		.loc 2 91 13 view .LVU505
 1561              	.LBB95:
  93:common/gen_physic_def/imu_data.h ****     {
 1562              		.loc 2 93 5 view .LVU506
  93:common/gen_physic_def/imu_data.h ****     {
 1563              		.loc 2 93 7 is_stmt 0 view .LVU507
 1564 01f4 14F1240F 		cmn	r4, #36
 1565 01f8 0ED0     		beq	.L106
  95:common/gen_physic_def/imu_data.h ****         error->function = (char *)func;
 1566              		.loc 2 95 9 is_stmt 1 view .LVU508
  95:common/gen_physic_def/imu_data.h ****         error->function = (char *)func;
 1567              		.loc 2 95 21 is_stmt 0 view .LVU509
 1568 01fa 0621     		movs	r1, #6
 1569 01fc 84F82410 		strb	r1, [r4, #36]
  96:common/gen_physic_def/imu_data.h ****         error->line = line;
 1570              		.loc 2 96 9 is_stmt 1 view .LVU510
  96:common/gen_physic_def/imu_data.h ****         error->line = line;
 1571              		.loc 2 96 25 is_stmt 0 view .LVU511
 1572 0200 4349     		ldr	r1, .L183
 1573 0202 A162     		str	r1, [r4, #40]
  97:common/gen_physic_def/imu_data.h **** 
 1574              		.loc 2 97 9 is_stmt 1 view .LVU512
  97:common/gen_physic_def/imu_data.h **** 
 1575              		.loc 2 97 21 is_stmt 0 view .LVU513
 1576 0204 4FF4D071 		mov	r1, #416
 1577 0208 A185     		strh	r1, [r4, #44]	@ movhi
  99:common/gen_physic_def/imu_data.h ****         error->reg_r_val = reg_r;
 1578              		.loc 2 99 9 is_stmt 1 view .LVU514
  99:common/gen_physic_def/imu_data.h ****         error->reg_r_val = reg_r;
 1579              		.loc 2 99 24 is_stmt 0 view .LVU515
 1580 020a 0D21     		movs	r1, #13
 1581 020c 84F82E10 		strb	r1, [r4, #46]
 100:common/gen_physic_def/imu_data.h ****         error->reg_t_val = reg_t;
 1582              		.loc 2 100 9 is_stmt 1 view .LVU516
 100:common/gen_physic_def/imu_data.h ****         error->reg_t_val = reg_t;
 1583              		.loc 2 100 26 is_stmt 0 view .LVU517
 1584 0210 84F82F20 		strb	r2, [r4, #47]
 1585              		.loc 2 101 9 is_stmt 1 view .LVU518
 1586              		.loc 2 101 26 is_stmt 0 view .LVU519
 1587 0214 84F83030 		strb	r3, [r4, #48]
 1588              	.L106:
 1589              	.LVL133:
 1590              		.loc 2 101 26 view .LVU520
 1591              	.LBE95:
 1592              	.LBE94:
 418:Device/Dev_ICM426xx.c ****     }
 1593              		.loc 1 418 9 is_stmt 1 view .LVU521
 418:Device/Dev_ICM426xx.c ****     }
 1594              		.loc 1 418 16 is_stmt 0 view .LVU522
 1595 0218 0020     		movs	r0, #0
 1596 021a 24E7     		b	.L84
 1597              	.L105:
 421:Device/Dev_ICM426xx.c ****        !DevICM426xx_Reg_Read(sensor_obj, ICM426XX_RA_GYRO_CONFIG_STATIC5, &read_out))
 1598              		.loc 1 421 5 is_stmt 1 view .LVU523
 421:Device/Dev_ICM426xx.c ****        !DevICM426xx_Reg_Read(sensor_obj, ICM426XX_RA_GYRO_CONFIG_STATIC5, &read_out))
ARM GAS  C:\Users\8bit\AppData\Local\Temp\ccNZMjib.s 			page 46


 1599              		.loc 1 421 149 is_stmt 0 view .LVU524
 1600 021c 2A79     		ldrb	r2, [r5, #4]	@ zero_extendqisi2
 421:Device/Dev_ICM426xx.c ****        !DevICM426xx_Reg_Read(sensor_obj, ICM426XX_RA_GYRO_CONFIG_STATIC5, &read_out))
 1601              		.loc 1 421 119 view .LVU525
 1602 021e 1B0A     		lsrs	r3, r3, #8
 1603 0220 43EA0212 		orr	r2, r3, r2, lsl #4
 421:Device/Dev_ICM426xx.c ****        !DevICM426xx_Reg_Read(sensor_obj, ICM426XX_RA_GYRO_CONFIG_STATIC5, &read_out))
 1604              		.loc 1 421 9 view .LVU526
 1605 0224 D2B2     		uxtb	r2, r2
 1606 0226 0E21     		movs	r1, #14
 1607 0228 2046     		mov	r0, r4
 1608 022a FFF7FEFF 		bl	DevICM426xx_Reg_Write
 1609              	.LVL134:
 421:Device/Dev_ICM426xx.c ****        !DevICM426xx_Reg_Read(sensor_obj, ICM426XX_RA_GYRO_CONFIG_STATIC5, &read_out))
 1610              		.loc 1 421 7 view .LVU527
 1611 022e 98B9     		cbnz	r0, .L177
 1612              	.L107:
 424:Device/Dev_ICM426xx.c ****         return false;
 1613              		.loc 1 424 9 is_stmt 1 view .LVU528
 1614              	.LVL135:
 1615              	.LBB96:
 1616              	.LBI96:
  91:common/gen_physic_def/imu_data.h **** {
 1617              		.loc 2 91 13 view .LVU529
 1618              	.LBB97:
  93:common/gen_physic_def/imu_data.h ****     {
 1619              		.loc 2 93 5 view .LVU530
  93:common/gen_physic_def/imu_data.h ****     {
 1620              		.loc 2 93 7 is_stmt 0 view .LVU531
 1621 0230 14F1240F 		cmn	r4, #36
 1622 0234 0ED0     		beq	.L109
  95:common/gen_physic_def/imu_data.h ****         error->function = (char *)func;
 1623              		.loc 2 95 9 is_stmt 1 view .LVU532
  95:common/gen_physic_def/imu_data.h ****         error->function = (char *)func;
 1624              		.loc 2 95 21 is_stmt 0 view .LVU533
 1625 0236 0723     		movs	r3, #7
 1626 0238 84F82430 		strb	r3, [r4, #36]
  96:common/gen_physic_def/imu_data.h ****         error->line = line;
 1627              		.loc 2 96 9 is_stmt 1 view .LVU534
  96:common/gen_physic_def/imu_data.h ****         error->line = line;
 1628              		.loc 2 96 25 is_stmt 0 view .LVU535
 1629 023c 344B     		ldr	r3, .L183
 1630 023e A362     		str	r3, [r4, #40]
  97:common/gen_physic_def/imu_data.h **** 
 1631              		.loc 2 97 9 is_stmt 1 view .LVU536
  97:common/gen_physic_def/imu_data.h **** 
 1632              		.loc 2 97 21 is_stmt 0 view .LVU537
 1633 0240 4FF4D473 		mov	r3, #424
 1634 0244 A385     		strh	r3, [r4, #44]	@ movhi
  99:common/gen_physic_def/imu_data.h ****         error->reg_r_val = reg_r;
 1635              		.loc 2 99 9 is_stmt 1 view .LVU538
  99:common/gen_physic_def/imu_data.h ****         error->reg_r_val = reg_r;
 1636              		.loc 2 99 24 is_stmt 0 view .LVU539
 1637 0246 0023     		movs	r3, #0
 1638 0248 84F82E30 		strb	r3, [r4, #46]
 100:common/gen_physic_def/imu_data.h ****         error->reg_t_val = reg_t;
 1639              		.loc 2 100 9 is_stmt 1 view .LVU540
ARM GAS  C:\Users\8bit\AppData\Local\Temp\ccNZMjib.s 			page 47


 100:common/gen_physic_def/imu_data.h ****         error->reg_t_val = reg_t;
 1640              		.loc 2 100 26 is_stmt 0 view .LVU541
 1641 024c 84F82F30 		strb	r3, [r4, #47]
 1642              		.loc 2 101 9 is_stmt 1 view .LVU542
 1643              		.loc 2 101 26 is_stmt 0 view .LVU543
 1644 0250 84F83030 		strb	r3, [r4, #48]
 1645              	.L109:
 1646              	.LVL136:
 1647              		.loc 2 101 26 view .LVU544
 1648              	.LBE97:
 1649              	.LBE96:
 425:Device/Dev_ICM426xx.c ****     }
 1650              		.loc 1 425 9 is_stmt 1 view .LVU545
 425:Device/Dev_ICM426xx.c ****     }
 1651              		.loc 1 425 16 is_stmt 0 view .LVU546
 1652 0254 0020     		movs	r0, #0
 1653 0256 06E7     		b	.L84
 1654              	.L177:
 422:Device/Dev_ICM426xx.c ****     {
 1655              		.loc 1 422 9 discriminator 1 view .LVU547
 1656 0258 0DF10702 		add	r2, sp, #7
 1657 025c 0E21     		movs	r1, #14
 1658 025e 2046     		mov	r0, r4
 1659 0260 FFF7FEFF 		bl	DevICM426xx_Reg_Read
 1660              	.LVL137:
 421:Device/Dev_ICM426xx.c ****        !DevICM426xx_Reg_Read(sensor_obj, ICM426XX_RA_GYRO_CONFIG_STATIC5, &read_out))
 1661              		.loc 1 421 166 discriminator 1 view .LVU548
 1662 0264 0028     		cmp	r0, #0
 1663 0266 E3D0     		beq	.L107
 428:Device/Dev_ICM426xx.c ****     {
 1664              		.loc 1 428 5 is_stmt 1 view .LVU549
 428:Device/Dev_ICM426xx.c ****     {
 1665              		.loc 1 428 17 is_stmt 0 view .LVU550
 1666 0268 9DF80700 		ldrb	r0, [sp, #7]	@ zero_extendqisi2
 428:Device/Dev_ICM426xx.c ****     {
 1667              		.loc 1 428 49 view .LVU551
 1668 026c 6988     		ldrh	r1, [r5, #2]
 428:Device/Dev_ICM426xx.c ****     {
 1669              		.loc 1 428 94 view .LVU552
 1670 026e 2A79     		ldrb	r2, [r5, #4]	@ zero_extendqisi2
 428:Device/Dev_ICM426xx.c ****     {
 1671              		.loc 1 428 104 view .LVU553
 1672 0270 1201     		lsls	r2, r2, #4
 428:Device/Dev_ICM426xx.c ****     {
 1673              		.loc 1 428 64 view .LVU554
 1674 0272 42EA1121 		orr	r1, r2, r1, lsr #8
 428:Device/Dev_ICM426xx.c ****     {
 1675              		.loc 1 428 7 view .LVU555
 1676 0276 8842     		cmp	r0, r1
 1677 0278 14D0     		beq	.L110
 430:Device/Dev_ICM426xx.c ****                          (aaf_tab[ICM426xx_AAF_258Hz].deltSqr >> 8) | (aaf_tab[ICM426xx_AAF_258Hz].
 1678              		.loc 1 430 9 is_stmt 1 view .LVU556
 1679 027a CBB2     		uxtb	r3, r1
 1680              	.LVL138:
 1681              	.LBB98:
 1682              	.LBI98:
  91:common/gen_physic_def/imu_data.h **** {
ARM GAS  C:\Users\8bit\AppData\Local\Temp\ccNZMjib.s 			page 48


 1683              		.loc 2 91 13 view .LVU557
 1684              	.LBB99:
  93:common/gen_physic_def/imu_data.h ****     {
 1685              		.loc 2 93 5 view .LVU558
  93:common/gen_physic_def/imu_data.h ****     {
 1686              		.loc 2 93 7 is_stmt 0 view .LVU559
 1687 027c 14F1240F 		cmn	r4, #36
 1688 0280 0ED0     		beq	.L111
  95:common/gen_physic_def/imu_data.h ****         error->function = (char *)func;
 1689              		.loc 2 95 9 is_stmt 1 view .LVU560
  95:common/gen_physic_def/imu_data.h ****         error->function = (char *)func;
 1690              		.loc 2 95 21 is_stmt 0 view .LVU561
 1691 0282 0622     		movs	r2, #6
 1692 0284 84F82420 		strb	r2, [r4, #36]
  96:common/gen_physic_def/imu_data.h ****         error->line = line;
 1693              		.loc 2 96 9 is_stmt 1 view .LVU562
  96:common/gen_physic_def/imu_data.h ****         error->line = line;
 1694              		.loc 2 96 25 is_stmt 0 view .LVU563
 1695 0288 214A     		ldr	r2, .L183
 1696 028a A262     		str	r2, [r4, #40]
  97:common/gen_physic_def/imu_data.h **** 
 1697              		.loc 2 97 9 is_stmt 1 view .LVU564
  97:common/gen_physic_def/imu_data.h **** 
 1698              		.loc 2 97 21 is_stmt 0 view .LVU565
 1699 028c 4FF4D772 		mov	r2, #430
 1700 0290 A285     		strh	r2, [r4, #44]	@ movhi
  99:common/gen_physic_def/imu_data.h ****         error->reg_r_val = reg_r;
 1701              		.loc 2 99 9 is_stmt 1 view .LVU566
  99:common/gen_physic_def/imu_data.h ****         error->reg_r_val = reg_r;
 1702              		.loc 2 99 24 is_stmt 0 view .LVU567
 1703 0292 0E22     		movs	r2, #14
 1704 0294 84F82E20 		strb	r2, [r4, #46]
 100:common/gen_physic_def/imu_data.h ****         error->reg_t_val = reg_t;
 1705              		.loc 2 100 9 is_stmt 1 view .LVU568
 100:common/gen_physic_def/imu_data.h ****         error->reg_t_val = reg_t;
 1706              		.loc 2 100 26 is_stmt 0 view .LVU569
 1707 0298 84F82F00 		strb	r0, [r4, #47]
 1708              		.loc 2 101 9 is_stmt 1 view .LVU570
 1709              		.loc 2 101 26 is_stmt 0 view .LVU571
 1710 029c 84F83030 		strb	r3, [r4, #48]
 1711              	.L111:
 1712              	.LVL139:
 1713              		.loc 2 101 26 view .LVU572
 1714              	.LBE99:
 1715              	.LBE98:
 432:Device/Dev_ICM426xx.c ****     }
 1716              		.loc 1 432 9 is_stmt 1 view .LVU573
 432:Device/Dev_ICM426xx.c ****     }
 1717              		.loc 1 432 16 is_stmt 0 view .LVU574
 1718 02a0 0020     		movs	r0, #0
 1719 02a2 E0E6     		b	.L84
 1720              	.L110:
 436:Device/Dev_ICM426xx.c ****     {
 1721              		.loc 1 436 5 is_stmt 1 view .LVU575
 436:Device/Dev_ICM426xx.c ****     {
 1722              		.loc 1 436 9 is_stmt 0 view .LVU576
 1723 02a4 0221     		movs	r1, #2
ARM GAS  C:\Users\8bit\AppData\Local\Temp\ccNZMjib.s 			page 49


 1724 02a6 2046     		mov	r0, r4
 1725 02a8 FFF7FEFF 		bl	DevICM426xx_SetUserBank
 1726              	.LVL140:
 436:Device/Dev_ICM426xx.c ****     {
 1727              		.loc 1 436 7 view .LVU577
 1728 02ac 98B9     		cbnz	r0, .L112
 438:Device/Dev_ICM426xx.c ****         return false;
 1729              		.loc 1 438 9 is_stmt 1 view .LVU578
 1730              	.LVL141:
 1731              	.LBB100:
 1732              	.LBI100:
  91:common/gen_physic_def/imu_data.h **** {
 1733              		.loc 2 91 13 view .LVU579
 1734              	.LBB101:
  93:common/gen_physic_def/imu_data.h ****     {
 1735              		.loc 2 93 5 view .LVU580
  93:common/gen_physic_def/imu_data.h ****     {
 1736              		.loc 2 93 7 is_stmt 0 view .LVU581
 1737 02ae 14F1240F 		cmn	r4, #36
 1738 02b2 3FF4D8AE 		beq	.L84
  95:common/gen_physic_def/imu_data.h ****         error->function = (char *)func;
 1739              		.loc 2 95 9 is_stmt 1 view .LVU582
  95:common/gen_physic_def/imu_data.h ****         error->function = (char *)func;
 1740              		.loc 2 95 21 is_stmt 0 view .LVU583
 1741 02b6 0723     		movs	r3, #7
 1742 02b8 84F82430 		strb	r3, [r4, #36]
  96:common/gen_physic_def/imu_data.h ****         error->line = line;
 1743              		.loc 2 96 9 is_stmt 1 view .LVU584
  96:common/gen_physic_def/imu_data.h ****         error->line = line;
 1744              		.loc 2 96 25 is_stmt 0 view .LVU585
 1745 02bc 144B     		ldr	r3, .L183
 1746 02be A362     		str	r3, [r4, #40]
  97:common/gen_physic_def/imu_data.h **** 
 1747              		.loc 2 97 9 is_stmt 1 view .LVU586
  97:common/gen_physic_def/imu_data.h **** 
 1748              		.loc 2 97 21 is_stmt 0 view .LVU587
 1749 02c0 4FF4DB73 		mov	r3, #438
 1750 02c4 A385     		strh	r3, [r4, #44]	@ movhi
  99:common/gen_physic_def/imu_data.h ****         error->reg_r_val = reg_r;
 1751              		.loc 2 99 9 is_stmt 1 view .LVU588
  99:common/gen_physic_def/imu_data.h ****         error->reg_r_val = reg_r;
 1752              		.loc 2 99 24 is_stmt 0 view .LVU589
 1753 02c6 0023     		movs	r3, #0
 1754 02c8 84F82E30 		strb	r3, [r4, #46]
 100:common/gen_physic_def/imu_data.h ****         error->reg_t_val = reg_t;
 1755              		.loc 2 100 9 is_stmt 1 view .LVU590
 100:common/gen_physic_def/imu_data.h ****         error->reg_t_val = reg_t;
 1756              		.loc 2 100 26 is_stmt 0 view .LVU591
 1757 02cc 84F82F30 		strb	r3, [r4, #47]
 1758              		.loc 2 101 9 is_stmt 1 view .LVU592
 1759              		.loc 2 101 26 is_stmt 0 view .LVU593
 1760 02d0 84F83030 		strb	r3, [r4, #48]
 1761              	.LVL142:
 1762              		.loc 2 101 26 view .LVU594
 1763              	.LBE101:
 1764              	.LBE100:
 439:Device/Dev_ICM426xx.c ****     }
ARM GAS  C:\Users\8bit\AppData\Local\Temp\ccNZMjib.s 			page 50


 1765              		.loc 1 439 9 is_stmt 1 view .LVU595
 439:Device/Dev_ICM426xx.c ****     }
 1766              		.loc 1 439 16 is_stmt 0 view .LVU596
 1767 02d4 C7E6     		b	.L84
 1768              	.L112:
 442:Device/Dev_ICM426xx.c ****        !DevICM426xx_Reg_Read(sensor_obj, ICM426XX_RA_ACCEL_CONFIG_STATIC2, &read_out))
 1769              		.loc 1 442 5 is_stmt 1 view .LVU597
 442:Device/Dev_ICM426xx.c ****        !DevICM426xx_Reg_Read(sensor_obj, ICM426XX_RA_ACCEL_CONFIG_STATIC2, &read_out))
 1770              		.loc 1 442 104 is_stmt 0 view .LVU598
 1771 02d6 2A78     		ldrb	r2, [r5]	@ zero_extendqisi2
 442:Device/Dev_ICM426xx.c ****        !DevICM426xx_Reg_Read(sensor_obj, ICM426XX_RA_ACCEL_CONFIG_STATIC2, &read_out))
 1772              		.loc 1 442 9 view .LVU599
 1773 02d8 5200     		lsls	r2, r2, #1
 1774 02da 02F0FE02 		and	r2, r2, #254
 1775 02de 0321     		movs	r1, #3
 1776 02e0 2046     		mov	r0, r4
 1777 02e2 FFF7FEFF 		bl	DevICM426xx_Reg_Write
 1778              	.LVL143:
 442:Device/Dev_ICM426xx.c ****        !DevICM426xx_Reg_Read(sensor_obj, ICM426XX_RA_ACCEL_CONFIG_STATIC2, &read_out))
 1779              		.loc 1 442 7 view .LVU600
 1780 02e6 C8B9     		cbnz	r0, .L178
 1781              	.L114:
 445:Device/Dev_ICM426xx.c ****         return false;
 1782              		.loc 1 445 9 is_stmt 1 view .LVU601
 1783              	.LVL144:
 1784              	.LBB102:
 1785              	.LBI102:
  91:common/gen_physic_def/imu_data.h **** {
 1786              		.loc 2 91 13 view .LVU602
 1787              	.LBB103:
  93:common/gen_physic_def/imu_data.h ****     {
 1788              		.loc 2 93 5 view .LVU603
  93:common/gen_physic_def/imu_data.h ****     {
 1789              		.loc 2 93 7 is_stmt 0 view .LVU604
 1790 02e8 14F1240F 		cmn	r4, #36
 1791 02ec 0ED0     		beq	.L116
  95:common/gen_physic_def/imu_data.h ****         error->function = (char *)func;
 1792              		.loc 2 95 9 is_stmt 1 view .LVU605
  95:common/gen_physic_def/imu_data.h ****         error->function = (char *)func;
 1793              		.loc 2 95 21 is_stmt 0 view .LVU606
 1794 02ee 0723     		movs	r3, #7
 1795 02f0 84F82430 		strb	r3, [r4, #36]
  96:common/gen_physic_def/imu_data.h ****         error->line = line;
 1796              		.loc 2 96 9 is_stmt 1 view .LVU607
  96:common/gen_physic_def/imu_data.h ****         error->line = line;
 1797              		.loc 2 96 25 is_stmt 0 view .LVU608
 1798 02f4 064B     		ldr	r3, .L183
 1799 02f6 A362     		str	r3, [r4, #40]
  97:common/gen_physic_def/imu_data.h **** 
 1800              		.loc 2 97 9 is_stmt 1 view .LVU609
  97:common/gen_physic_def/imu_data.h **** 
 1801              		.loc 2 97 21 is_stmt 0 view .LVU610
 1802 02f8 40F2BD13 		movw	r3, #445
 1803 02fc A385     		strh	r3, [r4, #44]	@ movhi
  99:common/gen_physic_def/imu_data.h ****         error->reg_r_val = reg_r;
 1804              		.loc 2 99 9 is_stmt 1 view .LVU611
  99:common/gen_physic_def/imu_data.h ****         error->reg_r_val = reg_r;
ARM GAS  C:\Users\8bit\AppData\Local\Temp\ccNZMjib.s 			page 51


 1805              		.loc 2 99 24 is_stmt 0 view .LVU612
 1806 02fe 0023     		movs	r3, #0
 1807 0300 84F82E30 		strb	r3, [r4, #46]
 100:common/gen_physic_def/imu_data.h ****         error->reg_t_val = reg_t;
 1808              		.loc 2 100 9 is_stmt 1 view .LVU613
 100:common/gen_physic_def/imu_data.h ****         error->reg_t_val = reg_t;
 1809              		.loc 2 100 26 is_stmt 0 view .LVU614
 1810 0304 84F82F30 		strb	r3, [r4, #47]
 1811              		.loc 2 101 9 is_stmt 1 view .LVU615
 1812              		.loc 2 101 26 is_stmt 0 view .LVU616
 1813 0308 84F83030 		strb	r3, [r4, #48]
 1814              	.L116:
 1815              	.LVL145:
 1816              		.loc 2 101 26 view .LVU617
 1817              	.LBE103:
 1818              	.LBE102:
 446:Device/Dev_ICM426xx.c ****     }
 1819              		.loc 1 446 9 is_stmt 1 view .LVU618
 446:Device/Dev_ICM426xx.c ****     }
 1820              		.loc 1 446 16 is_stmt 0 view .LVU619
 1821 030c 0020     		movs	r0, #0
 1822 030e AAE6     		b	.L84
 1823              	.L184:
 1824              		.align	2
 1825              	.L183:
 1826 0310 00000000 		.word	.LANCHOR2
 1827 0314 00000000 		.word	.LANCHOR0
 1828 0318 00000000 		.word	.LANCHOR1
 1829              	.L178:
 443:Device/Dev_ICM426xx.c ****     {
 1830              		.loc 1 443 9 discriminator 1 view .LVU620
 1831 031c 0DF10702 		add	r2, sp, #7
 1832 0320 0321     		movs	r1, #3
 1833 0322 2046     		mov	r0, r4
 1834 0324 FFF7FEFF 		bl	DevICM426xx_Reg_Read
 1835              	.LVL146:
 442:Device/Dev_ICM426xx.c ****        !DevICM426xx_Reg_Read(sensor_obj, ICM426XX_RA_ACCEL_CONFIG_STATIC2, &read_out))
 1836              		.loc 1 442 116 discriminator 1 view .LVU621
 1837 0328 0028     		cmp	r0, #0
 1838 032a DDD0     		beq	.L114
 449:Device/Dev_ICM426xx.c ****     {
 1839              		.loc 1 449 5 is_stmt 1 view .LVU622
 449:Device/Dev_ICM426xx.c ****     {
 1840              		.loc 1 449 17 is_stmt 0 view .LVU623
 1841 032c 9DF80720 		ldrb	r2, [sp, #7]	@ zero_extendqisi2
 449:Device/Dev_ICM426xx.c ****     {
 1842              		.loc 1 449 48 view .LVU624
 1843 0330 2B78     		ldrb	r3, [r5]	@ zero_extendqisi2
 449:Device/Dev_ICM426xx.c ****     {
 1844              		.loc 1 449 7 view .LVU625
 1845 0332 B2EB430F 		cmp	r2, r3, lsl #1
 1846 0336 15D0     		beq	.L117
 451:Device/Dev_ICM426xx.c ****         return false;
 1847              		.loc 1 451 9 is_stmt 1 view .LVU626
 1848 0338 5B00     		lsls	r3, r3, #1
 1849 033a DBB2     		uxtb	r3, r3
 1850              	.LVL147:
ARM GAS  C:\Users\8bit\AppData\Local\Temp\ccNZMjib.s 			page 52


 1851              	.LBB104:
 1852              	.LBI104:
  91:common/gen_physic_def/imu_data.h **** {
 1853              		.loc 2 91 13 view .LVU627
 1854              	.LBB105:
  93:common/gen_physic_def/imu_data.h ****     {
 1855              		.loc 2 93 5 view .LVU628
  93:common/gen_physic_def/imu_data.h ****     {
 1856              		.loc 2 93 7 is_stmt 0 view .LVU629
 1857 033c 14F1240F 		cmn	r4, #36
 1858 0340 0ED0     		beq	.L118
  95:common/gen_physic_def/imu_data.h ****         error->function = (char *)func;
 1859              		.loc 2 95 9 is_stmt 1 view .LVU630
  95:common/gen_physic_def/imu_data.h ****         error->function = (char *)func;
 1860              		.loc 2 95 21 is_stmt 0 view .LVU631
 1861 0342 0521     		movs	r1, #5
 1862 0344 84F82410 		strb	r1, [r4, #36]
  96:common/gen_physic_def/imu_data.h ****         error->line = line;
 1863              		.loc 2 96 9 is_stmt 1 view .LVU632
  96:common/gen_physic_def/imu_data.h ****         error->line = line;
 1864              		.loc 2 96 25 is_stmt 0 view .LVU633
 1865 0348 BB49     		ldr	r1, .L185
 1866 034a A162     		str	r1, [r4, #40]
  97:common/gen_physic_def/imu_data.h **** 
 1867              		.loc 2 97 9 is_stmt 1 view .LVU634
  97:common/gen_physic_def/imu_data.h **** 
 1868              		.loc 2 97 21 is_stmt 0 view .LVU635
 1869 034c 40F2C311 		movw	r1, #451
 1870 0350 A185     		strh	r1, [r4, #44]	@ movhi
  99:common/gen_physic_def/imu_data.h ****         error->reg_r_val = reg_r;
 1871              		.loc 2 99 9 is_stmt 1 view .LVU636
  99:common/gen_physic_def/imu_data.h ****         error->reg_r_val = reg_r;
 1872              		.loc 2 99 24 is_stmt 0 view .LVU637
 1873 0352 0321     		movs	r1, #3
 1874 0354 84F82E10 		strb	r1, [r4, #46]
 100:common/gen_physic_def/imu_data.h ****         error->reg_t_val = reg_t;
 1875              		.loc 2 100 9 is_stmt 1 view .LVU638
 100:common/gen_physic_def/imu_data.h ****         error->reg_t_val = reg_t;
 1876              		.loc 2 100 26 is_stmt 0 view .LVU639
 1877 0358 84F82F20 		strb	r2, [r4, #47]
 1878              		.loc 2 101 9 is_stmt 1 view .LVU640
 1879              		.loc 2 101 26 is_stmt 0 view .LVU641
 1880 035c 84F83030 		strb	r3, [r4, #48]
 1881              	.L118:
 1882              	.LVL148:
 1883              		.loc 2 101 26 view .LVU642
 1884              	.LBE105:
 1885              	.LBE104:
 452:Device/Dev_ICM426xx.c ****     }
 1886              		.loc 1 452 9 is_stmt 1 view .LVU643
 452:Device/Dev_ICM426xx.c ****     }
 1887              		.loc 1 452 16 is_stmt 0 view .LVU644
 1888 0360 0020     		movs	r0, #0
 1889 0362 80E6     		b	.L84
 1890              	.L117:
 455:Device/Dev_ICM426xx.c ****        !DevICM426xx_Reg_Read(sensor_obj, ICM426XX_RA_ACCEL_CONFIG_STATIC3, &read_out))
 1891              		.loc 1 455 5 is_stmt 1 view .LVU645
ARM GAS  C:\Users\8bit\AppData\Local\Temp\ccNZMjib.s 			page 53


 455:Device/Dev_ICM426xx.c ****        !DevICM426xx_Reg_Read(sensor_obj, ICM426XX_RA_ACCEL_CONFIG_STATIC3, &read_out))
 1892              		.loc 1 455 9 is_stmt 0 view .LVU646
 1893 0364 AA78     		ldrb	r2, [r5, #2]	@ zero_extendqisi2
 1894 0366 0421     		movs	r1, #4
 1895 0368 2046     		mov	r0, r4
 1896 036a FFF7FEFF 		bl	DevICM426xx_Reg_Write
 1897              	.LVL149:
 455:Device/Dev_ICM426xx.c ****        !DevICM426xx_Reg_Read(sensor_obj, ICM426XX_RA_ACCEL_CONFIG_STATIC3, &read_out))
 1898              		.loc 1 455 7 view .LVU647
 1899 036e 98B9     		cbnz	r0, .L179
 1900              	.L119:
 458:Device/Dev_ICM426xx.c ****         return false;
 1901              		.loc 1 458 9 is_stmt 1 view .LVU648
 1902              	.LVL150:
 1903              	.LBB106:
 1904              	.LBI106:
  91:common/gen_physic_def/imu_data.h **** {
 1905              		.loc 2 91 13 view .LVU649
 1906              	.LBB107:
  93:common/gen_physic_def/imu_data.h ****     {
 1907              		.loc 2 93 5 view .LVU650
  93:common/gen_physic_def/imu_data.h ****     {
 1908              		.loc 2 93 7 is_stmt 0 view .LVU651
 1909 0370 14F1240F 		cmn	r4, #36
 1910 0374 0ED0     		beq	.L121
  95:common/gen_physic_def/imu_data.h ****         error->function = (char *)func;
 1911              		.loc 2 95 9 is_stmt 1 view .LVU652
  95:common/gen_physic_def/imu_data.h ****         error->function = (char *)func;
 1912              		.loc 2 95 21 is_stmt 0 view .LVU653
 1913 0376 0723     		movs	r3, #7
 1914 0378 84F82430 		strb	r3, [r4, #36]
  96:common/gen_physic_def/imu_data.h ****         error->line = line;
 1915              		.loc 2 96 9 is_stmt 1 view .LVU654
  96:common/gen_physic_def/imu_data.h ****         error->line = line;
 1916              		.loc 2 96 25 is_stmt 0 view .LVU655
 1917 037c AE4B     		ldr	r3, .L185
 1918 037e A362     		str	r3, [r4, #40]
  97:common/gen_physic_def/imu_data.h **** 
 1919              		.loc 2 97 9 is_stmt 1 view .LVU656
  97:common/gen_physic_def/imu_data.h **** 
 1920              		.loc 2 97 21 is_stmt 0 view .LVU657
 1921 0380 4FF4E573 		mov	r3, #458
 1922 0384 A385     		strh	r3, [r4, #44]	@ movhi
  99:common/gen_physic_def/imu_data.h ****         error->reg_r_val = reg_r;
 1923              		.loc 2 99 9 is_stmt 1 view .LVU658
  99:common/gen_physic_def/imu_data.h ****         error->reg_r_val = reg_r;
 1924              		.loc 2 99 24 is_stmt 0 view .LVU659
 1925 0386 0023     		movs	r3, #0
 1926 0388 84F82E30 		strb	r3, [r4, #46]
 100:common/gen_physic_def/imu_data.h ****         error->reg_t_val = reg_t;
 1927              		.loc 2 100 9 is_stmt 1 view .LVU660
 100:common/gen_physic_def/imu_data.h ****         error->reg_t_val = reg_t;
 1928              		.loc 2 100 26 is_stmt 0 view .LVU661
 1929 038c 84F82F30 		strb	r3, [r4, #47]
 1930              		.loc 2 101 9 is_stmt 1 view .LVU662
 1931              		.loc 2 101 26 is_stmt 0 view .LVU663
 1932 0390 84F83030 		strb	r3, [r4, #48]
ARM GAS  C:\Users\8bit\AppData\Local\Temp\ccNZMjib.s 			page 54


 1933              	.L121:
 1934              	.LVL151:
 1935              		.loc 2 101 26 view .LVU664
 1936              	.LBE107:
 1937              	.LBE106:
 459:Device/Dev_ICM426xx.c ****     }
 1938              		.loc 1 459 9 is_stmt 1 view .LVU665
 459:Device/Dev_ICM426xx.c ****     }
 1939              		.loc 1 459 16 is_stmt 0 view .LVU666
 1940 0394 0020     		movs	r0, #0
 1941 0396 66E6     		b	.L84
 1942              	.L179:
 456:Device/Dev_ICM426xx.c ****     {
 1943              		.loc 1 456 9 discriminator 1 view .LVU667
 1944 0398 0DF10702 		add	r2, sp, #7
 1945 039c 0421     		movs	r1, #4
 1946 039e 2046     		mov	r0, r4
 1947 03a0 FFF7FEFF 		bl	DevICM426xx_Reg_Read
 1948              	.LVL152:
 455:Device/Dev_ICM426xx.c ****        !DevICM426xx_Reg_Read(sensor_obj, ICM426XX_RA_ACCEL_CONFIG_STATIC3, &read_out))
 1949              		.loc 1 455 121 discriminator 1 view .LVU668
 1950 03a4 0028     		cmp	r0, #0
 1951 03a6 E3D0     		beq	.L119
 462:Device/Dev_ICM426xx.c ****     {
 1952              		.loc 1 462 5 is_stmt 1 view .LVU669
 462:Device/Dev_ICM426xx.c ****     {
 1953              		.loc 1 462 17 is_stmt 0 view .LVU670
 1954 03a8 9DF80720 		ldrb	r2, [sp, #7]	@ zero_extendqisi2
 462:Device/Dev_ICM426xx.c ****     {
 1955              		.loc 1 462 48 view .LVU671
 1956 03ac 6B88     		ldrh	r3, [r5, #2]
 462:Device/Dev_ICM426xx.c ****     {
 1957              		.loc 1 462 57 view .LVU672
 1958 03ae A978     		ldrb	r1, [r5, #2]	@ zero_extendqisi2
 462:Device/Dev_ICM426xx.c ****     {
 1959              		.loc 1 462 7 view .LVU673
 1960 03b0 8A42     		cmp	r2, r1
 1961 03b2 14D0     		beq	.L122
 464:Device/Dev_ICM426xx.c ****                          aaf_tab[ICM426xx_AAF_258Hz].deltSqr & 0xFF);
 1962              		.loc 1 464 9 is_stmt 1 view .LVU674
 1963 03b4 DBB2     		uxtb	r3, r3
 1964              	.LVL153:
 1965              	.LBB108:
 1966              	.LBI108:
  91:common/gen_physic_def/imu_data.h **** {
 1967              		.loc 2 91 13 view .LVU675
 1968              	.LBB109:
  93:common/gen_physic_def/imu_data.h ****     {
 1969              		.loc 2 93 5 view .LVU676
  93:common/gen_physic_def/imu_data.h ****     {
 1970              		.loc 2 93 7 is_stmt 0 view .LVU677
 1971 03b6 14F1240F 		cmn	r4, #36
 1972 03ba 0ED0     		beq	.L123
  95:common/gen_physic_def/imu_data.h ****         error->function = (char *)func;
 1973              		.loc 2 95 9 is_stmt 1 view .LVU678
  95:common/gen_physic_def/imu_data.h ****         error->function = (char *)func;
 1974              		.loc 2 95 21 is_stmt 0 view .LVU679
ARM GAS  C:\Users\8bit\AppData\Local\Temp\ccNZMjib.s 			page 55


 1975 03bc 0521     		movs	r1, #5
 1976 03be 84F82410 		strb	r1, [r4, #36]
  96:common/gen_physic_def/imu_data.h ****         error->line = line;
 1977              		.loc 2 96 9 is_stmt 1 view .LVU680
  96:common/gen_physic_def/imu_data.h ****         error->line = line;
 1978              		.loc 2 96 25 is_stmt 0 view .LVU681
 1979 03c2 9D49     		ldr	r1, .L185
 1980 03c4 A162     		str	r1, [r4, #40]
  97:common/gen_physic_def/imu_data.h **** 
 1981              		.loc 2 97 9 is_stmt 1 view .LVU682
  97:common/gen_physic_def/imu_data.h **** 
 1982              		.loc 2 97 21 is_stmt 0 view .LVU683
 1983 03c6 4FF4E871 		mov	r1, #464
 1984 03ca A185     		strh	r1, [r4, #44]	@ movhi
  99:common/gen_physic_def/imu_data.h ****         error->reg_r_val = reg_r;
 1985              		.loc 2 99 9 is_stmt 1 view .LVU684
  99:common/gen_physic_def/imu_data.h ****         error->reg_r_val = reg_r;
 1986              		.loc 2 99 24 is_stmt 0 view .LVU685
 1987 03cc 0421     		movs	r1, #4
 1988 03ce 84F82E10 		strb	r1, [r4, #46]
 100:common/gen_physic_def/imu_data.h ****         error->reg_t_val = reg_t;
 1989              		.loc 2 100 9 is_stmt 1 view .LVU686
 100:common/gen_physic_def/imu_data.h ****         error->reg_t_val = reg_t;
 1990              		.loc 2 100 26 is_stmt 0 view .LVU687
 1991 03d2 84F82F20 		strb	r2, [r4, #47]
 1992              		.loc 2 101 9 is_stmt 1 view .LVU688
 1993              		.loc 2 101 26 is_stmt 0 view .LVU689
 1994 03d6 84F83030 		strb	r3, [r4, #48]
 1995              	.L123:
 1996              	.LVL154:
 1997              		.loc 2 101 26 view .LVU690
 1998              	.LBE109:
 1999              	.LBE108:
 466:Device/Dev_ICM426xx.c ****     }
 2000              		.loc 1 466 9 is_stmt 1 view .LVU691
 466:Device/Dev_ICM426xx.c ****     }
 2001              		.loc 1 466 16 is_stmt 0 view .LVU692
 2002 03da 0020     		movs	r0, #0
 2003 03dc 43E6     		b	.L84
 2004              	.L122:
 469:Device/Dev_ICM426xx.c ****        !DevICM426xx_Reg_Read(sensor_obj, ICM426XX_RA_ACCEL_CONFIG_STATIC4, &read_out))
 2005              		.loc 1 469 5 is_stmt 1 view .LVU693
 469:Device/Dev_ICM426xx.c ****        !DevICM426xx_Reg_Read(sensor_obj, ICM426XX_RA_ACCEL_CONFIG_STATIC4, &read_out))
 2006              		.loc 1 469 150 is_stmt 0 view .LVU694
 2007 03de 2A79     		ldrb	r2, [r5, #4]	@ zero_extendqisi2
 469:Device/Dev_ICM426xx.c ****        !DevICM426xx_Reg_Read(sensor_obj, ICM426XX_RA_ACCEL_CONFIG_STATIC4, &read_out))
 2008              		.loc 1 469 120 view .LVU695
 2009 03e0 1B0A     		lsrs	r3, r3, #8
 2010 03e2 43EA0212 		orr	r2, r3, r2, lsl #4
 469:Device/Dev_ICM426xx.c ****        !DevICM426xx_Reg_Read(sensor_obj, ICM426XX_RA_ACCEL_CONFIG_STATIC4, &read_out))
 2011              		.loc 1 469 9 view .LVU696
 2012 03e6 D2B2     		uxtb	r2, r2
 2013 03e8 0521     		movs	r1, #5
 2014 03ea 2046     		mov	r0, r4
 2015 03ec FFF7FEFF 		bl	DevICM426xx_Reg_Write
 2016              	.LVL155:
 469:Device/Dev_ICM426xx.c ****        !DevICM426xx_Reg_Read(sensor_obj, ICM426XX_RA_ACCEL_CONFIG_STATIC4, &read_out))
ARM GAS  C:\Users\8bit\AppData\Local\Temp\ccNZMjib.s 			page 56


 2017              		.loc 1 469 7 view .LVU697
 2018 03f0 98B9     		cbnz	r0, .L180
 2019              	.L124:
 472:Device/Dev_ICM426xx.c ****         return false;
 2020              		.loc 1 472 9 is_stmt 1 view .LVU698
 2021              	.LVL156:
 2022              	.LBB110:
 2023              	.LBI110:
  91:common/gen_physic_def/imu_data.h **** {
 2024              		.loc 2 91 13 view .LVU699
 2025              	.LBB111:
  93:common/gen_physic_def/imu_data.h ****     {
 2026              		.loc 2 93 5 view .LVU700
  93:common/gen_physic_def/imu_data.h ****     {
 2027              		.loc 2 93 7 is_stmt 0 view .LVU701
 2028 03f2 14F1240F 		cmn	r4, #36
 2029 03f6 0ED0     		beq	.L126
  95:common/gen_physic_def/imu_data.h ****         error->function = (char *)func;
 2030              		.loc 2 95 9 is_stmt 1 view .LVU702
  95:common/gen_physic_def/imu_data.h ****         error->function = (char *)func;
 2031              		.loc 2 95 21 is_stmt 0 view .LVU703
 2032 03f8 0723     		movs	r3, #7
 2033 03fa 84F82430 		strb	r3, [r4, #36]
  96:common/gen_physic_def/imu_data.h ****         error->line = line;
 2034              		.loc 2 96 9 is_stmt 1 view .LVU704
  96:common/gen_physic_def/imu_data.h ****         error->line = line;
 2035              		.loc 2 96 25 is_stmt 0 view .LVU705
 2036 03fe 8E4B     		ldr	r3, .L185
 2037 0400 A362     		str	r3, [r4, #40]
  97:common/gen_physic_def/imu_data.h **** 
 2038              		.loc 2 97 9 is_stmt 1 view .LVU706
  97:common/gen_physic_def/imu_data.h **** 
 2039              		.loc 2 97 21 is_stmt 0 view .LVU707
 2040 0402 4FF4EC73 		mov	r3, #472
 2041 0406 A385     		strh	r3, [r4, #44]	@ movhi
  99:common/gen_physic_def/imu_data.h ****         error->reg_r_val = reg_r;
 2042              		.loc 2 99 9 is_stmt 1 view .LVU708
  99:common/gen_physic_def/imu_data.h ****         error->reg_r_val = reg_r;
 2043              		.loc 2 99 24 is_stmt 0 view .LVU709
 2044 0408 0023     		movs	r3, #0
 2045 040a 84F82E30 		strb	r3, [r4, #46]
 100:common/gen_physic_def/imu_data.h ****         error->reg_t_val = reg_t;
 2046              		.loc 2 100 9 is_stmt 1 view .LVU710
 100:common/gen_physic_def/imu_data.h ****         error->reg_t_val = reg_t;
 2047              		.loc 2 100 26 is_stmt 0 view .LVU711
 2048 040e 84F82F30 		strb	r3, [r4, #47]
 2049              		.loc 2 101 9 is_stmt 1 view .LVU712
 2050              		.loc 2 101 26 is_stmt 0 view .LVU713
 2051 0412 84F83030 		strb	r3, [r4, #48]
 2052              	.L126:
 2053              	.LVL157:
 2054              		.loc 2 101 26 view .LVU714
 2055              	.LBE111:
 2056              	.LBE110:
 473:Device/Dev_ICM426xx.c ****     }
 2057              		.loc 1 473 9 is_stmt 1 view .LVU715
 473:Device/Dev_ICM426xx.c ****     }
ARM GAS  C:\Users\8bit\AppData\Local\Temp\ccNZMjib.s 			page 57


 2058              		.loc 1 473 16 is_stmt 0 view .LVU716
 2059 0416 0020     		movs	r0, #0
 2060 0418 25E6     		b	.L84
 2061              	.L180:
 470:Device/Dev_ICM426xx.c ****     {
 2062              		.loc 1 470 9 discriminator 1 view .LVU717
 2063 041a 0DF10702 		add	r2, sp, #7
 2064 041e 0521     		movs	r1, #5
 2065 0420 2046     		mov	r0, r4
 2066 0422 FFF7FEFF 		bl	DevICM426xx_Reg_Read
 2067              	.LVL158:
 469:Device/Dev_ICM426xx.c ****        !DevICM426xx_Reg_Read(sensor_obj, ICM426XX_RA_ACCEL_CONFIG_STATIC4, &read_out))
 2068              		.loc 1 469 167 discriminator 1 view .LVU718
 2069 0426 0028     		cmp	r0, #0
 2070 0428 E3D0     		beq	.L124
 476:Device/Dev_ICM426xx.c ****     {
 2071              		.loc 1 476 5 is_stmt 1 view .LVU719
 476:Device/Dev_ICM426xx.c ****     {
 2072              		.loc 1 476 17 is_stmt 0 view .LVU720
 2073 042a 9DF80700 		ldrb	r0, [sp, #7]	@ zero_extendqisi2
 476:Device/Dev_ICM426xx.c ****     {
 2074              		.loc 1 476 49 view .LVU721
 2075 042e 6988     		ldrh	r1, [r5, #2]
 476:Device/Dev_ICM426xx.c ****     {
 2076              		.loc 1 476 94 view .LVU722
 2077 0430 2A79     		ldrb	r2, [r5, #4]	@ zero_extendqisi2
 476:Device/Dev_ICM426xx.c ****     {
 2078              		.loc 1 476 104 view .LVU723
 2079 0432 1201     		lsls	r2, r2, #4
 476:Device/Dev_ICM426xx.c ****     {
 2080              		.loc 1 476 64 view .LVU724
 2081 0434 42EA1121 		orr	r1, r2, r1, lsr #8
 476:Device/Dev_ICM426xx.c ****     {
 2082              		.loc 1 476 7 view .LVU725
 2083 0438 8842     		cmp	r0, r1
 2084 043a 13D0     		beq	.L127
 478:Device/Dev_ICM426xx.c ****                          (aaf_tab[ICM426xx_AAF_258Hz].deltSqr >> 8) | (aaf_tab[ICM426xx_AAF_258Hz].
 2085              		.loc 1 478 9 is_stmt 1 view .LVU726
 2086 043c CBB2     		uxtb	r3, r1
 2087              	.LVL159:
 2088              	.LBB112:
 2089              	.LBI112:
  91:common/gen_physic_def/imu_data.h **** {
 2090              		.loc 2 91 13 view .LVU727
 2091              	.LBB113:
  93:common/gen_physic_def/imu_data.h ****     {
 2092              		.loc 2 93 5 view .LVU728
  93:common/gen_physic_def/imu_data.h ****     {
 2093              		.loc 2 93 7 is_stmt 0 view .LVU729
 2094 043e 14F1240F 		cmn	r4, #36
 2095 0442 0DD0     		beq	.L128
  95:common/gen_physic_def/imu_data.h ****         error->function = (char *)func;
 2096              		.loc 2 95 9 is_stmt 1 view .LVU730
  95:common/gen_physic_def/imu_data.h ****         error->function = (char *)func;
 2097              		.loc 2 95 21 is_stmt 0 view .LVU731
 2098 0444 0522     		movs	r2, #5
 2099 0446 84F82420 		strb	r2, [r4, #36]
ARM GAS  C:\Users\8bit\AppData\Local\Temp\ccNZMjib.s 			page 58


  96:common/gen_physic_def/imu_data.h ****         error->line = line;
 2100              		.loc 2 96 9 is_stmt 1 view .LVU732
  96:common/gen_physic_def/imu_data.h ****         error->line = line;
 2101              		.loc 2 96 25 is_stmt 0 view .LVU733
 2102 044a 7B49     		ldr	r1, .L185
 2103 044c A162     		str	r1, [r4, #40]
  97:common/gen_physic_def/imu_data.h **** 
 2104              		.loc 2 97 9 is_stmt 1 view .LVU734
  97:common/gen_physic_def/imu_data.h **** 
 2105              		.loc 2 97 21 is_stmt 0 view .LVU735
 2106 044e 4FF4EF71 		mov	r1, #478
 2107 0452 A185     		strh	r1, [r4, #44]	@ movhi
  99:common/gen_physic_def/imu_data.h ****         error->reg_r_val = reg_r;
 2108              		.loc 2 99 9 is_stmt 1 view .LVU736
  99:common/gen_physic_def/imu_data.h ****         error->reg_r_val = reg_r;
 2109              		.loc 2 99 24 is_stmt 0 view .LVU737
 2110 0454 84F82E20 		strb	r2, [r4, #46]
 100:common/gen_physic_def/imu_data.h ****         error->reg_t_val = reg_t;
 2111              		.loc 2 100 9 is_stmt 1 view .LVU738
 100:common/gen_physic_def/imu_data.h ****         error->reg_t_val = reg_t;
 2112              		.loc 2 100 26 is_stmt 0 view .LVU739
 2113 0458 84F82F00 		strb	r0, [r4, #47]
 2114              		.loc 2 101 9 is_stmt 1 view .LVU740
 2115              		.loc 2 101 26 is_stmt 0 view .LVU741
 2116 045c 84F83030 		strb	r3, [r4, #48]
 2117              	.L128:
 2118              	.LVL160:
 2119              		.loc 2 101 26 view .LVU742
 2120              	.LBE113:
 2121              	.LBE112:
 480:Device/Dev_ICM426xx.c ****     }
 2122              		.loc 1 480 9 is_stmt 1 view .LVU743
 480:Device/Dev_ICM426xx.c ****     }
 2123              		.loc 1 480 16 is_stmt 0 view .LVU744
 2124 0460 0020     		movs	r0, #0
 2125 0462 00E6     		b	.L84
 2126              	.L127:
 484:Device/Dev_ICM426xx.c ****     {
 2127              		.loc 1 484 5 is_stmt 1 view .LVU745
 484:Device/Dev_ICM426xx.c ****     {
 2128              		.loc 1 484 9 is_stmt 0 view .LVU746
 2129 0464 0021     		movs	r1, #0
 2130 0466 2046     		mov	r0, r4
 2131 0468 FFF7FEFF 		bl	DevICM426xx_SetUserBank
 2132              	.LVL161:
 484:Device/Dev_ICM426xx.c ****     {
 2133              		.loc 1 484 7 view .LVU747
 2134 046c 98B9     		cbnz	r0, .L129
 486:Device/Dev_ICM426xx.c ****         return false;
 2135              		.loc 1 486 9 is_stmt 1 view .LVU748
 2136              	.LVL162:
 2137              	.LBB114:
 2138              	.LBI114:
  91:common/gen_physic_def/imu_data.h **** {
 2139              		.loc 2 91 13 view .LVU749
 2140              	.LBB115:
  93:common/gen_physic_def/imu_data.h ****     {
ARM GAS  C:\Users\8bit\AppData\Local\Temp\ccNZMjib.s 			page 59


 2141              		.loc 2 93 5 view .LVU750
  93:common/gen_physic_def/imu_data.h ****     {
 2142              		.loc 2 93 7 is_stmt 0 view .LVU751
 2143 046e 14F1240F 		cmn	r4, #36
 2144 0472 3FF4F8AD 		beq	.L84
  95:common/gen_physic_def/imu_data.h ****         error->function = (char *)func;
 2145              		.loc 2 95 9 is_stmt 1 view .LVU752
  95:common/gen_physic_def/imu_data.h ****         error->function = (char *)func;
 2146              		.loc 2 95 21 is_stmt 0 view .LVU753
 2147 0476 0723     		movs	r3, #7
 2148 0478 84F82430 		strb	r3, [r4, #36]
  96:common/gen_physic_def/imu_data.h ****         error->line = line;
 2149              		.loc 2 96 9 is_stmt 1 view .LVU754
  96:common/gen_physic_def/imu_data.h ****         error->line = line;
 2150              		.loc 2 96 25 is_stmt 0 view .LVU755
 2151 047c 6E4B     		ldr	r3, .L185
 2152 047e A362     		str	r3, [r4, #40]
  97:common/gen_physic_def/imu_data.h **** 
 2153              		.loc 2 97 9 is_stmt 1 view .LVU756
  97:common/gen_physic_def/imu_data.h **** 
 2154              		.loc 2 97 21 is_stmt 0 view .LVU757
 2155 0480 4FF4F373 		mov	r3, #486
 2156 0484 A385     		strh	r3, [r4, #44]	@ movhi
  99:common/gen_physic_def/imu_data.h ****         error->reg_r_val = reg_r;
 2157              		.loc 2 99 9 is_stmt 1 view .LVU758
  99:common/gen_physic_def/imu_data.h ****         error->reg_r_val = reg_r;
 2158              		.loc 2 99 24 is_stmt 0 view .LVU759
 2159 0486 0023     		movs	r3, #0
 2160 0488 84F82E30 		strb	r3, [r4, #46]
 100:common/gen_physic_def/imu_data.h ****         error->reg_t_val = reg_t;
 2161              		.loc 2 100 9 is_stmt 1 view .LVU760
 100:common/gen_physic_def/imu_data.h ****         error->reg_t_val = reg_t;
 2162              		.loc 2 100 26 is_stmt 0 view .LVU761
 2163 048c 84F82F30 		strb	r3, [r4, #47]
 2164              		.loc 2 101 9 is_stmt 1 view .LVU762
 2165              		.loc 2 101 26 is_stmt 0 view .LVU763
 2166 0490 84F83030 		strb	r3, [r4, #48]
 2167              	.LVL163:
 2168              		.loc 2 101 26 view .LVU764
 2169              	.LBE115:
 2170              	.LBE114:
 487:Device/Dev_ICM426xx.c ****     }
 2171              		.loc 1 487 9 is_stmt 1 view .LVU765
 487:Device/Dev_ICM426xx.c ****     }
 2172              		.loc 1 487 16 is_stmt 0 view .LVU766
 2173 0494 E7E5     		b	.L84
 2174              	.L129:
 490:Device/Dev_ICM426xx.c ****        !DevICM426xx_Reg_Read(sensor_obj, ICM426XX_RA_GYRO_ACCEL_CONFIG0, &read_out))
 2175              		.loc 1 490 5 is_stmt 1 view .LVU767
 490:Device/Dev_ICM426xx.c ****        !DevICM426xx_Reg_Read(sensor_obj, ICM426XX_RA_GYRO_ACCEL_CONFIG0, &read_out))
 2176              		.loc 1 490 9 is_stmt 0 view .LVU768
 2177 0496 FF22     		movs	r2, #255
 2178 0498 5221     		movs	r1, #82
 2179 049a 2046     		mov	r0, r4
 2180 049c FFF7FEFF 		bl	DevICM426xx_Reg_Write
 2181              	.LVL164:
 490:Device/Dev_ICM426xx.c ****        !DevICM426xx_Reg_Read(sensor_obj, ICM426XX_RA_GYRO_ACCEL_CONFIG0, &read_out))
ARM GAS  C:\Users\8bit\AppData\Local\Temp\ccNZMjib.s 			page 60


 2182              		.loc 1 490 7 view .LVU769
 2183 04a0 98B9     		cbnz	r0, .L181
 2184              	.L131:
 493:Device/Dev_ICM426xx.c ****         return false;
 2185              		.loc 1 493 9 is_stmt 1 view .LVU770
 2186              	.LVL165:
 2187              	.LBB116:
 2188              	.LBI116:
  91:common/gen_physic_def/imu_data.h **** {
 2189              		.loc 2 91 13 view .LVU771
 2190              	.LBB117:
  93:common/gen_physic_def/imu_data.h ****     {
 2191              		.loc 2 93 5 view .LVU772
  93:common/gen_physic_def/imu_data.h ****     {
 2192              		.loc 2 93 7 is_stmt 0 view .LVU773
 2193 04a2 14F1240F 		cmn	r4, #36
 2194 04a6 0ED0     		beq	.L133
  95:common/gen_physic_def/imu_data.h ****         error->function = (char *)func;
 2195              		.loc 2 95 9 is_stmt 1 view .LVU774
  95:common/gen_physic_def/imu_data.h ****         error->function = (char *)func;
 2196              		.loc 2 95 21 is_stmt 0 view .LVU775
 2197 04a8 0723     		movs	r3, #7
 2198 04aa 84F82430 		strb	r3, [r4, #36]
  96:common/gen_physic_def/imu_data.h ****         error->line = line;
 2199              		.loc 2 96 9 is_stmt 1 view .LVU776
  96:common/gen_physic_def/imu_data.h ****         error->line = line;
 2200              		.loc 2 96 25 is_stmt 0 view .LVU777
 2201 04ae 624B     		ldr	r3, .L185
 2202 04b0 A362     		str	r3, [r4, #40]
  97:common/gen_physic_def/imu_data.h **** 
 2203              		.loc 2 97 9 is_stmt 1 view .LVU778
  97:common/gen_physic_def/imu_data.h **** 
 2204              		.loc 2 97 21 is_stmt 0 view .LVU779
 2205 04b2 40F2ED13 		movw	r3, #493
 2206 04b6 A385     		strh	r3, [r4, #44]	@ movhi
  99:common/gen_physic_def/imu_data.h ****         error->reg_r_val = reg_r;
 2207              		.loc 2 99 9 is_stmt 1 view .LVU780
  99:common/gen_physic_def/imu_data.h ****         error->reg_r_val = reg_r;
 2208              		.loc 2 99 24 is_stmt 0 view .LVU781
 2209 04b8 0023     		movs	r3, #0
 2210 04ba 84F82E30 		strb	r3, [r4, #46]
 100:common/gen_physic_def/imu_data.h ****         error->reg_t_val = reg_t;
 2211              		.loc 2 100 9 is_stmt 1 view .LVU782
 100:common/gen_physic_def/imu_data.h ****         error->reg_t_val = reg_t;
 2212              		.loc 2 100 26 is_stmt 0 view .LVU783
 2213 04be 84F82F30 		strb	r3, [r4, #47]
 2214              		.loc 2 101 9 is_stmt 1 view .LVU784
 2215              		.loc 2 101 26 is_stmt 0 view .LVU785
 2216 04c2 84F83030 		strb	r3, [r4, #48]
 2217              	.L133:
 2218              	.LVL166:
 2219              		.loc 2 101 26 view .LVU786
 2220              	.LBE117:
 2221              	.LBE116:
 494:Device/Dev_ICM426xx.c ****     }
 2222              		.loc 1 494 9 is_stmt 1 view .LVU787
 494:Device/Dev_ICM426xx.c ****     }
ARM GAS  C:\Users\8bit\AppData\Local\Temp\ccNZMjib.s 			page 61


 2223              		.loc 1 494 16 is_stmt 0 view .LVU788
 2224 04c6 0020     		movs	r0, #0
 2225 04c8 CDE5     		b	.L84
 2226              	.L181:
 491:Device/Dev_ICM426xx.c ****     {
 2227              		.loc 1 491 9 discriminator 1 view .LVU789
 2228 04ca 0DF10702 		add	r2, sp, #7
 2229 04ce 5221     		movs	r1, #82
 2230 04d0 2046     		mov	r0, r4
 2231 04d2 FFF7FEFF 		bl	DevICM426xx_Reg_Read
 2232              	.LVL167:
 490:Device/Dev_ICM426xx.c ****        !DevICM426xx_Reg_Read(sensor_obj, ICM426XX_RA_GYRO_ACCEL_CONFIG0, &read_out))
 2233              		.loc 1 490 153 discriminator 1 view .LVU790
 2234 04d6 0028     		cmp	r0, #0
 2235 04d8 E3D0     		beq	.L131
 497:Device/Dev_ICM426xx.c ****     {
 2236              		.loc 1 497 5 is_stmt 1 view .LVU791
 497:Device/Dev_ICM426xx.c ****     {
 2237              		.loc 1 497 17 is_stmt 0 view .LVU792
 2238 04da 9DF80730 		ldrb	r3, [sp, #7]	@ zero_extendqisi2
 497:Device/Dev_ICM426xx.c ****     {
 2239              		.loc 1 497 7 view .LVU793
 2240 04de FF2B     		cmp	r3, #255
 2241 04e0 14D0     		beq	.L134
 499:Device/Dev_ICM426xx.c ****                          ICM426XX_ACCEL_UI_FILT_BW_LOW_LATENCY | ICM426XX_GYRO_UI_FILT_BW_LOW_LATEN
 2242              		.loc 1 499 9 is_stmt 1 view .LVU794
 2243              	.LVL168:
 2244              	.LBB118:
 2245              	.LBI118:
  91:common/gen_physic_def/imu_data.h **** {
 2246              		.loc 2 91 13 view .LVU795
 2247              	.LBB119:
  93:common/gen_physic_def/imu_data.h ****     {
 2248              		.loc 2 93 5 view .LVU796
  93:common/gen_physic_def/imu_data.h ****     {
 2249              		.loc 2 93 7 is_stmt 0 view .LVU797
 2250 04e2 14F1240F 		cmn	r4, #36
 2251 04e6 0FD0     		beq	.L135
  95:common/gen_physic_def/imu_data.h ****         error->function = (char *)func;
 2252              		.loc 2 95 9 is_stmt 1 view .LVU798
  95:common/gen_physic_def/imu_data.h ****         error->function = (char *)func;
 2253              		.loc 2 95 21 is_stmt 0 view .LVU799
 2254 04e8 0322     		movs	r2, #3
 2255 04ea 84F82420 		strb	r2, [r4, #36]
  96:common/gen_physic_def/imu_data.h ****         error->line = line;
 2256              		.loc 2 96 9 is_stmt 1 view .LVU800
  96:common/gen_physic_def/imu_data.h ****         error->line = line;
 2257              		.loc 2 96 25 is_stmt 0 view .LVU801
 2258 04ee 524A     		ldr	r2, .L185
 2259 04f0 A262     		str	r2, [r4, #40]
  97:common/gen_physic_def/imu_data.h **** 
 2260              		.loc 2 97 9 is_stmt 1 view .LVU802
  97:common/gen_physic_def/imu_data.h **** 
 2261              		.loc 2 97 21 is_stmt 0 view .LVU803
 2262 04f2 40F2F312 		movw	r2, #499
 2263 04f6 A285     		strh	r2, [r4, #44]	@ movhi
  99:common/gen_physic_def/imu_data.h ****         error->reg_r_val = reg_r;
ARM GAS  C:\Users\8bit\AppData\Local\Temp\ccNZMjib.s 			page 62


 2264              		.loc 2 99 9 is_stmt 1 view .LVU804
  99:common/gen_physic_def/imu_data.h ****         error->reg_r_val = reg_r;
 2265              		.loc 2 99 24 is_stmt 0 view .LVU805
 2266 04f8 5222     		movs	r2, #82
 2267 04fa 84F82E20 		strb	r2, [r4, #46]
 100:common/gen_physic_def/imu_data.h ****         error->reg_t_val = reg_t;
 2268              		.loc 2 100 9 is_stmt 1 view .LVU806
 100:common/gen_physic_def/imu_data.h ****         error->reg_t_val = reg_t;
 2269              		.loc 2 100 26 is_stmt 0 view .LVU807
 2270 04fe 84F82F30 		strb	r3, [r4, #47]
 2271              		.loc 2 101 9 is_stmt 1 view .LVU808
 2272              		.loc 2 101 26 is_stmt 0 view .LVU809
 2273 0502 FF23     		movs	r3, #255
 2274              	.LVL169:
 2275              		.loc 2 101 26 view .LVU810
 2276 0504 84F83030 		strb	r3, [r4, #48]
 2277              	.LVL170:
 2278              	.L135:
 2279              		.loc 2 101 26 view .LVU811
 2280              	.LBE119:
 2281              	.LBE118:
 501:Device/Dev_ICM426xx.c ****     }
 2282              		.loc 1 501 9 is_stmt 1 view .LVU812
 501:Device/Dev_ICM426xx.c ****     }
 2283              		.loc 1 501 16 is_stmt 0 view .LVU813
 2284 0508 0020     		movs	r0, #0
 2285 050a ACE5     		b	.L84
 2286              	.L134:
 505:Device/Dev_ICM426xx.c ****        !DevICM426xx_Reg_Read(sensor_obj, ICM426XX_RA_INT_CONFIG, &read_out))
 2287              		.loc 1 505 5 is_stmt 1 view .LVU814
 505:Device/Dev_ICM426xx.c ****        !DevICM426xx_Reg_Read(sensor_obj, ICM426XX_RA_INT_CONFIG, &read_out))
 2288              		.loc 1 505 9 is_stmt 0 view .LVU815
 2289 050c 0322     		movs	r2, #3
 2290 050e 1421     		movs	r1, #20
 2291 0510 2046     		mov	r0, r4
 2292 0512 FFF7FEFF 		bl	DevICM426xx_Reg_Write
 2293              	.LVL171:
 505:Device/Dev_ICM426xx.c ****        !DevICM426xx_Reg_Read(sensor_obj, ICM426XX_RA_INT_CONFIG, &read_out))
 2294              		.loc 1 505 7 view .LVU816
 2295 0516 98B9     		cbnz	r0, .L182
 2296              	.L136:
 508:Device/Dev_ICM426xx.c ****         return false;
 2297              		.loc 1 508 9 is_stmt 1 view .LVU817
 2298              	.LVL172:
 2299              	.LBB120:
 2300              	.LBI120:
  91:common/gen_physic_def/imu_data.h **** {
 2301              		.loc 2 91 13 view .LVU818
 2302              	.LBB121:
  93:common/gen_physic_def/imu_data.h ****     {
 2303              		.loc 2 93 5 view .LVU819
  93:common/gen_physic_def/imu_data.h ****     {
 2304              		.loc 2 93 7 is_stmt 0 view .LVU820
 2305 0518 14F1240F 		cmn	r4, #36
 2306 051c 0ED0     		beq	.L138
  95:common/gen_physic_def/imu_data.h ****         error->function = (char *)func;
 2307              		.loc 2 95 9 is_stmt 1 view .LVU821
ARM GAS  C:\Users\8bit\AppData\Local\Temp\ccNZMjib.s 			page 63


  95:common/gen_physic_def/imu_data.h ****         error->function = (char *)func;
 2308              		.loc 2 95 21 is_stmt 0 view .LVU822
 2309 051e 0723     		movs	r3, #7
 2310 0520 84F82430 		strb	r3, [r4, #36]
  96:common/gen_physic_def/imu_data.h ****         error->line = line;
 2311              		.loc 2 96 9 is_stmt 1 view .LVU823
  96:common/gen_physic_def/imu_data.h ****         error->line = line;
 2312              		.loc 2 96 25 is_stmt 0 view .LVU824
 2313 0524 444B     		ldr	r3, .L185
 2314 0526 A362     		str	r3, [r4, #40]
  97:common/gen_physic_def/imu_data.h **** 
 2315              		.loc 2 97 9 is_stmt 1 view .LVU825
  97:common/gen_physic_def/imu_data.h **** 
 2316              		.loc 2 97 21 is_stmt 0 view .LVU826
 2317 0528 4FF4FE73 		mov	r3, #508
 2318 052c A385     		strh	r3, [r4, #44]	@ movhi
  99:common/gen_physic_def/imu_data.h ****         error->reg_r_val = reg_r;
 2319              		.loc 2 99 9 is_stmt 1 view .LVU827
  99:common/gen_physic_def/imu_data.h ****         error->reg_r_val = reg_r;
 2320              		.loc 2 99 24 is_stmt 0 view .LVU828
 2321 052e 0023     		movs	r3, #0
 2322 0530 84F82E30 		strb	r3, [r4, #46]
 100:common/gen_physic_def/imu_data.h ****         error->reg_t_val = reg_t;
 2323              		.loc 2 100 9 is_stmt 1 view .LVU829
 100:common/gen_physic_def/imu_data.h ****         error->reg_t_val = reg_t;
 2324              		.loc 2 100 26 is_stmt 0 view .LVU830
 2325 0534 84F82F30 		strb	r3, [r4, #47]
 2326              		.loc 2 101 9 is_stmt 1 view .LVU831
 2327              		.loc 2 101 26 is_stmt 0 view .LVU832
 2328 0538 84F83030 		strb	r3, [r4, #48]
 2329              	.L138:
 2330              	.LVL173:
 2331              		.loc 2 101 26 view .LVU833
 2332              	.LBE121:
 2333              	.LBE120:
 509:Device/Dev_ICM426xx.c ****     }
 2334              		.loc 1 509 9 is_stmt 1 view .LVU834
 509:Device/Dev_ICM426xx.c ****     }
 2335              		.loc 1 509 16 is_stmt 0 view .LVU835
 2336 053c 0020     		movs	r0, #0
 2337 053e 92E5     		b	.L84
 2338              	.L182:
 506:Device/Dev_ICM426xx.c ****     {
 2339              		.loc 1 506 9 discriminator 1 view .LVU836
 2340 0540 0DF10702 		add	r2, sp, #7
 2341 0544 1421     		movs	r1, #20
 2342 0546 2046     		mov	r0, r4
 2343 0548 FFF7FEFF 		bl	DevICM426xx_Reg_Read
 2344              	.LVL174:
 505:Device/Dev_ICM426xx.c ****        !DevICM426xx_Reg_Read(sensor_obj, ICM426XX_RA_INT_CONFIG, &read_out))
 2345              		.loc 1 505 164 discriminator 1 view .LVU837
 2346 054c 0028     		cmp	r0, #0
 2347 054e E3D0     		beq	.L136
 512:Device/Dev_ICM426xx.c ****     {
 2348              		.loc 1 512 5 is_stmt 1 view .LVU838
 512:Device/Dev_ICM426xx.c ****     {
 2349              		.loc 1 512 17 is_stmt 0 view .LVU839
ARM GAS  C:\Users\8bit\AppData\Local\Temp\ccNZMjib.s 			page 64


 2350 0550 9DF80730 		ldrb	r3, [sp, #7]	@ zero_extendqisi2
 512:Device/Dev_ICM426xx.c ****     {
 2351              		.loc 1 512 7 view .LVU840
 2352 0554 032B     		cmp	r3, #3
 2353 0556 14D0     		beq	.L139
 514:Device/Dev_ICM426xx.c ****                          ICM426XX_INT1_MODE_PULSED | ICM426XX_INT1_DRIVE_CIRCUIT_PP | ICM426XX_INT1
 2354              		.loc 1 514 9 is_stmt 1 view .LVU841
 2355              	.LVL175:
 2356              	.LBB122:
 2357              	.LBI122:
  91:common/gen_physic_def/imu_data.h **** {
 2358              		.loc 2 91 13 view .LVU842
 2359              	.LBB123:
  93:common/gen_physic_def/imu_data.h ****     {
 2360              		.loc 2 93 5 view .LVU843
  93:common/gen_physic_def/imu_data.h ****     {
 2361              		.loc 2 93 7 is_stmt 0 view .LVU844
 2362 0558 14F1240F 		cmn	r4, #36
 2363 055c 0FD0     		beq	.L140
  95:common/gen_physic_def/imu_data.h ****         error->function = (char *)func;
 2364              		.loc 2 95 9 is_stmt 1 view .LVU845
  95:common/gen_physic_def/imu_data.h ****         error->function = (char *)func;
 2365              		.loc 2 95 21 is_stmt 0 view .LVU846
 2366 055e 0422     		movs	r2, #4
 2367 0560 84F82420 		strb	r2, [r4, #36]
  96:common/gen_physic_def/imu_data.h ****         error->line = line;
 2368              		.loc 2 96 9 is_stmt 1 view .LVU847
  96:common/gen_physic_def/imu_data.h ****         error->line = line;
 2369              		.loc 2 96 25 is_stmt 0 view .LVU848
 2370 0564 344A     		ldr	r2, .L185
 2371 0566 A262     		str	r2, [r4, #40]
  97:common/gen_physic_def/imu_data.h **** 
 2372              		.loc 2 97 9 is_stmt 1 view .LVU849
  97:common/gen_physic_def/imu_data.h **** 
 2373              		.loc 2 97 21 is_stmt 0 view .LVU850
 2374 0568 40F20222 		movw	r2, #514
 2375 056c A285     		strh	r2, [r4, #44]	@ movhi
  99:common/gen_physic_def/imu_data.h ****         error->reg_r_val = reg_r;
 2376              		.loc 2 99 9 is_stmt 1 view .LVU851
  99:common/gen_physic_def/imu_data.h ****         error->reg_r_val = reg_r;
 2377              		.loc 2 99 24 is_stmt 0 view .LVU852
 2378 056e 1422     		movs	r2, #20
 2379 0570 84F82E20 		strb	r2, [r4, #46]
 100:common/gen_physic_def/imu_data.h ****         error->reg_t_val = reg_t;
 2380              		.loc 2 100 9 is_stmt 1 view .LVU853
 100:common/gen_physic_def/imu_data.h ****         error->reg_t_val = reg_t;
 2381              		.loc 2 100 26 is_stmt 0 view .LVU854
 2382 0574 84F82F30 		strb	r3, [r4, #47]
 2383              		.loc 2 101 9 is_stmt 1 view .LVU855
 2384              		.loc 2 101 26 is_stmt 0 view .LVU856
 2385 0578 0323     		movs	r3, #3
 2386              	.LVL176:
 2387              		.loc 2 101 26 view .LVU857
 2388 057a 84F83030 		strb	r3, [r4, #48]
 2389              	.LVL177:
 2390              	.L140:
 2391              		.loc 2 101 26 view .LVU858
ARM GAS  C:\Users\8bit\AppData\Local\Temp\ccNZMjib.s 			page 65


 2392              	.LBE123:
 2393              	.LBE122:
 516:Device/Dev_ICM426xx.c ****     }
 2394              		.loc 1 516 9 is_stmt 1 view .LVU859
 516:Device/Dev_ICM426xx.c ****     }
 2395              		.loc 1 516 16 is_stmt 0 view .LVU860
 2396 057e 0020     		movs	r0, #0
 2397 0580 71E5     		b	.L84
 2398              	.L139:
 519:Device/Dev_ICM426xx.c ****        !DevICM426xx_Reg_Read(sensor_obj, ICM426XX_RA_INT_CONFIG0, &read_out))
 2399              		.loc 1 519 5 is_stmt 1 view .LVU861
 519:Device/Dev_ICM426xx.c ****        !DevICM426xx_Reg_Read(sensor_obj, ICM426XX_RA_INT_CONFIG0, &read_out))
 2400              		.loc 1 519 9 is_stmt 0 view .LVU862
 2401 0582 0022     		movs	r2, #0
 2402 0584 6321     		movs	r1, #99
 2403 0586 2046     		mov	r0, r4
 2404 0588 FFF7FEFF 		bl	DevICM426xx_Reg_Write
 2405              	.LVL178:
 519:Device/Dev_ICM426xx.c ****        !DevICM426xx_Reg_Read(sensor_obj, ICM426XX_RA_INT_CONFIG0, &read_out))
 2406              		.loc 1 519 7 view .LVU863
 2407 058c 30B1     		cbz	r0, .L141
 520:Device/Dev_ICM426xx.c ****     {
 2408              		.loc 1 520 9 discriminator 1 view .LVU864
 2409 058e 0DF10702 		add	r2, sp, #7
 2410 0592 6321     		movs	r1, #99
 2411 0594 2046     		mov	r0, r4
 2412 0596 FFF7FEFF 		bl	DevICM426xx_Reg_Read
 2413              	.LVL179:
 519:Device/Dev_ICM426xx.c ****        !DevICM426xx_Reg_Read(sensor_obj, ICM426XX_RA_INT_CONFIG0, &read_out))
 2414              		.loc 1 519 103 discriminator 1 view .LVU865
 2415 059a 98B9     		cbnz	r0, .L142
 2416              	.L141:
 522:Device/Dev_ICM426xx.c ****         return false;
 2417              		.loc 1 522 9 is_stmt 1 view .LVU866
 2418              	.LVL180:
 2419              	.LBB124:
 2420              	.LBI124:
  91:common/gen_physic_def/imu_data.h **** {
 2421              		.loc 2 91 13 view .LVU867
 2422              	.LBB125:
  93:common/gen_physic_def/imu_data.h ****     {
 2423              		.loc 2 93 5 view .LVU868
  93:common/gen_physic_def/imu_data.h ****     {
 2424              		.loc 2 93 7 is_stmt 0 view .LVU869
 2425 059c 14F1240F 		cmn	r4, #36
 2426 05a0 0ED0     		beq	.L143
  95:common/gen_physic_def/imu_data.h ****         error->function = (char *)func;
 2427              		.loc 2 95 9 is_stmt 1 view .LVU870
  95:common/gen_physic_def/imu_data.h ****         error->function = (char *)func;
 2428              		.loc 2 95 21 is_stmt 0 view .LVU871
 2429 05a2 0723     		movs	r3, #7
 2430 05a4 84F82430 		strb	r3, [r4, #36]
  96:common/gen_physic_def/imu_data.h ****         error->line = line;
 2431              		.loc 2 96 9 is_stmt 1 view .LVU872
  96:common/gen_physic_def/imu_data.h ****         error->line = line;
 2432              		.loc 2 96 25 is_stmt 0 view .LVU873
 2433 05a8 234B     		ldr	r3, .L185
ARM GAS  C:\Users\8bit\AppData\Local\Temp\ccNZMjib.s 			page 66


 2434 05aa A362     		str	r3, [r4, #40]
  97:common/gen_physic_def/imu_data.h **** 
 2435              		.loc 2 97 9 is_stmt 1 view .LVU874
  97:common/gen_physic_def/imu_data.h **** 
 2436              		.loc 2 97 21 is_stmt 0 view .LVU875
 2437 05ac 40F20A23 		movw	r3, #522
 2438 05b0 A385     		strh	r3, [r4, #44]	@ movhi
  99:common/gen_physic_def/imu_data.h ****         error->reg_r_val = reg_r;
 2439              		.loc 2 99 9 is_stmt 1 view .LVU876
  99:common/gen_physic_def/imu_data.h ****         error->reg_r_val = reg_r;
 2440              		.loc 2 99 24 is_stmt 0 view .LVU877
 2441 05b2 0023     		movs	r3, #0
 2442 05b4 84F82E30 		strb	r3, [r4, #46]
 100:common/gen_physic_def/imu_data.h ****         error->reg_t_val = reg_t;
 2443              		.loc 2 100 9 is_stmt 1 view .LVU878
 100:common/gen_physic_def/imu_data.h ****         error->reg_t_val = reg_t;
 2444              		.loc 2 100 26 is_stmt 0 view .LVU879
 2445 05b8 84F82F30 		strb	r3, [r4, #47]
 2446              		.loc 2 101 9 is_stmt 1 view .LVU880
 2447              		.loc 2 101 26 is_stmt 0 view .LVU881
 2448 05bc 84F83030 		strb	r3, [r4, #48]
 2449              	.L143:
 2450              	.LVL181:
 2451              		.loc 2 101 26 view .LVU882
 2452              	.LBE125:
 2453              	.LBE124:
 523:Device/Dev_ICM426xx.c ****     }
 2454              		.loc 1 523 9 is_stmt 1 view .LVU883
 523:Device/Dev_ICM426xx.c ****     }
 2455              		.loc 1 523 16 is_stmt 0 view .LVU884
 2456 05c0 0020     		movs	r0, #0
 2457 05c2 50E5     		b	.L84
 2458              	.L142:
 526:Device/Dev_ICM426xx.c ****     {
 2459              		.loc 1 526 5 is_stmt 1 view .LVU885
 526:Device/Dev_ICM426xx.c ****     {
 2460              		.loc 1 526 17 is_stmt 0 view .LVU886
 2461 05c4 9DF80730 		ldrb	r3, [sp, #7]	@ zero_extendqisi2
 526:Device/Dev_ICM426xx.c ****     {
 2462              		.loc 1 526 7 view .LVU887
 2463 05c8 A3B1     		cbz	r3, .L144
 528:Device/Dev_ICM426xx.c ****         return false;
 2464              		.loc 1 528 9 is_stmt 1 view .LVU888
 2465              	.LVL182:
 2466              	.LBB126:
 2467              	.LBI126:
  91:common/gen_physic_def/imu_data.h **** {
 2468              		.loc 2 91 13 view .LVU889
 2469              	.LBB127:
  93:common/gen_physic_def/imu_data.h ****     {
 2470              		.loc 2 93 5 view .LVU890
  93:common/gen_physic_def/imu_data.h ****     {
 2471              		.loc 2 93 7 is_stmt 0 view .LVU891
 2472 05ca 14F1240F 		cmn	r4, #36
 2473 05ce 0FD0     		beq	.L145
  95:common/gen_physic_def/imu_data.h ****         error->function = (char *)func;
 2474              		.loc 2 95 9 is_stmt 1 view .LVU892
ARM GAS  C:\Users\8bit\AppData\Local\Temp\ccNZMjib.s 			page 67


  95:common/gen_physic_def/imu_data.h ****         error->function = (char *)func;
 2475              		.loc 2 95 21 is_stmt 0 view .LVU893
 2476 05d0 0422     		movs	r2, #4
 2477 05d2 84F82420 		strb	r2, [r4, #36]
  96:common/gen_physic_def/imu_data.h ****         error->line = line;
 2478              		.loc 2 96 9 is_stmt 1 view .LVU894
  96:common/gen_physic_def/imu_data.h ****         error->line = line;
 2479              		.loc 2 96 25 is_stmt 0 view .LVU895
 2480 05d6 184A     		ldr	r2, .L185
 2481 05d8 A262     		str	r2, [r4, #40]
  97:common/gen_physic_def/imu_data.h **** 
 2482              		.loc 2 97 9 is_stmt 1 view .LVU896
  97:common/gen_physic_def/imu_data.h **** 
 2483              		.loc 2 97 21 is_stmt 0 view .LVU897
 2484 05da 4FF40472 		mov	r2, #528
 2485 05de A285     		strh	r2, [r4, #44]	@ movhi
  99:common/gen_physic_def/imu_data.h ****         error->reg_r_val = reg_r;
 2486              		.loc 2 99 9 is_stmt 1 view .LVU898
  99:common/gen_physic_def/imu_data.h ****         error->reg_r_val = reg_r;
 2487              		.loc 2 99 24 is_stmt 0 view .LVU899
 2488 05e0 6322     		movs	r2, #99
 2489 05e2 84F82E20 		strb	r2, [r4, #46]
 100:common/gen_physic_def/imu_data.h ****         error->reg_t_val = reg_t;
 2490              		.loc 2 100 9 is_stmt 1 view .LVU900
 100:common/gen_physic_def/imu_data.h ****         error->reg_t_val = reg_t;
 2491              		.loc 2 100 26 is_stmt 0 view .LVU901
 2492 05e6 84F82F30 		strb	r3, [r4, #47]
 2493              		.loc 2 101 9 is_stmt 1 view .LVU902
 2494              		.loc 2 101 26 is_stmt 0 view .LVU903
 2495 05ea 0023     		movs	r3, #0
 2496              	.LVL183:
 2497              		.loc 2 101 26 view .LVU904
 2498 05ec 84F83030 		strb	r3, [r4, #48]
 2499              	.LVL184:
 2500              	.L145:
 2501              		.loc 2 101 26 view .LVU905
 2502              	.LBE127:
 2503              	.LBE126:
 529:Device/Dev_ICM426xx.c ****     }
 2504              		.loc 1 529 9 is_stmt 1 view .LVU906
 529:Device/Dev_ICM426xx.c ****     }
 2505              		.loc 1 529 16 is_stmt 0 view .LVU907
 2506 05f0 0020     		movs	r0, #0
 2507 05f2 38E5     		b	.L84
 2508              	.L144:
 532:Device/Dev_ICM426xx.c ****        !DevICM426xx_Reg_Read(sensor_obj, ICM426XX_RA_INT_SOURCE0, &read_out))
 2509              		.loc 1 532 5 is_stmt 1 view .LVU908
 532:Device/Dev_ICM426xx.c ****        !DevICM426xx_Reg_Read(sensor_obj, ICM426XX_RA_INT_SOURCE0, &read_out))
 2510              		.loc 1 532 9 is_stmt 0 view .LVU909
 2511 05f4 0822     		movs	r2, #8
 2512 05f6 6521     		movs	r1, #101
 2513 05f8 2046     		mov	r0, r4
 2514 05fa FFF7FEFF 		bl	DevICM426xx_Reg_Write
 2515              	.LVL185:
 532:Device/Dev_ICM426xx.c ****        !DevICM426xx_Reg_Read(sensor_obj, ICM426XX_RA_INT_SOURCE0, &read_out))
 2516              		.loc 1 532 7 view .LVU910
 2517 05fe 30B1     		cbz	r0, .L146
ARM GAS  C:\Users\8bit\AppData\Local\Temp\ccNZMjib.s 			page 68


 533:Device/Dev_ICM426xx.c ****     {
 2518              		.loc 1 533 9 discriminator 1 view .LVU911
 2519 0600 0DF10702 		add	r2, sp, #7
 2520 0604 6521     		movs	r1, #101
 2521 0606 2046     		mov	r0, r4
 2522 0608 FFF7FEFF 		bl	DevICM426xx_Reg_Read
 2523              	.LVL186:
 532:Device/Dev_ICM426xx.c ****        !DevICM426xx_Reg_Read(sensor_obj, ICM426XX_RA_INT_SOURCE0, &read_out))
 2524              		.loc 1 532 102 discriminator 1 view .LVU912
 2525 060c B0B9     		cbnz	r0, .L147
 2526              	.L146:
 535:Device/Dev_ICM426xx.c ****         return false;
 2527              		.loc 1 535 9 is_stmt 1 view .LVU913
 2528              	.LVL187:
 2529              	.LBB128:
 2530              	.LBI128:
  91:common/gen_physic_def/imu_data.h **** {
 2531              		.loc 2 91 13 view .LVU914
 2532              	.LBB129:
  93:common/gen_physic_def/imu_data.h ****     {
 2533              		.loc 2 93 5 view .LVU915
  93:common/gen_physic_def/imu_data.h ****     {
 2534              		.loc 2 93 7 is_stmt 0 view .LVU916
 2535 060e 14F1240F 		cmn	r4, #36
 2536 0612 0ED0     		beq	.L148
  95:common/gen_physic_def/imu_data.h ****         error->function = (char *)func;
 2537              		.loc 2 95 9 is_stmt 1 view .LVU917
  95:common/gen_physic_def/imu_data.h ****         error->function = (char *)func;
 2538              		.loc 2 95 21 is_stmt 0 view .LVU918
 2539 0614 0723     		movs	r3, #7
 2540 0616 84F82430 		strb	r3, [r4, #36]
  96:common/gen_physic_def/imu_data.h ****         error->line = line;
 2541              		.loc 2 96 9 is_stmt 1 view .LVU919
  96:common/gen_physic_def/imu_data.h ****         error->line = line;
 2542              		.loc 2 96 25 is_stmt 0 view .LVU920
 2543 061a 074B     		ldr	r3, .L185
 2544 061c A362     		str	r3, [r4, #40]
  97:common/gen_physic_def/imu_data.h **** 
 2545              		.loc 2 97 9 is_stmt 1 view .LVU921
  97:common/gen_physic_def/imu_data.h **** 
 2546              		.loc 2 97 21 is_stmt 0 view .LVU922
 2547 061e 40F21723 		movw	r3, #535
 2548 0622 A385     		strh	r3, [r4, #44]	@ movhi
  99:common/gen_physic_def/imu_data.h ****         error->reg_r_val = reg_r;
 2549              		.loc 2 99 9 is_stmt 1 view .LVU923
  99:common/gen_physic_def/imu_data.h ****         error->reg_r_val = reg_r;
 2550              		.loc 2 99 24 is_stmt 0 view .LVU924
 2551 0624 0023     		movs	r3, #0
 2552 0626 84F82E30 		strb	r3, [r4, #46]
 100:common/gen_physic_def/imu_data.h ****         error->reg_t_val = reg_t;
 2553              		.loc 2 100 9 is_stmt 1 view .LVU925
 100:common/gen_physic_def/imu_data.h ****         error->reg_t_val = reg_t;
 2554              		.loc 2 100 26 is_stmt 0 view .LVU926
 2555 062a 84F82F30 		strb	r3, [r4, #47]
 2556              		.loc 2 101 9 is_stmt 1 view .LVU927
 2557              		.loc 2 101 26 is_stmt 0 view .LVU928
 2558 062e 84F83030 		strb	r3, [r4, #48]
ARM GAS  C:\Users\8bit\AppData\Local\Temp\ccNZMjib.s 			page 69


 2559              	.L148:
 2560              	.LVL188:
 2561              		.loc 2 101 26 view .LVU929
 2562              	.LBE129:
 2563              	.LBE128:
 536:Device/Dev_ICM426xx.c ****     }
 2564              		.loc 1 536 9 is_stmt 1 view .LVU930
 536:Device/Dev_ICM426xx.c ****     }
 2565              		.loc 1 536 16 is_stmt 0 view .LVU931
 2566 0632 0020     		movs	r0, #0
 2567 0634 17E5     		b	.L84
 2568              	.L186:
 2569 0636 00BF     		.align	2
 2570              	.L185:
 2571 0638 00000000 		.word	.LANCHOR2
 2572              	.L147:
 539:Device/Dev_ICM426xx.c ****     {
 2573              		.loc 1 539 5 is_stmt 1 view .LVU932
 539:Device/Dev_ICM426xx.c ****     {
 2574              		.loc 1 539 17 is_stmt 0 view .LVU933
 2575 063c 9DF80730 		ldrb	r3, [sp, #7]	@ zero_extendqisi2
 539:Device/Dev_ICM426xx.c ****     {
 2576              		.loc 1 539 7 view .LVU934
 2577 0640 082B     		cmp	r3, #8
 2578 0642 14D0     		beq	.L149
 541:Device/Dev_ICM426xx.c ****         return false;
 2579              		.loc 1 541 9 is_stmt 1 view .LVU935
 2580              	.LVL189:
 2581              	.LBB130:
 2582              	.LBI130:
  91:common/gen_physic_def/imu_data.h **** {
 2583              		.loc 2 91 13 view .LVU936
 2584              	.LBB131:
  93:common/gen_physic_def/imu_data.h ****     {
 2585              		.loc 2 93 5 view .LVU937
  93:common/gen_physic_def/imu_data.h ****     {
 2586              		.loc 2 93 7 is_stmt 0 view .LVU938
 2587 0644 14F1240F 		cmn	r4, #36
 2588 0648 0FD0     		beq	.L150
  95:common/gen_physic_def/imu_data.h ****         error->function = (char *)func;
 2589              		.loc 2 95 9 is_stmt 1 view .LVU939
  95:common/gen_physic_def/imu_data.h ****         error->function = (char *)func;
 2590              		.loc 2 95 21 is_stmt 0 view .LVU940
 2591 064a 0422     		movs	r2, #4
 2592 064c 84F82420 		strb	r2, [r4, #36]
  96:common/gen_physic_def/imu_data.h ****         error->line = line;
 2593              		.loc 2 96 9 is_stmt 1 view .LVU941
  96:common/gen_physic_def/imu_data.h ****         error->line = line;
 2594              		.loc 2 96 25 is_stmt 0 view .LVU942
 2595 0650 9D4A     		ldr	r2, .L187
 2596 0652 A262     		str	r2, [r4, #40]
  97:common/gen_physic_def/imu_data.h **** 
 2597              		.loc 2 97 9 is_stmt 1 view .LVU943
  97:common/gen_physic_def/imu_data.h **** 
 2598              		.loc 2 97 21 is_stmt 0 view .LVU944
 2599 0654 40F21D22 		movw	r2, #541
 2600 0658 A285     		strh	r2, [r4, #44]	@ movhi
ARM GAS  C:\Users\8bit\AppData\Local\Temp\ccNZMjib.s 			page 70


  99:common/gen_physic_def/imu_data.h ****         error->reg_r_val = reg_r;
 2601              		.loc 2 99 9 is_stmt 1 view .LVU945
  99:common/gen_physic_def/imu_data.h ****         error->reg_r_val = reg_r;
 2602              		.loc 2 99 24 is_stmt 0 view .LVU946
 2603 065a 6522     		movs	r2, #101
 2604 065c 84F82E20 		strb	r2, [r4, #46]
 100:common/gen_physic_def/imu_data.h ****         error->reg_t_val = reg_t;
 2605              		.loc 2 100 9 is_stmt 1 view .LVU947
 100:common/gen_physic_def/imu_data.h ****         error->reg_t_val = reg_t;
 2606              		.loc 2 100 26 is_stmt 0 view .LVU948
 2607 0660 84F82F30 		strb	r3, [r4, #47]
 2608              		.loc 2 101 9 is_stmt 1 view .LVU949
 2609              		.loc 2 101 26 is_stmt 0 view .LVU950
 2610 0664 0823     		movs	r3, #8
 2611              	.LVL190:
 2612              		.loc 2 101 26 view .LVU951
 2613 0666 84F83030 		strb	r3, [r4, #48]
 2614              	.LVL191:
 2615              	.L150:
 2616              		.loc 2 101 26 view .LVU952
 2617              	.LBE131:
 2618              	.LBE130:
 542:Device/Dev_ICM426xx.c ****     }
 2619              		.loc 1 542 9 is_stmt 1 view .LVU953
 542:Device/Dev_ICM426xx.c ****     }
 2620              		.loc 1 542 16 is_stmt 0 view .LVU954
 2621 066a 0020     		movs	r0, #0
 2622 066c FBE4     		b	.L84
 2623              	.L149:
 545:Device/Dev_ICM426xx.c ****     {
 2624              		.loc 1 545 5 is_stmt 1 view .LVU955
 545:Device/Dev_ICM426xx.c ****     {
 2625              		.loc 1 545 9 is_stmt 0 view .LVU956
 2626 066e 0DF10602 		add	r2, sp, #6
 2627 0672 6421     		movs	r1, #100
 2628 0674 2046     		mov	r0, r4
 2629 0676 FFF7FEFF 		bl	DevICM426xx_Reg_Read
 2630              	.LVL192:
 545:Device/Dev_ICM426xx.c ****     {
 2631              		.loc 1 545 7 view .LVU957
 2632 067a 98B9     		cbnz	r0, .L151
 547:Device/Dev_ICM426xx.c ****         return false;
 2633              		.loc 1 547 9 is_stmt 1 view .LVU958
 2634              	.LVL193:
 2635              	.LBB132:
 2636              	.LBI132:
  91:common/gen_physic_def/imu_data.h **** {
 2637              		.loc 2 91 13 view .LVU959
 2638              	.LBB133:
  93:common/gen_physic_def/imu_data.h ****     {
 2639              		.loc 2 93 5 view .LVU960
  93:common/gen_physic_def/imu_data.h ****     {
 2640              		.loc 2 93 7 is_stmt 0 view .LVU961
 2641 067c 14F1240F 		cmn	r4, #36
 2642 0680 3FF4F1AC 		beq	.L84
  95:common/gen_physic_def/imu_data.h ****         error->function = (char *)func;
 2643              		.loc 2 95 9 is_stmt 1 view .LVU962
ARM GAS  C:\Users\8bit\AppData\Local\Temp\ccNZMjib.s 			page 71


  95:common/gen_physic_def/imu_data.h ****         error->function = (char *)func;
 2644              		.loc 2 95 21 is_stmt 0 view .LVU963
 2645 0684 0723     		movs	r3, #7
 2646 0686 84F82430 		strb	r3, [r4, #36]
  96:common/gen_physic_def/imu_data.h ****         error->line = line;
 2647              		.loc 2 96 9 is_stmt 1 view .LVU964
  96:common/gen_physic_def/imu_data.h ****         error->line = line;
 2648              		.loc 2 96 25 is_stmt 0 view .LVU965
 2649 068a 8F4B     		ldr	r3, .L187
 2650 068c A362     		str	r3, [r4, #40]
  97:common/gen_physic_def/imu_data.h **** 
 2651              		.loc 2 97 9 is_stmt 1 view .LVU966
  97:common/gen_physic_def/imu_data.h **** 
 2652              		.loc 2 97 21 is_stmt 0 view .LVU967
 2653 068e 40F22323 		movw	r3, #547
 2654 0692 A385     		strh	r3, [r4, #44]	@ movhi
  99:common/gen_physic_def/imu_data.h ****         error->reg_r_val = reg_r;
 2655              		.loc 2 99 9 is_stmt 1 view .LVU968
  99:common/gen_physic_def/imu_data.h ****         error->reg_r_val = reg_r;
 2656              		.loc 2 99 24 is_stmt 0 view .LVU969
 2657 0694 0023     		movs	r3, #0
 2658 0696 84F82E30 		strb	r3, [r4, #46]
 100:common/gen_physic_def/imu_data.h ****         error->reg_t_val = reg_t;
 2659              		.loc 2 100 9 is_stmt 1 view .LVU970
 100:common/gen_physic_def/imu_data.h ****         error->reg_t_val = reg_t;
 2660              		.loc 2 100 26 is_stmt 0 view .LVU971
 2661 069a 84F82F30 		strb	r3, [r4, #47]
 2662              		.loc 2 101 9 is_stmt 1 view .LVU972
 2663              		.loc 2 101 26 is_stmt 0 view .LVU973
 2664 069e 84F83030 		strb	r3, [r4, #48]
 2665              	.LVL194:
 2666              		.loc 2 101 26 view .LVU974
 2667              	.LBE133:
 2668              	.LBE132:
 548:Device/Dev_ICM426xx.c ****     }
 2669              		.loc 1 548 9 is_stmt 1 view .LVU975
 548:Device/Dev_ICM426xx.c ****     }
 2670              		.loc 1 548 16 is_stmt 0 view .LVU976
 2671 06a2 E0E4     		b	.L84
 2672              	.L151:
 551:Device/Dev_ICM426xx.c ****     intConfig1Value |= (ICM426XX_INT_TPULSE_DURATION_8 | ICM426XX_INT_TDEASSERT_DISABLED);
 2673              		.loc 1 551 5 is_stmt 1 view .LVU977
 551:Device/Dev_ICM426xx.c ****     intConfig1Value |= (ICM426XX_INT_TPULSE_DURATION_8 | ICM426XX_INT_TDEASSERT_DISABLED);
 2674              		.loc 1 551 21 is_stmt 0 view .LVU978
 2675 06a4 9DF80620 		ldrb	r2, [sp, #6]	@ zero_extendqisi2
 2676 06a8 02F0EF02 		and	r2, r2, #239
 2677 06ac 8DF80620 		strb	r2, [sp, #6]
 552:Device/Dev_ICM426xx.c **** 
 2678              		.loc 1 552 5 is_stmt 1 view .LVU979
 552:Device/Dev_ICM426xx.c **** 
 2679              		.loc 1 552 21 is_stmt 0 view .LVU980
 2680 06b0 42F06002 		orr	r2, r2, #96
 2681 06b4 8DF80620 		strb	r2, [sp, #6]
 554:Device/Dev_ICM426xx.c ****        !DevICM426xx_Reg_Read(sensor_obj, ICM426XX_RA_INT_CONFIG1, &read_out))
 2682              		.loc 1 554 5 is_stmt 1 view .LVU981
 554:Device/Dev_ICM426xx.c ****        !DevICM426xx_Reg_Read(sensor_obj, ICM426XX_RA_INT_CONFIG1, &read_out))
 2683              		.loc 1 554 9 is_stmt 0 view .LVU982
ARM GAS  C:\Users\8bit\AppData\Local\Temp\ccNZMjib.s 			page 72


 2684 06b8 6421     		movs	r1, #100
 2685 06ba 2046     		mov	r0, r4
 2686 06bc FFF7FEFF 		bl	DevICM426xx_Reg_Write
 2687              	.LVL195:
 554:Device/Dev_ICM426xx.c ****        !DevICM426xx_Reg_Read(sensor_obj, ICM426XX_RA_INT_CONFIG1, &read_out))
 2688              		.loc 1 554 7 view .LVU983
 2689 06c0 30B1     		cbz	r0, .L153
 555:Device/Dev_ICM426xx.c ****     {
 2690              		.loc 1 555 9 discriminator 1 view .LVU984
 2691 06c2 0DF10702 		add	r2, sp, #7
 2692 06c6 6421     		movs	r1, #100
 2693 06c8 2046     		mov	r0, r4
 2694 06ca FFF7FEFF 		bl	DevICM426xx_Reg_Read
 2695              	.LVL196:
 554:Device/Dev_ICM426xx.c ****        !DevICM426xx_Reg_Read(sensor_obj, ICM426XX_RA_INT_CONFIG1, &read_out))
 2696              		.loc 1 554 85 discriminator 1 view .LVU985
 2697 06ce 98B9     		cbnz	r0, .L154
 2698              	.L153:
 557:Device/Dev_ICM426xx.c ****         return false;
 2699              		.loc 1 557 9 is_stmt 1 view .LVU986
 2700              	.LVL197:
 2701              	.LBB134:
 2702              	.LBI134:
  91:common/gen_physic_def/imu_data.h **** {
 2703              		.loc 2 91 13 view .LVU987
 2704              	.LBB135:
  93:common/gen_physic_def/imu_data.h ****     {
 2705              		.loc 2 93 5 view .LVU988
  93:common/gen_physic_def/imu_data.h ****     {
 2706              		.loc 2 93 7 is_stmt 0 view .LVU989
 2707 06d0 14F1240F 		cmn	r4, #36
 2708 06d4 0ED0     		beq	.L155
  95:common/gen_physic_def/imu_data.h ****         error->function = (char *)func;
 2709              		.loc 2 95 9 is_stmt 1 view .LVU990
  95:common/gen_physic_def/imu_data.h ****         error->function = (char *)func;
 2710              		.loc 2 95 21 is_stmt 0 view .LVU991
 2711 06d6 0723     		movs	r3, #7
 2712 06d8 84F82430 		strb	r3, [r4, #36]
  96:common/gen_physic_def/imu_data.h ****         error->line = line;
 2713              		.loc 2 96 9 is_stmt 1 view .LVU992
  96:common/gen_physic_def/imu_data.h ****         error->line = line;
 2714              		.loc 2 96 25 is_stmt 0 view .LVU993
 2715 06dc 7A4B     		ldr	r3, .L187
 2716 06de A362     		str	r3, [r4, #40]
  97:common/gen_physic_def/imu_data.h **** 
 2717              		.loc 2 97 9 is_stmt 1 view .LVU994
  97:common/gen_physic_def/imu_data.h **** 
 2718              		.loc 2 97 21 is_stmt 0 view .LVU995
 2719 06e0 40F22D23 		movw	r3, #557
 2720 06e4 A385     		strh	r3, [r4, #44]	@ movhi
  99:common/gen_physic_def/imu_data.h ****         error->reg_r_val = reg_r;
 2721              		.loc 2 99 9 is_stmt 1 view .LVU996
  99:common/gen_physic_def/imu_data.h ****         error->reg_r_val = reg_r;
 2722              		.loc 2 99 24 is_stmt 0 view .LVU997
 2723 06e6 0023     		movs	r3, #0
 2724 06e8 84F82E30 		strb	r3, [r4, #46]
 100:common/gen_physic_def/imu_data.h ****         error->reg_t_val = reg_t;
ARM GAS  C:\Users\8bit\AppData\Local\Temp\ccNZMjib.s 			page 73


 2725              		.loc 2 100 9 is_stmt 1 view .LVU998
 100:common/gen_physic_def/imu_data.h ****         error->reg_t_val = reg_t;
 2726              		.loc 2 100 26 is_stmt 0 view .LVU999
 2727 06ec 84F82F30 		strb	r3, [r4, #47]
 2728              		.loc 2 101 9 is_stmt 1 view .LVU1000
 2729              		.loc 2 101 26 is_stmt 0 view .LVU1001
 2730 06f0 84F83030 		strb	r3, [r4, #48]
 2731              	.L155:
 2732              	.LVL198:
 2733              		.loc 2 101 26 view .LVU1002
 2734              	.LBE135:
 2735              	.LBE134:
 558:Device/Dev_ICM426xx.c ****     }
 2736              		.loc 1 558 9 is_stmt 1 view .LVU1003
 558:Device/Dev_ICM426xx.c ****     }
 2737              		.loc 1 558 16 is_stmt 0 view .LVU1004
 2738 06f4 0020     		movs	r0, #0
 2739 06f6 B6E4     		b	.L84
 2740              	.L154:
 561:Device/Dev_ICM426xx.c ****     {
 2741              		.loc 1 561 5 is_stmt 1 view .LVU1005
 561:Device/Dev_ICM426xx.c ****     {
 2742              		.loc 1 561 17 is_stmt 0 view .LVU1006
 2743 06f8 9DF80720 		ldrb	r2, [sp, #7]	@ zero_extendqisi2
 2744 06fc 9DF80630 		ldrb	r3, [sp, #6]	@ zero_extendqisi2
 561:Device/Dev_ICM426xx.c ****     {
 2745              		.loc 1 561 7 view .LVU1007
 2746 0700 9A42     		cmp	r2, r3
 2747 0702 13D0     		beq	.L156
 563:Device/Dev_ICM426xx.c ****         return false;
 2748              		.loc 1 563 9 is_stmt 1 view .LVU1008
 2749              	.LVL199:
 2750              	.LBB136:
 2751              	.LBI136:
  91:common/gen_physic_def/imu_data.h **** {
 2752              		.loc 2 91 13 view .LVU1009
 2753              	.LBB137:
  93:common/gen_physic_def/imu_data.h ****     {
 2754              		.loc 2 93 5 view .LVU1010
  93:common/gen_physic_def/imu_data.h ****     {
 2755              		.loc 2 93 7 is_stmt 0 view .LVU1011
 2756 0704 14F1240F 		cmn	r4, #36
 2757 0708 0ED0     		beq	.L157
  95:common/gen_physic_def/imu_data.h ****         error->function = (char *)func;
 2758              		.loc 2 95 9 is_stmt 1 view .LVU1012
  95:common/gen_physic_def/imu_data.h ****         error->function = (char *)func;
 2759              		.loc 2 95 21 is_stmt 0 view .LVU1013
 2760 070a 0421     		movs	r1, #4
 2761 070c 84F82410 		strb	r1, [r4, #36]
  96:common/gen_physic_def/imu_data.h ****         error->line = line;
 2762              		.loc 2 96 9 is_stmt 1 view .LVU1014
  96:common/gen_physic_def/imu_data.h ****         error->line = line;
 2763              		.loc 2 96 25 is_stmt 0 view .LVU1015
 2764 0710 6D49     		ldr	r1, .L187
 2765 0712 A162     		str	r1, [r4, #40]
  97:common/gen_physic_def/imu_data.h **** 
 2766              		.loc 2 97 9 is_stmt 1 view .LVU1016
ARM GAS  C:\Users\8bit\AppData\Local\Temp\ccNZMjib.s 			page 74


  97:common/gen_physic_def/imu_data.h **** 
 2767              		.loc 2 97 21 is_stmt 0 view .LVU1017
 2768 0714 40F23321 		movw	r1, #563
 2769 0718 A185     		strh	r1, [r4, #44]	@ movhi
  99:common/gen_physic_def/imu_data.h ****         error->reg_r_val = reg_r;
 2770              		.loc 2 99 9 is_stmt 1 view .LVU1018
  99:common/gen_physic_def/imu_data.h ****         error->reg_r_val = reg_r;
 2771              		.loc 2 99 24 is_stmt 0 view .LVU1019
 2772 071a 6421     		movs	r1, #100
 2773 071c 84F82E10 		strb	r1, [r4, #46]
 100:common/gen_physic_def/imu_data.h ****         error->reg_t_val = reg_t;
 2774              		.loc 2 100 9 is_stmt 1 view .LVU1020
 100:common/gen_physic_def/imu_data.h ****         error->reg_t_val = reg_t;
 2775              		.loc 2 100 26 is_stmt 0 view .LVU1021
 2776 0720 84F82F20 		strb	r2, [r4, #47]
 2777              		.loc 2 101 9 is_stmt 1 view .LVU1022
 2778              		.loc 2 101 26 is_stmt 0 view .LVU1023
 2779 0724 84F83030 		strb	r3, [r4, #48]
 2780              	.L157:
 2781              	.LVL200:
 2782              		.loc 2 101 26 view .LVU1024
 2783              	.LBE137:
 2784              	.LBE136:
 564:Device/Dev_ICM426xx.c ****     }
 2785              		.loc 1 564 9 is_stmt 1 view .LVU1025
 564:Device/Dev_ICM426xx.c ****     }
 2786              		.loc 1 564 16 is_stmt 0 view .LVU1026
 2787 0728 0020     		movs	r0, #0
 2788 072a 9CE4     		b	.L84
 2789              	.L156:
 568:Device/Dev_ICM426xx.c ****     {
 2790              		.loc 1 568 5 is_stmt 1 view .LVU1027
 568:Device/Dev_ICM426xx.c ****     {
 2791              		.loc 1 568 9 is_stmt 0 view .LVU1028
 2792 072c 2046     		mov	r0, r4
 2793 072e FFF7FEFF 		bl	DevICM426xx_TurnOn_AccGyro
 2794              	.LVL201:
 568:Device/Dev_ICM426xx.c ****     {
 2795              		.loc 1 568 7 view .LVU1029
 2796 0732 98B9     		cbnz	r0, .L158
 570:Device/Dev_ICM426xx.c ****         return false;
 2797              		.loc 1 570 9 is_stmt 1 view .LVU1030
 2798              	.LVL202:
 2799              	.LBB138:
 2800              	.LBI138:
  91:common/gen_physic_def/imu_data.h **** {
 2801              		.loc 2 91 13 view .LVU1031
 2802              	.LBB139:
  93:common/gen_physic_def/imu_data.h ****     {
 2803              		.loc 2 93 5 view .LVU1032
  93:common/gen_physic_def/imu_data.h ****     {
 2804              		.loc 2 93 7 is_stmt 0 view .LVU1033
 2805 0734 14F1240F 		cmn	r4, #36
 2806 0738 3FF495AC 		beq	.L84
  95:common/gen_physic_def/imu_data.h ****         error->function = (char *)func;
 2807              		.loc 2 95 9 is_stmt 1 view .LVU1034
  95:common/gen_physic_def/imu_data.h ****         error->function = (char *)func;
ARM GAS  C:\Users\8bit\AppData\Local\Temp\ccNZMjib.s 			page 75


 2808              		.loc 2 95 21 is_stmt 0 view .LVU1035
 2809 073c 0D23     		movs	r3, #13
 2810 073e 84F82430 		strb	r3, [r4, #36]
  96:common/gen_physic_def/imu_data.h ****         error->line = line;
 2811              		.loc 2 96 9 is_stmt 1 view .LVU1036
  96:common/gen_physic_def/imu_data.h ****         error->line = line;
 2812              		.loc 2 96 25 is_stmt 0 view .LVU1037
 2813 0742 614B     		ldr	r3, .L187
 2814 0744 A362     		str	r3, [r4, #40]
  97:common/gen_physic_def/imu_data.h **** 
 2815              		.loc 2 97 9 is_stmt 1 view .LVU1038
  97:common/gen_physic_def/imu_data.h **** 
 2816              		.loc 2 97 21 is_stmt 0 view .LVU1039
 2817 0746 40F23A23 		movw	r3, #570
 2818 074a A385     		strh	r3, [r4, #44]	@ movhi
  99:common/gen_physic_def/imu_data.h ****         error->reg_r_val = reg_r;
 2819              		.loc 2 99 9 is_stmt 1 view .LVU1040
  99:common/gen_physic_def/imu_data.h ****         error->reg_r_val = reg_r;
 2820              		.loc 2 99 24 is_stmt 0 view .LVU1041
 2821 074c 0023     		movs	r3, #0
 2822 074e 84F82E30 		strb	r3, [r4, #46]
 100:common/gen_physic_def/imu_data.h ****         error->reg_t_val = reg_t;
 2823              		.loc 2 100 9 is_stmt 1 view .LVU1042
 100:common/gen_physic_def/imu_data.h ****         error->reg_t_val = reg_t;
 2824              		.loc 2 100 26 is_stmt 0 view .LVU1043
 2825 0752 84F82F30 		strb	r3, [r4, #47]
 2826              		.loc 2 101 9 is_stmt 1 view .LVU1044
 2827              		.loc 2 101 26 is_stmt 0 view .LVU1045
 2828 0756 84F83030 		strb	r3, [r4, #48]
 2829              	.LVL203:
 2830              		.loc 2 101 26 view .LVU1046
 2831              	.LBE139:
 2832              	.LBE138:
 571:Device/Dev_ICM426xx.c ****     }
 2833              		.loc 1 571 9 is_stmt 1 view .LVU1047
 571:Device/Dev_ICM426xx.c ****     }
 2834              		.loc 1 571 16 is_stmt 0 view .LVU1048
 2835 075a 84E4     		b	.L84
 2836              	.L158:
 575:Device/Dev_ICM426xx.c ****     {
 2837              		.loc 1 575 5 is_stmt 1 view .LVU1049
 575:Device/Dev_ICM426xx.c ****     {
 2838              		.loc 1 575 9 is_stmt 0 view .LVU1050
 2839 075c E27D     		ldrb	r2, [r4, #23]	@ zero_extendqisi2
 2840 075e 4F21     		movs	r1, #79
 2841 0760 2046     		mov	r0, r4
 2842 0762 FFF7FEFF 		bl	DevICM426xx_Reg_Write
 2843              	.LVL204:
 575:Device/Dev_ICM426xx.c ****     {
 2844              		.loc 1 575 7 view .LVU1051
 2845 0766 98B9     		cbnz	r0, .L160
 577:Device/Dev_ICM426xx.c ****         return false;
 2846              		.loc 1 577 9 is_stmt 1 view .LVU1052
 2847              	.LVL205:
 2848              	.LBB140:
 2849              	.LBI140:
  91:common/gen_physic_def/imu_data.h **** {
ARM GAS  C:\Users\8bit\AppData\Local\Temp\ccNZMjib.s 			page 76


 2850              		.loc 2 91 13 view .LVU1053
 2851              	.LBB141:
  93:common/gen_physic_def/imu_data.h ****     {
 2852              		.loc 2 93 5 view .LVU1054
  93:common/gen_physic_def/imu_data.h ****     {
 2853              		.loc 2 93 7 is_stmt 0 view .LVU1055
 2854 0768 14F1240F 		cmn	r4, #36
 2855 076c 3FF47BAC 		beq	.L84
  95:common/gen_physic_def/imu_data.h ****         error->function = (char *)func;
 2856              		.loc 2 95 9 is_stmt 1 view .LVU1056
  95:common/gen_physic_def/imu_data.h ****         error->function = (char *)func;
 2857              		.loc 2 95 21 is_stmt 0 view .LVU1057
 2858 0770 0723     		movs	r3, #7
 2859 0772 84F82430 		strb	r3, [r4, #36]
  96:common/gen_physic_def/imu_data.h ****         error->line = line;
 2860              		.loc 2 96 9 is_stmt 1 view .LVU1058
  96:common/gen_physic_def/imu_data.h ****         error->line = line;
 2861              		.loc 2 96 25 is_stmt 0 view .LVU1059
 2862 0776 544B     		ldr	r3, .L187
 2863 0778 A362     		str	r3, [r4, #40]
  97:common/gen_physic_def/imu_data.h **** 
 2864              		.loc 2 97 9 is_stmt 1 view .LVU1060
  97:common/gen_physic_def/imu_data.h **** 
 2865              		.loc 2 97 21 is_stmt 0 view .LVU1061
 2866 077a 40F24123 		movw	r3, #577
 2867 077e A385     		strh	r3, [r4, #44]	@ movhi
  99:common/gen_physic_def/imu_data.h ****         error->reg_r_val = reg_r;
 2868              		.loc 2 99 9 is_stmt 1 view .LVU1062
  99:common/gen_physic_def/imu_data.h ****         error->reg_r_val = reg_r;
 2869              		.loc 2 99 24 is_stmt 0 view .LVU1063
 2870 0780 0023     		movs	r3, #0
 2871 0782 84F82E30 		strb	r3, [r4, #46]
 100:common/gen_physic_def/imu_data.h ****         error->reg_t_val = reg_t;
 2872              		.loc 2 100 9 is_stmt 1 view .LVU1064
 100:common/gen_physic_def/imu_data.h ****         error->reg_t_val = reg_t;
 2873              		.loc 2 100 26 is_stmt 0 view .LVU1065
 2874 0786 84F82F30 		strb	r3, [r4, #47]
 2875              		.loc 2 101 9 is_stmt 1 view .LVU1066
 2876              		.loc 2 101 26 is_stmt 0 view .LVU1067
 2877 078a 84F83030 		strb	r3, [r4, #48]
 2878              	.LVL206:
 2879              		.loc 2 101 26 view .LVU1068
 2880              	.LBE141:
 2881              	.LBE140:
 578:Device/Dev_ICM426xx.c ****     }
 2882              		.loc 1 578 9 is_stmt 1 view .LVU1069
 578:Device/Dev_ICM426xx.c ****     }
 2883              		.loc 1 578 16 is_stmt 0 view .LVU1070
 2884 078e 6AE4     		b	.L84
 2885              	.L160:
 580:Device/Dev_ICM426xx.c **** 
 2886              		.loc 1 580 5 is_stmt 1 view .LVU1071
 580:Device/Dev_ICM426xx.c **** 
 2887              		.loc 1 580 15 is_stmt 0 view .LVU1072
 2888 0790 E368     		ldr	r3, [r4, #12]
 580:Device/Dev_ICM426xx.c **** 
 2889              		.loc 1 580 5 view .LVU1073
ARM GAS  C:\Users\8bit\AppData\Local\Temp\ccNZMjib.s 			page 77


 2890 0792 0F20     		movs	r0, #15
 2891 0794 9847     		blx	r3
 2892              	.LVL207:
 582:Device/Dev_ICM426xx.c ****     {
 2893              		.loc 1 582 5 is_stmt 1 view .LVU1074
 582:Device/Dev_ICM426xx.c ****     {
 2894              		.loc 1 582 9 is_stmt 0 view .LVU1075
 2895 0796 0DF10702 		add	r2, sp, #7
 2896 079a 4F21     		movs	r1, #79
 2897 079c 2046     		mov	r0, r4
 2898 079e FFF7FEFF 		bl	DevICM426xx_Reg_Read
 2899              	.LVL208:
 582:Device/Dev_ICM426xx.c ****     {
 2900              		.loc 1 582 7 view .LVU1076
 2901 07a2 98B9     		cbnz	r0, .L162
 584:Device/Dev_ICM426xx.c ****         return false;
 2902              		.loc 1 584 9 is_stmt 1 view .LVU1077
 2903              	.LVL209:
 2904              	.LBB142:
 2905              	.LBI142:
  91:common/gen_physic_def/imu_data.h **** {
 2906              		.loc 2 91 13 view .LVU1078
 2907              	.LBB143:
  93:common/gen_physic_def/imu_data.h ****     {
 2908              		.loc 2 93 5 view .LVU1079
  93:common/gen_physic_def/imu_data.h ****     {
 2909              		.loc 2 93 7 is_stmt 0 view .LVU1080
 2910 07a4 14F1240F 		cmn	r4, #36
 2911 07a8 3FF45DAC 		beq	.L84
  95:common/gen_physic_def/imu_data.h ****         error->function = (char *)func;
 2912              		.loc 2 95 9 is_stmt 1 view .LVU1081
  95:common/gen_physic_def/imu_data.h ****         error->function = (char *)func;
 2913              		.loc 2 95 21 is_stmt 0 view .LVU1082
 2914 07ac 0723     		movs	r3, #7
 2915 07ae 84F82430 		strb	r3, [r4, #36]
  96:common/gen_physic_def/imu_data.h ****         error->line = line;
 2916              		.loc 2 96 9 is_stmt 1 view .LVU1083
  96:common/gen_physic_def/imu_data.h ****         error->line = line;
 2917              		.loc 2 96 25 is_stmt 0 view .LVU1084
 2918 07b2 454B     		ldr	r3, .L187
 2919 07b4 A362     		str	r3, [r4, #40]
  97:common/gen_physic_def/imu_data.h **** 
 2920              		.loc 2 97 9 is_stmt 1 view .LVU1085
  97:common/gen_physic_def/imu_data.h **** 
 2921              		.loc 2 97 21 is_stmt 0 view .LVU1086
 2922 07b6 4FF41273 		mov	r3, #584
 2923 07ba A385     		strh	r3, [r4, #44]	@ movhi
  99:common/gen_physic_def/imu_data.h ****         error->reg_r_val = reg_r;
 2924              		.loc 2 99 9 is_stmt 1 view .LVU1087
  99:common/gen_physic_def/imu_data.h ****         error->reg_r_val = reg_r;
 2925              		.loc 2 99 24 is_stmt 0 view .LVU1088
 2926 07bc 0023     		movs	r3, #0
 2927 07be 84F82E30 		strb	r3, [r4, #46]
 100:common/gen_physic_def/imu_data.h ****         error->reg_t_val = reg_t;
 2928              		.loc 2 100 9 is_stmt 1 view .LVU1089
 100:common/gen_physic_def/imu_data.h ****         error->reg_t_val = reg_t;
 2929              		.loc 2 100 26 is_stmt 0 view .LVU1090
ARM GAS  C:\Users\8bit\AppData\Local\Temp\ccNZMjib.s 			page 78


 2930 07c2 84F82F30 		strb	r3, [r4, #47]
 2931              		.loc 2 101 9 is_stmt 1 view .LVU1091
 2932              		.loc 2 101 26 is_stmt 0 view .LVU1092
 2933 07c6 84F83030 		strb	r3, [r4, #48]
 2934              	.LVL210:
 2935              		.loc 2 101 26 view .LVU1093
 2936              	.LBE143:
 2937              	.LBE142:
 585:Device/Dev_ICM426xx.c ****     }
 2938              		.loc 1 585 9 is_stmt 1 view .LVU1094
 585:Device/Dev_ICM426xx.c ****     }
 2939              		.loc 1 585 16 is_stmt 0 view .LVU1095
 2940 07ca 4CE4     		b	.L84
 2941              	.L162:
 588:Device/Dev_ICM426xx.c ****     {
 2942              		.loc 1 588 5 is_stmt 1 view .LVU1096
 588:Device/Dev_ICM426xx.c ****     {
 2943              		.loc 1 588 30 is_stmt 0 view .LVU1097
 2944 07cc E37D     		ldrb	r3, [r4, #23]	@ zero_extendqisi2
 588:Device/Dev_ICM426xx.c ****     {
 2945              		.loc 1 588 17 view .LVU1098
 2946 07ce 9DF80720 		ldrb	r2, [sp, #7]	@ zero_extendqisi2
 588:Device/Dev_ICM426xx.c ****     {
 2947              		.loc 1 588 7 view .LVU1099
 2948 07d2 9342     		cmp	r3, r2
 2949 07d4 13D0     		beq	.L164
 590:Device/Dev_ICM426xx.c ****         return false;
 2950              		.loc 1 590 9 is_stmt 1 view .LVU1100
 2951              	.LVL211:
 2952              	.LBB144:
 2953              	.LBI144:
  91:common/gen_physic_def/imu_data.h **** {
 2954              		.loc 2 91 13 view .LVU1101
 2955              	.LBB145:
  93:common/gen_physic_def/imu_data.h ****     {
 2956              		.loc 2 93 5 view .LVU1102
  93:common/gen_physic_def/imu_data.h ****     {
 2957              		.loc 2 93 7 is_stmt 0 view .LVU1103
 2958 07d6 14F1240F 		cmn	r4, #36
 2959 07da 0ED0     		beq	.L165
  95:common/gen_physic_def/imu_data.h ****         error->function = (char *)func;
 2960              		.loc 2 95 9 is_stmt 1 view .LVU1104
  95:common/gen_physic_def/imu_data.h ****         error->function = (char *)func;
 2961              		.loc 2 95 21 is_stmt 0 view .LVU1105
 2962 07dc 0B21     		movs	r1, #11
 2963 07de 84F82410 		strb	r1, [r4, #36]
  96:common/gen_physic_def/imu_data.h ****         error->line = line;
 2964              		.loc 2 96 9 is_stmt 1 view .LVU1106
  96:common/gen_physic_def/imu_data.h ****         error->line = line;
 2965              		.loc 2 96 25 is_stmt 0 view .LVU1107
 2966 07e2 3949     		ldr	r1, .L187
 2967 07e4 A162     		str	r1, [r4, #40]
  97:common/gen_physic_def/imu_data.h **** 
 2968              		.loc 2 97 9 is_stmt 1 view .LVU1108
  97:common/gen_physic_def/imu_data.h **** 
 2969              		.loc 2 97 21 is_stmt 0 view .LVU1109
 2970 07e6 40F24E21 		movw	r1, #590
ARM GAS  C:\Users\8bit\AppData\Local\Temp\ccNZMjib.s 			page 79


 2971 07ea A185     		strh	r1, [r4, #44]	@ movhi
  99:common/gen_physic_def/imu_data.h ****         error->reg_r_val = reg_r;
 2972              		.loc 2 99 9 is_stmt 1 view .LVU1110
  99:common/gen_physic_def/imu_data.h ****         error->reg_r_val = reg_r;
 2973              		.loc 2 99 24 is_stmt 0 view .LVU1111
 2974 07ec 4F21     		movs	r1, #79
 2975 07ee 84F82E10 		strb	r1, [r4, #46]
 100:common/gen_physic_def/imu_data.h ****         error->reg_t_val = reg_t;
 2976              		.loc 2 100 9 is_stmt 1 view .LVU1112
 100:common/gen_physic_def/imu_data.h ****         error->reg_t_val = reg_t;
 2977              		.loc 2 100 26 is_stmt 0 view .LVU1113
 2978 07f2 84F82F20 		strb	r2, [r4, #47]
 2979              		.loc 2 101 9 is_stmt 1 view .LVU1114
 2980              		.loc 2 101 26 is_stmt 0 view .LVU1115
 2981 07f6 84F83030 		strb	r3, [r4, #48]
 2982              	.L165:
 2983              	.LVL212:
 2984              		.loc 2 101 26 view .LVU1116
 2985              	.LBE145:
 2986              	.LBE144:
 591:Device/Dev_ICM426xx.c ****     }
 2987              		.loc 1 591 9 is_stmt 1 view .LVU1117
 591:Device/Dev_ICM426xx.c ****     }
 2988              		.loc 1 591 16 is_stmt 0 view .LVU1118
 2989 07fa 0020     		movs	r0, #0
 2990 07fc 33E4     		b	.L84
 2991              	.L164:
 594:Device/Dev_ICM426xx.c ****     {
 2992              		.loc 1 594 5 is_stmt 1 view .LVU1119
 594:Device/Dev_ICM426xx.c ****     {
 2993              		.loc 1 594 9 is_stmt 0 view .LVU1120
 2994 07fe A27D     		ldrb	r2, [r4, #22]	@ zero_extendqisi2
 2995 0800 5021     		movs	r1, #80
 2996 0802 2046     		mov	r0, r4
 2997 0804 FFF7FEFF 		bl	DevICM426xx_Reg_Write
 2998              	.LVL213:
 594:Device/Dev_ICM426xx.c ****     {
 2999              		.loc 1 594 7 view .LVU1121
 3000 0808 98B9     		cbnz	r0, .L166
 596:Device/Dev_ICM426xx.c **** 
 3001              		.loc 1 596 9 is_stmt 1 view .LVU1122
 3002              	.LVL214:
 3003              	.LBB146:
 3004              	.LBI146:
  91:common/gen_physic_def/imu_data.h **** {
 3005              		.loc 2 91 13 view .LVU1123
 3006              	.LBB147:
  93:common/gen_physic_def/imu_data.h ****     {
 3007              		.loc 2 93 5 view .LVU1124
  93:common/gen_physic_def/imu_data.h ****     {
 3008              		.loc 2 93 7 is_stmt 0 view .LVU1125
 3009 080a 14F1240F 		cmn	r4, #36
 3010 080e 3FF42AAC 		beq	.L84
  95:common/gen_physic_def/imu_data.h ****         error->function = (char *)func;
 3011              		.loc 2 95 9 is_stmt 1 view .LVU1126
  95:common/gen_physic_def/imu_data.h ****         error->function = (char *)func;
 3012              		.loc 2 95 21 is_stmt 0 view .LVU1127
ARM GAS  C:\Users\8bit\AppData\Local\Temp\ccNZMjib.s 			page 80


 3013 0812 0723     		movs	r3, #7
 3014 0814 84F82430 		strb	r3, [r4, #36]
  96:common/gen_physic_def/imu_data.h ****         error->line = line;
 3015              		.loc 2 96 9 is_stmt 1 view .LVU1128
  96:common/gen_physic_def/imu_data.h ****         error->line = line;
 3016              		.loc 2 96 25 is_stmt 0 view .LVU1129
 3017 0818 2B4B     		ldr	r3, .L187
 3018 081a A362     		str	r3, [r4, #40]
  97:common/gen_physic_def/imu_data.h **** 
 3019              		.loc 2 97 9 is_stmt 1 view .LVU1130
  97:common/gen_physic_def/imu_data.h **** 
 3020              		.loc 2 97 21 is_stmt 0 view .LVU1131
 3021 081c 4FF41573 		mov	r3, #596
 3022 0820 A385     		strh	r3, [r4, #44]	@ movhi
  99:common/gen_physic_def/imu_data.h ****         error->reg_r_val = reg_r;
 3023              		.loc 2 99 9 is_stmt 1 view .LVU1132
  99:common/gen_physic_def/imu_data.h ****         error->reg_r_val = reg_r;
 3024              		.loc 2 99 24 is_stmt 0 view .LVU1133
 3025 0822 0023     		movs	r3, #0
 3026 0824 84F82E30 		strb	r3, [r4, #46]
 100:common/gen_physic_def/imu_data.h ****         error->reg_t_val = reg_t;
 3027              		.loc 2 100 9 is_stmt 1 view .LVU1134
 100:common/gen_physic_def/imu_data.h ****         error->reg_t_val = reg_t;
 3028              		.loc 2 100 26 is_stmt 0 view .LVU1135
 3029 0828 84F82F30 		strb	r3, [r4, #47]
 3030              		.loc 2 101 9 is_stmt 1 view .LVU1136
 3031              		.loc 2 101 26 is_stmt 0 view .LVU1137
 3032 082c 84F83030 		strb	r3, [r4, #48]
 3033              	.LVL215:
 3034              		.loc 2 101 26 view .LVU1138
 3035              	.LBE147:
 3036              	.LBE146:
 598:Device/Dev_ICM426xx.c ****     }
 3037              		.loc 1 598 9 is_stmt 1 view .LVU1139
 598:Device/Dev_ICM426xx.c ****     }
 3038              		.loc 1 598 16 is_stmt 0 view .LVU1140
 3039 0830 19E4     		b	.L84
 3040              	.L166:
 600:Device/Dev_ICM426xx.c **** 
 3041              		.loc 1 600 5 is_stmt 1 view .LVU1141
 600:Device/Dev_ICM426xx.c **** 
 3042              		.loc 1 600 15 is_stmt 0 view .LVU1142
 3043 0832 E368     		ldr	r3, [r4, #12]
 600:Device/Dev_ICM426xx.c **** 
 3044              		.loc 1 600 5 view .LVU1143
 3045 0834 0F20     		movs	r0, #15
 3046 0836 9847     		blx	r3
 3047              	.LVL216:
 602:Device/Dev_ICM426xx.c ****     {
 3048              		.loc 1 602 5 is_stmt 1 view .LVU1144
 602:Device/Dev_ICM426xx.c ****     {
 3049              		.loc 1 602 9 is_stmt 0 view .LVU1145
 3050 0838 0DF10702 		add	r2, sp, #7
 3051 083c 5021     		movs	r1, #80
 3052 083e 2046     		mov	r0, r4
 3053 0840 FFF7FEFF 		bl	DevICM426xx_Reg_Read
 3054              	.LVL217:
ARM GAS  C:\Users\8bit\AppData\Local\Temp\ccNZMjib.s 			page 81


 602:Device/Dev_ICM426xx.c ****     {
 3055              		.loc 1 602 7 view .LVU1146
 3056 0844 A0B9     		cbnz	r0, .L168
 604:Device/Dev_ICM426xx.c ****         return false;
 3057              		.loc 1 604 9 is_stmt 1 view .LVU1147
 3058              	.LVL218:
 3059              	.LBB148:
 3060              	.LBI148:
  91:common/gen_physic_def/imu_data.h **** {
 3061              		.loc 2 91 13 view .LVU1148
 3062              	.LBB149:
  93:common/gen_physic_def/imu_data.h ****     {
 3063              		.loc 2 93 5 view .LVU1149
  93:common/gen_physic_def/imu_data.h ****     {
 3064              		.loc 2 93 7 is_stmt 0 view .LVU1150
 3065 0846 14F1240F 		cmn	r4, #36
 3066 084a 3FF40CAC 		beq	.L84
  95:common/gen_physic_def/imu_data.h ****         error->function = (char *)func;
 3067              		.loc 2 95 9 is_stmt 1 view .LVU1151
  95:common/gen_physic_def/imu_data.h ****         error->function = (char *)func;
 3068              		.loc 2 95 21 is_stmt 0 view .LVU1152
 3069 084e 0723     		movs	r3, #7
 3070 0850 84F82430 		strb	r3, [r4, #36]
  96:common/gen_physic_def/imu_data.h ****         error->line = line;
 3071              		.loc 2 96 9 is_stmt 1 view .LVU1153
  96:common/gen_physic_def/imu_data.h ****         error->line = line;
 3072              		.loc 2 96 25 is_stmt 0 view .LVU1154
 3073 0854 1C4B     		ldr	r3, .L187
 3074 0856 A362     		str	r3, [r4, #40]
  97:common/gen_physic_def/imu_data.h **** 
 3075              		.loc 2 97 9 is_stmt 1 view .LVU1155
  97:common/gen_physic_def/imu_data.h **** 
 3076              		.loc 2 97 21 is_stmt 0 view .LVU1156
 3077 0858 4FF41773 		mov	r3, #604
 3078 085c A385     		strh	r3, [r4, #44]	@ movhi
  99:common/gen_physic_def/imu_data.h ****         error->reg_r_val = reg_r;
 3079              		.loc 2 99 9 is_stmt 1 view .LVU1157
  99:common/gen_physic_def/imu_data.h ****         error->reg_r_val = reg_r;
 3080              		.loc 2 99 24 is_stmt 0 view .LVU1158
 3081 085e 0023     		movs	r3, #0
 3082 0860 84F82E30 		strb	r3, [r4, #46]
 100:common/gen_physic_def/imu_data.h ****         error->reg_t_val = reg_t;
 3083              		.loc 2 100 9 is_stmt 1 view .LVU1159
 100:common/gen_physic_def/imu_data.h ****         error->reg_t_val = reg_t;
 3084              		.loc 2 100 26 is_stmt 0 view .LVU1160
 3085 0864 84F82F30 		strb	r3, [r4, #47]
 3086              		.loc 2 101 9 is_stmt 1 view .LVU1161
 3087              		.loc 2 101 26 is_stmt 0 view .LVU1162
 3088 0868 84F83030 		strb	r3, [r4, #48]
 3089              	.LVL219:
 3090              		.loc 2 101 26 view .LVU1163
 3091              	.LBE149:
 3092              	.LBE148:
 605:Device/Dev_ICM426xx.c ****     }
 3093              		.loc 1 605 9 is_stmt 1 view .LVU1164
 605:Device/Dev_ICM426xx.c ****     }
 3094              		.loc 1 605 16 is_stmt 0 view .LVU1165
ARM GAS  C:\Users\8bit\AppData\Local\Temp\ccNZMjib.s 			page 82


 3095 086c FFF7FBBB 		b	.L84
 3096              	.L168:
 608:Device/Dev_ICM426xx.c ****     {
 3097              		.loc 1 608 5 is_stmt 1 view .LVU1166
 608:Device/Dev_ICM426xx.c ****     {
 3098              		.loc 1 608 30 is_stmt 0 view .LVU1167
 3099 0870 A37D     		ldrb	r3, [r4, #22]	@ zero_extendqisi2
 608:Device/Dev_ICM426xx.c ****     {
 3100              		.loc 1 608 17 view .LVU1168
 3101 0872 9DF80720 		ldrb	r2, [sp, #7]	@ zero_extendqisi2
 608:Device/Dev_ICM426xx.c ****     {
 3102              		.loc 1 608 7 view .LVU1169
 3103 0876 9342     		cmp	r3, r2
 3104 0878 14D0     		beq	.L170
 610:Device/Dev_ICM426xx.c ****         return false;
 3105              		.loc 1 610 9 is_stmt 1 view .LVU1170
 3106              	.LVL220:
 3107              	.LBB150:
 3108              	.LBI150:
  91:common/gen_physic_def/imu_data.h **** {
 3109              		.loc 2 91 13 view .LVU1171
 3110              	.LBB151:
  93:common/gen_physic_def/imu_data.h ****     {
 3111              		.loc 2 93 5 view .LVU1172
  93:common/gen_physic_def/imu_data.h ****     {
 3112              		.loc 2 93 7 is_stmt 0 view .LVU1173
 3113 087a 14F1240F 		cmn	r4, #36
 3114 087e 0ED0     		beq	.L171
  95:common/gen_physic_def/imu_data.h ****         error->function = (char *)func;
 3115              		.loc 2 95 9 is_stmt 1 view .LVU1174
  95:common/gen_physic_def/imu_data.h ****         error->function = (char *)func;
 3116              		.loc 2 95 21 is_stmt 0 view .LVU1175
 3117 0880 0A21     		movs	r1, #10
 3118 0882 84F82410 		strb	r1, [r4, #36]
  96:common/gen_physic_def/imu_data.h ****         error->line = line;
 3119              		.loc 2 96 9 is_stmt 1 view .LVU1176
  96:common/gen_physic_def/imu_data.h ****         error->line = line;
 3120              		.loc 2 96 25 is_stmt 0 view .LVU1177
 3121 0886 1049     		ldr	r1, .L187
 3122 0888 A162     		str	r1, [r4, #40]
  97:common/gen_physic_def/imu_data.h **** 
 3123              		.loc 2 97 9 is_stmt 1 view .LVU1178
  97:common/gen_physic_def/imu_data.h **** 
 3124              		.loc 2 97 21 is_stmt 0 view .LVU1179
 3125 088a 40F26221 		movw	r1, #610
 3126 088e A185     		strh	r1, [r4, #44]	@ movhi
  99:common/gen_physic_def/imu_data.h ****         error->reg_r_val = reg_r;
 3127              		.loc 2 99 9 is_stmt 1 view .LVU1180
  99:common/gen_physic_def/imu_data.h ****         error->reg_r_val = reg_r;
 3128              		.loc 2 99 24 is_stmt 0 view .LVU1181
 3129 0890 5021     		movs	r1, #80
 3130 0892 84F82E10 		strb	r1, [r4, #46]
 100:common/gen_physic_def/imu_data.h ****         error->reg_t_val = reg_t;
 3131              		.loc 2 100 9 is_stmt 1 view .LVU1182
 100:common/gen_physic_def/imu_data.h ****         error->reg_t_val = reg_t;
 3132              		.loc 2 100 26 is_stmt 0 view .LVU1183
 3133 0896 84F82F20 		strb	r2, [r4, #47]
ARM GAS  C:\Users\8bit\AppData\Local\Temp\ccNZMjib.s 			page 83


 3134              		.loc 2 101 9 is_stmt 1 view .LVU1184
 3135              		.loc 2 101 26 is_stmt 0 view .LVU1185
 3136 089a 84F83030 		strb	r3, [r4, #48]
 3137              	.L171:
 3138              	.LVL221:
 3139              		.loc 2 101 26 view .LVU1186
 3140              	.LBE151:
 3141              	.LBE150:
 611:Device/Dev_ICM426xx.c ****     }
 3142              		.loc 1 611 9 is_stmt 1 view .LVU1187
 611:Device/Dev_ICM426xx.c ****     }
 3143              		.loc 1 611 16 is_stmt 0 view .LVU1188
 3144 089e 0020     		movs	r0, #0
 3145 08a0 FFF7E1BB 		b	.L84
 3146              	.L170:
 614:Device/Dev_ICM426xx.c ****     return true;
 3147              		.loc 1 614 5 is_stmt 1 view .LVU1189
 3148              	.LVL222:
 3149              	.LBB152:
 3150              	.LBI152:
  91:common/gen_physic_def/imu_data.h **** {
 3151              		.loc 2 91 13 view .LVU1190
 3152              	.LBB153:
  93:common/gen_physic_def/imu_data.h ****     {
 3153              		.loc 2 93 5 view .LVU1191
  93:common/gen_physic_def/imu_data.h ****     {
 3154              		.loc 2 93 7 is_stmt 0 view .LVU1192
 3155 08a4 14F1240F 		cmn	r4, #36
 3156 08a8 3FF4DDAB 		beq	.L84
  95:common/gen_physic_def/imu_data.h ****         error->function = (char *)func;
 3157              		.loc 2 95 9 is_stmt 1 view .LVU1193
  95:common/gen_physic_def/imu_data.h ****         error->function = (char *)func;
 3158              		.loc 2 95 21 is_stmt 0 view .LVU1194
 3159 08ac 0023     		movs	r3, #0
 3160 08ae 84F82430 		strb	r3, [r4, #36]
  96:common/gen_physic_def/imu_data.h ****         error->line = line;
 3161              		.loc 2 96 9 is_stmt 1 view .LVU1195
  96:common/gen_physic_def/imu_data.h ****         error->line = line;
 3162              		.loc 2 96 25 is_stmt 0 view .LVU1196
 3163 08b2 064A     		ldr	r2, .L187+4
 3164 08b4 A262     		str	r2, [r4, #40]
  97:common/gen_physic_def/imu_data.h **** 
 3165              		.loc 2 97 9 is_stmt 1 view .LVU1197
  97:common/gen_physic_def/imu_data.h **** 
 3166              		.loc 2 97 21 is_stmt 0 view .LVU1198
 3167 08b6 A385     		strh	r3, [r4, #44]	@ movhi
  99:common/gen_physic_def/imu_data.h ****         error->reg_r_val = reg_r;
 3168              		.loc 2 99 9 is_stmt 1 view .LVU1199
  99:common/gen_physic_def/imu_data.h ****         error->reg_r_val = reg_r;
 3169              		.loc 2 99 24 is_stmt 0 view .LVU1200
 3170 08b8 84F82E30 		strb	r3, [r4, #46]
 100:common/gen_physic_def/imu_data.h ****         error->reg_t_val = reg_t;
 3171              		.loc 2 100 9 is_stmt 1 view .LVU1201
 100:common/gen_physic_def/imu_data.h ****         error->reg_t_val = reg_t;
 3172              		.loc 2 100 26 is_stmt 0 view .LVU1202
 3173 08bc 84F82F30 		strb	r3, [r4, #47]
 3174              		.loc 2 101 9 is_stmt 1 view .LVU1203
ARM GAS  C:\Users\8bit\AppData\Local\Temp\ccNZMjib.s 			page 84


 3175              		.loc 2 101 26 is_stmt 0 view .LVU1204
 3176 08c0 84F83030 		strb	r3, [r4, #48]
 3177 08c4 FFF7CFBB 		b	.L84
 3178              	.L188:
 3179              		.align	2
 3180              	.L187:
 3181 08c8 00000000 		.word	.LANCHOR2
 3182 08cc 00000000 		.word	.LC0
 3183              	.LBE153:
 3184              	.LBE152:
 3185              		.cfi_endproc
 3186              	.LFE10:
 3188              		.section	.text.DevICM426xx_Sample,"ax",%progbits
 3189              		.align	1
 3190              		.syntax unified
 3191              		.thumb
 3192              		.thumb_func
 3194              	DevICM426xx_Sample:
 3195              	.LVL223:
 3196              	.LFB11:
 617:Device/Dev_ICM426xx.c **** 
 618:Device/Dev_ICM426xx.c **** static bool DevICM426xx_Sample(DevICM426xxObj_TypeDef *sensor_obj)
 619:Device/Dev_ICM426xx.c **** {
 3197              		.loc 1 619 1 is_stmt 1 view -0
 3198              		.cfi_startproc
 3199              		@ args = 0, pretend = 0, frame = 32
 3200              		@ frame_needed = 0, uses_anonymous_args = 0
 3201              		.loc 1 619 1 is_stmt 0 view .LVU1206
 3202 0000 F0B5     		push	{r4, r5, r6, r7, lr}
 3203              	.LCFI35:
 3204              		.cfi_def_cfa_offset 20
 3205              		.cfi_offset 4, -20
 3206              		.cfi_offset 5, -16
 3207              		.cfi_offset 6, -12
 3208              		.cfi_offset 7, -8
 3209              		.cfi_offset 14, -4
 3210 0002 8BB0     		sub	sp, sp, #44
 3211              	.LCFI36:
 3212              		.cfi_def_cfa_offset 64
 620:Device/Dev_ICM426xx.c ****     uint8_t Acc_Tx[6] = {0};
 3213              		.loc 1 620 5 is_stmt 1 view .LVU1207
 3214              		.loc 1 620 13 is_stmt 0 view .LVU1208
 3215 0004 0023     		movs	r3, #0
 3216 0006 0893     		str	r3, [sp, #32]
 3217 0008 ADF82430 		strh	r3, [sp, #36]	@ movhi
 621:Device/Dev_ICM426xx.c ****     uint8_t Gyr_Tx[6] = {0};
 3218              		.loc 1 621 5 is_stmt 1 view .LVU1209
 3219              		.loc 1 621 13 is_stmt 0 view .LVU1210
 3220 000c 0693     		str	r3, [sp, #24]
 3221 000e ADF81C30 		strh	r3, [sp, #28]	@ movhi
 622:Device/Dev_ICM426xx.c ****     uint8_t Rx[12] = {0};
 3222              		.loc 1 622 5 is_stmt 1 view .LVU1211
 3223              		.loc 1 622 13 is_stmt 0 view .LVU1212
 3224 0012 0393     		str	r3, [sp, #12]
 3225 0014 0493     		str	r3, [sp, #16]
 3226 0016 0593     		str	r3, [sp, #20]
 623:Device/Dev_ICM426xx.c **** 
ARM GAS  C:\Users\8bit\AppData\Local\Temp\ccNZMjib.s 			page 85


 624:Device/Dev_ICM426xx.c ****     if ((sensor_obj->error.code == ICM426xx_No_Error) && (sensor_obj->drdy))
 3227              		.loc 1 624 5 is_stmt 1 view .LVU1213
 3228              		.loc 1 624 27 is_stmt 0 view .LVU1214
 3229 0018 90F82450 		ldrb	r5, [r0, #36]	@ zero_extendqisi2
 3230              		.loc 1 624 8 view .LVU1215
 3231 001c 002D     		cmp	r5, #0
 3232 001e 66D1     		bne	.L193
 3233 0020 0446     		mov	r4, r0
 3234              		.loc 1 624 69 discriminator 1 view .LVU1216
 3235 0022 067D     		ldrb	r6, [r0, #20]	@ zero_extendqisi2
 3236              		.loc 1 624 55 discriminator 1 view .LVU1217
 3237 0024 002E     		cmp	r6, #0
 3238 0026 63D0     		beq	.L190
 625:Device/Dev_ICM426xx.c ****     {
 626:Device/Dev_ICM426xx.c ****         sensor_obj->OriData.time_stamp = sensor_obj->get_timestamp();
 3239              		.loc 1 626 9 is_stmt 1 view .LVU1218
 3240              		.loc 1 626 52 is_stmt 0 view .LVU1219
 3241 0028 0369     		ldr	r3, [r0, #16]
 3242              		.loc 1 626 42 view .LVU1220
 3243 002a 9847     		blx	r3
 3244              	.LVL224:
 3245              		.loc 1 626 40 view .LVU1221
 3246 002c C4F83500 		str	r0, [r4, #53]	@ unaligned
 627:Device/Dev_ICM426xx.c **** 
 628:Device/Dev_ICM426xx.c ****         DevICM426xx_Regs_Read(sensor_obj, ICM426XX_RA_ACCEL_DATA_X1, Acc_Tx, Rx, 6);
 3247              		.loc 1 628 9 is_stmt 1 view .LVU1222
 3248 0030 0627     		movs	r7, #6
 3249 0032 0097     		str	r7, [sp]
 3250 0034 03AB     		add	r3, sp, #12
 3251 0036 08AA     		add	r2, sp, #32
 3252 0038 1F21     		movs	r1, #31
 3253 003a 2046     		mov	r0, r4
 3254 003c FFF7FEFF 		bl	DevICM426xx_Regs_Read
 3255              	.LVL225:
 629:Device/Dev_ICM426xx.c ****         DevICM426xx_Regs_Read(sensor_obj, ICM426XX_RA_GYRO_DATA_X1, Gyr_Tx, (Rx + 6), 6);
 3256              		.loc 1 629 9 view .LVU1223
 3257 0040 0097     		str	r7, [sp]
 3258 0042 0DF11203 		add	r3, sp, #18
 3259 0046 06AA     		add	r2, sp, #24
 3260 0048 2521     		movs	r1, #37
 3261 004a 2046     		mov	r0, r4
 3262 004c FFF7FEFF 		bl	DevICM426xx_Regs_Read
 3263              	.LVL226:
 630:Device/Dev_ICM426xx.c **** 
 631:Device/Dev_ICM426xx.c ****         for (uint8_t axis = Axis_X; axis < Axis_Sum; axis++)
 3264              		.loc 1 631 9 view .LVU1224
 3265              	.LBB154:
 3266              		.loc 1 631 14 view .LVU1225
 3267              		.loc 1 631 9 is_stmt 0 view .LVU1226
 3268 0050 44E0     		b	.L191
 3269              	.LVL227:
 3270              	.L192:
 632:Device/Dev_ICM426xx.c ****         {
 633:Device/Dev_ICM426xx.c ****             sensor_obj->OriData.acc_int[axis] = (int16_t)((Rx[axis * 2] << 8) | Rx[axis * 2 + 1]);
 3271              		.loc 1 633 13 is_stmt 1 discriminator 3 view .LVU1227
 3272              		.loc 1 633 68 is_stmt 0 discriminator 3 view .LVU1228
 3273 0052 6900     		lsls	r1, r5, #1
ARM GAS  C:\Users\8bit\AppData\Local\Temp\ccNZMjib.s 			page 86


 3274              		.loc 1 633 62 discriminator 3 view .LVU1229
 3275 0054 0AAB     		add	r3, sp, #40
 3276 0056 03EB4503 		add	r3, r3, r5, lsl #1
 3277 005a 13F81C0C 		ldrb	r0, [r3, #-28]	@ zero_extendqisi2
 3278              		.loc 1 633 83 discriminator 3 view .LVU1230
 3279 005e 01F12903 		add	r3, r1, #41
 3280 0062 6B44     		add	r3, sp, r3
 3281 0064 13F81C2C 		ldrb	r2, [r3, #-28]	@ zero_extendqisi2
 3282              		.loc 1 633 49 discriminator 3 view .LVU1231
 3283 0068 42EA0022 		orr	r2, r2, r0, lsl #8
 3284 006c 12B2     		sxth	r2, r2
 3285              		.loc 1 633 47 discriminator 3 view .LVU1232
 3286 006e 05F11C03 		add	r3, r5, #28
 3287 0072 04EB4303 		add	r3, r4, r3, lsl #1
 3288 0076 5A81     		strh	r2, [r3, #10]	@ movhi
 634:Device/Dev_ICM426xx.c ****             sensor_obj->OriData.gyr_int[axis] = (int16_t)((Rx[axis * 2 + 6] << 8) | Rx[axis * 2 + 7
 3289              		.loc 1 634 13 is_stmt 1 discriminator 3 view .LVU1233
 3290              		.loc 1 634 72 is_stmt 0 discriminator 3 view .LVU1234
 3291 0078 EB1C     		adds	r3, r5, #3
 3292              		.loc 1 634 62 discriminator 3 view .LVU1235
 3293 007a 0AA8     		add	r0, sp, #40
 3294 007c 00EB4303 		add	r3, r0, r3, lsl #1
 3295 0080 13F81C0C 		ldrb	r0, [r3, #-28]	@ zero_extendqisi2
 3296              		.loc 1 634 87 discriminator 3 view .LVU1236
 3297 0084 01F12F03 		add	r3, r1, #47
 3298 0088 0DEB0301 		add	r1, sp, r3
 3299 008c 11F81C3C 		ldrb	r3, [r1, #-28]	@ zero_extendqisi2
 3300              		.loc 1 634 49 discriminator 3 view .LVU1237
 3301 0090 43EA0023 		orr	r3, r3, r0, lsl #8
 3302 0094 1BB2     		sxth	r3, r3
 3303              		.loc 1 634 47 discriminator 3 view .LVU1238
 3304 0096 05F11801 		add	r1, r5, #24
 3305 009a 04EB4101 		add	r1, r4, r1, lsl #1
 3306 009e 8B81     		strh	r3, [r1, #12]	@ movhi
 635:Device/Dev_ICM426xx.c **** 
 636:Device/Dev_ICM426xx.c ****             /* convert int data to float */
 637:Device/Dev_ICM426xx.c ****             sensor_obj->OriData.acc_flt[axis] = ((float)sensor_obj->OriData.acc_int[axis] / sensor_
 3307              		.loc 1 637 13 is_stmt 1 discriminator 3 view .LVU1239
 3308              		.loc 1 637 50 is_stmt 0 discriminator 3 view .LVU1240
 3309 00a0 07EE902A 		vmov	s15, r2	@ int
 3310 00a4 F8EEE77A 		vcvt.f32.s32	s15, s15
 3311              		.loc 1 637 103 discriminator 3 view .LVU1241
 3312 00a8 D4ED076A 		vldr.32	s13, [r4, #28]
 3313              		.loc 1 637 91 discriminator 3 view .LVU1242
 3314 00ac 87EEA67A 		vdiv.f32	s14, s15, s13
 3315              		.loc 1 637 47 discriminator 3 view .LVU1243
 3316 00b0 05F11402 		add	r2, r5, #20
 3317 00b4 04EB8202 		add	r2, r4, r2, lsl #2
 3318 00b8 82ED027A 		vstr.32	s14, [r2, #8]
 638:Device/Dev_ICM426xx.c ****             sensor_obj->OriData.gyr_flt[axis] = ((float)sensor_obj->OriData.gyr_int[axis] / sensor_
 3319              		.loc 1 638 13 is_stmt 1 discriminator 3 view .LVU1244
 3320              		.loc 1 638 50 is_stmt 0 discriminator 3 view .LVU1245
 3321 00bc 07EE903A 		vmov	s15, r3	@ int
 3322 00c0 F8EEE77A 		vcvt.f32.s32	s15, s15
 3323              		.loc 1 638 103 discriminator 3 view .LVU1246
 3324 00c4 D4ED086A 		vldr.32	s13, [r4, #32]
 3325              		.loc 1 638 91 discriminator 3 view .LVU1247
ARM GAS  C:\Users\8bit\AppData\Local\Temp\ccNZMjib.s 			page 87


 3326 00c8 87EEA67A 		vdiv.f32	s14, s15, s13
 3327              		.loc 1 638 47 discriminator 3 view .LVU1248
 3328 00cc 05F11003 		add	r3, r5, #16
 3329 00d0 04EB8303 		add	r3, r4, r3, lsl #2
 3330 00d4 83ED037A 		vstr.32	s14, [r3, #12]
 631:Device/Dev_ICM426xx.c ****         {
 3331              		.loc 1 631 54 is_stmt 1 discriminator 3 view .LVU1249
 631:Device/Dev_ICM426xx.c ****         {
 3332              		.loc 1 631 58 is_stmt 0 discriminator 3 view .LVU1250
 3333 00d8 0135     		adds	r5, r5, #1
 3334              	.LVL228:
 631:Device/Dev_ICM426xx.c ****         {
 3335              		.loc 1 631 58 discriminator 3 view .LVU1251
 3336 00da EDB2     		uxtb	r5, r5
 3337              	.LVL229:
 3338              	.L191:
 631:Device/Dev_ICM426xx.c ****         {
 3339              		.loc 1 631 37 is_stmt 1 discriminator 1 view .LVU1252
 631:Device/Dev_ICM426xx.c ****         {
 3340              		.loc 1 631 9 is_stmt 0 discriminator 1 view .LVU1253
 3341 00dc 022D     		cmp	r5, #2
 3342 00de B8D9     		bls	.L192
 3343              	.LBE154:
 639:Device/Dev_ICM426xx.c ****         }
 640:Device/Dev_ICM426xx.c **** 
 641:Device/Dev_ICM426xx.c ****         sensor_obj->OriData.time_stamp = sensor_obj->get_timestamp();
 3344              		.loc 1 641 9 is_stmt 1 view .LVU1254
 3345              		.loc 1 641 52 is_stmt 0 view .LVU1255
 3346 00e0 2369     		ldr	r3, [r4, #16]
 3347              		.loc 1 641 42 view .LVU1256
 3348 00e2 9847     		blx	r3
 3349              	.LVL230:
 3350              		.loc 1 641 40 view .LVU1257
 3351 00e4 C4F83500 		str	r0, [r4, #53]	@ unaligned
 642:Device/Dev_ICM426xx.c ****         sensor_obj->drdy = false;
 3352              		.loc 1 642 9 is_stmt 1 view .LVU1258
 3353              		.loc 1 642 26 is_stmt 0 view .LVU1259
 3354 00e8 0023     		movs	r3, #0
 3355 00ea 2375     		strb	r3, [r4, #20]
 643:Device/Dev_ICM426xx.c ****         return true;
 3356              		.loc 1 643 9 is_stmt 1 view .LVU1260
 3357              		.loc 1 643 16 is_stmt 0 view .LVU1261
 3358 00ec 00E0     		b	.L190
 3359              	.LVL231:
 3360              	.L193:
 644:Device/Dev_ICM426xx.c ****     }
 645:Device/Dev_ICM426xx.c **** 
 646:Device/Dev_ICM426xx.c ****     return false;
 3361              		.loc 1 646 12 view .LVU1262
 3362 00ee 0026     		movs	r6, #0
 3363              	.LVL232:
 3364              	.L190:
 647:Device/Dev_ICM426xx.c **** }
 3365              		.loc 1 647 1 view .LVU1263
 3366 00f0 3046     		mov	r0, r6
 3367 00f2 0BB0     		add	sp, sp, #44
 3368              	.LCFI37:
ARM GAS  C:\Users\8bit\AppData\Local\Temp\ccNZMjib.s 			page 88


 3369              		.cfi_def_cfa_offset 20
 3370              		@ sp needed
 3371 00f4 F0BD     		pop	{r4, r5, r6, r7, pc}
 3372              		.cfi_endproc
 3373              	.LFE11:
 3375              		.section	.text.DevICM426xx_SetDRDY,"ax",%progbits
 3376              		.align	1
 3377              		.syntax unified
 3378              		.thumb
 3379              		.thumb_func
 3381              	DevICM426xx_SetDRDY:
 3382              	.LVL233:
 3383              	.LFB12:
 648:Device/Dev_ICM426xx.c **** 
 649:Device/Dev_ICM426xx.c **** static void DevICM426xx_SetDRDY(DevICM426xxObj_TypeDef *sensor_obj)
 650:Device/Dev_ICM426xx.c **** {
 3384              		.loc 1 650 1 is_stmt 1 view -0
 3385              		.cfi_startproc
 3386              		@ args = 0, pretend = 0, frame = 0
 3387              		@ frame_needed = 0, uses_anonymous_args = 0
 3388              		@ link register save eliminated.
 651:Device/Dev_ICM426xx.c ****     if(sensor_obj)
 3389              		.loc 1 651 5 view .LVU1265
 3390              		.loc 1 651 7 is_stmt 0 view .LVU1266
 3391 0000 08B1     		cbz	r0, .L195
 652:Device/Dev_ICM426xx.c ****         sensor_obj->drdy = true;
 3392              		.loc 1 652 9 is_stmt 1 view .LVU1267
 3393              		.loc 1 652 26 is_stmt 0 view .LVU1268
 3394 0002 0122     		movs	r2, #1
 3395 0004 0275     		strb	r2, [r0, #20]
 3396              	.L195:
 653:Device/Dev_ICM426xx.c **** }
 3397              		.loc 1 653 1 view .LVU1269
 3398 0006 7047     		bx	lr
 3399              		.cfi_endproc
 3400              	.LFE12:
 3402              		.section	.text.DevICM426xx_GetDRDY,"ax",%progbits
 3403              		.align	1
 3404              		.syntax unified
 3405              		.thumb
 3406              		.thumb_func
 3408              	DevICM426xx_GetDRDY:
 3409              	.LVL234:
 3410              	.LFB13:
 654:Device/Dev_ICM426xx.c **** 
 655:Device/Dev_ICM426xx.c **** static bool DevICM426xx_GetDRDY(DevICM426xxObj_TypeDef *sensor_obj)
 656:Device/Dev_ICM426xx.c **** {
 3411              		.loc 1 656 1 is_stmt 1 view -0
 3412              		.cfi_startproc
 3413              		@ args = 0, pretend = 0, frame = 0
 3414              		@ frame_needed = 0, uses_anonymous_args = 0
 3415              		@ link register save eliminated.
 657:Device/Dev_ICM426xx.c ****     if(!sensor_obj)
 3416              		.loc 1 657 5 view .LVU1271
 3417              		.loc 1 657 7 is_stmt 0 view .LVU1272
 3418 0000 08B1     		cbz	r0, .L199
 658:Device/Dev_ICM426xx.c ****         return false;
ARM GAS  C:\Users\8bit\AppData\Local\Temp\ccNZMjib.s 			page 89


 659:Device/Dev_ICM426xx.c ****     
 660:Device/Dev_ICM426xx.c ****     return sensor_obj->drdy;
 3419              		.loc 1 660 5 is_stmt 1 view .LVU1273
 3420              		.loc 1 660 22 is_stmt 0 view .LVU1274
 3421 0002 007D     		ldrb	r0, [r0, #20]	@ zero_extendqisi2
 3422              	.LVL235:
 3423              		.loc 1 660 22 view .LVU1275
 3424 0004 7047     		bx	lr
 3425              	.LVL236:
 3426              	.L199:
 658:Device/Dev_ICM426xx.c ****         return false;
 3427              		.loc 1 658 16 view .LVU1276
 3428 0006 0020     		movs	r0, #0
 3429              	.LVL237:
 661:Device/Dev_ICM426xx.c **** }
 3430              		.loc 1 661 1 view .LVU1277
 3431 0008 7047     		bx	lr
 3432              		.cfi_endproc
 3433              	.LFE13:
 3435              		.section	.text.DevICM426xx_GetError,"ax",%progbits
 3436              		.align	1
 3437              		.syntax unified
 3438              		.thumb
 3439              		.thumb_func
 3441              	DevICM426xx_GetError:
 3442              	.LVL238:
 3443              	.LFB14:
 662:Device/Dev_ICM426xx.c **** 
 663:Device/Dev_ICM426xx.c **** static IMU_Error_TypeDef DevICM426xx_GetError(DevICM426xxObj_TypeDef *sensor_obj)
 664:Device/Dev_ICM426xx.c **** {
 3444              		.loc 1 664 1 is_stmt 1 view -0
 3445              		.cfi_startproc
 3446              		@ args = 0, pretend = 0, frame = 0
 3447              		@ frame_needed = 0, uses_anonymous_args = 0
 3448              		@ link register save eliminated.
 3449              		.loc 1 664 1 is_stmt 0 view .LVU1279
 3450 0000 8446     		mov	ip, r0
 665:Device/Dev_ICM426xx.c ****     return sensor_obj->error;
 3451              		.loc 1 665 5 is_stmt 1 view .LVU1280
 3452              		.loc 1 665 22 is_stmt 0 view .LVU1281
 3453 0002 2431     		adds	r1, r1, #36
 3454              	.LVL239:
 3455              		.loc 1 665 22 view .LVU1282
 3456 0004 0FC9     		ldm	r1, {r0, r1, r2, r3}
 3457              	.LVL240:
 3458              		.loc 1 665 22 view .LVU1283
 3459 0006 8CE80F00 		stm	ip, {r0, r1, r2, r3}
 666:Device/Dev_ICM426xx.c **** }
 3460              		.loc 1 666 1 view .LVU1284
 3461 000a 6046     		mov	r0, ip
 3462 000c 7047     		bx	lr
 3463              		.cfi_endproc
 3464              	.LFE14:
 3466              		.section	.text.DevICM426xx_Get_Scale,"ax",%progbits
 3467              		.align	1
 3468              		.syntax unified
 3469              		.thumb
ARM GAS  C:\Users\8bit\AppData\Local\Temp\ccNZMjib.s 			page 90


 3470              		.thumb_func
 3472              	DevICM426xx_Get_Scale:
 3473              	.LVL241:
 3474              	.LFB16:
 667:Device/Dev_ICM426xx.c **** 
 668:Device/Dev_ICM426xx.c **** static IMUData_TypeDef DevICM426xx_Get_Data(DevICM426xxObj_TypeDef *sensor_obj)
 669:Device/Dev_ICM426xx.c **** {
 670:Device/Dev_ICM426xx.c ****     IMUData_TypeDef tmp;
 671:Device/Dev_ICM426xx.c **** 
 672:Device/Dev_ICM426xx.c ****     memset(&tmp, 0, sizeof(tmp));
 673:Device/Dev_ICM426xx.c ****     if (sensor_obj->error.code == ICM426xx_No_Error)
 674:Device/Dev_ICM426xx.c ****         return sensor_obj->OriData;
 675:Device/Dev_ICM426xx.c **** 
 676:Device/Dev_ICM426xx.c ****     return tmp;
 677:Device/Dev_ICM426xx.c **** }
 678:Device/Dev_ICM426xx.c **** 
 679:Device/Dev_ICM426xx.c **** static IMUModuleScale_TypeDef DevICM426xx_Get_Scale(const DevICM426xxObj_TypeDef *sensor_obj)
 680:Device/Dev_ICM426xx.c **** {
 3475              		.loc 1 680 1 is_stmt 1 view -0
 3476              		.cfi_startproc
 3477              		@ args = 0, pretend = 0, frame = 24
 3478              		@ frame_needed = 0, uses_anonymous_args = 0
 3479              		@ link register save eliminated.
 3480              		.loc 1 680 1 is_stmt 0 view .LVU1286
 3481 0000 86B0     		sub	sp, sp, #24
 3482              	.LCFI38:
 3483              		.cfi_def_cfa_offset 24
 681:Device/Dev_ICM426xx.c ****     IMUModuleScale_TypeDef scale_tmp;
 3484              		.loc 1 681 5 is_stmt 1 view .LVU1287
 682:Device/Dev_ICM426xx.c **** 
 683:Device/Dev_ICM426xx.c ****     scale_tmp.acc_scale = sensor_obj->acc_scale;
 3485              		.loc 1 683 5 view .LVU1288
 3486              		.loc 1 683 37 is_stmt 0 view .LVU1289
 3487 0002 C369     		ldr	r3, [r0, #28]	@ float
 3488              		.loc 1 683 25 view .LVU1290
 3489 0004 0293     		str	r3, [sp, #8]	@ float
 684:Device/Dev_ICM426xx.c ****     scale_tmp.gyr_scale = sensor_obj->gyr_scale;
 3490              		.loc 1 684 5 is_stmt 1 view .LVU1291
 3491              		.loc 1 684 37 is_stmt 0 view .LVU1292
 3492 0006 036A     		ldr	r3, [r0, #32]	@ float
 3493              		.loc 1 684 25 view .LVU1293
 3494 0008 0393     		str	r3, [sp, #12]	@ float
 685:Device/Dev_ICM426xx.c **** 
 686:Device/Dev_ICM426xx.c ****     return scale_tmp;
 3495              		.loc 1 686 5 is_stmt 1 view .LVU1294
 3496              		.loc 1 686 12 is_stmt 0 view .LVU1295
 3497 000a 02AB     		add	r3, sp, #8
 3498 000c 93E80300 		ldm	r3, {r0, r1}
 3499              	.LVL242:
 3500              		.loc 1 686 12 view .LVU1296
 3501 0010 06AB     		add	r3, sp, #24
 3502 0012 03E90300 		stmdb	r3, {r0, r1}
 687:Device/Dev_ICM426xx.c **** }
 3503              		.loc 1 687 1 view .LVU1297
 3504 0016 9DED040A 		vldr.32	s0, [sp, #16]
 3505 001a DDED050A 		vldr.32	s1, [sp, #20]
 3506 001e 06B0     		add	sp, sp, #24
ARM GAS  C:\Users\8bit\AppData\Local\Temp\ccNZMjib.s 			page 91


 3507              	.LCFI39:
 3508              		.cfi_def_cfa_offset 0
 3509              		@ sp needed
 3510 0020 7047     		bx	lr
 3511              		.cfi_endproc
 3512              	.LFE16:
 3514              		.section	.text.DevICM426xx_Get_Specified_AngularSpeed_Diff,"ax",%progbits
 3515              		.align	1
 3516              		.syntax unified
 3517              		.thumb
 3518              		.thumb_func
 3520              	DevICM426xx_Get_Specified_AngularSpeed_Diff:
 3521              	.LVL243:
 3522              	.LFB17:
 688:Device/Dev_ICM426xx.c **** 
 689:Device/Dev_ICM426xx.c **** /* specified anguler speed per millsecond */
 690:Device/Dev_ICM426xx.c **** static float DevICM426xx_Get_Specified_AngularSpeed_Diff(const DevICM426xxObj_TypeDef *sensor_obj)
 691:Device/Dev_ICM426xx.c **** {
 3523              		.loc 1 691 1 is_stmt 1 view -0
 3524              		.cfi_startproc
 3525              		@ args = 0, pretend = 0, frame = 0
 3526              		@ frame_needed = 0, uses_anonymous_args = 0
 3527              		@ link register save eliminated.
 692:Device/Dev_ICM426xx.c ****     return sensor_obj->PHY_GyrTrip_Val / 1000.0f;
 3528              		.loc 1 692 5 view .LVU1299
 3529              		.loc 1 692 22 is_stmt 0 view .LVU1300
 3530 0000 438B     		ldrh	r3, [r0, #26]
 3531 0002 07EE903A 		vmov	s15, r3	@ int
 3532              		.loc 1 692 40 view .LVU1301
 3533 0006 F8EEE77A 		vcvt.f32.s32	s15, s15
 693:Device/Dev_ICM426xx.c **** }
 3534              		.loc 1 693 1 view .LVU1302
 3535 000a 9FED020A 		vldr.32	s0, .L204
 3536 000e 87EE800A 		vdiv.f32	s0, s15, s0
 3537 0012 7047     		bx	lr
 3538              	.L205:
 3539              		.align	2
 3540              	.L204:
 3541 0014 00007A44 		.word	1148846080
 3542              		.cfi_endproc
 3543              	.LFE17:
 3545              		.section	.text.DevICM426xx_Get_Data,"ax",%progbits
 3546              		.align	1
 3547              		.syntax unified
 3548              		.thumb
 3549              		.thumb_func
 3551              	DevICM426xx_Get_Data:
 3552              	.LVL244:
 3553              	.LFB15:
 669:Device/Dev_ICM426xx.c ****     IMUData_TypeDef tmp;
 3554              		.loc 1 669 1 is_stmt 1 view -0
 3555              		.cfi_startproc
 3556              		@ args = 0, pretend = 0, frame = 72
 3557              		@ frame_needed = 0, uses_anonymous_args = 0
 669:Device/Dev_ICM426xx.c ****     IMUData_TypeDef tmp;
 3558              		.loc 1 669 1 is_stmt 0 view .LVU1304
 3559 0000 30B5     		push	{r4, r5, lr}
ARM GAS  C:\Users\8bit\AppData\Local\Temp\ccNZMjib.s 			page 92


 3560              	.LCFI40:
 3561              		.cfi_def_cfa_offset 12
 3562              		.cfi_offset 4, -12
 3563              		.cfi_offset 5, -8
 3564              		.cfi_offset 14, -4
 3565 0002 93B0     		sub	sp, sp, #76
 3566              	.LCFI41:
 3567              		.cfi_def_cfa_offset 88
 3568 0004 0446     		mov	r4, r0
 3569 0006 0D46     		mov	r5, r1
 670:Device/Dev_ICM426xx.c **** 
 3570              		.loc 1 670 5 is_stmt 1 view .LVU1305
 672:Device/Dev_ICM426xx.c ****     if (sensor_obj->error.code == ICM426xx_No_Error)
 3571              		.loc 1 672 5 view .LVU1306
 3572 0008 4722     		movs	r2, #71
 3573 000a 0021     		movs	r1, #0
 3574              	.LVL245:
 672:Device/Dev_ICM426xx.c ****     if (sensor_obj->error.code == ICM426xx_No_Error)
 3575              		.loc 1 672 5 is_stmt 0 view .LVU1307
 3576 000c 6846     		mov	r0, sp
 3577              	.LVL246:
 672:Device/Dev_ICM426xx.c ****     if (sensor_obj->error.code == ICM426xx_No_Error)
 3578              		.loc 1 672 5 view .LVU1308
 3579 000e FFF7FEFF 		bl	memset
 3580              	.LVL247:
 673:Device/Dev_ICM426xx.c ****         return sensor_obj->OriData;
 3581              		.loc 1 673 5 is_stmt 1 view .LVU1309
 673:Device/Dev_ICM426xx.c ****         return sensor_obj->OriData;
 3582              		.loc 1 673 26 is_stmt 0 view .LVU1310
 3583 0012 95F82430 		ldrb	r3, [r5, #36]	@ zero_extendqisi2
 673:Device/Dev_ICM426xx.c ****         return sensor_obj->OriData;
 3584              		.loc 1 673 8 view .LVU1311
 3585 0016 3BB1     		cbz	r3, .L210
 676:Device/Dev_ICM426xx.c **** }
 3586              		.loc 1 676 5 is_stmt 1 view .LVU1312
 676:Device/Dev_ICM426xx.c **** }
 3587              		.loc 1 676 12 is_stmt 0 view .LVU1313
 3588 0018 4722     		movs	r2, #71
 3589 001a 0021     		movs	r1, #0
 3590 001c 2046     		mov	r0, r4
 3591 001e FFF7FEFF 		bl	memset
 3592              	.LVL248:
 3593              	.L206:
 677:Device/Dev_ICM426xx.c **** 
 3594              		.loc 1 677 1 view .LVU1314
 3595 0022 2046     		mov	r0, r4
 3596 0024 13B0     		add	sp, sp, #76
 3597              	.LCFI42:
 3598              		.cfi_remember_state
 3599              		.cfi_def_cfa_offset 12
 3600              		@ sp needed
 3601 0026 30BD     		pop	{r4, r5, pc}
 3602              	.LVL249:
 3603              	.L210:
 3604              	.LCFI43:
 3605              		.cfi_restore_state
 674:Device/Dev_ICM426xx.c **** 
ARM GAS  C:\Users\8bit\AppData\Local\Temp\ccNZMjib.s 			page 93


 3606              		.loc 1 674 9 is_stmt 1 view .LVU1315
 674:Device/Dev_ICM426xx.c **** 
 3607              		.loc 1 674 26 is_stmt 0 view .LVU1316
 3608 0028 4722     		movs	r2, #71
 3609 002a 05F13501 		add	r1, r5, #53
 3610 002e 2046     		mov	r0, r4
 3611 0030 FFF7FEFF 		bl	memcpy
 3612              	.LVL250:
 3613 0034 F5E7     		b	.L206
 3614              		.cfi_endproc
 3615              	.LFE15:
 3617              		.global	DevICM426xx
 3618              		.section	.data.DevICM426xx,"aw"
 3619              		.align	2
 3622              	DevICM426xx:
 3623 0000 00000000 		.word	DevICM426xx_Detect
 3624 0004 00000000 		.word	DevICM426xx_Config
 3625 0008 00000000 		.word	DevICM426xx_PreInit
 3626 000c 00000000 		.word	DevICM426xx_Init
 3627 0010 00000000 		.word	DevICM426xx_SetDRDY
 3628 0014 00000000 		.word	DevICM426xx_GetDRDY
 3629 0018 00000000 		.word	DevICM426xx_Sample
 3630 001c 00000000 		.word	DevICM426xx_GetError
 3631 0020 00000000 		.word	DevICM426xx_Get_Data
 3632 0024 00000000 		.word	DevICM426xx_Get_Scale
 3633 0028 00000000 		.word	DevICM426xx_Get_Specified_AngularSpeed_Diff
 3634              		.section	.data.aafLUT42605,"aw"
 3635              		.align	2
 3636              		.set	.LANCHOR0,. + 0
 3639              	aafLUT42605:
 3640 0000 15       		.byte	21
 3641 0001 00       		.space	1
 3642 0002 B801     		.short	440
 3643 0004 06       		.byte	6
 3644 0005 00       		.space	1
 3645 0006 27       		.byte	39
 3646 0007 00       		.space	1
 3647 0008 0006     		.short	1536
 3648 000a 04       		.byte	4
 3649 000b 00       		.space	1
 3650 000c 3F       		.byte	63
 3651 000d 00       		.space	1
 3652 000e 800F     		.short	3968
 3653 0010 03       		.byte	3
 3654 0011 00       		.space	1
 3655 0012 3F       		.byte	63
 3656 0013 00       		.space	1
 3657 0014 800F     		.short	3968
 3658 0016 03       		.byte	3
 3659 0017 00       		.space	1
 3660              		.section	.data.aafLUT42688,"aw"
 3661              		.align	2
 3662              		.set	.LANCHOR1,. + 0
 3665              	aafLUT42688:
 3666 0000 06       		.byte	6
 3667 0001 00       		.space	1
 3668 0002 2400     		.short	36
ARM GAS  C:\Users\8bit\AppData\Local\Temp\ccNZMjib.s 			page 94


 3669 0004 0A       		.byte	10
 3670 0005 00       		.space	1
 3671 0006 0C       		.byte	12
 3672 0007 00       		.space	1
 3673 0008 9000     		.short	144
 3674 000a 08       		.byte	8
 3675 000b 00       		.space	1
 3676 000c 15       		.byte	21
 3677 000d 00       		.space	1
 3678 000e B801     		.short	440
 3679 0010 06       		.byte	6
 3680 0011 00       		.space	1
 3681 0012 25       		.byte	37
 3682 0013 00       		.space	1
 3683 0014 6005     		.short	1376
 3684 0016 04       		.byte	4
 3685 0017 00       		.space	1
 3686              		.section	.rodata.__FUNCTION__.0,"a"
 3687              		.align	2
 3688              		.set	.LANCHOR2,. + 0
 3691              	__FUNCTION__.0:
 3692 0000 44657649 		.ascii	"DevICM426xx_Init\000"
 3692      434D3432 
 3692      3678785F 
 3692      496E6974 
 3692      00
 3693              		.text
 3694              	.Letext0:
 3695              		.file 3 "c:\\program files (x86)\\gnu arm embedded toolchain\\10 2021.10\\arm-none-eabi\\include\\
 3696              		.file 4 "c:\\program files (x86)\\gnu arm embedded toolchain\\10 2021.10\\arm-none-eabi\\include\\
 3697              		.file 5 "Device/Dev_ICM426xx.h"
 3698              		.file 6 "<built-in>"
ARM GAS  C:\Users\8bit\AppData\Local\Temp\ccNZMjib.s 			page 95


DEFINED SYMBOLS
                            *ABS*:00000000 Dev_ICM426xx.c
C:\Users\8bit\AppData\Local\Temp\ccNZMjib.s:20     .text.DevICM426xx_Detect:00000000 $t
C:\Users\8bit\AppData\Local\Temp\ccNZMjib.s:25     .text.DevICM426xx_Detect:00000000 DevICM426xx_Detect
C:\Users\8bit\AppData\Local\Temp\ccNZMjib.s:137    .text.DevICM426xx_Regs_Read:00000000 $t
C:\Users\8bit\AppData\Local\Temp\ccNZMjib.s:142    .text.DevICM426xx_Regs_Read:00000000 DevICM426xx_Regs_Read
C:\Users\8bit\AppData\Local\Temp\ccNZMjib.s:259    .text.DevICM426xx_Reg_Read:00000000 $t
C:\Users\8bit\AppData\Local\Temp\ccNZMjib.s:264    .text.DevICM426xx_Reg_Read:00000000 DevICM426xx_Reg_Read
C:\Users\8bit\AppData\Local\Temp\ccNZMjib.s:371    .text.DevICM426xx_Reg_Write:00000000 $t
C:\Users\8bit\AppData\Local\Temp\ccNZMjib.s:376    .text.DevICM426xx_Reg_Write:00000000 DevICM426xx_Reg_Write
C:\Users\8bit\AppData\Local\Temp\ccNZMjib.s:473    .text.DevICM426xx_Config:00000000 $t
C:\Users\8bit\AppData\Local\Temp\ccNZMjib.s:478    .text.DevICM426xx_Config:00000000 DevICM426xx_Config
C:\Users\8bit\AppData\Local\Temp\ccNZMjib.s:505    .text.DevICM426xx_Config:00000014 $d
C:\Users\8bit\AppData\Local\Temp\ccNZMjib.s:509    .text.DevICM426xx_Config:00000018 $t
C:\Users\8bit\AppData\Local\Temp\ccNZMjib.s:523    .text.DevICM426xx_Config:00000026 $d
C:\Users\8bit\AppData\Local\Temp\ccNZMjib.s:527    .text.DevICM426xx_Config:0000002a $t
C:\Users\8bit\AppData\Local\Temp\ccNZMjib.s:565    .text.DevICM426xx_Config:0000004c $d
C:\Users\8bit\AppData\Local\Temp\ccNZMjib.s:569    .text.DevICM426xx_Config:00000050 $t
C:\Users\8bit\AppData\Local\Temp\ccNZMjib.s:706    .text.DevICM426xx_Config:000000ec $d
C:\Users\8bit\AppData\Local\Temp\ccNZMjib.s:714    .text.DevICM426xx_PreInit:00000000 $t
C:\Users\8bit\AppData\Local\Temp\ccNZMjib.s:719    .text.DevICM426xx_PreInit:00000000 DevICM426xx_PreInit
C:\Users\8bit\AppData\Local\Temp\ccNZMjib.s:748    .text.DevICM426xx_SetUserBank:00000000 $t
C:\Users\8bit\AppData\Local\Temp\ccNZMjib.s:753    .text.DevICM426xx_SetUserBank:00000000 DevICM426xx_SetUserBank
C:\Users\8bit\AppData\Local\Temp\ccNZMjib.s:842    .text.DevICM426xx_TurnOff_AccGyro:00000000 $t
C:\Users\8bit\AppData\Local\Temp\ccNZMjib.s:847    .text.DevICM426xx_TurnOff_AccGyro:00000000 DevICM426xx_TurnOff_AccGyro
C:\Users\8bit\AppData\Local\Temp\ccNZMjib.s:932    .text.DevICM426xx_TurnOn_AccGyro:00000000 $t
C:\Users\8bit\AppData\Local\Temp\ccNZMjib.s:937    .text.DevICM426xx_TurnOn_AccGyro:00000000 DevICM426xx_TurnOn_AccGyro
C:\Users\8bit\AppData\Local\Temp\ccNZMjib.s:1038   .rodata.DevICM426xx_Init.str1.4:00000000 $d
C:\Users\8bit\AppData\Local\Temp\ccNZMjib.s:1042   .text.DevICM426xx_Init:00000000 $t
C:\Users\8bit\AppData\Local\Temp\ccNZMjib.s:1047   .text.DevICM426xx_Init:00000000 DevICM426xx_Init
C:\Users\8bit\AppData\Local\Temp\ccNZMjib.s:1826   .text.DevICM426xx_Init:00000310 $d
C:\Users\8bit\AppData\Local\Temp\ccNZMjib.s:1831   .text.DevICM426xx_Init:0000031c $t
C:\Users\8bit\AppData\Local\Temp\ccNZMjib.s:2571   .text.DevICM426xx_Init:00000638 $d
C:\Users\8bit\AppData\Local\Temp\ccNZMjib.s:2575   .text.DevICM426xx_Init:0000063c $t
C:\Users\8bit\AppData\Local\Temp\ccNZMjib.s:3181   .text.DevICM426xx_Init:000008c8 $d
C:\Users\8bit\AppData\Local\Temp\ccNZMjib.s:3189   .text.DevICM426xx_Sample:00000000 $t
C:\Users\8bit\AppData\Local\Temp\ccNZMjib.s:3194   .text.DevICM426xx_Sample:00000000 DevICM426xx_Sample
C:\Users\8bit\AppData\Local\Temp\ccNZMjib.s:3376   .text.DevICM426xx_SetDRDY:00000000 $t
C:\Users\8bit\AppData\Local\Temp\ccNZMjib.s:3381   .text.DevICM426xx_SetDRDY:00000000 DevICM426xx_SetDRDY
C:\Users\8bit\AppData\Local\Temp\ccNZMjib.s:3403   .text.DevICM426xx_GetDRDY:00000000 $t
C:\Users\8bit\AppData\Local\Temp\ccNZMjib.s:3408   .text.DevICM426xx_GetDRDY:00000000 DevICM426xx_GetDRDY
C:\Users\8bit\AppData\Local\Temp\ccNZMjib.s:3436   .text.DevICM426xx_GetError:00000000 $t
C:\Users\8bit\AppData\Local\Temp\ccNZMjib.s:3441   .text.DevICM426xx_GetError:00000000 DevICM426xx_GetError
C:\Users\8bit\AppData\Local\Temp\ccNZMjib.s:3467   .text.DevICM426xx_Get_Scale:00000000 $t
C:\Users\8bit\AppData\Local\Temp\ccNZMjib.s:3472   .text.DevICM426xx_Get_Scale:00000000 DevICM426xx_Get_Scale
C:\Users\8bit\AppData\Local\Temp\ccNZMjib.s:3515   .text.DevICM426xx_Get_Specified_AngularSpeed_Diff:00000000 $t
C:\Users\8bit\AppData\Local\Temp\ccNZMjib.s:3520   .text.DevICM426xx_Get_Specified_AngularSpeed_Diff:00000000 DevICM426xx_Get_Specified_AngularSpeed_Diff
C:\Users\8bit\AppData\Local\Temp\ccNZMjib.s:3541   .text.DevICM426xx_Get_Specified_AngularSpeed_Diff:00000014 $d
C:\Users\8bit\AppData\Local\Temp\ccNZMjib.s:3546   .text.DevICM426xx_Get_Data:00000000 $t
C:\Users\8bit\AppData\Local\Temp\ccNZMjib.s:3551   .text.DevICM426xx_Get_Data:00000000 DevICM426xx_Get_Data
C:\Users\8bit\AppData\Local\Temp\ccNZMjib.s:3622   .data.DevICM426xx:00000000 DevICM426xx
C:\Users\8bit\AppData\Local\Temp\ccNZMjib.s:3619   .data.DevICM426xx:00000000 $d
C:\Users\8bit\AppData\Local\Temp\ccNZMjib.s:3635   .data.aafLUT42605:00000000 $d
C:\Users\8bit\AppData\Local\Temp\ccNZMjib.s:3639   .data.aafLUT42605:00000000 aafLUT42605
C:\Users\8bit\AppData\Local\Temp\ccNZMjib.s:3661   .data.aafLUT42688:00000000 $d
C:\Users\8bit\AppData\Local\Temp\ccNZMjib.s:3665   .data.aafLUT42688:00000000 aafLUT42688
C:\Users\8bit\AppData\Local\Temp\ccNZMjib.s:3687   .rodata.__FUNCTION__.0:00000000 $d
ARM GAS  C:\Users\8bit\AppData\Local\Temp\ccNZMjib.s 			page 96


C:\Users\8bit\AppData\Local\Temp\ccNZMjib.s:3691   .rodata.__FUNCTION__.0:00000000 __FUNCTION__.0

UNDEFINED SYMBOLS
memset
memcpy
