ARM GAS  C:\Users\HUAV\AppData\Local\Temp\ccpgM8up.s 			page 1


   1              		.cpu cortex-m7
   2              		.eabi_attribute 28, 1
   3              		.eabi_attribute 20, 1
   4              		.eabi_attribute 21, 1
   5              		.eabi_attribute 23, 3
   6              		.eabi_attribute 24, 1
   7              		.eabi_attribute 25, 1
   8              		.eabi_attribute 26, 1
   9              		.eabi_attribute 30, 1
  10              		.eabi_attribute 34, 1
  11              		.eabi_attribute 18, 4
  12              		.file	"Dev_ICM426xx.c"
  13              		.text
  14              	.Ltext0:
  15              		.cfi_sections	.debug_frame
  16              		.section	.text.DevICM426xx_Detect,"ax",%progbits
  17              		.align	1
  18              		.arch armv7e-m
  19              		.syntax unified
  20              		.thumb
  21              		.thumb_func
  22              		.fpu fpv5-d16
  24              	DevICM426xx_Detect:
  25              	.LVL0:
  26              	.LFB1:
  27              		.file 1 "Device/Dev_ICM426xx.c"
   1:Device/Dev_ICM426xx.c **** #include "Dev_ICM426xx.h"
   2:Device/Dev_ICM426xx.c **** 
   3:Device/Dev_ICM426xx.c **** #define ConvertToICM426xxTrip_Reg(trip, odr) ((3 - trip) << 5 | (odr & 0x0F))
   4:Device/Dev_ICM426xx.c **** #define UserBankToReg(x) (x & 7) 
   5:Device/Dev_ICM426xx.c **** 
   6:Device/Dev_ICM426xx.c **** // Possible gyro Anti-Alias Filter (AAF) cutoffs for ICM-42688P
   7:Device/Dev_ICM426xx.c **** // see table in section 5.3
   8:Device/Dev_ICM426xx.c **** static ICM426xx_AAF_Config_TypeDef aafLUT42688[ICM426xx_AAF_Sum] = {
   9:Device/Dev_ICM426xx.c ****     [ICM426xx_AAF_258Hz]  = {  6,   36, 10 },
  10:Device/Dev_ICM426xx.c ****     [ICM426xx_AAF_536Hz]  = { 12,  144,  8 },
  11:Device/Dev_ICM426xx.c ****     [ICM426xx_AAF_997Hz]  = { 21,  440,  6 },
  12:Device/Dev_ICM426xx.c ****     [ICM426xx_AAF_1962Hz] = { 37, 1376,  4 },
  13:Device/Dev_ICM426xx.c **** };
  14:Device/Dev_ICM426xx.c **** 
  15:Device/Dev_ICM426xx.c **** // Possible gyro Anti-Alias Filter (AAF) cutoffs for ICM-42605
  16:Device/Dev_ICM426xx.c **** // actual cutoff differs slightly from those of the 42605
  17:Device/Dev_ICM426xx.c ****   // see table in section 5.3
  18:Device/Dev_ICM426xx.c **** static ICM426xx_AAF_Config_TypeDef aafLUT42605[ICM426xx_AAF_Sum] = {
  19:Device/Dev_ICM426xx.c ****     [ICM426xx_AAF_258Hz]  = { 21,  440,  6 }, // actually 249 Hz
  20:Device/Dev_ICM426xx.c ****     [ICM426xx_AAF_536Hz]  = { 39, 1536,  4 }, // actually 524 Hz
  21:Device/Dev_ICM426xx.c ****     [ICM426xx_AAF_997Hz]  = { 63, 3968,  3 }, // actually 995 Hz
  22:Device/Dev_ICM426xx.c ****     [ICM426xx_AAF_1962Hz] = { 63, 3968,  3 }, // 995 Hz is the max cutoff on the 42605
  23:Device/Dev_ICM426xx.c **** };
  24:Device/Dev_ICM426xx.c **** 
  25:Device/Dev_ICM426xx.c **** /* internal function */
  26:Device/Dev_ICM426xx.c **** static bool DevICM426xx_Regs_Read(DevICM426xxObj_TypeDef *sensor_obj, uint32_t addr, uint8_t *tx, u
  27:Device/Dev_ICM426xx.c **** static bool DevICM426xx_Reg_Write(DevICM426xxObj_TypeDef *sensor_obj, uint8_t addr, uint8_t tx);
  28:Device/Dev_ICM426xx.c **** static bool DevICM426xx_Reg_Read(DevICM426xxObj_TypeDef *sensor_obj, uint8_t addr, uint8_t *rx);
  29:Device/Dev_ICM426xx.c **** 
  30:Device/Dev_ICM426xx.c **** static bool DevICM426xx_SetUserBank(DevICM426xxObj_TypeDef *sensor_obj, const uint8_t bank);
  31:Device/Dev_ICM426xx.c **** static bool DevICM426xx_TurnOff_AccGyro(DevICM426xxObj_TypeDef *sensor_obj);
ARM GAS  C:\Users\HUAV\AppData\Local\Temp\ccpgM8up.s 			page 2


  32:Device/Dev_ICM426xx.c **** static bool DevICM426xx_TurnOn_AccGyro(DevICM426xxObj_TypeDef *sensor_obj);
  33:Device/Dev_ICM426xx.c **** 
  34:Device/Dev_ICM426xx.c **** /* external function */
  35:Device/Dev_ICM426xx.c **** static ICM426xx_Sensor_TypeList DevICM426xx_Detect(bus_trans_callback trans, cs_ctl_callback cs_ctl
  36:Device/Dev_ICM426xx.c **** static bool DevICM426xx_Config(DevICM426xxObj_TypeDef *Obj, 
  37:Device/Dev_ICM426xx.c ****                                ICM426xx_SampleRate_List rate, 
  38:Device/Dev_ICM426xx.c ****                                ICM426xx_GyrTrip_List GyrTrip, 
  39:Device/Dev_ICM426xx.c ****                                ICM426xx_AccTrip_List AccTrip);
  40:Device/Dev_ICM426xx.c **** static void DevICM426xx_PreInit(DevICM426xxObj_TypeDef *sensor_obj,
  41:Device/Dev_ICM426xx.c ****                                cs_ctl_callback cs_ctl,
  42:Device/Dev_ICM426xx.c ****                                bus_trans_callback bus_trans,
  43:Device/Dev_ICM426xx.c ****                                delay_callback delay,
  44:Device/Dev_ICM426xx.c ****                                get_time_stamp_callback get_time_stamp);
  45:Device/Dev_ICM426xx.c **** static bool DevICM426xx_Init(DevICM426xxObj_TypeDef *sensor_obj);
  46:Device/Dev_ICM426xx.c **** static void DevICM426xx_SetDRDY(DevICM426xxObj_TypeDef *sensor_obj);
  47:Device/Dev_ICM426xx.c **** static bool DevICM426xx_GetDRDY(DevICM426xxObj_TypeDef *sensor_obj);
  48:Device/Dev_ICM426xx.c **** static IMU_Error_TypeDef DevICM426xx_GetError(DevICM426xxObj_TypeDef *sensor_obj);
  49:Device/Dev_ICM426xx.c **** static bool DevICM426xx_Sample(DevICM426xxObj_TypeDef *sensor_obj);
  50:Device/Dev_ICM426xx.c **** static IMUData_TypeDef DevICM426xx_Get_Data(DevICM426xxObj_TypeDef *sensor_obj);
  51:Device/Dev_ICM426xx.c **** static IMUModuleScale_TypeDef DevICM426xx_Get_Scale(const DevICM426xxObj_TypeDef *sensor_obj);
  52:Device/Dev_ICM426xx.c **** static float DevICM426xx_Get_Specified_AngularSpeed_Diff(const DevICM426xxObj_TypeDef *sensor_obj);
  53:Device/Dev_ICM426xx.c **** 
  54:Device/Dev_ICM426xx.c **** /* external variable */
  55:Device/Dev_ICM426xx.c **** DevICM426xx_TypeDef DevICM426xx = {
  56:Device/Dev_ICM426xx.c ****     .detect = DevICM426xx_Detect,
  57:Device/Dev_ICM426xx.c ****     .config = DevICM426xx_Config,
  58:Device/Dev_ICM426xx.c ****     .init = DevICM426xx_Init,
  59:Device/Dev_ICM426xx.c ****     .pre_init = DevICM426xx_PreInit,
  60:Device/Dev_ICM426xx.c ****     .set_ready = DevICM426xx_SetDRDY,
  61:Device/Dev_ICM426xx.c ****     .get_ready = DevICM426xx_GetDRDY,
  62:Device/Dev_ICM426xx.c ****     .get_error = DevICM426xx_GetError,
  63:Device/Dev_ICM426xx.c ****     .get_data = DevICM426xx_Get_Data,
  64:Device/Dev_ICM426xx.c ****     .get_gyr_angular_speed_diff = DevICM426xx_Get_Specified_AngularSpeed_Diff,
  65:Device/Dev_ICM426xx.c ****     .get_scale = DevICM426xx_Get_Scale,
  66:Device/Dev_ICM426xx.c ****     .sample = DevICM426xx_Sample,
  67:Device/Dev_ICM426xx.c **** };
  68:Device/Dev_ICM426xx.c **** 
  69:Device/Dev_ICM426xx.c **** static ICM426xx_Sensor_TypeList DevICM426xx_Detect(bus_trans_callback trans, cs_ctl_callback cs_ctl
  70:Device/Dev_ICM426xx.c **** {
  28              		.loc 1 70 1 view -0
  29              		.cfi_startproc
  30              		@ args = 0, pretend = 0, frame = 8
  31              		@ frame_needed = 0, uses_anonymous_args = 0
  32              		.loc 1 70 1 is_stmt 0 view .LVU1
  33 0000 30B5     		push	{r4, r5, lr}
  34              	.LCFI0:
  35              		.cfi_def_cfa_offset 12
  36              		.cfi_offset 4, -12
  37              		.cfi_offset 5, -8
  38              		.cfi_offset 14, -4
  39 0002 83B0     		sub	sp, sp, #12
  40              	.LCFI1:
  41              		.cfi_def_cfa_offset 24
  71:Device/Dev_ICM426xx.c ****     uint8_t write_buff[2] = {0};
  42              		.loc 1 71 5 is_stmt 1 view .LVU2
  43              		.loc 1 71 13 is_stmt 0 view .LVU3
  44 0004 0023     		movs	r3, #0
ARM GAS  C:\Users\HUAV\AppData\Local\Temp\ccpgM8up.s 			page 3


  45 0006 ADF80430 		strh	r3, [sp, #4]	@ movhi
  72:Device/Dev_ICM426xx.c ****     uint8_t read_buff[2] = {0};
  46              		.loc 1 72 5 is_stmt 1 view .LVU4
  47              		.loc 1 72 13 is_stmt 0 view .LVU5
  48 000a ADF80030 		strh	r3, [sp]	@ movhi
  73:Device/Dev_ICM426xx.c ****     bool state = false;
  49              		.loc 1 73 5 is_stmt 1 view .LVU6
  50              	.LVL1:
  74:Device/Dev_ICM426xx.c **** 
  75:Device/Dev_ICM426xx.c ****     if (cs_ctl == NULL || trans == NULL)
  51              		.loc 1 75 5 view .LVU7
  52              		.loc 1 75 8 is_stmt 0 view .LVU8
  53 000e 9842     		cmp	r0, r3
  54 0010 18BF     		it	ne
  55 0012 9942     		cmpne	r1, r3
  56 0014 16D0     		beq	.L3
  57 0016 0D46     		mov	r5, r1
  58 0018 0446     		mov	r4, r0
  76:Device/Dev_ICM426xx.c ****         return false;
  77:Device/Dev_ICM426xx.c **** 
  78:Device/Dev_ICM426xx.c ****     write_buff[0] = ICM426XX_WHO_AM_I | ICM426XX_READ_MASK;
  59              		.loc 1 78 5 is_stmt 1 view .LVU9
  60              		.loc 1 78 19 is_stmt 0 view .LVU10
  61 001a F523     		movs	r3, #245
  62 001c 8DF80430 		strb	r3, [sp, #4]
  79:Device/Dev_ICM426xx.c **** 
  80:Device/Dev_ICM426xx.c ****     /* CS Low */
  81:Device/Dev_ICM426xx.c ****     cs_ctl(false);
  63              		.loc 1 81 5 is_stmt 1 view .LVU11
  64 0020 0020     		movs	r0, #0
  65              	.LVL2:
  66              		.loc 1 81 5 is_stmt 0 view .LVU12
  67 0022 8847     		blx	r1
  68              	.LVL3:
  82:Device/Dev_ICM426xx.c **** 
  83:Device/Dev_ICM426xx.c ****     state = trans(write_buff, read_buff, 2);
  69              		.loc 1 83 5 is_stmt 1 view .LVU13
  70              		.loc 1 83 13 is_stmt 0 view .LVU14
  71 0024 0222     		movs	r2, #2
  72 0026 6946     		mov	r1, sp
  73 0028 01A8     		add	r0, sp, #4
  74 002a A047     		blx	r4
  75              	.LVL4:
  76 002c 0446     		mov	r4, r0
  77              	.LVL5:
  84:Device/Dev_ICM426xx.c **** 
  85:Device/Dev_ICM426xx.c ****     /* CS High */
  86:Device/Dev_ICM426xx.c ****     cs_ctl(true);
  78              		.loc 1 86 5 is_stmt 1 view .LVU15
  79 002e 0120     		movs	r0, #1
  80 0030 A847     		blx	r5
  81              	.LVL6:
  87:Device/Dev_ICM426xx.c **** 
  88:Device/Dev_ICM426xx.c ****     if(!state)
  82              		.loc 1 88 5 view .LVU16
  83              		.loc 1 88 7 is_stmt 0 view .LVU17
  84 0032 54B1     		cbz	r4, .L4
ARM GAS  C:\Users\HUAV\AppData\Local\Temp\ccpgM8up.s 			page 4


  89:Device/Dev_ICM426xx.c ****         return ICM_NONE;
  90:Device/Dev_ICM426xx.c **** 
  91:Device/Dev_ICM426xx.c ****     switch(read_buff[1])
  85              		.loc 1 91 5 is_stmt 1 view .LVU18
  86              		.loc 1 91 21 is_stmt 0 view .LVU19
  87 0034 9DF80130 		ldrb	r3, [sp, #1]	@ zero_extendqisi2
  88              		.loc 1 91 5 view .LVU20
  89 0038 422B     		cmp	r3, #66
  90 003a 08D0     		beq	.L5
  91 003c 472B     		cmp	r3, #71
  92 003e 08D1     		bne	.L6
  92:Device/Dev_ICM426xx.c ****     {
  93:Device/Dev_ICM426xx.c ****         case ICM42605_DEV_ID: return ICM42605;
  94:Device/Dev_ICM426xx.c ****         case ICM42688P_DEV_ID: return ICM42688P;
  93              		.loc 1 94 39 view .LVU21
  94 0040 0020     		movs	r0, #0
  95 0042 00E0     		b	.L2
  96              	.LVL7:
  97              	.L3:
  76:Device/Dev_ICM426xx.c **** 
  98              		.loc 1 76 16 view .LVU22
  99 0044 0020     		movs	r0, #0
 100              	.LVL8:
 101              	.L2:
  95:Device/Dev_ICM426xx.c ****         default: return ICM_NONE;
  96:Device/Dev_ICM426xx.c ****     }
  97:Device/Dev_ICM426xx.c **** 
  98:Device/Dev_ICM426xx.c ****     return ICM_NONE;
  99:Device/Dev_ICM426xx.c **** }
 102              		.loc 1 99 1 view .LVU23
 103 0046 03B0     		add	sp, sp, #12
 104              	.LCFI2:
 105              		.cfi_remember_state
 106              		.cfi_def_cfa_offset 12
 107              		@ sp needed
 108 0048 30BD     		pop	{r4, r5, pc}
 109              	.LVL9:
 110              	.L4:
 111              	.LCFI3:
 112              		.cfi_restore_state
  89:Device/Dev_ICM426xx.c **** 
 113              		.loc 1 89 16 view .LVU24
 114 004a 0220     		movs	r0, #2
 115 004c FBE7     		b	.L2
 116              	.L5:
  91:Device/Dev_ICM426xx.c ****     {
 117              		.loc 1 91 5 view .LVU25
 118 004e 0120     		movs	r0, #1
 119 0050 F9E7     		b	.L2
 120              	.L6:
  95:Device/Dev_ICM426xx.c ****         default: return ICM_NONE;
 121              		.loc 1 95 25 view .LVU26
 122 0052 0220     		movs	r0, #2
 123 0054 F7E7     		b	.L2
 124              		.cfi_endproc
 125              	.LFE1:
 127              		.section	.text.DevICM426xx_Regs_Read,"ax",%progbits
ARM GAS  C:\Users\HUAV\AppData\Local\Temp\ccpgM8up.s 			page 5


 128              		.align	1
 129              		.syntax unified
 130              		.thumb
 131              		.thumb_func
 132              		.fpu fpv5-d16
 134              	DevICM426xx_Regs_Read:
 135              	.LVL10:
 136              	.LFB2:
 100:Device/Dev_ICM426xx.c **** 
 101:Device/Dev_ICM426xx.c **** static bool DevICM426xx_Regs_Read(DevICM426xxObj_TypeDef *sensor_obj, uint32_t addr, uint8_t *tx, u
 102:Device/Dev_ICM426xx.c **** {
 137              		.loc 1 102 1 is_stmt 1 view -0
 138              		.cfi_startproc
 139              		@ args = 4, pretend = 0, frame = 8
 140              		@ frame_needed = 0, uses_anonymous_args = 0
 141              		.loc 1 102 1 is_stmt 0 view .LVU28
 142 0000 70B5     		push	{r4, r5, r6, lr}
 143              	.LCFI4:
 144              		.cfi_def_cfa_offset 16
 145              		.cfi_offset 4, -16
 146              		.cfi_offset 5, -12
 147              		.cfi_offset 6, -8
 148              		.cfi_offset 14, -4
 149 0002 82B0     		sub	sp, sp, #8
 150              	.LCFI5:
 151              		.cfi_def_cfa_offset 24
 152 0004 1546     		mov	r5, r2
 103:Device/Dev_ICM426xx.c ****     bool state = false;
 153              		.loc 1 103 5 is_stmt 1 view .LVU29
 154              	.LVL11:
 104:Device/Dev_ICM426xx.c ****     uint8_t addr_tmp = addr | ICM426XX_READ_MASK;
 155              		.loc 1 104 5 view .LVU30
 156              		.loc 1 104 29 is_stmt 0 view .LVU31
 157 0006 61F07F01 		orn	r1, r1, #127
 158              	.LVL12:
 159              		.loc 1 104 13 view .LVU32
 160 000a 8DF80710 		strb	r1, [sp, #7]
 105:Device/Dev_ICM426xx.c ****     uint8_t read_tmp = 0;
 161              		.loc 1 105 5 is_stmt 1 view .LVU33
 162              		.loc 1 105 13 is_stmt 0 view .LVU34
 163 000e 0022     		movs	r2, #0
 164              	.LVL13:
 165              		.loc 1 105 13 view .LVU35
 166 0010 8DF80620 		strb	r2, [sp, #6]
 106:Device/Dev_ICM426xx.c **** 
 107:Device/Dev_ICM426xx.c ****     if (sensor_obj == NULL || sensor_obj->cs_ctl == NULL || sensor_obj->bus_trans == NULL)
 167              		.loc 1 107 5 is_stmt 1 view .LVU36
 168              		.loc 1 107 8 is_stmt 0 view .LVU37
 169 0014 D8B1     		cbz	r0, .L10
 170 0016 1E46     		mov	r6, r3
 171 0018 0446     		mov	r4, r0
 172              		.loc 1 107 41 discriminator 1 view .LVU38
 173 001a 4268     		ldr	r2, [r0, #4]
 174              		.loc 1 107 28 discriminator 1 view .LVU39
 175 001c CAB1     		cbz	r2, .L11
 176              		.loc 1 107 71 discriminator 2 view .LVU40
 177 001e 8368     		ldr	r3, [r0, #8]
ARM GAS  C:\Users\HUAV\AppData\Local\Temp\ccpgM8up.s 			page 6


 178              	.LVL14:
 179              		.loc 1 107 58 discriminator 2 view .LVU41
 180 0020 CBB1     		cbz	r3, .L12
 108:Device/Dev_ICM426xx.c ****         return false;
 109:Device/Dev_ICM426xx.c **** 
 110:Device/Dev_ICM426xx.c ****     /* CS Low */
 111:Device/Dev_ICM426xx.c ****     sensor_obj->cs_ctl(false);
 181              		.loc 1 111 5 is_stmt 1 view .LVU42
 182 0022 0020     		movs	r0, #0
 183              	.LVL15:
 184              		.loc 1 111 5 is_stmt 0 view .LVU43
 185 0024 9047     		blx	r2
 186              	.LVL16:
 112:Device/Dev_ICM426xx.c **** 
 113:Device/Dev_ICM426xx.c ****     state = sensor_obj->bus_trans(&addr_tmp, &read_tmp, 1);
 187              		.loc 1 113 5 is_stmt 1 view .LVU44
 188              		.loc 1 113 23 is_stmt 0 view .LVU45
 189 0026 A368     		ldr	r3, [r4, #8]
 190              		.loc 1 113 13 view .LVU46
 191 0028 0122     		movs	r2, #1
 192 002a 0DF10601 		add	r1, sp, #6
 193 002e 0DF10700 		add	r0, sp, #7
 194 0032 9847     		blx	r3
 195              	.LVL17:
 114:Device/Dev_ICM426xx.c ****     state = sensor_obj->bus_trans(tx, rx, size);
 196              		.loc 1 114 5 is_stmt 1 view .LVU47
 197              		.loc 1 114 23 is_stmt 0 view .LVU48
 198 0034 A368     		ldr	r3, [r4, #8]
 199              		.loc 1 114 13 view .LVU49
 200 0036 BDF81820 		ldrh	r2, [sp, #24]
 201 003a 3146     		mov	r1, r6
 202 003c 2846     		mov	r0, r5
 203 003e 9847     		blx	r3
 204              	.LVL18:
 205 0040 0546     		mov	r5, r0
 206              	.LVL19:
 115:Device/Dev_ICM426xx.c **** 
 116:Device/Dev_ICM426xx.c ****     /* CS High */
 117:Device/Dev_ICM426xx.c ****     sensor_obj->cs_ctl(true);
 207              		.loc 1 117 5 is_stmt 1 view .LVU50
 208              		.loc 1 117 15 is_stmt 0 view .LVU51
 209 0042 6368     		ldr	r3, [r4, #4]
 210              		.loc 1 117 5 view .LVU52
 211 0044 0120     		movs	r0, #1
 212 0046 9847     		blx	r3
 213              	.LVL20:
 118:Device/Dev_ICM426xx.c **** 
 119:Device/Dev_ICM426xx.c ****     return state;
 214              		.loc 1 119 5 is_stmt 1 view .LVU53
 215              	.L9:
 120:Device/Dev_ICM426xx.c **** }
 216              		.loc 1 120 1 is_stmt 0 view .LVU54
 217 0048 2846     		mov	r0, r5
 218 004a 02B0     		add	sp, sp, #8
 219              	.LCFI6:
 220              		.cfi_remember_state
 221              		.cfi_def_cfa_offset 16
ARM GAS  C:\Users\HUAV\AppData\Local\Temp\ccpgM8up.s 			page 7


 222              		@ sp needed
 223 004c 70BD     		pop	{r4, r5, r6, pc}
 224              	.LVL21:
 225              	.L10:
 226              	.LCFI7:
 227              		.cfi_restore_state
 108:Device/Dev_ICM426xx.c **** 
 228              		.loc 1 108 16 view .LVU55
 229 004e 0025     		movs	r5, #0
 230              	.LVL22:
 108:Device/Dev_ICM426xx.c **** 
 231              		.loc 1 108 16 view .LVU56
 232 0050 FAE7     		b	.L9
 233              	.LVL23:
 234              	.L11:
 108:Device/Dev_ICM426xx.c **** 
 235              		.loc 1 108 16 view .LVU57
 236 0052 0025     		movs	r5, #0
 237              	.LVL24:
 108:Device/Dev_ICM426xx.c **** 
 238              		.loc 1 108 16 view .LVU58
 239 0054 F8E7     		b	.L9
 240              	.LVL25:
 241              	.L12:
 108:Device/Dev_ICM426xx.c **** 
 242              		.loc 1 108 16 view .LVU59
 243 0056 0025     		movs	r5, #0
 244              	.LVL26:
 108:Device/Dev_ICM426xx.c **** 
 245              		.loc 1 108 16 view .LVU60
 246 0058 F6E7     		b	.L9
 247              		.cfi_endproc
 248              	.LFE2:
 250              		.section	.text.DevICM426xx_Reg_Read,"ax",%progbits
 251              		.align	1
 252              		.syntax unified
 253              		.thumb
 254              		.thumb_func
 255              		.fpu fpv5-d16
 257              	DevICM426xx_Reg_Read:
 258              	.LVL27:
 259              	.LFB3:
 121:Device/Dev_ICM426xx.c **** 
 122:Device/Dev_ICM426xx.c **** static bool DevICM426xx_Reg_Read(DevICM426xxObj_TypeDef *sensor_obj, uint8_t addr, uint8_t *rx)
 123:Device/Dev_ICM426xx.c **** {
 260              		.loc 1 123 1 is_stmt 1 view -0
 261              		.cfi_startproc
 262              		@ args = 0, pretend = 0, frame = 8
 263              		@ frame_needed = 0, uses_anonymous_args = 0
 264              		.loc 1 123 1 is_stmt 0 view .LVU62
 265 0000 70B5     		push	{r4, r5, r6, lr}
 266              	.LCFI8:
 267              		.cfi_def_cfa_offset 16
 268              		.cfi_offset 4, -16
 269              		.cfi_offset 5, -12
 270              		.cfi_offset 6, -8
 271              		.cfi_offset 14, -4
ARM GAS  C:\Users\HUAV\AppData\Local\Temp\ccpgM8up.s 			page 8


 272 0002 82B0     		sub	sp, sp, #8
 273              	.LCFI9:
 274              		.cfi_def_cfa_offset 24
 124:Device/Dev_ICM426xx.c ****     uint8_t Rx_Tmp[2] = {0};
 275              		.loc 1 124 5 is_stmt 1 view .LVU63
 276              		.loc 1 124 13 is_stmt 0 view .LVU64
 277 0004 0023     		movs	r3, #0
 278 0006 ADF80430 		strh	r3, [sp, #4]	@ movhi
 125:Device/Dev_ICM426xx.c ****     uint8_t Tx_Tmp[2] = {0};
 279              		.loc 1 125 5 is_stmt 1 view .LVU65
 280              		.loc 1 125 13 is_stmt 0 view .LVU66
 281 000a ADF80030 		strh	r3, [sp]	@ movhi
 126:Device/Dev_ICM426xx.c ****     bool state = false;
 282              		.loc 1 126 5 is_stmt 1 view .LVU67
 283              	.LVL28:
 127:Device/Dev_ICM426xx.c **** 
 128:Device/Dev_ICM426xx.c ****     if (sensor_obj == NULL || sensor_obj->cs_ctl == NULL || sensor_obj->bus_trans == NULL)
 284              		.loc 1 128 5 view .LVU68
 285              		.loc 1 128 8 is_stmt 0 view .LVU69
 286 000e D0B1     		cbz	r0, .L16
 287 0010 1546     		mov	r5, r2
 288 0012 0446     		mov	r4, r0
 289              		.loc 1 128 41 discriminator 1 view .LVU70
 290 0014 4368     		ldr	r3, [r0, #4]
 291              		.loc 1 128 28 discriminator 1 view .LVU71
 292 0016 C3B1     		cbz	r3, .L17
 293              		.loc 1 128 71 discriminator 2 view .LVU72
 294 0018 8268     		ldr	r2, [r0, #8]
 295              	.LVL29:
 296              		.loc 1 128 58 discriminator 2 view .LVU73
 297 001a C2B1     		cbz	r2, .L18
 129:Device/Dev_ICM426xx.c ****         return false;
 130:Device/Dev_ICM426xx.c **** 
 131:Device/Dev_ICM426xx.c ****     Tx_Tmp[0] = addr | ICM426XX_READ_MASK;
 298              		.loc 1 131 5 is_stmt 1 view .LVU74
 299              		.loc 1 131 15 is_stmt 0 view .LVU75
 300 001c 61F07F01 		orn	r1, r1, #127
 301              	.LVL30:
 302              		.loc 1 131 15 view .LVU76
 303 0020 8DF80010 		strb	r1, [sp]
 132:Device/Dev_ICM426xx.c **** 
 133:Device/Dev_ICM426xx.c ****     /* cs low */
 134:Device/Dev_ICM426xx.c ****     sensor_obj->cs_ctl(false);
 304              		.loc 1 134 5 is_stmt 1 view .LVU77
 305 0024 0020     		movs	r0, #0
 306              	.LVL31:
 307              		.loc 1 134 5 is_stmt 0 view .LVU78
 308 0026 9847     		blx	r3
 309              	.LVL32:
 135:Device/Dev_ICM426xx.c **** 
 136:Device/Dev_ICM426xx.c ****     state = sensor_obj->bus_trans(Tx_Tmp, Rx_Tmp, 2);
 310              		.loc 1 136 5 is_stmt 1 view .LVU79
 311              		.loc 1 136 23 is_stmt 0 view .LVU80
 312 0028 A368     		ldr	r3, [r4, #8]
 313              		.loc 1 136 13 view .LVU81
 314 002a 0222     		movs	r2, #2
 315 002c 01A9     		add	r1, sp, #4
ARM GAS  C:\Users\HUAV\AppData\Local\Temp\ccpgM8up.s 			page 9


 316 002e 6846     		mov	r0, sp
 317 0030 9847     		blx	r3
 318              	.LVL33:
 319 0032 0646     		mov	r6, r0
 320              	.LVL34:
 137:Device/Dev_ICM426xx.c **** 
 138:Device/Dev_ICM426xx.c ****     /* cs high */
 139:Device/Dev_ICM426xx.c ****     sensor_obj->cs_ctl(true);
 321              		.loc 1 139 5 is_stmt 1 view .LVU82
 322              		.loc 1 139 15 is_stmt 0 view .LVU83
 323 0034 6368     		ldr	r3, [r4, #4]
 324              		.loc 1 139 5 view .LVU84
 325 0036 0120     		movs	r0, #1
 326 0038 9847     		blx	r3
 327              	.LVL35:
 140:Device/Dev_ICM426xx.c **** 
 141:Device/Dev_ICM426xx.c ****     *rx = Rx_Tmp[1];
 328              		.loc 1 141 5 is_stmt 1 view .LVU85
 329              		.loc 1 141 17 is_stmt 0 view .LVU86
 330 003a 9DF80530 		ldrb	r3, [sp, #5]	@ zero_extendqisi2
 331              		.loc 1 141 9 view .LVU87
 332 003e 2B70     		strb	r3, [r5]
 142:Device/Dev_ICM426xx.c **** 
 143:Device/Dev_ICM426xx.c ****     return state;
 333              		.loc 1 143 5 is_stmt 1 view .LVU88
 334              	.LVL36:
 335              	.L15:
 144:Device/Dev_ICM426xx.c **** }
 336              		.loc 1 144 1 is_stmt 0 view .LVU89
 337 0040 3046     		mov	r0, r6
 338 0042 02B0     		add	sp, sp, #8
 339              	.LCFI10:
 340              		.cfi_remember_state
 341              		.cfi_def_cfa_offset 16
 342              		@ sp needed
 343 0044 70BD     		pop	{r4, r5, r6, pc}
 344              	.LVL37:
 345              	.L16:
 346              	.LCFI11:
 347              		.cfi_restore_state
 129:Device/Dev_ICM426xx.c **** 
 348              		.loc 1 129 16 view .LVU90
 349 0046 0026     		movs	r6, #0
 350 0048 FAE7     		b	.L15
 351              	.L17:
 129:Device/Dev_ICM426xx.c **** 
 352              		.loc 1 129 16 view .LVU91
 353 004a 0026     		movs	r6, #0
 354 004c F8E7     		b	.L15
 355              	.LVL38:
 356              	.L18:
 129:Device/Dev_ICM426xx.c **** 
 357              		.loc 1 129 16 view .LVU92
 358 004e 0026     		movs	r6, #0
 359 0050 F6E7     		b	.L15
 360              		.cfi_endproc
 361              	.LFE3:
ARM GAS  C:\Users\HUAV\AppData\Local\Temp\ccpgM8up.s 			page 10


 363              		.section	.text.DevICM426xx_Reg_Write,"ax",%progbits
 364              		.align	1
 365              		.syntax unified
 366              		.thumb
 367              		.thumb_func
 368              		.fpu fpv5-d16
 370              	DevICM426xx_Reg_Write:
 371              	.LVL39:
 372              	.LFB4:
 145:Device/Dev_ICM426xx.c **** 
 146:Device/Dev_ICM426xx.c **** static bool DevICM426xx_Reg_Write(DevICM426xxObj_TypeDef *sensor_obj, uint8_t addr, uint8_t tx)
 147:Device/Dev_ICM426xx.c **** {
 373              		.loc 1 147 1 is_stmt 1 view -0
 374              		.cfi_startproc
 375              		@ args = 0, pretend = 0, frame = 8
 376              		@ frame_needed = 0, uses_anonymous_args = 0
 377              		.loc 1 147 1 is_stmt 0 view .LVU94
 378 0000 30B5     		push	{r4, r5, lr}
 379              	.LCFI12:
 380              		.cfi_def_cfa_offset 12
 381              		.cfi_offset 4, -12
 382              		.cfi_offset 5, -8
 383              		.cfi_offset 14, -4
 384 0002 83B0     		sub	sp, sp, #12
 385              	.LCFI13:
 386              		.cfi_def_cfa_offset 24
 148:Device/Dev_ICM426xx.c ****     uint8_t Rx_Tmp[2] = {0};
 387              		.loc 1 148 5 is_stmt 1 view .LVU95
 388              		.loc 1 148 13 is_stmt 0 view .LVU96
 389 0004 0023     		movs	r3, #0
 390 0006 ADF80430 		strh	r3, [sp, #4]	@ movhi
 149:Device/Dev_ICM426xx.c ****     uint8_t Tx_Tmp[2] = {0};
 391              		.loc 1 149 5 is_stmt 1 view .LVU97
 392              		.loc 1 149 13 is_stmt 0 view .LVU98
 393 000a ADF80030 		strh	r3, [sp]	@ movhi
 150:Device/Dev_ICM426xx.c ****     bool state = false;
 394              		.loc 1 150 5 is_stmt 1 view .LVU99
 395              	.LVL40:
 151:Device/Dev_ICM426xx.c **** 
 152:Device/Dev_ICM426xx.c ****     if (sensor_obj == NULL || sensor_obj->cs_ctl == NULL || sensor_obj->bus_trans == NULL)
 396              		.loc 1 152 5 view .LVU100
 397              		.loc 1 152 8 is_stmt 0 view .LVU101
 398 000e B0B1     		cbz	r0, .L22
 399 0010 0446     		mov	r4, r0
 400              		.loc 1 152 41 discriminator 1 view .LVU102
 401 0012 4368     		ldr	r3, [r0, #4]
 402              		.loc 1 152 28 discriminator 1 view .LVU103
 403 0014 ABB1     		cbz	r3, .L23
 404              		.loc 1 152 71 discriminator 2 view .LVU104
 405 0016 8068     		ldr	r0, [r0, #8]
 406              	.LVL41:
 407              		.loc 1 152 58 discriminator 2 view .LVU105
 408 0018 A8B1     		cbz	r0, .L24
 153:Device/Dev_ICM426xx.c ****         return false;
 154:Device/Dev_ICM426xx.c **** 
 155:Device/Dev_ICM426xx.c ****     Tx_Tmp[0] = addr;
 409              		.loc 1 155 5 is_stmt 1 view .LVU106
ARM GAS  C:\Users\HUAV\AppData\Local\Temp\ccpgM8up.s 			page 11


 410              		.loc 1 155 15 is_stmt 0 view .LVU107
 411 001a 8DF80010 		strb	r1, [sp]
 156:Device/Dev_ICM426xx.c ****     Tx_Tmp[1] = tx;
 412              		.loc 1 156 5 is_stmt 1 view .LVU108
 413              		.loc 1 156 15 is_stmt 0 view .LVU109
 414 001e 8DF80120 		strb	r2, [sp, #1]
 157:Device/Dev_ICM426xx.c **** 
 158:Device/Dev_ICM426xx.c ****     /* cs low */
 159:Device/Dev_ICM426xx.c ****     sensor_obj->cs_ctl(false);
 415              		.loc 1 159 5 is_stmt 1 view .LVU110
 416 0022 0020     		movs	r0, #0
 417 0024 9847     		blx	r3
 418              	.LVL42:
 160:Device/Dev_ICM426xx.c **** 
 161:Device/Dev_ICM426xx.c ****     state = sensor_obj->bus_trans(Tx_Tmp, Rx_Tmp, 2);
 419              		.loc 1 161 5 view .LVU111
 420              		.loc 1 161 23 is_stmt 0 view .LVU112
 421 0026 A368     		ldr	r3, [r4, #8]
 422              		.loc 1 161 13 view .LVU113
 423 0028 0222     		movs	r2, #2
 424 002a 01A9     		add	r1, sp, #4
 425 002c 6846     		mov	r0, sp
 426 002e 9847     		blx	r3
 427              	.LVL43:
 428 0030 0546     		mov	r5, r0
 429              	.LVL44:
 162:Device/Dev_ICM426xx.c **** 
 163:Device/Dev_ICM426xx.c ****     /* cs high */
 164:Device/Dev_ICM426xx.c ****     sensor_obj->cs_ctl(true);
 430              		.loc 1 164 5 is_stmt 1 view .LVU114
 431              		.loc 1 164 15 is_stmt 0 view .LVU115
 432 0032 6368     		ldr	r3, [r4, #4]
 433              		.loc 1 164 5 view .LVU116
 434 0034 0120     		movs	r0, #1
 435 0036 9847     		blx	r3
 436              	.LVL45:
 165:Device/Dev_ICM426xx.c **** 
 166:Device/Dev_ICM426xx.c ****     return state;
 437              		.loc 1 166 5 is_stmt 1 view .LVU117
 438              	.L21:
 167:Device/Dev_ICM426xx.c **** }
 439              		.loc 1 167 1 is_stmt 0 view .LVU118
 440 0038 2846     		mov	r0, r5
 441 003a 03B0     		add	sp, sp, #12
 442              	.LCFI14:
 443              		.cfi_remember_state
 444              		.cfi_def_cfa_offset 12
 445              		@ sp needed
 446 003c 30BD     		pop	{r4, r5, pc}
 447              	.LVL46:
 448              	.L22:
 449              	.LCFI15:
 450              		.cfi_restore_state
 153:Device/Dev_ICM426xx.c **** 
 451              		.loc 1 153 16 view .LVU119
 452 003e 0025     		movs	r5, #0
 453 0040 FAE7     		b	.L21
ARM GAS  C:\Users\HUAV\AppData\Local\Temp\ccpgM8up.s 			page 12


 454              	.L23:
 153:Device/Dev_ICM426xx.c **** 
 455              		.loc 1 153 16 view .LVU120
 456 0042 0025     		movs	r5, #0
 457 0044 F8E7     		b	.L21
 458              	.LVL47:
 459              	.L24:
 153:Device/Dev_ICM426xx.c **** 
 460              		.loc 1 153 16 view .LVU121
 461 0046 0025     		movs	r5, #0
 462 0048 F6E7     		b	.L21
 463              		.cfi_endproc
 464              	.LFE4:
 466              		.section	.text.DevICM426xx_Config,"ax",%progbits
 467              		.align	1
 468              		.syntax unified
 469              		.thumb
 470              		.thumb_func
 471              		.fpu fpv5-d16
 473              	DevICM426xx_Config:
 474              	.LVL48:
 475              	.LFB5:
 168:Device/Dev_ICM426xx.c **** 
 169:Device/Dev_ICM426xx.c **** static bool DevICM426xx_Config(DevICM426xxObj_TypeDef *sensor_obj, 
 170:Device/Dev_ICM426xx.c ****                                ICM426xx_SampleRate_List rate, 
 171:Device/Dev_ICM426xx.c ****                                ICM426xx_GyrTrip_List GyrTrip, 
 172:Device/Dev_ICM426xx.c ****                                ICM426xx_AccTrip_List AccTrip)
 173:Device/Dev_ICM426xx.c **** {
 476              		.loc 1 173 1 is_stmt 1 view -0
 477              		.cfi_startproc
 478              		@ args = 0, pretend = 0, frame = 0
 479              		@ frame_needed = 0, uses_anonymous_args = 0
 174:Device/Dev_ICM426xx.c ****     uint8_t odr_reg_val = 0;
 480              		.loc 1 174 5 view .LVU123
 175:Device/Dev_ICM426xx.c **** 
 176:Device/Dev_ICM426xx.c ****     if(sensor_obj == NULL)
 481              		.loc 1 176 5 view .LVU124
 482              		.loc 1 176 7 is_stmt 0 view .LVU125
 483 0000 0028     		cmp	r0, #0
 484 0002 6AD0     		beq	.L45
 173:Device/Dev_ICM426xx.c ****     uint8_t odr_reg_val = 0;
 485              		.loc 1 173 1 view .LVU126
 486 0004 00B5     		push	{lr}
 487              	.LCFI16:
 488              		.cfi_def_cfa_offset 4
 489              		.cfi_offset 14, -4
 490 0006 8446     		mov	ip, r0
 177:Device/Dev_ICM426xx.c ****         return false;
 178:Device/Dev_ICM426xx.c **** 
 179:Device/Dev_ICM426xx.c ****     switch ((uint8_t)sensor_obj->rate)
 491              		.loc 1 179 5 is_stmt 1 view .LVU127
 492              		.loc 1 179 32 is_stmt 0 view .LVU128
 493 0008 90F83400 		ldrb	r0, [r0, #52]	@ zero_extendqisi2
 494              	.LVL49:
 495              		.loc 1 179 32 view .LVU129
 496 000c 0328     		cmp	r0, #3
 497 000e 66D8     		bhi	.L46
ARM GAS  C:\Users\HUAV\AppData\Local\Temp\ccpgM8up.s 			page 13


 498 0010 DFE800F0 		tbb	[pc, r0]
 499              	.L29:
 500 0014 02       		.byte	(.L32-.L29)/2
 501 0015 0F       		.byte	(.L47-.L29)/2
 502 0016 0B       		.byte	(.L30-.L29)/2
 503 0017 0D       		.byte	(.L28-.L29)/2
 504              		.p2align 1
 505              	.L32:
 506 0018 0320     		movs	r0, #3
 507              	.LVL50:
 508              	.L31:
 180:Device/Dev_ICM426xx.c ****     {
 181:Device/Dev_ICM426xx.c ****     case ICM426xx_SampleRate_8K:
 182:Device/Dev_ICM426xx.c ****         odr_reg_val = ICM426xx_ODR_8K;
 183:Device/Dev_ICM426xx.c ****         break;
 184:Device/Dev_ICM426xx.c **** 
 185:Device/Dev_ICM426xx.c ****     case ICM426xx_SampleRate_4K:
 186:Device/Dev_ICM426xx.c ****         odr_reg_val = ICM426xx_ODR_4K;
 187:Device/Dev_ICM426xx.c ****         break;
 188:Device/Dev_ICM426xx.c **** 
 189:Device/Dev_ICM426xx.c ****     case ICM426xx_SampleRate_2K:
 190:Device/Dev_ICM426xx.c ****         odr_reg_val = ICM426xx_ODR_2K;
 191:Device/Dev_ICM426xx.c ****         break;
 192:Device/Dev_ICM426xx.c **** 
 193:Device/Dev_ICM426xx.c ****     case ICM426xx_SampleRate_1K:
 194:Device/Dev_ICM426xx.c ****         odr_reg_val = ICM426xx_ODR_1K;
 195:Device/Dev_ICM426xx.c ****         break;
 196:Device/Dev_ICM426xx.c **** 
 197:Device/Dev_ICM426xx.c ****     default:
 198:Device/Dev_ICM426xx.c ****         return false;
 199:Device/Dev_ICM426xx.c ****     }
 200:Device/Dev_ICM426xx.c **** 
 201:Device/Dev_ICM426xx.c ****     sensor_obj->rate = rate;
 509              		.loc 1 201 5 is_stmt 1 view .LVU130
 510              		.loc 1 201 22 is_stmt 0 view .LVU131
 511 001a 8CF83410 		strb	r1, [ip, #52]
 202:Device/Dev_ICM426xx.c **** 
 203:Device/Dev_ICM426xx.c ****     switch ((uint8_t)AccTrip)
 512              		.loc 1 203 5 is_stmt 1 view .LVU132
 513 001e 032B     		cmp	r3, #3
 514 0020 5FD8     		bhi	.L48
 515 0022 DFE803F0 		tbb	[pc, r3]
 516              	.LVL51:
 517              	.L34:
 518 0026 08       		.byte	(.L37-.L34)/2
 519 0027 15       		.byte	(.L36-.L34)/2
 520 0028 1D       		.byte	(.L35-.L34)/2
 521 0029 25       		.byte	(.L33-.L34)/2
 522              		.p2align 1
 523              	.L30:
 190:Device/Dev_ICM426xx.c ****         break;
 524              		.loc 1 190 9 view .LVU133
 191:Device/Dev_ICM426xx.c **** 
 525              		.loc 1 191 9 view .LVU134
 190:Device/Dev_ICM426xx.c ****         break;
 526              		.loc 1 190 21 is_stmt 0 view .LVU135
 527 002a 0520     		movs	r0, #5
ARM GAS  C:\Users\HUAV\AppData\Local\Temp\ccpgM8up.s 			page 14


 191:Device/Dev_ICM426xx.c **** 
 528              		.loc 1 191 9 view .LVU136
 529 002c F5E7     		b	.L31
 530              	.LVL52:
 531              	.L28:
 194:Device/Dev_ICM426xx.c ****         break;
 532              		.loc 1 194 9 is_stmt 1 view .LVU137
 195:Device/Dev_ICM426xx.c **** 
 533              		.loc 1 195 9 view .LVU138
 194:Device/Dev_ICM426xx.c ****         break;
 534              		.loc 1 194 21 is_stmt 0 view .LVU139
 535 002e 0620     		movs	r0, #6
 195:Device/Dev_ICM426xx.c **** 
 536              		.loc 1 195 9 view .LVU140
 537 0030 F3E7     		b	.L31
 538              	.LVL53:
 539              	.L47:
 186:Device/Dev_ICM426xx.c ****         break;
 540              		.loc 1 186 21 view .LVU141
 541 0032 0420     		movs	r0, #4
 542 0034 F1E7     		b	.L31
 543              	.LVL54:
 544              	.L37:
 204:Device/Dev_ICM426xx.c ****     {
 205:Device/Dev_ICM426xx.c ****     case ICM426xx_Acc_2G:
 206:Device/Dev_ICM426xx.c ****         sensor_obj->acc_scale = ICM426XX_ACC_2G_SCALE;
 545              		.loc 1 206 9 is_stmt 1 view .LVU142
 546              		.loc 1 206 31 is_stmt 0 view .LVU143
 547 0036 4FF08D41 		mov	r1, #1182793728
 548 003a CCF81C10 		str	r1, [ip, #28]	@ float
 207:Device/Dev_ICM426xx.c ****         sensor_obj->PHY_AccTrip_Val = 2;
 549              		.loc 1 207 9 is_stmt 1 view .LVU144
 550              		.loc 1 207 37 is_stmt 0 view .LVU145
 551 003e 0221     		movs	r1, #2
 552 0040 8CF81810 		strb	r1, [ip, #24]
 208:Device/Dev_ICM426xx.c ****         break;
 553              		.loc 1 208 9 is_stmt 1 view .LVU146
 554              	.L38:
 209:Device/Dev_ICM426xx.c **** 
 210:Device/Dev_ICM426xx.c ****     case ICM426xx_Acc_4G:
 211:Device/Dev_ICM426xx.c ****         sensor_obj->acc_scale = ICM426XX_ACC_4G_SCALE;
 212:Device/Dev_ICM426xx.c ****         sensor_obj->PHY_AccTrip_Val = 4;
 213:Device/Dev_ICM426xx.c ****         break;
 214:Device/Dev_ICM426xx.c **** 
 215:Device/Dev_ICM426xx.c ****     case ICM426xx_Acc_8G:
 216:Device/Dev_ICM426xx.c ****         sensor_obj->acc_scale = ICM426XX_ACC_8G_SCALE;
 217:Device/Dev_ICM426xx.c ****         sensor_obj->PHY_AccTrip_Val = 8;
 218:Device/Dev_ICM426xx.c ****         break;
 219:Device/Dev_ICM426xx.c **** 
 220:Device/Dev_ICM426xx.c ****     case ICM426xx_Acc_16G:
 221:Device/Dev_ICM426xx.c ****         sensor_obj->acc_scale = ICM426XX_ACC_16G_SCALE;
 222:Device/Dev_ICM426xx.c ****         sensor_obj->PHY_AccTrip_Val = 16;
 223:Device/Dev_ICM426xx.c ****         break;
 224:Device/Dev_ICM426xx.c **** 
 225:Device/Dev_ICM426xx.c ****     default:
 226:Device/Dev_ICM426xx.c ****         return false;
 227:Device/Dev_ICM426xx.c ****     }
ARM GAS  C:\Users\HUAV\AppData\Local\Temp\ccpgM8up.s 			page 15


 228:Device/Dev_ICM426xx.c **** 
 229:Device/Dev_ICM426xx.c ****     switch ((uint8_t)GyrTrip)
 555              		.loc 1 229 5 view .LVU147
 556 0044 032A     		cmp	r2, #3
 557 0046 4ED8     		bhi	.L49
 558 0048 DFE802F0 		tbb	[pc, r2]
 559              	.L40:
 560 004c 1A       		.byte	(.L43-.L40)/2
 561 004d 2F       		.byte	(.L42-.L40)/2
 562 004e 37       		.byte	(.L41-.L40)/2
 563 004f 3F       		.byte	(.L39-.L40)/2
 564              		.p2align 1
 565              	.L36:
 211:Device/Dev_ICM426xx.c ****         sensor_obj->PHY_AccTrip_Val = 4;
 566              		.loc 1 211 9 view .LVU148
 211:Device/Dev_ICM426xx.c ****         sensor_obj->PHY_AccTrip_Val = 4;
 567              		.loc 1 211 31 is_stmt 0 view .LVU149
 568 0050 4FF08C41 		mov	r1, #1174405120
 569 0054 CCF81C10 		str	r1, [ip, #28]	@ float
 212:Device/Dev_ICM426xx.c ****         break;
 570              		.loc 1 212 9 is_stmt 1 view .LVU150
 212:Device/Dev_ICM426xx.c ****         break;
 571              		.loc 1 212 37 is_stmt 0 view .LVU151
 572 0058 0421     		movs	r1, #4
 573 005a 8CF81810 		strb	r1, [ip, #24]
 213:Device/Dev_ICM426xx.c **** 
 574              		.loc 1 213 9 is_stmt 1 view .LVU152
 575 005e F1E7     		b	.L38
 576              	.L35:
 216:Device/Dev_ICM426xx.c ****         sensor_obj->PHY_AccTrip_Val = 8;
 577              		.loc 1 216 9 view .LVU153
 216:Device/Dev_ICM426xx.c ****         sensor_obj->PHY_AccTrip_Val = 8;
 578              		.loc 1 216 31 is_stmt 0 view .LVU154
 579 0060 4FF08B41 		mov	r1, #1166016512
 580 0064 CCF81C10 		str	r1, [ip, #28]	@ float
 217:Device/Dev_ICM426xx.c ****         break;
 581              		.loc 1 217 9 is_stmt 1 view .LVU155
 217:Device/Dev_ICM426xx.c ****         break;
 582              		.loc 1 217 37 is_stmt 0 view .LVU156
 583 0068 0821     		movs	r1, #8
 584 006a 8CF81810 		strb	r1, [ip, #24]
 218:Device/Dev_ICM426xx.c **** 
 585              		.loc 1 218 9 is_stmt 1 view .LVU157
 586 006e E9E7     		b	.L38
 587              	.L33:
 221:Device/Dev_ICM426xx.c ****         sensor_obj->PHY_AccTrip_Val = 16;
 588              		.loc 1 221 9 view .LVU158
 221:Device/Dev_ICM426xx.c ****         sensor_obj->PHY_AccTrip_Val = 16;
 589              		.loc 1 221 31 is_stmt 0 view .LVU159
 590 0070 4FF08A41 		mov	r1, #1157627904
 591 0074 CCF81C10 		str	r1, [ip, #28]	@ float
 222:Device/Dev_ICM426xx.c ****         break;
 592              		.loc 1 222 9 is_stmt 1 view .LVU160
 222:Device/Dev_ICM426xx.c ****         break;
 593              		.loc 1 222 37 is_stmt 0 view .LVU161
 594 0078 1021     		movs	r1, #16
 595 007a 8CF81810 		strb	r1, [ip, #24]
ARM GAS  C:\Users\HUAV\AppData\Local\Temp\ccpgM8up.s 			page 16


 223:Device/Dev_ICM426xx.c **** 
 596              		.loc 1 223 9 is_stmt 1 view .LVU162
 597 007e E1E7     		b	.L38
 598              	.L43:
 230:Device/Dev_ICM426xx.c ****     {
 231:Device/Dev_ICM426xx.c ****     case ICM426xx_Gyr_250DPS:
 232:Device/Dev_ICM426xx.c ****         sensor_obj->gyr_scale = ICM426XX_GYR_250DPS_SCALE;
 599              		.loc 1 232 9 view .LVU163
 600              		.loc 1 232 31 is_stmt 0 view .LVU164
 601 0080 1A49     		ldr	r1, .L54
 602 0082 CCF82010 		str	r1, [ip, #32]	@ float
 233:Device/Dev_ICM426xx.c ****         sensor_obj->PHY_GyrTrip_Val = 250;
 603              		.loc 1 233 9 is_stmt 1 view .LVU165
 604              		.loc 1 233 37 is_stmt 0 view .LVU166
 605 0086 FA21     		movs	r1, #250
 606 0088 ACF81A10 		strh	r1, [ip, #26]	@ movhi
 234:Device/Dev_ICM426xx.c ****         break;
 607              		.loc 1 234 9 is_stmt 1 view .LVU167
 608              	.L44:
 235:Device/Dev_ICM426xx.c **** 
 236:Device/Dev_ICM426xx.c ****     case ICM426xx_Gyr_500DPS:
 237:Device/Dev_ICM426xx.c ****         sensor_obj->gyr_scale = ICM426XX_GYR_500DPS_SCALE;
 238:Device/Dev_ICM426xx.c ****         sensor_obj->PHY_GyrTrip_Val = 500;
 239:Device/Dev_ICM426xx.c ****         break;
 240:Device/Dev_ICM426xx.c **** 
 241:Device/Dev_ICM426xx.c ****     case ICM426xx_Gyr_1000DPS:
 242:Device/Dev_ICM426xx.c ****         sensor_obj->gyr_scale = ICM426XX_GYR_1000DPS_SCALE;
 243:Device/Dev_ICM426xx.c ****         sensor_obj->PHY_GyrTrip_Val = 1000;
 244:Device/Dev_ICM426xx.c ****         break;
 245:Device/Dev_ICM426xx.c **** 
 246:Device/Dev_ICM426xx.c ****     case ICM426xx_Gyr_2000DPS:
 247:Device/Dev_ICM426xx.c ****         sensor_obj->gyr_scale = ICM426XX_GYR_2000DPS_SCALE;
 248:Device/Dev_ICM426xx.c ****         sensor_obj->PHY_GyrTrip_Val = 2000;
 249:Device/Dev_ICM426xx.c ****         break;
 250:Device/Dev_ICM426xx.c **** 
 251:Device/Dev_ICM426xx.c ****     default:
 252:Device/Dev_ICM426xx.c ****         return false;
 253:Device/Dev_ICM426xx.c ****     }
 254:Device/Dev_ICM426xx.c **** 
 255:Device/Dev_ICM426xx.c ****     /* set AccTrip and GyrTrip reg val */
 256:Device/Dev_ICM426xx.c ****     sensor_obj->AccTrip = ConvertToICM426xxTrip_Reg(AccTrip, odr_reg_val);
 609              		.loc 1 256 5 view .LVU168
 610              		.loc 1 256 27 is_stmt 0 view .LVU169
 611 008c C3F10303 		rsb	r3, r3, #3
 612              	.LVL55:
 613              		.loc 1 256 27 view .LVU170
 614 0090 40EA4313 		orr	r3, r0, r3, lsl #5
 615              		.loc 1 256 25 view .LVU171
 616 0094 8CF81630 		strb	r3, [ip, #22]
 257:Device/Dev_ICM426xx.c ****     sensor_obj->GyrTrip = ConvertToICM426xxTrip_Reg(GyrTrip, odr_reg_val);
 617              		.loc 1 257 5 is_stmt 1 view .LVU172
 618              		.loc 1 257 27 is_stmt 0 view .LVU173
 619 0098 C2F10302 		rsb	r2, r2, #3
 620              	.LVL56:
 621              		.loc 1 257 27 view .LVU174
 622 009c 40EA4212 		orr	r2, r0, r2, lsl #5
 623              		.loc 1 257 25 view .LVU175
ARM GAS  C:\Users\HUAV\AppData\Local\Temp\ccpgM8up.s 			page 17


 624 00a0 8CF81720 		strb	r2, [ip, #23]
 258:Device/Dev_ICM426xx.c **** 
 259:Device/Dev_ICM426xx.c ****     return true;
 625              		.loc 1 259 5 is_stmt 1 view .LVU176
 626              		.loc 1 259 12 is_stmt 0 view .LVU177
 627 00a4 0120     		movs	r0, #1
 628              	.LVL57:
 629              	.L27:
 260:Device/Dev_ICM426xx.c **** }
 630              		.loc 1 260 1 view .LVU178
 631 00a6 5DF804FB 		ldr	pc, [sp], #4
 632              	.LVL58:
 633              	.L42:
 237:Device/Dev_ICM426xx.c ****         sensor_obj->PHY_GyrTrip_Val = 500;
 634              		.loc 1 237 9 is_stmt 1 view .LVU179
 237:Device/Dev_ICM426xx.c ****         sensor_obj->PHY_GyrTrip_Val = 500;
 635              		.loc 1 237 31 is_stmt 0 view .LVU180
 636 00aa 1149     		ldr	r1, .L54+4
 637 00ac CCF82010 		str	r1, [ip, #32]	@ float
 238:Device/Dev_ICM426xx.c ****         break;
 638              		.loc 1 238 9 is_stmt 1 view .LVU181
 238:Device/Dev_ICM426xx.c ****         break;
 639              		.loc 1 238 37 is_stmt 0 view .LVU182
 640 00b0 4FF4FA71 		mov	r1, #500
 641 00b4 ACF81A10 		strh	r1, [ip, #26]	@ movhi
 239:Device/Dev_ICM426xx.c **** 
 642              		.loc 1 239 9 is_stmt 1 view .LVU183
 643 00b8 E8E7     		b	.L44
 644              	.L41:
 242:Device/Dev_ICM426xx.c ****         sensor_obj->PHY_GyrTrip_Val = 1000;
 645              		.loc 1 242 9 view .LVU184
 242:Device/Dev_ICM426xx.c ****         sensor_obj->PHY_GyrTrip_Val = 1000;
 646              		.loc 1 242 31 is_stmt 0 view .LVU185
 647 00ba 0E49     		ldr	r1, .L54+8
 648 00bc CCF82010 		str	r1, [ip, #32]	@ float
 243:Device/Dev_ICM426xx.c ****         break;
 649              		.loc 1 243 9 is_stmt 1 view .LVU186
 243:Device/Dev_ICM426xx.c ****         break;
 650              		.loc 1 243 37 is_stmt 0 view .LVU187
 651 00c0 4FF47A71 		mov	r1, #1000
 652 00c4 ACF81A10 		strh	r1, [ip, #26]	@ movhi
 244:Device/Dev_ICM426xx.c **** 
 653              		.loc 1 244 9 is_stmt 1 view .LVU188
 654 00c8 E0E7     		b	.L44
 655              	.L39:
 247:Device/Dev_ICM426xx.c ****         sensor_obj->PHY_GyrTrip_Val = 2000;
 656              		.loc 1 247 9 view .LVU189
 247:Device/Dev_ICM426xx.c ****         sensor_obj->PHY_GyrTrip_Val = 2000;
 657              		.loc 1 247 31 is_stmt 0 view .LVU190
 658 00ca 0B49     		ldr	r1, .L54+12
 659 00cc CCF82010 		str	r1, [ip, #32]	@ float
 248:Device/Dev_ICM426xx.c ****         break;
 660              		.loc 1 248 9 is_stmt 1 view .LVU191
 248:Device/Dev_ICM426xx.c ****         break;
 661              		.loc 1 248 37 is_stmt 0 view .LVU192
 662 00d0 4FF4FA61 		mov	r1, #2000
 663 00d4 ACF81A10 		strh	r1, [ip, #26]	@ movhi
ARM GAS  C:\Users\HUAV\AppData\Local\Temp\ccpgM8up.s 			page 18


 249:Device/Dev_ICM426xx.c **** 
 664              		.loc 1 249 9 is_stmt 1 view .LVU193
 665 00d8 D8E7     		b	.L44
 666              	.LVL59:
 667              	.L45:
 668              	.LCFI17:
 669              		.cfi_def_cfa_offset 0
 670              		.cfi_restore 14
 177:Device/Dev_ICM426xx.c **** 
 671              		.loc 1 177 16 is_stmt 0 view .LVU194
 672 00da 0020     		movs	r0, #0
 673              	.LVL60:
 674              		.loc 1 260 1 view .LVU195
 675 00dc 7047     		bx	lr
 676              	.LVL61:
 677              	.L46:
 678              	.LCFI18:
 679              		.cfi_def_cfa_offset 4
 680              		.cfi_offset 14, -4
 179:Device/Dev_ICM426xx.c ****     {
 681              		.loc 1 179 32 view .LVU196
 682 00de 0020     		movs	r0, #0
 683 00e0 E1E7     		b	.L27
 684              	.LVL62:
 685              	.L48:
 203:Device/Dev_ICM426xx.c ****     {
 686              		.loc 1 203 13 view .LVU197
 687 00e2 0020     		movs	r0, #0
 688              	.LVL63:
 203:Device/Dev_ICM426xx.c ****     {
 689              		.loc 1 203 13 view .LVU198
 690 00e4 DFE7     		b	.L27
 691              	.LVL64:
 692              	.L49:
 229:Device/Dev_ICM426xx.c ****     {
 693              		.loc 1 229 13 view .LVU199
 694 00e6 0020     		movs	r0, #0
 695              	.LVL65:
 229:Device/Dev_ICM426xx.c ****     {
 696              		.loc 1 229 13 view .LVU200
 697 00e8 DDE7     		b	.L27
 698              	.L55:
 699 00ea 00BF     		.align	2
 700              	.L54:
 701 00ec 00000343 		.word	1124270080
 702 00f0 00008342 		.word	1115881472
 703 00f4 33330342 		.word	1107505971
 704 00f8 33338341 		.word	1099117363
 705              		.cfi_endproc
 706              	.LFE5:
 708              		.section	.text.DevICM426xx_PreInit,"ax",%progbits
 709              		.align	1
 710              		.syntax unified
 711              		.thumb
 712              		.thumb_func
 713              		.fpu fpv5-d16
 715              	DevICM426xx_PreInit:
ARM GAS  C:\Users\HUAV\AppData\Local\Temp\ccpgM8up.s 			page 19


 716              	.LVL66:
 717              	.LFB6:
 261:Device/Dev_ICM426xx.c **** 
 262:Device/Dev_ICM426xx.c **** static void DevICM426xx_PreInit(DevICM426xxObj_TypeDef *sensor_obj,
 263:Device/Dev_ICM426xx.c ****                                cs_ctl_callback cs_ctl,
 264:Device/Dev_ICM426xx.c ****                                bus_trans_callback bus_trans,
 265:Device/Dev_ICM426xx.c ****                                delay_callback delay,
 266:Device/Dev_ICM426xx.c ****                                get_time_stamp_callback get_time_stamp)
 267:Device/Dev_ICM426xx.c **** {
 718              		.loc 1 267 1 is_stmt 1 view -0
 719              		.cfi_startproc
 720              		@ args = 4, pretend = 0, frame = 0
 721              		@ frame_needed = 0, uses_anonymous_args = 0
 722              		@ link register save eliminated.
 268:Device/Dev_ICM426xx.c ****     sensor_obj->cs_ctl = cs_ctl;
 723              		.loc 1 268 5 view .LVU202
 724              		.loc 1 268 24 is_stmt 0 view .LVU203
 725 0000 4160     		str	r1, [r0, #4]
 269:Device/Dev_ICM426xx.c ****     sensor_obj->bus_trans = bus_trans;
 726              		.loc 1 269 5 is_stmt 1 view .LVU204
 727              		.loc 1 269 27 is_stmt 0 view .LVU205
 728 0002 8260     		str	r2, [r0, #8]
 270:Device/Dev_ICM426xx.c ****     sensor_obj->delay = delay;
 729              		.loc 1 270 5 is_stmt 1 view .LVU206
 730              		.loc 1 270 23 is_stmt 0 view .LVU207
 731 0004 C360     		str	r3, [r0, #12]
 271:Device/Dev_ICM426xx.c ****     sensor_obj->get_timestamp = get_time_stamp;
 732              		.loc 1 271 5 is_stmt 1 view .LVU208
 733              		.loc 1 271 31 is_stmt 0 view .LVU209
 734 0006 009B     		ldr	r3, [sp]
 735              	.LVL67:
 736              		.loc 1 271 31 view .LVU210
 737 0008 0361     		str	r3, [r0, #16]
 272:Device/Dev_ICM426xx.c **** }
 738              		.loc 1 272 1 view .LVU211
 739 000a 7047     		bx	lr
 740              		.cfi_endproc
 741              	.LFE6:
 743              		.section	.text.DevICM426xx_SetUserBank,"ax",%progbits
 744              		.align	1
 745              		.syntax unified
 746              		.thumb
 747              		.thumb_func
 748              		.fpu fpv5-d16
 750              	DevICM426xx_SetUserBank:
 751              	.LVL68:
 752              	.LFB7:
 273:Device/Dev_ICM426xx.c **** 
 274:Device/Dev_ICM426xx.c **** static bool DevICM426xx_SetUserBank(DevICM426xxObj_TypeDef *sensor_obj, const uint8_t bank)
 275:Device/Dev_ICM426xx.c **** {
 753              		.loc 1 275 1 is_stmt 1 view -0
 754              		.cfi_startproc
 755              		@ args = 0, pretend = 0, frame = 8
 756              		@ frame_needed = 0, uses_anonymous_args = 0
 757              		.loc 1 275 1 is_stmt 0 view .LVU213
 758 0000 30B5     		push	{r4, r5, lr}
 759              	.LCFI19:
ARM GAS  C:\Users\HUAV\AppData\Local\Temp\ccpgM8up.s 			page 20


 760              		.cfi_def_cfa_offset 12
 761              		.cfi_offset 4, -12
 762              		.cfi_offset 5, -8
 763              		.cfi_offset 14, -4
 764 0002 83B0     		sub	sp, sp, #12
 765              	.LCFI20:
 766              		.cfi_def_cfa_offset 24
 276:Device/Dev_ICM426xx.c ****     bool state = true;
 767              		.loc 1 276 5 is_stmt 1 view .LVU214
 768              	.LVL69:
 277:Device/Dev_ICM426xx.c ****     uint8_t read_out = 0;
 769              		.loc 1 277 5 view .LVU215
 770              		.loc 1 277 13 is_stmt 0 view .LVU216
 771 0004 0023     		movs	r3, #0
 772 0006 8DF80730 		strb	r3, [sp, #7]
 278:Device/Dev_ICM426xx.c **** 
 279:Device/Dev_ICM426xx.c ****     if(sensor_obj == NULL)
 773              		.loc 1 279 5 is_stmt 1 view .LVU217
 774              		.loc 1 279 7 is_stmt 0 view .LVU218
 775 000a C8B1     		cbz	r0, .L59
 776 000c 0546     		mov	r5, r0
 280:Device/Dev_ICM426xx.c ****         return false;
 281:Device/Dev_ICM426xx.c **** 
 282:Device/Dev_ICM426xx.c ****     state = DevICM426xx_Reg_Write(sensor_obj, ICM426XX_RA_REG_BANK_SEL, UserBankToReg(bank));
 777              		.loc 1 282 5 is_stmt 1 view .LVU219
 778              		.loc 1 282 13 is_stmt 0 view .LVU220
 779 000e 01F00704 		and	r4, r1, #7
 780 0012 2246     		mov	r2, r4
 781 0014 7621     		movs	r1, #118
 782              	.LVL70:
 783              		.loc 1 282 13 view .LVU221
 784 0016 FFF7FEFF 		bl	DevICM426xx_Reg_Write
 785              	.LVL71:
 283:Device/Dev_ICM426xx.c **** 
 284:Device/Dev_ICM426xx.c ****     if(!state)
 786              		.loc 1 284 5 is_stmt 1 view .LVU222
 787              		.loc 1 284 7 is_stmt 0 view .LVU223
 788 001a 0346     		mov	r3, r0
 789 001c 10B9     		cbnz	r0, .L63
 790              	.LVL72:
 791              	.L58:
 285:Device/Dev_ICM426xx.c ****         return false;
 286:Device/Dev_ICM426xx.c **** 
 287:Device/Dev_ICM426xx.c ****     state = DevICM426xx_Reg_Read(sensor_obj, ICM426XX_RA_REG_BANK_SEL, &read_out);
 288:Device/Dev_ICM426xx.c ****     if((!state) || (read_out != UserBankToReg(bank)))
 289:Device/Dev_ICM426xx.c ****         return false;
 290:Device/Dev_ICM426xx.c **** 
 291:Device/Dev_ICM426xx.c ****     return true;
 292:Device/Dev_ICM426xx.c **** }
 792              		.loc 1 292 1 view .LVU224
 793 001e 1846     		mov	r0, r3
 794 0020 03B0     		add	sp, sp, #12
 795              	.LCFI21:
 796              		.cfi_remember_state
 797              		.cfi_def_cfa_offset 12
 798              		@ sp needed
 799 0022 30BD     		pop	{r4, r5, pc}
ARM GAS  C:\Users\HUAV\AppData\Local\Temp\ccpgM8up.s 			page 21


 800              	.LVL73:
 801              	.L63:
 802              	.LCFI22:
 803              		.cfi_restore_state
 287:Device/Dev_ICM426xx.c ****     if((!state) || (read_out != UserBankToReg(bank)))
 804              		.loc 1 287 5 is_stmt 1 view .LVU225
 287:Device/Dev_ICM426xx.c ****     if((!state) || (read_out != UserBankToReg(bank)))
 805              		.loc 1 287 13 is_stmt 0 view .LVU226
 806 0024 0DF10702 		add	r2, sp, #7
 807 0028 7621     		movs	r1, #118
 808 002a 2846     		mov	r0, r5
 809              	.LVL74:
 287:Device/Dev_ICM426xx.c ****     if((!state) || (read_out != UserBankToReg(bank)))
 810              		.loc 1 287 13 view .LVU227
 811 002c FFF7FEFF 		bl	DevICM426xx_Reg_Read
 812              	.LVL75:
 288:Device/Dev_ICM426xx.c ****         return false;
 813              		.loc 1 288 5 is_stmt 1 view .LVU228
 288:Device/Dev_ICM426xx.c ****         return false;
 814              		.loc 1 288 7 is_stmt 0 view .LVU229
 815 0030 0346     		mov	r3, r0
 816 0032 38B1     		cbz	r0, .L60
 288:Device/Dev_ICM426xx.c ****         return false;
 817              		.loc 1 288 30 discriminator 1 view .LVU230
 818 0034 9DF80720 		ldrb	r2, [sp, #7]	@ zero_extendqisi2
 288:Device/Dev_ICM426xx.c ****         return false;
 819              		.loc 1 288 17 discriminator 1 view .LVU231
 820 0038 9442     		cmp	r4, r2
 821 003a F0D0     		beq	.L58
 289:Device/Dev_ICM426xx.c **** 
 822              		.loc 1 289 16 view .LVU232
 823 003c 0023     		movs	r3, #0
 824 003e EEE7     		b	.L58
 825              	.LVL76:
 826              	.L59:
 280:Device/Dev_ICM426xx.c **** 
 827              		.loc 1 280 16 view .LVU233
 828 0040 0023     		movs	r3, #0
 829 0042 ECE7     		b	.L58
 830              	.LVL77:
 831              	.L60:
 289:Device/Dev_ICM426xx.c **** 
 832              		.loc 1 289 16 view .LVU234
 833 0044 0023     		movs	r3, #0
 834 0046 EAE7     		b	.L58
 835              		.cfi_endproc
 836              	.LFE7:
 838              		.section	.text.DevICM426xx_TurnOff_AccGyro,"ax",%progbits
 839              		.align	1
 840              		.syntax unified
 841              		.thumb
 842              		.thumb_func
 843              		.fpu fpv5-d16
 845              	DevICM426xx_TurnOff_AccGyro:
 846              	.LVL78:
 847              	.LFB8:
 293:Device/Dev_ICM426xx.c **** 
ARM GAS  C:\Users\HUAV\AppData\Local\Temp\ccpgM8up.s 			page 22


 294:Device/Dev_ICM426xx.c **** static bool DevICM426xx_TurnOff_AccGyro(DevICM426xxObj_TypeDef *sensor_obj)
 295:Device/Dev_ICM426xx.c **** {
 848              		.loc 1 295 1 is_stmt 1 view -0
 849              		.cfi_startproc
 850              		@ args = 0, pretend = 0, frame = 8
 851              		@ frame_needed = 0, uses_anonymous_args = 0
 852              		.loc 1 295 1 is_stmt 0 view .LVU236
 853 0000 10B5     		push	{r4, lr}
 854              	.LCFI23:
 855              		.cfi_def_cfa_offset 8
 856              		.cfi_offset 4, -8
 857              		.cfi_offset 14, -4
 858 0002 82B0     		sub	sp, sp, #8
 859              	.LCFI24:
 860              		.cfi_def_cfa_offset 16
 296:Device/Dev_ICM426xx.c ****     bool state = true;
 861              		.loc 1 296 5 is_stmt 1 view .LVU237
 862              	.LVL79:
 297:Device/Dev_ICM426xx.c ****     uint8_t read_out = 0;
 863              		.loc 1 297 5 view .LVU238
 864              		.loc 1 297 13 is_stmt 0 view .LVU239
 865 0004 0023     		movs	r3, #0
 866 0006 8DF80730 		strb	r3, [sp, #7]
 298:Device/Dev_ICM426xx.c **** 
 299:Device/Dev_ICM426xx.c ****     if(sensor_obj == NULL)
 867              		.loc 1 299 5 is_stmt 1 view .LVU240
 868              		.loc 1 299 7 is_stmt 0 view .LVU241
 869 000a B8B1     		cbz	r0, .L66
 870 000c 0446     		mov	r4, r0
 300:Device/Dev_ICM426xx.c ****         return false;
 301:Device/Dev_ICM426xx.c **** 
 302:Device/Dev_ICM426xx.c ****     state = DevICM426xx_Reg_Write(sensor_obj, ICM426XX_RA_PWR_MGMT0, ICM426XX_PWR_MGMT0_GYRO_ACCEL_
 871              		.loc 1 302 5 is_stmt 1 view .LVU242
 872              		.loc 1 302 13 is_stmt 0 view .LVU243
 873 000e 1A46     		mov	r2, r3
 874 0010 4E21     		movs	r1, #78
 875 0012 FFF7FEFF 		bl	DevICM426xx_Reg_Write
 876              	.LVL80:
 303:Device/Dev_ICM426xx.c **** 
 304:Device/Dev_ICM426xx.c ****     if(!state)
 877              		.loc 1 304 5 is_stmt 1 view .LVU244
 878              		.loc 1 304 7 is_stmt 0 view .LVU245
 879 0016 0346     		mov	r3, r0
 880 0018 10B9     		cbnz	r0, .L70
 881              	.LVL81:
 882              	.L65:
 305:Device/Dev_ICM426xx.c ****         return false;
 306:Device/Dev_ICM426xx.c **** 
 307:Device/Dev_ICM426xx.c ****     state = DevICM426xx_Reg_Read(sensor_obj, ICM426XX_RA_PWR_MGMT0, &read_out);
 308:Device/Dev_ICM426xx.c ****     if((!state) || (read_out != ICM426XX_PWR_MGMT0_GYRO_ACCEL_MODE_OFF))
 309:Device/Dev_ICM426xx.c ****         return false;
 310:Device/Dev_ICM426xx.c **** 
 311:Device/Dev_ICM426xx.c ****     return true;
 312:Device/Dev_ICM426xx.c **** }
 883              		.loc 1 312 1 view .LVU246
 884 001a 1846     		mov	r0, r3
 885 001c 02B0     		add	sp, sp, #8
ARM GAS  C:\Users\HUAV\AppData\Local\Temp\ccpgM8up.s 			page 23


 886              	.LCFI25:
 887              		.cfi_remember_state
 888              		.cfi_def_cfa_offset 8
 889              		@ sp needed
 890 001e 10BD     		pop	{r4, pc}
 891              	.LVL82:
 892              	.L70:
 893              	.LCFI26:
 894              		.cfi_restore_state
 307:Device/Dev_ICM426xx.c ****     if((!state) || (read_out != ICM426XX_PWR_MGMT0_GYRO_ACCEL_MODE_OFF))
 895              		.loc 1 307 5 is_stmt 1 view .LVU247
 307:Device/Dev_ICM426xx.c ****     if((!state) || (read_out != ICM426XX_PWR_MGMT0_GYRO_ACCEL_MODE_OFF))
 896              		.loc 1 307 13 is_stmt 0 view .LVU248
 897 0020 0DF10702 		add	r2, sp, #7
 898 0024 4E21     		movs	r1, #78
 899 0026 2046     		mov	r0, r4
 900              	.LVL83:
 307:Device/Dev_ICM426xx.c ****     if((!state) || (read_out != ICM426XX_PWR_MGMT0_GYRO_ACCEL_MODE_OFF))
 901              		.loc 1 307 13 view .LVU249
 902 0028 FFF7FEFF 		bl	DevICM426xx_Reg_Read
 903              	.LVL84:
 308:Device/Dev_ICM426xx.c ****         return false;
 904              		.loc 1 308 5 is_stmt 1 view .LVU250
 308:Device/Dev_ICM426xx.c ****         return false;
 905              		.loc 1 308 7 is_stmt 0 view .LVU251
 906 002c 0346     		mov	r3, r0
 907 002e 38B1     		cbz	r0, .L67
 308:Device/Dev_ICM426xx.c ****         return false;
 908              		.loc 1 308 30 discriminator 1 view .LVU252
 909 0030 9DF80720 		ldrb	r2, [sp, #7]	@ zero_extendqisi2
 308:Device/Dev_ICM426xx.c ****         return false;
 910              		.loc 1 308 17 discriminator 1 view .LVU253
 911 0034 002A     		cmp	r2, #0
 912 0036 F0D0     		beq	.L65
 309:Device/Dev_ICM426xx.c **** 
 913              		.loc 1 309 16 view .LVU254
 914 0038 0023     		movs	r3, #0
 915 003a EEE7     		b	.L65
 916              	.LVL85:
 917              	.L66:
 300:Device/Dev_ICM426xx.c **** 
 918              		.loc 1 300 16 view .LVU255
 919 003c 0023     		movs	r3, #0
 920 003e ECE7     		b	.L65
 921              	.LVL86:
 922              	.L67:
 309:Device/Dev_ICM426xx.c **** 
 923              		.loc 1 309 16 view .LVU256
 924 0040 0023     		movs	r3, #0
 925 0042 EAE7     		b	.L65
 926              		.cfi_endproc
 927              	.LFE8:
 929              		.section	.text.DevICM426xx_TurnOn_AccGyro,"ax",%progbits
 930              		.align	1
 931              		.syntax unified
 932              		.thumb
 933              		.thumb_func
ARM GAS  C:\Users\HUAV\AppData\Local\Temp\ccpgM8up.s 			page 24


 934              		.fpu fpv5-d16
 936              	DevICM426xx_TurnOn_AccGyro:
 937              	.LVL87:
 938              	.LFB9:
 313:Device/Dev_ICM426xx.c **** 
 314:Device/Dev_ICM426xx.c **** static bool DevICM426xx_TurnOn_AccGyro(DevICM426xxObj_TypeDef *sensor_obj)
 315:Device/Dev_ICM426xx.c **** {
 939              		.loc 1 315 1 is_stmt 1 view -0
 940              		.cfi_startproc
 941              		@ args = 0, pretend = 0, frame = 8
 942              		@ frame_needed = 0, uses_anonymous_args = 0
 943              		.loc 1 315 1 is_stmt 0 view .LVU258
 944 0000 30B5     		push	{r4, r5, lr}
 945              	.LCFI27:
 946              		.cfi_def_cfa_offset 12
 947              		.cfi_offset 4, -12
 948              		.cfi_offset 5, -8
 949              		.cfi_offset 14, -4
 950 0002 83B0     		sub	sp, sp, #12
 951              	.LCFI28:
 952              		.cfi_def_cfa_offset 24
 316:Device/Dev_ICM426xx.c ****     bool state = true;
 953              		.loc 1 316 5 is_stmt 1 view .LVU259
 954              	.LVL88:
 317:Device/Dev_ICM426xx.c ****     uint8_t read_out = 0;
 955              		.loc 1 317 5 view .LVU260
 956              		.loc 1 317 13 is_stmt 0 view .LVU261
 957 0004 0023     		movs	r3, #0
 958 0006 8DF80730 		strb	r3, [sp, #7]
 318:Device/Dev_ICM426xx.c **** 
 319:Device/Dev_ICM426xx.c ****     if((sensor_obj == NULL) || (sensor_obj->delay == NULL))
 959              		.loc 1 319 5 is_stmt 1 view .LVU262
 960              		.loc 1 319 7 is_stmt 0 view .LVU263
 961 000a E0B1     		cbz	r0, .L73
 962 000c 0546     		mov	r5, r0
 963              		.loc 1 319 43 discriminator 1 view .LVU264
 964 000e C368     		ldr	r3, [r0, #12]
 965              		.loc 1 319 29 discriminator 1 view .LVU265
 966 0010 DBB1     		cbz	r3, .L74
 320:Device/Dev_ICM426xx.c ****         return false;
 321:Device/Dev_ICM426xx.c **** 
 322:Device/Dev_ICM426xx.c ****     state = DevICM426xx_Reg_Write(sensor_obj, ICM426XX_RA_PWR_MGMT0, ICM426XX_PWR_MGMT0_TEMP_DISABL
 967              		.loc 1 322 5 is_stmt 1 view .LVU266
 968              		.loc 1 322 13 is_stmt 0 view .LVU267
 969 0012 0F22     		movs	r2, #15
 970 0014 4E21     		movs	r1, #78
 971 0016 FFF7FEFF 		bl	DevICM426xx_Reg_Write
 972              	.LVL89:
 973              		.loc 1 322 13 view .LVU268
 974 001a 0446     		mov	r4, r0
 975              	.LVL90:
 323:Device/Dev_ICM426xx.c ****     sensor_obj->delay(1);
 976              		.loc 1 323 5 is_stmt 1 view .LVU269
 977              		.loc 1 323 15 is_stmt 0 view .LVU270
 978 001c EB68     		ldr	r3, [r5, #12]
 979              		.loc 1 323 5 view .LVU271
 980 001e 0120     		movs	r0, #1
ARM GAS  C:\Users\HUAV\AppData\Local\Temp\ccpgM8up.s 			page 25


 981 0020 9847     		blx	r3
 982              	.LVL91:
 324:Device/Dev_ICM426xx.c **** 
 325:Device/Dev_ICM426xx.c ****     if(!state)
 983              		.loc 1 325 5 is_stmt 1 view .LVU272
 984              		.loc 1 325 7 is_stmt 0 view .LVU273
 985 0022 14B9     		cbnz	r4, .L78
 986              	.LVL92:
 987              	.L72:
 326:Device/Dev_ICM426xx.c ****         return false;
 327:Device/Dev_ICM426xx.c **** 
 328:Device/Dev_ICM426xx.c ****     state = DevICM426xx_Reg_Read(sensor_obj, ICM426XX_RA_PWR_MGMT0, &read_out);
 329:Device/Dev_ICM426xx.c ****     if((!state) || (read_out != (ICM426XX_PWR_MGMT0_TEMP_DISABLE_OFF | ICM426XX_PWR_MGMT0_ACCEL_MOD
 330:Device/Dev_ICM426xx.c ****         return false;
 331:Device/Dev_ICM426xx.c **** 
 332:Device/Dev_ICM426xx.c ****     return true;
 333:Device/Dev_ICM426xx.c **** }
 988              		.loc 1 333 1 view .LVU274
 989 0024 2046     		mov	r0, r4
 990 0026 03B0     		add	sp, sp, #12
 991              	.LCFI29:
 992              		.cfi_remember_state
 993              		.cfi_def_cfa_offset 12
 994              		@ sp needed
 995 0028 30BD     		pop	{r4, r5, pc}
 996              	.LVL93:
 997              	.L78:
 998              	.LCFI30:
 999              		.cfi_restore_state
 328:Device/Dev_ICM426xx.c ****     if((!state) || (read_out != (ICM426XX_PWR_MGMT0_TEMP_DISABLE_OFF | ICM426XX_PWR_MGMT0_ACCEL_MOD
 1000              		.loc 1 328 5 is_stmt 1 view .LVU275
 328:Device/Dev_ICM426xx.c ****     if((!state) || (read_out != (ICM426XX_PWR_MGMT0_TEMP_DISABLE_OFF | ICM426XX_PWR_MGMT0_ACCEL_MOD
 1001              		.loc 1 328 13 is_stmt 0 view .LVU276
 1002 002a 0DF10702 		add	r2, sp, #7
 1003 002e 4E21     		movs	r1, #78
 1004 0030 2846     		mov	r0, r5
 1005 0032 FFF7FEFF 		bl	DevICM426xx_Reg_Read
 1006              	.LVL94:
 329:Device/Dev_ICM426xx.c ****         return false;
 1007              		.loc 1 329 5 is_stmt 1 view .LVU277
 329:Device/Dev_ICM426xx.c ****         return false;
 1008              		.loc 1 329 7 is_stmt 0 view .LVU278
 1009 0036 0446     		mov	r4, r0
 1010 0038 48B1     		cbz	r0, .L75
 329:Device/Dev_ICM426xx.c ****         return false;
 1011              		.loc 1 329 30 discriminator 1 view .LVU279
 1012 003a 9DF80730 		ldrb	r3, [sp, #7]	@ zero_extendqisi2
 329:Device/Dev_ICM426xx.c ****         return false;
 1013              		.loc 1 329 17 discriminator 1 view .LVU280
 1014 003e 0F2B     		cmp	r3, #15
 1015 0040 F0D0     		beq	.L72
 330:Device/Dev_ICM426xx.c **** 
 1016              		.loc 1 330 16 view .LVU281
 1017 0042 0024     		movs	r4, #0
 1018 0044 EEE7     		b	.L72
 1019              	.LVL95:
 1020              	.L73:
ARM GAS  C:\Users\HUAV\AppData\Local\Temp\ccpgM8up.s 			page 26


 320:Device/Dev_ICM426xx.c **** 
 1021              		.loc 1 320 16 view .LVU282
 1022 0046 0024     		movs	r4, #0
 1023 0048 ECE7     		b	.L72
 1024              	.L74:
 320:Device/Dev_ICM426xx.c **** 
 1025              		.loc 1 320 16 view .LVU283
 1026 004a 0024     		movs	r4, #0
 1027 004c EAE7     		b	.L72
 1028              	.LVL96:
 1029              	.L75:
 330:Device/Dev_ICM426xx.c **** 
 1030              		.loc 1 330 16 view .LVU284
 1031 004e 0024     		movs	r4, #0
 1032 0050 E8E7     		b	.L72
 1033              		.cfi_endproc
 1034              	.LFE9:
 1036              		.section	.rodata.DevICM426xx_Init.str1.4,"aMS",%progbits,1
 1037              		.align	2
 1038              	.LC0:
 1039 0000 00       		.ascii	"\000"
 1040              		.section	.text.DevICM426xx_Init,"ax",%progbits
 1041              		.align	1
 1042              		.syntax unified
 1043              		.thumb
 1044              		.thumb_func
 1045              		.fpu fpv5-d16
 1047              	DevICM426xx_Init:
 1048              	.LVL97:
 1049              	.LFB10:
 334:Device/Dev_ICM426xx.c **** 
 335:Device/Dev_ICM426xx.c **** static bool DevICM426xx_Init(DevICM426xxObj_TypeDef *sensor_obj)
 336:Device/Dev_ICM426xx.c **** {
 1050              		.loc 1 336 1 is_stmt 1 view -0
 1051              		.cfi_startproc
 1052              		@ args = 0, pretend = 0, frame = 8
 1053              		@ frame_needed = 0, uses_anonymous_args = 0
 1054              		.loc 1 336 1 is_stmt 0 view .LVU286
 1055 0000 30B5     		push	{r4, r5, lr}
 1056              	.LCFI31:
 1057              		.cfi_def_cfa_offset 12
 1058              		.cfi_offset 4, -12
 1059              		.cfi_offset 5, -8
 1060              		.cfi_offset 14, -4
 1061 0002 83B0     		sub	sp, sp, #12
 1062              	.LCFI32:
 1063              		.cfi_def_cfa_offset 24
 337:Device/Dev_ICM426xx.c ****     uint8_t read_out = 0;
 1064              		.loc 1 337 5 is_stmt 1 view .LVU287
 1065              		.loc 1 337 13 is_stmt 0 view .LVU288
 1066 0004 0023     		movs	r3, #0
 1067 0006 8DF80730 		strb	r3, [sp, #7]
 338:Device/Dev_ICM426xx.c ****     uint8_t intConfig1Value = 0;
 1068              		.loc 1 338 5 is_stmt 1 view .LVU289
 1069              		.loc 1 338 13 is_stmt 0 view .LVU290
 1070 000a 8DF80630 		strb	r3, [sp, #6]
 339:Device/Dev_ICM426xx.c ****     ICM426xx_AAF_Config_TypeDef *aaf_tab = NULL;
ARM GAS  C:\Users\HUAV\AppData\Local\Temp\ccpgM8up.s 			page 27


 1071              		.loc 1 339 5 is_stmt 1 view .LVU291
 1072              	.LVL98:
 340:Device/Dev_ICM426xx.c **** 
 341:Device/Dev_ICM426xx.c ****     if((sensor_obj == NULL) || 
 1073              		.loc 1 341 5 view .LVU292
 1074              		.loc 1 341 7 is_stmt 0 view .LVU293
 1075 000e 0446     		mov	r4, r0
 1076 0010 B0B1     		cbz	r0, .L80
 342:Device/Dev_ICM426xx.c ****        (sensor_obj->cs_ctl == NULL) || 
 1077              		.loc 1 342 19 discriminator 1 view .LVU294
 1078 0012 4368     		ldr	r3, [r0, #4]
 341:Device/Dev_ICM426xx.c ****        (sensor_obj->cs_ctl == NULL) || 
 1079              		.loc 1 341 29 discriminator 1 view .LVU295
 1080 0014 A3B1     		cbz	r3, .L80
 343:Device/Dev_ICM426xx.c ****        (sensor_obj->bus_trans == NULL))
 1081              		.loc 1 343 19 view .LVU296
 1082 0016 8368     		ldr	r3, [r0, #8]
 342:Device/Dev_ICM426xx.c ****        (sensor_obj->cs_ctl == NULL) || 
 1083              		.loc 1 342 37 view .LVU297
 1084 0018 93B1     		cbz	r3, .L80
 344:Device/Dev_ICM426xx.c ****     {
 345:Device/Dev_ICM426xx.c ****         IMUData_SetError(&(sensor_obj->error), ICM426xx_Obj_Error, __FUNCTION__, __LINE__, 0, 0, 0)
 346:Device/Dev_ICM426xx.c ****         return false;
 347:Device/Dev_ICM426xx.c ****     }
 348:Device/Dev_ICM426xx.c **** 
 349:Device/Dev_ICM426xx.c ****     /* get sensor type first */
 350:Device/Dev_ICM426xx.c ****     if(!DevICM426xx_Reg_Read(sensor_obj, ICM426XX_WHO_AM_I, &read_out))
 1085              		.loc 1 350 5 is_stmt 1 view .LVU298
 1086              		.loc 1 350 9 is_stmt 0 view .LVU299
 1087 001a 0DF10702 		add	r2, sp, #7
 1088 001e 7521     		movs	r1, #117
 1089 0020 FFF7FEFF 		bl	DevICM426xx_Reg_Read
 1090              	.LVL99:
 1091              		.loc 1 350 7 view .LVU300
 1092 0024 08B3     		cbz	r0, .L173
 351:Device/Dev_ICM426xx.c ****     {
 352:Device/Dev_ICM426xx.c ****         IMUData_SetError(&(sensor_obj->error), ICM426xx_Reg_RW_Error, __FUNCTION__, __LINE__, 0, 0,
 353:Device/Dev_ICM426xx.c ****         return false;
 354:Device/Dev_ICM426xx.c ****     }
 355:Device/Dev_ICM426xx.c **** 
 356:Device/Dev_ICM426xx.c ****     switch (read_out)
 1093              		.loc 1 356 5 is_stmt 1 view .LVU301
 1094 0026 9DF80730 		ldrb	r3, [sp, #7]	@ zero_extendqisi2
 1095 002a 422B     		cmp	r3, #66
 1096 002c 30D0     		beq	.L86
 1097 002e 472B     		cmp	r3, #71
 1098 0030 49D0     		beq	.L87
 357:Device/Dev_ICM426xx.c ****     {
 358:Device/Dev_ICM426xx.c ****         case ICM42605_DEV_ID:
 359:Device/Dev_ICM426xx.c ****             sensor_obj->type = ICM42605;
 360:Device/Dev_ICM426xx.c ****             aaf_tab = aafLUT42605;
 361:Device/Dev_ICM426xx.c ****             break;
 362:Device/Dev_ICM426xx.c **** 
 363:Device/Dev_ICM426xx.c ****         case ICM42688P_DEV_ID:
 364:Device/Dev_ICM426xx.c ****             sensor_obj->type = ICM42688P;
 365:Device/Dev_ICM426xx.c ****             aaf_tab = aafLUT42688;
 366:Device/Dev_ICM426xx.c ****             break; 
ARM GAS  C:\Users\HUAV\AppData\Local\Temp\ccpgM8up.s 			page 28


 367:Device/Dev_ICM426xx.c **** 
 368:Device/Dev_ICM426xx.c ****         default:
 369:Device/Dev_ICM426xx.c ****             sensor_obj->type = ICM_NONE;
 1099              		.loc 1 369 13 view .LVU302
 1100              		.loc 1 369 30 is_stmt 0 view .LVU303
 1101 0032 0223     		movs	r3, #2
 1102 0034 2370     		strb	r3, [r4]
 370:Device/Dev_ICM426xx.c ****             sensor_obj->error.code = ICM426xx_DevID_Error;
 1103              		.loc 1 370 13 is_stmt 1 view .LVU304
 1104              		.loc 1 370 36 is_stmt 0 view .LVU305
 1105 0036 0923     		movs	r3, #9
 1106 0038 84F82430 		strb	r3, [r4, #36]
 371:Device/Dev_ICM426xx.c ****             return false;
 1107              		.loc 1 371 13 is_stmt 1 view .LVU306
 1108              		.loc 1 371 20 is_stmt 0 view .LVU307
 1109 003c 0020     		movs	r0, #0
 1110 003e 12E0     		b	.L83
 1111              	.LVL100:
 1112              	.L80:
 345:Device/Dev_ICM426xx.c ****         return false;
 1113              		.loc 1 345 9 is_stmt 1 view .LVU308
 1114              	.LBB78:
 1115              	.LBI78:
 1116              		.file 2 "Service/imu_data.h"
   1:Service/imu_data.h **** #ifndef __IMU_DATA_H
   2:Service/imu_data.h **** #define __IMU_DATA_H
   3:Service/imu_data.h **** 
   4:Service/imu_data.h **** #include <stdbool.h>
   5:Service/imu_data.h **** #include <stdint.h>
   6:Service/imu_data.h **** #include <string.h>
   7:Service/imu_data.h **** 
   8:Service/imu_data.h **** /*
   9:Service/imu_data.h ****  *  CNT 100 in 2K Sample Frequence is about keeping 50Ms abnormality data
  10:Service/imu_data.h ****  */
  11:Service/imu_data.h **** #define IMU_BLUNT_SAMPLE_CNT 100
  12:Service/imu_data.h **** 
  13:Service/imu_data.h **** typedef void (*cs_ctl_callback)(bool state);
  14:Service/imu_data.h **** typedef bool (*bus_trans_callback)(uint8_t *tx, uint8_t *rx, uint16_t len);
  15:Service/imu_data.h **** typedef void (*delay_callback)(uint32_t ms);
  16:Service/imu_data.h **** typedef uint64_t (*get_time_stamp_callback)(void);
  17:Service/imu_data.h **** 
  18:Service/imu_data.h **** typedef enum
  19:Service/imu_data.h **** {
  20:Service/imu_data.h ****     Axis_X = 0,
  21:Service/imu_data.h ****     Axis_Y,
  22:Service/imu_data.h ****     Axis_Z,
  23:Service/imu_data.h ****     Axis_Sum,
  24:Service/imu_data.h **** } Axis_List;
  25:Service/imu_data.h **** 
  26:Service/imu_data.h **** #pragma pack(1)
  27:Service/imu_data.h **** typedef struct
  28:Service/imu_data.h **** {
  29:Service/imu_data.h ****     uint64_t time_stamp;
  30:Service/imu_data.h ****     uint64_t cycle_cnt;
  31:Service/imu_data.h **** 
  32:Service/imu_data.h ****     int16_t temp_int;
  33:Service/imu_data.h ****     int16_t gyr_int[Axis_Sum];
ARM GAS  C:\Users\HUAV\AppData\Local\Temp\ccpgM8up.s 			page 29


  34:Service/imu_data.h ****     int16_t acc_int[Axis_Sum];
  35:Service/imu_data.h **** 
  36:Service/imu_data.h ****     float temp_flt;
  37:Service/imu_data.h ****     float gyr_flt[Axis_Sum];
  38:Service/imu_data.h ****     float acc_flt[Axis_Sum];
  39:Service/imu_data.h **** 
  40:Service/imu_data.h ****     int16_t gyr_int_lst[Axis_Sum];
  41:Service/imu_data.h ****     int16_t acc_int_lst[Axis_Sum];
  42:Service/imu_data.h **** 
  43:Service/imu_data.h ****     uint8_t gyr_blunt_cnt[Axis_Sum];
  44:Service/imu_data.h ****     uint8_t acc_blunt_cnt[Axis_Sum];
  45:Service/imu_data.h **** } IMUData_TypeDef;
  46:Service/imu_data.h **** 
  47:Service/imu_data.h **** typedef struct
  48:Service/imu_data.h **** {
  49:Service/imu_data.h ****     float acc_scale;
  50:Service/imu_data.h ****     float gyr_scale;
  51:Service/imu_data.h **** } IMUModuleScale_TypeDef;
  52:Service/imu_data.h **** #pragma pack()
  53:Service/imu_data.h **** 
  54:Service/imu_data.h **** typedef struct
  55:Service/imu_data.h **** {
  56:Service/imu_data.h ****     uint8_t code;
  57:Service/imu_data.h ****     char* function;
  58:Service/imu_data.h ****     uint16_t line;
  59:Service/imu_data.h **** 
  60:Service/imu_data.h ****     uint8_t tar_reg;
  61:Service/imu_data.h ****     uint8_t reg_r_val;
  62:Service/imu_data.h ****     uint8_t reg_t_val;
  63:Service/imu_data.h **** }IMU_Error_TypeDef;
  64:Service/imu_data.h **** 
  65:Service/imu_data.h **** inline void IMUData_SetError(IMU_Error_TypeDef *error, uint8_t code, char* func, uint16_t line, uin
 1117              		.loc 2 65 13 view .LVU309
 1118              	.LBB79:
  66:Service/imu_data.h **** {
  67:Service/imu_data.h ****     if(error)
 1119              		.loc 2 67 5 view .LVU310
 1120              		.loc 2 67 7 is_stmt 0 view .LVU311
 1121 0040 14F1240F 		cmn	r4, #36
 1122 0044 0ED0     		beq	.L82
  68:Service/imu_data.h ****     {
  69:Service/imu_data.h ****         error->code = code;
 1123              		.loc 2 69 9 is_stmt 1 view .LVU312
 1124              		.loc 2 69 21 is_stmt 0 view .LVU313
 1125 0046 0123     		movs	r3, #1
 1126 0048 84F82430 		strb	r3, [r4, #36]
  70:Service/imu_data.h ****         error->function = func;
 1127              		.loc 2 70 9 is_stmt 1 view .LVU314
 1128              		.loc 2 70 25 is_stmt 0 view .LVU315
 1129 004c B04B     		ldr	r3, .L182
 1130 004e A362     		str	r3, [r4, #40]
  71:Service/imu_data.h ****         error->line = line;
 1131              		.loc 2 71 9 is_stmt 1 view .LVU316
 1132              		.loc 2 71 21 is_stmt 0 view .LVU317
 1133 0050 40F25913 		movw	r3, #345
 1134 0054 A385     		strh	r3, [r4, #44]	@ movhi
  72:Service/imu_data.h **** 
ARM GAS  C:\Users\HUAV\AppData\Local\Temp\ccpgM8up.s 			page 30


  73:Service/imu_data.h ****         error->tar_reg = reg;
 1135              		.loc 2 73 9 is_stmt 1 view .LVU318
 1136              		.loc 2 73 24 is_stmt 0 view .LVU319
 1137 0056 0023     		movs	r3, #0
 1138 0058 84F82E30 		strb	r3, [r4, #46]
  74:Service/imu_data.h ****         error->reg_r_val = reg_r;
 1139              		.loc 2 74 9 is_stmt 1 view .LVU320
 1140              		.loc 2 74 26 is_stmt 0 view .LVU321
 1141 005c 84F82F30 		strb	r3, [r4, #47]
  75:Service/imu_data.h ****         error->reg_t_val = reg_t;
 1142              		.loc 2 75 9 is_stmt 1 view .LVU322
 1143              		.loc 2 75 26 is_stmt 0 view .LVU323
 1144 0060 84F83030 		strb	r3, [r4, #48]
 1145              	.L82:
 1146              	.LVL101:
 1147              		.loc 2 75 26 view .LVU324
 1148              	.LBE79:
 1149              	.LBE78:
 346:Device/Dev_ICM426xx.c ****     }
 1150              		.loc 1 346 9 is_stmt 1 view .LVU325
 346:Device/Dev_ICM426xx.c ****     }
 1151              		.loc 1 346 16 is_stmt 0 view .LVU326
 1152 0064 0020     		movs	r0, #0
 1153              	.LVL102:
 1154              	.L83:
 372:Device/Dev_ICM426xx.c ****     }
 373:Device/Dev_ICM426xx.c **** 
 374:Device/Dev_ICM426xx.c ****     if(!DevICM426xx_SetUserBank(sensor_obj, ICM426XX_BANK_SELECT0))
 375:Device/Dev_ICM426xx.c ****     {
 376:Device/Dev_ICM426xx.c ****         IMUData_SetError(&(sensor_obj->error), ICM426xx_Reg_RW_Error, __FUNCTION__, __LINE__, 0, 0,
 377:Device/Dev_ICM426xx.c ****         return false;
 378:Device/Dev_ICM426xx.c ****     }
 379:Device/Dev_ICM426xx.c **** 
 380:Device/Dev_ICM426xx.c ****     /* turn acc gyro off for setting */
 381:Device/Dev_ICM426xx.c ****     if(!DevICM426xx_TurnOff_AccGyro(sensor_obj))
 382:Device/Dev_ICM426xx.c ****     {
 383:Device/Dev_ICM426xx.c ****         IMUData_SetError(&(sensor_obj->error), ICM426xx_AccGyr_TurnOff_Error, __FUNCTION__, __LINE_
 384:Device/Dev_ICM426xx.c ****         return false;
 385:Device/Dev_ICM426xx.c ****     }
 386:Device/Dev_ICM426xx.c **** 
 387:Device/Dev_ICM426xx.c ****     /* config gyro */
 388:Device/Dev_ICM426xx.c ****     if(!DevICM426xx_SetUserBank(sensor_obj, ICM426XX_BANK_SELECT1))
 389:Device/Dev_ICM426xx.c ****     {
 390:Device/Dev_ICM426xx.c ****         IMUData_SetError(&(sensor_obj->error), ICM426xx_Reg_RW_Error, __FUNCTION__, __LINE__, 0, 0,
 391:Device/Dev_ICM426xx.c ****         return false;
 392:Device/Dev_ICM426xx.c ****     }
 393:Device/Dev_ICM426xx.c **** 
 394:Device/Dev_ICM426xx.c ****     if(!DevICM426xx_Reg_Write(sensor_obj, ICM426XX_RA_GYRO_CONFIG_STATIC3, aaf_tab[ICM426xx_AAF_258
 395:Device/Dev_ICM426xx.c ****        !DevICM426xx_Reg_Read(sensor_obj, ICM426XX_RA_GYRO_CONFIG_STATIC3, &read_out))
 396:Device/Dev_ICM426xx.c ****     {
 397:Device/Dev_ICM426xx.c ****         IMUData_SetError(&(sensor_obj->error), ICM426xx_Reg_RW_Error, __FUNCTION__, __LINE__, 0, 0,
 398:Device/Dev_ICM426xx.c ****         return false;
 399:Device/Dev_ICM426xx.c ****     }
 400:Device/Dev_ICM426xx.c **** 
 401:Device/Dev_ICM426xx.c ****     if(read_out != aaf_tab[ICM426xx_AAF_258Hz].delt)
 402:Device/Dev_ICM426xx.c ****     {
 403:Device/Dev_ICM426xx.c ****         IMUData_SetError(&(sensor_obj->error), ICM426xx_GyrAAF_Error, __FUNCTION__, __LINE__, ICM42
ARM GAS  C:\Users\HUAV\AppData\Local\Temp\ccpgM8up.s 			page 31


 404:Device/Dev_ICM426xx.c ****         return false;
 405:Device/Dev_ICM426xx.c ****     }
 406:Device/Dev_ICM426xx.c **** 
 407:Device/Dev_ICM426xx.c ****     if(!DevICM426xx_Reg_Write(sensor_obj, ICM426XX_RA_GYRO_CONFIG_STATIC4, aaf_tab[ICM426xx_AAF_258
 408:Device/Dev_ICM426xx.c ****        !DevICM426xx_Reg_Read(sensor_obj, ICM426XX_RA_GYRO_CONFIG_STATIC4, &read_out))
 409:Device/Dev_ICM426xx.c ****     {
 410:Device/Dev_ICM426xx.c ****         IMUData_SetError(&(sensor_obj->error), ICM426xx_Reg_RW_Error, __FUNCTION__, __LINE__, 0, 0,
 411:Device/Dev_ICM426xx.c ****         return false;
 412:Device/Dev_ICM426xx.c ****     }
 413:Device/Dev_ICM426xx.c **** 
 414:Device/Dev_ICM426xx.c ****     if(read_out != (aaf_tab[ICM426xx_AAF_258Hz].deltSqr & 0xFF))
 415:Device/Dev_ICM426xx.c ****     {
 416:Device/Dev_ICM426xx.c ****         IMUData_SetError(&(sensor_obj->error), ICM426xx_GyrAAF_Error, __FUNCTION__, __LINE__, ICM42
 417:Device/Dev_ICM426xx.c ****                          aaf_tab[ICM426xx_AAF_258Hz].deltSqr & 0xFF);
 418:Device/Dev_ICM426xx.c ****         return false;
 419:Device/Dev_ICM426xx.c ****     }
 420:Device/Dev_ICM426xx.c **** 
 421:Device/Dev_ICM426xx.c ****     if(!DevICM426xx_Reg_Write(sensor_obj, ICM426XX_RA_GYRO_CONFIG_STATIC5, (aaf_tab[ICM426xx_AAF_25
 422:Device/Dev_ICM426xx.c ****        !DevICM426xx_Reg_Read(sensor_obj, ICM426XX_RA_GYRO_CONFIG_STATIC5, &read_out))
 423:Device/Dev_ICM426xx.c ****     {
 424:Device/Dev_ICM426xx.c ****         IMUData_SetError(&(sensor_obj->error), ICM426xx_Reg_RW_Error, __FUNCTION__, __LINE__, 0, 0,
 425:Device/Dev_ICM426xx.c ****         return false;
 426:Device/Dev_ICM426xx.c ****     }
 427:Device/Dev_ICM426xx.c **** 
 428:Device/Dev_ICM426xx.c ****     if(read_out != ((aaf_tab[ICM426xx_AAF_258Hz].deltSqr >> 8) | (aaf_tab[ICM426xx_AAF_258Hz].bitsh
 429:Device/Dev_ICM426xx.c ****     {
 430:Device/Dev_ICM426xx.c ****         IMUData_SetError(&(sensor_obj->error), ICM426xx_GyrAAF_Error, __FUNCTION__, __LINE__, ICM42
 431:Device/Dev_ICM426xx.c ****                          (aaf_tab[ICM426xx_AAF_258Hz].deltSqr >> 8) | (aaf_tab[ICM426xx_AAF_258Hz].
 432:Device/Dev_ICM426xx.c ****         return false;
 433:Device/Dev_ICM426xx.c ****     }
 434:Device/Dev_ICM426xx.c **** 
 435:Device/Dev_ICM426xx.c ****     /* config acc */
 436:Device/Dev_ICM426xx.c ****     if(!DevICM426xx_SetUserBank(sensor_obj, ICM426XX_BANK_SELECT2))
 437:Device/Dev_ICM426xx.c ****     {
 438:Device/Dev_ICM426xx.c ****         IMUData_SetError(&(sensor_obj->error), ICM426xx_Reg_RW_Error, __FUNCTION__, __LINE__, 0, 0,
 439:Device/Dev_ICM426xx.c ****         return false;
 440:Device/Dev_ICM426xx.c ****     }
 441:Device/Dev_ICM426xx.c **** 
 442:Device/Dev_ICM426xx.c ****     if(!DevICM426xx_Reg_Write(sensor_obj, ICM426XX_RA_ACCEL_CONFIG_STATIC2, aaf_tab[ICM426xx_AAF_25
 443:Device/Dev_ICM426xx.c ****        !DevICM426xx_Reg_Read(sensor_obj, ICM426XX_RA_ACCEL_CONFIG_STATIC2, &read_out))
 444:Device/Dev_ICM426xx.c ****     {
 445:Device/Dev_ICM426xx.c ****         IMUData_SetError(&(sensor_obj->error), ICM426xx_Reg_RW_Error, __FUNCTION__, __LINE__, 0, 0,
 446:Device/Dev_ICM426xx.c ****         return false;
 447:Device/Dev_ICM426xx.c ****     }
 448:Device/Dev_ICM426xx.c **** 
 449:Device/Dev_ICM426xx.c ****     if(read_out != (aaf_tab[ICM426xx_AAF_258Hz].delt << 1))
 450:Device/Dev_ICM426xx.c ****     {
 451:Device/Dev_ICM426xx.c ****         IMUData_SetError(&(sensor_obj->error), ICM426xx_AccAAF_Error, __FUNCTION__, __LINE__, ICM42
 452:Device/Dev_ICM426xx.c ****         return false;
 453:Device/Dev_ICM426xx.c ****     }
 454:Device/Dev_ICM426xx.c **** 
 455:Device/Dev_ICM426xx.c ****     if(!DevICM426xx_Reg_Write(sensor_obj, ICM426XX_RA_ACCEL_CONFIG_STATIC3, aaf_tab[ICM426xx_AAF_25
 456:Device/Dev_ICM426xx.c ****        !DevICM426xx_Reg_Read(sensor_obj, ICM426XX_RA_ACCEL_CONFIG_STATIC3, &read_out))
 457:Device/Dev_ICM426xx.c ****     {
 458:Device/Dev_ICM426xx.c ****         IMUData_SetError(&(sensor_obj->error), ICM426xx_Reg_RW_Error, __FUNCTION__, __LINE__, 0, 0,
 459:Device/Dev_ICM426xx.c ****         return false;
 460:Device/Dev_ICM426xx.c ****     }
ARM GAS  C:\Users\HUAV\AppData\Local\Temp\ccpgM8up.s 			page 32


 461:Device/Dev_ICM426xx.c **** 
 462:Device/Dev_ICM426xx.c ****     if(read_out != (aaf_tab[ICM426xx_AAF_258Hz].deltSqr & 0xFF))
 463:Device/Dev_ICM426xx.c ****     {
 464:Device/Dev_ICM426xx.c ****         IMUData_SetError(&(sensor_obj->error), ICM426xx_AccAAF_Error, __FUNCTION__, __LINE__, ICM42
 465:Device/Dev_ICM426xx.c ****                          aaf_tab[ICM426xx_AAF_258Hz].deltSqr & 0xFF);
 466:Device/Dev_ICM426xx.c ****         return false;
 467:Device/Dev_ICM426xx.c ****     }
 468:Device/Dev_ICM426xx.c **** 
 469:Device/Dev_ICM426xx.c ****     if(!DevICM426xx_Reg_Write(sensor_obj, ICM426XX_RA_ACCEL_CONFIG_STATIC4, (aaf_tab[ICM426xx_AAF_2
 470:Device/Dev_ICM426xx.c ****        !DevICM426xx_Reg_Read(sensor_obj, ICM426XX_RA_ACCEL_CONFIG_STATIC4, &read_out))
 471:Device/Dev_ICM426xx.c ****     {
 472:Device/Dev_ICM426xx.c ****         IMUData_SetError(&(sensor_obj->error), ICM426xx_Reg_RW_Error, __FUNCTION__, __LINE__, 0, 0,
 473:Device/Dev_ICM426xx.c ****         return false;
 474:Device/Dev_ICM426xx.c ****     }
 475:Device/Dev_ICM426xx.c **** 
 476:Device/Dev_ICM426xx.c ****     if(read_out != ((aaf_tab[ICM426xx_AAF_258Hz].deltSqr >> 8) | (aaf_tab[ICM426xx_AAF_258Hz].bitsh
 477:Device/Dev_ICM426xx.c ****     {
 478:Device/Dev_ICM426xx.c ****         IMUData_SetError(&(sensor_obj->error), ICM426xx_AccAAF_Error, __FUNCTION__, __LINE__, ICM42
 479:Device/Dev_ICM426xx.c ****                          (aaf_tab[ICM426xx_AAF_258Hz].deltSqr >> 8) | (aaf_tab[ICM426xx_AAF_258Hz].
 480:Device/Dev_ICM426xx.c ****         return false;
 481:Device/Dev_ICM426xx.c ****     }
 482:Device/Dev_ICM426xx.c **** 
 483:Device/Dev_ICM426xx.c ****     /* config UI filter */
 484:Device/Dev_ICM426xx.c ****     if(!DevICM426xx_SetUserBank(sensor_obj, ICM426XX_BANK_SELECT0))
 485:Device/Dev_ICM426xx.c ****     {
 486:Device/Dev_ICM426xx.c ****         IMUData_SetError(&(sensor_obj->error), ICM426xx_Reg_RW_Error, __FUNCTION__, __LINE__, 0, 0,
 487:Device/Dev_ICM426xx.c ****         return false;
 488:Device/Dev_ICM426xx.c ****     }
 489:Device/Dev_ICM426xx.c **** 
 490:Device/Dev_ICM426xx.c ****     if(!DevICM426xx_Reg_Write(sensor_obj, ICM426XX_RA_GYRO_ACCEL_CONFIG0, ICM426XX_ACCEL_UI_FILT_BW
 491:Device/Dev_ICM426xx.c ****        !DevICM426xx_Reg_Read(sensor_obj, ICM426XX_RA_GYRO_ACCEL_CONFIG0, &read_out))
 492:Device/Dev_ICM426xx.c ****     {
 493:Device/Dev_ICM426xx.c ****         IMUData_SetError(&(sensor_obj->error), ICM426xx_Reg_RW_Error, __FUNCTION__, __LINE__, 0, 0,
 494:Device/Dev_ICM426xx.c ****         return false;
 495:Device/Dev_ICM426xx.c ****     }
 496:Device/Dev_ICM426xx.c **** 
 497:Device/Dev_ICM426xx.c ****     if(read_out != (ICM426XX_ACCEL_UI_FILT_BW_LOW_LATENCY | ICM426XX_GYRO_UI_FILT_BW_LOW_LATENCY))
 498:Device/Dev_ICM426xx.c ****     {
 499:Device/Dev_ICM426xx.c ****         IMUData_SetError(&(sensor_obj->error), ICM426xx_UI_Filter_Error, __FUNCTION__, __LINE__, IC
 500:Device/Dev_ICM426xx.c ****                          ICM426XX_ACCEL_UI_FILT_BW_LOW_LATENCY | ICM426XX_GYRO_UI_FILT_BW_LOW_LATEN
 501:Device/Dev_ICM426xx.c ****         return false;
 502:Device/Dev_ICM426xx.c ****     }
 503:Device/Dev_ICM426xx.c **** 
 504:Device/Dev_ICM426xx.c ****     /* config interrupt */
 505:Device/Dev_ICM426xx.c ****     if(!DevICM426xx_Reg_Write(sensor_obj, ICM426XX_RA_INT_CONFIG, ICM426XX_INT1_MODE_PULSED | ICM42
 506:Device/Dev_ICM426xx.c ****        !DevICM426xx_Reg_Read(sensor_obj, ICM426XX_RA_INT_CONFIG, &read_out))
 507:Device/Dev_ICM426xx.c ****     {
 508:Device/Dev_ICM426xx.c ****         IMUData_SetError(&(sensor_obj->error), ICM426xx_Reg_RW_Error, __FUNCTION__, __LINE__, 0, 0,
 509:Device/Dev_ICM426xx.c ****         return false;
 510:Device/Dev_ICM426xx.c ****     }
 511:Device/Dev_ICM426xx.c **** 
 512:Device/Dev_ICM426xx.c ****     if(read_out != (ICM426XX_INT1_MODE_PULSED | ICM426XX_INT1_DRIVE_CIRCUIT_PP | ICM426XX_INT1_POLA
 513:Device/Dev_ICM426xx.c ****     {
 514:Device/Dev_ICM426xx.c ****         IMUData_SetError(&(sensor_obj->error), ICM426xx_INT_Set_Error, __FUNCTION__, __LINE__, ICM4
 515:Device/Dev_ICM426xx.c ****                          ICM426XX_INT1_MODE_PULSED | ICM426XX_INT1_DRIVE_CIRCUIT_PP | ICM426XX_INT1
 516:Device/Dev_ICM426xx.c ****         return false;
 517:Device/Dev_ICM426xx.c ****     }
ARM GAS  C:\Users\HUAV\AppData\Local\Temp\ccpgM8up.s 			page 33


 518:Device/Dev_ICM426xx.c **** 
 519:Device/Dev_ICM426xx.c ****     if(!DevICM426xx_Reg_Write(sensor_obj, ICM426XX_RA_INT_CONFIG0, ICM426XX_UI_DRDY_INT_CLEAR_ON_SB
 520:Device/Dev_ICM426xx.c ****        !DevICM426xx_Reg_Read(sensor_obj, ICM426XX_RA_INT_CONFIG0, &read_out))
 521:Device/Dev_ICM426xx.c ****     {
 522:Device/Dev_ICM426xx.c ****         IMUData_SetError(&(sensor_obj->error), ICM426xx_Reg_RW_Error, __FUNCTION__, __LINE__, 0, 0,
 523:Device/Dev_ICM426xx.c ****         return false;
 524:Device/Dev_ICM426xx.c ****     }
 525:Device/Dev_ICM426xx.c **** 
 526:Device/Dev_ICM426xx.c ****     if(read_out != ICM426XX_UI_DRDY_INT_CLEAR_ON_SBR)
 527:Device/Dev_ICM426xx.c ****     {
 528:Device/Dev_ICM426xx.c ****         IMUData_SetError(&(sensor_obj->error), ICM426xx_INT_Set_Error, __FUNCTION__, __LINE__, ICM4
 529:Device/Dev_ICM426xx.c ****         return false;
 530:Device/Dev_ICM426xx.c ****     }
 531:Device/Dev_ICM426xx.c **** 
 532:Device/Dev_ICM426xx.c ****     if(!DevICM426xx_Reg_Write(sensor_obj, ICM426XX_RA_INT_SOURCE0, ICM426XX_UI_DRDY_INT1_EN_ENABLED
 533:Device/Dev_ICM426xx.c ****        !DevICM426xx_Reg_Read(sensor_obj, ICM426XX_RA_INT_SOURCE0, &read_out))
 534:Device/Dev_ICM426xx.c ****     {
 535:Device/Dev_ICM426xx.c ****         IMUData_SetError(&(sensor_obj->error), ICM426xx_Reg_RW_Error, __FUNCTION__, __LINE__, 0, 0,
 536:Device/Dev_ICM426xx.c ****         return false;
 537:Device/Dev_ICM426xx.c ****     }
 538:Device/Dev_ICM426xx.c **** 
 539:Device/Dev_ICM426xx.c ****     if(read_out != ICM426XX_UI_DRDY_INT1_EN_ENABLED)
 540:Device/Dev_ICM426xx.c ****     {
 541:Device/Dev_ICM426xx.c ****         IMUData_SetError(&(sensor_obj->error), ICM426xx_INT_Set_Error, __FUNCTION__, __LINE__, ICM4
 542:Device/Dev_ICM426xx.c ****         return false;
 543:Device/Dev_ICM426xx.c ****     }
 544:Device/Dev_ICM426xx.c **** 
 545:Device/Dev_ICM426xx.c ****     if(!DevICM426xx_Reg_Read(sensor_obj, ICM426XX_RA_INT_CONFIG1, &intConfig1Value))
 546:Device/Dev_ICM426xx.c ****     {
 547:Device/Dev_ICM426xx.c ****         IMUData_SetError(&(sensor_obj->error), ICM426xx_Reg_RW_Error, __FUNCTION__, __LINE__, 0, 0,
 548:Device/Dev_ICM426xx.c ****         return false;
 549:Device/Dev_ICM426xx.c ****     }
 550:Device/Dev_ICM426xx.c ****     // Datasheet says: "User should change setting to 0 from default setting of 1, for proper INT1 
 551:Device/Dev_ICM426xx.c ****     intConfig1Value &= ~(1 << ICM426XX_INT_ASYNC_RESET_BIT);
 552:Device/Dev_ICM426xx.c ****     intConfig1Value |= (ICM426XX_INT_TPULSE_DURATION_8 | ICM426XX_INT_TDEASSERT_DISABLED);
 553:Device/Dev_ICM426xx.c **** 
 554:Device/Dev_ICM426xx.c ****     if(!DevICM426xx_Reg_Write(sensor_obj, ICM426XX_RA_INT_CONFIG1, intConfig1Value) ||
 555:Device/Dev_ICM426xx.c ****        !DevICM426xx_Reg_Read(sensor_obj, ICM426XX_RA_INT_CONFIG1, &read_out))
 556:Device/Dev_ICM426xx.c ****     {
 557:Device/Dev_ICM426xx.c ****         IMUData_SetError(&(sensor_obj->error), ICM426xx_Reg_RW_Error, __FUNCTION__, __LINE__, 0, 0,
 558:Device/Dev_ICM426xx.c ****         return false;
 559:Device/Dev_ICM426xx.c ****     }
 560:Device/Dev_ICM426xx.c **** 
 561:Device/Dev_ICM426xx.c ****     if(read_out != intConfig1Value)
 562:Device/Dev_ICM426xx.c ****     {
 563:Device/Dev_ICM426xx.c ****         IMUData_SetError(&(sensor_obj->error), ICM426xx_INT_Set_Error, __FUNCTION__, __LINE__, ICM4
 564:Device/Dev_ICM426xx.c ****         return false;
 565:Device/Dev_ICM426xx.c ****     }
 566:Device/Dev_ICM426xx.c **** 
 567:Device/Dev_ICM426xx.c ****     /* turn acc gyro on */
 568:Device/Dev_ICM426xx.c ****     if(!DevICM426xx_TurnOn_AccGyro(sensor_obj))
 569:Device/Dev_ICM426xx.c ****     {
 570:Device/Dev_ICM426xx.c ****         IMUData_SetError(&(sensor_obj->error), ICM426xx_AccGyr_TurnOn_Error, __FUNCTION__, __LINE__
 571:Device/Dev_ICM426xx.c ****         return false;
 572:Device/Dev_ICM426xx.c ****     }
 573:Device/Dev_ICM426xx.c **** 
 574:Device/Dev_ICM426xx.c ****     /* config sample data range and odr */
ARM GAS  C:\Users\HUAV\AppData\Local\Temp\ccpgM8up.s 			page 34


 575:Device/Dev_ICM426xx.c ****     if(!DevICM426xx_Reg_Write(sensor_obj, ICM426XX_RA_GYRO_CONFIG0, sensor_obj->GyrTrip))
 576:Device/Dev_ICM426xx.c ****     {
 577:Device/Dev_ICM426xx.c ****         IMUData_SetError(&(sensor_obj->error), ICM426xx_Reg_RW_Error, __FUNCTION__, __LINE__, 0, 0,
 578:Device/Dev_ICM426xx.c ****         return false;
 579:Device/Dev_ICM426xx.c ****     }
 580:Device/Dev_ICM426xx.c ****     sensor_obj->delay(15);
 581:Device/Dev_ICM426xx.c **** 
 582:Device/Dev_ICM426xx.c ****     if(!DevICM426xx_Reg_Read(sensor_obj, ICM426XX_RA_GYRO_CONFIG0, &read_out))
 583:Device/Dev_ICM426xx.c ****     {
 584:Device/Dev_ICM426xx.c ****         IMUData_SetError(&(sensor_obj->error), ICM426xx_Reg_RW_Error, __FUNCTION__, __LINE__, 0, 0,
 585:Device/Dev_ICM426xx.c ****         return false;
 586:Device/Dev_ICM426xx.c ****     }
 587:Device/Dev_ICM426xx.c **** 
 588:Device/Dev_ICM426xx.c ****     if(read_out != sensor_obj->GyrTrip)
 589:Device/Dev_ICM426xx.c ****     {
 590:Device/Dev_ICM426xx.c ****         IMUData_SetError(&(sensor_obj->error), ICM426xx_GyrRangeOdr_Set_Error, __FUNCTION__, __LINE
 591:Device/Dev_ICM426xx.c ****         return false;
 592:Device/Dev_ICM426xx.c ****     }
 593:Device/Dev_ICM426xx.c **** 
 594:Device/Dev_ICM426xx.c ****     if(!DevICM426xx_Reg_Write(sensor_obj, ICM426XX_RA_ACCEL_CONFIG0, sensor_obj->AccTrip))
 595:Device/Dev_ICM426xx.c ****     {
 596:Device/Dev_ICM426xx.c ****         IMUData_SetError(&(sensor_obj->error), ICM426xx_Reg_RW_Error, __FUNCTION__, __LINE__, 0, 0,
 597:Device/Dev_ICM426xx.c **** 
 598:Device/Dev_ICM426xx.c ****         return false;
 599:Device/Dev_ICM426xx.c ****     }
 600:Device/Dev_ICM426xx.c ****     sensor_obj->delay(15);
 601:Device/Dev_ICM426xx.c **** 
 602:Device/Dev_ICM426xx.c ****     if(!DevICM426xx_Reg_Read(sensor_obj, ICM426XX_RA_ACCEL_CONFIG0, &read_out))
 603:Device/Dev_ICM426xx.c ****     {
 604:Device/Dev_ICM426xx.c ****         IMUData_SetError(&(sensor_obj->error), ICM426xx_Reg_RW_Error, __FUNCTION__, __LINE__, 0, 0,
 605:Device/Dev_ICM426xx.c ****         return false;
 606:Device/Dev_ICM426xx.c ****     }
 607:Device/Dev_ICM426xx.c **** 
 608:Device/Dev_ICM426xx.c ****     if(read_out != sensor_obj->AccTrip)
 609:Device/Dev_ICM426xx.c ****     {
 610:Device/Dev_ICM426xx.c ****         IMUData_SetError(&(sensor_obj->error), ICM426xx_AccRangeOdr_Set_Error, __FUNCTION__, __LINE
 611:Device/Dev_ICM426xx.c ****         return false;
 612:Device/Dev_ICM426xx.c ****     }
 613:Device/Dev_ICM426xx.c **** 
 614:Device/Dev_ICM426xx.c ****     IMUData_SetError(&(sensor_obj->error), ICM426xx_No_Error, "", 0, 0, 0, 0);
 615:Device/Dev_ICM426xx.c ****     return true;
 616:Device/Dev_ICM426xx.c **** }
 1155              		.loc 1 616 1 view .LVU327
 1156 0066 03B0     		add	sp, sp, #12
 1157              	.LCFI33:
 1158              		.cfi_remember_state
 1159              		.cfi_def_cfa_offset 12
 1160              		@ sp needed
 1161 0068 30BD     		pop	{r4, r5, pc}
 1162              	.LVL103:
 1163              	.L173:
 1164              	.LCFI34:
 1165              		.cfi_restore_state
 352:Device/Dev_ICM426xx.c ****         return false;
 1166              		.loc 1 352 9 is_stmt 1 view .LVU328
 1167              	.LBB80:
 1168              	.LBI80:
ARM GAS  C:\Users\HUAV\AppData\Local\Temp\ccpgM8up.s 			page 35


  65:Service/imu_data.h **** {
 1169              		.loc 2 65 13 view .LVU329
 1170              	.LBB81:
  67:Service/imu_data.h ****     {
 1171              		.loc 2 67 5 view .LVU330
  67:Service/imu_data.h ****     {
 1172              		.loc 2 67 7 is_stmt 0 view .LVU331
 1173 006a 14F1240F 		cmn	r4, #36
 1174 006e FAD0     		beq	.L83
  69:Service/imu_data.h ****         error->function = func;
 1175              		.loc 2 69 9 is_stmt 1 view .LVU332
  69:Service/imu_data.h ****         error->function = func;
 1176              		.loc 2 69 21 is_stmt 0 view .LVU333
 1177 0070 0723     		movs	r3, #7
 1178 0072 84F82430 		strb	r3, [r4, #36]
  70:Service/imu_data.h ****         error->line = line;
 1179              		.loc 2 70 9 is_stmt 1 view .LVU334
  70:Service/imu_data.h ****         error->line = line;
 1180              		.loc 2 70 25 is_stmt 0 view .LVU335
 1181 0076 A64B     		ldr	r3, .L182
 1182 0078 A362     		str	r3, [r4, #40]
  71:Service/imu_data.h **** 
 1183              		.loc 2 71 9 is_stmt 1 view .LVU336
  71:Service/imu_data.h **** 
 1184              		.loc 2 71 21 is_stmt 0 view .LVU337
 1185 007a 4FF4B073 		mov	r3, #352
 1186 007e A385     		strh	r3, [r4, #44]	@ movhi
  73:Service/imu_data.h ****         error->reg_r_val = reg_r;
 1187              		.loc 2 73 9 is_stmt 1 view .LVU338
  73:Service/imu_data.h ****         error->reg_r_val = reg_r;
 1188              		.loc 2 73 24 is_stmt 0 view .LVU339
 1189 0080 0023     		movs	r3, #0
 1190 0082 84F82E30 		strb	r3, [r4, #46]
  74:Service/imu_data.h ****         error->reg_t_val = reg_t;
 1191              		.loc 2 74 9 is_stmt 1 view .LVU340
  74:Service/imu_data.h ****         error->reg_t_val = reg_t;
 1192              		.loc 2 74 26 is_stmt 0 view .LVU341
 1193 0086 84F82F30 		strb	r3, [r4, #47]
 1194              		.loc 2 75 9 is_stmt 1 view .LVU342
 1195              		.loc 2 75 26 is_stmt 0 view .LVU343
 1196 008a 84F83030 		strb	r3, [r4, #48]
 1197              	.LVL104:
 1198              		.loc 2 75 26 view .LVU344
 1199              	.LBE81:
 1200              	.LBE80:
 353:Device/Dev_ICM426xx.c ****     }
 1201              		.loc 1 353 9 is_stmt 1 view .LVU345
 353:Device/Dev_ICM426xx.c ****     }
 1202              		.loc 1 353 16 is_stmt 0 view .LVU346
 1203 008e EAE7     		b	.L83
 1204              	.L86:
 359:Device/Dev_ICM426xx.c ****             aaf_tab = aafLUT42605;
 1205              		.loc 1 359 13 is_stmt 1 view .LVU347
 359:Device/Dev_ICM426xx.c ****             aaf_tab = aafLUT42605;
 1206              		.loc 1 359 30 is_stmt 0 view .LVU348
 1207 0090 0123     		movs	r3, #1
 1208 0092 2370     		strb	r3, [r4]
ARM GAS  C:\Users\HUAV\AppData\Local\Temp\ccpgM8up.s 			page 36


 360:Device/Dev_ICM426xx.c ****             break;
 1209              		.loc 1 360 13 is_stmt 1 view .LVU349
 1210              	.LVL105:
 361:Device/Dev_ICM426xx.c **** 
 1211              		.loc 1 361 13 view .LVU350
 360:Device/Dev_ICM426xx.c ****             break;
 1212              		.loc 1 360 21 is_stmt 0 view .LVU351
 1213 0094 9F4D     		ldr	r5, .L182+4
 1214              	.LVL106:
 1215              	.L89:
 374:Device/Dev_ICM426xx.c ****     {
 1216              		.loc 1 374 5 is_stmt 1 view .LVU352
 374:Device/Dev_ICM426xx.c ****     {
 1217              		.loc 1 374 9 is_stmt 0 view .LVU353
 1218 0096 0021     		movs	r1, #0
 1219 0098 2046     		mov	r0, r4
 1220 009a FFF7FEFF 		bl	DevICM426xx_SetUserBank
 1221              	.LVL107:
 374:Device/Dev_ICM426xx.c ****     {
 1222              		.loc 1 374 7 view .LVU354
 1223 009e B0B9     		cbnz	r0, .L90
 376:Device/Dev_ICM426xx.c ****         return false;
 1224              		.loc 1 376 9 is_stmt 1 view .LVU355
 1225              	.LVL108:
 1226              	.LBB82:
 1227              	.LBI82:
  65:Service/imu_data.h **** {
 1228              		.loc 2 65 13 view .LVU356
 1229              	.LBB83:
  67:Service/imu_data.h ****     {
 1230              		.loc 2 67 5 view .LVU357
  67:Service/imu_data.h ****     {
 1231              		.loc 2 67 7 is_stmt 0 view .LVU358
 1232 00a0 14F1240F 		cmn	r4, #36
 1233 00a4 DFD0     		beq	.L83
  69:Service/imu_data.h ****         error->function = func;
 1234              		.loc 2 69 9 is_stmt 1 view .LVU359
  69:Service/imu_data.h ****         error->function = func;
 1235              		.loc 2 69 21 is_stmt 0 view .LVU360
 1236 00a6 0723     		movs	r3, #7
 1237 00a8 84F82430 		strb	r3, [r4, #36]
  70:Service/imu_data.h ****         error->line = line;
 1238              		.loc 2 70 9 is_stmt 1 view .LVU361
  70:Service/imu_data.h ****         error->line = line;
 1239              		.loc 2 70 25 is_stmt 0 view .LVU362
 1240 00ac 984B     		ldr	r3, .L182
 1241 00ae A362     		str	r3, [r4, #40]
  71:Service/imu_data.h **** 
 1242              		.loc 2 71 9 is_stmt 1 view .LVU363
  71:Service/imu_data.h **** 
 1243              		.loc 2 71 21 is_stmt 0 view .LVU364
 1244 00b0 4FF4BC73 		mov	r3, #376
 1245 00b4 A385     		strh	r3, [r4, #44]	@ movhi
  73:Service/imu_data.h ****         error->reg_r_val = reg_r;
 1246              		.loc 2 73 9 is_stmt 1 view .LVU365
  73:Service/imu_data.h ****         error->reg_r_val = reg_r;
 1247              		.loc 2 73 24 is_stmt 0 view .LVU366
ARM GAS  C:\Users\HUAV\AppData\Local\Temp\ccpgM8up.s 			page 37


 1248 00b6 0023     		movs	r3, #0
 1249 00b8 84F82E30 		strb	r3, [r4, #46]
  74:Service/imu_data.h ****         error->reg_t_val = reg_t;
 1250              		.loc 2 74 9 is_stmt 1 view .LVU367
  74:Service/imu_data.h ****         error->reg_t_val = reg_t;
 1251              		.loc 2 74 26 is_stmt 0 view .LVU368
 1252 00bc 84F82F30 		strb	r3, [r4, #47]
 1253              		.loc 2 75 9 is_stmt 1 view .LVU369
 1254              		.loc 2 75 26 is_stmt 0 view .LVU370
 1255 00c0 84F83030 		strb	r3, [r4, #48]
 1256              	.LVL109:
 1257              		.loc 2 75 26 view .LVU371
 1258              	.LBE83:
 1259              	.LBE82:
 377:Device/Dev_ICM426xx.c ****     }
 1260              		.loc 1 377 9 is_stmt 1 view .LVU372
 377:Device/Dev_ICM426xx.c ****     }
 1261              		.loc 1 377 16 is_stmt 0 view .LVU373
 1262 00c4 CFE7     		b	.L83
 1263              	.LVL110:
 1264              	.L87:
 364:Device/Dev_ICM426xx.c ****             aaf_tab = aafLUT42688;
 1265              		.loc 1 364 13 is_stmt 1 view .LVU374
 364:Device/Dev_ICM426xx.c ****             aaf_tab = aafLUT42688;
 1266              		.loc 1 364 30 is_stmt 0 view .LVU375
 1267 00c6 0023     		movs	r3, #0
 1268 00c8 2370     		strb	r3, [r4]
 365:Device/Dev_ICM426xx.c ****             break; 
 1269              		.loc 1 365 13 is_stmt 1 view .LVU376
 1270              	.LVL111:
 366:Device/Dev_ICM426xx.c **** 
 1271              		.loc 1 366 13 view .LVU377
 365:Device/Dev_ICM426xx.c ****             break; 
 1272              		.loc 1 365 21 is_stmt 0 view .LVU378
 1273 00ca 934D     		ldr	r5, .L182+8
 366:Device/Dev_ICM426xx.c **** 
 1274              		.loc 1 366 13 view .LVU379
 1275 00cc E3E7     		b	.L89
 1276              	.LVL112:
 1277              	.L90:
 381:Device/Dev_ICM426xx.c ****     {
 1278              		.loc 1 381 5 is_stmt 1 view .LVU380
 381:Device/Dev_ICM426xx.c ****     {
 1279              		.loc 1 381 9 is_stmt 0 view .LVU381
 1280 00ce 2046     		mov	r0, r4
 1281 00d0 FFF7FEFF 		bl	DevICM426xx_TurnOff_AccGyro
 1282              	.LVL113:
 381:Device/Dev_ICM426xx.c ****     {
 1283              		.loc 1 381 7 view .LVU382
 1284 00d4 90B9     		cbnz	r0, .L92
 383:Device/Dev_ICM426xx.c ****         return false;
 1285              		.loc 1 383 9 is_stmt 1 view .LVU383
 1286              	.LVL114:
 1287              	.LBB84:
 1288              	.LBI84:
  65:Service/imu_data.h **** {
 1289              		.loc 2 65 13 view .LVU384
ARM GAS  C:\Users\HUAV\AppData\Local\Temp\ccpgM8up.s 			page 38


 1290              	.LBB85:
  67:Service/imu_data.h ****     {
 1291              		.loc 2 67 5 view .LVU385
  67:Service/imu_data.h ****     {
 1292              		.loc 2 67 7 is_stmt 0 view .LVU386
 1293 00d6 14F1240F 		cmn	r4, #36
 1294 00da C4D0     		beq	.L83
  69:Service/imu_data.h ****         error->function = func;
 1295              		.loc 2 69 9 is_stmt 1 view .LVU387
  69:Service/imu_data.h ****         error->function = func;
 1296              		.loc 2 69 21 is_stmt 0 view .LVU388
 1297 00dc 0C23     		movs	r3, #12
 1298 00de 84F82430 		strb	r3, [r4, #36]
  70:Service/imu_data.h ****         error->line = line;
 1299              		.loc 2 70 9 is_stmt 1 view .LVU389
  70:Service/imu_data.h ****         error->line = line;
 1300              		.loc 2 70 25 is_stmt 0 view .LVU390
 1301 00e2 8B4B     		ldr	r3, .L182
 1302 00e4 A362     		str	r3, [r4, #40]
  71:Service/imu_data.h **** 
 1303              		.loc 2 71 9 is_stmt 1 view .LVU391
  71:Service/imu_data.h **** 
 1304              		.loc 2 71 21 is_stmt 0 view .LVU392
 1305 00e6 40F27F13 		movw	r3, #383
 1306 00ea A385     		strh	r3, [r4, #44]	@ movhi
  73:Service/imu_data.h ****         error->reg_r_val = reg_r;
 1307              		.loc 2 73 9 is_stmt 1 view .LVU393
  73:Service/imu_data.h ****         error->reg_r_val = reg_r;
 1308              		.loc 2 73 24 is_stmt 0 view .LVU394
 1309 00ec 0023     		movs	r3, #0
 1310 00ee 84F82E30 		strb	r3, [r4, #46]
  74:Service/imu_data.h ****         error->reg_t_val = reg_t;
 1311              		.loc 2 74 9 is_stmt 1 view .LVU395
  74:Service/imu_data.h ****         error->reg_t_val = reg_t;
 1312              		.loc 2 74 26 is_stmt 0 view .LVU396
 1313 00f2 84F82F30 		strb	r3, [r4, #47]
 1314              		.loc 2 75 9 is_stmt 1 view .LVU397
 1315              		.loc 2 75 26 is_stmt 0 view .LVU398
 1316 00f6 84F83030 		strb	r3, [r4, #48]
 1317              	.LVL115:
 1318              		.loc 2 75 26 view .LVU399
 1319              	.LBE85:
 1320              	.LBE84:
 384:Device/Dev_ICM426xx.c ****     }
 1321              		.loc 1 384 9 is_stmt 1 view .LVU400
 384:Device/Dev_ICM426xx.c ****     }
 1322              		.loc 1 384 16 is_stmt 0 view .LVU401
 1323 00fa B4E7     		b	.L83
 1324              	.L92:
 388:Device/Dev_ICM426xx.c ****     {
 1325              		.loc 1 388 5 is_stmt 1 view .LVU402
 388:Device/Dev_ICM426xx.c ****     {
 1326              		.loc 1 388 9 is_stmt 0 view .LVU403
 1327 00fc 0121     		movs	r1, #1
 1328 00fe 2046     		mov	r0, r4
 1329 0100 FFF7FEFF 		bl	DevICM426xx_SetUserBank
 1330              	.LVL116:
ARM GAS  C:\Users\HUAV\AppData\Local\Temp\ccpgM8up.s 			page 39


 388:Device/Dev_ICM426xx.c ****     {
 1331              		.loc 1 388 7 view .LVU404
 1332 0104 90B9     		cbnz	r0, .L94
 390:Device/Dev_ICM426xx.c ****         return false;
 1333              		.loc 1 390 9 is_stmt 1 view .LVU405
 1334              	.LVL117:
 1335              	.LBB86:
 1336              	.LBI86:
  65:Service/imu_data.h **** {
 1337              		.loc 2 65 13 view .LVU406
 1338              	.LBB87:
  67:Service/imu_data.h ****     {
 1339              		.loc 2 67 5 view .LVU407
  67:Service/imu_data.h ****     {
 1340              		.loc 2 67 7 is_stmt 0 view .LVU408
 1341 0106 14F1240F 		cmn	r4, #36
 1342 010a ACD0     		beq	.L83
  69:Service/imu_data.h ****         error->function = func;
 1343              		.loc 2 69 9 is_stmt 1 view .LVU409
  69:Service/imu_data.h ****         error->function = func;
 1344              		.loc 2 69 21 is_stmt 0 view .LVU410
 1345 010c 0723     		movs	r3, #7
 1346 010e 84F82430 		strb	r3, [r4, #36]
  70:Service/imu_data.h ****         error->line = line;
 1347              		.loc 2 70 9 is_stmt 1 view .LVU411
  70:Service/imu_data.h ****         error->line = line;
 1348              		.loc 2 70 25 is_stmt 0 view .LVU412
 1349 0112 7F4B     		ldr	r3, .L182
 1350 0114 A362     		str	r3, [r4, #40]
  71:Service/imu_data.h **** 
 1351              		.loc 2 71 9 is_stmt 1 view .LVU413
  71:Service/imu_data.h **** 
 1352              		.loc 2 71 21 is_stmt 0 view .LVU414
 1353 0116 4FF4C373 		mov	r3, #390
 1354 011a A385     		strh	r3, [r4, #44]	@ movhi
  73:Service/imu_data.h ****         error->reg_r_val = reg_r;
 1355              		.loc 2 73 9 is_stmt 1 view .LVU415
  73:Service/imu_data.h ****         error->reg_r_val = reg_r;
 1356              		.loc 2 73 24 is_stmt 0 view .LVU416
 1357 011c 0023     		movs	r3, #0
 1358 011e 84F82E30 		strb	r3, [r4, #46]
  74:Service/imu_data.h ****         error->reg_t_val = reg_t;
 1359              		.loc 2 74 9 is_stmt 1 view .LVU417
  74:Service/imu_data.h ****         error->reg_t_val = reg_t;
 1360              		.loc 2 74 26 is_stmt 0 view .LVU418
 1361 0122 84F82F30 		strb	r3, [r4, #47]
 1362              		.loc 2 75 9 is_stmt 1 view .LVU419
 1363              		.loc 2 75 26 is_stmt 0 view .LVU420
 1364 0126 84F83030 		strb	r3, [r4, #48]
 1365              	.LVL118:
 1366              		.loc 2 75 26 view .LVU421
 1367              	.LBE87:
 1368              	.LBE86:
 391:Device/Dev_ICM426xx.c ****     }
 1369              		.loc 1 391 9 is_stmt 1 view .LVU422
 391:Device/Dev_ICM426xx.c ****     }
 1370              		.loc 1 391 16 is_stmt 0 view .LVU423
ARM GAS  C:\Users\HUAV\AppData\Local\Temp\ccpgM8up.s 			page 40


 1371 012a 9CE7     		b	.L83
 1372              	.L94:
 394:Device/Dev_ICM426xx.c ****        !DevICM426xx_Reg_Read(sensor_obj, ICM426XX_RA_GYRO_CONFIG_STATIC3, &read_out))
 1373              		.loc 1 394 5 is_stmt 1 view .LVU424
 394:Device/Dev_ICM426xx.c ****        !DevICM426xx_Reg_Read(sensor_obj, ICM426XX_RA_GYRO_CONFIG_STATIC3, &read_out))
 1374              		.loc 1 394 9 is_stmt 0 view .LVU425
 1375 012c 2A78     		ldrb	r2, [r5]	@ zero_extendqisi2
 1376 012e 0C21     		movs	r1, #12
 1377 0130 2046     		mov	r0, r4
 1378 0132 FFF7FEFF 		bl	DevICM426xx_Reg_Write
 1379              	.LVL119:
 394:Device/Dev_ICM426xx.c ****        !DevICM426xx_Reg_Read(sensor_obj, ICM426XX_RA_GYRO_CONFIG_STATIC3, &read_out))
 1380              		.loc 1 394 7 view .LVU426
 1381 0136 98B9     		cbnz	r0, .L174
 1382              	.L96:
 397:Device/Dev_ICM426xx.c ****         return false;
 1383              		.loc 1 397 9 is_stmt 1 view .LVU427
 1384              	.LVL120:
 1385              	.LBB88:
 1386              	.LBI88:
  65:Service/imu_data.h **** {
 1387              		.loc 2 65 13 view .LVU428
 1388              	.LBB89:
  67:Service/imu_data.h ****     {
 1389              		.loc 2 67 5 view .LVU429
  67:Service/imu_data.h ****     {
 1390              		.loc 2 67 7 is_stmt 0 view .LVU430
 1391 0138 14F1240F 		cmn	r4, #36
 1392 013c 0ED0     		beq	.L98
  69:Service/imu_data.h ****         error->function = func;
 1393              		.loc 2 69 9 is_stmt 1 view .LVU431
  69:Service/imu_data.h ****         error->function = func;
 1394              		.loc 2 69 21 is_stmt 0 view .LVU432
 1395 013e 0723     		movs	r3, #7
 1396 0140 84F82430 		strb	r3, [r4, #36]
  70:Service/imu_data.h ****         error->line = line;
 1397              		.loc 2 70 9 is_stmt 1 view .LVU433
  70:Service/imu_data.h ****         error->line = line;
 1398              		.loc 2 70 25 is_stmt 0 view .LVU434
 1399 0144 724B     		ldr	r3, .L182
 1400 0146 A362     		str	r3, [r4, #40]
  71:Service/imu_data.h **** 
 1401              		.loc 2 71 9 is_stmt 1 view .LVU435
  71:Service/imu_data.h **** 
 1402              		.loc 2 71 21 is_stmt 0 view .LVU436
 1403 0148 40F28D13 		movw	r3, #397
 1404 014c A385     		strh	r3, [r4, #44]	@ movhi
  73:Service/imu_data.h ****         error->reg_r_val = reg_r;
 1405              		.loc 2 73 9 is_stmt 1 view .LVU437
  73:Service/imu_data.h ****         error->reg_r_val = reg_r;
 1406              		.loc 2 73 24 is_stmt 0 view .LVU438
 1407 014e 0023     		movs	r3, #0
 1408 0150 84F82E30 		strb	r3, [r4, #46]
  74:Service/imu_data.h ****         error->reg_t_val = reg_t;
 1409              		.loc 2 74 9 is_stmt 1 view .LVU439
  74:Service/imu_data.h ****         error->reg_t_val = reg_t;
 1410              		.loc 2 74 26 is_stmt 0 view .LVU440
ARM GAS  C:\Users\HUAV\AppData\Local\Temp\ccpgM8up.s 			page 41


 1411 0154 84F82F30 		strb	r3, [r4, #47]
 1412              		.loc 2 75 9 is_stmt 1 view .LVU441
 1413              		.loc 2 75 26 is_stmt 0 view .LVU442
 1414 0158 84F83030 		strb	r3, [r4, #48]
 1415              	.L98:
 1416              	.LVL121:
 1417              		.loc 2 75 26 view .LVU443
 1418              	.LBE89:
 1419              	.LBE88:
 398:Device/Dev_ICM426xx.c ****     }
 1420              		.loc 1 398 9 is_stmt 1 view .LVU444
 398:Device/Dev_ICM426xx.c ****     }
 1421              		.loc 1 398 16 is_stmt 0 view .LVU445
 1422 015c 0020     		movs	r0, #0
 1423 015e 82E7     		b	.L83
 1424              	.L174:
 395:Device/Dev_ICM426xx.c ****     {
 1425              		.loc 1 395 9 discriminator 1 view .LVU446
 1426 0160 0DF10702 		add	r2, sp, #7
 1427 0164 0C21     		movs	r1, #12
 1428 0166 2046     		mov	r0, r4
 1429 0168 FFF7FEFF 		bl	DevICM426xx_Reg_Read
 1430              	.LVL122:
 394:Device/Dev_ICM426xx.c ****        !DevICM426xx_Reg_Read(sensor_obj, ICM426XX_RA_GYRO_CONFIG_STATIC3, &read_out))
 1431              		.loc 1 394 110 discriminator 1 view .LVU447
 1432 016c 0028     		cmp	r0, #0
 1433 016e E3D0     		beq	.L96
 401:Device/Dev_ICM426xx.c ****     {
 1434              		.loc 1 401 5 is_stmt 1 view .LVU448
 401:Device/Dev_ICM426xx.c ****     {
 1435              		.loc 1 401 47 is_stmt 0 view .LVU449
 1436 0170 2B78     		ldrb	r3, [r5]	@ zero_extendqisi2
 401:Device/Dev_ICM426xx.c ****     {
 1437              		.loc 1 401 17 view .LVU450
 1438 0172 9DF80720 		ldrb	r2, [sp, #7]	@ zero_extendqisi2
 401:Device/Dev_ICM426xx.c ****     {
 1439              		.loc 1 401 7 view .LVU451
 1440 0176 9342     		cmp	r3, r2
 1441 0178 13D0     		beq	.L99
 403:Device/Dev_ICM426xx.c ****         return false;
 1442              		.loc 1 403 9 is_stmt 1 view .LVU452
 1443              	.LVL123:
 1444              	.LBB90:
 1445              	.LBI90:
  65:Service/imu_data.h **** {
 1446              		.loc 2 65 13 view .LVU453
 1447              	.LBB91:
  67:Service/imu_data.h ****     {
 1448              		.loc 2 67 5 view .LVU454
  67:Service/imu_data.h ****     {
 1449              		.loc 2 67 7 is_stmt 0 view .LVU455
 1450 017a 14F1240F 		cmn	r4, #36
 1451 017e 0ED0     		beq	.L100
  69:Service/imu_data.h ****         error->function = func;
 1452              		.loc 2 69 9 is_stmt 1 view .LVU456
  69:Service/imu_data.h ****         error->function = func;
 1453              		.loc 2 69 21 is_stmt 0 view .LVU457
ARM GAS  C:\Users\HUAV\AppData\Local\Temp\ccpgM8up.s 			page 42


 1454 0180 0621     		movs	r1, #6
 1455 0182 84F82410 		strb	r1, [r4, #36]
  70:Service/imu_data.h ****         error->line = line;
 1456              		.loc 2 70 9 is_stmt 1 view .LVU458
  70:Service/imu_data.h ****         error->line = line;
 1457              		.loc 2 70 25 is_stmt 0 view .LVU459
 1458 0186 6249     		ldr	r1, .L182
 1459 0188 A162     		str	r1, [r4, #40]
  71:Service/imu_data.h **** 
 1460              		.loc 2 71 9 is_stmt 1 view .LVU460
  71:Service/imu_data.h **** 
 1461              		.loc 2 71 21 is_stmt 0 view .LVU461
 1462 018a 40F29311 		movw	r1, #403
 1463 018e A185     		strh	r1, [r4, #44]	@ movhi
  73:Service/imu_data.h ****         error->reg_r_val = reg_r;
 1464              		.loc 2 73 9 is_stmt 1 view .LVU462
  73:Service/imu_data.h ****         error->reg_r_val = reg_r;
 1465              		.loc 2 73 24 is_stmt 0 view .LVU463
 1466 0190 0C21     		movs	r1, #12
 1467 0192 84F82E10 		strb	r1, [r4, #46]
  74:Service/imu_data.h ****         error->reg_t_val = reg_t;
 1468              		.loc 2 74 9 is_stmt 1 view .LVU464
  74:Service/imu_data.h ****         error->reg_t_val = reg_t;
 1469              		.loc 2 74 26 is_stmt 0 view .LVU465
 1470 0196 84F82F20 		strb	r2, [r4, #47]
 1471              		.loc 2 75 9 is_stmt 1 view .LVU466
 1472              		.loc 2 75 26 is_stmt 0 view .LVU467
 1473 019a 84F83030 		strb	r3, [r4, #48]
 1474              	.L100:
 1475              	.LVL124:
 1476              		.loc 2 75 26 view .LVU468
 1477              	.LBE91:
 1478              	.LBE90:
 404:Device/Dev_ICM426xx.c ****     }
 1479              		.loc 1 404 9 is_stmt 1 view .LVU469
 404:Device/Dev_ICM426xx.c ****     }
 1480              		.loc 1 404 16 is_stmt 0 view .LVU470
 1481 019e 0020     		movs	r0, #0
 1482 01a0 61E7     		b	.L83
 1483              	.L99:
 407:Device/Dev_ICM426xx.c ****        !DevICM426xx_Reg_Read(sensor_obj, ICM426XX_RA_GYRO_CONFIG_STATIC4, &read_out))
 1484              		.loc 1 407 5 is_stmt 1 view .LVU471
 407:Device/Dev_ICM426xx.c ****        !DevICM426xx_Reg_Read(sensor_obj, ICM426XX_RA_GYRO_CONFIG_STATIC4, &read_out))
 1485              		.loc 1 407 9 is_stmt 0 view .LVU472
 1486 01a2 AA78     		ldrb	r2, [r5, #2]	@ zero_extendqisi2
 1487 01a4 0D21     		movs	r1, #13
 1488 01a6 2046     		mov	r0, r4
 1489 01a8 FFF7FEFF 		bl	DevICM426xx_Reg_Write
 1490              	.LVL125:
 407:Device/Dev_ICM426xx.c ****        !DevICM426xx_Reg_Read(sensor_obj, ICM426XX_RA_GYRO_CONFIG_STATIC4, &read_out))
 1491              		.loc 1 407 7 view .LVU473
 1492 01ac 98B9     		cbnz	r0, .L175
 1493              	.L101:
 410:Device/Dev_ICM426xx.c ****         return false;
 1494              		.loc 1 410 9 is_stmt 1 view .LVU474
 1495              	.LVL126:
 1496              	.LBB92:
ARM GAS  C:\Users\HUAV\AppData\Local\Temp\ccpgM8up.s 			page 43


 1497              	.LBI92:
  65:Service/imu_data.h **** {
 1498              		.loc 2 65 13 view .LVU475
 1499              	.LBB93:
  67:Service/imu_data.h ****     {
 1500              		.loc 2 67 5 view .LVU476
  67:Service/imu_data.h ****     {
 1501              		.loc 2 67 7 is_stmt 0 view .LVU477
 1502 01ae 14F1240F 		cmn	r4, #36
 1503 01b2 0ED0     		beq	.L103
  69:Service/imu_data.h ****         error->function = func;
 1504              		.loc 2 69 9 is_stmt 1 view .LVU478
  69:Service/imu_data.h ****         error->function = func;
 1505              		.loc 2 69 21 is_stmt 0 view .LVU479
 1506 01b4 0723     		movs	r3, #7
 1507 01b6 84F82430 		strb	r3, [r4, #36]
  70:Service/imu_data.h ****         error->line = line;
 1508              		.loc 2 70 9 is_stmt 1 view .LVU480
  70:Service/imu_data.h ****         error->line = line;
 1509              		.loc 2 70 25 is_stmt 0 view .LVU481
 1510 01ba 554B     		ldr	r3, .L182
 1511 01bc A362     		str	r3, [r4, #40]
  71:Service/imu_data.h **** 
 1512              		.loc 2 71 9 is_stmt 1 view .LVU482
  71:Service/imu_data.h **** 
 1513              		.loc 2 71 21 is_stmt 0 view .LVU483
 1514 01be 4FF4CD73 		mov	r3, #410
 1515 01c2 A385     		strh	r3, [r4, #44]	@ movhi
  73:Service/imu_data.h ****         error->reg_r_val = reg_r;
 1516              		.loc 2 73 9 is_stmt 1 view .LVU484
  73:Service/imu_data.h ****         error->reg_r_val = reg_r;
 1517              		.loc 2 73 24 is_stmt 0 view .LVU485
 1518 01c4 0023     		movs	r3, #0
 1519 01c6 84F82E30 		strb	r3, [r4, #46]
  74:Service/imu_data.h ****         error->reg_t_val = reg_t;
 1520              		.loc 2 74 9 is_stmt 1 view .LVU486
  74:Service/imu_data.h ****         error->reg_t_val = reg_t;
 1521              		.loc 2 74 26 is_stmt 0 view .LVU487
 1522 01ca 84F82F30 		strb	r3, [r4, #47]
 1523              		.loc 2 75 9 is_stmt 1 view .LVU488
 1524              		.loc 2 75 26 is_stmt 0 view .LVU489
 1525 01ce 84F83030 		strb	r3, [r4, #48]
 1526              	.L103:
 1527              	.LVL127:
 1528              		.loc 2 75 26 view .LVU490
 1529              	.LBE93:
 1530              	.LBE92:
 411:Device/Dev_ICM426xx.c ****     }
 1531              		.loc 1 411 9 is_stmt 1 view .LVU491
 411:Device/Dev_ICM426xx.c ****     }
 1532              		.loc 1 411 16 is_stmt 0 view .LVU492
 1533 01d2 0020     		movs	r0, #0
 1534 01d4 47E7     		b	.L83
 1535              	.L175:
 408:Device/Dev_ICM426xx.c ****     {
 1536              		.loc 1 408 9 discriminator 1 view .LVU493
 1537 01d6 0DF10702 		add	r2, sp, #7
ARM GAS  C:\Users\HUAV\AppData\Local\Temp\ccpgM8up.s 			page 44


 1538 01da 0D21     		movs	r1, #13
 1539 01dc 2046     		mov	r0, r4
 1540 01de FFF7FEFF 		bl	DevICM426xx_Reg_Read
 1541              	.LVL128:
 407:Device/Dev_ICM426xx.c ****        !DevICM426xx_Reg_Read(sensor_obj, ICM426XX_RA_GYRO_CONFIG_STATIC4, &read_out))
 1542              		.loc 1 407 120 discriminator 1 view .LVU494
 1543 01e2 0028     		cmp	r0, #0
 1544 01e4 E3D0     		beq	.L101
 414:Device/Dev_ICM426xx.c ****     {
 1545              		.loc 1 414 5 is_stmt 1 view .LVU495
 414:Device/Dev_ICM426xx.c ****     {
 1546              		.loc 1 414 17 is_stmt 0 view .LVU496
 1547 01e6 9DF80720 		ldrb	r2, [sp, #7]	@ zero_extendqisi2
 414:Device/Dev_ICM426xx.c ****     {
 1548              		.loc 1 414 48 view .LVU497
 1549 01ea 6B88     		ldrh	r3, [r5, #2]
 414:Device/Dev_ICM426xx.c ****     {
 1550              		.loc 1 414 57 view .LVU498
 1551 01ec A978     		ldrb	r1, [r5, #2]	@ zero_extendqisi2
 414:Device/Dev_ICM426xx.c ****     {
 1552              		.loc 1 414 7 view .LVU499
 1553 01ee 8A42     		cmp	r2, r1
 1554 01f0 14D0     		beq	.L104
 416:Device/Dev_ICM426xx.c ****                          aaf_tab[ICM426xx_AAF_258Hz].deltSqr & 0xFF);
 1555              		.loc 1 416 9 is_stmt 1 view .LVU500
 1556 01f2 DBB2     		uxtb	r3, r3
 1557              	.LVL129:
 1558              	.LBB94:
 1559              	.LBI94:
  65:Service/imu_data.h **** {
 1560              		.loc 2 65 13 view .LVU501
 1561              	.LBB95:
  67:Service/imu_data.h ****     {
 1562              		.loc 2 67 5 view .LVU502
  67:Service/imu_data.h ****     {
 1563              		.loc 2 67 7 is_stmt 0 view .LVU503
 1564 01f4 14F1240F 		cmn	r4, #36
 1565 01f8 0ED0     		beq	.L105
  69:Service/imu_data.h ****         error->function = func;
 1566              		.loc 2 69 9 is_stmt 1 view .LVU504
  69:Service/imu_data.h ****         error->function = func;
 1567              		.loc 2 69 21 is_stmt 0 view .LVU505
 1568 01fa 0621     		movs	r1, #6
 1569 01fc 84F82410 		strb	r1, [r4, #36]
  70:Service/imu_data.h ****         error->line = line;
 1570              		.loc 2 70 9 is_stmt 1 view .LVU506
  70:Service/imu_data.h ****         error->line = line;
 1571              		.loc 2 70 25 is_stmt 0 view .LVU507
 1572 0200 4349     		ldr	r1, .L182
 1573 0202 A162     		str	r1, [r4, #40]
  71:Service/imu_data.h **** 
 1574              		.loc 2 71 9 is_stmt 1 view .LVU508
  71:Service/imu_data.h **** 
 1575              		.loc 2 71 21 is_stmt 0 view .LVU509
 1576 0204 4FF4D071 		mov	r1, #416
 1577 0208 A185     		strh	r1, [r4, #44]	@ movhi
  73:Service/imu_data.h ****         error->reg_r_val = reg_r;
ARM GAS  C:\Users\HUAV\AppData\Local\Temp\ccpgM8up.s 			page 45


 1578              		.loc 2 73 9 is_stmt 1 view .LVU510
  73:Service/imu_data.h ****         error->reg_r_val = reg_r;
 1579              		.loc 2 73 24 is_stmt 0 view .LVU511
 1580 020a 0D21     		movs	r1, #13
 1581 020c 84F82E10 		strb	r1, [r4, #46]
  74:Service/imu_data.h ****         error->reg_t_val = reg_t;
 1582              		.loc 2 74 9 is_stmt 1 view .LVU512
  74:Service/imu_data.h ****         error->reg_t_val = reg_t;
 1583              		.loc 2 74 26 is_stmt 0 view .LVU513
 1584 0210 84F82F20 		strb	r2, [r4, #47]
 1585              		.loc 2 75 9 is_stmt 1 view .LVU514
 1586              		.loc 2 75 26 is_stmt 0 view .LVU515
 1587 0214 84F83030 		strb	r3, [r4, #48]
 1588              	.L105:
 1589              	.LVL130:
 1590              		.loc 2 75 26 view .LVU516
 1591              	.LBE95:
 1592              	.LBE94:
 418:Device/Dev_ICM426xx.c ****     }
 1593              		.loc 1 418 9 is_stmt 1 view .LVU517
 418:Device/Dev_ICM426xx.c ****     }
 1594              		.loc 1 418 16 is_stmt 0 view .LVU518
 1595 0218 0020     		movs	r0, #0
 1596 021a 24E7     		b	.L83
 1597              	.L104:
 421:Device/Dev_ICM426xx.c ****        !DevICM426xx_Reg_Read(sensor_obj, ICM426XX_RA_GYRO_CONFIG_STATIC5, &read_out))
 1598              		.loc 1 421 5 is_stmt 1 view .LVU519
 421:Device/Dev_ICM426xx.c ****        !DevICM426xx_Reg_Read(sensor_obj, ICM426XX_RA_GYRO_CONFIG_STATIC5, &read_out))
 1599              		.loc 1 421 149 is_stmt 0 view .LVU520
 1600 021c 2A79     		ldrb	r2, [r5, #4]	@ zero_extendqisi2
 421:Device/Dev_ICM426xx.c ****        !DevICM426xx_Reg_Read(sensor_obj, ICM426XX_RA_GYRO_CONFIG_STATIC5, &read_out))
 1601              		.loc 1 421 119 view .LVU521
 1602 021e 1B0A     		lsrs	r3, r3, #8
 1603 0220 43EA0212 		orr	r2, r3, r2, lsl #4
 421:Device/Dev_ICM426xx.c ****        !DevICM426xx_Reg_Read(sensor_obj, ICM426XX_RA_GYRO_CONFIG_STATIC5, &read_out))
 1604              		.loc 1 421 9 view .LVU522
 1605 0224 D2B2     		uxtb	r2, r2
 1606 0226 0E21     		movs	r1, #14
 1607 0228 2046     		mov	r0, r4
 1608 022a FFF7FEFF 		bl	DevICM426xx_Reg_Write
 1609              	.LVL131:
 421:Device/Dev_ICM426xx.c ****        !DevICM426xx_Reg_Read(sensor_obj, ICM426XX_RA_GYRO_CONFIG_STATIC5, &read_out))
 1610              		.loc 1 421 7 view .LVU523
 1611 022e 98B9     		cbnz	r0, .L176
 1612              	.L106:
 424:Device/Dev_ICM426xx.c ****         return false;
 1613              		.loc 1 424 9 is_stmt 1 view .LVU524
 1614              	.LVL132:
 1615              	.LBB96:
 1616              	.LBI96:
  65:Service/imu_data.h **** {
 1617              		.loc 2 65 13 view .LVU525
 1618              	.LBB97:
  67:Service/imu_data.h ****     {
 1619              		.loc 2 67 5 view .LVU526
  67:Service/imu_data.h ****     {
 1620              		.loc 2 67 7 is_stmt 0 view .LVU527
ARM GAS  C:\Users\HUAV\AppData\Local\Temp\ccpgM8up.s 			page 46


 1621 0230 14F1240F 		cmn	r4, #36
 1622 0234 0ED0     		beq	.L108
  69:Service/imu_data.h ****         error->function = func;
 1623              		.loc 2 69 9 is_stmt 1 view .LVU528
  69:Service/imu_data.h ****         error->function = func;
 1624              		.loc 2 69 21 is_stmt 0 view .LVU529
 1625 0236 0723     		movs	r3, #7
 1626 0238 84F82430 		strb	r3, [r4, #36]
  70:Service/imu_data.h ****         error->line = line;
 1627              		.loc 2 70 9 is_stmt 1 view .LVU530
  70:Service/imu_data.h ****         error->line = line;
 1628              		.loc 2 70 25 is_stmt 0 view .LVU531
 1629 023c 344B     		ldr	r3, .L182
 1630 023e A362     		str	r3, [r4, #40]
  71:Service/imu_data.h **** 
 1631              		.loc 2 71 9 is_stmt 1 view .LVU532
  71:Service/imu_data.h **** 
 1632              		.loc 2 71 21 is_stmt 0 view .LVU533
 1633 0240 4FF4D473 		mov	r3, #424
 1634 0244 A385     		strh	r3, [r4, #44]	@ movhi
  73:Service/imu_data.h ****         error->reg_r_val = reg_r;
 1635              		.loc 2 73 9 is_stmt 1 view .LVU534
  73:Service/imu_data.h ****         error->reg_r_val = reg_r;
 1636              		.loc 2 73 24 is_stmt 0 view .LVU535
 1637 0246 0023     		movs	r3, #0
 1638 0248 84F82E30 		strb	r3, [r4, #46]
  74:Service/imu_data.h ****         error->reg_t_val = reg_t;
 1639              		.loc 2 74 9 is_stmt 1 view .LVU536
  74:Service/imu_data.h ****         error->reg_t_val = reg_t;
 1640              		.loc 2 74 26 is_stmt 0 view .LVU537
 1641 024c 84F82F30 		strb	r3, [r4, #47]
 1642              		.loc 2 75 9 is_stmt 1 view .LVU538
 1643              		.loc 2 75 26 is_stmt 0 view .LVU539
 1644 0250 84F83030 		strb	r3, [r4, #48]
 1645              	.L108:
 1646              	.LVL133:
 1647              		.loc 2 75 26 view .LVU540
 1648              	.LBE97:
 1649              	.LBE96:
 425:Device/Dev_ICM426xx.c ****     }
 1650              		.loc 1 425 9 is_stmt 1 view .LVU541
 425:Device/Dev_ICM426xx.c ****     }
 1651              		.loc 1 425 16 is_stmt 0 view .LVU542
 1652 0254 0020     		movs	r0, #0
 1653 0256 06E7     		b	.L83
 1654              	.L176:
 422:Device/Dev_ICM426xx.c ****     {
 1655              		.loc 1 422 9 discriminator 1 view .LVU543
 1656 0258 0DF10702 		add	r2, sp, #7
 1657 025c 0E21     		movs	r1, #14
 1658 025e 2046     		mov	r0, r4
 1659 0260 FFF7FEFF 		bl	DevICM426xx_Reg_Read
 1660              	.LVL134:
 421:Device/Dev_ICM426xx.c ****        !DevICM426xx_Reg_Read(sensor_obj, ICM426XX_RA_GYRO_CONFIG_STATIC5, &read_out))
 1661              		.loc 1 421 166 discriminator 1 view .LVU544
 1662 0264 0028     		cmp	r0, #0
 1663 0266 E3D0     		beq	.L106
ARM GAS  C:\Users\HUAV\AppData\Local\Temp\ccpgM8up.s 			page 47


 428:Device/Dev_ICM426xx.c ****     {
 1664              		.loc 1 428 5 is_stmt 1 view .LVU545
 428:Device/Dev_ICM426xx.c ****     {
 1665              		.loc 1 428 17 is_stmt 0 view .LVU546
 1666 0268 9DF80700 		ldrb	r0, [sp, #7]	@ zero_extendqisi2
 428:Device/Dev_ICM426xx.c ****     {
 1667              		.loc 1 428 49 view .LVU547
 1668 026c 6988     		ldrh	r1, [r5, #2]
 428:Device/Dev_ICM426xx.c ****     {
 1669              		.loc 1 428 94 view .LVU548
 1670 026e 2A79     		ldrb	r2, [r5, #4]	@ zero_extendqisi2
 428:Device/Dev_ICM426xx.c ****     {
 1671              		.loc 1 428 104 view .LVU549
 1672 0270 1201     		lsls	r2, r2, #4
 428:Device/Dev_ICM426xx.c ****     {
 1673              		.loc 1 428 64 view .LVU550
 1674 0272 42EA1121 		orr	r1, r2, r1, lsr #8
 428:Device/Dev_ICM426xx.c ****     {
 1675              		.loc 1 428 7 view .LVU551
 1676 0276 8842     		cmp	r0, r1
 1677 0278 14D0     		beq	.L109
 430:Device/Dev_ICM426xx.c ****                          (aaf_tab[ICM426xx_AAF_258Hz].deltSqr >> 8) | (aaf_tab[ICM426xx_AAF_258Hz].
 1678              		.loc 1 430 9 is_stmt 1 view .LVU552
 1679 027a CBB2     		uxtb	r3, r1
 1680              	.LVL135:
 1681              	.LBB98:
 1682              	.LBI98:
  65:Service/imu_data.h **** {
 1683              		.loc 2 65 13 view .LVU553
 1684              	.LBB99:
  67:Service/imu_data.h ****     {
 1685              		.loc 2 67 5 view .LVU554
  67:Service/imu_data.h ****     {
 1686              		.loc 2 67 7 is_stmt 0 view .LVU555
 1687 027c 14F1240F 		cmn	r4, #36
 1688 0280 0ED0     		beq	.L110
  69:Service/imu_data.h ****         error->function = func;
 1689              		.loc 2 69 9 is_stmt 1 view .LVU556
  69:Service/imu_data.h ****         error->function = func;
 1690              		.loc 2 69 21 is_stmt 0 view .LVU557
 1691 0282 0622     		movs	r2, #6
 1692 0284 84F82420 		strb	r2, [r4, #36]
  70:Service/imu_data.h ****         error->line = line;
 1693              		.loc 2 70 9 is_stmt 1 view .LVU558
  70:Service/imu_data.h ****         error->line = line;
 1694              		.loc 2 70 25 is_stmt 0 view .LVU559
 1695 0288 214A     		ldr	r2, .L182
 1696 028a A262     		str	r2, [r4, #40]
  71:Service/imu_data.h **** 
 1697              		.loc 2 71 9 is_stmt 1 view .LVU560
  71:Service/imu_data.h **** 
 1698              		.loc 2 71 21 is_stmt 0 view .LVU561
 1699 028c 4FF4D772 		mov	r2, #430
 1700 0290 A285     		strh	r2, [r4, #44]	@ movhi
  73:Service/imu_data.h ****         error->reg_r_val = reg_r;
 1701              		.loc 2 73 9 is_stmt 1 view .LVU562
  73:Service/imu_data.h ****         error->reg_r_val = reg_r;
ARM GAS  C:\Users\HUAV\AppData\Local\Temp\ccpgM8up.s 			page 48


 1702              		.loc 2 73 24 is_stmt 0 view .LVU563
 1703 0292 0E22     		movs	r2, #14
 1704 0294 84F82E20 		strb	r2, [r4, #46]
  74:Service/imu_data.h ****         error->reg_t_val = reg_t;
 1705              		.loc 2 74 9 is_stmt 1 view .LVU564
  74:Service/imu_data.h ****         error->reg_t_val = reg_t;
 1706              		.loc 2 74 26 is_stmt 0 view .LVU565
 1707 0298 84F82F00 		strb	r0, [r4, #47]
 1708              		.loc 2 75 9 is_stmt 1 view .LVU566
 1709              		.loc 2 75 26 is_stmt 0 view .LVU567
 1710 029c 84F83030 		strb	r3, [r4, #48]
 1711              	.L110:
 1712              	.LVL136:
 1713              		.loc 2 75 26 view .LVU568
 1714              	.LBE99:
 1715              	.LBE98:
 432:Device/Dev_ICM426xx.c ****     }
 1716              		.loc 1 432 9 is_stmt 1 view .LVU569
 432:Device/Dev_ICM426xx.c ****     }
 1717              		.loc 1 432 16 is_stmt 0 view .LVU570
 1718 02a0 0020     		movs	r0, #0
 1719 02a2 E0E6     		b	.L83
 1720              	.L109:
 436:Device/Dev_ICM426xx.c ****     {
 1721              		.loc 1 436 5 is_stmt 1 view .LVU571
 436:Device/Dev_ICM426xx.c ****     {
 1722              		.loc 1 436 9 is_stmt 0 view .LVU572
 1723 02a4 0221     		movs	r1, #2
 1724 02a6 2046     		mov	r0, r4
 1725 02a8 FFF7FEFF 		bl	DevICM426xx_SetUserBank
 1726              	.LVL137:
 436:Device/Dev_ICM426xx.c ****     {
 1727              		.loc 1 436 7 view .LVU573
 1728 02ac 98B9     		cbnz	r0, .L111
 438:Device/Dev_ICM426xx.c ****         return false;
 1729              		.loc 1 438 9 is_stmt 1 view .LVU574
 1730              	.LVL138:
 1731              	.LBB100:
 1732              	.LBI100:
  65:Service/imu_data.h **** {
 1733              		.loc 2 65 13 view .LVU575
 1734              	.LBB101:
  67:Service/imu_data.h ****     {
 1735              		.loc 2 67 5 view .LVU576
  67:Service/imu_data.h ****     {
 1736              		.loc 2 67 7 is_stmt 0 view .LVU577
 1737 02ae 14F1240F 		cmn	r4, #36
 1738 02b2 3FF4D8AE 		beq	.L83
  69:Service/imu_data.h ****         error->function = func;
 1739              		.loc 2 69 9 is_stmt 1 view .LVU578
  69:Service/imu_data.h ****         error->function = func;
 1740              		.loc 2 69 21 is_stmt 0 view .LVU579
 1741 02b6 0723     		movs	r3, #7
 1742 02b8 84F82430 		strb	r3, [r4, #36]
  70:Service/imu_data.h ****         error->line = line;
 1743              		.loc 2 70 9 is_stmt 1 view .LVU580
  70:Service/imu_data.h ****         error->line = line;
ARM GAS  C:\Users\HUAV\AppData\Local\Temp\ccpgM8up.s 			page 49


 1744              		.loc 2 70 25 is_stmt 0 view .LVU581
 1745 02bc 144B     		ldr	r3, .L182
 1746 02be A362     		str	r3, [r4, #40]
  71:Service/imu_data.h **** 
 1747              		.loc 2 71 9 is_stmt 1 view .LVU582
  71:Service/imu_data.h **** 
 1748              		.loc 2 71 21 is_stmt 0 view .LVU583
 1749 02c0 4FF4DB73 		mov	r3, #438
 1750 02c4 A385     		strh	r3, [r4, #44]	@ movhi
  73:Service/imu_data.h ****         error->reg_r_val = reg_r;
 1751              		.loc 2 73 9 is_stmt 1 view .LVU584
  73:Service/imu_data.h ****         error->reg_r_val = reg_r;
 1752              		.loc 2 73 24 is_stmt 0 view .LVU585
 1753 02c6 0023     		movs	r3, #0
 1754 02c8 84F82E30 		strb	r3, [r4, #46]
  74:Service/imu_data.h ****         error->reg_t_val = reg_t;
 1755              		.loc 2 74 9 is_stmt 1 view .LVU586
  74:Service/imu_data.h ****         error->reg_t_val = reg_t;
 1756              		.loc 2 74 26 is_stmt 0 view .LVU587
 1757 02cc 84F82F30 		strb	r3, [r4, #47]
 1758              		.loc 2 75 9 is_stmt 1 view .LVU588
 1759              		.loc 2 75 26 is_stmt 0 view .LVU589
 1760 02d0 84F83030 		strb	r3, [r4, #48]
 1761              	.LVL139:
 1762              		.loc 2 75 26 view .LVU590
 1763              	.LBE101:
 1764              	.LBE100:
 439:Device/Dev_ICM426xx.c ****     }
 1765              		.loc 1 439 9 is_stmt 1 view .LVU591
 439:Device/Dev_ICM426xx.c ****     }
 1766              		.loc 1 439 16 is_stmt 0 view .LVU592
 1767 02d4 C7E6     		b	.L83
 1768              	.L111:
 442:Device/Dev_ICM426xx.c ****        !DevICM426xx_Reg_Read(sensor_obj, ICM426XX_RA_ACCEL_CONFIG_STATIC2, &read_out))
 1769              		.loc 1 442 5 is_stmt 1 view .LVU593
 442:Device/Dev_ICM426xx.c ****        !DevICM426xx_Reg_Read(sensor_obj, ICM426XX_RA_ACCEL_CONFIG_STATIC2, &read_out))
 1770              		.loc 1 442 104 is_stmt 0 view .LVU594
 1771 02d6 2A78     		ldrb	r2, [r5]	@ zero_extendqisi2
 442:Device/Dev_ICM426xx.c ****        !DevICM426xx_Reg_Read(sensor_obj, ICM426XX_RA_ACCEL_CONFIG_STATIC2, &read_out))
 1772              		.loc 1 442 9 view .LVU595
 1773 02d8 5200     		lsls	r2, r2, #1
 1774 02da 02F0FE02 		and	r2, r2, #254
 1775 02de 0321     		movs	r1, #3
 1776 02e0 2046     		mov	r0, r4
 1777 02e2 FFF7FEFF 		bl	DevICM426xx_Reg_Write
 1778              	.LVL140:
 442:Device/Dev_ICM426xx.c ****        !DevICM426xx_Reg_Read(sensor_obj, ICM426XX_RA_ACCEL_CONFIG_STATIC2, &read_out))
 1779              		.loc 1 442 7 view .LVU596
 1780 02e6 C8B9     		cbnz	r0, .L177
 1781              	.L113:
 445:Device/Dev_ICM426xx.c ****         return false;
 1782              		.loc 1 445 9 is_stmt 1 view .LVU597
 1783              	.LVL141:
 1784              	.LBB102:
 1785              	.LBI102:
  65:Service/imu_data.h **** {
 1786              		.loc 2 65 13 view .LVU598
ARM GAS  C:\Users\HUAV\AppData\Local\Temp\ccpgM8up.s 			page 50


 1787              	.LBB103:
  67:Service/imu_data.h ****     {
 1788              		.loc 2 67 5 view .LVU599
  67:Service/imu_data.h ****     {
 1789              		.loc 2 67 7 is_stmt 0 view .LVU600
 1790 02e8 14F1240F 		cmn	r4, #36
 1791 02ec 0ED0     		beq	.L115
  69:Service/imu_data.h ****         error->function = func;
 1792              		.loc 2 69 9 is_stmt 1 view .LVU601
  69:Service/imu_data.h ****         error->function = func;
 1793              		.loc 2 69 21 is_stmt 0 view .LVU602
 1794 02ee 0723     		movs	r3, #7
 1795 02f0 84F82430 		strb	r3, [r4, #36]
  70:Service/imu_data.h ****         error->line = line;
 1796              		.loc 2 70 9 is_stmt 1 view .LVU603
  70:Service/imu_data.h ****         error->line = line;
 1797              		.loc 2 70 25 is_stmt 0 view .LVU604
 1798 02f4 064B     		ldr	r3, .L182
 1799 02f6 A362     		str	r3, [r4, #40]
  71:Service/imu_data.h **** 
 1800              		.loc 2 71 9 is_stmt 1 view .LVU605
  71:Service/imu_data.h **** 
 1801              		.loc 2 71 21 is_stmt 0 view .LVU606
 1802 02f8 40F2BD13 		movw	r3, #445
 1803 02fc A385     		strh	r3, [r4, #44]	@ movhi
  73:Service/imu_data.h ****         error->reg_r_val = reg_r;
 1804              		.loc 2 73 9 is_stmt 1 view .LVU607
  73:Service/imu_data.h ****         error->reg_r_val = reg_r;
 1805              		.loc 2 73 24 is_stmt 0 view .LVU608
 1806 02fe 0023     		movs	r3, #0
 1807 0300 84F82E30 		strb	r3, [r4, #46]
  74:Service/imu_data.h ****         error->reg_t_val = reg_t;
 1808              		.loc 2 74 9 is_stmt 1 view .LVU609
  74:Service/imu_data.h ****         error->reg_t_val = reg_t;
 1809              		.loc 2 74 26 is_stmt 0 view .LVU610
 1810 0304 84F82F30 		strb	r3, [r4, #47]
 1811              		.loc 2 75 9 is_stmt 1 view .LVU611
 1812              		.loc 2 75 26 is_stmt 0 view .LVU612
 1813 0308 84F83030 		strb	r3, [r4, #48]
 1814              	.L115:
 1815              	.LVL142:
 1816              		.loc 2 75 26 view .LVU613
 1817              	.LBE103:
 1818              	.LBE102:
 446:Device/Dev_ICM426xx.c ****     }
 1819              		.loc 1 446 9 is_stmt 1 view .LVU614
 446:Device/Dev_ICM426xx.c ****     }
 1820              		.loc 1 446 16 is_stmt 0 view .LVU615
 1821 030c 0020     		movs	r0, #0
 1822 030e AAE6     		b	.L83
 1823              	.L183:
 1824              		.align	2
 1825              	.L182:
 1826 0310 00000000 		.word	.LANCHOR2
 1827 0314 00000000 		.word	.LANCHOR0
 1828 0318 00000000 		.word	.LANCHOR1
 1829              	.L177:
ARM GAS  C:\Users\HUAV\AppData\Local\Temp\ccpgM8up.s 			page 51


 443:Device/Dev_ICM426xx.c ****     {
 1830              		.loc 1 443 9 discriminator 1 view .LVU616
 1831 031c 0DF10702 		add	r2, sp, #7
 1832 0320 0321     		movs	r1, #3
 1833 0322 2046     		mov	r0, r4
 1834 0324 FFF7FEFF 		bl	DevICM426xx_Reg_Read
 1835              	.LVL143:
 442:Device/Dev_ICM426xx.c ****        !DevICM426xx_Reg_Read(sensor_obj, ICM426XX_RA_ACCEL_CONFIG_STATIC2, &read_out))
 1836              		.loc 1 442 116 discriminator 1 view .LVU617
 1837 0328 0028     		cmp	r0, #0
 1838 032a DDD0     		beq	.L113
 449:Device/Dev_ICM426xx.c ****     {
 1839              		.loc 1 449 5 is_stmt 1 view .LVU618
 449:Device/Dev_ICM426xx.c ****     {
 1840              		.loc 1 449 17 is_stmt 0 view .LVU619
 1841 032c 9DF80720 		ldrb	r2, [sp, #7]	@ zero_extendqisi2
 449:Device/Dev_ICM426xx.c ****     {
 1842              		.loc 1 449 48 view .LVU620
 1843 0330 2B78     		ldrb	r3, [r5]	@ zero_extendqisi2
 449:Device/Dev_ICM426xx.c ****     {
 1844              		.loc 1 449 7 view .LVU621
 1845 0332 B2EB430F 		cmp	r2, r3, lsl #1
 1846 0336 15D0     		beq	.L116
 451:Device/Dev_ICM426xx.c ****         return false;
 1847              		.loc 1 451 9 is_stmt 1 view .LVU622
 1848 0338 5B00     		lsls	r3, r3, #1
 1849 033a DBB2     		uxtb	r3, r3
 1850              	.LVL144:
 1851              	.LBB104:
 1852              	.LBI104:
  65:Service/imu_data.h **** {
 1853              		.loc 2 65 13 view .LVU623
 1854              	.LBB105:
  67:Service/imu_data.h ****     {
 1855              		.loc 2 67 5 view .LVU624
  67:Service/imu_data.h ****     {
 1856              		.loc 2 67 7 is_stmt 0 view .LVU625
 1857 033c 14F1240F 		cmn	r4, #36
 1858 0340 0ED0     		beq	.L117
  69:Service/imu_data.h ****         error->function = func;
 1859              		.loc 2 69 9 is_stmt 1 view .LVU626
  69:Service/imu_data.h ****         error->function = func;
 1860              		.loc 2 69 21 is_stmt 0 view .LVU627
 1861 0342 0521     		movs	r1, #5
 1862 0344 84F82410 		strb	r1, [r4, #36]
  70:Service/imu_data.h ****         error->line = line;
 1863              		.loc 2 70 9 is_stmt 1 view .LVU628
  70:Service/imu_data.h ****         error->line = line;
 1864              		.loc 2 70 25 is_stmt 0 view .LVU629
 1865 0348 BB49     		ldr	r1, .L184
 1866 034a A162     		str	r1, [r4, #40]
  71:Service/imu_data.h **** 
 1867              		.loc 2 71 9 is_stmt 1 view .LVU630
  71:Service/imu_data.h **** 
 1868              		.loc 2 71 21 is_stmt 0 view .LVU631
 1869 034c 40F2C311 		movw	r1, #451
 1870 0350 A185     		strh	r1, [r4, #44]	@ movhi
ARM GAS  C:\Users\HUAV\AppData\Local\Temp\ccpgM8up.s 			page 52


  73:Service/imu_data.h ****         error->reg_r_val = reg_r;
 1871              		.loc 2 73 9 is_stmt 1 view .LVU632
  73:Service/imu_data.h ****         error->reg_r_val = reg_r;
 1872              		.loc 2 73 24 is_stmt 0 view .LVU633
 1873 0352 0321     		movs	r1, #3
 1874 0354 84F82E10 		strb	r1, [r4, #46]
  74:Service/imu_data.h ****         error->reg_t_val = reg_t;
 1875              		.loc 2 74 9 is_stmt 1 view .LVU634
  74:Service/imu_data.h ****         error->reg_t_val = reg_t;
 1876              		.loc 2 74 26 is_stmt 0 view .LVU635
 1877 0358 84F82F20 		strb	r2, [r4, #47]
 1878              		.loc 2 75 9 is_stmt 1 view .LVU636
 1879              		.loc 2 75 26 is_stmt 0 view .LVU637
 1880 035c 84F83030 		strb	r3, [r4, #48]
 1881              	.L117:
 1882              	.LVL145:
 1883              		.loc 2 75 26 view .LVU638
 1884              	.LBE105:
 1885              	.LBE104:
 452:Device/Dev_ICM426xx.c ****     }
 1886              		.loc 1 452 9 is_stmt 1 view .LVU639
 452:Device/Dev_ICM426xx.c ****     }
 1887              		.loc 1 452 16 is_stmt 0 view .LVU640
 1888 0360 0020     		movs	r0, #0
 1889 0362 80E6     		b	.L83
 1890              	.L116:
 455:Device/Dev_ICM426xx.c ****        !DevICM426xx_Reg_Read(sensor_obj, ICM426XX_RA_ACCEL_CONFIG_STATIC3, &read_out))
 1891              		.loc 1 455 5 is_stmt 1 view .LVU641
 455:Device/Dev_ICM426xx.c ****        !DevICM426xx_Reg_Read(sensor_obj, ICM426XX_RA_ACCEL_CONFIG_STATIC3, &read_out))
 1892              		.loc 1 455 9 is_stmt 0 view .LVU642
 1893 0364 AA78     		ldrb	r2, [r5, #2]	@ zero_extendqisi2
 1894 0366 0421     		movs	r1, #4
 1895 0368 2046     		mov	r0, r4
 1896 036a FFF7FEFF 		bl	DevICM426xx_Reg_Write
 1897              	.LVL146:
 455:Device/Dev_ICM426xx.c ****        !DevICM426xx_Reg_Read(sensor_obj, ICM426XX_RA_ACCEL_CONFIG_STATIC3, &read_out))
 1898              		.loc 1 455 7 view .LVU643
 1899 036e 98B9     		cbnz	r0, .L178
 1900              	.L118:
 458:Device/Dev_ICM426xx.c ****         return false;
 1901              		.loc 1 458 9 is_stmt 1 view .LVU644
 1902              	.LVL147:
 1903              	.LBB106:
 1904              	.LBI106:
  65:Service/imu_data.h **** {
 1905              		.loc 2 65 13 view .LVU645
 1906              	.LBB107:
  67:Service/imu_data.h ****     {
 1907              		.loc 2 67 5 view .LVU646
  67:Service/imu_data.h ****     {
 1908              		.loc 2 67 7 is_stmt 0 view .LVU647
 1909 0370 14F1240F 		cmn	r4, #36
 1910 0374 0ED0     		beq	.L120
  69:Service/imu_data.h ****         error->function = func;
 1911              		.loc 2 69 9 is_stmt 1 view .LVU648
  69:Service/imu_data.h ****         error->function = func;
 1912              		.loc 2 69 21 is_stmt 0 view .LVU649
ARM GAS  C:\Users\HUAV\AppData\Local\Temp\ccpgM8up.s 			page 53


 1913 0376 0723     		movs	r3, #7
 1914 0378 84F82430 		strb	r3, [r4, #36]
  70:Service/imu_data.h ****         error->line = line;
 1915              		.loc 2 70 9 is_stmt 1 view .LVU650
  70:Service/imu_data.h ****         error->line = line;
 1916              		.loc 2 70 25 is_stmt 0 view .LVU651
 1917 037c AE4B     		ldr	r3, .L184
 1918 037e A362     		str	r3, [r4, #40]
  71:Service/imu_data.h **** 
 1919              		.loc 2 71 9 is_stmt 1 view .LVU652
  71:Service/imu_data.h **** 
 1920              		.loc 2 71 21 is_stmt 0 view .LVU653
 1921 0380 4FF4E573 		mov	r3, #458
 1922 0384 A385     		strh	r3, [r4, #44]	@ movhi
  73:Service/imu_data.h ****         error->reg_r_val = reg_r;
 1923              		.loc 2 73 9 is_stmt 1 view .LVU654
  73:Service/imu_data.h ****         error->reg_r_val = reg_r;
 1924              		.loc 2 73 24 is_stmt 0 view .LVU655
 1925 0386 0023     		movs	r3, #0
 1926 0388 84F82E30 		strb	r3, [r4, #46]
  74:Service/imu_data.h ****         error->reg_t_val = reg_t;
 1927              		.loc 2 74 9 is_stmt 1 view .LVU656
  74:Service/imu_data.h ****         error->reg_t_val = reg_t;
 1928              		.loc 2 74 26 is_stmt 0 view .LVU657
 1929 038c 84F82F30 		strb	r3, [r4, #47]
 1930              		.loc 2 75 9 is_stmt 1 view .LVU658
 1931              		.loc 2 75 26 is_stmt 0 view .LVU659
 1932 0390 84F83030 		strb	r3, [r4, #48]
 1933              	.L120:
 1934              	.LVL148:
 1935              		.loc 2 75 26 view .LVU660
 1936              	.LBE107:
 1937              	.LBE106:
 459:Device/Dev_ICM426xx.c ****     }
 1938              		.loc 1 459 9 is_stmt 1 view .LVU661
 459:Device/Dev_ICM426xx.c ****     }
 1939              		.loc 1 459 16 is_stmt 0 view .LVU662
 1940 0394 0020     		movs	r0, #0
 1941 0396 66E6     		b	.L83
 1942              	.L178:
 456:Device/Dev_ICM426xx.c ****     {
 1943              		.loc 1 456 9 discriminator 1 view .LVU663
 1944 0398 0DF10702 		add	r2, sp, #7
 1945 039c 0421     		movs	r1, #4
 1946 039e 2046     		mov	r0, r4
 1947 03a0 FFF7FEFF 		bl	DevICM426xx_Reg_Read
 1948              	.LVL149:
 455:Device/Dev_ICM426xx.c ****        !DevICM426xx_Reg_Read(sensor_obj, ICM426XX_RA_ACCEL_CONFIG_STATIC3, &read_out))
 1949              		.loc 1 455 121 discriminator 1 view .LVU664
 1950 03a4 0028     		cmp	r0, #0
 1951 03a6 E3D0     		beq	.L118
 462:Device/Dev_ICM426xx.c ****     {
 1952              		.loc 1 462 5 is_stmt 1 view .LVU665
 462:Device/Dev_ICM426xx.c ****     {
 1953              		.loc 1 462 17 is_stmt 0 view .LVU666
 1954 03a8 9DF80720 		ldrb	r2, [sp, #7]	@ zero_extendqisi2
 462:Device/Dev_ICM426xx.c ****     {
ARM GAS  C:\Users\HUAV\AppData\Local\Temp\ccpgM8up.s 			page 54


 1955              		.loc 1 462 48 view .LVU667
 1956 03ac 6B88     		ldrh	r3, [r5, #2]
 462:Device/Dev_ICM426xx.c ****     {
 1957              		.loc 1 462 57 view .LVU668
 1958 03ae A978     		ldrb	r1, [r5, #2]	@ zero_extendqisi2
 462:Device/Dev_ICM426xx.c ****     {
 1959              		.loc 1 462 7 view .LVU669
 1960 03b0 8A42     		cmp	r2, r1
 1961 03b2 14D0     		beq	.L121
 464:Device/Dev_ICM426xx.c ****                          aaf_tab[ICM426xx_AAF_258Hz].deltSqr & 0xFF);
 1962              		.loc 1 464 9 is_stmt 1 view .LVU670
 1963 03b4 DBB2     		uxtb	r3, r3
 1964              	.LVL150:
 1965              	.LBB108:
 1966              	.LBI108:
  65:Service/imu_data.h **** {
 1967              		.loc 2 65 13 view .LVU671
 1968              	.LBB109:
  67:Service/imu_data.h ****     {
 1969              		.loc 2 67 5 view .LVU672
  67:Service/imu_data.h ****     {
 1970              		.loc 2 67 7 is_stmt 0 view .LVU673
 1971 03b6 14F1240F 		cmn	r4, #36
 1972 03ba 0ED0     		beq	.L122
  69:Service/imu_data.h ****         error->function = func;
 1973              		.loc 2 69 9 is_stmt 1 view .LVU674
  69:Service/imu_data.h ****         error->function = func;
 1974              		.loc 2 69 21 is_stmt 0 view .LVU675
 1975 03bc 0521     		movs	r1, #5
 1976 03be 84F82410 		strb	r1, [r4, #36]
  70:Service/imu_data.h ****         error->line = line;
 1977              		.loc 2 70 9 is_stmt 1 view .LVU676
  70:Service/imu_data.h ****         error->line = line;
 1978              		.loc 2 70 25 is_stmt 0 view .LVU677
 1979 03c2 9D49     		ldr	r1, .L184
 1980 03c4 A162     		str	r1, [r4, #40]
  71:Service/imu_data.h **** 
 1981              		.loc 2 71 9 is_stmt 1 view .LVU678
  71:Service/imu_data.h **** 
 1982              		.loc 2 71 21 is_stmt 0 view .LVU679
 1983 03c6 4FF4E871 		mov	r1, #464
 1984 03ca A185     		strh	r1, [r4, #44]	@ movhi
  73:Service/imu_data.h ****         error->reg_r_val = reg_r;
 1985              		.loc 2 73 9 is_stmt 1 view .LVU680
  73:Service/imu_data.h ****         error->reg_r_val = reg_r;
 1986              		.loc 2 73 24 is_stmt 0 view .LVU681
 1987 03cc 0421     		movs	r1, #4
 1988 03ce 84F82E10 		strb	r1, [r4, #46]
  74:Service/imu_data.h ****         error->reg_t_val = reg_t;
 1989              		.loc 2 74 9 is_stmt 1 view .LVU682
  74:Service/imu_data.h ****         error->reg_t_val = reg_t;
 1990              		.loc 2 74 26 is_stmt 0 view .LVU683
 1991 03d2 84F82F20 		strb	r2, [r4, #47]
 1992              		.loc 2 75 9 is_stmt 1 view .LVU684
 1993              		.loc 2 75 26 is_stmt 0 view .LVU685
 1994 03d6 84F83030 		strb	r3, [r4, #48]
 1995              	.L122:
ARM GAS  C:\Users\HUAV\AppData\Local\Temp\ccpgM8up.s 			page 55


 1996              	.LVL151:
 1997              		.loc 2 75 26 view .LVU686
 1998              	.LBE109:
 1999              	.LBE108:
 466:Device/Dev_ICM426xx.c ****     }
 2000              		.loc 1 466 9 is_stmt 1 view .LVU687
 466:Device/Dev_ICM426xx.c ****     }
 2001              		.loc 1 466 16 is_stmt 0 view .LVU688
 2002 03da 0020     		movs	r0, #0
 2003 03dc 43E6     		b	.L83
 2004              	.L121:
 469:Device/Dev_ICM426xx.c ****        !DevICM426xx_Reg_Read(sensor_obj, ICM426XX_RA_ACCEL_CONFIG_STATIC4, &read_out))
 2005              		.loc 1 469 5 is_stmt 1 view .LVU689
 469:Device/Dev_ICM426xx.c ****        !DevICM426xx_Reg_Read(sensor_obj, ICM426XX_RA_ACCEL_CONFIG_STATIC4, &read_out))
 2006              		.loc 1 469 150 is_stmt 0 view .LVU690
 2007 03de 2A79     		ldrb	r2, [r5, #4]	@ zero_extendqisi2
 469:Device/Dev_ICM426xx.c ****        !DevICM426xx_Reg_Read(sensor_obj, ICM426XX_RA_ACCEL_CONFIG_STATIC4, &read_out))
 2008              		.loc 1 469 120 view .LVU691
 2009 03e0 1B0A     		lsrs	r3, r3, #8
 2010 03e2 43EA0212 		orr	r2, r3, r2, lsl #4
 469:Device/Dev_ICM426xx.c ****        !DevICM426xx_Reg_Read(sensor_obj, ICM426XX_RA_ACCEL_CONFIG_STATIC4, &read_out))
 2011              		.loc 1 469 9 view .LVU692
 2012 03e6 D2B2     		uxtb	r2, r2
 2013 03e8 0521     		movs	r1, #5
 2014 03ea 2046     		mov	r0, r4
 2015 03ec FFF7FEFF 		bl	DevICM426xx_Reg_Write
 2016              	.LVL152:
 469:Device/Dev_ICM426xx.c ****        !DevICM426xx_Reg_Read(sensor_obj, ICM426XX_RA_ACCEL_CONFIG_STATIC4, &read_out))
 2017              		.loc 1 469 7 view .LVU693
 2018 03f0 98B9     		cbnz	r0, .L179
 2019              	.L123:
 472:Device/Dev_ICM426xx.c ****         return false;
 2020              		.loc 1 472 9 is_stmt 1 view .LVU694
 2021              	.LVL153:
 2022              	.LBB110:
 2023              	.LBI110:
  65:Service/imu_data.h **** {
 2024              		.loc 2 65 13 view .LVU695
 2025              	.LBB111:
  67:Service/imu_data.h ****     {
 2026              		.loc 2 67 5 view .LVU696
  67:Service/imu_data.h ****     {
 2027              		.loc 2 67 7 is_stmt 0 view .LVU697
 2028 03f2 14F1240F 		cmn	r4, #36
 2029 03f6 0ED0     		beq	.L125
  69:Service/imu_data.h ****         error->function = func;
 2030              		.loc 2 69 9 is_stmt 1 view .LVU698
  69:Service/imu_data.h ****         error->function = func;
 2031              		.loc 2 69 21 is_stmt 0 view .LVU699
 2032 03f8 0723     		movs	r3, #7
 2033 03fa 84F82430 		strb	r3, [r4, #36]
  70:Service/imu_data.h ****         error->line = line;
 2034              		.loc 2 70 9 is_stmt 1 view .LVU700
  70:Service/imu_data.h ****         error->line = line;
 2035              		.loc 2 70 25 is_stmt 0 view .LVU701
 2036 03fe 8E4B     		ldr	r3, .L184
 2037 0400 A362     		str	r3, [r4, #40]
ARM GAS  C:\Users\HUAV\AppData\Local\Temp\ccpgM8up.s 			page 56


  71:Service/imu_data.h **** 
 2038              		.loc 2 71 9 is_stmt 1 view .LVU702
  71:Service/imu_data.h **** 
 2039              		.loc 2 71 21 is_stmt 0 view .LVU703
 2040 0402 4FF4EC73 		mov	r3, #472
 2041 0406 A385     		strh	r3, [r4, #44]	@ movhi
  73:Service/imu_data.h ****         error->reg_r_val = reg_r;
 2042              		.loc 2 73 9 is_stmt 1 view .LVU704
  73:Service/imu_data.h ****         error->reg_r_val = reg_r;
 2043              		.loc 2 73 24 is_stmt 0 view .LVU705
 2044 0408 0023     		movs	r3, #0
 2045 040a 84F82E30 		strb	r3, [r4, #46]
  74:Service/imu_data.h ****         error->reg_t_val = reg_t;
 2046              		.loc 2 74 9 is_stmt 1 view .LVU706
  74:Service/imu_data.h ****         error->reg_t_val = reg_t;
 2047              		.loc 2 74 26 is_stmt 0 view .LVU707
 2048 040e 84F82F30 		strb	r3, [r4, #47]
 2049              		.loc 2 75 9 is_stmt 1 view .LVU708
 2050              		.loc 2 75 26 is_stmt 0 view .LVU709
 2051 0412 84F83030 		strb	r3, [r4, #48]
 2052              	.L125:
 2053              	.LVL154:
 2054              		.loc 2 75 26 view .LVU710
 2055              	.LBE111:
 2056              	.LBE110:
 473:Device/Dev_ICM426xx.c ****     }
 2057              		.loc 1 473 9 is_stmt 1 view .LVU711
 473:Device/Dev_ICM426xx.c ****     }
 2058              		.loc 1 473 16 is_stmt 0 view .LVU712
 2059 0416 0020     		movs	r0, #0
 2060 0418 25E6     		b	.L83
 2061              	.L179:
 470:Device/Dev_ICM426xx.c ****     {
 2062              		.loc 1 470 9 discriminator 1 view .LVU713
 2063 041a 0DF10702 		add	r2, sp, #7
 2064 041e 0521     		movs	r1, #5
 2065 0420 2046     		mov	r0, r4
 2066 0422 FFF7FEFF 		bl	DevICM426xx_Reg_Read
 2067              	.LVL155:
 469:Device/Dev_ICM426xx.c ****        !DevICM426xx_Reg_Read(sensor_obj, ICM426XX_RA_ACCEL_CONFIG_STATIC4, &read_out))
 2068              		.loc 1 469 167 discriminator 1 view .LVU714
 2069 0426 0028     		cmp	r0, #0
 2070 0428 E3D0     		beq	.L123
 476:Device/Dev_ICM426xx.c ****     {
 2071              		.loc 1 476 5 is_stmt 1 view .LVU715
 476:Device/Dev_ICM426xx.c ****     {
 2072              		.loc 1 476 17 is_stmt 0 view .LVU716
 2073 042a 9DF80700 		ldrb	r0, [sp, #7]	@ zero_extendqisi2
 476:Device/Dev_ICM426xx.c ****     {
 2074              		.loc 1 476 49 view .LVU717
 2075 042e 6988     		ldrh	r1, [r5, #2]
 476:Device/Dev_ICM426xx.c ****     {
 2076              		.loc 1 476 94 view .LVU718
 2077 0430 2A79     		ldrb	r2, [r5, #4]	@ zero_extendqisi2
 476:Device/Dev_ICM426xx.c ****     {
 2078              		.loc 1 476 104 view .LVU719
 2079 0432 1201     		lsls	r2, r2, #4
ARM GAS  C:\Users\HUAV\AppData\Local\Temp\ccpgM8up.s 			page 57


 476:Device/Dev_ICM426xx.c ****     {
 2080              		.loc 1 476 64 view .LVU720
 2081 0434 42EA1121 		orr	r1, r2, r1, lsr #8
 476:Device/Dev_ICM426xx.c ****     {
 2082              		.loc 1 476 7 view .LVU721
 2083 0438 8842     		cmp	r0, r1
 2084 043a 13D0     		beq	.L126
 478:Device/Dev_ICM426xx.c ****                          (aaf_tab[ICM426xx_AAF_258Hz].deltSqr >> 8) | (aaf_tab[ICM426xx_AAF_258Hz].
 2085              		.loc 1 478 9 is_stmt 1 view .LVU722
 2086 043c CBB2     		uxtb	r3, r1
 2087              	.LVL156:
 2088              	.LBB112:
 2089              	.LBI112:
  65:Service/imu_data.h **** {
 2090              		.loc 2 65 13 view .LVU723
 2091              	.LBB113:
  67:Service/imu_data.h ****     {
 2092              		.loc 2 67 5 view .LVU724
  67:Service/imu_data.h ****     {
 2093              		.loc 2 67 7 is_stmt 0 view .LVU725
 2094 043e 14F1240F 		cmn	r4, #36
 2095 0442 0DD0     		beq	.L127
  69:Service/imu_data.h ****         error->function = func;
 2096              		.loc 2 69 9 is_stmt 1 view .LVU726
  69:Service/imu_data.h ****         error->function = func;
 2097              		.loc 2 69 21 is_stmt 0 view .LVU727
 2098 0444 0522     		movs	r2, #5
 2099 0446 84F82420 		strb	r2, [r4, #36]
  70:Service/imu_data.h ****         error->line = line;
 2100              		.loc 2 70 9 is_stmt 1 view .LVU728
  70:Service/imu_data.h ****         error->line = line;
 2101              		.loc 2 70 25 is_stmt 0 view .LVU729
 2102 044a 7B49     		ldr	r1, .L184
 2103 044c A162     		str	r1, [r4, #40]
  71:Service/imu_data.h **** 
 2104              		.loc 2 71 9 is_stmt 1 view .LVU730
  71:Service/imu_data.h **** 
 2105              		.loc 2 71 21 is_stmt 0 view .LVU731
 2106 044e 4FF4EF71 		mov	r1, #478
 2107 0452 A185     		strh	r1, [r4, #44]	@ movhi
  73:Service/imu_data.h ****         error->reg_r_val = reg_r;
 2108              		.loc 2 73 9 is_stmt 1 view .LVU732
  73:Service/imu_data.h ****         error->reg_r_val = reg_r;
 2109              		.loc 2 73 24 is_stmt 0 view .LVU733
 2110 0454 84F82E20 		strb	r2, [r4, #46]
  74:Service/imu_data.h ****         error->reg_t_val = reg_t;
 2111              		.loc 2 74 9 is_stmt 1 view .LVU734
  74:Service/imu_data.h ****         error->reg_t_val = reg_t;
 2112              		.loc 2 74 26 is_stmt 0 view .LVU735
 2113 0458 84F82F00 		strb	r0, [r4, #47]
 2114              		.loc 2 75 9 is_stmt 1 view .LVU736
 2115              		.loc 2 75 26 is_stmt 0 view .LVU737
 2116 045c 84F83030 		strb	r3, [r4, #48]
 2117              	.L127:
 2118              	.LVL157:
 2119              		.loc 2 75 26 view .LVU738
 2120              	.LBE113:
ARM GAS  C:\Users\HUAV\AppData\Local\Temp\ccpgM8up.s 			page 58


 2121              	.LBE112:
 480:Device/Dev_ICM426xx.c ****     }
 2122              		.loc 1 480 9 is_stmt 1 view .LVU739
 480:Device/Dev_ICM426xx.c ****     }
 2123              		.loc 1 480 16 is_stmt 0 view .LVU740
 2124 0460 0020     		movs	r0, #0
 2125 0462 00E6     		b	.L83
 2126              	.L126:
 484:Device/Dev_ICM426xx.c ****     {
 2127              		.loc 1 484 5 is_stmt 1 view .LVU741
 484:Device/Dev_ICM426xx.c ****     {
 2128              		.loc 1 484 9 is_stmt 0 view .LVU742
 2129 0464 0021     		movs	r1, #0
 2130 0466 2046     		mov	r0, r4
 2131 0468 FFF7FEFF 		bl	DevICM426xx_SetUserBank
 2132              	.LVL158:
 484:Device/Dev_ICM426xx.c ****     {
 2133              		.loc 1 484 7 view .LVU743
 2134 046c 98B9     		cbnz	r0, .L128
 486:Device/Dev_ICM426xx.c ****         return false;
 2135              		.loc 1 486 9 is_stmt 1 view .LVU744
 2136              	.LVL159:
 2137              	.LBB114:
 2138              	.LBI114:
  65:Service/imu_data.h **** {
 2139              		.loc 2 65 13 view .LVU745
 2140              	.LBB115:
  67:Service/imu_data.h ****     {
 2141              		.loc 2 67 5 view .LVU746
  67:Service/imu_data.h ****     {
 2142              		.loc 2 67 7 is_stmt 0 view .LVU747
 2143 046e 14F1240F 		cmn	r4, #36
 2144 0472 3FF4F8AD 		beq	.L83
  69:Service/imu_data.h ****         error->function = func;
 2145              		.loc 2 69 9 is_stmt 1 view .LVU748
  69:Service/imu_data.h ****         error->function = func;
 2146              		.loc 2 69 21 is_stmt 0 view .LVU749
 2147 0476 0723     		movs	r3, #7
 2148 0478 84F82430 		strb	r3, [r4, #36]
  70:Service/imu_data.h ****         error->line = line;
 2149              		.loc 2 70 9 is_stmt 1 view .LVU750
  70:Service/imu_data.h ****         error->line = line;
 2150              		.loc 2 70 25 is_stmt 0 view .LVU751
 2151 047c 6E4B     		ldr	r3, .L184
 2152 047e A362     		str	r3, [r4, #40]
  71:Service/imu_data.h **** 
 2153              		.loc 2 71 9 is_stmt 1 view .LVU752
  71:Service/imu_data.h **** 
 2154              		.loc 2 71 21 is_stmt 0 view .LVU753
 2155 0480 4FF4F373 		mov	r3, #486
 2156 0484 A385     		strh	r3, [r4, #44]	@ movhi
  73:Service/imu_data.h ****         error->reg_r_val = reg_r;
 2157              		.loc 2 73 9 is_stmt 1 view .LVU754
  73:Service/imu_data.h ****         error->reg_r_val = reg_r;
 2158              		.loc 2 73 24 is_stmt 0 view .LVU755
 2159 0486 0023     		movs	r3, #0
 2160 0488 84F82E30 		strb	r3, [r4, #46]
ARM GAS  C:\Users\HUAV\AppData\Local\Temp\ccpgM8up.s 			page 59


  74:Service/imu_data.h ****         error->reg_t_val = reg_t;
 2161              		.loc 2 74 9 is_stmt 1 view .LVU756
  74:Service/imu_data.h ****         error->reg_t_val = reg_t;
 2162              		.loc 2 74 26 is_stmt 0 view .LVU757
 2163 048c 84F82F30 		strb	r3, [r4, #47]
 2164              		.loc 2 75 9 is_stmt 1 view .LVU758
 2165              		.loc 2 75 26 is_stmt 0 view .LVU759
 2166 0490 84F83030 		strb	r3, [r4, #48]
 2167              	.LVL160:
 2168              		.loc 2 75 26 view .LVU760
 2169              	.LBE115:
 2170              	.LBE114:
 487:Device/Dev_ICM426xx.c ****     }
 2171              		.loc 1 487 9 is_stmt 1 view .LVU761
 487:Device/Dev_ICM426xx.c ****     }
 2172              		.loc 1 487 16 is_stmt 0 view .LVU762
 2173 0494 E7E5     		b	.L83
 2174              	.L128:
 490:Device/Dev_ICM426xx.c ****        !DevICM426xx_Reg_Read(sensor_obj, ICM426XX_RA_GYRO_ACCEL_CONFIG0, &read_out))
 2175              		.loc 1 490 5 is_stmt 1 view .LVU763
 490:Device/Dev_ICM426xx.c ****        !DevICM426xx_Reg_Read(sensor_obj, ICM426XX_RA_GYRO_ACCEL_CONFIG0, &read_out))
 2176              		.loc 1 490 9 is_stmt 0 view .LVU764
 2177 0496 FF22     		movs	r2, #255
 2178 0498 5221     		movs	r1, #82
 2179 049a 2046     		mov	r0, r4
 2180 049c FFF7FEFF 		bl	DevICM426xx_Reg_Write
 2181              	.LVL161:
 490:Device/Dev_ICM426xx.c ****        !DevICM426xx_Reg_Read(sensor_obj, ICM426XX_RA_GYRO_ACCEL_CONFIG0, &read_out))
 2182              		.loc 1 490 7 view .LVU765
 2183 04a0 98B9     		cbnz	r0, .L180
 2184              	.L130:
 493:Device/Dev_ICM426xx.c ****         return false;
 2185              		.loc 1 493 9 is_stmt 1 view .LVU766
 2186              	.LVL162:
 2187              	.LBB116:
 2188              	.LBI116:
  65:Service/imu_data.h **** {
 2189              		.loc 2 65 13 view .LVU767
 2190              	.LBB117:
  67:Service/imu_data.h ****     {
 2191              		.loc 2 67 5 view .LVU768
  67:Service/imu_data.h ****     {
 2192              		.loc 2 67 7 is_stmt 0 view .LVU769
 2193 04a2 14F1240F 		cmn	r4, #36
 2194 04a6 0ED0     		beq	.L132
  69:Service/imu_data.h ****         error->function = func;
 2195              		.loc 2 69 9 is_stmt 1 view .LVU770
  69:Service/imu_data.h ****         error->function = func;
 2196              		.loc 2 69 21 is_stmt 0 view .LVU771
 2197 04a8 0723     		movs	r3, #7
 2198 04aa 84F82430 		strb	r3, [r4, #36]
  70:Service/imu_data.h ****         error->line = line;
 2199              		.loc 2 70 9 is_stmt 1 view .LVU772
  70:Service/imu_data.h ****         error->line = line;
 2200              		.loc 2 70 25 is_stmt 0 view .LVU773
 2201 04ae 624B     		ldr	r3, .L184
 2202 04b0 A362     		str	r3, [r4, #40]
ARM GAS  C:\Users\HUAV\AppData\Local\Temp\ccpgM8up.s 			page 60


  71:Service/imu_data.h **** 
 2203              		.loc 2 71 9 is_stmt 1 view .LVU774
  71:Service/imu_data.h **** 
 2204              		.loc 2 71 21 is_stmt 0 view .LVU775
 2205 04b2 40F2ED13 		movw	r3, #493
 2206 04b6 A385     		strh	r3, [r4, #44]	@ movhi
  73:Service/imu_data.h ****         error->reg_r_val = reg_r;
 2207              		.loc 2 73 9 is_stmt 1 view .LVU776
  73:Service/imu_data.h ****         error->reg_r_val = reg_r;
 2208              		.loc 2 73 24 is_stmt 0 view .LVU777
 2209 04b8 0023     		movs	r3, #0
 2210 04ba 84F82E30 		strb	r3, [r4, #46]
  74:Service/imu_data.h ****         error->reg_t_val = reg_t;
 2211              		.loc 2 74 9 is_stmt 1 view .LVU778
  74:Service/imu_data.h ****         error->reg_t_val = reg_t;
 2212              		.loc 2 74 26 is_stmt 0 view .LVU779
 2213 04be 84F82F30 		strb	r3, [r4, #47]
 2214              		.loc 2 75 9 is_stmt 1 view .LVU780
 2215              		.loc 2 75 26 is_stmt 0 view .LVU781
 2216 04c2 84F83030 		strb	r3, [r4, #48]
 2217              	.L132:
 2218              	.LVL163:
 2219              		.loc 2 75 26 view .LVU782
 2220              	.LBE117:
 2221              	.LBE116:
 494:Device/Dev_ICM426xx.c ****     }
 2222              		.loc 1 494 9 is_stmt 1 view .LVU783
 494:Device/Dev_ICM426xx.c ****     }
 2223              		.loc 1 494 16 is_stmt 0 view .LVU784
 2224 04c6 0020     		movs	r0, #0
 2225 04c8 CDE5     		b	.L83
 2226              	.L180:
 491:Device/Dev_ICM426xx.c ****     {
 2227              		.loc 1 491 9 discriminator 1 view .LVU785
 2228 04ca 0DF10702 		add	r2, sp, #7
 2229 04ce 5221     		movs	r1, #82
 2230 04d0 2046     		mov	r0, r4
 2231 04d2 FFF7FEFF 		bl	DevICM426xx_Reg_Read
 2232              	.LVL164:
 490:Device/Dev_ICM426xx.c ****        !DevICM426xx_Reg_Read(sensor_obj, ICM426XX_RA_GYRO_ACCEL_CONFIG0, &read_out))
 2233              		.loc 1 490 153 discriminator 1 view .LVU786
 2234 04d6 0028     		cmp	r0, #0
 2235 04d8 E3D0     		beq	.L130
 497:Device/Dev_ICM426xx.c ****     {
 2236              		.loc 1 497 5 is_stmt 1 view .LVU787
 497:Device/Dev_ICM426xx.c ****     {
 2237              		.loc 1 497 17 is_stmt 0 view .LVU788
 2238 04da 9DF80730 		ldrb	r3, [sp, #7]	@ zero_extendqisi2
 497:Device/Dev_ICM426xx.c ****     {
 2239              		.loc 1 497 7 view .LVU789
 2240 04de FF2B     		cmp	r3, #255
 2241 04e0 14D0     		beq	.L133
 499:Device/Dev_ICM426xx.c ****                          ICM426XX_ACCEL_UI_FILT_BW_LOW_LATENCY | ICM426XX_GYRO_UI_FILT_BW_LOW_LATEN
 2242              		.loc 1 499 9 is_stmt 1 view .LVU790
 2243              	.LVL165:
 2244              	.LBB118:
 2245              	.LBI118:
ARM GAS  C:\Users\HUAV\AppData\Local\Temp\ccpgM8up.s 			page 61


  65:Service/imu_data.h **** {
 2246              		.loc 2 65 13 view .LVU791
 2247              	.LBB119:
  67:Service/imu_data.h ****     {
 2248              		.loc 2 67 5 view .LVU792
  67:Service/imu_data.h ****     {
 2249              		.loc 2 67 7 is_stmt 0 view .LVU793
 2250 04e2 14F1240F 		cmn	r4, #36
 2251 04e6 0FD0     		beq	.L134
  69:Service/imu_data.h ****         error->function = func;
 2252              		.loc 2 69 9 is_stmt 1 view .LVU794
  69:Service/imu_data.h ****         error->function = func;
 2253              		.loc 2 69 21 is_stmt 0 view .LVU795
 2254 04e8 0322     		movs	r2, #3
 2255 04ea 84F82420 		strb	r2, [r4, #36]
  70:Service/imu_data.h ****         error->line = line;
 2256              		.loc 2 70 9 is_stmt 1 view .LVU796
  70:Service/imu_data.h ****         error->line = line;
 2257              		.loc 2 70 25 is_stmt 0 view .LVU797
 2258 04ee 524A     		ldr	r2, .L184
 2259 04f0 A262     		str	r2, [r4, #40]
  71:Service/imu_data.h **** 
 2260              		.loc 2 71 9 is_stmt 1 view .LVU798
  71:Service/imu_data.h **** 
 2261              		.loc 2 71 21 is_stmt 0 view .LVU799
 2262 04f2 40F2F312 		movw	r2, #499
 2263 04f6 A285     		strh	r2, [r4, #44]	@ movhi
  73:Service/imu_data.h ****         error->reg_r_val = reg_r;
 2264              		.loc 2 73 9 is_stmt 1 view .LVU800
  73:Service/imu_data.h ****         error->reg_r_val = reg_r;
 2265              		.loc 2 73 24 is_stmt 0 view .LVU801
 2266 04f8 5222     		movs	r2, #82
 2267 04fa 84F82E20 		strb	r2, [r4, #46]
  74:Service/imu_data.h ****         error->reg_t_val = reg_t;
 2268              		.loc 2 74 9 is_stmt 1 view .LVU802
  74:Service/imu_data.h ****         error->reg_t_val = reg_t;
 2269              		.loc 2 74 26 is_stmt 0 view .LVU803
 2270 04fe 84F82F30 		strb	r3, [r4, #47]
 2271              		.loc 2 75 9 is_stmt 1 view .LVU804
 2272              		.loc 2 75 26 is_stmt 0 view .LVU805
 2273 0502 FF23     		movs	r3, #255
 2274              	.LVL166:
 2275              		.loc 2 75 26 view .LVU806
 2276 0504 84F83030 		strb	r3, [r4, #48]
 2277              	.LVL167:
 2278              	.L134:
 2279              		.loc 2 75 26 view .LVU807
 2280              	.LBE119:
 2281              	.LBE118:
 501:Device/Dev_ICM426xx.c ****     }
 2282              		.loc 1 501 9 is_stmt 1 view .LVU808
 501:Device/Dev_ICM426xx.c ****     }
 2283              		.loc 1 501 16 is_stmt 0 view .LVU809
 2284 0508 0020     		movs	r0, #0
 2285 050a ACE5     		b	.L83
 2286              	.L133:
 505:Device/Dev_ICM426xx.c ****        !DevICM426xx_Reg_Read(sensor_obj, ICM426XX_RA_INT_CONFIG, &read_out))
ARM GAS  C:\Users\HUAV\AppData\Local\Temp\ccpgM8up.s 			page 62


 2287              		.loc 1 505 5 is_stmt 1 view .LVU810
 505:Device/Dev_ICM426xx.c ****        !DevICM426xx_Reg_Read(sensor_obj, ICM426XX_RA_INT_CONFIG, &read_out))
 2288              		.loc 1 505 9 is_stmt 0 view .LVU811
 2289 050c 0322     		movs	r2, #3
 2290 050e 1421     		movs	r1, #20
 2291 0510 2046     		mov	r0, r4
 2292 0512 FFF7FEFF 		bl	DevICM426xx_Reg_Write
 2293              	.LVL168:
 505:Device/Dev_ICM426xx.c ****        !DevICM426xx_Reg_Read(sensor_obj, ICM426XX_RA_INT_CONFIG, &read_out))
 2294              		.loc 1 505 7 view .LVU812
 2295 0516 98B9     		cbnz	r0, .L181
 2296              	.L135:
 508:Device/Dev_ICM426xx.c ****         return false;
 2297              		.loc 1 508 9 is_stmt 1 view .LVU813
 2298              	.LVL169:
 2299              	.LBB120:
 2300              	.LBI120:
  65:Service/imu_data.h **** {
 2301              		.loc 2 65 13 view .LVU814
 2302              	.LBB121:
  67:Service/imu_data.h ****     {
 2303              		.loc 2 67 5 view .LVU815
  67:Service/imu_data.h ****     {
 2304              		.loc 2 67 7 is_stmt 0 view .LVU816
 2305 0518 14F1240F 		cmn	r4, #36
 2306 051c 0ED0     		beq	.L137
  69:Service/imu_data.h ****         error->function = func;
 2307              		.loc 2 69 9 is_stmt 1 view .LVU817
  69:Service/imu_data.h ****         error->function = func;
 2308              		.loc 2 69 21 is_stmt 0 view .LVU818
 2309 051e 0723     		movs	r3, #7
 2310 0520 84F82430 		strb	r3, [r4, #36]
  70:Service/imu_data.h ****         error->line = line;
 2311              		.loc 2 70 9 is_stmt 1 view .LVU819
  70:Service/imu_data.h ****         error->line = line;
 2312              		.loc 2 70 25 is_stmt 0 view .LVU820
 2313 0524 444B     		ldr	r3, .L184
 2314 0526 A362     		str	r3, [r4, #40]
  71:Service/imu_data.h **** 
 2315              		.loc 2 71 9 is_stmt 1 view .LVU821
  71:Service/imu_data.h **** 
 2316              		.loc 2 71 21 is_stmt 0 view .LVU822
 2317 0528 4FF4FE73 		mov	r3, #508
 2318 052c A385     		strh	r3, [r4, #44]	@ movhi
  73:Service/imu_data.h ****         error->reg_r_val = reg_r;
 2319              		.loc 2 73 9 is_stmt 1 view .LVU823
  73:Service/imu_data.h ****         error->reg_r_val = reg_r;
 2320              		.loc 2 73 24 is_stmt 0 view .LVU824
 2321 052e 0023     		movs	r3, #0
 2322 0530 84F82E30 		strb	r3, [r4, #46]
  74:Service/imu_data.h ****         error->reg_t_val = reg_t;
 2323              		.loc 2 74 9 is_stmt 1 view .LVU825
  74:Service/imu_data.h ****         error->reg_t_val = reg_t;
 2324              		.loc 2 74 26 is_stmt 0 view .LVU826
 2325 0534 84F82F30 		strb	r3, [r4, #47]
 2326              		.loc 2 75 9 is_stmt 1 view .LVU827
 2327              		.loc 2 75 26 is_stmt 0 view .LVU828
ARM GAS  C:\Users\HUAV\AppData\Local\Temp\ccpgM8up.s 			page 63


 2328 0538 84F83030 		strb	r3, [r4, #48]
 2329              	.L137:
 2330              	.LVL170:
 2331              		.loc 2 75 26 view .LVU829
 2332              	.LBE121:
 2333              	.LBE120:
 509:Device/Dev_ICM426xx.c ****     }
 2334              		.loc 1 509 9 is_stmt 1 view .LVU830
 509:Device/Dev_ICM426xx.c ****     }
 2335              		.loc 1 509 16 is_stmt 0 view .LVU831
 2336 053c 0020     		movs	r0, #0
 2337 053e 92E5     		b	.L83
 2338              	.L181:
 506:Device/Dev_ICM426xx.c ****     {
 2339              		.loc 1 506 9 discriminator 1 view .LVU832
 2340 0540 0DF10702 		add	r2, sp, #7
 2341 0544 1421     		movs	r1, #20
 2342 0546 2046     		mov	r0, r4
 2343 0548 FFF7FEFF 		bl	DevICM426xx_Reg_Read
 2344              	.LVL171:
 505:Device/Dev_ICM426xx.c ****        !DevICM426xx_Reg_Read(sensor_obj, ICM426XX_RA_INT_CONFIG, &read_out))
 2345              		.loc 1 505 164 discriminator 1 view .LVU833
 2346 054c 0028     		cmp	r0, #0
 2347 054e E3D0     		beq	.L135
 512:Device/Dev_ICM426xx.c ****     {
 2348              		.loc 1 512 5 is_stmt 1 view .LVU834
 512:Device/Dev_ICM426xx.c ****     {
 2349              		.loc 1 512 17 is_stmt 0 view .LVU835
 2350 0550 9DF80730 		ldrb	r3, [sp, #7]	@ zero_extendqisi2
 512:Device/Dev_ICM426xx.c ****     {
 2351              		.loc 1 512 7 view .LVU836
 2352 0554 032B     		cmp	r3, #3
 2353 0556 14D0     		beq	.L138
 514:Device/Dev_ICM426xx.c ****                          ICM426XX_INT1_MODE_PULSED | ICM426XX_INT1_DRIVE_CIRCUIT_PP | ICM426XX_INT1
 2354              		.loc 1 514 9 is_stmt 1 view .LVU837
 2355              	.LVL172:
 2356              	.LBB122:
 2357              	.LBI122:
  65:Service/imu_data.h **** {
 2358              		.loc 2 65 13 view .LVU838
 2359              	.LBB123:
  67:Service/imu_data.h ****     {
 2360              		.loc 2 67 5 view .LVU839
  67:Service/imu_data.h ****     {
 2361              		.loc 2 67 7 is_stmt 0 view .LVU840
 2362 0558 14F1240F 		cmn	r4, #36
 2363 055c 0FD0     		beq	.L139
  69:Service/imu_data.h ****         error->function = func;
 2364              		.loc 2 69 9 is_stmt 1 view .LVU841
  69:Service/imu_data.h ****         error->function = func;
 2365              		.loc 2 69 21 is_stmt 0 view .LVU842
 2366 055e 0422     		movs	r2, #4
 2367 0560 84F82420 		strb	r2, [r4, #36]
  70:Service/imu_data.h ****         error->line = line;
 2368              		.loc 2 70 9 is_stmt 1 view .LVU843
  70:Service/imu_data.h ****         error->line = line;
 2369              		.loc 2 70 25 is_stmt 0 view .LVU844
ARM GAS  C:\Users\HUAV\AppData\Local\Temp\ccpgM8up.s 			page 64


 2370 0564 344A     		ldr	r2, .L184
 2371 0566 A262     		str	r2, [r4, #40]
  71:Service/imu_data.h **** 
 2372              		.loc 2 71 9 is_stmt 1 view .LVU845
  71:Service/imu_data.h **** 
 2373              		.loc 2 71 21 is_stmt 0 view .LVU846
 2374 0568 40F20222 		movw	r2, #514
 2375 056c A285     		strh	r2, [r4, #44]	@ movhi
  73:Service/imu_data.h ****         error->reg_r_val = reg_r;
 2376              		.loc 2 73 9 is_stmt 1 view .LVU847
  73:Service/imu_data.h ****         error->reg_r_val = reg_r;
 2377              		.loc 2 73 24 is_stmt 0 view .LVU848
 2378 056e 1422     		movs	r2, #20
 2379 0570 84F82E20 		strb	r2, [r4, #46]
  74:Service/imu_data.h ****         error->reg_t_val = reg_t;
 2380              		.loc 2 74 9 is_stmt 1 view .LVU849
  74:Service/imu_data.h ****         error->reg_t_val = reg_t;
 2381              		.loc 2 74 26 is_stmt 0 view .LVU850
 2382 0574 84F82F30 		strb	r3, [r4, #47]
 2383              		.loc 2 75 9 is_stmt 1 view .LVU851
 2384              		.loc 2 75 26 is_stmt 0 view .LVU852
 2385 0578 0323     		movs	r3, #3
 2386              	.LVL173:
 2387              		.loc 2 75 26 view .LVU853
 2388 057a 84F83030 		strb	r3, [r4, #48]
 2389              	.LVL174:
 2390              	.L139:
 2391              		.loc 2 75 26 view .LVU854
 2392              	.LBE123:
 2393              	.LBE122:
 516:Device/Dev_ICM426xx.c ****     }
 2394              		.loc 1 516 9 is_stmt 1 view .LVU855
 516:Device/Dev_ICM426xx.c ****     }
 2395              		.loc 1 516 16 is_stmt 0 view .LVU856
 2396 057e 0020     		movs	r0, #0
 2397 0580 71E5     		b	.L83
 2398              	.L138:
 519:Device/Dev_ICM426xx.c ****        !DevICM426xx_Reg_Read(sensor_obj, ICM426XX_RA_INT_CONFIG0, &read_out))
 2399              		.loc 1 519 5 is_stmt 1 view .LVU857
 519:Device/Dev_ICM426xx.c ****        !DevICM426xx_Reg_Read(sensor_obj, ICM426XX_RA_INT_CONFIG0, &read_out))
 2400              		.loc 1 519 9 is_stmt 0 view .LVU858
 2401 0582 0022     		movs	r2, #0
 2402 0584 6321     		movs	r1, #99
 2403 0586 2046     		mov	r0, r4
 2404 0588 FFF7FEFF 		bl	DevICM426xx_Reg_Write
 2405              	.LVL175:
 519:Device/Dev_ICM426xx.c ****        !DevICM426xx_Reg_Read(sensor_obj, ICM426XX_RA_INT_CONFIG0, &read_out))
 2406              		.loc 1 519 7 view .LVU859
 2407 058c 30B1     		cbz	r0, .L140
 520:Device/Dev_ICM426xx.c ****     {
 2408              		.loc 1 520 9 discriminator 1 view .LVU860
 2409 058e 0DF10702 		add	r2, sp, #7
 2410 0592 6321     		movs	r1, #99
 2411 0594 2046     		mov	r0, r4
 2412 0596 FFF7FEFF 		bl	DevICM426xx_Reg_Read
 2413              	.LVL176:
 519:Device/Dev_ICM426xx.c ****        !DevICM426xx_Reg_Read(sensor_obj, ICM426XX_RA_INT_CONFIG0, &read_out))
ARM GAS  C:\Users\HUAV\AppData\Local\Temp\ccpgM8up.s 			page 65


 2414              		.loc 1 519 103 discriminator 1 view .LVU861
 2415 059a 98B9     		cbnz	r0, .L141
 2416              	.L140:
 522:Device/Dev_ICM426xx.c ****         return false;
 2417              		.loc 1 522 9 is_stmt 1 view .LVU862
 2418              	.LVL177:
 2419              	.LBB124:
 2420              	.LBI124:
  65:Service/imu_data.h **** {
 2421              		.loc 2 65 13 view .LVU863
 2422              	.LBB125:
  67:Service/imu_data.h ****     {
 2423              		.loc 2 67 5 view .LVU864
  67:Service/imu_data.h ****     {
 2424              		.loc 2 67 7 is_stmt 0 view .LVU865
 2425 059c 14F1240F 		cmn	r4, #36
 2426 05a0 0ED0     		beq	.L142
  69:Service/imu_data.h ****         error->function = func;
 2427              		.loc 2 69 9 is_stmt 1 view .LVU866
  69:Service/imu_data.h ****         error->function = func;
 2428              		.loc 2 69 21 is_stmt 0 view .LVU867
 2429 05a2 0723     		movs	r3, #7
 2430 05a4 84F82430 		strb	r3, [r4, #36]
  70:Service/imu_data.h ****         error->line = line;
 2431              		.loc 2 70 9 is_stmt 1 view .LVU868
  70:Service/imu_data.h ****         error->line = line;
 2432              		.loc 2 70 25 is_stmt 0 view .LVU869
 2433 05a8 234B     		ldr	r3, .L184
 2434 05aa A362     		str	r3, [r4, #40]
  71:Service/imu_data.h **** 
 2435              		.loc 2 71 9 is_stmt 1 view .LVU870
  71:Service/imu_data.h **** 
 2436              		.loc 2 71 21 is_stmt 0 view .LVU871
 2437 05ac 40F20A23 		movw	r3, #522
 2438 05b0 A385     		strh	r3, [r4, #44]	@ movhi
  73:Service/imu_data.h ****         error->reg_r_val = reg_r;
 2439              		.loc 2 73 9 is_stmt 1 view .LVU872
  73:Service/imu_data.h ****         error->reg_r_val = reg_r;
 2440              		.loc 2 73 24 is_stmt 0 view .LVU873
 2441 05b2 0023     		movs	r3, #0
 2442 05b4 84F82E30 		strb	r3, [r4, #46]
  74:Service/imu_data.h ****         error->reg_t_val = reg_t;
 2443              		.loc 2 74 9 is_stmt 1 view .LVU874
  74:Service/imu_data.h ****         error->reg_t_val = reg_t;
 2444              		.loc 2 74 26 is_stmt 0 view .LVU875
 2445 05b8 84F82F30 		strb	r3, [r4, #47]
 2446              		.loc 2 75 9 is_stmt 1 view .LVU876
 2447              		.loc 2 75 26 is_stmt 0 view .LVU877
 2448 05bc 84F83030 		strb	r3, [r4, #48]
 2449              	.L142:
 2450              	.LVL178:
 2451              		.loc 2 75 26 view .LVU878
 2452              	.LBE125:
 2453              	.LBE124:
 523:Device/Dev_ICM426xx.c ****     }
 2454              		.loc 1 523 9 is_stmt 1 view .LVU879
 523:Device/Dev_ICM426xx.c ****     }
ARM GAS  C:\Users\HUAV\AppData\Local\Temp\ccpgM8up.s 			page 66


 2455              		.loc 1 523 16 is_stmt 0 view .LVU880
 2456 05c0 0020     		movs	r0, #0
 2457 05c2 50E5     		b	.L83
 2458              	.L141:
 526:Device/Dev_ICM426xx.c ****     {
 2459              		.loc 1 526 5 is_stmt 1 view .LVU881
 526:Device/Dev_ICM426xx.c ****     {
 2460              		.loc 1 526 17 is_stmt 0 view .LVU882
 2461 05c4 9DF80730 		ldrb	r3, [sp, #7]	@ zero_extendqisi2
 526:Device/Dev_ICM426xx.c ****     {
 2462              		.loc 1 526 7 view .LVU883
 2463 05c8 A3B1     		cbz	r3, .L143
 528:Device/Dev_ICM426xx.c ****         return false;
 2464              		.loc 1 528 9 is_stmt 1 view .LVU884
 2465              	.LVL179:
 2466              	.LBB126:
 2467              	.LBI126:
  65:Service/imu_data.h **** {
 2468              		.loc 2 65 13 view .LVU885
 2469              	.LBB127:
  67:Service/imu_data.h ****     {
 2470              		.loc 2 67 5 view .LVU886
  67:Service/imu_data.h ****     {
 2471              		.loc 2 67 7 is_stmt 0 view .LVU887
 2472 05ca 14F1240F 		cmn	r4, #36
 2473 05ce 0FD0     		beq	.L144
  69:Service/imu_data.h ****         error->function = func;
 2474              		.loc 2 69 9 is_stmt 1 view .LVU888
  69:Service/imu_data.h ****         error->function = func;
 2475              		.loc 2 69 21 is_stmt 0 view .LVU889
 2476 05d0 0422     		movs	r2, #4
 2477 05d2 84F82420 		strb	r2, [r4, #36]
  70:Service/imu_data.h ****         error->line = line;
 2478              		.loc 2 70 9 is_stmt 1 view .LVU890
  70:Service/imu_data.h ****         error->line = line;
 2479              		.loc 2 70 25 is_stmt 0 view .LVU891
 2480 05d6 184A     		ldr	r2, .L184
 2481 05d8 A262     		str	r2, [r4, #40]
  71:Service/imu_data.h **** 
 2482              		.loc 2 71 9 is_stmt 1 view .LVU892
  71:Service/imu_data.h **** 
 2483              		.loc 2 71 21 is_stmt 0 view .LVU893
 2484 05da 4FF40472 		mov	r2, #528
 2485 05de A285     		strh	r2, [r4, #44]	@ movhi
  73:Service/imu_data.h ****         error->reg_r_val = reg_r;
 2486              		.loc 2 73 9 is_stmt 1 view .LVU894
  73:Service/imu_data.h ****         error->reg_r_val = reg_r;
 2487              		.loc 2 73 24 is_stmt 0 view .LVU895
 2488 05e0 6322     		movs	r2, #99
 2489 05e2 84F82E20 		strb	r2, [r4, #46]
  74:Service/imu_data.h ****         error->reg_t_val = reg_t;
 2490              		.loc 2 74 9 is_stmt 1 view .LVU896
  74:Service/imu_data.h ****         error->reg_t_val = reg_t;
 2491              		.loc 2 74 26 is_stmt 0 view .LVU897
 2492 05e6 84F82F30 		strb	r3, [r4, #47]
 2493              		.loc 2 75 9 is_stmt 1 view .LVU898
 2494              		.loc 2 75 26 is_stmt 0 view .LVU899
ARM GAS  C:\Users\HUAV\AppData\Local\Temp\ccpgM8up.s 			page 67


 2495 05ea 0023     		movs	r3, #0
 2496              	.LVL180:
 2497              		.loc 2 75 26 view .LVU900
 2498 05ec 84F83030 		strb	r3, [r4, #48]
 2499              	.LVL181:
 2500              	.L144:
 2501              		.loc 2 75 26 view .LVU901
 2502              	.LBE127:
 2503              	.LBE126:
 529:Device/Dev_ICM426xx.c ****     }
 2504              		.loc 1 529 9 is_stmt 1 view .LVU902
 529:Device/Dev_ICM426xx.c ****     }
 2505              		.loc 1 529 16 is_stmt 0 view .LVU903
 2506 05f0 0020     		movs	r0, #0
 2507 05f2 38E5     		b	.L83
 2508              	.L143:
 532:Device/Dev_ICM426xx.c ****        !DevICM426xx_Reg_Read(sensor_obj, ICM426XX_RA_INT_SOURCE0, &read_out))
 2509              		.loc 1 532 5 is_stmt 1 view .LVU904
 532:Device/Dev_ICM426xx.c ****        !DevICM426xx_Reg_Read(sensor_obj, ICM426XX_RA_INT_SOURCE0, &read_out))
 2510              		.loc 1 532 9 is_stmt 0 view .LVU905
 2511 05f4 0822     		movs	r2, #8
 2512 05f6 6521     		movs	r1, #101
 2513 05f8 2046     		mov	r0, r4
 2514 05fa FFF7FEFF 		bl	DevICM426xx_Reg_Write
 2515              	.LVL182:
 532:Device/Dev_ICM426xx.c ****        !DevICM426xx_Reg_Read(sensor_obj, ICM426XX_RA_INT_SOURCE0, &read_out))
 2516              		.loc 1 532 7 view .LVU906
 2517 05fe 30B1     		cbz	r0, .L145
 533:Device/Dev_ICM426xx.c ****     {
 2518              		.loc 1 533 9 discriminator 1 view .LVU907
 2519 0600 0DF10702 		add	r2, sp, #7
 2520 0604 6521     		movs	r1, #101
 2521 0606 2046     		mov	r0, r4
 2522 0608 FFF7FEFF 		bl	DevICM426xx_Reg_Read
 2523              	.LVL183:
 532:Device/Dev_ICM426xx.c ****        !DevICM426xx_Reg_Read(sensor_obj, ICM426XX_RA_INT_SOURCE0, &read_out))
 2524              		.loc 1 532 102 discriminator 1 view .LVU908
 2525 060c B0B9     		cbnz	r0, .L146
 2526              	.L145:
 535:Device/Dev_ICM426xx.c ****         return false;
 2527              		.loc 1 535 9 is_stmt 1 view .LVU909
 2528              	.LVL184:
 2529              	.LBB128:
 2530              	.LBI128:
  65:Service/imu_data.h **** {
 2531              		.loc 2 65 13 view .LVU910
 2532              	.LBB129:
  67:Service/imu_data.h ****     {
 2533              		.loc 2 67 5 view .LVU911
  67:Service/imu_data.h ****     {
 2534              		.loc 2 67 7 is_stmt 0 view .LVU912
 2535 060e 14F1240F 		cmn	r4, #36
 2536 0612 0ED0     		beq	.L147
  69:Service/imu_data.h ****         error->function = func;
 2537              		.loc 2 69 9 is_stmt 1 view .LVU913
  69:Service/imu_data.h ****         error->function = func;
 2538              		.loc 2 69 21 is_stmt 0 view .LVU914
ARM GAS  C:\Users\HUAV\AppData\Local\Temp\ccpgM8up.s 			page 68


 2539 0614 0723     		movs	r3, #7
 2540 0616 84F82430 		strb	r3, [r4, #36]
  70:Service/imu_data.h ****         error->line = line;
 2541              		.loc 2 70 9 is_stmt 1 view .LVU915
  70:Service/imu_data.h ****         error->line = line;
 2542              		.loc 2 70 25 is_stmt 0 view .LVU916
 2543 061a 074B     		ldr	r3, .L184
 2544 061c A362     		str	r3, [r4, #40]
  71:Service/imu_data.h **** 
 2545              		.loc 2 71 9 is_stmt 1 view .LVU917
  71:Service/imu_data.h **** 
 2546              		.loc 2 71 21 is_stmt 0 view .LVU918
 2547 061e 40F21723 		movw	r3, #535
 2548 0622 A385     		strh	r3, [r4, #44]	@ movhi
  73:Service/imu_data.h ****         error->reg_r_val = reg_r;
 2549              		.loc 2 73 9 is_stmt 1 view .LVU919
  73:Service/imu_data.h ****         error->reg_r_val = reg_r;
 2550              		.loc 2 73 24 is_stmt 0 view .LVU920
 2551 0624 0023     		movs	r3, #0
 2552 0626 84F82E30 		strb	r3, [r4, #46]
  74:Service/imu_data.h ****         error->reg_t_val = reg_t;
 2553              		.loc 2 74 9 is_stmt 1 view .LVU921
  74:Service/imu_data.h ****         error->reg_t_val = reg_t;
 2554              		.loc 2 74 26 is_stmt 0 view .LVU922
 2555 062a 84F82F30 		strb	r3, [r4, #47]
 2556              		.loc 2 75 9 is_stmt 1 view .LVU923
 2557              		.loc 2 75 26 is_stmt 0 view .LVU924
 2558 062e 84F83030 		strb	r3, [r4, #48]
 2559              	.L147:
 2560              	.LVL185:
 2561              		.loc 2 75 26 view .LVU925
 2562              	.LBE129:
 2563              	.LBE128:
 536:Device/Dev_ICM426xx.c ****     }
 2564              		.loc 1 536 9 is_stmt 1 view .LVU926
 536:Device/Dev_ICM426xx.c ****     }
 2565              		.loc 1 536 16 is_stmt 0 view .LVU927
 2566 0632 0020     		movs	r0, #0
 2567 0634 17E5     		b	.L83
 2568              	.L185:
 2569 0636 00BF     		.align	2
 2570              	.L184:
 2571 0638 00000000 		.word	.LANCHOR2
 2572              	.L146:
 539:Device/Dev_ICM426xx.c ****     {
 2573              		.loc 1 539 5 is_stmt 1 view .LVU928
 539:Device/Dev_ICM426xx.c ****     {
 2574              		.loc 1 539 17 is_stmt 0 view .LVU929
 2575 063c 9DF80730 		ldrb	r3, [sp, #7]	@ zero_extendqisi2
 539:Device/Dev_ICM426xx.c ****     {
 2576              		.loc 1 539 7 view .LVU930
 2577 0640 082B     		cmp	r3, #8
 2578 0642 14D0     		beq	.L148
 541:Device/Dev_ICM426xx.c ****         return false;
 2579              		.loc 1 541 9 is_stmt 1 view .LVU931
 2580              	.LVL186:
 2581              	.LBB130:
ARM GAS  C:\Users\HUAV\AppData\Local\Temp\ccpgM8up.s 			page 69


 2582              	.LBI130:
  65:Service/imu_data.h **** {
 2583              		.loc 2 65 13 view .LVU932
 2584              	.LBB131:
  67:Service/imu_data.h ****     {
 2585              		.loc 2 67 5 view .LVU933
  67:Service/imu_data.h ****     {
 2586              		.loc 2 67 7 is_stmt 0 view .LVU934
 2587 0644 14F1240F 		cmn	r4, #36
 2588 0648 0FD0     		beq	.L149
  69:Service/imu_data.h ****         error->function = func;
 2589              		.loc 2 69 9 is_stmt 1 view .LVU935
  69:Service/imu_data.h ****         error->function = func;
 2590              		.loc 2 69 21 is_stmt 0 view .LVU936
 2591 064a 0422     		movs	r2, #4
 2592 064c 84F82420 		strb	r2, [r4, #36]
  70:Service/imu_data.h ****         error->line = line;
 2593              		.loc 2 70 9 is_stmt 1 view .LVU937
  70:Service/imu_data.h ****         error->line = line;
 2594              		.loc 2 70 25 is_stmt 0 view .LVU938
 2595 0650 9D4A     		ldr	r2, .L186
 2596 0652 A262     		str	r2, [r4, #40]
  71:Service/imu_data.h **** 
 2597              		.loc 2 71 9 is_stmt 1 view .LVU939
  71:Service/imu_data.h **** 
 2598              		.loc 2 71 21 is_stmt 0 view .LVU940
 2599 0654 40F21D22 		movw	r2, #541
 2600 0658 A285     		strh	r2, [r4, #44]	@ movhi
  73:Service/imu_data.h ****         error->reg_r_val = reg_r;
 2601              		.loc 2 73 9 is_stmt 1 view .LVU941
  73:Service/imu_data.h ****         error->reg_r_val = reg_r;
 2602              		.loc 2 73 24 is_stmt 0 view .LVU942
 2603 065a 6522     		movs	r2, #101
 2604 065c 84F82E20 		strb	r2, [r4, #46]
  74:Service/imu_data.h ****         error->reg_t_val = reg_t;
 2605              		.loc 2 74 9 is_stmt 1 view .LVU943
  74:Service/imu_data.h ****         error->reg_t_val = reg_t;
 2606              		.loc 2 74 26 is_stmt 0 view .LVU944
 2607 0660 84F82F30 		strb	r3, [r4, #47]
 2608              		.loc 2 75 9 is_stmt 1 view .LVU945
 2609              		.loc 2 75 26 is_stmt 0 view .LVU946
 2610 0664 0823     		movs	r3, #8
 2611              	.LVL187:
 2612              		.loc 2 75 26 view .LVU947
 2613 0666 84F83030 		strb	r3, [r4, #48]
 2614              	.LVL188:
 2615              	.L149:
 2616              		.loc 2 75 26 view .LVU948
 2617              	.LBE131:
 2618              	.LBE130:
 542:Device/Dev_ICM426xx.c ****     }
 2619              		.loc 1 542 9 is_stmt 1 view .LVU949
 542:Device/Dev_ICM426xx.c ****     }
 2620              		.loc 1 542 16 is_stmt 0 view .LVU950
 2621 066a 0020     		movs	r0, #0
 2622 066c FBE4     		b	.L83
 2623              	.L148:
ARM GAS  C:\Users\HUAV\AppData\Local\Temp\ccpgM8up.s 			page 70


 545:Device/Dev_ICM426xx.c ****     {
 2624              		.loc 1 545 5 is_stmt 1 view .LVU951
 545:Device/Dev_ICM426xx.c ****     {
 2625              		.loc 1 545 9 is_stmt 0 view .LVU952
 2626 066e 0DF10602 		add	r2, sp, #6
 2627 0672 6421     		movs	r1, #100
 2628 0674 2046     		mov	r0, r4
 2629 0676 FFF7FEFF 		bl	DevICM426xx_Reg_Read
 2630              	.LVL189:
 545:Device/Dev_ICM426xx.c ****     {
 2631              		.loc 1 545 7 view .LVU953
 2632 067a 98B9     		cbnz	r0, .L150
 547:Device/Dev_ICM426xx.c ****         return false;
 2633              		.loc 1 547 9 is_stmt 1 view .LVU954
 2634              	.LVL190:
 2635              	.LBB132:
 2636              	.LBI132:
  65:Service/imu_data.h **** {
 2637              		.loc 2 65 13 view .LVU955
 2638              	.LBB133:
  67:Service/imu_data.h ****     {
 2639              		.loc 2 67 5 view .LVU956
  67:Service/imu_data.h ****     {
 2640              		.loc 2 67 7 is_stmt 0 view .LVU957
 2641 067c 14F1240F 		cmn	r4, #36
 2642 0680 3FF4F1AC 		beq	.L83
  69:Service/imu_data.h ****         error->function = func;
 2643              		.loc 2 69 9 is_stmt 1 view .LVU958
  69:Service/imu_data.h ****         error->function = func;
 2644              		.loc 2 69 21 is_stmt 0 view .LVU959
 2645 0684 0723     		movs	r3, #7
 2646 0686 84F82430 		strb	r3, [r4, #36]
  70:Service/imu_data.h ****         error->line = line;
 2647              		.loc 2 70 9 is_stmt 1 view .LVU960
  70:Service/imu_data.h ****         error->line = line;
 2648              		.loc 2 70 25 is_stmt 0 view .LVU961
 2649 068a 8F4B     		ldr	r3, .L186
 2650 068c A362     		str	r3, [r4, #40]
  71:Service/imu_data.h **** 
 2651              		.loc 2 71 9 is_stmt 1 view .LVU962
  71:Service/imu_data.h **** 
 2652              		.loc 2 71 21 is_stmt 0 view .LVU963
 2653 068e 40F22323 		movw	r3, #547
 2654 0692 A385     		strh	r3, [r4, #44]	@ movhi
  73:Service/imu_data.h ****         error->reg_r_val = reg_r;
 2655              		.loc 2 73 9 is_stmt 1 view .LVU964
  73:Service/imu_data.h ****         error->reg_r_val = reg_r;
 2656              		.loc 2 73 24 is_stmt 0 view .LVU965
 2657 0694 0023     		movs	r3, #0
 2658 0696 84F82E30 		strb	r3, [r4, #46]
  74:Service/imu_data.h ****         error->reg_t_val = reg_t;
 2659              		.loc 2 74 9 is_stmt 1 view .LVU966
  74:Service/imu_data.h ****         error->reg_t_val = reg_t;
 2660              		.loc 2 74 26 is_stmt 0 view .LVU967
 2661 069a 84F82F30 		strb	r3, [r4, #47]
 2662              		.loc 2 75 9 is_stmt 1 view .LVU968
 2663              		.loc 2 75 26 is_stmt 0 view .LVU969
ARM GAS  C:\Users\HUAV\AppData\Local\Temp\ccpgM8up.s 			page 71


 2664 069e 84F83030 		strb	r3, [r4, #48]
 2665              	.LVL191:
 2666              		.loc 2 75 26 view .LVU970
 2667              	.LBE133:
 2668              	.LBE132:
 548:Device/Dev_ICM426xx.c ****     }
 2669              		.loc 1 548 9 is_stmt 1 view .LVU971
 548:Device/Dev_ICM426xx.c ****     }
 2670              		.loc 1 548 16 is_stmt 0 view .LVU972
 2671 06a2 E0E4     		b	.L83
 2672              	.L150:
 551:Device/Dev_ICM426xx.c ****     intConfig1Value |= (ICM426XX_INT_TPULSE_DURATION_8 | ICM426XX_INT_TDEASSERT_DISABLED);
 2673              		.loc 1 551 5 is_stmt 1 view .LVU973
 551:Device/Dev_ICM426xx.c ****     intConfig1Value |= (ICM426XX_INT_TPULSE_DURATION_8 | ICM426XX_INT_TDEASSERT_DISABLED);
 2674              		.loc 1 551 21 is_stmt 0 view .LVU974
 2675 06a4 9DF80620 		ldrb	r2, [sp, #6]	@ zero_extendqisi2
 2676 06a8 02F0EF02 		and	r2, r2, #239
 2677 06ac 8DF80620 		strb	r2, [sp, #6]
 552:Device/Dev_ICM426xx.c **** 
 2678              		.loc 1 552 5 is_stmt 1 view .LVU975
 552:Device/Dev_ICM426xx.c **** 
 2679              		.loc 1 552 21 is_stmt 0 view .LVU976
 2680 06b0 42F06002 		orr	r2, r2, #96
 2681 06b4 8DF80620 		strb	r2, [sp, #6]
 554:Device/Dev_ICM426xx.c ****        !DevICM426xx_Reg_Read(sensor_obj, ICM426XX_RA_INT_CONFIG1, &read_out))
 2682              		.loc 1 554 5 is_stmt 1 view .LVU977
 554:Device/Dev_ICM426xx.c ****        !DevICM426xx_Reg_Read(sensor_obj, ICM426XX_RA_INT_CONFIG1, &read_out))
 2683              		.loc 1 554 9 is_stmt 0 view .LVU978
 2684 06b8 6421     		movs	r1, #100
 2685 06ba 2046     		mov	r0, r4
 2686 06bc FFF7FEFF 		bl	DevICM426xx_Reg_Write
 2687              	.LVL192:
 554:Device/Dev_ICM426xx.c ****        !DevICM426xx_Reg_Read(sensor_obj, ICM426XX_RA_INT_CONFIG1, &read_out))
 2688              		.loc 1 554 7 view .LVU979
 2689 06c0 30B1     		cbz	r0, .L152
 555:Device/Dev_ICM426xx.c ****     {
 2690              		.loc 1 555 9 discriminator 1 view .LVU980
 2691 06c2 0DF10702 		add	r2, sp, #7
 2692 06c6 6421     		movs	r1, #100
 2693 06c8 2046     		mov	r0, r4
 2694 06ca FFF7FEFF 		bl	DevICM426xx_Reg_Read
 2695              	.LVL193:
 554:Device/Dev_ICM426xx.c ****        !DevICM426xx_Reg_Read(sensor_obj, ICM426XX_RA_INT_CONFIG1, &read_out))
 2696              		.loc 1 554 85 discriminator 1 view .LVU981
 2697 06ce 98B9     		cbnz	r0, .L153
 2698              	.L152:
 557:Device/Dev_ICM426xx.c ****         return false;
 2699              		.loc 1 557 9 is_stmt 1 view .LVU982
 2700              	.LVL194:
 2701              	.LBB134:
 2702              	.LBI134:
  65:Service/imu_data.h **** {
 2703              		.loc 2 65 13 view .LVU983
 2704              	.LBB135:
  67:Service/imu_data.h ****     {
 2705              		.loc 2 67 5 view .LVU984
  67:Service/imu_data.h ****     {
ARM GAS  C:\Users\HUAV\AppData\Local\Temp\ccpgM8up.s 			page 72


 2706              		.loc 2 67 7 is_stmt 0 view .LVU985
 2707 06d0 14F1240F 		cmn	r4, #36
 2708 06d4 0ED0     		beq	.L154
  69:Service/imu_data.h ****         error->function = func;
 2709              		.loc 2 69 9 is_stmt 1 view .LVU986
  69:Service/imu_data.h ****         error->function = func;
 2710              		.loc 2 69 21 is_stmt 0 view .LVU987
 2711 06d6 0723     		movs	r3, #7
 2712 06d8 84F82430 		strb	r3, [r4, #36]
  70:Service/imu_data.h ****         error->line = line;
 2713              		.loc 2 70 9 is_stmt 1 view .LVU988
  70:Service/imu_data.h ****         error->line = line;
 2714              		.loc 2 70 25 is_stmt 0 view .LVU989
 2715 06dc 7A4B     		ldr	r3, .L186
 2716 06de A362     		str	r3, [r4, #40]
  71:Service/imu_data.h **** 
 2717              		.loc 2 71 9 is_stmt 1 view .LVU990
  71:Service/imu_data.h **** 
 2718              		.loc 2 71 21 is_stmt 0 view .LVU991
 2719 06e0 40F22D23 		movw	r3, #557
 2720 06e4 A385     		strh	r3, [r4, #44]	@ movhi
  73:Service/imu_data.h ****         error->reg_r_val = reg_r;
 2721              		.loc 2 73 9 is_stmt 1 view .LVU992
  73:Service/imu_data.h ****         error->reg_r_val = reg_r;
 2722              		.loc 2 73 24 is_stmt 0 view .LVU993
 2723 06e6 0023     		movs	r3, #0
 2724 06e8 84F82E30 		strb	r3, [r4, #46]
  74:Service/imu_data.h ****         error->reg_t_val = reg_t;
 2725              		.loc 2 74 9 is_stmt 1 view .LVU994
  74:Service/imu_data.h ****         error->reg_t_val = reg_t;
 2726              		.loc 2 74 26 is_stmt 0 view .LVU995
 2727 06ec 84F82F30 		strb	r3, [r4, #47]
 2728              		.loc 2 75 9 is_stmt 1 view .LVU996
 2729              		.loc 2 75 26 is_stmt 0 view .LVU997
 2730 06f0 84F83030 		strb	r3, [r4, #48]
 2731              	.L154:
 2732              	.LVL195:
 2733              		.loc 2 75 26 view .LVU998
 2734              	.LBE135:
 2735              	.LBE134:
 558:Device/Dev_ICM426xx.c ****     }
 2736              		.loc 1 558 9 is_stmt 1 view .LVU999
 558:Device/Dev_ICM426xx.c ****     }
 2737              		.loc 1 558 16 is_stmt 0 view .LVU1000
 2738 06f4 0020     		movs	r0, #0
 2739 06f6 B6E4     		b	.L83
 2740              	.L153:
 561:Device/Dev_ICM426xx.c ****     {
 2741              		.loc 1 561 5 is_stmt 1 view .LVU1001
 561:Device/Dev_ICM426xx.c ****     {
 2742              		.loc 1 561 17 is_stmt 0 view .LVU1002
 2743 06f8 9DF80720 		ldrb	r2, [sp, #7]	@ zero_extendqisi2
 2744 06fc 9DF80630 		ldrb	r3, [sp, #6]	@ zero_extendqisi2
 561:Device/Dev_ICM426xx.c ****     {
 2745              		.loc 1 561 7 view .LVU1003
 2746 0700 9A42     		cmp	r2, r3
 2747 0702 13D0     		beq	.L155
ARM GAS  C:\Users\HUAV\AppData\Local\Temp\ccpgM8up.s 			page 73


 563:Device/Dev_ICM426xx.c ****         return false;
 2748              		.loc 1 563 9 is_stmt 1 view .LVU1004
 2749              	.LVL196:
 2750              	.LBB136:
 2751              	.LBI136:
  65:Service/imu_data.h **** {
 2752              		.loc 2 65 13 view .LVU1005
 2753              	.LBB137:
  67:Service/imu_data.h ****     {
 2754              		.loc 2 67 5 view .LVU1006
  67:Service/imu_data.h ****     {
 2755              		.loc 2 67 7 is_stmt 0 view .LVU1007
 2756 0704 14F1240F 		cmn	r4, #36
 2757 0708 0ED0     		beq	.L156
  69:Service/imu_data.h ****         error->function = func;
 2758              		.loc 2 69 9 is_stmt 1 view .LVU1008
  69:Service/imu_data.h ****         error->function = func;
 2759              		.loc 2 69 21 is_stmt 0 view .LVU1009
 2760 070a 0421     		movs	r1, #4
 2761 070c 84F82410 		strb	r1, [r4, #36]
  70:Service/imu_data.h ****         error->line = line;
 2762              		.loc 2 70 9 is_stmt 1 view .LVU1010
  70:Service/imu_data.h ****         error->line = line;
 2763              		.loc 2 70 25 is_stmt 0 view .LVU1011
 2764 0710 6D49     		ldr	r1, .L186
 2765 0712 A162     		str	r1, [r4, #40]
  71:Service/imu_data.h **** 
 2766              		.loc 2 71 9 is_stmt 1 view .LVU1012
  71:Service/imu_data.h **** 
 2767              		.loc 2 71 21 is_stmt 0 view .LVU1013
 2768 0714 40F23321 		movw	r1, #563
 2769 0718 A185     		strh	r1, [r4, #44]	@ movhi
  73:Service/imu_data.h ****         error->reg_r_val = reg_r;
 2770              		.loc 2 73 9 is_stmt 1 view .LVU1014
  73:Service/imu_data.h ****         error->reg_r_val = reg_r;
 2771              		.loc 2 73 24 is_stmt 0 view .LVU1015
 2772 071a 6421     		movs	r1, #100
 2773 071c 84F82E10 		strb	r1, [r4, #46]
  74:Service/imu_data.h ****         error->reg_t_val = reg_t;
 2774              		.loc 2 74 9 is_stmt 1 view .LVU1016
  74:Service/imu_data.h ****         error->reg_t_val = reg_t;
 2775              		.loc 2 74 26 is_stmt 0 view .LVU1017
 2776 0720 84F82F20 		strb	r2, [r4, #47]
 2777              		.loc 2 75 9 is_stmt 1 view .LVU1018
 2778              		.loc 2 75 26 is_stmt 0 view .LVU1019
 2779 0724 84F83030 		strb	r3, [r4, #48]
 2780              	.L156:
 2781              	.LVL197:
 2782              		.loc 2 75 26 view .LVU1020
 2783              	.LBE137:
 2784              	.LBE136:
 564:Device/Dev_ICM426xx.c ****     }
 2785              		.loc 1 564 9 is_stmt 1 view .LVU1021
 564:Device/Dev_ICM426xx.c ****     }
 2786              		.loc 1 564 16 is_stmt 0 view .LVU1022
 2787 0728 0020     		movs	r0, #0
 2788 072a 9CE4     		b	.L83
ARM GAS  C:\Users\HUAV\AppData\Local\Temp\ccpgM8up.s 			page 74


 2789              	.L155:
 568:Device/Dev_ICM426xx.c ****     {
 2790              		.loc 1 568 5 is_stmt 1 view .LVU1023
 568:Device/Dev_ICM426xx.c ****     {
 2791              		.loc 1 568 9 is_stmt 0 view .LVU1024
 2792 072c 2046     		mov	r0, r4
 2793 072e FFF7FEFF 		bl	DevICM426xx_TurnOn_AccGyro
 2794              	.LVL198:
 568:Device/Dev_ICM426xx.c ****     {
 2795              		.loc 1 568 7 view .LVU1025
 2796 0732 98B9     		cbnz	r0, .L157
 570:Device/Dev_ICM426xx.c ****         return false;
 2797              		.loc 1 570 9 is_stmt 1 view .LVU1026
 2798              	.LVL199:
 2799              	.LBB138:
 2800              	.LBI138:
  65:Service/imu_data.h **** {
 2801              		.loc 2 65 13 view .LVU1027
 2802              	.LBB139:
  67:Service/imu_data.h ****     {
 2803              		.loc 2 67 5 view .LVU1028
  67:Service/imu_data.h ****     {
 2804              		.loc 2 67 7 is_stmt 0 view .LVU1029
 2805 0734 14F1240F 		cmn	r4, #36
 2806 0738 3FF495AC 		beq	.L83
  69:Service/imu_data.h ****         error->function = func;
 2807              		.loc 2 69 9 is_stmt 1 view .LVU1030
  69:Service/imu_data.h ****         error->function = func;
 2808              		.loc 2 69 21 is_stmt 0 view .LVU1031
 2809 073c 0D23     		movs	r3, #13
 2810 073e 84F82430 		strb	r3, [r4, #36]
  70:Service/imu_data.h ****         error->line = line;
 2811              		.loc 2 70 9 is_stmt 1 view .LVU1032
  70:Service/imu_data.h ****         error->line = line;
 2812              		.loc 2 70 25 is_stmt 0 view .LVU1033
 2813 0742 614B     		ldr	r3, .L186
 2814 0744 A362     		str	r3, [r4, #40]
  71:Service/imu_data.h **** 
 2815              		.loc 2 71 9 is_stmt 1 view .LVU1034
  71:Service/imu_data.h **** 
 2816              		.loc 2 71 21 is_stmt 0 view .LVU1035
 2817 0746 40F23A23 		movw	r3, #570
 2818 074a A385     		strh	r3, [r4, #44]	@ movhi
  73:Service/imu_data.h ****         error->reg_r_val = reg_r;
 2819              		.loc 2 73 9 is_stmt 1 view .LVU1036
  73:Service/imu_data.h ****         error->reg_r_val = reg_r;
 2820              		.loc 2 73 24 is_stmt 0 view .LVU1037
 2821 074c 0023     		movs	r3, #0
 2822 074e 84F82E30 		strb	r3, [r4, #46]
  74:Service/imu_data.h ****         error->reg_t_val = reg_t;
 2823              		.loc 2 74 9 is_stmt 1 view .LVU1038
  74:Service/imu_data.h ****         error->reg_t_val = reg_t;
 2824              		.loc 2 74 26 is_stmt 0 view .LVU1039
 2825 0752 84F82F30 		strb	r3, [r4, #47]
 2826              		.loc 2 75 9 is_stmt 1 view .LVU1040
 2827              		.loc 2 75 26 is_stmt 0 view .LVU1041
 2828 0756 84F83030 		strb	r3, [r4, #48]
ARM GAS  C:\Users\HUAV\AppData\Local\Temp\ccpgM8up.s 			page 75


 2829              	.LVL200:
 2830              		.loc 2 75 26 view .LVU1042
 2831              	.LBE139:
 2832              	.LBE138:
 571:Device/Dev_ICM426xx.c ****     }
 2833              		.loc 1 571 9 is_stmt 1 view .LVU1043
 571:Device/Dev_ICM426xx.c ****     }
 2834              		.loc 1 571 16 is_stmt 0 view .LVU1044
 2835 075a 84E4     		b	.L83
 2836              	.L157:
 575:Device/Dev_ICM426xx.c ****     {
 2837              		.loc 1 575 5 is_stmt 1 view .LVU1045
 575:Device/Dev_ICM426xx.c ****     {
 2838              		.loc 1 575 9 is_stmt 0 view .LVU1046
 2839 075c E27D     		ldrb	r2, [r4, #23]	@ zero_extendqisi2
 2840 075e 4F21     		movs	r1, #79
 2841 0760 2046     		mov	r0, r4
 2842 0762 FFF7FEFF 		bl	DevICM426xx_Reg_Write
 2843              	.LVL201:
 575:Device/Dev_ICM426xx.c ****     {
 2844              		.loc 1 575 7 view .LVU1047
 2845 0766 98B9     		cbnz	r0, .L159
 577:Device/Dev_ICM426xx.c ****         return false;
 2846              		.loc 1 577 9 is_stmt 1 view .LVU1048
 2847              	.LVL202:
 2848              	.LBB140:
 2849              	.LBI140:
  65:Service/imu_data.h **** {
 2850              		.loc 2 65 13 view .LVU1049
 2851              	.LBB141:
  67:Service/imu_data.h ****     {
 2852              		.loc 2 67 5 view .LVU1050
  67:Service/imu_data.h ****     {
 2853              		.loc 2 67 7 is_stmt 0 view .LVU1051
 2854 0768 14F1240F 		cmn	r4, #36
 2855 076c 3FF47BAC 		beq	.L83
  69:Service/imu_data.h ****         error->function = func;
 2856              		.loc 2 69 9 is_stmt 1 view .LVU1052
  69:Service/imu_data.h ****         error->function = func;
 2857              		.loc 2 69 21 is_stmt 0 view .LVU1053
 2858 0770 0723     		movs	r3, #7
 2859 0772 84F82430 		strb	r3, [r4, #36]
  70:Service/imu_data.h ****         error->line = line;
 2860              		.loc 2 70 9 is_stmt 1 view .LVU1054
  70:Service/imu_data.h ****         error->line = line;
 2861              		.loc 2 70 25 is_stmt 0 view .LVU1055
 2862 0776 544B     		ldr	r3, .L186
 2863 0778 A362     		str	r3, [r4, #40]
  71:Service/imu_data.h **** 
 2864              		.loc 2 71 9 is_stmt 1 view .LVU1056
  71:Service/imu_data.h **** 
 2865              		.loc 2 71 21 is_stmt 0 view .LVU1057
 2866 077a 40F24123 		movw	r3, #577
 2867 077e A385     		strh	r3, [r4, #44]	@ movhi
  73:Service/imu_data.h ****         error->reg_r_val = reg_r;
 2868              		.loc 2 73 9 is_stmt 1 view .LVU1058
  73:Service/imu_data.h ****         error->reg_r_val = reg_r;
ARM GAS  C:\Users\HUAV\AppData\Local\Temp\ccpgM8up.s 			page 76


 2869              		.loc 2 73 24 is_stmt 0 view .LVU1059
 2870 0780 0023     		movs	r3, #0
 2871 0782 84F82E30 		strb	r3, [r4, #46]
  74:Service/imu_data.h ****         error->reg_t_val = reg_t;
 2872              		.loc 2 74 9 is_stmt 1 view .LVU1060
  74:Service/imu_data.h ****         error->reg_t_val = reg_t;
 2873              		.loc 2 74 26 is_stmt 0 view .LVU1061
 2874 0786 84F82F30 		strb	r3, [r4, #47]
 2875              		.loc 2 75 9 is_stmt 1 view .LVU1062
 2876              		.loc 2 75 26 is_stmt 0 view .LVU1063
 2877 078a 84F83030 		strb	r3, [r4, #48]
 2878              	.LVL203:
 2879              		.loc 2 75 26 view .LVU1064
 2880              	.LBE141:
 2881              	.LBE140:
 578:Device/Dev_ICM426xx.c ****     }
 2882              		.loc 1 578 9 is_stmt 1 view .LVU1065
 578:Device/Dev_ICM426xx.c ****     }
 2883              		.loc 1 578 16 is_stmt 0 view .LVU1066
 2884 078e 6AE4     		b	.L83
 2885              	.L159:
 580:Device/Dev_ICM426xx.c **** 
 2886              		.loc 1 580 5 is_stmt 1 view .LVU1067
 580:Device/Dev_ICM426xx.c **** 
 2887              		.loc 1 580 15 is_stmt 0 view .LVU1068
 2888 0790 E368     		ldr	r3, [r4, #12]
 580:Device/Dev_ICM426xx.c **** 
 2889              		.loc 1 580 5 view .LVU1069
 2890 0792 0F20     		movs	r0, #15
 2891 0794 9847     		blx	r3
 2892              	.LVL204:
 582:Device/Dev_ICM426xx.c ****     {
 2893              		.loc 1 582 5 is_stmt 1 view .LVU1070
 582:Device/Dev_ICM426xx.c ****     {
 2894              		.loc 1 582 9 is_stmt 0 view .LVU1071
 2895 0796 0DF10702 		add	r2, sp, #7
 2896 079a 4F21     		movs	r1, #79
 2897 079c 2046     		mov	r0, r4
 2898 079e FFF7FEFF 		bl	DevICM426xx_Reg_Read
 2899              	.LVL205:
 582:Device/Dev_ICM426xx.c ****     {
 2900              		.loc 1 582 7 view .LVU1072
 2901 07a2 98B9     		cbnz	r0, .L161
 584:Device/Dev_ICM426xx.c ****         return false;
 2902              		.loc 1 584 9 is_stmt 1 view .LVU1073
 2903              	.LVL206:
 2904              	.LBB142:
 2905              	.LBI142:
  65:Service/imu_data.h **** {
 2906              		.loc 2 65 13 view .LVU1074
 2907              	.LBB143:
  67:Service/imu_data.h ****     {
 2908              		.loc 2 67 5 view .LVU1075
  67:Service/imu_data.h ****     {
 2909              		.loc 2 67 7 is_stmt 0 view .LVU1076
 2910 07a4 14F1240F 		cmn	r4, #36
 2911 07a8 3FF45DAC 		beq	.L83
ARM GAS  C:\Users\HUAV\AppData\Local\Temp\ccpgM8up.s 			page 77


  69:Service/imu_data.h ****         error->function = func;
 2912              		.loc 2 69 9 is_stmt 1 view .LVU1077
  69:Service/imu_data.h ****         error->function = func;
 2913              		.loc 2 69 21 is_stmt 0 view .LVU1078
 2914 07ac 0723     		movs	r3, #7
 2915 07ae 84F82430 		strb	r3, [r4, #36]
  70:Service/imu_data.h ****         error->line = line;
 2916              		.loc 2 70 9 is_stmt 1 view .LVU1079
  70:Service/imu_data.h ****         error->line = line;
 2917              		.loc 2 70 25 is_stmt 0 view .LVU1080
 2918 07b2 454B     		ldr	r3, .L186
 2919 07b4 A362     		str	r3, [r4, #40]
  71:Service/imu_data.h **** 
 2920              		.loc 2 71 9 is_stmt 1 view .LVU1081
  71:Service/imu_data.h **** 
 2921              		.loc 2 71 21 is_stmt 0 view .LVU1082
 2922 07b6 4FF41273 		mov	r3, #584
 2923 07ba A385     		strh	r3, [r4, #44]	@ movhi
  73:Service/imu_data.h ****         error->reg_r_val = reg_r;
 2924              		.loc 2 73 9 is_stmt 1 view .LVU1083
  73:Service/imu_data.h ****         error->reg_r_val = reg_r;
 2925              		.loc 2 73 24 is_stmt 0 view .LVU1084
 2926 07bc 0023     		movs	r3, #0
 2927 07be 84F82E30 		strb	r3, [r4, #46]
  74:Service/imu_data.h ****         error->reg_t_val = reg_t;
 2928              		.loc 2 74 9 is_stmt 1 view .LVU1085
  74:Service/imu_data.h ****         error->reg_t_val = reg_t;
 2929              		.loc 2 74 26 is_stmt 0 view .LVU1086
 2930 07c2 84F82F30 		strb	r3, [r4, #47]
 2931              		.loc 2 75 9 is_stmt 1 view .LVU1087
 2932              		.loc 2 75 26 is_stmt 0 view .LVU1088
 2933 07c6 84F83030 		strb	r3, [r4, #48]
 2934              	.LVL207:
 2935              		.loc 2 75 26 view .LVU1089
 2936              	.LBE143:
 2937              	.LBE142:
 585:Device/Dev_ICM426xx.c ****     }
 2938              		.loc 1 585 9 is_stmt 1 view .LVU1090
 585:Device/Dev_ICM426xx.c ****     }
 2939              		.loc 1 585 16 is_stmt 0 view .LVU1091
 2940 07ca 4CE4     		b	.L83
 2941              	.L161:
 588:Device/Dev_ICM426xx.c ****     {
 2942              		.loc 1 588 5 is_stmt 1 view .LVU1092
 588:Device/Dev_ICM426xx.c ****     {
 2943              		.loc 1 588 30 is_stmt 0 view .LVU1093
 2944 07cc E37D     		ldrb	r3, [r4, #23]	@ zero_extendqisi2
 588:Device/Dev_ICM426xx.c ****     {
 2945              		.loc 1 588 17 view .LVU1094
 2946 07ce 9DF80720 		ldrb	r2, [sp, #7]	@ zero_extendqisi2
 588:Device/Dev_ICM426xx.c ****     {
 2947              		.loc 1 588 7 view .LVU1095
 2948 07d2 9342     		cmp	r3, r2
 2949 07d4 13D0     		beq	.L163
 590:Device/Dev_ICM426xx.c ****         return false;
 2950              		.loc 1 590 9 is_stmt 1 view .LVU1096
 2951              	.LVL208:
ARM GAS  C:\Users\HUAV\AppData\Local\Temp\ccpgM8up.s 			page 78


 2952              	.LBB144:
 2953              	.LBI144:
  65:Service/imu_data.h **** {
 2954              		.loc 2 65 13 view .LVU1097
 2955              	.LBB145:
  67:Service/imu_data.h ****     {
 2956              		.loc 2 67 5 view .LVU1098
  67:Service/imu_data.h ****     {
 2957              		.loc 2 67 7 is_stmt 0 view .LVU1099
 2958 07d6 14F1240F 		cmn	r4, #36
 2959 07da 0ED0     		beq	.L164
  69:Service/imu_data.h ****         error->function = func;
 2960              		.loc 2 69 9 is_stmt 1 view .LVU1100
  69:Service/imu_data.h ****         error->function = func;
 2961              		.loc 2 69 21 is_stmt 0 view .LVU1101
 2962 07dc 0B21     		movs	r1, #11
 2963 07de 84F82410 		strb	r1, [r4, #36]
  70:Service/imu_data.h ****         error->line = line;
 2964              		.loc 2 70 9 is_stmt 1 view .LVU1102
  70:Service/imu_data.h ****         error->line = line;
 2965              		.loc 2 70 25 is_stmt 0 view .LVU1103
 2966 07e2 3949     		ldr	r1, .L186
 2967 07e4 A162     		str	r1, [r4, #40]
  71:Service/imu_data.h **** 
 2968              		.loc 2 71 9 is_stmt 1 view .LVU1104
  71:Service/imu_data.h **** 
 2969              		.loc 2 71 21 is_stmt 0 view .LVU1105
 2970 07e6 40F24E21 		movw	r1, #590
 2971 07ea A185     		strh	r1, [r4, #44]	@ movhi
  73:Service/imu_data.h ****         error->reg_r_val = reg_r;
 2972              		.loc 2 73 9 is_stmt 1 view .LVU1106
  73:Service/imu_data.h ****         error->reg_r_val = reg_r;
 2973              		.loc 2 73 24 is_stmt 0 view .LVU1107
 2974 07ec 4F21     		movs	r1, #79
 2975 07ee 84F82E10 		strb	r1, [r4, #46]
  74:Service/imu_data.h ****         error->reg_t_val = reg_t;
 2976              		.loc 2 74 9 is_stmt 1 view .LVU1108
  74:Service/imu_data.h ****         error->reg_t_val = reg_t;
 2977              		.loc 2 74 26 is_stmt 0 view .LVU1109
 2978 07f2 84F82F20 		strb	r2, [r4, #47]
 2979              		.loc 2 75 9 is_stmt 1 view .LVU1110
 2980              		.loc 2 75 26 is_stmt 0 view .LVU1111
 2981 07f6 84F83030 		strb	r3, [r4, #48]
 2982              	.L164:
 2983              	.LVL209:
 2984              		.loc 2 75 26 view .LVU1112
 2985              	.LBE145:
 2986              	.LBE144:
 591:Device/Dev_ICM426xx.c ****     }
 2987              		.loc 1 591 9 is_stmt 1 view .LVU1113
 591:Device/Dev_ICM426xx.c ****     }
 2988              		.loc 1 591 16 is_stmt 0 view .LVU1114
 2989 07fa 0020     		movs	r0, #0
 2990 07fc 33E4     		b	.L83
 2991              	.L163:
 594:Device/Dev_ICM426xx.c ****     {
 2992              		.loc 1 594 5 is_stmt 1 view .LVU1115
ARM GAS  C:\Users\HUAV\AppData\Local\Temp\ccpgM8up.s 			page 79


 594:Device/Dev_ICM426xx.c ****     {
 2993              		.loc 1 594 9 is_stmt 0 view .LVU1116
 2994 07fe A27D     		ldrb	r2, [r4, #22]	@ zero_extendqisi2
 2995 0800 5021     		movs	r1, #80
 2996 0802 2046     		mov	r0, r4
 2997 0804 FFF7FEFF 		bl	DevICM426xx_Reg_Write
 2998              	.LVL210:
 594:Device/Dev_ICM426xx.c ****     {
 2999              		.loc 1 594 7 view .LVU1117
 3000 0808 98B9     		cbnz	r0, .L165
 596:Device/Dev_ICM426xx.c **** 
 3001              		.loc 1 596 9 is_stmt 1 view .LVU1118
 3002              	.LVL211:
 3003              	.LBB146:
 3004              	.LBI146:
  65:Service/imu_data.h **** {
 3005              		.loc 2 65 13 view .LVU1119
 3006              	.LBB147:
  67:Service/imu_data.h ****     {
 3007              		.loc 2 67 5 view .LVU1120
  67:Service/imu_data.h ****     {
 3008              		.loc 2 67 7 is_stmt 0 view .LVU1121
 3009 080a 14F1240F 		cmn	r4, #36
 3010 080e 3FF42AAC 		beq	.L83
  69:Service/imu_data.h ****         error->function = func;
 3011              		.loc 2 69 9 is_stmt 1 view .LVU1122
  69:Service/imu_data.h ****         error->function = func;
 3012              		.loc 2 69 21 is_stmt 0 view .LVU1123
 3013 0812 0723     		movs	r3, #7
 3014 0814 84F82430 		strb	r3, [r4, #36]
  70:Service/imu_data.h ****         error->line = line;
 3015              		.loc 2 70 9 is_stmt 1 view .LVU1124
  70:Service/imu_data.h ****         error->line = line;
 3016              		.loc 2 70 25 is_stmt 0 view .LVU1125
 3017 0818 2B4B     		ldr	r3, .L186
 3018 081a A362     		str	r3, [r4, #40]
  71:Service/imu_data.h **** 
 3019              		.loc 2 71 9 is_stmt 1 view .LVU1126
  71:Service/imu_data.h **** 
 3020              		.loc 2 71 21 is_stmt 0 view .LVU1127
 3021 081c 4FF41573 		mov	r3, #596
 3022 0820 A385     		strh	r3, [r4, #44]	@ movhi
  73:Service/imu_data.h ****         error->reg_r_val = reg_r;
 3023              		.loc 2 73 9 is_stmt 1 view .LVU1128
  73:Service/imu_data.h ****         error->reg_r_val = reg_r;
 3024              		.loc 2 73 24 is_stmt 0 view .LVU1129
 3025 0822 0023     		movs	r3, #0
 3026 0824 84F82E30 		strb	r3, [r4, #46]
  74:Service/imu_data.h ****         error->reg_t_val = reg_t;
 3027              		.loc 2 74 9 is_stmt 1 view .LVU1130
  74:Service/imu_data.h ****         error->reg_t_val = reg_t;
 3028              		.loc 2 74 26 is_stmt 0 view .LVU1131
 3029 0828 84F82F30 		strb	r3, [r4, #47]
 3030              		.loc 2 75 9 is_stmt 1 view .LVU1132
 3031              		.loc 2 75 26 is_stmt 0 view .LVU1133
 3032 082c 84F83030 		strb	r3, [r4, #48]
 3033              	.LVL212:
ARM GAS  C:\Users\HUAV\AppData\Local\Temp\ccpgM8up.s 			page 80


 3034              		.loc 2 75 26 view .LVU1134
 3035              	.LBE147:
 3036              	.LBE146:
 598:Device/Dev_ICM426xx.c ****     }
 3037              		.loc 1 598 9 is_stmt 1 view .LVU1135
 598:Device/Dev_ICM426xx.c ****     }
 3038              		.loc 1 598 16 is_stmt 0 view .LVU1136
 3039 0830 19E4     		b	.L83
 3040              	.L165:
 600:Device/Dev_ICM426xx.c **** 
 3041              		.loc 1 600 5 is_stmt 1 view .LVU1137
 600:Device/Dev_ICM426xx.c **** 
 3042              		.loc 1 600 15 is_stmt 0 view .LVU1138
 3043 0832 E368     		ldr	r3, [r4, #12]
 600:Device/Dev_ICM426xx.c **** 
 3044              		.loc 1 600 5 view .LVU1139
 3045 0834 0F20     		movs	r0, #15
 3046 0836 9847     		blx	r3
 3047              	.LVL213:
 602:Device/Dev_ICM426xx.c ****     {
 3048              		.loc 1 602 5 is_stmt 1 view .LVU1140
 602:Device/Dev_ICM426xx.c ****     {
 3049              		.loc 1 602 9 is_stmt 0 view .LVU1141
 3050 0838 0DF10702 		add	r2, sp, #7
 3051 083c 5021     		movs	r1, #80
 3052 083e 2046     		mov	r0, r4
 3053 0840 FFF7FEFF 		bl	DevICM426xx_Reg_Read
 3054              	.LVL214:
 602:Device/Dev_ICM426xx.c ****     {
 3055              		.loc 1 602 7 view .LVU1142
 3056 0844 A0B9     		cbnz	r0, .L167
 604:Device/Dev_ICM426xx.c ****         return false;
 3057              		.loc 1 604 9 is_stmt 1 view .LVU1143
 3058              	.LVL215:
 3059              	.LBB148:
 3060              	.LBI148:
  65:Service/imu_data.h **** {
 3061              		.loc 2 65 13 view .LVU1144
 3062              	.LBB149:
  67:Service/imu_data.h ****     {
 3063              		.loc 2 67 5 view .LVU1145
  67:Service/imu_data.h ****     {
 3064              		.loc 2 67 7 is_stmt 0 view .LVU1146
 3065 0846 14F1240F 		cmn	r4, #36
 3066 084a 3FF40CAC 		beq	.L83
  69:Service/imu_data.h ****         error->function = func;
 3067              		.loc 2 69 9 is_stmt 1 view .LVU1147
  69:Service/imu_data.h ****         error->function = func;
 3068              		.loc 2 69 21 is_stmt 0 view .LVU1148
 3069 084e 0723     		movs	r3, #7
 3070 0850 84F82430 		strb	r3, [r4, #36]
  70:Service/imu_data.h ****         error->line = line;
 3071              		.loc 2 70 9 is_stmt 1 view .LVU1149
  70:Service/imu_data.h ****         error->line = line;
 3072              		.loc 2 70 25 is_stmt 0 view .LVU1150
 3073 0854 1C4B     		ldr	r3, .L186
 3074 0856 A362     		str	r3, [r4, #40]
ARM GAS  C:\Users\HUAV\AppData\Local\Temp\ccpgM8up.s 			page 81


  71:Service/imu_data.h **** 
 3075              		.loc 2 71 9 is_stmt 1 view .LVU1151
  71:Service/imu_data.h **** 
 3076              		.loc 2 71 21 is_stmt 0 view .LVU1152
 3077 0858 4FF41773 		mov	r3, #604
 3078 085c A385     		strh	r3, [r4, #44]	@ movhi
  73:Service/imu_data.h ****         error->reg_r_val = reg_r;
 3079              		.loc 2 73 9 is_stmt 1 view .LVU1153
  73:Service/imu_data.h ****         error->reg_r_val = reg_r;
 3080              		.loc 2 73 24 is_stmt 0 view .LVU1154
 3081 085e 0023     		movs	r3, #0
 3082 0860 84F82E30 		strb	r3, [r4, #46]
  74:Service/imu_data.h ****         error->reg_t_val = reg_t;
 3083              		.loc 2 74 9 is_stmt 1 view .LVU1155
  74:Service/imu_data.h ****         error->reg_t_val = reg_t;
 3084              		.loc 2 74 26 is_stmt 0 view .LVU1156
 3085 0864 84F82F30 		strb	r3, [r4, #47]
 3086              		.loc 2 75 9 is_stmt 1 view .LVU1157
 3087              		.loc 2 75 26 is_stmt 0 view .LVU1158
 3088 0868 84F83030 		strb	r3, [r4, #48]
 3089              	.LVL216:
 3090              		.loc 2 75 26 view .LVU1159
 3091              	.LBE149:
 3092              	.LBE148:
 605:Device/Dev_ICM426xx.c ****     }
 3093              		.loc 1 605 9 is_stmt 1 view .LVU1160
 605:Device/Dev_ICM426xx.c ****     }
 3094              		.loc 1 605 16 is_stmt 0 view .LVU1161
 3095 086c FFF7FBBB 		b	.L83
 3096              	.L167:
 608:Device/Dev_ICM426xx.c ****     {
 3097              		.loc 1 608 5 is_stmt 1 view .LVU1162
 608:Device/Dev_ICM426xx.c ****     {
 3098              		.loc 1 608 30 is_stmt 0 view .LVU1163
 3099 0870 A37D     		ldrb	r3, [r4, #22]	@ zero_extendqisi2
 608:Device/Dev_ICM426xx.c ****     {
 3100              		.loc 1 608 17 view .LVU1164
 3101 0872 9DF80720 		ldrb	r2, [sp, #7]	@ zero_extendqisi2
 608:Device/Dev_ICM426xx.c ****     {
 3102              		.loc 1 608 7 view .LVU1165
 3103 0876 9342     		cmp	r3, r2
 3104 0878 14D0     		beq	.L169
 610:Device/Dev_ICM426xx.c ****         return false;
 3105              		.loc 1 610 9 is_stmt 1 view .LVU1166
 3106              	.LVL217:
 3107              	.LBB150:
 3108              	.LBI150:
  65:Service/imu_data.h **** {
 3109              		.loc 2 65 13 view .LVU1167
 3110              	.LBB151:
  67:Service/imu_data.h ****     {
 3111              		.loc 2 67 5 view .LVU1168
  67:Service/imu_data.h ****     {
 3112              		.loc 2 67 7 is_stmt 0 view .LVU1169
 3113 087a 14F1240F 		cmn	r4, #36
 3114 087e 0ED0     		beq	.L170
  69:Service/imu_data.h ****         error->function = func;
ARM GAS  C:\Users\HUAV\AppData\Local\Temp\ccpgM8up.s 			page 82


 3115              		.loc 2 69 9 is_stmt 1 view .LVU1170
  69:Service/imu_data.h ****         error->function = func;
 3116              		.loc 2 69 21 is_stmt 0 view .LVU1171
 3117 0880 0A21     		movs	r1, #10
 3118 0882 84F82410 		strb	r1, [r4, #36]
  70:Service/imu_data.h ****         error->line = line;
 3119              		.loc 2 70 9 is_stmt 1 view .LVU1172
  70:Service/imu_data.h ****         error->line = line;
 3120              		.loc 2 70 25 is_stmt 0 view .LVU1173
 3121 0886 1049     		ldr	r1, .L186
 3122 0888 A162     		str	r1, [r4, #40]
  71:Service/imu_data.h **** 
 3123              		.loc 2 71 9 is_stmt 1 view .LVU1174
  71:Service/imu_data.h **** 
 3124              		.loc 2 71 21 is_stmt 0 view .LVU1175
 3125 088a 40F26221 		movw	r1, #610
 3126 088e A185     		strh	r1, [r4, #44]	@ movhi
  73:Service/imu_data.h ****         error->reg_r_val = reg_r;
 3127              		.loc 2 73 9 is_stmt 1 view .LVU1176
  73:Service/imu_data.h ****         error->reg_r_val = reg_r;
 3128              		.loc 2 73 24 is_stmt 0 view .LVU1177
 3129 0890 5021     		movs	r1, #80
 3130 0892 84F82E10 		strb	r1, [r4, #46]
  74:Service/imu_data.h ****         error->reg_t_val = reg_t;
 3131              		.loc 2 74 9 is_stmt 1 view .LVU1178
  74:Service/imu_data.h ****         error->reg_t_val = reg_t;
 3132              		.loc 2 74 26 is_stmt 0 view .LVU1179
 3133 0896 84F82F20 		strb	r2, [r4, #47]
 3134              		.loc 2 75 9 is_stmt 1 view .LVU1180
 3135              		.loc 2 75 26 is_stmt 0 view .LVU1181
 3136 089a 84F83030 		strb	r3, [r4, #48]
 3137              	.L170:
 3138              	.LVL218:
 3139              		.loc 2 75 26 view .LVU1182
 3140              	.LBE151:
 3141              	.LBE150:
 611:Device/Dev_ICM426xx.c ****     }
 3142              		.loc 1 611 9 is_stmt 1 view .LVU1183
 611:Device/Dev_ICM426xx.c ****     }
 3143              		.loc 1 611 16 is_stmt 0 view .LVU1184
 3144 089e 0020     		movs	r0, #0
 3145 08a0 FFF7E1BB 		b	.L83
 3146              	.L169:
 614:Device/Dev_ICM426xx.c ****     return true;
 3147              		.loc 1 614 5 is_stmt 1 view .LVU1185
 3148              	.LVL219:
 3149              	.LBB152:
 3150              	.LBI152:
  65:Service/imu_data.h **** {
 3151              		.loc 2 65 13 view .LVU1186
 3152              	.LBB153:
  67:Service/imu_data.h ****     {
 3153              		.loc 2 67 5 view .LVU1187
  67:Service/imu_data.h ****     {
 3154              		.loc 2 67 7 is_stmt 0 view .LVU1188
 3155 08a4 14F1240F 		cmn	r4, #36
 3156 08a8 3FF4DDAB 		beq	.L83
ARM GAS  C:\Users\HUAV\AppData\Local\Temp\ccpgM8up.s 			page 83


  69:Service/imu_data.h ****         error->function = func;
 3157              		.loc 2 69 9 is_stmt 1 view .LVU1189
  69:Service/imu_data.h ****         error->function = func;
 3158              		.loc 2 69 21 is_stmt 0 view .LVU1190
 3159 08ac 0023     		movs	r3, #0
 3160 08ae 84F82430 		strb	r3, [r4, #36]
  70:Service/imu_data.h ****         error->line = line;
 3161              		.loc 2 70 9 is_stmt 1 view .LVU1191
  70:Service/imu_data.h ****         error->line = line;
 3162              		.loc 2 70 25 is_stmt 0 view .LVU1192
 3163 08b2 064A     		ldr	r2, .L186+4
 3164 08b4 A262     		str	r2, [r4, #40]
  71:Service/imu_data.h **** 
 3165              		.loc 2 71 9 is_stmt 1 view .LVU1193
  71:Service/imu_data.h **** 
 3166              		.loc 2 71 21 is_stmt 0 view .LVU1194
 3167 08b6 A385     		strh	r3, [r4, #44]	@ movhi
  73:Service/imu_data.h ****         error->reg_r_val = reg_r;
 3168              		.loc 2 73 9 is_stmt 1 view .LVU1195
  73:Service/imu_data.h ****         error->reg_r_val = reg_r;
 3169              		.loc 2 73 24 is_stmt 0 view .LVU1196
 3170 08b8 84F82E30 		strb	r3, [r4, #46]
  74:Service/imu_data.h ****         error->reg_t_val = reg_t;
 3171              		.loc 2 74 9 is_stmt 1 view .LVU1197
  74:Service/imu_data.h ****         error->reg_t_val = reg_t;
 3172              		.loc 2 74 26 is_stmt 0 view .LVU1198
 3173 08bc 84F82F30 		strb	r3, [r4, #47]
 3174              		.loc 2 75 9 is_stmt 1 view .LVU1199
 3175              		.loc 2 75 26 is_stmt 0 view .LVU1200
 3176 08c0 84F83030 		strb	r3, [r4, #48]
 3177 08c4 FFF7CFBB 		b	.L83
 3178              	.L187:
 3179              		.align	2
 3180              	.L186:
 3181 08c8 00000000 		.word	.LANCHOR2
 3182 08cc 00000000 		.word	.LC0
 3183              	.LBE153:
 3184              	.LBE152:
 3185              		.cfi_endproc
 3186              	.LFE10:
 3188              		.section	.text.DevICM426xx_Sample,"ax",%progbits
 3189              		.align	1
 3190              		.syntax unified
 3191              		.thumb
 3192              		.thumb_func
 3193              		.fpu fpv5-d16
 3195              	DevICM426xx_Sample:
 3196              	.LVL220:
 3197              	.LFB11:
 617:Device/Dev_ICM426xx.c **** 
 618:Device/Dev_ICM426xx.c **** static bool DevICM426xx_Sample(DevICM426xxObj_TypeDef *sensor_obj)
 619:Device/Dev_ICM426xx.c **** {
 3198              		.loc 1 619 1 is_stmt 1 view -0
 3199              		.cfi_startproc
 3200              		@ args = 0, pretend = 0, frame = 32
 3201              		@ frame_needed = 0, uses_anonymous_args = 0
 3202              		.loc 1 619 1 is_stmt 0 view .LVU1202
ARM GAS  C:\Users\HUAV\AppData\Local\Temp\ccpgM8up.s 			page 84


 3203 0000 F0B5     		push	{r4, r5, r6, r7, lr}
 3204              	.LCFI35:
 3205              		.cfi_def_cfa_offset 20
 3206              		.cfi_offset 4, -20
 3207              		.cfi_offset 5, -16
 3208              		.cfi_offset 6, -12
 3209              		.cfi_offset 7, -8
 3210              		.cfi_offset 14, -4
 3211 0002 8BB0     		sub	sp, sp, #44
 3212              	.LCFI36:
 3213              		.cfi_def_cfa_offset 64
 620:Device/Dev_ICM426xx.c ****     uint8_t Acc_Tx[6] = {0};
 3214              		.loc 1 620 5 is_stmt 1 view .LVU1203
 3215              		.loc 1 620 13 is_stmt 0 view .LVU1204
 3216 0004 0023     		movs	r3, #0
 3217 0006 0893     		str	r3, [sp, #32]
 3218 0008 ADF82430 		strh	r3, [sp, #36]	@ movhi
 621:Device/Dev_ICM426xx.c ****     uint8_t Gyr_Tx[6] = {0};
 3219              		.loc 1 621 5 is_stmt 1 view .LVU1205
 3220              		.loc 1 621 13 is_stmt 0 view .LVU1206
 3221 000c 0693     		str	r3, [sp, #24]
 3222 000e ADF81C30 		strh	r3, [sp, #28]	@ movhi
 622:Device/Dev_ICM426xx.c ****     uint8_t Rx[12] = {0};
 3223              		.loc 1 622 5 is_stmt 1 view .LVU1207
 3224              		.loc 1 622 13 is_stmt 0 view .LVU1208
 3225 0012 0393     		str	r3, [sp, #12]
 3226 0014 0493     		str	r3, [sp, #16]
 3227 0016 0593     		str	r3, [sp, #20]
 623:Device/Dev_ICM426xx.c **** 
 624:Device/Dev_ICM426xx.c ****     if ((sensor_obj->error.code == ICM426xx_No_Error) && (sensor_obj->drdy))
 3228              		.loc 1 624 5 is_stmt 1 view .LVU1209
 3229              		.loc 1 624 27 is_stmt 0 view .LVU1210
 3230 0018 90F82450 		ldrb	r5, [r0, #36]	@ zero_extendqisi2
 3231              		.loc 1 624 8 view .LVU1211
 3232 001c 002D     		cmp	r5, #0
 3233 001e 6ED1     		bne	.L192
 3234 0020 0446     		mov	r4, r0
 3235              		.loc 1 624 69 discriminator 1 view .LVU1212
 3236 0022 067D     		ldrb	r6, [r0, #20]	@ zero_extendqisi2
 3237              		.loc 1 624 55 discriminator 1 view .LVU1213
 3238 0024 002E     		cmp	r6, #0
 3239 0026 6BD0     		beq	.L189
 625:Device/Dev_ICM426xx.c ****     {
 626:Device/Dev_ICM426xx.c ****         sensor_obj->OriData.time_stamp = sensor_obj->get_timestamp();
 3240              		.loc 1 626 9 is_stmt 1 view .LVU1214
 3241              		.loc 1 626 52 is_stmt 0 view .LVU1215
 3242 0028 0369     		ldr	r3, [r0, #16]
 3243              		.loc 1 626 42 view .LVU1216
 3244 002a 9847     		blx	r3
 3245              	.LVL221:
 3246              		.loc 1 626 40 view .LVU1217
 3247 002c C4F83500 		str	r0, [r4, #53]	@ unaligned
 3248 0030 C4F83910 		str	r1, [r4, #57]	@ unaligned
 627:Device/Dev_ICM426xx.c **** 
 628:Device/Dev_ICM426xx.c ****         DevICM426xx_Regs_Read(sensor_obj, ICM426XX_RA_ACCEL_DATA_X1, Acc_Tx, Rx, 6);
 3249              		.loc 1 628 9 is_stmt 1 view .LVU1218
 3250 0034 0627     		movs	r7, #6
ARM GAS  C:\Users\HUAV\AppData\Local\Temp\ccpgM8up.s 			page 85


 3251 0036 0097     		str	r7, [sp]
 3252 0038 03AB     		add	r3, sp, #12
 3253 003a 08AA     		add	r2, sp, #32
 3254 003c 1F21     		movs	r1, #31
 3255 003e 2046     		mov	r0, r4
 3256 0040 FFF7FEFF 		bl	DevICM426xx_Regs_Read
 3257              	.LVL222:
 629:Device/Dev_ICM426xx.c ****         DevICM426xx_Regs_Read(sensor_obj, ICM426XX_RA_GYRO_DATA_X1, Gyr_Tx, (Rx + 6), 6);
 3258              		.loc 1 629 9 view .LVU1219
 3259 0044 0097     		str	r7, [sp]
 3260 0046 0DF11203 		add	r3, sp, #18
 3261 004a 06AA     		add	r2, sp, #24
 3262 004c 2521     		movs	r1, #37
 3263 004e 2046     		mov	r0, r4
 3264 0050 FFF7FEFF 		bl	DevICM426xx_Regs_Read
 3265              	.LVL223:
 630:Device/Dev_ICM426xx.c **** 
 631:Device/Dev_ICM426xx.c ****         for (uint8_t axis = Axis_X; axis < Axis_Sum; axis++)
 3266              		.loc 1 631 9 view .LVU1220
 3267              	.LBB154:
 3268              		.loc 1 631 14 view .LVU1221
 3269              		.loc 1 631 9 is_stmt 0 view .LVU1222
 3270 0054 48E0     		b	.L190
 3271              	.LVL224:
 3272              	.L191:
 632:Device/Dev_ICM426xx.c ****         {
 633:Device/Dev_ICM426xx.c ****             sensor_obj->OriData.acc_int[axis] = (int16_t)((Rx[axis * 2] << 8) | Rx[axis * 2 + 1]);
 3273              		.loc 1 633 13 is_stmt 1 discriminator 3 view .LVU1223
 3274              		.loc 1 633 68 is_stmt 0 discriminator 3 view .LVU1224
 3275 0056 6B00     		lsls	r3, r5, #1
 3276              		.loc 1 633 62 discriminator 3 view .LVU1225
 3277 0058 0AAA     		add	r2, sp, #40
 3278 005a 02EB4502 		add	r2, r2, r5, lsl #1
 3279 005e 12F81C0C 		ldrb	r0, [r2, #-28]	@ zero_extendqisi2
 3280              		.loc 1 633 93 discriminator 3 view .LVU1226
 3281 0062 591C     		adds	r1, r3, #1
 3282              		.loc 1 633 83 discriminator 3 view .LVU1227
 3283 0064 0AAA     		add	r2, sp, #40
 3284 0066 1144     		add	r1, r1, r2
 3285 0068 11F81C2C 		ldrb	r2, [r1, #-28]	@ zero_extendqisi2
 3286              		.loc 1 633 49 discriminator 3 view .LVU1228
 3287 006c 42EA0022 		orr	r2, r2, r0, lsl #8
 3288 0070 11B2     		sxth	r1, r2
 3289 0072 07EE101A 		vmov	s14, r1	@ int
 3290              		.loc 1 633 47 discriminator 3 view .LVU1229
 3291 0076 05F12401 		add	r1, r5, #36
 3292 007a 04EB4101 		add	r1, r4, r1, lsl #1
 3293 007e A1F80520 		strh	r2, [r1, #5]	@ unaligned
 634:Device/Dev_ICM426xx.c ****             sensor_obj->OriData.gyr_int[axis] = (int16_t)((Rx[axis * 2 + 6] << 8) | Rx[axis * 2 + 7
 3294              		.loc 1 634 13 is_stmt 1 discriminator 3 view .LVU1230
 3295              		.loc 1 634 72 is_stmt 0 discriminator 3 view .LVU1231
 3296 0082 EA1C     		adds	r2, r5, #3
 3297              		.loc 1 634 62 discriminator 3 view .LVU1232
 3298 0084 0AA9     		add	r1, sp, #40
 3299 0086 01EB4202 		add	r2, r1, r2, lsl #1
 3300 008a 12F81C2C 		ldrb	r2, [r2, #-28]	@ zero_extendqisi2
 3301              		.loc 1 634 97 discriminator 3 view .LVU1233
ARM GAS  C:\Users\HUAV\AppData\Local\Temp\ccpgM8up.s 			page 86


 3302 008e 0733     		adds	r3, r3, #7
 3303              		.loc 1 634 87 discriminator 3 view .LVU1234
 3304 0090 0B44     		add	r3, r3, r1
 3305 0092 13F81C3C 		ldrb	r3, [r3, #-28]	@ zero_extendqisi2
 3306              		.loc 1 634 49 discriminator 3 view .LVU1235
 3307 0096 43EA0223 		orr	r3, r3, r2, lsl #8
 3308 009a 1AB2     		sxth	r2, r3
 3309 009c 07EE902A 		vmov	s15, r2	@ int
 3310              		.loc 1 634 47 discriminator 3 view .LVU1236
 3311 00a0 05F12002 		add	r2, r5, #32
 3312 00a4 04EB4202 		add	r2, r4, r2, lsl #1
 3313 00a8 A2F80730 		strh	r3, [r2, #7]	@ unaligned
 635:Device/Dev_ICM426xx.c **** 
 636:Device/Dev_ICM426xx.c ****             /* convert int data to float */
 637:Device/Dev_ICM426xx.c ****             sensor_obj->OriData.acc_flt[axis] = ((float)sensor_obj->OriData.acc_int[axis] / sensor_
 3314              		.loc 1 637 13 is_stmt 1 discriminator 3 view .LVU1237
 3315              		.loc 1 637 50 is_stmt 0 discriminator 3 view .LVU1238
 3316 00ac B8EEC77A 		vcvt.f32.s32	s14, s14
 3317              		.loc 1 637 103 discriminator 3 view .LVU1239
 3318 00b0 D4ED076A 		vldr.32	s13, [r4, #28]
 3319              		.loc 1 637 47 discriminator 3 view .LVU1240
 3320 00b4 05F11603 		add	r3, r5, #22
 3321 00b8 04EB8303 		add	r3, r4, r3, lsl #2
 3322 00bc 87EE267A 		vdiv.f32	s14, s14, s13
 3323 00c0 17EE102A 		vmov	r2, s14
 3324 00c4 C3F80B20 		str	r2, [r3, #11]	@ unaligned
 638:Device/Dev_ICM426xx.c ****             sensor_obj->OriData.gyr_flt[axis] = ((float)sensor_obj->OriData.gyr_int[axis] / sensor_
 3325              		.loc 1 638 13 is_stmt 1 discriminator 3 view .LVU1241
 3326              		.loc 1 638 50 is_stmt 0 discriminator 3 view .LVU1242
 3327 00c8 F8EEE77A 		vcvt.f32.s32	s15, s15
 3328              		.loc 1 638 103 discriminator 3 view .LVU1243
 3329 00cc 94ED087A 		vldr.32	s14, [r4, #32]
 3330              		.loc 1 638 47 discriminator 3 view .LVU1244
 3331 00d0 05F11403 		add	r3, r5, #20
 3332 00d4 04EB8303 		add	r3, r4, r3, lsl #2
 3333 00d8 C7EE877A 		vdiv.f32	s15, s15, s14
 3334 00dc 17EE902A 		vmov	r2, s15
 3335 00e0 C3F80720 		str	r2, [r3, #7]	@ unaligned
 631:Device/Dev_ICM426xx.c ****         {
 3336              		.loc 1 631 54 is_stmt 1 discriminator 3 view .LVU1245
 631:Device/Dev_ICM426xx.c ****         {
 3337              		.loc 1 631 58 is_stmt 0 discriminator 3 view .LVU1246
 3338 00e4 0135     		adds	r5, r5, #1
 3339              	.LVL225:
 631:Device/Dev_ICM426xx.c ****         {
 3340              		.loc 1 631 58 discriminator 3 view .LVU1247
 3341 00e6 EDB2     		uxtb	r5, r5
 3342              	.LVL226:
 3343              	.L190:
 631:Device/Dev_ICM426xx.c ****         {
 3344              		.loc 1 631 37 is_stmt 1 discriminator 1 view .LVU1248
 631:Device/Dev_ICM426xx.c ****         {
 3345              		.loc 1 631 9 is_stmt 0 discriminator 1 view .LVU1249
 3346 00e8 022D     		cmp	r5, #2
 3347 00ea B4D9     		bls	.L191
 3348              	.LBE154:
 639:Device/Dev_ICM426xx.c ****         }
ARM GAS  C:\Users\HUAV\AppData\Local\Temp\ccpgM8up.s 			page 87


 640:Device/Dev_ICM426xx.c **** 
 641:Device/Dev_ICM426xx.c ****         sensor_obj->OriData.time_stamp = sensor_obj->get_timestamp();
 3349              		.loc 1 641 9 is_stmt 1 view .LVU1250
 3350              		.loc 1 641 52 is_stmt 0 view .LVU1251
 3351 00ec 2369     		ldr	r3, [r4, #16]
 3352              		.loc 1 641 42 view .LVU1252
 3353 00ee 9847     		blx	r3
 3354              	.LVL227:
 3355              		.loc 1 641 40 view .LVU1253
 3356 00f0 C4F83500 		str	r0, [r4, #53]	@ unaligned
 3357 00f4 C4F83910 		str	r1, [r4, #57]	@ unaligned
 642:Device/Dev_ICM426xx.c ****         sensor_obj->drdy = false;
 3358              		.loc 1 642 9 is_stmt 1 view .LVU1254
 3359              		.loc 1 642 26 is_stmt 0 view .LVU1255
 3360 00f8 0023     		movs	r3, #0
 3361 00fa 2375     		strb	r3, [r4, #20]
 643:Device/Dev_ICM426xx.c ****         return true;
 3362              		.loc 1 643 9 is_stmt 1 view .LVU1256
 3363              		.loc 1 643 16 is_stmt 0 view .LVU1257
 3364 00fc 00E0     		b	.L189
 3365              	.LVL228:
 3366              	.L192:
 644:Device/Dev_ICM426xx.c ****     }
 645:Device/Dev_ICM426xx.c **** 
 646:Device/Dev_ICM426xx.c ****     return false;
 3367              		.loc 1 646 12 view .LVU1258
 3368 00fe 0026     		movs	r6, #0
 3369              	.LVL229:
 3370              	.L189:
 647:Device/Dev_ICM426xx.c **** }
 3371              		.loc 1 647 1 view .LVU1259
 3372 0100 3046     		mov	r0, r6
 3373 0102 0BB0     		add	sp, sp, #44
 3374              	.LCFI37:
 3375              		.cfi_def_cfa_offset 20
 3376              		@ sp needed
 3377 0104 F0BD     		pop	{r4, r5, r6, r7, pc}
 3378              		.cfi_endproc
 3379              	.LFE11:
 3381              		.section	.text.DevICM426xx_SetDRDY,"ax",%progbits
 3382              		.align	1
 3383              		.syntax unified
 3384              		.thumb
 3385              		.thumb_func
 3386              		.fpu fpv5-d16
 3388              	DevICM426xx_SetDRDY:
 3389              	.LVL230:
 3390              	.LFB12:
 648:Device/Dev_ICM426xx.c **** 
 649:Device/Dev_ICM426xx.c **** static void DevICM426xx_SetDRDY(DevICM426xxObj_TypeDef *sensor_obj)
 650:Device/Dev_ICM426xx.c **** {
 3391              		.loc 1 650 1 is_stmt 1 view -0
 3392              		.cfi_startproc
 3393              		@ args = 0, pretend = 0, frame = 0
 3394              		@ frame_needed = 0, uses_anonymous_args = 0
 3395              		@ link register save eliminated.
 651:Device/Dev_ICM426xx.c ****     if(sensor_obj)
ARM GAS  C:\Users\HUAV\AppData\Local\Temp\ccpgM8up.s 			page 88


 3396              		.loc 1 651 5 view .LVU1261
 3397              		.loc 1 651 7 is_stmt 0 view .LVU1262
 3398 0000 08B1     		cbz	r0, .L194
 652:Device/Dev_ICM426xx.c ****         sensor_obj->drdy = true;
 3399              		.loc 1 652 9 is_stmt 1 view .LVU1263
 3400              		.loc 1 652 26 is_stmt 0 view .LVU1264
 3401 0002 0122     		movs	r2, #1
 3402 0004 0275     		strb	r2, [r0, #20]
 3403              	.L194:
 653:Device/Dev_ICM426xx.c **** }
 3404              		.loc 1 653 1 view .LVU1265
 3405 0006 7047     		bx	lr
 3406              		.cfi_endproc
 3407              	.LFE12:
 3409              		.section	.text.DevICM426xx_GetDRDY,"ax",%progbits
 3410              		.align	1
 3411              		.syntax unified
 3412              		.thumb
 3413              		.thumb_func
 3414              		.fpu fpv5-d16
 3416              	DevICM426xx_GetDRDY:
 3417              	.LVL231:
 3418              	.LFB13:
 654:Device/Dev_ICM426xx.c **** 
 655:Device/Dev_ICM426xx.c **** static bool DevICM426xx_GetDRDY(DevICM426xxObj_TypeDef *sensor_obj)
 656:Device/Dev_ICM426xx.c **** {
 3419              		.loc 1 656 1 is_stmt 1 view -0
 3420              		.cfi_startproc
 3421              		@ args = 0, pretend = 0, frame = 0
 3422              		@ frame_needed = 0, uses_anonymous_args = 0
 3423              		@ link register save eliminated.
 657:Device/Dev_ICM426xx.c ****     if(!sensor_obj)
 3424              		.loc 1 657 5 view .LVU1267
 3425              		.loc 1 657 7 is_stmt 0 view .LVU1268
 3426 0000 08B1     		cbz	r0, .L198
 658:Device/Dev_ICM426xx.c ****         return false;
 659:Device/Dev_ICM426xx.c ****     
 660:Device/Dev_ICM426xx.c ****     return sensor_obj->drdy;
 3427              		.loc 1 660 5 is_stmt 1 view .LVU1269
 3428              		.loc 1 660 22 is_stmt 0 view .LVU1270
 3429 0002 007D     		ldrb	r0, [r0, #20]	@ zero_extendqisi2
 3430              	.LVL232:
 3431              		.loc 1 660 22 view .LVU1271
 3432 0004 7047     		bx	lr
 3433              	.LVL233:
 3434              	.L198:
 658:Device/Dev_ICM426xx.c ****         return false;
 3435              		.loc 1 658 16 view .LVU1272
 3436 0006 0020     		movs	r0, #0
 3437              	.LVL234:
 661:Device/Dev_ICM426xx.c **** }
 3438              		.loc 1 661 1 view .LVU1273
 3439 0008 7047     		bx	lr
 3440              		.cfi_endproc
 3441              	.LFE13:
 3443              		.section	.text.DevICM426xx_GetError,"ax",%progbits
 3444              		.align	1
ARM GAS  C:\Users\HUAV\AppData\Local\Temp\ccpgM8up.s 			page 89


 3445              		.syntax unified
 3446              		.thumb
 3447              		.thumb_func
 3448              		.fpu fpv5-d16
 3450              	DevICM426xx_GetError:
 3451              	.LVL235:
 3452              	.LFB14:
 662:Device/Dev_ICM426xx.c **** 
 663:Device/Dev_ICM426xx.c **** static IMU_Error_TypeDef DevICM426xx_GetError(DevICM426xxObj_TypeDef *sensor_obj)
 664:Device/Dev_ICM426xx.c **** {
 3453              		.loc 1 664 1 is_stmt 1 view -0
 3454              		.cfi_startproc
 3455              		@ args = 0, pretend = 0, frame = 0
 3456              		@ frame_needed = 0, uses_anonymous_args = 0
 3457              		@ link register save eliminated.
 3458              		.loc 1 664 1 is_stmt 0 view .LVU1275
 3459 0000 8446     		mov	ip, r0
 665:Device/Dev_ICM426xx.c ****     return sensor_obj->error;
 3460              		.loc 1 665 5 is_stmt 1 view .LVU1276
 3461              		.loc 1 665 22 is_stmt 0 view .LVU1277
 3462 0002 2431     		adds	r1, r1, #36
 3463              	.LVL236:
 3464              		.loc 1 665 22 view .LVU1278
 3465 0004 0FC9     		ldm	r1, {r0, r1, r2, r3}
 3466              	.LVL237:
 3467              		.loc 1 665 22 view .LVU1279
 3468 0006 8CE80F00 		stm	ip, {r0, r1, r2, r3}
 666:Device/Dev_ICM426xx.c **** }
 3469              		.loc 1 666 1 view .LVU1280
 3470 000a 6046     		mov	r0, ip
 3471 000c 7047     		bx	lr
 3472              		.cfi_endproc
 3473              	.LFE14:
 3475              		.section	.text.DevICM426xx_Get_Scale,"ax",%progbits
 3476              		.align	1
 3477              		.syntax unified
 3478              		.thumb
 3479              		.thumb_func
 3480              		.fpu fpv5-d16
 3482              	DevICM426xx_Get_Scale:
 3483              	.LVL238:
 3484              	.LFB16:
 667:Device/Dev_ICM426xx.c **** 
 668:Device/Dev_ICM426xx.c **** static IMUData_TypeDef DevICM426xx_Get_Data(DevICM426xxObj_TypeDef *sensor_obj)
 669:Device/Dev_ICM426xx.c **** {
 670:Device/Dev_ICM426xx.c ****     IMUData_TypeDef tmp;
 671:Device/Dev_ICM426xx.c **** 
 672:Device/Dev_ICM426xx.c ****     memset(&tmp, NULL, sizeof(tmp));
 673:Device/Dev_ICM426xx.c ****     if (sensor_obj->error.code == ICM426xx_No_Error)
 674:Device/Dev_ICM426xx.c ****         return sensor_obj->OriData;
 675:Device/Dev_ICM426xx.c **** 
 676:Device/Dev_ICM426xx.c ****     return tmp;
 677:Device/Dev_ICM426xx.c **** }
 678:Device/Dev_ICM426xx.c **** 
 679:Device/Dev_ICM426xx.c **** static IMUModuleScale_TypeDef DevICM426xx_Get_Scale(const DevICM426xxObj_TypeDef *sensor_obj)
 680:Device/Dev_ICM426xx.c **** {
 3485              		.loc 1 680 1 is_stmt 1 view -0
ARM GAS  C:\Users\HUAV\AppData\Local\Temp\ccpgM8up.s 			page 90


 3486              		.cfi_startproc
 3487              		@ args = 0, pretend = 0, frame = 24
 3488              		@ frame_needed = 0, uses_anonymous_args = 0
 3489              		@ link register save eliminated.
 3490              		.loc 1 680 1 is_stmt 0 view .LVU1282
 3491 0000 86B0     		sub	sp, sp, #24
 3492              	.LCFI38:
 3493              		.cfi_def_cfa_offset 24
 681:Device/Dev_ICM426xx.c ****     IMUModuleScale_TypeDef scale_tmp;
 3494              		.loc 1 681 5 is_stmt 1 view .LVU1283
 682:Device/Dev_ICM426xx.c **** 
 683:Device/Dev_ICM426xx.c ****     scale_tmp.acc_scale = sensor_obj->acc_scale;
 3495              		.loc 1 683 5 view .LVU1284
 3496              		.loc 1 683 37 is_stmt 0 view .LVU1285
 3497 0002 C369     		ldr	r3, [r0, #28]	@ float
 3498              		.loc 1 683 25 view .LVU1286
 3499 0004 0293     		str	r3, [sp, #8]	@ float
 684:Device/Dev_ICM426xx.c ****     scale_tmp.gyr_scale = sensor_obj->gyr_scale;
 3500              		.loc 1 684 5 is_stmt 1 view .LVU1287
 3501              		.loc 1 684 37 is_stmt 0 view .LVU1288
 3502 0006 036A     		ldr	r3, [r0, #32]	@ float
 3503              		.loc 1 684 25 view .LVU1289
 3504 0008 0393     		str	r3, [sp, #12]	@ float
 685:Device/Dev_ICM426xx.c **** 
 686:Device/Dev_ICM426xx.c ****     return scale_tmp;
 3505              		.loc 1 686 5 is_stmt 1 view .LVU1290
 3506              		.loc 1 686 12 is_stmt 0 view .LVU1291
 3507 000a 02AB     		add	r3, sp, #8
 3508 000c 93E80300 		ldm	r3, {r0, r1}
 3509              	.LVL239:
 3510              		.loc 1 686 12 view .LVU1292
 3511 0010 06AB     		add	r3, sp, #24
 3512 0012 03E90300 		stmdb	r3, {r0, r1}
 687:Device/Dev_ICM426xx.c **** }
 3513              		.loc 1 687 1 view .LVU1293
 3514 0016 9DED040A 		vldr.32	s0, [sp, #16]
 3515 001a DDED050A 		vldr.32	s1, [sp, #20]
 3516 001e 06B0     		add	sp, sp, #24
 3517              	.LCFI39:
 3518              		.cfi_def_cfa_offset 0
 3519              		@ sp needed
 3520 0020 7047     		bx	lr
 3521              		.cfi_endproc
 3522              	.LFE16:
 3524              		.section	.text.DevICM426xx_Get_Specified_AngularSpeed_Diff,"ax",%progbits
 3525              		.align	1
 3526              		.syntax unified
 3527              		.thumb
 3528              		.thumb_func
 3529              		.fpu fpv5-d16
 3531              	DevICM426xx_Get_Specified_AngularSpeed_Diff:
 3532              	.LVL240:
 3533              	.LFB17:
 688:Device/Dev_ICM426xx.c **** 
 689:Device/Dev_ICM426xx.c **** /* specified anguler speed per millsecond */
 690:Device/Dev_ICM426xx.c **** static float DevICM426xx_Get_Specified_AngularSpeed_Diff(const DevICM426xxObj_TypeDef *sensor_obj)
 691:Device/Dev_ICM426xx.c **** {
ARM GAS  C:\Users\HUAV\AppData\Local\Temp\ccpgM8up.s 			page 91


 3534              		.loc 1 691 1 is_stmt 1 view -0
 3535              		.cfi_startproc
 3536              		@ args = 0, pretend = 0, frame = 0
 3537              		@ frame_needed = 0, uses_anonymous_args = 0
 3538              		@ link register save eliminated.
 692:Device/Dev_ICM426xx.c ****     return sensor_obj->PHY_GyrTrip_Val / 1000.0f;
 3539              		.loc 1 692 5 view .LVU1295
 3540              		.loc 1 692 22 is_stmt 0 view .LVU1296
 3541 0000 438B     		ldrh	r3, [r0, #26]
 3542 0002 07EE903A 		vmov	s15, r3	@ int
 3543              		.loc 1 692 40 view .LVU1297
 3544 0006 F8EEE77A 		vcvt.f32.s32	s15, s15
 693:Device/Dev_ICM426xx.c **** }
 3545              		.loc 1 693 1 view .LVU1298
 3546 000a 9FED020A 		vldr.32	s0, .L203
 3547 000e 87EE800A 		vdiv.f32	s0, s15, s0
 3548 0012 7047     		bx	lr
 3549              	.L204:
 3550              		.align	2
 3551              	.L203:
 3552 0014 00007A44 		.word	1148846080
 3553              		.cfi_endproc
 3554              	.LFE17:
 3556              		.section	.text.DevICM426xx_Get_Data,"ax",%progbits
 3557              		.align	1
 3558              		.syntax unified
 3559              		.thumb
 3560              		.thumb_func
 3561              		.fpu fpv5-d16
 3563              	DevICM426xx_Get_Data:
 3564              	.LVL241:
 3565              	.LFB15:
 669:Device/Dev_ICM426xx.c ****     IMUData_TypeDef tmp;
 3566              		.loc 1 669 1 is_stmt 1 view -0
 3567              		.cfi_startproc
 3568              		@ args = 0, pretend = 0, frame = 80
