ARM GAS  /var/folders/lx/hc4sn_b53233_zkc9xbbl97r0000gp/T//ccXB4rr3.s 			page 1


   1              		.cpu cortex-m7
   2              		.eabi_attribute 28, 1
   3              		.eabi_attribute 20, 1
   4              		.eabi_attribute 21, 1
   5              		.eabi_attribute 23, 3
   6              		.eabi_attribute 24, 1
   7              		.eabi_attribute 25, 1
   8              		.eabi_attribute 26, 1
   9              		.eabi_attribute 30, 1
  10              		.eabi_attribute 34, 1
  11              		.eabi_attribute 18, 4
  12              		.file	"Dev_Led.c"
  13              		.text
  14              	.Ltext0:
  15              		.cfi_sections	.debug_frame
  16              		.section	.text.DevLed_Init,"ax",%progbits
  17              		.align	1
  18              		.arch armv7e-m
  19              		.syntax unified
  20              		.thumb
  21              		.thumb_func
  22              		.fpu fpv5-d16
  24              	DevLed_Init:
  25              	.LFB144:
  26              		.file 1 "Device/Dev_Led.c"
   1:Device/Dev_Led.c **** #include "Dev_Led.h"
   2:Device/Dev_Led.c **** #include "Bsp_GPIO.h"
   3:Device/Dev_Led.c **** 
   4:Device/Dev_Led.c **** DevLed_TypeDef DevLED;
   5:Device/Dev_Led.c **** 
   6:Device/Dev_Led.c **** static bool DevLed_Init(DevLedObj_TypeDef LedObj);
   7:Device/Dev_Led.c **** static bool DevLed_Ctl(DevLedObj_TypeDef LedObj, bool state);
   8:Device/Dev_Led.c **** 
   9:Device/Dev_Led.c **** DevLed_TypeDef DevLED = {
  10:Device/Dev_Led.c ****     .init = DevLed_Init,
  11:Device/Dev_Led.c ****     .ctl = DevLed_Ctl,
  12:Device/Dev_Led.c **** };
  13:Device/Dev_Led.c **** 
  14:Device/Dev_Led.c **** static bool DevLed_Init(DevLedObj_TypeDef LedObj)
  15:Device/Dev_Led.c **** {
  27              		.loc 1 15 1 view -0
  28              		.cfi_startproc
  29              		@ args = 0, pretend = 0, frame = 40
  30              		@ frame_needed = 0, uses_anonymous_args = 0
  31 0000 10B5     		push	{r4, lr}
  32              	.LCFI0:
  33              		.cfi_def_cfa_offset 8
  34              		.cfi_offset 4, -8
  35              		.cfi_offset 14, -4
  36 0002 8EB0     		sub	sp, sp, #56
  37              	.LCFI1:
  38              		.cfi_def_cfa_offset 64
  39 0004 04AB     		add	r3, sp, #16
  40 0006 83E80300 		stm	r3, {r0, r1}
  16:Device/Dev_Led.c ****     BspGPIO_Obj_TypeDef LedIO_init_Cfg;
  41              		.loc 1 16 5 view .LVU1
  17:Device/Dev_Led.c **** 
ARM GAS  /var/folders/lx/hc4sn_b53233_zkc9xbbl97r0000gp/T//ccXB4rr3.s 			page 2


  18:Device/Dev_Led.c ****     if (BspGPIO.init == NULL)
  42              		.loc 1 18 5 view .LVU2
  43              		.loc 1 18 16 is_stmt 0 view .LVU3
  44 000a 174B     		ldr	r3, .L5
  45 000c 1C68     		ldr	r4, [r3]
  46              		.loc 1 18 8 view .LVU4
  47 000e 44B3     		cbz	r4, .L3
  19:Device/Dev_Led.c ****         return false;
  20:Device/Dev_Led.c **** 
  21:Device/Dev_Led.c ****     LedIO_init_Cfg.pin = LedObj.pin;
  48              		.loc 1 21 5 is_stmt 1 view .LVU5
  49              		.loc 1 21 32 is_stmt 0 view .LVU6
  50 0010 BDF81430 		ldrh	r3, [sp, #20]
  51              		.loc 1 21 24 view .LVU7
  52 0014 ADF82030 		strh	r3, [sp, #32]	@ movhi
  22:Device/Dev_Led.c ****     LedIO_init_Cfg.port = LedObj.port;
  53              		.loc 1 22 5 is_stmt 1 view .LVU8
  54              		.loc 1 22 25 is_stmt 0 view .LVU9
  55 0018 0790     		str	r0, [sp, #28]
  23:Device/Dev_Led.c ****     LedIO_init_Cfg.init_state = LedObj.default_state;
  56              		.loc 1 23 5 is_stmt 1 view .LVU10
  57              		.loc 1 23 39 is_stmt 0 view .LVU11
  58 001a 9DF81620 		ldrb	r2, [sp, #22]	@ zero_extendqisi2
  59              		.loc 1 23 31 view .LVU12
  60 001e 8DF83620 		strb	r2, [sp, #54]
  24:Device/Dev_Led.c ****     LedIO_init_Cfg.cfg_structure.Pin = LedObj.pin;
  61              		.loc 1 24 5 is_stmt 1 view .LVU13
  62              		.loc 1 24 38 is_stmt 0 view .LVU14
  63 0022 CDF82230 		str	r3, [sp, #34]	@ unaligned
  25:Device/Dev_Led.c ****     LedIO_init_Cfg.cfg_structure.Mode = GPIO_MODE_OUTPUT_PP;
  64              		.loc 1 25 5 is_stmt 1 view .LVU15
  65              		.loc 1 25 39 is_stmt 0 view .LVU16
  66 0026 0023     		movs	r3, #0
  67 0028 0122     		movs	r2, #1
  68 002a ADF82620 		strh	r2, [sp, #38]	@ movhi
  69 002e ADF82830 		strh	r3, [sp, #40]	@ movhi
  26:Device/Dev_Led.c ****     LedIO_init_Cfg.cfg_structure.Pull = GPIO_NOPULL;
  70              		.loc 1 26 5 is_stmt 1 view .LVU17
  71              		.loc 1 26 39 is_stmt 0 view .LVU18
  72 0032 ADF82A30 		strh	r3, [sp, #42]	@ movhi
  73 0036 ADF82C30 		strh	r3, [sp, #44]	@ movhi
  27:Device/Dev_Led.c ****     LedIO_init_Cfg.cfg_structure.Speed = GPIO_SPEED_FREQ_HIGH;
  74              		.loc 1 27 5 is_stmt 1 view .LVU19
  75              		.loc 1 27 40 is_stmt 0 view .LVU20
  76 003a 0222     		movs	r2, #2
  77 003c ADF82E20 		strh	r2, [sp, #46]	@ movhi
  78 0040 ADF83030 		strh	r3, [sp, #48]	@ movhi
  28:Device/Dev_Led.c **** 
  29:Device/Dev_Led.c ****     BspGPIO.init(LedIO_init_Cfg);
  79              		.loc 1 29 5 is_stmt 1 view .LVU21
  80 0044 6B46     		mov	r3, sp
  81 0046 0EAA     		add	r2, sp, #56
  82 0048 12E90700 		ldmdb	r2, {r0, r1, r2}
  83 004c 03C3     		stmia	r3!, {r0, r1}
  84 004e 23F8022B 		strh	r2, [r3], #2	@ movhi
  85 0052 120C     		lsrs	r2, r2, #16
  86 0054 1A70     		strb	r2, [r3]
ARM GAS  /var/folders/lx/hc4sn_b53233_zkc9xbbl97r0000gp/T//ccXB4rr3.s 			page 3


  87 0056 07AB     		add	r3, sp, #28
  88 0058 0FCB     		ldm	r3, {r0, r1, r2, r3}
  89 005a A047     		blx	r4
  90              	.LVL0:
  30:Device/Dev_Led.c **** 
  31:Device/Dev_Led.c ****     return true;
  91              		.loc 1 31 5 view .LVU22
  92              		.loc 1 31 12 is_stmt 0 view .LVU23
  93 005c 0120     		movs	r0, #1
  94              	.L2:
  32:Device/Dev_Led.c **** }
  95              		.loc 1 32 1 view .LVU24
  96 005e 0EB0     		add	sp, sp, #56
  97              	.LCFI2:
  98              		.cfi_remember_state
  99              		.cfi_def_cfa_offset 8
 100              		@ sp needed
 101 0060 10BD     		pop	{r4, pc}
 102              	.L3:
 103              	.LCFI3:
 104              		.cfi_restore_state
  19:Device/Dev_Led.c **** 
 105              		.loc 1 19 16 view .LVU25
 106 0062 0020     		movs	r0, #0
 107 0064 FBE7     		b	.L2
 108              	.L6:
 109 0066 00BF     		.align	2
 110              	.L5:
 111 0068 00000000 		.word	BspGPIO
 112              		.cfi_endproc
 113              	.LFE144:
 115              		.section	.text.DevLed_Ctl,"ax",%progbits
 116              		.align	1
 117              		.syntax unified
 118              		.thumb
 119              		.thumb_func
 120              		.fpu fpv5-d16
 122              	DevLed_Ctl:
 123              	.LVL1:
 124              	.LFB145:
  33:Device/Dev_Led.c **** 
  34:Device/Dev_Led.c **** static bool DevLed_Ctl(DevLedObj_TypeDef LedObj, bool state)
  35:Device/Dev_Led.c **** {
 125              		.loc 1 35 1 is_stmt 1 view -0
 126              		.cfi_startproc
 127              		@ args = 0, pretend = 0, frame = 8
 128              		@ frame_needed = 0, uses_anonymous_args = 0
 129              		.loc 1 35 1 is_stmt 0 view .LVU27
 130 0000 00B5     		push	{lr}
 131              	.LCFI4:
 132              		.cfi_def_cfa_offset 4
 133              		.cfi_offset 14, -4
 134 0002 83B0     		sub	sp, sp, #12
 135              	.LCFI5:
 136              		.cfi_def_cfa_offset 16
 137 0004 02AB     		add	r3, sp, #8
 138 0006 03E90300 		stmdb	r3, {r0, r1}
ARM GAS  /var/folders/lx/hc4sn_b53233_zkc9xbbl97r0000gp/T//ccXB4rr3.s 			page 4


  36:Device/Dev_Led.c ****     if (BspGPIO.write == NULL)
 139              		.loc 1 36 5 is_stmt 1 view .LVU28
 140              		.loc 1 36 16 is_stmt 0 view .LVU29
 141 000a 064B     		ldr	r3, .L11
 142 000c 9B68     		ldr	r3, [r3, #8]
 143              		.loc 1 36 8 view .LVU30
 144 000e 33B1     		cbz	r3, .L9
  37:Device/Dev_Led.c ****         return false;
  38:Device/Dev_Led.c **** 
  39:Device/Dev_Led.c ****     BspGPIO.write(LedObj.port, LedObj.pin, state);
 145              		.loc 1 39 5 is_stmt 1 view .LVU31
 146 0010 BDF80410 		ldrh	r1, [sp, #4]
 147 0014 9847     		blx	r3
 148              	.LVL2:
  40:Device/Dev_Led.c ****     return true;
 149              		.loc 1 40 5 view .LVU32
 150              		.loc 1 40 12 is_stmt 0 view .LVU33
 151 0016 0120     		movs	r0, #1
 152              	.L8:
  41:Device/Dev_Led.c **** }
 153              		.loc 1 41 1 view .LVU34
 154 0018 03B0     		add	sp, sp, #12
 155              	.LCFI6:
 156              		.cfi_remember_state
 157              		.cfi_def_cfa_offset 4
 158              		@ sp needed
 159 001a 5DF804FB 		ldr	pc, [sp], #4
 160              	.LVL3:
 161              	.L9:
 162              	.LCFI7:
 163              		.cfi_restore_state
  37:Device/Dev_Led.c ****         return false;
 164              		.loc 1 37 16 view .LVU35
 165 001e 0020     		movs	r0, #0
 166 0020 FAE7     		b	.L8
 167              	.L12:
 168 0022 00BF     		.align	2
 169              	.L11:
 170 0024 00000000 		.word	BspGPIO
 171              		.cfi_endproc
 172              	.LFE145:
 174              		.global	DevLED
 175              		.section	.data.DevLED,"aw"
 176              		.align	2
 179              	DevLED:
 180 0000 00000000 		.word	DevLed_Init
 181 0004 00000000 		.word	DevLed_Ctl
 182              		.text
 183              	.Letext0:
 184              		.file 2 "/usr/local/arm-none-eabi-gcc/gcc-arm-none-eabi-10-2020-q4-major/arm-none-eabi/include/mac
 185              		.file 3 "/usr/local/arm-none-eabi-gcc/gcc-arm-none-eabi-10-2020-q4-major/arm-none-eabi/include/sys
 186              		.file 4 "Device/Dev_Led.h"
 187              		.file 5 "HAL_Lib/CMSIS/Device/ST/STM32H7xx/Include/stm32h743xx.h"
 188              		.file 6 "HAL_Lib/STM32H7xx_HAL_Driver/Inc/stm32h7xx_hal_gpio.h"
 189              		.file 7 "Bsp/Bsp_GPIO.h"
ARM GAS  /var/folders/lx/hc4sn_b53233_zkc9xbbl97r0000gp/T//ccXB4rr3.s 			page 5

