ARM GAS  C:\Users\HUAV\AppData\Local\Temp\ccY33UgB.s 			page 1


   1              		.cpu cortex-m7
   2              		.eabi_attribute 28, 1
   3              		.eabi_attribute 20, 1
   4              		.eabi_attribute 21, 1
   5              		.eabi_attribute 23, 3
   6              		.eabi_attribute 24, 1
   7              		.eabi_attribute 25, 1
   8              		.eabi_attribute 26, 1
   9              		.eabi_attribute 30, 1
  10              		.eabi_attribute 34, 1
  11              		.eabi_attribute 18, 4
  12              		.file	"Dev_ICM20602.c"
  13              		.text
  14              	.Ltext0:
  15              		.cfi_sections	.debug_frame
  16              		.section	.text.DevICM20602_Reg_Read,"ax",%progbits
  17              		.align	1
  18              		.arch armv7e-m
  19              		.syntax unified
  20              		.thumb
  21              		.thumb_func
  22              		.fpu fpv5-d16
  24              	DevICM20602_Reg_Read:
  25              	.LVL0:
  26              	.LFB1:
  27              		.file 1 "Device/Dev_ICM20602.c"
   1:Device/Dev_ICM20602.c **** #include "Dev_ICM20602.h"
   2:Device/Dev_ICM20602.c **** 
   3:Device/Dev_ICM20602.c **** /* internal function */
   4:Device/Dev_ICM20602.c **** static bool DevICM20602_Regs_Read(DevICM20602Obj_TypeDef *Obj, uint32_t addr, uint8_t *tx, uint8_t 
   5:Device/Dev_ICM20602.c **** static bool DevICM20602_Reg_Read(DevICM20602Obj_TypeDef *Obj, uint8_t addr, uint8_t *rx);
   6:Device/Dev_ICM20602.c **** static bool DevICM20602_Reg_Write(DevICM20602Obj_TypeDef *Obj, uint8_t addr, uint8_t tx);
   7:Device/Dev_ICM20602.c **** 
   8:Device/Dev_ICM20602.c **** /* external function */
   9:Device/Dev_ICM20602.c **** static void DevICM20602_Config(DevICM20602Obj_TypeDef *Obj, ICM20602_SampleRate_List rate, ICM20602
  10:Device/Dev_ICM20602.c **** static void DevICM20602_PreInit(DevICM20602Obj_TypeDef *Obj,
  11:Device/Dev_ICM20602.c ****                                 cs_ctl_callback cs_ctl,
  12:Device/Dev_ICM20602.c ****                                 bus_trans_callback bus_trans,
  13:Device/Dev_ICM20602.c ****                                 delay_callback delay,
  14:Device/Dev_ICM20602.c ****                                 get_time_stamp_callback get_time_stamp);
  15:Device/Dev_ICM20602.c **** static ICM20602_Error_List DevICM20602_Init(DevICM20602Obj_TypeDef *Obj);
  16:Device/Dev_ICM20602.c **** static void DevICM20602_SetDRDY(DevICM20602Obj_TypeDef *Obj);
  17:Device/Dev_ICM20602.c **** static bool DevICM20602_SwReset(DevICM20602Obj_TypeDef *Obj);
  18:Device/Dev_ICM20602.c **** static bool DevICM20602_GetReady(DevICM20602Obj_TypeDef *Obj);
  19:Device/Dev_ICM20602.c **** static bool DevICM20602_Sample(DevICM20602Obj_TypeDef *Obj);
  20:Device/Dev_ICM20602.c **** static IMUData_TypeDef DevICM20602_Get_Data(DevICM20602Obj_TypeDef *Obj);
  21:Device/Dev_ICM20602.c **** static ICM20602_Error_List DevICM20602_Get_InitError(DevICM20602Obj_TypeDef *Obj);
  22:Device/Dev_ICM20602.c **** static IMUModuleScale_TypeDef DevICM20602_Get_Scale(const DevICM20602Obj_TypeDef Obj);
  23:Device/Dev_ICM20602.c **** 
  24:Device/Dev_ICM20602.c **** /* external variable */
  25:Device/Dev_ICM20602.c **** DevICM20602_TypeDef DevICM20602 = {
  26:Device/Dev_ICM20602.c ****     .config = DevICM20602_Config,
  27:Device/Dev_ICM20602.c ****     .init = DevICM20602_Init,
  28:Device/Dev_ICM20602.c ****     .pre_init = DevICM20602_PreInit,
  29:Device/Dev_ICM20602.c ****     .reset = DevICM20602_SwReset,
  30:Device/Dev_ICM20602.c ****     .set_ready = DevICM20602_SetDRDY,
  31:Device/Dev_ICM20602.c ****     .get_ready = DevICM20602_GetReady,
ARM GAS  C:\Users\HUAV\AppData\Local\Temp\ccY33UgB.s 			page 2


  32:Device/Dev_ICM20602.c ****     .sample = DevICM20602_Sample,
  33:Device/Dev_ICM20602.c ****     .get_error = DevICM20602_Get_InitError,
  34:Device/Dev_ICM20602.c ****     .get_data = DevICM20602_Get_Data,
  35:Device/Dev_ICM20602.c ****     .get_scale = DevICM20602_Get_Scale,
  36:Device/Dev_ICM20602.c **** };
  37:Device/Dev_ICM20602.c **** 
  38:Device/Dev_ICM20602.c **** static bool DevICM20602_Regs_Read(DevICM20602Obj_TypeDef *Obj, uint32_t addr, uint8_t *tx, uint8_t 
  39:Device/Dev_ICM20602.c **** {
  40:Device/Dev_ICM20602.c ****     bool state = false;
  41:Device/Dev_ICM20602.c ****     uint8_t addr_tmp = addr | ICM20602_READ_MASK;
  42:Device/Dev_ICM20602.c ****     uint8_t read_tmp = 0;
  43:Device/Dev_ICM20602.c **** 
  44:Device/Dev_ICM20602.c ****     if (Obj == NULL || Obj->cs_ctl == NULL || Obj->bus_trans == NULL)
  45:Device/Dev_ICM20602.c ****         return false;
  46:Device/Dev_ICM20602.c **** 
  47:Device/Dev_ICM20602.c ****     /* CS Low */
  48:Device/Dev_ICM20602.c ****     Obj->cs_ctl(false);
  49:Device/Dev_ICM20602.c **** 
  50:Device/Dev_ICM20602.c ****     state = Obj->bus_trans(&addr_tmp, &read_tmp, 1);
  51:Device/Dev_ICM20602.c ****     state = Obj->bus_trans(tx, rx, size);
  52:Device/Dev_ICM20602.c **** 
  53:Device/Dev_ICM20602.c ****     /* CS High */
  54:Device/Dev_ICM20602.c ****     Obj->cs_ctl(true);
  55:Device/Dev_ICM20602.c **** 
  56:Device/Dev_ICM20602.c ****     return state;
  57:Device/Dev_ICM20602.c **** }
  58:Device/Dev_ICM20602.c **** 
  59:Device/Dev_ICM20602.c **** static bool DevICM20602_Reg_Read(DevICM20602Obj_TypeDef *Obj, uint8_t addr, uint8_t *rx)
  60:Device/Dev_ICM20602.c **** {
  28              		.loc 1 60 1 view -0
  29              		.cfi_startproc
  30              		@ args = 0, pretend = 0, frame = 8
  31              		@ frame_needed = 0, uses_anonymous_args = 0
  32              		.loc 1 60 1 is_stmt 0 view .LVU1
  33 0000 70B5     		push	{r4, r5, r6, lr}
  34              	.LCFI0:
  35              		.cfi_def_cfa_offset 16
  36              		.cfi_offset 4, -16
  37              		.cfi_offset 5, -12
  38              		.cfi_offset 6, -8
  39              		.cfi_offset 14, -4
  40 0002 82B0     		sub	sp, sp, #8
  41              	.LCFI1:
  42              		.cfi_def_cfa_offset 24
  61:Device/Dev_ICM20602.c ****     uint8_t Rx_Tmp[2] = {0};
  43              		.loc 1 61 5 is_stmt 1 view .LVU2
  44              		.loc 1 61 13 is_stmt 0 view .LVU3
  45 0004 0023     		movs	r3, #0
  46 0006 ADF80430 		strh	r3, [sp, #4]	@ movhi
  62:Device/Dev_ICM20602.c ****     uint8_t Tx_Tmp[2] = {0};
  47              		.loc 1 62 5 is_stmt 1 view .LVU4
  48              		.loc 1 62 13 is_stmt 0 view .LVU5
  49 000a ADF80030 		strh	r3, [sp]	@ movhi
  63:Device/Dev_ICM20602.c ****     bool state = false;
  50              		.loc 1 63 5 is_stmt 1 view .LVU6
  51              	.LVL1:
  64:Device/Dev_ICM20602.c **** 
ARM GAS  C:\Users\HUAV\AppData\Local\Temp\ccY33UgB.s 			page 3


  65:Device/Dev_ICM20602.c ****     if (Obj == NULL || Obj->cs_ctl == NULL || Obj->bus_trans == NULL)
  52              		.loc 1 65 5 view .LVU7
  53              		.loc 1 65 8 is_stmt 0 view .LVU8
  54 000e D8B1     		cbz	r0, .L3
  55 0010 1646     		mov	r6, r2
  56 0012 0446     		mov	r4, r0
  57              		.loc 1 65 27 discriminator 1 view .LVU9
  58 0014 0368     		ldr	r3, [r0]
  59              		.loc 1 65 21 discriminator 1 view .LVU10
  60 0016 CBB1     		cbz	r3, .L4
  61              		.loc 1 65 50 discriminator 2 view .LVU11
  62 0018 4368     		ldr	r3, [r0, #4]
  63              		.loc 1 65 44 discriminator 2 view .LVU12
  64 001a CBB1     		cbz	r3, .L5
  66:Device/Dev_ICM20602.c ****         return false;
  67:Device/Dev_ICM20602.c **** 
  68:Device/Dev_ICM20602.c ****     Tx_Tmp[0] = addr | ICM20602_READ_MASK;
  65              		.loc 1 68 5 is_stmt 1 view .LVU13
  66              		.loc 1 68 15 is_stmt 0 view .LVU14
  67 001c 61F07F01 		orn	r1, r1, #127
  68              	.LVL2:
  69              		.loc 1 68 15 view .LVU15
  70 0020 8DF80010 		strb	r1, [sp]
  69:Device/Dev_ICM20602.c **** 
  70:Device/Dev_ICM20602.c ****     /* cs low */
  71:Device/Dev_ICM20602.c ****     Obj->cs_ctl(false);
  71              		.loc 1 71 5 is_stmt 1 view .LVU16
  72              		.loc 1 71 8 is_stmt 0 view .LVU17
  73 0024 0368     		ldr	r3, [r0]
  74              		.loc 1 71 5 view .LVU18
  75 0026 0020     		movs	r0, #0
  76              	.LVL3:
  77              		.loc 1 71 5 view .LVU19
  78 0028 9847     		blx	r3
  79              	.LVL4:
  72:Device/Dev_ICM20602.c **** 
  73:Device/Dev_ICM20602.c ****     state = Obj->bus_trans(Tx_Tmp, Rx_Tmp, 2);
  80              		.loc 1 73 5 is_stmt 1 view .LVU20
  81              		.loc 1 73 16 is_stmt 0 view .LVU21
  82 002a 6368     		ldr	r3, [r4, #4]
  83              		.loc 1 73 13 view .LVU22
  84 002c 0222     		movs	r2, #2
  85 002e 01A9     		add	r1, sp, #4
  86 0030 6846     		mov	r0, sp
  87 0032 9847     		blx	r3
  88              	.LVL5:
  89 0034 0546     		mov	r5, r0
  90              	.LVL6:
  74:Device/Dev_ICM20602.c **** 
  75:Device/Dev_ICM20602.c ****     /* cs high */
  76:Device/Dev_ICM20602.c ****     Obj->cs_ctl(true);
  91              		.loc 1 76 5 is_stmt 1 view .LVU23
  92              		.loc 1 76 8 is_stmt 0 view .LVU24
  93 0036 2368     		ldr	r3, [r4]
  94              		.loc 1 76 5 view .LVU25
  95 0038 0120     		movs	r0, #1
  96 003a 9847     		blx	r3
ARM GAS  C:\Users\HUAV\AppData\Local\Temp\ccY33UgB.s 			page 4


  97              	.LVL7:
  77:Device/Dev_ICM20602.c **** 
  78:Device/Dev_ICM20602.c ****     *rx = Rx_Tmp[1];
  98              		.loc 1 78 5 is_stmt 1 view .LVU26
  99              		.loc 1 78 17 is_stmt 0 view .LVU27
 100 003c 9DF80530 		ldrb	r3, [sp, #5]	@ zero_extendqisi2
 101              		.loc 1 78 9 view .LVU28
 102 0040 3370     		strb	r3, [r6]
  79:Device/Dev_ICM20602.c **** 
  80:Device/Dev_ICM20602.c ****     return state;
 103              		.loc 1 80 5 is_stmt 1 view .LVU29
 104              	.LVL8:
 105              	.L2:
  81:Device/Dev_ICM20602.c **** }
 106              		.loc 1 81 1 is_stmt 0 view .LVU30
 107 0042 2846     		mov	r0, r5
 108 0044 02B0     		add	sp, sp, #8
 109              	.LCFI2:
 110              		.cfi_remember_state
 111              		.cfi_def_cfa_offset 16
 112              		@ sp needed
 113 0046 70BD     		pop	{r4, r5, r6, pc}
 114              	.LVL9:
 115              	.L3:
 116              	.LCFI3:
 117              		.cfi_restore_state
  66:Device/Dev_ICM20602.c **** 
 118              		.loc 1 66 16 view .LVU31
 119 0048 0025     		movs	r5, #0
 120 004a FAE7     		b	.L2
 121              	.L4:
  66:Device/Dev_ICM20602.c **** 
 122              		.loc 1 66 16 view .LVU32
 123 004c 0025     		movs	r5, #0
 124 004e F8E7     		b	.L2
 125              	.L5:
 126 0050 0025     		movs	r5, #0
 127 0052 F6E7     		b	.L2
 128              		.cfi_endproc
 129              	.LFE1:
 131              		.section	.text.DevICM20602_Reg_Write,"ax",%progbits
 132              		.align	1
 133              		.syntax unified
 134              		.thumb
 135              		.thumb_func
 136              		.fpu fpv5-d16
 138              	DevICM20602_Reg_Write:
 139              	.LVL10:
 140              	.LFB2:
  82:Device/Dev_ICM20602.c **** 
  83:Device/Dev_ICM20602.c **** static bool DevICM20602_Reg_Write(DevICM20602Obj_TypeDef *Obj, uint8_t addr, uint8_t tx)
  84:Device/Dev_ICM20602.c **** {
 141              		.loc 1 84 1 is_stmt 1 view -0
 142              		.cfi_startproc
 143              		@ args = 0, pretend = 0, frame = 8
 144              		@ frame_needed = 0, uses_anonymous_args = 0
 145              		.loc 1 84 1 is_stmt 0 view .LVU34
ARM GAS  C:\Users\HUAV\AppData\Local\Temp\ccY33UgB.s 			page 5


 146 0000 30B5     		push	{r4, r5, lr}
 147              	.LCFI4:
 148              		.cfi_def_cfa_offset 12
 149              		.cfi_offset 4, -12
 150              		.cfi_offset 5, -8
 151              		.cfi_offset 14, -4
 152 0002 83B0     		sub	sp, sp, #12
 153              	.LCFI5:
 154              		.cfi_def_cfa_offset 24
  85:Device/Dev_ICM20602.c ****     uint8_t Rx_Tmp[2] = {0};
 155              		.loc 1 85 5 is_stmt 1 view .LVU35
 156              		.loc 1 85 13 is_stmt 0 view .LVU36
 157 0004 0023     		movs	r3, #0
 158 0006 ADF80430 		strh	r3, [sp, #4]	@ movhi
  86:Device/Dev_ICM20602.c ****     uint8_t Tx_Tmp[2] = {0};
 159              		.loc 1 86 5 is_stmt 1 view .LVU37
  87:Device/Dev_ICM20602.c ****     bool state = false;
 160              		.loc 1 87 5 view .LVU38
 161              	.LVL11:
  88:Device/Dev_ICM20602.c **** 
  89:Device/Dev_ICM20602.c ****     if (Obj == NULL || Obj->cs_ctl == NULL || Obj->bus_trans == NULL)
 162              		.loc 1 89 5 view .LVU39
 163              		.loc 1 89 8 is_stmt 0 view .LVU40
 164 000a B8B1     		cbz	r0, .L9
 165 000c 0446     		mov	r4, r0
 166              		.loc 1 89 27 discriminator 1 view .LVU41
 167 000e 0368     		ldr	r3, [r0]
 168              		.loc 1 89 21 discriminator 1 view .LVU42
 169 0010 B3B1     		cbz	r3, .L10
 170              		.loc 1 89 50 discriminator 2 view .LVU43
 171 0012 4368     		ldr	r3, [r0, #4]
 172              		.loc 1 89 44 discriminator 2 view .LVU44
 173 0014 B3B1     		cbz	r3, .L11
  90:Device/Dev_ICM20602.c ****         return false;
  91:Device/Dev_ICM20602.c **** 
  92:Device/Dev_ICM20602.c ****     Tx_Tmp[0] = addr;
 174              		.loc 1 92 5 is_stmt 1 view .LVU45
 175              		.loc 1 92 15 is_stmt 0 view .LVU46
 176 0016 8DF80010 		strb	r1, [sp]
  93:Device/Dev_ICM20602.c ****     Tx_Tmp[1] = tx;
 177              		.loc 1 93 5 is_stmt 1 view .LVU47
 178              		.loc 1 93 15 is_stmt 0 view .LVU48
 179 001a 8DF80120 		strb	r2, [sp, #1]
  94:Device/Dev_ICM20602.c **** 
  95:Device/Dev_ICM20602.c ****     /* cs low */
  96:Device/Dev_ICM20602.c ****     Obj->cs_ctl(false);
 180              		.loc 1 96 5 is_stmt 1 view .LVU49
 181              		.loc 1 96 8 is_stmt 0 view .LVU50
 182 001e 0368     		ldr	r3, [r0]
 183              		.loc 1 96 5 view .LVU51
 184 0020 0020     		movs	r0, #0
 185              	.LVL12:
 186              		.loc 1 96 5 view .LVU52
 187 0022 9847     		blx	r3
 188              	.LVL13:
  97:Device/Dev_ICM20602.c **** 
  98:Device/Dev_ICM20602.c ****     state = Obj->bus_trans(Tx_Tmp, Rx_Tmp, 2);
ARM GAS  C:\Users\HUAV\AppData\Local\Temp\ccY33UgB.s 			page 6


 189              		.loc 1 98 5 is_stmt 1 view .LVU53
 190              		.loc 1 98 16 is_stmt 0 view .LVU54
 191 0024 6368     		ldr	r3, [r4, #4]
 192              		.loc 1 98 13 view .LVU55
 193 0026 0222     		movs	r2, #2
 194 0028 01A9     		add	r1, sp, #4
 195 002a 6846     		mov	r0, sp
 196 002c 9847     		blx	r3
 197              	.LVL14:
 198 002e 0546     		mov	r5, r0
 199              	.LVL15:
  99:Device/Dev_ICM20602.c **** 
 100:Device/Dev_ICM20602.c ****     /* cs high */
 101:Device/Dev_ICM20602.c ****     Obj->cs_ctl(true);
 200              		.loc 1 101 5 is_stmt 1 view .LVU56
 201              		.loc 1 101 8 is_stmt 0 view .LVU57
 202 0030 2368     		ldr	r3, [r4]
 203              		.loc 1 101 5 view .LVU58
 204 0032 0120     		movs	r0, #1
 205 0034 9847     		blx	r3
 206              	.LVL16:
 102:Device/Dev_ICM20602.c **** 
 103:Device/Dev_ICM20602.c ****     return state;
 207              		.loc 1 103 5 is_stmt 1 view .LVU59
 208              	.L8:
 104:Device/Dev_ICM20602.c **** }
 209              		.loc 1 104 1 is_stmt 0 view .LVU60
 210 0036 2846     		mov	r0, r5
 211 0038 03B0     		add	sp, sp, #12
 212              	.LCFI6:
 213              		.cfi_remember_state
 214              		.cfi_def_cfa_offset 12
 215              		@ sp needed
 216 003a 30BD     		pop	{r4, r5, pc}
 217              	.LVL17:
 218              	.L9:
 219              	.LCFI7:
 220              		.cfi_restore_state
  90:Device/Dev_ICM20602.c **** 
 221              		.loc 1 90 16 view .LVU61
 222 003c 0025     		movs	r5, #0
 223 003e FAE7     		b	.L8
 224              	.L10:
  90:Device/Dev_ICM20602.c **** 
 225              		.loc 1 90 16 view .LVU62
 226 0040 0025     		movs	r5, #0
 227 0042 F8E7     		b	.L8
 228              	.L11:
 229 0044 0025     		movs	r5, #0
 230 0046 F6E7     		b	.L8
 231              		.cfi_endproc
 232              	.LFE2:
 234              		.section	.text.DevICM20602_Config,"ax",%progbits
 235              		.align	1
 236              		.syntax unified
 237              		.thumb
 238              		.thumb_func
ARM GAS  C:\Users\HUAV\AppData\Local\Temp\ccY33UgB.s 			page 7


 239              		.fpu fpv5-d16
 241              	DevICM20602_Config:
 242              	.LVL18:
 243              	.LFB3:
 105:Device/Dev_ICM20602.c **** 
 106:Device/Dev_ICM20602.c **** static void DevICM20602_Config(DevICM20602Obj_TypeDef *Obj, ICM20602_SampleRate_List rate, ICM20602
 107:Device/Dev_ICM20602.c **** {
 244              		.loc 1 107 1 is_stmt 1 view -0
 245              		.cfi_startproc
 246              		@ args = 0, pretend = 0, frame = 0
 247              		@ frame_needed = 0, uses_anonymous_args = 0
 248              		@ link register save eliminated.
 249              		.loc 1 107 1 is_stmt 0 view .LVU64
 250 0000 30B4     		push	{r4, r5}
 251              	.LCFI8:
 252              		.cfi_def_cfa_offset 8
 253              		.cfi_offset 4, -8
 254              		.cfi_offset 5, -4
 108:Device/Dev_ICM20602.c ****     switch ((uint8_t)Obj->rate)
 255              		.loc 1 108 5 is_stmt 1 view .LVU65
 256              		.loc 1 108 25 is_stmt 0 view .LVU66
 257 0002 457F     		ldrb	r5, [r0, #29]	@ zero_extendqisi2
 258 0004 072D     		cmp	r5, #7
 259 0006 26D8     		bhi	.L13
 260 0008 0124     		movs	r4, #1
 261 000a AC40     		lsls	r4, r4, r5
 262 000c 14F08B0F 		tst	r4, #139
 263 0010 21D0     		beq	.L13
 109:Device/Dev_ICM20602.c ****     {
 110:Device/Dev_ICM20602.c ****     case ICM20602_SampleRate_8K:
 111:Device/Dev_ICM20602.c ****     case ICM20602_SampleRate_4K:
 112:Device/Dev_ICM20602.c ****     case ICM20602_SampleRate_2K:
 113:Device/Dev_ICM20602.c ****     case ICM20602_SampleRate_1K:
 114:Device/Dev_ICM20602.c ****         break;
 264              		.loc 1 114 9 is_stmt 1 view .LVU67
 115:Device/Dev_ICM20602.c **** 
 116:Device/Dev_ICM20602.c ****     default:
 117:Device/Dev_ICM20602.c ****         return false;
 118:Device/Dev_ICM20602.c ****     }
 119:Device/Dev_ICM20602.c **** 
 120:Device/Dev_ICM20602.c ****     Obj->rate = rate;
 265              		.loc 1 120 5 view .LVU68
 266              		.loc 1 120 15 is_stmt 0 view .LVU69
 267 0012 4177     		strb	r1, [r0, #29]
 121:Device/Dev_ICM20602.c **** 
 122:Device/Dev_ICM20602.c ****     switch ((uint8_t)AccTrip)
 268              		.loc 1 122 5 is_stmt 1 view .LVU70
 269 0014 032B     		cmp	r3, #3
 270 0016 1ED8     		bhi	.L13
 271 0018 DFE803F0 		tbb	[pc, r3]
 272              	.LVL19:
 273              	.L16:
 274 001c 02       		.byte	(.L19-.L16)/2
 275 001d 0B       		.byte	(.L18-.L16)/2
 276 001e 0F       		.byte	(.L17-.L16)/2
 277 001f 13       		.byte	(.L15-.L16)/2
 278              		.p2align 1
ARM GAS  C:\Users\HUAV\AppData\Local\Temp\ccY33UgB.s 			page 8


 279              	.L19:
 123:Device/Dev_ICM20602.c ****     {
 124:Device/Dev_ICM20602.c ****     case ICM20602_Acc_2G:
 125:Device/Dev_ICM20602.c ****         Obj->acc_scale = ICM20602_ACC_2G_SCALE;
 280              		.loc 1 125 9 view .LVU71
 281              		.loc 1 125 24 is_stmt 0 view .LVU72
 282 0020 4FF08D41 		mov	r1, #1182793728
 283 0024 4161     		str	r1, [r0, #20]	@ float
 126:Device/Dev_ICM20602.c ****         break;
 284              		.loc 1 126 9 is_stmt 1 view .LVU73
 285              	.L20:
 127:Device/Dev_ICM20602.c **** 
 128:Device/Dev_ICM20602.c ****     case ICM20602_Acc_4G:
 129:Device/Dev_ICM20602.c ****         Obj->acc_scale = ICM20602_ACC_4G_SCALE;
 130:Device/Dev_ICM20602.c ****         break;
 131:Device/Dev_ICM20602.c **** 
 132:Device/Dev_ICM20602.c ****     case ICM20602_Acc_8G:
 133:Device/Dev_ICM20602.c ****         Obj->acc_scale = ICM20602_ACC_8G_SCALE;
 134:Device/Dev_ICM20602.c ****         break;
 135:Device/Dev_ICM20602.c **** 
 136:Device/Dev_ICM20602.c ****     case ICM20602_Acc_16G:
 137:Device/Dev_ICM20602.c ****         Obj->acc_scale = ICM20602_ACC_16G_SCALE;
 138:Device/Dev_ICM20602.c ****         break;
 139:Device/Dev_ICM20602.c **** 
 140:Device/Dev_ICM20602.c ****     default:
 141:Device/Dev_ICM20602.c ****         return false;
 142:Device/Dev_ICM20602.c ****     }
 143:Device/Dev_ICM20602.c **** 
 144:Device/Dev_ICM20602.c ****     switch ((uint8_t)GyrTrip)
 286              		.loc 1 144 5 view .LVU74
 287 0026 032A     		cmp	r2, #3
 288 0028 15D8     		bhi	.L13
 289 002a DFE802F0 		tbb	[pc, r2]
 290              	.L22:
 291 002e 0E       		.byte	(.L25-.L22)/2
 292 002f 16       		.byte	(.L24-.L22)/2
 293 0030 19       		.byte	(.L23-.L22)/2
 294 0031 1C       		.byte	(.L21-.L22)/2
 295              		.p2align 1
 296              	.L18:
 129:Device/Dev_ICM20602.c ****         break;
 297              		.loc 1 129 9 view .LVU75
 129:Device/Dev_ICM20602.c ****         break;
 298              		.loc 1 129 24 is_stmt 0 view .LVU76
 299 0032 4FF08C41 		mov	r1, #1174405120
 300 0036 4161     		str	r1, [r0, #20]	@ float
 130:Device/Dev_ICM20602.c **** 
 301              		.loc 1 130 9 is_stmt 1 view .LVU77
 302 0038 F5E7     		b	.L20
 303              	.L17:
 133:Device/Dev_ICM20602.c ****         break;
 304              		.loc 1 133 9 view .LVU78
 133:Device/Dev_ICM20602.c ****         break;
 305              		.loc 1 133 24 is_stmt 0 view .LVU79
 306 003a 4FF08B41 		mov	r1, #1166016512
 307 003e 4161     		str	r1, [r0, #20]	@ float
 134:Device/Dev_ICM20602.c **** 
ARM GAS  C:\Users\HUAV\AppData\Local\Temp\ccY33UgB.s 			page 9


 308              		.loc 1 134 9 is_stmt 1 view .LVU80
 309 0040 F1E7     		b	.L20
 310              	.L15:
 137:Device/Dev_ICM20602.c ****         break;
 311              		.loc 1 137 9 view .LVU81
 137:Device/Dev_ICM20602.c ****         break;
 312              		.loc 1 137 24 is_stmt 0 view .LVU82
 313 0042 4FF08A41 		mov	r1, #1157627904
 314 0046 4161     		str	r1, [r0, #20]	@ float
 138:Device/Dev_ICM20602.c **** 
 315              		.loc 1 138 9 is_stmt 1 view .LVU83
 316 0048 EDE7     		b	.L20
 317              	.L25:
 145:Device/Dev_ICM20602.c ****     {
 146:Device/Dev_ICM20602.c ****     case ICM20602_Gyr_250DPS:
 147:Device/Dev_ICM20602.c ****         Obj->gyr_scale = ICM20602_GYR_250DPS_SCALE;
 318              		.loc 1 147 9 view .LVU84
 319              		.loc 1 147 24 is_stmt 0 view .LVU85
 320 004a 0849     		ldr	r1, .L28
 321 004c 8161     		str	r1, [r0, #24]	@ float
 148:Device/Dev_ICM20602.c ****         break;
 322              		.loc 1 148 9 is_stmt 1 view .LVU86
 323              	.L26:
 149:Device/Dev_ICM20602.c **** 
 150:Device/Dev_ICM20602.c ****     case ICM20602_Gyr_500DPS:
 151:Device/Dev_ICM20602.c ****         Obj->gyr_scale = ICM20602_GYR_500DPS_SCALE;
 152:Device/Dev_ICM20602.c ****         break;
 153:Device/Dev_ICM20602.c **** 
 154:Device/Dev_ICM20602.c ****     case ICM20602_Gyr_1000DPS:
 155:Device/Dev_ICM20602.c ****         Obj->gyr_scale = ICM20602_GYR_1000DPS_SCALE;
 156:Device/Dev_ICM20602.c ****         break;
 157:Device/Dev_ICM20602.c **** 
 158:Device/Dev_ICM20602.c ****     case ICM20602_Gyr_2000DPS:
 159:Device/Dev_ICM20602.c ****         Obj->gyr_scale = ICM20602_GYR_2000DPS_SCALE;
 160:Device/Dev_ICM20602.c ****         break;
 161:Device/Dev_ICM20602.c **** 
 162:Device/Dev_ICM20602.c ****     default:
 163:Device/Dev_ICM20602.c ****         return false;
 164:Device/Dev_ICM20602.c ****     }
 165:Device/Dev_ICM20602.c **** 
 166:Device/Dev_ICM20602.c ****     // set Trip Reg val
 167:Device/Dev_ICM20602.c ****     Obj->AccTrip = ConvertToTrip_Reg(AccTrip);
 324              		.loc 1 167 5 view .LVU87
 325              		.loc 1 167 20 is_stmt 0 view .LVU88
 326 004e DB00     		lsls	r3, r3, #3
 327              	.LVL20:
 328              		.loc 1 167 18 view .LVU89
 329 0050 8374     		strb	r3, [r0, #18]
 168:Device/Dev_ICM20602.c ****     Obj->GyrTrip = ConvertToTrip_Reg(GyrTrip);
 330              		.loc 1 168 5 is_stmt 1 view .LVU90
 331              		.loc 1 168 20 is_stmt 0 view .LVU91
 332 0052 D200     		lsls	r2, r2, #3
 333              	.LVL21:
 334              		.loc 1 168 18 view .LVU92
 335 0054 C274     		strb	r2, [r0, #19]
 169:Device/Dev_ICM20602.c **** 
 170:Device/Dev_ICM20602.c ****     return true;
ARM GAS  C:\Users\HUAV\AppData\Local\Temp\ccY33UgB.s 			page 10


 336              		.loc 1 170 5 is_stmt 1 view .LVU93
 337              	.LVL22:
 338              	.L13:
 171:Device/Dev_ICM20602.c **** }
 339              		.loc 1 171 1 is_stmt 0 view .LVU94
 340 0056 30BC     		pop	{r4, r5}
 341              	.LCFI9:
 342              		.cfi_remember_state
 343              		.cfi_restore 5
 344              		.cfi_restore 4
 345              		.cfi_def_cfa_offset 0
 346 0058 7047     		bx	lr
 347              	.LVL23:
 348              	.L24:
 349              	.LCFI10:
 350              		.cfi_restore_state
 151:Device/Dev_ICM20602.c ****         break;
 351              		.loc 1 151 9 is_stmt 1 view .LVU95
 151:Device/Dev_ICM20602.c ****         break;
 352              		.loc 1 151 24 is_stmt 0 view .LVU96
 353 005a 0549     		ldr	r1, .L28+4
 354 005c 8161     		str	r1, [r0, #24]	@ float
 152:Device/Dev_ICM20602.c **** 
 355              		.loc 1 152 9 is_stmt 1 view .LVU97
 356 005e F6E7     		b	.L26
 357              	.L23:
 155:Device/Dev_ICM20602.c ****         break;
 358              		.loc 1 155 9 view .LVU98
 155:Device/Dev_ICM20602.c ****         break;
 359              		.loc 1 155 24 is_stmt 0 view .LVU99
 360 0060 0449     		ldr	r1, .L28+8
 361 0062 8161     		str	r1, [r0, #24]	@ float
 156:Device/Dev_ICM20602.c **** 
 362              		.loc 1 156 9 is_stmt 1 view .LVU100
 363 0064 F3E7     		b	.L26
 364              	.L21:
 159:Device/Dev_ICM20602.c ****         break;
 365              		.loc 1 159 9 view .LVU101
 159:Device/Dev_ICM20602.c ****         break;
 366              		.loc 1 159 24 is_stmt 0 view .LVU102
 367 0066 0449     		ldr	r1, .L28+12
 368 0068 8161     		str	r1, [r0, #24]	@ float
 160:Device/Dev_ICM20602.c **** 
 369              		.loc 1 160 9 is_stmt 1 view .LVU103
 370 006a F0E7     		b	.L26
 371              	.L29:
 372              		.align	2
 373              	.L28:
 374 006c 00000343 		.word	1124270080
 375 0070 00008342 		.word	1115881472
 376 0074 33330342 		.word	1107505971
 377 0078 33338341 		.word	1099117363
 378              		.cfi_endproc
 379              	.LFE3:
 381              		.section	.text.DevICM20602_PreInit,"ax",%progbits
 382              		.align	1
 383              		.syntax unified
ARM GAS  C:\Users\HUAV\AppData\Local\Temp\ccY33UgB.s 			page 11


 384              		.thumb
 385              		.thumb_func
 386              		.fpu fpv5-d16
 388              	DevICM20602_PreInit:
 389              	.LVL24:
 390              	.LFB4:
 172:Device/Dev_ICM20602.c **** 
 173:Device/Dev_ICM20602.c **** static void DevICM20602_PreInit(DevICM20602Obj_TypeDef *Obj,
 174:Device/Dev_ICM20602.c ****                                 cs_ctl_callback cs_ctl,
 175:Device/Dev_ICM20602.c ****                                 bus_trans_callback bus_trans,
 176:Device/Dev_ICM20602.c ****                                 delay_callback delay,
 177:Device/Dev_ICM20602.c ****                                 get_time_stamp_callback get_time_stamp)
 178:Device/Dev_ICM20602.c **** {
 391              		.loc 1 178 1 view -0
 392              		.cfi_startproc
 393              		@ args = 4, pretend = 0, frame = 0
 394              		@ frame_needed = 0, uses_anonymous_args = 0
 395              		@ link register save eliminated.
 179:Device/Dev_ICM20602.c ****     Obj->cs_ctl = cs_ctl;
 396              		.loc 1 179 5 view .LVU105
 397              		.loc 1 179 17 is_stmt 0 view .LVU106
 398 0000 0160     		str	r1, [r0]
 180:Device/Dev_ICM20602.c ****     Obj->bus_trans = bus_trans;
 399              		.loc 1 180 5 is_stmt 1 view .LVU107
 400              		.loc 1 180 20 is_stmt 0 view .LVU108
 401 0002 4260     		str	r2, [r0, #4]
 181:Device/Dev_ICM20602.c ****     Obj->delay = delay;
 402              		.loc 1 181 5 is_stmt 1 view .LVU109
 403              		.loc 1 181 16 is_stmt 0 view .LVU110
 404 0004 8360     		str	r3, [r0, #8]
 182:Device/Dev_ICM20602.c ****     Obj->get_timestamp = get_time_stamp;
 405              		.loc 1 182 5 is_stmt 1 view .LVU111
 406              		.loc 1 182 24 is_stmt 0 view .LVU112
 407 0006 009B     		ldr	r3, [sp]
 408              	.LVL25:
 409              		.loc 1 182 24 view .LVU113
 410 0008 C360     		str	r3, [r0, #12]
 183:Device/Dev_ICM20602.c **** }
 411              		.loc 1 183 1 view .LVU114
 412 000a 7047     		bx	lr
 413              		.cfi_endproc
 414              	.LFE4:
 416              		.section	.text.DevICM20602_SetDRDY,"ax",%progbits
 417              		.align	1
 418              		.syntax unified
 419              		.thumb
 420              		.thumb_func
 421              		.fpu fpv5-d16
 423              	DevICM20602_SetDRDY:
 424              	.LVL26:
 425              	.LFB6:
 184:Device/Dev_ICM20602.c **** 
 185:Device/Dev_ICM20602.c **** static ICM20602_Error_List DevICM20602_Init(DevICM20602Obj_TypeDef *Obj)
 186:Device/Dev_ICM20602.c **** {
 187:Device/Dev_ICM20602.c ****     uint8_t read_out = 0;
 188:Device/Dev_ICM20602.c **** 
 189:Device/Dev_ICM20602.c ****     if ((Obj == NULL) ||
ARM GAS  C:\Users\HUAV\AppData\Local\Temp\ccY33UgB.s 			page 12


 190:Device/Dev_ICM20602.c ****         (Obj->bus_trans == NULL) ||
 191:Device/Dev_ICM20602.c ****         (Obj->cs_ctl == NULL))
 192:Device/Dev_ICM20602.c ****     {
 193:Device/Dev_ICM20602.c ****         Obj->error = ICM20602_Obj_Error;
 194:Device/Dev_ICM20602.c ****         return false;
 195:Device/Dev_ICM20602.c ****     }
 196:Device/Dev_ICM20602.c **** 
 197:Device/Dev_ICM20602.c ****     /* reset device */
 198:Device/Dev_ICM20602.c ****     if (!DevICM20602_SwReset(Obj))
 199:Device/Dev_ICM20602.c ****     {
 200:Device/Dev_ICM20602.c ****         Obj->error = ICM20602_Reset_Error;
 201:Device/Dev_ICM20602.c ****         return false;
 202:Device/Dev_ICM20602.c ****     }
 203:Device/Dev_ICM20602.c **** 
 204:Device/Dev_ICM20602.c ****     DevICM20602_Reg_Read(Obj, ICM20602_WHO_AM_I, &read_out);
 205:Device/Dev_ICM20602.c ****     Obj->delay(10);
 206:Device/Dev_ICM20602.c **** 
 207:Device/Dev_ICM20602.c ****     if (read_out != ICM20602_DEV_ID)
 208:Device/Dev_ICM20602.c ****     {
 209:Device/Dev_ICM20602.c ****         Obj->error = ICM20602_DevID_Error;
 210:Device/Dev_ICM20602.c ****         return false;
 211:Device/Dev_ICM20602.c ****     }
 212:Device/Dev_ICM20602.c **** 
 213:Device/Dev_ICM20602.c ****     /* set oscillator clock */
 214:Device/Dev_ICM20602.c ****     DevICM20602_Reg_Write(Obj, ICM20602_PWR_MGMT_1, 0x01);
 215:Device/Dev_ICM20602.c ****     Obj->delay(10);
 216:Device/Dev_ICM20602.c **** 
 217:Device/Dev_ICM20602.c ****     DevICM20602_Reg_Read(Obj, ICM20602_PWR_MGMT_1, &read_out);
 218:Device/Dev_ICM20602.c ****     if (read_out != 0x01)
 219:Device/Dev_ICM20602.c ****     {
 220:Device/Dev_ICM20602.c ****         Obj->error = ICM20602_OSC_Error;
 221:Device/Dev_ICM20602.c ****         return false;
 222:Device/Dev_ICM20602.c ****     }
 223:Device/Dev_ICM20602.c **** 
 224:Device/Dev_ICM20602.c ****     /* enable gyro and acc */
 225:Device/Dev_ICM20602.c ****     DevICM20602_Reg_Write(Obj, ICM20602_PWR_MGMT_2, 0x00);
 226:Device/Dev_ICM20602.c ****     Obj->delay(10);
 227:Device/Dev_ICM20602.c **** 
 228:Device/Dev_ICM20602.c ****     DevICM20602_Reg_Read(Obj, ICM20602_PWR_MGMT_2, &read_out);
 229:Device/Dev_ICM20602.c ****     if (read_out != 0x00)
 230:Device/Dev_ICM20602.c ****     {
 231:Device/Dev_ICM20602.c ****         Obj->error = ICM20602_InertialEnable_Error;
 232:Device/Dev_ICM20602.c ****         return false;
 233:Device/Dev_ICM20602.c ****     }
 234:Device/Dev_ICM20602.c **** 
 235:Device/Dev_ICM20602.c ****     /* disable iic interface */
 236:Device/Dev_ICM20602.c ****     DevICM20602_Reg_Write(Obj, ICM20602_I2C_IF, 0x40);
 237:Device/Dev_ICM20602.c ****     Obj->delay(10);
 238:Device/Dev_ICM20602.c **** 
 239:Device/Dev_ICM20602.c ****     DevICM20602_Reg_Read(Obj, ICM20602_I2C_IF, &read_out);
 240:Device/Dev_ICM20602.c ****     if (read_out != 0x40)
 241:Device/Dev_ICM20602.c ****     {
 242:Device/Dev_ICM20602.c ****         Obj->error = ICM20602_InterfaceSet_Error;
 243:Device/Dev_ICM20602.c ****         return false;
 244:Device/Dev_ICM20602.c ****     }
 245:Device/Dev_ICM20602.c **** 
 246:Device/Dev_ICM20602.c ****     /* set sample rate */
ARM GAS  C:\Users\HUAV\AppData\Local\Temp\ccY33UgB.s 			page 13


 247:Device/Dev_ICM20602.c ****     DevICM20602_Reg_Write(Obj, ICM20602_SMPLRT_DIV, Obj->rate);
 248:Device/Dev_ICM20602.c ****     Obj->delay(10);
 249:Device/Dev_ICM20602.c **** 
 250:Device/Dev_ICM20602.c ****     DevICM20602_Reg_Read(Obj, ICM20602_SMPLRT_DIV, &read_out);
 251:Device/Dev_ICM20602.c ****     if (read_out != Obj->rate)
 252:Device/Dev_ICM20602.c ****     {
 253:Device/Dev_ICM20602.c ****         Obj->error = ICM20602_RateSet_Error;
 254:Device/Dev_ICM20602.c ****         return false;
 255:Device/Dev_ICM20602.c ****     }
 256:Device/Dev_ICM20602.c **** 
 257:Device/Dev_ICM20602.c ****     /* set acc trip */
 258:Device/Dev_ICM20602.c ****     DevICM20602_Reg_Write(Obj, ICM20602_ACCEL_CONFIG, Obj->AccTrip);
 259:Device/Dev_ICM20602.c ****     Obj->delay(10);
 260:Device/Dev_ICM20602.c **** 
 261:Device/Dev_ICM20602.c ****     DevICM20602_Reg_Read(Obj, ICM20602_ACCEL_CONFIG, &read_out);
 262:Device/Dev_ICM20602.c ****     if (read_out != Obj->AccTrip)
 263:Device/Dev_ICM20602.c ****     {
 264:Device/Dev_ICM20602.c ****         Obj->error = ICM20602_AccSet_Error;
 265:Device/Dev_ICM20602.c ****         return false;
 266:Device/Dev_ICM20602.c ****     }
 267:Device/Dev_ICM20602.c **** 
 268:Device/Dev_ICM20602.c ****     /* set gyr trip */
 269:Device/Dev_ICM20602.c ****     DevICM20602_Reg_Write(Obj, ICM20602_GYRO_CONFIG, Obj->GyrTrip);
 270:Device/Dev_ICM20602.c ****     Obj->delay(10);
 271:Device/Dev_ICM20602.c **** 
 272:Device/Dev_ICM20602.c ****     DevICM20602_Reg_Read(Obj, ICM20602_GYRO_CONFIG, &read_out);
 273:Device/Dev_ICM20602.c ****     if (read_out != Obj->GyrTrip)
 274:Device/Dev_ICM20602.c ****     {
 275:Device/Dev_ICM20602.c ****         Obj->error = ICM20602_GyrSet_Error;
 276:Device/Dev_ICM20602.c ****         return false;
 277:Device/Dev_ICM20602.c ****     }
 278:Device/Dev_ICM20602.c **** 
 279:Device/Dev_ICM20602.c ****     /* enable odr int output */
 280:Device/Dev_ICM20602.c ****     DevICM20602_Reg_Write(Obj, ICM20602_INT_PIN_CFG, 0x60);
 281:Device/Dev_ICM20602.c ****     Obj->delay(10);
 282:Device/Dev_ICM20602.c **** 
 283:Device/Dev_ICM20602.c ****     DevICM20602_Reg_Read(Obj, ICM20602_INT_PIN_CFG, &read_out);
 284:Device/Dev_ICM20602.c ****     if (read_out != 0x60)
 285:Device/Dev_ICM20602.c ****     {
 286:Device/Dev_ICM20602.c ****         Obj->error = ICM20602_GyrSet_Error;
 287:Device/Dev_ICM20602.c ****         return false;
 288:Device/Dev_ICM20602.c ****     }
 289:Device/Dev_ICM20602.c **** 
 290:Device/Dev_ICM20602.c ****     return true;
 291:Device/Dev_ICM20602.c **** }
 292:Device/Dev_ICM20602.c **** 
 293:Device/Dev_ICM20602.c **** static void DevICM20602_SetDRDY(DevICM20602Obj_TypeDef *Obj)
 294:Device/Dev_ICM20602.c **** {
 426              		.loc 1 294 1 is_stmt 1 view -0
 427              		.cfi_startproc
 428              		@ args = 0, pretend = 0, frame = 0
 429              		@ frame_needed = 0, uses_anonymous_args = 0
 430              		@ link register save eliminated.
 295:Device/Dev_ICM20602.c ****     Obj->drdy = true;
 431              		.loc 1 295 5 view .LVU116
 432              		.loc 1 295 15 is_stmt 0 view .LVU117
 433 0000 0123     		movs	r3, #1
ARM GAS  C:\Users\HUAV\AppData\Local\Temp\ccY33UgB.s 			page 14


 434 0002 0374     		strb	r3, [r0, #16]
 296:Device/Dev_ICM20602.c **** }
 435              		.loc 1 296 1 view .LVU118
 436 0004 7047     		bx	lr
 437              		.cfi_endproc
 438              	.LFE6:
 440              		.section	.text.DevICM20602_SwReset,"ax",%progbits
 441              		.align	1
 442              		.syntax unified
 443              		.thumb
 444              		.thumb_func
 445              		.fpu fpv5-d16
 447              	DevICM20602_SwReset:
 448              	.LVL27:
 449              	.LFB7:
 297:Device/Dev_ICM20602.c **** 
 298:Device/Dev_ICM20602.c **** static bool DevICM20602_SwReset(DevICM20602Obj_TypeDef *Obj)
 299:Device/Dev_ICM20602.c **** {
 450              		.loc 1 299 1 is_stmt 1 view -0
 451              		.cfi_startproc
 452              		@ args = 0, pretend = 0, frame = 0
 453              		@ frame_needed = 0, uses_anonymous_args = 0
 454              		.loc 1 299 1 is_stmt 0 view .LVU120
 455 0000 10B5     		push	{r4, lr}
 456              	.LCFI11:
 457              		.cfi_def_cfa_offset 8
 458              		.cfi_offset 4, -8
 459              		.cfi_offset 14, -4
 460 0002 0446     		mov	r4, r0
 300:Device/Dev_ICM20602.c ****     uint8_t read_out = 0;
 461              		.loc 1 300 5 is_stmt 1 view .LVU121
 462              	.LVL28:
 301:Device/Dev_ICM20602.c ****     uint64_t reset_UsRt = 0;
 463              		.loc 1 301 5 view .LVU122
 302:Device/Dev_ICM20602.c **** 
 303:Device/Dev_ICM20602.c ****     DevICM20602_Reg_Write(Obj, ICM20602_PWR_MGMT_1, ICM20602_RESET_CMD);
 464              		.loc 1 303 5 view .LVU123
 465 0004 8022     		movs	r2, #128
 466 0006 6B21     		movs	r1, #107
 467 0008 FFF7FEFF 		bl	DevICM20602_Reg_Write
 468              	.LVL29:
 304:Device/Dev_ICM20602.c ****     Obj->delay(20);
 469              		.loc 1 304 5 view .LVU124
 470              		.loc 1 304 8 is_stmt 0 view .LVU125
 471 000c A368     		ldr	r3, [r4, #8]
 472              		.loc 1 304 5 view .LVU126
 473 000e 1420     		movs	r0, #20
 474 0010 9847     		blx	r3
 475              	.LVL30:
 305:Device/Dev_ICM20602.c ****     reset_UsRt = Obj->get_timestamp();
 476              		.loc 1 305 5 is_stmt 1 view .LVU127
 477              		.loc 1 305 21 is_stmt 0 view .LVU128
 478 0012 E368     		ldr	r3, [r4, #12]
 479              		.loc 1 305 18 view .LVU129
 480 0014 9847     		blx	r3
 481              	.LVL31:
 306:Device/Dev_ICM20602.c **** 
ARM GAS  C:\Users\HUAV\AppData\Local\Temp\ccY33UgB.s 			page 15


 307:Device/Dev_ICM20602.c ****     // do
 308:Device/Dev_ICM20602.c ****     // {
 309:Device/Dev_ICM20602.c ****     //     if ((Obj->get_timestamp() - reset_UsRt) >= ICM20602_RESET_TIMEOUT)
 310:Device/Dev_ICM20602.c ****     //         return false;
 311:Device/Dev_ICM20602.c **** 
 312:Device/Dev_ICM20602.c ****     //     DevICM20602_Reg_Read(Obj, ICM20602_PWR_MGMT_1, &read_out);
 313:Device/Dev_ICM20602.c ****     // } while (ICM20602_RESET_SUCCESS != read_out);
 314:Device/Dev_ICM20602.c **** 
 315:Device/Dev_ICM20602.c ****     return true;
 482              		.loc 1 315 5 is_stmt 1 view .LVU130
 316:Device/Dev_ICM20602.c **** }
 483              		.loc 1 316 1 is_stmt 0 view .LVU131
 484 0016 0120     		movs	r0, #1
 485 0018 10BD     		pop	{r4, pc}
 486              		.loc 1 316 1 view .LVU132
 487              		.cfi_endproc
 488              	.LFE7:
 490              		.section	.text.DevICM20602_Init,"ax",%progbits
 491              		.align	1
 492              		.syntax unified
 493              		.thumb
 494              		.thumb_func
 495              		.fpu fpv5-d16
 497              	DevICM20602_Init:
 498              	.LVL32:
 499              	.LFB5:
 186:Device/Dev_ICM20602.c ****     uint8_t read_out = 0;
 500              		.loc 1 186 1 is_stmt 1 view -0
 501              		.cfi_startproc
 502              		@ args = 0, pretend = 0, frame = 8
 503              		@ frame_needed = 0, uses_anonymous_args = 0
 186:Device/Dev_ICM20602.c ****     uint8_t read_out = 0;
 504              		.loc 1 186 1 is_stmt 0 view .LVU134
 505 0000 70B5     		push	{r4, r5, r6, lr}
 506              	.LCFI12:
 507              		.cfi_def_cfa_offset 16
 508              		.cfi_offset 4, -16
 509              		.cfi_offset 5, -12
 510              		.cfi_offset 6, -8
 511              		.cfi_offset 14, -4
 512 0002 82B0     		sub	sp, sp, #8
 513              	.LCFI13:
 514              		.cfi_def_cfa_offset 24
 187:Device/Dev_ICM20602.c **** 
 515              		.loc 1 187 5 is_stmt 1 view .LVU135
 187:Device/Dev_ICM20602.c **** 
 516              		.loc 1 187 13 is_stmt 0 view .LVU136
 517 0004 0023     		movs	r3, #0
 518 0006 8DF80730 		strb	r3, [sp, #7]
 189:Device/Dev_ICM20602.c ****         (Obj->bus_trans == NULL) ||
 519              		.loc 1 189 5 is_stmt 1 view .LVU137
 189:Device/Dev_ICM20602.c ****         (Obj->bus_trans == NULL) ||
 520              		.loc 1 189 8 is_stmt 0 view .LVU138
 521 000a 0446     		mov	r4, r0
 522 000c 50B1     		cbz	r0, .L35
 190:Device/Dev_ICM20602.c ****         (Obj->cs_ctl == NULL))
 523              		.loc 1 190 13 discriminator 1 view .LVU139
ARM GAS  C:\Users\HUAV\AppData\Local\Temp\ccY33UgB.s 			page 16


 524 000e 4368     		ldr	r3, [r0, #4]
 189:Device/Dev_ICM20602.c ****         (Obj->bus_trans == NULL) ||
 525              		.loc 1 189 23 discriminator 1 view .LVU140
 526 0010 43B1     		cbz	r3, .L35
 191:Device/Dev_ICM20602.c ****     {
 527              		.loc 1 191 13 view .LVU141
 528 0012 0368     		ldr	r3, [r0]
 190:Device/Dev_ICM20602.c ****         (Obj->cs_ctl == NULL))
 529              		.loc 1 190 34 view .LVU142
 530 0014 33B1     		cbz	r3, .L35
 198:Device/Dev_ICM20602.c ****     {
 531              		.loc 1 198 5 is_stmt 1 view .LVU143
 198:Device/Dev_ICM20602.c ****     {
 532              		.loc 1 198 10 is_stmt 0 view .LVU144
 533 0016 FFF7FEFF 		bl	DevICM20602_SwReset
 534              	.LVL33:
 198:Device/Dev_ICM20602.c ****     {
 535              		.loc 1 198 8 view .LVU145
 536 001a 48B9     		cbnz	r0, .L38
 200:Device/Dev_ICM20602.c ****         return false;
 537              		.loc 1 200 9 is_stmt 1 view .LVU146
 200:Device/Dev_ICM20602.c ****         return false;
 538              		.loc 1 200 20 is_stmt 0 view .LVU147
 539 001c 0323     		movs	r3, #3
 540 001e 2377     		strb	r3, [r4, #28]
 201:Device/Dev_ICM20602.c ****     }
 541              		.loc 1 201 9 is_stmt 1 view .LVU148
 201:Device/Dev_ICM20602.c ****     }
 542              		.loc 1 201 16 is_stmt 0 view .LVU149
 543 0020 0025     		movs	r5, #0
 544 0022 02E0     		b	.L37
 545              	.LVL34:
 546              	.L35:
 193:Device/Dev_ICM20602.c ****         return false;
 547              		.loc 1 193 9 is_stmt 1 view .LVU150
 193:Device/Dev_ICM20602.c ****         return false;
 548              		.loc 1 193 20 is_stmt 0 view .LVU151
 549 0024 0123     		movs	r3, #1
 550 0026 2377     		strb	r3, [r4, #28]
 194:Device/Dev_ICM20602.c ****     }
 551              		.loc 1 194 9 is_stmt 1 view .LVU152
 194:Device/Dev_ICM20602.c ****     }
 552              		.loc 1 194 16 is_stmt 0 view .LVU153
 553 0028 0025     		movs	r5, #0
 554              	.LVL35:
 555              	.L37:
 291:Device/Dev_ICM20602.c **** 
 556              		.loc 1 291 1 view .LVU154
 557 002a 2846     		mov	r0, r5
 558 002c 02B0     		add	sp, sp, #8
 559              	.LCFI14:
 560              		.cfi_remember_state
 561              		.cfi_def_cfa_offset 16
 562              		@ sp needed
 563 002e 70BD     		pop	{r4, r5, r6, pc}
 564              	.LVL36:
 565              	.L38:
ARM GAS  C:\Users\HUAV\AppData\Local\Temp\ccY33UgB.s 			page 17


 566              	.LCFI15:
 567              		.cfi_restore_state
 204:Device/Dev_ICM20602.c ****     Obj->delay(10);
 568              		.loc 1 204 5 is_stmt 1 view .LVU155
 569 0030 0DF10702 		add	r2, sp, #7
 570 0034 7521     		movs	r1, #117
 571 0036 2046     		mov	r0, r4
 572 0038 FFF7FEFF 		bl	DevICM20602_Reg_Read
 573              	.LVL37:
 205:Device/Dev_ICM20602.c **** 
 574              		.loc 1 205 5 view .LVU156
 205:Device/Dev_ICM20602.c **** 
 575              		.loc 1 205 8 is_stmt 0 view .LVU157
 576 003c A368     		ldr	r3, [r4, #8]
 205:Device/Dev_ICM20602.c **** 
 577              		.loc 1 205 5 view .LVU158
 578 003e 0A20     		movs	r0, #10
 579 0040 9847     		blx	r3
 580              	.LVL38:
 207:Device/Dev_ICM20602.c ****     {
 581              		.loc 1 207 5 is_stmt 1 view .LVU159
 207:Device/Dev_ICM20602.c ****     {
 582              		.loc 1 207 18 is_stmt 0 view .LVU160
 583 0042 9DF80730 		ldrb	r3, [sp, #7]	@ zero_extendqisi2
 207:Device/Dev_ICM20602.c ****     {
 584              		.loc 1 207 8 view .LVU161
 585 0046 122B     		cmp	r3, #18
 586 0048 03D0     		beq	.L39
 209:Device/Dev_ICM20602.c ****         return false;
 587              		.loc 1 209 9 is_stmt 1 view .LVU162
 209:Device/Dev_ICM20602.c ****         return false;
 588              		.loc 1 209 20 is_stmt 0 view .LVU163
 589 004a 0223     		movs	r3, #2
 590 004c 2377     		strb	r3, [r4, #28]
 210:Device/Dev_ICM20602.c ****     }
 591              		.loc 1 210 9 is_stmt 1 view .LVU164
 210:Device/Dev_ICM20602.c ****     }
 592              		.loc 1 210 16 is_stmt 0 view .LVU165
 593 004e 0025     		movs	r5, #0
 594 0050 EBE7     		b	.L37
 595              	.L39:
 214:Device/Dev_ICM20602.c ****     Obj->delay(10);
 596              		.loc 1 214 5 is_stmt 1 view .LVU166
 597 0052 0122     		movs	r2, #1
 598 0054 6B21     		movs	r1, #107
 599 0056 2046     		mov	r0, r4
 600 0058 FFF7FEFF 		bl	DevICM20602_Reg_Write
 601              	.LVL39:
 215:Device/Dev_ICM20602.c **** 
 602              		.loc 1 215 5 view .LVU167
 215:Device/Dev_ICM20602.c **** 
 603              		.loc 1 215 8 is_stmt 0 view .LVU168
 604 005c A368     		ldr	r3, [r4, #8]
 215:Device/Dev_ICM20602.c **** 
 605              		.loc 1 215 5 view .LVU169
 606 005e 0A20     		movs	r0, #10
 607 0060 9847     		blx	r3
ARM GAS  C:\Users\HUAV\AppData\Local\Temp\ccY33UgB.s 			page 18


 608              	.LVL40:
 217:Device/Dev_ICM20602.c ****     if (read_out != 0x01)
 609              		.loc 1 217 5 is_stmt 1 view .LVU170
 610 0062 0DF10702 		add	r2, sp, #7
 611 0066 6B21     		movs	r1, #107
 612 0068 2046     		mov	r0, r4
 613 006a FFF7FEFF 		bl	DevICM20602_Reg_Read
 614              	.LVL41:
 218:Device/Dev_ICM20602.c ****     {
 615              		.loc 1 218 5 view .LVU171
 218:Device/Dev_ICM20602.c ****     {
 616              		.loc 1 218 18 is_stmt 0 view .LVU172
 617 006e 9DF80760 		ldrb	r6, [sp, #7]	@ zero_extendqisi2
 218:Device/Dev_ICM20602.c ****     {
 618              		.loc 1 218 8 view .LVU173
 619 0072 012E     		cmp	r6, #1
 620 0074 03D0     		beq	.L40
 220:Device/Dev_ICM20602.c ****         return false;
 621              		.loc 1 220 9 is_stmt 1 view .LVU174
 220:Device/Dev_ICM20602.c ****         return false;
 622              		.loc 1 220 20 is_stmt 0 view .LVU175
 623 0076 0423     		movs	r3, #4
 624 0078 2377     		strb	r3, [r4, #28]
 221:Device/Dev_ICM20602.c ****     }
 625              		.loc 1 221 9 is_stmt 1 view .LVU176
 221:Device/Dev_ICM20602.c ****     }
 626              		.loc 1 221 16 is_stmt 0 view .LVU177
 627 007a 0025     		movs	r5, #0
 628 007c D5E7     		b	.L37
 629              	.L40:
 225:Device/Dev_ICM20602.c ****     Obj->delay(10);
 630              		.loc 1 225 5 is_stmt 1 view .LVU178
 631 007e 0022     		movs	r2, #0
 632 0080 6C21     		movs	r1, #108
 633 0082 2046     		mov	r0, r4
 634 0084 FFF7FEFF 		bl	DevICM20602_Reg_Write
 635              	.LVL42:
 226:Device/Dev_ICM20602.c **** 
 636              		.loc 1 226 5 view .LVU179
 226:Device/Dev_ICM20602.c **** 
 637              		.loc 1 226 8 is_stmt 0 view .LVU180
 638 0088 A368     		ldr	r3, [r4, #8]
 226:Device/Dev_ICM20602.c **** 
 639              		.loc 1 226 5 view .LVU181
 640 008a 0A20     		movs	r0, #10
 641 008c 9847     		blx	r3
 642              	.LVL43:
 228:Device/Dev_ICM20602.c ****     if (read_out != 0x00)
 643              		.loc 1 228 5 is_stmt 1 view .LVU182
 644 008e 0DF10702 		add	r2, sp, #7
 645 0092 6C21     		movs	r1, #108
 646 0094 2046     		mov	r0, r4
 647 0096 FFF7FEFF 		bl	DevICM20602_Reg_Read
 648              	.LVL44:
 229:Device/Dev_ICM20602.c ****     {
 649              		.loc 1 229 5 view .LVU183
 229:Device/Dev_ICM20602.c ****     {
ARM GAS  C:\Users\HUAV\AppData\Local\Temp\ccY33UgB.s 			page 19


 650              		.loc 1 229 18 is_stmt 0 view .LVU184
 651 009a 9DF80750 		ldrb	r5, [sp, #7]	@ zero_extendqisi2
 229:Device/Dev_ICM20602.c ****     {
 652              		.loc 1 229 8 view .LVU185
 653 009e 1DB1     		cbz	r5, .L41
 231:Device/Dev_ICM20602.c ****         return false;
 654              		.loc 1 231 9 is_stmt 1 view .LVU186
 231:Device/Dev_ICM20602.c ****         return false;
 655              		.loc 1 231 20 is_stmt 0 view .LVU187
 656 00a0 0523     		movs	r3, #5
 657 00a2 2377     		strb	r3, [r4, #28]
 232:Device/Dev_ICM20602.c ****     }
 658              		.loc 1 232 9 is_stmt 1 view .LVU188
 232:Device/Dev_ICM20602.c ****     }
 659              		.loc 1 232 16 is_stmt 0 view .LVU189
 660 00a4 0025     		movs	r5, #0
 661 00a6 C0E7     		b	.L37
 662              	.L41:
 236:Device/Dev_ICM20602.c ****     Obj->delay(10);
 663              		.loc 1 236 5 is_stmt 1 view .LVU190
 664 00a8 4022     		movs	r2, #64
 665 00aa 7021     		movs	r1, #112
 666 00ac 2046     		mov	r0, r4
 667 00ae FFF7FEFF 		bl	DevICM20602_Reg_Write
 668              	.LVL45:
 237:Device/Dev_ICM20602.c **** 
 669              		.loc 1 237 5 view .LVU191
 237:Device/Dev_ICM20602.c **** 
 670              		.loc 1 237 8 is_stmt 0 view .LVU192
 671 00b2 A368     		ldr	r3, [r4, #8]
 237:Device/Dev_ICM20602.c **** 
 672              		.loc 1 237 5 view .LVU193
 673 00b4 0A20     		movs	r0, #10
 674 00b6 9847     		blx	r3
 675              	.LVL46:
 239:Device/Dev_ICM20602.c ****     if (read_out != 0x40)
 676              		.loc 1 239 5 is_stmt 1 view .LVU194
 677 00b8 0DF10702 		add	r2, sp, #7
 678 00bc 7021     		movs	r1, #112
 679 00be 2046     		mov	r0, r4
 680 00c0 FFF7FEFF 		bl	DevICM20602_Reg_Read
 681              	.LVL47:
 240:Device/Dev_ICM20602.c ****     {
 682              		.loc 1 240 5 view .LVU195
 240:Device/Dev_ICM20602.c ****     {
 683              		.loc 1 240 18 is_stmt 0 view .LVU196
 684 00c4 9DF80730 		ldrb	r3, [sp, #7]	@ zero_extendqisi2
 240:Device/Dev_ICM20602.c ****     {
 685              		.loc 1 240 8 view .LVU197
 686 00c8 402B     		cmp	r3, #64
 687 00ca 02D0     		beq	.L42
 242:Device/Dev_ICM20602.c ****         return false;
 688              		.loc 1 242 9 is_stmt 1 view .LVU198
 242:Device/Dev_ICM20602.c ****         return false;
 689              		.loc 1 242 20 is_stmt 0 view .LVU199
 690 00cc 0623     		movs	r3, #6
 691 00ce 2377     		strb	r3, [r4, #28]
ARM GAS  C:\Users\HUAV\AppData\Local\Temp\ccY33UgB.s 			page 20


 243:Device/Dev_ICM20602.c ****     }
 692              		.loc 1 243 9 is_stmt 1 view .LVU200
 243:Device/Dev_ICM20602.c ****     }
 693              		.loc 1 243 16 is_stmt 0 view .LVU201
 694 00d0 ABE7     		b	.L37
 695              	.L42:
 247:Device/Dev_ICM20602.c ****     Obj->delay(10);
 696              		.loc 1 247 5 is_stmt 1 view .LVU202
 697 00d2 627F     		ldrb	r2, [r4, #29]	@ zero_extendqisi2
 698 00d4 1921     		movs	r1, #25
 699 00d6 2046     		mov	r0, r4
 700 00d8 FFF7FEFF 		bl	DevICM20602_Reg_Write
 701              	.LVL48:
 248:Device/Dev_ICM20602.c **** 
 702              		.loc 1 248 5 view .LVU203
 248:Device/Dev_ICM20602.c **** 
 703              		.loc 1 248 8 is_stmt 0 view .LVU204
 704 00dc A368     		ldr	r3, [r4, #8]
 248:Device/Dev_ICM20602.c **** 
 705              		.loc 1 248 5 view .LVU205
 706 00de 0A20     		movs	r0, #10
 707 00e0 9847     		blx	r3
 708              	.LVL49:
 250:Device/Dev_ICM20602.c ****     if (read_out != Obj->rate)
 709              		.loc 1 250 5 is_stmt 1 view .LVU206
 710 00e2 0DF10702 		add	r2, sp, #7
 711 00e6 1921     		movs	r1, #25
 712 00e8 2046     		mov	r0, r4
 713 00ea FFF7FEFF 		bl	DevICM20602_Reg_Read
 714              	.LVL50:
 251:Device/Dev_ICM20602.c ****     {
 715              		.loc 1 251 5 view .LVU207
 251:Device/Dev_ICM20602.c ****     {
 716              		.loc 1 251 24 is_stmt 0 view .LVU208
 717 00ee 627F     		ldrb	r2, [r4, #29]	@ zero_extendqisi2
 251:Device/Dev_ICM20602.c ****     {
 718              		.loc 1 251 18 view .LVU209
 719 00f0 9DF80730 		ldrb	r3, [sp, #7]	@ zero_extendqisi2
 251:Device/Dev_ICM20602.c ****     {
 720              		.loc 1 251 8 view .LVU210
 721 00f4 9A42     		cmp	r2, r3
 722 00f6 02D0     		beq	.L43
 253:Device/Dev_ICM20602.c ****         return false;
 723              		.loc 1 253 9 is_stmt 1 view .LVU211
 253:Device/Dev_ICM20602.c ****         return false;
 724              		.loc 1 253 20 is_stmt 0 view .LVU212
 725 00f8 0923     		movs	r3, #9
 726 00fa 2377     		strb	r3, [r4, #28]
 254:Device/Dev_ICM20602.c ****     }
 727              		.loc 1 254 9 is_stmt 1 view .LVU213
 254:Device/Dev_ICM20602.c ****     }
 728              		.loc 1 254 16 is_stmt 0 view .LVU214
 729 00fc 95E7     		b	.L37
 730              	.L43:
 258:Device/Dev_ICM20602.c ****     Obj->delay(10);
 731              		.loc 1 258 5 is_stmt 1 view .LVU215
 732 00fe A27C     		ldrb	r2, [r4, #18]	@ zero_extendqisi2
ARM GAS  C:\Users\HUAV\AppData\Local\Temp\ccY33UgB.s 			page 21


 733 0100 1C21     		movs	r1, #28
 734 0102 2046     		mov	r0, r4
 735 0104 FFF7FEFF 		bl	DevICM20602_Reg_Write
 736              	.LVL51:
 259:Device/Dev_ICM20602.c **** 
 737              		.loc 1 259 5 view .LVU216
 259:Device/Dev_ICM20602.c **** 
 738              		.loc 1 259 8 is_stmt 0 view .LVU217
 739 0108 A368     		ldr	r3, [r4, #8]
 259:Device/Dev_ICM20602.c **** 
 740              		.loc 1 259 5 view .LVU218
 741 010a 0A20     		movs	r0, #10
 742 010c 9847     		blx	r3
 743              	.LVL52:
 261:Device/Dev_ICM20602.c ****     if (read_out != Obj->AccTrip)
 744              		.loc 1 261 5 is_stmt 1 view .LVU219
 745 010e 0DF10702 		add	r2, sp, #7
 746 0112 1C21     		movs	r1, #28
 747 0114 2046     		mov	r0, r4
 748 0116 FFF7FEFF 		bl	DevICM20602_Reg_Read
 749              	.LVL53:
 262:Device/Dev_ICM20602.c ****     {
 750              		.loc 1 262 5 view .LVU220
 262:Device/Dev_ICM20602.c ****     {
 751              		.loc 1 262 24 is_stmt 0 view .LVU221
 752 011a A27C     		ldrb	r2, [r4, #18]	@ zero_extendqisi2
 262:Device/Dev_ICM20602.c ****     {
 753              		.loc 1 262 18 view .LVU222
 754 011c 9DF80730 		ldrb	r3, [sp, #7]	@ zero_extendqisi2
 262:Device/Dev_ICM20602.c ****     {
 755              		.loc 1 262 8 view .LVU223
 756 0120 9A42     		cmp	r2, r3
 757 0122 02D0     		beq	.L44
 264:Device/Dev_ICM20602.c ****         return false;
 758              		.loc 1 264 9 is_stmt 1 view .LVU224
 264:Device/Dev_ICM20602.c ****         return false;
 759              		.loc 1 264 20 is_stmt 0 view .LVU225
 760 0124 0723     		movs	r3, #7
 761 0126 2377     		strb	r3, [r4, #28]
 265:Device/Dev_ICM20602.c ****     }
 762              		.loc 1 265 9 is_stmt 1 view .LVU226
 265:Device/Dev_ICM20602.c ****     }
 763              		.loc 1 265 16 is_stmt 0 view .LVU227
 764 0128 7FE7     		b	.L37
 765              	.L44:
 269:Device/Dev_ICM20602.c ****     Obj->delay(10);
 766              		.loc 1 269 5 is_stmt 1 view .LVU228
 767 012a E27C     		ldrb	r2, [r4, #19]	@ zero_extendqisi2
 768 012c 1B21     		movs	r1, #27
 769 012e 2046     		mov	r0, r4
 770 0130 FFF7FEFF 		bl	DevICM20602_Reg_Write
 771              	.LVL54:
 270:Device/Dev_ICM20602.c **** 
 772              		.loc 1 270 5 view .LVU229
 270:Device/Dev_ICM20602.c **** 
 773              		.loc 1 270 8 is_stmt 0 view .LVU230
 774 0134 A368     		ldr	r3, [r4, #8]
ARM GAS  C:\Users\HUAV\AppData\Local\Temp\ccY33UgB.s 			page 22


 270:Device/Dev_ICM20602.c **** 
 775              		.loc 1 270 5 view .LVU231
 776 0136 0A20     		movs	r0, #10
 777 0138 9847     		blx	r3
 778              	.LVL55:
 272:Device/Dev_ICM20602.c ****     if (read_out != Obj->GyrTrip)
 779              		.loc 1 272 5 is_stmt 1 view .LVU232
 780 013a 0DF10702 		add	r2, sp, #7
 781 013e 1B21     		movs	r1, #27
 782 0140 2046     		mov	r0, r4
 783 0142 FFF7FEFF 		bl	DevICM20602_Reg_Read
 784              	.LVL56:
 273:Device/Dev_ICM20602.c ****     {
 785              		.loc 1 273 5 view .LVU233
 273:Device/Dev_ICM20602.c ****     {
 786              		.loc 1 273 24 is_stmt 0 view .LVU234
 787 0146 E27C     		ldrb	r2, [r4, #19]	@ zero_extendqisi2
 273:Device/Dev_ICM20602.c ****     {
 788              		.loc 1 273 18 view .LVU235
 789 0148 9DF80730 		ldrb	r3, [sp, #7]	@ zero_extendqisi2
 273:Device/Dev_ICM20602.c ****     {
 790              		.loc 1 273 8 view .LVU236
 791 014c 9A42     		cmp	r2, r3
 792 014e 02D0     		beq	.L45
 275:Device/Dev_ICM20602.c ****         return false;
 793              		.loc 1 275 9 is_stmt 1 view .LVU237
 275:Device/Dev_ICM20602.c ****         return false;
 794              		.loc 1 275 20 is_stmt 0 view .LVU238
 795 0150 0823     		movs	r3, #8
 796 0152 2377     		strb	r3, [r4, #28]
 276:Device/Dev_ICM20602.c ****     }
 797              		.loc 1 276 9 is_stmt 1 view .LVU239
 276:Device/Dev_ICM20602.c ****     }
 798              		.loc 1 276 16 is_stmt 0 view .LVU240
 799 0154 69E7     		b	.L37
 800              	.L45:
 280:Device/Dev_ICM20602.c ****     Obj->delay(10);
 801              		.loc 1 280 5 is_stmt 1 view .LVU241
 802 0156 6022     		movs	r2, #96
 803 0158 3721     		movs	r1, #55
 804 015a 2046     		mov	r0, r4
 805 015c FFF7FEFF 		bl	DevICM20602_Reg_Write
 806              	.LVL57:
 281:Device/Dev_ICM20602.c **** 
 807              		.loc 1 281 5 view .LVU242
 281:Device/Dev_ICM20602.c **** 
 808              		.loc 1 281 8 is_stmt 0 view .LVU243
 809 0160 A368     		ldr	r3, [r4, #8]
 281:Device/Dev_ICM20602.c **** 
 810              		.loc 1 281 5 view .LVU244
 811 0162 0A20     		movs	r0, #10
 812 0164 9847     		blx	r3
 813              	.LVL58:
 283:Device/Dev_ICM20602.c ****     if (read_out != 0x60)
 814              		.loc 1 283 5 is_stmt 1 view .LVU245
 815 0166 0DF10702 		add	r2, sp, #7
 816 016a 3721     		movs	r1, #55
ARM GAS  C:\Users\HUAV\AppData\Local\Temp\ccY33UgB.s 			page 23


 817 016c 2046     		mov	r0, r4
 818 016e FFF7FEFF 		bl	DevICM20602_Reg_Read
 819              	.LVL59:
 284:Device/Dev_ICM20602.c ****     {
 820              		.loc 1 284 5 view .LVU246
 284:Device/Dev_ICM20602.c ****     {
 821              		.loc 1 284 18 is_stmt 0 view .LVU247
 822 0172 9DF80730 		ldrb	r3, [sp, #7]	@ zero_extendqisi2
 284:Device/Dev_ICM20602.c ****     {
 823              		.loc 1 284 8 view .LVU248
 824 0176 602B     		cmp	r3, #96
 825 0178 02D0     		beq	.L46
 286:Device/Dev_ICM20602.c ****         return false;
 826              		.loc 1 286 9 is_stmt 1 view .LVU249
 286:Device/Dev_ICM20602.c ****         return false;
 827              		.loc 1 286 20 is_stmt 0 view .LVU250
 828 017a 0823     		movs	r3, #8
 829 017c 2377     		strb	r3, [r4, #28]
 287:Device/Dev_ICM20602.c ****     }
 830              		.loc 1 287 9 is_stmt 1 view .LVU251
 287:Device/Dev_ICM20602.c ****     }
 831              		.loc 1 287 16 is_stmt 0 view .LVU252
 832 017e 54E7     		b	.L37
 833              	.L46:
 290:Device/Dev_ICM20602.c **** }
 834              		.loc 1 290 12 view .LVU253
 835 0180 3546     		mov	r5, r6
 836 0182 52E7     		b	.L37
 837              		.cfi_endproc
 838              	.LFE5:
 840              		.section	.text.DevICM20602_GetReady,"ax",%progbits
 841              		.align	1
 842              		.syntax unified
 843              		.thumb
 844              		.thumb_func
 845              		.fpu fpv5-d16
 847              	DevICM20602_GetReady:
 848              	.LVL60:
 849              	.LFB8:
 317:Device/Dev_ICM20602.c **** 
 318:Device/Dev_ICM20602.c **** static bool DevICM20602_GetReady(DevICM20602Obj_TypeDef *Obj)
 319:Device/Dev_ICM20602.c **** {
 850              		.loc 1 319 1 is_stmt 1 view -0
 851              		.cfi_startproc
 852              		@ args = 0, pretend = 0, frame = 0
 853              		@ frame_needed = 0, uses_anonymous_args = 0
 854              		@ link register save eliminated.
 320:Device/Dev_ICM20602.c ****     return Obj->drdy;
 855              		.loc 1 320 5 view .LVU255
 321:Device/Dev_ICM20602.c **** }
 856              		.loc 1 321 1 is_stmt 0 view .LVU256
 857 0000 007C     		ldrb	r0, [r0, #16]	@ zero_extendqisi2
 858              	.LVL61:
 859              		.loc 1 321 1 view .LVU257
 860 0002 7047     		bx	lr
 861              		.cfi_endproc
 862              	.LFE8:
ARM GAS  C:\Users\HUAV\AppData\Local\Temp\ccY33UgB.s 			page 24


 864              		.section	.text.DevICM20602_Sample,"ax",%progbits
 865              		.align	1
 866              		.syntax unified
 867              		.thumb
 868              		.thumb_func
 869              		.fpu fpv5-d16
 871              	DevICM20602_Sample:
 872              	.LVL62:
 873              	.LFB9:
 322:Device/Dev_ICM20602.c **** 
 323:Device/Dev_ICM20602.c **** static bool DevICM20602_Sample(DevICM20602Obj_TypeDef *Obj)
 324:Device/Dev_ICM20602.c **** {
 874              		.loc 1 324 1 is_stmt 1 view -0
 875              		.cfi_startproc
 876              		@ args = 0, pretend = 0, frame = 0
 877              		@ frame_needed = 0, uses_anonymous_args = 0
 878              		@ link register save eliminated.
 325:Device/Dev_ICM20602.c ****     if (Obj == NULL)
 879              		.loc 1 325 5 view .LVU259
 880              		.loc 1 325 8 is_stmt 0 view .LVU260
 881 0000 08B1     		cbz	r0, .L51
 326:Device/Dev_ICM20602.c ****         return false;
 327:Device/Dev_ICM20602.c **** 
 328:Device/Dev_ICM20602.c ****     return true;
 882              		.loc 1 328 12 view .LVU261
 883 0002 0120     		movs	r0, #1
 884              	.LVL63:
 885              		.loc 1 328 12 view .LVU262
 886 0004 7047     		bx	lr
 887              	.LVL64:
 888              	.L51:
 326:Device/Dev_ICM20602.c ****         return false;
 889              		.loc 1 326 16 view .LVU263
 890 0006 0020     		movs	r0, #0
 891              	.LVL65:
 329:Device/Dev_ICM20602.c **** }
 892              		.loc 1 329 1 view .LVU264
 893 0008 7047     		bx	lr
 894              		.cfi_endproc
 895              	.LFE9:
 897              		.section	.text.DevICM20602_Get_InitError,"ax",%progbits
 898              		.align	1
 899              		.syntax unified
 900              		.thumb
 901              		.thumb_func
 902              		.fpu fpv5-d16
 904              	DevICM20602_Get_InitError:
 905              	.LVL66:
 906              	.LFB11:
 330:Device/Dev_ICM20602.c **** 
 331:Device/Dev_ICM20602.c **** static IMUData_TypeDef DevICM20602_Get_Data(DevICM20602Obj_TypeDef *Obj)
 332:Device/Dev_ICM20602.c **** {
 333:Device/Dev_ICM20602.c ****     IMUData_TypeDef tmp;
 334:Device/Dev_ICM20602.c ****     memset(&tmp, NULL, sizeof(tmp));
 335:Device/Dev_ICM20602.c **** 
 336:Device/Dev_ICM20602.c ****     if ((Obj->error == ICM20602_No_Error) && !Obj->update)
 337:Device/Dev_ICM20602.c ****     {
ARM GAS  C:\Users\HUAV\AppData\Local\Temp\ccY33UgB.s 			page 25


 338:Device/Dev_ICM20602.c ****         Obj->drdy = false;
 339:Device/Dev_ICM20602.c ****         return Obj->OriData;
 340:Device/Dev_ICM20602.c ****     }
 341:Device/Dev_ICM20602.c **** 
 342:Device/Dev_ICM20602.c ****     return tmp;
 343:Device/Dev_ICM20602.c **** }
 344:Device/Dev_ICM20602.c **** 
 345:Device/Dev_ICM20602.c **** static ICM20602_Error_List DevICM20602_Get_InitError(DevICM20602Obj_TypeDef *Obj)
 346:Device/Dev_ICM20602.c **** {
 907              		.loc 1 346 1 is_stmt 1 view -0
 908              		.cfi_startproc
 909              		@ args = 0, pretend = 0, frame = 0
 910              		@ frame_needed = 0, uses_anonymous_args = 0
 911              		@ link register save eliminated.
 347:Device/Dev_ICM20602.c ****     return Obj->error;
 912              		.loc 1 347 5 view .LVU266
 348:Device/Dev_ICM20602.c **** }
 913              		.loc 1 348 1 is_stmt 0 view .LVU267
 914 0000 007F     		ldrb	r0, [r0, #28]	@ zero_extendqisi2
 915              	.LVL67:
 916              		.loc 1 348 1 view .LVU268
 917 0002 7047     		bx	lr
 918              		.cfi_endproc
 919              	.LFE11:
 921              		.section	.text.DevICM20602_Get_Scale,"ax",%progbits
 922              		.align	1
 923              		.syntax unified
 924              		.thumb
 925              		.thumb_func
 926              		.fpu fpv5-d16
 928              	DevICM20602_Get_Scale:
 929              	.LFB12:
 349:Device/Dev_ICM20602.c **** 
 350:Device/Dev_ICM20602.c **** static IMUModuleScale_TypeDef DevICM20602_Get_Scale(const DevICM20602Obj_TypeDef Obj)
 351:Device/Dev_ICM20602.c **** {
 930              		.loc 1 351 1 is_stmt 1 view -0
 931              		.cfi_startproc
 932              		@ args = 108, pretend = 16, frame = 24
 933              		@ frame_needed = 0, uses_anonymous_args = 0
 934              		@ link register save eliminated.
 935 0000 84B0     		sub	sp, sp, #16
 936              	.LCFI16:
 937              		.cfi_def_cfa_offset 16
 938 0002 86B0     		sub	sp, sp, #24
 939              	.LCFI17:
 940              		.cfi_def_cfa_offset 40
 941 0004 0DF1180C 		add	ip, sp, #24
 942 0008 8CE80F00 		stm	ip, {r0, r1, r2, r3}
 352:Device/Dev_ICM20602.c ****     IMUModuleScale_TypeDef scale;
 943              		.loc 1 352 5 view .LVU270
 353:Device/Dev_ICM20602.c **** 
 354:Device/Dev_ICM20602.c ****     scale.acc_scale = Obj.acc_scale;
 944              		.loc 1 354 5 view .LVU271
 945              		.loc 1 354 26 is_stmt 0 view .LVU272
 946 000c 0B9B     		ldr	r3, [sp, #44]	@ float
 947              		.loc 1 354 21 view .LVU273
 948 000e 0293     		str	r3, [sp, #8]	@ float
ARM GAS  C:\Users\HUAV\AppData\Local\Temp\ccY33UgB.s 			page 26


 355:Device/Dev_ICM20602.c ****     scale.gyr_scale = Obj.gyr_scale;
 949              		.loc 1 355 5 is_stmt 1 view .LVU274
 950              		.loc 1 355 26 is_stmt 0 view .LVU275
 951 0010 0C9B     		ldr	r3, [sp, #48]	@ float
 952              		.loc 1 355 21 view .LVU276
 953 0012 0393     		str	r3, [sp, #12]	@ float
 356:Device/Dev_ICM20602.c **** 
 357:Device/Dev_ICM20602.c ****     return scale;
 954              		.loc 1 357 5 is_stmt 1 view .LVU277
 955              		.loc 1 357 12 is_stmt 0 view .LVU278
 956 0014 0399     		ldr	r1, [sp, #12]
 957 0016 0298     		ldr	r0, [sp, #8]
 958 0018 4CE90201 		strd	r0, r1, [ip, #-8]
 358:Device/Dev_ICM20602.c **** }...
 959              		.loc 1 358 1 view .LVU279
 960 001c 9DED040A 		vldr.32	s0, [sp, #16]
 961 0020 DDED050A 		vldr.32	s1, [sp, #20]
 962 0024 06B0     		add	sp, sp, #24
 963              	.LCFI18:
 964              		.cfi_def_cfa_offset 16
 965              		@ sp needed
 966 0026 04B0     		add	sp, sp, #16
 967              	.LCFI19:
 968              		.cfi_def_cfa_offset 0
 969 0028 7047     		bx	lr
 970              		.cfi_endproc
 971              	.LFE12:
 973              		.section	.text.DevICM20602_Get_Data,"ax",%progbits
 974              		.align	1
 975              		.syntax unified
 976              		.thumb
 977              		.thumb_func
 978              		.fpu fpv5-d16
 980              	DevICM20602_Get_Data:
 981              	.LVL68:
 982              	.LFB10:
 332:Device/Dev_ICM20602.c **** {
 983              		.loc 1 332 1 is_stmt 1 view -0
 984              		.cfi_startproc
 985              		@ args = 0, pretend = 0, frame = 80
 986              		@ frame_needed = 0, uses_anonymous_args = 0
 332:Device/Dev_ICM20602.c **** {
 987              		.loc 1 332 1 is_stmt 0 view .LVU281
 988 0000 30B5     		push	{r4, r5, lr}
 989              	.LCFI20:
 990              		.cfi_def_cfa_offset 12
 991              		.cfi_offset 4, -12
 992              		.cfi_offset 5, -8
 993              		.cfi_offset 14, -4
 994 0002 95B0     		sub	sp, sp, #84
 995              	.LCFI21:
 996              		.cfi_def_cfa_offset 96
 997 0004 0446     		mov	r4, r0
 998 0006 0D46     		mov	r5, r1
 333:Device/Dev_ICM20602.c ****     IMUData_TypeDef tmp;
 999              		.loc 1 333 5 is_stmt 1 view .LVU282
 334:Device/Dev_ICM20602.c ****     memset(&tmp, NULL, sizeof(tmp));
ARM GAS  C:\Users\HUAV\AppData\Local\Temp\ccY33UgB.s 			page 27


 1000              		.loc 1 334 5 view .LVU283
 1001 0008 4C22     		movs	r2, #76
 1002 000a 0021     		movs	r1, #0
 1003              	.LVL69:
 334:Device/Dev_ICM20602.c ****     memset(&tmp, NULL, sizeof(tmp));
 1004              		.loc 1 334 5 is_stmt 0 view .LVU284
 1005 000c 01A8     		add	r0, sp, #4
 1006              	.LVL70:
 334:Device/Dev_ICM20602.c ****     memset(&tmp, NULL, sizeof(tmp));
 1007              		.loc 1 334 5 view .LVU285
 1008 000e FFF7FEFF 		bl	memset
 1009              	.LVL71:
 336:Device/Dev_ICM20602.c ****     if ((Obj->error == ICM20602_No_Error) && !Obj->update)
 1010              		.loc 1 336 5 is_stmt 1 view .LVU286
 336:Device/Dev_ICM20602.c ****     if ((Obj->error == ICM20602_No_Error) && !Obj->update)
 1011              		.loc 1 336 13 is_stmt 0 view .LVU287
 1012 0012 2B7F     		ldrb	r3, [r5, #28]	@ zero_extendqisi2
 336:Device/Dev_ICM20602.c ****     if ((Obj->error == ICM20602_No_Error) && !Obj->update)
 1013              		.loc 1 336 8 view .LVU288
 1014 0014 0BB9     		cbnz	r3, .L56
 336:Device/Dev_ICM20602.c ****     if ((Obj->error == ICM20602_No_Error) && !Obj->update)
 1015              		.loc 1 336 50 discriminator 1 view .LVU289
 1016 0016 6B7C     		ldrb	r3, [r5, #17]	@ zero_extendqisi2
 336:Device/Dev_ICM20602.c ****     if ((Obj->error == ICM20602_No_Error) && !Obj->update)
 1017              		.loc 1 336 43 discriminator 1 view .LVU290
 1018 0018 3BB1     		cbz	r3, .L59
 1019              	.L56:
 342:Device/Dev_ICM20602.c ****     return tmp;
 1020              		.loc 1 342 5 is_stmt 1 view .LVU291
 342:Device/Dev_ICM20602.c ****     return tmp;
 1021              		.loc 1 342 12 is_stmt 0 view .LVU292
 1022 001a 4C22     		movs	r2, #76
 1023 001c 0021     		movs	r1, #0
 1024 001e 2046     		mov	r0, r4
 1025 0020 FFF7FEFF 		bl	memset
 1026              	.LVL72:
 1027              	.L55:
 343:Device/Dev_ICM20602.c **** }
 1028              		.loc 1 343 1 view .LVU293
 1029 0024 2046     		mov	r0, r4
 1030 0026 15B0     		add	sp, sp, #84
 1031              	.LCFI22:
 1032              		.cfi_remember_state
 1033              		.cfi_def_cfa_offset 12
 1034              		@ sp needed
 1035 0028 30BD     		pop	{r4, r5, pc}
 1036              	.LVL73:
 1037              	.L59:
 1038              	.LCFI23:
 1039              		.cfi_restore_state
 338:Device/Dev_ICM20602.c ****         Obj->drdy = false;
 1040              		.loc 1 338 9 is_stmt 1 view .LVU294
 338:Device/Dev_ICM20602.c ****         Obj->drdy = false;
 1041              		.loc 1 338 19 is_stmt 0 view .LVU295
 1042 002a 2B74     		strb	r3, [r5, #16]
 339:Device/Dev_ICM20602.c ****         return Obj->OriData;
 1043              		.loc 1 339 9 is_stmt 1 view .LVU296
ARM GAS  C:\Users\HUAV\AppData\Local\Temp\ccY33UgB.s 			page 28


 339:Device/Dev_ICM20602.c ****         return Obj->OriData;
 1044              		.loc 1 339 19 is_stmt 0 view .LVU297
 1045 002c 4C22     		movs	r2, #76
 1046 002e 05F11E01 		add	r1, r5, #30
 1047 0032 2046     		mov	r0, r4
 1048 0034 FFF7FEFF 		bl	memcpy
 1049              	.LVL74:
 1050 0038 F4E7     		b	.L55
 1051              		.cfi_endproc
 1052              	.LFE10:
 1054              		.global	DevICM20602
 1055              		.section	.data.DevICM20602,"aw"
 1056              		.align	2
 1059              	DevICM20602:
 1060 0000 00000000 		.word	DevICM20602_Config
 1061 0004 00000000 		.word	DevICM20602_PreInit
 1062 0008 00000000 		.word	DevICM20602_Init
 1063 000c 00000000 		.word	DevICM20602_SetDRDY
 1064 0010 00000000 		.word	DevICM20602_GetReady
 1065 0014 00000000 		.word	DevICM20602_SwReset
 1066 0018 00000000 		.word	DevICM20602_Sample
 1067 001c 00000000 		.word	DevICM20602_Get_Data
 1068 0020 00000000 		.word	DevICM20602_Get_InitError
 1069 0024 00000000 		.word	DevICM20602_Get_Scale
 1070              		.text
 1071              	.Letext0:
 1072              		.file 2 "d:\\software\\zephyr_env_gcc\\gcc-arm-none-eabi-9-2019-q4-major-win32\\arm-none-eabi\\inc
 1073              		.file 3 "d:\\software\\zephyr_env_gcc\\gcc-arm-none-eabi-9-2019-q4-major-win32\\arm-none-eabi\\inc
 1074              		.file 4 "d:\\software\\zephyr_env_gcc\\gcc-arm-none-eabi-9-2019-q4-major-win32\\arm-none-eabi\\inc
 1075              		.file 5 "d:\\software\\zephyr_env_gcc\\gcc-arm-none-eabi-9-2019-q4-major-win32\\arm-none-eabi\\inc
 1076              		.file 6 "d:\\software\\zephyr_env_gcc\\gcc-arm-none-eabi-9-2019-q4-major-win32\\lib\\gcc\\arm-none
 1077              		.file 7 "d:\\software\\zephyr_env_gcc\\gcc-arm-none-eabi-9-2019-q4-major-win32\\arm-none-eabi\\inc
 1078              		.file 8 "Service/imu_data.h"
 1079              		.file 9 "Device/Dev_ICM20602.h"
 1080              		.file 10 "<built-in>"
ARM GAS  C:\Users\HUAV\AppData\Local\Temp\ccY33UgB.s 			page 29


DEFINED SYMBOLS
                            *ABS*:00000000 Dev_ICM20602.c
C:\Users\HUAV\AppData\Local\Temp\ccY33UgB.s:17     .text.DevICM20602_Reg_Read:00000000 $t
C:\Users\HUAV\AppData\Local\Temp\ccY33UgB.s:24     .text.DevICM20602_Reg_Read:00000000 DevICM20602_Reg_Read
C:\Users\HUAV\AppData\Local\Temp\ccY33UgB.s:132    .text.DevICM20602_Reg_Write:00000000 $t
C:\Users\HUAV\AppData\Local\Temp\ccY33UgB.s:138    .text.DevICM20602_Reg_Write:00000000 DevICM20602_Reg_Write
C:\Users\HUAV\AppData\Local\Temp\ccY33UgB.s:235    .text.DevICM20602_Config:00000000 $t
C:\Users\HUAV\AppData\Local\Temp\ccY33UgB.s:241    .text.DevICM20602_Config:00000000 DevICM20602_Config
C:\Users\HUAV\AppData\Local\Temp\ccY33UgB.s:274    .text.DevICM20602_Config:0000001c $d
C:\Users\HUAV\AppData\Local\Temp\ccY33UgB.s:278    .text.DevICM20602_Config:00000020 $t
C:\Users\HUAV\AppData\Local\Temp\ccY33UgB.s:291    .text.DevICM20602_Config:0000002e $d
C:\Users\HUAV\AppData\Local\Temp\ccY33UgB.s:295    .text.DevICM20602_Config:00000032 $t
C:\Users\HUAV\AppData\Local\Temp\ccY33UgB.s:374    .text.DevICM20602_Config:0000006c $d
C:\Users\HUAV\AppData\Local\Temp\ccY33UgB.s:382    .text.DevICM20602_PreInit:00000000 $t
C:\Users\HUAV\AppData\Local\Temp\ccY33UgB.s:388    .text.DevICM20602_PreInit:00000000 DevICM20602_PreInit
C:\Users\HUAV\AppData\Local\Temp\ccY33UgB.s:417    .text.DevICM20602_SetDRDY:00000000 $t
C:\Users\HUAV\AppData\Local\Temp\ccY33UgB.s:423    .text.DevICM20602_SetDRDY:00000000 DevICM20602_SetDRDY
C:\Users\HUAV\AppData\Local\Temp\ccY33UgB.s:441    .text.DevICM20602_SwReset:00000000 $t
C:\Users\HUAV\AppData\Local\Temp\ccY33UgB.s:447    .text.DevICM20602_SwReset:00000000 DevICM20602_SwReset
C:\Users\HUAV\AppData\Local\Temp\ccY33UgB.s:491    .text.DevICM20602_Init:00000000 $t
C:\Users\HUAV\AppData\Local\Temp\ccY33UgB.s:497    .text.DevICM20602_Init:00000000 DevICM20602_Init
C:\Users\HUAV\AppData\Local\Temp\ccY33UgB.s:841    .text.DevICM20602_GetReady:00000000 $t
C:\Users\HUAV\AppData\Local\Temp\ccY33UgB.s:847    .text.DevICM20602_GetReady:00000000 DevICM20602_GetReady
C:\Users\HUAV\AppData\Local\Temp\ccY33UgB.s:865    .text.DevICM20602_Sample:00000000 $t
C:\Users\HUAV\AppData\Local\Temp\ccY33UgB.s:871    .text.DevICM20602_Sample:00000000 DevICM20602_Sample
C:\Users\HUAV\AppData\Local\Temp\ccY33UgB.s:898    .text.DevICM20602_Get_InitError:00000000 $t
C:\Users\HUAV\AppData\Local\Temp\ccY33UgB.s:904    .text.DevICM20602_Get_InitError:00000000 DevICM20602_Get_InitError
C:\Users\HUAV\AppData\Local\Temp\ccY33UgB.s:922    .text.DevICM20602_Get_Scale:00000000 $t
C:\Users\HUAV\AppData\Local\Temp\ccY33UgB.s:928    .text.DevICM20602_Get_Scale:00000000 DevICM20602_Get_Scale
C:\Users\HUAV\AppData\Local\Temp\ccY33UgB.s:974    .text.DevICM20602_Get_Data:00000000 $t
C:\Users\HUAV\AppData\Local\Temp\ccY33UgB.s:980    .text.DevICM20602_Get_Data:00000000 DevICM20602_Get_Data
C:\Users\HUAV\AppData\Local\Temp\ccY33UgB.s:1059   .data.DevICM20602:00000000 DevICM20602
C:\Users\HUAV\AppData\Local\Temp\ccY33UgB.s:1056   .data.DevICM20602:00000000 $d

UNDEFINED SYMBOLS
memset
memcpy
