ARM GAS  C:\Users\8bit\AppData\Local\Temp\ccNctaQJ.s 			page 1


   1              		.cpu cortex-m4
   2              		.arch armv7e-m
   3              		.fpu fpv4-sp-d16
   4              		.eabi_attribute 27, 1
   5              		.eabi_attribute 28, 1
   6              		.eabi_attribute 20, 1
   7              		.eabi_attribute 21, 1
   8              		.eabi_attribute 23, 3
   9              		.eabi_attribute 24, 1
  10              		.eabi_attribute 25, 1
  11              		.eabi_attribute 26, 1
  12              		.eabi_attribute 30, 1
  13              		.eabi_attribute 34, 1
  14              		.eabi_attribute 18, 4
  15              		.file	"Dev_Dshot.c"
  16              		.text
  17              	.Ltext0:
  18              		.cfi_sections	.debug_frame
  19              		.section	.text.DevDshot_GetType_Clock,"ax",%progbits
  20              		.align	1
  21              		.syntax unified
  22              		.thumb
  23              		.thumb_func
  25              	DevDshot_GetType_Clock:
  26              	.LVL0:
  27              	.LFB139:
  28              		.file 1 "Device/Dev_Dshot.c"
   1:Device/Dev_Dshot.c **** #include "Dev_Dshot.h"
   2:Device/Dev_Dshot.c **** #include <math.h>
   3:Device/Dev_Dshot.c **** 
   4:Device/Dev_Dshot.c **** __attribute__((weak)) void *DShot_Malloc(uint32_t size){return NULL;}
   5:Device/Dev_Dshot.c **** __attribute__((weak)) void DShot_Free(void *ptr){return;}
   6:Device/Dev_Dshot.c **** __attribute__((weak)) bool DShot_Port_Init(void *obj, uint32_t prescaler, void *time_ins, uint32_t 
   7:Device/Dev_Dshot.c **** __attribute__((weak)) bool DShot_Port_DeInit(void *obj){return false;}
   8:Device/Dev_Dshot.c **** __attribute__((weak)) void DShot_Port_Trans(void *obj){return;}
   9:Device/Dev_Dshot.c **** __attribute__((weak)) uint32_t DShot_Get_Timer_CLKFreq(void *obj){return 0;}
  10:Device/Dev_Dshot.c **** 
  11:Device/Dev_Dshot.c **** /* external function */
  12:Device/Dev_Dshot.c **** static bool DevDshot_Init(DevDshotObj_TypeDef *obj, void *timer_ins, uint32_t ch, void *pin, uint8_
  13:Device/Dev_Dshot.c **** static bool DevDshot_DeInit(DevDshotObj_TypeDef *obj);
  14:Device/Dev_Dshot.c **** static void DevDshot_Control(DevDshotObj_TypeDef *obj, uint16_t value);
  15:Device/Dev_Dshot.c **** static void DevDshot_Command(DevDshotObj_TypeDef *obj, uint16_t cmd);
  16:Device/Dev_Dshot.c **** 
  17:Device/Dev_Dshot.c **** DevDshot_TypeDef DevDshot = {
  18:Device/Dev_Dshot.c ****     .init = DevDshot_Init,
  19:Device/Dev_Dshot.c ****     .de_init = DevDshot_DeInit,
  20:Device/Dev_Dshot.c ****     .command = DevDshot_Command,
  21:Device/Dev_Dshot.c ****     .control = DevDshot_Control,
  22:Device/Dev_Dshot.c **** };
  23:Device/Dev_Dshot.c **** 
  24:Device/Dev_Dshot.c **** static uint32_t DevDshot_GetType_Clock(DevDshotType_List type)
  25:Device/Dev_Dshot.c **** {
  29              		.loc 1 25 1 view -0
  30              		.cfi_startproc
  31              		@ args = 0, pretend = 0, frame = 0
  32              		@ frame_needed = 0, uses_anonymous_args = 0
  33              		@ link register save eliminated.
ARM GAS  C:\Users\8bit\AppData\Local\Temp\ccNctaQJ.s 			page 2


  26:Device/Dev_Dshot.c ****     switch (type)
  34              		.loc 1 26 5 view .LVU1
  35 0000 0228     		cmp	r0, #2
  36 0002 07D0     		beq	.L3
  37 0004 0328     		cmp	r0, #3
  38 0006 07D0     		beq	.L4
  39 0008 0128     		cmp	r0, #1
  40 000a 01D0     		beq	.L6
  27:Device/Dev_Dshot.c ****     {
  28:Device/Dev_Dshot.c ****     case DevDshot_150:
  29:Device/Dev_Dshot.c ****         return DSHOT150_CLK_HZ;
  30:Device/Dev_Dshot.c **** 
  31:Device/Dev_Dshot.c ****     case DevDshot_300:
  32:Device/Dev_Dshot.c ****         return DSHOT300_CLK_HZ;
  33:Device/Dev_Dshot.c **** 
  34:Device/Dev_Dshot.c ****     case DevDshot_600:
  35:Device/Dev_Dshot.c ****         return DSHOT600_CLK_HZ;
  36:Device/Dev_Dshot.c **** 
  37:Device/Dev_Dshot.c ****     default:
  38:Device/Dev_Dshot.c ****         return DSHOT300_CLK_HZ;
  41              		.loc 1 38 16 is_stmt 0 view .LVU2
  42 000c 0348     		ldr	r0, .L7
  43              	.LVL1:
  39:Device/Dev_Dshot.c ****     }
  40:Device/Dev_Dshot.c **** }
  44              		.loc 1 40 1 view .LVU3
  45 000e 7047     		bx	lr
  46              	.LVL2:
  47              	.L6:
  26:Device/Dev_Dshot.c ****     {
  48              		.loc 1 26 5 view .LVU4
  49 0010 0348     		ldr	r0, .L7+4
  50              	.LVL3:
  26:Device/Dev_Dshot.c ****     {
  51              		.loc 1 26 5 view .LVU5
  52 0012 7047     		bx	lr
  53              	.LVL4:
  54              	.L3:
  32:Device/Dev_Dshot.c **** 
  55              		.loc 1 32 16 view .LVU6
  56 0014 0148     		ldr	r0, .L7
  57              	.LVL5:
  32:Device/Dev_Dshot.c **** 
  58              		.loc 1 32 16 view .LVU7
  59 0016 7047     		bx	lr
  60              	.LVL6:
  61              	.L4:
  35:Device/Dev_Dshot.c **** 
  62              		.loc 1 35 16 view .LVU8
  63 0018 0248     		ldr	r0, .L7+8
  64              	.LVL7:
  35:Device/Dev_Dshot.c **** 
  65              		.loc 1 35 16 view .LVU9
  66 001a 7047     		bx	lr
  67              	.L8:
  68              		.align	2
  69              	.L7:
ARM GAS  C:\Users\8bit\AppData\Local\Temp\ccNctaQJ.s 			page 3


  70 001c 808D5B00 		.word	6000000
  71 0020 C0C62D00 		.word	3000000
  72 0024 001BB700 		.word	12000000
  73              		.cfi_endproc
  74              	.LFE139:
  76              		.section	.text.DevDshot_Prepare_Packet,"ax",%progbits
  77              		.align	1
  78              		.syntax unified
  79              		.thumb
  80              		.thumb_func
  82              	DevDshot_Prepare_Packet:
  83              	.LVL8:
  84              	.LFB142:
  41:Device/Dev_Dshot.c **** 
  42:Device/Dev_Dshot.c **** static bool DevDshot_DeInit(DevDshotObj_TypeDef *obj)
  43:Device/Dev_Dshot.c **** {
  44:Device/Dev_Dshot.c ****     if (obj)
  45:Device/Dev_Dshot.c ****         return DShot_Port_DeInit(obj);
  46:Device/Dev_Dshot.c **** 
  47:Device/Dev_Dshot.c ****     return false;
  48:Device/Dev_Dshot.c **** }
  49:Device/Dev_Dshot.c **** 
  50:Device/Dev_Dshot.c **** static bool DevDshot_Init(DevDshotObj_TypeDef *obj,
  51:Device/Dev_Dshot.c ****                           void *timer_ins,
  52:Device/Dev_Dshot.c ****                           uint32_t ch,
  53:Device/Dev_Dshot.c ****                           void *pin,
  54:Device/Dev_Dshot.c ****                           uint8_t dma,
  55:Device/Dev_Dshot.c ****                           uint8_t stream)
  56:Device/Dev_Dshot.c **** {
  57:Device/Dev_Dshot.c ****     float DShot_Timer_ClkFreq = (float)DShot_Get_Timer_CLKFreq(obj) - 1;
  58:Device/Dev_Dshot.c ****     uint32_t prescaler = 0;
  59:Device/Dev_Dshot.c **** 
  60:Device/Dev_Dshot.c ****     if (!obj || (DShot_Timer_ClkFreq == 0))
  61:Device/Dev_Dshot.c ****         return false;
  62:Device/Dev_Dshot.c **** 
  63:Device/Dev_Dshot.c ****     prescaler = lrintf(DShot_Timer_ClkFreq / (DevDshot_GetType_Clock(obj->type) - 1) + 0.01f) - 1;
  64:Device/Dev_Dshot.c **** 
  65:Device/Dev_Dshot.c **** #if defined STM32H743xx
  66:Device/Dev_Dshot.c ****     obj->pwm_obj.tim_hdl = DShot_Malloc(TIM_HandleType_Size);
  67:Device/Dev_Dshot.c ****     if(obj->pwm_obj.tim_hdl == NULL)
  68:Device/Dev_Dshot.c ****     {
  69:Device/Dev_Dshot.c ****         DShot_Free(obj->pwm_obj.tim_hdl);
  70:Device/Dev_Dshot.c ****         return false;
  71:Device/Dev_Dshot.c ****     }
  72:Device/Dev_Dshot.c **** 
  73:Device/Dev_Dshot.c ****     obj->pwm_obj.dma_hdl = DShot_Malloc(TIM_DMA_HandleType_Size);
  74:Device/Dev_Dshot.c ****     if(obj->pwm_obj.dma_hdl == NULL)
  75:Device/Dev_Dshot.c ****     {
  76:Device/Dev_Dshot.c ****         DShot_Free(obj->pwm_obj.tim_hdl);
  77:Device/Dev_Dshot.c ****         DShot_Free(obj->pwm_obj.dma_hdl);
  78:Device/Dev_Dshot.c ****         return false;
  79:Device/Dev_Dshot.c ****     }
  80:Device/Dev_Dshot.c **** #endif
  81:Device/Dev_Dshot.c **** 
  82:Device/Dev_Dshot.c ****     if ((obj->type < DevDshot_150) || (obj->type > DevDshot_600))
  83:Device/Dev_Dshot.c ****     {
  84:Device/Dev_Dshot.c ****         obj->type = DevDshot_300;
ARM GAS  C:\Users\8bit\AppData\Local\Temp\ccNctaQJ.s 			page 4


  85:Device/Dev_Dshot.c ****     }
  86:Device/Dev_Dshot.c **** 
  87:Device/Dev_Dshot.c ****     if (!DShot_Port_Init(obj, prescaler, timer_ins, ch, pin, dma, stream))
  88:Device/Dev_Dshot.c ****         return false;
  89:Device/Dev_Dshot.c **** 
  90:Device/Dev_Dshot.c ****     return true;
  91:Device/Dev_Dshot.c **** }
  92:Device/Dev_Dshot.c **** 
  93:Device/Dev_Dshot.c **** static uint16_t DevDshot_Prepare_Packet(const uint16_t value, int8_t requestTelemetry)
  94:Device/Dev_Dshot.c **** {
  85              		.loc 1 94 1 is_stmt 1 view -0
  86              		.cfi_startproc
  87              		@ args = 0, pretend = 0, frame = 0
  88              		@ frame_needed = 0, uses_anonymous_args = 0
  89              		@ link register save eliminated.
  95:Device/Dev_Dshot.c ****     uint16_t packet = (value << 1) | (requestTelemetry ? 1 : 0);
  90              		.loc 1 95 5 view .LVU11
  91              		.loc 1 95 60 is_stmt 0 view .LVU12
  92 0000 0039     		subs	r1, r1, #0
  93              	.LVL9:
  94              		.loc 1 95 60 view .LVU13
  95 0002 18BF     		it	ne
  96 0004 0121     		movne	r1, #1
  97              		.loc 1 95 36 view .LVU14
  98 0006 41EA4001 		orr	r1, r1, r0, lsl #1
  99              		.loc 1 95 14 view .LVU15
 100 000a 89B2     		uxth	r1, r1
  96:Device/Dev_Dshot.c **** 
  97:Device/Dev_Dshot.c ****     // compute checksum
  98:Device/Dev_Dshot.c ****     int csum = 0;
 101              		.loc 1 98 5 is_stmt 1 view .LVU16
 102              	.LVL10:
  99:Device/Dev_Dshot.c ****     int csum_data = packet;
 103              		.loc 1 99 5 view .LVU17
 100:Device/Dev_Dshot.c ****     for (int i = 0; i < 3; i++)
 104              		.loc 1 100 5 view .LVU18
 105              	.LBB2:
 106              		.loc 1 100 10 view .LVU19
 107              		.loc 1 100 10 is_stmt 0 view .LVU20
 108              	.LBE2:
  99:Device/Dev_Dshot.c ****     int csum_data = packet;
 109              		.loc 1 99 9 view .LVU21
 110 000c 0A46     		mov	r2, r1
 111              	.LBB3:
 112              		.loc 1 100 14 view .LVU22
 113 000e 0023     		movs	r3, #0
 114              	.LBE3:
  98:Device/Dev_Dshot.c ****     int csum_data = packet;
 115              		.loc 1 98 9 view .LVU23
 116 0010 1846     		mov	r0, r3
 117              	.LVL11:
 118              	.LBB4:
 119              		.loc 1 100 5 view .LVU24
 120 0012 02E0     		b	.L10
 121              	.LVL12:
 122              	.L11:
 101:Device/Dev_Dshot.c ****     {
ARM GAS  C:\Users\8bit\AppData\Local\Temp\ccNctaQJ.s 			page 5


 102:Device/Dev_Dshot.c ****         csum ^= csum_data; // xor data by nibbles
 123              		.loc 1 102 9 is_stmt 1 discriminator 3 view .LVU25
 124              		.loc 1 102 14 is_stmt 0 discriminator 3 view .LVU26
 125 0014 5040     		eors	r0, r0, r2
 126              	.LVL13:
 103:Device/Dev_Dshot.c ****         csum_data >>= 4;
 127              		.loc 1 103 9 is_stmt 1 discriminator 3 view .LVU27
 128              		.loc 1 103 19 is_stmt 0 discriminator 3 view .LVU28
 129 0016 1211     		asrs	r2, r2, #4
 130              	.LVL14:
 100:Device/Dev_Dshot.c ****     {
 131              		.loc 1 100 28 is_stmt 1 discriminator 3 view .LVU29
 100:Device/Dev_Dshot.c ****     {
 132              		.loc 1 100 29 is_stmt 0 discriminator 3 view .LVU30
 133 0018 0133     		adds	r3, r3, #1
 134              	.LVL15:
 135              	.L10:
 100:Device/Dev_Dshot.c ****     {
 136              		.loc 1 100 21 is_stmt 1 discriminator 1 view .LVU31
 100:Device/Dev_Dshot.c ****     {
 137              		.loc 1 100 5 is_stmt 0 discriminator 1 view .LVU32
 138 001a 022B     		cmp	r3, #2
 139 001c FADD     		ble	.L11
 100:Device/Dev_Dshot.c ****     {
 140              		.loc 1 100 5 discriminator 1 view .LVU33
 141              	.LBE4:
 104:Device/Dev_Dshot.c ****     }
 105:Device/Dev_Dshot.c **** 
 106:Device/Dev_Dshot.c ****     csum &= 0xf;
 142              		.loc 1 106 5 is_stmt 1 view .LVU34
 143              		.loc 1 106 10 is_stmt 0 view .LVU35
 144 001e 00F00F00 		and	r0, r0, #15
 145              	.LVL16:
 107:Device/Dev_Dshot.c ****     // append checksum
 108:Device/Dev_Dshot.c ****     packet = (packet << 4) | csum;
 146              		.loc 1 108 5 is_stmt 1 view .LVU36
 147              		.loc 1 108 28 is_stmt 0 view .LVU37
 148 0022 40EA0110 		orr	r0, r0, r1, lsl #4
 149              	.LVL17:
 109:Device/Dev_Dshot.c ****     return packet;
 150              		.loc 1 109 5 is_stmt 1 view .LVU38
 110:Device/Dev_Dshot.c **** }
 151              		.loc 1 110 1 is_stmt 0 view .LVU39
 152 0026 80B2     		uxth	r0, r0
 153              		.loc 1 110 1 view .LVU40
 154 0028 7047     		bx	lr
 155              		.cfi_endproc
 156              	.LFE142:
 158              		.section	.text.DShot_Malloc,"ax",%progbits
 159              		.align	1
 160              		.weak	DShot_Malloc
 161              		.syntax unified
 162              		.thumb
 163              		.thumb_func
 165              	DShot_Malloc:
 166              	.LVL18:
 167              	.LFB133:
ARM GAS  C:\Users\8bit\AppData\Local\Temp\ccNctaQJ.s 			page 6


   4:Device/Dev_Dshot.c **** __attribute__((weak)) void DShot_Free(void *ptr){return;}
 168              		.loc 1 4 56 is_stmt 1 view -0
 169              		.cfi_startproc
 170              		@ args = 0, pretend = 0, frame = 0
 171              		@ frame_needed = 0, uses_anonymous_args = 0
 172              		@ link register save eliminated.
   4:Device/Dev_Dshot.c **** __attribute__((weak)) void DShot_Free(void *ptr){return;}
 173              		.loc 1 4 57 view .LVU42
   4:Device/Dev_Dshot.c **** __attribute__((weak)) void DShot_Free(void *ptr){return;}
 174              		.loc 1 4 69 is_stmt 0 view .LVU43
 175 0000 0020     		movs	r0, #0
 176              	.LVL19:
   4:Device/Dev_Dshot.c **** __attribute__((weak)) void DShot_Free(void *ptr){return;}
 177              		.loc 1 4 69 view .LVU44
 178 0002 7047     		bx	lr
 179              		.cfi_endproc
 180              	.LFE133:
 182              		.section	.text.DShot_Free,"ax",%progbits
 183              		.align	1
 184              		.weak	DShot_Free
 185              		.syntax unified
 186              		.thumb
 187              		.thumb_func
 189              	DShot_Free:
 190              	.LVL20:
 191              	.LFB134:
   5:Device/Dev_Dshot.c **** __attribute__((weak)) bool DShot_Port_Init(void *obj, uint32_t prescaler, void *time_ins, uint32_t 
 192              		.loc 1 5 49 is_stmt 1 view -0
 193              		.cfi_startproc
 194              		@ args = 0, pretend = 0, frame = 0
 195              		@ frame_needed = 0, uses_anonymous_args = 0
 196              		@ link register save eliminated.
   5:Device/Dev_Dshot.c **** __attribute__((weak)) bool DShot_Port_Init(void *obj, uint32_t prescaler, void *time_ins, uint32_t 
 197              		.loc 1 5 50 view .LVU46
   5:Device/Dev_Dshot.c **** __attribute__((weak)) bool DShot_Port_Init(void *obj, uint32_t prescaler, void *time_ins, uint32_t 
 198              		.loc 1 5 57 is_stmt 0 view .LVU47
 199 0000 7047     		bx	lr
 200              		.cfi_endproc
 201              	.LFE134:
 203              		.section	.text.DShot_Port_Init,"ax",%progbits
 204              		.align	1
 205              		.weak	DShot_Port_Init
 206              		.syntax unified
 207              		.thumb
 208              		.thumb_func
 210              	DShot_Port_Init:
 211              	.LVL21:
 212              	.LFB135:
   6:Device/Dev_Dshot.c **** __attribute__((weak)) bool DShot_Port_DeInit(void *obj){return false;}
 213              		.loc 1 6 148 is_stmt 1 view -0
 214              		.cfi_startproc
 215              		@ args = 12, pretend = 0, frame = 0
 216              		@ frame_needed = 0, uses_anonymous_args = 0
 217              		@ link register save eliminated.
   6:Device/Dev_Dshot.c **** __attribute__((weak)) bool DShot_Port_DeInit(void *obj){return false;}
 218              		.loc 1 6 149 view .LVU49
   6:Device/Dev_Dshot.c **** __attribute__((weak)) bool DShot_Port_DeInit(void *obj){return false;}
ARM GAS  C:\Users\8bit\AppData\Local\Temp\ccNctaQJ.s 			page 7


 219              		.loc 1 6 162 is_stmt 0 view .LVU50
 220 0000 0020     		movs	r0, #0
 221              	.LVL22:
   6:Device/Dev_Dshot.c **** __attribute__((weak)) bool DShot_Port_DeInit(void *obj){return false;}
 222              		.loc 1 6 162 view .LVU51
 223 0002 7047     		bx	lr
 224              		.cfi_endproc
 225              	.LFE135:
 227              		.section	.text.DShot_Port_DeInit,"ax",%progbits
 228              		.align	1
 229              		.weak	DShot_Port_DeInit
 230              		.syntax unified
 231              		.thumb
 232              		.thumb_func
 234              	DShot_Port_DeInit:
 235              	.LVL23:
 236              	.LFB136:
   7:Device/Dev_Dshot.c **** __attribute__((weak)) void DShot_Port_Trans(void *obj){return;}
 237              		.loc 1 7 56 is_stmt 1 view -0
 238              		.cfi_startproc
 239              		@ args = 0, pretend = 0, frame = 0
 240              		@ frame_needed = 0, uses_anonymous_args = 0
 241              		@ link register save eliminated.
   7:Device/Dev_Dshot.c **** __attribute__((weak)) void DShot_Port_Trans(void *obj){return;}
 242              		.loc 1 7 57 view .LVU53
   7:Device/Dev_Dshot.c **** __attribute__((weak)) void DShot_Port_Trans(void *obj){return;}
 243              		.loc 1 7 70 is_stmt 0 view .LVU54
 244 0000 0020     		movs	r0, #0
 245              	.LVL24:
   7:Device/Dev_Dshot.c **** __attribute__((weak)) void DShot_Port_Trans(void *obj){return;}
 246              		.loc 1 7 70 view .LVU55
 247 0002 7047     		bx	lr
 248              		.cfi_endproc
 249              	.LFE136:
 251              		.section	.text.DevDshot_DeInit,"ax",%progbits
 252              		.align	1
 253              		.syntax unified
 254              		.thumb
 255              		.thumb_func
 257              	DevDshot_DeInit:
 258              	.LVL25:
 259              	.LFB140:
  43:Device/Dev_Dshot.c ****     if (obj)
 260              		.loc 1 43 1 is_stmt 1 view -0
 261              		.cfi_startproc
 262              		@ args = 0, pretend = 0, frame = 0
 263              		@ frame_needed = 0, uses_anonymous_args = 0
  44:Device/Dev_Dshot.c ****         return DShot_Port_DeInit(obj);
 264              		.loc 1 44 5 view .LVU57
  44:Device/Dev_Dshot.c ****         return DShot_Port_DeInit(obj);
 265              		.loc 1 44 8 is_stmt 0 view .LVU58
 266 0000 08B9     		cbnz	r0, .L23
  47:Device/Dev_Dshot.c **** }
 267              		.loc 1 47 12 view .LVU59
 268 0002 0020     		movs	r0, #0
 269              	.LVL26:
  48:Device/Dev_Dshot.c **** 
ARM GAS  C:\Users\8bit\AppData\Local\Temp\ccNctaQJ.s 			page 8


 270              		.loc 1 48 1 view .LVU60
 271 0004 7047     		bx	lr
 272              	.LVL27:
 273              	.L23:
  43:Device/Dev_Dshot.c ****     if (obj)
 274              		.loc 1 43 1 view .LVU61
 275 0006 08B5     		push	{r3, lr}
 276              	.LCFI0:
 277              		.cfi_def_cfa_offset 8
 278              		.cfi_offset 3, -8
 279              		.cfi_offset 14, -4
  45:Device/Dev_Dshot.c **** 
 280              		.loc 1 45 9 is_stmt 1 view .LVU62
  45:Device/Dev_Dshot.c **** 
 281              		.loc 1 45 16 is_stmt 0 view .LVU63
 282 0008 FFF7FEFF 		bl	DShot_Port_DeInit
 283              	.LVL28:
  48:Device/Dev_Dshot.c **** 
 284              		.loc 1 48 1 view .LVU64
 285 000c 08BD     		pop	{r3, pc}
 286              		.cfi_endproc
 287              	.LFE140:
 289              		.section	.text.DShot_Port_Trans,"ax",%progbits
 290              		.align	1
 291              		.weak	DShot_Port_Trans
 292              		.syntax unified
 293              		.thumb
 294              		.thumb_func
 296              	DShot_Port_Trans:
 297              	.LVL29:
 298              	.LFB137:
   8:Device/Dev_Dshot.c **** __attribute__((weak)) uint32_t DShot_Get_Timer_CLKFreq(void *obj){return 0;}
 299              		.loc 1 8 55 is_stmt 1 view -0
 300              		.cfi_startproc
 301              		@ args = 0, pretend = 0, frame = 0
 302              		@ frame_needed = 0, uses_anonymous_args = 0
 303              		@ link register save eliminated.
   8:Device/Dev_Dshot.c **** __attribute__((weak)) uint32_t DShot_Get_Timer_CLKFreq(void *obj){return 0;}
 304              		.loc 1 8 56 view .LVU66
   8:Device/Dev_Dshot.c **** __attribute__((weak)) uint32_t DShot_Get_Timer_CLKFreq(void *obj){return 0;}
 305              		.loc 1 8 63 is_stmt 0 view .LVU67
 306 0000 7047     		bx	lr
 307              		.cfi_endproc
 308              	.LFE137:
 310              		.section	.text.DevDshot_Control,"ax",%progbits
 311              		.align	1
 312              		.syntax unified
 313              		.thumb
 314              		.thumb_func
 316              	DevDshot_Control:
 317              	.LVL30:
 318              	.LFB143:
 111:Device/Dev_Dshot.c **** 
 112:Device/Dev_Dshot.c **** static void DevDshot_Control(DevDshotObj_TypeDef *obj, uint16_t value)
 113:Device/Dev_Dshot.c **** {
 319              		.loc 1 113 1 is_stmt 1 view -0
 320              		.cfi_startproc
ARM GAS  C:\Users\8bit\AppData\Local\Temp\ccNctaQJ.s 			page 9


 321              		@ args = 0, pretend = 0, frame = 0
 322              		@ frame_needed = 0, uses_anonymous_args = 0
 114:Device/Dev_Dshot.c ****     uint16_t packet;
 323              		.loc 1 114 5 view .LVU69
 115:Device/Dev_Dshot.c ****     bool dshot_telemetry = false;
 324              		.loc 1 115 5 view .LVU70
 116:Device/Dev_Dshot.c **** 
 117:Device/Dev_Dshot.c ****     if (!obj)
 325              		.loc 1 117 5 view .LVU71
 326              		.loc 1 117 8 is_stmt 0 view .LVU72
 327 0000 68B3     		cbz	r0, .L35
 113:Device/Dev_Dshot.c ****     uint16_t packet;
 328              		.loc 1 113 1 view .LVU73
 329 0002 10B5     		push	{r4, lr}
 330              	.LCFI1:
 331              		.cfi_def_cfa_offset 8
 332              		.cfi_offset 4, -8
 333              		.cfi_offset 14, -4
 334 0004 0B46     		mov	r3, r1
 335 0006 0446     		mov	r4, r0
 118:Device/Dev_Dshot.c ****         return;
 119:Device/Dev_Dshot.c **** 
 120:Device/Dev_Dshot.c ****     if (value > DSHOT_MAX_THROTTLE)
 336              		.loc 1 120 5 is_stmt 1 view .LVU74
 337              		.loc 1 120 8 is_stmt 0 view .LVU75
 338 0008 40F26C72 		movw	r2, #1900
 339 000c 9142     		cmp	r1, r2
 340 000e 03D8     		bhi	.L31
 121:Device/Dev_Dshot.c ****         value = DSHOT_MAX_THROTTLE;
 122:Device/Dev_Dshot.c **** 
 123:Device/Dev_Dshot.c ****     if (value < DSHOT_MIN_THROTTLE)
 341              		.loc 1 123 5 is_stmt 1 view .LVU76
 342              		.loc 1 123 8 is_stmt 0 view .LVU77
 343 0010 2F29     		cmp	r1, #47
 344 0012 03D8     		bhi	.L27
 124:Device/Dev_Dshot.c ****         value = DSHOT_LOCK_THROTTLE;
 345              		.loc 1 124 15 view .LVU78
 346 0014 0023     		movs	r3, #0
 347 0016 01E0     		b	.L27
 348              	.L31:
 121:Device/Dev_Dshot.c ****         value = DSHOT_MAX_THROTTLE;
 349              		.loc 1 121 15 view .LVU79
 350 0018 40F26C73 		movw	r3, #1900
 351              	.L27:
 352              	.LVL31:
 125:Device/Dev_Dshot.c **** 
 126:Device/Dev_Dshot.c ****     packet = DevDshot_Prepare_Packet(value, dshot_telemetry);
 353              		.loc 1 126 5 is_stmt 1 view .LVU80
 354              		.loc 1 126 14 is_stmt 0 view .LVU81
 355 001c 0021     		movs	r1, #0
 356 001e 1846     		mov	r0, r3
 357              	.LVL32:
 358              		.loc 1 126 14 view .LVU82
 359 0020 FFF7FEFF 		bl	DevDshot_Prepare_Packet
 360              	.LVL33:
 127:Device/Dev_Dshot.c **** 
 128:Device/Dev_Dshot.c ****     for (int i = 0; i < 16; i++)
ARM GAS  C:\Users\8bit\AppData\Local\Temp\ccNctaQJ.s 			page 10


 361              		.loc 1 128 5 is_stmt 1 view .LVU83
 362              	.LBB5:
 363              		.loc 1 128 10 view .LVU84
 364              		.loc 1 128 14 is_stmt 0 view .LVU85
 365 0024 0023     		movs	r3, #0
 366              		.loc 1 128 5 view .LVU86
 367 0026 07E0     		b	.L28
 368              	.LVL34:
 369              	.L39:
 129:Device/Dev_Dshot.c ****     {
 130:Device/Dev_Dshot.c ****         obj->ctl_buf[i] = (packet & 0x8000) ? MOTOR_BIT_1 : MOTOR_BIT_0;
 370              		.loc 1 130 59 view .LVU87
 371 0028 0E21     		movs	r1, #14
 372              	.L29:
 373              		.loc 1 130 25 discriminator 4 view .LVU88
 374 002a 03F10E02 		add	r2, r3, #14
 375 002e 44F82210 		str	r1, [r4, r2, lsl #2]
 131:Device/Dev_Dshot.c ****         packet <<= 1;
 376              		.loc 1 131 9 is_stmt 1 discriminator 4 view .LVU89
 377              		.loc 1 131 16 is_stmt 0 discriminator 4 view .LVU90
 378 0032 4000     		lsls	r0, r0, #1
 379              	.LVL35:
 380              		.loc 1 131 16 discriminator 4 view .LVU91
 381 0034 80B2     		uxth	r0, r0
 382              	.LVL36:
 128:Device/Dev_Dshot.c ****     {
 383              		.loc 1 128 29 is_stmt 1 discriminator 4 view .LVU92
 128:Device/Dev_Dshot.c ****     {
 384              		.loc 1 128 30 is_stmt 0 discriminator 4 view .LVU93
 385 0036 0133     		adds	r3, r3, #1
 386              	.LVL37:
 387              	.L28:
 128:Device/Dev_Dshot.c ****     {
 388              		.loc 1 128 21 is_stmt 1 discriminator 2 view .LVU94
 128:Device/Dev_Dshot.c ****     {
 389              		.loc 1 128 5 is_stmt 0 discriminator 2 view .LVU95
 390 0038 0F2B     		cmp	r3, #15
 391 003a 04DC     		bgt	.L38
 130:Device/Dev_Dshot.c ****         packet <<= 1;
 392              		.loc 1 130 9 is_stmt 1 view .LVU96
 130:Device/Dev_Dshot.c ****         packet <<= 1;
 393              		.loc 1 130 59 is_stmt 0 view .LVU97
 394 003c 10F4004F 		tst	r0, #32768
 395 0040 F2D1     		bne	.L39
 396 0042 0721     		movs	r1, #7
 397 0044 F1E7     		b	.L29
 398              	.L38:
 399              	.LBE5:
 132:Device/Dev_Dshot.c ****     }
 133:Device/Dev_Dshot.c **** 
 134:Device/Dev_Dshot.c ****     obj->ctl_buf[16] = 0;
 400              		.loc 1 134 5 is_stmt 1 view .LVU98
 401              		.loc 1 134 22 is_stmt 0 view .LVU99
 402 0046 0023     		movs	r3, #0
 403              	.LVL38:
 404              		.loc 1 134 22 view .LVU100
 405 0048 A367     		str	r3, [r4, #120]
ARM GAS  C:\Users\8bit\AppData\Local\Temp\ccNctaQJ.s 			page 11


 135:Device/Dev_Dshot.c ****     obj->ctl_buf[17] = 0;
 406              		.loc 1 135 5 is_stmt 1 view .LVU101
 407              		.loc 1 135 22 is_stmt 0 view .LVU102
 408 004a E367     		str	r3, [r4, #124]
 136:Device/Dev_Dshot.c **** 
 137:Device/Dev_Dshot.c ****     obj->pwm_obj.buffer_addr = (uint32_t)obj->ctl_buf;
 409              		.loc 1 137 5 is_stmt 1 view .LVU103
 410              		.loc 1 137 42 is_stmt 0 view .LVU104
 411 004c 04F13803 		add	r3, r4, #56
 412              		.loc 1 137 30 view .LVU105
 413 0050 A362     		str	r3, [r4, #40]
 138:Device/Dev_Dshot.c ****     obj->pwm_obj.buffer_size = DSHOT_DMA_BUFFER_SIZE;
 414              		.loc 1 138 5 is_stmt 1 view .LVU106
 415              		.loc 1 138 30 is_stmt 0 view .LVU107
 416 0052 1223     		movs	r3, #18
 417 0054 E362     		str	r3, [r4, #44]
 139:Device/Dev_Dshot.c **** 
 140:Device/Dev_Dshot.c ****     DShot_Port_Trans(obj);
 418              		.loc 1 140 5 is_stmt 1 view .LVU108
 419 0056 2046     		mov	r0, r4
 420              	.LVL39:
 421              		.loc 1 140 5 is_stmt 0 view .LVU109
 422 0058 FFF7FEFF 		bl	DShot_Port_Trans
 423              	.LVL40:
 141:Device/Dev_Dshot.c **** }
 424              		.loc 1 141 1 view .LVU110
 425 005c 10BD     		pop	{r4, pc}
 426              	.LVL41:
 427              	.L35:
 428              	.LCFI2:
 429              		.cfi_def_cfa_offset 0
 430              		.cfi_restore 4
 431              		.cfi_restore 14
 432              		.loc 1 141 1 view .LVU111
 433 005e 7047     		bx	lr
 434              		.cfi_endproc
 435              	.LFE143:
 437              		.section	.text.DevDshot_Command,"ax",%progbits
 438              		.align	1
 439              		.syntax unified
 440              		.thumb
 441              		.thumb_func
 443              	DevDshot_Command:
 444              	.LVL42:
 445              	.LFB144:
 142:Device/Dev_Dshot.c **** 
 143:Device/Dev_Dshot.c **** static void DevDshot_Command(DevDshotObj_TypeDef *obj, uint16_t cmd)
 144:Device/Dev_Dshot.c **** {
 446              		.loc 1 144 1 is_stmt 1 view -0
 447              		.cfi_startproc
 448              		@ args = 0, pretend = 0, frame = 0
 449              		@ frame_needed = 0, uses_anonymous_args = 0
 145:Device/Dev_Dshot.c ****     uint16_t packet;
 450              		.loc 1 145 5 view .LVU113
 146:Device/Dev_Dshot.c ****     bool dshot_telemetry = true;
 451              		.loc 1 146 5 view .LVU114
 147:Device/Dev_Dshot.c **** 
ARM GAS  C:\Users\8bit\AppData\Local\Temp\ccNctaQJ.s 			page 12


 148:Device/Dev_Dshot.c ****     if (!obj || cmd >= DSHOT_MIN_THROTTLE)
 452              		.loc 1 148 5 view .LVU115
 453              		.loc 1 148 8 is_stmt 0 view .LVU116
 454 0000 28B3     		cbz	r0, .L47
 144:Device/Dev_Dshot.c ****     uint16_t packet;
 455              		.loc 1 144 1 discriminator 1 view .LVU117
 456 0002 10B5     		push	{r4, lr}
 457              	.LCFI3:
 458              		.cfi_def_cfa_offset 8
 459              		.cfi_offset 4, -8
 460              		.cfi_offset 14, -4
 461 0004 0B46     		mov	r3, r1
 462 0006 0446     		mov	r4, r0
 463              		.loc 1 148 14 discriminator 1 view .LVU118
 464 0008 2F29     		cmp	r1, #47
 465 000a 1FD8     		bhi	.L40
 149:Device/Dev_Dshot.c ****         return;
 150:Device/Dev_Dshot.c **** 
 151:Device/Dev_Dshot.c ****     packet = DevDshot_Prepare_Packet(cmd, dshot_telemetry);
 466              		.loc 1 151 5 is_stmt 1 view .LVU119
 467              		.loc 1 151 14 is_stmt 0 view .LVU120
 468 000c 0121     		movs	r1, #1
 469              	.LVL43:
 470              		.loc 1 151 14 view .LVU121
 471 000e 1846     		mov	r0, r3
 472              	.LVL44:
 473              		.loc 1 151 14 view .LVU122
 474 0010 FFF7FEFF 		bl	DevDshot_Prepare_Packet
 475              	.LVL45:
 152:Device/Dev_Dshot.c **** 
 153:Device/Dev_Dshot.c ****     for (int i = 0; i < 16; i++)
 476              		.loc 1 153 5 is_stmt 1 view .LVU123
 477              	.LBB6:
 478              		.loc 1 153 10 view .LVU124
 479              		.loc 1 153 14 is_stmt 0 view .LVU125
 480 0014 0023     		movs	r3, #0
 481              		.loc 1 153 5 view .LVU126
 482 0016 07E0     		b	.L42
 483              	.LVL46:
 484              	.L51:
 154:Device/Dev_Dshot.c ****     {
 155:Device/Dev_Dshot.c ****         obj->ctl_buf[i] = (packet & 0x8000) ? MOTOR_BIT_1 : MOTOR_BIT_0;
 485              		.loc 1 155 59 view .LVU127
 486 0018 0E21     		movs	r1, #14
 487              	.L43:
 488              		.loc 1 155 25 discriminator 4 view .LVU128
 489 001a 03F10E02 		add	r2, r3, #14
 490 001e 44F82210 		str	r1, [r4, r2, lsl #2]
 156:Device/Dev_Dshot.c ****         packet <<= 1;
 491              		.loc 1 156 9 is_stmt 1 discriminator 4 view .LVU129
 492              		.loc 1 156 16 is_stmt 0 discriminator 4 view .LVU130
 493 0022 4000     		lsls	r0, r0, #1
 494              	.LVL47:
 495              		.loc 1 156 16 discriminator 4 view .LVU131
 496 0024 80B2     		uxth	r0, r0
 497              	.LVL48:
 153:Device/Dev_Dshot.c ****     {
ARM GAS  C:\Users\8bit\AppData\Local\Temp\ccNctaQJ.s 			page 13


 498              		.loc 1 153 29 is_stmt 1 discriminator 4 view .LVU132
 153:Device/Dev_Dshot.c ****     {
 499              		.loc 1 153 30 is_stmt 0 discriminator 4 view .LVU133
 500 0026 0133     		adds	r3, r3, #1
 501              	.LVL49:
 502              	.L42:
 153:Device/Dev_Dshot.c ****     {
 503              		.loc 1 153 21 is_stmt 1 discriminator 2 view .LVU134
 153:Device/Dev_Dshot.c ****     {
 504              		.loc 1 153 5 is_stmt 0 discriminator 2 view .LVU135
 505 0028 0F2B     		cmp	r3, #15
 506 002a 04DC     		bgt	.L50
 155:Device/Dev_Dshot.c ****         packet <<= 1;
 507              		.loc 1 155 9 is_stmt 1 view .LVU136
 155:Device/Dev_Dshot.c ****         packet <<= 1;
 508              		.loc 1 155 59 is_stmt 0 view .LVU137
 509 002c 10F4004F 		tst	r0, #32768
 510 0030 F2D1     		bne	.L51
 511 0032 0721     		movs	r1, #7
 512 0034 F1E7     		b	.L43
 513              	.L50:
 514              	.LBE6:
 157:Device/Dev_Dshot.c ****     }
 158:Device/Dev_Dshot.c **** 
 159:Device/Dev_Dshot.c ****     obj->ctl_buf[16] = 0;
 515              		.loc 1 159 5 is_stmt 1 view .LVU138
 516              		.loc 1 159 22 is_stmt 0 view .LVU139
 517 0036 0023     		movs	r3, #0
 518              	.LVL50:
 519              		.loc 1 159 22 view .LVU140
 520 0038 A367     		str	r3, [r4, #120]
 160:Device/Dev_Dshot.c ****     obj->ctl_buf[17] = 0;
 521              		.loc 1 160 5 is_stmt 1 view .LVU141
 522              		.loc 1 160 22 is_stmt 0 view .LVU142
 523 003a E367     		str	r3, [r4, #124]
 161:Device/Dev_Dshot.c **** 
 162:Device/Dev_Dshot.c ****     obj->pwm_obj.buffer_addr = (uint32_t)obj->ctl_buf;
 524              		.loc 1 162 5 is_stmt 1 view .LVU143
 525              		.loc 1 162 42 is_stmt 0 view .LVU144
 526 003c 04F13803 		add	r3, r4, #56
 527              		.loc 1 162 30 view .LVU145
 528 0040 A362     		str	r3, [r4, #40]
 163:Device/Dev_Dshot.c ****     obj->pwm_obj.buffer_size = DSHOT_DMA_BUFFER_SIZE;
 529              		.loc 1 163 5 is_stmt 1 view .LVU146
 530              		.loc 1 163 30 is_stmt 0 view .LVU147
 531 0042 1223     		movs	r3, #18
 532 0044 E362     		str	r3, [r4, #44]
 164:Device/Dev_Dshot.c **** 
 165:Device/Dev_Dshot.c ****     DShot_Port_Trans(obj);
 533              		.loc 1 165 5 is_stmt 1 view .LVU148
 534 0046 2046     		mov	r0, r4
 535              	.LVL51:
 536              		.loc 1 165 5 is_stmt 0 view .LVU149
 537 0048 FFF7FEFF 		bl	DShot_Port_Trans
 538              	.LVL52:
 539              	.L40:
 166:Device/Dev_Dshot.c **** }
ARM GAS  C:\Users\8bit\AppData\Local\Temp\ccNctaQJ.s 			page 14


 540              		.loc 1 166 1 view .LVU150
 541 004c 10BD     		pop	{r4, pc}
 542              	.LVL53:
 543              	.L47:
 544              	.LCFI4:
 545              		.cfi_def_cfa_offset 0
 546              		.cfi_restore 4
 547              		.cfi_restore 14
 548              		.loc 1 166 1 view .LVU151
 549 004e 7047     		bx	lr
 550              		.cfi_endproc
 551              	.LFE144:
 553              		.section	.text.DShot_Get_Timer_CLKFreq,"ax",%progbits
 554              		.align	1
 555              		.weak	DShot_Get_Timer_CLKFreq
 556              		.syntax unified
 557              		.thumb
 558              		.thumb_func
 560              	DShot_Get_Timer_CLKFreq:
 561              	.LVL54:
 562              	.LFB138:
   9:Device/Dev_Dshot.c **** 
 563              		.loc 1 9 66 is_stmt 1 view -0
 564              		.cfi_startproc
 565              		@ args = 0, pretend = 0, frame = 0
 566              		@ frame_needed = 0, uses_anonymous_args = 0
 567              		@ link register save eliminated.
   9:Device/Dev_Dshot.c **** 
 568              		.loc 1 9 67 view .LVU153
   9:Device/Dev_Dshot.c **** 
 569              		.loc 1 9 76 is_stmt 0 view .LVU154
 570 0000 0020     		movs	r0, #0
 571              	.LVL55:
   9:Device/Dev_Dshot.c **** 
 572              		.loc 1 9 76 view .LVU155
 573 0002 7047     		bx	lr
 574              		.cfi_endproc
 575              	.LFE138:
 577              		.section	.text.DevDshot_Init,"ax",%progbits
 578              		.align	1
 579              		.syntax unified
 580              		.thumb
 581              		.thumb_func
 583              	DevDshot_Init:
 584              	.LVL56:
 585              	.LFB141:
  56:Device/Dev_Dshot.c ****     float DShot_Timer_ClkFreq = (float)DShot_Get_Timer_CLKFreq(obj) - 1;
 586              		.loc 1 56 1 is_stmt 1 view -0
 587              		.cfi_startproc
 588              		@ args = 8, pretend = 0, frame = 0
 589              		@ frame_needed = 0, uses_anonymous_args = 0
  56:Device/Dev_Dshot.c ****     float DShot_Timer_ClkFreq = (float)DShot_Get_Timer_CLKFreq(obj) - 1;
 590              		.loc 1 56 1 is_stmt 0 view .LVU157
 591 0000 F0B5     		push	{r4, r5, r6, r7, lr}
 592              	.LCFI5:
 593              		.cfi_def_cfa_offset 20
 594              		.cfi_offset 4, -20
ARM GAS  C:\Users\8bit\AppData\Local\Temp\ccNctaQJ.s 			page 15


 595              		.cfi_offset 5, -16
 596              		.cfi_offset 6, -12
 597              		.cfi_offset 7, -8
 598              		.cfi_offset 14, -4
 599 0002 2DED028B 		vpush.64	{d8}
 600              	.LCFI6:
 601              		.cfi_def_cfa_offset 28
 602              		.cfi_offset 80, -28
 603              		.cfi_offset 81, -24
 604 0006 85B0     		sub	sp, sp, #20
 605              	.LCFI7:
 606              		.cfi_def_cfa_offset 48
 607 0008 0446     		mov	r4, r0
 608 000a 0D46     		mov	r5, r1
 609 000c 1646     		mov	r6, r2
 610 000e 1F46     		mov	r7, r3
  57:Device/Dev_Dshot.c ****     uint32_t prescaler = 0;
 611              		.loc 1 57 5 is_stmt 1 view .LVU158
  57:Device/Dev_Dshot.c ****     uint32_t prescaler = 0;
 612              		.loc 1 57 40 is_stmt 0 view .LVU159
 613 0010 FFF7FEFF 		bl	DShot_Get_Timer_CLKFreq
 614              	.LVL57:
  57:Device/Dev_Dshot.c ****     uint32_t prescaler = 0;
 615              		.loc 1 57 40 view .LVU160
 616 0014 08EE100A 		vmov	s16, r0	@ int
  57:Device/Dev_Dshot.c ****     uint32_t prescaler = 0;
 617              		.loc 1 57 33 view .LVU161
 618 0018 B8EE488A 		vcvt.f32.u32	s16, s16
  57:Device/Dev_Dshot.c ****     uint32_t prescaler = 0;
 619              		.loc 1 57 11 view .LVU162
 620 001c F7EE007A 		vmov.f32	s15, #1.0e+0
 621 0020 38EE678A 		vsub.f32	s16, s16, s15
 622              	.LVL58:
  58:Device/Dev_Dshot.c **** 
 623              		.loc 1 58 5 is_stmt 1 view .LVU163
  60:Device/Dev_Dshot.c ****         return false;
 624              		.loc 1 60 5 view .LVU164
  60:Device/Dev_Dshot.c ****         return false;
 625              		.loc 1 60 8 is_stmt 0 view .LVU165
 626 0024 74B3     		cbz	r4, .L56
  60:Device/Dev_Dshot.c ****         return false;
 627              		.loc 1 60 14 discriminator 1 view .LVU166
 628 0026 B5EE408A 		vcmp.f32	s16, #0
 629 002a F1EE10FA 		vmrs	APSR_nzcv, FPSCR
 630 002e 04D1     		bne	.L59
  61:Device/Dev_Dshot.c **** 
 631              		.loc 1 61 16 view .LVU167
 632 0030 0020     		movs	r0, #0
 633              	.LVL59:
 634              	.L54:
  91:Device/Dev_Dshot.c **** 
 635              		.loc 1 91 1 view .LVU168
 636 0032 05B0     		add	sp, sp, #20
 637              	.LCFI8:
 638              		.cfi_remember_state
 639              		.cfi_def_cfa_offset 28
 640              		@ sp needed
ARM GAS  C:\Users\8bit\AppData\Local\Temp\ccNctaQJ.s 			page 16


 641 0034 BDEC028B 		vldm	sp!, {d8}
 642              	.LCFI9:
 643              		.cfi_restore 80
 644              		.cfi_restore 81
 645              		.cfi_def_cfa_offset 20
 646              	.LVL60:
  91:Device/Dev_Dshot.c **** 
 647              		.loc 1 91 1 view .LVU169
 648 0038 F0BD     		pop	{r4, r5, r6, r7, pc}
 649              	.LVL61:
 650              	.L59:
 651              	.LCFI10:
 652              		.cfi_restore_state
  63:Device/Dev_Dshot.c **** 
 653              		.loc 1 63 5 is_stmt 1 view .LVU170
  63:Device/Dev_Dshot.c **** 
 654              		.loc 1 63 47 is_stmt 0 view .LVU171
 655 003a 2078     		ldrb	r0, [r4]	@ zero_extendqisi2
 656 003c FFF7FEFF 		bl	DevDshot_GetType_Clock
 657              	.LVL62:
  63:Device/Dev_Dshot.c **** 
 658              		.loc 1 63 81 view .LVU172
 659 0040 0138     		subs	r0, r0, #1
  63:Device/Dev_Dshot.c **** 
 660              		.loc 1 63 44 view .LVU173
 661 0042 07EE900A 		vmov	s15, r0	@ int
 662 0046 F8EE677A 		vcvt.f32.u32	s15, s15
 663 004a 88EE270A 		vdiv.f32	s0, s16, s15
  63:Device/Dev_Dshot.c **** 
 664              		.loc 1 63 17 view .LVU174
 665 004e DFED0E7A 		vldr.32	s15, .L60
 666 0052 30EE270A 		vadd.f32	s0, s0, s15
 667 0056 FFF7FEFF 		bl	lrintf
 668              	.LVL63:
  63:Device/Dev_Dshot.c **** 
 669              		.loc 1 63 95 view .LVU175
 670 005a 411E     		subs	r1, r0, #1
 671              	.LVL64:
  82:Device/Dev_Dshot.c ****     {
 672              		.loc 1 82 5 is_stmt 1 view .LVU176
  82:Device/Dev_Dshot.c ****     {
 673              		.loc 1 82 13 is_stmt 0 view .LVU177
 674 005c 2378     		ldrb	r3, [r4]	@ zero_extendqisi2
  82:Device/Dev_Dshot.c ****     {
 675              		.loc 1 82 36 view .LVU178
 676 005e 013B     		subs	r3, r3, #1
 677 0060 DBB2     		uxtb	r3, r3
  82:Device/Dev_Dshot.c ****     {
 678              		.loc 1 82 8 view .LVU179
 679 0062 022B     		cmp	r3, #2
 680 0064 01D9     		bls	.L55
  84:Device/Dev_Dshot.c ****     }
 681              		.loc 1 84 9 is_stmt 1 view .LVU180
  84:Device/Dev_Dshot.c ****     }
 682              		.loc 1 84 19 is_stmt 0 view .LVU181
 683 0066 0223     		movs	r3, #2
 684 0068 2370     		strb	r3, [r4]
ARM GAS  C:\Users\8bit\AppData\Local\Temp\ccNctaQJ.s 			page 17


 685              	.L55:
  87:Device/Dev_Dshot.c ****         return false;
 686              		.loc 1 87 5 is_stmt 1 view .LVU182
  87:Device/Dev_Dshot.c ****         return false;
 687              		.loc 1 87 10 is_stmt 0 view .LVU183
 688 006a 9DF83430 		ldrb	r3, [sp, #52]	@ zero_extendqisi2
 689 006e 0293     		str	r3, [sp, #8]
 690 0070 9DF83030 		ldrb	r3, [sp, #48]	@ zero_extendqisi2
 691 0074 0193     		str	r3, [sp, #4]
 692 0076 0097     		str	r7, [sp]
 693 0078 3346     		mov	r3, r6
 694 007a 2A46     		mov	r2, r5
 695 007c 2046     		mov	r0, r4
 696 007e FFF7FEFF 		bl	DShot_Port_Init
 697              	.LVL65:
  87:Device/Dev_Dshot.c ****         return false;
 698              		.loc 1 87 10 view .LVU184
 699 0082 D6E7     		b	.L54
 700              	.LVL66:
 701              	.L56:
  61:Device/Dev_Dshot.c **** 
 702              		.loc 1 61 16 view .LVU185
 703 0084 0020     		movs	r0, #0
 704 0086 D4E7     		b	.L54
 705              	.L61:
 706              		.align	2
 707              	.L60:
 708 0088 0AD7233C 		.word	1008981770
 709              		.cfi_endproc
 710              	.LFE141:
 712              		.global	DevDshot
 713              		.section	.data.DevDshot,"aw"
 714              		.align	2
 717              	DevDshot:
 718 0000 00000000 		.word	DevDshot_Init
 719 0004 00000000 		.word	DevDshot_DeInit
 720 0008 00000000 		.word	DevDshot_Command
 721 000c 00000000 		.word	DevDshot_Control
 722              		.text
 723              	.Letext0:
 724              		.file 2 "c:\\program files (x86)\\gnu arm embedded toolchain\\10 2021.10\\arm-none-eabi\\include\\
 725              		.file 3 "c:\\program files (x86)\\gnu arm embedded toolchain\\10 2021.10\\arm-none-eabi\\include\\
 726              		.file 4 "HW_Lib/AT32F435/drivers/inc/at32f435_437_tmr.h"
 727              		.file 5 "HW_Lib/Port_Def/Bsp_Timer_Port_Def.h"
 728              		.file 6 "Device/Dev_Dshot.h"
 729              		.file 7 "c:\\program files (x86)\\gnu arm embedded toolchain\\10 2021.10\\arm-none-eabi\\include\\
ARM GAS  C:\Users\8bit\AppData\Local\Temp\ccNctaQJ.s 			page 18


DEFINED SYMBOLS
                            *ABS*:00000000 Dev_Dshot.c
C:\Users\8bit\AppData\Local\Temp\ccNctaQJ.s:20     .text.DevDshot_GetType_Clock:00000000 $t
C:\Users\8bit\AppData\Local\Temp\ccNctaQJ.s:25     .text.DevDshot_GetType_Clock:00000000 DevDshot_GetType_Clock
C:\Users\8bit\AppData\Local\Temp\ccNctaQJ.s:70     .text.DevDshot_GetType_Clock:0000001c $d
C:\Users\8bit\AppData\Local\Temp\ccNctaQJ.s:77     .text.DevDshot_Prepare_Packet:00000000 $t
C:\Users\8bit\AppData\Local\Temp\ccNctaQJ.s:82     .text.DevDshot_Prepare_Packet:00000000 DevDshot_Prepare_Packet
C:\Users\8bit\AppData\Local\Temp\ccNctaQJ.s:159    .text.DShot_Malloc:00000000 $t
C:\Users\8bit\AppData\Local\Temp\ccNctaQJ.s:165    .text.DShot_Malloc:00000000 DShot_Malloc
C:\Users\8bit\AppData\Local\Temp\ccNctaQJ.s:183    .text.DShot_Free:00000000 $t
C:\Users\8bit\AppData\Local\Temp\ccNctaQJ.s:189    .text.DShot_Free:00000000 DShot_Free
C:\Users\8bit\AppData\Local\Temp\ccNctaQJ.s:204    .text.DShot_Port_Init:00000000 $t
C:\Users\8bit\AppData\Local\Temp\ccNctaQJ.s:210    .text.DShot_Port_Init:00000000 DShot_Port_Init
C:\Users\8bit\AppData\Local\Temp\ccNctaQJ.s:228    .text.DShot_Port_DeInit:00000000 $t
C:\Users\8bit\AppData\Local\Temp\ccNctaQJ.s:234    .text.DShot_Port_DeInit:00000000 DShot_Port_DeInit
C:\Users\8bit\AppData\Local\Temp\ccNctaQJ.s:252    .text.DevDshot_DeInit:00000000 $t
C:\Users\8bit\AppData\Local\Temp\ccNctaQJ.s:257    .text.DevDshot_DeInit:00000000 DevDshot_DeInit
C:\Users\8bit\AppData\Local\Temp\ccNctaQJ.s:290    .text.DShot_Port_Trans:00000000 $t
C:\Users\8bit\AppData\Local\Temp\ccNctaQJ.s:296    .text.DShot_Port_Trans:00000000 DShot_Port_Trans
C:\Users\8bit\AppData\Local\Temp\ccNctaQJ.s:311    .text.DevDshot_Control:00000000 $t
C:\Users\8bit\AppData\Local\Temp\ccNctaQJ.s:316    .text.DevDshot_Control:00000000 DevDshot_Control
C:\Users\8bit\AppData\Local\Temp\ccNctaQJ.s:438    .text.DevDshot_Command:00000000 $t
C:\Users\8bit\AppData\Local\Temp\ccNctaQJ.s:443    .text.DevDshot_Command:00000000 DevDshot_Command
C:\Users\8bit\AppData\Local\Temp\ccNctaQJ.s:554    .text.DShot_Get_Timer_CLKFreq:00000000 $t
C:\Users\8bit\AppData\Local\Temp\ccNctaQJ.s:560    .text.DShot_Get_Timer_CLKFreq:00000000 DShot_Get_Timer_CLKFreq
C:\Users\8bit\AppData\Local\Temp\ccNctaQJ.s:578    .text.DevDshot_Init:00000000 $t
C:\Users\8bit\AppData\Local\Temp\ccNctaQJ.s:583    .text.DevDshot_Init:00000000 DevDshot_Init
C:\Users\8bit\AppData\Local\Temp\ccNctaQJ.s:708    .text.DevDshot_Init:00000088 $d
C:\Users\8bit\AppData\Local\Temp\ccNctaQJ.s:717    .data.DevDshot:00000000 DevDshot
C:\Users\8bit\AppData\Local\Temp\ccNctaQJ.s:714    .data.DevDshot:00000000 $d

UNDEFINED SYMBOLS
lrintf
