ARM GAS  /var/folders/lx/hc4sn_b53233_zkc9xbbl97r0000gp/T//ccHjtyzg.s 			page 1


   1              		.cpu cortex-m7
   2              		.eabi_attribute 28, 1
   3              		.eabi_attribute 20, 1
   4              		.eabi_attribute 21, 1
   5              		.eabi_attribute 23, 3
   6              		.eabi_attribute 24, 1
   7              		.eabi_attribute 25, 1
   8              		.eabi_attribute 26, 1
   9              		.eabi_attribute 30, 1
  10              		.eabi_attribute 34, 1
  11              		.eabi_attribute 18, 4
  12              		.file	"Dev_ICM20602.c"
  13              		.text
  14              	.Ltext0:
  15              		.cfi_sections	.debug_frame
  16              		.section	.text.DevICM20602_Reg_Read,"ax",%progbits
  17              		.align	1
  18              		.arch armv7e-m
  19              		.syntax unified
  20              		.thumb
  21              		.thumb_func
  22              		.fpu fpv5-d16
  24              	DevICM20602_Reg_Read:
  25              	.LVL0:
  26              	.LFB1:
  27              		.file 1 "Device/Dev_ICM20602.c"
   1:Device/Dev_ICM20602.c **** #include "Dev_ICM20602.h"
   2:Device/Dev_ICM20602.c **** 
   3:Device/Dev_ICM20602.c **** /* internal function */
   4:Device/Dev_ICM20602.c **** static bool DevICM20602_Regs_Read(DevICM20602Obj_TypeDef *Obj, uint32_t addr, uint8_t *tx, uint8_t 
   5:Device/Dev_ICM20602.c **** static bool DevICM20602_Reg_Read(DevICM20602Obj_TypeDef *Obj, uint8_t addr, uint8_t *rx);
   6:Device/Dev_ICM20602.c **** static bool DevICM20602_Reg_Write(DevICM20602Obj_TypeDef *Obj, uint8_t addr, uint8_t tx);
   7:Device/Dev_ICM20602.c **** 
   8:Device/Dev_ICM20602.c **** /* external function */
   9:Device/Dev_ICM20602.c **** static void DevICM20602_Config(DevICM20602Obj_TypeDef *Obj, ICM20602_SampleRate_List rate, ICM20602
  10:Device/Dev_ICM20602.c **** static void DevICM20602_PreInit(DevICM20602Obj_TypeDef *Obj,
  11:Device/Dev_ICM20602.c ****                                 cs_ctl_callback cs_ctl,
  12:Device/Dev_ICM20602.c ****                                 bus_trans_callback bus_trans,
  13:Device/Dev_ICM20602.c ****                                 delay_callback delay,
  14:Device/Dev_ICM20602.c ****                                 get_time_stamp_callback get_time_stamp);
  15:Device/Dev_ICM20602.c **** static ICM20602_Error_List DevICM20602_Init(DevICM20602Obj_TypeDef *Obj);
  16:Device/Dev_ICM20602.c **** static void DevICM20602_SetDRDY(DevICM20602Obj_TypeDef *Obj);
  17:Device/Dev_ICM20602.c **** static bool DevICM20602_SwReset(DevICM20602Obj_TypeDef *Obj);
  18:Device/Dev_ICM20602.c **** static bool DevICM20602_GetReady(DevICM20602Obj_TypeDef *Obj);
  19:Device/Dev_ICM20602.c **** static void DevICM20602_Sample(DevICM20602Obj_TypeDef *Obj);
  20:Device/Dev_ICM20602.c **** static IMUData_TypeDef DevICM20602_Get_Data(DevICM20602Obj_TypeDef *Obj);
  21:Device/Dev_ICM20602.c **** static ICM20602_Error_List DevICM20602_Get_InitError(DevICM20602Obj_TypeDef *Obj);
  22:Device/Dev_ICM20602.c **** 
  23:Device/Dev_ICM20602.c **** /* external variable */
  24:Device/Dev_ICM20602.c **** DevICM20602_TypeDef DevICM20602 = {
  25:Device/Dev_ICM20602.c ****     .config = DevICM20602_Config,
  26:Device/Dev_ICM20602.c ****     .init = DevICM20602_Init,
  27:Device/Dev_ICM20602.c ****     .pre_init = DevICM20602_PreInit,
  28:Device/Dev_ICM20602.c ****     .reset = DevICM20602_SwReset,
  29:Device/Dev_ICM20602.c ****     .set_ready = DevICM20602_SetDRDY,
  30:Device/Dev_ICM20602.c ****     .get_ready = DevICM20602_GetReady,
  31:Device/Dev_ICM20602.c ****     .sample = DevICM20602_Sample,
ARM GAS  /var/folders/lx/hc4sn_b53233_zkc9xbbl97r0000gp/T//ccHjtyzg.s 			page 2


  32:Device/Dev_ICM20602.c ****     .get_error = DevICM20602_Get_InitError,
  33:Device/Dev_ICM20602.c ****     .get_data = DevICM20602_Get_Data,
  34:Device/Dev_ICM20602.c **** };
  35:Device/Dev_ICM20602.c **** 
  36:Device/Dev_ICM20602.c **** static bool DevICM20602_Regs_Read(DevICM20602Obj_TypeDef *Obj, uint32_t addr, uint8_t *tx, uint8_t 
  37:Device/Dev_ICM20602.c **** {
  38:Device/Dev_ICM20602.c ****     bool state = false;
  39:Device/Dev_ICM20602.c **** 
  40:Device/Dev_ICM20602.c ****     if (Obj == NULL || Obj->cs_ctl == NULL || Obj->bus_trans == NULL)
  41:Device/Dev_ICM20602.c ****         return false;
  42:Device/Dev_ICM20602.c **** 
  43:Device/Dev_ICM20602.c ****     tx[0] = addr | ICM20602_WRITE_MASK;
  44:Device/Dev_ICM20602.c **** 
  45:Device/Dev_ICM20602.c ****     /* CS Low */
  46:Device/Dev_ICM20602.c ****     Obj->cs_ctl(false);
  47:Device/Dev_ICM20602.c **** 
  48:Device/Dev_ICM20602.c ****     state = Obj->bus_trans(tx, rx, size);
  49:Device/Dev_ICM20602.c **** 
  50:Device/Dev_ICM20602.c ****     /* CS High */
  51:Device/Dev_ICM20602.c ****     Obj->cs_ctl(true);
  52:Device/Dev_ICM20602.c **** 
  53:Device/Dev_ICM20602.c ****     return state;
  54:Device/Dev_ICM20602.c **** }
  55:Device/Dev_ICM20602.c **** 
  56:Device/Dev_ICM20602.c **** static bool DevICM20602_Reg_Read(DevICM20602Obj_TypeDef *Obj, uint8_t addr, uint8_t *rx)
  57:Device/Dev_ICM20602.c **** {
  28              		.loc 1 57 1 view -0
  29              		.cfi_startproc
  30              		@ args = 0, pretend = 0, frame = 8
  31              		@ frame_needed = 0, uses_anonymous_args = 0
  32              		.loc 1 57 1 is_stmt 0 view .LVU1
  33 0000 70B5     		push	{r4, r5, r6, lr}
  34              	.LCFI0:
  35              		.cfi_def_cfa_offset 16
  36              		.cfi_offset 4, -16
  37              		.cfi_offset 5, -12
  38              		.cfi_offset 6, -8
  39              		.cfi_offset 14, -4
  40 0002 82B0     		sub	sp, sp, #8
  41              	.LCFI1:
  42              		.cfi_def_cfa_offset 24
  58:Device/Dev_ICM20602.c ****     uint8_t Rx_Tmp[2] = {0};
  43              		.loc 1 58 5 is_stmt 1 view .LVU2
  44              		.loc 1 58 13 is_stmt 0 view .LVU3
  45 0004 0023     		movs	r3, #0
  46 0006 ADF80430 		strh	r3, [sp, #4]	@ movhi
  59:Device/Dev_ICM20602.c ****     uint8_t Tx_Tmp[2] = {0};
  47              		.loc 1 59 5 is_stmt 1 view .LVU4
  48              		.loc 1 59 13 is_stmt 0 view .LVU5
  49 000a ADF80030 		strh	r3, [sp]	@ movhi
  60:Device/Dev_ICM20602.c ****     bool state = false;
  50              		.loc 1 60 5 is_stmt 1 view .LVU6
  51              	.LVL1:
  61:Device/Dev_ICM20602.c **** 
  62:Device/Dev_ICM20602.c ****     if (Obj == NULL || Obj->cs_ctl == NULL || Obj->bus_trans == NULL)
  52              		.loc 1 62 5 view .LVU7
  53              		.loc 1 62 8 is_stmt 0 view .LVU8
ARM GAS  /var/folders/lx/hc4sn_b53233_zkc9xbbl97r0000gp/T//ccHjtyzg.s 			page 3


  54 000e D8B1     		cbz	r0, .L3
  55 0010 1646     		mov	r6, r2
  56 0012 0446     		mov	r4, r0
  57              		.loc 1 62 27 discriminator 1 view .LVU9
  58 0014 0368     		ldr	r3, [r0]
  59              		.loc 1 62 21 discriminator 1 view .LVU10
  60 0016 CBB1     		cbz	r3, .L4
  61              		.loc 1 62 50 discriminator 2 view .LVU11
  62 0018 4368     		ldr	r3, [r0, #4]
  63              		.loc 1 62 44 discriminator 2 view .LVU12
  64 001a CBB1     		cbz	r3, .L5
  63:Device/Dev_ICM20602.c ****         return false;
  64:Device/Dev_ICM20602.c **** 
  65:Device/Dev_ICM20602.c ****     Tx_Tmp[0] = addr | ICM20602_WRITE_MASK;
  65              		.loc 1 65 5 is_stmt 1 view .LVU13
  66              		.loc 1 65 15 is_stmt 0 view .LVU14
  67 001c 61F07F01 		orn	r1, r1, #127
  68              	.LVL2:
  69              		.loc 1 65 15 view .LVU15
  70 0020 8DF80010 		strb	r1, [sp]
  66:Device/Dev_ICM20602.c **** 
  67:Device/Dev_ICM20602.c ****     /* cs low */
  68:Device/Dev_ICM20602.c ****     Obj->cs_ctl(false);
  71              		.loc 1 68 5 is_stmt 1 view .LVU16
  72              		.loc 1 68 8 is_stmt 0 view .LVU17
  73 0024 0368     		ldr	r3, [r0]
  74              		.loc 1 68 5 view .LVU18
  75 0026 0020     		movs	r0, #0
  76              	.LVL3:
  77              		.loc 1 68 5 view .LVU19
  78 0028 9847     		blx	r3
  79              	.LVL4:
  69:Device/Dev_ICM20602.c **** 
  70:Device/Dev_ICM20602.c ****     state = Obj->bus_trans(Tx_Tmp, Rx_Tmp, 2);
  80              		.loc 1 70 5 is_stmt 1 view .LVU20
  81              		.loc 1 70 16 is_stmt 0 view .LVU21
  82 002a 6368     		ldr	r3, [r4, #4]
  83              		.loc 1 70 13 view .LVU22
  84 002c 0222     		movs	r2, #2
  85 002e 01A9     		add	r1, sp, #4
  86 0030 6846     		mov	r0, sp
  87 0032 9847     		blx	r3
  88              	.LVL5:
  89 0034 0546     		mov	r5, r0
  90              	.LVL6:
  71:Device/Dev_ICM20602.c **** 
  72:Device/Dev_ICM20602.c ****     *rx = Rx_Tmp[1];
  91              		.loc 1 72 5 is_stmt 1 view .LVU23
  92              		.loc 1 72 17 is_stmt 0 view .LVU24
  93 0036 9DF80530 		ldrb	r3, [sp, #5]	@ zero_extendqisi2
  94              		.loc 1 72 9 view .LVU25
  95 003a 3370     		strb	r3, [r6]
  73:Device/Dev_ICM20602.c **** 
  74:Device/Dev_ICM20602.c ****     /* cs high */
  75:Device/Dev_ICM20602.c ****     Obj->cs_ctl(true);
  96              		.loc 1 75 5 is_stmt 1 view .LVU26
  97              		.loc 1 75 8 is_stmt 0 view .LVU27
ARM GAS  /var/folders/lx/hc4sn_b53233_zkc9xbbl97r0000gp/T//ccHjtyzg.s 			page 4


  98 003c 2368     		ldr	r3, [r4]
  99              		.loc 1 75 5 view .LVU28
 100 003e 0120     		movs	r0, #1
 101 0040 9847     		blx	r3
 102              	.LVL7:
  76:Device/Dev_ICM20602.c **** 
  77:Device/Dev_ICM20602.c ****     return state;
 103              		.loc 1 77 5 is_stmt 1 view .LVU29
 104              	.L2:
  78:Device/Dev_ICM20602.c **** }
 105              		.loc 1 78 1 is_stmt 0 view .LVU30
 106 0042 2846     		mov	r0, r5
 107 0044 02B0     		add	sp, sp, #8
 108              	.LCFI2:
 109              		.cfi_remember_state
 110              		.cfi_def_cfa_offset 16
 111              		@ sp needed
 112 0046 70BD     		pop	{r4, r5, r6, pc}
 113              	.LVL8:
 114              	.L3:
 115              	.LCFI3:
 116              		.cfi_restore_state
  63:Device/Dev_ICM20602.c **** 
 117              		.loc 1 63 16 view .LVU31
 118 0048 0025     		movs	r5, #0
 119 004a FAE7     		b	.L2
 120              	.L4:
  63:Device/Dev_ICM20602.c **** 
 121              		.loc 1 63 16 view .LVU32
 122 004c 0025     		movs	r5, #0
 123 004e F8E7     		b	.L2
 124              	.L5:
 125 0050 0025     		movs	r5, #0
 126 0052 F6E7     		b	.L2
 127              		.cfi_endproc
 128              	.LFE1:
 130              		.section	.text.DevICM20602_Reg_Write,"ax",%progbits
 131              		.align	1
 132              		.syntax unified
 133              		.thumb
 134              		.thumb_func
 135              		.fpu fpv5-d16
 137              	DevICM20602_Reg_Write:
 138              	.LVL9:
 139              	.LFB2:
  79:Device/Dev_ICM20602.c **** 
  80:Device/Dev_ICM20602.c **** static bool DevICM20602_Reg_Write(DevICM20602Obj_TypeDef *Obj, uint8_t addr, uint8_t tx)
  81:Device/Dev_ICM20602.c **** {
 140              		.loc 1 81 1 is_stmt 1 view -0
 141              		.cfi_startproc
 142              		@ args = 0, pretend = 0, frame = 8
 143              		@ frame_needed = 0, uses_anonymous_args = 0
 144              		.loc 1 81 1 is_stmt 0 view .LVU34
 145 0000 30B5     		push	{r4, r5, lr}
 146              	.LCFI4:
 147              		.cfi_def_cfa_offset 12
 148              		.cfi_offset 4, -12
ARM GAS  /var/folders/lx/hc4sn_b53233_zkc9xbbl97r0000gp/T//ccHjtyzg.s 			page 5


 149              		.cfi_offset 5, -8
 150              		.cfi_offset 14, -4
 151 0002 83B0     		sub	sp, sp, #12
 152              	.LCFI5:
 153              		.cfi_def_cfa_offset 24
  82:Device/Dev_ICM20602.c ****     uint8_t Rx_Tmp[2] = {0};
 154              		.loc 1 82 5 is_stmt 1 view .LVU35
 155              		.loc 1 82 13 is_stmt 0 view .LVU36
 156 0004 0023     		movs	r3, #0
 157 0006 ADF80430 		strh	r3, [sp, #4]	@ movhi
  83:Device/Dev_ICM20602.c ****     uint8_t Tx_Tmp[2] = {0};
 158              		.loc 1 83 5 is_stmt 1 view .LVU37
 159              		.loc 1 83 13 is_stmt 0 view .LVU38
 160 000a ADF80030 		strh	r3, [sp]	@ movhi
  84:Device/Dev_ICM20602.c ****     bool state = false;
 161              		.loc 1 84 5 is_stmt 1 view .LVU39
 162              	.LVL10:
  85:Device/Dev_ICM20602.c **** 
  86:Device/Dev_ICM20602.c ****     if (Obj == NULL || Obj->cs_ctl == NULL || Obj->bus_trans == NULL)
 163              		.loc 1 86 5 view .LVU40
 164              		.loc 1 86 8 is_stmt 0 view .LVU41
 165 000e B8B1     		cbz	r0, .L9
 166 0010 0446     		mov	r4, r0
 167              		.loc 1 86 27 discriminator 1 view .LVU42
 168 0012 0368     		ldr	r3, [r0]
 169              		.loc 1 86 21 discriminator 1 view .LVU43
 170 0014 B3B1     		cbz	r3, .L10
 171              		.loc 1 86 50 discriminator 2 view .LVU44
 172 0016 4368     		ldr	r3, [r0, #4]
 173              		.loc 1 86 44 discriminator 2 view .LVU45
 174 0018 B3B1     		cbz	r3, .L11
  87:Device/Dev_ICM20602.c ****         return false;
  88:Device/Dev_ICM20602.c **** 
  89:Device/Dev_ICM20602.c ****     Tx_Tmp[0] = addr;
 175              		.loc 1 89 5 is_stmt 1 view .LVU46
 176              		.loc 1 89 15 is_stmt 0 view .LVU47
 177 001a 8DF80010 		strb	r1, [sp]
  90:Device/Dev_ICM20602.c ****     Tx_Tmp[1] = tx;
 178              		.loc 1 90 5 is_stmt 1 view .LVU48
 179              		.loc 1 90 15 is_stmt 0 view .LVU49
 180 001e 8DF80120 		strb	r2, [sp, #1]
  91:Device/Dev_ICM20602.c **** 
  92:Device/Dev_ICM20602.c ****     /* cs low */
  93:Device/Dev_ICM20602.c ****     Obj->cs_ctl(false);
 181              		.loc 1 93 5 is_stmt 1 view .LVU50
 182              		.loc 1 93 8 is_stmt 0 view .LVU51
 183 0022 0368     		ldr	r3, [r0]
 184              		.loc 1 93 5 view .LVU52
 185 0024 0020     		movs	r0, #0
 186              	.LVL11:
 187              		.loc 1 93 5 view .LVU53
 188 0026 9847     		blx	r3
 189              	.LVL12:
  94:Device/Dev_ICM20602.c **** 
  95:Device/Dev_ICM20602.c ****     state = Obj->bus_trans(Tx_Tmp, Rx_Tmp, 2);
 190              		.loc 1 95 5 is_stmt 1 view .LVU54
 191              		.loc 1 95 16 is_stmt 0 view .LVU55
ARM GAS  /var/folders/lx/hc4sn_b53233_zkc9xbbl97r0000gp/T//ccHjtyzg.s 			page 6


 192 0028 6368     		ldr	r3, [r4, #4]
 193              		.loc 1 95 13 view .LVU56
 194 002a 0222     		movs	r2, #2
 195 002c 01A9     		add	r1, sp, #4
 196 002e 6846     		mov	r0, sp
 197 0030 9847     		blx	r3
 198              	.LVL13:
 199 0032 0546     		mov	r5, r0
 200              	.LVL14:
  96:Device/Dev_ICM20602.c **** 
  97:Device/Dev_ICM20602.c ****     /* cs high */
  98:Device/Dev_ICM20602.c ****     Obj->cs_ctl(true);
 201              		.loc 1 98 5 is_stmt 1 view .LVU57
 202              		.loc 1 98 8 is_stmt 0 view .LVU58
 203 0034 2368     		ldr	r3, [r4]
 204              		.loc 1 98 5 view .LVU59
 205 0036 0120     		movs	r0, #1
 206 0038 9847     		blx	r3
 207              	.LVL15:
  99:Device/Dev_ICM20602.c **** 
 100:Device/Dev_ICM20602.c ****     return state;
 208              		.loc 1 100 5 is_stmt 1 view .LVU60
 209              	.L8:
 101:Device/Dev_ICM20602.c **** }
 210              		.loc 1 101 1 is_stmt 0 view .LVU61
 211 003a 2846     		mov	r0, r5
 212 003c 03B0     		add	sp, sp, #12
 213              	.LCFI6:
 214              		.cfi_remember_state
 215              		.cfi_def_cfa_offset 12
 216              		@ sp needed
 217 003e 30BD     		pop	{r4, r5, pc}
 218              	.LVL16:
 219              	.L9:
 220              	.LCFI7:
 221              		.cfi_restore_state
  87:Device/Dev_ICM20602.c **** 
 222              		.loc 1 87 16 view .LVU62
 223 0040 0025     		movs	r5, #0
 224 0042 FAE7     		b	.L8
 225              	.L10:
  87:Device/Dev_ICM20602.c **** 
 226              		.loc 1 87 16 view .LVU63
 227 0044 0025     		movs	r5, #0
 228 0046 F8E7     		b	.L8
 229              	.L11:
 230 0048 0025     		movs	r5, #0
 231 004a F6E7     		b	.L8
 232              		.cfi_endproc
 233              	.LFE2:
 235              		.section	.text.DevICM20602_Config,"ax",%progbits
 236              		.align	1
 237              		.syntax unified
 238              		.thumb
 239              		.thumb_func
 240              		.fpu fpv5-d16
 242              	DevICM20602_Config:
ARM GAS  /var/folders/lx/hc4sn_b53233_zkc9xbbl97r0000gp/T//ccHjtyzg.s 			page 7


 243              	.LVL17:
 244              	.LFB3:
 102:Device/Dev_ICM20602.c **** 
 103:Device/Dev_ICM20602.c **** static void DevICM20602_Config(DevICM20602Obj_TypeDef *Obj, ICM20602_SampleRate_List rate, ICM20602
 104:Device/Dev_ICM20602.c **** {
 245              		.loc 1 104 1 is_stmt 1 view -0
 246              		.cfi_startproc
 247              		@ args = 0, pretend = 0, frame = 0
 248              		@ frame_needed = 0, uses_anonymous_args = 0
 249              		.loc 1 104 1 is_stmt 0 view .LVU65
 250 0000 00B5     		push	{lr}
 251              	.LCFI8:
 252              		.cfi_def_cfa_offset 4
 253              		.cfi_offset 14, -4
 105:Device/Dev_ICM20602.c ****     switch ((uint8_t)Obj->rate)
 254              		.loc 1 105 5 is_stmt 1 view .LVU66
 255              		.loc 1 105 25 is_stmt 0 view .LVU67
 256 0002 90F829E0 		ldrb	lr, [r0, #41]	@ zero_extendqisi2
 257 0006 BEF1070F 		cmp	lr, #7
 258 000a 2FD8     		bhi	.L13
 259 000c 4FF0010C 		mov	ip, #1
 260 0010 0CFA0EFC 		lsl	ip, ip, lr
 261 0014 1CF08B0F 		tst	ip, #139
 262 0018 28D0     		beq	.L13
 106:Device/Dev_ICM20602.c ****     {
 107:Device/Dev_ICM20602.c ****     case ICM20602_SampleRate_8K:
 108:Device/Dev_ICM20602.c ****     case ICM20602_SampleRate_4K:
 109:Device/Dev_ICM20602.c ****     case ICM20602_SampleRate_2K:
 110:Device/Dev_ICM20602.c ****     case ICM20602_SampleRate_1K:
 111:Device/Dev_ICM20602.c ****         break;
 263              		.loc 1 111 9 is_stmt 1 view .LVU68
 112:Device/Dev_ICM20602.c **** 
 113:Device/Dev_ICM20602.c ****     default:
 114:Device/Dev_ICM20602.c ****         return false;
 115:Device/Dev_ICM20602.c ****     }
 116:Device/Dev_ICM20602.c **** 
 117:Device/Dev_ICM20602.c ****     Obj->rate = rate;
 264              		.loc 1 117 5 view .LVU69
 265              		.loc 1 117 15 is_stmt 0 view .LVU70
 266 001a 80F82910 		strb	r1, [r0, #41]
 118:Device/Dev_ICM20602.c **** 
 119:Device/Dev_ICM20602.c ****     switch ((uint8_t)AccTrip)
 267              		.loc 1 119 5 is_stmt 1 view .LVU71
 268 001e 032B     		cmp	r3, #3
 269 0020 24D8     		bhi	.L13
 270 0022 DFE803F0 		tbb	[pc, r3]
 271              	.LVL18:
 272              	.L16:
 273 0026 02       		.byte	(.L19-.L16)/2
 274 0027 0C       		.byte	(.L18-.L16)/2
 275 0028 11       		.byte	(.L17-.L16)/2
 276 0029 16       		.byte	(.L15-.L16)/2
 277              		.p2align 1
 278              	.L19:
 120:Device/Dev_ICM20602.c ****     {
 121:Device/Dev_ICM20602.c ****     case ICM20602_Acc_2G:
 122:Device/Dev_ICM20602.c ****         Obj->acc_scale = ICM20602_ACC_2G_SCALE;
ARM GAS  /var/folders/lx/hc4sn_b53233_zkc9xbbl97r0000gp/T//ccHjtyzg.s 			page 8


 279              		.loc 1 122 9 view .LVU72
 280              		.loc 1 122 24 is_stmt 0 view .LVU73
 281 002a 9FED197B 		vldr.64	d7, .L28
 282 002e 80ED067B 		vstr.64	d7, [r0, #24]
 123:Device/Dev_ICM20602.c ****         break;
 283              		.loc 1 123 9 is_stmt 1 view .LVU74
 284              	.L20:
 124:Device/Dev_ICM20602.c **** 
 125:Device/Dev_ICM20602.c ****     case ICM20602_Acc_4G:
 126:Device/Dev_ICM20602.c ****         Obj->acc_scale = ICM20602_ACC_4G_SCALE;
 127:Device/Dev_ICM20602.c ****         break;
 128:Device/Dev_ICM20602.c **** 
 129:Device/Dev_ICM20602.c ****     case ICM20602_Acc_8G:
 130:Device/Dev_ICM20602.c ****         Obj->acc_scale = ICM20602_ACC_8G_SCALE;
 131:Device/Dev_ICM20602.c ****         break;
 132:Device/Dev_ICM20602.c **** 
 133:Device/Dev_ICM20602.c ****     case ICM20602_Acc_16G:
 134:Device/Dev_ICM20602.c ****         Obj->acc_scale = ICM20602_ACC_16G_SCALE;
 135:Device/Dev_ICM20602.c ****         break;
 136:Device/Dev_ICM20602.c **** 
 137:Device/Dev_ICM20602.c ****     default:
 138:Device/Dev_ICM20602.c ****         return false;
 139:Device/Dev_ICM20602.c ****     }
 140:Device/Dev_ICM20602.c **** 
 141:Device/Dev_ICM20602.c ****     switch ((uint8_t)GyrTrip)
 285              		.loc 1 141 5 view .LVU75
 286 0032 032A     		cmp	r2, #3
 287 0034 1AD8     		bhi	.L13
 288 0036 DFE802F0 		tbb	[pc, r2]
 289              	.L22:
 290 003a 11       		.byte	(.L25-.L22)/2
 291 003b 1B       		.byte	(.L24-.L22)/2
 292 003c 20       		.byte	(.L23-.L22)/2
 293 003d 25       		.byte	(.L21-.L22)/2
 294              		.p2align 1
 295              	.L18:
 126:Device/Dev_ICM20602.c ****         break;
 296              		.loc 1 126 9 view .LVU76
 126:Device/Dev_ICM20602.c ****         break;
 297              		.loc 1 126 24 is_stmt 0 view .LVU77
 298 003e 9FED167B 		vldr.64	d7, .L28+8
 299 0042 80ED067B 		vstr.64	d7, [r0, #24]
 127:Device/Dev_ICM20602.c **** 
 300              		.loc 1 127 9 is_stmt 1 view .LVU78
 301 0046 F4E7     		b	.L20
 302              	.L17:
 130:Device/Dev_ICM20602.c ****         break;
 303              		.loc 1 130 9 view .LVU79
 130:Device/Dev_ICM20602.c ****         break;
 304              		.loc 1 130 24 is_stmt 0 view .LVU80
 305 0048 9FED157B 		vldr.64	d7, .L28+16
 306 004c 80ED067B 		vstr.64	d7, [r0, #24]
 131:Device/Dev_ICM20602.c **** 
 307              		.loc 1 131 9 is_stmt 1 view .LVU81
 308 0050 EFE7     		b	.L20
 309              	.L15:
 134:Device/Dev_ICM20602.c ****         break;
ARM GAS  /var/folders/lx/hc4sn_b53233_zkc9xbbl97r0000gp/T//ccHjtyzg.s 			page 9


 310              		.loc 1 134 9 view .LVU82
 134:Device/Dev_ICM20602.c ****         break;
 311              		.loc 1 134 24 is_stmt 0 view .LVU83
 312 0052 9FED157B 		vldr.64	d7, .L28+24
 313 0056 80ED067B 		vstr.64	d7, [r0, #24]
 135:Device/Dev_ICM20602.c **** 
 314              		.loc 1 135 9 is_stmt 1 view .LVU84
 315 005a EAE7     		b	.L20
 316              	.L25:
 142:Device/Dev_ICM20602.c ****     {
 143:Device/Dev_ICM20602.c ****     case ICM20602_Gyr_250DPS:
 144:Device/Dev_ICM20602.c ****         Obj->gyr_scale = ICM20602_GYR_250DPS_SCALE;
 317              		.loc 1 144 9 view .LVU85
 318              		.loc 1 144 24 is_stmt 0 view .LVU86
 319 005c 9FED147B 		vldr.64	d7, .L28+32
 320 0060 80ED087B 		vstr.64	d7, [r0, #32]
 145:Device/Dev_ICM20602.c ****         break;
 321              		.loc 1 145 9 is_stmt 1 view .LVU87
 322              	.L26:
 146:Device/Dev_ICM20602.c **** 
 147:Device/Dev_ICM20602.c ****     case ICM20602_Gyr_500DPS:
 148:Device/Dev_ICM20602.c ****         Obj->gyr_scale = ICM20602_GYR_500DPS_SCALE;
 149:Device/Dev_ICM20602.c ****         break;
 150:Device/Dev_ICM20602.c **** 
 151:Device/Dev_ICM20602.c ****     case ICM20602_Gyr_1000DPS:
 152:Device/Dev_ICM20602.c ****         Obj->gyr_scale = ICM20602_GYR_1000DPS_SCALE;
 153:Device/Dev_ICM20602.c ****         break;
 154:Device/Dev_ICM20602.c **** 
 155:Device/Dev_ICM20602.c ****     case ICM20602_Gyr_2000DPS:
 156:Device/Dev_ICM20602.c ****         Obj->gyr_scale = ICM20602_GYR_2000DPS_SCALE;
 157:Device/Dev_ICM20602.c ****         break;
 158:Device/Dev_ICM20602.c **** 
 159:Device/Dev_ICM20602.c ****     default:
 160:Device/Dev_ICM20602.c ****         return false;
 161:Device/Dev_ICM20602.c ****     }
 162:Device/Dev_ICM20602.c **** 
 163:Device/Dev_ICM20602.c ****     // set Trip Reg val
 164:Device/Dev_ICM20602.c ****     Obj->AccTrip = ConvertToTrip_Reg(AccTrip);
 323              		.loc 1 164 5 view .LVU88
 324              		.loc 1 164 20 is_stmt 0 view .LVU89
 325 0064 DB00     		lsls	r3, r3, #3
 326              	.LVL19:
 327              		.loc 1 164 18 view .LVU90
 328 0066 8374     		strb	r3, [r0, #18]
 165:Device/Dev_ICM20602.c ****     Obj->GyrTrip = ConvertToTrip_Reg(GyrTrip);
 329              		.loc 1 165 5 is_stmt 1 view .LVU91
 330              		.loc 1 165 20 is_stmt 0 view .LVU92
 331 0068 D200     		lsls	r2, r2, #3
 332              	.LVL20:
 333              		.loc 1 165 18 view .LVU93
 334 006a C274     		strb	r2, [r0, #19]
 166:Device/Dev_ICM20602.c **** 
 167:Device/Dev_ICM20602.c ****     return true;
 335              		.loc 1 167 5 is_stmt 1 view .LVU94
 336              	.LVL21:
 337              	.L13:
 168:Device/Dev_ICM20602.c **** }
ARM GAS  /var/folders/lx/hc4sn_b53233_zkc9xbbl97r0000gp/T//ccHjtyzg.s 			page 10


 338              		.loc 1 168 1 is_stmt 0 view .LVU95
 339 006c 5DF804FB 		ldr	pc, [sp], #4
 340              	.LVL22:
 341              	.L24:
 148:Device/Dev_ICM20602.c ****         break;
 342              		.loc 1 148 9 is_stmt 1 view .LVU96
 148:Device/Dev_ICM20602.c ****         break;
 343              		.loc 1 148 24 is_stmt 0 view .LVU97
 344 0070 9FED117B 		vldr.64	d7, .L28+40
 345 0074 80ED087B 		vstr.64	d7, [r0, #32]
 149:Device/Dev_ICM20602.c **** 
 346              		.loc 1 149 9 is_stmt 1 view .LVU98
 347 0078 F4E7     		b	.L26
 348              	.L23:
 152:Device/Dev_ICM20602.c ****         break;
 349              		.loc 1 152 9 view .LVU99
 152:Device/Dev_ICM20602.c ****         break;
 350              		.loc 1 152 24 is_stmt 0 view .LVU100
 351 007a 9FED117B 		vldr.64	d7, .L28+48
 352 007e 80ED087B 		vstr.64	d7, [r0, #32]
 153:Device/Dev_ICM20602.c **** 
 353              		.loc 1 153 9 is_stmt 1 view .LVU101
 354 0082 EFE7     		b	.L26
 355              	.L21:
 156:Device/Dev_ICM20602.c ****         break;
 356              		.loc 1 156 9 view .LVU102
 156:Device/Dev_ICM20602.c ****         break;
 357              		.loc 1 156 24 is_stmt 0 view .LVU103
 358 0084 9FED107B 		vldr.64	d7, .L28+56
 359 0088 80ED087B 		vstr.64	d7, [r0, #32]
 157:Device/Dev_ICM20602.c **** 
 360              		.loc 1 157 9 is_stmt 1 view .LVU104
 361 008c EAE7     		b	.L26
 362              	.L29:
 363 008e 00BF     		.align	3
 364              	.L28:
 365 0090 00000000 		.word	0
 366 0094 0000D040 		.word	1087373312
 367 0098 00000000 		.word	0
 368 009c 0000C040 		.word	1086324736
 369 00a0 00000000 		.word	0
 370 00a4 0000B040 		.word	1085276160
 371 00a8 00000000 		.word	0
 372 00ac 0000A040 		.word	1084227584
 373 00b0 00000000 		.word	0
 374 00b4 00606040 		.word	1080057856
 375 00b8 00000000 		.word	0
 376 00bc 00605040 		.word	1079009280
 377 00c0 66666666 		.word	1717986918
 378 00c4 66664040 		.word	1077962342
 379 00c8 66666666 		.word	1717986918
 380 00cc 66663040 		.word	1076913766
 381              		.cfi_endproc
 382              	.LFE3:
 384              		.section	.text.DevICM20602_PreInit,"ax",%progbits
 385              		.align	1
 386              		.syntax unified
ARM GAS  /var/folders/lx/hc4sn_b53233_zkc9xbbl97r0000gp/T//ccHjtyzg.s 			page 11


 387              		.thumb
 388              		.thumb_func
 389              		.fpu fpv5-d16
 391              	DevICM20602_PreInit:
 392              	.LVL23:
 393              	.LFB4:
 169:Device/Dev_ICM20602.c **** 
 170:Device/Dev_ICM20602.c **** static void DevICM20602_PreInit(DevICM20602Obj_TypeDef *Obj,
 171:Device/Dev_ICM20602.c ****                                 cs_ctl_callback cs_ctl,
 172:Device/Dev_ICM20602.c ****                                 bus_trans_callback bus_trans,
 173:Device/Dev_ICM20602.c ****                                 delay_callback delay,
 174:Device/Dev_ICM20602.c ****                                 get_time_stamp_callback get_time_stamp)
 175:Device/Dev_ICM20602.c **** {
 394              		.loc 1 175 1 view -0
 395              		.cfi_startproc
 396              		@ args = 4, pretend = 0, frame = 0
 397              		@ frame_needed = 0, uses_anonymous_args = 0
 398              		@ link register save eliminated.
 176:Device/Dev_ICM20602.c ****     Obj->cs_ctl = cs_ctl;
 399              		.loc 1 176 5 view .LVU106
 400              		.loc 1 176 17 is_stmt 0 view .LVU107
 401 0000 0160     		str	r1, [r0]
 177:Device/Dev_ICM20602.c ****     Obj->bus_trans = bus_trans;
 402              		.loc 1 177 5 is_stmt 1 view .LVU108
 403              		.loc 1 177 20 is_stmt 0 view .LVU109
 404 0002 4260     		str	r2, [r0, #4]
 178:Device/Dev_ICM20602.c ****     Obj->delay = delay;
 405              		.loc 1 178 5 is_stmt 1 view .LVU110
 406              		.loc 1 178 16 is_stmt 0 view .LVU111
 407 0004 8360     		str	r3, [r0, #8]
 179:Device/Dev_ICM20602.c ****     Obj->get_timestamp = get_time_stamp;
 408              		.loc 1 179 5 is_stmt 1 view .LVU112
 409              		.loc 1 179 24 is_stmt 0 view .LVU113
 410 0006 009B     		ldr	r3, [sp]
 411              	.LVL24:
 412              		.loc 1 179 24 view .LVU114
 413 0008 C360     		str	r3, [r0, #12]
 180:Device/Dev_ICM20602.c **** }
 414              		.loc 1 180 1 view .LVU115
 415 000a 7047     		bx	lr
 416              		.cfi_endproc
 417              	.LFE4:
 419              		.section	.text.DevICM20602_SetDRDY,"ax",%progbits
 420              		.align	1
 421              		.syntax unified
 422              		.thumb
 423              		.thumb_func
 424              		.fpu fpv5-d16
 426              	DevICM20602_SetDRDY:
 427              	.LVL25:
 428              	.LFB6:
 181:Device/Dev_ICM20602.c **** 
 182:Device/Dev_ICM20602.c **** uint8_t ICM20602_ID = 0xFE;
 183:Device/Dev_ICM20602.c **** 
 184:Device/Dev_ICM20602.c **** static ICM20602_Error_List DevICM20602_Init(DevICM20602Obj_TypeDef *Obj)
 185:Device/Dev_ICM20602.c **** {
 186:Device/Dev_ICM20602.c ****     uint8_t read_out = 0;
ARM GAS  /var/folders/lx/hc4sn_b53233_zkc9xbbl97r0000gp/T//ccHjtyzg.s 			page 12


 187:Device/Dev_ICM20602.c **** 
 188:Device/Dev_ICM20602.c ****     if ((Obj == NULL) ||
 189:Device/Dev_ICM20602.c ****         (Obj->bus_trans == NULL) ||
 190:Device/Dev_ICM20602.c ****         (Obj->cs_ctl == NULL))
 191:Device/Dev_ICM20602.c ****     {
 192:Device/Dev_ICM20602.c ****         Obj->error = ICM20602_Obj_Error;
 193:Device/Dev_ICM20602.c ****         return false;
 194:Device/Dev_ICM20602.c ****     }
 195:Device/Dev_ICM20602.c **** 
 196:Device/Dev_ICM20602.c ****     DevICM20602_Reg_Read(Obj, ICM20602_WHO_AM_I, &read_out);
 197:Device/Dev_ICM20602.c ****     Obj->delay(10);
 198:Device/Dev_ICM20602.c **** 
 199:Device/Dev_ICM20602.c ****     ICM20602_ID = read_out;
 200:Device/Dev_ICM20602.c **** 
 201:Device/Dev_ICM20602.c ****     if ((read_out != ICM20602_DEV_V1_ID) && (read_out != ICM20602_DEV_V2_ID))
 202:Device/Dev_ICM20602.c ****     {
 203:Device/Dev_ICM20602.c ****         Obj->error = ICM20602_DevID_Error;
 204:Device/Dev_ICM20602.c ****         return false;
 205:Device/Dev_ICM20602.c ****     }
 206:Device/Dev_ICM20602.c **** 
 207:Device/Dev_ICM20602.c ****     /* reset device */
 208:Device/Dev_ICM20602.c ****     if (!DevICM20602_SwReset(Obj))
 209:Device/Dev_ICM20602.c ****     {
 210:Device/Dev_ICM20602.c ****         Obj->error = ICM20602_Reset_Error;
 211:Device/Dev_ICM20602.c ****         return false;
 212:Device/Dev_ICM20602.c ****     }
 213:Device/Dev_ICM20602.c **** 
 214:Device/Dev_ICM20602.c ****     /* set oscillator clock */
 215:Device/Dev_ICM20602.c ****     DevICM20602_Reg_Write(Obj, ICM20602_PWR_MGMT_1, 0x01);
 216:Device/Dev_ICM20602.c ****     Obj->delay(10);
 217:Device/Dev_ICM20602.c **** 
 218:Device/Dev_ICM20602.c ****     DevICM20602_Reg_Read(Obj, ICM20602_PWR_MGMT_1, &read_out);
 219:Device/Dev_ICM20602.c ****     if (read_out != 0x01)
 220:Device/Dev_ICM20602.c ****     {
 221:Device/Dev_ICM20602.c ****         Obj->error = ICM20602_OSC_Error;
 222:Device/Dev_ICM20602.c ****         return false;
 223:Device/Dev_ICM20602.c ****     }
 224:Device/Dev_ICM20602.c **** 
 225:Device/Dev_ICM20602.c ****     /* enable gyro and acc */
 226:Device/Dev_ICM20602.c ****     DevICM20602_Reg_Write(Obj, ICM20602_PWR_MGMT_2, 0x00);
 227:Device/Dev_ICM20602.c ****     Obj->delay(10);
 228:Device/Dev_ICM20602.c **** 
 229:Device/Dev_ICM20602.c ****     DevICM20602_Reg_Read(Obj, ICM20602_PWR_MGMT_2, &read_out);
 230:Device/Dev_ICM20602.c ****     if (read_out != 0x00)
 231:Device/Dev_ICM20602.c ****     {
 232:Device/Dev_ICM20602.c ****         Obj->error = ICM20602_InertialEnable_Error;
 233:Device/Dev_ICM20602.c ****         return false;
 234:Device/Dev_ICM20602.c ****     }
 235:Device/Dev_ICM20602.c **** 
 236:Device/Dev_ICM20602.c ****     /* disable iic interface */
 237:Device/Dev_ICM20602.c ****     DevICM20602_Reg_Write(Obj, ICM20602_I2C_IF, 0x40);
 238:Device/Dev_ICM20602.c ****     Obj->delay(10);
 239:Device/Dev_ICM20602.c **** 
 240:Device/Dev_ICM20602.c ****     DevICM20602_Reg_Read(Obj, ICM20602_I2C_IF, &read_out);
 241:Device/Dev_ICM20602.c ****     if (read_out != 0x40)
 242:Device/Dev_ICM20602.c ****     {
 243:Device/Dev_ICM20602.c ****         Obj->error = ICM20602_InterfaceSet_Error;
ARM GAS  /var/folders/lx/hc4sn_b53233_zkc9xbbl97r0000gp/T//ccHjtyzg.s 			page 13


 244:Device/Dev_ICM20602.c ****         return false;
 245:Device/Dev_ICM20602.c ****     }
 246:Device/Dev_ICM20602.c **** 
 247:Device/Dev_ICM20602.c ****     /* set sample rate */
 248:Device/Dev_ICM20602.c ****     DevICM20602_Reg_Write(Obj, ICM20602_SMPLRT_DIV, Obj->rate);
 249:Device/Dev_ICM20602.c ****     Obj->delay(10);
 250:Device/Dev_ICM20602.c **** 
 251:Device/Dev_ICM20602.c ****     DevICM20602_Reg_Read(Obj, ICM20602_SMPLRT_DIV, &read_out);
 252:Device/Dev_ICM20602.c ****     if (read_out != Obj->rate)
 253:Device/Dev_ICM20602.c ****     {
 254:Device/Dev_ICM20602.c ****         Obj->error = ICM20602_RateSet_Error;
 255:Device/Dev_ICM20602.c ****         return false;
 256:Device/Dev_ICM20602.c ****     }
 257:Device/Dev_ICM20602.c **** 
 258:Device/Dev_ICM20602.c ****     /* set acc trip */
 259:Device/Dev_ICM20602.c ****     DevICM20602_Reg_Write(Obj, ICM20602_ACCEL_CONFIG, Obj->AccTrip);
 260:Device/Dev_ICM20602.c ****     Obj->delay(10);
 261:Device/Dev_ICM20602.c **** 
 262:Device/Dev_ICM20602.c ****     DevICM20602_Reg_Read(Obj, ICM20602_ACCEL_CONFIG, &read_out);
 263:Device/Dev_ICM20602.c ****     if (read_out != Obj->AccTrip)
 264:Device/Dev_ICM20602.c ****     {
 265:Device/Dev_ICM20602.c ****         Obj->error = ICM20602_AccSet_Error;
 266:Device/Dev_ICM20602.c ****         return false;
 267:Device/Dev_ICM20602.c ****     }
 268:Device/Dev_ICM20602.c **** 
 269:Device/Dev_ICM20602.c ****     /* set gyr trip */
 270:Device/Dev_ICM20602.c ****     DevICM20602_Reg_Write(Obj, ICM20602_GYRO_CONFIG, Obj->GyrTrip);
 271:Device/Dev_ICM20602.c ****     Obj->delay(10);
 272:Device/Dev_ICM20602.c **** 
 273:Device/Dev_ICM20602.c ****     DevICM20602_Reg_Read(Obj, ICM20602_GYRO_CONFIG, &read_out);
 274:Device/Dev_ICM20602.c ****     if (read_out != Obj->GyrTrip)
 275:Device/Dev_ICM20602.c ****     {
 276:Device/Dev_ICM20602.c ****         Obj->error = ICM20602_GyrSet_Error;
 277:Device/Dev_ICM20602.c ****         return false;
 278:Device/Dev_ICM20602.c ****     }
 279:Device/Dev_ICM20602.c **** 
 280:Device/Dev_ICM20602.c ****     /* enable odr int output */
 281:Device/Dev_ICM20602.c ****     DevICM20602_Reg_Write(Obj, ICM20602_INT_PIN_CFG, 0x60);
 282:Device/Dev_ICM20602.c ****     Obj->delay(10);
 283:Device/Dev_ICM20602.c **** 
 284:Device/Dev_ICM20602.c ****     DevICM20602_Reg_Read(Obj, ICM20602_INT_PIN_CFG, &read_out);
 285:Device/Dev_ICM20602.c ****     if (read_out != 0x60)
 286:Device/Dev_ICM20602.c ****     {
 287:Device/Dev_ICM20602.c ****         Obj->error = ICM20602_GyrSet_Error;
 288:Device/Dev_ICM20602.c ****         return false;
 289:Device/Dev_ICM20602.c ****     }
 290:Device/Dev_ICM20602.c **** 
 291:Device/Dev_ICM20602.c ****     return true;
 292:Device/Dev_ICM20602.c **** }
 293:Device/Dev_ICM20602.c **** 
 294:Device/Dev_ICM20602.c **** static void DevICM20602_SetDRDY(DevICM20602Obj_TypeDef *Obj)
 295:Device/Dev_ICM20602.c **** {
 429              		.loc 1 295 1 is_stmt 1 view -0
 430              		.cfi_startproc
 431              		@ args = 0, pretend = 0, frame = 0
 432              		@ frame_needed = 0, uses_anonymous_args = 0
 433              		@ link register save eliminated.
ARM GAS  /var/folders/lx/hc4sn_b53233_zkc9xbbl97r0000gp/T//ccHjtyzg.s 			page 14


 296:Device/Dev_ICM20602.c ****     Obj->drdy = true;
 434              		.loc 1 296 5 view .LVU117
 435              		.loc 1 296 15 is_stmt 0 view .LVU118
 436 0000 0123     		movs	r3, #1
 437 0002 0374     		strb	r3, [r0, #16]
 297:Device/Dev_ICM20602.c **** }
 438              		.loc 1 297 1 view .LVU119
 439 0004 7047     		bx	lr
 440              		.cfi_endproc
 441              	.LFE6:
 443              		.section	.text.DevICM20602_SwReset,"ax",%progbits
 444              		.align	1
 445              		.syntax unified
 446              		.thumb
 447              		.thumb_func
 448              		.fpu fpv5-d16
 450              	DevICM20602_SwReset:
 451              	.LVL26:
 452              	.LFB7:
 298:Device/Dev_ICM20602.c **** 
 299:Device/Dev_ICM20602.c **** static bool DevICM20602_SwReset(DevICM20602Obj_TypeDef *Obj)
 300:Device/Dev_ICM20602.c **** {
 453              		.loc 1 300 1 is_stmt 1 view -0
 454              		.cfi_startproc
 455              		@ args = 0, pretend = 0, frame = 0
 456              		@ frame_needed = 0, uses_anonymous_args = 0
 457              		.loc 1 300 1 is_stmt 0 view .LVU121
 458 0000 10B5     		push	{r4, lr}
 459              	.LCFI9:
 460              		.cfi_def_cfa_offset 8
 461              		.cfi_offset 4, -8
 462              		.cfi_offset 14, -4
 463 0002 0446     		mov	r4, r0
 301:Device/Dev_ICM20602.c ****     uint8_t read_out = 0;
 464              		.loc 1 301 5 is_stmt 1 view .LVU122
 465              	.LVL27:
 302:Device/Dev_ICM20602.c ****     uint64_t reset_UsRt = 0;
 466              		.loc 1 302 5 view .LVU123
 303:Device/Dev_ICM20602.c **** 
 304:Device/Dev_ICM20602.c ****     DevICM20602_Reg_Write(Obj, ICM20602_PWR_MGMT_1, ICM20602_RESET_CMD);
 467              		.loc 1 304 5 view .LVU124
 468 0004 8022     		movs	r2, #128
 469 0006 6B21     		movs	r1, #107
 470 0008 FFF7FEFF 		bl	DevICM20602_Reg_Write
 471              	.LVL28:
 305:Device/Dev_ICM20602.c ****     Obj->delay(20);
 472              		.loc 1 305 5 view .LVU125
 473              		.loc 1 305 8 is_stmt 0 view .LVU126
 474 000c A368     		ldr	r3, [r4, #8]
 475              		.loc 1 305 5 view .LVU127
 476 000e 1420     		movs	r0, #20
 477 0010 9847     		blx	r3
 478              	.LVL29:
 306:Device/Dev_ICM20602.c ****     reset_UsRt = Obj->get_timestamp();
 479              		.loc 1 306 5 is_stmt 1 view .LVU128
 480              		.loc 1 306 21 is_stmt 0 view .LVU129
 481 0012 E368     		ldr	r3, [r4, #12]
ARM GAS  /var/folders/lx/hc4sn_b53233_zkc9xbbl97r0000gp/T//ccHjtyzg.s 			page 15


 482              		.loc 1 306 18 view .LVU130
 483 0014 9847     		blx	r3
 484              	.LVL30:
 307:Device/Dev_ICM20602.c **** 
 308:Device/Dev_ICM20602.c ****     // do
 309:Device/Dev_ICM20602.c ****     // {
 310:Device/Dev_ICM20602.c ****     //     if ((Obj->get_timestamp() - reset_UsRt) >= ICM20602_RESET_TIMEOUT)
 311:Device/Dev_ICM20602.c ****     //         return false;
 312:Device/Dev_ICM20602.c **** 
 313:Device/Dev_ICM20602.c ****     //     DevICM20602_Reg_Read(Obj, ICM20602_PWR_MGMT_1, &read_out);
 314:Device/Dev_ICM20602.c ****     // } while (ICM20602_RESET_SUCCESS != read_out);
 315:Device/Dev_ICM20602.c **** 
 316:Device/Dev_ICM20602.c ****     return true;
 485              		.loc 1 316 5 is_stmt 1 view .LVU131
 317:Device/Dev_ICM20602.c **** }
 486              		.loc 1 317 1 is_stmt 0 view .LVU132
 487 0016 0120     		movs	r0, #1
 488 0018 10BD     		pop	{r4, pc}
 489              		.loc 1 317 1 view .LVU133
 490              		.cfi_endproc
 491              	.LFE7:
 493              		.section	.text.DevICM20602_Init,"ax",%progbits
 494              		.align	1
 495              		.syntax unified
 496              		.thumb
 497              		.thumb_func
 498              		.fpu fpv5-d16
 500              	DevICM20602_Init:
 501              	.LVL31:
 502              	.LFB5:
 185:Device/Dev_ICM20602.c ****     uint8_t read_out = 0;
 503              		.loc 1 185 1 is_stmt 1 view -0
 504              		.cfi_startproc
 505              		@ args = 0, pretend = 0, frame = 8
 506              		@ frame_needed = 0, uses_anonymous_args = 0
 185:Device/Dev_ICM20602.c ****     uint8_t read_out = 0;
 507              		.loc 1 185 1 is_stmt 0 view .LVU135
 508 0000 70B5     		push	{r4, r5, r6, lr}
 509              	.LCFI10:
 510              		.cfi_def_cfa_offset 16
 511              		.cfi_offset 4, -16
 512              		.cfi_offset 5, -12
 513              		.cfi_offset 6, -8
 514              		.cfi_offset 14, -4
 515 0002 82B0     		sub	sp, sp, #8
 516              	.LCFI11:
 517              		.cfi_def_cfa_offset 24
 186:Device/Dev_ICM20602.c **** 
 518              		.loc 1 186 5 is_stmt 1 view .LVU136
 186:Device/Dev_ICM20602.c **** 
 519              		.loc 1 186 13 is_stmt 0 view .LVU137
 520 0004 0023     		movs	r3, #0
 521 0006 8DF80730 		strb	r3, [sp, #7]
 188:Device/Dev_ICM20602.c ****         (Obj->bus_trans == NULL) ||
 522              		.loc 1 188 5 is_stmt 1 view .LVU138
 188:Device/Dev_ICM20602.c ****         (Obj->bus_trans == NULL) ||
 523              		.loc 1 188 8 is_stmt 0 view .LVU139
ARM GAS  /var/folders/lx/hc4sn_b53233_zkc9xbbl97r0000gp/T//ccHjtyzg.s 			page 16


 524 000a 0446     		mov	r4, r0
 525 000c C0B1     		cbz	r0, .L35
 189:Device/Dev_ICM20602.c ****         (Obj->cs_ctl == NULL))
 526              		.loc 1 189 13 discriminator 1 view .LVU140
 527 000e 4368     		ldr	r3, [r0, #4]
 188:Device/Dev_ICM20602.c ****         (Obj->bus_trans == NULL) ||
 528              		.loc 1 188 23 discriminator 1 view .LVU141
 529 0010 B3B1     		cbz	r3, .L35
 190:Device/Dev_ICM20602.c ****     {
 530              		.loc 1 190 13 view .LVU142
 531 0012 0368     		ldr	r3, [r0]
 189:Device/Dev_ICM20602.c ****         (Obj->cs_ctl == NULL))
 532              		.loc 1 189 34 view .LVU143
 533 0014 A3B1     		cbz	r3, .L35
 196:Device/Dev_ICM20602.c ****     Obj->delay(10);
 534              		.loc 1 196 5 is_stmt 1 view .LVU144
 535 0016 0DF10702 		add	r2, sp, #7
 536 001a 7521     		movs	r1, #117
 537 001c FFF7FEFF 		bl	DevICM20602_Reg_Read
 538              	.LVL32:
 197:Device/Dev_ICM20602.c **** 
 539              		.loc 1 197 5 view .LVU145
 197:Device/Dev_ICM20602.c **** 
 540              		.loc 1 197 8 is_stmt 0 view .LVU146
 541 0020 A368     		ldr	r3, [r4, #8]
 197:Device/Dev_ICM20602.c **** 
 542              		.loc 1 197 5 view .LVU147
 543 0022 0A20     		movs	r0, #10
 544 0024 9847     		blx	r3
 545              	.LVL33:
 199:Device/Dev_ICM20602.c **** 
 546              		.loc 1 199 5 is_stmt 1 view .LVU148
 199:Device/Dev_ICM20602.c **** 
 547              		.loc 1 199 17 is_stmt 0 view .LVU149
 548 0026 9DF80730 		ldrb	r3, [sp, #7]	@ zero_extendqisi2
 549 002a 5E4A     		ldr	r2, .L48
 550 002c 1370     		strb	r3, [r2]
 201:Device/Dev_ICM20602.c ****     {
 551              		.loc 1 201 5 is_stmt 1 view .LVU150
 201:Device/Dev_ICM20602.c ****     {
 552              		.loc 1 201 42 is_stmt 0 view .LVU151
 553 002e 683B     		subs	r3, r3, #104
 554 0030 DBB2     		uxtb	r3, r3
 201:Device/Dev_ICM20602.c ****     {
 555              		.loc 1 201 8 view .LVU152
 556 0032 012B     		cmp	r3, #1
 557 0034 0BD9     		bls	.L38
 203:Device/Dev_ICM20602.c ****         return false;
 558              		.loc 1 203 9 is_stmt 1 view .LVU153
 203:Device/Dev_ICM20602.c ****         return false;
 559              		.loc 1 203 20 is_stmt 0 view .LVU154
 560 0036 0223     		movs	r3, #2
 561 0038 84F82830 		strb	r3, [r4, #40]
 204:Device/Dev_ICM20602.c ****     }
 562              		.loc 1 204 9 is_stmt 1 view .LVU155
 204:Device/Dev_ICM20602.c ****     }
 563              		.loc 1 204 16 is_stmt 0 view .LVU156
ARM GAS  /var/folders/lx/hc4sn_b53233_zkc9xbbl97r0000gp/T//ccHjtyzg.s 			page 17


 564 003c 0025     		movs	r5, #0
 565 003e 03E0     		b	.L37
 566              	.LVL34:
 567              	.L35:
 192:Device/Dev_ICM20602.c ****         return false;
 568              		.loc 1 192 9 is_stmt 1 view .LVU157
 192:Device/Dev_ICM20602.c ****         return false;
 569              		.loc 1 192 20 is_stmt 0 view .LVU158
 570 0040 0123     		movs	r3, #1
 571 0042 84F82830 		strb	r3, [r4, #40]
 193:Device/Dev_ICM20602.c ****     }
 572              		.loc 1 193 9 is_stmt 1 view .LVU159
 193:Device/Dev_ICM20602.c ****     }
 573              		.loc 1 193 16 is_stmt 0 view .LVU160
 574 0046 0025     		movs	r5, #0
 575              	.LVL35:
 576              	.L37:
 292:Device/Dev_ICM20602.c **** 
 577              		.loc 1 292 1 view .LVU161
 578 0048 2846     		mov	r0, r5
 579 004a 02B0     		add	sp, sp, #8
 580              	.LCFI12:
 581              		.cfi_remember_state
 582              		.cfi_def_cfa_offset 16
 583              		@ sp needed
 584 004c 70BD     		pop	{r4, r5, r6, pc}
 585              	.LVL36:
 586              	.L38:
 587              	.LCFI13:
 588              		.cfi_restore_state
 208:Device/Dev_ICM20602.c ****     {
 589              		.loc 1 208 5 is_stmt 1 view .LVU162
 208:Device/Dev_ICM20602.c ****     {
 590              		.loc 1 208 10 is_stmt 0 view .LVU163
 591 004e 2046     		mov	r0, r4
 592 0050 FFF7FEFF 		bl	DevICM20602_SwReset
 593              	.LVL37:
 208:Device/Dev_ICM20602.c ****     {
 594              		.loc 1 208 8 view .LVU164
 595 0054 20B9     		cbnz	r0, .L39
 210:Device/Dev_ICM20602.c ****         return false;
 596              		.loc 1 210 9 is_stmt 1 view .LVU165
 210:Device/Dev_ICM20602.c ****         return false;
 597              		.loc 1 210 20 is_stmt 0 view .LVU166
 598 0056 0323     		movs	r3, #3
 599 0058 84F82830 		strb	r3, [r4, #40]
 211:Device/Dev_ICM20602.c ****     }
 600              		.loc 1 211 9 is_stmt 1 view .LVU167
 211:Device/Dev_ICM20602.c ****     }
 601              		.loc 1 211 16 is_stmt 0 view .LVU168
 602 005c 0025     		movs	r5, #0
 603 005e F3E7     		b	.L37
 604              	.L39:
 215:Device/Dev_ICM20602.c ****     Obj->delay(10);
 605              		.loc 1 215 5 is_stmt 1 view .LVU169
 606 0060 0122     		movs	r2, #1
 607 0062 6B21     		movs	r1, #107
ARM GAS  /var/folders/lx/hc4sn_b53233_zkc9xbbl97r0000gp/T//ccHjtyzg.s 			page 18


 608 0064 2046     		mov	r0, r4
 609 0066 FFF7FEFF 		bl	DevICM20602_Reg_Write
 610              	.LVL38:
 216:Device/Dev_ICM20602.c **** 
 611              		.loc 1 216 5 view .LVU170
 216:Device/Dev_ICM20602.c **** 
 612              		.loc 1 216 8 is_stmt 0 view .LVU171
 613 006a A368     		ldr	r3, [r4, #8]
 216:Device/Dev_ICM20602.c **** 
 614              		.loc 1 216 5 view .LVU172
 615 006c 0A20     		movs	r0, #10
 616 006e 9847     		blx	r3
 617              	.LVL39:
 218:Device/Dev_ICM20602.c ****     if (read_out != 0x01)
 618              		.loc 1 218 5 is_stmt 1 view .LVU173
 619 0070 0DF10702 		add	r2, sp, #7
 620 0074 6B21     		movs	r1, #107
 621 0076 2046     		mov	r0, r4
 622 0078 FFF7FEFF 		bl	DevICM20602_Reg_Read
 623              	.LVL40:
 219:Device/Dev_ICM20602.c ****     {
 624              		.loc 1 219 5 view .LVU174
 219:Device/Dev_ICM20602.c ****     {
 625              		.loc 1 219 18 is_stmt 0 view .LVU175
 626 007c 9DF80760 		ldrb	r6, [sp, #7]	@ zero_extendqisi2
 219:Device/Dev_ICM20602.c ****     {
 627              		.loc 1 219 8 view .LVU176
 628 0080 012E     		cmp	r6, #1
 629 0082 04D0     		beq	.L40
 221:Device/Dev_ICM20602.c ****         return false;
 630              		.loc 1 221 9 is_stmt 1 view .LVU177
 221:Device/Dev_ICM20602.c ****         return false;
 631              		.loc 1 221 20 is_stmt 0 view .LVU178
 632 0084 0423     		movs	r3, #4
 633 0086 84F82830 		strb	r3, [r4, #40]
 222:Device/Dev_ICM20602.c ****     }
 634              		.loc 1 222 9 is_stmt 1 view .LVU179
 222:Device/Dev_ICM20602.c ****     }
 635              		.loc 1 222 16 is_stmt 0 view .LVU180
 636 008a 0025     		movs	r5, #0
 637 008c DCE7     		b	.L37
 638              	.L40:
 226:Device/Dev_ICM20602.c ****     Obj->delay(10);
 639              		.loc 1 226 5 is_stmt 1 view .LVU181
 640 008e 0022     		movs	r2, #0
 641 0090 6C21     		movs	r1, #108
 642 0092 2046     		mov	r0, r4
 643 0094 FFF7FEFF 		bl	DevICM20602_Reg_Write
 644              	.LVL41:
 227:Device/Dev_ICM20602.c **** 
 645              		.loc 1 227 5 view .LVU182
 227:Device/Dev_ICM20602.c **** 
 646              		.loc 1 227 8 is_stmt 0 view .LVU183
 647 0098 A368     		ldr	r3, [r4, #8]
 227:Device/Dev_ICM20602.c **** 
 648              		.loc 1 227 5 view .LVU184
 649 009a 0A20     		movs	r0, #10
ARM GAS  /var/folders/lx/hc4sn_b53233_zkc9xbbl97r0000gp/T//ccHjtyzg.s 			page 19


 650 009c 9847     		blx	r3
 651              	.LVL42:
 229:Device/Dev_ICM20602.c ****     if (read_out != 0x00)
 652              		.loc 1 229 5 is_stmt 1 view .LVU185
 653 009e 0DF10702 		add	r2, sp, #7
 654 00a2 6C21     		movs	r1, #108
 655 00a4 2046     		mov	r0, r4
 656 00a6 FFF7FEFF 		bl	DevICM20602_Reg_Read
 657              	.LVL43:
 230:Device/Dev_ICM20602.c ****     {
 658              		.loc 1 230 5 view .LVU186
 230:Device/Dev_ICM20602.c ****     {
 659              		.loc 1 230 18 is_stmt 0 view .LVU187
 660 00aa 9DF80750 		ldrb	r5, [sp, #7]	@ zero_extendqisi2
 230:Device/Dev_ICM20602.c ****     {
 661              		.loc 1 230 8 view .LVU188
 662 00ae 25B1     		cbz	r5, .L41
 232:Device/Dev_ICM20602.c ****         return false;
 663              		.loc 1 232 9 is_stmt 1 view .LVU189
 232:Device/Dev_ICM20602.c ****         return false;
 664              		.loc 1 232 20 is_stmt 0 view .LVU190
 665 00b0 0523     		movs	r3, #5
 666 00b2 84F82830 		strb	r3, [r4, #40]
 233:Device/Dev_ICM20602.c ****     }
 667              		.loc 1 233 9 is_stmt 1 view .LVU191
 233:Device/Dev_ICM20602.c ****     }
 668              		.loc 1 233 16 is_stmt 0 view .LVU192
 669 00b6 0025     		movs	r5, #0
 670 00b8 C6E7     		b	.L37
 671              	.L41:
 237:Device/Dev_ICM20602.c ****     Obj->delay(10);
 672              		.loc 1 237 5 is_stmt 1 view .LVU193
 673 00ba 4022     		movs	r2, #64
 674 00bc 7021     		movs	r1, #112
 675 00be 2046     		mov	r0, r4
 676 00c0 FFF7FEFF 		bl	DevICM20602_Reg_Write
 677              	.LVL44:
 238:Device/Dev_ICM20602.c **** 
 678              		.loc 1 238 5 view .LVU194
 238:Device/Dev_ICM20602.c **** 
 679              		.loc 1 238 8 is_stmt 0 view .LVU195
 680 00c4 A368     		ldr	r3, [r4, #8]
 238:Device/Dev_ICM20602.c **** 
 681              		.loc 1 238 5 view .LVU196
 682 00c6 0A20     		movs	r0, #10
 683 00c8 9847     		blx	r3
 684              	.LVL45:
 240:Device/Dev_ICM20602.c ****     if (read_out != 0x40)
 685              		.loc 1 240 5 is_stmt 1 view .LVU197
 686 00ca 0DF10702 		add	r2, sp, #7
 687 00ce 7021     		movs	r1, #112
 688 00d0 2046     		mov	r0, r4
 689 00d2 FFF7FEFF 		bl	DevICM20602_Reg_Read
 690              	.LVL46:
 241:Device/Dev_ICM20602.c ****     {
 691              		.loc 1 241 5 view .LVU198
 241:Device/Dev_ICM20602.c ****     {
ARM GAS  /var/folders/lx/hc4sn_b53233_zkc9xbbl97r0000gp/T//ccHjtyzg.s 			page 20


 692              		.loc 1 241 18 is_stmt 0 view .LVU199
 693 00d6 9DF80730 		ldrb	r3, [sp, #7]	@ zero_extendqisi2
 241:Device/Dev_ICM20602.c ****     {
 694              		.loc 1 241 8 view .LVU200
 695 00da 402B     		cmp	r3, #64
 696 00dc 03D0     		beq	.L42
 243:Device/Dev_ICM20602.c ****         return false;
 697              		.loc 1 243 9 is_stmt 1 view .LVU201
 243:Device/Dev_ICM20602.c ****         return false;
 698              		.loc 1 243 20 is_stmt 0 view .LVU202
 699 00de 0623     		movs	r3, #6
 700 00e0 84F82830 		strb	r3, [r4, #40]
 244:Device/Dev_ICM20602.c ****     }
 701              		.loc 1 244 9 is_stmt 1 view .LVU203
 244:Device/Dev_ICM20602.c ****     }
 702              		.loc 1 244 16 is_stmt 0 view .LVU204
 703 00e4 B0E7     		b	.L37
 704              	.L42:
 248:Device/Dev_ICM20602.c ****     Obj->delay(10);
 705              		.loc 1 248 5 is_stmt 1 view .LVU205
 706 00e6 94F82920 		ldrb	r2, [r4, #41]	@ zero_extendqisi2
 707 00ea 1921     		movs	r1, #25
 708 00ec 2046     		mov	r0, r4
 709 00ee FFF7FEFF 		bl	DevICM20602_Reg_Write
 710              	.LVL47:
 249:Device/Dev_ICM20602.c **** 
 711              		.loc 1 249 5 view .LVU206
 249:Device/Dev_ICM20602.c **** 
 712              		.loc 1 249 8 is_stmt 0 view .LVU207
 713 00f2 A368     		ldr	r3, [r4, #8]
 249:Device/Dev_ICM20602.c **** 
 714              		.loc 1 249 5 view .LVU208
 715 00f4 0A20     		movs	r0, #10
 716 00f6 9847     		blx	r3
 717              	.LVL48:
 251:Device/Dev_ICM20602.c ****     if (read_out != Obj->rate)
 718              		.loc 1 251 5 is_stmt 1 view .LVU209
 719 00f8 0DF10702 		add	r2, sp, #7
 720 00fc 1921     		movs	r1, #25
 721 00fe 2046     		mov	r0, r4
 722 0100 FFF7FEFF 		bl	DevICM20602_Reg_Read
 723              	.LVL49:
 252:Device/Dev_ICM20602.c ****     {
 724              		.loc 1 252 5 view .LVU210
 252:Device/Dev_ICM20602.c ****     {
 725              		.loc 1 252 24 is_stmt 0 view .LVU211
 726 0104 94F82920 		ldrb	r2, [r4, #41]	@ zero_extendqisi2
 252:Device/Dev_ICM20602.c ****     {
 727              		.loc 1 252 18 view .LVU212
 728 0108 9DF80730 		ldrb	r3, [sp, #7]	@ zero_extendqisi2
 252:Device/Dev_ICM20602.c ****     {
 729              		.loc 1 252 8 view .LVU213
 730 010c 9A42     		cmp	r2, r3
 731 010e 03D0     		beq	.L43
 254:Device/Dev_ICM20602.c ****         return false;
 732              		.loc 1 254 9 is_stmt 1 view .LVU214
 254:Device/Dev_ICM20602.c ****         return false;
ARM GAS  /var/folders/lx/hc4sn_b53233_zkc9xbbl97r0000gp/T//ccHjtyzg.s 			page 21


 733              		.loc 1 254 20 is_stmt 0 view .LVU215
 734 0110 0923     		movs	r3, #9
 735 0112 84F82830 		strb	r3, [r4, #40]
 255:Device/Dev_ICM20602.c ****     }
 736              		.loc 1 255 9 is_stmt 1 view .LVU216
 255:Device/Dev_ICM20602.c ****     }
 737              		.loc 1 255 16 is_stmt 0 view .LVU217
 738 0116 97E7     		b	.L37
 739              	.L43:
 259:Device/Dev_ICM20602.c ****     Obj->delay(10);
 740              		.loc 1 259 5 is_stmt 1 view .LVU218
 741 0118 A27C     		ldrb	r2, [r4, #18]	@ zero_extendqisi2
 742 011a 1C21     		movs	r1, #28
 743 011c 2046     		mov	r0, r4
 744 011e FFF7FEFF 		bl	DevICM20602_Reg_Write
 745              	.LVL50:
 260:Device/Dev_ICM20602.c **** 
 746              		.loc 1 260 5 view .LVU219
 260:Device/Dev_ICM20602.c **** 
 747              		.loc 1 260 8 is_stmt 0 view .LVU220
 748 0122 A368     		ldr	r3, [r4, #8]
 260:Device/Dev_ICM20602.c **** 
 749              		.loc 1 260 5 view .LVU221
 750 0124 0A20     		movs	r0, #10
 751 0126 9847     		blx	r3
 752              	.LVL51:
 262:Device/Dev_ICM20602.c ****     if (read_out != Obj->AccTrip)
 753              		.loc 1 262 5 is_stmt 1 view .LVU222
 754 0128 0DF10702 		add	r2, sp, #7
 755 012c 1C21     		movs	r1, #28
 756 012e 2046     		mov	r0, r4
 757 0130 FFF7FEFF 		bl	DevICM20602_Reg_Read
 758              	.LVL52:
 263:Device/Dev_ICM20602.c ****     {
 759              		.loc 1 263 5 view .LVU223
 263:Device/Dev_ICM20602.c ****     {
 760              		.loc 1 263 24 is_stmt 0 view .LVU224
 761 0134 A27C     		ldrb	r2, [r4, #18]	@ zero_extendqisi2
 263:Device/Dev_ICM20602.c ****     {
 762              		.loc 1 263 18 view .LVU225
 763 0136 9DF80730 		ldrb	r3, [sp, #7]	@ zero_extendqisi2
 263:Device/Dev_ICM20602.c ****     {
 764              		.loc 1 263 8 view .LVU226
 765 013a 9A42     		cmp	r2, r3
 766 013c 03D0     		beq	.L44
 265:Device/Dev_ICM20602.c ****         return false;
 767              		.loc 1 265 9 is_stmt 1 view .LVU227
 265:Device/Dev_ICM20602.c ****         return false;
 768              		.loc 1 265 20 is_stmt 0 view .LVU228
 769 013e 0723     		movs	r3, #7
 770 0140 84F82830 		strb	r3, [r4, #40]
 266:Device/Dev_ICM20602.c ****     }
 771              		.loc 1 266 9 is_stmt 1 view .LVU229
 266:Device/Dev_ICM20602.c ****     }
 772              		.loc 1 266 16 is_stmt 0 view .LVU230
 773 0144 80E7     		b	.L37
 774              	.L44:
ARM GAS  /var/folders/lx/hc4sn_b53233_zkc9xbbl97r0000gp/T//ccHjtyzg.s 			page 22


 270:Device/Dev_ICM20602.c ****     Obj->delay(10);
 775              		.loc 1 270 5 is_stmt 1 view .LVU231
 776 0146 E27C     		ldrb	r2, [r4, #19]	@ zero_extendqisi2
 777 0148 1B21     		movs	r1, #27
 778 014a 2046     		mov	r0, r4
 779 014c FFF7FEFF 		bl	DevICM20602_Reg_Write
 780              	.LVL53:
 271:Device/Dev_ICM20602.c **** 
 781              		.loc 1 271 5 view .LVU232
 271:Device/Dev_ICM20602.c **** 
 782              		.loc 1 271 8 is_stmt 0 view .LVU233
 783 0150 A368     		ldr	r3, [r4, #8]
 271:Device/Dev_ICM20602.c **** 
 784              		.loc 1 271 5 view .LVU234
 785 0152 0A20     		movs	r0, #10
 786 0154 9847     		blx	r3
 787              	.LVL54:
 273:Device/Dev_ICM20602.c ****     if (read_out != Obj->GyrTrip)
 788              		.loc 1 273 5 is_stmt 1 view .LVU235
 789 0156 0DF10702 		add	r2, sp, #7
 790 015a 1B21     		movs	r1, #27
 791 015c 2046     		mov	r0, r4
 792 015e FFF7FEFF 		bl	DevICM20602_Reg_Read
 793              	.LVL55:
 274:Device/Dev_ICM20602.c ****     {
 794              		.loc 1 274 5 view .LVU236
 274:Device/Dev_ICM20602.c ****     {
 795              		.loc 1 274 24 is_stmt 0 view .LVU237
 796 0162 E27C     		ldrb	r2, [r4, #19]	@ zero_extendqisi2
 274:Device/Dev_ICM20602.c ****     {
 797              		.loc 1 274 18 view .LVU238
 798 0164 9DF80730 		ldrb	r3, [sp, #7]	@ zero_extendqisi2
 274:Device/Dev_ICM20602.c ****     {
 799              		.loc 1 274 8 view .LVU239
 800 0168 9A42     		cmp	r2, r3
 801 016a 03D0     		beq	.L45
 276:Device/Dev_ICM20602.c ****         return false;
 802              		.loc 1 276 9 is_stmt 1 view .LVU240
 276:Device/Dev_ICM20602.c ****         return false;
 803              		.loc 1 276 20 is_stmt 0 view .LVU241
 804 016c 0823     		movs	r3, #8
 805 016e 84F82830 		strb	r3, [r4, #40]
 277:Device/Dev_ICM20602.c ****     }
 806              		.loc 1 277 9 is_stmt 1 view .LVU242
 277:Device/Dev_ICM20602.c ****     }
 807              		.loc 1 277 16 is_stmt 0 view .LVU243
 808 0172 69E7     		b	.L37
 809              	.L45:
 281:Device/Dev_ICM20602.c ****     Obj->delay(10);
 810              		.loc 1 281 5 is_stmt 1 view .LVU244
 811 0174 6022     		movs	r2, #96
 812 0176 3721     		movs	r1, #55
 813 0178 2046     		mov	r0, r4
 814 017a FFF7FEFF 		bl	DevICM20602_Reg_Write
 815              	.LVL56:
 282:Device/Dev_ICM20602.c **** 
 816              		.loc 1 282 5 view .LVU245
ARM GAS  /var/folders/lx/hc4sn_b53233_zkc9xbbl97r0000gp/T//ccHjtyzg.s 			page 23


 282:Device/Dev_ICM20602.c **** 
 817              		.loc 1 282 8 is_stmt 0 view .LVU246
 818 017e A368     		ldr	r3, [r4, #8]
 282:Device/Dev_ICM20602.c **** 
 819              		.loc 1 282 5 view .LVU247
 820 0180 0A20     		movs	r0, #10
 821 0182 9847     		blx	r3
 822              	.LVL57:
 284:Device/Dev_ICM20602.c ****     if (read_out != 0x60)
 823              		.loc 1 284 5 is_stmt 1 view .LVU248
 824 0184 0DF10702 		add	r2, sp, #7
 825 0188 3721     		movs	r1, #55
 826 018a 2046     		mov	r0, r4
 827 018c FFF7FEFF 		bl	DevICM20602_Reg_Read
 828              	.LVL58:
 285:Device/Dev_ICM20602.c ****     {
 829              		.loc 1 285 5 view .LVU249
 285:Device/Dev_ICM20602.c ****     {
 830              		.loc 1 285 18 is_stmt 0 view .LVU250
 831 0190 9DF80730 		ldrb	r3, [sp, #7]	@ zero_extendqisi2
 285:Device/Dev_ICM20602.c ****     {
 832              		.loc 1 285 8 view .LVU251
 833 0194 602B     		cmp	r3, #96
 834 0196 03D0     		beq	.L46
 287:Device/Dev_ICM20602.c ****         return false;
 835              		.loc 1 287 9 is_stmt 1 view .LVU252
 287:Device/Dev_ICM20602.c ****         return false;
 836              		.loc 1 287 20 is_stmt 0 view .LVU253
 837 0198 0823     		movs	r3, #8
 838 019a 84F82830 		strb	r3, [r4, #40]
 288:Device/Dev_ICM20602.c ****     }
 839              		.loc 1 288 9 is_stmt 1 view .LVU254
 288:Device/Dev_ICM20602.c ****     }
 840              		.loc 1 288 16 is_stmt 0 view .LVU255
 841 019e 53E7     		b	.L37
 842              	.L46:
 291:Device/Dev_ICM20602.c **** }
 843              		.loc 1 291 12 view .LVU256
 844 01a0 3546     		mov	r5, r6
 845 01a2 51E7     		b	.L37
 846              	.L49:
 847              		.align	2
 848              	.L48:
 849 01a4 00000000 		.word	.LANCHOR0
 850              		.cfi_endproc
 851              	.LFE5:
 853              		.section	.text.DevICM20602_GetReady,"ax",%progbits
 854              		.align	1
 855              		.syntax unified
 856              		.thumb
 857              		.thumb_func
 858              		.fpu fpv5-d16
 860              	DevICM20602_GetReady:
 861              	.LVL59:
 862              	.LFB8:
 318:Device/Dev_ICM20602.c **** 
 319:Device/Dev_ICM20602.c **** static bool DevICM20602_GetReady(DevICM20602Obj_TypeDef *Obj)
ARM GAS  /var/folders/lx/hc4sn_b53233_zkc9xbbl97r0000gp/T//ccHjtyzg.s 			page 24


 320:Device/Dev_ICM20602.c **** {
 863              		.loc 1 320 1 is_stmt 1 view -0
 864              		.cfi_startproc
 865              		@ args = 0, pretend = 0, frame = 0
 866              		@ frame_needed = 0, uses_anonymous_args = 0
 867              		@ link register save eliminated.
 321:Device/Dev_ICM20602.c ****     return Obj->drdy;
 868              		.loc 1 321 5 view .LVU258
 322:Device/Dev_ICM20602.c **** }
 869              		.loc 1 322 1 is_stmt 0 view .LVU259
 870 0000 007C     		ldrb	r0, [r0, #16]	@ zero_extendqisi2
 871              	.LVL60:
 872              		.loc 1 322 1 view .LVU260
 873 0002 7047     		bx	lr
 874              		.cfi_endproc
 875              	.LFE8:
 877              		.section	.text.DevICM20602_Sample,"ax",%progbits
 878              		.align	1
 879              		.syntax unified
 880              		.thumb
 881              		.thumb_func
 882              		.fpu fpv5-d16
 884              	DevICM20602_Sample:
 885              	.LVL61:
 886              	.LFB9:
 323:Device/Dev_ICM20602.c **** 
 324:Device/Dev_ICM20602.c **** static void DevICM20602_Sample(DevICM20602Obj_TypeDef *Obj)
 325:Device/Dev_ICM20602.c **** {
 887              		.loc 1 325 1 is_stmt 1 view -0
 888              		.cfi_startproc
 889              		@ args = 0, pretend = 0, frame = 0
 890              		@ frame_needed = 0, uses_anonymous_args = 0
 891              		@ link register save eliminated.
 326:Device/Dev_ICM20602.c **** }
 892              		.loc 1 326 1 view .LVU262
 893 0000 7047     		bx	lr
 894              		.cfi_endproc
 895              	.LFE9:
 897              		.section	.text.DevICM20602_Get_Data,"ax",%progbits
 898              		.align	1
 899              		.syntax unified
 900              		.thumb
 901              		.thumb_func
 902              		.fpu fpv5-d16
 904              	DevICM20602_Get_Data:
 905              	.LVL62:
 906              	.LFB10:
 327:Device/Dev_ICM20602.c **** 
 328:Device/Dev_ICM20602.c **** static IMUData_TypeDef DevICM20602_Get_Data(DevICM20602Obj_TypeDef *Obj)
 329:Device/Dev_ICM20602.c **** {
 907              		.loc 1 329 1 view -0
 908              		.cfi_startproc
 909              		@ args = 0, pretend = 0, frame = 0
 910              		@ frame_needed = 0, uses_anonymous_args = 0
 911              		.loc 1 329 1 is_stmt 0 view .LVU264
 912 0000 10B5     		push	{r4, lr}
 913              	.LCFI14:
ARM GAS  /var/folders/lx/hc4sn_b53233_zkc9xbbl97r0000gp/T//ccHjtyzg.s 			page 25


 914              		.cfi_def_cfa_offset 8
 915              		.cfi_offset 4, -8
 916              		.cfi_offset 14, -4
 917 0002 0446     		mov	r4, r0
 330:Device/Dev_ICM20602.c ****     if ((Obj->error == ICM20602_No_Error) && !Obj->update)
 918              		.loc 1 330 5 is_stmt 1 view .LVU265
 919              		.loc 1 330 13 is_stmt 0 view .LVU266
 920 0004 91F82830 		ldrb	r3, [r1, #40]	@ zero_extendqisi2
 921              		.loc 1 330 8 view .LVU267
 922 0008 3BB9     		cbnz	r3, .L53
 923              		.loc 1 330 50 discriminator 1 view .LVU268
 924 000a 4B7C     		ldrb	r3, [r1, #17]	@ zero_extendqisi2
 925              		.loc 1 330 43 discriminator 1 view .LVU269
 926 000c 2BB9     		cbnz	r3, .L53
 331:Device/Dev_ICM20602.c ****     {
 332:Device/Dev_ICM20602.c ****         Obj->drdy = false;
 927              		.loc 1 332 9 is_stmt 1 view .LVU270
 928              		.loc 1 332 19 is_stmt 0 view .LVU271
 929 000e 0B74     		strb	r3, [r1, #16]
 333:Device/Dev_ICM20602.c ****         return Obj->OriData;
 930              		.loc 1 333 9 is_stmt 1 view .LVU272
 931              		.loc 1 333 19 is_stmt 0 view .LVU273
 932 0010 4A22     		movs	r2, #74
 933 0012 2A31     		adds	r1, r1, #42
 934              	.LVL63:
 935              		.loc 1 333 19 view .LVU274
 936 0014 FFF7FEFF 		bl	memcpy
 937              	.LVL64:
 938              		.loc 1 333 19 view .LVU275
 939 0018 04E0     		b	.L52
 940              	.LVL65:
 941              	.L53:
 334:Device/Dev_ICM20602.c ****     }
 335:Device/Dev_ICM20602.c ****     else
 336:Device/Dev_ICM20602.c ****         return Obj->OriData_Lst;
 942              		.loc 1 336 9 is_stmt 1 view .LVU276
 943              		.loc 1 336 19 is_stmt 0 view .LVU277
 944 001a 4A22     		movs	r2, #74
 945 001c 7431     		adds	r1, r1, #116
 946              	.LVL66:
 947              		.loc 1 336 19 view .LVU278
 948 001e 2046     		mov	r0, r4
 949              	.LVL67:
 950              		.loc 1 336 19 view .LVU279
 951 0020 FFF7FEFF 		bl	memcpy
 952              	.LVL68:
 953              	.L52:
 337:Device/Dev_ICM20602.c **** }
 954              		.loc 1 337 1 view .LVU280
 955 0024 2046     		mov	r0, r4
 956 0026 10BD     		pop	{r4, pc}
 957              		.loc 1 337 1 view .LVU281
 958              		.cfi_endproc
 959              	.LFE10:
 961              		.section	.text.DevICM20602_Get_InitError,"ax",%progbits
 962              		.align	1
 963              		.syntax unified
ARM GAS  /var/folders/lx/hc4sn_b53233_zkc9xbbl97r0000gp/T//ccHjtyzg.s 			page 26


 964              		.thumb
 965              		.thumb_func
 966              		.fpu fpv5-d16
 968              	DevICM20602_Get_InitError:
 969              	.LVL69:
 970              	.LFB11:
 338:Device/Dev_ICM20602.c **** 
 339:Device/Dev_ICM20602.c **** static ICM20602_Error_List DevICM20602_Get_InitError(DevICM20602Obj_TypeDef *Obj)
 340:Device/Dev_ICM20602.c **** {
 971              		.loc 1 340 1 is_stmt 1 view -0
 972              		.cfi_startproc
 973              		@ args = 0, pretend = 0, frame = 0
 974              		@ frame_needed = 0, uses_anonymous_args = 0
 975              		@ link register save eliminated.
 341:Device/Dev_ICM20602.c ****     return Obj->error;
 976              		.loc 1 341 5 view .LVU283
 342:Device/Dev_ICM20602.c **** }
 977              		.loc 1 342 1 is_stmt 0 view .LVU284
 978 0000 90F82800 		ldrb	r0, [r0, #40]	@ zero_extendqisi2
 979              	.LVL70:
 980              		.loc 1 342 1 view .LVU285
 981 0004 7047     		bx	lr
 982              		.cfi_endproc
 983              	.LFE11:
 985              		.global	ICM20602_ID
 986              		.global	DevICM20602
 987              		.section	.data.DevICM20602,"aw"
 988              		.align	2
 991              	DevICM20602:
 992 0000 00000000 		.word	DevICM20602_Config
 993 0004 00000000 		.word	DevICM20602_PreInit
 994 0008 00000000 		.word	DevICM20602_Init
 995 000c 00000000 		.word	DevICM20602_SetDRDY
 996 0010 00000000 		.word	DevICM20602_GetReady
 997 0014 00000000 		.word	DevICM20602_SwReset
 998 0018 00000000 		.word	DevICM20602_Sample
 999 001c 00000000 		.word	DevICM20602_Get_Data
 1000 0020 00000000 		.word	DevICM20602_Get_InitError
 1001              		.section	.data.ICM20602_ID,"aw"
 1002              		.set	.LANCHOR0,. + 0
 1005              	ICM20602_ID:
 1006 0000 FE       		.byte	-2
 1007              		.text
 1008              	.Letext0:
 1009              		.file 2 "/usr/local/arm-none-eabi-gcc/gcc-arm-none-eabi-10-2020-q4-major/arm-none-eabi/include/mac
 1010              		.file 3 "/usr/local/arm-none-eabi-gcc/gcc-arm-none-eabi-10-2020-q4-major/arm-none-eabi/include/sys
 1011              		.file 4 "Service/imu_data.h"
 1012              		.file 5 "Device/Dev_ICM20602.h"
 1013              		.file 6 "<built-in>"
ARM GAS  /var/folders/lx/hc4sn_b53233_zkc9xbbl97r0000gp/T//ccHjtyzg.s 			page 27


DEFINED SYMBOLS
                            *ABS*:0000000000000000 Dev_ICM20602.c
/var/folders/lx/hc4sn_b53233_zkc9xbbl97r0000gp/T//ccHjtyzg.s:17     .text.DevICM20602_Reg_Read:0000000000000000 $t
/var/folders/lx/hc4sn_b53233_zkc9xbbl97r0000gp/T//ccHjtyzg.s:24     .text.DevICM20602_Reg_Read:0000000000000000 DevICM20602_Reg_Read
/var/folders/lx/hc4sn_b53233_zkc9xbbl97r0000gp/T//ccHjtyzg.s:131    .text.DevICM20602_Reg_Write:0000000000000000 $t
/var/folders/lx/hc4sn_b53233_zkc9xbbl97r0000gp/T//ccHjtyzg.s:137    .text.DevICM20602_Reg_Write:0000000000000000 DevICM20602_Reg_Write
/var/folders/lx/hc4sn_b53233_zkc9xbbl97r0000gp/T//ccHjtyzg.s:236    .text.DevICM20602_Config:0000000000000000 $t
/var/folders/lx/hc4sn_b53233_zkc9xbbl97r0000gp/T//ccHjtyzg.s:242    .text.DevICM20602_Config:0000000000000000 DevICM20602_Config
/var/folders/lx/hc4sn_b53233_zkc9xbbl97r0000gp/T//ccHjtyzg.s:273    .text.DevICM20602_Config:0000000000000026 $d
/var/folders/lx/hc4sn_b53233_zkc9xbbl97r0000gp/T//ccHjtyzg.s:277    .text.DevICM20602_Config:000000000000002a $t
/var/folders/lx/hc4sn_b53233_zkc9xbbl97r0000gp/T//ccHjtyzg.s:290    .text.DevICM20602_Config:000000000000003a $d
/var/folders/lx/hc4sn_b53233_zkc9xbbl97r0000gp/T//ccHjtyzg.s:294    .text.DevICM20602_Config:000000000000003e $t
/var/folders/lx/hc4sn_b53233_zkc9xbbl97r0000gp/T//ccHjtyzg.s:365    .text.DevICM20602_Config:0000000000000090 $d
/var/folders/lx/hc4sn_b53233_zkc9xbbl97r0000gp/T//ccHjtyzg.s:385    .text.DevICM20602_PreInit:0000000000000000 $t
/var/folders/lx/hc4sn_b53233_zkc9xbbl97r0000gp/T//ccHjtyzg.s:391    .text.DevICM20602_PreInit:0000000000000000 DevICM20602_PreInit
/var/folders/lx/hc4sn_b53233_zkc9xbbl97r0000gp/T//ccHjtyzg.s:420    .text.DevICM20602_SetDRDY:0000000000000000 $t
/var/folders/lx/hc4sn_b53233_zkc9xbbl97r0000gp/T//ccHjtyzg.s:426    .text.DevICM20602_SetDRDY:0000000000000000 DevICM20602_SetDRDY
/var/folders/lx/hc4sn_b53233_zkc9xbbl97r0000gp/T//ccHjtyzg.s:444    .text.DevICM20602_SwReset:0000000000000000 $t
/var/folders/lx/hc4sn_b53233_zkc9xbbl97r0000gp/T//ccHjtyzg.s:450    .text.DevICM20602_SwReset:0000000000000000 DevICM20602_SwReset
/var/folders/lx/hc4sn_b53233_zkc9xbbl97r0000gp/T//ccHjtyzg.s:494    .text.DevICM20602_Init:0000000000000000 $t
/var/folders/lx/hc4sn_b53233_zkc9xbbl97r0000gp/T//ccHjtyzg.s:500    .text.DevICM20602_Init:0000000000000000 DevICM20602_Init
/var/folders/lx/hc4sn_b53233_zkc9xbbl97r0000gp/T//ccHjtyzg.s:849    .text.DevICM20602_Init:00000000000001a4 $d
/var/folders/lx/hc4sn_b53233_zkc9xbbl97r0000gp/T//ccHjtyzg.s:854    .text.DevICM20602_GetReady:0000000000000000 $t
/var/folders/lx/hc4sn_b53233_zkc9xbbl97r0000gp/T//ccHjtyzg.s:860    .text.DevICM20602_GetReady:0000000000000000 DevICM20602_GetReady
/var/folders/lx/hc4sn_b53233_zkc9xbbl97r0000gp/T//ccHjtyzg.s:878    .text.DevICM20602_Sample:0000000000000000 $t
/var/folders/lx/hc4sn_b53233_zkc9xbbl97r0000gp/T//ccHjtyzg.s:884    .text.DevICM20602_Sample:0000000000000000 DevICM20602_Sample
/var/folders/lx/hc4sn_b53233_zkc9xbbl97r0000gp/T//ccHjtyzg.s:898    .text.DevICM20602_Get_Data:0000000000000000 $t
/var/folders/lx/hc4sn_b53233_zkc9xbbl97r0000gp/T//ccHjtyzg.s:904    .text.DevICM20602_Get_Data:0000000000000000 DevICM20602_Get_Data
/var/folders/lx/hc4sn_b53233_zkc9xbbl97r0000gp/T//ccHjtyzg.s:962    .text.DevICM20602_Get_InitError:0000000000000000 $t
/var/folders/lx/hc4sn_b53233_zkc9xbbl97r0000gp/T//ccHjtyzg.s:968    .text.DevICM20602_Get_InitError:0000000000000000 DevICM20602_Get_InitError
/var/folders/lx/hc4sn_b53233_zkc9xbbl97r0000gp/T//ccHjtyzg.s:1005   .data.ICM20602_ID:0000000000000000 ICM20602_ID
/var/folders/lx/hc4sn_b53233_zkc9xbbl97r0000gp/T//ccHjtyzg.s:991    .data.DevICM20602:0000000000000000 DevICM20602
/var/folders/lx/hc4sn_b53233_zkc9xbbl97r0000gp/T//ccHjtyzg.s:988    .data.DevICM20602:0000000000000000 $d

UNDEFINED SYMBOLS
memcpy
