ARM GAS  C:\Users\HUAV\AppData\Local\Temp\ccrgKcmg.s 			page 1


   1              		.cpu cortex-m7
   2              		.eabi_attribute 28, 1
   3              		.eabi_attribute 20, 1
   4              		.eabi_attribute 21, 1
   5              		.eabi_attribute 23, 3
   6              		.eabi_attribute 24, 1
   7              		.eabi_attribute 25, 1
   8              		.eabi_attribute 26, 1
   9              		.eabi_attribute 30, 1
  10              		.eabi_attribute 34, 1
  11              		.eabi_attribute 18, 4
  12              		.file	"Dev_Card.c"
  13              		.text
  14              	.Ltext0:
  15              		.cfi_sections	.debug_frame
  16              		.section	.text.DevCard_Init,"ax",%progbits
  17              		.align	1
  18              		.arch armv7e-m
  19              		.syntax unified
  20              		.thumb
  21              		.thumb_func
  22              		.fpu fpv5-d16
  24              	DevCard_Init:
  25              	.LVL0:
  26              	.LFB147:
  27              		.file 1 "Device/Dev_Card.c"
   1:Device/Dev_Card.c **** #include "Dev_Card.h"
   2:Device/Dev_Card.c **** #include "IO_Definition.h"
   3:Device/Dev_Card.c **** 
   4:Device/Dev_Card.c **** /* External Function */
   5:Device/Dev_Card.c **** static DevCard_Error_List DevCard_Init(DevCard_Obj_TypeDef *Instance);
   6:Device/Dev_Card.c **** static DevCard_Error_List DevCard_GetError(DevCard_Obj_TypeDef *Instance);
   7:Device/Dev_Card.c **** static DevCard_Info_TypeDef DevCard_GetInfo(DevCard_Obj_TypeDef *Instance);
   8:Device/Dev_Card.c **** static bool DevCard_Read(DevCard_Obj_TypeDef *Instance, uint32_t block, uint8_t *p_data, uint16_t d
   9:Device/Dev_Card.c **** static bool DevCard_Write(DevCard_Obj_TypeDef *Instance, uint32_t block, uint8_t *p_data, uint16_t 
  10:Device/Dev_Card.c **** 
  11:Device/Dev_Card.c **** DevCard_TypeDef DevCard = {
  12:Device/Dev_Card.c ****     .Init = DevCard_Init,
  13:Device/Dev_Card.c ****     .Get_ErrorCode = DevCard_GetError,
  14:Device/Dev_Card.c ****     .Get_Info = DevCard_GetInfo,
  15:Device/Dev_Card.c ****     .read = DevCard_Read,
  16:Device/Dev_Card.c ****     .write = DevCard_Write,
  17:Device/Dev_Card.c **** };
  18:Device/Dev_Card.c **** 
  19:Device/Dev_Card.c **** static DevCard_Error_List DevCard_Init(DevCard_Obj_TypeDef *Instance)
  20:Device/Dev_Card.c **** {
  28              		.loc 1 20 1 view -0
  29              		.cfi_startproc
  30              		@ args = 0, pretend = 0, frame = 0
  31              		@ frame_needed = 0, uses_anonymous_args = 0
  21:Device/Dev_Card.c ****     if (Instance == NULL)
  32              		.loc 1 21 5 view .LVU1
  33              		.loc 1 21 8 is_stmt 0 view .LVU2
  34 0000 0028     		cmp	r0, #0
  35 0002 48D0     		beq	.L5
  20:Device/Dev_Card.c ****     if (Instance == NULL)
  36              		.loc 1 20 1 view .LVU3
ARM GAS  C:\Users\HUAV\AppData\Local\Temp\ccrgKcmg.s 			page 2


  37 0004 10B5     		push	{r4, lr}
  38              	.LCFI0:
  39              		.cfi_def_cfa_offset 8
  40              		.cfi_offset 4, -8
  41              		.cfi_offset 14, -4
  42 0006 0446     		mov	r4, r0
  22:Device/Dev_Card.c ****         return DevCard_Obj_Error;
  23:Device/Dev_Card.c **** 
  24:Device/Dev_Card.c ****     if (!BspSDMMC.init(&(Instance->SDMMC_Obj)))
  43              		.loc 1 24 5 is_stmt 1 view .LVU4
  44              		.loc 1 24 18 is_stmt 0 view .LVU5
  45 0008 244B     		ldr	r3, .L12
  46 000a 1B68     		ldr	r3, [r3]
  47              		.loc 1 24 10 view .LVU6
  48 000c 9847     		blx	r3
  49              	.LVL1:
  50              		.loc 1 24 8 view .LVU7
  51 000e B8B3     		cbz	r0, .L10
  25:Device/Dev_Card.c ****     {
  26:Device/Dev_Card.c ****         Instance->error_code = DevCard_Bus_Error;
  27:Device/Dev_Card.c ****         return DevCard_Bus_Error;
  28:Device/Dev_Card.c ****     }
  29:Device/Dev_Card.c **** 
  30:Device/Dev_Card.c ****     if (!BspSDMMC.info(&(Instance->SDMMC_Obj), &(Instance->SDMMC_Obj.info)))
  52              		.loc 1 30 5 is_stmt 1 view .LVU8
  53              		.loc 1 30 18 is_stmt 0 view .LVU9
  54 0010 224B     		ldr	r3, .L12
  55 0012 5B69     		ldr	r3, [r3, #20]
  56              		.loc 1 30 10 view .LVU10
  57 0014 04F1F401 		add	r1, r4, #244
  58 0018 2046     		mov	r0, r4
  59 001a 9847     		blx	r3
  60              	.LVL2:
  61              		.loc 1 30 8 view .LVU11
  62 001c A0B3     		cbz	r0, .L11
  31:Device/Dev_Card.c ****     {
  32:Device/Dev_Card.c ****         Instance->info.valid = false;
  33:Device/Dev_Card.c ****         Instance->error_code = DevCard_Info_Error;
  34:Device/Dev_Card.c ****         return DevCard_Info_Error;
  35:Device/Dev_Card.c ****     }
  36:Device/Dev_Card.c **** 
  37:Device/Dev_Card.c ****     Instance->info.BlockNbr = Instance->SDMMC_Obj.info.BlockNbr;
  63              		.loc 1 37 5 is_stmt 1 view .LVU12
  64              		.loc 1 37 55 is_stmt 0 view .LVU13
  65 001e D4F80431 		ldr	r3, [r4, #260]	@ unaligned
  66              		.loc 1 37 29 view .LVU14
  67 0022 C4F82A31 		str	r3, [r4, #298]	@ unaligned
  38:Device/Dev_Card.c ****     Instance->info.BlockSize = Instance->SDMMC_Obj.info.BlockSize;
  68              		.loc 1 38 5 is_stmt 1 view .LVU15
  69              		.loc 1 38 56 is_stmt 0 view .LVU16
  70 0026 D4F80821 		ldr	r2, [r4, #264]	@ unaligned
  71              		.loc 1 38 30 view .LVU17
  72 002a C4F82E21 		str	r2, [r4, #302]	@ unaligned
  39:Device/Dev_Card.c ****     Instance->info.CardSpeed = Instance->SDMMC_Obj.info.CardSpeed;
  73              		.loc 1 39 5 is_stmt 1 view .LVU18
  74              		.loc 1 39 56 is_stmt 0 view .LVU19
  75 002e D4F81421 		ldr	r2, [r4, #276]	@ unaligned
ARM GAS  C:\Users\HUAV\AppData\Local\Temp\ccrgKcmg.s 			page 3


  76              		.loc 1 39 30 view .LVU20
  77 0032 C4F83A21 		str	r2, [r4, #314]	@ unaligned
  40:Device/Dev_Card.c ****     Instance->info.CardType = Instance->SDMMC_Obj.info.CardType;
  78              		.loc 1 40 5 is_stmt 1 view .LVU21
  79              		.loc 1 40 55 is_stmt 0 view .LVU22
  80 0036 D4F8F420 		ldr	r2, [r4, #244]	@ unaligned
  81              		.loc 1 40 29 view .LVU23
  82 003a C4F81A21 		str	r2, [r4, #282]	@ unaligned
  41:Device/Dev_Card.c ****     Instance->info.CardVersion = Instance->info.CardVersion;
  83              		.loc 1 41 5 is_stmt 1 view .LVU24
  42:Device/Dev_Card.c ****     Instance->info.Class = Instance->info.Class;
  84              		.loc 1 42 5 view .LVU25
  43:Device/Dev_Card.c ****     Instance->info.LogBlockNbr = Instance->SDMMC_Obj.info.LogBlockNbr;
  85              		.loc 1 43 5 view .LVU26
  86              		.loc 1 43 58 is_stmt 0 view .LVU27
  87 003e D4F80C21 		ldr	r2, [r4, #268]	@ unaligned
  88              		.loc 1 43 32 view .LVU28
  89 0042 C4F83221 		str	r2, [r4, #306]	@ unaligned
  44:Device/Dev_Card.c ****     Instance->info.LogBlockSize = Instance->SDMMC_Obj.info.LogBlockSize;
  90              		.loc 1 44 5 is_stmt 1 view .LVU29
  91              		.loc 1 44 59 is_stmt 0 view .LVU30
  92 0046 D4F81021 		ldr	r2, [r4, #272]	@ unaligned
  93              		.loc 1 44 33 view .LVU31
  94 004a C4F83621 		str	r2, [r4, #310]	@ unaligned
  45:Device/Dev_Card.c ****     Instance->info.RelCardAdd = Instance->SDMMC_Obj.info.RelCardAdd;
  95              		.loc 1 45 5 is_stmt 1 view .LVU32
  96              		.loc 1 45 57 is_stmt 0 view .LVU33
  97 004e D4F80021 		ldr	r2, [r4, #256]	@ unaligned
  98              		.loc 1 45 31 view .LVU34
  99 0052 C4F82621 		str	r2, [r4, #294]	@ unaligned
  46:Device/Dev_Card.c **** 
  47:Device/Dev_Card.c ****     Instance->info.valid = true;
 100              		.loc 1 47 5 is_stmt 1 view .LVU35
 101              		.loc 1 47 26 is_stmt 0 view .LVU36
 102 0056 0122     		movs	r2, #1
 103 0058 84F81921 		strb	r2, [r4, #281]
  48:Device/Dev_Card.c ****     Instance->info.RmnByteInCurBlock = 0;
 104              		.loc 1 48 5 is_stmt 1 view .LVU37
 105              		.loc 1 48 38 is_stmt 0 view .LVU38
 106 005c 0020     		movs	r0, #0
 107 005e 84F84601 		strb	r0, [r4, #326]
 108 0062 84F84701 		strb	r0, [r4, #327]
  49:Device/Dev_Card.c ****     Instance->info.UsdBlockNbr = 0;
 109              		.loc 1 49 5 is_stmt 1 view .LVU39
 110              		.loc 1 49 32 is_stmt 0 view .LVU40
 111 0066 84F83E01 		strb	r0, [r4, #318]
 112 006a 84F83F01 		strb	r0, [r4, #319]
 113 006e 84F84001 		strb	r0, [r4, #320]
 114 0072 84F84101 		strb	r0, [r4, #321]
  50:Device/Dev_Card.c ****     Instance->info.RmnBlockNbr = Instance->info.BlockNbr;
 115              		.loc 1 50 5 is_stmt 1 view .LVU41
 116              		.loc 1 50 32 is_stmt 0 view .LVU42
 117 0076 C4F84231 		str	r3, [r4, #322]	@ unaligned
  51:Device/Dev_Card.c **** 
  52:Device/Dev_Card.c ****     Instance->error_code = DevCard_No_Error;
 118              		.loc 1 52 5 is_stmt 1 view .LVU43
 119              		.loc 1 52 26 is_stmt 0 view .LVU44
ARM GAS  C:\Users\HUAV\AppData\Local\Temp\ccrgKcmg.s 			page 4


 120 007a 84F81801 		strb	r0, [r4, #280]
  53:Device/Dev_Card.c ****     return DevCard_No_Error;
 121              		.loc 1 53 5 is_stmt 1 view .LVU45
 122              	.L2:
  54:Device/Dev_Card.c **** }
 123              		.loc 1 54 1 is_stmt 0 view .LVU46
 124 007e 10BD     		pop	{r4, pc}
 125              	.LVL3:
 126              	.L10:
  26:Device/Dev_Card.c ****         return DevCard_Bus_Error;
 127              		.loc 1 26 9 is_stmt 1 view .LVU47
  26:Device/Dev_Card.c ****         return DevCard_Bus_Error;
 128              		.loc 1 26 30 is_stmt 0 view .LVU48
 129 0080 0220     		movs	r0, #2
 130 0082 84F81801 		strb	r0, [r4, #280]
  27:Device/Dev_Card.c ****     }
 131              		.loc 1 27 9 is_stmt 1 view .LVU49
  27:Device/Dev_Card.c ****     }
 132              		.loc 1 27 16 is_stmt 0 view .LVU50
 133 0086 FAE7     		b	.L2
 134              	.L11:
  32:Device/Dev_Card.c ****         Instance->error_code = DevCard_Info_Error;
 135              		.loc 1 32 9 is_stmt 1 view .LVU51
  32:Device/Dev_Card.c ****         Instance->error_code = DevCard_Info_Error;
 136              		.loc 1 32 30 is_stmt 0 view .LVU52
 137 0088 0023     		movs	r3, #0
 138 008a 84F81931 		strb	r3, [r4, #281]
  33:Device/Dev_Card.c ****         return DevCard_Info_Error;
 139              		.loc 1 33 9 is_stmt 1 view .LVU53
  33:Device/Dev_Card.c ****         return DevCard_Info_Error;
 140              		.loc 1 33 30 is_stmt 0 view .LVU54
 141 008e 0320     		movs	r0, #3
 142 0090 84F81801 		strb	r0, [r4, #280]
  34:Device/Dev_Card.c ****     }
 143              		.loc 1 34 9 is_stmt 1 view .LVU55
  34:Device/Dev_Card.c ****     }
 144              		.loc 1 34 16 is_stmt 0 view .LVU56
 145 0094 F3E7     		b	.L2
 146              	.LVL4:
 147              	.L5:
 148              	.LCFI1:
 149              		.cfi_def_cfa_offset 0
 150              		.cfi_restore 4
 151              		.cfi_restore 14
  22:Device/Dev_Card.c **** 
 152              		.loc 1 22 16 view .LVU57
 153 0096 0120     		movs	r0, #1
 154              	.LVL5:
 155              		.loc 1 54 1 view .LVU58
 156 0098 7047     		bx	lr
 157              	.L13:
 158 009a 00BF     		.align	2
 159              	.L12:
 160 009c 00000000 		.word	BspSDMMC
 161              		.cfi_endproc
 162              	.LFE147:
 164              		.section	.text.DevCard_GetError,"ax",%progbits
ARM GAS  C:\Users\HUAV\AppData\Local\Temp\ccrgKcmg.s 			page 5


 165              		.align	1
 166              		.syntax unified
 167              		.thumb
 168              		.thumb_func
 169              		.fpu fpv5-d16
 171              	DevCard_GetError:
 172              	.LVL6:
 173              	.LFB148:
  55:Device/Dev_Card.c **** 
  56:Device/Dev_Card.c **** static DevCard_Error_List DevCard_GetError(DevCard_Obj_TypeDef *Instance)
  57:Device/Dev_Card.c **** {
 174              		.loc 1 57 1 is_stmt 1 view -0
 175              		.cfi_startproc
 176              		@ args = 0, pretend = 0, frame = 0
 177              		@ frame_needed = 0, uses_anonymous_args = 0
 178              		@ link register save eliminated.
  58:Device/Dev_Card.c ****     if (Instance == NULL)
 179              		.loc 1 58 5 view .LVU60
 180              		.loc 1 58 8 is_stmt 0 view .LVU61
 181 0000 10B1     		cbz	r0, .L16
  59:Device/Dev_Card.c ****         return DevCard_Obj_Error;
  60:Device/Dev_Card.c **** 
  61:Device/Dev_Card.c ****     return Instance->error_code;
 182              		.loc 1 61 5 is_stmt 1 view .LVU62
 183              		.loc 1 61 20 is_stmt 0 view .LVU63
 184 0002 90F81801 		ldrb	r0, [r0, #280]	@ zero_extendqisi2
 185              	.LVL7:
 186              		.loc 1 61 20 view .LVU64
 187 0006 7047     		bx	lr
 188              	.LVL8:
 189              	.L16:
  59:Device/Dev_Card.c ****         return DevCard_Obj_Error;
 190              		.loc 1 59 16 view .LVU65
 191 0008 0120     		movs	r0, #1
 192              	.LVL9:
  62:Device/Dev_Card.c **** }
 193              		.loc 1 62 1 view .LVU66
 194 000a 7047     		bx	lr
 195              		.cfi_endproc
 196              	.LFE148:
 198              		.section	.text.DevCard_GetInfo,"ax",%progbits
 199              		.align	1
 200              		.syntax unified
 201              		.thumb
 202              		.thumb_func
 203              		.fpu fpv5-d16
 205              	DevCard_GetInfo:
 206              	.LVL10:
 207              	.LFB149:
  63:Device/Dev_Card.c **** 
  64:Device/Dev_Card.c **** static DevCard_Info_TypeDef DevCard_GetInfo(DevCard_Obj_TypeDef *Instance)
  65:Device/Dev_Card.c **** {
 208              		.loc 1 65 1 is_stmt 1 view -0
 209              		.cfi_startproc
 210              		@ args = 0, pretend = 0, frame = 0
 211              		@ frame_needed = 0, uses_anonymous_args = 0
 212              		.loc 1 65 1 is_stmt 0 view .LVU68
ARM GAS  C:\Users\HUAV\AppData\Local\Temp\ccrgKcmg.s 			page 6


 213 0000 F8B5     		push	{r3, r4, r5, r6, r7, lr}
 214              	.LCFI2:
 215              		.cfi_def_cfa_offset 24
 216              		.cfi_offset 3, -24
 217              		.cfi_offset 4, -20
 218              		.cfi_offset 5, -16
 219              		.cfi_offset 6, -12
 220              		.cfi_offset 7, -8
 221              		.cfi_offset 14, -4
 222 0002 0546     		mov	r5, r0
 223 0004 0C46     		mov	r4, r1
  66:Device/Dev_Card.c ****     DevCard_Info_TypeDef info_tmp = {0};
 224              		.loc 1 66 5 is_stmt 1 view .LVU69
 225              		.loc 1 66 26 is_stmt 0 view .LVU70
 226 0006 2F22     		movs	r2, #47
 227 0008 0021     		movs	r1, #0
 228              	.LVL11:
 229              		.loc 1 66 26 view .LVU71
 230 000a FFF7FEFF 		bl	memset
 231              	.LVL12:
  67:Device/Dev_Card.c **** 
  68:Device/Dev_Card.c ****     if (Instance != NULL)
 232              		.loc 1 68 5 is_stmt 1 view .LVU72
 233              		.loc 1 68 8 is_stmt 0 view .LVU73
 234 000e D4B1     		cbz	r4, .L17
  69:Device/Dev_Card.c ****     {
  70:Device/Dev_Card.c ****         info_tmp = Instance->info;
 235              		.loc 1 70 9 is_stmt 1 view .LVU74
 236              		.loc 1 70 18 is_stmt 0 view .LVU75
 237 0010 04F21913 		addw	r3, r4, #281
 238 0014 2A46     		mov	r2, r5
 239 0016 04F23914 		addw	r4, r4, #313
 240              	.LVL13:
 241              	.L19:
 242              		.loc 1 70 18 view .LVU76
 243 001a 1F68     		ldr	r7, [r3]	@ unaligned
 244 001c 5E68     		ldr	r6, [r3, #4]	@ unaligned
 245 001e 9868     		ldr	r0, [r3, #8]	@ unaligned
 246 0020 D968     		ldr	r1, [r3, #12]	@ unaligned
 247 0022 1760     		str	r7, [r2]	@ unaligned
 248 0024 5660     		str	r6, [r2, #4]	@ unaligned
 249 0026 9060     		str	r0, [r2, #8]	@ unaligned
 250 0028 D160     		str	r1, [r2, #12]	@ unaligned
 251 002a 1033     		adds	r3, r3, #16
 252 002c 1032     		adds	r2, r2, #16
 253 002e A342     		cmp	r3, r4
 254 0030 F3D1     		bne	.L19
 255 0032 1C68     		ldr	r4, [r3]	@ unaligned
 256              	.LVL14:
 257              		.loc 1 70 18 view .LVU77
 258 0034 5868     		ldr	r0, [r3, #4]	@ unaligned
 259 0036 9968     		ldr	r1, [r3, #8]	@ unaligned
 260 0038 1460     		str	r4, [r2]	@ unaligned
 261 003a 5060     		str	r0, [r2, #4]	@ unaligned
 262 003c 9160     		str	r1, [r2, #8]	@ unaligned
 263 003e 9989     		ldrh	r1, [r3, #12]	@ unaligned
 264 0040 9B7B     		ldrb	r3, [r3, #14]	@ zero_extendqisi2
ARM GAS  C:\Users\HUAV\AppData\Local\Temp\ccrgKcmg.s 			page 7


 265 0042 9181     		strh	r1, [r2, #12]	@ unaligned
 266 0044 9373     		strb	r3, [r2, #14]
  71:Device/Dev_Card.c ****     }
  72:Device/Dev_Card.c **** 
  73:Device/Dev_Card.c ****     return info_tmp;
 267              		.loc 1 73 5 is_stmt 1 view .LVU78
 268              	.L17:
  74:Device/Dev_Card.c **** }
 269              		.loc 1 74 1 is_stmt 0 view .LVU79
 270 0046 2846     		mov	r0, r5
 271 0048 F8BD     		pop	{r3, r4, r5, r6, r7, pc}
 272              		.loc 1 74 1 view .LVU80
 273              		.cfi_endproc
 274              	.LFE149:
 276              		.section	.text.DevCard_Write,"ax",%progbits
 277              		.align	1
 278              		.syntax unified
 279              		.thumb
 280              		.thumb_func
 281              		.fpu fpv5-d16
 283              	DevCard_Write:
 284              	.LVL15:
 285              	.LFB150:
  75:Device/Dev_Card.c **** 
  76:Device/Dev_Card.c **** static bool DevCard_Write(DevCard_Obj_TypeDef *Instance, uint32_t block, uint8_t *p_data, uint16_t 
  77:Device/Dev_Card.c **** {
 286              		.loc 1 77 1 is_stmt 1 view -0
 287              		.cfi_startproc
 288              		@ args = 4, pretend = 0, frame = 0
 289              		@ frame_needed = 0, uses_anonymous_args = 0
 290              		.loc 1 77 1 is_stmt 0 view .LVU82
 291 0000 70B5     		push	{r4, r5, r6, lr}
 292              	.LCFI3:
 293              		.cfi_def_cfa_offset 16
 294              		.cfi_offset 4, -16
 295              		.cfi_offset 5, -12
 296              		.cfi_offset 6, -8
 297              		.cfi_offset 14, -4
 298 0002 0C46     		mov	r4, r1
 299 0004 BDF81030 		ldrh	r3, [sp, #16]
 300              	.LVL16:
  78:Device/Dev_Card.c ****     if ((Instance == NULL) || (p_data == NULL) || (block_num == 0) || (block == 0) || (block > Inst
 301              		.loc 1 78 5 is_stmt 1 view .LVU83
 302              		.loc 1 78 19 is_stmt 0 view .LVU84
 303 0008 0546     		mov	r5, r0
 304              		.loc 1 78 39 view .LVU85
 305 000a 1146     		mov	r1, r2
 306              	.LVL17:
 307              		.loc 1 78 39 view .LVU86
 308 000c B2FA82F2 		clz	r2, r2
 309              	.LVL18:
 310              		.loc 1 78 39 view .LVU87
 311 0010 5209     		lsrs	r2, r2, #5
 312              		.loc 1 78 28 view .LVU88
 313 0012 0028     		cmp	r0, #0
 314 0014 14BF     		ite	ne
 315 0016 1046     		movne	r0, r2
ARM GAS  C:\Users\HUAV\AppData\Local\Temp\ccrgKcmg.s 			page 8


 316 0018 0120     		moveq	r0, #1
 317              	.LVL19:
 318              		.loc 1 78 8 view .LVU89
 319 001a 80B9     		cbnz	r0, .L23
 320              		.loc 1 78 78 discriminator 1 view .LVU90
 321 001c B4FA84F2 		clz	r2, r4
 322 0020 5209     		lsrs	r2, r2, #5
 323              		.loc 1 78 68 discriminator 1 view .LVU91
 324 0022 002B     		cmp	r3, #0
 325 0024 08BF     		it	eq
 326 0026 0122     		moveq	r2, #1
 327 0028 52B9     		cbnz	r2, .L22
 328              		.loc 1 78 110 discriminator 2 view .LVU92
 329 002a D5F82A01 		ldr	r0, [r5, #298]	@ unaligned
 330              		.loc 1 78 84 discriminator 2 view .LVU93
 331 002e A042     		cmp	r0, r4
 332 0030 07D3     		bcc	.L24
  79:Device/Dev_Card.c ****         return false;
  80:Device/Dev_Card.c **** 
  81:Device/Dev_Card.c ****     return BspSDMMC.write(&(Instance->SDMMC_Obj), p_data, block, block_num);
 333              		.loc 1 81 5 is_stmt 1 view .LVU94
 334              		.loc 1 81 20 is_stmt 0 view .LVU95
 335 0032 054A     		ldr	r2, .L26
 336 0034 9668     		ldr	r6, [r2, #8]
 337              		.loc 1 81 12 view .LVU96
 338 0036 2246     		mov	r2, r4
 339 0038 2846     		mov	r0, r5
 340 003a B047     		blx	r6
 341              	.LVL20:
 342              		.loc 1 81 12 view .LVU97
 343 003c 00E0     		b	.L22
 344              	.LVL21:
 345              	.L23:
  79:Device/Dev_Card.c ****         return false;
 346              		.loc 1 79 16 view .LVU98
 347 003e 0020     		movs	r0, #0
 348              	.LVL22:
 349              	.L22:
  82:Device/Dev_Card.c **** }
 350              		.loc 1 82 1 view .LVU99
 351 0040 70BD     		pop	{r4, r5, r6, pc}
 352              	.LVL23:
 353              	.L24:
  79:Device/Dev_Card.c ****         return false;
 354              		.loc 1 79 16 view .LVU100
 355 0042 1046     		mov	r0, r2
 356 0044 FCE7     		b	.L22
 357              	.L27:
 358 0046 00BF     		.align	2
 359              	.L26:
 360 0048 00000000 		.word	BspSDMMC
 361              		.cfi_endproc
 362              	.LFE150:
 364              		.section	.text.DevCard_Read,"ax",%progbits
 365              		.align	1
 366              		.syntax unified
 367              		.thumb
ARM GAS  C:\Users\HUAV\AppData\Local\Temp\ccrgKcmg.s 			page 9


 368              		.thumb_func
 369              		.fpu fpv5-d16
 371              	DevCard_Read:
 372              	.LVL24:
 373              	.LFB151:
  83:Device/Dev_Card.c **** 
  84:Device/Dev_Card.c **** static bool DevCard_Read(DevCard_Obj_TypeDef *Instance, uint32_t block, uint8_t *p_data, uint16_t d
  85:Device/Dev_Card.c **** {
 374              		.loc 1 85 1 is_stmt 1 view -0
 375              		.cfi_startproc
 376              		@ args = 4, pretend = 0, frame = 0
 377              		@ frame_needed = 0, uses_anonymous_args = 0
 378              		.loc 1 85 1 is_stmt 0 view .LVU102
 379 0000 F8B5     		push	{r3, r4, r5, r6, r7, lr}
 380              	.LCFI4:
 381              		.cfi_def_cfa_offset 24
 382              		.cfi_offset 3, -24
 383              		.cfi_offset 4, -20
 384              		.cfi_offset 5, -16
 385              		.cfi_offset 6, -12
 386              		.cfi_offset 7, -8
 387              		.cfi_offset 14, -4
 388 0002 BDF81840 		ldrh	r4, [sp, #24]
  86:Device/Dev_Card.c ****     if ((Instance == NULL) || (p_data == NULL) || (block_num == 0) || (block > Instance->info.Block
 389              		.loc 1 86 5 is_stmt 1 view .LVU103
 390              		.loc 1 86 19 is_stmt 0 view .LVU104
 391 0006 0546     		mov	r5, r0
 392              		.loc 1 86 39 view .LVU105
 393 0008 1646     		mov	r6, r2
 394 000a B2FA82F2 		clz	r2, r2
 395              	.LVL25:
 396              		.loc 1 86 39 view .LVU106
 397 000e 5209     		lsrs	r2, r2, #5
 398              		.loc 1 86 28 view .LVU107
 399 0010 0028     		cmp	r0, #0
 400 0012 14BF     		ite	ne
 401 0014 1046     		movne	r0, r2
 402 0016 0120     		moveq	r0, #1
 403              	.LVL26:
 404              		.loc 1 86 8 view .LVU108
 405 0018 90B9     		cbnz	r0, .L30
 406              		.loc 1 86 48 discriminator 1 view .LVU109
 407 001a 94B1     		cbz	r4, .L29
 408              		.loc 1 86 94 discriminator 2 view .LVU110
 409 001c D5F82A21 		ldr	r2, [r5, #298]	@ unaligned
 410              		.loc 1 86 68 discriminator 2 view .LVU111
 411 0020 8A42     		cmp	r2, r1
 412 0022 0ED3     		bcc	.L29
 413              		.loc 1 86 147 discriminator 3 view .LVU112
 414 0024 D5F82E21 		ldr	r2, [r5, #302]	@ unaligned
 415              		.loc 1 86 131 discriminator 3 view .LVU113
 416 0028 02FB04F2 		mul	r2, r2, r4
 417              		.loc 1 86 105 discriminator 3 view .LVU114
 418 002c 9342     		cmp	r3, r2
 419 002e 08D3     		bcc	.L29
  87:Device/Dev_Card.c ****         return false;
  88:Device/Dev_Card.c **** 
ARM GAS  C:\Users\HUAV\AppData\Local\Temp\ccrgKcmg.s 			page 10


  89:Device/Dev_Card.c ****     return BspSDMMC.read(&(Instance->SDMMC_Obj), p_data, block, block_num);
 420              		.loc 1 89 5 is_stmt 1 view .LVU115
 421              		.loc 1 89 20 is_stmt 0 view .LVU116
 422 0030 044B     		ldr	r3, .L32
 423              	.LVL27:
 424              		.loc 1 89 20 view .LVU117
 425 0032 5F68     		ldr	r7, [r3, #4]
 426              		.loc 1 89 12 view .LVU118
 427 0034 2346     		mov	r3, r4
 428 0036 0A46     		mov	r2, r1
 429 0038 3146     		mov	r1, r6
 430              	.LVL28:
 431              		.loc 1 89 12 view .LVU119
 432 003a 2846     		mov	r0, r5
 433 003c B847     		blx	r7
 434              	.LVL29:
 435              		.loc 1 89 12 view .LVU120
 436 003e 00E0     		b	.L29
 437              	.LVL30:
 438              	.L30:
  87:Device/Dev_Card.c ****         return false;
 439              		.loc 1 87 16 view .LVU121
 440 0040 0020     		movs	r0, #0
 441              	.LVL31:
 442              	.L29:
  90:Device/Dev_Card.c **** }
 443              		.loc 1 90 1 view .LVU122
 444 0042 F8BD     		pop	{r3, r4, r5, r6, r7, pc}
 445              	.LVL32:
 446              	.L33:
 447              		.loc 1 90 1 view .LVU123
 448              		.align	2
 449              	.L32:
 450 0044 00000000 		.word	BspSDMMC
 451              		.cfi_endproc
 452              	.LFE151:
 454              		.global	DevCard
 455              		.section	.data.DevCard,"aw"
 456              		.align	2
 459              	DevCard:
 460 0000 00000000 		.word	DevCard_Init
 461 0004 00000000 		.space	8
 461      00000000 
 462 000c 00000000 		.word	DevCard_GetError
 463 0010 00000000 		.word	DevCard_GetInfo
 464 0014 00000000 		.word	DevCard_Read
 465 0018 00000000 		.word	DevCard_Write
 466              		.text
 467              	.Letext0:
 468              		.file 2 "d:\\software\\zephyr_env_gcc\\gcc-arm-none-eabi-9-2019-q4-major-win32\\arm-none-eabi\\inc
 469              		.file 3 "d:\\software\\zephyr_env_gcc\\gcc-arm-none-eabi-9-2019-q4-major-win32\\arm-none-eabi\\inc
 470              		.file 4 "d:\\software\\zephyr_env_gcc\\gcc-arm-none-eabi-9-2019-q4-major-win32\\arm-none-eabi\\inc
 471              		.file 5 "d:\\software\\zephyr_env_gcc\\gcc-arm-none-eabi-9-2019-q4-major-win32\\arm-none-eabi\\inc
 472              		.file 6 "d:\\software\\zephyr_env_gcc\\gcc-arm-none-eabi-9-2019-q4-major-win32\\lib\\gcc\\arm-none
 473              		.file 7 "d:\\software\\zephyr_env_gcc\\gcc-arm-none-eabi-9-2019-q4-major-win32\\arm-none-eabi\\inc
 474              		.file 8 "HAL_Lib/CMSIS/Core/Include/core_cm7.h"
 475              		.file 9 "HAL_Lib/CMSIS/Device/ST/STM32H7xx/Include/system_stm32h7xx.h"
ARM GAS  C:\Users\HUAV\AppData\Local\Temp\ccrgKcmg.s 			page 11


 476              		.file 10 "HAL_Lib/CMSIS/Device/ST/STM32H7xx/Include/stm32h743xx.h"
 477              		.file 11 "d:\\software\\zephyr_env_gcc\\gcc-arm-none-eabi-9-2019-q4-major-win32\\arm-none-eabi\\in
 478              		.file 12 "HAL_Lib/STM32H7xx_HAL_Driver/Inc/stm32h7xx_hal_def.h"
 479              		.file 13 "HAL_Lib/STM32H7xx_HAL_Driver/Inc/stm32h7xx_hal_gpio.h"
 480              		.file 14 "HAL_Lib/STM32H7xx_HAL_Driver/Inc/stm32h7xx_hal_dma.h"
 481              		.file 15 "HAL_Lib/STM32H7xx_HAL_Driver/Inc/stm32h7xx_hal_mdma.h"
 482              		.file 16 "HAL_Lib/STM32H7xx_HAL_Driver/Inc/stm32h7xx_hal_flash.h"
 483              		.file 17 "HAL_Lib/STM32H7xx_HAL_Driver/Inc/stm32h7xx_ll_sdmmc.h"
 484              		.file 18 "HAL_Lib/STM32H7xx_HAL_Driver/Inc/stm32h7xx_hal_sd.h"
 485              		.file 19 "HAL_Lib/STM32H7xx_HAL_Driver/Inc/stm32h7xx_hal_spi.h"
 486              		.file 20 "HAL_Lib/STM32H7xx_HAL_Driver/Inc/stm32h7xx_hal_uart.h"
 487              		.file 21 "HAL_Lib/STM32H7xx_HAL_Driver/Inc/stm32h7xx_hal.h"
 488              		.file 22 "Bsp/Bsp_SDMMC.h"
 489              		.file 23 "Device/Dev_Card.h"
 490              		.file 24 "d:\\software\\zephyr_env_gcc\\gcc-arm-none-eabi-9-2019-q4-major-win32\\arm-none-eabi\\in
 491              		.file 25 "Bsp/Bsp_GPIO.h"
 492              		.file 26 "Bsp/Bsp_SPI.h"
 493              		.file 27 "Device/Dev_Led.h"
 494              		.file 28 "debug/debug_util.h"
 495              		.file 29 "IO_Def/IO_Definition.h"
 496              		.file 30 "<built-in>"
ARM GAS  C:\Users\HUAV\AppData\Local\Temp\ccrgKcmg.s 			page 12


DEFINED SYMBOLS
                            *ABS*:00000000 Dev_Card.c
C:\Users\HUAV\AppData\Local\Temp\ccrgKcmg.s:17     .text.DevCard_Init:00000000 $t
C:\Users\HUAV\AppData\Local\Temp\ccrgKcmg.s:24     .text.DevCard_Init:00000000 DevCard_Init
C:\Users\HUAV\AppData\Local\Temp\ccrgKcmg.s:160    .text.DevCard_Init:0000009c $d
C:\Users\HUAV\AppData\Local\Temp\ccrgKcmg.s:165    .text.DevCard_GetError:00000000 $t
C:\Users\HUAV\AppData\Local\Temp\ccrgKcmg.s:171    .text.DevCard_GetError:00000000 DevCard_GetError
C:\Users\HUAV\AppData\Local\Temp\ccrgKcmg.s:199    .text.DevCard_GetInfo:00000000 $t
C:\Users\HUAV\AppData\Local\Temp\ccrgKcmg.s:205    .text.DevCard_GetInfo:00000000 DevCard_GetInfo
C:\Users\HUAV\AppData\Local\Temp\ccrgKcmg.s:277    .text.DevCard_Write:00000000 $t
C:\Users\HUAV\AppData\Local\Temp\ccrgKcmg.s:283    .text.DevCard_Write:00000000 DevCard_Write
C:\Users\HUAV\AppData\Local\Temp\ccrgKcmg.s:360    .text.DevCard_Write:00000048 $d
C:\Users\HUAV\AppData\Local\Temp\ccrgKcmg.s:365    .text.DevCard_Read:00000000 $t
C:\Users\HUAV\AppData\Local\Temp\ccrgKcmg.s:371    .text.DevCard_Read:00000000 DevCard_Read
C:\Users\HUAV\AppData\Local\Temp\ccrgKcmg.s:450    .text.DevCard_Read:00000044 $d
C:\Users\HUAV\AppData\Local\Temp\ccrgKcmg.s:459    .data.DevCard:00000000 DevCard
C:\Users\HUAV\AppData\Local\Temp\ccrgKcmg.s:456    .data.DevCard:00000000 $d

UNDEFINED SYMBOLS
BspSDMMC
memset
