ARM GAS  /var/folders/8_/_8bzxkcs1296m80nzxdrn9q80000gn/T//cc6SXop5.s 			page 1


   1              		.cpu cortex-m7
   2              		.eabi_attribute 28, 1
   3              		.eabi_attribute 20, 1
   4              		.eabi_attribute 21, 1
   5              		.eabi_attribute 23, 3
   6              		.eabi_attribute 24, 1
   7              		.eabi_attribute 25, 1
   8              		.eabi_attribute 26, 1
   9              		.eabi_attribute 30, 1
  10              		.eabi_attribute 34, 1
  11              		.eabi_attribute 18, 4
  12              		.file	"Dev_Dshot.c"
  13              		.text
  14              	.Ltext0:
  15              		.cfi_sections	.debug_frame
  16              		.section	.text.DevDshot_GetType_Clock,"ax",%progbits
  17              		.align	1
  18              		.arch armv7e-m
  19              		.syntax unified
  20              		.thumb
  21              		.thumb_func
  22              		.fpu fpv5-d16
  24              	DevDshot_GetType_Clock:
  25              	.LVL0:
  26              	.LFB144:
  27              		.file 1 "Device/Dev_Dshot.c"
   1:Device/Dev_Dshot.c **** #include "Dev_Dshot.h"
   2:Device/Dev_Dshot.c **** #include <math.h>
   3:Device/Dev_Dshot.c **** 
   4:Device/Dev_Dshot.c **** /* external function */
   5:Device/Dev_Dshot.c **** static bool DevDshot_Init(DevDshotObj_TypeDef *obj, void *timer_ins, uint32_t ch, BspGPIO_Obj_TypeD
   6:Device/Dev_Dshot.c **** static void DevDshot_Control(DevDshotObj_TypeDef *obj, uint16_t value);
   7:Device/Dev_Dshot.c **** static void DevDshot_Command(DevDshotObj_TypeDef *obj, uint8_t cmd);
   8:Device/Dev_Dshot.c **** 
   9:Device/Dev_Dshot.c **** DevDshot_TypeDef DevDshot = {
  10:Device/Dev_Dshot.c ****     .init = DevDshot_Init,
  11:Device/Dev_Dshot.c ****     .command = DevDshot_Command,
  12:Device/Dev_Dshot.c ****     .control = DevDshot_Control,
  13:Device/Dev_Dshot.c **** };
  14:Device/Dev_Dshot.c **** 
  15:Device/Dev_Dshot.c **** static uint32_t DevDshot_GetType_Clock(DevDshotType_List type)
  16:Device/Dev_Dshot.c **** {
  28              		.loc 1 16 1 view -0
  29              		.cfi_startproc
  30              		@ args = 0, pretend = 0, frame = 0
  31              		@ frame_needed = 0, uses_anonymous_args = 0
  32              		@ link register save eliminated.
  17:Device/Dev_Dshot.c ****     switch (type)
  33              		.loc 1 17 5 view .LVU1
  34 0000 0228     		cmp	r0, #2
  35 0002 07D0     		beq	.L3
  36 0004 0328     		cmp	r0, #3
  37 0006 07D0     		beq	.L4
  38 0008 0128     		cmp	r0, #1
  39 000a 01D0     		beq	.L6
  18:Device/Dev_Dshot.c ****     {
  19:Device/Dev_Dshot.c ****     case DevDshot_150:
ARM GAS  /var/folders/8_/_8bzxkcs1296m80nzxdrn9q80000gn/T//cc6SXop5.s 			page 2


  20:Device/Dev_Dshot.c ****         return DSHOT150_CLK_HZ;
  21:Device/Dev_Dshot.c **** 
  22:Device/Dev_Dshot.c ****     case DevDshot_300:
  23:Device/Dev_Dshot.c ****         return DSHOT300_CLK_HZ;
  24:Device/Dev_Dshot.c **** 
  25:Device/Dev_Dshot.c ****     case DevDshot_600:
  26:Device/Dev_Dshot.c ****         return DSHOT600_CLK_HZ;
  27:Device/Dev_Dshot.c **** 
  28:Device/Dev_Dshot.c ****     default:
  29:Device/Dev_Dshot.c ****         return DSHOT300_CLK_HZ;
  40              		.loc 1 29 16 is_stmt 0 view .LVU2
  41 000c 0348     		ldr	r0, .L7
  42              	.LVL1:
  30:Device/Dev_Dshot.c ****     }
  31:Device/Dev_Dshot.c **** }
  43              		.loc 1 31 1 view .LVU3
  44 000e 7047     		bx	lr
  45              	.LVL2:
  46              	.L6:
  17:Device/Dev_Dshot.c ****     {
  47              		.loc 1 17 5 view .LVU4
  48 0010 0348     		ldr	r0, .L7+4
  49              	.LVL3:
  17:Device/Dev_Dshot.c ****     {
  50              		.loc 1 17 5 view .LVU5
  51 0012 7047     		bx	lr
  52              	.LVL4:
  53              	.L3:
  23:Device/Dev_Dshot.c **** 
  54              		.loc 1 23 16 view .LVU6
  55 0014 0148     		ldr	r0, .L7
  56              	.LVL5:
  23:Device/Dev_Dshot.c **** 
  57              		.loc 1 23 16 view .LVU7
  58 0016 7047     		bx	lr
  59              	.LVL6:
  60              	.L4:
  26:Device/Dev_Dshot.c **** 
  61              		.loc 1 26 16 view .LVU8
  62 0018 0248     		ldr	r0, .L7+8
  63              	.LVL7:
  26:Device/Dev_Dshot.c **** 
  64              		.loc 1 26 16 view .LVU9
  65 001a 7047     		bx	lr
  66              	.L8:
  67              		.align	2
  68              	.L7:
  69 001c 808D5B00 		.word	6000000
  70 0020 C0C62D00 		.word	3000000
  71 0024 001BB700 		.word	12000000
  72              		.cfi_endproc
  73              	.LFE144:
  75              		.section	.text.DevDshot_Prepare_Packet,"ax",%progbits
  76              		.align	1
  77              		.syntax unified
  78              		.thumb
  79              		.thumb_func
ARM GAS  /var/folders/8_/_8bzxkcs1296m80nzxdrn9q80000gn/T//cc6SXop5.s 			page 3


  80              		.fpu fpv5-d16
  82              	DevDshot_Prepare_Packet:
  83              	.LVL8:
  84              	.LFB146:
  32:Device/Dev_Dshot.c **** 
  33:Device/Dev_Dshot.c **** static bool DevDshot_Init(DevDshotObj_TypeDef *obj,
  34:Device/Dev_Dshot.c ****                           void *timer_ins,
  35:Device/Dev_Dshot.c ****                           uint32_t ch,
  36:Device/Dev_Dshot.c ****                           BspGPIO_Obj_TypeDef pin,
  37:Device/Dev_Dshot.c ****                           uint8_t dma,
  38:Device/Dev_Dshot.c ****                           uint8_t stream)
  39:Device/Dev_Dshot.c **** {
  40:Device/Dev_Dshot.c ****     uint32_t prescaler = lrintf((float)DSHOT_TIMER_CLK_HZ / DevDshot_GetType_Clock(obj->type) + 0.0
  41:Device/Dev_Dshot.c **** 
  42:Device/Dev_Dshot.c ****     if (!obj)
  43:Device/Dev_Dshot.c ****         return false;
  44:Device/Dev_Dshot.c **** 
  45:Device/Dev_Dshot.c ****     if ((obj->type < DevDshot_150) || (obj->type > DevDshot_600))
  46:Device/Dev_Dshot.c ****     {
  47:Device/Dev_Dshot.c ****         obj->type = DevDshot_300;
  48:Device/Dev_Dshot.c ****     }
  49:Device/Dev_Dshot.c **** 
  50:Device/Dev_Dshot.c ****     if (!BspTimer_PWM.init(&obj->pwm_obj, timer_ins, ch, pin, dma, stream, (uint32_t)obj->ctl_buf, 
  51:Device/Dev_Dshot.c ****         return false;
  52:Device/Dev_Dshot.c **** 
  53:Device/Dev_Dshot.c ****     BspTimer_PWM.set_prescaler(&obj->pwm_obj, prescaler);
  54:Device/Dev_Dshot.c ****     BspTimer_PWM.set_autoreload(&obj->pwm_obj, MOTOR_BITLENGTH);
  55:Device/Dev_Dshot.c **** 
  56:Device/Dev_Dshot.c ****     BspTimer_PWM.start_pwm(&obj->pwm_obj);
  57:Device/Dev_Dshot.c **** 
  58:Device/Dev_Dshot.c ****     return true;
  59:Device/Dev_Dshot.c **** }
  60:Device/Dev_Dshot.c **** 
  61:Device/Dev_Dshot.c **** static uint16_t DevDshot_Prepare_Packet(const uint16_t value, int8_t requestTelemetry)
  62:Device/Dev_Dshot.c **** {
  85              		.loc 1 62 1 is_stmt 1 view -0
  86              		.cfi_startproc
  87              		@ args = 0, pretend = 0, frame = 0
  88              		@ frame_needed = 0, uses_anonymous_args = 0
  89              		@ link register save eliminated.
  63:Device/Dev_Dshot.c ****     uint16_t packet = (value << 1) | (requestTelemetry ? 1 : 0);
  90              		.loc 1 63 5 view .LVU11
  91              		.loc 1 63 60 is_stmt 0 view .LVU12
  92 0000 0039     		subs	r1, r1, #0
  93              	.LVL9:
  94              		.loc 1 63 60 view .LVU13
  95 0002 18BF     		it	ne
  96 0004 0121     		movne	r1, #1
  97              		.loc 1 63 36 view .LVU14
  98 0006 41EA4001 		orr	r1, r1, r0, lsl #1
  99              		.loc 1 63 14 view .LVU15
 100 000a 89B2     		uxth	r1, r1
  64:Device/Dev_Dshot.c **** 
  65:Device/Dev_Dshot.c ****     // compute checksum
  66:Device/Dev_Dshot.c ****     int csum = 0;
 101              		.loc 1 66 5 is_stmt 1 view .LVU16
 102              	.LVL10:
ARM GAS  /var/folders/8_/_8bzxkcs1296m80nzxdrn9q80000gn/T//cc6SXop5.s 			page 4


  67:Device/Dev_Dshot.c ****     int csum_data = packet;
 103              		.loc 1 67 5 view .LVU17
  68:Device/Dev_Dshot.c ****     for (int i = 0; i < 3; i++)
 104              		.loc 1 68 5 view .LVU18
 105              	.LBB2:
 106              		.loc 1 68 10 view .LVU19
 107              		.loc 1 68 10 is_stmt 0 view .LVU20
 108              	.LBE2:
  67:Device/Dev_Dshot.c ****     int csum_data = packet;
 109              		.loc 1 67 9 view .LVU21
 110 000c 0A46     		mov	r2, r1
 111              	.LBB3:
 112              		.loc 1 68 14 view .LVU22
 113 000e 0023     		movs	r3, #0
 114              	.LBE3:
  66:Device/Dev_Dshot.c ****     int csum_data = packet;
 115              		.loc 1 66 9 view .LVU23
 116 0010 1846     		mov	r0, r3
 117              	.LVL11:
 118              	.LBB4:
 119              		.loc 1 68 5 view .LVU24
 120 0012 02E0     		b	.L10
 121              	.LVL12:
 122              	.L11:
  69:Device/Dev_Dshot.c ****     {
  70:Device/Dev_Dshot.c ****         csum ^= csum_data; // xor data by nibbles
 123              		.loc 1 70 9 is_stmt 1 discriminator 3 view .LVU25
 124              		.loc 1 70 14 is_stmt 0 discriminator 3 view .LVU26
 125 0014 5040     		eors	r0, r0, r2
 126              	.LVL13:
  71:Device/Dev_Dshot.c ****         csum_data >>= 4;
 127              		.loc 1 71 9 is_stmt 1 discriminator 3 view .LVU27
 128              		.loc 1 71 19 is_stmt 0 discriminator 3 view .LVU28
 129 0016 1211     		asrs	r2, r2, #4
 130              	.LVL14:
  68:Device/Dev_Dshot.c ****     {
 131              		.loc 1 68 28 is_stmt 1 discriminator 3 view .LVU29
  68:Device/Dev_Dshot.c ****     {
 132              		.loc 1 68 29 is_stmt 0 discriminator 3 view .LVU30
 133 0018 0133     		adds	r3, r3, #1
 134              	.LVL15:
 135              	.L10:
  68:Device/Dev_Dshot.c ****     {
 136              		.loc 1 68 21 is_stmt 1 discriminator 1 view .LVU31
  68:Device/Dev_Dshot.c ****     {
 137              		.loc 1 68 5 is_stmt 0 discriminator 1 view .LVU32
 138 001a 022B     		cmp	r3, #2
 139 001c FADD     		ble	.L11
  68:Device/Dev_Dshot.c ****     {
 140              		.loc 1 68 5 discriminator 1 view .LVU33
 141              	.LBE4:
  72:Device/Dev_Dshot.c ****     }
  73:Device/Dev_Dshot.c **** 
  74:Device/Dev_Dshot.c ****     csum &= 0xf;
 142              		.loc 1 74 5 is_stmt 1 view .LVU34
 143              		.loc 1 74 10 is_stmt 0 view .LVU35
 144 001e 00F00F00 		and	r0, r0, #15
ARM GAS  /var/folders/8_/_8bzxkcs1296m80nzxdrn9q80000gn/T//cc6SXop5.s 			page 5


 145              	.LVL16:
  75:Device/Dev_Dshot.c ****     // append checksum
  76:Device/Dev_Dshot.c ****     packet = (packet << 4) | csum;
 146              		.loc 1 76 5 is_stmt 1 view .LVU36
 147              		.loc 1 76 28 is_stmt 0 view .LVU37
 148 0022 40EA0110 		orr	r0, r0, r1, lsl #4
 149              	.LVL17:
  77:Device/Dev_Dshot.c ****     return packet;
 150              		.loc 1 77 5 is_stmt 1 view .LVU38
  78:Device/Dev_Dshot.c **** }
 151              		.loc 1 78 1 is_stmt 0 view .LVU39
 152 0026 80B2     		uxth	r0, r0
 153              		.loc 1 78 1 view .LVU40
 154 0028 7047     		bx	lr
 155              		.cfi_endproc
 156              	.LFE146:
 158              		.section	.text.DevDshot_Control,"ax",%progbits
 159              		.align	1
 160              		.syntax unified
 161              		.thumb
 162              		.thumb_func
 163              		.fpu fpv5-d16
 165              	DevDshot_Control:
 166              	.LVL18:
 167              	.LFB147:
  79:Device/Dev_Dshot.c **** 
  80:Device/Dev_Dshot.c **** static void DevDshot_Control(DevDshotObj_TypeDef *obj, uint16_t value)
  81:Device/Dev_Dshot.c **** {
 168              		.loc 1 81 1 is_stmt 1 view -0
 169              		.cfi_startproc
 170              		@ args = 0, pretend = 0, frame = 0
 171              		@ frame_needed = 0, uses_anonymous_args = 0
  82:Device/Dev_Dshot.c ****     uint16_t packet;
 172              		.loc 1 82 5 view .LVU42
  83:Device/Dev_Dshot.c ****     bool dshot_telemetry = false;
 173              		.loc 1 83 5 view .LVU43
  84:Device/Dev_Dshot.c **** 
  85:Device/Dev_Dshot.c ****     if (!obj)
 174              		.loc 1 85 5 view .LVU44
 175              		.loc 1 85 8 is_stmt 0 view .LVU45
 176 0000 98B3     		cbz	r0, .L22
  81:Device/Dev_Dshot.c ****     uint16_t packet;
 177              		.loc 1 81 1 view .LVU46
 178 0002 10B5     		push	{r4, lr}
 179              	.LCFI0:
 180              		.cfi_def_cfa_offset 8
 181              		.cfi_offset 4, -8
 182              		.cfi_offset 14, -4
 183 0004 0B46     		mov	r3, r1
 184 0006 0446     		mov	r4, r0
  86:Device/Dev_Dshot.c ****         return;
  87:Device/Dev_Dshot.c **** 
  88:Device/Dev_Dshot.c ****     if (value > DSHOT_MAX_THROTTLE)
 185              		.loc 1 88 5 is_stmt 1 view .LVU47
 186              		.loc 1 88 8 is_stmt 0 view .LVU48
 187 0008 40F26C72 		movw	r2, #1900
 188 000c 9142     		cmp	r1, r2
ARM GAS  /var/folders/8_/_8bzxkcs1296m80nzxdrn9q80000gn/T//cc6SXop5.s 			page 6


 189 000e 03D8     		bhi	.L18
  89:Device/Dev_Dshot.c ****         value = DSHOT_MAX_THROTTLE;
  90:Device/Dev_Dshot.c **** 
  91:Device/Dev_Dshot.c ****     if (value < DSHOT_MIN_THROTTLE)
 190              		.loc 1 91 5 is_stmt 1 view .LVU49
 191              		.loc 1 91 8 is_stmt 0 view .LVU50
 192 0010 2F29     		cmp	r1, #47
 193 0012 03D8     		bhi	.L14
  92:Device/Dev_Dshot.c ****         value = DSHOT_LOCK_THROTTLE;
 194              		.loc 1 92 15 view .LVU51
 195 0014 0023     		movs	r3, #0
 196 0016 01E0     		b	.L14
 197              	.L18:
  89:Device/Dev_Dshot.c ****         value = DSHOT_MAX_THROTTLE;
 198              		.loc 1 89 15 view .LVU52
 199 0018 40F26C73 		movw	r3, #1900
 200              	.L14:
 201              	.LVL19:
  93:Device/Dev_Dshot.c **** 
  94:Device/Dev_Dshot.c ****     packet = DevDshot_Prepare_Packet(value, dshot_telemetry);
 202              		.loc 1 94 5 is_stmt 1 view .LVU53
 203              		.loc 1 94 14 is_stmt 0 view .LVU54
 204 001c 0021     		movs	r1, #0
 205 001e 1846     		mov	r0, r3
 206              	.LVL20:
 207              		.loc 1 94 14 view .LVU55
 208 0020 FFF7FEFF 		bl	DevDshot_Prepare_Packet
 209              	.LVL21:
  95:Device/Dev_Dshot.c **** 
  96:Device/Dev_Dshot.c ****     for (int i = 0; i < 16; i++)
 210              		.loc 1 96 5 is_stmt 1 view .LVU56
 211              	.LBB5:
 212              		.loc 1 96 10 view .LVU57
 213              		.loc 1 96 14 is_stmt 0 view .LVU58
 214 0024 0023     		movs	r3, #0
 215              		.loc 1 96 5 view .LVU59
 216 0026 08E0     		b	.L15
 217              	.LVL22:
 218              	.L26:
  97:Device/Dev_Dshot.c ****     {
  98:Device/Dev_Dshot.c ****         obj->ctl_buf[i] = (packet & 0x8000) ? MOTOR_BIT_1 : MOTOR_BIT_0;
 219              		.loc 1 98 59 view .LVU60
 220 0028 0E21     		movs	r1, #14
 221              	.L16:
 222              		.loc 1 98 25 discriminator 4 view .LVU61
 223 002a 03F13A02 		add	r2, r3, #58
 224 002e 04EB8202 		add	r2, r4, r2, lsl #2
 225 0032 5160     		str	r1, [r2, #4]
  99:Device/Dev_Dshot.c ****         packet <<= 1;
 226              		.loc 1 99 9 is_stmt 1 discriminator 4 view .LVU62
 227              		.loc 1 99 16 is_stmt 0 discriminator 4 view .LVU63
 228 0034 4000     		lsls	r0, r0, #1
 229              	.LVL23:
 230              		.loc 1 99 16 discriminator 4 view .LVU64
 231 0036 80B2     		uxth	r0, r0
 232              	.LVL24:
  96:Device/Dev_Dshot.c ****     {
ARM GAS  /var/folders/8_/_8bzxkcs1296m80nzxdrn9q80000gn/T//cc6SXop5.s 			page 7


 233              		.loc 1 96 29 is_stmt 1 discriminator 4 view .LVU65
  96:Device/Dev_Dshot.c ****     {
 234              		.loc 1 96 30 is_stmt 0 discriminator 4 view .LVU66
 235 0038 0133     		adds	r3, r3, #1
 236              	.LVL25:
 237              	.L15:
  96:Device/Dev_Dshot.c ****     {
 238              		.loc 1 96 21 is_stmt 1 discriminator 2 view .LVU67
  96:Device/Dev_Dshot.c ****     {
 239              		.loc 1 96 5 is_stmt 0 discriminator 2 view .LVU68
 240 003a 0F2B     		cmp	r3, #15
 241 003c 04DC     		bgt	.L25
  98:Device/Dev_Dshot.c ****         packet <<= 1;
 242              		.loc 1 98 9 is_stmt 1 view .LVU69
  98:Device/Dev_Dshot.c ****         packet <<= 1;
 243              		.loc 1 98 59 is_stmt 0 view .LVU70
 244 003e 10F4004F 		tst	r0, #32768
 245 0042 F1D1     		bne	.L26
 246 0044 0721     		movs	r1, #7
 247 0046 F0E7     		b	.L16
 248              	.L25:
 249              	.LBE5:
 100:Device/Dev_Dshot.c ****     }
 101:Device/Dev_Dshot.c **** 
 102:Device/Dev_Dshot.c ****     obj->ctl_buf[16] = 0;
 250              		.loc 1 102 5 is_stmt 1 view .LVU71
 251              		.loc 1 102 22 is_stmt 0 view .LVU72
 252 0048 0023     		movs	r3, #0
 253              	.LVL26:
 254              		.loc 1 102 22 view .LVU73
 255 004a C4F82C31 		str	r3, [r4, #300]
 103:Device/Dev_Dshot.c ****     obj->ctl_buf[17] = 0;
 256              		.loc 1 103 5 is_stmt 1 view .LVU74
 257              		.loc 1 103 22 is_stmt 0 view .LVU75
 258 004e C4F83031 		str	r3, [r4, #304]
 104:Device/Dev_Dshot.c **** 
 105:Device/Dev_Dshot.c ****     obj->pwm_obj.buffer_addr = (uint32_t)obj->ctl_buf;
 259              		.loc 1 105 5 is_stmt 1 view .LVU76
 260              		.loc 1 105 42 is_stmt 0 view .LVU77
 261 0052 04F1EC03 		add	r3, r4, #236
 262              		.loc 1 105 30 view .LVU78
 263 0056 C4F8E430 		str	r3, [r4, #228]
 106:Device/Dev_Dshot.c ****     obj->pwm_obj.buffer_size = DSHOT_DMA_BUFFER_SIZE;
 264              		.loc 1 106 5 is_stmt 1 view .LVU79
 265              		.loc 1 106 30 is_stmt 0 view .LVU80
 266 005a 1223     		movs	r3, #18
 267 005c C4F8E830 		str	r3, [r4, #232]
 107:Device/Dev_Dshot.c **** 
 108:Device/Dev_Dshot.c ****     BspTimer_PWM.dma_trans(&obj->pwm_obj);
 268              		.loc 1 108 5 is_stmt 1 view .LVU81
 269              		.loc 1 108 17 is_stmt 0 view .LVU82
 270 0060 024B     		ldr	r3, .L27
 271 0062 1B69     		ldr	r3, [r3, #16]
 272              		.loc 1 108 5 view .LVU83
 273 0064 201D     		adds	r0, r4, #4
 274              	.LVL27:
 275              		.loc 1 108 5 view .LVU84
ARM GAS  /var/folders/8_/_8bzxkcs1296m80nzxdrn9q80000gn/T//cc6SXop5.s 			page 8


 276 0066 9847     		blx	r3
 277              	.LVL28:
 109:Device/Dev_Dshot.c **** }
 278              		.loc 1 109 1 view .LVU85
 279 0068 10BD     		pop	{r4, pc}
 280              	.LVL29:
 281              	.L22:
 282              	.LCFI1:
 283              		.cfi_def_cfa_offset 0
 284              		.cfi_restore 4
 285              		.cfi_restore 14
 286              		.loc 1 109 1 view .LVU86
 287 006a 7047     		bx	lr
 288              	.L28:
 289              		.align	2
 290              	.L27:
 291 006c 00000000 		.word	BspTimer_PWM
 292              		.cfi_endproc
 293              	.LFE147:
 295              		.section	.text.DevDshot_Command,"ax",%progbits
 296              		.align	1
 297              		.syntax unified
 298              		.thumb
 299              		.thumb_func
 300              		.fpu fpv5-d16
 302              	DevDshot_Command:
 303              	.LVL30:
 304              	.LFB148:
 110:Device/Dev_Dshot.c **** 
 111:Device/Dev_Dshot.c **** static void DevDshot_Command(DevDshotObj_TypeDef *obj, uint8_t cmd)
 112:Device/Dev_Dshot.c **** {
 305              		.loc 1 112 1 is_stmt 1 view -0
 306              		.cfi_startproc
 307              		@ args = 0, pretend = 0, frame = 0
 308              		@ frame_needed = 0, uses_anonymous_args = 0
 113:Device/Dev_Dshot.c ****     uint16_t packet;
 309              		.loc 1 113 5 view .LVU88
 114:Device/Dev_Dshot.c ****     bool dshot_telemetry = false;
 310              		.loc 1 114 5 view .LVU89
 115:Device/Dev_Dshot.c **** 
 116:Device/Dev_Dshot.c ****     if (!obj || cmd >= DSHOT_MIN_THROTTLE)
 311              		.loc 1 116 5 view .LVU90
 312              		.loc 1 116 21 is_stmt 0 view .LVU91
 313 0000 2F29     		cmp	r1, #47
 314 0002 94BF     		ite	ls
 315 0004 0022     		movls	r2, #0
 316 0006 0122     		movhi	r2, #1
 317              		.loc 1 116 14 view .LVU92
 318 0008 0028     		cmp	r0, #0
 319 000a 08BF     		it	eq
 320 000c 42F00102 		orreq	r2, r2, #1
 321              		.loc 1 116 8 view .LVU93
 322 0010 12BB     		cbnz	r2, .L36
 112:Device/Dev_Dshot.c ****     uint16_t packet;
 323              		.loc 1 112 1 view .LVU94
 324 0012 10B5     		push	{r4, lr}
 325              	.LCFI2:
ARM GAS  /var/folders/8_/_8bzxkcs1296m80nzxdrn9q80000gn/T//cc6SXop5.s 			page 9


 326              		.cfi_def_cfa_offset 8
 327              		.cfi_offset 4, -8
 328              		.cfi_offset 14, -4
 329 0014 0B46     		mov	r3, r1
 330 0016 0446     		mov	r4, r0
 117:Device/Dev_Dshot.c ****         return;
 118:Device/Dev_Dshot.c **** 
 119:Device/Dev_Dshot.c ****     packet = DevDshot_Prepare_Packet(cmd, dshot_telemetry);
 331              		.loc 1 119 5 is_stmt 1 view .LVU95
 332              		.loc 1 119 14 is_stmt 0 view .LVU96
 333 0018 0021     		movs	r1, #0
 334              	.LVL31:
 335              		.loc 1 119 14 view .LVU97
 336 001a 1846     		mov	r0, r3
 337              	.LVL32:
 338              		.loc 1 119 14 view .LVU98
 339 001c FFF7FEFF 		bl	DevDshot_Prepare_Packet
 340              	.LVL33:
 120:Device/Dev_Dshot.c **** 
 121:Device/Dev_Dshot.c ****     for (int i = 0; i < 16; i++)
 341              		.loc 1 121 5 is_stmt 1 view .LVU99
 342              	.LBB6:
 343              		.loc 1 121 10 view .LVU100
 344              		.loc 1 121 14 is_stmt 0 view .LVU101
 345 0020 0023     		movs	r3, #0
 346              		.loc 1 121 5 view .LVU102
 347 0022 08E0     		b	.L31
 348              	.LVL34:
 349              	.L40:
 122:Device/Dev_Dshot.c ****     {
 123:Device/Dev_Dshot.c ****         obj->ctl_buf[i] = (packet & 0x8000) ? MOTOR_BIT_1 : MOTOR_BIT_0;
 350              		.loc 1 123 59 view .LVU103
 351 0024 0E21     		movs	r1, #14
 352              	.L32:
 353              		.loc 1 123 25 discriminator 4 view .LVU104
 354 0026 03F13A02 		add	r2, r3, #58
 355 002a 04EB8202 		add	r2, r4, r2, lsl #2
 356 002e 5160     		str	r1, [r2, #4]
 124:Device/Dev_Dshot.c ****         packet <<= 1;
 357              		.loc 1 124 9 is_stmt 1 discriminator 4 view .LVU105
 358              		.loc 1 124 16 is_stmt 0 discriminator 4 view .LVU106
 359 0030 4000     		lsls	r0, r0, #1
 360              	.LVL35:
 361              		.loc 1 124 16 discriminator 4 view .LVU107
 362 0032 80B2     		uxth	r0, r0
 363              	.LVL36:
 121:Device/Dev_Dshot.c ****     {
 364              		.loc 1 121 29 is_stmt 1 discriminator 4 view .LVU108
 121:Device/Dev_Dshot.c ****     {
 365              		.loc 1 121 30 is_stmt 0 discriminator 4 view .LVU109
 366 0034 0133     		adds	r3, r3, #1
 367              	.LVL37:
 368              	.L31:
 121:Device/Dev_Dshot.c ****     {
 369              		.loc 1 121 21 is_stmt 1 discriminator 2 view .LVU110
 121:Device/Dev_Dshot.c ****     {
 370              		.loc 1 121 5 is_stmt 0 discriminator 2 view .LVU111
ARM GAS  /var/folders/8_/_8bzxkcs1296m80nzxdrn9q80000gn/T//cc6SXop5.s 			page 10


 371 0036 0F2B     		cmp	r3, #15
 372 0038 04DC     		bgt	.L39
 123:Device/Dev_Dshot.c ****         packet <<= 1;
 373              		.loc 1 123 9 is_stmt 1 view .LVU112
 123:Device/Dev_Dshot.c ****         packet <<= 1;
 374              		.loc 1 123 59 is_stmt 0 view .LVU113
 375 003a 10F4004F 		tst	r0, #32768
 376 003e F1D1     		bne	.L40
 377 0040 0721     		movs	r1, #7
 378 0042 F0E7     		b	.L32
 379              	.L39:
 380              	.LBE6:
 125:Device/Dev_Dshot.c ****     }
 126:Device/Dev_Dshot.c **** 
 127:Device/Dev_Dshot.c ****     obj->ctl_buf[16] = 0;
 381              		.loc 1 127 5 is_stmt 1 view .LVU114
 382              		.loc 1 127 22 is_stmt 0 view .LVU115
 383 0044 0023     		movs	r3, #0
 384              	.LVL38:
 385              		.loc 1 127 22 view .LVU116
 386 0046 C4F82C31 		str	r3, [r4, #300]
 128:Device/Dev_Dshot.c ****     obj->ctl_buf[17] = 0;
 387              		.loc 1 128 5 is_stmt 1 view .LVU117
 388              		.loc 1 128 22 is_stmt 0 view .LVU118
 389 004a C4F83031 		str	r3, [r4, #304]
 129:Device/Dev_Dshot.c **** 
 130:Device/Dev_Dshot.c ****     BspTimer_PWM.dma_trans(&obj->pwm_obj);
 390              		.loc 1 130 5 is_stmt 1 view .LVU119
 391              		.loc 1 130 17 is_stmt 0 view .LVU120
 392 004e 034B     		ldr	r3, .L41
 393 0050 1B69     		ldr	r3, [r3, #16]
 394              		.loc 1 130 5 view .LVU121
 395 0052 201D     		adds	r0, r4, #4
 396              	.LVL39:
 397              		.loc 1 130 5 view .LVU122
 398 0054 9847     		blx	r3
 399              	.LVL40:
 131:Device/Dev_Dshot.c **** }
 400              		.loc 1 131 1 view .LVU123
 401 0056 10BD     		pop	{r4, pc}
 402              	.LVL41:
 403              	.L36:
 404              	.LCFI3:
 405              		.cfi_def_cfa_offset 0
 406              		.cfi_restore 4
 407              		.cfi_restore 14
 408              		.loc 1 131 1 view .LVU124
 409 0058 7047     		bx	lr
 410              	.L42:
 411 005a 00BF     		.align	2
 412              	.L41:
 413 005c 00000000 		.word	BspTimer_PWM
 414              		.cfi_endproc
 415              	.LFE148:
 417              		.section	.text.DevDshot_Init,"ax",%progbits
 418              		.align	1
 419              		.syntax unified
ARM GAS  /var/folders/8_/_8bzxkcs1296m80nzxdrn9q80000gn/T//cc6SXop5.s 			page 11


 420              		.thumb
 421              		.thumb_func
 422              		.fpu fpv5-d16
 424              	DevDshot_Init:
 425              	.LVL42:
 426              	.LFB145:
  39:Device/Dev_Dshot.c ****     uint32_t prescaler = lrintf((float)DSHOT_TIMER_CLK_HZ / DevDshot_GetType_Clock(obj->type) + 0.0
 427              		.loc 1 39 1 is_stmt 1 view -0
 428              		.cfi_startproc
 429              		@ args = 24, pretend = 8, frame = 0
 430              		@ frame_needed = 0, uses_anonymous_args = 0
  39:Device/Dev_Dshot.c ****     uint32_t prescaler = lrintf((float)DSHOT_TIMER_CLK_HZ / DevDshot_GetType_Clock(obj->type) + 0.0
 431              		.loc 1 39 1 is_stmt 0 view .LVU126
 432 0000 82B0     		sub	sp, sp, #8
 433              	.LCFI4:
 434              		.cfi_def_cfa_offset 8
 435 0002 2DE9F043 		push	{r4, r5, r6, r7, r8, r9, lr}
 436              	.LCFI5:
 437              		.cfi_def_cfa_offset 36
 438              		.cfi_offset 4, -36
 439              		.cfi_offset 5, -32
 440              		.cfi_offset 6, -28
 441              		.cfi_offset 7, -24
 442              		.cfi_offset 8, -20
 443              		.cfi_offset 9, -16
 444              		.cfi_offset 14, -12
 445 0006 87B0     		sub	sp, sp, #28
 446              	.LCFI6:
 447              		.cfi_def_cfa_offset 64
 448 0008 0446     		mov	r4, r0
 449 000a 0D46     		mov	r5, r1
 450 000c 1646     		mov	r6, r2
 451 000e 0F93     		str	r3, [sp, #60]
  40:Device/Dev_Dshot.c **** 
 452              		.loc 1 40 5 is_stmt 1 view .LVU127
  40:Device/Dev_Dshot.c **** 
 453              		.loc 1 40 61 is_stmt 0 view .LVU128
 454 0010 0078     		ldrb	r0, [r0]	@ zero_extendqisi2
 455              	.LVL43:
  40:Device/Dev_Dshot.c **** 
 456              		.loc 1 40 61 view .LVU129
 457 0012 FFF7FEFF 		bl	DevDshot_GetType_Clock
 458              	.LVL44:
  40:Device/Dev_Dshot.c **** 
 459              		.loc 1 40 61 view .LVU130
 460 0016 07EE900A 		vmov	s15, r0	@ int
  40:Device/Dev_Dshot.c **** 
 461              		.loc 1 40 59 view .LVU131
 462 001a F8EE677A 		vcvt.f32.u32	s15, s15
 463 001e 9FED217A 		vldr.32	s14, .L48
 464 0022 87EE270A 		vdiv.f32	s0, s14, s15
  40:Device/Dev_Dshot.c **** 
 465              		.loc 1 40 26 view .LVU132
 466 0026 DFED207A 		vldr.32	s15, .L48+4
 467 002a 30EE270A 		vadd.f32	s0, s0, s15
 468 002e FFF7FEFF 		bl	lrintf
 469              	.LVL45:
ARM GAS  /var/folders/8_/_8bzxkcs1296m80nzxdrn9q80000gn/T//cc6SXop5.s 			page 12


  42:Device/Dev_Dshot.c ****         return false;
 470              		.loc 1 42 5 is_stmt 1 view .LVU133
  42:Device/Dev_Dshot.c ****         return false;
 471              		.loc 1 42 8 is_stmt 0 view .LVU134
 472 0032 002C     		cmp	r4, #0
 473 0034 34D0     		beq	.L46
 474 0036 471E     		subs	r7, r0, #1
 475              	.LVL46:
  45:Device/Dev_Dshot.c ****     {
 476              		.loc 1 45 5 is_stmt 1 view .LVU135
  45:Device/Dev_Dshot.c ****     {
 477              		.loc 1 45 13 is_stmt 0 view .LVU136
 478 0038 2378     		ldrb	r3, [r4]	@ zero_extendqisi2
  45:Device/Dev_Dshot.c ****     {
 479              		.loc 1 45 36 view .LVU137
 480 003a 013B     		subs	r3, r3, #1
 481 003c DBB2     		uxtb	r3, r3
  45:Device/Dev_Dshot.c ****     {
 482              		.loc 1 45 8 view .LVU138
 483 003e 022B     		cmp	r3, #2
 484 0040 01D9     		bls	.L45
  47:Device/Dev_Dshot.c ****     }
 485              		.loc 1 47 9 is_stmt 1 view .LVU139
  47:Device/Dev_Dshot.c ****     }
 486              		.loc 1 47 19 is_stmt 0 view .LVU140
 487 0042 0223     		movs	r3, #2
 488 0044 2370     		strb	r3, [r4]
 489              	.L45:
  50:Device/Dev_Dshot.c ****         return false;
 490              		.loc 1 50 5 is_stmt 1 view .LVU141
  50:Device/Dev_Dshot.c ****         return false;
 491              		.loc 1 50 22 is_stmt 0 view .LVU142
 492 0046 194B     		ldr	r3, .L48+8
 493 0048 D3F80090 		ldr	r9, [r3]
  50:Device/Dev_Dshot.c ****         return false;
 494              		.loc 1 50 10 view .LVU143
 495 004c 04F10408 		add	r8, r4, #4
  50:Device/Dev_Dshot.c ****         return false;
 496              		.loc 1 50 86 view .LVU144
 497 0050 EC34     		adds	r4, r4, #236
 498              	.LVL47:
  50:Device/Dev_Dshot.c ****         return false;
 499              		.loc 1 50 10 view .LVU145
 500 0052 1223     		movs	r3, #18
 501 0054 0593     		str	r3, [sp, #20]
 502 0056 0494     		str	r4, [sp, #16]
 503 0058 9DF84C30 		ldrb	r3, [sp, #76]	@ zero_extendqisi2
 504 005c 0393     		str	r3, [sp, #12]
 505 005e 9DF84830 		ldrb	r3, [sp, #72]	@ zero_extendqisi2
 506 0062 0293     		str	r3, [sp, #8]
 507 0064 10AB     		add	r3, sp, #64
 508 0066 93E80300 		ldm	r3, {r0, r1}
 509 006a 8DE80300 		stm	sp, {r0, r1}
 510 006e 0F9B     		ldr	r3, [sp, #60]
 511 0070 3246     		mov	r2, r6
 512 0072 2946     		mov	r1, r5
 513 0074 4046     		mov	r0, r8
ARM GAS  /var/folders/8_/_8bzxkcs1296m80nzxdrn9q80000gn/T//cc6SXop5.s 			page 13


 514 0076 C847     		blx	r9
 515              	.LVL48:
  50:Device/Dev_Dshot.c ****         return false;
 516              		.loc 1 50 8 view .LVU146
 517 0078 0546     		mov	r5, r0
 518              	.LVL49:
  50:Device/Dev_Dshot.c ****         return false;
 519              		.loc 1 50 8 view .LVU147
 520 007a 58B1     		cbz	r0, .L44
  53:Device/Dev_Dshot.c ****     BspTimer_PWM.set_autoreload(&obj->pwm_obj, MOTOR_BITLENGTH);
 521              		.loc 1 53 5 is_stmt 1 view .LVU148
  53:Device/Dev_Dshot.c ****     BspTimer_PWM.set_autoreload(&obj->pwm_obj, MOTOR_BITLENGTH);
 522              		.loc 1 53 17 is_stmt 0 view .LVU149
 523 007c 0B4C     		ldr	r4, .L48+8
 524              	.LVL50:
  53:Device/Dev_Dshot.c ****     BspTimer_PWM.set_autoreload(&obj->pwm_obj, MOTOR_BITLENGTH);
 525              		.loc 1 53 17 view .LVU150
 526 007e 6368     		ldr	r3, [r4, #4]
  53:Device/Dev_Dshot.c ****     BspTimer_PWM.set_autoreload(&obj->pwm_obj, MOTOR_BITLENGTH);
 527              		.loc 1 53 5 view .LVU151
 528 0080 3946     		mov	r1, r7
 529 0082 4046     		mov	r0, r8
 530 0084 9847     		blx	r3
 531              	.LVL51:
  54:Device/Dev_Dshot.c **** 
 532              		.loc 1 54 5 is_stmt 1 view .LVU152
  54:Device/Dev_Dshot.c **** 
 533              		.loc 1 54 17 is_stmt 0 view .LVU153
 534 0086 A368     		ldr	r3, [r4, #8]
  54:Device/Dev_Dshot.c **** 
 535              		.loc 1 54 5 view .LVU154
 536 0088 1421     		movs	r1, #20
 537 008a 4046     		mov	r0, r8
 538 008c 9847     		blx	r3
 539              	.LVL52:
  56:Device/Dev_Dshot.c **** 
 540              		.loc 1 56 5 is_stmt 1 view .LVU155
  56:Device/Dev_Dshot.c **** 
 541              		.loc 1 56 17 is_stmt 0 view .LVU156
 542 008e E368     		ldr	r3, [r4, #12]
  56:Device/Dev_Dshot.c **** 
 543              		.loc 1 56 5 view .LVU157
 544 0090 4046     		mov	r0, r8
 545 0092 9847     		blx	r3
 546              	.LVL53:
  58:Device/Dev_Dshot.c **** }
 547              		.loc 1 58 5 is_stmt 1 view .LVU158
 548              	.L44:
  59:Device/Dev_Dshot.c **** 
 549              		.loc 1 59 1 is_stmt 0 view .LVU159
 550 0094 2846     		mov	r0, r5
 551 0096 07B0     		add	sp, sp, #28
 552              	.LCFI7:
 553              		.cfi_remember_state
 554              		.cfi_def_cfa_offset 36
 555              		@ sp needed
 556 0098 BDE8F043 		pop	{r4, r5, r6, r7, r8, r9, lr}
ARM GAS  /var/folders/8_/_8bzxkcs1296m80nzxdrn9q80000gn/T//cc6SXop5.s 			page 14


 557              	.LCFI8:
 558              		.cfi_restore 14
 559              		.cfi_restore 9
 560              		.cfi_restore 8
 561              		.cfi_restore 7
 562              		.cfi_restore 6
 563              		.cfi_restore 5
 564              		.cfi_restore 4
 565              		.cfi_def_cfa_offset 8
 566              	.LVL54:
  59:Device/Dev_Dshot.c **** 
 567              		.loc 1 59 1 view .LVU160
 568 009c 02B0     		add	sp, sp, #8
 569              	.LCFI9:
 570              		.cfi_def_cfa_offset 0
 571 009e 7047     		bx	lr
 572              	.LVL55:
 573              	.L46:
 574              	.LCFI10:
 575              		.cfi_restore_state
  43:Device/Dev_Dshot.c **** 
 576              		.loc 1 43 16 view .LVU161
 577 00a0 0025     		movs	r5, #0
 578              	.LVL56:
  43:Device/Dev_Dshot.c **** 
 579              		.loc 1 43 16 view .LVU162
 580 00a2 F7E7     		b	.L44
 581              	.L49:
 582              		.align	2
 583              	.L48:
 584 00a4 8096184D 		.word	1293457024
 585 00a8 0AD7233C 		.word	1008981770
 586 00ac 00000000 		.word	BspTimer_PWM
 587              		.cfi_endproc
 588              	.LFE145:
 590              		.global	DevDshot
 591              		.section	.data.DevDshot,"aw"
 592              		.align	2
 595              	DevDshot:
 596 0000 00000000 		.word	DevDshot_Init
 597 0004 00000000 		.word	DevDshot_Command
 598 0008 00000000 		.word	DevDshot_Control
 599              		.text
 600              	.Letext0:
 601              		.file 2 "/opt/homebrew/Cellar/arm-none-eabi-gcc/10.3-2021.07/gcc/arm-none-eabi/include/machine/_de
 602              		.file 3 "/opt/homebrew/Cellar/arm-none-eabi-gcc/10.3-2021.07/gcc/arm-none-eabi/include/sys/_stdint
 603              		.file 4 "HAL_Lib/CMSIS/Device/ST/STM32H7xx/Include/stm32h743xx.h"
 604              		.file 5 "HAL_Lib/STM32H7xx_HAL_Driver/Inc/stm32h7xx_hal_def.h"
 605              		.file 6 "HAL_Lib/STM32H7xx_HAL_Driver/Inc/stm32h7xx_hal_gpio.h"
 606              		.file 7 "HAL_Lib/STM32H7xx_HAL_Driver/Inc/stm32h7xx_hal_dma.h"
 607              		.file 8 "HAL_Lib/STM32H7xx_HAL_Driver/Inc/stm32h7xx_hal_tim.h"
 608              		.file 9 "Bsp/Bsp_GPIO.h"
 609              		.file 10 "Bsp/Bsp_Timer.h"
 610              		.file 11 "Device/Dev_Dshot.h"
 611              		.file 12 "/opt/homebrew/Cellar/arm-none-eabi-gcc/10.3-2021.07/gcc/arm-none-eabi/include/math.h"
ARM GAS  /var/folders/8_/_8bzxkcs1296m80nzxdrn9q80000gn/T//cc6SXop5.s 			page 15


DEFINED SYMBOLS
                            *ABS*:0000000000000000 Dev_Dshot.c
/var/folders/8_/_8bzxkcs1296m80nzxdrn9q80000gn/T//cc6SXop5.s:17     .text.DevDshot_GetType_Clock:0000000000000000 $t
/var/folders/8_/_8bzxkcs1296m80nzxdrn9q80000gn/T//cc6SXop5.s:24     .text.DevDshot_GetType_Clock:0000000000000000 DevDshot_GetType_Clock
/var/folders/8_/_8bzxkcs1296m80nzxdrn9q80000gn/T//cc6SXop5.s:69     .text.DevDshot_GetType_Clock:000000000000001c $d
/var/folders/8_/_8bzxkcs1296m80nzxdrn9q80000gn/T//cc6SXop5.s:76     .text.DevDshot_Prepare_Packet:0000000000000000 $t
/var/folders/8_/_8bzxkcs1296m80nzxdrn9q80000gn/T//cc6SXop5.s:82     .text.DevDshot_Prepare_Packet:0000000000000000 DevDshot_Prepare_Packet
/var/folders/8_/_8bzxkcs1296m80nzxdrn9q80000gn/T//cc6SXop5.s:159    .text.DevDshot_Control:0000000000000000 $t
/var/folders/8_/_8bzxkcs1296m80nzxdrn9q80000gn/T//cc6SXop5.s:165    .text.DevDshot_Control:0000000000000000 DevDshot_Control
/var/folders/8_/_8bzxkcs1296m80nzxdrn9q80000gn/T//cc6SXop5.s:291    .text.DevDshot_Control:000000000000006c $d
/var/folders/8_/_8bzxkcs1296m80nzxdrn9q80000gn/T//cc6SXop5.s:296    .text.DevDshot_Command:0000000000000000 $t
/var/folders/8_/_8bzxkcs1296m80nzxdrn9q80000gn/T//cc6SXop5.s:302    .text.DevDshot_Command:0000000000000000 DevDshot_Command
/var/folders/8_/_8bzxkcs1296m80nzxdrn9q80000gn/T//cc6SXop5.s:413    .text.DevDshot_Command:000000000000005c $d
/var/folders/8_/_8bzxkcs1296m80nzxdrn9q80000gn/T//cc6SXop5.s:418    .text.DevDshot_Init:0000000000000000 $t
/var/folders/8_/_8bzxkcs1296m80nzxdrn9q80000gn/T//cc6SXop5.s:424    .text.DevDshot_Init:0000000000000000 DevDshot_Init
/var/folders/8_/_8bzxkcs1296m80nzxdrn9q80000gn/T//cc6SXop5.s:584    .text.DevDshot_Init:00000000000000a4 $d
/var/folders/8_/_8bzxkcs1296m80nzxdrn9q80000gn/T//cc6SXop5.s:595    .data.DevDshot:0000000000000000 DevDshot
/var/folders/8_/_8bzxkcs1296m80nzxdrn9q80000gn/T//cc6SXop5.s:592    .data.DevDshot:0000000000000000 $d

UNDEFINED SYMBOLS
BspTimer_PWM
lrintf
