ARM GAS  /var/folders/8_/_8bzxkcs1296m80nzxdrn9q80000gn/T//ccHk9u7h.s 			page 1


   1              		.cpu cortex-m7
   2              		.eabi_attribute 28, 1
   3              		.eabi_attribute 20, 1
   4              		.eabi_attribute 21, 1
   5              		.eabi_attribute 23, 3
   6              		.eabi_attribute 24, 1
   7              		.eabi_attribute 25, 1
   8              		.eabi_attribute 26, 1
   9              		.eabi_attribute 30, 1
  10              		.eabi_attribute 34, 1
  11              		.eabi_attribute 18, 4
  12              		.file	"Dev_ICM20602.c"
  13              		.text
  14              	.Ltext0:
  15              		.cfi_sections	.debug_frame
  16              		.section	.text.DevICM20602_Detect,"ax",%progbits
  17              		.align	1
  18              		.arch armv7e-m
  19              		.syntax unified
  20              		.thumb
  21              		.thumb_func
  22              		.fpu fpv5-d16
  24              	DevICM20602_Detect:
  25              	.LVL0:
  26              	.LFB1:
  27              		.file 1 "Device/Dev_ICM20602.c"
   1:Device/Dev_ICM20602.c **** #include "Dev_ICM20602.h"
   2:Device/Dev_ICM20602.c **** 
   3:Device/Dev_ICM20602.c **** #define ConvertToICM20602Trip_Reg(x) (x << 3)
   4:Device/Dev_ICM20602.c **** 
   5:Device/Dev_ICM20602.c **** /* internal function */
   6:Device/Dev_ICM20602.c **** static bool DevICM20602_Regs_Read(DevICM20602Obj_TypeDef *Obj, uint32_t addr, uint8_t *tx, uint8_t 
   7:Device/Dev_ICM20602.c **** static bool DevICM20602_Reg_Read(DevICM20602Obj_TypeDef *Obj, uint8_t addr, uint8_t *rx);
   8:Device/Dev_ICM20602.c **** static bool DevICM20602_Reg_Write(DevICM20602Obj_TypeDef *Obj, uint8_t addr, uint8_t tx);
   9:Device/Dev_ICM20602.c **** 
  10:Device/Dev_ICM20602.c **** /* external function */
  11:Device/Dev_ICM20602.c **** static bool DevICM20602_Detect(bus_trans_callback trans, cs_ctl_callback cs_ctl);
  12:Device/Dev_ICM20602.c **** static bool DevICM20602_Config(DevICM20602Obj_TypeDef *Obj, 
  13:Device/Dev_ICM20602.c ****                                ICM20602_SampleRate_List rate, 
  14:Device/Dev_ICM20602.c ****                                ICM20602_GyrTrip_List GyrTrip, 
  15:Device/Dev_ICM20602.c ****                                ICM20602_AccTrip_List AccTrip);
  16:Device/Dev_ICM20602.c **** static void DevICM20602_PreInit(DevICM20602Obj_TypeDef *Obj,
  17:Device/Dev_ICM20602.c ****                                 cs_ctl_callback cs_ctl,
  18:Device/Dev_ICM20602.c ****                                 bus_trans_callback bus_trans,
  19:Device/Dev_ICM20602.c ****                                 delay_callback delay,
  20:Device/Dev_ICM20602.c ****                                 get_time_stamp_callback get_time_stamp);
  21:Device/Dev_ICM20602.c **** static bool DevICM20602_Init(DevICM20602Obj_TypeDef *Obj);
  22:Device/Dev_ICM20602.c **** static void DevICM20602_SetDRDY(DevICM20602Obj_TypeDef *Obj);
  23:Device/Dev_ICM20602.c **** static bool DevICM20602_SwReset(DevICM20602Obj_TypeDef *Obj);
  24:Device/Dev_ICM20602.c **** static bool DevICM20602_GetReady(DevICM20602Obj_TypeDef *Obj);
  25:Device/Dev_ICM20602.c **** static bool DevICM20602_Sample(DevICM20602Obj_TypeDef *Obj);
  26:Device/Dev_ICM20602.c **** static IMUData_TypeDef DevICM20602_Get_Data(DevICM20602Obj_TypeDef *Obj);
  27:Device/Dev_ICM20602.c **** static IMU_Error_TypeDef DevICM20602_Get_InitError(DevICM20602Obj_TypeDef *Obj);
  28:Device/Dev_ICM20602.c **** static IMUModuleScale_TypeDef DevICM20602_Get_Scale(const DevICM20602Obj_TypeDef *Obj);
  29:Device/Dev_ICM20602.c **** static float DevICM20602_Get_Specified_AngularSpeed_Diff(const DevICM20602Obj_TypeDef *Obj);
  30:Device/Dev_ICM20602.c **** 
  31:Device/Dev_ICM20602.c **** /* external variable */
ARM GAS  /var/folders/8_/_8bzxkcs1296m80nzxdrn9q80000gn/T//ccHk9u7h.s 			page 2


  32:Device/Dev_ICM20602.c **** DevICM20602_TypeDef DevICM20602 = {
  33:Device/Dev_ICM20602.c ****     .detect = DevICM20602_Detect,
  34:Device/Dev_ICM20602.c ****     .config = DevICM20602_Config,
  35:Device/Dev_ICM20602.c ****     .init = DevICM20602_Init,
  36:Device/Dev_ICM20602.c ****     .pre_init = DevICM20602_PreInit,
  37:Device/Dev_ICM20602.c ****     .reset = DevICM20602_SwReset,
  38:Device/Dev_ICM20602.c ****     .set_ready = DevICM20602_SetDRDY,
  39:Device/Dev_ICM20602.c ****     .get_ready = DevICM20602_GetReady,
  40:Device/Dev_ICM20602.c ****     .sample = DevICM20602_Sample,
  41:Device/Dev_ICM20602.c ****     .get_error = DevICM20602_Get_InitError,
  42:Device/Dev_ICM20602.c ****     .get_data = DevICM20602_Get_Data,
  43:Device/Dev_ICM20602.c ****     .get_scale = DevICM20602_Get_Scale,
  44:Device/Dev_ICM20602.c ****     .get_gyr_angular_speed_diff = DevICM20602_Get_Specified_AngularSpeed_Diff,
  45:Device/Dev_ICM20602.c **** };
  46:Device/Dev_ICM20602.c **** 
  47:Device/Dev_ICM20602.c **** static bool DevICM20602_Detect(bus_trans_callback trans, cs_ctl_callback cs_ctl)
  48:Device/Dev_ICM20602.c **** {
  28              		.loc 1 48 1 view -0
  29              		.cfi_startproc
  30              		@ args = 0, pretend = 0, frame = 8
  31              		@ frame_needed = 0, uses_anonymous_args = 0
  32              		.loc 1 48 1 is_stmt 0 view .LVU1
  33 0000 70B5     		push	{r4, r5, r6, lr}
  34              	.LCFI0:
  35              		.cfi_def_cfa_offset 16
  36              		.cfi_offset 4, -16
  37              		.cfi_offset 5, -12
  38              		.cfi_offset 6, -8
  39              		.cfi_offset 14, -4
  40 0002 82B0     		sub	sp, sp, #8
  41              	.LCFI1:
  42              		.cfi_def_cfa_offset 24
  49:Device/Dev_ICM20602.c ****     uint8_t Rx_Tmp[2] = {0};
  43              		.loc 1 49 5 is_stmt 1 view .LVU2
  44              		.loc 1 49 13 is_stmt 0 view .LVU3
  45 0004 0023     		movs	r3, #0
  46 0006 ADF80430 		strh	r3, [sp, #4]	@ movhi
  50:Device/Dev_ICM20602.c ****     uint8_t Tx_Tmp[2] = {0};
  47              		.loc 1 50 5 is_stmt 1 view .LVU4
  48              		.loc 1 50 13 is_stmt 0 view .LVU5
  49 000a ADF80030 		strh	r3, [sp]	@ movhi
  51:Device/Dev_ICM20602.c ****     bool state = false;
  50              		.loc 1 51 5 is_stmt 1 view .LVU6
  51              	.LVL1:
  52:Device/Dev_ICM20602.c **** 
  53:Device/Dev_ICM20602.c ****     if (cs_ctl == NULL || trans == NULL)
  52              		.loc 1 53 5 view .LVU7
  53              		.loc 1 53 8 is_stmt 0 view .LVU8
  54 000e 9842     		cmp	r0, r3
  55 0010 18BF     		it	ne
  56 0012 9942     		cmpne	r1, r3
  57 0014 0CBF     		ite	eq
  58 0016 0124     		moveq	r4, #1
  59 0018 0024     		movne	r4, #0
  60 001a 16D0     		beq	.L3
  61 001c 0E46     		mov	r6, r1
  62 001e 0546     		mov	r5, r0
ARM GAS  /var/folders/8_/_8bzxkcs1296m80nzxdrn9q80000gn/T//ccHk9u7h.s 			page 3


  54:Device/Dev_ICM20602.c ****         return false;
  55:Device/Dev_ICM20602.c **** 
  56:Device/Dev_ICM20602.c ****     Tx_Tmp[0] = ICM20602_WHO_AM_I | ICM20602_READ_MASK;
  63              		.loc 1 56 5 is_stmt 1 view .LVU9
  64              		.loc 1 56 15 is_stmt 0 view .LVU10
  65 0020 F523     		movs	r3, #245
  66 0022 8DF80030 		strb	r3, [sp]
  57:Device/Dev_ICM20602.c **** 
  58:Device/Dev_ICM20602.c ****     /* cs low */
  59:Device/Dev_ICM20602.c ****     cs_ctl(false);
  67              		.loc 1 59 5 is_stmt 1 view .LVU11
  68 0026 0020     		movs	r0, #0
  69              	.LVL2:
  70              		.loc 1 59 5 is_stmt 0 view .LVU12
  71 0028 8847     		blx	r1
  72              	.LVL3:
  60:Device/Dev_ICM20602.c **** 
  61:Device/Dev_ICM20602.c ****     state = trans(Tx_Tmp, Rx_Tmp, 2);
  73              		.loc 1 61 5 is_stmt 1 view .LVU13
  74              		.loc 1 61 13 is_stmt 0 view .LVU14
  75 002a 0222     		movs	r2, #2
  76 002c 01A9     		add	r1, sp, #4
  77 002e 6846     		mov	r0, sp
  78 0030 A847     		blx	r5
  79              	.LVL4:
  80 0032 0546     		mov	r5, r0
  81              	.LVL5:
  62:Device/Dev_ICM20602.c **** 
  63:Device/Dev_ICM20602.c ****     /* cs high */
  64:Device/Dev_ICM20602.c ****     cs_ctl(true);
  82              		.loc 1 64 5 is_stmt 1 view .LVU15
  83 0034 0120     		movs	r0, #1
  84 0036 B047     		blx	r6
  85              	.LVL6:
  65:Device/Dev_ICM20602.c **** 
  66:Device/Dev_ICM20602.c ****     if(!state)
  86              		.loc 1 66 5 view .LVU16
  87              		.loc 1 66 7 is_stmt 0 view .LVU17
  88 0038 25B1     		cbz	r5, .L2
  67:Device/Dev_ICM20602.c ****         return false;
  68:Device/Dev_ICM20602.c **** 
  69:Device/Dev_ICM20602.c ****     if(Rx_Tmp[1] == ICM20602_DEV_ID)
  89              		.loc 1 69 5 is_stmt 1 view .LVU18
  90              		.loc 1 69 14 is_stmt 0 view .LVU19
  91 003a 9DF80530 		ldrb	r3, [sp, #5]	@ zero_extendqisi2
  92              		.loc 1 69 7 view .LVU20
  93 003e 122B     		cmp	r3, #18
  94 0040 00D0     		beq	.L2
  70:Device/Dev_ICM20602.c ****         return true;
  71:Device/Dev_ICM20602.c **** 
  72:Device/Dev_ICM20602.c ****     return false;
  95              		.loc 1 72 12 view .LVU21
  96 0042 2546     		mov	r5, r4
  97              	.LVL7:
  98              	.L2:
  73:Device/Dev_ICM20602.c **** }
  99              		.loc 1 73 1 view .LVU22
ARM GAS  /var/folders/8_/_8bzxkcs1296m80nzxdrn9q80000gn/T//ccHk9u7h.s 			page 4


 100 0044 2846     		mov	r0, r5
 101 0046 02B0     		add	sp, sp, #8
 102              	.LCFI2:
 103              		.cfi_remember_state
 104              		.cfi_def_cfa_offset 16
 105              		@ sp needed
 106 0048 70BD     		pop	{r4, r5, r6, pc}
 107              	.LVL8:
 108              	.L3:
 109              	.LCFI3:
 110              		.cfi_restore_state
  54:Device/Dev_ICM20602.c **** 
 111              		.loc 1 54 16 view .LVU23
 112 004a 0025     		movs	r5, #0
 113 004c FAE7     		b	.L2
 114              		.cfi_endproc
 115              	.LFE1:
 117              		.section	.text.DevICM20602_Reg_Read,"ax",%progbits
 118              		.align	1
 119              		.syntax unified
 120              		.thumb
 121              		.thumb_func
 122              		.fpu fpv5-d16
 124              	DevICM20602_Reg_Read:
 125              	.LVL9:
 126              	.LFB3:
  74:Device/Dev_ICM20602.c **** 
  75:Device/Dev_ICM20602.c **** static bool DevICM20602_Regs_Read(DevICM20602Obj_TypeDef *Obj, uint32_t addr, uint8_t *tx, uint8_t 
  76:Device/Dev_ICM20602.c **** {
  77:Device/Dev_ICM20602.c ****     bool state = false;
  78:Device/Dev_ICM20602.c ****     uint8_t addr_tmp = addr | ICM20602_READ_MASK;
  79:Device/Dev_ICM20602.c ****     uint8_t read_tmp = 0;
  80:Device/Dev_ICM20602.c **** 
  81:Device/Dev_ICM20602.c ****     if (Obj == NULL || Obj->cs_ctl == NULL || Obj->bus_trans == NULL)
  82:Device/Dev_ICM20602.c ****         return false;
  83:Device/Dev_ICM20602.c **** 
  84:Device/Dev_ICM20602.c ****     /* CS Low */
  85:Device/Dev_ICM20602.c ****     Obj->cs_ctl(false);
  86:Device/Dev_ICM20602.c **** 
  87:Device/Dev_ICM20602.c ****     state = Obj->bus_trans(&addr_tmp, &read_tmp, 1);
  88:Device/Dev_ICM20602.c ****     state = Obj->bus_trans(tx, rx, size);
  89:Device/Dev_ICM20602.c **** 
  90:Device/Dev_ICM20602.c ****     /* CS High */
  91:Device/Dev_ICM20602.c ****     Obj->cs_ctl(true);
  92:Device/Dev_ICM20602.c **** 
  93:Device/Dev_ICM20602.c ****     return state;
  94:Device/Dev_ICM20602.c **** }
  95:Device/Dev_ICM20602.c **** 
  96:Device/Dev_ICM20602.c **** static bool DevICM20602_Reg_Read(DevICM20602Obj_TypeDef *Obj, uint8_t addr, uint8_t *rx)
  97:Device/Dev_ICM20602.c **** {
 127              		.loc 1 97 1 is_stmt 1 view -0
 128              		.cfi_startproc
 129              		@ args = 0, pretend = 0, frame = 8
 130              		@ frame_needed = 0, uses_anonymous_args = 0
 131              		.loc 1 97 1 is_stmt 0 view .LVU25
 132 0000 70B5     		push	{r4, r5, r6, lr}
 133              	.LCFI4:
ARM GAS  /var/folders/8_/_8bzxkcs1296m80nzxdrn9q80000gn/T//ccHk9u7h.s 			page 5


 134              		.cfi_def_cfa_offset 16
 135              		.cfi_offset 4, -16
 136              		.cfi_offset 5, -12
 137              		.cfi_offset 6, -8
 138              		.cfi_offset 14, -4
 139 0002 82B0     		sub	sp, sp, #8
 140              	.LCFI5:
 141              		.cfi_def_cfa_offset 24
  98:Device/Dev_ICM20602.c ****     uint8_t Rx_Tmp[2] = {0};
 142              		.loc 1 98 5 is_stmt 1 view .LVU26
 143              		.loc 1 98 13 is_stmt 0 view .LVU27
 144 0004 0023     		movs	r3, #0
 145 0006 ADF80430 		strh	r3, [sp, #4]	@ movhi
  99:Device/Dev_ICM20602.c ****     uint8_t Tx_Tmp[2] = {0};
 146              		.loc 1 99 5 is_stmt 1 view .LVU28
 147              		.loc 1 99 13 is_stmt 0 view .LVU29
 148 000a ADF80030 		strh	r3, [sp]	@ movhi
 100:Device/Dev_ICM20602.c ****     bool state = false;
 149              		.loc 1 100 5 is_stmt 1 view .LVU30
 150              	.LVL10:
 101:Device/Dev_ICM20602.c **** 
 102:Device/Dev_ICM20602.c ****     if (Obj == NULL || Obj->cs_ctl == NULL || Obj->bus_trans == NULL)
 151              		.loc 1 102 5 view .LVU31
 152              		.loc 1 102 8 is_stmt 0 view .LVU32
 153 000e D8B1     		cbz	r0, .L7
 154 0010 1646     		mov	r6, r2
 155 0012 0446     		mov	r4, r0
 156              		.loc 1 102 27 discriminator 1 view .LVU33
 157 0014 0368     		ldr	r3, [r0]
 158              		.loc 1 102 21 discriminator 1 view .LVU34
 159 0016 CBB1     		cbz	r3, .L8
 160              		.loc 1 102 50 discriminator 2 view .LVU35
 161 0018 4368     		ldr	r3, [r0, #4]
 162              		.loc 1 102 44 discriminator 2 view .LVU36
 163 001a CBB1     		cbz	r3, .L9
 103:Device/Dev_ICM20602.c ****         return false;
 104:Device/Dev_ICM20602.c **** 
 105:Device/Dev_ICM20602.c ****     Tx_Tmp[0] = addr | ICM20602_READ_MASK;
 164              		.loc 1 105 5 is_stmt 1 view .LVU37
 165              		.loc 1 105 15 is_stmt 0 view .LVU38
 166 001c 61F07F01 		orn	r1, r1, #127
 167              	.LVL11:
 168              		.loc 1 105 15 view .LVU39
 169 0020 8DF80010 		strb	r1, [sp]
 106:Device/Dev_ICM20602.c **** 
 107:Device/Dev_ICM20602.c ****     /* cs low */
 108:Device/Dev_ICM20602.c ****     Obj->cs_ctl(false);
 170              		.loc 1 108 5 is_stmt 1 view .LVU40
 171              		.loc 1 108 8 is_stmt 0 view .LVU41
 172 0024 0368     		ldr	r3, [r0]
 173              		.loc 1 108 5 view .LVU42
 174 0026 0020     		movs	r0, #0
 175              	.LVL12:
 176              		.loc 1 108 5 view .LVU43
 177 0028 9847     		blx	r3
 178              	.LVL13:
 109:Device/Dev_ICM20602.c **** 
ARM GAS  /var/folders/8_/_8bzxkcs1296m80nzxdrn9q80000gn/T//ccHk9u7h.s 			page 6


 110:Device/Dev_ICM20602.c ****     state = Obj->bus_trans(Tx_Tmp, Rx_Tmp, 2);
 179              		.loc 1 110 5 is_stmt 1 view .LVU44
 180              		.loc 1 110 16 is_stmt 0 view .LVU45
 181 002a 6368     		ldr	r3, [r4, #4]
 182              		.loc 1 110 13 view .LVU46
 183 002c 0222     		movs	r2, #2
 184 002e 01A9     		add	r1, sp, #4
 185 0030 6846     		mov	r0, sp
 186 0032 9847     		blx	r3
 187              	.LVL14:
 188 0034 0546     		mov	r5, r0
 189              	.LVL15:
 111:Device/Dev_ICM20602.c **** 
 112:Device/Dev_ICM20602.c ****     /* cs high */
 113:Device/Dev_ICM20602.c ****     Obj->cs_ctl(true);
 190              		.loc 1 113 5 is_stmt 1 view .LVU47
 191              		.loc 1 113 8 is_stmt 0 view .LVU48
 192 0036 2368     		ldr	r3, [r4]
 193              		.loc 1 113 5 view .LVU49
 194 0038 0120     		movs	r0, #1
 195 003a 9847     		blx	r3
 196              	.LVL16:
 114:Device/Dev_ICM20602.c **** 
 115:Device/Dev_ICM20602.c ****     *rx = Rx_Tmp[1];
 197              		.loc 1 115 5 is_stmt 1 view .LVU50
 198              		.loc 1 115 17 is_stmt 0 view .LVU51
 199 003c 9DF80530 		ldrb	r3, [sp, #5]	@ zero_extendqisi2
 200              		.loc 1 115 9 view .LVU52
 201 0040 3370     		strb	r3, [r6]
 116:Device/Dev_ICM20602.c **** 
 117:Device/Dev_ICM20602.c ****     return state;
 202              		.loc 1 117 5 is_stmt 1 view .LVU53
 203              	.LVL17:
 204              	.L6:
 118:Device/Dev_ICM20602.c **** }
 205              		.loc 1 118 1 is_stmt 0 view .LVU54
 206 0042 2846     		mov	r0, r5
 207 0044 02B0     		add	sp, sp, #8
 208              	.LCFI6:
 209              		.cfi_remember_state
 210              		.cfi_def_cfa_offset 16
 211              		@ sp needed
 212 0046 70BD     		pop	{r4, r5, r6, pc}
 213              	.LVL18:
 214              	.L7:
 215              	.LCFI7:
 216              		.cfi_restore_state
 103:Device/Dev_ICM20602.c **** 
 217              		.loc 1 103 16 view .LVU55
 218 0048 0025     		movs	r5, #0
 219 004a FAE7     		b	.L6
 220              	.L8:
 103:Device/Dev_ICM20602.c **** 
 221              		.loc 1 103 16 view .LVU56
 222 004c 0025     		movs	r5, #0
 223 004e F8E7     		b	.L6
 224              	.L9:
ARM GAS  /var/folders/8_/_8bzxkcs1296m80nzxdrn9q80000gn/T//ccHk9u7h.s 			page 7


 225 0050 0025     		movs	r5, #0
 226 0052 F6E7     		b	.L6
 227              		.cfi_endproc
 228              	.LFE3:
 230              		.section	.text.DevICM20602_Reg_Write,"ax",%progbits
 231              		.align	1
 232              		.syntax unified
 233              		.thumb
 234              		.thumb_func
 235              		.fpu fpv5-d16
 237              	DevICM20602_Reg_Write:
 238              	.LVL19:
 239              	.LFB4:
 119:Device/Dev_ICM20602.c **** 
 120:Device/Dev_ICM20602.c **** static bool DevICM20602_Reg_Write(DevICM20602Obj_TypeDef *Obj, uint8_t addr, uint8_t tx)
 121:Device/Dev_ICM20602.c **** {
 240              		.loc 1 121 1 is_stmt 1 view -0
 241              		.cfi_startproc
 242              		@ args = 0, pretend = 0, frame = 8
 243              		@ frame_needed = 0, uses_anonymous_args = 0
 244              		.loc 1 121 1 is_stmt 0 view .LVU58
 245 0000 30B5     		push	{r4, r5, lr}
 246              	.LCFI8:
 247              		.cfi_def_cfa_offset 12
 248              		.cfi_offset 4, -12
 249              		.cfi_offset 5, -8
 250              		.cfi_offset 14, -4
 251 0002 83B0     		sub	sp, sp, #12
 252              	.LCFI9:
 253              		.cfi_def_cfa_offset 24
 122:Device/Dev_ICM20602.c ****     uint8_t Rx_Tmp[2] = {0};
 254              		.loc 1 122 5 is_stmt 1 view .LVU59
 255              		.loc 1 122 13 is_stmt 0 view .LVU60
 256 0004 0023     		movs	r3, #0
 257 0006 ADF80430 		strh	r3, [sp, #4]	@ movhi
 123:Device/Dev_ICM20602.c ****     uint8_t Tx_Tmp[2] = {0};
 258              		.loc 1 123 5 is_stmt 1 view .LVU61
 259              		.loc 1 123 13 is_stmt 0 view .LVU62
 260 000a ADF80030 		strh	r3, [sp]	@ movhi
 124:Device/Dev_ICM20602.c ****     bool state = false;
 261              		.loc 1 124 5 is_stmt 1 view .LVU63
 262              	.LVL20:
 125:Device/Dev_ICM20602.c **** 
 126:Device/Dev_ICM20602.c ****     if (Obj == NULL || Obj->cs_ctl == NULL || Obj->bus_trans == NULL)
 263              		.loc 1 126 5 view .LVU64
 264              		.loc 1 126 8 is_stmt 0 view .LVU65
 265 000e B8B1     		cbz	r0, .L13
 266 0010 0446     		mov	r4, r0
 267              		.loc 1 126 27 discriminator 1 view .LVU66
 268 0012 0368     		ldr	r3, [r0]
 269              		.loc 1 126 21 discriminator 1 view .LVU67
 270 0014 B3B1     		cbz	r3, .L14
 271              		.loc 1 126 50 discriminator 2 view .LVU68
 272 0016 4368     		ldr	r3, [r0, #4]
 273              		.loc 1 126 44 discriminator 2 view .LVU69
 274 0018 B3B1     		cbz	r3, .L15
 127:Device/Dev_ICM20602.c ****         return false;
ARM GAS  /var/folders/8_/_8bzxkcs1296m80nzxdrn9q80000gn/T//ccHk9u7h.s 			page 8


 128:Device/Dev_ICM20602.c **** 
 129:Device/Dev_ICM20602.c ****     Tx_Tmp[0] = addr;
 275              		.loc 1 129 5 is_stmt 1 view .LVU70
 276              		.loc 1 129 15 is_stmt 0 view .LVU71
 277 001a 8DF80010 		strb	r1, [sp]
 130:Device/Dev_ICM20602.c ****     Tx_Tmp[1] = tx;
 278              		.loc 1 130 5 is_stmt 1 view .LVU72
 279              		.loc 1 130 15 is_stmt 0 view .LVU73
 280 001e 8DF80120 		strb	r2, [sp, #1]
 131:Device/Dev_ICM20602.c **** 
 132:Device/Dev_ICM20602.c ****     /* cs low */
 133:Device/Dev_ICM20602.c ****     Obj->cs_ctl(false);
 281              		.loc 1 133 5 is_stmt 1 view .LVU74
 282              		.loc 1 133 8 is_stmt 0 view .LVU75
 283 0022 0368     		ldr	r3, [r0]
 284              		.loc 1 133 5 view .LVU76
 285 0024 0020     		movs	r0, #0
 286              	.LVL21:
 287              		.loc 1 133 5 view .LVU77
 288 0026 9847     		blx	r3
 289              	.LVL22:
 134:Device/Dev_ICM20602.c **** 
 135:Device/Dev_ICM20602.c ****     state = Obj->bus_trans(Tx_Tmp, Rx_Tmp, 2);
 290              		.loc 1 135 5 is_stmt 1 view .LVU78
 291              		.loc 1 135 16 is_stmt 0 view .LVU79
 292 0028 6368     		ldr	r3, [r4, #4]
 293              		.loc 1 135 13 view .LVU80
 294 002a 0222     		movs	r2, #2
 295 002c 01A9     		add	r1, sp, #4
 296 002e 6846     		mov	r0, sp
 297 0030 9847     		blx	r3
 298              	.LVL23:
 299 0032 0546     		mov	r5, r0
 300              	.LVL24:
 136:Device/Dev_ICM20602.c **** 
 137:Device/Dev_ICM20602.c ****     /* cs high */
 138:Device/Dev_ICM20602.c ****     Obj->cs_ctl(true);
 301              		.loc 1 138 5 is_stmt 1 view .LVU81
 302              		.loc 1 138 8 is_stmt 0 view .LVU82
 303 0034 2368     		ldr	r3, [r4]
 304              		.loc 1 138 5 view .LVU83
 305 0036 0120     		movs	r0, #1
 306 0038 9847     		blx	r3
 307              	.LVL25:
 139:Device/Dev_ICM20602.c **** 
 140:Device/Dev_ICM20602.c ****     return state;
 308              		.loc 1 140 5 is_stmt 1 view .LVU84
 309              	.L12:
 141:Device/Dev_ICM20602.c **** }
 310              		.loc 1 141 1 is_stmt 0 view .LVU85
 311 003a 2846     		mov	r0, r5
 312 003c 03B0     		add	sp, sp, #12
 313              	.LCFI10:
 314              		.cfi_remember_state
 315              		.cfi_def_cfa_offset 12
 316              		@ sp needed
 317 003e 30BD     		pop	{r4, r5, pc}
ARM GAS  /var/folders/8_/_8bzxkcs1296m80nzxdrn9q80000gn/T//ccHk9u7h.s 			page 9


 318              	.LVL26:
 319              	.L13:
 320              	.LCFI11:
 321              		.cfi_restore_state
 127:Device/Dev_ICM20602.c **** 
 322              		.loc 1 127 16 view .LVU86
 323 0040 0025     		movs	r5, #0
 324 0042 FAE7     		b	.L12
 325              	.L14:
 127:Device/Dev_ICM20602.c **** 
 326              		.loc 1 127 16 view .LVU87
 327 0044 0025     		movs	r5, #0
 328 0046 F8E7     		b	.L12
 329              	.L15:
 330 0048 0025     		movs	r5, #0
 331 004a F6E7     		b	.L12
 332              		.cfi_endproc
 333              	.LFE4:
 335              		.section	.text.DevICM20602_Config,"ax",%progbits
 336              		.align	1
 337              		.syntax unified
 338              		.thumb
 339              		.thumb_func
 340              		.fpu fpv5-d16
 342              	DevICM20602_Config:
 343              	.LVL27:
 344              	.LFB5:
 142:Device/Dev_ICM20602.c **** 
 143:Device/Dev_ICM20602.c **** static bool DevICM20602_Config(DevICM20602Obj_TypeDef *Obj, 
 144:Device/Dev_ICM20602.c ****                                ICM20602_SampleRate_List rate, 
 145:Device/Dev_ICM20602.c ****                                ICM20602_GyrTrip_List GyrTrip, 
 146:Device/Dev_ICM20602.c ****                                ICM20602_AccTrip_List AccTrip)
 147:Device/Dev_ICM20602.c **** {
 345              		.loc 1 147 1 is_stmt 1 view -0
 346              		.cfi_startproc
 347              		@ args = 0, pretend = 0, frame = 0
 348              		@ frame_needed = 0, uses_anonymous_args = 0
 148:Device/Dev_ICM20602.c ****     if(Obj == NULL)
 349              		.loc 1 148 5 view .LVU89
 350              		.loc 1 148 7 is_stmt 0 view .LVU90
 351 0000 0028     		cmp	r0, #0
 352 0002 65D0     		beq	.L31
 147:Device/Dev_ICM20602.c ****     if(Obj == NULL)
 353              		.loc 1 147 1 view .LVU91
 354 0004 10B5     		push	{r4, lr}
 355              	.LCFI12:
 356              		.cfi_def_cfa_offset 8
 357              		.cfi_offset 4, -8
 358              		.cfi_offset 14, -4
 359 0006 8646     		mov	lr, r0
 149:Device/Dev_ICM20602.c ****         return false;
 150:Device/Dev_ICM20602.c **** 
 151:Device/Dev_ICM20602.c ****     switch ((uint8_t)Obj->rate)
 360              		.loc 1 151 5 is_stmt 1 view .LVU92
 361              		.loc 1 151 25 is_stmt 0 view .LVU93
 362 0008 90F830C0 		ldrb	ip, [r0, #48]	@ zero_extendqisi2
 363 000c BCF1070F 		cmp	ip, #7
ARM GAS  /var/folders/8_/_8bzxkcs1296m80nzxdrn9q80000gn/T//ccHk9u7h.s 			page 10


 364 0010 94BF     		ite	ls
 365 0012 0024     		movls	r4, #0
 366 0014 0124     		movhi	r4, #1
 367 0016 002C     		cmp	r4, #0
 368 0018 5CD1     		bne	.L32
 369 001a 0120     		movs	r0, #1
 370              	.LVL28:
 371              		.loc 1 151 25 view .LVU94
 372 001c 00FA0CF0 		lsl	r0, r0, ip
 373 0020 10F08B0F 		tst	r0, #139
 374 0024 14BF     		ite	ne
 375 0026 0120     		movne	r0, #1
 376 0028 0020     		moveq	r0, #0
 377 002a 38D0     		beq	.L18
 152:Device/Dev_ICM20602.c ****     {
 153:Device/Dev_ICM20602.c ****     case ICM20602_SampleRate_8K:
 154:Device/Dev_ICM20602.c ****     case ICM20602_SampleRate_4K:
 155:Device/Dev_ICM20602.c ****     case ICM20602_SampleRate_2K:
 156:Device/Dev_ICM20602.c ****     case ICM20602_SampleRate_1K:
 157:Device/Dev_ICM20602.c ****         break;
 378              		.loc 1 157 9 is_stmt 1 view .LVU95
 158:Device/Dev_ICM20602.c **** 
 159:Device/Dev_ICM20602.c ****     default:
 160:Device/Dev_ICM20602.c ****         return false;
 161:Device/Dev_ICM20602.c ****     }
 162:Device/Dev_ICM20602.c **** 
 163:Device/Dev_ICM20602.c ****     Obj->rate = rate;
 379              		.loc 1 163 5 view .LVU96
 380              		.loc 1 163 15 is_stmt 0 view .LVU97
 381 002c 8EF83010 		strb	r1, [lr, #48]
 164:Device/Dev_ICM20602.c **** 
 165:Device/Dev_ICM20602.c ****     switch ((uint8_t)AccTrip)
 382              		.loc 1 165 5 is_stmt 1 view .LVU98
 383 0030 032B     		cmp	r3, #3
 384 0032 51D8     		bhi	.L33
 385 0034 DFE803F0 		tbb	[pc, r3]
 386              	.LVL29:
 387              	.L20:
 388 0038 02       		.byte	(.L23-.L20)/2
 389 0039 0F       		.byte	(.L22-.L20)/2
 390 003a 17       		.byte	(.L21-.L20)/2
 391 003b 1F       		.byte	(.L19-.L20)/2
 392              		.p2align 1
 393              	.L23:
 166:Device/Dev_ICM20602.c ****     {
 167:Device/Dev_ICM20602.c ****     case ICM20602_Acc_2G:
 168:Device/Dev_ICM20602.c ****         Obj->acc_scale = ICM20602_ACC_2G_SCALE;
 394              		.loc 1 168 9 view .LVU99
 395              		.loc 1 168 24 is_stmt 0 view .LVU100
 396 003c 4FF08D41 		mov	r1, #1182793728
 397 0040 CEF81810 		str	r1, [lr, #24]	@ float
 169:Device/Dev_ICM20602.c ****         Obj->PHY_AccTrip_Val = 2;
 398              		.loc 1 169 9 is_stmt 1 view .LVU101
 399              		.loc 1 169 30 is_stmt 0 view .LVU102
 400 0044 0221     		movs	r1, #2
 401 0046 8EF81410 		strb	r1, [lr, #20]
 170:Device/Dev_ICM20602.c ****         break;
ARM GAS  /var/folders/8_/_8bzxkcs1296m80nzxdrn9q80000gn/T//ccHk9u7h.s 			page 11


 402              		.loc 1 170 9 is_stmt 1 view .LVU103
 403              	.L24:
 171:Device/Dev_ICM20602.c **** 
 172:Device/Dev_ICM20602.c ****     case ICM20602_Acc_4G:
 173:Device/Dev_ICM20602.c ****         Obj->acc_scale = ICM20602_ACC_4G_SCALE;
 174:Device/Dev_ICM20602.c ****         Obj->PHY_AccTrip_Val = 4;
 175:Device/Dev_ICM20602.c ****         break;
 176:Device/Dev_ICM20602.c **** 
 177:Device/Dev_ICM20602.c ****     case ICM20602_Acc_8G:
 178:Device/Dev_ICM20602.c ****         Obj->acc_scale = ICM20602_ACC_8G_SCALE;
 179:Device/Dev_ICM20602.c ****         Obj->PHY_AccTrip_Val = 8;
 180:Device/Dev_ICM20602.c ****         break;
 181:Device/Dev_ICM20602.c **** 
 182:Device/Dev_ICM20602.c ****     case ICM20602_Acc_16G:
 183:Device/Dev_ICM20602.c ****         Obj->acc_scale = ICM20602_ACC_16G_SCALE;
 184:Device/Dev_ICM20602.c ****         Obj->PHY_AccTrip_Val = 16;
 185:Device/Dev_ICM20602.c ****         break;
 186:Device/Dev_ICM20602.c **** 
 187:Device/Dev_ICM20602.c ****     default:
 188:Device/Dev_ICM20602.c ****         return false;
 189:Device/Dev_ICM20602.c ****     }
 190:Device/Dev_ICM20602.c **** 
 191:Device/Dev_ICM20602.c ****     switch ((uint8_t)GyrTrip)
 404              		.loc 1 191 5 view .LVU104
 405 004a 032A     		cmp	r2, #3
 406 004c 46D8     		bhi	.L34
 407 004e DFE802F0 		tbb	[pc, r2]
 408              	.L26:
 409 0052 1A       		.byte	(.L29-.L26)/2
 410 0053 27       		.byte	(.L28-.L26)/2
 411 0054 2F       		.byte	(.L27-.L26)/2
 412 0055 37       		.byte	(.L25-.L26)/2
 413              		.p2align 1
 414              	.L22:
 173:Device/Dev_ICM20602.c ****         Obj->PHY_AccTrip_Val = 4;
 415              		.loc 1 173 9 view .LVU105
 173:Device/Dev_ICM20602.c ****         Obj->PHY_AccTrip_Val = 4;
 416              		.loc 1 173 24 is_stmt 0 view .LVU106
 417 0056 4FF08C41 		mov	r1, #1174405120
 418 005a CEF81810 		str	r1, [lr, #24]	@ float
 174:Device/Dev_ICM20602.c ****         break;
 419              		.loc 1 174 9 is_stmt 1 view .LVU107
 174:Device/Dev_ICM20602.c ****         break;
 420              		.loc 1 174 30 is_stmt 0 view .LVU108
 421 005e 0421     		movs	r1, #4
 422 0060 8EF81410 		strb	r1, [lr, #20]
 175:Device/Dev_ICM20602.c **** 
 423              		.loc 1 175 9 is_stmt 1 view .LVU109
 424 0064 F1E7     		b	.L24
 425              	.L21:
 178:Device/Dev_ICM20602.c ****         Obj->PHY_AccTrip_Val = 8;
 426              		.loc 1 178 9 view .LVU110
 178:Device/Dev_ICM20602.c ****         Obj->PHY_AccTrip_Val = 8;
 427              		.loc 1 178 24 is_stmt 0 view .LVU111
 428 0066 4FF08B41 		mov	r1, #1166016512
 429 006a CEF81810 		str	r1, [lr, #24]	@ float
 179:Device/Dev_ICM20602.c ****         break;
ARM GAS  /var/folders/8_/_8bzxkcs1296m80nzxdrn9q80000gn/T//ccHk9u7h.s 			page 12


 430              		.loc 1 179 9 is_stmt 1 view .LVU112
 179:Device/Dev_ICM20602.c ****         break;
 431              		.loc 1 179 30 is_stmt 0 view .LVU113
 432 006e 0821     		movs	r1, #8
 433 0070 8EF81410 		strb	r1, [lr, #20]
 180:Device/Dev_ICM20602.c **** 
 434              		.loc 1 180 9 is_stmt 1 view .LVU114
 435 0074 E9E7     		b	.L24
 436              	.L19:
 183:Device/Dev_ICM20602.c ****         Obj->PHY_AccTrip_Val = 16;
 437              		.loc 1 183 9 view .LVU115
 183:Device/Dev_ICM20602.c ****         Obj->PHY_AccTrip_Val = 16;
 438              		.loc 1 183 24 is_stmt 0 view .LVU116
 439 0076 4FF08A41 		mov	r1, #1157627904
 440 007a CEF81810 		str	r1, [lr, #24]	@ float
 184:Device/Dev_ICM20602.c ****         break;
 441              		.loc 1 184 9 is_stmt 1 view .LVU117
 184:Device/Dev_ICM20602.c ****         break;
 442              		.loc 1 184 30 is_stmt 0 view .LVU118
 443 007e 1021     		movs	r1, #16
 444 0080 8EF81410 		strb	r1, [lr, #20]
 185:Device/Dev_ICM20602.c **** 
 445              		.loc 1 185 9 is_stmt 1 view .LVU119
 446 0084 E1E7     		b	.L24
 447              	.L29:
 192:Device/Dev_ICM20602.c ****     {
 193:Device/Dev_ICM20602.c ****     case ICM20602_Gyr_250DPS:
 194:Device/Dev_ICM20602.c ****         Obj->gyr_scale = ICM20602_GYR_250DPS_SCALE;
 448              		.loc 1 194 9 view .LVU120
 449              		.loc 1 194 24 is_stmt 0 view .LVU121
 450 0086 1649     		ldr	r1, .L39
 451 0088 CEF81C10 		str	r1, [lr, #28]	@ float
 195:Device/Dev_ICM20602.c ****         Obj->PHY_GyrTrip_Val = 250;
 452              		.loc 1 195 9 is_stmt 1 view .LVU122
 453              		.loc 1 195 30 is_stmt 0 view .LVU123
 454 008c FA21     		movs	r1, #250
 455 008e AEF81610 		strh	r1, [lr, #22]	@ movhi
 196:Device/Dev_ICM20602.c ****         break;
 456              		.loc 1 196 9 is_stmt 1 view .LVU124
 457              	.L30:
 197:Device/Dev_ICM20602.c **** 
 198:Device/Dev_ICM20602.c ****     case ICM20602_Gyr_500DPS:
 199:Device/Dev_ICM20602.c ****         Obj->gyr_scale = ICM20602_GYR_500DPS_SCALE;
 200:Device/Dev_ICM20602.c ****         Obj->PHY_GyrTrip_Val = 500;
 201:Device/Dev_ICM20602.c ****         break;
 202:Device/Dev_ICM20602.c **** 
 203:Device/Dev_ICM20602.c ****     case ICM20602_Gyr_1000DPS:
 204:Device/Dev_ICM20602.c ****         Obj->gyr_scale = ICM20602_GYR_1000DPS_SCALE;
 205:Device/Dev_ICM20602.c ****         Obj->PHY_GyrTrip_Val = 1000;
 206:Device/Dev_ICM20602.c ****         break;
 207:Device/Dev_ICM20602.c **** 
 208:Device/Dev_ICM20602.c ****     case ICM20602_Gyr_2000DPS:
 209:Device/Dev_ICM20602.c ****         Obj->gyr_scale = ICM20602_GYR_2000DPS_SCALE;
 210:Device/Dev_ICM20602.c ****         Obj->PHY_GyrTrip_Val = 2000;
 211:Device/Dev_ICM20602.c ****         break;
 212:Device/Dev_ICM20602.c **** 
 213:Device/Dev_ICM20602.c ****     default:
ARM GAS  /var/folders/8_/_8bzxkcs1296m80nzxdrn9q80000gn/T//ccHk9u7h.s 			page 13


 214:Device/Dev_ICM20602.c ****         return false;
 215:Device/Dev_ICM20602.c ****     }
 216:Device/Dev_ICM20602.c **** 
 217:Device/Dev_ICM20602.c ****     // set Trip Reg val
 218:Device/Dev_ICM20602.c ****     Obj->AccTrip = ConvertToICM20602Trip_Reg(AccTrip);
 458              		.loc 1 218 5 view .LVU125
 459              		.loc 1 218 20 is_stmt 0 view .LVU126
 460 0092 DB00     		lsls	r3, r3, #3
 461              	.LVL30:
 462              		.loc 1 218 18 view .LVU127
 463 0094 8EF81230 		strb	r3, [lr, #18]
 219:Device/Dev_ICM20602.c ****     Obj->GyrTrip = ConvertToICM20602Trip_Reg(GyrTrip);
 464              		.loc 1 219 5 is_stmt 1 view .LVU128
 465              		.loc 1 219 20 is_stmt 0 view .LVU129
 466 0098 D200     		lsls	r2, r2, #3
 467              	.LVL31:
 468              		.loc 1 219 18 view .LVU130
 469 009a 8EF81320 		strb	r2, [lr, #19]
 220:Device/Dev_ICM20602.c **** 
 221:Device/Dev_ICM20602.c ****     return true;
 470              		.loc 1 221 5 is_stmt 1 view .LVU131
 471              	.LVL32:
 472              	.L18:
 222:Device/Dev_ICM20602.c **** }
 473              		.loc 1 222 1 is_stmt 0 view .LVU132
 474 009e 10BD     		pop	{r4, pc}
 475              	.LVL33:
 476              	.L28:
 199:Device/Dev_ICM20602.c ****         Obj->PHY_GyrTrip_Val = 500;
 477              		.loc 1 199 9 is_stmt 1 view .LVU133
 199:Device/Dev_ICM20602.c ****         Obj->PHY_GyrTrip_Val = 500;
 478              		.loc 1 199 24 is_stmt 0 view .LVU134
 479 00a0 1049     		ldr	r1, .L39+4
 480 00a2 CEF81C10 		str	r1, [lr, #28]	@ float
 200:Device/Dev_ICM20602.c ****         break;
 481              		.loc 1 200 9 is_stmt 1 view .LVU135
 200:Device/Dev_ICM20602.c ****         break;
 482              		.loc 1 200 30 is_stmt 0 view .LVU136
 483 00a6 4FF4FA71 		mov	r1, #500
 484 00aa AEF81610 		strh	r1, [lr, #22]	@ movhi
 201:Device/Dev_ICM20602.c **** 
 485              		.loc 1 201 9 is_stmt 1 view .LVU137
 486 00ae F0E7     		b	.L30
 487              	.L27:
 204:Device/Dev_ICM20602.c ****         Obj->PHY_GyrTrip_Val = 1000;
 488              		.loc 1 204 9 view .LVU138
 204:Device/Dev_ICM20602.c ****         Obj->PHY_GyrTrip_Val = 1000;
 489              		.loc 1 204 24 is_stmt 0 view .LVU139
 490 00b0 0D49     		ldr	r1, .L39+8
 491 00b2 CEF81C10 		str	r1, [lr, #28]	@ float
 205:Device/Dev_ICM20602.c ****         break;
 492              		.loc 1 205 9 is_stmt 1 view .LVU140
 205:Device/Dev_ICM20602.c ****         break;
 493              		.loc 1 205 30 is_stmt 0 view .LVU141
 494 00b6 4FF47A71 		mov	r1, #1000
 495 00ba AEF81610 		strh	r1, [lr, #22]	@ movhi
 206:Device/Dev_ICM20602.c **** 
ARM GAS  /var/folders/8_/_8bzxkcs1296m80nzxdrn9q80000gn/T//ccHk9u7h.s 			page 14


 496              		.loc 1 206 9 is_stmt 1 view .LVU142
 497 00be E8E7     		b	.L30
 498              	.L25:
 209:Device/Dev_ICM20602.c ****         Obj->PHY_GyrTrip_Val = 2000;
 499              		.loc 1 209 9 view .LVU143
 209:Device/Dev_ICM20602.c ****         Obj->PHY_GyrTrip_Val = 2000;
 500              		.loc 1 209 24 is_stmt 0 view .LVU144
 501 00c0 0A49     		ldr	r1, .L39+12
 502 00c2 CEF81C10 		str	r1, [lr, #28]	@ float
 210:Device/Dev_ICM20602.c ****         break;
 503              		.loc 1 210 9 is_stmt 1 view .LVU145
 210:Device/Dev_ICM20602.c ****         break;
 504              		.loc 1 210 30 is_stmt 0 view .LVU146
 505 00c6 4FF4FA61 		mov	r1, #2000
 506 00ca AEF81610 		strh	r1, [lr, #22]	@ movhi
 211:Device/Dev_ICM20602.c **** 
 507              		.loc 1 211 9 is_stmt 1 view .LVU147
 508 00ce E0E7     		b	.L30
 509              	.LVL34:
 510              	.L31:
 511              	.LCFI13:
 512              		.cfi_def_cfa_offset 0
 513              		.cfi_restore 4
 514              		.cfi_restore 14
 149:Device/Dev_ICM20602.c **** 
 515              		.loc 1 149 16 is_stmt 0 view .LVU148
 516 00d0 0020     		movs	r0, #0
 517              	.LVL35:
 518              		.loc 1 222 1 view .LVU149
 519 00d2 7047     		bx	lr
 520              	.LVL36:
 521              	.L32:
 522              	.LCFI14:
 523              		.cfi_def_cfa_offset 8
 524              		.cfi_offset 4, -8
 525              		.cfi_offset 14, -4
 151:Device/Dev_ICM20602.c ****     {
 526              		.loc 1 151 25 view .LVU150
 527 00d4 0020     		movs	r0, #0
 528              	.LVL37:
 151:Device/Dev_ICM20602.c ****     {
 529              		.loc 1 151 25 view .LVU151
 530 00d6 E2E7     		b	.L18
 531              	.LVL38:
 532              	.L33:
 165:Device/Dev_ICM20602.c ****     {
 533              		.loc 1 165 5 view .LVU152
 534 00d8 2046     		mov	r0, r4
 535 00da E0E7     		b	.L18
 536              	.L34:
 191:Device/Dev_ICM20602.c ****     {
 537              		.loc 1 191 5 view .LVU153
 538 00dc 2046     		mov	r0, r4
 539 00de DEE7     		b	.L18
 540              	.L40:
 541              		.align	2
 542              	.L39:
ARM GAS  /var/folders/8_/_8bzxkcs1296m80nzxdrn9q80000gn/T//ccHk9u7h.s 			page 15


 543 00e0 00000343 		.word	1124270080
 544 00e4 00008342 		.word	1115881472
 545 00e8 33330342 		.word	1107505971
 546 00ec 33338341 		.word	1099117363
 547              		.cfi_endproc
 548              	.LFE5:
 550              		.section	.text.DevICM20602_PreInit,"ax",%progbits
 551              		.align	1
 552              		.syntax unified
 553              		.thumb
 554              		.thumb_func
 555              		.fpu fpv5-d16
 557              	DevICM20602_PreInit:
 558              	.LVL39:
 559              	.LFB6:
 223:Device/Dev_ICM20602.c **** 
 224:Device/Dev_ICM20602.c **** static void DevICM20602_PreInit(DevICM20602Obj_TypeDef *Obj,
 225:Device/Dev_ICM20602.c ****                                 cs_ctl_callback cs_ctl,
 226:Device/Dev_ICM20602.c ****                                 bus_trans_callback bus_trans,
 227:Device/Dev_ICM20602.c ****                                 delay_callback delay,
 228:Device/Dev_ICM20602.c ****                                 get_time_stamp_callback get_time_stamp)
 229:Device/Dev_ICM20602.c **** {
 560              		.loc 1 229 1 is_stmt 1 view -0
 561              		.cfi_startproc
 562              		@ args = 4, pretend = 0, frame = 0
 563              		@ frame_needed = 0, uses_anonymous_args = 0
 564              		@ link register save eliminated.
 230:Device/Dev_ICM20602.c ****     Obj->cs_ctl = cs_ctl;
 565              		.loc 1 230 5 view .LVU155
 566              		.loc 1 230 17 is_stmt 0 view .LVU156
 567 0000 0160     		str	r1, [r0]
 231:Device/Dev_ICM20602.c ****     Obj->bus_trans = bus_trans;
 568              		.loc 1 231 5 is_stmt 1 view .LVU157
 569              		.loc 1 231 20 is_stmt 0 view .LVU158
 570 0002 4260     		str	r2, [r0, #4]
 232:Device/Dev_ICM20602.c ****     Obj->delay = delay;
 571              		.loc 1 232 5 is_stmt 1 view .LVU159
 572              		.loc 1 232 16 is_stmt 0 view .LVU160
 573 0004 8360     		str	r3, [r0, #8]
 233:Device/Dev_ICM20602.c ****     Obj->get_timestamp = get_time_stamp;
 574              		.loc 1 233 5 is_stmt 1 view .LVU161
 575              		.loc 1 233 24 is_stmt 0 view .LVU162
 576 0006 009B     		ldr	r3, [sp]
 577              	.LVL40:
 578              		.loc 1 233 24 view .LVU163
 579 0008 C360     		str	r3, [r0, #12]
 234:Device/Dev_ICM20602.c **** }
 580              		.loc 1 234 1 view .LVU164
 581 000a 7047     		bx	lr
 582              		.cfi_endproc
 583              	.LFE6:
 585              		.section	.text.DevICM20602_SetDRDY,"ax",%progbits
 586              		.align	1
 587              		.syntax unified
 588              		.thumb
 589              		.thumb_func
 590              		.fpu fpv5-d16
ARM GAS  /var/folders/8_/_8bzxkcs1296m80nzxdrn9q80000gn/T//ccHk9u7h.s 			page 16


 592              	DevICM20602_SetDRDY:
 593              	.LVL41:
 594              	.LFB8:
 235:Device/Dev_ICM20602.c **** 
 236:Device/Dev_ICM20602.c **** static bool DevICM20602_Init(DevICM20602Obj_TypeDef *Obj)
 237:Device/Dev_ICM20602.c **** {
 238:Device/Dev_ICM20602.c ****     uint8_t read_out = 0;
 239:Device/Dev_ICM20602.c **** 
 240:Device/Dev_ICM20602.c ****     if ((Obj == NULL) ||
 241:Device/Dev_ICM20602.c ****         (Obj->bus_trans == NULL) ||
 242:Device/Dev_ICM20602.c ****         (Obj->cs_ctl == NULL))
 243:Device/Dev_ICM20602.c ****     {
 244:Device/Dev_ICM20602.c ****         IMUData_SetError(&(Obj->error), ICM20602_Obj_Error, __FUNCTION__, __LINE__, 0, 0, 0);
 245:Device/Dev_ICM20602.c ****         return false;
 246:Device/Dev_ICM20602.c ****     }
 247:Device/Dev_ICM20602.c **** 
 248:Device/Dev_ICM20602.c ****     /* reset device */
 249:Device/Dev_ICM20602.c ****     if (!DevICM20602_SwReset(Obj))
 250:Device/Dev_ICM20602.c ****     {
 251:Device/Dev_ICM20602.c ****         IMUData_SetError(&(Obj->error), ICM20602_Reset_Error, __FUNCTION__, __LINE__, 0, 0, 0);
 252:Device/Dev_ICM20602.c ****         return false;
 253:Device/Dev_ICM20602.c ****     }
 254:Device/Dev_ICM20602.c **** 
 255:Device/Dev_ICM20602.c ****     DevICM20602_Reg_Read(Obj, ICM20602_WHO_AM_I, &read_out);
 256:Device/Dev_ICM20602.c ****     Obj->delay(10);
 257:Device/Dev_ICM20602.c **** 
 258:Device/Dev_ICM20602.c ****     if (read_out != ICM20602_DEV_ID)
 259:Device/Dev_ICM20602.c ****     {
 260:Device/Dev_ICM20602.c ****         IMUData_SetError(&(Obj->error), ICM20602_DevID_Error, __FUNCTION__, __LINE__, ICM20602_WHO_
 261:Device/Dev_ICM20602.c ****         return false;
 262:Device/Dev_ICM20602.c ****     }
 263:Device/Dev_ICM20602.c **** 
 264:Device/Dev_ICM20602.c ****     /* set oscillator clock */
 265:Device/Dev_ICM20602.c ****     DevICM20602_Reg_Write(Obj, ICM20602_PWR_MGMT_1, 0x01);
 266:Device/Dev_ICM20602.c ****     Obj->delay(10);
 267:Device/Dev_ICM20602.c **** 
 268:Device/Dev_ICM20602.c ****     DevICM20602_Reg_Read(Obj, ICM20602_PWR_MGMT_1, &read_out);
 269:Device/Dev_ICM20602.c ****     if (read_out != 0x01)
 270:Device/Dev_ICM20602.c ****     {
 271:Device/Dev_ICM20602.c ****         IMUData_SetError(&(Obj->error), ICM20602_OSC_Error, __FUNCTION__, __LINE__, ICM20602_PWR_MG
 272:Device/Dev_ICM20602.c ****         return false;
 273:Device/Dev_ICM20602.c ****     }
 274:Device/Dev_ICM20602.c **** 
 275:Device/Dev_ICM20602.c ****     /* enable gyro and acc */
 276:Device/Dev_ICM20602.c ****     DevICM20602_Reg_Write(Obj, ICM20602_PWR_MGMT_2, 0x00);
 277:Device/Dev_ICM20602.c ****     Obj->delay(10);
 278:Device/Dev_ICM20602.c **** 
 279:Device/Dev_ICM20602.c ****     DevICM20602_Reg_Read(Obj, ICM20602_PWR_MGMT_2, &read_out);
 280:Device/Dev_ICM20602.c ****     if (read_out != 0x00)
 281:Device/Dev_ICM20602.c ****     {
 282:Device/Dev_ICM20602.c ****         IMUData_SetError(&(Obj->error), ICM20602_InertialEnable_Error, __FUNCTION__, __LINE__, ICM2
 283:Device/Dev_ICM20602.c ****         return false;
 284:Device/Dev_ICM20602.c ****     }
 285:Device/Dev_ICM20602.c **** 
 286:Device/Dev_ICM20602.c ****     /* disable iic interface */
 287:Device/Dev_ICM20602.c ****     DevICM20602_Reg_Write(Obj, ICM20602_I2C_IF, 0x40);
 288:Device/Dev_ICM20602.c ****     Obj->delay(10);
ARM GAS  /var/folders/8_/_8bzxkcs1296m80nzxdrn9q80000gn/T//ccHk9u7h.s 			page 17


 289:Device/Dev_ICM20602.c **** 
 290:Device/Dev_ICM20602.c ****     DevICM20602_Reg_Read(Obj, ICM20602_I2C_IF, &read_out);
 291:Device/Dev_ICM20602.c ****     if (read_out != 0x40)
 292:Device/Dev_ICM20602.c ****     {
 293:Device/Dev_ICM20602.c ****         IMUData_SetError(&(Obj->error), ICM20602_InterfaceSet_Error, __FUNCTION__, __LINE__, ICM206
 294:Device/Dev_ICM20602.c ****         return false;
 295:Device/Dev_ICM20602.c ****     }
 296:Device/Dev_ICM20602.c **** 
 297:Device/Dev_ICM20602.c ****     /* set sample rate */
 298:Device/Dev_ICM20602.c ****     DevICM20602_Reg_Write(Obj, ICM20602_SMPLRT_DIV, Obj->rate);
 299:Device/Dev_ICM20602.c ****     Obj->delay(10);
 300:Device/Dev_ICM20602.c **** 
 301:Device/Dev_ICM20602.c ****     DevICM20602_Reg_Read(Obj, ICM20602_SMPLRT_DIV, &read_out);
 302:Device/Dev_ICM20602.c ****     if (read_out != Obj->rate)
 303:Device/Dev_ICM20602.c ****     {
 304:Device/Dev_ICM20602.c ****         IMUData_SetError(&(Obj->error), ICM20602_RateSet_Error, __FUNCTION__, __LINE__, ICM20602_SM
 305:Device/Dev_ICM20602.c ****         return false;
 306:Device/Dev_ICM20602.c ****     }
 307:Device/Dev_ICM20602.c **** 
 308:Device/Dev_ICM20602.c ****     /* set acc trip */
 309:Device/Dev_ICM20602.c ****     DevICM20602_Reg_Write(Obj, ICM20602_ACCEL_CONFIG, Obj->AccTrip);
 310:Device/Dev_ICM20602.c ****     Obj->delay(10);
 311:Device/Dev_ICM20602.c **** 
 312:Device/Dev_ICM20602.c ****     DevICM20602_Reg_Read(Obj, ICM20602_ACCEL_CONFIG, &read_out);
 313:Device/Dev_ICM20602.c ****     if (read_out != Obj->AccTrip)
 314:Device/Dev_ICM20602.c ****     {
 315:Device/Dev_ICM20602.c ****         IMUData_SetError(&(Obj->error), ICM20602_AccSet_Error, __FUNCTION__, __LINE__, ICM20602_ACC
 316:Device/Dev_ICM20602.c ****         return false;
 317:Device/Dev_ICM20602.c ****     }
 318:Device/Dev_ICM20602.c **** 
 319:Device/Dev_ICM20602.c ****     /* set gyr trip */
 320:Device/Dev_ICM20602.c ****     DevICM20602_Reg_Write(Obj, ICM20602_GYRO_CONFIG, Obj->GyrTrip);
 321:Device/Dev_ICM20602.c ****     Obj->delay(10);
 322:Device/Dev_ICM20602.c **** 
 323:Device/Dev_ICM20602.c ****     DevICM20602_Reg_Read(Obj, ICM20602_GYRO_CONFIG, &read_out);
 324:Device/Dev_ICM20602.c ****     if (read_out != Obj->GyrTrip)
 325:Device/Dev_ICM20602.c ****     {
 326:Device/Dev_ICM20602.c ****         IMUData_SetError(&(Obj->error), ICM20602_GyrSet_Error, __FUNCTION__, __LINE__, ICM20602_GYR
 327:Device/Dev_ICM20602.c ****         return false;
 328:Device/Dev_ICM20602.c ****     }
 329:Device/Dev_ICM20602.c **** 
 330:Device/Dev_ICM20602.c ****     /* enable odr int output */
 331:Device/Dev_ICM20602.c ****     DevICM20602_Reg_Write(Obj, ICM20602_INT_PIN_CFG, 0x60);
 332:Device/Dev_ICM20602.c ****     Obj->delay(10);
 333:Device/Dev_ICM20602.c **** 
 334:Device/Dev_ICM20602.c ****     DevICM20602_Reg_Read(Obj, ICM20602_INT_PIN_CFG, &read_out);
 335:Device/Dev_ICM20602.c ****     if (read_out != 0x60)
 336:Device/Dev_ICM20602.c ****     {
 337:Device/Dev_ICM20602.c ****         IMUData_SetError(&(Obj->error), ICM20602_IntPinSet_Error, __FUNCTION__, __LINE__, ICM20602_
 338:Device/Dev_ICM20602.c ****         return false;
 339:Device/Dev_ICM20602.c ****     }
 340:Device/Dev_ICM20602.c **** 
 341:Device/Dev_ICM20602.c ****     IMUData_SetError(&(Obj->error), ICM20602_No_Error, "", 0, 0, 0, 0);
 342:Device/Dev_ICM20602.c ****     return true;
 343:Device/Dev_ICM20602.c **** }
 344:Device/Dev_ICM20602.c **** 
 345:Device/Dev_ICM20602.c **** static void DevICM20602_SetDRDY(DevICM20602Obj_TypeDef *Obj)
ARM GAS  /var/folders/8_/_8bzxkcs1296m80nzxdrn9q80000gn/T//ccHk9u7h.s 			page 18


 346:Device/Dev_ICM20602.c **** {
 595              		.loc 1 346 1 is_stmt 1 view -0
 596              		.cfi_startproc
 597              		@ args = 0, pretend = 0, frame = 0
 598              		@ frame_needed = 0, uses_anonymous_args = 0
 599              		@ link register save eliminated.
 347:Device/Dev_ICM20602.c ****     if(Obj)
 600              		.loc 1 347 5 view .LVU166
 601              		.loc 1 347 7 is_stmt 0 view .LVU167
 602 0000 08B1     		cbz	r0, .L42
 348:Device/Dev_ICM20602.c ****         Obj->drdy = true;
 603              		.loc 1 348 9 is_stmt 1 view .LVU168
 604              		.loc 1 348 19 is_stmt 0 view .LVU169
 605 0002 0122     		movs	r2, #1
 606 0004 0274     		strb	r2, [r0, #16]
 607              	.L42:
 349:Device/Dev_ICM20602.c **** }
 608              		.loc 1 349 1 view .LVU170
 609 0006 7047     		bx	lr
 610              		.cfi_endproc
 611              	.LFE8:
 613              		.section	.text.DevICM20602_SwReset,"ax",%progbits
 614              		.align	1
 615              		.syntax unified
 616              		.thumb
 617              		.thumb_func
 618              		.fpu fpv5-d16
 620              	DevICM20602_SwReset:
 621              	.LVL42:
 622              	.LFB9:
 350:Device/Dev_ICM20602.c **** 
 351:Device/Dev_ICM20602.c **** static bool DevICM20602_SwReset(DevICM20602Obj_TypeDef *Obj)
 352:Device/Dev_ICM20602.c **** {
 623              		.loc 1 352 1 is_stmt 1 view -0
 624              		.cfi_startproc
 625              		@ args = 0, pretend = 0, frame = 0
 626              		@ frame_needed = 0, uses_anonymous_args = 0
 627              		.loc 1 352 1 is_stmt 0 view .LVU172
 628 0000 10B5     		push	{r4, lr}
 629              	.LCFI15:
 630              		.cfi_def_cfa_offset 8
 631              		.cfi_offset 4, -8
 632              		.cfi_offset 14, -4
 633 0002 0446     		mov	r4, r0
 353:Device/Dev_ICM20602.c ****     uint8_t read_out = 0;
 634              		.loc 1 353 5 is_stmt 1 view .LVU173
 635              	.LVL43:
 354:Device/Dev_ICM20602.c ****     uint64_t reset_UsRt = 0;
 636              		.loc 1 354 5 view .LVU174
 355:Device/Dev_ICM20602.c **** 
 356:Device/Dev_ICM20602.c ****     DevICM20602_Reg_Write(Obj, ICM20602_PWR_MGMT_1, ICM20602_RESET_CMD);
 637              		.loc 1 356 5 view .LVU175
 638 0004 8022     		movs	r2, #128
 639 0006 6B21     		movs	r1, #107
 640 0008 FFF7FEFF 		bl	DevICM20602_Reg_Write
 641              	.LVL44:
 357:Device/Dev_ICM20602.c ****     Obj->delay(20);
ARM GAS  /var/folders/8_/_8bzxkcs1296m80nzxdrn9q80000gn/T//ccHk9u7h.s 			page 19


 642              		.loc 1 357 5 view .LVU176
 643              		.loc 1 357 8 is_stmt 0 view .LVU177
 644 000c A368     		ldr	r3, [r4, #8]
 645              		.loc 1 357 5 view .LVU178
 646 000e 1420     		movs	r0, #20
 647 0010 9847     		blx	r3
 648              	.LVL45:
 358:Device/Dev_ICM20602.c ****     reset_UsRt = Obj->get_timestamp();
 649              		.loc 1 358 5 is_stmt 1 view .LVU179
 650              		.loc 1 358 21 is_stmt 0 view .LVU180
 651 0012 E368     		ldr	r3, [r4, #12]
 652              		.loc 1 358 18 view .LVU181
 653 0014 9847     		blx	r3
 654              	.LVL46:
 359:Device/Dev_ICM20602.c **** 
 360:Device/Dev_ICM20602.c ****     // do
 361:Device/Dev_ICM20602.c ****     // {
 362:Device/Dev_ICM20602.c ****     //     if ((Obj->get_timestamp() - reset_UsRt) >= ICM20602_RESET_TIMEOUT)
 363:Device/Dev_ICM20602.c ****     //         return false;
 364:Device/Dev_ICM20602.c **** 
 365:Device/Dev_ICM20602.c ****     //     DevICM20602_Reg_Read(Obj, ICM20602_PWR_MGMT_1, &read_out);
 366:Device/Dev_ICM20602.c ****     // } while (ICM20602_RESET_SUCCESS != read_out);
 367:Device/Dev_ICM20602.c **** 
 368:Device/Dev_ICM20602.c ****     return true;
 655              		.loc 1 368 5 is_stmt 1 view .LVU182
 369:Device/Dev_ICM20602.c **** }
 656              		.loc 1 369 1 is_stmt 0 view .LVU183
 657 0016 0120     		movs	r0, #1
 658 0018 10BD     		pop	{r4, pc}
 659              		.loc 1 369 1 view .LVU184
 660              		.cfi_endproc
 661              	.LFE9:
 663              		.section	.rodata.DevICM20602_Init.str1.4,"aMS",%progbits,1
 664              		.align	2
 665              	.LC0:
 666 0000 00       		.ascii	"\000"
 667              		.section	.text.DevICM20602_Init,"ax",%progbits
 668              		.align	1
 669              		.syntax unified
 670              		.thumb
 671              		.thumb_func
 672              		.fpu fpv5-d16
 674              	DevICM20602_Init:
 675              	.LVL47:
 676              	.LFB7:
 237:Device/Dev_ICM20602.c ****     uint8_t read_out = 0;
 677              		.loc 1 237 1 is_stmt 1 view -0
 678              		.cfi_startproc
 679              		@ args = 0, pretend = 0, frame = 8
 680              		@ frame_needed = 0, uses_anonymous_args = 0
 237:Device/Dev_ICM20602.c ****     uint8_t read_out = 0;
 681              		.loc 1 237 1 is_stmt 0 view .LVU186
 682 0000 30B5     		push	{r4, r5, lr}
 683              	.LCFI16:
 684              		.cfi_def_cfa_offset 12
 685              		.cfi_offset 4, -12
 686              		.cfi_offset 5, -8
ARM GAS  /var/folders/8_/_8bzxkcs1296m80nzxdrn9q80000gn/T//ccHk9u7h.s 			page 20


 687              		.cfi_offset 14, -4
 688 0002 83B0     		sub	sp, sp, #12
 689              	.LCFI17:
 690              		.cfi_def_cfa_offset 24
 238:Device/Dev_ICM20602.c **** 
 691              		.loc 1 238 5 is_stmt 1 view .LVU187
 238:Device/Dev_ICM20602.c **** 
 692              		.loc 1 238 13 is_stmt 0 view .LVU188
 693 0004 0023     		movs	r3, #0
 694 0006 8DF80730 		strb	r3, [sp, #7]
 240:Device/Dev_ICM20602.c ****         (Obj->bus_trans == NULL) ||
 695              		.loc 1 240 5 is_stmt 1 view .LVU189
 240:Device/Dev_ICM20602.c ****         (Obj->bus_trans == NULL) ||
 696              		.loc 1 240 8 is_stmt 0 view .LVU190
 697 000a 0446     		mov	r4, r0
 698 000c C8B1     		cbz	r0, .L47
 241:Device/Dev_ICM20602.c ****         (Obj->cs_ctl == NULL))
 699              		.loc 1 241 13 discriminator 1 view .LVU191
 700 000e 4368     		ldr	r3, [r0, #4]
 240:Device/Dev_ICM20602.c ****         (Obj->bus_trans == NULL) ||
 701              		.loc 1 240 23 discriminator 1 view .LVU192
 702 0010 BBB1     		cbz	r3, .L47
 242:Device/Dev_ICM20602.c ****     {
 703              		.loc 1 242 13 view .LVU193
 704 0012 0368     		ldr	r3, [r0]
 241:Device/Dev_ICM20602.c ****         (Obj->cs_ctl == NULL))
 705              		.loc 1 241 34 view .LVU194
 706 0014 ABB1     		cbz	r3, .L47
 249:Device/Dev_ICM20602.c ****     {
 707              		.loc 1 249 5 is_stmt 1 view .LVU195
 249:Device/Dev_ICM20602.c ****     {
 708              		.loc 1 249 10 is_stmt 0 view .LVU196
 709 0016 FFF7FEFF 		bl	DevICM20602_SwReset
 710              	.LVL48:
 249:Device/Dev_ICM20602.c ****     {
 711              		.loc 1 249 8 view .LVU197
 712 001a 0546     		mov	r5, r0
 713 001c 30BB     		cbnz	r0, .L51
 251:Device/Dev_ICM20602.c ****         return false;
 714              		.loc 1 251 9 is_stmt 1 view .LVU198
 715              	.LVL49:
 716              	.LBB24:
 717              	.LBI24:
 718              		.file 2 "Service/imu_data.h"
   1:Service/imu_data.h **** #ifndef __IMU_DATA_H
   2:Service/imu_data.h **** #define __IMU_DATA_H
   3:Service/imu_data.h **** 
   4:Service/imu_data.h **** #include <stdbool.h>
   5:Service/imu_data.h **** #include <stdint.h>
   6:Service/imu_data.h **** #include <string.h>
   7:Service/imu_data.h **** 
   8:Service/imu_data.h **** /*
   9:Service/imu_data.h ****  *  CNT 100 in 2K Sample Frequence is about keeping 50Ms abnormality data
  10:Service/imu_data.h ****  */
  11:Service/imu_data.h **** #define IMU_BLUNT_SAMPLE_CNT 100
  12:Service/imu_data.h **** 
  13:Service/imu_data.h **** typedef void (*cs_ctl_callback)(bool state);
ARM GAS  /var/folders/8_/_8bzxkcs1296m80nzxdrn9q80000gn/T//ccHk9u7h.s 			page 21


  14:Service/imu_data.h **** typedef bool (*bus_trans_callback)(uint8_t *tx, uint8_t *rx, uint16_t len);
  15:Service/imu_data.h **** typedef void (*delay_callback)(uint32_t ms);
  16:Service/imu_data.h **** typedef uint64_t (*get_time_stamp_callback)(void);
  17:Service/imu_data.h **** 
  18:Service/imu_data.h **** typedef enum
  19:Service/imu_data.h **** {
  20:Service/imu_data.h ****     Axis_X = 0,
  21:Service/imu_data.h ****     Axis_Y,
  22:Service/imu_data.h ****     Axis_Z,
  23:Service/imu_data.h ****     Axis_Sum,
  24:Service/imu_data.h **** } Axis_List;
  25:Service/imu_data.h **** 
  26:Service/imu_data.h **** #pragma pack(1)
  27:Service/imu_data.h **** typedef struct
  28:Service/imu_data.h **** {
  29:Service/imu_data.h ****     uint64_t time_stamp;
  30:Service/imu_data.h ****     uint64_t cycle_cnt;
  31:Service/imu_data.h **** 
  32:Service/imu_data.h ****     int16_t temp_int;
  33:Service/imu_data.h ****     int16_t gyr_int[Axis_Sum];
  34:Service/imu_data.h ****     int16_t acc_int[Axis_Sum];
  35:Service/imu_data.h **** 
  36:Service/imu_data.h ****     float temp_flt;
  37:Service/imu_data.h ****     float gyr_flt[Axis_Sum];
  38:Service/imu_data.h ****     float acc_flt[Axis_Sum];
  39:Service/imu_data.h **** 
  40:Service/imu_data.h ****     int16_t gyr_int_lst[Axis_Sum];
  41:Service/imu_data.h ****     int16_t acc_int_lst[Axis_Sum];
  42:Service/imu_data.h **** 
  43:Service/imu_data.h ****     uint8_t gyr_blunt_cnt[Axis_Sum];
  44:Service/imu_data.h ****     uint8_t acc_blunt_cnt[Axis_Sum];
  45:Service/imu_data.h **** } IMUData_TypeDef;
  46:Service/imu_data.h **** 
  47:Service/imu_data.h **** typedef struct
  48:Service/imu_data.h **** {
  49:Service/imu_data.h ****     float acc_scale;
  50:Service/imu_data.h ****     float gyr_scale;
  51:Service/imu_data.h **** } IMUModuleScale_TypeDef;
  52:Service/imu_data.h **** #pragma pack()
  53:Service/imu_data.h **** 
  54:Service/imu_data.h **** typedef struct
  55:Service/imu_data.h **** {
  56:Service/imu_data.h ****     uint8_t code;
  57:Service/imu_data.h ****     char* function;
  58:Service/imu_data.h ****     uint16_t line;
  59:Service/imu_data.h **** 
  60:Service/imu_data.h ****     uint8_t tar_reg;
  61:Service/imu_data.h ****     uint8_t reg_r_val;
  62:Service/imu_data.h ****     uint8_t reg_t_val;
  63:Service/imu_data.h **** }IMU_Error_TypeDef;
  64:Service/imu_data.h **** 
  65:Service/imu_data.h **** inline void IMUData_SetError(IMU_Error_TypeDef *error, uint8_t code, char* func, uint16_t line, uin
 719              		.loc 2 65 13 view .LVU199
 720              	.LBB25:
  66:Service/imu_data.h **** {
  67:Service/imu_data.h ****     if(error)
 721              		.loc 2 67 5 view .LVU200
ARM GAS  /var/folders/8_/_8bzxkcs1296m80nzxdrn9q80000gn/T//ccHk9u7h.s 			page 22


 722              		.loc 2 67 7 is_stmt 0 view .LVU201
 723 001e 14F1200F 		cmn	r4, #32
 724 0022 20D0     		beq	.L50
  68:Service/imu_data.h ****     {
  69:Service/imu_data.h ****         error->code = code;
 725              		.loc 2 69 9 is_stmt 1 view .LVU202
 726              		.loc 2 69 21 is_stmt 0 view .LVU203
 727 0024 0323     		movs	r3, #3
 728 0026 84F82030 		strb	r3, [r4, #32]
  70:Service/imu_data.h ****         error->function = func;
 729              		.loc 2 70 9 is_stmt 1 view .LVU204
 730              		.loc 2 70 25 is_stmt 0 view .LVU205
 731 002a B34B     		ldr	r3, .L70
 732 002c 6362     		str	r3, [r4, #36]
  71:Service/imu_data.h ****         error->line = line;
 733              		.loc 2 71 9 is_stmt 1 view .LVU206
 734              		.loc 2 71 21 is_stmt 0 view .LVU207
 735 002e FB23     		movs	r3, #251
 736 0030 2385     		strh	r3, [r4, #40]	@ movhi
  72:Service/imu_data.h **** 
  73:Service/imu_data.h ****         error->tar_reg = reg;
 737              		.loc 2 73 9 is_stmt 1 view .LVU208
 738              		.loc 2 73 24 is_stmt 0 view .LVU209
 739 0032 0023     		movs	r3, #0
 740 0034 84F82A30 		strb	r3, [r4, #42]
  74:Service/imu_data.h ****         error->reg_r_val = reg_r;
 741              		.loc 2 74 9 is_stmt 1 view .LVU210
 742              		.loc 2 74 26 is_stmt 0 view .LVU211
 743 0038 84F82B30 		strb	r3, [r4, #43]
  75:Service/imu_data.h ****         error->reg_t_val = reg_t;
 744              		.loc 2 75 9 is_stmt 1 view .LVU212
 745              		.loc 2 75 26 is_stmt 0 view .LVU213
 746 003c 84F82C30 		strb	r3, [r4, #44]
 747              	.LVL50:
 748              		.loc 2 75 26 view .LVU214
 749              	.LBE25:
 750              	.LBE24:
 252:Device/Dev_ICM20602.c ****     }
 751              		.loc 1 252 9 is_stmt 1 view .LVU215
 252:Device/Dev_ICM20602.c ****     }
 752              		.loc 1 252 16 is_stmt 0 view .LVU216
 753 0040 11E0     		b	.L50
 754              	.LVL51:
 755              	.L47:
 244:Device/Dev_ICM20602.c ****         return false;
 756              		.loc 1 244 9 is_stmt 1 view .LVU217
 757              	.LBB26:
 758              	.LBI26:
  65:Service/imu_data.h **** {
 759              		.loc 2 65 13 view .LVU218
 760              	.LBB27:
  67:Service/imu_data.h ****     {
 761              		.loc 2 67 5 view .LVU219
  67:Service/imu_data.h ****     {
 762              		.loc 2 67 7 is_stmt 0 view .LVU220
 763 0042 14F1200F 		cmn	r4, #32
 764 0046 0DD0     		beq	.L49
ARM GAS  /var/folders/8_/_8bzxkcs1296m80nzxdrn9q80000gn/T//ccHk9u7h.s 			page 23


  69:Service/imu_data.h ****         error->function = func;
 765              		.loc 2 69 9 is_stmt 1 view .LVU221
  69:Service/imu_data.h ****         error->function = func;
 766              		.loc 2 69 21 is_stmt 0 view .LVU222
 767 0048 0123     		movs	r3, #1
 768 004a 84F82030 		strb	r3, [r4, #32]
  70:Service/imu_data.h ****         error->line = line;
 769              		.loc 2 70 9 is_stmt 1 view .LVU223
  70:Service/imu_data.h ****         error->line = line;
 770              		.loc 2 70 25 is_stmt 0 view .LVU224
 771 004e AA4B     		ldr	r3, .L70
 772 0050 6362     		str	r3, [r4, #36]
  71:Service/imu_data.h **** 
 773              		.loc 2 71 9 is_stmt 1 view .LVU225
  71:Service/imu_data.h **** 
 774              		.loc 2 71 21 is_stmt 0 view .LVU226
 775 0052 F423     		movs	r3, #244
 776 0054 2385     		strh	r3, [r4, #40]	@ movhi
  73:Service/imu_data.h ****         error->reg_r_val = reg_r;
 777              		.loc 2 73 9 is_stmt 1 view .LVU227
  73:Service/imu_data.h ****         error->reg_r_val = reg_r;
 778              		.loc 2 73 24 is_stmt 0 view .LVU228
 779 0056 0023     		movs	r3, #0
 780 0058 84F82A30 		strb	r3, [r4, #42]
  74:Service/imu_data.h ****         error->reg_t_val = reg_t;
 781              		.loc 2 74 9 is_stmt 1 view .LVU229
  74:Service/imu_data.h ****         error->reg_t_val = reg_t;
 782              		.loc 2 74 26 is_stmt 0 view .LVU230
 783 005c 84F82B30 		strb	r3, [r4, #43]
 784              		.loc 2 75 9 is_stmt 1 view .LVU231
 785              		.loc 2 75 26 is_stmt 0 view .LVU232
 786 0060 84F82C30 		strb	r3, [r4, #44]
 787              	.L49:
 788              	.LVL52:
 789              		.loc 2 75 26 view .LVU233
 790              	.LBE27:
 791              	.LBE26:
 245:Device/Dev_ICM20602.c ****     }
 792              		.loc 1 245 9 is_stmt 1 view .LVU234
 245:Device/Dev_ICM20602.c ****     }
 793              		.loc 1 245 16 is_stmt 0 view .LVU235
 794 0064 0025     		movs	r5, #0
 795              	.LVL53:
 796              	.L50:
 343:Device/Dev_ICM20602.c **** 
 797              		.loc 1 343 1 view .LVU236
 798 0066 2846     		mov	r0, r5
 799 0068 03B0     		add	sp, sp, #12
 800              	.LCFI18:
 801              		.cfi_remember_state
 802              		.cfi_def_cfa_offset 12
 803              		@ sp needed
 804 006a 30BD     		pop	{r4, r5, pc}
 805              	.LVL54:
 806              	.L51:
 807              	.LCFI19:
 808              		.cfi_restore_state
ARM GAS  /var/folders/8_/_8bzxkcs1296m80nzxdrn9q80000gn/T//ccHk9u7h.s 			page 24


 255:Device/Dev_ICM20602.c ****     Obj->delay(10);
 809              		.loc 1 255 5 is_stmt 1 view .LVU237
 810 006c 0DF10702 		add	r2, sp, #7
 811 0070 7521     		movs	r1, #117
 812 0072 2046     		mov	r0, r4
 813 0074 FFF7FEFF 		bl	DevICM20602_Reg_Read
 814              	.LVL55:
 256:Device/Dev_ICM20602.c **** 
 815              		.loc 1 256 5 view .LVU238
 256:Device/Dev_ICM20602.c **** 
 816              		.loc 1 256 8 is_stmt 0 view .LVU239
 817 0078 A368     		ldr	r3, [r4, #8]
 256:Device/Dev_ICM20602.c **** 
 818              		.loc 1 256 5 view .LVU240
 819 007a 0A20     		movs	r0, #10
 820 007c 9847     		blx	r3
 821              	.LVL56:
 258:Device/Dev_ICM20602.c ****     {
 822              		.loc 1 258 5 is_stmt 1 view .LVU241
 258:Device/Dev_ICM20602.c ****     {
 823              		.loc 1 258 18 is_stmt 0 view .LVU242
 824 007e 9DF80730 		ldrb	r3, [sp, #7]	@ zero_extendqisi2
 258:Device/Dev_ICM20602.c ****     {
 825              		.loc 1 258 8 view .LVU243
 826 0082 122B     		cmp	r3, #18
 827 0084 14D0     		beq	.L53
 260:Device/Dev_ICM20602.c ****         return false;
 828              		.loc 1 260 9 is_stmt 1 view .LVU244
 829              	.LVL57:
 830              	.LBB28:
 831              	.LBI28:
  65:Service/imu_data.h **** {
 832              		.loc 2 65 13 view .LVU245
 833              	.LBB29:
  67:Service/imu_data.h ****     {
 834              		.loc 2 67 5 view .LVU246
  67:Service/imu_data.h ****     {
 835              		.loc 2 67 7 is_stmt 0 view .LVU247
 836 0086 14F1200F 		cmn	r4, #32
 837 008a 0FD0     		beq	.L54
  69:Service/imu_data.h ****         error->function = func;
 838              		.loc 2 69 9 is_stmt 1 view .LVU248
  69:Service/imu_data.h ****         error->function = func;
 839              		.loc 2 69 21 is_stmt 0 view .LVU249
 840 008c 0222     		movs	r2, #2
 841 008e 84F82020 		strb	r2, [r4, #32]
  70:Service/imu_data.h ****         error->line = line;
 842              		.loc 2 70 9 is_stmt 1 view .LVU250
  70:Service/imu_data.h ****         error->line = line;
 843              		.loc 2 70 25 is_stmt 0 view .LVU251
 844 0092 994A     		ldr	r2, .L70
 845 0094 6262     		str	r2, [r4, #36]
  71:Service/imu_data.h **** 
 846              		.loc 2 71 9 is_stmt 1 view .LVU252
  71:Service/imu_data.h **** 
 847              		.loc 2 71 21 is_stmt 0 view .LVU253
 848 0096 4FF48272 		mov	r2, #260
ARM GAS  /var/folders/8_/_8bzxkcs1296m80nzxdrn9q80000gn/T//ccHk9u7h.s 			page 25


 849 009a 2285     		strh	r2, [r4, #40]	@ movhi
  73:Service/imu_data.h ****         error->reg_r_val = reg_r;
 850              		.loc 2 73 9 is_stmt 1 view .LVU254
  73:Service/imu_data.h ****         error->reg_r_val = reg_r;
 851              		.loc 2 73 24 is_stmt 0 view .LVU255
 852 009c 7522     		movs	r2, #117
 853 009e 84F82A20 		strb	r2, [r4, #42]
  74:Service/imu_data.h ****         error->reg_t_val = reg_t;
 854              		.loc 2 74 9 is_stmt 1 view .LVU256
  74:Service/imu_data.h ****         error->reg_t_val = reg_t;
 855              		.loc 2 74 26 is_stmt 0 view .LVU257
 856 00a2 84F82B30 		strb	r3, [r4, #43]
 857              		.loc 2 75 9 is_stmt 1 view .LVU258
 858              		.loc 2 75 26 is_stmt 0 view .LVU259
 859 00a6 1223     		movs	r3, #18
 860              	.LVL58:
 861              		.loc 2 75 26 view .LVU260
 862 00a8 84F82C30 		strb	r3, [r4, #44]
 863              	.LVL59:
 864              	.L54:
 865              		.loc 2 75 26 view .LVU261
 866              	.LBE29:
 867              	.LBE28:
 261:Device/Dev_ICM20602.c ****     }
 868              		.loc 1 261 9 is_stmt 1 view .LVU262
 261:Device/Dev_ICM20602.c ****     }
 869              		.loc 1 261 16 is_stmt 0 view .LVU263
 870 00ac 0025     		movs	r5, #0
 871 00ae DAE7     		b	.L50
 872              	.L53:
 265:Device/Dev_ICM20602.c ****     Obj->delay(10);
 873              		.loc 1 265 5 is_stmt 1 view .LVU264
 874 00b0 0122     		movs	r2, #1
 875 00b2 6B21     		movs	r1, #107
 876 00b4 2046     		mov	r0, r4
 877 00b6 FFF7FEFF 		bl	DevICM20602_Reg_Write
 878              	.LVL60:
 266:Device/Dev_ICM20602.c **** 
 879              		.loc 1 266 5 view .LVU265
 266:Device/Dev_ICM20602.c **** 
 880              		.loc 1 266 8 is_stmt 0 view .LVU266
 881 00ba A368     		ldr	r3, [r4, #8]
 266:Device/Dev_ICM20602.c **** 
 882              		.loc 1 266 5 view .LVU267
 883 00bc 0A20     		movs	r0, #10
 884 00be 9847     		blx	r3
 885              	.LVL61:
 268:Device/Dev_ICM20602.c ****     if (read_out != 0x01)
 886              		.loc 1 268 5 is_stmt 1 view .LVU268
 887 00c0 0DF10702 		add	r2, sp, #7
 888 00c4 6B21     		movs	r1, #107
 889 00c6 2046     		mov	r0, r4
 890 00c8 FFF7FEFF 		bl	DevICM20602_Reg_Read
 891              	.LVL62:
 269:Device/Dev_ICM20602.c ****     {
 892              		.loc 1 269 5 view .LVU269
 269:Device/Dev_ICM20602.c ****     {
ARM GAS  /var/folders/8_/_8bzxkcs1296m80nzxdrn9q80000gn/T//ccHk9u7h.s 			page 26


 893              		.loc 1 269 18 is_stmt 0 view .LVU270
 894 00cc 9DF80730 		ldrb	r3, [sp, #7]	@ zero_extendqisi2
 269:Device/Dev_ICM20602.c ****     {
 895              		.loc 1 269 8 view .LVU271
 896 00d0 012B     		cmp	r3, #1
 897 00d2 14D0     		beq	.L55
 271:Device/Dev_ICM20602.c ****         return false;
 898              		.loc 1 271 9 is_stmt 1 view .LVU272
 899              	.LVL63:
 900              	.LBB30:
 901              	.LBI30:
  65:Service/imu_data.h **** {
 902              		.loc 2 65 13 view .LVU273
 903              	.LBB31:
  67:Service/imu_data.h ****     {
 904              		.loc 2 67 5 view .LVU274
  67:Service/imu_data.h ****     {
 905              		.loc 2 67 7 is_stmt 0 view .LVU275
 906 00d4 14F1200F 		cmn	r4, #32
 907 00d8 0FD0     		beq	.L56
  69:Service/imu_data.h ****         error->function = func;
 908              		.loc 2 69 9 is_stmt 1 view .LVU276
  69:Service/imu_data.h ****         error->function = func;
 909              		.loc 2 69 21 is_stmt 0 view .LVU277
 910 00da 0422     		movs	r2, #4
 911 00dc 84F82020 		strb	r2, [r4, #32]
  70:Service/imu_data.h ****         error->line = line;
 912              		.loc 2 70 9 is_stmt 1 view .LVU278
  70:Service/imu_data.h ****         error->line = line;
 913              		.loc 2 70 25 is_stmt 0 view .LVU279
 914 00e0 854A     		ldr	r2, .L70
 915 00e2 6262     		str	r2, [r4, #36]
  71:Service/imu_data.h **** 
 916              		.loc 2 71 9 is_stmt 1 view .LVU280
  71:Service/imu_data.h **** 
 917              		.loc 2 71 21 is_stmt 0 view .LVU281
 918 00e4 40F20F12 		movw	r2, #271
 919 00e8 2285     		strh	r2, [r4, #40]	@ movhi
  73:Service/imu_data.h ****         error->reg_r_val = reg_r;
 920              		.loc 2 73 9 is_stmt 1 view .LVU282
  73:Service/imu_data.h ****         error->reg_r_val = reg_r;
 921              		.loc 2 73 24 is_stmt 0 view .LVU283
 922 00ea 6B22     		movs	r2, #107
 923 00ec 84F82A20 		strb	r2, [r4, #42]
  74:Service/imu_data.h ****         error->reg_t_val = reg_t;
 924              		.loc 2 74 9 is_stmt 1 view .LVU284
  74:Service/imu_data.h ****         error->reg_t_val = reg_t;
 925              		.loc 2 74 26 is_stmt 0 view .LVU285
 926 00f0 84F82B30 		strb	r3, [r4, #43]
 927              		.loc 2 75 9 is_stmt 1 view .LVU286
 928              		.loc 2 75 26 is_stmt 0 view .LVU287
 929 00f4 0123     		movs	r3, #1
 930              	.LVL64:
 931              		.loc 2 75 26 view .LVU288
 932 00f6 84F82C30 		strb	r3, [r4, #44]
 933              	.LVL65:
 934              	.L56:
ARM GAS  /var/folders/8_/_8bzxkcs1296m80nzxdrn9q80000gn/T//ccHk9u7h.s 			page 27


 935              		.loc 2 75 26 view .LVU289
 936              	.LBE31:
 937              	.LBE30:
 272:Device/Dev_ICM20602.c ****     }
 938              		.loc 1 272 9 is_stmt 1 view .LVU290
 272:Device/Dev_ICM20602.c ****     }
 939              		.loc 1 272 16 is_stmt 0 view .LVU291
 940 00fa 0025     		movs	r5, #0
 941 00fc B3E7     		b	.L50
 942              	.L55:
 276:Device/Dev_ICM20602.c ****     Obj->delay(10);
 943              		.loc 1 276 5 is_stmt 1 view .LVU292
 944 00fe 0022     		movs	r2, #0
 945 0100 6C21     		movs	r1, #108
 946 0102 2046     		mov	r0, r4
 947 0104 FFF7FEFF 		bl	DevICM20602_Reg_Write
 948              	.LVL66:
 277:Device/Dev_ICM20602.c **** 
 949              		.loc 1 277 5 view .LVU293
 277:Device/Dev_ICM20602.c **** 
 950              		.loc 1 277 8 is_stmt 0 view .LVU294
 951 0108 A368     		ldr	r3, [r4, #8]
 277:Device/Dev_ICM20602.c **** 
 952              		.loc 1 277 5 view .LVU295
 953 010a 0A20     		movs	r0, #10
 954 010c 9847     		blx	r3
 955              	.LVL67:
 279:Device/Dev_ICM20602.c ****     if (read_out != 0x00)
 956              		.loc 1 279 5 is_stmt 1 view .LVU296
 957 010e 0DF10702 		add	r2, sp, #7
 958 0112 6C21     		movs	r1, #108
 959 0114 2046     		mov	r0, r4
 960 0116 FFF7FEFF 		bl	DevICM20602_Reg_Read
 961              	.LVL68:
 280:Device/Dev_ICM20602.c ****     {
 962              		.loc 1 280 5 view .LVU297
 280:Device/Dev_ICM20602.c ****     {
 963              		.loc 1 280 18 is_stmt 0 view .LVU298
 964 011a 9DF80730 		ldrb	r3, [sp, #7]	@ zero_extendqisi2
 280:Device/Dev_ICM20602.c ****     {
 965              		.loc 1 280 8 view .LVU299
 966 011e A3B1     		cbz	r3, .L57
 282:Device/Dev_ICM20602.c ****         return false;
 967              		.loc 1 282 9 is_stmt 1 view .LVU300
 968              	.LVL69:
 969              	.LBB32:
 970              	.LBI32:
  65:Service/imu_data.h **** {
 971              		.loc 2 65 13 view .LVU301
 972              	.LBB33:
  67:Service/imu_data.h ****     {
 973              		.loc 2 67 5 view .LVU302
  67:Service/imu_data.h ****     {
 974              		.loc 2 67 7 is_stmt 0 view .LVU303
 975 0120 14F1200F 		cmn	r4, #32
 976 0124 0FD0     		beq	.L58
  69:Service/imu_data.h ****         error->function = func;
ARM GAS  /var/folders/8_/_8bzxkcs1296m80nzxdrn9q80000gn/T//ccHk9u7h.s 			page 28


 977              		.loc 2 69 9 is_stmt 1 view .LVU304
  69:Service/imu_data.h ****         error->function = func;
 978              		.loc 2 69 21 is_stmt 0 view .LVU305
 979 0126 0522     		movs	r2, #5
 980 0128 84F82020 		strb	r2, [r4, #32]
  70:Service/imu_data.h ****         error->line = line;
 981              		.loc 2 70 9 is_stmt 1 view .LVU306
  70:Service/imu_data.h ****         error->line = line;
 982              		.loc 2 70 25 is_stmt 0 view .LVU307
 983 012c 724A     		ldr	r2, .L70
 984 012e 6262     		str	r2, [r4, #36]
  71:Service/imu_data.h **** 
 985              		.loc 2 71 9 is_stmt 1 view .LVU308
  71:Service/imu_data.h **** 
 986              		.loc 2 71 21 is_stmt 0 view .LVU309
 987 0130 4FF48D72 		mov	r2, #282
 988 0134 2285     		strh	r2, [r4, #40]	@ movhi
  73:Service/imu_data.h ****         error->reg_r_val = reg_r;
 989              		.loc 2 73 9 is_stmt 1 view .LVU310
  73:Service/imu_data.h ****         error->reg_r_val = reg_r;
 990              		.loc 2 73 24 is_stmt 0 view .LVU311
 991 0136 6C22     		movs	r2, #108
 992 0138 84F82A20 		strb	r2, [r4, #42]
  74:Service/imu_data.h ****         error->reg_t_val = reg_t;
 993              		.loc 2 74 9 is_stmt 1 view .LVU312
  74:Service/imu_data.h ****         error->reg_t_val = reg_t;
 994              		.loc 2 74 26 is_stmt 0 view .LVU313
 995 013c 84F82B30 		strb	r3, [r4, #43]
 996              		.loc 2 75 9 is_stmt 1 view .LVU314
 997              		.loc 2 75 26 is_stmt 0 view .LVU315
 998 0140 0023     		movs	r3, #0
 999              	.LVL70:
 1000              		.loc 2 75 26 view .LVU316
 1001 0142 84F82C30 		strb	r3, [r4, #44]
 1002              	.LVL71:
 1003              	.L58:
 1004              		.loc 2 75 26 view .LVU317
 1005              	.LBE33:
 1006              	.LBE32:
 283:Device/Dev_ICM20602.c ****     }
 1007              		.loc 1 283 9 is_stmt 1 view .LVU318
 283:Device/Dev_ICM20602.c ****     }
 1008              		.loc 1 283 16 is_stmt 0 view .LVU319
 1009 0146 0025     		movs	r5, #0
 1010 0148 8DE7     		b	.L50
 1011              	.L57:
 287:Device/Dev_ICM20602.c ****     Obj->delay(10);
 1012              		.loc 1 287 5 is_stmt 1 view .LVU320
 1013 014a 4022     		movs	r2, #64
 1014 014c 7021     		movs	r1, #112
 1015 014e 2046     		mov	r0, r4
 1016 0150 FFF7FEFF 		bl	DevICM20602_Reg_Write
 1017              	.LVL72:
 288:Device/Dev_ICM20602.c **** 
 1018              		.loc 1 288 5 view .LVU321
 288:Device/Dev_ICM20602.c **** 
 1019              		.loc 1 288 8 is_stmt 0 view .LVU322
ARM GAS  /var/folders/8_/_8bzxkcs1296m80nzxdrn9q80000gn/T//ccHk9u7h.s 			page 29


 1020 0154 A368     		ldr	r3, [r4, #8]
 288:Device/Dev_ICM20602.c **** 
 1021              		.loc 1 288 5 view .LVU323
 1022 0156 0A20     		movs	r0, #10
 1023 0158 9847     		blx	r3
 1024              	.LVL73:
 290:Device/Dev_ICM20602.c ****     if (read_out != 0x40)
 1025              		.loc 1 290 5 is_stmt 1 view .LVU324
 1026 015a 0DF10702 		add	r2, sp, #7
 1027 015e 7021     		movs	r1, #112
 1028 0160 2046     		mov	r0, r4
 1029 0162 FFF7FEFF 		bl	DevICM20602_Reg_Read
 1030              	.LVL74:
 291:Device/Dev_ICM20602.c ****     {
 1031              		.loc 1 291 5 view .LVU325
 291:Device/Dev_ICM20602.c ****     {
 1032              		.loc 1 291 18 is_stmt 0 view .LVU326
 1033 0166 9DF80730 		ldrb	r3, [sp, #7]	@ zero_extendqisi2
 291:Device/Dev_ICM20602.c ****     {
 1034              		.loc 1 291 8 view .LVU327
 1035 016a 402B     		cmp	r3, #64
 1036 016c 14D0     		beq	.L59
 293:Device/Dev_ICM20602.c ****         return false;
 1037              		.loc 1 293 9 is_stmt 1 view .LVU328
 1038              	.LVL75:
 1039              	.LBB34:
 1040              	.LBI34:
  65:Service/imu_data.h **** {
 1041              		.loc 2 65 13 view .LVU329
 1042              	.LBB35:
  67:Service/imu_data.h ****     {
 1043              		.loc 2 67 5 view .LVU330
  67:Service/imu_data.h ****     {
 1044              		.loc 2 67 7 is_stmt 0 view .LVU331
 1045 016e 14F1200F 		cmn	r4, #32
 1046 0172 0FD0     		beq	.L60
  69:Service/imu_data.h ****         error->function = func;
 1047              		.loc 2 69 9 is_stmt 1 view .LVU332
  69:Service/imu_data.h ****         error->function = func;
 1048              		.loc 2 69 21 is_stmt 0 view .LVU333
 1049 0174 0622     		movs	r2, #6
 1050 0176 84F82020 		strb	r2, [r4, #32]
  70:Service/imu_data.h ****         error->line = line;
 1051              		.loc 2 70 9 is_stmt 1 view .LVU334
  70:Service/imu_data.h ****         error->line = line;
 1052              		.loc 2 70 25 is_stmt 0 view .LVU335
 1053 017a 5F4A     		ldr	r2, .L70
 1054 017c 6262     		str	r2, [r4, #36]
  71:Service/imu_data.h **** 
 1055              		.loc 2 71 9 is_stmt 1 view .LVU336
  71:Service/imu_data.h **** 
 1056              		.loc 2 71 21 is_stmt 0 view .LVU337
 1057 017e 40F22512 		movw	r2, #293
 1058 0182 2285     		strh	r2, [r4, #40]	@ movhi
  73:Service/imu_data.h ****         error->reg_r_val = reg_r;
 1059              		.loc 2 73 9 is_stmt 1 view .LVU338
  73:Service/imu_data.h ****         error->reg_r_val = reg_r;
ARM GAS  /var/folders/8_/_8bzxkcs1296m80nzxdrn9q80000gn/T//ccHk9u7h.s 			page 30


 1060              		.loc 2 73 24 is_stmt 0 view .LVU339
 1061 0184 7022     		movs	r2, #112
 1062 0186 84F82A20 		strb	r2, [r4, #42]
  74:Service/imu_data.h ****         error->reg_t_val = reg_t;
 1063              		.loc 2 74 9 is_stmt 1 view .LVU340
  74:Service/imu_data.h ****         error->reg_t_val = reg_t;
 1064              		.loc 2 74 26 is_stmt 0 view .LVU341
 1065 018a 84F82B30 		strb	r3, [r4, #43]
 1066              		.loc 2 75 9 is_stmt 1 view .LVU342
 1067              		.loc 2 75 26 is_stmt 0 view .LVU343
 1068 018e 4023     		movs	r3, #64
 1069              	.LVL76:
 1070              		.loc 2 75 26 view .LVU344
 1071 0190 84F82C30 		strb	r3, [r4, #44]
 1072              	.LVL77:
 1073              	.L60:
 1074              		.loc 2 75 26 view .LVU345
 1075              	.LBE35:
 1076              	.LBE34:
 294:Device/Dev_ICM20602.c ****     }
 1077              		.loc 1 294 9 is_stmt 1 view .LVU346
 294:Device/Dev_ICM20602.c ****     }
 1078              		.loc 1 294 16 is_stmt 0 view .LVU347
 1079 0194 0025     		movs	r5, #0
 1080 0196 66E7     		b	.L50
 1081              	.L59:
 298:Device/Dev_ICM20602.c ****     Obj->delay(10);
 1082              		.loc 1 298 5 is_stmt 1 view .LVU348
 1083 0198 94F83020 		ldrb	r2, [r4, #48]	@ zero_extendqisi2
 1084 019c 1921     		movs	r1, #25
 1085 019e 2046     		mov	r0, r4
 1086 01a0 FFF7FEFF 		bl	DevICM20602_Reg_Write
 1087              	.LVL78:
 299:Device/Dev_ICM20602.c **** 
 1088              		.loc 1 299 5 view .LVU349
 299:Device/Dev_ICM20602.c **** 
 1089              		.loc 1 299 8 is_stmt 0 view .LVU350
 1090 01a4 A368     		ldr	r3, [r4, #8]
 299:Device/Dev_ICM20602.c **** 
 1091              		.loc 1 299 5 view .LVU351
 1092 01a6 0A20     		movs	r0, #10
 1093 01a8 9847     		blx	r3
 1094              	.LVL79:
 301:Device/Dev_ICM20602.c ****     if (read_out != Obj->rate)
 1095              		.loc 1 301 5 is_stmt 1 view .LVU352
 1096 01aa 0DF10702 		add	r2, sp, #7
 1097 01ae 1921     		movs	r1, #25
 1098 01b0 2046     		mov	r0, r4
 1099 01b2 FFF7FEFF 		bl	DevICM20602_Reg_Read
 1100              	.LVL80:
 302:Device/Dev_ICM20602.c ****     {
 1101              		.loc 1 302 5 view .LVU353
 302:Device/Dev_ICM20602.c ****     {
 1102              		.loc 1 302 24 is_stmt 0 view .LVU354
 1103 01b6 94F83030 		ldrb	r3, [r4, #48]	@ zero_extendqisi2
 302:Device/Dev_ICM20602.c ****     {
 1104              		.loc 1 302 18 view .LVU355
ARM GAS  /var/folders/8_/_8bzxkcs1296m80nzxdrn9q80000gn/T//ccHk9u7h.s 			page 31


 1105 01ba 9DF80720 		ldrb	r2, [sp, #7]	@ zero_extendqisi2
 302:Device/Dev_ICM20602.c ****     {
 1106              		.loc 1 302 8 view .LVU356
 1107 01be 9342     		cmp	r3, r2
 1108 01c0 13D0     		beq	.L61
 304:Device/Dev_ICM20602.c ****         return false;
 1109              		.loc 1 304 9 is_stmt 1 view .LVU357
 1110              	.LVL81:
 1111              	.LBB36:
 1112              	.LBI36:
  65:Service/imu_data.h **** {
 1113              		.loc 2 65 13 view .LVU358
 1114              	.LBB37:
  67:Service/imu_data.h ****     {
 1115              		.loc 2 67 5 view .LVU359
  67:Service/imu_data.h ****     {
 1116              		.loc 2 67 7 is_stmt 0 view .LVU360
 1117 01c2 14F1200F 		cmn	r4, #32
 1118 01c6 0ED0     		beq	.L62
  69:Service/imu_data.h ****         error->function = func;
 1119              		.loc 2 69 9 is_stmt 1 view .LVU361
  69:Service/imu_data.h ****         error->function = func;
 1120              		.loc 2 69 21 is_stmt 0 view .LVU362
 1121 01c8 0A21     		movs	r1, #10
 1122 01ca 84F82010 		strb	r1, [r4, #32]
  70:Service/imu_data.h ****         error->line = line;
 1123              		.loc 2 70 9 is_stmt 1 view .LVU363
  70:Service/imu_data.h ****         error->line = line;
 1124              		.loc 2 70 25 is_stmt 0 view .LVU364
 1125 01ce 4A49     		ldr	r1, .L70
 1126 01d0 6162     		str	r1, [r4, #36]
  71:Service/imu_data.h **** 
 1127              		.loc 2 71 9 is_stmt 1 view .LVU365
  71:Service/imu_data.h **** 
 1128              		.loc 2 71 21 is_stmt 0 view .LVU366
 1129 01d2 4FF49871 		mov	r1, #304
 1130 01d6 2185     		strh	r1, [r4, #40]	@ movhi
  73:Service/imu_data.h ****         error->reg_r_val = reg_r;
 1131              		.loc 2 73 9 is_stmt 1 view .LVU367
  73:Service/imu_data.h ****         error->reg_r_val = reg_r;
 1132              		.loc 2 73 24 is_stmt 0 view .LVU368
 1133 01d8 1921     		movs	r1, #25
 1134 01da 84F82A10 		strb	r1, [r4, #42]
  74:Service/imu_data.h ****         error->reg_t_val = reg_t;
 1135              		.loc 2 74 9 is_stmt 1 view .LVU369
  74:Service/imu_data.h ****         error->reg_t_val = reg_t;
 1136              		.loc 2 74 26 is_stmt 0 view .LVU370
 1137 01de 84F82B20 		strb	r2, [r4, #43]
 1138              		.loc 2 75 9 is_stmt 1 view .LVU371
 1139              		.loc 2 75 26 is_stmt 0 view .LVU372
 1140 01e2 84F82C30 		strb	r3, [r4, #44]
 1141              	.L62:
 1142              	.LVL82:
 1143              		.loc 2 75 26 view .LVU373
 1144              	.LBE37:
 1145              	.LBE36:
 305:Device/Dev_ICM20602.c ****     }
ARM GAS  /var/folders/8_/_8bzxkcs1296m80nzxdrn9q80000gn/T//ccHk9u7h.s 			page 32


 1146              		.loc 1 305 9 is_stmt 1 view .LVU374
 305:Device/Dev_ICM20602.c ****     }
 1147              		.loc 1 305 16 is_stmt 0 view .LVU375
 1148 01e6 0025     		movs	r5, #0
 1149 01e8 3DE7     		b	.L50
 1150              	.L61:
 309:Device/Dev_ICM20602.c ****     Obj->delay(10);
 1151              		.loc 1 309 5 is_stmt 1 view .LVU376
 1152 01ea A27C     		ldrb	r2, [r4, #18]	@ zero_extendqisi2
 1153 01ec 1C21     		movs	r1, #28
 1154 01ee 2046     		mov	r0, r4
 1155 01f0 FFF7FEFF 		bl	DevICM20602_Reg_Write
 1156              	.LVL83:
 310:Device/Dev_ICM20602.c **** 
 1157              		.loc 1 310 5 view .LVU377
 310:Device/Dev_ICM20602.c **** 
 1158              		.loc 1 310 8 is_stmt 0 view .LVU378
 1159 01f4 A368     		ldr	r3, [r4, #8]
 310:Device/Dev_ICM20602.c **** 
 1160              		.loc 1 310 5 view .LVU379
 1161 01f6 0A20     		movs	r0, #10
 1162 01f8 9847     		blx	r3
 1163              	.LVL84:
 312:Device/Dev_ICM20602.c ****     if (read_out != Obj->AccTrip)
 1164              		.loc 1 312 5 is_stmt 1 view .LVU380
 1165 01fa 0DF10702 		add	r2, sp, #7
 1166 01fe 1C21     		movs	r1, #28
 1167 0200 2046     		mov	r0, r4
 1168 0202 FFF7FEFF 		bl	DevICM20602_Reg_Read
 1169              	.LVL85:
 313:Device/Dev_ICM20602.c ****     {
 1170              		.loc 1 313 5 view .LVU381
 313:Device/Dev_ICM20602.c ****     {
 1171              		.loc 1 313 24 is_stmt 0 view .LVU382
 1172 0206 A37C     		ldrb	r3, [r4, #18]	@ zero_extendqisi2
 313:Device/Dev_ICM20602.c ****     {
 1173              		.loc 1 313 18 view .LVU383
 1174 0208 9DF80720 		ldrb	r2, [sp, #7]	@ zero_extendqisi2
 313:Device/Dev_ICM20602.c ****     {
 1175              		.loc 1 313 8 view .LVU384
 1176 020c 9342     		cmp	r3, r2
 1177 020e 13D0     		beq	.L63
 315:Device/Dev_ICM20602.c ****         return false;
 1178              		.loc 1 315 9 is_stmt 1 view .LVU385
 1179              	.LVL86:
 1180              	.LBB38:
 1181              	.LBI38:
  65:Service/imu_data.h **** {
 1182              		.loc 2 65 13 view .LVU386
 1183              	.LBB39:
  67:Service/imu_data.h ****     {
 1184              		.loc 2 67 5 view .LVU387
  67:Service/imu_data.h ****     {
 1185              		.loc 2 67 7 is_stmt 0 view .LVU388
 1186 0210 14F1200F 		cmn	r4, #32
 1187 0214 0ED0     		beq	.L64
  69:Service/imu_data.h ****         error->function = func;
ARM GAS  /var/folders/8_/_8bzxkcs1296m80nzxdrn9q80000gn/T//ccHk9u7h.s 			page 33


 1188              		.loc 2 69 9 is_stmt 1 view .LVU389
  69:Service/imu_data.h ****         error->function = func;
 1189              		.loc 2 69 21 is_stmt 0 view .LVU390
 1190 0216 0821     		movs	r1, #8
 1191 0218 84F82010 		strb	r1, [r4, #32]
  70:Service/imu_data.h ****         error->line = line;
 1192              		.loc 2 70 9 is_stmt 1 view .LVU391
  70:Service/imu_data.h ****         error->line = line;
 1193              		.loc 2 70 25 is_stmt 0 view .LVU392
 1194 021c 3649     		ldr	r1, .L70
 1195 021e 6162     		str	r1, [r4, #36]
  71:Service/imu_data.h **** 
 1196              		.loc 2 71 9 is_stmt 1 view .LVU393
  71:Service/imu_data.h **** 
 1197              		.loc 2 71 21 is_stmt 0 view .LVU394
 1198 0220 40F23B11 		movw	r1, #315
 1199 0224 2185     		strh	r1, [r4, #40]	@ movhi
  73:Service/imu_data.h ****         error->reg_r_val = reg_r;
 1200              		.loc 2 73 9 is_stmt 1 view .LVU395
  73:Service/imu_data.h ****         error->reg_r_val = reg_r;
 1201              		.loc 2 73 24 is_stmt 0 view .LVU396
 1202 0226 1C21     		movs	r1, #28
 1203 0228 84F82A10 		strb	r1, [r4, #42]
  74:Service/imu_data.h ****         error->reg_t_val = reg_t;
 1204              		.loc 2 74 9 is_stmt 1 view .LVU397
  74:Service/imu_data.h ****         error->reg_t_val = reg_t;
 1205              		.loc 2 74 26 is_stmt 0 view .LVU398
 1206 022c 84F82B20 		strb	r2, [r4, #43]
 1207              		.loc 2 75 9 is_stmt 1 view .LVU399
 1208              		.loc 2 75 26 is_stmt 0 view .LVU400
 1209 0230 84F82C30 		strb	r3, [r4, #44]
 1210              	.L64:
 1211              	.LVL87:
 1212              		.loc 2 75 26 view .LVU401
 1213              	.LBE39:
 1214              	.LBE38:
 316:Device/Dev_ICM20602.c ****     }
 1215              		.loc 1 316 9 is_stmt 1 view .LVU402
 316:Device/Dev_ICM20602.c ****     }
 1216              		.loc 1 316 16 is_stmt 0 view .LVU403
 1217 0234 0025     		movs	r5, #0
 1218 0236 16E7     		b	.L50
 1219              	.L63:
 320:Device/Dev_ICM20602.c ****     Obj->delay(10);
 1220              		.loc 1 320 5 is_stmt 1 view .LVU404
 1221 0238 E27C     		ldrb	r2, [r4, #19]	@ zero_extendqisi2
 1222 023a 1B21     		movs	r1, #27
 1223 023c 2046     		mov	r0, r4
 1224 023e FFF7FEFF 		bl	DevICM20602_Reg_Write
 1225              	.LVL88:
 321:Device/Dev_ICM20602.c **** 
 1226              		.loc 1 321 5 view .LVU405
 321:Device/Dev_ICM20602.c **** 
 1227              		.loc 1 321 8 is_stmt 0 view .LVU406
 1228 0242 A368     		ldr	r3, [r4, #8]
 321:Device/Dev_ICM20602.c **** 
 1229              		.loc 1 321 5 view .LVU407
ARM GAS  /var/folders/8_/_8bzxkcs1296m80nzxdrn9q80000gn/T//ccHk9u7h.s 			page 34


 1230 0244 0A20     		movs	r0, #10
 1231 0246 9847     		blx	r3
 1232              	.LVL89:
 323:Device/Dev_ICM20602.c ****     if (read_out != Obj->GyrTrip)
 1233              		.loc 1 323 5 is_stmt 1 view .LVU408
 1234 0248 0DF10702 		add	r2, sp, #7
 1235 024c 1B21     		movs	r1, #27
 1236 024e 2046     		mov	r0, r4
 1237 0250 FFF7FEFF 		bl	DevICM20602_Reg_Read
 1238              	.LVL90:
 324:Device/Dev_ICM20602.c ****     {
 1239              		.loc 1 324 5 view .LVU409
 324:Device/Dev_ICM20602.c ****     {
 1240              		.loc 1 324 24 is_stmt 0 view .LVU410
 1241 0254 E37C     		ldrb	r3, [r4, #19]	@ zero_extendqisi2
 324:Device/Dev_ICM20602.c ****     {
 1242              		.loc 1 324 18 view .LVU411
 1243 0256 9DF80720 		ldrb	r2, [sp, #7]	@ zero_extendqisi2
 324:Device/Dev_ICM20602.c ****     {
 1244              		.loc 1 324 8 view .LVU412
 1245 025a 9342     		cmp	r3, r2
 1246 025c 13D0     		beq	.L65
 326:Device/Dev_ICM20602.c ****         return false;
 1247              		.loc 1 326 9 is_stmt 1 view .LVU413
 1248              	.LVL91:
 1249              	.LBB40:
 1250              	.LBI40:
  65:Service/imu_data.h **** {
 1251              		.loc 2 65 13 view .LVU414
 1252              	.LBB41:
  67:Service/imu_data.h ****     {
 1253              		.loc 2 67 5 view .LVU415
  67:Service/imu_data.h ****     {
 1254              		.loc 2 67 7 is_stmt 0 view .LVU416
 1255 025e 14F1200F 		cmn	r4, #32
 1256 0262 0ED0     		beq	.L66
  69:Service/imu_data.h ****         error->function = func;
 1257              		.loc 2 69 9 is_stmt 1 view .LVU417
  69:Service/imu_data.h ****         error->function = func;
 1258              		.loc 2 69 21 is_stmt 0 view .LVU418
 1259 0264 0921     		movs	r1, #9
 1260 0266 84F82010 		strb	r1, [r4, #32]
  70:Service/imu_data.h ****         error->line = line;
 1261              		.loc 2 70 9 is_stmt 1 view .LVU419
  70:Service/imu_data.h ****         error->line = line;
 1262              		.loc 2 70 25 is_stmt 0 view .LVU420
 1263 026a 2349     		ldr	r1, .L70
 1264 026c 6162     		str	r1, [r4, #36]
  71:Service/imu_data.h **** 
 1265              		.loc 2 71 9 is_stmt 1 view .LVU421
  71:Service/imu_data.h **** 
 1266              		.loc 2 71 21 is_stmt 0 view .LVU422
 1267 026e 4FF4A371 		mov	r1, #326
 1268 0272 2185     		strh	r1, [r4, #40]	@ movhi
  73:Service/imu_data.h ****         error->reg_r_val = reg_r;
 1269              		.loc 2 73 9 is_stmt 1 view .LVU423
  73:Service/imu_data.h ****         error->reg_r_val = reg_r;
ARM GAS  /var/folders/8_/_8bzxkcs1296m80nzxdrn9q80000gn/T//ccHk9u7h.s 			page 35


 1270              		.loc 2 73 24 is_stmt 0 view .LVU424
 1271 0274 1B21     		movs	r1, #27
 1272 0276 84F82A10 		strb	r1, [r4, #42]
  74:Service/imu_data.h ****         error->reg_t_val = reg_t;
 1273              		.loc 2 74 9 is_stmt 1 view .LVU425
  74:Service/imu_data.h ****         error->reg_t_val = reg_t;
 1274              		.loc 2 74 26 is_stmt 0 view .LVU426
 1275 027a 84F82B20 		strb	r2, [r4, #43]
 1276              		.loc 2 75 9 is_stmt 1 view .LVU427
 1277              		.loc 2 75 26 is_stmt 0 view .LVU428
 1278 027e 84F82C30 		strb	r3, [r4, #44]
 1279              	.L66:
 1280              	.LVL92:
 1281              		.loc 2 75 26 view .LVU429
 1282              	.LBE41:
 1283              	.LBE40:
 327:Device/Dev_ICM20602.c ****     }
 1284              		.loc 1 327 9 is_stmt 1 view .LVU430
 327:Device/Dev_ICM20602.c ****     }
 1285              		.loc 1 327 16 is_stmt 0 view .LVU431
 1286 0282 0025     		movs	r5, #0
 1287 0284 EFE6     		b	.L50
 1288              	.L65:
 331:Device/Dev_ICM20602.c ****     Obj->delay(10);
 1289              		.loc 1 331 5 is_stmt 1 view .LVU432
 1290 0286 6022     		movs	r2, #96
 1291 0288 3721     		movs	r1, #55
 1292 028a 2046     		mov	r0, r4
 1293 028c FFF7FEFF 		bl	DevICM20602_Reg_Write
 1294              	.LVL93:
 332:Device/Dev_ICM20602.c **** 
 1295              		.loc 1 332 5 view .LVU433
 332:Device/Dev_ICM20602.c **** 
 1296              		.loc 1 332 8 is_stmt 0 view .LVU434
 1297 0290 A368     		ldr	r3, [r4, #8]
 332:Device/Dev_ICM20602.c **** 
 1298              		.loc 1 332 5 view .LVU435
 1299 0292 0A20     		movs	r0, #10
 1300 0294 9847     		blx	r3
 1301              	.LVL94:
 334:Device/Dev_ICM20602.c ****     if (read_out != 0x60)
 1302              		.loc 1 334 5 is_stmt 1 view .LVU436
 1303 0296 0DF10702 		add	r2, sp, #7
 1304 029a 3721     		movs	r1, #55
 1305 029c 2046     		mov	r0, r4
 1306 029e FFF7FEFF 		bl	DevICM20602_Reg_Read
 1307              	.LVL95:
 335:Device/Dev_ICM20602.c ****     {
 1308              		.loc 1 335 5 view .LVU437
 335:Device/Dev_ICM20602.c ****     {
 1309              		.loc 1 335 18 is_stmt 0 view .LVU438
 1310 02a2 9DF80730 		ldrb	r3, [sp, #7]	@ zero_extendqisi2
 335:Device/Dev_ICM20602.c ****     {
 1311              		.loc 1 335 8 view .LVU439
 1312 02a6 602B     		cmp	r3, #96
 1313 02a8 14D0     		beq	.L67
 337:Device/Dev_ICM20602.c ****         return false;
ARM GAS  /var/folders/8_/_8bzxkcs1296m80nzxdrn9q80000gn/T//ccHk9u7h.s 			page 36


 1314              		.loc 1 337 9 is_stmt 1 view .LVU440
 1315              	.LVL96:
 1316              	.LBB42:
 1317              	.LBI42:
  65:Service/imu_data.h **** {
 1318              		.loc 2 65 13 view .LVU441
 1319              	.LBB43:
  67:Service/imu_data.h ****     {
 1320              		.loc 2 67 5 view .LVU442
  67:Service/imu_data.h ****     {
 1321              		.loc 2 67 7 is_stmt 0 view .LVU443
 1322 02aa 14F1200F 		cmn	r4, #32
 1323 02ae 0FD0     		beq	.L68
  69:Service/imu_data.h ****         error->function = func;
 1324              		.loc 2 69 9 is_stmt 1 view .LVU444
  69:Service/imu_data.h ****         error->function = func;
 1325              		.loc 2 69 21 is_stmt 0 view .LVU445
 1326 02b0 0722     		movs	r2, #7
 1327 02b2 84F82020 		strb	r2, [r4, #32]
  70:Service/imu_data.h ****         error->line = line;
 1328              		.loc 2 70 9 is_stmt 1 view .LVU446
  70:Service/imu_data.h ****         error->line = line;
 1329              		.loc 2 70 25 is_stmt 0 view .LVU447
 1330 02b6 104A     		ldr	r2, .L70
 1331 02b8 6262     		str	r2, [r4, #36]
  71:Service/imu_data.h **** 
 1332              		.loc 2 71 9 is_stmt 1 view .LVU448
  71:Service/imu_data.h **** 
 1333              		.loc 2 71 21 is_stmt 0 view .LVU449
 1334 02ba 40F25112 		movw	r2, #337
 1335 02be 2285     		strh	r2, [r4, #40]	@ movhi
  73:Service/imu_data.h ****         error->reg_r_val = reg_r;
 1336              		.loc 2 73 9 is_stmt 1 view .LVU450
  73:Service/imu_data.h ****         error->reg_r_val = reg_r;
 1337              		.loc 2 73 24 is_stmt 0 view .LVU451
 1338 02c0 3722     		movs	r2, #55
 1339 02c2 84F82A20 		strb	r2, [r4, #42]
  74:Service/imu_data.h ****         error->reg_t_val = reg_t;
 1340              		.loc 2 74 9 is_stmt 1 view .LVU452
  74:Service/imu_data.h ****         error->reg_t_val = reg_t;
 1341              		.loc 2 74 26 is_stmt 0 view .LVU453
 1342 02c6 84F82B30 		strb	r3, [r4, #43]
 1343              		.loc 2 75 9 is_stmt 1 view .LVU454
 1344              		.loc 2 75 26 is_stmt 0 view .LVU455
 1345 02ca 6023     		movs	r3, #96
 1346              	.LVL97:
 1347              		.loc 2 75 26 view .LVU456
 1348 02cc 84F82C30 		strb	r3, [r4, #44]
 1349              	.LVL98:
 1350              	.L68:
 1351              		.loc 2 75 26 view .LVU457
 1352              	.LBE43:
 1353              	.LBE42:
 338:Device/Dev_ICM20602.c ****     }
 1354              		.loc 1 338 9 is_stmt 1 view .LVU458
 338:Device/Dev_ICM20602.c ****     }
 1355              		.loc 1 338 16 is_stmt 0 view .LVU459
ARM GAS  /var/folders/8_/_8bzxkcs1296m80nzxdrn9q80000gn/T//ccHk9u7h.s 			page 37


 1356 02d0 0025     		movs	r5, #0
 1357 02d2 C8E6     		b	.L50
 1358              	.L67:
 341:Device/Dev_ICM20602.c ****     return true;
 1359              		.loc 1 341 5 is_stmt 1 view .LVU460
 1360              	.LVL99:
 1361              	.LBB44:
 1362              	.LBI44:
  65:Service/imu_data.h **** {
 1363              		.loc 2 65 13 view .LVU461
 1364              	.LBB45:
  67:Service/imu_data.h ****     {
 1365              		.loc 2 67 5 view .LVU462
  67:Service/imu_data.h ****     {
 1366              		.loc 2 67 7 is_stmt 0 view .LVU463
 1367 02d4 14F1200F 		cmn	r4, #32
 1368 02d8 3FF4C5AE 		beq	.L50
  69:Service/imu_data.h ****         error->function = func;
 1369              		.loc 2 69 9 is_stmt 1 view .LVU464
  69:Service/imu_data.h ****         error->function = func;
 1370              		.loc 2 69 21 is_stmt 0 view .LVU465
 1371 02dc 0023     		movs	r3, #0
 1372 02de 84F82030 		strb	r3, [r4, #32]
  70:Service/imu_data.h ****         error->line = line;
 1373              		.loc 2 70 9 is_stmt 1 view .LVU466
  70:Service/imu_data.h ****         error->line = line;
 1374              		.loc 2 70 25 is_stmt 0 view .LVU467
 1375 02e2 064A     		ldr	r2, .L70+4
 1376 02e4 6262     		str	r2, [r4, #36]
  71:Service/imu_data.h **** 
 1377              		.loc 2 71 9 is_stmt 1 view .LVU468
  71:Service/imu_data.h **** 
 1378              		.loc 2 71 21 is_stmt 0 view .LVU469
 1379 02e6 2385     		strh	r3, [r4, #40]	@ movhi
  73:Service/imu_data.h ****         error->reg_r_val = reg_r;
 1380              		.loc 2 73 9 is_stmt 1 view .LVU470
  73:Service/imu_data.h ****         error->reg_r_val = reg_r;
 1381              		.loc 2 73 24 is_stmt 0 view .LVU471
 1382 02e8 84F82A30 		strb	r3, [r4, #42]
  74:Service/imu_data.h ****         error->reg_t_val = reg_t;
 1383              		.loc 2 74 9 is_stmt 1 view .LVU472
  74:Service/imu_data.h ****         error->reg_t_val = reg_t;
 1384              		.loc 2 74 26 is_stmt 0 view .LVU473
 1385 02ec 84F82B30 		strb	r3, [r4, #43]
 1386              		.loc 2 75 9 is_stmt 1 view .LVU474
 1387              		.loc 2 75 26 is_stmt 0 view .LVU475
 1388 02f0 84F82C30 		strb	r3, [r4, #44]
 1389 02f4 B7E6     		b	.L50
 1390              	.L71:
 1391 02f6 00BF     		.align	2
 1392              	.L70:
 1393 02f8 00000000 		.word	.LANCHOR0
 1394 02fc 00000000 		.word	.LC0
 1395              	.LBE45:
 1396              	.LBE44:
 1397              		.cfi_endproc
 1398              	.LFE7:
ARM GAS  /var/folders/8_/_8bzxkcs1296m80nzxdrn9q80000gn/T//ccHk9u7h.s 			page 38


 1400              		.section	.text.DevICM20602_GetReady,"ax",%progbits
 1401              		.align	1
 1402              		.syntax unified
 1403              		.thumb
 1404              		.thumb_func
 1405              		.fpu fpv5-d16
 1407              	DevICM20602_GetReady:
 1408              	.LVL100:
 1409              	.LFB10:
 370:Device/Dev_ICM20602.c **** 
 371:Device/Dev_ICM20602.c **** static bool DevICM20602_GetReady(DevICM20602Obj_TypeDef *Obj)
 372:Device/Dev_ICM20602.c **** {
 1410              		.loc 1 372 1 is_stmt 1 view -0
 1411              		.cfi_startproc
 1412              		@ args = 0, pretend = 0, frame = 0
 1413              		@ frame_needed = 0, uses_anonymous_args = 0
 1414              		@ link register save eliminated.
 373:Device/Dev_ICM20602.c ****     if(Obj == NULL)
 1415              		.loc 1 373 5 view .LVU477
 1416              		.loc 1 373 7 is_stmt 0 view .LVU478
 1417 0000 08B1     		cbz	r0, .L74
 374:Device/Dev_ICM20602.c ****         return false;
 375:Device/Dev_ICM20602.c ****         
 376:Device/Dev_ICM20602.c ****     return Obj->drdy;
 1418              		.loc 1 376 5 is_stmt 1 view .LVU479
 1419              		.loc 1 376 15 is_stmt 0 view .LVU480
 1420 0002 007C     		ldrb	r0, [r0, #16]	@ zero_extendqisi2
 1421              	.LVL101:
 1422              		.loc 1 376 15 view .LVU481
 1423 0004 7047     		bx	lr
 1424              	.LVL102:
 1425              	.L74:
 374:Device/Dev_ICM20602.c ****         return false;
 1426              		.loc 1 374 16 view .LVU482
 1427 0006 0020     		movs	r0, #0
 1428              	.LVL103:
 377:Device/Dev_ICM20602.c **** }
 1429              		.loc 1 377 1 view .LVU483
 1430 0008 7047     		bx	lr
 1431              		.cfi_endproc
 1432              	.LFE10:
 1434              		.section	.text.DevICM20602_Sample,"ax",%progbits
 1435              		.align	1
 1436              		.syntax unified
 1437              		.thumb
 1438              		.thumb_func
 1439              		.fpu fpv5-d16
 1441              	DevICM20602_Sample:
 1442              	.LVL104:
 1443              	.LFB11:
 378:Device/Dev_ICM20602.c **** 
 379:Device/Dev_ICM20602.c **** static bool DevICM20602_Sample(DevICM20602Obj_TypeDef *Obj)
 380:Device/Dev_ICM20602.c **** {
 1444              		.loc 1 380 1 is_stmt 1 view -0
 1445              		.cfi_startproc
 1446              		@ args = 0, pretend = 0, frame = 0
 1447              		@ frame_needed = 0, uses_anonymous_args = 0
ARM GAS  /var/folders/8_/_8bzxkcs1296m80nzxdrn9q80000gn/T//ccHk9u7h.s 			page 39


 1448              		@ link register save eliminated.
 381:Device/Dev_ICM20602.c ****     if (Obj == NULL)
 1449              		.loc 1 381 5 view .LVU485
 1450              		.loc 1 381 8 is_stmt 0 view .LVU486
 1451 0000 08B1     		cbz	r0, .L77
 382:Device/Dev_ICM20602.c ****         return false;
 383:Device/Dev_ICM20602.c **** 
 384:Device/Dev_ICM20602.c ****     return true;
 1452              		.loc 1 384 12 view .LVU487
 1453 0002 0120     		movs	r0, #1
 1454              	.LVL105:
 1455              		.loc 1 384 12 view .LVU488
 1456 0004 7047     		bx	lr
 1457              	.LVL106:
 1458              	.L77:
 382:Device/Dev_ICM20602.c ****         return false;
 1459              		.loc 1 382 16 view .LVU489
 1460 0006 0020     		movs	r0, #0
 1461              	.LVL107:
 385:Device/Dev_ICM20602.c **** }
 1462              		.loc 1 385 1 view .LVU490
 1463 0008 7047     		bx	lr
 1464              		.cfi_endproc
 1465              	.LFE11:
 1467              		.section	.text.DevICM20602_Get_InitError,"ax",%progbits
 1468              		.align	1
 1469              		.syntax unified
 1470              		.thumb
 1471              		.thumb_func
 1472              		.fpu fpv5-d16
 1474              	DevICM20602_Get_InitError:
 1475              	.LVL108:
 1476              	.LFB13:
 386:Device/Dev_ICM20602.c **** 
 387:Device/Dev_ICM20602.c **** static IMUData_TypeDef DevICM20602_Get_Data(DevICM20602Obj_TypeDef *Obj)
 388:Device/Dev_ICM20602.c **** {
 389:Device/Dev_ICM20602.c ****     IMUData_TypeDef tmp;
 390:Device/Dev_ICM20602.c ****     memset(&tmp, NULL, sizeof(tmp));
 391:Device/Dev_ICM20602.c **** 
 392:Device/Dev_ICM20602.c ****     if ((Obj->error.code == ICM20602_No_Error) && !Obj->update)
 393:Device/Dev_ICM20602.c ****     {
 394:Device/Dev_ICM20602.c ****         Obj->drdy = false;
 395:Device/Dev_ICM20602.c ****         return Obj->OriData;
 396:Device/Dev_ICM20602.c ****     }
 397:Device/Dev_ICM20602.c **** 
 398:Device/Dev_ICM20602.c ****     return tmp;
 399:Device/Dev_ICM20602.c **** }
 400:Device/Dev_ICM20602.c **** 
 401:Device/Dev_ICM20602.c **** static IMU_Error_TypeDef DevICM20602_Get_InitError(DevICM20602Obj_TypeDef *Obj)
 402:Device/Dev_ICM20602.c **** {
 1477              		.loc 1 402 1 is_stmt 1 view -0
 1478              		.cfi_startproc
 1479              		@ args = 0, pretend = 0, frame = 0
 1480              		@ frame_needed = 0, uses_anonymous_args = 0
 1481              		@ link register save eliminated.
 1482              		.loc 1 402 1 is_stmt 0 view .LVU492
 1483 0000 8446     		mov	ip, r0
ARM GAS  /var/folders/8_/_8bzxkcs1296m80nzxdrn9q80000gn/T//ccHk9u7h.s 			page 40


 403:Device/Dev_ICM20602.c ****     return Obj->error;
 1484              		.loc 1 403 5 is_stmt 1 view .LVU493
 1485              		.loc 1 403 15 is_stmt 0 view .LVU494
 1486 0002 2031     		adds	r1, r1, #32
 1487              	.LVL109:
 1488              		.loc 1 403 15 view .LVU495
 1489 0004 0FC9     		ldm	r1, {r0, r1, r2, r3}
 1490              	.LVL110:
 1491              		.loc 1 403 15 view .LVU496
 1492 0006 8CE80F00 		stm	ip, {r0, r1, r2, r3}
 404:Device/Dev_ICM20602.c **** }
 1493              		.loc 1 404 1 view .LVU497
 1494 000a 6046     		mov	r0, ip
 1495 000c 7047     		bx	lr
 1496              		.cfi_endproc
 1497              	.LFE13:
 1499              		.section	.text.DevICM20602_Get_Scale,"ax",%progbits
 1500              		.align	1
 1501              		.syntax unified
 1502              		.thumb
 1503              		.thumb_func
 1504              		.fpu fpv5-d16
 1506              	DevICM20602_Get_Scale:
 1507              	.LVL111:
 1508              	.LFB14:
 405:Device/Dev_ICM20602.c **** 
 406:Device/Dev_ICM20602.c **** static IMUModuleScale_TypeDef DevICM20602_Get_Scale(const DevICM20602Obj_TypeDef *Obj)
 407:Device/Dev_ICM20602.c **** {
 1509              		.loc 1 407 1 is_stmt 1 view -0
 1510              		.cfi_startproc
 1511              		@ args = 0, pretend = 0, frame = 24
 1512              		@ frame_needed = 0, uses_anonymous_args = 0
 1513              		@ link register save eliminated.
 1514              		.loc 1 407 1 is_stmt 0 view .LVU499
 1515 0000 86B0     		sub	sp, sp, #24
 1516              	.LCFI20:
 1517              		.cfi_def_cfa_offset 24
 408:Device/Dev_ICM20602.c ****     IMUModuleScale_TypeDef scale;
 1518              		.loc 1 408 5 is_stmt 1 view .LVU500
 409:Device/Dev_ICM20602.c **** 
 410:Device/Dev_ICM20602.c ****     scale.acc_scale = Obj->acc_scale;
 1519              		.loc 1 410 5 view .LVU501
 1520              		.loc 1 410 26 is_stmt 0 view .LVU502
 1521 0002 8369     		ldr	r3, [r0, #24]	@ float
 1522              		.loc 1 410 21 view .LVU503
 1523 0004 0293     		str	r3, [sp, #8]	@ float
 411:Device/Dev_ICM20602.c ****     scale.gyr_scale = Obj->gyr_scale;
 1524              		.loc 1 411 5 is_stmt 1 view .LVU504
 1525              		.loc 1 411 26 is_stmt 0 view .LVU505
 1526 0006 C369     		ldr	r3, [r0, #28]	@ float
 1527              		.loc 1 411 21 view .LVU506
 1528 0008 0393     		str	r3, [sp, #12]	@ float
 412:Device/Dev_ICM20602.c **** 
 413:Device/Dev_ICM20602.c ****     return scale;
 1529              		.loc 1 413 5 is_stmt 1 view .LVU507
 1530              		.loc 1 413 12 is_stmt 0 view .LVU508
 1531 000a 02AB     		add	r3, sp, #8
ARM GAS  /var/folders/8_/_8bzxkcs1296m80nzxdrn9q80000gn/T//ccHk9u7h.s 			page 41


 1532 000c 93E80300 		ldm	r3, {r0, r1}
 1533              	.LVL112:
 1534              		.loc 1 413 12 view .LVU509
 1535 0010 06AB     		add	r3, sp, #24
 1536 0012 03E90300 		stmdb	r3, {r0, r1}
 414:Device/Dev_ICM20602.c **** }
 1537              		.loc 1 414 1 view .LVU510
 1538 0016 9DED040A 		vldr.32	s0, [sp, #16]
 1539 001a DDED050A 		vldr.32	s1, [sp, #20]
 1540 001e 06B0     		add	sp, sp, #24
 1541              	.LCFI21:
 1542              		.cfi_def_cfa_offset 0
 1543              		@ sp needed
 1544 0020 7047     		bx	lr
 1545              		.cfi_endproc
 1546              	.LFE14:
 1548              		.section	.text.DevICM20602_Get_Specified_AngularSpeed_Diff,"ax",%progbits
 1549              		.align	1
 1550              		.syntax unified
 1551              		.thumb
 1552              		.thumb_func
 1553              		.fpu fpv5-d16
 1555              	DevICM20602_Get_Specified_AngularSpeed_Diff:
 1556              	.LVL113:
 1557              	.LFB15:
 415:Device/Dev_ICM20602.c **** 
 416:Device/Dev_ICM20602.c **** /* get specified angular speed diff per sec */
 417:Device/Dev_ICM20602.c **** static float DevICM20602_Get_Specified_AngularSpeed_Diff(const DevICM20602Obj_TypeDef *Obj)
 418:Device/Dev_ICM20602.c **** {
 1558              		.loc 1 418 1 is_stmt 1 view -0
 1559              		.cfi_startproc
 1560              		@ args = 0, pretend = 0, frame = 0
 1561              		@ frame_needed = 0, uses_anonymous_args = 0
 1562              		@ link register save eliminated.
 419:Device/Dev_ICM20602.c ****     return Obj->PHY_GyrTrip_Val / 1000.0f;
 1563              		.loc 1 419 5 view .LVU512
 1564              		.loc 1 419 15 is_stmt 0 view .LVU513
 1565 0000 C38A     		ldrh	r3, [r0, #22]
 1566 0002 07EE903A 		vmov	s15, r3	@ int
 1567              		.loc 1 419 33 view .LVU514
 1568 0006 F8EEE77A 		vcvt.f32.s32	s15, s15
 420:Device/Dev_ICM20602.c **** }...
 1569              		.loc 1 420 1 view .LVU515
 1570 000a 9FED020A 		vldr.32	s0, .L82
 1571 000e 87EE800A 		vdiv.f32	s0, s15, s0
 1572 0012 7047     		bx	lr
 1573              	.L83:
 1574              		.align	2
 1575              	.L82:
 1576 0014 00007A44 		.word	1148846080
 1577              		.cfi_endproc
 1578              	.LFE15:
 1580              		.section	.text.DevICM20602_Get_Data,"ax",%progbits
 1581              		.align	1
 1582              		.syntax unified
 1583              		.thumb
 1584              		.thumb_func
ARM GAS  /var/folders/8_/_8bzxkcs1296m80nzxdrn9q80000gn/T//ccHk9u7h.s 			page 42


 1585              		.fpu fpv5-d16
 1587              	DevICM20602_Get_Data:
 1588              	.LVL114:
 1589              	.LFB12:
 388:Device/Dev_ICM20602.c **** {
 1590              		.loc 1 388 1 is_stmt 1 view -0
 1591              		.cfi_startproc
 1592              		@ args = 0, pretend = 0, frame = 80
 1593              		@ frame_needed = 0, uses_anonymous_args = 0
 388:Device/Dev_ICM20602.c **** {
 1594              		.loc 1 388 1 is_stmt 0 view .LVU517
 1595 0000 30B5     		push	{r4, r5, lr}
 1596              	.LCFI22:
 1597              		.cfi_def_cfa_offset 12
 1598              		.cfi_offset 4, -12
 1599              		.cfi_offset 5, -8
 1600              		.cfi_offset 14, -4
 1601 0002 95B0     		sub	sp, sp, #84
 1602              	.LCFI23:
 1603              		.cfi_def_cfa_offset 96
 1604 0004 0446     		mov	r4, r0
 1605 0006 0D46     		mov	r5, r1
 389:Device/Dev_ICM20602.c ****     IMUData_TypeDef tmp;
 1606              		.loc 1 389 5 is_stmt 1 view .LVU518
 390:Device/Dev_ICM20602.c ****     memset(&tmp, NULL, sizeof(tmp));
 1607              		.loc 1 390 5 view .LVU519
 1608 0008 4C22     		movs	r2, #76
 1609 000a 0021     		movs	r1, #0
 1610              	.LVL115:
 390:Device/Dev_ICM20602.c ****     memset(&tmp, NULL, sizeof(tmp));
 1611              		.loc 1 390 5 is_stmt 0 view .LVU520
 1612 000c 01A8     		add	r0, sp, #4
 1613              	.LVL116:
 390:Device/Dev_ICM20602.c ****     memset(&tmp, NULL, sizeof(tmp));
 1614              		.loc 1 390 5 view .LVU521
 1615 000e FFF7FEFF 		bl	memset
 1616              	.LVL117:
 392:Device/Dev_ICM20602.c ****     if ((Obj->error.code == ICM20602_No_Error) && !Obj->update)
 1617              		.loc 1 392 5 is_stmt 1 view .LVU522
 392:Device/Dev_ICM20602.c ****     if ((Obj->error.code == ICM20602_No_Error) && !Obj->update)
 1618              		.loc 1 392 20 is_stmt 0 view .LVU523
 1619 0012 95F82030 		ldrb	r3, [r5, #32]	@ zero_extendqisi2
 392:Device/Dev_ICM20602.c ****     if ((Obj->error.code == ICM20602_No_Error) && !Obj->update)
 1620              		.loc 1 392 8 view .LVU524
 1621 0016 0BB9     		cbnz	r3, .L85
 392:Device/Dev_ICM20602.c ****     if ((Obj->error.code == ICM20602_No_Error) && !Obj->update)
 1622              		.loc 1 392 55 discriminator 1 view .LVU525
 1623 0018 6B7C     		ldrb	r3, [r5, #17]	@ zero_extendqisi2
 392:Device/Dev_ICM20602.c ****     if ((Obj->error.code == ICM20602_No_Error) && !Obj->update)
 1624              		.loc 1 392 48 discriminator 1 view .LVU526
 1625 001a 3BB1     		cbz	r3, .L88
 1626              	.L85:
 398:Device/Dev_ICM20602.c ****     return tmp;
 1627              		.loc 1 398 5 is_stmt 1 view .LVU527
 398:Device/Dev_ICM20602.c ****     return tmp;
 1628              		.loc 1 398 12 is_stmt 0 view .LVU528
 1629 001c 4C22     		movs	r2, #76
ARM GAS  /var/folders/8_/_8bzxkcs1296m80nzxdrn9q80000gn/T//ccHk9u7h.s 			page 43


 1630 001e 0021     		movs	r1, #0
 1631 0020 2046     		mov	r0, r4
 1632 0022 FFF7FEFF 		bl	memset
 1633              	.LVL118:
 1634              	.L84:
 399:Device/Dev_ICM20602.c **** }
 1635              		.loc 1 399 1 view .LVU529
 1636 0026 2046     		mov	r0, r4
 1637 0028 15B0     		add	sp, sp, #84
 1638              	.LCFI24:
 1639              		.cfi_remember_state
 1640              		.cfi_def_cfa_offset 12
 1641              		@ sp needed
 1642 002a 30BD     		pop	{r4, r5, pc}
 1643              	.LVL119:
 1644              	.L88:
 1645              	.LCFI25:
 1646              		.cfi_restore_state
 394:Device/Dev_ICM20602.c ****         Obj->drdy = false;
 1647              		.loc 1 394 9 is_stmt 1 view .LVU530
 394:Device/Dev_ICM20602.c ****         Obj->drdy = false;
 1648              		.loc 1 394 19 is_stmt 0 view .LVU531
 1649 002c 2B74     		strb	r3, [r5, #16]
 395:Device/Dev_ICM20602.c ****         return Obj->OriData;
 1650              		.loc 1 395 9 is_stmt 1 view .LVU532
 395:Device/Dev_ICM20602.c ****         return Obj->OriData;
 1651              		.loc 1 395 19 is_stmt 0 view .LVU533
 1652 002e 4C22     		movs	r2, #76
 1653 0030 05F13101 		add	r1, r5, #49
 1654 0034 2046     		mov	r0, r4
 1655 0036 FFF7FEFF 		bl	memcpy
 1656              	.LVL120:
 1657 003a F4E7     		b	.L84
 1658              		.cfi_endproc
 1659              	.LFE12:
 1661              		.global	DevICM20602
 1662              		.section	.data.DevICM20602,"aw"
 1663              		.align	2
 1666              	DevICM20602:
 1667 0000 00000000 		.word	DevICM20602_Detect
 1668 0004 00000000 		.word	DevICM20602_Config
 1669 0008 00000000 		.word	DevICM20602_PreInit
 1670 000c 00000000 		.word	DevICM20602_Init
 1671 0010 00000000 		.word	DevICM20602_SetDRDY
 1672 0014 00000000 		.word	DevICM20602_GetReady
 1673 0018 00000000 		.word	DevICM20602_SwReset
 1674 001c 00000000 		.word	DevICM20602_Sample
 1675 0020 00000000 		.word	DevICM20602_Get_Data
 1676 0024 00000000 		.word	DevICM20602_Get_InitError
 1677 0028 00000000 		.word	DevICM20602_Get_Scale
 1678 002c 00000000 		.word	DevICM20602_Get_Specified_AngularSpeed_Diff
 1679              		.section	.rodata.__FUNCTION__.0,"a"
 1680              		.align	2
 1681              		.set	.LANCHOR0,. + 0
 1684              	__FUNCTION__.0:
 1685 0000 44657649 		.ascii	"DevICM20602_Init\000"
 1685      434D3230 
ARM GAS  /var/folders/8_/_8bzxkcs1296m80nzxdrn9q80000gn/T//ccHk9u7h.s 			page 44


 1685      3630325F 
 1685      496E6974 
 1685      00
 1686              		.text
 1687              	.Letext0:
 1688              		.file 3 "/opt/homebrew/Cellar/arm-none-eabi-gcc/10.3-2021.07/gcc/arm-none-eabi/include/machine/_de
 1689              		.file 4 "/opt/homebrew/Cellar/arm-none-eabi-gcc/10.3-2021.07/gcc/arm-none-eabi/include/sys/_stdint
 1690              		.file 5 "Device/Dev_ICM20602.h"
 1691              		.file 6 "<built-in>"
ARM GAS  /var/folders/8_/_8bzxkcs1296m80nzxdrn9q80000gn/T//ccHk9u7h.s 			page 45


DEFINED SYMBOLS
                            *ABS*:0000000000000000 Dev_ICM20602.c
/var/folders/8_/_8bzxkcs1296m80nzxdrn9q80000gn/T//ccHk9u7h.s:17     .text.DevICM20602_Detect:0000000000000000 $t
/var/folders/8_/_8bzxkcs1296m80nzxdrn9q80000gn/T//ccHk9u7h.s:24     .text.DevICM20602_Detect:0000000000000000 DevICM20602_Detect
/var/folders/8_/_8bzxkcs1296m80nzxdrn9q80000gn/T//ccHk9u7h.s:118    .text.DevICM20602_Reg_Read:0000000000000000 $t
/var/folders/8_/_8bzxkcs1296m80nzxdrn9q80000gn/T//ccHk9u7h.s:124    .text.DevICM20602_Reg_Read:0000000000000000 DevICM20602_Reg_Read
/var/folders/8_/_8bzxkcs1296m80nzxdrn9q80000gn/T//ccHk9u7h.s:231    .text.DevICM20602_Reg_Write:0000000000000000 $t
/var/folders/8_/_8bzxkcs1296m80nzxdrn9q80000gn/T//ccHk9u7h.s:237    .text.DevICM20602_Reg_Write:0000000000000000 DevICM20602_Reg_Write
/var/folders/8_/_8bzxkcs1296m80nzxdrn9q80000gn/T//ccHk9u7h.s:336    .text.DevICM20602_Config:0000000000000000 $t
/var/folders/8_/_8bzxkcs1296m80nzxdrn9q80000gn/T//ccHk9u7h.s:342    .text.DevICM20602_Config:0000000000000000 DevICM20602_Config
/var/folders/8_/_8bzxkcs1296m80nzxdrn9q80000gn/T//ccHk9u7h.s:388    .text.DevICM20602_Config:0000000000000038 $d
/var/folders/8_/_8bzxkcs1296m80nzxdrn9q80000gn/T//ccHk9u7h.s:392    .text.DevICM20602_Config:000000000000003c $t
/var/folders/8_/_8bzxkcs1296m80nzxdrn9q80000gn/T//ccHk9u7h.s:409    .text.DevICM20602_Config:0000000000000052 $d
/var/folders/8_/_8bzxkcs1296m80nzxdrn9q80000gn/T//ccHk9u7h.s:413    .text.DevICM20602_Config:0000000000000056 $t
/var/folders/8_/_8bzxkcs1296m80nzxdrn9q80000gn/T//ccHk9u7h.s:543    .text.DevICM20602_Config:00000000000000e0 $d
/var/folders/8_/_8bzxkcs1296m80nzxdrn9q80000gn/T//ccHk9u7h.s:551    .text.DevICM20602_PreInit:0000000000000000 $t
/var/folders/8_/_8bzxkcs1296m80nzxdrn9q80000gn/T//ccHk9u7h.s:557    .text.DevICM20602_PreInit:0000000000000000 DevICM20602_PreInit
/var/folders/8_/_8bzxkcs1296m80nzxdrn9q80000gn/T//ccHk9u7h.s:586    .text.DevICM20602_SetDRDY:0000000000000000 $t
/var/folders/8_/_8bzxkcs1296m80nzxdrn9q80000gn/T//ccHk9u7h.s:592    .text.DevICM20602_SetDRDY:0000000000000000 DevICM20602_SetDRDY
/var/folders/8_/_8bzxkcs1296m80nzxdrn9q80000gn/T//ccHk9u7h.s:614    .text.DevICM20602_SwReset:0000000000000000 $t
/var/folders/8_/_8bzxkcs1296m80nzxdrn9q80000gn/T//ccHk9u7h.s:620    .text.DevICM20602_SwReset:0000000000000000 DevICM20602_SwReset
/var/folders/8_/_8bzxkcs1296m80nzxdrn9q80000gn/T//ccHk9u7h.s:664    .rodata.DevICM20602_Init.str1.4:0000000000000000 $d
/var/folders/8_/_8bzxkcs1296m80nzxdrn9q80000gn/T//ccHk9u7h.s:668    .text.DevICM20602_Init:0000000000000000 $t
/var/folders/8_/_8bzxkcs1296m80nzxdrn9q80000gn/T//ccHk9u7h.s:674    .text.DevICM20602_Init:0000000000000000 DevICM20602_Init
/var/folders/8_/_8bzxkcs1296m80nzxdrn9q80000gn/T//ccHk9u7h.s:1393   .text.DevICM20602_Init:00000000000002f8 $d
/var/folders/8_/_8bzxkcs1296m80nzxdrn9q80000gn/T//ccHk9u7h.s:1401   .text.DevICM20602_GetReady:0000000000000000 $t
/var/folders/8_/_8bzxkcs1296m80nzxdrn9q80000gn/T//ccHk9u7h.s:1407   .text.DevICM20602_GetReady:0000000000000000 DevICM20602_GetReady
/var/folders/8_/_8bzxkcs1296m80nzxdrn9q80000gn/T//ccHk9u7h.s:1435   .text.DevICM20602_Sample:0000000000000000 $t
/var/folders/8_/_8bzxkcs1296m80nzxdrn9q80000gn/T//ccHk9u7h.s:1441   .text.DevICM20602_Sample:0000000000000000 DevICM20602_Sample
/var/folders/8_/_8bzxkcs1296m80nzxdrn9q80000gn/T//ccHk9u7h.s:1468   .text.DevICM20602_Get_InitError:0000000000000000 $t
/var/folders/8_/_8bzxkcs1296m80nzxdrn9q80000gn/T//ccHk9u7h.s:1474   .text.DevICM20602_Get_InitError:0000000000000000 DevICM20602_Get_InitError
/var/folders/8_/_8bzxkcs1296m80nzxdrn9q80000gn/T//ccHk9u7h.s:1500   .text.DevICM20602_Get_Scale:0000000000000000 $t
/var/folders/8_/_8bzxkcs1296m80nzxdrn9q80000gn/T//ccHk9u7h.s:1506   .text.DevICM20602_Get_Scale:0000000000000000 DevICM20602_Get_Scale
/var/folders/8_/_8bzxkcs1296m80nzxdrn9q80000gn/T//ccHk9u7h.s:1549   .text.DevICM20602_Get_Specified_AngularSpeed_Diff:0000000000000000 $t
/var/folders/8_/_8bzxkcs1296m80nzxdrn9q80000gn/T//ccHk9u7h.s:1555   .text.DevICM20602_Get_Specified_AngularSpeed_Diff:0000000000000000 DevICM20602_Get_Specified_AngularSpeed_Diff
/var/folders/8_/_8bzxkcs1296m80nzxdrn9q80000gn/T//ccHk9u7h.s:1576   .text.DevICM20602_Get_Specified_AngularSpeed_Diff:0000000000000014 $d
/var/folders/8_/_8bzxkcs1296m80nzxdrn9q80000gn/T//ccHk9u7h.s:1581   .text.DevICM20602_Get_Data:0000000000000000 $t
/var/folders/8_/_8bzxkcs1296m80nzxdrn9q80000gn/T//ccHk9u7h.s:1587   .text.DevICM20602_Get_Data:0000000000000000 DevICM20602_Get_Data
/var/folders/8_/_8bzxkcs1296m80nzxdrn9q80000gn/T//ccHk9u7h.s:1666   .data.DevICM20602:0000000000000000 DevICM20602
/var/folders/8_/_8bzxkcs1296m80nzxdrn9q80000gn/T//ccHk9u7h.s:1663   .data.DevICM20602:0000000000000000 $d
/var/folders/8_/_8bzxkcs1296m80nzxdrn9q80000gn/T//ccHk9u7h.s:1680   .rodata.__FUNCTION__.0:0000000000000000 $d
/var/folders/8_/_8bzxkcs1296m80nzxdrn9q80000gn/T//ccHk9u7h.s:1684   .rodata.__FUNCTION__.0:0000000000000000 __FUNCTION__.0

UNDEFINED SYMBOLS
memset
memcpy
