ARM GAS  C:\Users\8bit\AppData\Local\Temp\ccWQVCTL.s 			page 1


   1              		.cpu cortex-m4
   2              		.arch armv7e-m
   3              		.fpu fpv4-sp-d16
   4              		.eabi_attribute 27, 1
   5              		.eabi_attribute 28, 1
   6              		.eabi_attribute 20, 1
   7              		.eabi_attribute 21, 1
   8              		.eabi_attribute 23, 3
   9              		.eabi_attribute 24, 1
  10              		.eabi_attribute 25, 1
  11              		.eabi_attribute 26, 1
  12              		.eabi_attribute 30, 1
  13              		.eabi_attribute 34, 1
  14              		.eabi_attribute 18, 4
  15              		.file	"Dev_DPS310.c"
  16              		.text
  17              	.Ltext0:
  18              		.cfi_sections	.debug_frame
  19              		.section	.text.DevDPS310_GetScale,"ax",%progbits
  20              		.align	1
  21              		.syntax unified
  22              		.thumb
  23              		.thumb_func
  25              	DevDPS310_GetScale:
  26              	.LVL0:
  27              	.LFB1:
  28              		.file 1 "Device/Dev_DPS310.c"
   1:Device/Dev_DPS310.c **** #include "Dev_DPS310.h"
   2:Device/Dev_DPS310.c **** 
   3:Device/Dev_DPS310.c **** #define DPS310_WAIT_REG_TIMEOUT 100
   4:Device/Dev_DPS310.c **** 
   5:Device/Dev_DPS310.c **** #define DPS310_SAMPLE_RATE DPS310_CFG_RATE_32_MEAS
   6:Device/Dev_DPS310.c **** #define DPS310_PROC_TIME   DPS310_PRS_CFG_PM_PRC_16_TIMES
   7:Device/Dev_DPS310.c **** #define DPS310_MAX_SAMPLE_RATE 10 /* unit:ms period 10ms 100Hz */
   8:Device/Dev_DPS310.c **** #define DPS310_MIN_SAMPLE_RATE 25 /* unit:ms period 25ms 40Hz  */
   9:Device/Dev_DPS310.c **** 
  10:Device/Dev_DPS310.c **** /* internal function */
  11:Device/Dev_DPS310.c **** static bool DevDPS310_WriteByteToReg(DevDPS310Obj_TypeDef *obj, uint8_t reg_addr, uint8_t data);
  12:Device/Dev_DPS310.c **** static bool DevDPS310_WaitRegValue(DevDPS310Obj_TypeDef *obj, uint8_t reg_addr, uint8_t reg_value, 
  13:Device/Dev_DPS310.c **** static bool DevDPS310_Temperature_Sensor(DevDPS310Obj_TypeDef *obj, uint8_t *p_sensor);
  14:Device/Dev_DPS310.c **** static bool DevDPS310_Get_ProdID(DevDPS310Obj_TypeDef *obj);
  15:Device/Dev_DPS310.c **** static float DevDPS310_GetScale(DevDPS310Obj_TypeDef *obj, uint8_t rate);
  16:Device/Dev_DPS310.c **** static bool DevDPS310_WakeUp(DevDPS310Obj_TypeDef *obj, uint8_t mode);
  17:Device/Dev_DPS310.c **** static bool DevDPS310_Sleep(DevDPS310Obj_TypeDef *obj);
  18:Device/Dev_DPS310.c **** static bool DevDPS310_Reset(DevDPS310Obj_TypeDef *obj);
  19:Device/Dev_DPS310.c **** static bool DevDPS310_Configure_Temperature(DevDPS310Obj_TypeDef *obj, uint8_t data);
  20:Device/Dev_DPS310.c **** static int32_t DevDPS310_GetTwoComplementOf(uint32_t value, uint8_t length);
  21:Device/Dev_DPS310.c **** static bool DevDPS310_Get_Cali_Coefs(DevDPS310Obj_TypeDef *obj);
  22:Device/Dev_DPS310.c **** static bool DevDPS310_ReadLenByteToReg(DevDPS310Obj_TypeDef *obj, uint8_t reg_addr, uint8_t *data, 
  23:Device/Dev_DPS310.c **** 
  24:Device/Dev_DPS310.c **** /* external function */
  25:Device/Dev_DPS310.c **** static bool DevDPS310_Init(DevDPS310Obj_TypeDef *obj);
  26:Device/Dev_DPS310.c **** static bool DevDPS310_Sample(DevDPS310Obj_TypeDef *obj);
  27:Device/Dev_DPS310.c **** static bool DevDPS310_GetReady(DevDPS310Obj_TypeDef *obj);
  28:Device/Dev_DPS310.c **** static DevDPS310_Data_TypeDef DevDPS310_Get_Data(DevDPS310Obj_TypeDef *obj);
  29:Device/Dev_DPS310.c **** 
  30:Device/Dev_DPS310.c **** /* external object */
ARM GAS  C:\Users\8bit\AppData\Local\Temp\ccWQVCTL.s 			page 2


  31:Device/Dev_DPS310.c **** DevDPS310_TypeDef DevDPS310 = {
  32:Device/Dev_DPS310.c ****     .init = DevDPS310_Init,
  33:Device/Dev_DPS310.c ****     .sample = DevDPS310_Sample,
  34:Device/Dev_DPS310.c ****     .ready = DevDPS310_GetReady,
  35:Device/Dev_DPS310.c ****     .get_data = DevDPS310_Get_Data,
  36:Device/Dev_DPS310.c **** };
  37:Device/Dev_DPS310.c **** 
  38:Device/Dev_DPS310.c **** static bool DevDPS310_Init(DevDPS310Obj_TypeDef *obj)
  39:Device/Dev_DPS310.c **** {
  40:Device/Dev_DPS310.c ****     if(obj  && obj->bus_delay)
  41:Device/Dev_DPS310.c ****     {
  42:Device/Dev_DPS310.c ****         obj->error = DevDPS310_Error_None;
  43:Device/Dev_DPS310.c **** 
  44:Device/Dev_DPS310.c ****         if(!DevDPS310_Get_ProdID(obj))
  45:Device/Dev_DPS310.c ****         {
  46:Device/Dev_DPS310.c ****             obj->error = DevDPS310_Error_BadID;
  47:Device/Dev_DPS310.c ****             return false;
  48:Device/Dev_DPS310.c ****         }
  49:Device/Dev_DPS310.c **** 
  50:Device/Dev_DPS310.c ****         if(!DevDPS310_Reset(obj))
  51:Device/Dev_DPS310.c ****         {
  52:Device/Dev_DPS310.c ****             obj->error = DevDPS310_Error_Reset_Filed;
  53:Device/Dev_DPS310.c ****             return false;
  54:Device/Dev_DPS310.c ****         }
  55:Device/Dev_DPS310.c **** 
  56:Device/Dev_DPS310.c ****         obj->bus_delay(50);
  57:Device/Dev_DPS310.c **** 
  58:Device/Dev_DPS310.c ****         /* get calibrate data */
  59:Device/Dev_DPS310.c ****         if(!DevDPS310_Get_Cali_Coefs(obj))
  60:Device/Dev_DPS310.c ****         {
  61:Device/Dev_DPS310.c ****             obj->error = DevDPS310_Error_CaliCoefs;
  62:Device/Dev_DPS310.c ****             return false;
  63:Device/Dev_DPS310.c ****         }
  64:Device/Dev_DPS310.c **** 
  65:Device/Dev_DPS310.c ****         /* configure pressure sensor */
  66:Device/Dev_DPS310.c ****         if(DevDPS310_WriteByteToReg(obj, DPS310_PRS_CFG_REG, DPS310_SAMPLE_RATE | DPS310_PROC_TIME)
  67:Device/Dev_DPS310.c ****         {
  68:Device/Dev_DPS310.c ****             obj->pres_factory_scale = DevDPS310_GetScale(obj, DPS310_PROC_TIME);
  69:Device/Dev_DPS310.c ****         }
  70:Device/Dev_DPS310.c ****         else
  71:Device/Dev_DPS310.c ****         {
  72:Device/Dev_DPS310.c ****             /* presesure init error */
  73:Device/Dev_DPS310.c ****             obj->error = DevDPS310_Error_PressureInit;
  74:Device/Dev_DPS310.c ****             return false;
  75:Device/Dev_DPS310.c ****         }
  76:Device/Dev_DPS310.c **** 
  77:Device/Dev_DPS310.c ****         /* configure temprature sensor */
  78:Device/Dev_DPS310.c ****         if(DevDPS310_Configure_Temperature(obj, DPS310_SAMPLE_RATE | DPS310_PROC_TIME))
  79:Device/Dev_DPS310.c ****         {
  80:Device/Dev_DPS310.c ****             obj->temp_factory_scale = DevDPS310_GetScale(obj, DPS310_PROC_TIME);
  81:Device/Dev_DPS310.c ****         }
  82:Device/Dev_DPS310.c ****         else
  83:Device/Dev_DPS310.c ****         {
  84:Device/Dev_DPS310.c ****             /* temprature init error */
  85:Device/Dev_DPS310.c ****             obj->error = DevDPS310_Error_TempratureInit;
  86:Device/Dev_DPS310.c ****             return false;
  87:Device/Dev_DPS310.c ****         }
ARM GAS  C:\Users\8bit\AppData\Local\Temp\ccWQVCTL.s 			page 3


  88:Device/Dev_DPS310.c **** 
  89:Device/Dev_DPS310.c ****         // set pressure and temperature result bit-shift (required when the oversampling rate is >8
  90:Device/Dev_DPS310.c ****         DevDPS310_WriteByteToReg(obj, DPS310_CFG_REG_REG, DPS310_CFG_RET_TMP_SHIFT_EN | DPS310_CFG_
  91:Device/Dev_DPS310.c **** 
  92:Device/Dev_DPS310.c ****         // Continuous pressure and temperature measurement
  93:Device/Dev_DPS310.c ****         DevDPS310_WriteByteToReg(obj, DPS310_MEAS_CFG_REG, DPS310_MEAS_CFG_MEAS_CTRL_CONTINUOUS_PRS
  94:Device/Dev_DPS310.c **** 
  95:Device/Dev_DPS310.c ****         obj->DevAddr = DPS310_I2C_ADDR;
  96:Device/Dev_DPS310.c **** 
  97:Device/Dev_DPS310.c ****         return true;
  98:Device/Dev_DPS310.c ****     }
  99:Device/Dev_DPS310.c **** 
 100:Device/Dev_DPS310.c ****     return false;
 101:Device/Dev_DPS310.c **** }
 102:Device/Dev_DPS310.c **** 
 103:Device/Dev_DPS310.c **** static float DevDPS310_GetScale(DevDPS310Obj_TypeDef *obj, uint8_t rate)
 104:Device/Dev_DPS310.c **** {
  29              		.loc 1 104 1 view -0
  30              		.cfi_startproc
  31              		@ args = 0, pretend = 0, frame = 0
  32              		@ frame_needed = 0, uses_anonymous_args = 0
  33              		@ link register save eliminated.
 105:Device/Dev_DPS310.c ****     if(obj)
  34              		.loc 1 105 5 view .LVU1
  35              		.loc 1 105 7 is_stmt 0 view .LVU2
  36 0000 78B3     		cbz	r0, .L12
 106:Device/Dev_DPS310.c ****     {
 107:Device/Dev_DPS310.c ****         switch (rate)
  37              		.loc 1 107 9 is_stmt 1 view .LVU3
  38 0002 0729     		cmp	r1, #7
  39 0004 30D8     		bhi	.L13
  40 0006 DFE801F0 		tbb	[pc, r1]
  41              	.L4:
  42 000a 04       		.byte	(.L11-.L4)/2
  43 000b 09       		.byte	(.L10-.L4)/2
  44 000c 0E       		.byte	(.L9-.L4)/2
  45 000d 13       		.byte	(.L8-.L4)/2
  46 000e 18       		.byte	(.L7-.L4)/2
  47 000f 1D       		.byte	(.L6-.L4)/2
  48 0010 22       		.byte	(.L5-.L4)/2
  49 0011 27       		.byte	(.L3-.L4)/2
  50              		.p2align 1
  51              	.L11:
 108:Device/Dev_DPS310.c ****         {
 109:Device/Dev_DPS310.c ****             case DPS310_TMP_CFG_TMP_PRC_SINGLE:
 110:Device/Dev_DPS310.c ****                 obj->factory_scale = 524288.0f;
  52              		.loc 1 110 17 view .LVU4
  53              		.loc 1 110 36 is_stmt 0 view .LVU5
  54 0012 9FED170A 		vldr.32	s0, .L14
  55 0016 80ED040A 		vstr.32	s0, [r0, #16]
 111:Device/Dev_DPS310.c ****                 return 524288.0f;
  56              		.loc 1 111 17 is_stmt 1 view .LVU6
  57              		.loc 1 111 24 is_stmt 0 view .LVU7
  58 001a 7047     		bx	lr
  59              	.L10:
 112:Device/Dev_DPS310.c ****                 
 113:Device/Dev_DPS310.c ****             case DPS310_TMP_CFG_TMP_PRC_2_TIMES:
ARM GAS  C:\Users\8bit\AppData\Local\Temp\ccWQVCTL.s 			page 4


 114:Device/Dev_DPS310.c ****                 obj->factory_scale = 1572864.0f;
  60              		.loc 1 114 17 is_stmt 1 view .LVU8
  61              		.loc 1 114 36 is_stmt 0 view .LVU9
  62 001c 9FED150A 		vldr.32	s0, .L14+4
  63 0020 80ED040A 		vstr.32	s0, [r0, #16]
 115:Device/Dev_DPS310.c ****                 return 1572864.0f;
  64              		.loc 1 115 17 is_stmt 1 view .LVU10
  65              		.loc 1 115 24 is_stmt 0 view .LVU11
  66 0024 7047     		bx	lr
  67              	.L9:
 116:Device/Dev_DPS310.c **** 
 117:Device/Dev_DPS310.c ****             case DPS310_TMP_CFG_TMP_PRC_4_TIMES:
 118:Device/Dev_DPS310.c ****                 obj->factory_scale = 3670016.0f;
  68              		.loc 1 118 17 is_stmt 1 view .LVU12
  69              		.loc 1 118 36 is_stmt 0 view .LVU13
  70 0026 9FED140A 		vldr.32	s0, .L14+8
  71 002a 80ED040A 		vstr.32	s0, [r0, #16]
 119:Device/Dev_DPS310.c ****                 return 3670016.0f;
  72              		.loc 1 119 17 is_stmt 1 view .LVU14
  73              		.loc 1 119 24 is_stmt 0 view .LVU15
  74 002e 7047     		bx	lr
  75              	.L8:
 120:Device/Dev_DPS310.c **** 
 121:Device/Dev_DPS310.c ****             case DPS310_TMP_CFG_TMP_PRC_8_TIMES:
 122:Device/Dev_DPS310.c ****                 obj->factory_scale = 7864320.0f;
  76              		.loc 1 122 17 is_stmt 1 view .LVU16
  77              		.loc 1 122 36 is_stmt 0 view .LVU17
  78 0030 9FED120A 		vldr.32	s0, .L14+12
  79 0034 80ED040A 		vstr.32	s0, [r0, #16]
 123:Device/Dev_DPS310.c ****                 return 7864320.0f;
  80              		.loc 1 123 17 is_stmt 1 view .LVU18
  81              		.loc 1 123 24 is_stmt 0 view .LVU19
  82 0038 7047     		bx	lr
  83              	.L7:
 124:Device/Dev_DPS310.c **** 
 125:Device/Dev_DPS310.c ****             case DPS310_TMP_CFG_TMP_PRC_16_TIMES:
 126:Device/Dev_DPS310.c ****                 obj->factory_scale = 253952.0f;
  84              		.loc 1 126 17 is_stmt 1 view .LVU20
  85              		.loc 1 126 36 is_stmt 0 view .LVU21
  86 003a 9FED110A 		vldr.32	s0, .L14+16
  87 003e 80ED040A 		vstr.32	s0, [r0, #16]
 127:Device/Dev_DPS310.c ****                 return 253952.0f;
  88              		.loc 1 127 17 is_stmt 1 view .LVU22
  89              		.loc 1 127 24 is_stmt 0 view .LVU23
  90 0042 7047     		bx	lr
  91              	.L6:
 128:Device/Dev_DPS310.c **** 
 129:Device/Dev_DPS310.c ****             case DPS310_TMP_CFG_TMP_PRC_32_TIMES:
 130:Device/Dev_DPS310.c ****                 obj->factory_scale = 516096.0f;
  92              		.loc 1 130 17 is_stmt 1 view .LVU24
  93              		.loc 1 130 36 is_stmt 0 view .LVU25
  94 0044 9FED0F0A 		vldr.32	s0, .L14+20
  95 0048 80ED040A 		vstr.32	s0, [r0, #16]
 131:Device/Dev_DPS310.c ****                 return 516096.0f;
  96              		.loc 1 131 17 is_stmt 1 view .LVU26
  97              		.loc 1 131 24 is_stmt 0 view .LVU27
  98 004c 7047     		bx	lr
ARM GAS  C:\Users\8bit\AppData\Local\Temp\ccWQVCTL.s 			page 5


  99              	.L5:
 132:Device/Dev_DPS310.c **** 
 133:Device/Dev_DPS310.c ****             case DPS310_TMP_CFG_TMP_PRC_64_TIMES:
 134:Device/Dev_DPS310.c ****                 obj->factory_scale = 1040384.0f;
 100              		.loc 1 134 17 is_stmt 1 view .LVU28
 101              		.loc 1 134 36 is_stmt 0 view .LVU29
 102 004e 9FED0E0A 		vldr.32	s0, .L14+24
 103 0052 80ED040A 		vstr.32	s0, [r0, #16]
 135:Device/Dev_DPS310.c ****                 return 1040384.0f;
 104              		.loc 1 135 17 is_stmt 1 view .LVU30
 105              		.loc 1 135 24 is_stmt 0 view .LVU31
 106 0056 7047     		bx	lr
 107              	.L3:
 136:Device/Dev_DPS310.c **** 
 137:Device/Dev_DPS310.c ****             case DPS310_TMP_CFG_TMP_PRC_128_TIMES:
 138:Device/Dev_DPS310.c ****                 obj->factory_scale = 2088960.0f;
 108              		.loc 1 138 17 is_stmt 1 view .LVU32
 109              		.loc 1 138 36 is_stmt 0 view .LVU33
 110 0058 9FED0C0A 		vldr.32	s0, .L14+28
 111 005c 80ED040A 		vstr.32	s0, [r0, #16]
 139:Device/Dev_DPS310.c ****                 return 2088960.0f;
 112              		.loc 1 139 17 is_stmt 1 view .LVU34
 113              		.loc 1 139 24 is_stmt 0 view .LVU35
 114 0060 7047     		bx	lr
 115              	.L12:
 140:Device/Dev_DPS310.c **** 
 141:Device/Dev_DPS310.c ****             default:
 142:Device/Dev_DPS310.c ****                 return 0.0f;
 143:Device/Dev_DPS310.c ****         }
 144:Device/Dev_DPS310.c ****     }
 145:Device/Dev_DPS310.c **** 
 146:Device/Dev_DPS310.c ****     return 0.0f;
 116              		.loc 1 146 12 view .LVU36
 117 0062 9FED0B0A 		vldr.32	s0, .L14+32
 118 0066 7047     		bx	lr
 119              	.L13:
 107:Device/Dev_DPS310.c ****         {
 120              		.loc 1 107 9 view .LVU37
 121 0068 9FED090A 		vldr.32	s0, .L14+32
 147:Device/Dev_DPS310.c **** }
 122              		.loc 1 147 1 view .LVU38
 123 006c 7047     		bx	lr
 124              	.L15:
 125 006e 00BF     		.align	2
 126              	.L14:
 127 0070 00000049 		.word	1224736768
 128 0074 0000C049 		.word	1237319680
 129 0078 0000604A 		.word	1247805440
 130 007c 0000F04A 		.word	1257242624
 131 0080 00007848 		.word	1215823872
 132 0084 0000FC48 		.word	1224474624
 133 0088 00007E49 		.word	1232994304
 134 008c 0000FF49 		.word	1241448448
 135 0090 00000000 		.word	0
 136              		.cfi_endproc
 137              	.LFE1:
 139              		.section	.text.DevDPS310_Get_ProdID,"ax",%progbits
ARM GAS  C:\Users\8bit\AppData\Local\Temp\ccWQVCTL.s 			page 6


 140              		.align	1
 141              		.syntax unified
 142              		.thumb
 143              		.thumb_func
 145              	DevDPS310_Get_ProdID:
 146              	.LVL1:
 147              	.LFB5:
 148:Device/Dev_DPS310.c **** 
 149:Device/Dev_DPS310.c **** static bool DevDPS310_WakeUp(DevDPS310Obj_TypeDef *obj, uint8_t mode)
 150:Device/Dev_DPS310.c **** {
 151:Device/Dev_DPS310.c ****     if(obj)
 152:Device/Dev_DPS310.c ****         return DevDPS310_WriteByteToReg(obj, DPS310_MEAS_CFG_REG, mode);
 153:Device/Dev_DPS310.c **** 
 154:Device/Dev_DPS310.c ****     return false;
 155:Device/Dev_DPS310.c **** }
 156:Device/Dev_DPS310.c **** 
 157:Device/Dev_DPS310.c **** static bool DevDPS310_Sleep(DevDPS310Obj_TypeDef *obj)
 158:Device/Dev_DPS310.c **** {
 159:Device/Dev_DPS310.c ****     if(obj)
 160:Device/Dev_DPS310.c ****         return DevDPS310_WriteByteToReg(obj, DPS310_MEAS_CFG_REG, DPS310_MEAS_CFG_MEAS_CTRL_IDLE);
 161:Device/Dev_DPS310.c **** 
 162:Device/Dev_DPS310.c ****     return false;
 163:Device/Dev_DPS310.c **** }
 164:Device/Dev_DPS310.c **** 
 165:Device/Dev_DPS310.c **** static bool DevDPS310_Reset(DevDPS310Obj_TypeDef *obj)
 166:Device/Dev_DPS310.c **** {
 167:Device/Dev_DPS310.c ****     if(obj)
 168:Device/Dev_DPS310.c ****         return DevDPS310_WriteByteToReg(obj, DPS310_RESET_REG, DPS310_RESET_SOFT_RST_VALUE);
 169:Device/Dev_DPS310.c **** 
 170:Device/Dev_DPS310.c ****     return false;
 171:Device/Dev_DPS310.c **** }
 172:Device/Dev_DPS310.c **** 
 173:Device/Dev_DPS310.c **** static bool DevDPS310_Get_ProdID(DevDPS310Obj_TypeDef *obj)
 174:Device/Dev_DPS310.c **** {
 148              		.loc 1 174 1 is_stmt 1 view -0
 149              		.cfi_startproc
 150              		@ args = 0, pretend = 0, frame = 8
 151              		@ frame_needed = 0, uses_anonymous_args = 0
 152              		.loc 1 174 1 is_stmt 0 view .LVU40
 153 0000 30B5     		push	{r4, r5, lr}
 154              	.LCFI0:
 155              		.cfi_def_cfa_offset 12
 156              		.cfi_offset 4, -12
 157              		.cfi_offset 5, -8
 158              		.cfi_offset 14, -4
 159 0002 83B0     		sub	sp, sp, #12
 160              	.LCFI1:
 161              		.cfi_def_cfa_offset 24
 175:Device/Dev_DPS310.c ****     uint8_t data_tmp = 0;
 162              		.loc 1 175 5 is_stmt 1 view .LVU41
 163              		.loc 1 175 13 is_stmt 0 view .LVU42
 164 0004 0023     		movs	r3, #0
 165 0006 8DF80730 		strb	r3, [sp, #7]
 176:Device/Dev_DPS310.c **** 
 177:Device/Dev_DPS310.c ****     if(obj && obj->bus_rx && obj->bus_rx(obj->DevAddr, DPS310_PRODUCT_ID_REG, &data_tmp, 1))
 166              		.loc 1 177 5 is_stmt 1 view .LVU43
 167              		.loc 1 177 7 is_stmt 0 view .LVU44
ARM GAS  C:\Users\8bit\AppData\Local\Temp\ccWQVCTL.s 			page 7


 168 000a 80B1     		cbz	r0, .L18
 169 000c 0446     		mov	r4, r0
 170              		.loc 1 177 18 discriminator 1 view .LVU45
 171 000e 056A     		ldr	r5, [r0, #32]
 172              		.loc 1 177 12 discriminator 1 view .LVU46
 173 0010 85B1     		cbz	r5, .L19
 174              		.loc 1 177 30 discriminator 2 view .LVU47
 175 0012 0123     		movs	r3, #1
 176 0014 0DF10702 		add	r2, sp, #7
 177 0018 0D21     		movs	r1, #13
 178 001a 0078     		ldrb	r0, [r0]	@ zero_extendqisi2
 179              	.LVL2:
 180              		.loc 1 177 30 discriminator 2 view .LVU48
 181 001c A847     		blx	r5
 182              	.LVL3:
 183              		.loc 1 177 27 discriminator 2 view .LVU49
 184 001e 38B1     		cbz	r0, .L17
 178:Device/Dev_DPS310.c ****     {
 179:Device/Dev_DPS310.c ****         obj->ProdID = data_tmp;
 185              		.loc 1 179 9 is_stmt 1 view .LVU50
 186              		.loc 1 179 21 is_stmt 0 view .LVU51
 187 0020 9DF80730 		ldrb	r3, [sp, #7]	@ zero_extendqisi2
 188 0024 6370     		strb	r3, [r4, #1]
 180:Device/Dev_DPS310.c ****         if(data_tmp == DPS310_PRODUCT_ID_VALUE)
 189              		.loc 1 180 9 is_stmt 1 view .LVU52
 190              		.loc 1 180 11 is_stmt 0 view .LVU53
 191 0026 102B     		cmp	r3, #16
 192 0028 02D0     		beq	.L17
 181:Device/Dev_DPS310.c ****             return true;
 182:Device/Dev_DPS310.c ****     }
 183:Device/Dev_DPS310.c **** 
 184:Device/Dev_DPS310.c ****     return false;
 193              		.loc 1 184 12 view .LVU54
 194 002a 0020     		movs	r0, #0
 195 002c 00E0     		b	.L17
 196              	.LVL4:
 197              	.L18:
 198              		.loc 1 184 12 view .LVU55
 199 002e 0020     		movs	r0, #0
 200              	.LVL5:
 201              	.L17:
 185:Device/Dev_DPS310.c **** }
 202              		.loc 1 185 1 view .LVU56
 203 0030 03B0     		add	sp, sp, #12
 204              	.LCFI2:
 205              		.cfi_remember_state
 206              		.cfi_def_cfa_offset 12
 207              		@ sp needed
 208 0032 30BD     		pop	{r4, r5, pc}
 209              	.LVL6:
 210              	.L19:
 211              	.LCFI3:
 212              		.cfi_restore_state
 184:Device/Dev_DPS310.c **** }
 213              		.loc 1 184 12 view .LVU57
 214 0034 0020     		movs	r0, #0
 215              	.LVL7:
ARM GAS  C:\Users\8bit\AppData\Local\Temp\ccWQVCTL.s 			page 8


 184:Device/Dev_DPS310.c **** }
 216              		.loc 1 184 12 view .LVU58
 217 0036 FBE7     		b	.L17
 218              		.cfi_endproc
 219              	.LFE5:
 221              		.section	.text.DevDPS310_WriteByteToReg,"ax",%progbits
 222              		.align	1
 223              		.syntax unified
 224              		.thumb
 225              		.thumb_func
 227              	DevDPS310_WriteByteToReg:
 228              	.LVL8:
 229              	.LFB7:
 186:Device/Dev_DPS310.c **** 
 187:Device/Dev_DPS310.c **** static bool DevDPS310_Configure_Temperature(DevDPS310Obj_TypeDef *obj, uint8_t data)
 188:Device/Dev_DPS310.c **** {
 189:Device/Dev_DPS310.c ****     uint8_t temperature_sensor = DPS310_TMP_CFG_REG_TMP_EXT_EXTERNAL;
 190:Device/Dev_DPS310.c **** 
 191:Device/Dev_DPS310.c ****     if(obj)
 192:Device/Dev_DPS310.c ****     {
 193:Device/Dev_DPS310.c ****         if(DevDPS310_Temperature_Sensor(obj, &temperature_sensor))
 194:Device/Dev_DPS310.c ****         {
 195:Device/Dev_DPS310.c ****             data |= temperature_sensor;
 196:Device/Dev_DPS310.c ****         }
 197:Device/Dev_DPS310.c ****         else
 198:Device/Dev_DPS310.c ****             return false;
 199:Device/Dev_DPS310.c **** 
 200:Device/Dev_DPS310.c ****         return DevDPS310_WriteByteToReg(obj, DPS310_TMP_CFG_REG, data);
 201:Device/Dev_DPS310.c ****     }
 202:Device/Dev_DPS310.c **** 
 203:Device/Dev_DPS310.c ****     return false;
 204:Device/Dev_DPS310.c **** }
 205:Device/Dev_DPS310.c **** 
 206:Device/Dev_DPS310.c **** static bool DevDPS310_WriteByteToReg(DevDPS310Obj_TypeDef *obj, uint8_t reg_addr, uint8_t data)
 207:Device/Dev_DPS310.c **** {
 230              		.loc 1 207 1 is_stmt 1 view -0
 231              		.cfi_startproc
 232              		@ args = 0, pretend = 0, frame = 8
 233              		@ frame_needed = 0, uses_anonymous_args = 0
 234              		.loc 1 207 1 is_stmt 0 view .LVU60
 235 0000 10B5     		push	{r4, lr}
 236              	.LCFI4:
 237              		.cfi_def_cfa_offset 8
 238              		.cfi_offset 4, -8
 239              		.cfi_offset 14, -4
 240 0002 82B0     		sub	sp, sp, #8
 241              	.LCFI5:
 242              		.cfi_def_cfa_offset 16
 243 0004 8DF80720 		strb	r2, [sp, #7]
 208:Device/Dev_DPS310.c ****     if(obj && obj->bus_tx)
 244              		.loc 1 208 5 is_stmt 1 view .LVU61
 245              		.loc 1 208 7 is_stmt 0 view .LVU62
 246 0008 40B1     		cbz	r0, .L23
 247              		.loc 1 208 18 discriminator 1 view .LVU63
 248 000a C469     		ldr	r4, [r0, #28]
 249              		.loc 1 208 12 discriminator 1 view .LVU64
 250 000c 44B1     		cbz	r4, .L24
ARM GAS  C:\Users\8bit\AppData\Local\Temp\ccWQVCTL.s 			page 9


 209:Device/Dev_DPS310.c ****     {
 210:Device/Dev_DPS310.c ****         if(!obj->bus_tx(obj->DevAddr, reg_addr, &data, 1))
 251              		.loc 1 210 9 is_stmt 1 view .LVU65
 252              		.loc 1 210 13 is_stmt 0 view .LVU66
 253 000e 0123     		movs	r3, #1
 254 0010 0DF10702 		add	r2, sp, #7
 255              	.LVL9:
 256              		.loc 1 210 13 view .LVU67
 257 0014 0078     		ldrb	r0, [r0]	@ zero_extendqisi2
 258              	.LVL10:
 259              		.loc 1 210 13 view .LVU68
 260 0016 A047     		blx	r4
 261              	.LVL11:
 262              	.L22:
 211:Device/Dev_DPS310.c ****             return false;
 212:Device/Dev_DPS310.c **** 
 213:Device/Dev_DPS310.c ****         return true;
 214:Device/Dev_DPS310.c ****     }
 215:Device/Dev_DPS310.c **** 
 216:Device/Dev_DPS310.c ****     return false;
 217:Device/Dev_DPS310.c **** }
 263              		.loc 1 217 1 view .LVU69
 264 0018 02B0     		add	sp, sp, #8
 265              	.LCFI6:
 266              		.cfi_remember_state
 267              		.cfi_def_cfa_offset 8
 268              		@ sp needed
 269 001a 10BD     		pop	{r4, pc}
 270              	.LVL12:
 271              	.L23:
 272              	.LCFI7:
 273              		.cfi_restore_state
 216:Device/Dev_DPS310.c **** }
 274              		.loc 1 216 12 view .LVU70
 275 001c 0020     		movs	r0, #0
 276              	.LVL13:
 216:Device/Dev_DPS310.c **** }
 277              		.loc 1 216 12 view .LVU71
 278 001e FBE7     		b	.L22
 279              	.LVL14:
 280              	.L24:
 216:Device/Dev_DPS310.c **** }
 281              		.loc 1 216 12 view .LVU72
 282 0020 0020     		movs	r0, #0
 283              	.LVL15:
 216:Device/Dev_DPS310.c **** }
 284              		.loc 1 216 12 view .LVU73
 285 0022 F9E7     		b	.L22
 286              		.cfi_endproc
 287              	.LFE7:
 289              		.section	.text.DevDPS310_Reset,"ax",%progbits
 290              		.align	1
 291              		.syntax unified
 292              		.thumb
 293              		.thumb_func
 295              	DevDPS310_Reset:
 296              	.LVL16:
ARM GAS  C:\Users\8bit\AppData\Local\Temp\ccWQVCTL.s 			page 10


 297              	.LFB4:
 166:Device/Dev_DPS310.c ****     if(obj)
 298              		.loc 1 166 1 is_stmt 1 view -0
 299              		.cfi_startproc
 300              		@ args = 0, pretend = 0, frame = 0
 301              		@ frame_needed = 0, uses_anonymous_args = 0
 167:Device/Dev_DPS310.c ****         return DevDPS310_WriteByteToReg(obj, DPS310_RESET_REG, DPS310_RESET_SOFT_RST_VALUE);
 302              		.loc 1 167 5 view .LVU75
 167:Device/Dev_DPS310.c ****         return DevDPS310_WriteByteToReg(obj, DPS310_RESET_REG, DPS310_RESET_SOFT_RST_VALUE);
 303              		.loc 1 167 7 is_stmt 0 view .LVU76
 304 0000 08B9     		cbnz	r0, .L33
 170:Device/Dev_DPS310.c **** }
 305              		.loc 1 170 12 view .LVU77
 306 0002 0020     		movs	r0, #0
 307              	.LVL17:
 171:Device/Dev_DPS310.c **** 
 308              		.loc 1 171 1 view .LVU78
 309 0004 7047     		bx	lr
 310              	.LVL18:
 311              	.L33:
 166:Device/Dev_DPS310.c ****     if(obj)
 312              		.loc 1 166 1 view .LVU79
 313 0006 08B5     		push	{r3, lr}
 314              	.LCFI8:
 315              		.cfi_def_cfa_offset 8
 316              		.cfi_offset 3, -8
 317              		.cfi_offset 14, -4
 168:Device/Dev_DPS310.c **** 
 318              		.loc 1 168 9 is_stmt 1 view .LVU80
 168:Device/Dev_DPS310.c **** 
 319              		.loc 1 168 16 is_stmt 0 view .LVU81
 320 0008 0922     		movs	r2, #9
 321 000a 0C21     		movs	r1, #12
 322 000c FFF7FEFF 		bl	DevDPS310_WriteByteToReg
 323              	.LVL19:
 171:Device/Dev_DPS310.c **** 
 324              		.loc 1 171 1 view .LVU82
 325 0010 08BD     		pop	{r3, pc}
 326              		.cfi_endproc
 327              	.LFE4:
 329              		.section	.text.DevDPS310_GetTwoComplementOf,"ax",%progbits
 330              		.align	1
 331              		.syntax unified
 332              		.thumb
 333              		.thumb_func
 335              	DevDPS310_GetTwoComplementOf:
 336              	.LVL20:
 337              	.LFB9:
 218:Device/Dev_DPS310.c **** 
 219:Device/Dev_DPS310.c **** static bool DevDPS310_ReadLenByteToReg(DevDPS310Obj_TypeDef *obj, uint8_t reg_addr, uint8_t *data, 
 220:Device/Dev_DPS310.c **** {
 221:Device/Dev_DPS310.c ****     if(obj && obj->bus_rx && data && len)
 222:Device/Dev_DPS310.c ****     {
 223:Device/Dev_DPS310.c ****         if(!obj->bus_rx(obj->DevAddr, reg_addr, data, len))
 224:Device/Dev_DPS310.c ****         {
 225:Device/Dev_DPS310.c ****             memset(data, 0, len);
 226:Device/Dev_DPS310.c ****             return false;
ARM GAS  C:\Users\8bit\AppData\Local\Temp\ccWQVCTL.s 			page 11


 227:Device/Dev_DPS310.c ****         }
 228:Device/Dev_DPS310.c **** 
 229:Device/Dev_DPS310.c ****         return true;
 230:Device/Dev_DPS310.c ****     }
 231:Device/Dev_DPS310.c **** 
 232:Device/Dev_DPS310.c ****     return false;
 233:Device/Dev_DPS310.c **** }
 234:Device/Dev_DPS310.c **** 
 235:Device/Dev_DPS310.c **** static int32_t DevDPS310_GetTwoComplementOf(uint32_t value, uint8_t length)
 236:Device/Dev_DPS310.c **** {
 338              		.loc 1 236 1 is_stmt 1 view -0
 339              		.cfi_startproc
 340              		@ args = 0, pretend = 0, frame = 0
 341              		@ frame_needed = 0, uses_anonymous_args = 0
 342              		@ link register save eliminated.
 237:Device/Dev_DPS310.c ****     if (value & ((int)1 << (length - 1)))
 343              		.loc 1 237 5 view .LVU84
 344              		.loc 1 237 36 is_stmt 0 view .LVU85
 345 0000 4A1E     		subs	r2, r1, #1
 346              		.loc 1 237 25 view .LVU86
 347 0002 0123     		movs	r3, #1
 348 0004 9340     		lsls	r3, r3, r2
 349              		.loc 1 237 8 view .LVU87
 350 0006 0342     		tst	r3, r0
 351 0008 00D1     		bne	.L37
 352              	.LVL21:
 353              	.L34:
 238:Device/Dev_DPS310.c ****     {
 239:Device/Dev_DPS310.c ****         return ((int32_t)value) - ((int32_t)1 << length);
 240:Device/Dev_DPS310.c ****     }
 241:Device/Dev_DPS310.c ****         
 242:Device/Dev_DPS310.c ****     return value;
 243:Device/Dev_DPS310.c **** }
 354              		.loc 1 243 1 view .LVU88
 355 000a 7047     		bx	lr
 356              	.LVL22:
 357              	.L37:
 239:Device/Dev_DPS310.c ****     }
 358              		.loc 1 239 9 is_stmt 1 view .LVU89
 239:Device/Dev_DPS310.c ****     }
 359              		.loc 1 239 47 is_stmt 0 view .LVU90
 360 000c 0123     		movs	r3, #1
 361 000e 03FA01F1 		lsl	r1, r3, r1
 362              	.LVL23:
 239:Device/Dev_DPS310.c ****     }
 363              		.loc 1 239 33 view .LVU91
 364 0012 401A     		subs	r0, r0, r1
 365              	.LVL24:
 239:Device/Dev_DPS310.c ****     }
 366              		.loc 1 239 33 view .LVU92
 367 0014 F9E7     		b	.L34
 368              		.cfi_endproc
 369              	.LFE9:
 371              		.section	.text.DevDPS310_Temperature_Sensor,"ax",%progbits
 372              		.align	1
 373              		.syntax unified
 374              		.thumb
ARM GAS  C:\Users\8bit\AppData\Local\Temp\ccWQVCTL.s 			page 12


 375              		.thumb_func
 377              	DevDPS310_Temperature_Sensor:
 378              	.LVL25:
 379              	.LFB10:
 244:Device/Dev_DPS310.c **** 
 245:Device/Dev_DPS310.c **** static bool DevDPS310_Temperature_Sensor(DevDPS310Obj_TypeDef *obj, uint8_t *p_sensor)
 246:Device/Dev_DPS310.c **** {
 380              		.loc 1 246 1 is_stmt 1 view -0
 381              		.cfi_startproc
 382              		@ args = 0, pretend = 0, frame = 8
 383              		@ frame_needed = 0, uses_anonymous_args = 0
 384              		.loc 1 246 1 is_stmt 0 view .LVU94
 385 0000 30B5     		push	{r4, r5, lr}
 386              	.LCFI9:
 387              		.cfi_def_cfa_offset 12
 388              		.cfi_offset 4, -12
 389              		.cfi_offset 5, -8
 390              		.cfi_offset 14, -4
 391 0002 83B0     		sub	sp, sp, #12
 392              	.LCFI10:
 393              		.cfi_def_cfa_offset 24
 247:Device/Dev_DPS310.c ****     uint8_t read = 0;
 394              		.loc 1 247 5 is_stmt 1 view .LVU95
 395              		.loc 1 247 13 is_stmt 0 view .LVU96
 396 0004 0023     		movs	r3, #0
 397 0006 8DF80730 		strb	r3, [sp, #7]
 248:Device/Dev_DPS310.c **** 
 249:Device/Dev_DPS310.c ****     if(obj && obj->bus_rx && obj->bus_rx(obj->DevAddr, DPS310_TMP_COEF_SRCE, &read, 1))
 398              		.loc 1 249 5 is_stmt 1 view .LVU97
 399              		.loc 1 249 7 is_stmt 0 view .LVU98
 400 000a C0B1     		cbz	r0, .L42
 401 000c 0C46     		mov	r4, r1
 402              		.loc 1 249 18 discriminator 1 view .LVU99
 403 000e 056A     		ldr	r5, [r0, #32]
 404              		.loc 1 249 12 discriminator 1 view .LVU100
 405 0010 BDB1     		cbz	r5, .L43
 406              		.loc 1 249 30 discriminator 2 view .LVU101
 407 0012 0123     		movs	r3, #1
 408 0014 0DF10702 		add	r2, sp, #7
 409 0018 2821     		movs	r1, #40
 410              	.LVL26:
 411              		.loc 1 249 30 discriminator 2 view .LVU102
 412 001a 0078     		ldrb	r0, [r0]	@ zero_extendqisi2
 413              	.LVL27:
 414              		.loc 1 249 30 discriminator 2 view .LVU103
 415 001c A847     		blx	r5
 416              	.LVL28:
 417              		.loc 1 249 27 discriminator 2 view .LVU104
 418 001e 08B9     		cbnz	r0, .L45
 419              	.LVL29:
 420              	.L39:
 250:Device/Dev_DPS310.c ****     {
 251:Device/Dev_DPS310.c ****         read &= DPS310_TMP_COEF_SRCE_MASK;
 252:Device/Dev_DPS310.c **** 
 253:Device/Dev_DPS310.c ****         if (read)
 254:Device/Dev_DPS310.c ****         {
 255:Device/Dev_DPS310.c ****             *p_sensor = DPS310_TMP_CFG_REG_TMP_EXT_EXTERNAL;
ARM GAS  C:\Users\8bit\AppData\Local\Temp\ccWQVCTL.s 			page 13


 256:Device/Dev_DPS310.c ****         }
 257:Device/Dev_DPS310.c ****         else
 258:Device/Dev_DPS310.c ****             *p_sensor = DPS310_TMP_CFG_REG_TMP_EXT_INTERNAL;
 259:Device/Dev_DPS310.c **** 
 260:Device/Dev_DPS310.c ****         return true;
 261:Device/Dev_DPS310.c ****     }
 262:Device/Dev_DPS310.c **** 
 263:Device/Dev_DPS310.c ****     return false;
 264:Device/Dev_DPS310.c **** }
 421              		.loc 1 264 1 view .LVU105
 422 0020 03B0     		add	sp, sp, #12
 423              	.LCFI11:
 424              		.cfi_remember_state
 425              		.cfi_def_cfa_offset 12
 426              		@ sp needed
 427 0022 30BD     		pop	{r4, r5, pc}
 428              	.LVL30:
 429              	.L45:
 430              	.LCFI12:
 431              		.cfi_restore_state
 251:Device/Dev_DPS310.c **** 
 432              		.loc 1 251 9 is_stmt 1 view .LVU106
 251:Device/Dev_DPS310.c **** 
 433              		.loc 1 251 14 is_stmt 0 view .LVU107
 434 0024 9DF80730 		ldrb	r3, [sp, #7]	@ zero_extendqisi2
 435 0028 03F08003 		and	r3, r3, #128
 436 002c 8DF80730 		strb	r3, [sp, #7]
 253:Device/Dev_DPS310.c ****         {
 437              		.loc 1 253 9 is_stmt 1 view .LVU108
 253:Device/Dev_DPS310.c ****         {
 438              		.loc 1 253 12 is_stmt 0 view .LVU109
 439 0030 13B1     		cbz	r3, .L40
 255:Device/Dev_DPS310.c ****         }
 440              		.loc 1 255 13 is_stmt 1 view .LVU110
 255:Device/Dev_DPS310.c ****         }
 441              		.loc 1 255 23 is_stmt 0 view .LVU111
 442 0032 8023     		movs	r3, #128
 443 0034 2370     		strb	r3, [r4]
 444 0036 F3E7     		b	.L39
 445              	.L40:
 258:Device/Dev_DPS310.c **** 
 446              		.loc 1 258 13 is_stmt 1 view .LVU112
 258:Device/Dev_DPS310.c **** 
 447              		.loc 1 258 23 is_stmt 0 view .LVU113
 448 0038 0023     		movs	r3, #0
 449 003a 2370     		strb	r3, [r4]
 260:Device/Dev_DPS310.c ****     }
 450              		.loc 1 260 9 is_stmt 1 view .LVU114
 260:Device/Dev_DPS310.c ****     }
 451              		.loc 1 260 16 is_stmt 0 view .LVU115
 452 003c F0E7     		b	.L39
 453              	.LVL31:
 454              	.L42:
 263:Device/Dev_DPS310.c **** }
 455              		.loc 1 263 12 view .LVU116
 456 003e 0020     		movs	r0, #0
 457              	.LVL32:
ARM GAS  C:\Users\8bit\AppData\Local\Temp\ccWQVCTL.s 			page 14


 263:Device/Dev_DPS310.c **** }
 458              		.loc 1 263 12 view .LVU117
 459 0040 EEE7     		b	.L39
 460              	.LVL33:
 461              	.L43:
 263:Device/Dev_DPS310.c **** }
 462              		.loc 1 263 12 view .LVU118
 463 0042 0020     		movs	r0, #0
 464              	.LVL34:
 263:Device/Dev_DPS310.c **** }
 465              		.loc 1 263 12 view .LVU119
 466 0044 ECE7     		b	.L39
 467              		.cfi_endproc
 468              	.LFE10:
 470              		.section	.text.DevDPS310_Configure_Temperature,"ax",%progbits
 471              		.align	1
 472              		.syntax unified
 473              		.thumb
 474              		.thumb_func
 476              	DevDPS310_Configure_Temperature:
 477              	.LVL35:
 478              	.LFB6:
 188:Device/Dev_DPS310.c ****     uint8_t temperature_sensor = DPS310_TMP_CFG_REG_TMP_EXT_EXTERNAL;
 479              		.loc 1 188 1 is_stmt 1 view -0
 480              		.cfi_startproc
 481              		@ args = 0, pretend = 0, frame = 8
 482              		@ frame_needed = 0, uses_anonymous_args = 0
 188:Device/Dev_DPS310.c ****     uint8_t temperature_sensor = DPS310_TMP_CFG_REG_TMP_EXT_EXTERNAL;
 483              		.loc 1 188 1 is_stmt 0 view .LVU121
 484 0000 30B5     		push	{r4, r5, lr}
 485              	.LCFI13:
 486              		.cfi_def_cfa_offset 12
 487              		.cfi_offset 4, -12
 488              		.cfi_offset 5, -8
 489              		.cfi_offset 14, -4
 490 0002 83B0     		sub	sp, sp, #12
 491              	.LCFI14:
 492              		.cfi_def_cfa_offset 24
 189:Device/Dev_DPS310.c **** 
 493              		.loc 1 189 5 is_stmt 1 view .LVU122
 189:Device/Dev_DPS310.c **** 
 494              		.loc 1 189 13 is_stmt 0 view .LVU123
 495 0004 8023     		movs	r3, #128
 496 0006 8DF80730 		strb	r3, [sp, #7]
 191:Device/Dev_DPS310.c ****     {
 497              		.loc 1 191 5 is_stmt 1 view .LVU124
 191:Device/Dev_DPS310.c ****     {
 498              		.loc 1 191 7 is_stmt 0 view .LVU125
 499 000a 70B1     		cbz	r0, .L48
 500 000c 0C46     		mov	r4, r1
 501 000e 0546     		mov	r5, r0
 193:Device/Dev_DPS310.c ****         {
 502              		.loc 1 193 9 is_stmt 1 view .LVU126
 193:Device/Dev_DPS310.c ****         {
 503              		.loc 1 193 12 is_stmt 0 view .LVU127
 504 0010 0DF10701 		add	r1, sp, #7
 505              	.LVL36:
ARM GAS  C:\Users\8bit\AppData\Local\Temp\ccWQVCTL.s 			page 15


 193:Device/Dev_DPS310.c ****         {
 506              		.loc 1 193 12 view .LVU128
 507 0014 FFF7FEFF 		bl	DevDPS310_Temperature_Sensor
 508              	.LVL37:
 193:Device/Dev_DPS310.c ****         {
 509              		.loc 1 193 11 view .LVU129
 510 0018 40B1     		cbz	r0, .L47
 195:Device/Dev_DPS310.c ****         }
 511              		.loc 1 195 13 is_stmt 1 view .LVU130
 195:Device/Dev_DPS310.c ****         }
 512              		.loc 1 195 18 is_stmt 0 view .LVU131
 513 001a 9DF80720 		ldrb	r2, [sp, #7]	@ zero_extendqisi2
 514              	.LVL38:
 200:Device/Dev_DPS310.c ****     }
 515              		.loc 1 200 9 is_stmt 1 view .LVU132
 200:Device/Dev_DPS310.c ****     }
 516              		.loc 1 200 16 is_stmt 0 view .LVU133
 517 001e 2243     		orrs	r2, r2, r4
 518              	.LVL39:
 200:Device/Dev_DPS310.c ****     }
 519              		.loc 1 200 16 view .LVU134
 520 0020 0721     		movs	r1, #7
 521 0022 2846     		mov	r0, r5
 522 0024 FFF7FEFF 		bl	DevDPS310_WriteByteToReg
 523              	.LVL40:
 200:Device/Dev_DPS310.c ****     }
 524              		.loc 1 200 16 view .LVU135
 525 0028 00E0     		b	.L47
 526              	.LVL41:
 527              	.L48:
 203:Device/Dev_DPS310.c **** }
 528              		.loc 1 203 12 view .LVU136
 529 002a 0020     		movs	r0, #0
 530              	.LVL42:
 531              	.L47:
 204:Device/Dev_DPS310.c **** 
 532              		.loc 1 204 1 view .LVU137
 533 002c 03B0     		add	sp, sp, #12
 534              	.LCFI15:
 535              		.cfi_def_cfa_offset 12
 536              		@ sp needed
 537 002e 30BD     		pop	{r4, r5, pc}
 538              		.cfi_endproc
 539              	.LFE6:
 541              		.section	.text.DevDPS310_WaitRegValue,"ax",%progbits
 542              		.align	1
 543              		.syntax unified
 544              		.thumb
 545              		.thumb_func
 547              	DevDPS310_WaitRegValue:
 548              	.LVL43:
 549              	.LFB11:
 265:Device/Dev_DPS310.c **** 
 266:Device/Dev_DPS310.c **** static bool DevDPS310_WaitRegValue(DevDPS310Obj_TypeDef *obj, uint8_t reg_addr, uint8_t reg_value, 
 267:Device/Dev_DPS310.c **** {
 550              		.loc 1 267 1 is_stmt 1 view -0
 551              		.cfi_startproc
ARM GAS  C:\Users\8bit\AppData\Local\Temp\ccWQVCTL.s 			page 16


 552              		@ args = 0, pretend = 0, frame = 8
 553              		@ frame_needed = 0, uses_anonymous_args = 0
 554              		.loc 1 267 1 is_stmt 0 view .LVU139
 555 0000 2DE9F043 		push	{r4, r5, r6, r7, r8, r9, lr}
 556              	.LCFI16:
 557              		.cfi_def_cfa_offset 28
 558              		.cfi_offset 4, -28
 559              		.cfi_offset 5, -24
 560              		.cfi_offset 6, -20
 561              		.cfi_offset 7, -16
 562              		.cfi_offset 8, -12
 563              		.cfi_offset 9, -8
 564              		.cfi_offset 14, -4
 565 0004 83B0     		sub	sp, sp, #12
 566              	.LCFI17:
 567              		.cfi_def_cfa_offset 40
 568 0006 9846     		mov	r8, r3
 268:Device/Dev_DPS310.c ****     uint8_t read_out = 0;
 569              		.loc 1 268 5 is_stmt 1 view .LVU140
 570              		.loc 1 268 13 is_stmt 0 view .LVU141
 571 0008 0023     		movs	r3, #0
 572              	.LVL44:
 573              		.loc 1 268 13 view .LVU142
 574 000a 8DF80730 		strb	r3, [sp, #7]
 269:Device/Dev_DPS310.c ****     uint16_t attempts = 0;
 575              		.loc 1 269 5 is_stmt 1 view .LVU143
 576              	.LVL45:
 270:Device/Dev_DPS310.c **** 
 271:Device/Dev_DPS310.c ****     if(obj && obj->bus_rx && obj->bus_delay)
 577              		.loc 1 271 5 view .LVU144
 578              		.loc 1 271 7 is_stmt 0 view .LVU145
 579 000e 20B3     		cbz	r0, .L54
 580 0010 0E46     		mov	r6, r1
 581 0012 9146     		mov	r9, r2
 582 0014 0546     		mov	r5, r0
 583              		.loc 1 271 18 discriminator 1 view .LVU146
 584 0016 036A     		ldr	r3, [r0, #32]
 585              		.loc 1 271 12 discriminator 1 view .LVU147
 586 0018 23B3     		cbz	r3, .L55
 587              		.loc 1 271 33 discriminator 2 view .LVU148
 588 001a 436A     		ldr	r3, [r0, #36]
 589              		.loc 1 271 27 discriminator 2 view .LVU149
 590 001c BBB1     		cbz	r3, .L59
 269:Device/Dev_DPS310.c ****     uint16_t attempts = 0;
 591              		.loc 1 269 14 view .LVU150
 592 001e 0024     		movs	r4, #0
 593              	.LVL46:
 594              	.L52:
 272:Device/Dev_DPS310.c ****     {
 273:Device/Dev_DPS310.c ****         while (attempts < DPS310_WAIT_REG_TIMEOUT)
 595              		.loc 1 273 15 is_stmt 1 view .LVU151
 596 0020 632C     		cmp	r4, #99
 597 0022 16D8     		bhi	.L60
 274:Device/Dev_DPS310.c ****         {
 275:Device/Dev_DPS310.c ****             attempts++;
 598              		.loc 1 275 13 view .LVU152
 599              		.loc 1 275 21 is_stmt 0 view .LVU153
ARM GAS  C:\Users\8bit\AppData\Local\Temp\ccWQVCTL.s 			page 17


 600 0024 0134     		adds	r4, r4, #1
 601              	.LVL47:
 602              		.loc 1 275 21 view .LVU154
 603 0026 A4B2     		uxth	r4, r4
 604              	.LVL48:
 276:Device/Dev_DPS310.c **** 
 277:Device/Dev_DPS310.c ****             if(!obj->bus_rx(obj->DevAddr, reg_addr, &read_out, 1))
 605              		.loc 1 277 13 is_stmt 1 view .LVU155
 606              		.loc 1 277 17 is_stmt 0 view .LVU156
 607 0028 0123     		movs	r3, #1
 608 002a 0DF10702 		add	r2, sp, #7
 609 002e 3146     		mov	r1, r6
 610 0030 2878     		ldrb	r0, [r5]	@ zero_extendqisi2
 611 0032 2F6A     		ldr	r7, [r5, #32]
 612 0034 B847     		blx	r7
 613              	.LVL49:
 614              		.loc 1 277 15 view .LVU157
 615 0036 0346     		mov	r3, r0
 616 0038 80B1     		cbz	r0, .L51
 278:Device/Dev_DPS310.c ****                 return false;
 279:Device/Dev_DPS310.c **** 
 280:Device/Dev_DPS310.c ****             if ((read_out & mask) == reg_value)
 617              		.loc 1 280 13 is_stmt 1 view .LVU158
 618              		.loc 1 280 35 is_stmt 0 view .LVU159
 619 003a 9DF807C0 		ldrb	ip, [sp, #7]	@ zero_extendqisi2
 620 003e 08EA0C0C 		and	ip, r8, ip
 621              		.loc 1 280 16 view .LVU160
 622 0042 CC45     		cmp	ip, r9
 623 0044 0AD0     		beq	.L51
 281:Device/Dev_DPS310.c ****                 return true;
 282:Device/Dev_DPS310.c **** 
 283:Device/Dev_DPS310.c ****             obj->bus_delay(10);
 624              		.loc 1 283 13 is_stmt 1 view .LVU161
 625              		.loc 1 283 16 is_stmt 0 view .LVU162
 626 0046 6B6A     		ldr	r3, [r5, #36]
 627              		.loc 1 283 13 view .LVU163
 628 0048 0A20     		movs	r0, #10
 629 004a 9847     		blx	r3
 630              	.LVL50:
 631 004c E8E7     		b	.L52
 632              	.LVL51:
 633              	.L59:
 284:Device/Dev_DPS310.c ****         }
 285:Device/Dev_DPS310.c **** 
 286:Device/Dev_DPS310.c ****         if (attempts == DPS310_WAIT_REG_TIMEOUT)
 287:Device/Dev_DPS310.c ****             return false;
 288:Device/Dev_DPS310.c ****     }
 289:Device/Dev_DPS310.c **** 
 290:Device/Dev_DPS310.c ****     return true;
 634              		.loc 1 290 12 view .LVU164
 635 004e 0123     		movs	r3, #1
 636 0050 04E0     		b	.L51
 637              	.LVL52:
 638              	.L60:
 286:Device/Dev_DPS310.c ****             return false;
 639              		.loc 1 286 9 is_stmt 1 view .LVU165
 286:Device/Dev_DPS310.c ****             return false;
ARM GAS  C:\Users\8bit\AppData\Local\Temp\ccWQVCTL.s 			page 18


 640              		.loc 1 286 12 is_stmt 0 view .LVU166
 641 0052 642C     		cmp	r4, #100
 642 0054 08D0     		beq	.L57
 643              		.loc 1 290 12 view .LVU167
 644 0056 0123     		movs	r3, #1
 645 0058 00E0     		b	.L51
 646              	.LVL53:
 647              	.L54:
 648              		.loc 1 290 12 view .LVU168
 649 005a 0123     		movs	r3, #1
 650              	.LVL54:
 651              	.L51:
 291:Device/Dev_DPS310.c **** }
 652              		.loc 1 291 1 view .LVU169
 653 005c 1846     		mov	r0, r3
 654 005e 03B0     		add	sp, sp, #12
 655              	.LCFI18:
 656              		.cfi_remember_state
 657              		.cfi_def_cfa_offset 28
 658              		@ sp needed
 659 0060 BDE8F083 		pop	{r4, r5, r6, r7, r8, r9, pc}
 660              	.LVL55:
 661              	.L55:
 662              	.LCFI19:
 663              		.cfi_restore_state
 290:Device/Dev_DPS310.c **** }
 664              		.loc 1 290 12 view .LVU170
 665 0064 0123     		movs	r3, #1
 666 0066 F9E7     		b	.L51
 667              	.LVL56:
 668              	.L57:
 287:Device/Dev_DPS310.c ****     }
 669              		.loc 1 287 20 view .LVU171
 670 0068 0023     		movs	r3, #0
 671 006a F7E7     		b	.L51
 672              		.cfi_endproc
 673              	.LFE11:
 675              		.section	.text.DevDPS310_Get_Cali_Coefs,"ax",%progbits
 676              		.align	1
 677              		.syntax unified
 678              		.thumb
 679              		.thumb_func
 681              	DevDPS310_Get_Cali_Coefs:
 682              	.LVL57:
 683              	.LFB12:
 292:Device/Dev_DPS310.c **** 
 293:Device/Dev_DPS310.c **** static bool DevDPS310_Get_Cali_Coefs(DevDPS310Obj_TypeDef *obj)
 294:Device/Dev_DPS310.c **** {
 684              		.loc 1 294 1 is_stmt 1 view -0
 685              		.cfi_startproc
 686              		@ args = 0, pretend = 0, frame = 24
 687              		@ frame_needed = 0, uses_anonymous_args = 0
 688              		.loc 1 294 1 is_stmt 0 view .LVU173
 689 0000 70B5     		push	{r4, r5, r6, lr}
 690              	.LCFI20:
 691              		.cfi_def_cfa_offset 16
 692              		.cfi_offset 4, -16
ARM GAS  C:\Users\8bit\AppData\Local\Temp\ccWQVCTL.s 			page 19


 693              		.cfi_offset 5, -12
 694              		.cfi_offset 6, -8
 695              		.cfi_offset 14, -4
 696 0002 86B0     		sub	sp, sp, #24
 697              	.LCFI21:
 698              		.cfi_def_cfa_offset 40
 295:Device/Dev_DPS310.c ****     uint8_t buff[18] = {0};
 699              		.loc 1 295 5 is_stmt 1 view .LVU174
 700              		.loc 1 295 13 is_stmt 0 view .LVU175
 701 0004 0023     		movs	r3, #0
 702 0006 0193     		str	r3, [sp, #4]
 703 0008 0293     		str	r3, [sp, #8]
 704 000a 0393     		str	r3, [sp, #12]
 705 000c 0493     		str	r3, [sp, #16]
 706 000e ADF81430 		strh	r3, [sp, #20]	@ movhi
 296:Device/Dev_DPS310.c **** 
 297:Device/Dev_DPS310.c ****     if(obj &&
 707              		.loc 1 297 5 is_stmt 1 view .LVU176
 708              		.loc 1 297 7 is_stmt 0 view .LVU177
 709 0012 0028     		cmp	r0, #0
 710 0014 7AD0     		beq	.L63
 711 0016 0446     		mov	r4, r0
 298:Device/Dev_DPS310.c ****        obj->bus_rx && 
 712              		.loc 1 298 11 discriminator 1 view .LVU178
 713 0018 036A     		ldr	r3, [r0, #32]
 297:Device/Dev_DPS310.c ****        obj->bus_rx && 
 714              		.loc 1 297 12 discriminator 1 view .LVU179
 715 001a 002B     		cmp	r3, #0
 716 001c 78D0     		beq	.L64
 299:Device/Dev_DPS310.c ****        DevDPS310_WaitRegValue(obj, 
 717              		.loc 1 299 8 view .LVU180
 718 001e 8023     		movs	r3, #128
 719 0020 1A46     		mov	r2, r3
 720 0022 0821     		movs	r1, #8
 721 0024 FFF7FEFF 		bl	DevDPS310_WaitRegValue
 722              	.LVL58:
 298:Device/Dev_DPS310.c ****        obj->bus_rx && 
 723              		.loc 1 298 20 view .LVU181
 724 0028 0546     		mov	r5, r0
 725 002a 0028     		cmp	r0, #0
 726 002c 71D0     		beq	.L62
 300:Device/Dev_DPS310.c ****                               DPS310_MEAS_CFG_REG,
 301:Device/Dev_DPS310.c ****                               DPS310_MEAS_CFG_COEF_RDY_AVAILABLE,
 302:Device/Dev_DPS310.c ****                               DPS310_MEAS_CFG_COEF_RDY_AVAILABLE) &&
 303:Device/Dev_DPS310.c ****        obj->bus_rx(obj->DevAddr, DPS310_COEF_REG, buff, 18))
 727              		.loc 1 303 11 view .LVU182
 728 002e 256A     		ldr	r5, [r4, #32]
 729              		.loc 1 303 8 view .LVU183
 730 0030 1223     		movs	r3, #18
 731 0032 01AA     		add	r2, sp, #4
 732 0034 1021     		movs	r1, #16
 733 0036 2078     		ldrb	r0, [r4]	@ zero_extendqisi2
 734 0038 A847     		blx	r5
 735              	.LVL59:
 302:Device/Dev_DPS310.c ****        obj->bus_rx(obj->DevAddr, DPS310_COEF_REG, buff, 18))
 736              		.loc 1 302 67 view .LVU184
 737 003a 0546     		mov	r5, r0
ARM GAS  C:\Users\8bit\AppData\Local\Temp\ccWQVCTL.s 			page 20


 738 003c 0028     		cmp	r0, #0
 739 003e 68D0     		beq	.L62
 304:Device/Dev_DPS310.c ****     {
 305:Device/Dev_DPS310.c ****         obj->cali_coefs.c0  = DevDPS310_GetTwoComplementOf(((uint32_t) buff[0] << 4u) | (((uint32_t
 740              		.loc 1 305 9 is_stmt 1 view .LVU185
 741              		.loc 1 305 76 is_stmt 0 view .LVU186
 742 0040 9DF80400 		ldrb	r0, [sp, #4]	@ zero_extendqisi2
 743              		.loc 1 305 106 view .LVU187
 744 0044 9DF80560 		ldrb	r6, [sp, #5]	@ zero_extendqisi2
 745              		.loc 1 305 117 view .LVU188
 746 0048 3309     		lsrs	r3, r6, #4
 747              		.loc 1 305 31 view .LVU189
 748 004a 0C21     		movs	r1, #12
 749 004c 43EA0010 		orr	r0, r3, r0, lsl #4
 750 0050 FFF7FEFF 		bl	DevDPS310_GetTwoComplementOf
 751              	.LVL60:
 752              		.loc 1 305 29 view .LVU190
 753 0054 A085     		strh	r0, [r4, #44]	@ movhi
 306:Device/Dev_DPS310.c ****         obj->cali_coefs.c1  = DevDPS310_GetTwoComplementOf(((((uint32_t) buff[1] & 0x0Fu) << 8u) | 
 754              		.loc 1 306 9 is_stmt 1 view .LVU191
 755              		.loc 1 306 91 is_stmt 0 view .LVU192
 756 0056 3602     		lsls	r6, r6, #8
 757 0058 06F47066 		and	r6, r6, #3840
 758              		.loc 1 306 115 view .LVU193
 759 005c 9DF80600 		ldrb	r0, [sp, #6]	@ zero_extendqisi2
 760              		.loc 1 306 31 view .LVU194
 761 0060 0C21     		movs	r1, #12
 762 0062 3043     		orrs	r0, r0, r6
 763 0064 FFF7FEFF 		bl	DevDPS310_GetTwoComplementOf
 764              	.LVL61:
 765              		.loc 1 306 29 view .LVU195
 766 0068 E085     		strh	r0, [r4, #46]	@ movhi
 307:Device/Dev_DPS310.c ****         obj->cali_coefs.c00 = DevDPS310_GetTwoComplementOf(((uint32_t) buff[3] << 12u) | ((uint32_t
 767              		.loc 1 307 9 is_stmt 1 view .LVU196
 768              		.loc 1 307 76 is_stmt 0 view .LVU197
 769 006a 9DF80730 		ldrb	r3, [sp, #7]	@ zero_extendqisi2
 770              		.loc 1 307 106 view .LVU198
 771 006e 9DF80800 		ldrb	r0, [sp, #8]	@ zero_extendqisi2
 772              		.loc 1 307 110 view .LVU199
 773 0072 0001     		lsls	r0, r0, #4
 774              		.loc 1 307 88 view .LVU200
 775 0074 40EA0330 		orr	r0, r0, r3, lsl #12
 776              		.loc 1 307 136 view .LVU201
 777 0078 9DF80960 		ldrb	r6, [sp, #9]	@ zero_extendqisi2
 778              		.loc 1 307 31 view .LVU202
 779 007c 1421     		movs	r1, #20
 780 007e 40EA1610 		orr	r0, r0, r6, lsr #4
 781 0082 FFF7FEFF 		bl	DevDPS310_GetTwoComplementOf
 782              	.LVL62:
 783              		.loc 1 307 29 view .LVU203
 784 0086 2063     		str	r0, [r4, #48]
 308:Device/Dev_DPS310.c ****         obj->cali_coefs.c10 = DevDPS310_GetTwoComplementOf((((uint32_t) buff[5] & 0x0Fu) << 16u) | 
 785              		.loc 1 308 9 is_stmt 1 view .LVU204
 786              		.loc 1 308 90 is_stmt 0 view .LVU205
 787 0088 3304     		lsls	r3, r6, #16
 788 008a 03F47023 		and	r3, r3, #983040
 789              		.loc 1 308 116 view .LVU206
ARM GAS  C:\Users\8bit\AppData\Local\Temp\ccWQVCTL.s 			page 21


 790 008e 9DF80A00 		ldrb	r0, [sp, #10]	@ zero_extendqisi2
 791              		.loc 1 308 98 view .LVU207
 792 0092 43EA0023 		orr	r3, r3, r0, lsl #8
 793              		.loc 1 308 144 view .LVU208
 794 0096 9DF80B00 		ldrb	r0, [sp, #11]	@ zero_extendqisi2
 795              		.loc 1 308 31 view .LVU209
 796 009a 1421     		movs	r1, #20
 797 009c 1843     		orrs	r0, r0, r3
 798 009e FFF7FEFF 		bl	DevDPS310_GetTwoComplementOf
 799              	.LVL63:
 800              		.loc 1 308 29 view .LVU210
 801 00a2 6063     		str	r0, [r4, #52]
 309:Device/Dev_DPS310.c ****         obj->cali_coefs.c01 = DevDPS310_GetTwoComplementOf(((uint32_t) buff[8] << 8u) | (uint32_t) 
 802              		.loc 1 309 9 is_stmt 1 view .LVU211
 803              		.loc 1 309 76 is_stmt 0 view .LVU212
 804 00a4 9DF80C00 		ldrb	r0, [sp, #12]	@ zero_extendqisi2
 805              		.loc 1 309 104 view .LVU213
 806 00a8 9DF80D30 		ldrb	r3, [sp, #13]	@ zero_extendqisi2
 807              		.loc 1 309 31 view .LVU214
 808 00ac 1021     		movs	r1, #16
 809 00ae 43EA0020 		orr	r0, r3, r0, lsl #8
 810 00b2 FFF7FEFF 		bl	DevDPS310_GetTwoComplementOf
 811              	.LVL64:
 812              		.loc 1 309 29 view .LVU215
 813 00b6 2087     		strh	r0, [r4, #56]	@ movhi
 310:Device/Dev_DPS310.c ****         obj->cali_coefs.c11 = DevDPS310_GetTwoComplementOf(((uint32_t) buff[10] << 8u) | (uint32_t)
 814              		.loc 1 310 9 is_stmt 1 view .LVU216
 815              		.loc 1 310 76 is_stmt 0 view .LVU217
 816 00b8 9DF80E00 		ldrb	r0, [sp, #14]	@ zero_extendqisi2
 817              		.loc 1 310 105 view .LVU218
 818 00bc 9DF80F30 		ldrb	r3, [sp, #15]	@ zero_extendqisi2
 819              		.loc 1 310 31 view .LVU219
 820 00c0 1021     		movs	r1, #16
 821 00c2 43EA0020 		orr	r0, r3, r0, lsl #8
 822 00c6 FFF7FEFF 		bl	DevDPS310_GetTwoComplementOf
 823              	.LVL65:
 824              		.loc 1 310 29 view .LVU220
 825 00ca 6087     		strh	r0, [r4, #58]	@ movhi
 311:Device/Dev_DPS310.c ****         obj->cali_coefs.c20 = DevDPS310_GetTwoComplementOf(((uint32_t) buff[12] << 8u) | (uint32_t)
 826              		.loc 1 311 9 is_stmt 1 view .LVU221
 827              		.loc 1 311 76 is_stmt 0 view .LVU222
 828 00cc 9DF81000 		ldrb	r0, [sp, #16]	@ zero_extendqisi2
 829              		.loc 1 311 105 view .LVU223
 830 00d0 9DF81130 		ldrb	r3, [sp, #17]	@ zero_extendqisi2
 831              		.loc 1 311 31 view .LVU224
 832 00d4 1021     		movs	r1, #16
 833 00d6 43EA0020 		orr	r0, r3, r0, lsl #8
 834 00da FFF7FEFF 		bl	DevDPS310_GetTwoComplementOf
 835              	.LVL66:
 836              		.loc 1 311 29 view .LVU225
 837 00de A087     		strh	r0, [r4, #60]	@ movhi
 312:Device/Dev_DPS310.c ****         obj->cali_coefs.c21 = DevDPS310_GetTwoComplementOf(((uint32_t) buff[14] << 8u) | (uint32_t)
 838              		.loc 1 312 9 is_stmt 1 view .LVU226
 839              		.loc 1 312 76 is_stmt 0 view .LVU227
 840 00e0 9DF81200 		ldrb	r0, [sp, #18]	@ zero_extendqisi2
 841              		.loc 1 312 105 view .LVU228
 842 00e4 9DF81330 		ldrb	r3, [sp, #19]	@ zero_extendqisi2
ARM GAS  C:\Users\8bit\AppData\Local\Temp\ccWQVCTL.s 			page 22


 843              		.loc 1 312 31 view .LVU229
 844 00e8 1021     		movs	r1, #16
 845 00ea 43EA0020 		orr	r0, r3, r0, lsl #8
 846 00ee FFF7FEFF 		bl	DevDPS310_GetTwoComplementOf
 847              	.LVL67:
 848              		.loc 1 312 29 view .LVU230
 849 00f2 E087     		strh	r0, [r4, #62]	@ movhi
 313:Device/Dev_DPS310.c ****         obj->cali_coefs.c30 = DevDPS310_GetTwoComplementOf(((uint32_t) buff[16] << 8u) | (uint32_t)
 850              		.loc 1 313 9 is_stmt 1 view .LVU231
 851              		.loc 1 313 76 is_stmt 0 view .LVU232
 852 00f4 9DF81400 		ldrb	r0, [sp, #20]	@ zero_extendqisi2
 853              		.loc 1 313 105 view .LVU233
 854 00f8 9DF81530 		ldrb	r3, [sp, #21]	@ zero_extendqisi2
 855              		.loc 1 313 31 view .LVU234
 856 00fc 1021     		movs	r1, #16
 857 00fe 43EA0020 		orr	r0, r3, r0, lsl #8
 858 0102 FFF7FEFF 		bl	DevDPS310_GetTwoComplementOf
 859              	.LVL68:
 860              		.loc 1 313 29 view .LVU235
 861 0106 A4F84000 		strh	r0, [r4, #64]	@ movhi
 314:Device/Dev_DPS310.c **** 
 315:Device/Dev_DPS310.c ****         return true;
 862              		.loc 1 315 9 is_stmt 1 view .LVU236
 863              		.loc 1 315 16 is_stmt 0 view .LVU237
 864 010a 02E0     		b	.L62
 865              	.LVL69:
 866              	.L63:
 316:Device/Dev_DPS310.c ****     }
 317:Device/Dev_DPS310.c **** 
 318:Device/Dev_DPS310.c ****     return false;
 867              		.loc 1 318 12 view .LVU238
 868 010c 0025     		movs	r5, #0
 869 010e 00E0     		b	.L62
 870              	.L64:
 871              		.loc 1 318 12 view .LVU239
 872 0110 0025     		movs	r5, #0
 873              	.LVL70:
 874              	.L62:
 319:Device/Dev_DPS310.c **** }
 875              		.loc 1 319 1 view .LVU240
 876 0112 2846     		mov	r0, r5
 877 0114 06B0     		add	sp, sp, #24
 878              	.LCFI22:
 879              		.cfi_def_cfa_offset 16
 880              		@ sp needed
 881 0116 70BD     		pop	{r4, r5, r6, pc}
 882              		.cfi_endproc
 883              	.LFE12:
 885              		.section	.text.DevDPS310_Init,"ax",%progbits
 886              		.align	1
 887              		.syntax unified
 888              		.thumb
 889              		.thumb_func
 891              	DevDPS310_Init:
 892              	.LVL71:
 893              	.LFB0:
  39:Device/Dev_DPS310.c ****     if(obj  && obj->bus_delay)
ARM GAS  C:\Users\8bit\AppData\Local\Temp\ccWQVCTL.s 			page 23


 894              		.loc 1 39 1 is_stmt 1 view -0
 895              		.cfi_startproc
 896              		@ args = 0, pretend = 0, frame = 0
 897              		@ frame_needed = 0, uses_anonymous_args = 0
  39:Device/Dev_DPS310.c ****     if(obj  && obj->bus_delay)
 898              		.loc 1 39 1 is_stmt 0 view .LVU242
 899 0000 38B5     		push	{r3, r4, r5, lr}
 900              	.LCFI23:
 901              		.cfi_def_cfa_offset 16
 902              		.cfi_offset 3, -16
 903              		.cfi_offset 4, -12
 904              		.cfi_offset 5, -8
 905              		.cfi_offset 14, -4
  40:Device/Dev_DPS310.c ****     {
 906              		.loc 1 40 5 is_stmt 1 view .LVU243
  40:Device/Dev_DPS310.c ****     {
 907              		.loc 1 40 7 is_stmt 0 view .LVU244
 908 0002 0028     		cmp	r0, #0
 909 0004 51D0     		beq	.L74
 910 0006 0446     		mov	r4, r0
  40:Device/Dev_DPS310.c ****     {
 911              		.loc 1 40 19 discriminator 1 view .LVU245
 912 0008 436A     		ldr	r3, [r0, #36]
  40:Device/Dev_DPS310.c ****     {
 913              		.loc 1 40 13 discriminator 1 view .LVU246
 914 000a 002B     		cmp	r3, #0
 915 000c 4FD0     		beq	.L75
  42:Device/Dev_DPS310.c **** 
 916              		.loc 1 42 9 is_stmt 1 view .LVU247
  42:Device/Dev_DPS310.c **** 
 917              		.loc 1 42 20 is_stmt 0 view .LVU248
 918 000e 0023     		movs	r3, #0
 919 0010 80F84530 		strb	r3, [r0, #69]
  44:Device/Dev_DPS310.c ****         {
 920              		.loc 1 44 9 is_stmt 1 view .LVU249
  44:Device/Dev_DPS310.c ****         {
 921              		.loc 1 44 13 is_stmt 0 view .LVU250
 922 0014 FFF7FEFF 		bl	DevDPS310_Get_ProdID
 923              	.LVL72:
  44:Device/Dev_DPS310.c ****         {
 924              		.loc 1 44 11 view .LVU251
 925 0018 0546     		mov	r5, r0
 926 001a 18B9     		cbnz	r0, .L68
  46:Device/Dev_DPS310.c ****             return false;
 927              		.loc 1 46 13 is_stmt 1 view .LVU252
  46:Device/Dev_DPS310.c ****             return false;
 928              		.loc 1 46 24 is_stmt 0 view .LVU253
 929 001c 0223     		movs	r3, #2
 930 001e 84F84530 		strb	r3, [r4, #69]
  47:Device/Dev_DPS310.c ****         }
 931              		.loc 1 47 13 is_stmt 1 view .LVU254
  47:Device/Dev_DPS310.c ****         }
 932              		.loc 1 47 20 is_stmt 0 view .LVU255
 933 0022 45E0     		b	.L67
 934              	.L68:
  50:Device/Dev_DPS310.c ****         {
 935              		.loc 1 50 9 is_stmt 1 view .LVU256
ARM GAS  C:\Users\8bit\AppData\Local\Temp\ccWQVCTL.s 			page 24


  50:Device/Dev_DPS310.c ****         {
 936              		.loc 1 50 13 is_stmt 0 view .LVU257
 937 0024 2046     		mov	r0, r4
 938 0026 FFF7FEFF 		bl	DevDPS310_Reset
 939              	.LVL73:
  50:Device/Dev_DPS310.c ****         {
 940              		.loc 1 50 11 view .LVU258
 941 002a 0546     		mov	r5, r0
 942 002c 58B1     		cbz	r0, .L78
  56:Device/Dev_DPS310.c **** 
 943              		.loc 1 56 9 is_stmt 1 view .LVU259
  56:Device/Dev_DPS310.c **** 
 944              		.loc 1 56 12 is_stmt 0 view .LVU260
 945 002e 636A     		ldr	r3, [r4, #36]
  56:Device/Dev_DPS310.c **** 
 946              		.loc 1 56 9 view .LVU261
 947 0030 3220     		movs	r0, #50
 948 0032 9847     		blx	r3
 949              	.LVL74:
  59:Device/Dev_DPS310.c ****         {
 950              		.loc 1 59 9 is_stmt 1 view .LVU262
  59:Device/Dev_DPS310.c ****         {
 951              		.loc 1 59 13 is_stmt 0 view .LVU263
 952 0034 2046     		mov	r0, r4
 953 0036 FFF7FEFF 		bl	DevDPS310_Get_Cali_Coefs
 954              	.LVL75:
  59:Device/Dev_DPS310.c ****         {
 955              		.loc 1 59 11 view .LVU264
 956 003a 0546     		mov	r5, r0
 957 003c 38B9     		cbnz	r0, .L70
  61:Device/Dev_DPS310.c ****             return false;
 958              		.loc 1 61 13 is_stmt 1 view .LVU265
  61:Device/Dev_DPS310.c ****             return false;
 959              		.loc 1 61 24 is_stmt 0 view .LVU266
 960 003e 0623     		movs	r3, #6
 961 0040 84F84530 		strb	r3, [r4, #69]
  62:Device/Dev_DPS310.c ****         }
 962              		.loc 1 62 13 is_stmt 1 view .LVU267
  62:Device/Dev_DPS310.c ****         }
 963              		.loc 1 62 20 is_stmt 0 view .LVU268
 964 0044 34E0     		b	.L67
 965              	.L78:
  52:Device/Dev_DPS310.c ****             return false;
 966              		.loc 1 52 13 is_stmt 1 view .LVU269
  52:Device/Dev_DPS310.c ****             return false;
 967              		.loc 1 52 24 is_stmt 0 view .LVU270
 968 0046 0323     		movs	r3, #3
 969 0048 84F84530 		strb	r3, [r4, #69]
  53:Device/Dev_DPS310.c ****         }
 970              		.loc 1 53 13 is_stmt 1 view .LVU271
  53:Device/Dev_DPS310.c ****         }
 971              		.loc 1 53 20 is_stmt 0 view .LVU272
 972 004c 30E0     		b	.L67
 973              	.L70:
  66:Device/Dev_DPS310.c ****         {
 974              		.loc 1 66 9 is_stmt 1 view .LVU273
  66:Device/Dev_DPS310.c ****         {
ARM GAS  C:\Users\8bit\AppData\Local\Temp\ccWQVCTL.s 			page 25


 975              		.loc 1 66 12 is_stmt 0 view .LVU274
 976 004e 5422     		movs	r2, #84
 977 0050 0621     		movs	r1, #6
 978 0052 2046     		mov	r0, r4
 979 0054 FFF7FEFF 		bl	DevDPS310_WriteByteToReg
 980              	.LVL76:
  66:Device/Dev_DPS310.c ****         {
 981              		.loc 1 66 11 view .LVU275
 982 0058 0546     		mov	r5, r0
 983 005a 18B9     		cbnz	r0, .L79
  73:Device/Dev_DPS310.c ****             return false;
 984              		.loc 1 73 13 is_stmt 1 view .LVU276
  73:Device/Dev_DPS310.c ****             return false;
 985              		.loc 1 73 24 is_stmt 0 view .LVU277
 986 005c 0423     		movs	r3, #4
 987 005e 84F84530 		strb	r3, [r4, #69]
  74:Device/Dev_DPS310.c ****         }
 988              		.loc 1 74 13 is_stmt 1 view .LVU278
  74:Device/Dev_DPS310.c ****         }
 989              		.loc 1 74 20 is_stmt 0 view .LVU279
 990 0062 25E0     		b	.L67
 991              	.L79:
  68:Device/Dev_DPS310.c ****         }
 992              		.loc 1 68 13 is_stmt 1 view .LVU280
  68:Device/Dev_DPS310.c ****         }
 993              		.loc 1 68 39 is_stmt 0 view .LVU281
 994 0064 0421     		movs	r1, #4
 995 0066 2046     		mov	r0, r4
 996 0068 FFF7FEFF 		bl	DevDPS310_GetScale
 997              	.LVL77:
  68:Device/Dev_DPS310.c ****         }
 998              		.loc 1 68 37 view .LVU282
 999 006c 84ED020A 		vstr.32	s0, [r4, #8]
  78:Device/Dev_DPS310.c ****         {
 1000              		.loc 1 78 9 is_stmt 1 view .LVU283
  78:Device/Dev_DPS310.c ****         {
 1001              		.loc 1 78 12 is_stmt 0 view .LVU284
 1002 0070 5421     		movs	r1, #84
 1003 0072 2046     		mov	r0, r4
 1004 0074 FFF7FEFF 		bl	DevDPS310_Configure_Temperature
 1005              	.LVL78:
  78:Device/Dev_DPS310.c ****         {
 1006              		.loc 1 78 11 view .LVU285
 1007 0078 0546     		mov	r5, r0
 1008 007a 18B9     		cbnz	r0, .L80
  85:Device/Dev_DPS310.c ****             return false;
 1009              		.loc 1 85 13 is_stmt 1 view .LVU286
  85:Device/Dev_DPS310.c ****             return false;
 1010              		.loc 1 85 24 is_stmt 0 view .LVU287
 1011 007c 0523     		movs	r3, #5
 1012 007e 84F84530 		strb	r3, [r4, #69]
  86:Device/Dev_DPS310.c ****         }
 1013              		.loc 1 86 13 is_stmt 1 view .LVU288
  86:Device/Dev_DPS310.c ****         }
 1014              		.loc 1 86 20 is_stmt 0 view .LVU289
 1015 0082 15E0     		b	.L67
 1016              	.L80:
ARM GAS  C:\Users\8bit\AppData\Local\Temp\ccWQVCTL.s 			page 26


  80:Device/Dev_DPS310.c ****         }
 1017              		.loc 1 80 13 is_stmt 1 view .LVU290
  80:Device/Dev_DPS310.c ****         }
 1018              		.loc 1 80 39 is_stmt 0 view .LVU291
 1019 0084 0421     		movs	r1, #4
 1020 0086 2046     		mov	r0, r4
 1021 0088 FFF7FEFF 		bl	DevDPS310_GetScale
 1022              	.LVL79:
  80:Device/Dev_DPS310.c ****         }
 1023              		.loc 1 80 37 view .LVU292
 1024 008c 84ED030A 		vstr.32	s0, [r4, #12]
  90:Device/Dev_DPS310.c **** 
 1025              		.loc 1 90 9 is_stmt 1 view .LVU293
 1026 0090 0C22     		movs	r2, #12
 1027 0092 0921     		movs	r1, #9
 1028 0094 2046     		mov	r0, r4
 1029 0096 FFF7FEFF 		bl	DevDPS310_WriteByteToReg
 1030              	.LVL80:
  93:Device/Dev_DPS310.c **** 
 1031              		.loc 1 93 9 view .LVU294
 1032 009a 0722     		movs	r2, #7
 1033 009c 0821     		movs	r1, #8
 1034 009e 2046     		mov	r0, r4
 1035 00a0 FFF7FEFF 		bl	DevDPS310_WriteByteToReg
 1036              	.LVL81:
  95:Device/Dev_DPS310.c **** 
 1037              		.loc 1 95 9 view .LVU295
  95:Device/Dev_DPS310.c **** 
 1038              		.loc 1 95 22 is_stmt 0 view .LVU296
 1039 00a4 7623     		movs	r3, #118
 1040 00a6 2370     		strb	r3, [r4]
  97:Device/Dev_DPS310.c ****     }
 1041              		.loc 1 97 9 is_stmt 1 view .LVU297
  97:Device/Dev_DPS310.c ****     }
 1042              		.loc 1 97 16 is_stmt 0 view .LVU298
 1043 00a8 02E0     		b	.L67
 1044              	.LVL82:
 1045              	.L74:
 100:Device/Dev_DPS310.c **** }
 1046              		.loc 1 100 12 view .LVU299
 1047 00aa 0025     		movs	r5, #0
 1048 00ac 00E0     		b	.L67
 1049              	.L75:
 100:Device/Dev_DPS310.c **** }
 1050              		.loc 1 100 12 view .LVU300
 1051 00ae 0025     		movs	r5, #0
 1052              	.LVL83:
 1053              	.L67:
 101:Device/Dev_DPS310.c **** 
 1054              		.loc 1 101 1 view .LVU301
 1055 00b0 2846     		mov	r0, r5
 1056 00b2 38BD     		pop	{r3, r4, r5, pc}
 1057              		.cfi_endproc
 1058              	.LFE0:
 1060              		.section	.text.DevDPS310_GetReady,"ax",%progbits
 1061              		.align	1
 1062              		.syntax unified
ARM GAS  C:\Users\8bit\AppData\Local\Temp\ccWQVCTL.s 			page 27


 1063              		.thumb
 1064              		.thumb_func
 1066              	DevDPS310_GetReady:
 1067              	.LVL84:
 1068              	.LFB14:
 320:Device/Dev_DPS310.c **** 
 321:Device/Dev_DPS310.c **** /* single trigger one shot mode */
 322:Device/Dev_DPS310.c **** static bool DevDPS310_Sample(DevDPS310Obj_TypeDef *obj)
 323:Device/Dev_DPS310.c **** {
 324:Device/Dev_DPS310.c ****     uint8_t bus_read[6] = {0};
 325:Device/Dev_DPS310.c **** 
 326:Device/Dev_DPS310.c ****     if(obj)
 327:Device/Dev_DPS310.c ****     {
 328:Device/Dev_DPS310.c ****         obj->ready = false;
 329:Device/Dev_DPS310.c **** 
 330:Device/Dev_DPS310.c ****         // read pressure data from register
 331:Device/Dev_DPS310.c ****         if(!DevDPS310_ReadLenByteToReg(obj, DPS310_PSR_B2_REG, bus_read, sizeof(bus_read)))
 332:Device/Dev_DPS310.c ****         {
 333:Device/Dev_DPS310.c ****             obj->pressure = 0.0f;
 334:Device/Dev_DPS310.c ****             obj->tempra = 0.0f;
 335:Device/Dev_DPS310.c ****             return false;
 336:Device/Dev_DPS310.c ****         }
 337:Device/Dev_DPS310.c **** 
 338:Device/Dev_DPS310.c ****         obj->none_scale_pressure = 0;
 339:Device/Dev_DPS310.c ****         memcpy(&obj->none_scale_pressure, bus_read, 3);
 340:Device/Dev_DPS310.c **** 
 341:Device/Dev_DPS310.c ****         obj->none_scale_tempra = 0;
 342:Device/Dev_DPS310.c ****         memcpy(&obj->none_scale_tempra, &bus_read[3], 3);
 343:Device/Dev_DPS310.c **** 
 344:Device/Dev_DPS310.c ****         // Calculate scaled measurement results.
 345:Device/Dev_DPS310.c ****         const float Praw_sc = DevDPS310_GetTwoComplementOf((bus_read[0] << 16) + (bus_read[1] << 8)
 346:Device/Dev_DPS310.c ****         const float Traw_sc = DevDPS310_GetTwoComplementOf((bus_read[3] << 16) + (bus_read[4] << 8)
 347:Device/Dev_DPS310.c **** 
 348:Device/Dev_DPS310.c ****         // Calculate compensated measurement results.
 349:Device/Dev_DPS310.c ****         const float c00 = obj->cali_coefs.c00;
 350:Device/Dev_DPS310.c ****         const float c01 = obj->cali_coefs.c01;
 351:Device/Dev_DPS310.c ****         const float c10 = obj->cali_coefs.c10;
 352:Device/Dev_DPS310.c ****         const float c11 = obj->cali_coefs.c11;
 353:Device/Dev_DPS310.c ****         const float c20 = obj->cali_coefs.c20;
 354:Device/Dev_DPS310.c ****         const float c21 = obj->cali_coefs.c21;
 355:Device/Dev_DPS310.c ****         const float c30 = obj->cali_coefs.c30;
 356:Device/Dev_DPS310.c **** 
 357:Device/Dev_DPS310.c ****         // See section 4.9.1, How to Calculate Compensated Pressure Values, of datasheet
 358:Device/Dev_DPS310.c ****         obj->pressure = c00 + Praw_sc * (c10 + Praw_sc * (c20 + Praw_sc * c30)) + Traw_sc * c01 + T
 359:Device/Dev_DPS310.c **** 
 360:Device/Dev_DPS310.c ****         const float c0 = obj->cali_coefs.c0;
 361:Device/Dev_DPS310.c ****         const float c1 = obj->cali_coefs.c1;
 362:Device/Dev_DPS310.c **** 
 363:Device/Dev_DPS310.c ****         // See section 4.9.2, How to Calculate Compensated Temperature Values, of datasheet
 364:Device/Dev_DPS310.c ****         obj->tempra = c0 * 0.5f + c1 * Traw_sc;
 365:Device/Dev_DPS310.c **** 
 366:Device/Dev_DPS310.c ****         obj->cyc ++;
 367:Device/Dev_DPS310.c ****         if(obj->get_tick)
 368:Device/Dev_DPS310.c ****             obj->update_time = obj->get_tick();
 369:Device/Dev_DPS310.c **** 
 370:Device/Dev_DPS310.c ****         obj->ready = true;
 371:Device/Dev_DPS310.c **** 
ARM GAS  C:\Users\8bit\AppData\Local\Temp\ccWQVCTL.s 			page 28


 372:Device/Dev_DPS310.c ****         return true;
 373:Device/Dev_DPS310.c ****     }
 374:Device/Dev_DPS310.c **** 
 375:Device/Dev_DPS310.c ****     return false;
 376:Device/Dev_DPS310.c **** }
 377:Device/Dev_DPS310.c **** 
 378:Device/Dev_DPS310.c **** static bool DevDPS310_GetReady(DevDPS310Obj_TypeDef *obj)
 379:Device/Dev_DPS310.c **** {
 1069              		.loc 1 379 1 is_stmt 1 view -0
 1070              		.cfi_startproc
 1071              		@ args = 0, pretend = 0, frame = 0
 1072              		@ frame_needed = 0, uses_anonymous_args = 0
 1073              		@ link register save eliminated.
 380:Device/Dev_DPS310.c ****     if(obj)
 1074              		.loc 1 380 5 view .LVU303
 1075              		.loc 1 380 7 is_stmt 0 view .LVU304
 1076 0000 10B1     		cbz	r0, .L83
 381:Device/Dev_DPS310.c ****         return obj->ready;
 1077              		.loc 1 381 9 is_stmt 1 view .LVU305
 1078              		.loc 1 381 19 is_stmt 0 view .LVU306
 1079 0002 90F84400 		ldrb	r0, [r0, #68]	@ zero_extendqisi2
 1080              	.LVL85:
 1081              		.loc 1 381 19 view .LVU307
 1082 0006 7047     		bx	lr
 1083              	.LVL86:
 1084              	.L83:
 382:Device/Dev_DPS310.c **** 
 383:Device/Dev_DPS310.c ****     return false;
 1085              		.loc 1 383 12 view .LVU308
 1086 0008 0020     		movs	r0, #0
 1087              	.LVL87:
 384:Device/Dev_DPS310.c **** }
 1088              		.loc 1 384 1 view .LVU309
 1089 000a 7047     		bx	lr
 1090              		.cfi_endproc
 1091              	.LFE14:
 1093              		.section	.text.DevDPS310_Get_Data,"ax",%progbits
 1094              		.align	1
 1095              		.syntax unified
 1096              		.thumb
 1097              		.thumb_func
 1099              	DevDPS310_Get_Data:
 1100              	.LVL88:
 1101              	.LFB15:
 385:Device/Dev_DPS310.c **** 
 386:Device/Dev_DPS310.c **** static DevDPS310_Data_TypeDef DevDPS310_Get_Data(DevDPS310Obj_TypeDef *obj)
 387:Device/Dev_DPS310.c **** {
 1102              		.loc 1 387 1 is_stmt 1 view -0
 1103              		.cfi_startproc
 1104              		@ args = 0, pretend = 0, frame = 16
 1105              		@ frame_needed = 0, uses_anonymous_args = 0
 1106              		@ link register save eliminated.
 1107              		.loc 1 387 1 is_stmt 0 view .LVU311
 1108 0000 84B0     		sub	sp, sp, #16
 1109              	.LCFI24:
 1110              		.cfi_def_cfa_offset 16
 1111 0002 8446     		mov	ip, r0
ARM GAS  C:\Users\8bit\AppData\Local\Temp\ccWQVCTL.s 			page 29


 388:Device/Dev_DPS310.c ****     DevDPS310_Data_TypeDef tmp;
 1112              		.loc 1 388 5 is_stmt 1 view .LVU312
 389:Device/Dev_DPS310.c **** 
 390:Device/Dev_DPS310.c ****     memset(&tmp, 0, sizeof(DevDPS310_Data_TypeDef));
 1113              		.loc 1 390 5 view .LVU313
 1114 0004 0023     		movs	r3, #0
 1115 0006 0093     		str	r3, [sp]
 1116 0008 0193     		str	r3, [sp, #4]
 1117 000a 0293     		str	r3, [sp, #8]
 1118 000c 0393     		str	r3, [sp, #12]
 391:Device/Dev_DPS310.c **** 
 392:Device/Dev_DPS310.c ****     if(obj)
 1119              		.loc 1 392 5 view .LVU314
 1120              		.loc 1 392 7 is_stmt 0 view .LVU315
 1121 000e 69B1     		cbz	r1, .L85
 393:Device/Dev_DPS310.c ****     {
 394:Device/Dev_DPS310.c ****         tmp.time_stamp = obj->update_time;
 1122              		.loc 1 394 9 is_stmt 1 view .LVU316
 1123              		.loc 1 394 29 is_stmt 0 view .LVU317
 1124 0010 4A68     		ldr	r2, [r1, #4]
 1125              		.loc 1 394 24 view .LVU318
 1126 0012 0092     		str	r2, [sp]
 395:Device/Dev_DPS310.c ****         tmp.cyc = obj->cyc;
 1127              		.loc 1 395 9 is_stmt 1 view .LVU319
 1128              		.loc 1 395 22 is_stmt 0 view .LVU320
 1129 0014 8A6C     		ldr	r2, [r1, #72]
 1130              		.loc 1 395 17 view .LVU321
 1131 0016 0192     		str	r2, [sp, #4]
 396:Device/Dev_DPS310.c ****         tmp.scaled_press = obj->pressure;
 1132              		.loc 1 396 9 is_stmt 1 view .LVU322
 1133              		.loc 1 396 31 is_stmt 0 view .LVU323
 1134 0018 0A6D     		ldr	r2, [r1, #80]	@ float
 1135              		.loc 1 396 26 view .LVU324
 1136 001a 0292     		str	r2, [sp, #8]	@ float
 397:Device/Dev_DPS310.c ****         tmp.scaled_tempra = obj->tempra;
 1137              		.loc 1 397 9 is_stmt 1 view .LVU325
 1138              		.loc 1 397 32 is_stmt 0 view .LVU326
 1139 001c CA6C     		ldr	r2, [r1, #76]	@ float
 1140              		.loc 1 397 27 view .LVU327
 1141 001e 0392     		str	r2, [sp, #12]	@ float
 398:Device/Dev_DPS310.c **** 
 399:Device/Dev_DPS310.c ****         if(obj->ready)
 1142              		.loc 1 399 9 is_stmt 1 view .LVU328
 1143              		.loc 1 399 15 is_stmt 0 view .LVU329
 1144 0020 91F84420 		ldrb	r2, [r1, #68]	@ zero_extendqisi2
 1145              		.loc 1 399 11 view .LVU330
 1146 0024 12B1     		cbz	r2, .L85
 400:Device/Dev_DPS310.c ****             obj->ready = false;
 1147              		.loc 1 400 13 is_stmt 1 view .LVU331
 1148              		.loc 1 400 24 is_stmt 0 view .LVU332
 1149 0026 0022     		movs	r2, #0
 1150 0028 81F84420 		strb	r2, [r1, #68]
 1151              	.L85:
 401:Device/Dev_DPS310.c ****     }
 402:Device/Dev_DPS310.c **** 
 403:Device/Dev_DPS310.c ****     return tmp;
 1152              		.loc 1 403 5 is_stmt 1 view .LVU333
ARM GAS  C:\Users\8bit\AppData\Local\Temp\ccWQVCTL.s 			page 30


 1153              		.loc 1 403 12 is_stmt 0 view .LVU334
 1154 002c 04AB     		add	r3, sp, #16
 1155 002e 13E90F00 		ldmdb	r3, {r0, r1, r2, r3}
 1156              	.LVL89:
 1157              		.loc 1 403 12 view .LVU335
 1158 0032 8CE80F00 		stm	ip, {r0, r1, r2, r3}
 404:Device/Dev_DPS310.c **** }
 1159              		.loc 1 404 1 view .LVU336
 1160 0036 6046     		mov	r0, ip
 1161 0038 04B0     		add	sp, sp, #16
 1162              	.LCFI25:
 1163              		.cfi_def_cfa_offset 0
 1164              		@ sp needed
 1165 003a 7047     		bx	lr
 1166              		.cfi_endproc
 1167              	.LFE15:
 1169              		.section	.text.DevDPS310_ReadLenByteToReg,"ax",%progbits
 1170              		.align	1
 1171              		.syntax unified
 1172              		.thumb
 1173              		.thumb_func
 1175              	DevDPS310_ReadLenByteToReg:
 1176              	.LVL90:
 1177              	.LFB8:
 220:Device/Dev_DPS310.c ****     if(obj && obj->bus_rx && data && len)
 1178              		.loc 1 220 1 is_stmt 1 view -0
 1179              		.cfi_startproc
 1180              		@ args = 0, pretend = 0, frame = 0
 1181              		@ frame_needed = 0, uses_anonymous_args = 0
 220:Device/Dev_DPS310.c ****     if(obj && obj->bus_rx && data && len)
 1182              		.loc 1 220 1 is_stmt 0 view .LVU338
 1183 0000 F8B5     		push	{r3, r4, r5, r6, r7, lr}
 1184              	.LCFI26:
 1185              		.cfi_def_cfa_offset 24
 1186              		.cfi_offset 3, -24
 1187              		.cfi_offset 4, -20
 1188              		.cfi_offset 5, -16
 1189              		.cfi_offset 6, -12
 1190              		.cfi_offset 7, -8
 1191              		.cfi_offset 14, -4
 221:Device/Dev_DPS310.c ****     {
 1192              		.loc 1 221 5 is_stmt 1 view .LVU339
 221:Device/Dev_DPS310.c ****     {
 1193              		.loc 1 221 7 is_stmt 0 view .LVU340
 1194 0002 78B1     		cbz	r0, .L89
 1195 0004 1546     		mov	r5, r2
 1196 0006 1C46     		mov	r4, r3
 221:Device/Dev_DPS310.c ****     {
 1197              		.loc 1 221 18 discriminator 1 view .LVU341
 1198 0008 076A     		ldr	r7, [r0, #32]
 221:Device/Dev_DPS310.c ****     {
 1199              		.loc 1 221 12 discriminator 1 view .LVU342
 1200 000a 77B1     		cbz	r7, .L90
 221:Device/Dev_DPS310.c ****     {
 1201              		.loc 1 221 27 discriminator 2 view .LVU343
 1202 000c 7AB1     		cbz	r2, .L91
 221:Device/Dev_DPS310.c ****     {
ARM GAS  C:\Users\8bit\AppData\Local\Temp\ccWQVCTL.s 			page 31


 1203              		.loc 1 221 35 discriminator 3 view .LVU344
 1204 000e 83B1     		cbz	r3, .L92
 223:Device/Dev_DPS310.c ****         {
 1205              		.loc 1 223 9 is_stmt 1 view .LVU345
 223:Device/Dev_DPS310.c ****         {
 1206              		.loc 1 223 13 is_stmt 0 view .LVU346
 1207 0010 0078     		ldrb	r0, [r0]	@ zero_extendqisi2
 1208              	.LVL91:
 223:Device/Dev_DPS310.c ****         {
 1209              		.loc 1 223 13 view .LVU347
 1210 0012 B847     		blx	r7
 1211              	.LVL92:
 223:Device/Dev_DPS310.c ****         {
 1212              		.loc 1 223 11 view .LVU348
 1213 0014 0646     		mov	r6, r0
 1214 0016 30B9     		cbnz	r0, .L88
 225:Device/Dev_DPS310.c ****             return false;
 1215              		.loc 1 225 13 is_stmt 1 view .LVU349
 1216 0018 2246     		mov	r2, r4
 1217 001a 0021     		movs	r1, #0
 1218 001c 2846     		mov	r0, r5
 1219 001e FFF7FEFF 		bl	memset
 1220              	.LVL93:
 226:Device/Dev_DPS310.c ****         }
 1221              		.loc 1 226 13 view .LVU350
 226:Device/Dev_DPS310.c ****         }
 1222              		.loc 1 226 20 is_stmt 0 view .LVU351
 1223 0022 00E0     		b	.L88
 1224              	.LVL94:
 1225              	.L89:
 232:Device/Dev_DPS310.c **** }
 1226              		.loc 1 232 12 view .LVU352
 1227 0024 0026     		movs	r6, #0
 1228              	.LVL95:
 1229              	.L88:
 233:Device/Dev_DPS310.c **** 
 1230              		.loc 1 233 1 view .LVU353
 1231 0026 3046     		mov	r0, r6
 1232 0028 F8BD     		pop	{r3, r4, r5, r6, r7, pc}
 1233              	.LVL96:
 1234              	.L90:
 232:Device/Dev_DPS310.c **** }
 1235              		.loc 1 232 12 view .LVU354
 1236 002a 0026     		movs	r6, #0
 1237 002c FBE7     		b	.L88
 1238              	.L91:
 1239 002e 0026     		movs	r6, #0
 1240 0030 F9E7     		b	.L88
 1241              	.L92:
 1242 0032 0026     		movs	r6, #0
 1243 0034 F7E7     		b	.L88
 1244              		.cfi_endproc
 1245              	.LFE8:
 1247              		.section	.text.DevDPS310_Sample,"ax",%progbits
 1248              		.align	1
 1249              		.syntax unified
 1250              		.thumb
ARM GAS  C:\Users\8bit\AppData\Local\Temp\ccWQVCTL.s 			page 32


 1251              		.thumb_func
 1253              	DevDPS310_Sample:
 1254              	.LVL97:
 1255              	.LFB13:
 323:Device/Dev_DPS310.c ****     uint8_t bus_read[6] = {0};
 1256              		.loc 1 323 1 is_stmt 1 view -0
 1257              		.cfi_startproc
 1258              		@ args = 0, pretend = 0, frame = 8
 1259              		@ frame_needed = 0, uses_anonymous_args = 0
 323:Device/Dev_DPS310.c ****     uint8_t bus_read[6] = {0};
 1260              		.loc 1 323 1 is_stmt 0 view .LVU356
 1261 0000 30B5     		push	{r4, r5, lr}
 1262              	.LCFI27:
 1263              		.cfi_def_cfa_offset 12
 1264              		.cfi_offset 4, -12
 1265              		.cfi_offset 5, -8
 1266              		.cfi_offset 14, -4
 1267 0002 2DED028B 		vpush.64	{d8}
 1268              	.LCFI28:
 1269              		.cfi_def_cfa_offset 20
 1270              		.cfi_offset 80, -20
 1271              		.cfi_offset 81, -16
 1272 0006 83B0     		sub	sp, sp, #12
 1273              	.LCFI29:
 1274              		.cfi_def_cfa_offset 32
 324:Device/Dev_DPS310.c **** 
 1275              		.loc 1 324 5 is_stmt 1 view .LVU357
 324:Device/Dev_DPS310.c **** 
 1276              		.loc 1 324 13 is_stmt 0 view .LVU358
 1277 0008 0023     		movs	r3, #0
 1278 000a 0093     		str	r3, [sp]
 1279 000c ADF80430 		strh	r3, [sp, #4]	@ movhi
 326:Device/Dev_DPS310.c ****     {
 1280              		.loc 1 326 5 is_stmt 1 view .LVU359
 326:Device/Dev_DPS310.c ****     {
 1281              		.loc 1 326 7 is_stmt 0 view .LVU360
 1282 0010 0028     		cmp	r0, #0
 1283 0012 00F0AE80 		beq	.L98
 1284 0016 0446     		mov	r4, r0
 1285              	.LBB2:
 328:Device/Dev_DPS310.c **** 
 1286              		.loc 1 328 9 is_stmt 1 view .LVU361
 328:Device/Dev_DPS310.c **** 
 1287              		.loc 1 328 20 is_stmt 0 view .LVU362
 1288 0018 1946     		mov	r1, r3
 1289 001a 80F84430 		strb	r3, [r0, #68]
 331:Device/Dev_DPS310.c ****         {
 1290              		.loc 1 331 9 is_stmt 1 view .LVU363
 331:Device/Dev_DPS310.c ****         {
 1291              		.loc 1 331 13 is_stmt 0 view .LVU364
 1292 001e 0623     		movs	r3, #6
 1293 0020 6A46     		mov	r2, sp
 1294 0022 FFF7FEFF 		bl	DevDPS310_ReadLenByteToReg
 1295              	.LVL98:
 331:Device/Dev_DPS310.c ****         {
 1296              		.loc 1 331 11 view .LVU365
 1297 0026 0546     		mov	r5, r0
ARM GAS  C:\Users\8bit\AppData\Local\Temp\ccWQVCTL.s 			page 33


 1298 0028 18B9     		cbnz	r0, .L96
 333:Device/Dev_DPS310.c ****             obj->tempra = 0.0f;
 1299              		.loc 1 333 13 is_stmt 1 view .LVU366
 333:Device/Dev_DPS310.c ****             obj->tempra = 0.0f;
 1300              		.loc 1 333 27 is_stmt 0 view .LVU367
 1301 002a 0023     		movs	r3, #0
 1302 002c 2365     		str	r3, [r4, #80]	@ float
 334:Device/Dev_DPS310.c ****             return false;
 1303              		.loc 1 334 13 is_stmt 1 view .LVU368
 334:Device/Dev_DPS310.c ****             return false;
 1304              		.loc 1 334 25 is_stmt 0 view .LVU369
 1305 002e E364     		str	r3, [r4, #76]	@ float
 335:Device/Dev_DPS310.c ****         }
 1306              		.loc 1 335 13 is_stmt 1 view .LVU370
 335:Device/Dev_DPS310.c ****         }
 1307              		.loc 1 335 20 is_stmt 0 view .LVU371
 1308 0030 A0E0     		b	.L95
 1309              	.L96:
 338:Device/Dev_DPS310.c ****         memcpy(&obj->none_scale_pressure, bus_read, 3);
 1310              		.loc 1 338 9 is_stmt 1 view .LVU372
 338:Device/Dev_DPS310.c ****         memcpy(&obj->none_scale_pressure, bus_read, 3);
 1311              		.loc 1 338 34 is_stmt 0 view .LVU373
 1312 0032 0022     		movs	r2, #0
 1313 0034 2346     		mov	r3, r4
 1314 0036 43F8142F 		str	r2, [r3, #20]!
 339:Device/Dev_DPS310.c **** 
 1315              		.loc 1 339 9 is_stmt 1 view .LVU374
 1316 003a BDF80000 		ldrh	r0, [sp]	@ unaligned
 1317 003e 9DF80210 		ldrb	r1, [sp, #2]	@ zero_extendqisi2
 1318 0042 A082     		strh	r0, [r4, #20]	@ unaligned
 1319 0044 9970     		strb	r1, [r3, #2]
 341:Device/Dev_DPS310.c ****         memcpy(&obj->none_scale_tempra, &bus_read[3], 3);
 1320              		.loc 1 341 9 view .LVU375
 341:Device/Dev_DPS310.c ****         memcpy(&obj->none_scale_tempra, &bus_read[3], 3);
 1321              		.loc 1 341 32 is_stmt 0 view .LVU376
 1322 0046 2346     		mov	r3, r4
 1323 0048 43F8182F 		str	r2, [r3, #24]!
 342:Device/Dev_DPS310.c **** 
 1324              		.loc 1 342 9 is_stmt 1 view .LVU377
 1325 004c BDF80310 		ldrh	r1, [sp, #3]	@ unaligned
 1326 0050 9DF80520 		ldrb	r2, [sp, #5]	@ zero_extendqisi2
 1327 0054 2183     		strh	r1, [r4, #24]	@ unaligned
 1328 0056 9A70     		strb	r2, [r3, #2]
 345:Device/Dev_DPS310.c ****         const float Traw_sc = DevDPS310_GetTwoComplementOf((bus_read[3] << 16) + (bus_read[4] << 8)
 1329              		.loc 1 345 9 view .LVU378
 345:Device/Dev_DPS310.c ****         const float Traw_sc = DevDPS310_GetTwoComplementOf((bus_read[3] << 16) + (bus_read[4] << 8)
 1330              		.loc 1 345 69 is_stmt 0 view .LVU379
 1331 0058 9DF80000 		ldrb	r0, [sp]	@ zero_extendqisi2
 345:Device/Dev_DPS310.c ****         const float Traw_sc = DevDPS310_GetTwoComplementOf((bus_read[3] << 16) + (bus_read[4] << 8)
 1332              		.loc 1 345 91 view .LVU380
 1333 005c 9DF80130 		ldrb	r3, [sp, #1]	@ zero_extendqisi2
 345:Device/Dev_DPS310.c ****         const float Traw_sc = DevDPS310_GetTwoComplementOf((bus_read[3] << 16) + (bus_read[4] << 8)
 1334              		.loc 1 345 95 view .LVU381
 1335 0060 1B02     		lsls	r3, r3, #8
 345:Device/Dev_DPS310.c ****         const float Traw_sc = DevDPS310_GetTwoComplementOf((bus_read[3] << 16) + (bus_read[4] << 8)
 1336              		.loc 1 345 80 view .LVU382
 1337 0062 03EB0043 		add	r3, r3, r0, lsl #16
ARM GAS  C:\Users\8bit\AppData\Local\Temp\ccWQVCTL.s 			page 34


 345:Device/Dev_DPS310.c ****         const float Traw_sc = DevDPS310_GetTwoComplementOf((bus_read[3] << 16) + (bus_read[4] << 8)
 1338              		.loc 1 345 111 view .LVU383
 1339 0066 9DF80200 		ldrb	r0, [sp, #2]	@ zero_extendqisi2
 345:Device/Dev_DPS310.c ****         const float Traw_sc = DevDPS310_GetTwoComplementOf((bus_read[3] << 16) + (bus_read[4] << 8)
 1340              		.loc 1 345 31 view .LVU384
 1341 006a 1821     		movs	r1, #24
 1342 006c 1844     		add	r0, r0, r3
 1343 006e FFF7FEFF 		bl	DevDPS310_GetTwoComplementOf
 1344              	.LVL99:
 1345 0072 07EE900A 		vmov	s15, r0	@ int
 345:Device/Dev_DPS310.c ****         const float Traw_sc = DevDPS310_GetTwoComplementOf((bus_read[3] << 16) + (bus_read[4] << 8)
 1346              		.loc 1 345 120 view .LVU385
 1347 0076 F8EEE77A 		vcvt.f32.s32	s15, s15
 345:Device/Dev_DPS310.c ****         const float Traw_sc = DevDPS310_GetTwoComplementOf((bus_read[3] << 16) + (bus_read[4] << 8)
 1348              		.loc 1 345 125 view .LVU386
 1349 007a 94ED027A 		vldr.32	s14, [r4, #8]
 345:Device/Dev_DPS310.c ****         const float Traw_sc = DevDPS310_GetTwoComplementOf((bus_read[3] << 16) + (bus_read[4] << 8)
 1350              		.loc 1 345 21 view .LVU387
 1351 007e 87EE878A 		vdiv.f32	s16, s15, s14
 1352              	.LVL100:
 346:Device/Dev_DPS310.c **** 
 1353              		.loc 1 346 9 is_stmt 1 view .LVU388
 346:Device/Dev_DPS310.c **** 
 1354              		.loc 1 346 69 is_stmt 0 view .LVU389
 1355 0082 9DF80300 		ldrb	r0, [sp, #3]	@ zero_extendqisi2
 346:Device/Dev_DPS310.c **** 
 1356              		.loc 1 346 91 view .LVU390
 1357 0086 9DF80430 		ldrb	r3, [sp, #4]	@ zero_extendqisi2
 346:Device/Dev_DPS310.c **** 
 1358              		.loc 1 346 95 view .LVU391
 1359 008a 1B02     		lsls	r3, r3, #8
 346:Device/Dev_DPS310.c **** 
 1360              		.loc 1 346 80 view .LVU392
 1361 008c 03EB0043 		add	r3, r3, r0, lsl #16
 346:Device/Dev_DPS310.c **** 
 1362              		.loc 1 346 111 view .LVU393
 1363 0090 9DF80500 		ldrb	r0, [sp, #5]	@ zero_extendqisi2
 346:Device/Dev_DPS310.c **** 
 1364              		.loc 1 346 31 view .LVU394
 1365 0094 1821     		movs	r1, #24
 1366 0096 1844     		add	r0, r0, r3
 1367 0098 FFF7FEFF 		bl	DevDPS310_GetTwoComplementOf
 1368              	.LVL101:
 1369 009c 07EE900A 		vmov	s15, r0	@ int
 346:Device/Dev_DPS310.c **** 
 1370              		.loc 1 346 120 view .LVU395
 1371 00a0 F8EEE77A 		vcvt.f32.s32	s15, s15
 346:Device/Dev_DPS310.c **** 
 1372              		.loc 1 346 125 view .LVU396
 1373 00a4 D4ED036A 		vldr.32	s13, [r4, #12]
 346:Device/Dev_DPS310.c **** 
 1374              		.loc 1 346 21 view .LVU397
 1375 00a8 87EEA67A 		vdiv.f32	s14, s15, s13
 1376              	.LVL102:
 349:Device/Dev_DPS310.c ****         const float c01 = obj->cali_coefs.c01;
 1377              		.loc 1 349 9 is_stmt 1 view .LVU398
 349:Device/Dev_DPS310.c ****         const float c01 = obj->cali_coefs.c01;
ARM GAS  C:\Users\8bit\AppData\Local\Temp\ccWQVCTL.s 			page 35


 1378              		.loc 1 349 21 is_stmt 0 view .LVU399
 1379 00ac D4ED0C7A 		vldr.32	s15, [r4, #48]	@ int
 1380 00b0 B8EEE75A 		vcvt.f32.s32	s10, s15
 1381              	.LVL103:
 350:Device/Dev_DPS310.c ****         const float c10 = obj->cali_coefs.c10;
 1382              		.loc 1 350 9 is_stmt 1 view .LVU400
 350:Device/Dev_DPS310.c ****         const float c10 = obj->cali_coefs.c10;
 1383              		.loc 1 350 42 is_stmt 0 view .LVU401
 1384 00b4 B4F93830 		ldrsh	r3, [r4, #56]
 1385 00b8 06EE903A 		vmov	s13, r3	@ int
 350:Device/Dev_DPS310.c ****         const float c10 = obj->cali_coefs.c10;
 1386              		.loc 1 350 21 view .LVU402
 1387 00bc F8EEE66A 		vcvt.f32.s32	s13, s13
 1388              	.LVL104:
 351:Device/Dev_DPS310.c ****         const float c11 = obj->cali_coefs.c11;
 1389              		.loc 1 351 9 is_stmt 1 view .LVU403
 351:Device/Dev_DPS310.c ****         const float c11 = obj->cali_coefs.c11;
 1390              		.loc 1 351 21 is_stmt 0 view .LVU404
 1391 00c0 D4ED0D7A 		vldr.32	s15, [r4, #52]	@ int
 1392 00c4 F8EEE74A 		vcvt.f32.s32	s9, s15
 1393              	.LVL105:
 352:Device/Dev_DPS310.c ****         const float c20 = obj->cali_coefs.c20;
 1394              		.loc 1 352 9 is_stmt 1 view .LVU405
 352:Device/Dev_DPS310.c ****         const float c20 = obj->cali_coefs.c20;
 1395              		.loc 1 352 42 is_stmt 0 view .LVU406
 1396 00c8 B4F93A30 		ldrsh	r3, [r4, #58]
 1397 00cc 06EE103A 		vmov	s12, r3	@ int
 352:Device/Dev_DPS310.c ****         const float c20 = obj->cali_coefs.c20;
 1398              		.loc 1 352 21 view .LVU407
 1399 00d0 B8EEC66A 		vcvt.f32.s32	s12, s12
 1400              	.LVL106:
 353:Device/Dev_DPS310.c ****         const float c21 = obj->cali_coefs.c21;
 1401              		.loc 1 353 9 is_stmt 1 view .LVU408
 353:Device/Dev_DPS310.c ****         const float c21 = obj->cali_coefs.c21;
 1402              		.loc 1 353 42 is_stmt 0 view .LVU409
 1403 00d4 B4F93C30 		ldrsh	r3, [r4, #60]
 1404 00d8 07EE903A 		vmov	s15, r3	@ int
 353:Device/Dev_DPS310.c ****         const float c21 = obj->cali_coefs.c21;
 1405              		.loc 1 353 21 view .LVU410
 1406 00dc B8EEE74A 		vcvt.f32.s32	s8, s15
 1407              	.LVL107:
 354:Device/Dev_DPS310.c ****         const float c30 = obj->cali_coefs.c30;
 1408              		.loc 1 354 9 is_stmt 1 view .LVU411
 354:Device/Dev_DPS310.c ****         const float c30 = obj->cali_coefs.c30;
 1409              		.loc 1 354 42 is_stmt 0 view .LVU412
 1410 00e0 B4F93E30 		ldrsh	r3, [r4, #62]
 1411 00e4 05EE903A 		vmov	s11, r3	@ int
 354:Device/Dev_DPS310.c ****         const float c30 = obj->cali_coefs.c30;
 1412              		.loc 1 354 21 view .LVU413
 1413 00e8 F8EEE55A 		vcvt.f32.s32	s11, s11
 1414              	.LVL108:
 355:Device/Dev_DPS310.c **** 
 1415              		.loc 1 355 9 is_stmt 1 view .LVU414
 355:Device/Dev_DPS310.c **** 
 1416              		.loc 1 355 42 is_stmt 0 view .LVU415
 1417 00ec B4F94030 		ldrsh	r3, [r4, #64]
 1418 00f0 07EE903A 		vmov	s15, r3	@ int
ARM GAS  C:\Users\8bit\AppData\Local\Temp\ccWQVCTL.s 			page 36


 355:Device/Dev_DPS310.c **** 
 1419              		.loc 1 355 21 view .LVU416
 1420 00f4 F8EEE77A 		vcvt.f32.s32	s15, s15
 1421              	.LVL109:
 358:Device/Dev_DPS310.c **** 
 1422              		.loc 1 358 9 is_stmt 1 view .LVU417
 358:Device/Dev_DPS310.c **** 
 1423              		.loc 1 358 73 is_stmt 0 view .LVU418
 1424 00f8 68EE277A 		vmul.f32	s15, s16, s15
 1425              	.LVL110:
 358:Device/Dev_DPS310.c **** 
 1426              		.loc 1 358 63 view .LVU419
 1427 00fc 77EE847A 		vadd.f32	s15, s15, s8
 358:Device/Dev_DPS310.c **** 
 1428              		.loc 1 358 56 view .LVU420
 1429 0100 67EE887A 		vmul.f32	s15, s15, s16
 358:Device/Dev_DPS310.c **** 
 1430              		.loc 1 358 46 view .LVU421
 1431 0104 77EEA47A 		vadd.f32	s15, s15, s9
 358:Device/Dev_DPS310.c **** 
 1432              		.loc 1 358 39 view .LVU422
 1433 0108 67EE887A 		vmul.f32	s15, s15, s16
 358:Device/Dev_DPS310.c **** 
 1434              		.loc 1 358 29 view .LVU423
 1435 010c 77EE857A 		vadd.f32	s15, s15, s10
 358:Device/Dev_DPS310.c **** 
 1436              		.loc 1 358 91 view .LVU424
 1437 0110 67EE266A 		vmul.f32	s13, s14, s13
 1438              	.LVL111:
 358:Device/Dev_DPS310.c **** 
 1439              		.loc 1 358 81 view .LVU425
 1440 0114 77EEA67A 		vadd.f32	s15, s15, s13
 358:Device/Dev_DPS310.c **** 
 1441              		.loc 1 358 107 view .LVU426
 1442 0118 68EE076A 		vmul.f32	s13, s16, s14
 358:Device/Dev_DPS310.c **** 
 1443              		.loc 1 358 134 view .LVU427
 1444 011c 28EE258A 		vmul.f32	s16, s16, s11
 1445              	.LVL112:
 358:Device/Dev_DPS310.c **** 
 1446              		.loc 1 358 124 view .LVU428
 1447 0120 38EE068A 		vadd.f32	s16, s16, s12
 358:Device/Dev_DPS310.c **** 
 1448              		.loc 1 358 117 view .LVU429
 1449 0124 26EE888A 		vmul.f32	s16, s13, s16
 358:Device/Dev_DPS310.c **** 
 1450              		.loc 1 358 97 view .LVU430
 1451 0128 77EE887A 		vadd.f32	s15, s15, s16
 358:Device/Dev_DPS310.c **** 
 1452              		.loc 1 358 23 view .LVU431
 1453 012c C4ED147A 		vstr.32	s15, [r4, #80]
 360:Device/Dev_DPS310.c ****         const float c1 = obj->cali_coefs.c1;
 1454              		.loc 1 360 9 is_stmt 1 view .LVU432
 360:Device/Dev_DPS310.c ****         const float c1 = obj->cali_coefs.c1;
 1455              		.loc 1 360 41 is_stmt 0 view .LVU433
 1456 0130 B4F92C30 		ldrsh	r3, [r4, #44]
 1457              	.LVL113:
ARM GAS  C:\Users\8bit\AppData\Local\Temp\ccWQVCTL.s 			page 37


 360:Device/Dev_DPS310.c ****         const float c1 = obj->cali_coefs.c1;
 1458              		.loc 1 360 41 view .LVU434
 1459 0134 07EE903A 		vmov	s15, r3	@ int
 360:Device/Dev_DPS310.c ****         const float c1 = obj->cali_coefs.c1;
 1460              		.loc 1 360 21 view .LVU435
 1461 0138 F8EEE77A 		vcvt.f32.s32	s15, s15
 1462              	.LVL114:
 361:Device/Dev_DPS310.c **** 
 1463              		.loc 1 361 9 is_stmt 1 view .LVU436
 361:Device/Dev_DPS310.c **** 
 1464              		.loc 1 361 41 is_stmt 0 view .LVU437
 1465 013c B4F92E30 		ldrsh	r3, [r4, #46]
 1466 0140 06EE903A 		vmov	s13, r3	@ int
 361:Device/Dev_DPS310.c **** 
 1467              		.loc 1 361 21 view .LVU438
 1468 0144 F8EEE66A 		vcvt.f32.s32	s13, s13
 1469              	.LVL115:
 364:Device/Dev_DPS310.c **** 
 1470              		.loc 1 364 9 is_stmt 1 view .LVU439
 364:Device/Dev_DPS310.c **** 
 1471              		.loc 1 364 26 is_stmt 0 view .LVU440
 1472 0148 B6EE006A 		vmov.f32	s12, #5.0e-1
 1473              	.LVL116:
 364:Device/Dev_DPS310.c **** 
 1474              		.loc 1 364 26 view .LVU441
 1475 014c 67EE867A 		vmul.f32	s15, s15, s12
 1476              	.LVL117:
 364:Device/Dev_DPS310.c **** 
 1477              		.loc 1 364 38 view .LVU442
 1478 0150 27EE267A 		vmul.f32	s14, s14, s13
 1479              	.LVL118:
 364:Device/Dev_DPS310.c **** 
 1480              		.loc 1 364 33 view .LVU443
 1481 0154 77EE877A 		vadd.f32	s15, s15, s14
 364:Device/Dev_DPS310.c **** 
 1482              		.loc 1 364 21 view .LVU444
 1483 0158 C4ED137A 		vstr.32	s15, [r4, #76]
 366:Device/Dev_DPS310.c ****         if(obj->get_tick)
 1484              		.loc 1 366 9 is_stmt 1 view .LVU445
 366:Device/Dev_DPS310.c ****         if(obj->get_tick)
 1485              		.loc 1 366 12 is_stmt 0 view .LVU446
 1486 015c A36C     		ldr	r3, [r4, #72]
 366:Device/Dev_DPS310.c ****         if(obj->get_tick)
 1487              		.loc 1 366 18 view .LVU447
 1488 015e 0133     		adds	r3, r3, #1
 1489 0160 A364     		str	r3, [r4, #72]
 367:Device/Dev_DPS310.c ****             obj->update_time = obj->get_tick();
 1490              		.loc 1 367 9 is_stmt 1 view .LVU448
 367:Device/Dev_DPS310.c ****             obj->update_time = obj->get_tick();
 1491              		.loc 1 367 15 is_stmt 0 view .LVU449
 1492 0162 A36A     		ldr	r3, [r4, #40]
 367:Device/Dev_DPS310.c ****             obj->update_time = obj->get_tick();
 1493              		.loc 1 367 11 view .LVU450
 1494 0164 0BB1     		cbz	r3, .L97
 368:Device/Dev_DPS310.c **** 
 1495              		.loc 1 368 13 is_stmt 1 view .LVU451
 368:Device/Dev_DPS310.c **** 
ARM GAS  C:\Users\8bit\AppData\Local\Temp\ccWQVCTL.s 			page 38


 1496              		.loc 1 368 32 is_stmt 0 view .LVU452
 1497 0166 9847     		blx	r3
 1498              	.LVL119:
 368:Device/Dev_DPS310.c **** 
 1499              		.loc 1 368 30 view .LVU453
 1500 0168 6060     		str	r0, [r4, #4]
 1501              	.L97:
 370:Device/Dev_DPS310.c **** 
 1502              		.loc 1 370 9 is_stmt 1 view .LVU454
 370:Device/Dev_DPS310.c **** 
 1503              		.loc 1 370 20 is_stmt 0 view .LVU455
 1504 016a 0123     		movs	r3, #1
 1505 016c 84F84430 		strb	r3, [r4, #68]
 372:Device/Dev_DPS310.c ****     }
 1506              		.loc 1 372 9 is_stmt 1 view .LVU456
 372:Device/Dev_DPS310.c ****     }
 1507              		.loc 1 372 16 is_stmt 0 view .LVU457
 1508 0170 00E0     		b	.L95
 1509              	.LVL120:
 1510              	.L98:
 372:Device/Dev_DPS310.c ****     }
 1511              		.loc 1 372 16 view .LVU458
 1512              	.LBE2:
 375:Device/Dev_DPS310.c **** }
 1513              		.loc 1 375 12 view .LVU459
 1514 0172 0025     		movs	r5, #0
 1515              	.LVL121:
 1516              	.L95:
 376:Device/Dev_DPS310.c **** 
 1517              		.loc 1 376 1 view .LVU460
 1518 0174 2846     		mov	r0, r5
 1519 0176 03B0     		add	sp, sp, #12
 1520              	.LCFI30:
 1521              		.cfi_def_cfa_offset 20
 1522              		@ sp needed
 1523 0178 BDEC028B 		vldm	sp!, {d8}
 1524              	.LCFI31:
 1525              		.cfi_restore 80
 1526              		.cfi_restore 81
 1527              		.cfi_def_cfa_offset 12
 1528 017c 30BD     		pop	{r4, r5, pc}
 1529              		.cfi_endproc
 1530              	.LFE13:
 1532              		.global	DevDPS310
 1533              		.section	.data.DevDPS310,"aw"
 1534              		.align	2
 1537              	DevDPS310:
 1538 0000 00000000 		.word	DevDPS310_Init
 1539 0004 00000000 		.word	DevDPS310_Sample
 1540 0008 00000000 		.word	DevDPS310_GetReady
 1541 000c 00000000 		.word	DevDPS310_Get_Data
 1542              		.text
 1543              	.Letext0:
 1544              		.file 2 "c:\\program files (x86)\\gnu arm embedded toolchain\\10 2021.10\\arm-none-eabi\\include\\
 1545              		.file 3 "c:\\program files (x86)\\gnu arm embedded toolchain\\10 2021.10\\arm-none-eabi\\include\\
 1546              		.file 4 "Device/Dev_DPS310.h"
 1547              		.file 5 "<built-in>"
ARM GAS  C:\Users\8bit\AppData\Local\Temp\ccWQVCTL.s 			page 39


ARM GAS  C:\Users\8bit\AppData\Local\Temp\ccWQVCTL.s 			page 40

