ARM GAS  C:\Users\8bit\AppData\Local\Temp\cc8h76KE.s 			page 1


   1              		.cpu cortex-m4
   2              		.arch armv7e-m
   3              		.fpu fpv4-sp-d16
   4              		.eabi_attribute 27, 1
   5              		.eabi_attribute 28, 1
   6              		.eabi_attribute 20, 1
   7              		.eabi_attribute 21, 1
   8              		.eabi_attribute 23, 3
   9              		.eabi_attribute 24, 1
  10              		.eabi_attribute 25, 1
  11              		.eabi_attribute 26, 1
  12              		.eabi_attribute 30, 1
  13              		.eabi_attribute 34, 1
  14              		.eabi_attribute 18, 4
  15              		.file	"Dev_Led.c"
  16              		.text
  17              	.Ltext0:
  18              		.cfi_sections	.debug_frame
  19              		.section	.text.DevLed_Init,"ax",%progbits
  20              		.align	1
  21              		.syntax unified
  22              		.thumb
  23              		.thumb_func
  25              	DevLed_Init:
  26              	.LFB133:
  27              		.file 1 "Device/Dev_Led.c"
   1:Device/Dev_Led.c **** #include "Dev_Led.h"
   2:Device/Dev_Led.c **** #include "Bsp_GPIO.h"
   3:Device/Dev_Led.c **** 
   4:Device/Dev_Led.c **** DevLed_TypeDef DevLED;
   5:Device/Dev_Led.c **** 
   6:Device/Dev_Led.c **** static bool DevLed_Init(DevLedObj_TypeDef LedObj);
   7:Device/Dev_Led.c **** static bool DevLed_Ctl(DevLedObj_TypeDef LedObj, bool state);
   8:Device/Dev_Led.c **** 
   9:Device/Dev_Led.c **** DevLed_TypeDef DevLED = {
  10:Device/Dev_Led.c ****     .init = DevLed_Init,
  11:Device/Dev_Led.c ****     .ctl = DevLed_Ctl,
  12:Device/Dev_Led.c **** };
  13:Device/Dev_Led.c **** 
  14:Device/Dev_Led.c **** static bool DevLed_Init(DevLedObj_TypeDef LedObj)
  15:Device/Dev_Led.c **** {
  28              		.loc 1 15 1 view -0
  29              		.cfi_startproc
  30              		@ args = 0, pretend = 0, frame = 16
  31              		@ frame_needed = 0, uses_anonymous_args = 0
  32 0000 00B5     		push	{lr}
  33              	.LCFI0:
  34              		.cfi_def_cfa_offset 4
  35              		.cfi_offset 14, -4
  36 0002 85B0     		sub	sp, sp, #20
  37              	.LCFI1:
  38              		.cfi_def_cfa_offset 24
  39 0004 04AB     		add	r3, sp, #16
  40 0006 03E90700 		stmdb	r3, {r0, r1, r2}
  16:Device/Dev_Led.c ****     if (BspGPIO.out_init == NULL)
  41              		.loc 1 16 5 view .LVU1
  42              		.loc 1 16 16 is_stmt 0 view .LVU2
ARM GAS  C:\Users\8bit\AppData\Local\Temp\cc8h76KE.s 			page 2


  43 000a 064B     		ldr	r3, .L5
  44 000c 5B68     		ldr	r3, [r3, #4]
  45              		.loc 1 16 8 view .LVU3
  46 000e 3BB1     		cbz	r3, .L3
  17:Device/Dev_Led.c ****         return false;
  18:Device/Dev_Led.c **** 
  19:Device/Dev_Led.c ****     BspGPIO.out_init(LedObj);
  47              		.loc 1 19 5 is_stmt 1 view .LVU4
  48 0010 04AA     		add	r2, sp, #16
  49 0012 12E90700 		ldmdb	r2, {r0, r1, r2}
  50 0016 9847     		blx	r3
  51              	.LVL0:
  20:Device/Dev_Led.c **** 
  21:Device/Dev_Led.c ****     return true;
  52              		.loc 1 21 5 view .LVU5
  53              		.loc 1 21 12 is_stmt 0 view .LVU6
  54 0018 0120     		movs	r0, #1
  55              	.L2:
  22:Device/Dev_Led.c **** }
  56              		.loc 1 22 1 view .LVU7
  57 001a 05B0     		add	sp, sp, #20
  58              	.LCFI2:
  59              		.cfi_remember_state
  60              		.cfi_def_cfa_offset 4
  61              		@ sp needed
  62 001c 5DF804FB 		ldr	pc, [sp], #4
  63              	.L3:
  64              	.LCFI3:
  65              		.cfi_restore_state
  17:Device/Dev_Led.c ****         return false;
  66              		.loc 1 17 16 view .LVU8
  67 0020 0020     		movs	r0, #0
  68 0022 FAE7     		b	.L2
  69              	.L6:
  70              		.align	2
  71              	.L5:
  72 0024 00000000 		.word	BspGPIO
  73              		.cfi_endproc
  74              	.LFE133:
  76              		.section	.text.DevLed_Ctl,"ax",%progbits
  77              		.align	1
  78              		.syntax unified
  79              		.thumb
  80              		.thumb_func
  82              	DevLed_Ctl:
  83              	.LVL1:
  84              	.LFB134:
  23:Device/Dev_Led.c **** 
  24:Device/Dev_Led.c **** static bool DevLed_Ctl(DevLedObj_TypeDef LedObj, bool state)
  25:Device/Dev_Led.c **** {
  85              		.loc 1 25 1 is_stmt 1 view -0
  86              		.cfi_startproc
  87              		@ args = 0, pretend = 0, frame = 16
  88              		@ frame_needed = 0, uses_anonymous_args = 0
  89              		.loc 1 25 1 is_stmt 0 view .LVU10
  90 0000 10B5     		push	{r4, lr}
  91              	.LCFI4:
ARM GAS  C:\Users\8bit\AppData\Local\Temp\cc8h76KE.s 			page 3


  92              		.cfi_def_cfa_offset 8
  93              		.cfi_offset 4, -8
  94              		.cfi_offset 14, -4
  95 0002 84B0     		sub	sp, sp, #16
  96              	.LCFI5:
  97              		.cfi_def_cfa_offset 24
  98 0004 04AC     		add	r4, sp, #16
  99 0006 04E90700 		stmdb	r4, {r0, r1, r2}
  26:Device/Dev_Led.c ****     if (BspGPIO.write == NULL)
 100              		.loc 1 26 5 is_stmt 1 view .LVU11
 101              		.loc 1 26 16 is_stmt 0 view .LVU12
 102 000a 064A     		ldr	r2, .L11
 103 000c D469     		ldr	r4, [r2, #28]
 104              		.loc 1 26 8 view .LVU13
 105 000e 34B1     		cbz	r4, .L9
  27:Device/Dev_Led.c ****         return false;
  28:Device/Dev_Led.c **** 
  29:Device/Dev_Led.c ****     BspGPIO.write(LedObj, state);
 106              		.loc 1 29 5 is_stmt 1 view .LVU14
 107 0010 04AA     		add	r2, sp, #16
 108 0012 12E90700 		ldmdb	r2, {r0, r1, r2}
 109 0016 A047     		blx	r4
 110              	.LVL2:
  30:Device/Dev_Led.c ****     return true;
 111              		.loc 1 30 5 view .LVU15
 112              		.loc 1 30 12 is_stmt 0 view .LVU16
 113 0018 0120     		movs	r0, #1
 114              	.L8:
  31:Device/Dev_Led.c **** }
 115              		.loc 1 31 1 view .LVU17
 116 001a 04B0     		add	sp, sp, #16
 117              	.LCFI6:
 118              		.cfi_remember_state
 119              		.cfi_def_cfa_offset 8
 120              		@ sp needed
 121 001c 10BD     		pop	{r4, pc}
 122              	.LVL3:
 123              	.L9:
 124              	.LCFI7:
 125              		.cfi_restore_state
  27:Device/Dev_Led.c ****         return false;
 126              		.loc 1 27 16 view .LVU18
 127 001e 0020     		movs	r0, #0
 128 0020 FBE7     		b	.L8
 129              	.L12:
 130 0022 00BF     		.align	2
 131              	.L11:
 132 0024 00000000 		.word	BspGPIO
 133              		.cfi_endproc
 134              	.LFE134:
 136              		.global	DevLED
 137              		.section	.data.DevLED,"aw"
 138              		.align	2
 141              	DevLED:
 142 0000 00000000 		.word	DevLed_Init
 143 0004 00000000 		.word	DevLed_Ctl
 144              		.text
ARM GAS  C:\Users\8bit\AppData\Local\Temp\cc8h76KE.s 			page 4


 145              	.Letext0:
 146              		.file 2 "c:\\program files (x86)\\gnu arm embedded toolchain\\10 2021.10\\arm-none-eabi\\include\\
 147              		.file 3 "c:\\program files (x86)\\gnu arm embedded toolchain\\10 2021.10\\arm-none-eabi\\include\\
 148              		.file 4 "HW_Lib/AT32F435/drivers/inc/at32f435_437_tmr.h"
 149              		.file 5 "HW_Lib/Port_Def/Bsp_GPIO_Port_Def.h"
 150              		.file 6 "Device/Dev_Led.h"
 151              		.file 7 "HW_Lib/AT32F435/bsp/Bsp_GPIO.h"
ARM GAS  C:\Users\8bit\AppData\Local\Temp\cc8h76KE.s 			page 5


DEFINED SYMBOLS
                            *ABS*:00000000 Dev_Led.c
C:\Users\8bit\AppData\Local\Temp\cc8h76KE.s:20     .text.DevLed_Init:00000000 $t
C:\Users\8bit\AppData\Local\Temp\cc8h76KE.s:25     .text.DevLed_Init:00000000 DevLed_Init
C:\Users\8bit\AppData\Local\Temp\cc8h76KE.s:72     .text.DevLed_Init:00000024 $d
C:\Users\8bit\AppData\Local\Temp\cc8h76KE.s:77     .text.DevLed_Ctl:00000000 $t
C:\Users\8bit\AppData\Local\Temp\cc8h76KE.s:82     .text.DevLed_Ctl:00000000 DevLed_Ctl
C:\Users\8bit\AppData\Local\Temp\cc8h76KE.s:132    .text.DevLed_Ctl:00000024 $d
C:\Users\8bit\AppData\Local\Temp\cc8h76KE.s:141    .data.DevLED:00000000 DevLED
C:\Users\8bit\AppData\Local\Temp\cc8h76KE.s:138    .data.DevLED:00000000 $d

UNDEFINED SYMBOLS
BspGPIO
