ARM GAS  C:\Users\8bit\AppData\Local\Temp\ccCh4UmD.s 			page 1


   1              		.cpu cortex-m4
   2              		.arch armv7e-m
   3              		.fpu fpv4-sp-d16
   4              		.eabi_attribute 27, 1
   5              		.eabi_attribute 28, 1
   6              		.eabi_attribute 20, 1
   7              		.eabi_attribute 21, 1
   8              		.eabi_attribute 23, 3
   9              		.eabi_attribute 24, 1
  10              		.eabi_attribute 25, 1
  11              		.eabi_attribute 26, 1
  12              		.eabi_attribute 30, 1
  13              		.eabi_attribute 34, 1
  14              		.eabi_attribute 18, 4
  15              		.file	"Dev_W25Nxx.c"
  16              		.text
  17              	.Ltext0:
  18              		.cfi_sections	.debug_frame
  19              		.section	.text.DevW25Nxx_Write,"ax",%progbits
  20              		.align	1
  21              		.syntax unified
  22              		.thumb
  23              		.thumb_func
  25              	DevW25Nxx_Write:
  26              	.LVL0:
  27              	.LFB134:
  28              		.file 1 "Device/Dev_W25Nxx.c"
   1:Device/Dev_W25Nxx.c **** /*
   2:Device/Dev_W25Nxx.c ****  * Author: 8_B!T0
   3:Device/Dev_W25Nxx.c ****  * Still in developping
   4:Device/Dev_W25Nxx.c ****  */
   5:Device/Dev_W25Nxx.c **** #include "Dev_W25Nxx.h"
   6:Device/Dev_W25Nxx.c **** 
   7:Device/Dev_W25Nxx.c **** /* test code */
   8:Device/Dev_W25Nxx.c **** #include "HW_Def.h"
   9:Device/Dev_W25Nxx.c **** #include "debug_util.h"
  10:Device/Dev_W25Nxx.c **** 
  11:Device/Dev_W25Nxx.c **** #define W25NXX_TAG "[ W25NXX INFO ] "
  12:Device/Dev_W25Nxx.c **** #define W25NXX_INFO(fmt, ...) Debug_Print(&DebugPort, W25NXX_TAG, fmt, ##__VA_ARGS__)
  13:Device/Dev_W25Nxx.c **** /* test code */
  14:Device/Dev_W25Nxx.c **** 
  15:Device/Dev_W25Nxx.c **** #define W25NXX_BUS_COMMU_TIMEOUT    100 /* unit: ms */
  16:Device/Dev_W25Nxx.c **** #define ConvertPageFormat(x)        ((x / W25NXX_PAGE_PRE_BLOCK) << 6) | (x %  W25NXX_PAGE_PRE_BLOC
  17:Device/Dev_W25Nxx.c **** #define ConvertToSR0_RegFormat(x)   ((DevW25Nxx_SR0_TypeDef *)x)
  18:Device/Dev_W25Nxx.c **** #define ConvertToSR1_RegFormat(x)   ((DevW25Nxx_SR1_TypeDef *)x)
  19:Device/Dev_W25Nxx.c **** #define ConvertToSR2_RegFormat(x)   ((DevW25Nxx_SR2_TypeDef *)x)
  20:Device/Dev_W25Nxx.c **** 
  21:Device/Dev_W25Nxx.c **** typedef union
  22:Device/Dev_W25Nxx.c **** {
  23:Device/Dev_W25Nxx.c ****     uint16_t val;
  24:Device/Dev_W25Nxx.c ****     struct
  25:Device/Dev_W25Nxx.c ****     {
  26:Device/Dev_W25Nxx.c ****         uint16_t b_index : 10;
  27:Device/Dev_W25Nxx.c ****         uint16_t p_index : 6;
  28:Device/Dev_W25Nxx.c ****     } bit;
  29:Device/Dev_W25Nxx.c **** } DevW25Nx_PageAddr_TypeDef;
  30:Device/Dev_W25Nxx.c **** 
ARM GAS  C:\Users\8bit\AppData\Local\Temp\ccCh4UmD.s 			page 2


  31:Device/Dev_W25Nxx.c **** /* internal function */
  32:Device/Dev_W25Nxx.c **** static bool DevW25Nxx_Write(DevW25NxxObj_TypeDef *dev, uint8_t *p_tx, uint16_t len);
  33:Device/Dev_W25Nxx.c **** static bool DevW25Nxx_Read(DevW25NxxObj_TypeDef *dev, uint8_t *p_rx, uint16_t len);
  34:Device/Dev_W25Nxx.c **** static bool DevW25Nxx_Trans_Receive(DevW25NxxObj_TypeDef *dev, uint8_t *p_tx, uint16_t tx_len, uint
  35:Device/Dev_W25Nxx.c **** static bool DevW25Nxx_Trans_Duplex(DevW25NxxObj_TypeDef *dev, uint8_t *p_tx, uint8_t *p_rx, uint16_
  36:Device/Dev_W25Nxx.c **** static DevW25Nxx_ProdType_List DevW25Nxx_Get_ProductID(DevW25NxxObj_TypeDef *dev);
  37:Device/Dev_W25Nxx.c **** static bool DevW25Nxx_Soft_Reset(DevW25NxxObj_TypeDef *dev);
  38:Device/Dev_W25Nxx.c **** static DevW25Nxx_Error_List DevW25Nxx_Check_Read_Status(DevW25NxxObj_TypeDef *dev);
  39:Device/Dev_W25Nxx.c **** static DevW25Nxx_Error_List DevW25Nxx_WriteEn(DevW25NxxObj_TypeDef *dev, bool en);
  40:Device/Dev_W25Nxx.c **** static DevW25Nxx_Error_List DevW25Nxx_WriteReg_Set(DevW25NxxObj_TypeDef *dev, uint8_t reg_addr, uin
  41:Device/Dev_W25Nxx.c **** static DevW25Nxx_Error_List DevW25Nxx_BadBlock_Managemnet(DevW25NxxObj_TypeDef *dev); 
  42:Device/Dev_W25Nxx.c **** 
  43:Device/Dev_W25Nxx.c **** /* external function */
  44:Device/Dev_W25Nxx.c **** static DevW25Nxx_Error_List DevW25Nxx_Init(DevW25NxxObj_TypeDef *dev);
  45:Device/Dev_W25Nxx.c **** static DevW25Nxx_DeviceInfo_TypeDef DevW25Nxx_Get_Info(DevW25NxxObj_TypeDef *dev);
  46:Device/Dev_W25Nxx.c **** static uint32_t DevW25Nxx_Get_Page(DevW25NxxObj_TypeDef *dev, uint32_t addr);
  47:Device/Dev_W25Nxx.c **** static DevW25Nxx_Error_List DevW25Nxx_Read_Page(DevW25NxxObj_TypeDef *dev, uint32_t addr, uint8_t *
  48:Device/Dev_W25Nxx.c **** 
  49:Device/Dev_W25Nxx.c **** DevW25Nxx_TypeDef DevW25Nxx = {
  50:Device/Dev_W25Nxx.c ****     .init = DevW25Nxx_Init,
  51:Device/Dev_W25Nxx.c ****     .info = DevW25Nxx_Get_Info,
  52:Device/Dev_W25Nxx.c ****     .get_page = DevW25Nxx_Get_Page,
  53:Device/Dev_W25Nxx.c ****     .read = DevW25Nxx_Read_Page,
  54:Device/Dev_W25Nxx.c **** };
  55:Device/Dev_W25Nxx.c **** 
  56:Device/Dev_W25Nxx.c **** static bool DevW25Nxx_Write(DevW25NxxObj_TypeDef *dev, uint8_t *p_tx, uint16_t len)
  57:Device/Dev_W25Nxx.c **** {
  29              		.loc 1 57 1 view -0
  30              		.cfi_startproc
  31              		@ args = 0, pretend = 0, frame = 0
  32              		@ frame_needed = 0, uses_anonymous_args = 0
  58:Device/Dev_W25Nxx.c ****     uint16_t tx_out = 0;
  33              		.loc 1 58 5 view .LVU1
  59:Device/Dev_W25Nxx.c **** 
  60:Device/Dev_W25Nxx.c ****     if ((dev == NULL) || \
  34              		.loc 1 60 5 view .LVU2
  35              		.loc 1 60 8 is_stmt 0 view .LVU3
  36 0000 C0B1     		cbz	r0, .L3
  57:Device/Dev_W25Nxx.c ****     uint16_t tx_out = 0;
  37              		.loc 1 57 1 discriminator 1 view .LVU4
  38 0002 70B5     		push	{r4, r5, r6, lr}
  39              	.LCFI0:
  40              		.cfi_def_cfa_offset 16
  41              		.cfi_offset 4, -16
  42              		.cfi_offset 5, -12
  43              		.cfi_offset 6, -8
  44              		.cfi_offset 14, -4
  45 0004 0C46     		mov	r4, r1
  46 0006 1546     		mov	r5, r2
  47 0008 0646     		mov	r6, r0
  61:Device/Dev_W25Nxx.c ****         (dev->bus_tx == NULL) || \
  48              		.loc 1 61 13 discriminator 1 view .LVU5
  49 000a C368     		ldr	r3, [r0, #12]
  60:Device/Dev_W25Nxx.c ****         (dev->bus_tx == NULL) || \
  50              		.loc 1 60 23 discriminator 1 view .LVU6
  51 000c A3B1     		cbz	r3, .L4
  62:Device/Dev_W25Nxx.c ****         (dev->cs_ctl == NULL) || \
ARM GAS  C:\Users\8bit\AppData\Local\Temp\ccCh4UmD.s 			page 3


  52              		.loc 1 62 13 view .LVU7
  53 000e 8369     		ldr	r3, [r0, #24]
  61:Device/Dev_W25Nxx.c ****         (dev->bus_tx == NULL) || \
  54              		.loc 1 61 31 view .LVU8
  55 0010 A3B1     		cbz	r3, .L5
  56              		.loc 1 62 31 view .LVU9
  57 0012 A9B1     		cbz	r1, .L6
  63:Device/Dev_W25Nxx.c ****         (p_tx == NULL) || \
  58              		.loc 1 63 24 view .LVU10
  59 0014 B2B1     		cbz	r2, .L7
  64:Device/Dev_W25Nxx.c ****         (len == 0))
  65:Device/Dev_W25Nxx.c ****         return false;
  66:Device/Dev_W25Nxx.c **** 
  67:Device/Dev_W25Nxx.c ****     dev->cs_ctl(false);
  60              		.loc 1 67 5 is_stmt 1 view .LVU11
  61 0016 0020     		movs	r0, #0
  62              	.LVL1:
  63              		.loc 1 67 5 is_stmt 0 view .LVU12
  64 0018 9847     		blx	r3
  65              	.LVL2:
  68:Device/Dev_W25Nxx.c ****     tx_out = dev->bus_tx(p_tx, len, W25NXX_BUS_COMMU_TIMEOUT);
  66              		.loc 1 68 5 is_stmt 1 view .LVU13
  67              		.loc 1 68 17 is_stmt 0 view .LVU14
  68 001a F368     		ldr	r3, [r6, #12]
  69              		.loc 1 68 14 view .LVU15
  70 001c 6422     		movs	r2, #100
  71 001e 2946     		mov	r1, r5
  72 0020 2046     		mov	r0, r4
  73 0022 9847     		blx	r3
  74              	.LVL3:
  75 0024 0446     		mov	r4, r0
  76              	.LVL4:
  69:Device/Dev_W25Nxx.c ****     dev->cs_ctl(true);
  77              		.loc 1 69 5 is_stmt 1 view .LVU16
  78              		.loc 1 69 8 is_stmt 0 view .LVU17
  79 0026 B369     		ldr	r3, [r6, #24]
  80              		.loc 1 69 5 view .LVU18
  81 0028 0120     		movs	r0, #1
  82 002a 9847     		blx	r3
  83              	.LVL5:
  70:Device/Dev_W25Nxx.c **** 
  71:Device/Dev_W25Nxx.c ****     return tx_out ? true : false;
  84              		.loc 1 71 5 is_stmt 1 view .LVU19
  85              		.loc 1 71 26 is_stmt 0 view .LVU20
  86 002c 201E     		subs	r0, r4, #0
  87 002e 18BF     		it	ne
  88 0030 0120     		movne	r0, #1
  89              	.LVL6:
  90              	.L2:
  72:Device/Dev_W25Nxx.c **** }
  91              		.loc 1 72 1 view .LVU21
  92 0032 70BD     		pop	{r4, r5, r6, pc}
  93              	.LVL7:
  94              	.L3:
  95              	.LCFI1:
  96              		.cfi_def_cfa_offset 0
  97              		.cfi_restore 4
ARM GAS  C:\Users\8bit\AppData\Local\Temp\ccCh4UmD.s 			page 4


  98              		.cfi_restore 5
  99              		.cfi_restore 6
 100              		.cfi_restore 14
  65:Device/Dev_W25Nxx.c **** 
 101              		.loc 1 65 16 view .LVU22
 102 0034 0020     		movs	r0, #0
 103              	.LVL8:
 104              		.loc 1 72 1 view .LVU23
 105 0036 7047     		bx	lr
 106              	.LVL9:
 107              	.L4:
 108              	.LCFI2:
 109              		.cfi_def_cfa_offset 16
 110              		.cfi_offset 4, -16
 111              		.cfi_offset 5, -12
 112              		.cfi_offset 6, -8
 113              		.cfi_offset 14, -4
  65:Device/Dev_W25Nxx.c **** 
 114              		.loc 1 65 16 view .LVU24
 115 0038 0020     		movs	r0, #0
 116              	.LVL10:
  65:Device/Dev_W25Nxx.c **** 
 117              		.loc 1 65 16 view .LVU25
 118 003a FAE7     		b	.L2
 119              	.LVL11:
 120              	.L5:
  65:Device/Dev_W25Nxx.c **** 
 121              		.loc 1 65 16 view .LVU26
 122 003c 0020     		movs	r0, #0
 123              	.LVL12:
  65:Device/Dev_W25Nxx.c **** 
 124              		.loc 1 65 16 view .LVU27
 125 003e F8E7     		b	.L2
 126              	.LVL13:
 127              	.L6:
  65:Device/Dev_W25Nxx.c **** 
 128              		.loc 1 65 16 view .LVU28
 129 0040 0020     		movs	r0, #0
 130              	.LVL14:
  65:Device/Dev_W25Nxx.c **** 
 131              		.loc 1 65 16 view .LVU29
 132 0042 F6E7     		b	.L2
 133              	.LVL15:
 134              	.L7:
  65:Device/Dev_W25Nxx.c **** 
 135              		.loc 1 65 16 view .LVU30
 136 0044 0020     		movs	r0, #0
 137              	.LVL16:
  65:Device/Dev_W25Nxx.c **** 
 138              		.loc 1 65 16 view .LVU31
 139 0046 F4E7     		b	.L2
 140              		.cfi_endproc
 141              	.LFE134:
 143              		.section	.text.DevW25Nxx_Trans_Receive,"ax",%progbits
 144              		.align	1
 145              		.syntax unified
 146              		.thumb
ARM GAS  C:\Users\8bit\AppData\Local\Temp\ccCh4UmD.s 			page 5


 147              		.thumb_func
 149              	DevW25Nxx_Trans_Receive:
 150              	.LVL17:
 151              	.LFB136:
  73:Device/Dev_W25Nxx.c **** 
  74:Device/Dev_W25Nxx.c **** static bool DevW25Nxx_Read(DevW25NxxObj_TypeDef *dev, uint8_t *p_rx, uint16_t len)
  75:Device/Dev_W25Nxx.c **** {
  76:Device/Dev_W25Nxx.c ****     uint16_t rx_out = 0;
  77:Device/Dev_W25Nxx.c **** 
  78:Device/Dev_W25Nxx.c ****     if ((dev == NULL) || \
  79:Device/Dev_W25Nxx.c ****         (dev->bus_rx == NULL) || \
  80:Device/Dev_W25Nxx.c ****         (dev->cs_ctl) || \
  81:Device/Dev_W25Nxx.c ****         (p_rx == NULL) || \
  82:Device/Dev_W25Nxx.c ****         (len == 0))
  83:Device/Dev_W25Nxx.c ****         return false;
  84:Device/Dev_W25Nxx.c **** 
  85:Device/Dev_W25Nxx.c ****     dev->cs_ctl(false);
  86:Device/Dev_W25Nxx.c ****     rx_out = dev->bus_rx(p_rx, len, W25NXX_BUS_COMMU_TIMEOUT);
  87:Device/Dev_W25Nxx.c ****     dev->cs_ctl(true);
  88:Device/Dev_W25Nxx.c **** 
  89:Device/Dev_W25Nxx.c ****     return rx_out ? true : false;
  90:Device/Dev_W25Nxx.c **** }
  91:Device/Dev_W25Nxx.c **** 
  92:Device/Dev_W25Nxx.c **** static bool DevW25Nxx_Trans_Receive(DevW25NxxObj_TypeDef *dev, uint8_t *p_tx, uint16_t tx_len, uint
  93:Device/Dev_W25Nxx.c **** {
 152              		.loc 1 93 1 is_stmt 1 view -0
 153              		.cfi_startproc
 154              		@ args = 4, pretend = 0, frame = 0
 155              		@ frame_needed = 0, uses_anonymous_args = 0
 156              		.loc 1 93 1 is_stmt 0 view .LVU33
 157 0000 2DE9F041 		push	{r4, r5, r6, r7, r8, lr}
 158              	.LCFI3:
 159              		.cfi_def_cfa_offset 24
 160              		.cfi_offset 4, -24
 161              		.cfi_offset 5, -20
 162              		.cfi_offset 6, -16
 163              		.cfi_offset 7, -12
 164              		.cfi_offset 8, -8
 165              		.cfi_offset 14, -4
 166 0004 BDF81880 		ldrh	r8, [sp, #24]
  94:Device/Dev_W25Nxx.c ****     uint16_t tx_out = 0;
 167              		.loc 1 94 5 is_stmt 1 view .LVU34
 168              	.LVL18:
  95:Device/Dev_W25Nxx.c ****     uint16_t rx_out = 0;
 169              		.loc 1 95 5 view .LVU35
  96:Device/Dev_W25Nxx.c **** 
  97:Device/Dev_W25Nxx.c ****     if ((dev == NULL) || \
 170              		.loc 1 97 5 view .LVU36
 171              		.loc 1 97 8 is_stmt 0 view .LVU37
 172 0008 38B3     		cbz	r0, .L14
 173 000a 0F46     		mov	r7, r1
 174 000c 1646     		mov	r6, r2
 175 000e 1D46     		mov	r5, r3
 176 0010 0446     		mov	r4, r0
  98:Device/Dev_W25Nxx.c ****         (dev->bus_rx == NULL) || \
 177              		.loc 1 98 13 discriminator 1 view .LVU38
 178 0012 0369     		ldr	r3, [r0, #16]
ARM GAS  C:\Users\8bit\AppData\Local\Temp\ccCh4UmD.s 			page 6


 179              	.LVL19:
  97:Device/Dev_W25Nxx.c ****         (dev->bus_rx == NULL) || \
 180              		.loc 1 97 23 discriminator 1 view .LVU39
 181 0014 1BB3     		cbz	r3, .L15
  99:Device/Dev_W25Nxx.c ****         (dev->bus_tx == NULL) || \
 182              		.loc 1 99 13 view .LVU40
 183 0016 C368     		ldr	r3, [r0, #12]
  98:Device/Dev_W25Nxx.c ****         (dev->bus_rx == NULL) || \
 184              		.loc 1 98 31 view .LVU41
 185 0018 1BB3     		cbz	r3, .L16
 100:Device/Dev_W25Nxx.c ****         (dev->cs_ctl) || \
 186              		.loc 1 100 13 view .LVU42
 187 001a 8369     		ldr	r3, [r0, #24]
  99:Device/Dev_W25Nxx.c ****         (dev->bus_tx == NULL) || \
 188              		.loc 1 99 31 view .LVU43
 189 001c 13B1     		cbz	r3, .L25
 101:Device/Dev_W25Nxx.c ****         (p_rx == NULL) || \
 102:Device/Dev_W25Nxx.c ****         (p_tx == NULL) || \
 103:Device/Dev_W25Nxx.c ****         (tx_len == 0) || \
 104:Device/Dev_W25Nxx.c ****         (rx_len == 0))
 105:Device/Dev_W25Nxx.c ****         return false;
 190              		.loc 1 105 16 view .LVU44
 191 001e 0020     		movs	r0, #0
 192              	.LVL20:
 193              	.L13:
 106:Device/Dev_W25Nxx.c **** 
 107:Device/Dev_W25Nxx.c ****     dev->cs_ctl(false);
 108:Device/Dev_W25Nxx.c ****     tx_out = dev->bus_tx(p_tx, tx_len, W25NXX_BUS_COMMU_TIMEOUT);
 109:Device/Dev_W25Nxx.c ****     rx_out = dev->bus_rx(p_rx, rx_len, W25NXX_BUS_COMMU_TIMEOUT);
 110:Device/Dev_W25Nxx.c ****     dev->cs_ctl(true);
 111:Device/Dev_W25Nxx.c **** 
 112:Device/Dev_W25Nxx.c ****     if ((tx_out == 0) || \
 113:Device/Dev_W25Nxx.c ****         (rx_out == 0))
 114:Device/Dev_W25Nxx.c ****         return false;
 115:Device/Dev_W25Nxx.c **** 
 116:Device/Dev_W25Nxx.c ****     return true;
 117:Device/Dev_W25Nxx.c **** }
 194              		.loc 1 117 1 view .LVU45
 195 0020 BDE8F081 		pop	{r4, r5, r6, r7, r8, pc}
 196              	.LVL21:
 197              	.L25:
 100:Device/Dev_W25Nxx.c ****         (p_rx == NULL) || \
 198              		.loc 1 100 23 view .LVU46
 199 0024 FDB1     		cbz	r5, .L18
 101:Device/Dev_W25Nxx.c ****         (p_rx == NULL) || \
 200              		.loc 1 101 24 view .LVU47
 201 0026 01B3     		cbz	r1, .L19
 102:Device/Dev_W25Nxx.c ****         (tx_len == 0) || \
 202              		.loc 1 102 24 view .LVU48
 203 0028 0AB3     		cbz	r2, .L20
 103:Device/Dev_W25Nxx.c ****         (rx_len == 0))
 204              		.loc 1 103 23 view .LVU49
 205 002a B8F1000F 		cmp	r8, #0
 206 002e 20D0     		beq	.L21
 107:Device/Dev_W25Nxx.c ****     tx_out = dev->bus_tx(p_tx, tx_len, W25NXX_BUS_COMMU_TIMEOUT);
 207              		.loc 1 107 5 is_stmt 1 view .LVU50
 208 0030 0020     		movs	r0, #0
ARM GAS  C:\Users\8bit\AppData\Local\Temp\ccCh4UmD.s 			page 7


 209              	.LVL22:
 107:Device/Dev_W25Nxx.c ****     tx_out = dev->bus_tx(p_tx, tx_len, W25NXX_BUS_COMMU_TIMEOUT);
 210              		.loc 1 107 5 is_stmt 0 view .LVU51
 211 0032 9847     		blx	r3
 212              	.LVL23:
 108:Device/Dev_W25Nxx.c ****     rx_out = dev->bus_rx(p_rx, rx_len, W25NXX_BUS_COMMU_TIMEOUT);
 213              		.loc 1 108 5 is_stmt 1 view .LVU52
 108:Device/Dev_W25Nxx.c ****     rx_out = dev->bus_rx(p_rx, rx_len, W25NXX_BUS_COMMU_TIMEOUT);
 214              		.loc 1 108 17 is_stmt 0 view .LVU53
 215 0034 E368     		ldr	r3, [r4, #12]
 108:Device/Dev_W25Nxx.c ****     rx_out = dev->bus_rx(p_rx, rx_len, W25NXX_BUS_COMMU_TIMEOUT);
 216              		.loc 1 108 14 view .LVU54
 217 0036 6422     		movs	r2, #100
 218 0038 3146     		mov	r1, r6
 219 003a 3846     		mov	r0, r7
 220 003c 9847     		blx	r3
 221              	.LVL24:
 222 003e 0646     		mov	r6, r0
 223              	.LVL25:
 109:Device/Dev_W25Nxx.c ****     dev->cs_ctl(true);
 224              		.loc 1 109 5 is_stmt 1 view .LVU55
 109:Device/Dev_W25Nxx.c ****     dev->cs_ctl(true);
 225              		.loc 1 109 17 is_stmt 0 view .LVU56
 226 0040 2369     		ldr	r3, [r4, #16]
 109:Device/Dev_W25Nxx.c ****     dev->cs_ctl(true);
 227              		.loc 1 109 14 view .LVU57
 228 0042 6422     		movs	r2, #100
 229 0044 4146     		mov	r1, r8
 230 0046 2846     		mov	r0, r5
 231 0048 9847     		blx	r3
 232              	.LVL26:
 233 004a 0546     		mov	r5, r0
 234              	.LVL27:
 110:Device/Dev_W25Nxx.c **** 
 235              		.loc 1 110 5 is_stmt 1 view .LVU58
 110:Device/Dev_W25Nxx.c **** 
 236              		.loc 1 110 8 is_stmt 0 view .LVU59
 237 004c A369     		ldr	r3, [r4, #24]
 110:Device/Dev_W25Nxx.c **** 
 238              		.loc 1 110 5 view .LVU60
 239 004e 0120     		movs	r0, #1
 240 0050 9847     		blx	r3
 241              	.LVL28:
 112:Device/Dev_W25Nxx.c ****         (rx_out == 0))
 242              		.loc 1 112 5 is_stmt 1 view .LVU61
 112:Device/Dev_W25Nxx.c ****         (rx_out == 0))
 243              		.loc 1 112 8 is_stmt 0 view .LVU62
 244 0052 86B1     		cbz	r6, .L22
 112:Device/Dev_W25Nxx.c ****         (rx_out == 0))
 245              		.loc 1 112 23 discriminator 1 view .LVU63
 246 0054 8DB1     		cbz	r5, .L23
 116:Device/Dev_W25Nxx.c **** }
 247              		.loc 1 116 12 view .LVU64
 248 0056 0120     		movs	r0, #1
 249 0058 E2E7     		b	.L13
 250              	.LVL29:
 251              	.L14:
ARM GAS  C:\Users\8bit\AppData\Local\Temp\ccCh4UmD.s 			page 8


 105:Device/Dev_W25Nxx.c **** 
 252              		.loc 1 105 16 view .LVU65
 253 005a 0020     		movs	r0, #0
 254              	.LVL30:
 105:Device/Dev_W25Nxx.c **** 
 255              		.loc 1 105 16 view .LVU66
 256 005c E0E7     		b	.L13
 257              	.LVL31:
 258              	.L15:
 105:Device/Dev_W25Nxx.c **** 
 259              		.loc 1 105 16 view .LVU67
 260 005e 0020     		movs	r0, #0
 261              	.LVL32:
 105:Device/Dev_W25Nxx.c **** 
 262              		.loc 1 105 16 view .LVU68
 263 0060 DEE7     		b	.L13
 264              	.LVL33:
 265              	.L16:
 105:Device/Dev_W25Nxx.c **** 
 266              		.loc 1 105 16 view .LVU69
 267 0062 0020     		movs	r0, #0
 268              	.LVL34:
 105:Device/Dev_W25Nxx.c **** 
 269              		.loc 1 105 16 view .LVU70
 270 0064 DCE7     		b	.L13
 271              	.LVL35:
 272              	.L18:
 105:Device/Dev_W25Nxx.c **** 
 273              		.loc 1 105 16 view .LVU71
 274 0066 0020     		movs	r0, #0
 275              	.LVL36:
 105:Device/Dev_W25Nxx.c **** 
 276              		.loc 1 105 16 view .LVU72
 277 0068 DAE7     		b	.L13
 278              	.LVL37:
 279              	.L19:
 105:Device/Dev_W25Nxx.c **** 
 280              		.loc 1 105 16 view .LVU73
 281 006a 0020     		movs	r0, #0
 282              	.LVL38:
 105:Device/Dev_W25Nxx.c **** 
 283              		.loc 1 105 16 view .LVU74
 284 006c D8E7     		b	.L13
 285              	.LVL39:
 286              	.L20:
 105:Device/Dev_W25Nxx.c **** 
 287              		.loc 1 105 16 view .LVU75
 288 006e 0020     		movs	r0, #0
 289              	.LVL40:
 105:Device/Dev_W25Nxx.c **** 
 290              		.loc 1 105 16 view .LVU76
 291 0070 D6E7     		b	.L13
 292              	.LVL41:
 293              	.L21:
 105:Device/Dev_W25Nxx.c **** 
 294              		.loc 1 105 16 view .LVU77
 295 0072 0020     		movs	r0, #0
ARM GAS  C:\Users\8bit\AppData\Local\Temp\ccCh4UmD.s 			page 9


 296              	.LVL42:
 105:Device/Dev_W25Nxx.c **** 
 297              		.loc 1 105 16 view .LVU78
 298 0074 D4E7     		b	.L13
 299              	.LVL43:
 300              	.L22:
 114:Device/Dev_W25Nxx.c **** 
 301              		.loc 1 114 16 view .LVU79
 302 0076 0020     		movs	r0, #0
 303 0078 D2E7     		b	.L13
 304              	.L23:
 305 007a 0020     		movs	r0, #0
 306 007c D0E7     		b	.L13
 307              		.cfi_endproc
 308              	.LFE136:
 310              		.section	.text.DevW25Nxx_Trans_Duplex,"ax",%progbits
 311              		.align	1
 312              		.syntax unified
 313              		.thumb
 314              		.thumb_func
 316              	DevW25Nxx_Trans_Duplex:
 317              	.LVL44:
 318              	.LFB137:
 118:Device/Dev_W25Nxx.c **** 
 119:Device/Dev_W25Nxx.c **** static bool DevW25Nxx_Trans_Duplex(DevW25NxxObj_TypeDef *dev, uint8_t *p_tx, uint8_t *p_rx, uint16_
 120:Device/Dev_W25Nxx.c **** {
 319              		.loc 1 120 1 is_stmt 1 view -0
 320              		.cfi_startproc
 321              		@ args = 0, pretend = 0, frame = 0
 322              		@ frame_needed = 0, uses_anonymous_args = 0
 121:Device/Dev_W25Nxx.c ****     uint16_t trans_out = 0;
 323              		.loc 1 121 5 view .LVU81
 122:Device/Dev_W25Nxx.c **** 
 123:Device/Dev_W25Nxx.c ****     if ((dev == NULL) || \
 324              		.loc 1 123 5 view .LVU82
 325              		.loc 1 123 8 is_stmt 0 view .LVU83
 326 0000 D8B1     		cbz	r0, .L28
 120:Device/Dev_W25Nxx.c ****     uint16_t trans_out = 0;
 327              		.loc 1 120 1 discriminator 1 view .LVU84
 328 0002 F8B5     		push	{r3, r4, r5, r6, r7, lr}
 329              	.LCFI4:
 330              		.cfi_def_cfa_offset 24
 331              		.cfi_offset 3, -24
 332              		.cfi_offset 4, -20
 333              		.cfi_offset 5, -16
 334              		.cfi_offset 6, -12
 335              		.cfi_offset 7, -8
 336              		.cfi_offset 14, -4
 337 0004 0F46     		mov	r7, r1
 338 0006 1546     		mov	r5, r2
 339 0008 1C46     		mov	r4, r3
 340 000a 0646     		mov	r6, r0
 124:Device/Dev_W25Nxx.c ****         (dev->bus_trans == NULL) || \
 341              		.loc 1 124 13 discriminator 1 view .LVU85
 342 000c 4369     		ldr	r3, [r0, #20]
 343              	.LVL45:
 123:Device/Dev_W25Nxx.c ****         (dev->bus_trans == NULL) || \
ARM GAS  C:\Users\8bit\AppData\Local\Temp\ccCh4UmD.s 			page 10


 344              		.loc 1 123 23 discriminator 1 view .LVU86
 345 000e B3B1     		cbz	r3, .L29
 125:Device/Dev_W25Nxx.c ****         (dev->cs_ctl == NULL) || \
 346              		.loc 1 125 13 view .LVU87
 347 0010 8369     		ldr	r3, [r0, #24]
 124:Device/Dev_W25Nxx.c ****         (dev->bus_trans == NULL) || \
 348              		.loc 1 124 34 view .LVU88
 349 0012 B3B1     		cbz	r3, .L30
 350              		.loc 1 125 31 view .LVU89
 351 0014 BAB1     		cbz	r2, .L31
 126:Device/Dev_W25Nxx.c ****         (p_rx == NULL) || \
 352              		.loc 1 126 24 view .LVU90
 353 0016 C1B1     		cbz	r1, .L32
 127:Device/Dev_W25Nxx.c ****         (p_tx == NULL) || \
 354              		.loc 1 127 24 view .LVU91
 355 0018 CCB1     		cbz	r4, .L33
 128:Device/Dev_W25Nxx.c ****         (len == 0))
 129:Device/Dev_W25Nxx.c ****         return false;
 130:Device/Dev_W25Nxx.c **** 
 131:Device/Dev_W25Nxx.c ****     dev->cs_ctl(false);
 356              		.loc 1 131 5 is_stmt 1 view .LVU92
 357 001a 0020     		movs	r0, #0
 358              	.LVL46:
 359              		.loc 1 131 5 is_stmt 0 view .LVU93
 360 001c 9847     		blx	r3
 361              	.LVL47:
 132:Device/Dev_W25Nxx.c ****     trans_out = dev->bus_trans(p_tx, p_rx, len, W25NXX_BUS_COMMU_TIMEOUT);
 362              		.loc 1 132 5 is_stmt 1 view .LVU94
 363              		.loc 1 132 17 is_stmt 0 view .LVU95
 364 001e 6423     		movs	r3, #100
 365 0020 2246     		mov	r2, r4
 366 0022 2946     		mov	r1, r5
 367 0024 3846     		mov	r0, r7
 368 0026 7469     		ldr	r4, [r6, #20]
 369 0028 A047     		blx	r4
 370              	.LVL48:
 371 002a 0446     		mov	r4, r0
 372              	.LVL49:
 133:Device/Dev_W25Nxx.c ****     dev->cs_ctl(true);
 373              		.loc 1 133 5 is_stmt 1 view .LVU96
 374              		.loc 1 133 8 is_stmt 0 view .LVU97
 375 002c B369     		ldr	r3, [r6, #24]
 376              		.loc 1 133 5 view .LVU98
 377 002e 0120     		movs	r0, #1
 378 0030 9847     		blx	r3
 379              	.LVL50:
 134:Device/Dev_W25Nxx.c **** 
 135:Device/Dev_W25Nxx.c ****     return trans_out ? true : false;
 380              		.loc 1 135 5 is_stmt 1 view .LVU99
 381              		.loc 1 135 29 is_stmt 0 view .LVU100
 382 0032 201E     		subs	r0, r4, #0
 383 0034 18BF     		it	ne
 384 0036 0120     		movne	r0, #1
 385              	.LVL51:
 386              	.L27:
 136:Device/Dev_W25Nxx.c **** }
 387              		.loc 1 136 1 view .LVU101
ARM GAS  C:\Users\8bit\AppData\Local\Temp\ccCh4UmD.s 			page 11


 388 0038 F8BD     		pop	{r3, r4, r5, r6, r7, pc}
 389              	.LVL52:
 390              	.L28:
 391              	.LCFI5:
 392              		.cfi_def_cfa_offset 0
 393              		.cfi_restore 3
 394              		.cfi_restore 4
 395              		.cfi_restore 5
 396              		.cfi_restore 6
 397              		.cfi_restore 7
 398              		.cfi_restore 14
 129:Device/Dev_W25Nxx.c **** 
 399              		.loc 1 129 16 view .LVU102
 400 003a 0020     		movs	r0, #0
 401              	.LVL53:
 402              		.loc 1 136 1 view .LVU103
 403 003c 7047     		bx	lr
 404              	.LVL54:
 405              	.L29:
 406              	.LCFI6:
 407              		.cfi_def_cfa_offset 24
 408              		.cfi_offset 3, -24
 409              		.cfi_offset 4, -20
 410              		.cfi_offset 5, -16
 411              		.cfi_offset 6, -12
 412              		.cfi_offset 7, -8
 413              		.cfi_offset 14, -4
 129:Device/Dev_W25Nxx.c **** 
 414              		.loc 1 129 16 view .LVU104
 415 003e 0020     		movs	r0, #0
 416              	.LVL55:
 129:Device/Dev_W25Nxx.c **** 
 417              		.loc 1 129 16 view .LVU105
 418 0040 FAE7     		b	.L27
 419              	.LVL56:
 420              	.L30:
 129:Device/Dev_W25Nxx.c **** 
 421              		.loc 1 129 16 view .LVU106
 422 0042 0020     		movs	r0, #0
 423              	.LVL57:
 129:Device/Dev_W25Nxx.c **** 
 424              		.loc 1 129 16 view .LVU107
 425 0044 F8E7     		b	.L27
 426              	.LVL58:
 427              	.L31:
 129:Device/Dev_W25Nxx.c **** 
 428              		.loc 1 129 16 view .LVU108
 429 0046 0020     		movs	r0, #0
 430              	.LVL59:
 129:Device/Dev_W25Nxx.c **** 
 431              		.loc 1 129 16 view .LVU109
 432 0048 F6E7     		b	.L27
 433              	.LVL60:
 434              	.L32:
 129:Device/Dev_W25Nxx.c **** 
 435              		.loc 1 129 16 view .LVU110
 436 004a 0020     		movs	r0, #0
ARM GAS  C:\Users\8bit\AppData\Local\Temp\ccCh4UmD.s 			page 12


 437              	.LVL61:
 129:Device/Dev_W25Nxx.c **** 
 438              		.loc 1 129 16 view .LVU111
 439 004c F4E7     		b	.L27
 440              	.LVL62:
 441              	.L33:
 129:Device/Dev_W25Nxx.c **** 
 442              		.loc 1 129 16 view .LVU112
 443 004e 0020     		movs	r0, #0
 444              	.LVL63:
 129:Device/Dev_W25Nxx.c **** 
 445              		.loc 1 129 16 view .LVU113
 446 0050 F2E7     		b	.L27
 447              		.cfi_endproc
 448              	.LFE137:
 450              		.section	.rodata.DevW25Nxx_Check_Read_Status.str1.4,"aMS",%progbits,1
 451              		.align	2
 452              	.LC0:
 453 0000 05C000   		.ascii	"\005\300\000"
 454              		.section	.text.DevW25Nxx_Check_Read_Status,"ax",%progbits
 455              		.align	1
 456              		.syntax unified
 457              		.thumb
 458              		.thumb_func
 460              	DevW25Nxx_Check_Read_Status:
 461              	.LVL64:
 462              	.LFB141:
 137:Device/Dev_W25Nxx.c **** 
 138:Device/Dev_W25Nxx.c **** static DevW25Nxx_Error_List DevW25Nxx_Init(DevW25NxxObj_TypeDef *dev)
 139:Device/Dev_W25Nxx.c **** {
 140:Device/Dev_W25Nxx.c ****     DevW25Nxx_Error_List err = DevW25Nxx_Ok;
 141:Device/Dev_W25Nxx.c ****     uint32_t sys_time = 0;
 142:Device/Dev_W25Nxx.c **** 
 143:Device/Dev_W25Nxx.c ****     if ((dev == NULL) || \
 144:Device/Dev_W25Nxx.c ****         (dev->delay_ms == NULL) || \
 145:Device/Dev_W25Nxx.c ****         (dev->systick == NULL))
 146:Device/Dev_W25Nxx.c ****         return DevW25Nxx_Error;
 147:Device/Dev_W25Nxx.c **** 
 148:Device/Dev_W25Nxx.c ****     dev->init_state = false;
 149:Device/Dev_W25Nxx.c **** 
 150:Device/Dev_W25Nxx.c ****     /* check read status */
 151:Device/Dev_W25Nxx.c ****     err = DevW25Nxx_Check_Read_Status(dev);
 152:Device/Dev_W25Nxx.c ****     if (err == DevW25Nxx_Error)
 153:Device/Dev_W25Nxx.c ****         return DevW25Nxx_Error;
 154:Device/Dev_W25Nxx.c ****     
 155:Device/Dev_W25Nxx.c ****     sys_time = dev->systick();
 156:Device/Dev_W25Nxx.c ****     while (err == DevW25Nxx_Busy)
 157:Device/Dev_W25Nxx.c ****     {
 158:Device/Dev_W25Nxx.c ****         if ((dev->systick() - sys_time) >= W25NXX_BUS_COMMU_TIMEOUT)
 159:Device/Dev_W25Nxx.c ****             return DevW25Nxx_TimeOut;
 160:Device/Dev_W25Nxx.c **** 
 161:Device/Dev_W25Nxx.c ****         dev->delay_ms(1);
 162:Device/Dev_W25Nxx.c ****         err = DevW25Nxx_Check_Read_Status(dev);
 163:Device/Dev_W25Nxx.c ****         if (err == DevW25Nxx_Error)
 164:Device/Dev_W25Nxx.c ****             return DevW25Nxx_Error;
 165:Device/Dev_W25Nxx.c ****     }
 166:Device/Dev_W25Nxx.c **** 
ARM GAS  C:\Users\8bit\AppData\Local\Temp\ccCh4UmD.s 			page 13


 167:Device/Dev_W25Nxx.c ****     /* get product id */
 168:Device/Dev_W25Nxx.c ****     dev->prod_type = DevW25Nxx_Get_ProductID(dev);
 169:Device/Dev_W25Nxx.c ****     if (dev->prod_type == DevW25N_None)
 170:Device/Dev_W25Nxx.c ****         return DevW25Nxx_Error;
 171:Device/Dev_W25Nxx.c **** 
 172:Device/Dev_W25Nxx.c ****     /* soft reset */
 173:Device/Dev_W25Nxx.c ****     if (!DevW25Nxx_Soft_Reset(dev))
 174:Device/Dev_W25Nxx.c ****         return DevW25Nxx_Error;
 175:Device/Dev_W25Nxx.c **** 
 176:Device/Dev_W25Nxx.c ****     dev->delay_ms(100);
 177:Device/Dev_W25Nxx.c ****     dev->init_state = true;
 178:Device/Dev_W25Nxx.c **** 
 179:Device/Dev_W25Nxx.c ****     return DevW25Nxx_Ok;
 180:Device/Dev_W25Nxx.c **** }
 181:Device/Dev_W25Nxx.c **** 
 182:Device/Dev_W25Nxx.c **** static bool DevW25Nxx_Soft_Reset(DevW25NxxObj_TypeDef *dev)
 183:Device/Dev_W25Nxx.c **** {
 184:Device/Dev_W25Nxx.c ****     uint8_t tx_tmp[2] = {0};
 185:Device/Dev_W25Nxx.c **** 
 186:Device/Dev_W25Nxx.c ****     if ((dev == NULL) || \
 187:Device/Dev_W25Nxx.c ****         (dev->cs_ctl == NULL))
 188:Device/Dev_W25Nxx.c ****         return false;
 189:Device/Dev_W25Nxx.c **** 
 190:Device/Dev_W25Nxx.c ****     memset(tx_tmp, 0, sizeof(tx_tmp));
 191:Device/Dev_W25Nxx.c ****     tx_tmp[0] = W25NXX_RESET_CMD;
 192:Device/Dev_W25Nxx.c ****     return DevW25Nxx_Write(dev, tx_tmp, sizeof(tx_tmp));
 193:Device/Dev_W25Nxx.c **** }
 194:Device/Dev_W25Nxx.c **** 
 195:Device/Dev_W25Nxx.c **** static DevW25Nxx_ProdType_List DevW25Nxx_Get_ProductID(DevW25NxxObj_TypeDef *dev)
 196:Device/Dev_W25Nxx.c **** {
 197:Device/Dev_W25Nxx.c ****     uint8_t tx_tmp[2] = {0};
 198:Device/Dev_W25Nxx.c ****     uint8_t rx_tmp[3] = {0};
 199:Device/Dev_W25Nxx.c **** 
 200:Device/Dev_W25Nxx.c ****     if ((dev == NULL) || \
 201:Device/Dev_W25Nxx.c ****         (dev->cs_ctl == NULL))
 202:Device/Dev_W25Nxx.c ****         return DevW25N_None;
 203:Device/Dev_W25Nxx.c **** 
 204:Device/Dev_W25Nxx.c ****     memset(tx_tmp, 0, sizeof(tx_tmp));
 205:Device/Dev_W25Nxx.c ****     memset(rx_tmp, 0, sizeof(rx_tmp));
 206:Device/Dev_W25Nxx.c ****     tx_tmp[0] = W25NXX_JEDEC_ID;
 207:Device/Dev_W25Nxx.c **** 
 208:Device/Dev_W25Nxx.c ****     if (!DevW25Nxx_Trans_Receive(dev, tx_tmp, sizeof(tx_tmp), rx_tmp, sizeof(rx_tmp)))
 209:Device/Dev_W25Nxx.c ****         return DevW25N_None;
 210:Device/Dev_W25Nxx.c **** 
 211:Device/Dev_W25Nxx.c ****     ((uint8_t *)&dev->prod_code)[3] = 0;
 212:Device/Dev_W25Nxx.c ****     ((uint8_t *)&dev->prod_code)[2] = rx_tmp[0];
 213:Device/Dev_W25Nxx.c ****     ((uint8_t *)&dev->prod_code)[1] = rx_tmp[1];
 214:Device/Dev_W25Nxx.c ****     ((uint8_t *)&dev->prod_code)[0] = rx_tmp[2];
 215:Device/Dev_W25Nxx.c ****     
 216:Device/Dev_W25Nxx.c ****     switch (dev->prod_code)
 217:Device/Dev_W25Nxx.c ****     {
 218:Device/Dev_W25Nxx.c ****         case W25N01GVZEIG_ID: return DevW25N_01;
 219:Device/Dev_W25Nxx.c ****         default: return DevW25N_None;
 220:Device/Dev_W25Nxx.c ****     }
 221:Device/Dev_W25Nxx.c **** 
 222:Device/Dev_W25Nxx.c ****     return DevW25N_None;
 223:Device/Dev_W25Nxx.c **** }
ARM GAS  C:\Users\8bit\AppData\Local\Temp\ccCh4UmD.s 			page 14


 224:Device/Dev_W25Nxx.c **** 
 225:Device/Dev_W25Nxx.c **** static DevW25Nxx_Error_List DevW25Nxx_Check_Read_Status(DevW25NxxObj_TypeDef *dev)
 226:Device/Dev_W25Nxx.c **** {
 463              		.loc 1 226 1 is_stmt 1 view -0
 464              		.cfi_startproc
 465              		@ args = 0, pretend = 0, frame = 8
 466              		@ frame_needed = 0, uses_anonymous_args = 0
 467              		.loc 1 226 1 is_stmt 0 view .LVU115
 468 0000 00B5     		push	{lr}
 469              	.LCFI7:
 470              		.cfi_def_cfa_offset 4
 471              		.cfi_offset 14, -4
 472 0002 83B0     		sub	sp, sp, #12
 473              	.LCFI8:
 474              		.cfi_def_cfa_offset 16
 227:Device/Dev_W25Nxx.c ****     uint8_t cmd[3] = {W25NXX_READ_STATUS_CMD, W25NXX_SR2_ADDR, 0};
 475              		.loc 1 227 5 is_stmt 1 view .LVU116
 476              		.loc 1 227 13 is_stmt 0 view .LVU117
 477 0004 0F4B     		ldr	r3, .L43
 478 0006 1B68     		ldr	r3, [r3]
 479 0008 ADF80430 		strh	r3, [sp, #4]	@ movhi
 480 000c 1B0C     		lsrs	r3, r3, #16
 481 000e 8DF80630 		strb	r3, [sp, #6]
 228:Device/Dev_W25Nxx.c ****     uint8_t reg_val[3] = {0, 0, 0};
 482              		.loc 1 228 5 is_stmt 1 view .LVU118
 483              		.loc 1 228 13 is_stmt 0 view .LVU119
 484 0012 0D4B     		ldr	r3, .L43+4
 485 0014 1B68     		ldr	r3, [r3]
 486 0016 ADF80030 		strh	r3, [sp]	@ movhi
 487 001a 1B0C     		lsrs	r3, r3, #16
 488 001c 8DF80230 		strb	r3, [sp, #2]
 229:Device/Dev_W25Nxx.c ****     DevW25Nxx_SR2_TypeDef sr2;
 489              		.loc 1 229 5 is_stmt 1 view .LVU120
 230:Device/Dev_W25Nxx.c **** 
 231:Device/Dev_W25Nxx.c ****     if ((dev == NULL) || \
 490              		.loc 1 231 5 view .LVU121
 491              		.loc 1 231 8 is_stmt 0 view .LVU122
 492 0020 60B1     		cbz	r0, .L39
 232:Device/Dev_W25Nxx.c ****         !DevW25Nxx_Trans_Duplex(dev, cmd, reg_val, sizeof(cmd)))
 493              		.loc 1 232 10 discriminator 1 view .LVU123
 494 0022 0323     		movs	r3, #3
 495 0024 6A46     		mov	r2, sp
 496 0026 01A9     		add	r1, sp, #4
 497 0028 FFF7FEFF 		bl	DevW25Nxx_Trans_Duplex
 498              	.LVL65:
 231:Device/Dev_W25Nxx.c ****         !DevW25Nxx_Trans_Duplex(dev, cmd, reg_val, sizeof(cmd)))
 499              		.loc 1 231 23 discriminator 1 view .LVU124
 500 002c 30B1     		cbz	r0, .L39
 233:Device/Dev_W25Nxx.c ****         return DevW25Nxx_Error;
 234:Device/Dev_W25Nxx.c **** 
 235:Device/Dev_W25Nxx.c ****     sr2.val = reg_val[2];
 501              		.loc 1 235 5 is_stmt 1 view .LVU125
 502              		.loc 1 235 22 is_stmt 0 view .LVU126
 503 002e 9DF80200 		ldrb	r0, [sp, #2]	@ zero_extendqisi2
 236:Device/Dev_W25Nxx.c ****     if (sr2.bit.BUSY == 0)
 504              		.loc 1 236 5 is_stmt 1 view .LVU127
 505              		.loc 1 236 8 is_stmt 0 view .LVU128
ARM GAS  C:\Users\8bit\AppData\Local\Temp\ccCh4UmD.s 			page 15


 506 0032 10F00100 		ands	r0, r0, #1
 507 0036 02D0     		beq	.L41
 237:Device/Dev_W25Nxx.c ****         return DevW25Nxx_Ok;
 238:Device/Dev_W25Nxx.c **** 
 239:Device/Dev_W25Nxx.c ****     return DevW25Nxx_Busy;
 508              		.loc 1 239 12 view .LVU129
 509 0038 0220     		movs	r0, #2
 510 003a 00E0     		b	.L41
 511              	.L39:
 233:Device/Dev_W25Nxx.c **** 
 512              		.loc 1 233 9 is_stmt 1 view .LVU130
 233:Device/Dev_W25Nxx.c **** 
 513              		.loc 1 233 16 is_stmt 0 view .LVU131
 514 003c 0120     		movs	r0, #1
 515              	.L41:
 240:Device/Dev_W25Nxx.c **** }
 516              		.loc 1 240 1 view .LVU132
 517 003e 03B0     		add	sp, sp, #12
 518              	.LCFI9:
 519              		.cfi_def_cfa_offset 4
 520              		@ sp needed
 521 0040 5DF804FB 		ldr	pc, [sp], #4
 522              	.L44:
 523              		.align	2
 524              	.L43:
 525 0044 00000000 		.word	.LC0
 526 0048 00000000 		.word	.LANCHOR0
 527              		.cfi_endproc
 528              	.LFE141:
 530              		.section	.text.DevW25Nxx_Get_Page,"ax",%progbits
 531              		.align	1
 532              		.syntax unified
 533              		.thumb
 534              		.thumb_func
 536              	DevW25Nxx_Get_Page:
 537              	.LVL66:
 538              	.LFB144:
 241:Device/Dev_W25Nxx.c **** 
 242:Device/Dev_W25Nxx.c **** static DevW25Nxx_Error_List DevW25Nxx_BadBlock_Managemnet(DevW25NxxObj_TypeDef *dev)
 243:Device/Dev_W25Nxx.c **** {
 244:Device/Dev_W25Nxx.c ****     uint8_t cmd[2] = {W25NXX_BB_MANAGEMENT};
 245:Device/Dev_W25Nxx.c **** 
 246:Device/Dev_W25Nxx.c ****     if ((dev == NULL) || \
 247:Device/Dev_W25Nxx.c ****         DevW25Nxx_Read(dev, cmd, sizeof(cmd)) != DevW25Nxx_Ok)
 248:Device/Dev_W25Nxx.c ****         return DevW25Nxx_Error;
 249:Device/Dev_W25Nxx.c **** 
 250:Device/Dev_W25Nxx.c ****     return DevW25Nxx_Ok;
 251:Device/Dev_W25Nxx.c **** }
 252:Device/Dev_W25Nxx.c **** 
 253:Device/Dev_W25Nxx.c **** static DevW25Nxx_DeviceInfo_TypeDef DevW25Nxx_Get_Info(DevW25NxxObj_TypeDef *dev)
 254:Device/Dev_W25Nxx.c **** {
 255:Device/Dev_W25Nxx.c ****     DevW25Nxx_DeviceInfo_TypeDef info;
 256:Device/Dev_W25Nxx.c ****     memset(&info, 0, sizeof(DevW25Nxx_DeviceInfo_TypeDef));
 257:Device/Dev_W25Nxx.c **** 
 258:Device/Dev_W25Nxx.c ****     switch ((uint8_t) dev->prod_type)
 259:Device/Dev_W25Nxx.c ****     {
 260:Device/Dev_W25Nxx.c ****         case DevW25N_01:
ARM GAS  C:\Users\8bit\AppData\Local\Temp\ccCh4UmD.s 			page 16


 261:Device/Dev_W25Nxx.c ****             info.flash_size = W25N01GV_FLASH_SIZE;
 262:Device/Dev_W25Nxx.c ****             info.page_num = W25N01GV_PAGE_NUM;
 263:Device/Dev_W25Nxx.c ****             info.page_size = W25N01GV_PAGE_SIZE + W25N0GV_ECC_INFO_SIZE;
 264:Device/Dev_W25Nxx.c ****             info.block_num = W25N01GV_BLOCK_NUM;
 265:Device/Dev_W25Nxx.c ****             info.block_size = W25N01GV_BLOCK_SIZE;
 266:Device/Dev_W25Nxx.c ****             info.prod_code = dev->prod_code;
 267:Device/Dev_W25Nxx.c ****             info.prod_type = dev->prod_type;
 268:Device/Dev_W25Nxx.c ****             info.start_addr = W25NXX_BASE_ADDRESS;
 269:Device/Dev_W25Nxx.c ****             break;
 270:Device/Dev_W25Nxx.c ****     
 271:Device/Dev_W25Nxx.c ****         default: break;
 272:Device/Dev_W25Nxx.c ****     }
 273:Device/Dev_W25Nxx.c **** 
 274:Device/Dev_W25Nxx.c ****     return info;
 275:Device/Dev_W25Nxx.c **** }
 276:Device/Dev_W25Nxx.c **** 
 277:Device/Dev_W25Nxx.c **** static uint32_t DevW25Nxx_Get_Page(DevW25NxxObj_TypeDef *dev, uint32_t addr)
 278:Device/Dev_W25Nxx.c **** {
 539              		.loc 1 278 1 is_stmt 1 view -0
 540              		.cfi_startproc
 541              		@ args = 0, pretend = 0, frame = 0
 542              		@ frame_needed = 0, uses_anonymous_args = 0
 543              		@ link register save eliminated.
 279:Device/Dev_W25Nxx.c ****     if ((dev == NULL) || \
 544              		.loc 1 279 5 view .LVU134
 545              		.loc 1 279 8 is_stmt 0 view .LVU135
 546 0000 58B1     		cbz	r0, .L47
 280:Device/Dev_W25Nxx.c ****         !dev->init_state || \
 547              		.loc 1 280 13 discriminator 1 view .LVU136
 548 0002 90F82420 		ldrb	r2, [r0, #36]	@ zero_extendqisi2
 279:Device/Dev_W25Nxx.c ****     if ((dev == NULL) || \
 549              		.loc 1 279 23 discriminator 1 view .LVU137
 550 0006 52B1     		cbz	r2, .L48
 281:Device/Dev_W25Nxx.c ****         (dev->prod_type == DevW25N_None) || \
 551              		.loc 1 281 13 view .LVU138
 552 0008 0378     		ldrb	r3, [r0]	@ zero_extendqisi2
 280:Device/Dev_W25Nxx.c ****         !dev->init_state || \
 553              		.loc 1 280 26 view .LVU139
 554 000a 53B1     		cbz	r3, .L49
 555              		.loc 1 281 42 view .LVU140
 556 000c 022B     		cmp	r3, #2
 557 000e 0AD8     		bhi	.L50
 282:Device/Dev_W25Nxx.c ****         (dev->prod_type > DevW25N_02) || \
 558              		.loc 1 282 39 view .LVU141
 559 0010 B1F1006F 		cmp	r1, #134217728
 560 0014 09D8     		bhi	.L51
 283:Device/Dev_W25Nxx.c ****         (addr > W25N01GV_FLASH_SIZE))
 284:Device/Dev_W25Nxx.c ****         return 0;
 285:Device/Dev_W25Nxx.c **** 
 286:Device/Dev_W25Nxx.c ****     return (addr / W25N01GV_PAGE_SIZE);
 561              		.loc 1 286 5 is_stmt 1 view .LVU142
 562              		.loc 1 286 18 is_stmt 0 view .LVU143
 563 0016 C80A     		lsrs	r0, r1, #11
 564              	.LVL67:
 565              		.loc 1 286 18 view .LVU144
 566 0018 7047     		bx	lr
 567              	.LVL68:
ARM GAS  C:\Users\8bit\AppData\Local\Temp\ccCh4UmD.s 			page 17


 568              	.L47:
 284:Device/Dev_W25Nxx.c **** 
 569              		.loc 1 284 16 view .LVU145
 570 001a 0020     		movs	r0, #0
 571              	.LVL69:
 284:Device/Dev_W25Nxx.c **** 
 572              		.loc 1 284 16 view .LVU146
 573 001c 7047     		bx	lr
 574              	.LVL70:
 575              	.L48:
 284:Device/Dev_W25Nxx.c **** 
 576              		.loc 1 284 16 view .LVU147
 577 001e 0020     		movs	r0, #0
 578              	.LVL71:
 284:Device/Dev_W25Nxx.c **** 
 579              		.loc 1 284 16 view .LVU148
 580 0020 7047     		bx	lr
 581              	.LVL72:
 582              	.L49:
 284:Device/Dev_W25Nxx.c **** 
 583              		.loc 1 284 16 view .LVU149
 584 0022 0020     		movs	r0, #0
 585              	.LVL73:
 284:Device/Dev_W25Nxx.c **** 
 586              		.loc 1 284 16 view .LVU150
 587 0024 7047     		bx	lr
 588              	.LVL74:
 589              	.L50:
 284:Device/Dev_W25Nxx.c **** 
 590              		.loc 1 284 16 view .LVU151
 591 0026 0020     		movs	r0, #0
 592              	.LVL75:
 284:Device/Dev_W25Nxx.c **** 
 593              		.loc 1 284 16 view .LVU152
 594 0028 7047     		bx	lr
 595              	.LVL76:
 596              	.L51:
 284:Device/Dev_W25Nxx.c **** 
 597              		.loc 1 284 16 view .LVU153
 598 002a 0020     		movs	r0, #0
 599              	.LVL77:
 287:Device/Dev_W25Nxx.c **** }
 600              		.loc 1 287 1 view .LVU154
 601 002c 7047     		bx	lr
 602              		.cfi_endproc
 603              	.LFE144:
 605              		.section	.text.DevW25Nxx_Get_Info,"ax",%progbits
 606              		.align	1
 607              		.syntax unified
 608              		.thumb
 609              		.thumb_func
 611              	DevW25Nxx_Get_Info:
 612              	.LVL78:
 613              	.LFB143:
 254:Device/Dev_W25Nxx.c ****     DevW25Nxx_DeviceInfo_TypeDef info;
 614              		.loc 1 254 1 is_stmt 1 view -0
 615              		.cfi_startproc
ARM GAS  C:\Users\8bit\AppData\Local\Temp\ccCh4UmD.s 			page 18


 616              		@ args = 0, pretend = 0, frame = 32
 617              		@ frame_needed = 0, uses_anonymous_args = 0
 254:Device/Dev_W25Nxx.c ****     DevW25Nxx_DeviceInfo_TypeDef info;
 618              		.loc 1 254 1 is_stmt 0 view .LVU156
 619 0000 10B5     		push	{r4, lr}
 620              	.LCFI10:
 621              		.cfi_def_cfa_offset 8
 622              		.cfi_offset 4, -8
 623              		.cfi_offset 14, -4
 624 0002 88B0     		sub	sp, sp, #32
 625              	.LCFI11:
 626              		.cfi_def_cfa_offset 40
 627 0004 0446     		mov	r4, r0
 255:Device/Dev_W25Nxx.c ****     memset(&info, 0, sizeof(DevW25Nxx_DeviceInfo_TypeDef));
 628              		.loc 1 255 5 is_stmt 1 view .LVU157
 256:Device/Dev_W25Nxx.c **** 
 629              		.loc 1 256 5 view .LVU158
 630 0006 0023     		movs	r3, #0
 631 0008 0193     		str	r3, [sp, #4]
 632 000a 0293     		str	r3, [sp, #8]
 633 000c 0393     		str	r3, [sp, #12]
 634 000e 0493     		str	r3, [sp, #16]
 635 0010 0593     		str	r3, [sp, #20]
 636 0012 0693     		str	r3, [sp, #24]
 637 0014 0793     		str	r3, [sp, #28]
 258:Device/Dev_W25Nxx.c ****     {
 638              		.loc 1 258 5 view .LVU159
 258:Device/Dev_W25Nxx.c ****     {
 639              		.loc 1 258 26 is_stmt 0 view .LVU160
 640 0016 0B78     		ldrb	r3, [r1]	@ zero_extendqisi2
 258:Device/Dev_W25Nxx.c ****     {
 641              		.loc 1 258 5 view .LVU161
 642 0018 012B     		cmp	r3, #1
 643 001a 0DD0     		beq	.L55
 644              	.L53:
 274:Device/Dev_W25Nxx.c **** }
 645              		.loc 1 274 5 is_stmt 1 view .LVU162
 274:Device/Dev_W25Nxx.c **** }
 646              		.loc 1 274 12 is_stmt 0 view .LVU163
 647 001c A446     		mov	ip, r4
 648 001e 0DF1040E 		add	lr, sp, #4
 649 0022 BEE80F00 		ldmia	lr!, {r0, r1, r2, r3}
 650              	.LVL79:
 274:Device/Dev_W25Nxx.c **** }
 651              		.loc 1 274 12 view .LVU164
 652 0026 ACE80F00 		stmia	ip!, {r0, r1, r2, r3}
 653 002a 9EE80700 		ldm	lr, {r0, r1, r2}
 654 002e 8CE80700 		stm	ip, {r0, r1, r2}
 275:Device/Dev_W25Nxx.c **** 
 655              		.loc 1 275 1 view .LVU165
 656 0032 2046     		mov	r0, r4
 657 0034 08B0     		add	sp, sp, #32
 658              	.LCFI12:
 659              		.cfi_remember_state
 660              		.cfi_def_cfa_offset 8
 661              		@ sp needed
 662 0036 10BD     		pop	{r4, pc}
ARM GAS  C:\Users\8bit\AppData\Local\Temp\ccCh4UmD.s 			page 19


 663              	.LVL80:
 664              	.L55:
 665              	.LCFI13:
 666              		.cfi_restore_state
 261:Device/Dev_W25Nxx.c ****             info.page_num = W25N01GV_PAGE_NUM;
 667              		.loc 1 261 13 is_stmt 1 view .LVU166
 261:Device/Dev_W25Nxx.c ****             info.page_num = W25N01GV_PAGE_NUM;
 668              		.loc 1 261 29 is_stmt 0 view .LVU167
 669 0038 4FF00063 		mov	r3, #134217728
 670 003c 0393     		str	r3, [sp, #12]
 262:Device/Dev_W25Nxx.c ****             info.page_size = W25N01GV_PAGE_SIZE + W25N0GV_ECC_INFO_SIZE;
 671              		.loc 1 262 13 is_stmt 1 view .LVU168
 262:Device/Dev_W25Nxx.c ****             info.page_size = W25N01GV_PAGE_SIZE + W25N0GV_ECC_INFO_SIZE;
 672              		.loc 1 262 27 is_stmt 0 view .LVU169
 673 003e 4FF48033 		mov	r3, #65536
 674 0042 0593     		str	r3, [sp, #20]
 263:Device/Dev_W25Nxx.c ****             info.block_num = W25N01GV_BLOCK_NUM;
 675              		.loc 1 263 13 is_stmt 1 view .LVU170
 263:Device/Dev_W25Nxx.c ****             info.block_num = W25N01GV_BLOCK_NUM;
 676              		.loc 1 263 28 is_stmt 0 view .LVU171
 677 0044 4FF40463 		mov	r3, #2112
 678 0048 ADF81030 		strh	r3, [sp, #16]	@ movhi
 264:Device/Dev_W25Nxx.c ****             info.block_size = W25N01GV_BLOCK_SIZE;
 679              		.loc 1 264 13 is_stmt 1 view .LVU172
 264:Device/Dev_W25Nxx.c ****             info.block_size = W25N01GV_BLOCK_SIZE;
 680              		.loc 1 264 28 is_stmt 0 view .LVU173
 681 004c 4FF48063 		mov	r3, #1024
 682 0050 ADF81830 		strh	r3, [sp, #24]	@ movhi
 265:Device/Dev_W25Nxx.c ****             info.prod_code = dev->prod_code;
 683              		.loc 1 265 13 is_stmt 1 view .LVU174
 265:Device/Dev_W25Nxx.c ****             info.prod_code = dev->prod_code;
 684              		.loc 1 265 29 is_stmt 0 view .LVU175
 685 0054 4FF40033 		mov	r3, #131072
 686 0058 0793     		str	r3, [sp, #28]
 266:Device/Dev_W25Nxx.c ****             info.prod_type = dev->prod_type;
 687              		.loc 1 266 13 is_stmt 1 view .LVU176
 266:Device/Dev_W25Nxx.c ****             info.prod_type = dev->prod_type;
 688              		.loc 1 266 33 is_stmt 0 view .LVU177
 689 005a 4B68     		ldr	r3, [r1, #4]
 266:Device/Dev_W25Nxx.c ****             info.prod_type = dev->prod_type;
 690              		.loc 1 266 28 view .LVU178
 691 005c ADF80630 		strh	r3, [sp, #6]	@ movhi
 267:Device/Dev_W25Nxx.c ****             info.start_addr = W25NXX_BASE_ADDRESS;
 692              		.loc 1 267 13 is_stmt 1 view .LVU179
 267:Device/Dev_W25Nxx.c ****             info.start_addr = W25NXX_BASE_ADDRESS;
 693              		.loc 1 267 33 is_stmt 0 view .LVU180
 694 0060 0B78     		ldrb	r3, [r1]	@ zero_extendqisi2
 267:Device/Dev_W25Nxx.c ****             info.start_addr = W25NXX_BASE_ADDRESS;
 695              		.loc 1 267 28 view .LVU181
 696 0062 8DF80430 		strb	r3, [sp, #4]
 268:Device/Dev_W25Nxx.c ****             break;
 697              		.loc 1 268 13 is_stmt 1 view .LVU182
 269:Device/Dev_W25Nxx.c ****     
 698              		.loc 1 269 13 view .LVU183
 699 0066 D9E7     		b	.L53
 700              		.cfi_endproc
 701              	.LFE143:
ARM GAS  C:\Users\8bit\AppData\Local\Temp\ccCh4UmD.s 			page 20


 703              		.section	.text.DevW25Nxx_Read_Page,"ax",%progbits
 704              		.align	1
 705              		.syntax unified
 706              		.thumb
 707              		.thumb_func
 709              	DevW25Nxx_Read_Page:
 710              	.LVL81:
 711              	.LFB148:
 288:Device/Dev_W25Nxx.c **** 
 289:Device/Dev_W25Nxx.c **** static DevW25Nxx_Error_List DevW25Nxx_WriteReg_Set(DevW25NxxObj_TypeDef *dev, uint8_t reg_addr, uin
 290:Device/Dev_W25Nxx.c **** {
 291:Device/Dev_W25Nxx.c ****     uint8_t cmd[3] = {W25NXX_WRITE_STATUS_CMD, reg_addr};
 292:Device/Dev_W25Nxx.c **** 
 293:Device/Dev_W25Nxx.c ****     if ((dev == NULL) || \
 294:Device/Dev_W25Nxx.c ****         ((reg_addr != W25NXX_SR0_ADDR) && \
 295:Device/Dev_W25Nxx.c ****          (reg_addr != W25NXX_SR1_ADDR)))
 296:Device/Dev_W25Nxx.c ****         return DevW25Nxx_Error;
 297:Device/Dev_W25Nxx.c **** 
 298:Device/Dev_W25Nxx.c ****     if (!DevW25Nxx_Read(dev, cmd, sizeof(cmd)))
 299:Device/Dev_W25Nxx.c ****         return DevW25Nxx_Error;
 300:Device/Dev_W25Nxx.c **** 
 301:Device/Dev_W25Nxx.c ****     if (reg_addr == W25NXX_SR0_ADDR)
 302:Device/Dev_W25Nxx.c ****     {
 303:Device/Dev_W25Nxx.c ****         switch (field_index)
 304:Device/Dev_W25Nxx.c ****         {
 305:Device/Dev_W25Nxx.c ****             case BF_SRP_1: ConvertToSR0_RegFormat(&cmd[2])->bit.SRP_1 = val; break;
 306:Device/Dev_W25Nxx.c ****             case BF_WPE:   ConvertToSR0_RegFormat(&cmd[2])->bit.WPE   = val; break;
 307:Device/Dev_W25Nxx.c ****             case BF_TB:    ConvertToSR0_RegFormat(&cmd[2])->bit.TB    = val; break;
 308:Device/Dev_W25Nxx.c ****             case BF_BP_0:  ConvertToSR0_RegFormat(&cmd[2])->bit.BP_0  = val; break;
 309:Device/Dev_W25Nxx.c ****             case BF_BP_1:  ConvertToSR0_RegFormat(&cmd[2])->bit.BP_1  = val; break;
 310:Device/Dev_W25Nxx.c ****             case BF_BP_2:  ConvertToSR0_RegFormat(&cmd[2])->bit.BP_2  = val; break;
 311:Device/Dev_W25Nxx.c ****             case BF_BP_3:  ConvertToSR0_RegFormat(&cmd[2])->bit.BP_3  = val; break;
 312:Device/Dev_W25Nxx.c ****             case BF_SRP_0: ConvertToSR0_RegFormat(&cmd[2])->bit.SRP_0 = val; break;
 313:Device/Dev_W25Nxx.c ****             default: return DevW25Nxx_Error;
 314:Device/Dev_W25Nxx.c ****         }
 315:Device/Dev_W25Nxx.c ****     }
 316:Device/Dev_W25Nxx.c ****     else if (reg_addr == W25NXX_SR1_ADDR)
 317:Device/Dev_W25Nxx.c ****     {
 318:Device/Dev_W25Nxx.c ****         switch (field_index)
 319:Device/Dev_W25Nxx.c ****         {
 320:Device/Dev_W25Nxx.c ****             case BF_BUF:   ConvertToSR1_RegFormat(&cmd[2])->bit.BUF   = val; break;
 321:Device/Dev_W25Nxx.c ****             case BF_ECC_E: ConvertToSR1_RegFormat(&cmd[2])->bit.ECC_E = val; break;
 322:Device/Dev_W25Nxx.c ****             case BF_SR1_L: ConvertToSR1_RegFormat(&cmd[2])->bit.SR1_L = val; break;
 323:Device/Dev_W25Nxx.c ****             case BF_OTP_E: ConvertToSR1_RegFormat(&cmd[2])->bit.OTP_E = val; break;
 324:Device/Dev_W25Nxx.c ****             case BF_OTP_L: ConvertToSR1_RegFormat(&cmd[2])->bit.OTP_L = val; break;
 325:Device/Dev_W25Nxx.c ****             default: return DevW25Nxx_Error;
 326:Device/Dev_W25Nxx.c ****         }
 327:Device/Dev_W25Nxx.c ****     }
 328:Device/Dev_W25Nxx.c ****     
 329:Device/Dev_W25Nxx.c ****     if (!DevW25Nxx_Write(dev, cmd, sizeof(cmd)))
 330:Device/Dev_W25Nxx.c ****         return DevW25Nxx_Error;
 331:Device/Dev_W25Nxx.c **** 
 332:Device/Dev_W25Nxx.c ****     return DevW25Nxx_Ok;
 333:Device/Dev_W25Nxx.c **** }
 334:Device/Dev_W25Nxx.c **** 
 335:Device/Dev_W25Nxx.c **** static DevW25Nxx_Error_List DevW25Nxx_WriteEn(DevW25NxxObj_TypeDef *dev, bool en)
 336:Device/Dev_W25Nxx.c **** {
ARM GAS  C:\Users\8bit\AppData\Local\Temp\ccCh4UmD.s 			page 21


 337:Device/Dev_W25Nxx.c ****     uint8_t cmd[2] = {W25NXX_WRITE_DISABLE, 0};
 338:Device/Dev_W25Nxx.c **** 
 339:Device/Dev_W25Nxx.c ****     if (en)
 340:Device/Dev_W25Nxx.c ****         cmd[0] = W25NXX_WRITE_ENABLE;
 341:Device/Dev_W25Nxx.c **** 
 342:Device/Dev_W25Nxx.c ****     if ((dev == NULL) || \
 343:Device/Dev_W25Nxx.c ****         !DevW25Nxx_Write(dev, cmd, sizeof(cmd)))
 344:Device/Dev_W25Nxx.c ****         return DevW25Nxx_Error;
 345:Device/Dev_W25Nxx.c **** 
 346:Device/Dev_W25Nxx.c ****     return DevW25Nxx_Ok;
 347:Device/Dev_W25Nxx.c **** }
 348:Device/Dev_W25Nxx.c **** 
 349:Device/Dev_W25Nxx.c **** static DevW25Nxx_Error_List DevW25Nxx_Write_Page(DevW25NxxObj_TypeDef *dev, uint16_t page, uint8_t 
 350:Device/Dev_W25Nxx.c **** {
 351:Device/Dev_W25Nxx.c ****     uint8_t cmd[3];
 352:Device/Dev_W25Nxx.c ****     DevW25Nxx_SR0_TypeDef sr0;
 353:Device/Dev_W25Nxx.c **** 
 354:Device/Dev_W25Nxx.c ****     sr0.val = 0;
 355:Device/Dev_W25Nxx.c ****     memset(cmd, 0, sizeof(cmd));
 356:Device/Dev_W25Nxx.c ****     if ((dev == NULL) || \
 357:Device/Dev_W25Nxx.c ****         !dev->init_state || \
 358:Device/Dev_W25Nxx.c ****         (p_data == NULL) || \
 359:Device/Dev_W25Nxx.c ****         (len == 0))
 360:Device/Dev_W25Nxx.c ****         return DevW25Nxx_Error;
 361:Device/Dev_W25Nxx.c **** 
 362:Device/Dev_W25Nxx.c ****     /* check write protect status */
 363:Device/Dev_W25Nxx.c ****     cmd[0] = W25NXX_READ_STATUS_CMD;
 364:Device/Dev_W25Nxx.c ****     cmd[1] = W25NXX_SR0_ADDR;
 365:Device/Dev_W25Nxx.c **** 
 366:Device/Dev_W25Nxx.c ****     if (!DevW25Nxx_Trans_Receive(dev, cmd, 2, &sr0.val, 1))
 367:Device/Dev_W25Nxx.c ****         return DevW25Nxx_Error;
 368:Device/Dev_W25Nxx.c **** 
 369:Device/Dev_W25Nxx.c ****     if (sr0.bit.WPE)
 370:Device/Dev_W25Nxx.c ****     {
 371:Device/Dev_W25Nxx.c ****         /* clear write protect */
 372:Device/Dev_W25Nxx.c ****         sr0.bit.WPE = false;
 373:Device/Dev_W25Nxx.c ****         cmd[2] = sr0.val;
 374:Device/Dev_W25Nxx.c ****         if (!DevW25Nxx_Write(dev, cmd, sizeof(cmd)))
 375:Device/Dev_W25Nxx.c ****             return DevW25Nxx_Error;
 376:Device/Dev_W25Nxx.c ****     }
 377:Device/Dev_W25Nxx.c **** 
 378:Device/Dev_W25Nxx.c ****     /* set write enable */
 379:Device/Dev_W25Nxx.c ****     if (DevW25Nxx_WriteEn(dev, true) == DevW25Nxx_Error)
 380:Device/Dev_W25Nxx.c ****         return DevW25Nxx_Error;
 381:Device/Dev_W25Nxx.c **** 
 382:Device/Dev_W25Nxx.c ****     return DevW25Nxx_Ok;
 383:Device/Dev_W25Nxx.c **** }
 384:Device/Dev_W25Nxx.c **** 
 385:Device/Dev_W25Nxx.c **** static DevW25Nxx_Error_List DevW25Nxx_Read_Page(DevW25NxxObj_TypeDef *dev, uint32_t addr, uint8_t *
 386:Device/Dev_W25Nxx.c **** {
 712              		.loc 1 386 1 view -0
 713              		.cfi_startproc
 714              		@ args = 0, pretend = 0, frame = 8
 715              		@ frame_needed = 0, uses_anonymous_args = 0
 716              		.loc 1 386 1 is_stmt 0 view .LVU185
 717 0000 2DE9F041 		push	{r4, r5, r6, r7, r8, lr}
 718              	.LCFI14:
ARM GAS  C:\Users\8bit\AppData\Local\Temp\ccCh4UmD.s 			page 22


 719              		.cfi_def_cfa_offset 24
 720              		.cfi_offset 4, -24
 721              		.cfi_offset 5, -20
 722              		.cfi_offset 6, -16
 723              		.cfi_offset 7, -12
 724              		.cfi_offset 8, -8
 725              		.cfi_offset 14, -4
 726 0004 82B0     		sub	sp, sp, #8
 727              	.LCFI15:
 728              		.cfi_def_cfa_offset 32
 387:Device/Dev_W25Nxx.c ****     DevW25Nxx_Error_List err = DevW25Nxx_Ok;
 729              		.loc 1 387 5 is_stmt 1 view .LVU186
 730              	.LVL82:
 388:Device/Dev_W25Nxx.c ****     uint32_t sys_time = 0;
 731              		.loc 1 388 5 view .LVU187
 389:Device/Dev_W25Nxx.c ****     uint32_t start_page = 0;
 732              		.loc 1 389 5 view .LVU188
 390:Device/Dev_W25Nxx.c ****     uint16_t read_num = size / W25NXX_PAGE_SIZE;
 733              		.loc 1 390 5 view .LVU189
 734              		.loc 1 390 14 is_stmt 0 view .LVU190
 735 0006 C3F3CF26 		ubfx	r6, r3, #11, #16
 736              	.LVL83:
 391:Device/Dev_W25Nxx.c ****     uint8_t cmd[4];
 737              		.loc 1 391 5 is_stmt 1 view .LVU191
 392:Device/Dev_W25Nxx.c ****     uint16_t state = false;
 738              		.loc 1 392 5 view .LVU192
 393:Device/Dev_W25Nxx.c ****     uint16_t offset = 0;
 739              		.loc 1 393 5 view .LVU193
 394:Device/Dev_W25Nxx.c **** 
 395:Device/Dev_W25Nxx.c ****     memset(cmd, 0, sizeof(cmd));
 740              		.loc 1 395 5 view .LVU194
 741 000a 0021     		movs	r1, #0
 742              	.LVL84:
 743              		.loc 1 395 5 is_stmt 0 view .LVU195
 744 000c 0191     		str	r1, [sp, #4]
 396:Device/Dev_W25Nxx.c **** 
 397:Device/Dev_W25Nxx.c ****     if ((dev == NULL) || \
 745              		.loc 1 397 5 is_stmt 1 view .LVU196
 746              		.loc 1 397 8 is_stmt 0 view .LVU197
 747 000e 0028     		cmp	r0, #0
 748 0010 3ED0     		beq	.L62
 749 0012 0546     		mov	r5, r0
 398:Device/Dev_W25Nxx.c ****         !dev->init_state || \
 750              		.loc 1 398 13 discriminator 1 view .LVU198
 751 0014 90F82410 		ldrb	r1, [r0, #36]	@ zero_extendqisi2
 397:Device/Dev_W25Nxx.c ****         !dev->init_state || \
 752              		.loc 1 397 23 discriminator 1 view .LVU199
 753 0018 0029     		cmp	r1, #0
 754 001a 3BD0     		beq	.L63
 755              		.loc 1 398 26 view .LVU200
 756 001c 002A     		cmp	r2, #0
 757 001e 3ED0     		beq	.L64
 399:Device/Dev_W25Nxx.c ****         (p_data == NULL) || \
 400:Device/Dev_W25Nxx.c ****         (dev->systick == NULL) || \
 758              		.loc 1 400 13 view .LVU201
 759 0020 026A     		ldr	r2, [r0, #32]
 760              	.LVL85:
ARM GAS  C:\Users\8bit\AppData\Local\Temp\ccCh4UmD.s 			page 23


 399:Device/Dev_W25Nxx.c ****         (p_data == NULL) || \
 761              		.loc 1 399 26 view .LVU202
 762 0022 002A     		cmp	r2, #0
 763 0024 3DD0     		beq	.L65
 401:Device/Dev_W25Nxx.c ****         (dev->delay_ms == NULL) || \
 764              		.loc 1 401 13 view .LVU203
 765 0026 C269     		ldr	r2, [r0, #28]
 400:Device/Dev_W25Nxx.c ****         (dev->delay_ms == NULL) || \
 766              		.loc 1 400 32 view .LVU204
 767 0028 002A     		cmp	r2, #0
 768 002a 3CD0     		beq	.L66
 769              		.loc 1 401 33 view .LVU205
 770 002c B3F5046F 		cmp	r3, #2112
 771 0030 3BD3     		bcc	.L67
 772              	.LBB2:
 402:Device/Dev_W25Nxx.c ****         (size < (W25NXX_PAGE_SIZE + W25N0GV_ECC_INFO_SIZE)))
 403:Device/Dev_W25Nxx.c ****         return DevW25Nxx_Error;
 404:Device/Dev_W25Nxx.c **** 
 405:Device/Dev_W25Nxx.c ****     for (uint8_t i = 0; i < read_num; i++)
 773              		.loc 1 405 18 view .LVU206
 774 0032 0027     		movs	r7, #0
 775              	.LVL86:
 776              	.L58:
 777              		.loc 1 405 25 is_stmt 1 discriminator 1 view .LVU207
 778              		.loc 1 405 27 is_stmt 0 discriminator 1 view .LVU208
 779 0034 BBB2     		uxth	r3, r7
 780              		.loc 1 405 5 discriminator 1 view .LVU209
 781 0036 B342     		cmp	r3, r6
 782 0038 28D2     		bcs	.L71
 406:Device/Dev_W25Nxx.c ****     {
 407:Device/Dev_W25Nxx.c ****         start_page = DevW25Nxx_Get_Page(dev, addr);
 783              		.loc 1 407 9 is_stmt 1 view .LVU210
 408:Device/Dev_W25Nxx.c **** 
 409:Device/Dev_W25Nxx.c ****         /* get chip status */
 410:Device/Dev_W25Nxx.c ****         err = DevW25Nxx_Check_Read_Status(dev);
 784              		.loc 1 410 9 view .LVU211
 785              		.loc 1 410 15 is_stmt 0 view .LVU212
 786 003a 2846     		mov	r0, r5
 787 003c FFF7FEFF 		bl	DevW25Nxx_Check_Read_Status
 788              	.LVL87:
 789 0040 0446     		mov	r4, r0
 790              	.LVL88:
 411:Device/Dev_W25Nxx.c ****         if (err == DevW25Nxx_Error)
 791              		.loc 1 411 9 is_stmt 1 view .LVU213
 792              		.loc 1 411 12 is_stmt 0 view .LVU214
 793 0042 0128     		cmp	r0, #1
 794 0044 27D0     		beq	.L57
 412:Device/Dev_W25Nxx.c ****             return DevW25Nxx_Error;
 413:Device/Dev_W25Nxx.c ****         
 414:Device/Dev_W25Nxx.c ****         sys_time = dev->systick();
 795              		.loc 1 414 9 is_stmt 1 view .LVU215
 796              		.loc 1 414 23 is_stmt 0 view .LVU216
 797 0046 2B6A     		ldr	r3, [r5, #32]
 798              		.loc 1 414 20 view .LVU217
 799 0048 9847     		blx	r3
 800              	.LVL89:
 801              		.loc 1 414 20 view .LVU218
ARM GAS  C:\Users\8bit\AppData\Local\Temp\ccCh4UmD.s 			page 24


 802 004a 8046     		mov	r8, r0
 803              	.LVL90:
 415:Device/Dev_W25Nxx.c ****         while (err == DevW25Nxx_Busy)
 804              		.loc 1 415 9 is_stmt 1 view .LVU219
 805              	.L59:
 806              		.loc 1 415 15 view .LVU220
 807 004c 022C     		cmp	r4, #2
 808 004e 0CD1     		bne	.L72
 416:Device/Dev_W25Nxx.c ****         {
 417:Device/Dev_W25Nxx.c ****             if ((dev->systick() - sys_time) >= W25NXX_BUS_COMMU_TIMEOUT)
 809              		.loc 1 417 13 view .LVU221
 810              		.loc 1 417 21 is_stmt 0 view .LVU222
 811 0050 2B6A     		ldr	r3, [r5, #32]
 812              		.loc 1 417 18 view .LVU223
 813 0052 9847     		blx	r3
 814              	.LVL91:
 815              		.loc 1 417 33 view .LVU224
 816 0054 A0EB0800 		sub	r0, r0, r8
 817              		.loc 1 417 16 view .LVU225
 818 0058 6328     		cmp	r0, #99
 819 005a 28D8     		bhi	.L68
 418:Device/Dev_W25Nxx.c ****                 return DevW25Nxx_TimeOut;
 419:Device/Dev_W25Nxx.c **** 
 420:Device/Dev_W25Nxx.c ****             err = DevW25Nxx_Check_Read_Status(dev);
 820              		.loc 1 420 13 is_stmt 1 view .LVU226
 821              		.loc 1 420 19 is_stmt 0 view .LVU227
 822 005c 2846     		mov	r0, r5
 823 005e FFF7FEFF 		bl	DevW25Nxx_Check_Read_Status
 824              	.LVL92:
 825 0062 0446     		mov	r4, r0
 826              	.LVL93:
 421:Device/Dev_W25Nxx.c ****             if (err == DevW25Nxx_Error)
 827              		.loc 1 421 13 is_stmt 1 view .LVU228
 828              		.loc 1 421 16 is_stmt 0 view .LVU229
 829 0064 0128     		cmp	r0, #1
 830 0066 F1D1     		bne	.L59
 831 0068 15E0     		b	.L57
 832              	.LVL94:
 833              	.L72:
 422:Device/Dev_W25Nxx.c ****                 return DevW25Nxx_Error;
 423:Device/Dev_W25Nxx.c ****         }
 424:Device/Dev_W25Nxx.c **** 
 425:Device/Dev_W25Nxx.c ****         /* read page */
 426:Device/Dev_W25Nxx.c ****         // cmd[0] = W25NXX_PAGE_DATA_READ;
 427:Device/Dev_W25Nxx.c ****         // cmd[1] = ;
 428:Device/Dev_W25Nxx.c ****         // cmd[2] = ;
 429:Device/Dev_W25Nxx.c ****         // cmd[3] = ;
 430:Device/Dev_W25Nxx.c **** 
 431:Device/Dev_W25Nxx.c ****         dev->cs_ctl(false);
 834              		.loc 1 431 9 is_stmt 1 view .LVU230
 835              		.loc 1 431 12 is_stmt 0 view .LVU231
 836 006a AB69     		ldr	r3, [r5, #24]
 837              		.loc 1 431 9 view .LVU232
 838 006c 0020     		movs	r0, #0
 839 006e 9847     		blx	r3
 840              	.LVL95:
 432:Device/Dev_W25Nxx.c ****         state = dev->bus_tx(cmd, sizeof(cmd), W25NXX_BUS_COMMU_TIMEOUT);  /* send cmd */
ARM GAS  C:\Users\8bit\AppData\Local\Temp\ccCh4UmD.s 			page 25


 841              		.loc 1 432 9 is_stmt 1 view .LVU233
 842              		.loc 1 432 20 is_stmt 0 view .LVU234
 843 0070 EB68     		ldr	r3, [r5, #12]
 844              		.loc 1 432 17 view .LVU235
 845 0072 6422     		movs	r2, #100
 846 0074 0421     		movs	r1, #4
 847 0076 0DEB0100 		add	r0, sp, r1
 848 007a 9847     		blx	r3
 849              	.LVL96:
 850 007c 0446     		mov	r4, r0
 851              	.LVL97:
 433:Device/Dev_W25Nxx.c ****         // state &= dev->bus_rx();
 434:Device/Dev_W25Nxx.c ****         dev->cs_ctl(true);
 852              		.loc 1 434 9 is_stmt 1 view .LVU236
 853              		.loc 1 434 12 is_stmt 0 view .LVU237
 854 007e AB69     		ldr	r3, [r5, #24]
 855              		.loc 1 434 9 view .LVU238
 856 0080 0120     		movs	r0, #1
 857 0082 9847     		blx	r3
 858              	.LVL98:
 435:Device/Dev_W25Nxx.c **** 
 436:Device/Dev_W25Nxx.c ****         if (!state)
 859              		.loc 1 436 9 is_stmt 1 view .LVU239
 860              		.loc 1 436 12 is_stmt 0 view .LVU240
 861 0084 ACB1     		cbz	r4, .L69
 405:Device/Dev_W25Nxx.c ****     {
 862              		.loc 1 405 39 is_stmt 1 discriminator 2 view .LVU241
 405:Device/Dev_W25Nxx.c ****     {
 863              		.loc 1 405 40 is_stmt 0 discriminator 2 view .LVU242
 864 0086 0137     		adds	r7, r7, #1
 865              	.LVL99:
 405:Device/Dev_W25Nxx.c ****     {
 866              		.loc 1 405 40 discriminator 2 view .LVU243
 867 0088 FFB2     		uxtb	r7, r7
 868              	.LVL100:
 405:Device/Dev_W25Nxx.c ****     {
 869              		.loc 1 405 40 discriminator 2 view .LVU244
 870 008a D3E7     		b	.L58
 871              	.LVL101:
 872              	.L71:
 405:Device/Dev_W25Nxx.c ****     {
 873              		.loc 1 405 40 discriminator 2 view .LVU245
 874              	.LBE2:
 437:Device/Dev_W25Nxx.c ****             return DevW25Nxx_Error;
 438:Device/Dev_W25Nxx.c ****     }
 439:Device/Dev_W25Nxx.c **** 
 440:Device/Dev_W25Nxx.c ****     return DevW25Nxx_Error;
 875              		.loc 1 440 12 view .LVU246
 876 008c 0124     		movs	r4, #1
 877              	.LBB3:
 878 008e 02E0     		b	.L57
 879              	.LVL102:
 880              	.L62:
 881              		.loc 1 440 12 view .LVU247
 882              	.LBE3:
 403:Device/Dev_W25Nxx.c **** 
 883              		.loc 1 403 16 view .LVU248
ARM GAS  C:\Users\8bit\AppData\Local\Temp\ccCh4UmD.s 			page 26


 884 0090 0124     		movs	r4, #1
 885 0092 00E0     		b	.L57
 886              	.L63:
 403:Device/Dev_W25Nxx.c **** 
 887              		.loc 1 403 16 view .LVU249
 888 0094 0124     		movs	r4, #1
 889              	.LVL103:
 890              	.L57:
 441:Device/Dev_W25Nxx.c **** }
 891              		.loc 1 441 1 view .LVU250
 892 0096 2046     		mov	r0, r4
 893 0098 02B0     		add	sp, sp, #8
 894              	.LCFI16:
 895              		.cfi_remember_state
 896              		.cfi_def_cfa_offset 24
 897              		@ sp needed
 898 009a BDE8F081 		pop	{r4, r5, r6, r7, r8, pc}
 899              	.LVL104:
 900              	.L64:
 901              	.LCFI17:
 902              		.cfi_restore_state
 403:Device/Dev_W25Nxx.c **** 
 903              		.loc 1 403 16 view .LVU251
 904 009e 0124     		movs	r4, #1
 905 00a0 F9E7     		b	.L57
 906              	.LVL105:
 907              	.L65:
 403:Device/Dev_W25Nxx.c **** 
 908              		.loc 1 403 16 view .LVU252
 909 00a2 0124     		movs	r4, #1
 910 00a4 F7E7     		b	.L57
 911              	.L66:
 912 00a6 0124     		movs	r4, #1
 913 00a8 F5E7     		b	.L57
 914              	.L67:
 915 00aa 0124     		movs	r4, #1
 916 00ac F3E7     		b	.L57
 917              	.LVL106:
 918              	.L68:
 919              	.LBB4:
 418:Device/Dev_W25Nxx.c **** 
 920              		.loc 1 418 24 view .LVU253
 921 00ae 0324     		movs	r4, #3
 922              	.LVL107:
 418:Device/Dev_W25Nxx.c **** 
 923              		.loc 1 418 24 view .LVU254
 924 00b0 F1E7     		b	.L57
 925              	.LVL108:
 926              	.L69:
 437:Device/Dev_W25Nxx.c ****     }
 927              		.loc 1 437 20 view .LVU255
 928 00b2 0124     		movs	r4, #1
 929              	.LVL109:
 437:Device/Dev_W25Nxx.c ****     }
 930              		.loc 1 437 20 view .LVU256
 931 00b4 EFE7     		b	.L57
 932              	.LBE4:
ARM GAS  C:\Users\8bit\AppData\Local\Temp\ccCh4UmD.s 			page 27


 933              		.cfi_endproc
 934              	.LFE148:
 936              		.section	.text.DevW25Nxx_Get_ProductID,"ax",%progbits
 937              		.align	1
 938              		.syntax unified
 939              		.thumb
 940              		.thumb_func
 942              	DevW25Nxx_Get_ProductID:
 943              	.LVL110:
 944              	.LFB140:
 196:Device/Dev_W25Nxx.c ****     uint8_t tx_tmp[2] = {0};
 945              		.loc 1 196 1 is_stmt 1 view -0
 946              		.cfi_startproc
 947              		@ args = 0, pretend = 0, frame = 8
 948              		@ frame_needed = 0, uses_anonymous_args = 0
 196:Device/Dev_W25Nxx.c ****     uint8_t tx_tmp[2] = {0};
 949              		.loc 1 196 1 is_stmt 0 view .LVU258
 950 0000 10B5     		push	{r4, lr}
 951              	.LCFI18:
 952              		.cfi_def_cfa_offset 8
 953              		.cfi_offset 4, -8
 954              		.cfi_offset 14, -4
 955 0002 84B0     		sub	sp, sp, #16
 956              	.LCFI19:
 957              		.cfi_def_cfa_offset 24
 197:Device/Dev_W25Nxx.c ****     uint8_t rx_tmp[3] = {0};
 958              		.loc 1 197 5 is_stmt 1 view .LVU259
 197:Device/Dev_W25Nxx.c ****     uint8_t rx_tmp[3] = {0};
 959              		.loc 1 197 13 is_stmt 0 view .LVU260
 960 0004 0023     		movs	r3, #0
 961 0006 ADF80C30 		strh	r3, [sp, #12]	@ movhi
 198:Device/Dev_W25Nxx.c **** 
 962              		.loc 1 198 5 is_stmt 1 view .LVU261
 198:Device/Dev_W25Nxx.c **** 
 963              		.loc 1 198 13 is_stmt 0 view .LVU262
 964 000a 1B4A     		ldr	r2, .L81
 965 000c 9288     		ldrh	r2, [r2, #4]
 966 000e ADF80820 		strh	r2, [sp, #8]	@ movhi
 967 0012 8DF80A30 		strb	r3, [sp, #10]
 200:Device/Dev_W25Nxx.c ****         (dev->cs_ctl == NULL))
 968              		.loc 1 200 5 is_stmt 1 view .LVU263
 200:Device/Dev_W25Nxx.c ****         (dev->cs_ctl == NULL))
 969              		.loc 1 200 8 is_stmt 0 view .LVU264
 970 0016 38B3     		cbz	r0, .L75
 971 0018 0446     		mov	r4, r0
 201:Device/Dev_W25Nxx.c ****         return DevW25N_None;
 972              		.loc 1 201 13 discriminator 1 view .LVU265
 973 001a 8369     		ldr	r3, [r0, #24]
 200:Device/Dev_W25Nxx.c ****         (dev->cs_ctl == NULL))
 974              		.loc 1 200 23 discriminator 1 view .LVU266
 975 001c 33B3     		cbz	r3, .L76
 204:Device/Dev_W25Nxx.c ****     memset(rx_tmp, 0, sizeof(rx_tmp));
 976              		.loc 1 204 5 is_stmt 1 view .LVU267
 977 001e 0023     		movs	r3, #0
 978 0020 ADF80C30 		strh	r3, [sp, #12]	@ movhi
 205:Device/Dev_W25Nxx.c ****     tx_tmp[0] = W25NXX_JEDEC_ID;
 979              		.loc 1 205 5 view .LVU268
ARM GAS  C:\Users\8bit\AppData\Local\Temp\ccCh4UmD.s 			page 28


 980 0024 ADF80830 		strh	r3, [sp, #8]	@ movhi
 981 0028 8DF80A30 		strb	r3, [sp, #10]
 206:Device/Dev_W25Nxx.c **** 
 982              		.loc 1 206 5 view .LVU269
 206:Device/Dev_W25Nxx.c **** 
 983              		.loc 1 206 15 is_stmt 0 view .LVU270
 984 002c 9F23     		movs	r3, #159
 985 002e 8DF80C30 		strb	r3, [sp, #12]
 208:Device/Dev_W25Nxx.c ****         return DevW25N_None;
 986              		.loc 1 208 5 is_stmt 1 view .LVU271
 208:Device/Dev_W25Nxx.c ****         return DevW25N_None;
 987              		.loc 1 208 10 is_stmt 0 view .LVU272
 988 0032 0323     		movs	r3, #3
 989 0034 0093     		str	r3, [sp]
 990 0036 02AB     		add	r3, sp, #8
 991 0038 0222     		movs	r2, #2
 992 003a 03A9     		add	r1, sp, #12
 993 003c FFF7FEFF 		bl	DevW25Nxx_Trans_Receive
 994              	.LVL111:
 208:Device/Dev_W25Nxx.c ****         return DevW25N_None;
 995              		.loc 1 208 8 view .LVU273
 996 0040 B8B1     		cbz	r0, .L77
 211:Device/Dev_W25Nxx.c ****     ((uint8_t *)&dev->prod_code)[2] = rx_tmp[0];
 997              		.loc 1 211 5 is_stmt 1 view .LVU274
 211:Device/Dev_W25Nxx.c ****     ((uint8_t *)&dev->prod_code)[2] = rx_tmp[0];
 998              		.loc 1 211 37 is_stmt 0 view .LVU275
 999 0042 0023     		movs	r3, #0
 1000 0044 E371     		strb	r3, [r4, #7]
 212:Device/Dev_W25Nxx.c ****     ((uint8_t *)&dev->prod_code)[1] = rx_tmp[1];
 1001              		.loc 1 212 5 is_stmt 1 view .LVU276
 212:Device/Dev_W25Nxx.c ****     ((uint8_t *)&dev->prod_code)[1] = rx_tmp[1];
 1002              		.loc 1 212 45 is_stmt 0 view .LVU277
 1003 0046 9DF80830 		ldrb	r3, [sp, #8]	@ zero_extendqisi2
 212:Device/Dev_W25Nxx.c ****     ((uint8_t *)&dev->prod_code)[1] = rx_tmp[1];
 1004              		.loc 1 212 37 view .LVU278
 1005 004a A371     		strb	r3, [r4, #6]
 213:Device/Dev_W25Nxx.c ****     ((uint8_t *)&dev->prod_code)[0] = rx_tmp[2];
 1006              		.loc 1 213 5 is_stmt 1 view .LVU279
 213:Device/Dev_W25Nxx.c ****     ((uint8_t *)&dev->prod_code)[0] = rx_tmp[2];
 1007              		.loc 1 213 45 is_stmt 0 view .LVU280
 1008 004c 9DF80930 		ldrb	r3, [sp, #9]	@ zero_extendqisi2
 213:Device/Dev_W25Nxx.c ****     ((uint8_t *)&dev->prod_code)[0] = rx_tmp[2];
 1009              		.loc 1 213 37 view .LVU281
 1010 0050 6371     		strb	r3, [r4, #5]
 214:Device/Dev_W25Nxx.c ****     
 1011              		.loc 1 214 5 is_stmt 1 view .LVU282
 214:Device/Dev_W25Nxx.c ****     
 1012              		.loc 1 214 45 is_stmt 0 view .LVU283
 1013 0052 9DF80A30 		ldrb	r3, [sp, #10]	@ zero_extendqisi2
 214:Device/Dev_W25Nxx.c ****     
 1014              		.loc 1 214 37 view .LVU284
 1015 0056 2371     		strb	r3, [r4, #4]
 216:Device/Dev_W25Nxx.c ****     {
 1016              		.loc 1 216 5 is_stmt 1 view .LVU285
 216:Device/Dev_W25Nxx.c ****     {
 1017              		.loc 1 216 16 is_stmt 0 view .LVU286
 1018 0058 6268     		ldr	r2, [r4, #4]
ARM GAS  C:\Users\8bit\AppData\Local\Temp\ccCh4UmD.s 			page 29


 216:Device/Dev_W25Nxx.c ****     {
 1019              		.loc 1 216 5 view .LVU287
 1020 005a 084B     		ldr	r3, .L81+4
 1021 005c 9A42     		cmp	r2, r3
 1022 005e 01D0     		beq	.L80
 219:Device/Dev_W25Nxx.c ****     }
 1023              		.loc 1 219 25 view .LVU288
 1024 0060 0020     		movs	r0, #0
 1025 0062 04E0     		b	.L74
 1026              	.L80:
 218:Device/Dev_W25Nxx.c ****         default: return DevW25N_None;
 1027              		.loc 1 218 38 view .LVU289
 1028 0064 0120     		movs	r0, #1
 1029 0066 02E0     		b	.L74
 1030              	.LVL112:
 1031              	.L75:
 202:Device/Dev_W25Nxx.c **** 
 1032              		.loc 1 202 16 view .LVU290
 1033 0068 0020     		movs	r0, #0
 1034              	.LVL113:
 202:Device/Dev_W25Nxx.c **** 
 1035              		.loc 1 202 16 view .LVU291
 1036 006a 00E0     		b	.L74
 1037              	.LVL114:
 1038              	.L76:
 202:Device/Dev_W25Nxx.c **** 
 1039              		.loc 1 202 16 view .LVU292
 1040 006c 0020     		movs	r0, #0
 1041              	.LVL115:
 1042              	.L74:
 223:Device/Dev_W25Nxx.c **** 
 1043              		.loc 1 223 1 view .LVU293
 1044 006e 04B0     		add	sp, sp, #16
 1045              	.LCFI20:
 1046              		.cfi_remember_state
 1047              		.cfi_def_cfa_offset 8
 1048              		@ sp needed
 1049 0070 10BD     		pop	{r4, pc}
 1050              	.LVL116:
 1051              	.L77:
 1052              	.LCFI21:
 1053              		.cfi_restore_state
 209:Device/Dev_W25Nxx.c **** 
 1054              		.loc 1 209 16 view .LVU294
 1055 0072 0020     		movs	r0, #0
 1056 0074 FBE7     		b	.L74
 1057              	.L82:
 1058 0076 00BF     		.align	2
 1059              	.L81:
 1060 0078 00000000 		.word	.LANCHOR0
 1061 007c 21AAEF00 		.word	15706657
 1062              		.cfi_endproc
 1063              	.LFE140:
 1065              		.section	.text.DevW25Nxx_Soft_Reset,"ax",%progbits
 1066              		.align	1
 1067              		.syntax unified
 1068              		.thumb
ARM GAS  C:\Users\8bit\AppData\Local\Temp\ccCh4UmD.s 			page 30


 1069              		.thumb_func
 1071              	DevW25Nxx_Soft_Reset:
 1072              	.LVL117:
 1073              	.LFB139:
 183:Device/Dev_W25Nxx.c ****     uint8_t tx_tmp[2] = {0};
 1074              		.loc 1 183 1 is_stmt 1 view -0
 1075              		.cfi_startproc
 1076              		@ args = 0, pretend = 0, frame = 8
 1077              		@ frame_needed = 0, uses_anonymous_args = 0
 183:Device/Dev_W25Nxx.c ****     uint8_t tx_tmp[2] = {0};
 1078              		.loc 1 183 1 is_stmt 0 view .LVU296
 1079 0000 00B5     		push	{lr}
 1080              	.LCFI22:
 1081              		.cfi_def_cfa_offset 4
 1082              		.cfi_offset 14, -4
 1083 0002 83B0     		sub	sp, sp, #12
 1084              	.LCFI23:
 1085              		.cfi_def_cfa_offset 16
 184:Device/Dev_W25Nxx.c **** 
 1086              		.loc 1 184 5 is_stmt 1 view .LVU297
 184:Device/Dev_W25Nxx.c **** 
 1087              		.loc 1 184 13 is_stmt 0 view .LVU298
 1088 0004 0023     		movs	r3, #0
 1089 0006 ADF80430 		strh	r3, [sp, #4]	@ movhi
 186:Device/Dev_W25Nxx.c ****         (dev->cs_ctl == NULL))
 1090              		.loc 1 186 5 is_stmt 1 view .LVU299
 186:Device/Dev_W25Nxx.c ****         (dev->cs_ctl == NULL))
 1091              		.loc 1 186 8 is_stmt 0 view .LVU300
 1092 000a 70B1     		cbz	r0, .L85
 187:Device/Dev_W25Nxx.c ****         return false;
 1093              		.loc 1 187 13 discriminator 1 view .LVU301
 1094 000c 8269     		ldr	r2, [r0, #24]
 186:Device/Dev_W25Nxx.c ****         (dev->cs_ctl == NULL))
 1095              		.loc 1 186 23 discriminator 1 view .LVU302
 1096 000e 72B1     		cbz	r2, .L86
 190:Device/Dev_W25Nxx.c ****     tx_tmp[0] = W25NXX_RESET_CMD;
 1097              		.loc 1 190 5 is_stmt 1 view .LVU303
 1098 0010 0022     		movs	r2, #0
 1099 0012 ADF80420 		strh	r2, [sp, #4]	@ movhi
 191:Device/Dev_W25Nxx.c ****     return DevW25Nxx_Write(dev, tx_tmp, sizeof(tx_tmp));
 1100              		.loc 1 191 5 view .LVU304
 191:Device/Dev_W25Nxx.c ****     return DevW25Nxx_Write(dev, tx_tmp, sizeof(tx_tmp));
 1101              		.loc 1 191 15 is_stmt 0 view .LVU305
 1102 0016 FF22     		movs	r2, #255
 1103 0018 8DF80420 		strb	r2, [sp, #4]
 192:Device/Dev_W25Nxx.c **** }
 1104              		.loc 1 192 5 is_stmt 1 view .LVU306
 192:Device/Dev_W25Nxx.c **** }
 1105              		.loc 1 192 12 is_stmt 0 view .LVU307
 1106 001c 0222     		movs	r2, #2
 1107 001e 01A9     		add	r1, sp, #4
 1108 0020 FFF7FEFF 		bl	DevW25Nxx_Write
 1109              	.LVL118:
 1110              	.L84:
 193:Device/Dev_W25Nxx.c **** 
 1111              		.loc 1 193 1 view .LVU308
 1112 0024 03B0     		add	sp, sp, #12
ARM GAS  C:\Users\8bit\AppData\Local\Temp\ccCh4UmD.s 			page 31


 1113              	.LCFI24:
 1114              		.cfi_remember_state
 1115              		.cfi_def_cfa_offset 4
 1116              		@ sp needed
 1117 0026 5DF804FB 		ldr	pc, [sp], #4
 1118              	.LVL119:
 1119              	.L85:
 1120              	.LCFI25:
 1121              		.cfi_restore_state
 188:Device/Dev_W25Nxx.c **** 
 1122              		.loc 1 188 16 view .LVU309
 1123 002a 0020     		movs	r0, #0
 1124              	.LVL120:
 188:Device/Dev_W25Nxx.c **** 
 1125              		.loc 1 188 16 view .LVU310
 1126 002c FAE7     		b	.L84
 1127              	.LVL121:
 1128              	.L86:
 188:Device/Dev_W25Nxx.c **** 
 1129              		.loc 1 188 16 view .LVU311
 1130 002e 0020     		movs	r0, #0
 1131              	.LVL122:
 188:Device/Dev_W25Nxx.c **** 
 1132              		.loc 1 188 16 view .LVU312
 1133 0030 F8E7     		b	.L84
 1134              		.cfi_endproc
 1135              	.LFE139:
 1137              		.section	.text.DevW25Nxx_Init,"ax",%progbits
 1138              		.align	1
 1139              		.syntax unified
 1140              		.thumb
 1141              		.thumb_func
 1143              	DevW25Nxx_Init:
 1144              	.LVL123:
 1145              	.LFB138:
 139:Device/Dev_W25Nxx.c ****     DevW25Nxx_Error_List err = DevW25Nxx_Ok;
 1146              		.loc 1 139 1 is_stmt 1 view -0
 1147              		.cfi_startproc
 1148              		@ args = 0, pretend = 0, frame = 0
 1149              		@ frame_needed = 0, uses_anonymous_args = 0
 139:Device/Dev_W25Nxx.c ****     DevW25Nxx_Error_List err = DevW25Nxx_Ok;
 1150              		.loc 1 139 1 is_stmt 0 view .LVU314
 1151 0000 70B5     		push	{r4, r5, r6, lr}
 1152              	.LCFI26:
 1153              		.cfi_def_cfa_offset 16
 1154              		.cfi_offset 4, -16
 1155              		.cfi_offset 5, -12
 1156              		.cfi_offset 6, -8
 1157              		.cfi_offset 14, -4
 140:Device/Dev_W25Nxx.c ****     uint32_t sys_time = 0;
 1158              		.loc 1 140 5 is_stmt 1 view .LVU315
 1159              	.LVL124:
 141:Device/Dev_W25Nxx.c **** 
 1160              		.loc 1 141 5 view .LVU316
 143:Device/Dev_W25Nxx.c ****         (dev->delay_ms == NULL) || \
 1161              		.loc 1 143 5 view .LVU317
 143:Device/Dev_W25Nxx.c ****         (dev->delay_ms == NULL) || \
ARM GAS  C:\Users\8bit\AppData\Local\Temp\ccCh4UmD.s 			page 32


 1162              		.loc 1 143 8 is_stmt 0 view .LVU318
 1163 0002 98B3     		cbz	r0, .L92
 1164 0004 0546     		mov	r5, r0
 144:Device/Dev_W25Nxx.c ****         (dev->systick == NULL))
 1165              		.loc 1 144 13 discriminator 1 view .LVU319
 1166 0006 C369     		ldr	r3, [r0, #28]
 143:Device/Dev_W25Nxx.c ****         (dev->delay_ms == NULL) || \
 1167              		.loc 1 143 23 discriminator 1 view .LVU320
 1168 0008 93B3     		cbz	r3, .L93
 145:Device/Dev_W25Nxx.c ****         return DevW25Nxx_Error;
 1169              		.loc 1 145 13 view .LVU321
 1170 000a 036A     		ldr	r3, [r0, #32]
 144:Device/Dev_W25Nxx.c ****         (dev->systick == NULL))
 1171              		.loc 1 144 33 view .LVU322
 1172 000c 93B3     		cbz	r3, .L94
 148:Device/Dev_W25Nxx.c **** 
 1173              		.loc 1 148 5 is_stmt 1 view .LVU323
 148:Device/Dev_W25Nxx.c **** 
 1174              		.loc 1 148 21 is_stmt 0 view .LVU324
 1175 000e 0023     		movs	r3, #0
 1176 0010 80F82430 		strb	r3, [r0, #36]
 151:Device/Dev_W25Nxx.c ****     if (err == DevW25Nxx_Error)
 1177              		.loc 1 151 5 is_stmt 1 view .LVU325
 151:Device/Dev_W25Nxx.c ****     if (err == DevW25Nxx_Error)
 1178              		.loc 1 151 11 is_stmt 0 view .LVU326
 1179 0014 FFF7FEFF 		bl	DevW25Nxx_Check_Read_Status
 1180              	.LVL125:
 151:Device/Dev_W25Nxx.c ****     if (err == DevW25Nxx_Error)
 1181              		.loc 1 151 11 view .LVU327
 1182 0018 0446     		mov	r4, r0
 1183              	.LVL126:
 152:Device/Dev_W25Nxx.c ****         return DevW25Nxx_Error;
 1184              		.loc 1 152 5 is_stmt 1 view .LVU328
 152:Device/Dev_W25Nxx.c ****         return DevW25Nxx_Error;
 1185              		.loc 1 152 8 is_stmt 0 view .LVU329
 1186 001a 0128     		cmp	r0, #1
 1187 001c 2BD0     		beq	.L89
 155:Device/Dev_W25Nxx.c ****     while (err == DevW25Nxx_Busy)
 1188              		.loc 1 155 5 is_stmt 1 view .LVU330
 155:Device/Dev_W25Nxx.c ****     while (err == DevW25Nxx_Busy)
 1189              		.loc 1 155 19 is_stmt 0 view .LVU331
 1190 001e 2B6A     		ldr	r3, [r5, #32]
 155:Device/Dev_W25Nxx.c ****     while (err == DevW25Nxx_Busy)
 1191              		.loc 1 155 16 view .LVU332
 1192 0020 9847     		blx	r3
 1193              	.LVL127:
 155:Device/Dev_W25Nxx.c ****     while (err == DevW25Nxx_Busy)
 1194              		.loc 1 155 16 view .LVU333
 1195 0022 0646     		mov	r6, r0
 1196              	.LVL128:
 156:Device/Dev_W25Nxx.c ****     {
 1197              		.loc 1 156 5 is_stmt 1 view .LVU334
 1198              	.L90:
 156:Device/Dev_W25Nxx.c ****     {
 1199              		.loc 1 156 11 view .LVU335
 1200 0024 022C     		cmp	r4, #2
 1201 0026 0ED1     		bne	.L99
ARM GAS  C:\Users\8bit\AppData\Local\Temp\ccCh4UmD.s 			page 33


 158:Device/Dev_W25Nxx.c ****             return DevW25Nxx_TimeOut;
 1202              		.loc 1 158 9 view .LVU336
 158:Device/Dev_W25Nxx.c ****             return DevW25Nxx_TimeOut;
 1203              		.loc 1 158 17 is_stmt 0 view .LVU337
 1204 0028 2B6A     		ldr	r3, [r5, #32]
 158:Device/Dev_W25Nxx.c ****             return DevW25Nxx_TimeOut;
 1205              		.loc 1 158 14 view .LVU338
 1206 002a 9847     		blx	r3
 1207              	.LVL129:
 158:Device/Dev_W25Nxx.c ****             return DevW25Nxx_TimeOut;
 1208              		.loc 1 158 29 view .LVU339
 1209 002c 801B     		subs	r0, r0, r6
 158:Device/Dev_W25Nxx.c ****             return DevW25Nxx_TimeOut;
 1210              		.loc 1 158 12 view .LVU340
 1211 002e 6328     		cmp	r0, #99
 1212 0030 23D8     		bhi	.L95
 161:Device/Dev_W25Nxx.c ****         err = DevW25Nxx_Check_Read_Status(dev);
 1213              		.loc 1 161 9 is_stmt 1 view .LVU341
 161:Device/Dev_W25Nxx.c ****         err = DevW25Nxx_Check_Read_Status(dev);
 1214              		.loc 1 161 12 is_stmt 0 view .LVU342
 1215 0032 EB69     		ldr	r3, [r5, #28]
 161:Device/Dev_W25Nxx.c ****         err = DevW25Nxx_Check_Read_Status(dev);
 1216              		.loc 1 161 9 view .LVU343
 1217 0034 0120     		movs	r0, #1
 1218 0036 9847     		blx	r3
 1219              	.LVL130:
 162:Device/Dev_W25Nxx.c ****         if (err == DevW25Nxx_Error)
 1220              		.loc 1 162 9 is_stmt 1 view .LVU344
 162:Device/Dev_W25Nxx.c ****         if (err == DevW25Nxx_Error)
 1221              		.loc 1 162 15 is_stmt 0 view .LVU345
 1222 0038 2846     		mov	r0, r5
 1223 003a FFF7FEFF 		bl	DevW25Nxx_Check_Read_Status
 1224              	.LVL131:
 1225 003e 0446     		mov	r4, r0
 1226              	.LVL132:
 163:Device/Dev_W25Nxx.c ****             return DevW25Nxx_Error;
 1227              		.loc 1 163 9 is_stmt 1 view .LVU346
 163:Device/Dev_W25Nxx.c ****             return DevW25Nxx_Error;
 1228              		.loc 1 163 12 is_stmt 0 view .LVU347
 1229 0040 0128     		cmp	r0, #1
 1230 0042 EFD1     		bne	.L90
 1231 0044 17E0     		b	.L89
 1232              	.LVL133:
 1233              	.L99:
 168:Device/Dev_W25Nxx.c ****     if (dev->prod_type == DevW25N_None)
 1234              		.loc 1 168 5 is_stmt 1 view .LVU348
 168:Device/Dev_W25Nxx.c ****     if (dev->prod_type == DevW25N_None)
 1235              		.loc 1 168 22 is_stmt 0 view .LVU349
 1236 0046 2846     		mov	r0, r5
 1237 0048 FFF7FEFF 		bl	DevW25Nxx_Get_ProductID
 1238              	.LVL134:
 168:Device/Dev_W25Nxx.c ****     if (dev->prod_type == DevW25N_None)
 1239              		.loc 1 168 20 view .LVU350
 1240 004c 2870     		strb	r0, [r5]
 169:Device/Dev_W25Nxx.c ****         return DevW25Nxx_Error;
 1241              		.loc 1 169 5 is_stmt 1 view .LVU351
 169:Device/Dev_W25Nxx.c ****         return DevW25Nxx_Error;
ARM GAS  C:\Users\8bit\AppData\Local\Temp\ccCh4UmD.s 			page 34


 1242              		.loc 1 169 8 is_stmt 0 view .LVU352
 1243 004e 08B9     		cbnz	r0, .L100
 170:Device/Dev_W25Nxx.c **** 
 1244              		.loc 1 170 16 view .LVU353
 1245 0050 0124     		movs	r4, #1
 1246              	.LVL135:
 170:Device/Dev_W25Nxx.c **** 
 1247              		.loc 1 170 16 view .LVU354
 1248 0052 10E0     		b	.L89
 1249              	.LVL136:
 1250              	.L100:
 173:Device/Dev_W25Nxx.c ****         return DevW25Nxx_Error;
 1251              		.loc 1 173 5 is_stmt 1 view .LVU355
 173:Device/Dev_W25Nxx.c ****         return DevW25Nxx_Error;
 1252              		.loc 1 173 10 is_stmt 0 view .LVU356
 1253 0054 2846     		mov	r0, r5
 1254 0056 FFF7FEFF 		bl	DevW25Nxx_Soft_Reset
 1255              	.LVL137:
 173:Device/Dev_W25Nxx.c ****         return DevW25Nxx_Error;
 1256              		.loc 1 173 8 view .LVU357
 1257 005a 80B1     		cbz	r0, .L97
 176:Device/Dev_W25Nxx.c ****     dev->init_state = true;
 1258              		.loc 1 176 5 is_stmt 1 view .LVU358
 176:Device/Dev_W25Nxx.c ****     dev->init_state = true;
 1259              		.loc 1 176 8 is_stmt 0 view .LVU359
 1260 005c EB69     		ldr	r3, [r5, #28]
 176:Device/Dev_W25Nxx.c ****     dev->init_state = true;
 1261              		.loc 1 176 5 view .LVU360
 1262 005e 6420     		movs	r0, #100
 1263 0060 9847     		blx	r3
 1264              	.LVL138:
 177:Device/Dev_W25Nxx.c **** 
 1265              		.loc 1 177 5 is_stmt 1 view .LVU361
 177:Device/Dev_W25Nxx.c **** 
 1266              		.loc 1 177 21 is_stmt 0 view .LVU362
 1267 0062 0123     		movs	r3, #1
 1268 0064 85F82430 		strb	r3, [r5, #36]
 179:Device/Dev_W25Nxx.c **** }
 1269              		.loc 1 179 5 is_stmt 1 view .LVU363
 179:Device/Dev_W25Nxx.c **** }
 1270              		.loc 1 179 12 is_stmt 0 view .LVU364
 1271 0068 0024     		movs	r4, #0
 1272              	.LVL139:
 179:Device/Dev_W25Nxx.c **** }
 1273              		.loc 1 179 12 view .LVU365
 1274 006a 04E0     		b	.L89
 1275              	.LVL140:
 1276              	.L92:
 146:Device/Dev_W25Nxx.c **** 
 1277              		.loc 1 146 16 view .LVU366
 1278 006c 0124     		movs	r4, #1
 1279 006e 02E0     		b	.L89
 1280              	.L93:
 146:Device/Dev_W25Nxx.c **** 
 1281              		.loc 1 146 16 view .LVU367
 1282 0070 0124     		movs	r4, #1
 1283 0072 00E0     		b	.L89
ARM GAS  C:\Users\8bit\AppData\Local\Temp\ccCh4UmD.s 			page 35


 1284              	.L94:
 1285 0074 0124     		movs	r4, #1
 1286              	.LVL141:
 1287              	.L89:
 180:Device/Dev_W25Nxx.c **** 
 1288              		.loc 1 180 1 view .LVU368
 1289 0076 2046     		mov	r0, r4
 1290 0078 70BD     		pop	{r4, r5, r6, pc}
 1291              	.LVL142:
 1292              	.L95:
 159:Device/Dev_W25Nxx.c **** 
 1293              		.loc 1 159 20 view .LVU369
 1294 007a 0324     		movs	r4, #3
 1295              	.LVL143:
 159:Device/Dev_W25Nxx.c **** 
 1296              		.loc 1 159 20 view .LVU370
 1297 007c FBE7     		b	.L89
 1298              	.LVL144:
 1299              	.L97:
 174:Device/Dev_W25Nxx.c **** 
 1300              		.loc 1 174 16 view .LVU371
 1301 007e 0124     		movs	r4, #1
 1302              	.LVL145:
 174:Device/Dev_W25Nxx.c **** 
 1303              		.loc 1 174 16 view .LVU372
 1304 0080 F9E7     		b	.L89
 1305              		.cfi_endproc
 1306              	.LFE138:
 1308              		.global	DevW25Nxx
 1309              		.section	.rodata
 1310              		.align	2
 1311              		.set	.LANCHOR0,. + 0
 1312              	.LC1:
 1313 0000 000000   		.ascii	"\000\000\000"
 1314 0003 00       		.space	1
 1315              	.LC2:
 1316 0004 0000     		.ascii	"\000\000"
 1317 0006 00       		.space	1
 1318              		.section	.data.DevW25Nxx,"aw"
 1319              		.align	2
 1322              	DevW25Nxx:
 1323 0000 00000000 		.word	DevW25Nxx_Init
 1324 0004 00000000 		.space	4
 1325 0008 00000000 		.word	DevW25Nxx_Read_Page
 1326 000c 00000000 		.space	8
 1326      00000000 
 1327 0014 00000000 		.word	DevW25Nxx_Get_Info
 1328 0018 00000000 		.word	DevW25Nxx_Get_Page
 1329              		.text
 1330              	.Letext0:
 1331              		.file 2 "c:\\program files (x86)\\gnu arm embedded toolchain\\10 2021.10\\arm-none-eabi\\include\\
 1332              		.file 3 "c:\\program files (x86)\\gnu arm embedded toolchain\\10 2021.10\\arm-none-eabi\\include\\
 1333              		.file 4 "Device/Dev_W25Nxx.h"
 1334              		.file 5 "HW_Lib/AT32F435/drivers/inc/at32f435_437_tmr.h"
 1335              		.file 6 "common/Error_Log/../../common/gen_physic_def/imu_data.h"
ARM GAS  C:\Users\8bit\AppData\Local\Temp\ccCh4UmD.s 			page 36

