ARM GAS  C:\Users\huav\AppData\Local\Temp\cc0E2EAh.s 			page 1


   1              		.cpu cortex-m7
   2              		.eabi_attribute 28, 1
   3              		.eabi_attribute 20, 1
   4              		.eabi_attribute 21, 1
   5              		.eabi_attribute 23, 3
   6              		.eabi_attribute 24, 1
   7              		.eabi_attribute 25, 1
   8              		.eabi_attribute 26, 1
   9              		.eabi_attribute 30, 1
  10              		.eabi_attribute 34, 1
  11              		.eabi_attribute 18, 4
  12              		.file	"Dev_Card.c"
  13              		.text
  14              	.Ltext0:
  15              		.cfi_sections	.debug_frame
  16              		.section	.text.DevCard_Init,"ax",%progbits
  17              		.align	1
  18              		.arch armv7e-m
  19              		.syntax unified
  20              		.thumb
  21              		.thumb_func
  22              		.fpu fpv5-d16
  24              	DevCard_Init:
  25              	.LVL0:
  26              	.LFB147:
  27              		.file 1 "Device/Dev_Card.c"
   1:Device/Dev_Card.c **** #include "Dev_Card.h"
   2:Device/Dev_Card.c **** #include "IO_Definition.h"
   3:Device/Dev_Card.c **** 
   4:Device/Dev_Card.c **** /* External Function */
   5:Device/Dev_Card.c **** static DevCard_Error_List DevCard_Init(DevCard_Obj_TypeDef *Instance);
   6:Device/Dev_Card.c **** static DevCard_Error_List DevCard_GetError(DevCard_Obj_TypeDef *Instance);
   7:Device/Dev_Card.c **** static DevCard_Info_TypeDef DevCard_GetInfo(DevCard_Obj_TypeDef *Instance);
   8:Device/Dev_Card.c **** static bool DevCard_Read(DevCard_Obj_TypeDef *Instance, uint32_t block, uint8_t *p_data, uint16_t d
   9:Device/Dev_Card.c **** static bool DevCard_Write(DevCard_Obj_TypeDef *Instance, uint32_t block, uint8_t *p_data, uint16_t 
  10:Device/Dev_Card.c **** 
  11:Device/Dev_Card.c **** DevCard_TypeDef DevCard = {
  12:Device/Dev_Card.c ****     .Init = DevCard_Init,
  13:Device/Dev_Card.c ****     .Get_ErrorCode = DevCard_GetError,
  14:Device/Dev_Card.c ****     .Get_Info = DevCard_GetInfo,
  15:Device/Dev_Card.c ****     .read = DevCard_Read,
  16:Device/Dev_Card.c ****     .write = DevCard_Write,
  17:Device/Dev_Card.c **** };
  18:Device/Dev_Card.c **** 
  19:Device/Dev_Card.c **** static DevCard_Error_List DevCard_Init(DevCard_Obj_TypeDef *Instance)
  20:Device/Dev_Card.c **** {
  28              		.loc 1 20 1 view -0
  29              		.cfi_startproc
  30              		@ args = 0, pretend = 0, frame = 0
  31              		@ frame_needed = 0, uses_anonymous_args = 0
  21:Device/Dev_Card.c ****     if (Instance == NULL)
  32              		.loc 1 21 5 view .LVU1
  33              		.loc 1 21 8 is_stmt 0 view .LVU2
  34 0000 0028     		cmp	r0, #0
  35 0002 48D0     		beq	.L5
  20:Device/Dev_Card.c ****     if (Instance == NULL)
  36              		.loc 1 20 1 view .LVU3
ARM GAS  C:\Users\huav\AppData\Local\Temp\cc0E2EAh.s 			page 2


  37 0004 10B5     		push	{r4, lr}
  38              	.LCFI0:
  39              		.cfi_def_cfa_offset 8
  40              		.cfi_offset 4, -8
  41              		.cfi_offset 14, -4
  42 0006 0446     		mov	r4, r0
  22:Device/Dev_Card.c ****         return DevCard_Obj_Error;
  23:Device/Dev_Card.c **** 
  24:Device/Dev_Card.c ****     if (!BspSDMMC.init(&(Instance->SDMMC_Obj)))
  43              		.loc 1 24 5 is_stmt 1 view .LVU4
  44              		.loc 1 24 18 is_stmt 0 view .LVU5
  45 0008 244B     		ldr	r3, .L12
  46 000a 1B68     		ldr	r3, [r3]
  47              		.loc 1 24 10 view .LVU6
  48 000c 9847     		blx	r3
  49              	.LVL1:
  50              		.loc 1 24 8 view .LVU7
  51 000e B8B3     		cbz	r0, .L10
  25:Device/Dev_Card.c ****     {
  26:Device/Dev_Card.c ****         Instance->error_code = DevCard_Bus_Error;
  27:Device/Dev_Card.c ****         return DevCard_Bus_Error;
  28:Device/Dev_Card.c ****     }
  29:Device/Dev_Card.c **** 
  30:Device/Dev_Card.c ****     if (!BspSDMMC.info(&(Instance->SDMMC_Obj), &(Instance->SDMMC_Obj.info)))
  52              		.loc 1 30 5 is_stmt 1 view .LVU8
  53              		.loc 1 30 18 is_stmt 0 view .LVU9
  54 0010 224B     		ldr	r3, .L12
  55 0012 5B69     		ldr	r3, [r3, #20]
  56              		.loc 1 30 10 view .LVU10
  57 0014 04F18801 		add	r1, r4, #136
  58 0018 2046     		mov	r0, r4
  59 001a 9847     		blx	r3
  60              	.LVL2:
  61              		.loc 1 30 8 view .LVU11
  62 001c A0B3     		cbz	r0, .L11
  31:Device/Dev_Card.c ****     {
  32:Device/Dev_Card.c ****         Instance->info.valid = false;
  33:Device/Dev_Card.c ****         Instance->error_code = DevCard_Info_Error;
  34:Device/Dev_Card.c ****         return DevCard_Info_Error;
  35:Device/Dev_Card.c ****     }
  36:Device/Dev_Card.c **** 
  37:Device/Dev_Card.c ****     Instance->info.BlockNbr = Instance->SDMMC_Obj.info.BlockNbr;
  63              		.loc 1 37 5 is_stmt 1 view .LVU12
  64              		.loc 1 37 55 is_stmt 0 view .LVU13
  65 001e D4F89830 		ldr	r3, [r4, #152]	@ unaligned
  66              		.loc 1 37 29 view .LVU14
  67 0022 C4F8BE30 		str	r3, [r4, #190]	@ unaligned
  38:Device/Dev_Card.c ****     Instance->info.BlockSize = Instance->SDMMC_Obj.info.BlockSize;
  68              		.loc 1 38 5 is_stmt 1 view .LVU15
  69              		.loc 1 38 56 is_stmt 0 view .LVU16
  70 0026 D4F89C20 		ldr	r2, [r4, #156]	@ unaligned
  71              		.loc 1 38 30 view .LVU17
  72 002a C4F8C220 		str	r2, [r4, #194]	@ unaligned
  39:Device/Dev_Card.c ****     Instance->info.CardSpeed = Instance->SDMMC_Obj.info.CardSpeed;
  73              		.loc 1 39 5 is_stmt 1 view .LVU18
  74              		.loc 1 39 56 is_stmt 0 view .LVU19
  75 002e D4F8A820 		ldr	r2, [r4, #168]	@ unaligned
ARM GAS  C:\Users\huav\AppData\Local\Temp\cc0E2EAh.s 			page 3


  76              		.loc 1 39 30 view .LVU20
  77 0032 C4F8CE20 		str	r2, [r4, #206]	@ unaligned
  40:Device/Dev_Card.c ****     Instance->info.CardType = Instance->SDMMC_Obj.info.CardType;
  78              		.loc 1 40 5 is_stmt 1 view .LVU21
  79              		.loc 1 40 55 is_stmt 0 view .LVU22
  80 0036 D4F88820 		ldr	r2, [r4, #136]	@ unaligned
  81              		.loc 1 40 29 view .LVU23
  82 003a C4F8AE20 		str	r2, [r4, #174]	@ unaligned
  41:Device/Dev_Card.c ****     Instance->info.CardVersion = Instance->info.CardVersion;
  83              		.loc 1 41 5 is_stmt 1 view .LVU24
  42:Device/Dev_Card.c ****     Instance->info.Class = Instance->info.Class;
  84              		.loc 1 42 5 view .LVU25
  43:Device/Dev_Card.c ****     Instance->info.LogBlockNbr = Instance->SDMMC_Obj.info.LogBlockNbr;
  85              		.loc 1 43 5 view .LVU26
  86              		.loc 1 43 58 is_stmt 0 view .LVU27
  87 003e D4F8A020 		ldr	r2, [r4, #160]	@ unaligned
  88              		.loc 1 43 32 view .LVU28
  89 0042 C4F8C620 		str	r2, [r4, #198]	@ unaligned
  44:Device/Dev_Card.c ****     Instance->info.LogBlockSize = Instance->SDMMC_Obj.info.LogBlockSize;
  90              		.loc 1 44 5 is_stmt 1 view .LVU29
  91              		.loc 1 44 59 is_stmt 0 view .LVU30
  92 0046 D4F8A420 		ldr	r2, [r4, #164]	@ unaligned
  93              		.loc 1 44 33 view .LVU31
  94 004a C4F8CA20 		str	r2, [r4, #202]	@ unaligned
  45:Device/Dev_Card.c ****     Instance->info.RelCardAdd = Instance->SDMMC_Obj.info.RelCardAdd;
  95              		.loc 1 45 5 is_stmt 1 view .LVU32
  96              		.loc 1 45 57 is_stmt 0 view .LVU33
  97 004e D4F89420 		ldr	r2, [r4, #148]	@ unaligned
  98              		.loc 1 45 31 view .LVU34
  99 0052 C4F8BA20 		str	r2, [r4, #186]	@ unaligned
  46:Device/Dev_Card.c **** 
  47:Device/Dev_Card.c ****     Instance->info.valid = true;
 100              		.loc 1 47 5 is_stmt 1 view .LVU35
 101              		.loc 1 47 26 is_stmt 0 view .LVU36
 102 0056 0122     		movs	r2, #1
 103 0058 84F8AD20 		strb	r2, [r4, #173]
  48:Device/Dev_Card.c ****     Instance->info.RmnByteInCurBlock = 0;
 104              		.loc 1 48 5 is_stmt 1 view .LVU37
 105              		.loc 1 48 38 is_stmt 0 view .LVU38
 106 005c 0020     		movs	r0, #0
 107 005e 84F8DA00 		strb	r0, [r4, #218]
 108 0062 84F8DB00 		strb	r0, [r4, #219]
  49:Device/Dev_Card.c ****     Instance->info.UsdBlockNbr = 0;
 109              		.loc 1 49 5 is_stmt 1 view .LVU39
 110              		.loc 1 49 32 is_stmt 0 view .LVU40
 111 0066 84F8D200 		strb	r0, [r4, #210]
 112 006a 84F8D300 		strb	r0, [r4, #211]
 113 006e 84F8D400 		strb	r0, [r4, #212]
 114 0072 84F8D500 		strb	r0, [r4, #213]
  50:Device/Dev_Card.c ****     Instance->info.RmnBlockNbr = Instance->info.BlockNbr;
 115              		.loc 1 50 5 is_stmt 1 view .LVU41
 116              		.loc 1 50 32 is_stmt 0 view .LVU42
 117 0076 C4F8D630 		str	r3, [r4, #214]	@ unaligned
  51:Device/Dev_Card.c **** 
  52:Device/Dev_Card.c ****     Instance->error_code = DevCard_No_Error;
 118              		.loc 1 52 5 is_stmt 1 view .LVU43
 119              		.loc 1 52 26 is_stmt 0 view .LVU44
ARM GAS  C:\Users\huav\AppData\Local\Temp\cc0E2EAh.s 			page 4


 120 007a 84F8AC00 		strb	r0, [r4, #172]
  53:Device/Dev_Card.c ****     return DevCard_No_Error;
 121              		.loc 1 53 5 is_stmt 1 view .LVU45
 122              	.L2:
  54:Device/Dev_Card.c **** }
 123              		.loc 1 54 1 is_stmt 0 view .LVU46
 124 007e 10BD     		pop	{r4, pc}
 125              	.LVL3:
 126              	.L10:
  26:Device/Dev_Card.c ****         return DevCard_Bus_Error;
 127              		.loc 1 26 9 is_stmt 1 view .LVU47
  26:Device/Dev_Card.c ****         return DevCard_Bus_Error;
 128              		.loc 1 26 30 is_stmt 0 view .LVU48
 129 0080 0220     		movs	r0, #2
 130 0082 84F8AC00 		strb	r0, [r4, #172]
  27:Device/Dev_Card.c ****     }
 131              		.loc 1 27 9 is_stmt 1 view .LVU49
  27:Device/Dev_Card.c ****     }
 132              		.loc 1 27 16 is_stmt 0 view .LVU50
 133 0086 FAE7     		b	.L2
 134              	.L11:
  32:Device/Dev_Card.c ****         Instance->error_code = DevCard_Info_Error;
 135              		.loc 1 32 9 is_stmt 1 view .LVU51
  32:Device/Dev_Card.c ****         Instance->error_code = DevCard_Info_Error;
 136              		.loc 1 32 30 is_stmt 0 view .LVU52
 137 0088 0023     		movs	r3, #0
 138 008a 84F8AD30 		strb	r3, [r4, #173]
  33:Device/Dev_Card.c ****         return DevCard_Info_Error;
 139              		.loc 1 33 9 is_stmt 1 view .LVU53
  33:Device/Dev_Card.c ****         return DevCard_Info_Error;
 140              		.loc 1 33 30 is_stmt 0 view .LVU54
 141 008e 0320     		movs	r0, #3
 142 0090 84F8AC00 		strb	r0, [r4, #172]
  34:Device/Dev_Card.c ****     }
 143              		.loc 1 34 9 is_stmt 1 view .LVU55
  34:Device/Dev_Card.c ****     }
 144              		.loc 1 34 16 is_stmt 0 view .LVU56
 145 0094 F3E7     		b	.L2
 146              	.LVL4:
 147              	.L5:
 148              	.LCFI1:
 149              		.cfi_def_cfa_offset 0
 150              		.cfi_restore 4
 151              		.cfi_restore 14
  22:Device/Dev_Card.c **** 
 152              		.loc 1 22 16 view .LVU57
 153 0096 0120     		movs	r0, #1
 154              	.LVL5:
 155              		.loc 1 54 1 view .LVU58
 156 0098 7047     		bx	lr
 157              	.L13:
 158 009a 00BF     		.align	2
 159              	.L12:
 160 009c 00000000 		.word	BspSDMMC
 161              		.cfi_endproc
 162              	.LFE147:
 164              		.section	.text.DevCard_GetError,"ax",%progbits
ARM GAS  C:\Users\huav\AppData\Local\Temp\cc0E2EAh.s 			page 5


 165              		.align	1
 166              		.syntax unified
 167              		.thumb
 168              		.thumb_func
 169              		.fpu fpv5-d16
 171              	DevCard_GetError:
 172              	.LVL6:
 173              	.LFB148:
  55:Device/Dev_Card.c **** 
  56:Device/Dev_Card.c **** static DevCard_Error_List DevCard_GetError(DevCard_Obj_TypeDef *Instance)
  57:Device/Dev_Card.c **** {
 174              		.loc 1 57 1 is_stmt 1 view -0
 175              		.cfi_startproc
 176              		@ args = 0, pretend = 0, frame = 0
 177              		@ frame_needed = 0, uses_anonymous_args = 0
 178              		@ link register save eliminated.
  58:Device/Dev_Card.c ****     if (Instance == NULL)
 179              		.loc 1 58 5 view .LVU60
 180              		.loc 1 58 8 is_stmt 0 view .LVU61
 181 0000 10B1     		cbz	r0, .L16
  59:Device/Dev_Card.c ****         return DevCard_Obj_Error;
  60:Device/Dev_Card.c **** 
  61:Device/Dev_Card.c ****     return Instance->error_code;
 182              		.loc 1 61 5 is_stmt 1 view .LVU62
 183              		.loc 1 61 20 is_stmt 0 view .LVU63
 184 0002 90F8AC00 		ldrb	r0, [r0, #172]	@ zero_extendqisi2
 185              	.LVL7:
 186              		.loc 1 61 20 view .LVU64
 187 0006 7047     		bx	lr
 188              	.LVL8:
 189              	.L16:
  59:Device/Dev_Card.c ****         return DevCard_Obj_Error;
 190              		.loc 1 59 16 view .LVU65
 191 0008 0120     		movs	r0, #1
 192              	.LVL9:
  62:Device/Dev_Card.c **** }
 193              		.loc 1 62 1 view .LVU66
 194 000a 7047     		bx	lr
 195              		.cfi_endproc
 196              	.LFE148:
 198              		.section	.text.DevCard_GetInfo,"ax",%progbits
 199              		.align	1
 200              		.syntax unified
 201              		.thumb
 202              		.thumb_func
 203              		.fpu fpv5-d16
 205              	DevCard_GetInfo:
 206              	.LVL10:
 207              	.LFB149:
  63:Device/Dev_Card.c **** 
  64:Device/Dev_Card.c **** static DevCard_Info_TypeDef DevCard_GetInfo(DevCard_Obj_TypeDef *Instance)
  65:Device/Dev_Card.c **** {
 208              		.loc 1 65 1 is_stmt 1 view -0
 209              		.cfi_startproc
 210              		@ args = 0, pretend = 0, frame = 0
 211              		@ frame_needed = 0, uses_anonymous_args = 0
 212              		.loc 1 65 1 is_stmt 0 view .LVU68
ARM GAS  C:\Users\huav\AppData\Local\Temp\cc0E2EAh.s 			page 6


 213 0000 38B5     		push	{r3, r4, r5, lr}
 214              	.LCFI2:
 215              		.cfi_def_cfa_offset 16
 216              		.cfi_offset 3, -16
 217              		.cfi_offset 4, -12
 218              		.cfi_offset 5, -8
 219              		.cfi_offset 14, -4
 220 0002 0546     		mov	r5, r0
 221 0004 0C46     		mov	r4, r1
  66:Device/Dev_Card.c ****     DevCard_Info_TypeDef info_tmp = {0};
 222              		.loc 1 66 5 is_stmt 1 view .LVU69
 223              		.loc 1 66 26 is_stmt 0 view .LVU70
 224 0006 2F22     		movs	r2, #47
 225 0008 0021     		movs	r1, #0
 226              	.LVL11:
 227              		.loc 1 66 26 view .LVU71
 228 000a FFF7FEFF 		bl	memset
 229              	.LVL12:
  67:Device/Dev_Card.c **** 
  68:Device/Dev_Card.c ****     if (Instance != NULL)
 230              		.loc 1 68 5 is_stmt 1 view .LVU72
 231              		.loc 1 68 8 is_stmt 0 view .LVU73
 232 000e ECB1     		cbz	r4, .L17
  69:Device/Dev_Card.c ****     {
  70:Device/Dev_Card.c ****         info_tmp = Instance->info;
 233              		.loc 1 70 9 is_stmt 1 view .LVU74
 234              		.loc 1 70 18 is_stmt 0 view .LVU75
 235 0010 04F1AD03 		add	r3, r4, #173
 236 0014 2A46     		mov	r2, r5
 237 0016 CD34     		adds	r4, r4, #205
 238              	.LVL13:
 239              	.L19:
 240              		.loc 1 70 18 view .LVU76
 241 0018 D3F800E0 		ldr	lr, [r3]	@ unaligned
 242 001c D3F804C0 		ldr	ip, [r3, #4]	@ unaligned
 243 0020 9868     		ldr	r0, [r3, #8]	@ unaligned
 244 0022 D968     		ldr	r1, [r3, #12]	@ unaligned
 245 0024 C2F800E0 		str	lr, [r2]	@ unaligned
 246 0028 C2F804C0 		str	ip, [r2, #4]	@ unaligned
 247 002c 9060     		str	r0, [r2, #8]	@ unaligned
 248 002e D160     		str	r1, [r2, #12]	@ unaligned
 249 0030 1033     		adds	r3, r3, #16
 250 0032 1032     		adds	r2, r2, #16
 251 0034 A342     		cmp	r3, r4
 252 0036 EFD1     		bne	.L19
 253 0038 1C68     		ldr	r4, [r3]	@ unaligned
 254              	.LVL14:
 255              		.loc 1 70 18 view .LVU77
 256 003a 5868     		ldr	r0, [r3, #4]	@ unaligned
 257 003c 9968     		ldr	r1, [r3, #8]	@ unaligned
 258 003e 1460     		str	r4, [r2]	@ unaligned
 259 0040 5060     		str	r0, [r2, #4]	@ unaligned
 260 0042 9160     		str	r1, [r2, #8]	@ unaligned
 261 0044 9989     		ldrh	r1, [r3, #12]	@ unaligned
 262 0046 9B7B     		ldrb	r3, [r3, #14]	@ zero_extendqisi2
 263 0048 9181     		strh	r1, [r2, #12]	@ unaligned
 264 004a 9373     		strb	r3, [r2, #14]
ARM GAS  C:\Users\huav\AppData\Local\Temp\cc0E2EAh.s 			page 7


  71:Device/Dev_Card.c ****     }
  72:Device/Dev_Card.c **** 
  73:Device/Dev_Card.c ****     return info_tmp;
 265              		.loc 1 73 5 is_stmt 1 view .LVU78
 266              	.L17:
  74:Device/Dev_Card.c **** }
 267              		.loc 1 74 1 is_stmt 0 view .LVU79
 268 004c 2846     		mov	r0, r5
 269 004e 38BD     		pop	{r3, r4, r5, pc}
 270              		.loc 1 74 1 view .LVU80
 271              		.cfi_endproc
 272              	.LFE149:
 274              		.section	.text.DevCard_Write,"ax",%progbits
 275              		.align	1
 276              		.syntax unified
 277              		.thumb
 278              		.thumb_func
 279              		.fpu fpv5-d16
 281              	DevCard_Write:
 282              	.LVL15:
 283              	.LFB150:
  75:Device/Dev_Card.c **** 
  76:Device/Dev_Card.c **** static bool DevCard_Write(DevCard_Obj_TypeDef *Instance, uint32_t block, uint8_t *p_data, uint16_t 
  77:Device/Dev_Card.c **** {
 284              		.loc 1 77 1 is_stmt 1 view -0
 285              		.cfi_startproc
 286              		@ args = 4, pretend = 0, frame = 0
 287              		@ frame_needed = 0, uses_anonymous_args = 0
 288              		.loc 1 77 1 is_stmt 0 view .LVU82
 289 0000 38B5     		push	{r3, r4, r5, lr}
 290              	.LCFI3:
 291              		.cfi_def_cfa_offset 16
 292              		.cfi_offset 3, -16
 293              		.cfi_offset 4, -12
 294              		.cfi_offset 5, -8
 295              		.cfi_offset 14, -4
 296 0002 BDF810C0 		ldrh	ip, [sp, #16]
  78:Device/Dev_Card.c ****     if ((Instance == NULL) || (p_data == NULL) || (block_num == 0) || (block == 0) || (block > Inst
 297              		.loc 1 78 5 is_stmt 1 view .LVU83
 298              		.loc 1 78 39 is_stmt 0 view .LVU84
 299 0006 1446     		mov	r4, r2
 300              		.loc 1 78 8 view .LVU85
 301 0008 002A     		cmp	r2, #0
 302 000a 18BF     		it	ne
 303 000c 0028     		cmpne	r0, #0
 304 000e 0CBF     		ite	eq
 305 0010 0122     		moveq	r2, #1
 306              	.LVL16:
 307              		.loc 1 78 8 view .LVU86
 308 0012 0022     		movne	r2, #0
 309 0014 1BD0     		beq	.L23
 310 0016 8646     		mov	lr, r0
 311              		.loc 1 78 68 discriminator 1 view .LVU87
 312 0018 0029     		cmp	r1, #0
 313 001a 18BF     		it	ne
 314 001c BCF1000F 		cmpne	ip, #0
 315 0020 0CBF     		ite	eq
ARM GAS  C:\Users\huav\AppData\Local\Temp\cc0E2EAh.s 			page 8


 316 0022 0120     		moveq	r0, #1
 317              	.LVL17:
 318              		.loc 1 78 68 discriminator 1 view .LVU88
 319 0024 0020     		movne	r0, #0
 320 0026 14D0     		beq	.L24
 321              		.loc 1 78 110 discriminator 2 view .LVU89
 322 0028 DEF8BE20 		ldr	r2, [lr, #190]	@ unaligned
 323              		.loc 1 78 84 discriminator 2 view .LVU90
 324 002c 8A42     		cmp	r2, r1
 325 002e 0FD3     		bcc	.L22
 326              		.loc 1 78 164 discriminator 3 view .LVU91
 327 0030 DEF8C220 		ldr	r2, [lr, #194]	@ unaligned
 328              		.loc 1 78 148 discriminator 3 view .LVU92
 329 0034 02FB0CF2 		mul	r2, r2, ip
 330              		.loc 1 78 121 discriminator 3 view .LVU93
 331 0038 9342     		cmp	r3, r2
 332 003a 09D1     		bne	.L22
  79:Device/Dev_Card.c ****         return false;
  80:Device/Dev_Card.c **** 
  81:Device/Dev_Card.c ****     BspSDMMC.write(&(Instance->SDMMC_Obj), p_data, block, block_num);
 333              		.loc 1 81 5 is_stmt 1 view .LVU94
 334              		.loc 1 81 13 is_stmt 0 view .LVU95
 335 003c 064B     		ldr	r3, .L26
 336              	.LVL18:
 337              		.loc 1 81 13 view .LVU96
 338 003e 9D68     		ldr	r5, [r3, #8]
 339              		.loc 1 81 5 view .LVU97
 340 0040 6346     		mov	r3, ip
 341 0042 0A46     		mov	r2, r1
 342 0044 2146     		mov	r1, r4
 343              	.LVL19:
 344              		.loc 1 81 5 view .LVU98
 345 0046 7046     		mov	r0, lr
 346 0048 A847     		blx	r5
 347              	.LVL20:
  82:Device/Dev_Card.c **** 
  83:Device/Dev_Card.c ****     return true;
 348              		.loc 1 83 5 is_stmt 1 view .LVU99
 349              		.loc 1 83 12 is_stmt 0 view .LVU100
 350 004a 0120     		movs	r0, #1
 351 004c 00E0     		b	.L22
 352              	.LVL21:
 353              	.L23:
  79:Device/Dev_Card.c ****         return false;
 354              		.loc 1 79 16 view .LVU101
 355 004e 0020     		movs	r0, #0
 356              	.LVL22:
 357              	.L22:
  84:Device/Dev_Card.c **** }
 358              		.loc 1 84 1 view .LVU102
 359 0050 38BD     		pop	{r3, r4, r5, pc}
 360              	.LVL23:
 361              	.L24:
  79:Device/Dev_Card.c ****         return false;
 362              		.loc 1 79 16 view .LVU103
 363 0052 1046     		mov	r0, r2
 364 0054 FCE7     		b	.L22
ARM GAS  C:\Users\huav\AppData\Local\Temp\cc0E2EAh.s 			page 9


 365              	.L27:
 366 0056 00BF     		.align	2
 367              	.L26:
 368 0058 00000000 		.word	BspSDMMC
 369              		.cfi_endproc
 370              	.LFE150:
 372              		.section	.text.DevCard_Read,"ax",%progbits
 373              		.align	1
 374              		.syntax unified
 375              		.thumb
 376              		.thumb_func
 377              		.fpu fpv5-d16
 379              	DevCard_Read:
 380              	.LVL24:
 381              	.LFB151:
  85:Device/Dev_Card.c **** 
  86:Device/Dev_Card.c **** static bool DevCard_Read(DevCard_Obj_TypeDef *Instance, uint32_t block, uint8_t *p_data, uint16_t d
  87:Device/Dev_Card.c **** {
 382              		.loc 1 87 1 is_stmt 1 view -0
 383              		.cfi_startproc
 384              		@ args = 4, pretend = 0, frame = 0
 385              		@ frame_needed = 0, uses_anonymous_args = 0
 386              		.loc 1 87 1 is_stmt 0 view .LVU105
 387 0000 38B5     		push	{r3, r4, r5, lr}
 388              	.LCFI4:
 389              		.cfi_def_cfa_offset 16
 390              		.cfi_offset 3, -16
 391              		.cfi_offset 4, -12
 392              		.cfi_offset 5, -8
 393              		.cfi_offset 14, -4
 394 0002 BDF81040 		ldrh	r4, [sp, #16]
  88:Device/Dev_Card.c ****     if ((Instance == NULL) || (p_data == NULL) || (block_num == 0) || (block > Instance->info.Block
 395              		.loc 1 88 5 is_stmt 1 view .LVU106
 396              		.loc 1 88 19 is_stmt 0 view .LVU107
 397 0006 8446     		mov	ip, r0
 398              		.loc 1 88 8 view .LVU108
 399 0008 002A     		cmp	r2, #0
 400 000a 18BF     		it	ne
 401 000c 0028     		cmpne	r0, #0
 402 000e 0CBF     		ite	eq
 403 0010 0120     		moveq	r0, #1
 404              	.LVL25:
 405              		.loc 1 88 8 view .LVU109
 406 0012 0020     		movne	r0, #0
 407 0014 14D0     		beq	.L30
 408 0016 9646     		mov	lr, r2
 409              		.loc 1 88 48 discriminator 1 view .LVU110
 410 0018 9CB1     		cbz	r4, .L29
 411              		.loc 1 88 94 discriminator 2 view .LVU111
 412 001a DCF8BE20 		ldr	r2, [ip, #190]	@ unaligned
 413              	.LVL26:
 414              		.loc 1 88 68 discriminator 2 view .LVU112
 415 001e 8A42     		cmp	r2, r1
 416 0020 0FD3     		bcc	.L29
 417              		.loc 1 88 147 discriminator 3 view .LVU113
 418 0022 DCF8C220 		ldr	r2, [ip, #194]	@ unaligned
 419              		.loc 1 88 131 discriminator 3 view .LVU114
ARM GAS  C:\Users\huav\AppData\Local\Temp\cc0E2EAh.s 			page 10


 420 0026 04FB02F2 		mul	r2, r4, r2
 421              		.loc 1 88 105 discriminator 3 view .LVU115
 422 002a 9342     		cmp	r3, r2
 423 002c 09D3     		bcc	.L29
  89:Device/Dev_Card.c ****         return false;
  90:Device/Dev_Card.c **** 
  91:Device/Dev_Card.c ****     BspSDMMC.read(&(Instance->SDMMC_Obj), p_data, block, block_num);
 424              		.loc 1 91 5 is_stmt 1 view .LVU116
 425              		.loc 1 91 13 is_stmt 0 view .LVU117
 426 002e 054B     		ldr	r3, .L32
 427              	.LVL27:
 428              		.loc 1 91 13 view .LVU118
 429 0030 5D68     		ldr	r5, [r3, #4]
 430              		.loc 1 91 5 view .LVU119
 431 0032 2346     		mov	r3, r4
 432 0034 0A46     		mov	r2, r1
 433 0036 7146     		mov	r1, lr
 434              	.LVL28:
 435              		.loc 1 91 5 view .LVU120
 436 0038 6046     		mov	r0, ip
 437 003a A847     		blx	r5
 438              	.LVL29:
  92:Device/Dev_Card.c **** 
  93:Device/Dev_Card.c ****     return true;
 439              		.loc 1 93 5 is_stmt 1 view .LVU121
 440              		.loc 1 93 12 is_stmt 0 view .LVU122
 441 003c 0120     		movs	r0, #1
 442 003e 00E0     		b	.L29
 443              	.LVL30:
 444              	.L30:
  89:Device/Dev_Card.c ****         return false;
 445              		.loc 1 89 16 view .LVU123
 446 0040 0020     		movs	r0, #0
 447              	.LVL31:
 448              	.L29:
  94:Device/Dev_Card.c **** }
 449              		.loc 1 94 1 view .LVU124
 450 0042 38BD     		pop	{r3, r4, r5, pc}
 451              	.LVL32:
 452              	.L33:
 453              		.loc 1 94 1 view .LVU125
 454              		.align	2
 455              	.L32:
 456 0044 00000000 		.word	BspSDMMC
 457              		.cfi_endproc
 458              	.LFE151:
 460              		.global	DevCard
 461              		.section	.data.DevCard,"aw"
 462              		.align	2
 465              	DevCard:
 466 0000 00000000 		.word	DevCard_Init
 467 0004 00000000 		.space	8
 467      00000000 
 468 000c 00000000 		.word	DevCard_GetError
 469 0010 00000000 		.word	DevCard_GetInfo
 470 0014 00000000 		.word	DevCard_Read
 471 0018 00000000 		.word	DevCard_Write
ARM GAS  C:\Users\huav\AppData\Local\Temp\cc0E2EAh.s 			page 11


 472              		.text
 473              	.Letext0:
 474              		.file 2 "c:\\program files (x86)\\gnu arm embedded toolchain\\10 2020-q4-major\\arm-none-eabi\\inc
 475              		.file 3 "c:\\program files (x86)\\gnu arm embedded toolchain\\10 2020-q4-major\\arm-none-eabi\\inc
 476              		.file 4 "HAL_Lib/CMSIS/Device/ST/STM32H7xx/Include/stm32h743xx.h"
 477              		.file 5 "HAL_Lib/STM32H7xx_HAL_Driver/Inc/stm32h7xx_hal_def.h"
 478              		.file 6 "HAL_Lib/STM32H7xx_HAL_Driver/Inc/stm32h7xx_ll_sdmmc.h"
 479              		.file 7 "HAL_Lib/STM32H7xx_HAL_Driver/Inc/stm32h7xx_hal_sd.h"
 480              		.file 8 "Bsp/Bsp_SDMMC.h"
 481              		.file 9 "Device/Dev_Card.h"
 482              		.file 10 "<built-in>"
ARM GAS  C:\Users\huav\AppData\Local\Temp\cc0E2EAh.s 			page 12

