ARM GAS  C:\Users\huav\AppData\Local\Temp\cclD56Oe.s 			page 1


   1              		.cpu cortex-m7
   2              		.eabi_attribute 28, 1
   3              		.eabi_attribute 20, 1
   4              		.eabi_attribute 21, 1
   5              		.eabi_attribute 23, 3
   6              		.eabi_attribute 24, 1
   7              		.eabi_attribute 25, 1
   8              		.eabi_attribute 26, 1
   9              		.eabi_attribute 30, 1
  10              		.eabi_attribute 34, 1
  11              		.eabi_attribute 18, 4
  12              		.file	"DiskIO.c"
  13              		.text
  14              	.Ltext0:
  15              		.cfi_sections	.debug_frame
  16              		.section	.text.Disk_GetCard_Info,"ax",%progbits
  17              		.align	1
  18              		.arch armv7e-m
  19              		.syntax unified
  20              		.thumb
  21              		.thumb_func
  22              		.fpu fpv5-d16
  24              	Disk_GetCard_Info:
  25              	.LVL0:
  26              	.LFB149:
  27              		.file 1 "System/diskio/DiskIO.c"
   1:System/diskio/DiskIO.c **** /*
   2:System/diskio/DiskIO.c ****  *  coder: 8_B!T0
   3:System/diskio/DiskIO.c ****  *  bref: TFCard data storage interface
   4:System/diskio/DiskIO.c ****  *  optmize from znFAT
   5:System/diskio/DiskIO.c ****  */
   6:System/diskio/DiskIO.c **** 
   7:System/diskio/DiskIO.c **** #include "DiskIO.h"
   8:System/diskio/DiskIO.c **** #include "Dev_W25Qxx.h"
   9:System/diskio/DiskIO.c **** #include "Dev_Card.h"
  10:System/diskio/DiskIO.c **** #include "IO_Definition.h"
  11:System/diskio/DiskIO.c **** #include "Data_Convert_Util.h"
  12:System/diskio/DiskIO.c **** #include "error_log.h"
  13:System/diskio/DiskIO.c **** #include "mmu.h"
  14:System/diskio/DiskIO.c **** #include <stdarg.h>
  15:System/diskio/DiskIO.c **** #include <stdio.h>
  16:System/diskio/DiskIO.c **** #include <string.h>
  17:System/diskio/DiskIO.c **** #include <ctype.h>
  18:System/diskio/DiskIO.c **** 
  19:System/diskio/DiskIO.c **** #define GEN_TIME(h, m, s) ((((uint16_t)h) << 11) + (((uint16_t)m) << 5) + (((uint16_t)s) >> 1))
  20:System/diskio/DiskIO.c **** #define GEN_DATE(y, m, d) (((((uint16_t)(y % 100)) + 20) << 9) + (((uint16_t)m) << 5) + ((uint16_t)
  21:System/diskio/DiskIO.c **** 
  22:System/diskio/DiskIO.c **** #define test_buff \
  23:System/diskio/DiskIO.c ****     {             \
  24:System/diskio/DiskIO.c ****         1,        \
  25:System/diskio/DiskIO.c ****             2,    \
  26:System/diskio/DiskIO.c ****             3,    \
  27:System/diskio/DiskIO.c ****     }
  28:System/diskio/DiskIO.c **** 
  29:System/diskio/DiskIO.c **** #pragma pack(1)
  30:System/diskio/DiskIO.c **** /* File and Folder Attribute definition */
  31:System/diskio/DiskIO.c **** typedef struct
ARM GAS  C:\Users\huav\AppData\Local\Temp\cclD56Oe.s 			page 2


  32:System/diskio/DiskIO.c **** {
  33:System/diskio/DiskIO.c ****     char name[8];
  34:System/diskio/DiskIO.c ****     char ext[3];
  35:System/diskio/DiskIO.c **** 
  36:System/diskio/DiskIO.c ****     uint8_t attr;
  37:System/diskio/DiskIO.c ****     uint8_t LowerCase;
  38:System/diskio/DiskIO.c ****     uint8_t Time10Ms;
  39:System/diskio/DiskIO.c ****     uint8_t CreateTime[2];
  40:System/diskio/DiskIO.c ****     uint8_t CreateDate[2];
  41:System/diskio/DiskIO.c ****     uint8_t AccessDate[2];
  42:System/diskio/DiskIO.c ****     uint8_t HighCluster[2];
  43:System/diskio/DiskIO.c ****     uint8_t ModifyTime[2];
  44:System/diskio/DiskIO.c ****     uint8_t ModifyDate[2];
  45:System/diskio/DiskIO.c ****     uint8_t LowCluster[2];
  46:System/diskio/DiskIO.c ****     uint8_t FileSize[4];
  47:System/diskio/DiskIO.c **** } Disk_FFAttr_TypeDef;
  48:System/diskio/DiskIO.c **** 
  49:System/diskio/DiskIO.c **** /* catlog cluster single section file/folder attribute table */
  50:System/diskio/DiskIO.c **** typedef struct
  51:System/diskio/DiskIO.c **** {
  52:System/diskio/DiskIO.c ****     Disk_FFAttr_TypeDef attribute[16];
  53:System/diskio/DiskIO.c **** } Disk_CCSSFFAT_TypeDef;
  54:System/diskio/DiskIO.c **** #pragma pack()
  55:System/diskio/DiskIO.c **** 
  56:System/diskio/DiskIO.c **** static uint8_t Disk_Print_Buff[128] = {0};
  57:System/diskio/DiskIO.c **** static Disk_Printf_Callback Disk_PrintOut = NULL;
  58:System/diskio/DiskIO.c **** 
  59:System/diskio/DiskIO.c **** static Error_Handler DevCard_Error_Handle = NULL;
  60:System/diskio/DiskIO.c **** static Disk_Info_TypeDef Disk_Info;
  61:System/diskio/DiskIO.c **** 
  62:System/diskio/DiskIO.c **** /* Internal Function */
  63:System/diskio/DiskIO.c **** static void Disk_ExtModule_InitError(int16_t code, uint8_t *p_arg, uint16_t size);
  64:System/diskio/DiskIO.c **** static void Disk_Printf(char *str, ...);
  65:System/diskio/DiskIO.c **** 
  66:System/diskio/DiskIO.c **** #if (STORAGE_MODULE & EXTERNAL_INTERFACE_TYPE_SPI_FLASH)
  67:System/diskio/DiskIO.c **** /******************************************************************************** SPI Interface ***
  68:System/diskio/DiskIO.c **** DevW25QxxObj_TypeDef W25Q64_Obj = {
  69:System/diskio/DiskIO.c ****     .bus_type = DevW25Qxx_Norm_SpiBus,
  70:System/diskio/DiskIO.c ****     .BusPort = SPI1,
  71:System/diskio/DiskIO.c **** };
  72:System/diskio/DiskIO.c **** #endif
  73:System/diskio/DiskIO.c **** 
  74:System/diskio/DiskIO.c **** #if (STORAGE_MODULE & EXTERNAL_INTERFACE_TYPE_TF_CARD)
  75:System/diskio/DiskIO.c **** static Disk_Card_Info Disk_GetCard_Info(void);
  76:System/diskio/DiskIO.c **** static void Disk_ParseMBR(Disk_FATFileSys_TypeDef *FATObj);
  77:System/diskio/DiskIO.c **** static void Disk_ParseDBR(Disk_FATFileSys_TypeDef *FATObj);
  78:System/diskio/DiskIO.c **** static void Disk_ParseFSINFO(Disk_FATFileSys_TypeDef *FATObj);
  79:System/diskio/DiskIO.c **** static bool Disk_Search_FreeCluster(Disk_FATFileSys_TypeDef *FATObj);
  80:System/diskio/DiskIO.c **** static bool Disk_OpenFile(Disk_FATFileSys_TypeDef *FATObj, const char *dir_path, const char *name, 
  81:System/diskio/DiskIO.c **** static FATCluster_Addr Disk_Create(Disk_FATFileSys_TypeDef *FATObj, const char *dir, const char *fi
  82:System/diskio/DiskIO.c **** 
  83:System/diskio/DiskIO.c **** /* Error Process Function */
  84:System/diskio/DiskIO.c **** static void Disk_FreeCluster_SearchError(int16_t code, uint8_t *p_arg, uint16_t size);
  85:System/diskio/DiskIO.c **** static void Disk_FSINFO_ReadError(int16_t code, uint8_t *p_arg, uint16_t size);
  86:System/diskio/DiskIO.c **** 
  87:System/diskio/DiskIO.c **** /******************************************************************************** SDMMC Interface *
  88:System/diskio/DiskIO.c **** static const BspSDMMC_PinConfig_TypeDef SDMMC_Pin = {
ARM GAS  C:\Users\huav\AppData\Local\Temp\cclD56Oe.s 			page 3


  89:System/diskio/DiskIO.c ****     .CK_Port = SDMMC_CLK_PORT,
  90:System/diskio/DiskIO.c ****     .CMD_Port = SDMMC_CMD_PORT,
  91:System/diskio/DiskIO.c ****     .D0_Port = D0_PORT,
  92:System/diskio/DiskIO.c ****     .D1_Port = D1_PORT,
  93:System/diskio/DiskIO.c ****     .D2_Port = D2_PORT,
  94:System/diskio/DiskIO.c ****     .D3_Port = D3_PORT,
  95:System/diskio/DiskIO.c **** 
  96:System/diskio/DiskIO.c ****     .CK_Pin = SDMMC_CLK_PIN,
  97:System/diskio/DiskIO.c ****     .CMD_Pin = SDMMC_CMD_PIN,
  98:System/diskio/DiskIO.c ****     .D0_Pin = D0_PIN,
  99:System/diskio/DiskIO.c ****     .D1_Pin = D1_PIN,
 100:System/diskio/DiskIO.c ****     .D2_Pin = D2_PIN,
 101:System/diskio/DiskIO.c ****     .D3_Pin = D3_PIN,
 102:System/diskio/DiskIO.c **** 
 103:System/diskio/DiskIO.c ****     .Alternate = GPIO_AF12_SDIO1,
 104:System/diskio/DiskIO.c **** };
 105:System/diskio/DiskIO.c **** 
 106:System/diskio/DiskIO.c **** static DevCard_Obj_TypeDef DevTFCard_Obj = {
 107:System/diskio/DiskIO.c ****     .SDMMC_Obj = {
 108:System/diskio/DiskIO.c ****         .instance = SDMMC1,
 109:System/diskio/DiskIO.c ****     },
 110:System/diskio/DiskIO.c **** };
 111:System/diskio/DiskIO.c **** 
 112:System/diskio/DiskIO.c **** static const uint8_t DiskCard_NoneMBR_Label[] = {0xEB, 0x58, 0x90};
 113:System/diskio/DiskIO.c **** static Disk_FATFileSys_TypeDef FATFs_Obj;
 114:System/diskio/DiskIO.c **** 
 115:System/diskio/DiskIO.c **** /* is not an appropriate data cache structure i think */
 116:System/diskio/DiskIO.c **** /* still developing */
 117:System/diskio/DiskIO.c **** static uint8_t Disk_Card_SectionBuff[DISK_CARD_SENCTION_SZIE * 2] = {0};
 118:System/diskio/DiskIO.c **** 
 119:System/diskio/DiskIO.c **** #endif
 120:System/diskio/DiskIO.c **** 
 121:System/diskio/DiskIO.c **** /******************************************************************************* Error Proc Object 
 122:System/diskio/DiskIO.c **** static Error_Obj_Typedef DevCard_ErrorList[] = {
 123:System/diskio/DiskIO.c **** #if (STORAGE_MODULE & INTERNAL_INTERFACE_TYPE)
 124:System/diskio/DiskIO.c ****     {
 125:System/diskio/DiskIO.c ****         .out = true,
 126:System/diskio/DiskIO.c ****         .log = false,
 127:System/diskio/DiskIO.c ****         .prc_callback = NULL,
 128:System/diskio/DiskIO.c ****         .code = DevCard_Internal_Module_Init_Error,
 129:System/diskio/DiskIO.c ****         .desc = "internal Storage Init Error\r\n",
 130:System/diskio/DiskIO.c ****         .proc_type = Error_Proc_Immd,
 131:System/diskio/DiskIO.c ****         .prc_data_stream = {
 132:System/diskio/DiskIO.c ****             .p_data = NULL,
 133:System/diskio/DiskIO.c ****             .size = 0,
 134:System/diskio/DiskIO.c ****         },
 135:System/diskio/DiskIO.c ****     },
 136:System/diskio/DiskIO.c **** #endif
 137:System/diskio/DiskIO.c ****     {
 138:System/diskio/DiskIO.c ****         .out = true,
 139:System/diskio/DiskIO.c ****         .log = false,
 140:System/diskio/DiskIO.c ****         .prc_callback = Disk_ExtModule_InitError,
 141:System/diskio/DiskIO.c ****         .code = DevCard_External_Module_Init_Error,
 142:System/diskio/DiskIO.c ****         .desc = "External Storage Init Error\r\n",
 143:System/diskio/DiskIO.c ****         .proc_type = Error_Proc_Immd,
 144:System/diskio/DiskIO.c ****         .prc_data_stream = {
 145:System/diskio/DiskIO.c ****             .p_data = NULL,
ARM GAS  C:\Users\huav\AppData\Local\Temp\cclD56Oe.s 			page 4


 146:System/diskio/DiskIO.c ****             .size = 0,
 147:System/diskio/DiskIO.c ****         },
 148:System/diskio/DiskIO.c ****     },
 149:System/diskio/DiskIO.c ****     {
 150:System/diskio/DiskIO.c ****         .out = true,
 151:System/diskio/DiskIO.c ****         .log = false,
 152:System/diskio/DiskIO.c ****         .prc_callback = Disk_FSINFO_ReadError,
 153:System/diskio/DiskIO.c ****         .code = DevCard_Read_FSINFO_Error,
 154:System/diskio/DiskIO.c ****         .desc = "External Storage FSINFO Read Error\r\n",
 155:System/diskio/DiskIO.c ****         .proc_type = Error_Proc_Immd,
 156:System/diskio/DiskIO.c ****         .prc_data_stream = {
 157:System/diskio/DiskIO.c ****             .p_data = NULL,
 158:System/diskio/DiskIO.c ****             .size = 0,
 159:System/diskio/DiskIO.c ****         },
 160:System/diskio/DiskIO.c ****     },
 161:System/diskio/DiskIO.c ****     {
 162:System/diskio/DiskIO.c ****         .out = true,
 163:System/diskio/DiskIO.c ****         .log = false,
 164:System/diskio/DiskIO.c ****         .prc_callback = Disk_FreeCluster_SearchError,
 165:System/diskio/DiskIO.c ****         .code = DevCard_No_FreeCluster,
 166:System/diskio/DiskIO.c ****         .desc = "External Storage No Free Cluster\r\n",
 167:System/diskio/DiskIO.c ****         .proc_type = Error_Proc_Immd,
 168:System/diskio/DiskIO.c ****         .prc_data_stream = {
 169:System/diskio/DiskIO.c ****             .p_data = NULL,
 170:System/diskio/DiskIO.c ****             .size = 0,
 171:System/diskio/DiskIO.c ****         },
 172:System/diskio/DiskIO.c ****     },
 173:System/diskio/DiskIO.c **** };
 174:System/diskio/DiskIO.c **** 
 175:System/diskio/DiskIO.c **** static bool ExtDisk_Init(void)
 176:System/diskio/DiskIO.c **** {
 177:System/diskio/DiskIO.c ****     bool init_state = true;
 178:System/diskio/DiskIO.c **** 
 179:System/diskio/DiskIO.c ****     memset(&Disk_Info, NULL, sizeof(Disk_Info));
 180:System/diskio/DiskIO.c **** #if (STORAGE_MODULE & EXTERNAL_INTERFACE_TYPE_SPI_FLASH)
 181:System/diskio/DiskIO.c ****     Disk_Info.module_reg.section.FlashChip_module_EN = true;
 182:System/diskio/DiskIO.c ****     Disk_Info.module_error_reg.section.FlashChip_module_error_code = DevW25Q64.init(W25Q64_Obj);
 183:System/diskio/DiskIO.c **** 
 184:System/diskio/DiskIO.c ****     /* trigger error */
 185:System/diskio/DiskIO.c ****     if (Disk_Info.module_error_reg.section.FlashChip_module_error_code)
 186:System/diskio/DiskIO.c ****     {
 187:System/diskio/DiskIO.c ****         // ErrorLog.trigger(DevCard_Error_Handle, );
 188:System/diskio/DiskIO.c ****     }
 189:System/diskio/DiskIO.c **** #endif
 190:System/diskio/DiskIO.c **** 
 191:System/diskio/DiskIO.c **** #if (STORAGE_MODULE & EXTERNAL_INTERFACE_TYPE_TF_CARD)
 192:System/diskio/DiskIO.c ****     memset(&FATFs_Obj, NULL, sizeof(FATFs_Obj));
 193:System/diskio/DiskIO.c **** 
 194:System/diskio/DiskIO.c ****     DevTFCard_Obj.SDMMC_Obj.pin = &SDMMC_Pin;
 195:System/diskio/DiskIO.c **** 
 196:System/diskio/DiskIO.c ****     Disk_Info.module_reg.section.TFCard_modlue_EN = true;
 197:System/diskio/DiskIO.c ****     Disk_Info.module_error_reg.section.TFCard_module_error_code = DevCard.Init(&DevTFCard_Obj.SDMMC
 198:System/diskio/DiskIO.c **** 
 199:System/diskio/DiskIO.c ****     /* trigger error */
 200:System/diskio/DiskIO.c ****     if (Disk_Info.module_error_reg.section.TFCard_module_error_code)
 201:System/diskio/DiskIO.c ****     {
 202:System/diskio/DiskIO.c ****         uint8_t Error_Code = Disk_Info.module_error_reg.section.TFCard_module_error_code;
ARM GAS  C:\Users\huav\AppData\Local\Temp\cclD56Oe.s 			page 5


 203:System/diskio/DiskIO.c **** 
 204:System/diskio/DiskIO.c ****         ErrorLog.trigger(DevCard_Error_Handle,
 205:System/diskio/DiskIO.c ****                          DevCard_External_Module_Init_Error,
 206:System/diskio/DiskIO.c ****                          &Error_Code, sizeof(uint8_t));
 207:System/diskio/DiskIO.c ****     }
 208:System/diskio/DiskIO.c **** #endif
 209:System/diskio/DiskIO.c **** 
 210:System/diskio/DiskIO.c ****     if (Disk_Info.module_error_reg.val != 0)
 211:System/diskio/DiskIO.c ****         init_state = false;
 212:System/diskio/DiskIO.c **** 
 213:System/diskio/DiskIO.c ****     return init_state;
 214:System/diskio/DiskIO.c **** }
 215:System/diskio/DiskIO.c **** 
 216:System/diskio/DiskIO.c **** #if (STORAGE_MODULE & INTERNAL_INTERFACE_TYPE)
 217:System/diskio/DiskIO.c **** bool IntDisk_Init(void)
 218:System/diskio/DiskIO.c **** {
 219:System/diskio/DiskIO.c ****     bool init_state = false;
 220:System/diskio/DiskIO.c **** 
 221:System/diskio/DiskIO.c ****     return init_state;
 222:System/diskio/DiskIO.c **** }
 223:System/diskio/DiskIO.c **** #endif
 224:System/diskio/DiskIO.c **** 
 225:System/diskio/DiskIO.c **** bool Disk_Init(Disk_Printf_Callback Callback)
 226:System/diskio/DiskIO.c **** {
 227:System/diskio/DiskIO.c ****     memset(&Disk_Info, NULL, sizeof(Disk_Info));
 228:System/diskio/DiskIO.c **** 
 229:System/diskio/DiskIO.c ****     /* set printf callback */
 230:System/diskio/DiskIO.c ****     Disk_PrintOut = Callback;
 231:System/diskio/DiskIO.c **** 
 232:System/diskio/DiskIO.c **** #if (STORAGE_MODULE & INTERNAL_INTERFACE_TYPE)
 233:System/diskio/DiskIO.c ****     if (!IntDisk_Init())
 234:System/diskio/DiskIO.c ****         return false;
 235:System/diskio/DiskIO.c **** #endif
 236:System/diskio/DiskIO.c **** 
 237:System/diskio/DiskIO.c **** #if ((STORAGE_MODULE & EXTERNAL_INTERFACE_TYPE_TF_CARD) || (STORAGE_MODULE & EXTERNAL_INTERFACE_TYP
 238:System/diskio/DiskIO.c ****     /* create error log handle */
 239:System/diskio/DiskIO.c ****     DevCard_Error_Handle = ErrorLog.create("DevCard_Error");
 240:System/diskio/DiskIO.c ****     /* regist all error to the error tree */
 241:System/diskio/DiskIO.c ****     ErrorLog.registe(DevCard_Error_Handle, DevCard_ErrorList, sizeof(DevCard_ErrorList) / sizeof(De
 242:System/diskio/DiskIO.c **** 
 243:System/diskio/DiskIO.c ****     if (!ExtDisk_Init())
 244:System/diskio/DiskIO.c ****         return false;
 245:System/diskio/DiskIO.c **** #endif
 246:System/diskio/DiskIO.c **** 
 247:System/diskio/DiskIO.c ****     Disk_Printf("Disk Init Done\r\n");
 248:System/diskio/DiskIO.c **** 
 249:System/diskio/DiskIO.c **** #if (STORAGE_MODULE & EXTERNAL_INTERFACE_TYPE_TF_CARD)
 250:System/diskio/DiskIO.c ****     Disk_Printf("    [Card Info] BlockNbr:     %d\r\n", Disk_GetCard_Info().BlockNbr);
 251:System/diskio/DiskIO.c ****     Disk_Printf("    [Card Info] BlockSize:    %d\r\n", Disk_GetCard_Info().BlockSize);
 252:System/diskio/DiskIO.c ****     Disk_Printf("    [Card Info] CardSpeed:    %d\r\n", Disk_GetCard_Info().CardSpeed);
 253:System/diskio/DiskIO.c ****     Disk_Printf("    [Card Info] CardType:     %d\r\n", Disk_GetCard_Info().CardType);
 254:System/diskio/DiskIO.c ****     Disk_Printf("    [Card Info] CardVersion:  %d\r\n", Disk_GetCard_Info().CardVersion);
 255:System/diskio/DiskIO.c ****     Disk_Printf("    [Card Info] Class:        %d\r\n", Disk_GetCard_Info().Class);
 256:System/diskio/DiskIO.c ****     Disk_Printf("    [Card Info] LogBlockNbr:  %d\r\n", Disk_GetCard_Info().LogBlockNbr);
 257:System/diskio/DiskIO.c ****     Disk_Printf("    [Card Info] LogBlockSize: %d\r\n", Disk_GetCard_Info().LogBlockSize);
 258:System/diskio/DiskIO.c ****     Disk_Printf("    [Card Info] RelCardAdd:   %d\r\n", Disk_GetCard_Info().RelCardAdd);
 259:System/diskio/DiskIO.c ****     Disk_Printf("\r\n");
ARM GAS  C:\Users\huav\AppData\Local\Temp\cclD56Oe.s 			page 6


 260:System/diskio/DiskIO.c **** 
 261:System/diskio/DiskIO.c ****     /* Parse MBR Section Info */
 262:System/diskio/DiskIO.c ****     Disk_ParseMBR(&FATFs_Obj);
 263:System/diskio/DiskIO.c ****     Disk_ParseDBR(&FATFs_Obj);
 264:System/diskio/DiskIO.c ****     Disk_ParseFSINFO(&FATFs_Obj);
 265:System/diskio/DiskIO.c ****     Disk_Search_FreeCluster(&FATFs_Obj);
 266:System/diskio/DiskIO.c **** 
 267:System/diskio/DiskIO.c ****     /* test code */
 268:System/diskio/DiskIO.c ****     Disk_FFInfo_TypeDef test1_file;
 269:System/diskio/DiskIO.c ****     Disk_FFInfo_TypeDef test2_file;
 270:System/diskio/DiskIO.c ****     volatile FATCluster_Addr test_folder1_cluster;
 271:System/diskio/DiskIO.c ****     volatile FATCluster_Addr test_folder2_cluster;
 272:System/diskio/DiskIO.c ****     volatile FATCluster_Addr test_folder3_cluster;
 273:System/diskio/DiskIO.c ****     volatile FATCluster_Addr test_folder4_cluster;
 274:System/diskio/DiskIO.c ****     volatile FATCluster_Addr test5_file_cluster;
 275:System/diskio/DiskIO.c **** 
 276:System/diskio/DiskIO.c ****     memset(&test1_file, NULL, sizeof(test1_file));
 277:System/diskio/DiskIO.c ****     memset(&test2_file, NULL, sizeof(test2_file));
 278:System/diskio/DiskIO.c **** 
 279:System/diskio/DiskIO.c ****     // Disk_OpenFile(&FATFs_Obj, "test1/test2/", "file.txt", &test1_file);
 280:System/diskio/DiskIO.c ****     // Disk_OpenFile(&FATFs_Obj, "test3/", "file1.txt", &test2_file);
 281:System/diskio/DiskIO.c **** 
 282:System/diskio/DiskIO.c ****     test_folder1_cluster = Disk_Create(&FATFs_Obj, "test4/", NULL);
 283:System/diskio/DiskIO.c ****     test_folder2_cluster = Disk_Create(&FATFs_Obj, "test5/", NULL);
 284:System/diskio/DiskIO.c ****     test_folder3_cluster = Disk_Create(&FATFs_Obj, "test6/", NULL);
 285:System/diskio/DiskIO.c ****     test_folder4_cluster = Disk_Create(&FATFs_Obj, "test1/test2/test3/", "test.txt");
 286:System/diskio/DiskIO.c **** 
 287:System/diskio/DiskIO.c ****     test5_file_cluster = Disk_Create(&FATFs_Obj, NULL, "test.txt");
 288:System/diskio/DiskIO.c ****     /* test code */
 289:System/diskio/DiskIO.c **** #endif
 290:System/diskio/DiskIO.c ****     return true;
 291:System/diskio/DiskIO.c **** }
 292:System/diskio/DiskIO.c **** 
 293:System/diskio/DiskIO.c **** static Disk_Card_Info Disk_GetCard_Info(void)
 294:System/diskio/DiskIO.c **** {
  28              		.loc 1 294 1 view -0
  29              		.cfi_startproc
  30              		@ args = 0, pretend = 0, frame = 0
  31              		@ frame_needed = 0, uses_anonymous_args = 0
  32              		.loc 1 294 1 is_stmt 0 view .LVU1
  33 0000 10B5     		push	{r4, lr}
  34              	.LCFI0:
  35              		.cfi_def_cfa_offset 8
  36              		.cfi_offset 4, -8
  37              		.cfi_offset 14, -4
  38 0002 0446     		mov	r4, r0
 295:System/diskio/DiskIO.c ****     return DevCard.Get_Info(&DevTFCard_Obj.SDMMC_Obj);
  39              		.loc 1 295 5 is_stmt 1 view .LVU2
  40              		.loc 1 295 19 is_stmt 0 view .LVU3
  41 0004 024B     		ldr	r3, .L3
  42 0006 1B69     		ldr	r3, [r3, #16]
  43              		.loc 1 295 12 view .LVU4
  44 0008 0249     		ldr	r1, .L3+4
  45 000a 9847     		blx	r3
  46              	.LVL1:
 296:System/diskio/DiskIO.c **** }
  47              		.loc 1 296 1 view .LVU5
ARM GAS  C:\Users\huav\AppData\Local\Temp\cclD56Oe.s 			page 7


  48 000c 2046     		mov	r0, r4
  49 000e 10BD     		pop	{r4, pc}
  50              	.LVL2:
  51              	.L4:
  52              		.loc 1 296 1 view .LVU6
  53              		.align	2
  54              	.L3:
  55 0010 00000000 		.word	DevCard
  56 0014 00000000 		.word	.LANCHOR0
  57              		.cfi_endproc
  58              	.LFE149:
  60              		.section	.text.Disk_Get_StartSectionOfCluster,"ax",%progbits
  61              		.align	1
  62              		.syntax unified
  63              		.thumb
  64              		.thumb_func
  65              		.fpu fpv5-d16
  67              	Disk_Get_StartSectionOfCluster:
  68              	.LVL3:
  69              	.LFB154:
 297:System/diskio/DiskIO.c **** /************************************************************************** Disk File Alloc Table F
 298:System/diskio/DiskIO.c **** #if (STORAGE_MODULE & EXTERNAL_INTERFACE_TYPE_TF_CARD)
 299:System/diskio/DiskIO.c **** static void Disk_ParseMBR(Disk_FATFileSys_TypeDef *FATObj)
 300:System/diskio/DiskIO.c **** {
 301:System/diskio/DiskIO.c ****     if (FATObj == NULL)
 302:System/diskio/DiskIO.c ****         return;
 303:System/diskio/DiskIO.c **** 
 304:System/diskio/DiskIO.c ****     DevCard.read(&DevTFCard_Obj.SDMMC_Obj, DISK_CARD_MBR_SECTION, Disk_Card_SectionBuff, DISK_CARD_
 305:System/diskio/DiskIO.c **** 
 306:System/diskio/DiskIO.c ****     if (memcmp(DiskCard_NoneMBR_Label, Disk_Card_SectionBuff, sizeof(DiskCard_NoneMBR_Label)) == 0)
 307:System/diskio/DiskIO.c ****     {
 308:System/diskio/DiskIO.c ****         FATObj->has_mbr = false;
 309:System/diskio/DiskIO.c ****     }
 310:System/diskio/DiskIO.c ****     else
 311:System/diskio/DiskIO.c ****     {
 312:System/diskio/DiskIO.c ****         /* Check TF Card Termination Byte */
 313:System/diskio/DiskIO.c ****         if ((*(Disk_Card_SectionBuff + DISK_CARD_MBR_TERMINATION_BYTE_1_OFFSET) == DISK_CARD_TERMIN
 314:System/diskio/DiskIO.c ****             (*(Disk_Card_SectionBuff + DISK_CARD_MBR_TERMINATION_BYTE_2_OFFSET) == DISK_CARD_TERMIN
 315:System/diskio/DiskIO.c ****         {
 316:System/diskio/DiskIO.c ****             FATObj->has_mbr = true;
 317:System/diskio/DiskIO.c **** 
 318:System/diskio/DiskIO.c ****             memcpy(&(FATObj->disk_section_table), Disk_Card_SectionBuff + DISK_CARD_MBR_STARTUP_OFF
 319:System/diskio/DiskIO.c **** 
 320:System/diskio/DiskIO.c ****             for (uint8_t sec_index = 0; sec_index < DISK_CARD_SECTION_INFO_NUM; sec_index++)
 321:System/diskio/DiskIO.c ****             {
 322:System/diskio/DiskIO.c ****                 uint16_t StartCylSect = 0;
 323:System/diskio/DiskIO.c ****                 uint32_t StartLBA = 0;
 324:System/diskio/DiskIO.c ****                 uint32_t size = 0;
 325:System/diskio/DiskIO.c **** 
 326:System/diskio/DiskIO.c ****                 StartCylSect = FATObj->disk_section_table[sec_index].StartCylSect;
 327:System/diskio/DiskIO.c ****                 StartLBA = FATObj->disk_section_table[sec_index].StartLBA;
 328:System/diskio/DiskIO.c ****                 size = FATObj->disk_section_table[sec_index].Size;
 329:System/diskio/DiskIO.c **** 
 330:System/diskio/DiskIO.c ****                 FATObj->disk_section_table[sec_index].StartCylSect = LEndian2HalfWord(&StartCylSect
 331:System/diskio/DiskIO.c ****                 FATObj->disk_section_table[sec_index].StartLBA = LEndian2Word(&StartLBA);
 332:System/diskio/DiskIO.c ****                 FATObj->disk_section_table[sec_index].Size = LEndian2Word(&size);
 333:System/diskio/DiskIO.c ****             }
ARM GAS  C:\Users\huav\AppData\Local\Temp\cclD56Oe.s 			page 8


 334:System/diskio/DiskIO.c ****         }
 335:System/diskio/DiskIO.c **** 
 336:System/diskio/DiskIO.c ****         memset(Disk_Card_SectionBuff, NULL, sizeof(Disk_Card_SectionBuff));
 337:System/diskio/DiskIO.c ****     }
 338:System/diskio/DiskIO.c **** }
 339:System/diskio/DiskIO.c **** 
 340:System/diskio/DiskIO.c **** static void Disk_ParseDBR(Disk_FATFileSys_TypeDef *FATObj)
 341:System/diskio/DiskIO.c **** {
 342:System/diskio/DiskIO.c ****     if (FATObj == NULL)
 343:System/diskio/DiskIO.c ****         return;
 344:System/diskio/DiskIO.c **** 
 345:System/diskio/DiskIO.c ****     if (FATObj->has_mbr)
 346:System/diskio/DiskIO.c ****     {
 347:System/diskio/DiskIO.c ****         DevCard.read(&DevTFCard_Obj.SDMMC_Obj, FATObj->disk_section_table[0].StartLBA, Disk_Card_Se
 348:System/diskio/DiskIO.c ****     }
 349:System/diskio/DiskIO.c ****     else
 350:System/diskio/DiskIO.c ****     {
 351:System/diskio/DiskIO.c ****         /* if card has no MBR section then DBR info in the first section */
 352:System/diskio/DiskIO.c ****         DevCard.read(&DevTFCard_Obj.SDMMC_Obj, 0, Disk_Card_SectionBuff, DISK_CARD_SENCTION_SZIE, 1
 353:System/diskio/DiskIO.c ****     }
 354:System/diskio/DiskIO.c **** 
 355:System/diskio/DiskIO.c ****     /* Check TF Card Termination Byte */
 356:System/diskio/DiskIO.c ****     if ((*(Disk_Card_SectionBuff + DISK_CARD_MBR_TERMINATION_BYTE_1_OFFSET) == DISK_CARD_TERMINATIO
 357:System/diskio/DiskIO.c ****         (*(Disk_Card_SectionBuff + DISK_CARD_MBR_TERMINATION_BYTE_2_OFFSET) == DISK_CARD_TERMINATIO
 358:System/diskio/DiskIO.c ****     {
 359:System/diskio/DiskIO.c ****         uint16_t half_word_tmp = 0;
 360:System/diskio/DiskIO.c ****         uint32_t word_tmp = 0;
 361:System/diskio/DiskIO.c **** 
 362:System/diskio/DiskIO.c ****         memcpy(&(FATObj->DBR_info), Disk_Card_SectionBuff, sizeof(FATObj->DBR_info));
 363:System/diskio/DiskIO.c **** 
 364:System/diskio/DiskIO.c ****         half_word_tmp = FATObj->DBR_info.BytesPerSec;
 365:System/diskio/DiskIO.c ****         FATObj->DBR_info.BytesPerSec = LEndian2HalfWord(&half_word_tmp);
 366:System/diskio/DiskIO.c **** 
 367:System/diskio/DiskIO.c ****         half_word_tmp = FATObj->DBR_info.RsvdSecCnt;
 368:System/diskio/DiskIO.c ****         FATObj->DBR_info.RsvdSecCnt = LEndian2HalfWord(&half_word_tmp);
 369:System/diskio/DiskIO.c **** 
 370:System/diskio/DiskIO.c ****         half_word_tmp = FATObj->DBR_info.RootEntCnt;
 371:System/diskio/DiskIO.c ****         FATObj->DBR_info.RootEntCnt = LEndian2HalfWord(&half_word_tmp);
 372:System/diskio/DiskIO.c **** 
 373:System/diskio/DiskIO.c ****         half_word_tmp = FATObj->DBR_info.TotSec16;
 374:System/diskio/DiskIO.c ****         FATObj->DBR_info.TotSec16 = LEndian2HalfWord(&half_word_tmp);
 375:System/diskio/DiskIO.c **** 
 376:System/diskio/DiskIO.c ****         half_word_tmp = FATObj->DBR_info.FATSz16;
 377:System/diskio/DiskIO.c ****         FATObj->DBR_info.FATSz16 = LEndian2HalfWord(&half_word_tmp);
 378:System/diskio/DiskIO.c **** 
 379:System/diskio/DiskIO.c ****         half_word_tmp = FATObj->DBR_info.SecPerTrk;
 380:System/diskio/DiskIO.c ****         FATObj->DBR_info.SecPerTrk = LEndian2HalfWord(&half_word_tmp);
 381:System/diskio/DiskIO.c **** 
 382:System/diskio/DiskIO.c ****         half_word_tmp = FATObj->DBR_info.NumHeads;
 383:System/diskio/DiskIO.c ****         FATObj->DBR_info.NumHeads = LEndian2HalfWord(&half_word_tmp);
 384:System/diskio/DiskIO.c **** 
 385:System/diskio/DiskIO.c ****         word_tmp = FATObj->DBR_info.HiddSec;
 386:System/diskio/DiskIO.c ****         FATObj->DBR_info.HiddSec = LEndian2Word(&word_tmp);
 387:System/diskio/DiskIO.c **** 
 388:System/diskio/DiskIO.c ****         word_tmp = FATObj->DBR_info.TotSec32;
 389:System/diskio/DiskIO.c ****         FATObj->DBR_info.TotSec32 = LEndian2Word(&word_tmp);
 390:System/diskio/DiskIO.c **** 
ARM GAS  C:\Users\huav\AppData\Local\Temp\cclD56Oe.s 			page 9


 391:System/diskio/DiskIO.c ****         word_tmp = FATObj->DBR_info.FATSz32;
 392:System/diskio/DiskIO.c ****         FATObj->DBR_info.FATSz32 = LEndian2Word(&word_tmp);
 393:System/diskio/DiskIO.c **** 
 394:System/diskio/DiskIO.c ****         half_word_tmp = FATObj->DBR_info.ExtFlags;
 395:System/diskio/DiskIO.c ****         FATObj->DBR_info.ExtFlags = LEndian2HalfWord(&half_word_tmp);
 396:System/diskio/DiskIO.c **** 
 397:System/diskio/DiskIO.c ****         half_word_tmp = FATObj->DBR_info.FSVer;
 398:System/diskio/DiskIO.c ****         FATObj->DBR_info.FSVer = LEndian2HalfWord(&half_word_tmp);
 399:System/diskio/DiskIO.c **** 
 400:System/diskio/DiskIO.c ****         word_tmp = FATObj->DBR_info.RootClus;
 401:System/diskio/DiskIO.c ****         FATObj->DBR_info.RootClus = LEndian2Word(&word_tmp);
 402:System/diskio/DiskIO.c **** 
 403:System/diskio/DiskIO.c ****         half_word_tmp = FATObj->DBR_info.FSInfo;
 404:System/diskio/DiskIO.c ****         FATObj->DBR_info.FSInfo = LEndian2HalfWord(&half_word_tmp);
 405:System/diskio/DiskIO.c **** 
 406:System/diskio/DiskIO.c ****         half_word_tmp = FATObj->DBR_info.BkBootSec;
 407:System/diskio/DiskIO.c ****         FATObj->DBR_info.BkBootSec = LEndian2HalfWord(&half_word_tmp);
 408:System/diskio/DiskIO.c **** 
 409:System/diskio/DiskIO.c ****         word_tmp = FATObj->DBR_info.VolID;
 410:System/diskio/DiskIO.c ****         FATObj->DBR_info.VolID = LEndian2Word(&word_tmp);
 411:System/diskio/DiskIO.c **** 
 412:System/diskio/DiskIO.c ****         FATObj->DBR_SecNo = FATObj->disk_section_table[0].StartLBA;
 413:System/diskio/DiskIO.c ****         FATObj->BytePerSection = FATObj->DBR_info.BytesPerSec;
 414:System/diskio/DiskIO.c ****         FATObj->FAT_Sections = FATObj->DBR_info.FATSz32;
 415:System/diskio/DiskIO.c ****         FATObj->SecPerCluster = FATObj->DBR_info.SecPerClus;
 416:System/diskio/DiskIO.c ****         FATObj->Fst_FATSector = FATObj->DBR_SecNo + FATObj->DBR_info.RsvdSecCnt;
 417:System/diskio/DiskIO.c ****         FATObj->Fst_DirSector = FATObj->Fst_FATSector + FATObj->DBR_info.NumFATs * FATObj->DBR_info
 418:System/diskio/DiskIO.c ****         FATObj->Total_KBSize = FATObj->DBR_info.TotSec32;
 419:System/diskio/DiskIO.c ****     }
 420:System/diskio/DiskIO.c **** 
 421:System/diskio/DiskIO.c ****     memset(Disk_Card_SectionBuff, NULL, DISK_CARD_SENCTION_SZIE);
 422:System/diskio/DiskIO.c **** }
 423:System/diskio/DiskIO.c **** 
 424:System/diskio/DiskIO.c **** static void Disk_ParseFSINFO(Disk_FATFileSys_TypeDef *FATObj)
 425:System/diskio/DiskIO.c **** {
 426:System/diskio/DiskIO.c ****     bool error = true;
 427:System/diskio/DiskIO.c ****     Disk_CardFSINFO_Typedef FSInfo;
 428:System/diskio/DiskIO.c ****     uint32_t FSInfo_SecNo = 1;
 429:System/diskio/DiskIO.c **** 
 430:System/diskio/DiskIO.c ****     /* FSINFO section after DBR Section */
 431:System/diskio/DiskIO.c ****     if (FATObj == NULL)
 432:System/diskio/DiskIO.c ****         return;
 433:System/diskio/DiskIO.c **** 
 434:System/diskio/DiskIO.c ****     memset(&FSInfo, NULL, sizeof(FSInfo));
 435:System/diskio/DiskIO.c **** 
 436:System/diskio/DiskIO.c ****     if (FATObj->has_mbr)
 437:System/diskio/DiskIO.c ****     {
 438:System/diskio/DiskIO.c ****         FSInfo_SecNo = FATObj->disk_section_table[0].StartLBA + 1;
 439:System/diskio/DiskIO.c ****         DevCard.read(&DevTFCard_Obj.SDMMC_Obj, FATObj->disk_section_table[0].StartLBA + 1, Disk_Car
 440:System/diskio/DiskIO.c ****     }
 441:System/diskio/DiskIO.c ****     else
 442:System/diskio/DiskIO.c ****     {
 443:System/diskio/DiskIO.c ****         /* if card has no MBR section then FSInfo in the second section */
 444:System/diskio/DiskIO.c ****         DevCard.read(&DevTFCard_Obj.SDMMC_Obj, 1, Disk_Card_SectionBuff, DISK_CARD_SENCTION_SZIE, 1
 445:System/diskio/DiskIO.c ****     }
 446:System/diskio/DiskIO.c **** 
 447:System/diskio/DiskIO.c ****     memcpy(&FSInfo, Disk_Card_SectionBuff, DISK_CARD_SENCTION_SZIE);
ARM GAS  C:\Users\huav\AppData\Local\Temp\cclD56Oe.s 			page 10


 448:System/diskio/DiskIO.c **** 
 449:System/diskio/DiskIO.c ****     /* check fsinfo frame right or not */
 450:System/diskio/DiskIO.c ****     if ((memcmp(FSInfo.header, DISK_CARD_FSINFO_HEADER, sizeof(FSInfo.header)) == 0) &&
 451:System/diskio/DiskIO.c ****         (memcmp(FSInfo.ender, DISK_CARD_FSINFO_ENDER, sizeof(FSInfo.ender)) == 0) &&
 452:System/diskio/DiskIO.c ****         (FSInfo.check_end[0] == DISK_CARD_TERMINATION_BYTE_1) &&
 453:System/diskio/DiskIO.c ****         (FSInfo.check_end[1] == DISK_CARD_TERMINATION_BYTE_2))
 454:System/diskio/DiskIO.c ****     {
 455:System/diskio/DiskIO.c ****         FATObj->FSInfo_SecNo = FSInfo_SecNo;
 456:System/diskio/DiskIO.c ****         FATObj->remain_cluster = LEndian2Word(FSInfo.remain_cluster);
 457:System/diskio/DiskIO.c ****         error = false;
 458:System/diskio/DiskIO.c ****     }
 459:System/diskio/DiskIO.c ****     else
 460:System/diskio/DiskIO.c ****         FATObj->FSInfo_SecNo = 0;
 461:System/diskio/DiskIO.c **** 
 462:System/diskio/DiskIO.c ****     if (error)
 463:System/diskio/DiskIO.c ****     {
 464:System/diskio/DiskIO.c ****         ErrorLog.trigger(DevCard_Error_Handle,
 465:System/diskio/DiskIO.c ****                          DevCard_Read_FSINFO_Error,
 466:System/diskio/DiskIO.c ****                          NULL, 0);
 467:System/diskio/DiskIO.c ****     }
 468:System/diskio/DiskIO.c **** }
 469:System/diskio/DiskIO.c **** 
 470:System/diskio/DiskIO.c **** static void Disk_UpdateFSINFO(Disk_FATFileSys_TypeDef *FATObj, uint32_t remain_clus)
 471:System/diskio/DiskIO.c **** {
 472:System/diskio/DiskIO.c ****     Disk_CardFSINFO_Typedef *FSInfo_Ptr = NULL;
 473:System/diskio/DiskIO.c **** 
 474:System/diskio/DiskIO.c ****     if ((FATObj == NULL) ||
 475:System/diskio/DiskIO.c ****         (FATObj->FSInfo_SecNo == 0) ||
 476:System/diskio/DiskIO.c ****         (remain_clus > (FATObj->DBR_info.TotSec32 - FATObj->DBR_info.FATSz32 * FATObj->DBR_info.Num
 477:System/diskio/DiskIO.c ****         return;
 478:System/diskio/DiskIO.c **** 
 479:System/diskio/DiskIO.c ****     DevCard.read(&DevTFCard_Obj.SDMMC_Obj, FATObj->FSInfo_SecNo, Disk_Card_SectionBuff, DISK_CARD_S
 480:System/diskio/DiskIO.c **** 
 481:System/diskio/DiskIO.c ****     FSInfo_Ptr = Disk_Card_SectionBuff;
 482:System/diskio/DiskIO.c ****     LEndianWord2BytesArray(remain_clus, FSInfo_Ptr->remain_cluster);
 483:System/diskio/DiskIO.c **** 
 484:System/diskio/DiskIO.c ****     DevCard.write(&DevTFCard_Obj.SDMMC_Obj, FATObj->FSInfo_SecNo, Disk_Card_SectionBuff, DISK_CARD_
 485:System/diskio/DiskIO.c **** }
 486:System/diskio/DiskIO.c **** 
 487:System/diskio/DiskIO.c **** /* cluster number to section number */
 488:System/diskio/DiskIO.c **** static uint32_t Disk_Get_StartSectionOfCluster(Disk_FATFileSys_TypeDef *FATObj, FATCluster_Addr clu
 489:System/diskio/DiskIO.c **** {
  70              		.loc 1 489 1 is_stmt 1 view -0
  71              		.cfi_startproc
  72              		@ args = 0, pretend = 0, frame = 0
  73              		@ frame_needed = 0, uses_anonymous_args = 0
  74              		@ link register save eliminated.
 490:System/diskio/DiskIO.c ****     if (cluster < 2)
  75              		.loc 1 490 5 view .LVU8
  76              		.loc 1 490 8 is_stmt 0 view .LVU9
  77 0000 0129     		cmp	r1, #1
  78 0002 07D9     		bls	.L7
 491:System/diskio/DiskIO.c ****         return 0;
 492:System/diskio/DiskIO.c **** 
 493:System/diskio/DiskIO.c ****     return (((cluster - 2) * FATObj->SecPerCluster) + FATObj->Fst_DirSector);
  79              		.loc 1 493 5 is_stmt 1 view .LVU10
  80              		.loc 1 493 23 is_stmt 0 view .LVU11
ARM GAS  C:\Users\huav\AppData\Local\Temp\cclD56Oe.s 			page 11


  81 0004 0239     		subs	r1, r1, #2
  82              	.LVL4:
  83              		.loc 1 493 36 view .LVU12
  84 0006 D0F8AB30 		ldr	r3, [r0, #171]	@ unaligned
  85              		.loc 1 493 61 view .LVU13
  86 000a D0F8B300 		ldr	r0, [r0, #179]	@ unaligned
  87              	.LVL5:
  88              		.loc 1 493 53 view .LVU14
  89 000e 03FB0100 		mla	r0, r3, r1, r0
  90 0012 7047     		bx	lr
  91              	.LVL6:
  92              	.L7:
 491:System/diskio/DiskIO.c ****         return 0;
  93              		.loc 1 491 16 view .LVU15
  94 0014 0020     		movs	r0, #0
  95              	.LVL7:
 494:System/diskio/DiskIO.c **** }
  96              		.loc 1 494 1 view .LVU16
  97 0016 7047     		bx	lr
  98              		.cfi_endproc
  99              	.LFE154:
 101              		.section	.text.Disk_Search_FreeCluster,"ax",%progbits
 102              		.align	1
 103              		.syntax unified
 104              		.thumb
 105              		.thumb_func
 106              		.fpu fpv5-d16
 108              	Disk_Search_FreeCluster:
 109              	.LVL8:
 110              	.LFB156:
 495:System/diskio/DiskIO.c **** 
 496:System/diskio/DiskIO.c **** /* parse file/folder attribute */
 497:System/diskio/DiskIO.c **** static Disk_FFInfoTable_TypeDef Disk_Parse_Attribute(Disk_FATFileSys_TypeDef *FATObj, uint32_t sec)
 498:System/diskio/DiskIO.c **** {
 499:System/diskio/DiskIO.c ****     Disk_FFInfoTable_TypeDef table_tmp;
 500:System/diskio/DiskIO.c ****     Disk_CCSSFFAT_TypeDef *attr_tmp = NULL;
 501:System/diskio/DiskIO.c ****     uint32_t date_tmp = 0;
 502:System/diskio/DiskIO.c ****     uint32_t disk_section_no = 0;
 503:System/diskio/DiskIO.c ****     char name[11];
 504:System/diskio/DiskIO.c **** 
 505:System/diskio/DiskIO.c ****     memset(name, NULL, sizeof(name));
 506:System/diskio/DiskIO.c ****     memset(&table_tmp, NULL, sizeof(Disk_FFInfoTable_TypeDef));
 507:System/diskio/DiskIO.c **** 
 508:System/diskio/DiskIO.c ****     if (sec != 0)
 509:System/diskio/DiskIO.c ****     {
 510:System/diskio/DiskIO.c ****         memset(Disk_Card_SectionBuff, NULL, DISK_CARD_SENCTION_SZIE);
 511:System/diskio/DiskIO.c **** 
 512:System/diskio/DiskIO.c ****         DevCard.read(&DevTFCard_Obj.SDMMC_Obj, sec, Disk_Card_SectionBuff, DISK_CARD_SENCTION_SZIE,
 513:System/diskio/DiskIO.c **** 
 514:System/diskio/DiskIO.c ****         attr_tmp = (Disk_CCSSFFAT_TypeDef *)Disk_Card_SectionBuff;
 515:System/diskio/DiskIO.c **** 
 516:System/diskio/DiskIO.c ****         for (uint8_t i = 0; i < 16; i++)
 517:System/diskio/DiskIO.c ****         {
 518:System/diskio/DiskIO.c ****             memcpy(table_tmp.Info[i].name, attr_tmp->attribute[i].name, 8);
 519:System/diskio/DiskIO.c ****             memcpy(table_tmp.Info[i].name + 8, attr_tmp->attribute[i].ext, 3);
 520:System/diskio/DiskIO.c **** 
 521:System/diskio/DiskIO.c ****             table_tmp.Info[i].attr = attr_tmp->attribute[i].attr;
ARM GAS  C:\Users\huav\AppData\Local\Temp\cclD56Oe.s 			page 12


 522:System/diskio/DiskIO.c ****             table_tmp.Info[i].start_cluster = LEndian2HalfWord(attr_tmp->attribute[i].LowCluster) |
 523:System/diskio/DiskIO.c ****                                               (LEndian2HalfWord(attr_tmp->attribute[i].HighCluster)
 524:System/diskio/DiskIO.c ****             table_tmp.Info[i].size = LEndian2Word(attr_tmp->attribute[i].FileSize);
 525:System/diskio/DiskIO.c **** 
 526:System/diskio/DiskIO.c ****             /* parse create time */
 527:System/diskio/DiskIO.c ****             date_tmp = LEndian2HalfWord(attr_tmp->attribute[i].CreateTime);
 528:System/diskio/DiskIO.c ****             table_tmp.Info[i].create_time.sec = (date_tmp & DISK_FILE_DATE_SEC_MASK) * 2;
 529:System/diskio/DiskIO.c ****             date_tmp >>= DISK_FILE_DATE_SEC_BITS;
 530:System/diskio/DiskIO.c **** 
 531:System/diskio/DiskIO.c ****             table_tmp.Info[i].create_time.min = date_tmp & DISK_FILE_DATE_MIN_MASK;
 532:System/diskio/DiskIO.c ****             date_tmp >>= DISK_FILE_DATE_MIN_BITS;
 533:System/diskio/DiskIO.c **** 
 534:System/diskio/DiskIO.c ****             table_tmp.Info[i].create_time.hour = date_tmp & DISK_FILE_DATE_HOUR_MASK;
 535:System/diskio/DiskIO.c ****             table_tmp.Info[i].create_time.sec += (uint16_t)(attr_tmp->attribute[i].Time10Ms) / 100;
 536:System/diskio/DiskIO.c **** 
 537:System/diskio/DiskIO.c ****             /* parse create date */
 538:System/diskio/DiskIO.c ****             date_tmp = LEndian2HalfWord(attr_tmp->attribute[i].CreateDate);
 539:System/diskio/DiskIO.c ****             table_tmp.Info[i].create_date.day = date_tmp & DISK_FILE_DATE_DAY_MASK;
 540:System/diskio/DiskIO.c ****             date_tmp >>= DISK_FILE_DATE_DAY_BITS;
 541:System/diskio/DiskIO.c **** 
 542:System/diskio/DiskIO.c ****             table_tmp.Info[i].create_date.month = date_tmp & DISK_FILE_DATE_MONTH_MASK;
 543:System/diskio/DiskIO.c ****             date_tmp >>= DISK_FILE_DATE_MONTH_BITS;
 544:System/diskio/DiskIO.c **** 
 545:System/diskio/DiskIO.c ****             table_tmp.Info[i].create_date.year = date_tmp & DISK_FILE_DATE_YEAR_MASK;
 546:System/diskio/DiskIO.c ****             table_tmp.Info[i].create_date.year += DISK_FILE_DATEBASE_YEAR;
 547:System/diskio/DiskIO.c **** 
 548:System/diskio/DiskIO.c ****             /* parse modify time */
 549:System/diskio/DiskIO.c ****             date_tmp = LEndian2HalfWord(attr_tmp->attribute[i].ModifyTime);
 550:System/diskio/DiskIO.c ****             table_tmp.Info[i].modify_time.sec = (date_tmp & DISK_FILE_DATE_SEC_MASK) * 2;
 551:System/diskio/DiskIO.c ****             date_tmp >>= DISK_FILE_DATE_SEC_BITS;
 552:System/diskio/DiskIO.c **** 
 553:System/diskio/DiskIO.c ****             table_tmp.Info[i].modify_time.min = date_tmp & DISK_FILE_DATE_MIN_MASK;
 554:System/diskio/DiskIO.c ****             date_tmp >>= DISK_FILE_DATE_MIN_BITS;
 555:System/diskio/DiskIO.c **** 
 556:System/diskio/DiskIO.c ****             table_tmp.Info[i].modify_time.hour = date_tmp & DISK_FILE_DATE_HOUR_MASK;
 557:System/diskio/DiskIO.c **** 
 558:System/diskio/DiskIO.c ****             /* parse modify date */
 559:System/diskio/DiskIO.c ****             date_tmp = LEndian2HalfWord(attr_tmp->attribute[i].ModifyDate);
 560:System/diskio/DiskIO.c ****             table_tmp.Info[i].modify_date.day = date_tmp & DISK_FILE_DATE_DAY_MASK;
 561:System/diskio/DiskIO.c ****             date_tmp >>= DISK_FILE_DATE_DAY_BITS;
 562:System/diskio/DiskIO.c **** 
 563:System/diskio/DiskIO.c ****             table_tmp.Info[i].modify_date.month = date_tmp & DISK_FILE_DATE_MONTH_MASK;
 564:System/diskio/DiskIO.c ****             date_tmp >>= DISK_FILE_DATE_MONTH_BITS;
 565:System/diskio/DiskIO.c **** 
 566:System/diskio/DiskIO.c ****             table_tmp.Info[i].modify_date.year = date_tmp & DISK_FILE_DATE_YEAR_MASK;
 567:System/diskio/DiskIO.c ****             table_tmp.Info[i].modify_date.year += DISK_FILE_DATEBASE_YEAR;
 568:System/diskio/DiskIO.c **** 
 569:System/diskio/DiskIO.c ****             /* parse access date */
 570:System/diskio/DiskIO.c ****             date_tmp = LEndian2HalfWord(attr_tmp->attribute[i].AccessDate);
 571:System/diskio/DiskIO.c ****             table_tmp.Info[i].access_date.day = date_tmp & DISK_FILE_DATE_DAY_MASK;
 572:System/diskio/DiskIO.c ****             date_tmp >>= DISK_FILE_DATE_DAY_BITS;
 573:System/diskio/DiskIO.c **** 
 574:System/diskio/DiskIO.c ****             table_tmp.Info[i].access_date.month = date_tmp & DISK_FILE_DATE_MONTH_MASK;
 575:System/diskio/DiskIO.c ****             date_tmp >>= DISK_FILE_DATE_MONTH_BITS;
 576:System/diskio/DiskIO.c **** 
 577:System/diskio/DiskIO.c ****             table_tmp.Info[i].access_date.year = date_tmp & DISK_FILE_DATE_YEAR_MASK;
 578:System/diskio/DiskIO.c ****             table_tmp.Info[i].access_date.year += DISK_FILE_DATEBASE_YEAR;
ARM GAS  C:\Users\huav\AppData\Local\Temp\cclD56Oe.s 			page 13


 579:System/diskio/DiskIO.c ****         }
 580:System/diskio/DiskIO.c **** 
 581:System/diskio/DiskIO.c ****         memset(Disk_Card_SectionBuff, NULL, DISK_CARD_SENCTION_SZIE);
 582:System/diskio/DiskIO.c ****     }
 583:System/diskio/DiskIO.c **** 
 584:System/diskio/DiskIO.c ****     return table_tmp;
 585:System/diskio/DiskIO.c **** }
 586:System/diskio/DiskIO.c **** 
 587:System/diskio/DiskIO.c **** static bool Disk_Search_FreeCluster(Disk_FATFileSys_TypeDef *FATObj)
 588:System/diskio/DiskIO.c **** {
 111              		.loc 1 588 1 is_stmt 1 view -0
 112              		.cfi_startproc
 113              		@ args = 0, pretend = 0, frame = 0
 114              		@ frame_needed = 0, uses_anonymous_args = 0
 589:System/diskio/DiskIO.c ****     uint8_t Error_Code = 0;
 115              		.loc 1 589 5 view .LVU18
 590:System/diskio/DiskIO.c **** 
 591:System/diskio/DiskIO.c ****     if (FATObj == NULL)
 116              		.loc 1 591 5 view .LVU19
 117              		.loc 1 591 8 is_stmt 0 view .LVU20
 118 0000 0028     		cmp	r0, #0
 119 0002 31D0     		beq	.L15
 588:System/diskio/DiskIO.c ****     uint8_t Error_Code = 0;
 120              		.loc 1 588 1 view .LVU21
 121 0004 70B5     		push	{r4, r5, r6, lr}
 122              	.LCFI1:
 123              		.cfi_def_cfa_offset 16
 124              		.cfi_offset 4, -16
 125              		.cfi_offset 5, -12
 126              		.cfi_offset 6, -8
 127              		.cfi_offset 14, -4
 128 0006 82B0     		sub	sp, sp, #8
 129              	.LCFI2:
 130              		.cfi_def_cfa_offset 24
 131 0008 0546     		mov	r5, r0
 132              	.LBB2:
 592:System/diskio/DiskIO.c ****         return false;
 593:System/diskio/DiskIO.c **** 
 594:System/diskio/DiskIO.c ****     for (uint32_t sec_index = 0; sec_index < FATObj->FAT_Sections; sec_index++)
 133              		.loc 1 594 19 view .LVU22
 134 000a 0024     		movs	r4, #0
 135              	.LVL9:
 136              	.L10:
 137              		.loc 1 594 34 is_stmt 1 discriminator 1 view .LVU23
 138              		.loc 1 594 52 is_stmt 0 discriminator 1 view .LVU24
 139 000c D5F8A730 		ldr	r3, [r5, #167]	@ unaligned
 140              		.loc 1 594 5 discriminator 1 view .LVU25
 141 0010 A342     		cmp	r3, r4
 142 0012 1FD9     		bls	.L20
 595:System/diskio/DiskIO.c ****     {
 596:System/diskio/DiskIO.c ****         DevCard.read(&DevTFCard_Obj.SDMMC_Obj, FATObj->Fst_FATSector + sec_index, Disk_Card_Section
 143              		.loc 1 596 9 is_stmt 1 view .LVU26
 144              		.loc 1 596 16 is_stmt 0 view .LVU27
 145 0014 154B     		ldr	r3, .L23
 146 0016 5E69     		ldr	r6, [r3, #20]
 147              		.loc 1 596 54 view .LVU28
 148 0018 D5F8AF10 		ldr	r1, [r5, #175]	@ unaligned
ARM GAS  C:\Users\huav\AppData\Local\Temp\cclD56Oe.s 			page 14


 149              		.loc 1 596 9 view .LVU29
 150 001c 0123     		movs	r3, #1
 151 001e 0093     		str	r3, [sp]
 152 0020 4FF40073 		mov	r3, #512
 153 0024 124A     		ldr	r2, .L23+4
 154 0026 2144     		add	r1, r1, r4
 155 0028 1248     		ldr	r0, .L23+8
 156 002a B047     		blx	r6
 157              	.LVL10:
 597:System/diskio/DiskIO.c **** 
 598:System/diskio/DiskIO.c ****         for (uint8_t item_index = 0; item_index < DISK_FAT_CLUSTER_ITEM_SUM; item_index++)
 158              		.loc 1 598 9 is_stmt 1 view .LVU30
 159              	.LBB3:
 160              		.loc 1 598 14 view .LVU31
 161              		.loc 1 598 22 is_stmt 0 view .LVU32
 162 002c 0023     		movs	r3, #0
 163              	.LVL11:
 164              	.L11:
 165              		.loc 1 598 38 is_stmt 1 discriminator 1 view .LVU33
 166              		.loc 1 598 9 is_stmt 0 discriminator 1 view .LVU34
 167 002e 13F0800F 		tst	r3, #128
 168 0032 0DD1     		bne	.L21
 599:System/diskio/DiskIO.c ****         {
 600:System/diskio/DiskIO.c ****             if (((Disk_FAT_ItemTable_TypeDef *)Disk_Card_SectionBuff)->table_item[item_index] == 0)
 169              		.loc 1 600 13 is_stmt 1 view .LVU35
 170              		.loc 1 600 82 is_stmt 0 view .LVU36
 171 0034 0E4A     		ldr	r2, .L23+4
 172 0036 52F82320 		ldr	r2, [r2, r3, lsl #2]
 173              		.loc 1 600 16 view .LVU37
 174 003a 12B1     		cbz	r2, .L22
 598:System/diskio/DiskIO.c ****         {
 175              		.loc 1 598 78 is_stmt 1 discriminator 2 view .LVU38
 598:System/diskio/DiskIO.c ****         {
 176              		.loc 1 598 88 is_stmt 0 discriminator 2 view .LVU39
 177 003c 0133     		adds	r3, r3, #1
 178              	.LVL12:
 598:System/diskio/DiskIO.c ****         {
 179              		.loc 1 598 88 discriminator 2 view .LVU40
 180 003e DBB2     		uxtb	r3, r3
 181              	.LVL13:
 598:System/diskio/DiskIO.c ****         {
 182              		.loc 1 598 88 discriminator 2 view .LVU41
 183 0040 F5E7     		b	.L11
 184              	.L22:
 601:System/diskio/DiskIO.c ****             {
 602:System/diskio/DiskIO.c ****                 FATObj->free_cluster = sec_index * DISK_FAT_CLUSTER_ITEM_SUM + item_index;
 185              		.loc 1 602 17 is_stmt 1 view .LVU42
 186              		.loc 1 602 78 is_stmt 0 view .LVU43
 187 0042 03EBC413 		add	r3, r3, r4, lsl #7
 188              	.LVL14:
 189              		.loc 1 602 38 view .LVU44
 190 0046 C5F8BB30 		str	r3, [r5, #187]	@ unaligned
 603:System/diskio/DiskIO.c ****                 return true;
 191              		.loc 1 603 17 is_stmt 1 view .LVU45
 192              		.loc 1 603 24 is_stmt 0 view .LVU46
 193 004a 0120     		movs	r0, #1
 194              	.LVL15:
ARM GAS  C:\Users\huav\AppData\Local\Temp\cclD56Oe.s 			page 15


 195              	.L9:
 196              		.loc 1 603 24 view .LVU47
 197              	.LBE3:
 198              	.LBE2:
 604:System/diskio/DiskIO.c ****             }
 605:System/diskio/DiskIO.c ****         }
 606:System/diskio/DiskIO.c ****     }
 607:System/diskio/DiskIO.c **** 
 608:System/diskio/DiskIO.c ****     ErrorLog.trigger(DevCard_Error_Handle,
 609:System/diskio/DiskIO.c ****                      DevCard_No_FreeCluster,
 610:System/diskio/DiskIO.c ****                      NULL, 0);
 611:System/diskio/DiskIO.c **** 
 612:System/diskio/DiskIO.c ****     return false;
 613:System/diskio/DiskIO.c **** }
 199              		.loc 1 613 1 view .LVU48
 200 004c 02B0     		add	sp, sp, #8
 201              	.LCFI3:
 202              		.cfi_remember_state
 203              		.cfi_def_cfa_offset 16
 204              		@ sp needed
 205 004e 70BD     		pop	{r4, r5, r6, pc}
 206              	.LVL16:
 207              	.L21:
 208              	.LCFI4:
 209              		.cfi_restore_state
 210              	.LBB4:
 594:System/diskio/DiskIO.c ****     {
 211              		.loc 1 594 68 is_stmt 1 discriminator 2 view .LVU49
 594:System/diskio/DiskIO.c ****     {
 212              		.loc 1 594 77 is_stmt 0 discriminator 2 view .LVU50
 213 0050 0134     		adds	r4, r4, #1
 214              	.LVL17:
 594:System/diskio/DiskIO.c ****     {
 215              		.loc 1 594 77 discriminator 2 view .LVU51
 216 0052 DBE7     		b	.L10
 217              	.LVL18:
 218              	.L20:
 594:System/diskio/DiskIO.c ****     {
 219              		.loc 1 594 77 discriminator 2 view .LVU52
 220              	.LBE4:
 608:System/diskio/DiskIO.c ****                      DevCard_No_FreeCluster,
 221              		.loc 1 608 5 is_stmt 1 view .LVU53
 608:System/diskio/DiskIO.c ****                      DevCard_No_FreeCluster,
 222              		.loc 1 608 13 is_stmt 0 view .LVU54
 223 0054 084B     		ldr	r3, .L23+12
 224 0056 9C68     		ldr	r4, [r3, #8]
 225              	.LVL19:
 608:System/diskio/DiskIO.c ****                      DevCard_No_FreeCluster,
 226              		.loc 1 608 5 view .LVU55
 227 0058 0023     		movs	r3, #0
 228 005a 1A46     		mov	r2, r3
 229 005c 0621     		movs	r1, #6
 230 005e 0748     		ldr	r0, .L23+16
 231 0060 0068     		ldr	r0, [r0]
 232 0062 A047     		blx	r4
 233              	.LVL20:
 612:System/diskio/DiskIO.c **** }
ARM GAS  C:\Users\huav\AppData\Local\Temp\cclD56Oe.s 			page 16


 234              		.loc 1 612 5 is_stmt 1 view .LVU56
 612:System/diskio/DiskIO.c **** }
 235              		.loc 1 612 12 is_stmt 0 view .LVU57
 236 0064 0020     		movs	r0, #0
 237 0066 F1E7     		b	.L9
 238              	.LVL21:
 239              	.L15:
 240              	.LCFI5:
 241              		.cfi_def_cfa_offset 0
 242              		.cfi_restore 4
 243              		.cfi_restore 5
 244              		.cfi_restore 6
 245              		.cfi_restore 14
 592:System/diskio/DiskIO.c **** 
 246              		.loc 1 592 16 view .LVU58
 247 0068 0020     		movs	r0, #0
 248              	.LVL22:
 249              		.loc 1 613 1 view .LVU59
 250 006a 7047     		bx	lr
 251              	.L24:
 252              		.align	2
 253              	.L23:
 254 006c 00000000 		.word	DevCard
 255 0070 00000000 		.word	.LANCHOR1
 256 0074 00000000 		.word	.LANCHOR0
 257 0078 00000000 		.word	ErrorLog
 258 007c 00000000 		.word	.LANCHOR2
 259              		.cfi_endproc
 260              	.LFE156:
 262              		.section	.text.Disk_GetClusterState,"ax",%progbits
 263              		.align	1
 264              		.syntax unified
 265              		.thumb
 266              		.thumb_func
 267              		.fpu fpv5-d16
 269              	Disk_GetClusterState:
 270              	.LVL23:
 271              	.LFB157:
 614:System/diskio/DiskIO.c **** 
 615:System/diskio/DiskIO.c **** static DiskFATCluster_State_List Disk_GetClusterState(FATCluster_Addr cluster)
 616:System/diskio/DiskIO.c **** {
 272              		.loc 1 616 1 is_stmt 1 view -0
 273              		.cfi_startproc
 274              		@ args = 0, pretend = 0, frame = 0
 275              		@ frame_needed = 0, uses_anonymous_args = 0
 276              		@ link register save eliminated.
 617:System/diskio/DiskIO.c ****     if (cluster == DISK_FAT_CLUSTER_IDLE_WORLD)
 277              		.loc 1 617 5 view .LVU61
 278              		.loc 1 617 8 is_stmt 0 view .LVU62
 279 0000 80B1     		cbz	r0, .L27
 618:System/diskio/DiskIO.c ****         return Disk_FATCluster_Idle;
 619:System/diskio/DiskIO.c **** 
 620:System/diskio/DiskIO.c ****     if (cluster == DISK_FAT_CLUSTER_BAD_WORLD)
 280              		.loc 1 620 5 is_stmt 1 view .LVU63
 281              		.loc 1 620 8 is_stmt 0 view .LVU64
 282 0002 0D4A     		ldr	r2, .L32
 283 0004 9042     		cmp	r0, r2
ARM GAS  C:\Users\huav\AppData\Local\Temp\cclD56Oe.s 			page 17


 284 0006 0FD0     		beq	.L28
 621:System/diskio/DiskIO.c ****         return Disk_FATCluster_Bad;
 622:System/diskio/DiskIO.c **** 
 623:System/diskio/DiskIO.c ****     if ((cluster >= DISK_FAT_CLUSTER_ALLOC_MIN_WORLD) &&
 285              		.loc 1 623 5 is_stmt 1 view .LVU65
 286              		.loc 1 623 55 is_stmt 0 view .LVU66
 287 0008 811E     		subs	r1, r0, #2
 288              		.loc 1 623 8 view .LVU67
 289 000a 0A3A     		subs	r2, r2, #10
 290 000c 9142     		cmp	r1, r2
 291 000e 0DD9     		bls	.L29
 624:System/diskio/DiskIO.c ****         (cluster <= DISK_FAT_CLUSTER_ALLOC_MAX_WORLD))
 625:System/diskio/DiskIO.c ****         return Disk_FATCluster_Alloc;
 626:System/diskio/DiskIO.c **** 
 627:System/diskio/DiskIO.c ****     if ((cluster >= DISK_FAT_CLUSTER_SYSRES_MIN_WORLD) &&
 292              		.loc 1 627 5 is_stmt 1 view .LVU68
 293              		.loc 1 627 56 is_stmt 0 view .LVU69
 294 0010 0A4A     		ldr	r2, .L32+4
 295 0012 0244     		add	r2, r2, r0
 296              		.loc 1 627 8 view .LVU70
 297 0014 062A     		cmp	r2, #6
 298 0016 0BD9     		bls	.L30
 628:System/diskio/DiskIO.c ****         (cluster <= DISK_FAT_CLUSTER_SYSRES_MAX_WORLD))
 629:System/diskio/DiskIO.c ****         return Disk_FATCluster_SysRes;
 630:System/diskio/DiskIO.c **** 
 631:System/diskio/DiskIO.c ****     if ((cluster >= DISK_FAT_CLUSTER_END_MIN_WORLD) &&
 299              		.loc 1 631 5 is_stmt 1 view .LVU71
 300              		.loc 1 631 53 is_stmt 0 view .LVU72
 301 0018 094A     		ldr	r2, .L32+8
 302 001a 0244     		add	r2, r2, r0
 303              		.loc 1 631 8 view .LVU73
 304 001c 072A     		cmp	r2, #7
 305 001e 09D9     		bls	.L31
 632:System/diskio/DiskIO.c ****         (cluster <= DISK_FAT_CLUSTER_END_MAX_WORLD))
 633:System/diskio/DiskIO.c ****         return Disk_FATCluster_End;
 634:System/diskio/DiskIO.c **** 
 635:System/diskio/DiskIO.c ****     return Disk_FATCluster_Unknow;
 306              		.loc 1 635 12 view .LVU74
 307 0020 0020     		movs	r0, #0
 308              	.LVL24:
 309              		.loc 1 635 12 view .LVU75
 310 0022 7047     		bx	lr
 311              	.LVL25:
 312              	.L27:
 618:System/diskio/DiskIO.c **** 
 313              		.loc 1 618 16 view .LVU76
 314 0024 0120     		movs	r0, #1
 315              	.LVL26:
 618:System/diskio/DiskIO.c **** 
 316              		.loc 1 618 16 view .LVU77
 317 0026 7047     		bx	lr
 318              	.LVL27:
 319              	.L28:
 621:System/diskio/DiskIO.c **** 
 320              		.loc 1 621 16 view .LVU78
 321 0028 0420     		movs	r0, #4
 322              	.LVL28:
ARM GAS  C:\Users\huav\AppData\Local\Temp\cclD56Oe.s 			page 18


 621:System/diskio/DiskIO.c **** 
 323              		.loc 1 621 16 view .LVU79
 324 002a 7047     		bx	lr
 325              	.LVL29:
 326              	.L29:
 625:System/diskio/DiskIO.c **** 
 327              		.loc 1 625 16 view .LVU80
 328 002c 0220     		movs	r0, #2
 329              	.LVL30:
 625:System/diskio/DiskIO.c **** 
 330              		.loc 1 625 16 view .LVU81
 331 002e 7047     		bx	lr
 332              	.LVL31:
 333              	.L30:
 629:System/diskio/DiskIO.c **** 
 334              		.loc 1 629 16 view .LVU82
 335 0030 0320     		movs	r0, #3
 336              	.LVL32:
 629:System/diskio/DiskIO.c **** 
 337              		.loc 1 629 16 view .LVU83
 338 0032 7047     		bx	lr
 339              	.LVL33:
 340              	.L31:
 633:System/diskio/DiskIO.c **** 
 341              		.loc 1 633 16 view .LVU84
 342 0034 0520     		movs	r0, #5
 343              	.LVL34:
 636:System/diskio/DiskIO.c **** }
 344              		.loc 1 636 1 view .LVU85
 345 0036 7047     		bx	lr
 346              	.L33:
 347              		.align	2
 348              	.L32:
 349 0038 F7FFFF0F 		.word	268435447
 350 003c 100000F0 		.word	-268435440
 351 0040 080000F0 		.word	-268435448
 352              		.cfi_endproc
 353              	.LFE157:
 355              		.section	.rodata.Disk_ExtModule_InitError.str1.4,"aMS",%progbits,1
 356              		.align	2
 357              	.LC0:
 358 0000 20202020 		.ascii	"    TF Card Error Code: %d\015\012\000"
 358      54462043 
 358      61726420 
 358      4572726F 
 358      7220436F 
 359              		.section	.text.Disk_ExtModule_InitError,"ax",%progbits
 360              		.align	1
 361              		.syntax unified
 362              		.thumb
 363              		.thumb_func
 364              		.fpu fpv5-d16
 366              	Disk_ExtModule_InitError:
 367              	.LVL35:
 368              	.LFB175:
 637:System/diskio/DiskIO.c **** 
 638:System/diskio/DiskIO.c **** static bool Disk_isFolder(const uint8_t attr)
ARM GAS  C:\Users\huav\AppData\Local\Temp\cclD56Oe.s 			page 19


 639:System/diskio/DiskIO.c **** {
 640:System/diskio/DiskIO.c ****     if (attr & Disk_File_Sd)
 641:System/diskio/DiskIO.c ****         return true;
 642:System/diskio/DiskIO.c **** 
 643:System/diskio/DiskIO.c ****     return false;
 644:System/diskio/DiskIO.c **** }
 645:System/diskio/DiskIO.c **** 
 646:System/diskio/DiskIO.c **** /* get cluster number from FAT table */
 647:System/diskio/DiskIO.c **** static FATCluster_Addr Disk_Get_NextCluster(Disk_FATFileSys_TypeDef *FATObj, FATCluster_Addr cluste
 648:System/diskio/DiskIO.c **** {
 649:System/diskio/DiskIO.c ****     FATCluster_Addr clu_sec = 0;
 650:System/diskio/DiskIO.c ****     Disk_FAT_ItemTable_TypeDef *FAT_Table = NULL;
 651:System/diskio/DiskIO.c ****     FATCluster_Addr FATAddr_Tmp = 0;
 652:System/diskio/DiskIO.c **** 
 653:System/diskio/DiskIO.c ****     clu_sec = (cluster / DISK_FAT_CLUSTER_ITEM_SUM) + FATObj->Fst_FATSector;
 654:System/diskio/DiskIO.c **** 
 655:System/diskio/DiskIO.c ****     DevCard.read(&DevTFCard_Obj.SDMMC_Obj, clu_sec, Disk_Card_SectionBuff, DISK_CARD_SENCTION_SZIE,
 656:System/diskio/DiskIO.c **** 
 657:System/diskio/DiskIO.c ****     FAT_Table = (Disk_FAT_ItemTable_TypeDef *)Disk_Card_SectionBuff;
 658:System/diskio/DiskIO.c ****     FATAddr_Tmp = FAT_Table->table_item[cluster % DISK_FAT_CLUSTER_ITEM_SUM];
 659:System/diskio/DiskIO.c **** 
 660:System/diskio/DiskIO.c ****     return LEndian2Word(&FATAddr_Tmp);
 661:System/diskio/DiskIO.c **** }
 662:System/diskio/DiskIO.c **** 
 663:System/diskio/DiskIO.c **** static uint32_t Disk_GetPath_Layer(const char *fpath)
 664:System/diskio/DiskIO.c **** {
 665:System/diskio/DiskIO.c ****     uint32_t layer = 0;
 666:System/diskio/DiskIO.c ****     char *fpath_remain = fpath;
 667:System/diskio/DiskIO.c **** 
 668:System/diskio/DiskIO.c ****     while (fpath_remain != 0)
 669:System/diskio/DiskIO.c ****     {
 670:System/diskio/DiskIO.c ****         fpath_remain = strchr(fpath_remain, DISK_FOLDER_STRTOK_MARK);
 671:System/diskio/DiskIO.c **** 
 672:System/diskio/DiskIO.c ****         if (fpath_remain == 0)
 673:System/diskio/DiskIO.c ****         {
 674:System/diskio/DiskIO.c ****             break;
 675:System/diskio/DiskIO.c ****         }
 676:System/diskio/DiskIO.c ****         else
 677:System/diskio/DiskIO.c ****         {
 678:System/diskio/DiskIO.c ****             layer++;
 679:System/diskio/DiskIO.c ****             fpath_remain += 1;
 680:System/diskio/DiskIO.c ****         }
 681:System/diskio/DiskIO.c ****     }
 682:System/diskio/DiskIO.c **** 
 683:System/diskio/DiskIO.c ****     return layer;
 684:System/diskio/DiskIO.c **** }
 685:System/diskio/DiskIO.c **** 
 686:System/diskio/DiskIO.c **** static bool Disk_GetFolderName_ByIndex(const char *fpath, uint32_t index, char *token)
 687:System/diskio/DiskIO.c **** {
 688:System/diskio/DiskIO.c ****     char *fpath_match = NULL;
 689:System/diskio/DiskIO.c ****     char *fpath_tmp = NULL;
 690:System/diskio/DiskIO.c **** 
 691:System/diskio/DiskIO.c ****     fpath_tmp = (char *)MMU_Malloc(strlen(fpath) + 1);
 692:System/diskio/DiskIO.c ****     if (fpath_tmp == NULL)
 693:System/diskio/DiskIO.c ****     {
 694:System/diskio/DiskIO.c ****         MMU_Free(fpath_tmp);
 695:System/diskio/DiskIO.c ****         return false;
ARM GAS  C:\Users\huav\AppData\Local\Temp\cclD56Oe.s 			page 20


 696:System/diskio/DiskIO.c ****     }
 697:System/diskio/DiskIO.c **** 
 698:System/diskio/DiskIO.c ****     fpath_match = (char *)MMU_Malloc(strlen(fpath) + 1);
 699:System/diskio/DiskIO.c ****     if (fpath_match == NULL)
 700:System/diskio/DiskIO.c ****     {
 701:System/diskio/DiskIO.c ****         MMU_Free(fpath_match);
 702:System/diskio/DiskIO.c ****         return false;
 703:System/diskio/DiskIO.c ****     }
 704:System/diskio/DiskIO.c **** 
 705:System/diskio/DiskIO.c ****     memset(fpath_match, '\0', strlen(fpath));
 706:System/diskio/DiskIO.c ****     memset(fpath_tmp, '\0', strlen(fpath));
 707:System/diskio/DiskIO.c ****     memcpy(fpath_tmp, fpath, strlen(fpath));
 708:System/diskio/DiskIO.c **** 
 709:System/diskio/DiskIO.c ****     fpath_match = strtok(fpath_tmp, DISK_FOLDER_STRTOK_SYMBOL);
 710:System/diskio/DiskIO.c **** 
 711:System/diskio/DiskIO.c ****     while (index)
 712:System/diskio/DiskIO.c ****     {
 713:System/diskio/DiskIO.c ****         memcpy(fpath_tmp, fpath, strlen(fpath));
 714:System/diskio/DiskIO.c **** 
 715:System/diskio/DiskIO.c ****         fpath_match = strtok(NULL, DISK_FOLDER_STRTOK_SYMBOL);
 716:System/diskio/DiskIO.c **** 
 717:System/diskio/DiskIO.c ****         if (fpath_match == NULL)
 718:System/diskio/DiskIO.c ****         {
 719:System/diskio/DiskIO.c ****             MMU_Free(fpath_tmp);
 720:System/diskio/DiskIO.c ****             MMU_Free(fpath_match);
 721:System/diskio/DiskIO.c ****             return false;
 722:System/diskio/DiskIO.c ****         }
 723:System/diskio/DiskIO.c **** 
 724:System/diskio/DiskIO.c ****         index--;
 725:System/diskio/DiskIO.c ****     }
 726:System/diskio/DiskIO.c **** 
 727:System/diskio/DiskIO.c ****     memcpy(token, fpath_match, strlen(fpath_match));
 728:System/diskio/DiskIO.c **** 
 729:System/diskio/DiskIO.c ****     MMU_Free(fpath_tmp);
 730:System/diskio/DiskIO.c ****     MMU_Free(fpath_match);
 731:System/diskio/DiskIO.c ****     return true;
 732:System/diskio/DiskIO.c **** }
 733:System/diskio/DiskIO.c **** 
 734:System/diskio/DiskIO.c **** /*
 735:System/diskio/DiskIO.c ****  *   match short file name funcution
 736:System/diskio/DiskIO.c ****  *   f_name: current file name
 737:System/diskio/DiskIO.c ****  *   m_name: match target file name
 738:System/diskio/DiskIO.c ****  */
 739:System/diskio/DiskIO.c **** static bool Disk_SFN_Match(char *f_name, char *m_name)
 740:System/diskio/DiskIO.c **** {
 741:System/diskio/DiskIO.c ****     char fn_tmp[11] = {'\0'};
 742:System/diskio/DiskIO.c ****     char mn_tmp[11] = {'\0'};
 743:System/diskio/DiskIO.c **** 
 744:System/diskio/DiskIO.c ****     memcpy(fn_tmp, f_name, 11);
 745:System/diskio/DiskIO.c ****     memcpy(mn_tmp, m_name, 11);
 746:System/diskio/DiskIO.c **** 
 747:System/diskio/DiskIO.c ****     if (memcmp(fn_tmp, mn_tmp, 11) != 0)
 748:System/diskio/DiskIO.c ****         return false;
 749:System/diskio/DiskIO.c **** 
 750:System/diskio/DiskIO.c ****     return true;
 751:System/diskio/DiskIO.c **** }
 752:System/diskio/DiskIO.c **** 
ARM GAS  C:\Users\huav\AppData\Local\Temp\cclD56Oe.s 			page 21


 753:System/diskio/DiskIO.c **** /*
 754:System/diskio/DiskIO.c ****  *  check SFN frame legal or not
 755:System/diskio/DiskIO.c ****  *  SFN short file name
 756:System/diskio/DiskIO.c ****  *   f_n SFN file name
 757:System/diskio/DiskIO.c ****  *   e_n SFN extend file name
 758:System/diskio/DiskIO.c ****  */
 759:System/diskio/DiskIO.c **** static bool Disk_SFN_LegallyCheck(char *f_name)
 760:System/diskio/DiskIO.c **** {
 761:System/diskio/DiskIO.c ****     char f_name_tmp[64] = {'\0'};
 762:System/diskio/DiskIO.c ****     char *f_n = NULL;
 763:System/diskio/DiskIO.c ****     char *e_n = NULL;
 764:System/diskio/DiskIO.c ****     uint8_t file_char_Ucase = 0;
 765:System/diskio/DiskIO.c ****     uint8_t file_char_Lcase = 0;
 766:System/diskio/DiskIO.c ****     uint8_t extend_char_Ucase = 0;
 767:System/diskio/DiskIO.c ****     uint8_t extend_char_Lcase = 0;
 768:System/diskio/DiskIO.c ****     const char illegal_letter_list[] = {'\\', '/', ':', '*', '?', '<', '>', '|', '"'};
 769:System/diskio/DiskIO.c **** 
 770:System/diskio/DiskIO.c ****     if ((f_name == NULL) || (strlen(f_name) > sizeof(f_name_tmp)))
 771:System/diskio/DiskIO.c ****         return false;
 772:System/diskio/DiskIO.c **** 
 773:System/diskio/DiskIO.c ****     memcpy(f_name_tmp, f_name, strlen(f_name));
 774:System/diskio/DiskIO.c **** 
 775:System/diskio/DiskIO.c ****     f_n = strtok(f_name_tmp, SFN_EXTEND_SPLIT_SYMBOL);
 776:System/diskio/DiskIO.c **** 
 777:System/diskio/DiskIO.c ****     if (f_n == NULL)
 778:System/diskio/DiskIO.c ****         return false;
 779:System/diskio/DiskIO.c **** 
 780:System/diskio/DiskIO.c ****     e_n = strtok(NULL, SFN_EXTEND_SPLIT_SYMBOL);
 781:System/diskio/DiskIO.c **** 
 782:System/diskio/DiskIO.c ****     /* test code */
 783:System/diskio/DiskIO.c ****     volatile uint8_t f_n_len = 0;
 784:System/diskio/DiskIO.c ****     volatile uint8_t e_n_len = 0;
 785:System/diskio/DiskIO.c **** 
 786:System/diskio/DiskIO.c ****     f_n_len = strlen(f_n);
 787:System/diskio/DiskIO.c ****     e_n_len = strlen(e_n);
 788:System/diskio/DiskIO.c ****     /* test code */
 789:System/diskio/DiskIO.c **** 
 790:System/diskio/DiskIO.c ****     /* step 1 file name size check 0 < f_n length <= 8 && 0 <= e_n length <= 3 */
 791:System/diskio/DiskIO.c ****     if ((strlen(f_n) > 0) &&
 792:System/diskio/DiskIO.c ****         (strlen(f_n) <= SFN_FILE_NAME_MAX_LENGTH) &&
 793:System/diskio/DiskIO.c ****         (strlen(e_n) >= 0) &&
 794:System/diskio/DiskIO.c ****         (strlen(e_n) <= SFN_EXTEND_NAME_MAX_LENGTH))
 795:System/diskio/DiskIO.c ****     {
 796:System/diskio/DiskIO.c ****         /* step 2 all Character legally check */
 797:System/diskio/DiskIO.c ****         for (uint8_t i = 0; i < sizeof(illegal_letter_list); i++)
 798:System/diskio/DiskIO.c ****         {
 799:System/diskio/DiskIO.c ****             if (strchr(e_n, illegal_letter_list[i]) != NULL)
 800:System/diskio/DiskIO.c ****                 return false;
 801:System/diskio/DiskIO.c **** 
 802:System/diskio/DiskIO.c ****             if (strchr(f_n, illegal_letter_list[i]) != NULL)
 803:System/diskio/DiskIO.c ****                 return false;
 804:System/diskio/DiskIO.c ****         }
 805:System/diskio/DiskIO.c **** 
 806:System/diskio/DiskIO.c ****         /* step 3 check Character case */
 807:System/diskio/DiskIO.c ****         for (uint8_t i = 0; i < SFN_FILE_NAME_MAX_LENGTH; i++)
 808:System/diskio/DiskIO.c ****         {
 809:System/diskio/DiskIO.c ****             if (i < SFN_EXTEND_NAME_MAX_LENGTH)
ARM GAS  C:\Users\huav\AppData\Local\Temp\cclD56Oe.s 			page 22


 810:System/diskio/DiskIO.c ****             {
 811:System/diskio/DiskIO.c ****                 if (e_n != 0x00)
 812:System/diskio/DiskIO.c ****                 {
 813:System/diskio/DiskIO.c ****                     if (isupper(e_n[i]))
 814:System/diskio/DiskIO.c ****                         extend_char_Ucase++;
 815:System/diskio/DiskIO.c **** 
 816:System/diskio/DiskIO.c ****                     if (islower(e_n[i]))
 817:System/diskio/DiskIO.c ****                         extend_char_Lcase++;
 818:System/diskio/DiskIO.c ****                 }
 819:System/diskio/DiskIO.c ****             }
 820:System/diskio/DiskIO.c **** 
 821:System/diskio/DiskIO.c ****             if (f_n != 0x00)
 822:System/diskio/DiskIO.c ****             {
 823:System/diskio/DiskIO.c ****                 if (isupper(f_n[i]))
 824:System/diskio/DiskIO.c ****                     file_char_Ucase++;
 825:System/diskio/DiskIO.c **** 
 826:System/diskio/DiskIO.c ****                 if (islower(f_n[i]))
 827:System/diskio/DiskIO.c ****                     file_char_Lcase++;
 828:System/diskio/DiskIO.c ****             }
 829:System/diskio/DiskIO.c ****         }
 830:System/diskio/DiskIO.c **** 
 831:System/diskio/DiskIO.c ****         if (((file_char_Lcase == 0) && (extend_char_Lcase == 0)) || ((extend_char_Ucase == 0) && (f
 832:System/diskio/DiskIO.c ****             return true;
 833:System/diskio/DiskIO.c ****     }
 834:System/diskio/DiskIO.c **** 
 835:System/diskio/DiskIO.c ****     return false;
 836:System/diskio/DiskIO.c **** }
 837:System/diskio/DiskIO.c **** 
 838:System/diskio/DiskIO.c **** /*
 839:System/diskio/DiskIO.c ****  * convert input file name to 8 3 Frame Mode
 840:System/diskio/DiskIO.c ****  * 8 is file or folder name max name len is 8byte
 841:System/diskio/DiskIO.c ****  * 3 is extend file name max len is 3byte
 842:System/diskio/DiskIO.c ****  * ALL letter will convert to captial
 843:System/diskio/DiskIO.c ****  */
 844:System/diskio/DiskIO.c **** static bool Disk_Name_ConvertTo83Frame(const char *n_in, char *n_out)
 845:System/diskio/DiskIO.c **** {
 846:System/diskio/DiskIO.c ****     char *n_in_tmp = n_in;
 847:System/diskio/DiskIO.c ****     char *file_name_tmp = NULL;
 848:System/diskio/DiskIO.c ****     char *ext_name_tmp = NULL;
 849:System/diskio/DiskIO.c ****     char file_name[8];
 850:System/diskio/DiskIO.c ****     char ext_file_name[3];
 851:System/diskio/DiskIO.c **** 
 852:System/diskio/DiskIO.c ****     memset(file_name, NULL, sizeof(file_name));
 853:System/diskio/DiskIO.c ****     memset(ext_file_name, NULL, sizeof(ext_file_name));
 854:System/diskio/DiskIO.c **** 
 855:System/diskio/DiskIO.c ****     if ((n_in_tmp == NULL) || (n_out == NULL) || !Disk_SFN_LegallyCheck(n_in_tmp))
 856:System/diskio/DiskIO.c ****         return false;
 857:System/diskio/DiskIO.c **** 
 858:System/diskio/DiskIO.c ****     file_name_tmp = strtok(n_in_tmp, SFN_EXTEND_SPLIT_SYMBOL);
 859:System/diskio/DiskIO.c ****     ext_name_tmp = strtok(NULL, SFN_EXTEND_SPLIT_SYMBOL);
 860:System/diskio/DiskIO.c **** 
 861:System/diskio/DiskIO.c ****     if (file_name_tmp == NULL)
 862:System/diskio/DiskIO.c ****         return false;
 863:System/diskio/DiskIO.c **** 
 864:System/diskio/DiskIO.c ****     for (uint8_t i = 0; i < sizeof(file_name); i++)
 865:System/diskio/DiskIO.c ****     {
 866:System/diskio/DiskIO.c ****         if (i < strlen(file_name_tmp))
ARM GAS  C:\Users\huav\AppData\Local\Temp\cclD56Oe.s 			page 23


 867:System/diskio/DiskIO.c ****         {
 868:System/diskio/DiskIO.c ****             if ((file_name_tmp[i] >= 'a') || (file_name_tmp[i] <= 'z'))
 869:System/diskio/DiskIO.c ****             {
 870:System/diskio/DiskIO.c ****                 file_name[i] = toupper(file_name_tmp[i]);
 871:System/diskio/DiskIO.c ****             }
 872:System/diskio/DiskIO.c ****             else
 873:System/diskio/DiskIO.c ****                 file_name[i] = file_name_tmp[i];
 874:System/diskio/DiskIO.c ****         }
 875:System/diskio/DiskIO.c ****         else
 876:System/diskio/DiskIO.c ****             file_name[i] = 0x20;
 877:System/diskio/DiskIO.c ****     }
 878:System/diskio/DiskIO.c **** 
 879:System/diskio/DiskIO.c ****     for (uint8_t i = 0; i < sizeof(ext_file_name); i++)
 880:System/diskio/DiskIO.c ****     {
 881:System/diskio/DiskIO.c ****         if (i < strlen(ext_name_tmp))
 882:System/diskio/DiskIO.c ****         {
 883:System/diskio/DiskIO.c ****             if ((ext_name_tmp[i] >= 'a') || (ext_name_tmp[i] <= 'z'))
 884:System/diskio/DiskIO.c ****             {
 885:System/diskio/DiskIO.c ****                 ext_file_name[i] = toupper(ext_name_tmp[i]);
 886:System/diskio/DiskIO.c ****             }
 887:System/diskio/DiskIO.c ****             else
 888:System/diskio/DiskIO.c ****                 ext_file_name[i] = ext_name_tmp[i];
 889:System/diskio/DiskIO.c ****         }
 890:System/diskio/DiskIO.c ****         else
 891:System/diskio/DiskIO.c ****             ext_file_name[i] = 0x20;
 892:System/diskio/DiskIO.c ****     }
 893:System/diskio/DiskIO.c **** 
 894:System/diskio/DiskIO.c ****     memcpy(n_out, file_name, sizeof(file_name));
 895:System/diskio/DiskIO.c ****     memcpy(n_out + sizeof(file_name), ext_file_name, sizeof(ext_file_name));
 896:System/diskio/DiskIO.c **** 
 897:System/diskio/DiskIO.c ****     return true;
 898:System/diskio/DiskIO.c **** }
 899:System/diskio/DiskIO.c **** 
 900:System/diskio/DiskIO.c **** static bool Disk_Fill_Attr(const char *name, Disk_StorageData_TypeDef type, Disk_FFAttr_TypeDef *At
 901:System/diskio/DiskIO.c **** {
 902:System/diskio/DiskIO.c ****     char Name_Frame83[11];
 903:System/diskio/DiskIO.c ****     uint16_t half_cluster = 0;
 904:System/diskio/DiskIO.c **** 
 905:System/diskio/DiskIO.c ****     /* ptr check */
 906:System/diskio/DiskIO.c ****     if ((name == NULL) || (Attr_Out == NULL) ||
 907:System/diskio/DiskIO.c ****         /* file type check */
 908:System/diskio/DiskIO.c ****         (type < Disk_DataType_File) || (type > Disk_DataType_Folder) ||
 909:System/diskio/DiskIO.c ****         /* name legally check */
 910:System/diskio/DiskIO.c ****         !Disk_SFN_LegallyCheck(name))
 911:System/diskio/DiskIO.c ****         return false;
 912:System/diskio/DiskIO.c **** 
 913:System/diskio/DiskIO.c ****     memset(Name_Frame83, '\0', sizeof(Name_Frame83));
 914:System/diskio/DiskIO.c **** 
 915:System/diskio/DiskIO.c ****     Disk_Name_ConvertTo83Frame(name, Name_Frame83);
 916:System/diskio/DiskIO.c ****     memcpy(Attr_Out->name, Name_Frame83, sizeof(Name_Frame83));
 917:System/diskio/DiskIO.c **** 
 918:System/diskio/DiskIO.c ****     if (type == Disk_DataType_Folder)
 919:System/diskio/DiskIO.c ****     {
 920:System/diskio/DiskIO.c ****         Attr_Out->attr = Disk_File_Sd | Disk_File_RW | Disk_File_Pf;
 921:System/diskio/DiskIO.c **** 
 922:System/diskio/DiskIO.c ****         /* set cluster */
 923:System/diskio/DiskIO.c ****         half_cluster = cluster & 0xFFFF0000;
ARM GAS  C:\Users\huav\AppData\Local\Temp\cclD56Oe.s 			page 24


 924:System/diskio/DiskIO.c ****         half_cluster >>= 16;
 925:System/diskio/DiskIO.c ****         Attr_Out->HighCluster[0] = half_cluster;
 926:System/diskio/DiskIO.c ****         Attr_Out->HighCluster[1] = half_cluster >> 8;
 927:System/diskio/DiskIO.c **** 
 928:System/diskio/DiskIO.c ****         half_cluster = cluster & 0x0000FFFF;
 929:System/diskio/DiskIO.c ****         Attr_Out->LowCluster[0] = half_cluster;
 930:System/diskio/DiskIO.c ****         Attr_Out->LowCluster[1] = half_cluster >> 8;
 931:System/diskio/DiskIO.c ****     }
 932:System/diskio/DiskIO.c ****     else
 933:System/diskio/DiskIO.c ****         Attr_Out->attr = Disk_File_Pf;
 934:System/diskio/DiskIO.c **** 
 935:System/diskio/DiskIO.c ****     uint16_t t_date = GEN_DATE(DISK_FILE_DEFAULT_YEAR, DISK_FILE_DEFAULT_MONTH, DISK_FILE_DEFAULT_D
 936:System/diskio/DiskIO.c ****     uint16_t t_time = GEN_TIME(DISK_FILE_DEFAULT_HOUR, DISK_FILE_DEFAULT_MIN, DISK_FILE_DEFAULT_SEC
 937:System/diskio/DiskIO.c **** 
 938:System/diskio/DiskIO.c ****     Attr_Out->Time10Ms = 0;
 939:System/diskio/DiskIO.c **** 
 940:System/diskio/DiskIO.c ****     Attr_Out->CreateDate[0] = (uint8_t)t_date;
 941:System/diskio/DiskIO.c ****     Attr_Out->CreateDate[1] = (uint8_t)(t_date >> 8);
 942:System/diskio/DiskIO.c **** 
 943:System/diskio/DiskIO.c ****     Attr_Out->CreateTime[0] = (uint8_t)t_time;
 944:System/diskio/DiskIO.c ****     Attr_Out->CreateTime[1] = (uint8_t)(t_time >> 8);
 945:System/diskio/DiskIO.c **** 
 946:System/diskio/DiskIO.c ****     Attr_Out->ModifyDate[0] = (uint8_t)t_date;
 947:System/diskio/DiskIO.c ****     Attr_Out->ModifyDate[1] = (uint8_t)(t_date >> 8);
 948:System/diskio/DiskIO.c **** 
 949:System/diskio/DiskIO.c ****     Attr_Out->ModifyTime[0] = (uint8_t)t_date;
 950:System/diskio/DiskIO.c ****     Attr_Out->ModifyTime[1] = (uint8_t)(t_time >> 8);
 951:System/diskio/DiskIO.c **** 
 952:System/diskio/DiskIO.c ****     Attr_Out->LowerCase = 0x18;
 953:System/diskio/DiskIO.c **** 
 954:System/diskio/DiskIO.c ****     memset(Attr_Out->FileSize, 0, sizeof(Attr_Out->FileSize));
 955:System/diskio/DiskIO.c **** 
 956:System/diskio/DiskIO.c ****     return true;
 957:System/diskio/DiskIO.c **** }
 958:System/diskio/DiskIO.c **** 
 959:System/diskio/DiskIO.c **** static bool Disk_Establish_ClusterLink(Disk_FATFileSys_TypeDef *FATObj, const FATCluster_Addr cur_c
 960:System/diskio/DiskIO.c **** {
 961:System/diskio/DiskIO.c ****     uint32_t sec_index = 0;
 962:System/diskio/DiskIO.c ****     uint32_t sec_item_index = 0;
 963:System/diskio/DiskIO.c ****     uint32_t *Data_Ptr = NULL;
 964:System/diskio/DiskIO.c **** 
 965:System/diskio/DiskIO.c ****     /* FAT1 equal to FAT2 */
 966:System/diskio/DiskIO.c ****     if ((FATObj == NULL) || (cur_cluster < 2) || (nxt_cluster < 2))
 967:System/diskio/DiskIO.c ****         return false;
 968:System/diskio/DiskIO.c **** 
 969:System/diskio/DiskIO.c ****     sec_index = FATObj->Fst_FATSector + (cur_cluster * sizeof(FATCluster_Addr)) / FATObj->BytePerSe
 970:System/diskio/DiskIO.c ****     sec_item_index = (cur_cluster * sizeof(FATCluster_Addr)) % FATObj->BytePerSection;
 971:System/diskio/DiskIO.c **** 
 972:System/diskio/DiskIO.c ****     DevCard.read(&DevTFCard_Obj.SDMMC_Obj, sec_index, Disk_Card_SectionBuff, DISK_CARD_SENCTION_SZI
 973:System/diskio/DiskIO.c **** 
 974:System/diskio/DiskIO.c ****     Data_Ptr = &Disk_Card_SectionBuff[sec_item_index];
 975:System/diskio/DiskIO.c ****     LEndianWord2BytesArray(nxt_cluster, Data_Ptr);
 976:System/diskio/DiskIO.c **** 
 977:System/diskio/DiskIO.c ****     /* Update FAT1 Table */
 978:System/diskio/DiskIO.c ****     DevCard.write(&DevTFCard_Obj.SDMMC_Obj, sec_index, Disk_Card_SectionBuff, DISK_CARD_SENCTION_SZ
 979:System/diskio/DiskIO.c **** 
 980:System/diskio/DiskIO.c ****     /* Update FAT2 Table */
ARM GAS  C:\Users\huav\AppData\Local\Temp\cclD56Oe.s 			page 25


 981:System/diskio/DiskIO.c ****     sec_index += FATObj->FAT_Sections;
 982:System/diskio/DiskIO.c ****     DevCard.read(&DevTFCard_Obj.SDMMC_Obj, sec_index, Disk_Card_SectionBuff, DISK_CARD_SENCTION_SZI
 983:System/diskio/DiskIO.c **** 
 984:System/diskio/DiskIO.c ****     Data_Ptr = &Disk_Card_SectionBuff[sec_item_index];
 985:System/diskio/DiskIO.c ****     LEndianWord2BytesArray(nxt_cluster, Data_Ptr);
 986:System/diskio/DiskIO.c **** 
 987:System/diskio/DiskIO.c ****     DevCard.write(&DevTFCard_Obj.SDMMC_Obj, sec_index, Disk_Card_SectionBuff, DISK_CARD_SENCTION_SZ
 988:System/diskio/DiskIO.c **** 
 989:System/diskio/DiskIO.c ****     return true;
 990:System/diskio/DiskIO.c **** }
 991:System/diskio/DiskIO.c **** 
 992:System/diskio/DiskIO.c **** static bool Disk_ClearCluster(Disk_FATFileSys_TypeDef *FATObj, FATCluster_Addr target_cluster)
 993:System/diskio/DiskIO.c **** {
 994:System/diskio/DiskIO.c ****     uint32_t sec_id = 0;
 995:System/diskio/DiskIO.c **** 
 996:System/diskio/DiskIO.c ****     if (target_cluster < 2)
 997:System/diskio/DiskIO.c ****         return false;
 998:System/diskio/DiskIO.c **** 
 999:System/diskio/DiskIO.c ****     sec_id = Disk_Get_StartSectionOfCluster(FATObj, target_cluster);
1000:System/diskio/DiskIO.c **** 
1001:System/diskio/DiskIO.c ****     memset(Disk_Card_SectionBuff, NULL, sizeof(Disk_Card_SectionBuff));
1002:System/diskio/DiskIO.c **** 
1003:System/diskio/DiskIO.c ****     DevCard.write(&DevTFCard_Obj.SDMMC_Obj, sec_id, Disk_Card_SectionBuff, DISK_CARD_SENCTION_SZIE,
1004:System/diskio/DiskIO.c **** 
1005:System/diskio/DiskIO.c ****     return true;
1006:System/diskio/DiskIO.c **** }
1007:System/diskio/DiskIO.c **** 
1008:System/diskio/DiskIO.c **** static void Disk_Update_FreeCluster(Disk_FATFileSys_TypeDef *FATObj)
1009:System/diskio/DiskIO.c **** {
1010:System/diskio/DiskIO.c ****     uint32_t sec_index = 0;
1011:System/diskio/DiskIO.c ****     uint32_t cluster_tmp = 0;
1012:System/diskio/DiskIO.c ****     uint8_t free_index;
1013:System/diskio/DiskIO.c **** 
1014:System/diskio/DiskIO.c ****     if (FATObj == NULL)
1015:System/diskio/DiskIO.c ****         return;
1016:System/diskio/DiskIO.c **** 
1017:System/diskio/DiskIO.c ****     if (FATObj->remain_cluster != 0)
1018:System/diskio/DiskIO.c ****     {
1019:System/diskio/DiskIO.c ****         FATObj->remain_cluster--;
1020:System/diskio/DiskIO.c **** 
1021:System/diskio/DiskIO.c ****         sec_index = FATObj->free_cluster / DISK_FAT_CLUSTER_ITEM_SUM;
1022:System/diskio/DiskIO.c **** 
1023:System/diskio/DiskIO.c ****         /* search new free cluster */
1024:System/diskio/DiskIO.c ****         DevCard.read(&DevTFCard_Obj.SDMMC_Obj, sec_index + FATObj->Fst_FATSector, Disk_Card_Section
1025:System/diskio/DiskIO.c **** 
1026:System/diskio/DiskIO.c ****         for (free_index = FATObj->free_cluster % DISK_FAT_CLUSTER_ITEM_SUM; free_index < DISK_FAT_C
1027:System/diskio/DiskIO.c ****         {
1028:System/diskio/DiskIO.c ****             cluster_tmp = LEndian2Word(&(((Disk_FAT_ItemTable_TypeDef *)Disk_Card_SectionBuff)->tab
1029:System/diskio/DiskIO.c **** 
1030:System/diskio/DiskIO.c ****             if (cluster_tmp == 0)
1031:System/diskio/DiskIO.c ****             {
1032:System/diskio/DiskIO.c ****                 FATObj->free_cluster = (sec_index * DISK_FAT_CLUSTER_ITEM_SUM) + free_index;
1033:System/diskio/DiskIO.c **** 
1034:System/diskio/DiskIO.c ****                 /* update FSINFO section on TFCard */
1035:System/diskio/DiskIO.c ****                 Disk_UpdateFSINFO(FATObj, FATObj->remain_cluster);
1036:System/diskio/DiskIO.c ****                 return;
1037:System/diskio/DiskIO.c ****             }
ARM GAS  C:\Users\huav\AppData\Local\Temp\cclD56Oe.s 			page 26


1038:System/diskio/DiskIO.c ****         }
1039:System/diskio/DiskIO.c **** 
1040:System/diskio/DiskIO.c ****         /* search free cluster from the behind */
1041:System/diskio/DiskIO.c ****         for (uint32_t nxt_sec = sec_index + 1; nxt_sec < FATObj->FAT_Sections; nxt_sec++)
1042:System/diskio/DiskIO.c ****         {
1043:System/diskio/DiskIO.c ****             DevCard.read(&DevTFCard_Obj.SDMMC_Obj, nxt_sec + FATObj->Fst_FATSector, Disk_Card_Secti
1044:System/diskio/DiskIO.c **** 
1045:System/diskio/DiskIO.c ****             for (free_index = 0; free_index < DISK_FAT_CLUSTER_ITEM_SUM; free_index++)
1046:System/diskio/DiskIO.c ****             {
1047:System/diskio/DiskIO.c ****                 cluster_tmp = LEndian2Word(&(((Disk_FAT_ItemTable_TypeDef *)Disk_Card_SectionBuff)-
1048:System/diskio/DiskIO.c **** 
1049:System/diskio/DiskIO.c ****                 if (cluster_tmp == 0)
1050:System/diskio/DiskIO.c ****                 {
1051:System/diskio/DiskIO.c ****                     FATObj->free_cluster = (sec_index * DISK_FAT_CLUSTER_ITEM_SUM) + free_index;
1052:System/diskio/DiskIO.c **** 
1053:System/diskio/DiskIO.c ****                     /* update FSINFO section on TFCard */
1054:System/diskio/DiskIO.c ****                     Disk_UpdateFSINFO(FATObj, FATObj->remain_cluster);
1055:System/diskio/DiskIO.c ****                     return;
1056:System/diskio/DiskIO.c ****                 }
1057:System/diskio/DiskIO.c ****             }
1058:System/diskio/DiskIO.c ****         }
1059:System/diskio/DiskIO.c ****     }
1060:System/diskio/DiskIO.c **** 
1061:System/diskio/DiskIO.c ****     FATObj->free_cluster = 2;
1062:System/diskio/DiskIO.c **** }
1063:System/diskio/DiskIO.c **** 
1064:System/diskio/DiskIO.c **** static FATCluster_Addr Disk_WriteTo_TargetFFTable(Disk_FATFileSys_TypeDef *FATObj, Disk_StorageData
1065:System/diskio/DiskIO.c **** {
1066:System/diskio/DiskIO.c ****     uint32_t sec_id = 0;
1067:System/diskio/DiskIO.c ****     FATCluster_Addr target_file_cluster = cluster;
1068:System/diskio/DiskIO.c ****     FATCluster_Addr lst_cluster = 0;
1069:System/diskio/DiskIO.c ****     DiskFATCluster_State_List Cluster_State = Disk_GetClusterState(target_file_cluster);
1070:System/diskio/DiskIO.c ****     Disk_FFInfoTable_TypeDef FFInfo;
1071:System/diskio/DiskIO.c ****     Disk_FFAttr_TypeDef attr_tmp;
1072:System/diskio/DiskIO.c ****     char file_name[12];
1073:System/diskio/DiskIO.c ****     char folder_name[9];
1074:System/diskio/DiskIO.c ****     char *name_tmp;
1075:System/diskio/DiskIO.c **** 
1076:System/diskio/DiskIO.c ****     if (type != Disk_DataType_Folder)
1077:System/diskio/DiskIO.c ****     {
1078:System/diskio/DiskIO.c ****         name_tmp = file_name;
1079:System/diskio/DiskIO.c ****         memset(name_tmp, '\0', 12);
1080:System/diskio/DiskIO.c ****         memcpy(name_tmp, name, 12);
1081:System/diskio/DiskIO.c ****     }
1082:System/diskio/DiskIO.c ****     else
1083:System/diskio/DiskIO.c ****     {
1084:System/diskio/DiskIO.c ****         name_tmp = folder_name;
1085:System/diskio/DiskIO.c ****         memset(name_tmp, '\0', 9);
1086:System/diskio/DiskIO.c ****         memcpy(name_tmp, name, 9);
1087:System/diskio/DiskIO.c ****     }
1088:System/diskio/DiskIO.c **** 
1089:System/diskio/DiskIO.c ****     if (!Disk_Name_ConvertTo83Frame(name_tmp, name_tmp))
1090:System/diskio/DiskIO.c ****         return 0;
1091:System/diskio/DiskIO.c **** 
1092:System/diskio/DiskIO.c ****     while (Cluster_State == Disk_FATCluster_Alloc)
1093:System/diskio/DiskIO.c ****     {
1094:System/diskio/DiskIO.c ****         sec_id = Disk_Get_StartSectionOfCluster(FATObj, target_file_cluster);
ARM GAS  C:\Users\huav\AppData\Local\Temp\cclD56Oe.s 			page 27


1095:System/diskio/DiskIO.c **** 
1096:System/diskio/DiskIO.c ****         for (uint8_t section_index = 0; section_index < FATObj->SecPerCluster; section_index++)
1097:System/diskio/DiskIO.c ****         {
1098:System/diskio/DiskIO.c ****             sec_id += section_index;
1099:System/diskio/DiskIO.c ****             memset(&FFInfo, NULL, sizeof(FFInfo));
1100:System/diskio/DiskIO.c **** 
1101:System/diskio/DiskIO.c ****             FFInfo = Disk_Parse_Attribute(FATObj, sec_id);
1102:System/diskio/DiskIO.c **** 
1103:System/diskio/DiskIO.c ****             for (uint8_t FF_index = 0; FF_index < 16; FF_index++)
1104:System/diskio/DiskIO.c ****             {
1105:System/diskio/DiskIO.c ****                 if (FFInfo.Info[FF_index].name[0] != '\0')
1106:System/diskio/DiskIO.c ****                 {
1107:System/diskio/DiskIO.c ****                     if (Disk_SFN_Match(FFInfo.Info[FF_index].name, name_tmp))
1108:System/diskio/DiskIO.c ****                         return target_file_cluster;
1109:System/diskio/DiskIO.c ****                 }
1110:System/diskio/DiskIO.c ****                 else
1111:System/diskio/DiskIO.c ****                 {
1112:System/diskio/DiskIO.c ****                     if (type != Disk_DataType_Folder)
1113:System/diskio/DiskIO.c ****                     {
1114:System/diskio/DiskIO.c ****                         /* create file */
1115:System/diskio/DiskIO.c ****                         memset(name_tmp, '\0', 12);
1116:System/diskio/DiskIO.c ****                         memcpy(name_tmp, name, 12);
1117:System/diskio/DiskIO.c ****                     }
1118:System/diskio/DiskIO.c ****                     else
1119:System/diskio/DiskIO.c ****                     {
1120:System/diskio/DiskIO.c ****                         memset(name_tmp, '\0', 9);
1121:System/diskio/DiskIO.c ****                         memcpy(name_tmp, name, 9);
1122:System/diskio/DiskIO.c ****                     }
1123:System/diskio/DiskIO.c **** 
1124:System/diskio/DiskIO.c ****                     memset(&attr_tmp, NULL, sizeof(Disk_FFAttr_TypeDef));
1125:System/diskio/DiskIO.c ****                     Disk_Fill_Attr(name_tmp, type, &attr_tmp, FATObj->free_cluster);
1126:System/diskio/DiskIO.c **** 
1127:System/diskio/DiskIO.c ****                     /* read all section data first */
1128:System/diskio/DiskIO.c ****                     DevCard.read(&DevTFCard_Obj.SDMMC_Obj, sec_id, Disk_Card_SectionBuff, DISK_CARD
1129:System/diskio/DiskIO.c **** 
1130:System/diskio/DiskIO.c ****                     /* corver current index of data */
1131:System/diskio/DiskIO.c ****                     memcpy(&(((Disk_CCSSFFAT_TypeDef *)Disk_Card_SectionBuff)->attribute[FF_index])
1132:System/diskio/DiskIO.c **** 
1133:System/diskio/DiskIO.c ****                     /* write back to tf section */
1134:System/diskio/DiskIO.c ****                     DevCard.write(&DevTFCard_Obj.SDMMC_Obj, sec_id, Disk_Card_SectionBuff, sizeof(D
1135:System/diskio/DiskIO.c **** 
1136:System/diskio/DiskIO.c ****                     if (type == Disk_DataType_Folder)
1137:System/diskio/DiskIO.c ****                     {
1138:System/diskio/DiskIO.c ****                         Disk_Establish_ClusterLink(FATObj, FATObj->free_cluster, DISK_FAT_CLUSTER_E
1139:System/diskio/DiskIO.c ****                         Disk_ClearCluster(FATObj, FATObj->free_cluster);
1140:System/diskio/DiskIO.c **** 
1141:System/diskio/DiskIO.c ****                         memset(attr_tmp.name, ' ', 8);
1142:System/diskio/DiskIO.c ****                         memset(attr_tmp.ext, ' ', 3);
1143:System/diskio/DiskIO.c ****                         attr_tmp.name[0] = '.';
1144:System/diskio/DiskIO.c **** 
1145:System/diskio/DiskIO.c ****                         memcpy(Disk_Card_SectionBuff, &attr_tmp, sizeof(Disk_FFAttr_TypeDef));
1146:System/diskio/DiskIO.c **** 
1147:System/diskio/DiskIO.c ****                         attr_tmp.name[1] = '.';
1148:System/diskio/DiskIO.c ****                         target_file_cluster = FATObj->free_cluster;
1149:System/diskio/DiskIO.c **** 
1150:System/diskio/DiskIO.c ****                         attr_tmp.HighCluster[0] = target_file_cluster >> 16;
1151:System/diskio/DiskIO.c ****                         attr_tmp.HighCluster[1] = target_file_cluster >> 24;
ARM GAS  C:\Users\huav\AppData\Local\Temp\cclD56Oe.s 			page 28


1152:System/diskio/DiskIO.c ****                         attr_tmp.LowCluster[0] = target_file_cluster;
1153:System/diskio/DiskIO.c ****                         attr_tmp.LowCluster[1] = target_file_cluster >> 8;
1154:System/diskio/DiskIO.c **** 
1155:System/diskio/DiskIO.c ****                         memcpy(Disk_Card_SectionBuff + sizeof(Disk_FFAttr_TypeDef), &attr_tmp, size
1156:System/diskio/DiskIO.c **** 
1157:System/diskio/DiskIO.c ****                         sec_id = Disk_Get_StartSectionOfCluster(FATObj, FATObj->free_cluster);
1158:System/diskio/DiskIO.c ****                         DevCard.write(&DevTFCard_Obj.SDMMC_Obj, sec_id, Disk_Card_SectionBuff, size
1159:System/diskio/DiskIO.c **** 
1160:System/diskio/DiskIO.c ****                         Disk_Update_FreeCluster(FATObj);
1161:System/diskio/DiskIO.c ****                     }
1162:System/diskio/DiskIO.c **** 
1163:System/diskio/DiskIO.c ****                     return target_file_cluster;
1164:System/diskio/DiskIO.c ****                 }
1165:System/diskio/DiskIO.c ****             }
1166:System/diskio/DiskIO.c ****         }
1167:System/diskio/DiskIO.c **** 
1168:System/diskio/DiskIO.c ****         lst_cluster = target_file_cluster;
1169:System/diskio/DiskIO.c ****         target_file_cluster = Disk_Get_NextCluster(FATObj, target_file_cluster);
1170:System/diskio/DiskIO.c ****         Cluster_State = Disk_GetClusterState(target_file_cluster);
1171:System/diskio/DiskIO.c ****     }
1172:System/diskio/DiskIO.c **** 
1173:System/diskio/DiskIO.c ****     /* if all inuse cluster have no space to write in then create new a new cluster if we have some
1174:System/diskio/DiskIO.c ****     if (FATObj->remain_cluster)
1175:System/diskio/DiskIO.c ****     {
1176:System/diskio/DiskIO.c ****         Disk_Establish_ClusterLink(FATObj, lst_cluster, FATObj->free_cluster);
1177:System/diskio/DiskIO.c ****         Disk_Establish_ClusterLink(FATObj, FATObj->free_cluster, DISK_FAT_CLUSTER_END_MAX_WORLD);
1178:System/diskio/DiskIO.c ****         Disk_ClearCluster(FATObj, FATObj->free_cluster);
1179:System/diskio/DiskIO.c **** 
1180:System/diskio/DiskIO.c ****         /* create file */
1181:System/diskio/DiskIO.c ****         memset(name_tmp, '\0', 12);
1182:System/diskio/DiskIO.c ****         memcpy(name_tmp, name, strlen(name));
1183:System/diskio/DiskIO.c ****         memset(&attr_tmp, NULL, sizeof(Disk_FFAttr_TypeDef));
1184:System/diskio/DiskIO.c **** 
1185:System/diskio/DiskIO.c ****         Disk_Fill_Attr(name_tmp, type, &attr_tmp, target_file_cluster);
1186:System/diskio/DiskIO.c ****         sec_id = Disk_Get_StartSectionOfCluster(FATObj, FATObj->free_cluster);
1187:System/diskio/DiskIO.c **** 
1188:System/diskio/DiskIO.c ****         /* read all section data first */
1189:System/diskio/DiskIO.c ****         DevCard.read(&DevTFCard_Obj.SDMMC_Obj, sec_id, Disk_Card_SectionBuff, DISK_CARD_SENCTION_SZ
1190:System/diskio/DiskIO.c **** 
1191:System/diskio/DiskIO.c ****         /* corver current index of data */
1192:System/diskio/DiskIO.c ****         memcpy(&(((Disk_CCSSFFAT_TypeDef *)Disk_Card_SectionBuff)->attribute[0]), &attr_tmp, sizeof
1193:System/diskio/DiskIO.c **** 
1194:System/diskio/DiskIO.c ****         /* write back to tf section */
1195:System/diskio/DiskIO.c ****         DevCard.write(&DevTFCard_Obj.SDMMC_Obj, sec_id, Disk_Card_SectionBuff, sizeof(Disk_CCSSFFAT
1196:System/diskio/DiskIO.c **** 
1197:System/diskio/DiskIO.c ****         // update new free cluster
1198:System/diskio/DiskIO.c ****         Disk_Update_FreeCluster(FATObj);
1199:System/diskio/DiskIO.c **** 
1200:System/diskio/DiskIO.c ****         if (type == Disk_DataType_Folder)
1201:System/diskio/DiskIO.c ****         {
1202:System/diskio/DiskIO.c ****             Disk_Establish_ClusterLink(FATObj, FATObj->free_cluster, DISK_FAT_CLUSTER_END_MAX_WORLD
1203:System/diskio/DiskIO.c ****             Disk_ClearCluster(FATObj, FATObj->free_cluster);
1204:System/diskio/DiskIO.c **** 
1205:System/diskio/DiskIO.c ****             memset(((Disk_CCSSFFAT_TypeDef *)Disk_Card_SectionBuff)->attribute[0].name, NULL, sizeo
1206:System/diskio/DiskIO.c ****             memset(((Disk_CCSSFFAT_TypeDef *)Disk_Card_SectionBuff)->attribute[0].ext, NULL, sizeof
1207:System/diskio/DiskIO.c ****             ((Disk_CCSSFFAT_TypeDef *)Disk_Card_SectionBuff)->attribute[0].name[0] = '.';
1208:System/diskio/DiskIO.c **** 
ARM GAS  C:\Users\huav\AppData\Local\Temp\cclD56Oe.s 			page 29


1209:System/diskio/DiskIO.c ****             memset(Disk_Card_SectionBuff, NULL, DISK_CARD_SENCTION_SZIE);
1210:System/diskio/DiskIO.c ****             memcpy(Disk_Card_SectionBuff, &(((Disk_CCSSFFAT_TypeDef *)Disk_Card_SectionBuff)->attri
1211:System/diskio/DiskIO.c **** 
1212:System/diskio/DiskIO.c ****             ((Disk_CCSSFFAT_TypeDef *)Disk_Card_SectionBuff)->attribute[0].name[1] = '.';
1213:System/diskio/DiskIO.c **** 
1214:System/diskio/DiskIO.c ****             if (target_file_cluster > 2)
1215:System/diskio/DiskIO.c ****             {
1216:System/diskio/DiskIO.c ****                 ((Disk_CCSSFFAT_TypeDef *)Disk_Card_SectionBuff)->attribute[0].HighCluster[0] = tar
1217:System/diskio/DiskIO.c ****                 ((Disk_CCSSFFAT_TypeDef *)Disk_Card_SectionBuff)->attribute[0].HighCluster[1] = tar
1218:System/diskio/DiskIO.c ****                 ((Disk_CCSSFFAT_TypeDef *)Disk_Card_SectionBuff)->attribute[0].LowCluster[0] = targ
1219:System/diskio/DiskIO.c ****                 ((Disk_CCSSFFAT_TypeDef *)Disk_Card_SectionBuff)->attribute[0].LowCluster[1] = targ
1220:System/diskio/DiskIO.c ****             }
1221:System/diskio/DiskIO.c ****             else
1222:System/diskio/DiskIO.c ****             {
1223:System/diskio/DiskIO.c ****                 ((Disk_CCSSFFAT_TypeDef *)Disk_Card_SectionBuff)->attribute[0].HighCluster[0] = 0;
1224:System/diskio/DiskIO.c ****                 ((Disk_CCSSFFAT_TypeDef *)Disk_Card_SectionBuff)->attribute[0].HighCluster[1] = 0;
1225:System/diskio/DiskIO.c ****                 ((Disk_CCSSFFAT_TypeDef *)Disk_Card_SectionBuff)->attribute[0].LowCluster[0] = 0;
1226:System/diskio/DiskIO.c ****                 ((Disk_CCSSFFAT_TypeDef *)Disk_Card_SectionBuff)->attribute[0].LowCluster[1] = 0;
1227:System/diskio/DiskIO.c ****             }
1228:System/diskio/DiskIO.c **** 
1229:System/diskio/DiskIO.c ****             memcpy(Disk_Card_SectionBuff + sizeof(Disk_FFAttr_TypeDef), &(((Disk_CCSSFFAT_TypeDef *
1230:System/diskio/DiskIO.c **** 
1231:System/diskio/DiskIO.c ****             sec_id = Disk_Get_StartSectionOfCluster(FATObj, FATObj->free_cluster);
1232:System/diskio/DiskIO.c ****             DevCard.write(&DevTFCard_Obj.SDMMC_Obj, sec_id, Disk_Card_SectionBuff, sizeof(Disk_CCSS
1233:System/diskio/DiskIO.c **** 
1234:System/diskio/DiskIO.c ****             target_file_cluster = FATObj->free_cluster;
1235:System/diskio/DiskIO.c **** 
1236:System/diskio/DiskIO.c ****             // update new free cluster
1237:System/diskio/DiskIO.c ****             Disk_Update_FreeCluster(FATObj);
1238:System/diskio/DiskIO.c ****         }
1239:System/diskio/DiskIO.c ****     }
1240:System/diskio/DiskIO.c **** 
1241:System/diskio/DiskIO.c ****     return 0;
1242:System/diskio/DiskIO.c **** }
1243:System/diskio/DiskIO.c **** 
1244:System/diskio/DiskIO.c **** /* bug still */
1245:System/diskio/DiskIO.c **** static FATCluster_Addr Disk_Create_Folder(Disk_FATFileSys_TypeDef *FATObj, const char *name, FATClu
1246:System/diskio/DiskIO.c **** {
1247:System/diskio/DiskIO.c ****     char name_tmp[9];
1248:System/diskio/DiskIO.c ****     uint32_t layer = 0;
1249:System/diskio/DiskIO.c ****     uint32_t name_index = 0;
1250:System/diskio/DiskIO.c ****     FATCluster_Addr cluster_tmp = cluster;
1251:System/diskio/DiskIO.c **** 
1252:System/diskio/DiskIO.c ****     /* name is folder path break it down 1st */
1253:System/diskio/DiskIO.c ****     layer = Disk_GetPath_Layer(name);
1254:System/diskio/DiskIO.c **** 
1255:System/diskio/DiskIO.c ****     for (name_index = 0; name_index < layer; name_index++)
1256:System/diskio/DiskIO.c ****     {
1257:System/diskio/DiskIO.c ****         memset(name_tmp, '\0', sizeof(name_tmp));
1258:System/diskio/DiskIO.c **** 
1259:System/diskio/DiskIO.c ****         /* search any same name item has exist 2nd */
1260:System/diskio/DiskIO.c ****         if (Disk_GetFolderName_ByIndex(name, name_index, name_tmp))
1261:System/diskio/DiskIO.c ****         {
1262:System/diskio/DiskIO.c ****             /* name legally check */
1263:System/diskio/DiskIO.c ****             if (!Disk_SFN_LegallyCheck(name_tmp))
1264:System/diskio/DiskIO.c ****                 return 0;
1265:System/diskio/DiskIO.c **** 
ARM GAS  C:\Users\huav\AppData\Local\Temp\cclD56Oe.s 			page 30


1266:System/diskio/DiskIO.c ****             cluster_tmp = Disk_WriteTo_TargetFFTable(FATObj, Disk_DataType_Folder, name_tmp, cluste
1267:System/diskio/DiskIO.c **** 
1268:System/diskio/DiskIO.c ****             if (cluster_tmp == 0)
1269:System/diskio/DiskIO.c ****                 return 0;
1270:System/diskio/DiskIO.c **** 
1271:System/diskio/DiskIO.c ****             if (name_index == layer - 1)
1272:System/diskio/DiskIO.c ****                 return cluster_tmp;
1273:System/diskio/DiskIO.c ****         }
1274:System/diskio/DiskIO.c ****         else
1275:System/diskio/DiskIO.c ****             return 0;
1276:System/diskio/DiskIO.c **** 
1277:System/diskio/DiskIO.c ****         memset(name_tmp, '\0', (strlen(name) + 1));
1278:System/diskio/DiskIO.c ****     }
1279:System/diskio/DiskIO.c **** 
1280:System/diskio/DiskIO.c ****     return 0;
1281:System/diskio/DiskIO.c **** }
1282:System/diskio/DiskIO.c **** 
1283:System/diskio/DiskIO.c **** /*
1284:System/diskio/DiskIO.c ****  *  if dir NULL but has file name input only create file
1285:System/diskio/DiskIO.c ****  *  if file NULL but has dir name input only create folder & path
1286:System/diskio/DiskIO.c ****  *  if nothing input then return 0
1287:System/diskio/DiskIO.c ****  */
1288:System/diskio/DiskIO.c **** static FATCluster_Addr Disk_Create(Disk_FATFileSys_TypeDef *FATObj, const char *dir, const char *fi
1289:System/diskio/DiskIO.c **** {
1290:System/diskio/DiskIO.c ****     FATCluster_Addr target_file_cluster = 2;
1291:System/diskio/DiskIO.c **** 
1292:System/diskio/DiskIO.c ****     if ((dir == NULL) && (file == NULL))
1293:System/diskio/DiskIO.c ****         return 0;
1294:System/diskio/DiskIO.c **** 
1295:System/diskio/DiskIO.c ****     /* create dir */
1296:System/diskio/DiskIO.c ****     if (dir != NULL)
1297:System/diskio/DiskIO.c ****     {
1298:System/diskio/DiskIO.c ****         target_file_cluster = Disk_Create_Folder(FATObj, dir, target_file_cluster);
1299:System/diskio/DiskIO.c **** 
1300:System/diskio/DiskIO.c ****         /* enter dir first */
1301:System/diskio/DiskIO.c ****         if (target_file_cluster == 0)
1302:System/diskio/DiskIO.c ****             return 0;
1303:System/diskio/DiskIO.c ****     }
1304:System/diskio/DiskIO.c **** 
1305:System/diskio/DiskIO.c ****     /* create file */
1306:System/diskio/DiskIO.c ****     if (file != NULL)
1307:System/diskio/DiskIO.c ****     {
1308:System/diskio/DiskIO.c ****         /* error file name size */
1309:System/diskio/DiskIO.c ****         if (strlen(file) > 12)
1310:System/diskio/DiskIO.c ****             return 0;
1311:System/diskio/DiskIO.c **** 
1312:System/diskio/DiskIO.c ****         target_file_cluster = Disk_WriteTo_TargetFFTable(FATObj, Disk_DataType_File, file, target_f
1313:System/diskio/DiskIO.c **** 
1314:System/diskio/DiskIO.c ****         if (target_file_cluster == 0)
1315:System/diskio/DiskIO.c ****             return 0;
1316:System/diskio/DiskIO.c ****     }
1317:System/diskio/DiskIO.c **** 
1318:System/diskio/DiskIO.c ****     return target_file_cluster;
1319:System/diskio/DiskIO.c **** }
1320:System/diskio/DiskIO.c **** 
1321:System/diskio/DiskIO.c **** static bool Disk_MatchTaget(Disk_FATFileSys_TypeDef *FATObj, char *name, Disk_StorageData_TypeDef t
1322:System/diskio/DiskIO.c **** {
ARM GAS  C:\Users\huav\AppData\Local\Temp\cclD56Oe.s 			page 31


1323:System/diskio/DiskIO.c ****     FATCluster_Addr cluster_tmp = start_cluster;
1324:System/diskio/DiskIO.c ****     uint32_t sec_id = Disk_Get_StartSectionOfCluster(FATObj, cluster_tmp);
1325:System/diskio/DiskIO.c ****     DiskFATCluster_State_List Cluster_State = Disk_GetClusterState(cluster_tmp);
1326:System/diskio/DiskIO.c ****     Disk_FFInfoTable_TypeDef FFInfo;
1327:System/diskio/DiskIO.c ****     char SFN_name_tmp[11] = {'\0'};
1328:System/diskio/DiskIO.c **** 
1329:System/diskio/DiskIO.c ****     if ((name == NULL) || (type > Disk_DataType_Folder) || !Disk_Name_ConvertTo83Frame(name, SFN_na
1330:System/diskio/DiskIO.c ****         return false;
1331:System/diskio/DiskIO.c **** 
1332:System/diskio/DiskIO.c ****     while (Cluster_State == Disk_FATCluster_Alloc)
1333:System/diskio/DiskIO.c ****     {
1334:System/diskio/DiskIO.c ****         for (uint8_t i = 0; i < FATObj->SecPerCluster; i++)
1335:System/diskio/DiskIO.c ****         {
1336:System/diskio/DiskIO.c ****             memset(&FFInfo, NULL, sizeof(FFInfo));
1337:System/diskio/DiskIO.c **** 
1338:System/diskio/DiskIO.c ****             FFInfo = Disk_Parse_Attribute(FATObj, sec_id + i);
1339:System/diskio/DiskIO.c **** 
1340:System/diskio/DiskIO.c ****             for (uint8_t j = 0; j < 16; j++)
1341:System/diskio/DiskIO.c ****             {
1342:System/diskio/DiskIO.c ****                 /* match search type and short file name */
1343:System/diskio/DiskIO.c ****                 if ((Disk_isFolder(FFInfo.Info[j].attr) == type) &&
1344:System/diskio/DiskIO.c ****                     (DISK_DELETED_MARK != FFInfo.Info[j].name[0]) &&
1345:System/diskio/DiskIO.c ****                     Disk_SFN_Match(FFInfo.Info[j].name, SFN_name_tmp))
1346:System/diskio/DiskIO.c ****                 {
1347:System/diskio/DiskIO.c ****                     memcpy(F_Info, &(FFInfo.Info[j]), sizeof(Disk_FFInfo_TypeDef));
1348:System/diskio/DiskIO.c ****                     return true;
1349:System/diskio/DiskIO.c ****                 }
1350:System/diskio/DiskIO.c ****             }
1351:System/diskio/DiskIO.c ****         }
1352:System/diskio/DiskIO.c **** 
1353:System/diskio/DiskIO.c ****         cluster_tmp = Disk_Get_NextCluster(FATObj, cluster_tmp);
1354:System/diskio/DiskIO.c ****         Cluster_State = Disk_GetClusterState(cluster_tmp);
1355:System/diskio/DiskIO.c ****         sec_id = Disk_Get_StartSectionOfCluster(FATObj, cluster_tmp);
1356:System/diskio/DiskIO.c ****     }
1357:System/diskio/DiskIO.c **** 
1358:System/diskio/DiskIO.c ****     return false;
1359:System/diskio/DiskIO.c **** }
1360:System/diskio/DiskIO.c **** 
1361:System/diskio/DiskIO.c **** static uint32_t Disk_Get_DirStartCluster(Disk_FATFileSys_TypeDef *FATObj, const char *dir)
1362:System/diskio/DiskIO.c **** {
1363:System/diskio/DiskIO.c ****     Disk_FFInfo_TypeDef F_Info;
1364:System/diskio/DiskIO.c ****     uint16_t dir_layer = 0;
1365:System/diskio/DiskIO.c ****     uint32_t cluster_tmp = 2;
1366:System/diskio/DiskIO.c ****     bool match = false;
1367:System/diskio/DiskIO.c ****     char *dir_tmp = NULL;
1368:System/diskio/DiskIO.c **** 
1369:System/diskio/DiskIO.c ****     volatile test_len = strlen(dir);
1370:System/diskio/DiskIO.c **** 
1371:System/diskio/DiskIO.c ****     dir_tmp = (char *)MMU_Malloc(strlen(dir) + 1);
1372:System/diskio/DiskIO.c ****     memset(&F_Info, NULL, sizeof(F_Info));
1373:System/diskio/DiskIO.c **** 
1374:System/diskio/DiskIO.c ****     if ((dir == NULL) || (dir_tmp == NULL))
1375:System/diskio/DiskIO.c ****     {
1376:System/diskio/DiskIO.c ****         MMU_Free(dir_tmp);
1377:System/diskio/DiskIO.c ****         return 0;
1378:System/diskio/DiskIO.c ****     }
1379:System/diskio/DiskIO.c **** 
ARM GAS  C:\Users\huav\AppData\Local\Temp\cclD56Oe.s 			page 32


1380:System/diskio/DiskIO.c ****     /* direction break down first */
1381:System/diskio/DiskIO.c ****     dir_layer = Disk_GetPath_Layer(dir);
1382:System/diskio/DiskIO.c ****     memset(dir_tmp, '\0', strlen(dir));
1383:System/diskio/DiskIO.c **** 
1384:System/diskio/DiskIO.c ****     if (dir_layer)
1385:System/diskio/DiskIO.c ****     {
1386:System/diskio/DiskIO.c ****         for (uint32_t l = 0; l < dir_layer; l++)
1387:System/diskio/DiskIO.c ****         {
1388:System/diskio/DiskIO.c ****             match = false;
1389:System/diskio/DiskIO.c ****             Disk_GetFolderName_ByIndex(dir, l, dir_tmp);
1390:System/diskio/DiskIO.c **** 
1391:System/diskio/DiskIO.c ****             if (Disk_MatchTaget(FATObj, dir_tmp, Disk_DataType_Folder, &F_Info, cluster_tmp))
1392:System/diskio/DiskIO.c ****             {
1393:System/diskio/DiskIO.c ****                 match = true;
1394:System/diskio/DiskIO.c ****                 cluster_tmp = F_Info.start_cluster;
1395:System/diskio/DiskIO.c ****             }
1396:System/diskio/DiskIO.c **** 
1397:System/diskio/DiskIO.c ****             memset(dir_tmp, NULL, strlen(dir_tmp));
1398:System/diskio/DiskIO.c ****         }
1399:System/diskio/DiskIO.c ****     }
1400:System/diskio/DiskIO.c **** 
1401:System/diskio/DiskIO.c ****     if (!match || (dir_layer == 0))
1402:System/diskio/DiskIO.c ****         cluster_tmp = 0;
1403:System/diskio/DiskIO.c **** 
1404:System/diskio/DiskIO.c ****     MMU_Free(dir_tmp);
1405:System/diskio/DiskIO.c **** 
1406:System/diskio/DiskIO.c ****     return cluster_tmp;
1407:System/diskio/DiskIO.c **** }
1408:System/diskio/DiskIO.c **** 
1409:System/diskio/DiskIO.c **** static bool Disk_OpenFile(Disk_FATFileSys_TypeDef *FATObj, const char *dir_path, const char *name, 
1410:System/diskio/DiskIO.c **** {
1411:System/diskio/DiskIO.c ****     char *name_buff;
1412:System/diskio/DiskIO.c ****     FATCluster_Addr file_cluster = 2;
1413:System/diskio/DiskIO.c ****     uint16_t name_size = strlen(name);
1414:System/diskio/DiskIO.c **** 
1415:System/diskio/DiskIO.c ****     name_buff = (char *)MMU_Malloc(name_size + 1);
1416:System/diskio/DiskIO.c ****     if (name_buff == NULL)
1417:System/diskio/DiskIO.c ****     {
1418:System/diskio/DiskIO.c ****         MMU_Free(name_buff);
1419:System/diskio/DiskIO.c ****         return false;
1420:System/diskio/DiskIO.c ****     }
1421:System/diskio/DiskIO.c **** 
1422:System/diskio/DiskIO.c ****     if (dir_path != NULL)
1423:System/diskio/DiskIO.c ****     {
1424:System/diskio/DiskIO.c ****         /* match dir first get path cluster */
1425:System/diskio/DiskIO.c ****         file_cluster = Disk_Get_DirStartCluster(FATObj, dir_path);
1426:System/diskio/DiskIO.c ****     }
1427:System/diskio/DiskIO.c **** 
1428:System/diskio/DiskIO.c ****     memset(name_buff, '\0', name_size);
1429:System/diskio/DiskIO.c ****     memcpy(name_buff, name, name_size);
1430:System/diskio/DiskIO.c **** 
1431:System/diskio/DiskIO.c ****     if (Disk_MatchTaget(FATObj, name_buff, Disk_DataType_File, FileObj, file_cluster))
1432:System/diskio/DiskIO.c ****     {
1433:System/diskio/DiskIO.c ****         MMU_Free(name_buff);
1434:System/diskio/DiskIO.c ****         return true;
1435:System/diskio/DiskIO.c ****     }
1436:System/diskio/DiskIO.c **** 
ARM GAS  C:\Users\huav\AppData\Local\Temp\cclD56Oe.s 			page 33


1437:System/diskio/DiskIO.c ****     MMU_Free(name_buff);
1438:System/diskio/DiskIO.c ****     return false;
1439:System/diskio/DiskIO.c **** }
1440:System/diskio/DiskIO.c **** 
1441:System/diskio/DiskIO.c **** #endif
1442:System/diskio/DiskIO.c **** /******************************************************************************* Error Proc Functio
1443:System/diskio/DiskIO.c **** #if (STORAGE_MODULE & INTERNAL_INTERFACE_TYPE)
1444:System/diskio/DiskIO.c **** static void Disk_Internal_InitError(int16_t code, uint8_t *p_arg, uint16_t size)
1445:System/diskio/DiskIO.c **** {
1446:System/diskio/DiskIO.c **** }
1447:System/diskio/DiskIO.c **** #endif
1448:System/diskio/DiskIO.c **** 
1449:System/diskio/DiskIO.c **** static void Disk_ExtModule_InitError(int16_t code, uint8_t *p_arg, uint16_t size)
1450:System/diskio/DiskIO.c **** {
 369              		.loc 1 1450 1 is_stmt 1 view -0
 370              		.cfi_startproc
 371              		@ args = 0, pretend = 0, frame = 0
 372              		@ frame_needed = 0, uses_anonymous_args = 0
 373              		.loc 1 1450 1 is_stmt 0 view .LVU87
 374 0000 08B5     		push	{r3, lr}
 375              	.LCFI6:
 376              		.cfi_def_cfa_offset 8
 377              		.cfi_offset 3, -8
 378              		.cfi_offset 14, -4
1451:System/diskio/DiskIO.c **** #if (STORAGE_MODULE & EXTERNAL_INTERFACE_TYPE_TF_CARD)
1452:System/diskio/DiskIO.c ****     ErrorLog.add_desc("    TF Card Error Code: %d\r\n", *p_arg);
 379              		.loc 1 1452 5 is_stmt 1 view .LVU88
 380              		.loc 1 1452 13 is_stmt 0 view .LVU89
 381 0002 034B     		ldr	r3, .L36
 382 0004 5B69     		ldr	r3, [r3, #20]
 383              		.loc 1 1452 5 view .LVU90
 384 0006 0978     		ldrb	r1, [r1]	@ zero_extendqisi2
 385              	.LVL36:
 386              		.loc 1 1452 5 view .LVU91
 387 0008 0248     		ldr	r0, .L36+4
 388              	.LVL37:
 389              		.loc 1 1452 5 view .LVU92
 390 000a 9847     		blx	r3
 391              	.LVL38:
1453:System/diskio/DiskIO.c **** #endif
1454:System/diskio/DiskIO.c **** }
 392              		.loc 1 1454 1 view .LVU93
 393 000c 08BD     		pop	{r3, pc}
 394              	.L37:
 395 000e 00BF     		.align	2
 396              	.L36:
 397 0010 00000000 		.word	ErrorLog
 398 0014 00000000 		.word	.LC0
 399              		.cfi_endproc
 400              	.LFE175:
 402              		.section	.rodata.Disk_FreeCluster_SearchError.str1.4,"aMS",%progbits,1
 403              		.align	2
 404              	.LC1:
 405 0000 20202020 		.ascii	"    No Free Cluster Be Found\015\012\000"
 405      4E6F2046 
 405      72656520 
 405      436C7573 
ARM GAS  C:\Users\huav\AppData\Local\Temp\cclD56Oe.s 			page 34


 405      74657220 
 406              		.section	.text.Disk_FreeCluster_SearchError,"ax",%progbits
 407              		.align	1
 408              		.syntax unified
 409              		.thumb
 410              		.thumb_func
 411              		.fpu fpv5-d16
 413              	Disk_FreeCluster_SearchError:
 414              	.LVL39:
 415              	.LFB176:
1455:System/diskio/DiskIO.c **** 
1456:System/diskio/DiskIO.c **** #if (STORAGE_MODULE & EXTERNAL_INTERFACE_TYPE_TF_CARD)
1457:System/diskio/DiskIO.c **** static void Disk_FreeCluster_SearchError(int16_t code, uint8_t *p_arg, uint16_t size)
1458:System/diskio/DiskIO.c **** {
 416              		.loc 1 1458 1 is_stmt 1 view -0
 417              		.cfi_startproc
 418              		@ args = 0, pretend = 0, frame = 0
 419              		@ frame_needed = 0, uses_anonymous_args = 0
 420              		.loc 1 1458 1 is_stmt 0 view .LVU95
 421 0000 08B5     		push	{r3, lr}
 422              	.LCFI7:
 423              		.cfi_def_cfa_offset 8
 424              		.cfi_offset 3, -8
 425              		.cfi_offset 14, -4
1459:System/diskio/DiskIO.c ****     ErrorLog.add_desc("    No Free Cluster Be Found\r\n");
 426              		.loc 1 1459 5 is_stmt 1 view .LVU96
 427              		.loc 1 1459 13 is_stmt 0 view .LVU97
 428 0002 024B     		ldr	r3, .L40
 429 0004 5B69     		ldr	r3, [r3, #20]
 430              		.loc 1 1459 5 view .LVU98
 431 0006 0248     		ldr	r0, .L40+4
 432              	.LVL40:
 433              		.loc 1 1459 5 view .LVU99
 434 0008 9847     		blx	r3
 435              	.LVL41:
1460:System/diskio/DiskIO.c **** }
 436              		.loc 1 1460 1 view .LVU100
 437 000a 08BD     		pop	{r3, pc}
 438              	.L41:
 439              		.align	2
 440              	.L40:
 441 000c 00000000 		.word	ErrorLog
 442 0010 00000000 		.word	.LC1
 443              		.cfi_endproc
 444              	.LFE176:
 446              		.section	.rodata.Disk_FSINFO_ReadError.str1.4,"aMS",%progbits,1
 447              		.align	2
 448              	.LC2:
 449 0000 20202020 		.ascii	"    No FSINFO Section Be Found\015\012\000"
 449      4E6F2046 
 449      53494E46 
 449      4F205365 
 449      6374696F 
 450              		.section	.text.Disk_FSINFO_ReadError,"ax",%progbits
 451              		.align	1
 452              		.syntax unified
 453              		.thumb
ARM GAS  C:\Users\huav\AppData\Local\Temp\cclD56Oe.s 			page 35


 454              		.thumb_func
 455              		.fpu fpv5-d16
 457              	Disk_FSINFO_ReadError:
 458              	.LVL42:
 459              	.LFB177:
1461:System/diskio/DiskIO.c **** 
1462:System/diskio/DiskIO.c **** static void Disk_FSINFO_ReadError(int16_t code, uint8_t *p_arg, uint16_t size)
1463:System/diskio/DiskIO.c **** {
 460              		.loc 1 1463 1 is_stmt 1 view -0
 461              		.cfi_startproc
 462              		@ args = 0, pretend = 0, frame = 0
 463              		@ frame_needed = 0, uses_anonymous_args = 0
 464              		.loc 1 1463 1 is_stmt 0 view .LVU102
 465 0000 08B5     		push	{r3, lr}
 466              	.LCFI8:
 467              		.cfi_def_cfa_offset 8
 468              		.cfi_offset 3, -8
 469              		.cfi_offset 14, -4
1464:System/diskio/DiskIO.c ****     ErrorLog.add_desc("    No FSINFO Section Be Found\r\n");
 470              		.loc 1 1464 5 is_stmt 1 view .LVU103
 471              		.loc 1 1464 13 is_stmt 0 view .LVU104
 472 0002 024B     		ldr	r3, .L44
 473 0004 5B69     		ldr	r3, [r3, #20]
 474              		.loc 1 1464 5 view .LVU105
 475 0006 0248     		ldr	r0, .L44+4
 476              	.LVL43:
 477              		.loc 1 1464 5 view .LVU106
 478 0008 9847     		blx	r3
 479              	.LVL44:
1465:System/diskio/DiskIO.c **** }
 480              		.loc 1 1465 1 view .LVU107
 481 000a 08BD     		pop	{r3, pc}
 482              	.L45:
 483              		.align	2
 484              	.L44:
 485 000c 00000000 		.word	ErrorLog
 486 0010 00000000 		.word	.LC2
 487              		.cfi_endproc
 488              	.LFE177:
 490              		.section	.text.ExtDisk_Init,"ax",%progbits
 491              		.align	1
 492              		.syntax unified
 493              		.thumb
 494              		.thumb_func
 495              		.fpu fpv5-d16
 497              	ExtDisk_Init:
 498              	.LFB147:
 176:System/diskio/DiskIO.c ****     bool init_state = true;
 499              		.loc 1 176 1 is_stmt 1 view -0
 500              		.cfi_startproc
 501              		@ args = 0, pretend = 0, frame = 8
 502              		@ frame_needed = 0, uses_anonymous_args = 0
 503 0000 10B5     		push	{r4, lr}
 504              	.LCFI9:
 505              		.cfi_def_cfa_offset 8
 506              		.cfi_offset 4, -8
 507              		.cfi_offset 14, -4
ARM GAS  C:\Users\huav\AppData\Local\Temp\cclD56Oe.s 			page 36


 508 0002 82B0     		sub	sp, sp, #8
 509              	.LCFI10:
 510              		.cfi_def_cfa_offset 16
 177:System/diskio/DiskIO.c **** 
 511              		.loc 1 177 5 view .LVU109
 512              	.LVL45:
 179:System/diskio/DiskIO.c **** #if (STORAGE_MODULE & EXTERNAL_INTERFACE_TYPE_SPI_FLASH)
 513              		.loc 1 179 5 view .LVU110
 514 0004 134C     		ldr	r4, .L51
 515 0006 0021     		movs	r1, #0
 516 0008 2160     		str	r1, [r4]
 517 000a 2171     		strb	r1, [r4, #4]
 192:System/diskio/DiskIO.c **** 
 518              		.loc 1 192 5 view .LVU111
 519 000c C322     		movs	r2, #195
 520 000e 1248     		ldr	r0, .L51+4
 521 0010 FFF7FEFF 		bl	memset
 522              	.LVL46:
 194:System/diskio/DiskIO.c **** 
 523              		.loc 1 194 5 view .LVU112
 194:System/diskio/DiskIO.c **** 
 524              		.loc 1 194 33 is_stmt 0 view .LVU113
 525 0014 1148     		ldr	r0, .L51+8
 526 0016 124B     		ldr	r3, .L51+12
 527 0018 0360     		str	r3, [r0]
 196:System/diskio/DiskIO.c ****     Disk_Info.module_error_reg.section.TFCard_module_error_code = DevCard.Init(&DevTFCard_Obj.SDMMC
 528              		.loc 1 196 5 is_stmt 1 view .LVU114
 196:System/diskio/DiskIO.c ****     Disk_Info.module_error_reg.section.TFCard_module_error_code = DevCard.Init(&DevTFCard_Obj.SDMMC
 529              		.loc 1 196 51 is_stmt 0 view .LVU115
 530 001a 2378     		ldrb	r3, [r4]	@ zero_extendqisi2
 531 001c 43F00203 		orr	r3, r3, #2
 532 0020 2370     		strb	r3, [r4]
 197:System/diskio/DiskIO.c **** 
 533              		.loc 1 197 5 is_stmt 1 view .LVU116
 197:System/diskio/DiskIO.c **** 
 534              		.loc 1 197 74 is_stmt 0 view .LVU117
 535 0022 104B     		ldr	r3, .L51+16
 536 0024 1B68     		ldr	r3, [r3]
 197:System/diskio/DiskIO.c **** 
 537              		.loc 1 197 67 view .LVU118
 538 0026 9847     		blx	r3
 539              	.LVL47:
 197:System/diskio/DiskIO.c **** 
 540              		.loc 1 197 65 view .LVU119
 541 0028 A070     		strb	r0, [r4, #2]
 200:System/diskio/DiskIO.c ****     {
 542              		.loc 1 200 5 is_stmt 1 view .LVU120
 200:System/diskio/DiskIO.c ****     {
 543              		.loc 1 200 8 is_stmt 0 view .LVU121
 544 002a 50B1     		cbz	r0, .L47
 545              	.LBB5:
 202:System/diskio/DiskIO.c **** 
 546              		.loc 1 202 9 is_stmt 1 view .LVU122
 202:System/diskio/DiskIO.c **** 
 547              		.loc 1 202 17 is_stmt 0 view .LVU123
 548 002c 8DF80700 		strb	r0, [sp, #7]
 204:System/diskio/DiskIO.c ****                          DevCard_External_Module_Init_Error,
ARM GAS  C:\Users\huav\AppData\Local\Temp\cclD56Oe.s 			page 37


 549              		.loc 1 204 9 is_stmt 1 view .LVU124
 204:System/diskio/DiskIO.c ****                          DevCard_External_Module_Init_Error,
 550              		.loc 1 204 17 is_stmt 0 view .LVU125
 551 0030 0D4B     		ldr	r3, .L51+20
 552 0032 9C68     		ldr	r4, [r3, #8]
 204:System/diskio/DiskIO.c ****                          DevCard_External_Module_Init_Error,
 553              		.loc 1 204 9 view .LVU126
 554 0034 0123     		movs	r3, #1
 555 0036 0DF10702 		add	r2, sp, #7
 556 003a 0221     		movs	r1, #2
 557 003c 0B48     		ldr	r0, .L51+24
 558 003e 0068     		ldr	r0, [r0]
 559 0040 A047     		blx	r4
 560              	.LVL48:
 561              	.L47:
 562              	.LBE5:
 210:System/diskio/DiskIO.c ****         init_state = false;
 563              		.loc 1 210 5 is_stmt 1 view .LVU127
 210:System/diskio/DiskIO.c ****         init_state = false;
 564              		.loc 1 210 35 is_stmt 0 view .LVU128
 565 0042 044B     		ldr	r3, .L51
 566 0044 D3F80130 		ldr	r3, [r3, #1]	@ unaligned
 210:System/diskio/DiskIO.c ****         init_state = false;
 567              		.loc 1 210 8 view .LVU129
 568 0048 13B9     		cbnz	r3, .L49
 177:System/diskio/DiskIO.c **** 
 569              		.loc 1 177 10 view .LVU130
 570 004a 0120     		movs	r0, #1
 571              	.L48:
 572              	.LVL49:
 213:System/diskio/DiskIO.c **** }
 573              		.loc 1 213 5 is_stmt 1 view .LVU131
 214:System/diskio/DiskIO.c **** 
 574              		.loc 1 214 1 is_stmt 0 view .LVU132
 575 004c 02B0     		add	sp, sp, #8
 576              	.LCFI11:
 577              		.cfi_remember_state
 578              		.cfi_def_cfa_offset 8
 579              		@ sp needed
 580 004e 10BD     		pop	{r4, pc}
 581              	.LVL50:
 582              	.L49:
 583              	.LCFI12:
 584              		.cfi_restore_state
 211:System/diskio/DiskIO.c **** 
 585              		.loc 1 211 20 view .LVU133
 586 0050 0020     		movs	r0, #0
 587 0052 FBE7     		b	.L48
 588              	.L52:
 589              		.align	2
 590              	.L51:
 591 0054 00000000 		.word	.LANCHOR3
 592 0058 00000000 		.word	.LANCHOR4
 593 005c 00000000 		.word	.LANCHOR0
 594 0060 00000000 		.word	.LANCHOR5
 595 0064 00000000 		.word	DevCard
 596 0068 00000000 		.word	ErrorLog
ARM GAS  C:\Users\huav\AppData\Local\Temp\cclD56Oe.s 			page 38


 597 006c 00000000 		.word	.LANCHOR2
 598              		.cfi_endproc
 599              	.LFE147:
 601              		.section	.text.Disk_ClearCluster,"ax",%progbits
 602              		.align	1
 603              		.syntax unified
 604              		.thumb
 605              		.thumb_func
 606              		.fpu fpv5-d16
 608              	Disk_ClearCluster:
 609              	.LVL51:
 610              	.LFB167:
 993:System/diskio/DiskIO.c ****     uint32_t sec_id = 0;
 611              		.loc 1 993 1 is_stmt 1 view -0
 612              		.cfi_startproc
 613              		@ args = 0, pretend = 0, frame = 0
 614              		@ frame_needed = 0, uses_anonymous_args = 0
 994:System/diskio/DiskIO.c **** 
 615              		.loc 1 994 5 view .LVU135
 996:System/diskio/DiskIO.c ****         return false;
 616              		.loc 1 996 5 view .LVU136
 996:System/diskio/DiskIO.c ****         return false;
 617              		.loc 1 996 8 is_stmt 0 view .LVU137
 618 0000 0129     		cmp	r1, #1
 619 0002 1BD9     		bls	.L55
 993:System/diskio/DiskIO.c ****     uint32_t sec_id = 0;
 620              		.loc 1 993 1 view .LVU138
 621 0004 F0B5     		push	{r4, r5, r6, r7, lr}
 622              	.LCFI13:
 623              		.cfi_def_cfa_offset 20
 624              		.cfi_offset 4, -20
 625              		.cfi_offset 5, -16
 626              		.cfi_offset 6, -12
 627              		.cfi_offset 7, -8
 628              		.cfi_offset 14, -4
 629 0006 83B0     		sub	sp, sp, #12
 630              	.LCFI14:
 631              		.cfi_def_cfa_offset 32
 632 0008 0446     		mov	r4, r0
 999:System/diskio/DiskIO.c **** 
 633              		.loc 1 999 5 is_stmt 1 view .LVU139
 999:System/diskio/DiskIO.c **** 
 634              		.loc 1 999 14 is_stmt 0 view .LVU140
 635 000a FFF7FEFF 		bl	Disk_Get_StartSectionOfCluster
 636              	.LVL52:
 999:System/diskio/DiskIO.c **** 
 637              		.loc 1 999 14 view .LVU141
 638 000e 0546     		mov	r5, r0
 639              	.LVL53:
1001:System/diskio/DiskIO.c **** 
 640              		.loc 1 1001 5 is_stmt 1 view .LVU142
 641 0010 0B4E     		ldr	r6, .L60
 642 0012 4FF48062 		mov	r2, #1024
 643 0016 0021     		movs	r1, #0
 644 0018 3046     		mov	r0, r6
 645              	.LVL54:
1001:System/diskio/DiskIO.c **** 
ARM GAS  C:\Users\huav\AppData\Local\Temp\cclD56Oe.s 			page 39


 646              		.loc 1 1001 5 is_stmt 0 view .LVU143
 647 001a FFF7FEFF 		bl	memset
 648              	.LVL55:
1003:System/diskio/DiskIO.c **** 
 649              		.loc 1 1003 5 is_stmt 1 view .LVU144
1003:System/diskio/DiskIO.c **** 
 650              		.loc 1 1003 12 is_stmt 0 view .LVU145
 651 001e 094B     		ldr	r3, .L60+4
 652 0020 9F69     		ldr	r7, [r3, #24]
1003:System/diskio/DiskIO.c **** 
 653              		.loc 1 1003 107 view .LVU146
 654 0022 D4F8AB30 		ldr	r3, [r4, #171]	@ unaligned
1003:System/diskio/DiskIO.c **** 
 655              		.loc 1 1003 5 view .LVU147
 656 0026 9BB2     		uxth	r3, r3
 657 0028 0093     		str	r3, [sp]
 658 002a 4FF40073 		mov	r3, #512
 659 002e 3246     		mov	r2, r6
 660 0030 2946     		mov	r1, r5
 661 0032 0548     		ldr	r0, .L60+8
 662 0034 B847     		blx	r7
 663              	.LVL56:
1005:System/diskio/DiskIO.c **** }
 664              		.loc 1 1005 5 is_stmt 1 view .LVU148
1005:System/diskio/DiskIO.c **** }
 665              		.loc 1 1005 12 is_stmt 0 view .LVU149
 666 0036 0120     		movs	r0, #1
1006:System/diskio/DiskIO.c **** 
 667              		.loc 1 1006 1 view .LVU150
 668 0038 03B0     		add	sp, sp, #12
 669              	.LCFI15:
 670              		.cfi_def_cfa_offset 20
 671              		@ sp needed
 672 003a F0BD     		pop	{r4, r5, r6, r7, pc}
 673              	.LVL57:
 674              	.L55:
 675              	.LCFI16:
 676              		.cfi_def_cfa_offset 0
 677              		.cfi_restore 4
 678              		.cfi_restore 5
 679              		.cfi_restore 6
 680              		.cfi_restore 7
 681              		.cfi_restore 14
 997:System/diskio/DiskIO.c **** 
 682              		.loc 1 997 16 view .LVU151
 683 003c 0020     		movs	r0, #0
 684              	.LVL58:
1006:System/diskio/DiskIO.c **** 
 685              		.loc 1 1006 1 view .LVU152
 686 003e 7047     		bx	lr
 687              	.L61:
 688              		.align	2
 689              	.L60:
 690 0040 00000000 		.word	.LANCHOR1
 691 0044 00000000 		.word	DevCard
 692 0048 00000000 		.word	.LANCHOR0
 693              		.cfi_endproc
ARM GAS  C:\Users\huav\AppData\Local\Temp\cclD56Oe.s 			page 40


 694              	.LFE167:
 696              		.section	.text.Disk_Printf,"ax",%progbits
 697              		.align	1
 698              		.syntax unified
 699              		.thumb
 700              		.thumb_func
 701              		.fpu fpv5-d16
 703              	Disk_Printf:
 704              	.LVL59:
 705              	.LFB178:
1466:System/diskio/DiskIO.c **** 
1467:System/diskio/DiskIO.c **** #endif
1468:System/diskio/DiskIO.c **** 
1469:System/diskio/DiskIO.c **** /********************************************************************************* Printf Interface
1470:System/diskio/DiskIO.c **** static void Disk_Printf(char *str, ...)
1471:System/diskio/DiskIO.c **** {
 706              		.loc 1 1471 1 is_stmt 1 view -0
 707              		.cfi_startproc
 708              		@ args = 4, pretend = 16, frame = 8
 709              		@ frame_needed = 0, uses_anonymous_args = 1
 710              		.loc 1 1471 1 is_stmt 0 view .LVU154
 711 0000 0FB4     		push	{r0, r1, r2, r3}
 712              	.LCFI17:
 713              		.cfi_def_cfa_offset 16
 714              		.cfi_offset 0, -16
 715              		.cfi_offset 1, -12
 716              		.cfi_offset 2, -8
 717              		.cfi_offset 3, -4
 718 0002 10B5     		push	{r4, lr}
 719              	.LCFI18:
 720              		.cfi_def_cfa_offset 24
 721              		.cfi_offset 4, -24
 722              		.cfi_offset 14, -20
 723 0004 82B0     		sub	sp, sp, #8
 724              	.LCFI19:
 725              		.cfi_def_cfa_offset 32
 726 0006 04AB     		add	r3, sp, #16
 727 0008 53F8042B 		ldr	r2, [r3], #4
1472:System/diskio/DiskIO.c ****     va_list arp;
 728              		.loc 1 1472 5 is_stmt 1 view .LVU155
1473:System/diskio/DiskIO.c ****     va_start(arp, str);
 729              		.loc 1 1473 5 view .LVU156
 730 000c 0193     		str	r3, [sp, #4]
1474:System/diskio/DiskIO.c **** 
1475:System/diskio/DiskIO.c ****     if (Disk_PrintOut)
 731              		.loc 1 1475 5 view .LVU157
 732              		.loc 1 1475 9 is_stmt 0 view .LVU158
 733 000e 0C4B     		ldr	r3, .L65
 734 0010 1B68     		ldr	r3, [r3]
 735              		.loc 1 1475 8 view .LVU159
 736 0012 7BB1     		cbz	r3, .L62
 737              	.LBB6:
1476:System/diskio/DiskIO.c ****     {
1477:System/diskio/DiskIO.c ****         uint32_t length = vsnprintf((char *)Disk_Print_Buff, sizeof(Disk_Print_Buff), (char *)str, 
 738              		.loc 1 1477 9 is_stmt 1 view .LVU160
 739              		.loc 1 1477 27 is_stmt 0 view .LVU161
 740 0014 0B4C     		ldr	r4, .L65+4
ARM GAS  C:\Users\huav\AppData\Local\Temp\cclD56Oe.s 			page 41


 741 0016 019B     		ldr	r3, [sp, #4]
 742 0018 8021     		movs	r1, #128
 743 001a 2046     		mov	r0, r4
 744 001c FFF7FEFF 		bl	vsnprintf
 745              	.LVL60:
1478:System/diskio/DiskIO.c ****         Disk_PrintOut(Disk_Print_Buff, length);
 746              		.loc 1 1478 9 is_stmt 1 view .LVU162
 747 0020 074B     		ldr	r3, .L65
 748 0022 1B68     		ldr	r3, [r3]
 749 0024 81B2     		uxth	r1, r0
 750 0026 2046     		mov	r0, r4
 751              	.LVL61:
 752              		.loc 1 1478 9 is_stmt 0 view .LVU163
 753 0028 9847     		blx	r3
 754              	.LVL62:
1479:System/diskio/DiskIO.c **** 
1480:System/diskio/DiskIO.c ****         memset(Disk_Print_Buff, NULL, sizeof(Disk_Print_Buff));
 755              		.loc 1 1480 9 is_stmt 1 view .LVU164
 756 002a 8022     		movs	r2, #128
 757 002c 0021     		movs	r1, #0
 758 002e 2046     		mov	r0, r4
 759 0030 FFF7FEFF 		bl	memset
 760              	.LVL63:
 761              	.LBE6:
1481:System/diskio/DiskIO.c ****     }
1482:System/diskio/DiskIO.c **** 
1483:System/diskio/DiskIO.c ****     va_end(arp);
 762              		.loc 1 1483 5 view .LVU165
 763              	.L62:
1484:System/diskio/DiskIO.c **** }
 764              		.loc 1 1484 1 is_stmt 0 view .LVU166
 765 0034 02B0     		add	sp, sp, #8
 766              	.LCFI20:
 767              		.cfi_def_cfa_offset 24
 768              		@ sp needed
 769 0036 BDE81040 		pop	{r4, lr}
 770              	.LCFI21:
 771              		.cfi_restore 14
 772              		.cfi_restore 4
 773              		.cfi_def_cfa_offset 16
 774 003a 04B0     		add	sp, sp, #16
 775              	.LCFI22:
 776              		.cfi_restore 3
 777              		.cfi_restore 2
 778              		.cfi_restore 1
 779              		.cfi_restore 0
 780              		.cfi_def_cfa_offset 0
 781 003c 7047     		bx	lr
 782              	.L66:
 783 003e 00BF     		.align	2
 784              	.L65:
 785 0040 00000000 		.word	.LANCHOR6
 786 0044 00000000 		.word	.LANCHOR7
 787              		.cfi_endproc
 788              	.LFE178:
 790              		.section	.text.Disk_SFN_Match,"ax",%progbits
 791              		.align	1
ARM GAS  C:\Users\huav\AppData\Local\Temp\cclD56Oe.s 			page 42


 792              		.syntax unified
 793              		.thumb
 794              		.thumb_func
 795              		.fpu fpv5-d16
 797              	Disk_SFN_Match:
 798              	.LVL64:
 799              	.LFB162:
 740:System/diskio/DiskIO.c ****     char fn_tmp[11] = {'\0'};
 800              		.loc 1 740 1 is_stmt 1 view -0
 801              		.cfi_startproc
 802              		@ args = 0, pretend = 0, frame = 24
 803              		@ frame_needed = 0, uses_anonymous_args = 0
 740:System/diskio/DiskIO.c ****     char fn_tmp[11] = {'\0'};
 804              		.loc 1 740 1 is_stmt 0 view .LVU168
 805 0000 00B5     		push	{lr}
 806              	.LCFI23:
 807              		.cfi_def_cfa_offset 4
 808              		.cfi_offset 14, -4
 809 0002 87B0     		sub	sp, sp, #28
 810              	.LCFI24:
 811              		.cfi_def_cfa_offset 32
 812 0004 8446     		mov	ip, r0
 813 0006 0A46     		mov	r2, r1
 741:System/diskio/DiskIO.c ****     char mn_tmp[11] = {'\0'};
 814              		.loc 1 741 5 is_stmt 1 view .LVU169
 741:System/diskio/DiskIO.c ****     char mn_tmp[11] = {'\0'};
 815              		.loc 1 741 10 is_stmt 0 view .LVU170
 816 0008 0023     		movs	r3, #0
 817 000a 0393     		str	r3, [sp, #12]
 818 000c 0493     		str	r3, [sp, #16]
 819 000e CDF81330 		str	r3, [sp, #19]	@ unaligned
 742:System/diskio/DiskIO.c **** 
 820              		.loc 1 742 5 is_stmt 1 view .LVU171
 742:System/diskio/DiskIO.c **** 
 821              		.loc 1 742 10 is_stmt 0 view .LVU172
 822 0012 0093     		str	r3, [sp]
 823 0014 0193     		str	r3, [sp, #4]
 824 0016 CDF80730 		str	r3, [sp, #7]	@ unaligned
 744:System/diskio/DiskIO.c ****     memcpy(mn_tmp, m_name, 11);
 825              		.loc 1 744 5 is_stmt 1 view .LVU173
 826 001a 03AB     		add	r3, sp, #12
 827 001c 0068     		ldr	r0, [r0]	@ unaligned
 828              	.LVL65:
 744:System/diskio/DiskIO.c ****     memcpy(mn_tmp, m_name, 11);
 829              		.loc 1 744 5 is_stmt 0 view .LVU174
 830 001e DCF80410 		ldr	r1, [ip, #4]	@ unaligned
 831              	.LVL66:
 744:System/diskio/DiskIO.c ****     memcpy(mn_tmp, m_name, 11);
 832              		.loc 1 744 5 view .LVU175
 833 0022 03C3     		stmia	r3!, {r0, r1}
 834 0024 BCF80800 		ldrh	r0, [ip, #8]	@ unaligned
 835 0028 9CF80A10 		ldrb	r1, [ip, #10]	@ zero_extendqisi2
 836 002c 1880     		strh	r0, [r3]	@ unaligned
 837 002e 9970     		strb	r1, [r3, #2]
 745:System/diskio/DiskIO.c **** 
 838              		.loc 1 745 5 is_stmt 1 view .LVU176
 839 0030 6B46     		mov	r3, sp
ARM GAS  C:\Users\huav\AppData\Local\Temp\cclD56Oe.s 			page 43


 840 0032 1068     		ldr	r0, [r2]	@ unaligned
 841 0034 5168     		ldr	r1, [r2, #4]	@ unaligned
 842 0036 03C3     		stmia	r3!, {r0, r1}
 843 0038 1189     		ldrh	r1, [r2, #8]	@ unaligned
 844 003a 927A     		ldrb	r2, [r2, #10]	@ zero_extendqisi2
 845              	.LVL67:
 745:System/diskio/DiskIO.c **** 
 846              		.loc 1 745 5 is_stmt 0 view .LVU177
 847 003c 1980     		strh	r1, [r3]	@ unaligned
 848 003e 9A70     		strb	r2, [r3, #2]
 747:System/diskio/DiskIO.c ****         return false;
 849              		.loc 1 747 5 is_stmt 1 view .LVU178
 747:System/diskio/DiskIO.c ****         return false;
 850              		.loc 1 747 9 is_stmt 0 view .LVU179
 851 0040 0B22     		movs	r2, #11
 852 0042 6946     		mov	r1, sp
 853 0044 03A8     		add	r0, sp, #12
 854 0046 FFF7FEFF 		bl	memcmp
 855              	.LVL68:
 747:System/diskio/DiskIO.c ****         return false;
 856              		.loc 1 747 8 view .LVU180
 857 004a 18B9     		cbnz	r0, .L69
 750:System/diskio/DiskIO.c **** }
 858              		.loc 1 750 12 view .LVU181
 859 004c 0120     		movs	r0, #1
 860              	.L68:
 751:System/diskio/DiskIO.c **** 
 861              		.loc 1 751 1 view .LVU182
 862 004e 07B0     		add	sp, sp, #28
 863              	.LCFI25:
 864              		.cfi_remember_state
 865              		.cfi_def_cfa_offset 4
 866              		@ sp needed
 867 0050 5DF804FB 		ldr	pc, [sp], #4
 868              	.L69:
 869              	.LCFI26:
 870              		.cfi_restore_state
 748:System/diskio/DiskIO.c **** 
 871              		.loc 1 748 16 view .LVU183
 872 0054 0020     		movs	r0, #0
 873 0056 FAE7     		b	.L68
 874              		.cfi_endproc
 875              	.LFE162:
 877              		.section	.text.Disk_ParseMBR,"ax",%progbits
 878              		.align	1
 879              		.syntax unified
 880              		.thumb
 881              		.thumb_func
 882              		.fpu fpv5-d16
 884              	Disk_ParseMBR:
 885              	.LVL69:
 886              	.LFB150:
 300:System/diskio/DiskIO.c ****     if (FATObj == NULL)
 887              		.loc 1 300 1 is_stmt 1 view -0
 888              		.cfi_startproc
 889              		@ args = 0, pretend = 0, frame = 16
 890              		@ frame_needed = 0, uses_anonymous_args = 0
ARM GAS  C:\Users\huav\AppData\Local\Temp\cclD56Oe.s 			page 44


 301:System/diskio/DiskIO.c ****         return;
 891              		.loc 1 301 5 view .LVU185
 301:System/diskio/DiskIO.c ****         return;
 892              		.loc 1 301 8 is_stmt 0 view .LVU186
 893 0000 0028     		cmp	r0, #0
 894 0002 65D0     		beq	.L79
 300:System/diskio/DiskIO.c ****     if (FATObj == NULL)
 895              		.loc 1 300 1 view .LVU187
 896 0004 F0B5     		push	{r4, r5, r6, r7, lr}
 897              	.LCFI27:
 898              		.cfi_def_cfa_offset 20
 899              		.cfi_offset 4, -20
 900              		.cfi_offset 5, -16
 901              		.cfi_offset 6, -12
 902              		.cfi_offset 7, -8
 903              		.cfi_offset 14, -4
 904 0006 87B0     		sub	sp, sp, #28
 905              	.LCFI28:
 906              		.cfi_def_cfa_offset 48
 907 0008 0646     		mov	r6, r0
 304:System/diskio/DiskIO.c **** 
 908              		.loc 1 304 5 is_stmt 1 view .LVU188
 304:System/diskio/DiskIO.c **** 
 909              		.loc 1 304 12 is_stmt 0 view .LVU189
 910 000a 324B     		ldr	r3, .L83
 911 000c 5D69     		ldr	r5, [r3, #20]
 304:System/diskio/DiskIO.c **** 
 912              		.loc 1 304 5 view .LVU190
 913 000e 324C     		ldr	r4, .L83+4
 914 0010 0123     		movs	r3, #1
 915 0012 0093     		str	r3, [sp]
 916 0014 4FF40073 		mov	r3, #512
 917 0018 2246     		mov	r2, r4
 918 001a 0021     		movs	r1, #0
 919 001c 2F48     		ldr	r0, .L83+8
 920              	.LVL70:
 304:System/diskio/DiskIO.c **** 
 921              		.loc 1 304 5 view .LVU191
 922 001e A847     		blx	r5
 923              	.LVL71:
 306:System/diskio/DiskIO.c ****     {
 924              		.loc 1 306 5 is_stmt 1 view .LVU192
 306:System/diskio/DiskIO.c ****     {
 925              		.loc 1 306 9 is_stmt 0 view .LVU193
 926 0020 0322     		movs	r2, #3
 927 0022 2146     		mov	r1, r4
 928 0024 2E48     		ldr	r0, .L83+12
 929 0026 FFF7FEFF 		bl	memcmp
 930              	.LVL72:
 306:System/diskio/DiskIO.c ****     {
 931              		.loc 1 306 8 view .LVU194
 932 002a 18B9     		cbnz	r0, .L73
 308:System/diskio/DiskIO.c ****     }
 933              		.loc 1 308 9 is_stmt 1 view .LVU195
 308:System/diskio/DiskIO.c ****     }
 934              		.loc 1 308 25 is_stmt 0 view .LVU196
 935 002c 0023     		movs	r3, #0
ARM GAS  C:\Users\huav\AppData\Local\Temp\cclD56Oe.s 			page 45


 936 002e 3370     		strb	r3, [r6]
 937              	.L71:
 338:System/diskio/DiskIO.c **** 
 938              		.loc 1 338 1 view .LVU197
 939 0030 07B0     		add	sp, sp, #28
 940              	.LCFI29:
 941              		.cfi_remember_state
 942              		.cfi_def_cfa_offset 20
 943              		@ sp needed
 944 0032 F0BD     		pop	{r4, r5, r6, r7, pc}
 945              	.LVL73:
 946              	.L73:
 947              	.LCFI30:
 948              		.cfi_restore_state
 313:System/diskio/DiskIO.c ****             (*(Disk_Card_SectionBuff + DISK_CARD_MBR_TERMINATION_BYTE_2_OFFSET) == DISK_CARD_TERMIN
 949              		.loc 1 313 9 is_stmt 1 view .LVU198
 313:System/diskio/DiskIO.c ****             (*(Disk_Card_SectionBuff + DISK_CARD_MBR_TERMINATION_BYTE_2_OFFSET) == DISK_CARD_TERMIN
 950              		.loc 1 313 14 is_stmt 0 view .LVU199
 951 0034 284B     		ldr	r3, .L83+4
 952 0036 93F8FE31 		ldrb	r3, [r3, #510]	@ zero_extendqisi2
 313:System/diskio/DiskIO.c ****             (*(Disk_Card_SectionBuff + DISK_CARD_MBR_TERMINATION_BYTE_2_OFFSET) == DISK_CARD_TERMIN
 953              		.loc 1 313 12 view .LVU200
 954 003a 552B     		cmp	r3, #85
 955 003c 06D0     		beq	.L82
 956              	.L74:
 336:System/diskio/DiskIO.c ****     }
 957              		.loc 1 336 9 is_stmt 1 view .LVU201
 958 003e 4FF48062 		mov	r2, #1024
 959 0042 0021     		movs	r1, #0
 960 0044 2448     		ldr	r0, .L83+4
 961 0046 FFF7FEFF 		bl	memset
 962              	.LVL74:
 963 004a F1E7     		b	.L71
 964              	.L82:
 314:System/diskio/DiskIO.c ****         {
 965              		.loc 1 314 14 is_stmt 0 discriminator 1 view .LVU202
 966 004c 224B     		ldr	r3, .L83+4
 967 004e 93F8FF31 		ldrb	r3, [r3, #511]	@ zero_extendqisi2
 313:System/diskio/DiskIO.c ****             (*(Disk_Card_SectionBuff + DISK_CARD_MBR_TERMINATION_BYTE_2_OFFSET) == DISK_CARD_TERMIN
 968              		.loc 1 313 114 discriminator 1 view .LVU203
 969 0052 AA2B     		cmp	r3, #170
 970 0054 F3D1     		bne	.L74
 316:System/diskio/DiskIO.c **** 
 971              		.loc 1 316 13 is_stmt 1 view .LVU204
 316:System/diskio/DiskIO.c **** 
 972              		.loc 1 316 29 is_stmt 0 view .LVU205
 973 0056 3346     		mov	r3, r6
 974 0058 0122     		movs	r2, #1
 975 005a 03F8012B 		strb	r2, [r3], #1
 318:System/diskio/DiskIO.c **** 
 976              		.loc 1 318 13 is_stmt 1 view .LVU206
 977 005e 1E49     		ldr	r1, .L83+4
 978 0060 01F5DF72 		add	r2, r1, #446
 979 0064 01F5FF71 		add	r1, r1, #510
 980              	.L75:
 981 0068 1768     		ldr	r7, [r2]	@ unaligned
 982 006a 5568     		ldr	r5, [r2, #4]	@ unaligned
ARM GAS  C:\Users\huav\AppData\Local\Temp\cclD56Oe.s 			page 46


 983 006c 9468     		ldr	r4, [r2, #8]	@ unaligned
 984 006e D068     		ldr	r0, [r2, #12]	@ unaligned
 985 0070 1F60     		str	r7, [r3]	@ unaligned
 986 0072 5D60     		str	r5, [r3, #4]	@ unaligned
 987 0074 9C60     		str	r4, [r3, #8]	@ unaligned
 988 0076 D860     		str	r0, [r3, #12]	@ unaligned
 989 0078 1032     		adds	r2, r2, #16
 990 007a 1033     		adds	r3, r3, #16
 991 007c 8A42     		cmp	r2, r1
 992 007e F3D1     		bne	.L75
 320:System/diskio/DiskIO.c ****             {
 993              		.loc 1 320 13 view .LVU207
 994              	.LBB7:
 320:System/diskio/DiskIO.c ****             {
 995              		.loc 1 320 18 view .LVU208
 996              	.LVL75:
 320:System/diskio/DiskIO.c ****             {
 997              		.loc 1 320 26 is_stmt 0 view .LVU209
 998 0080 0024     		movs	r4, #0
 320:System/diskio/DiskIO.c ****             {
 999              		.loc 1 320 13 view .LVU210
 1000 0082 22E0     		b	.L76
 1001              	.LVL76:
 1002              	.L77:
 1003              	.LBB8:
 322:System/diskio/DiskIO.c ****                 uint32_t StartLBA = 0;
 1004              		.loc 1 322 17 is_stmt 1 discriminator 3 view .LVU211
 322:System/diskio/DiskIO.c ****                 uint32_t StartLBA = 0;
 1005              		.loc 1 322 26 is_stmt 0 discriminator 3 view .LVU212
 1006 0084 0023     		movs	r3, #0
 1007 0086 ADF80E30 		strh	r3, [sp, #14]	@ movhi
 323:System/diskio/DiskIO.c ****                 uint32_t size = 0;
 1008              		.loc 1 323 17 is_stmt 1 discriminator 3 view .LVU213
 323:System/diskio/DiskIO.c ****                 uint32_t size = 0;
 1009              		.loc 1 323 26 is_stmt 0 discriminator 3 view .LVU214
 1010 008a 0493     		str	r3, [sp, #16]
 324:System/diskio/DiskIO.c **** 
 1011              		.loc 1 324 17 is_stmt 1 discriminator 3 view .LVU215
 324:System/diskio/DiskIO.c **** 
 1012              		.loc 1 324 26 is_stmt 0 discriminator 3 view .LVU216
 1013 008c 0593     		str	r3, [sp, #20]
 326:System/diskio/DiskIO.c ****                 StartLBA = FATObj->disk_section_table[sec_index].StartLBA;
 1014              		.loc 1 326 17 is_stmt 1 discriminator 3 view .LVU217
 326:System/diskio/DiskIO.c ****                 StartLBA = FATObj->disk_section_table[sec_index].StartLBA;
 1015              		.loc 1 326 69 is_stmt 0 discriminator 3 view .LVU218
 1016 008e 06EB0415 		add	r5, r6, r4, lsl #4
 1017 0092 B5F80330 		ldrh	r3, [r5, #3]	@ unaligned
 326:System/diskio/DiskIO.c ****                 StartLBA = FATObj->disk_section_table[sec_index].StartLBA;
 1018              		.loc 1 326 30 discriminator 3 view .LVU219
 1019 0096 ADF80E30 		strh	r3, [sp, #14]	@ movhi
 327:System/diskio/DiskIO.c ****                 size = FATObj->disk_section_table[sec_index].Size;
 1020              		.loc 1 327 17 is_stmt 1 discriminator 3 view .LVU220
 327:System/diskio/DiskIO.c ****                 size = FATObj->disk_section_table[sec_index].Size;
 1021              		.loc 1 327 65 is_stmt 0 discriminator 3 view .LVU221
 1022 009a D5F80930 		ldr	r3, [r5, #9]	@ unaligned
 327:System/diskio/DiskIO.c ****                 size = FATObj->disk_section_table[sec_index].Size;
 1023              		.loc 1 327 26 discriminator 3 view .LVU222
ARM GAS  C:\Users\huav\AppData\Local\Temp\cclD56Oe.s 			page 47


 1024 009e 0493     		str	r3, [sp, #16]
 328:System/diskio/DiskIO.c **** 
 1025              		.loc 1 328 17 is_stmt 1 discriminator 3 view .LVU223
 328:System/diskio/DiskIO.c **** 
 1026              		.loc 1 328 61 is_stmt 0 discriminator 3 view .LVU224
 1027 00a0 D5F80D30 		ldr	r3, [r5, #13]	@ unaligned
 328:System/diskio/DiskIO.c **** 
 1028              		.loc 1 328 22 discriminator 3 view .LVU225
 1029 00a4 0593     		str	r3, [sp, #20]
 330:System/diskio/DiskIO.c ****                 FATObj->disk_section_table[sec_index].StartLBA = LEndian2Word(&StartLBA);
 1030              		.loc 1 330 17 is_stmt 1 discriminator 3 view .LVU226
 330:System/diskio/DiskIO.c ****                 FATObj->disk_section_table[sec_index].StartLBA = LEndian2Word(&StartLBA);
 1031              		.loc 1 330 70 is_stmt 0 discriminator 3 view .LVU227
 1032 00a6 0DF10E00 		add	r0, sp, #14
 1033 00aa FFF7FEFF 		bl	LEndian2HalfWord
 1034              	.LVL77:
 330:System/diskio/DiskIO.c ****                 FATObj->disk_section_table[sec_index].StartLBA = LEndian2Word(&StartLBA);
 1035              		.loc 1 330 68 discriminator 3 view .LVU228
 1036 00ae A5F80300 		strh	r0, [r5, #3]	@ unaligned
 331:System/diskio/DiskIO.c ****                 FATObj->disk_section_table[sec_index].Size = LEndian2Word(&size);
 1037              		.loc 1 331 17 is_stmt 1 discriminator 3 view .LVU229
 331:System/diskio/DiskIO.c ****                 FATObj->disk_section_table[sec_index].Size = LEndian2Word(&size);
 1038              		.loc 1 331 66 is_stmt 0 discriminator 3 view .LVU230
 1039 00b2 04A8     		add	r0, sp, #16
 1040 00b4 FFF7FEFF 		bl	LEndian2Word
 1041              	.LVL78:
 331:System/diskio/DiskIO.c ****                 FATObj->disk_section_table[sec_index].Size = LEndian2Word(&size);
 1042              		.loc 1 331 64 discriminator 3 view .LVU231
 1043 00b8 C5F80900 		str	r0, [r5, #9]	@ unaligned
 332:System/diskio/DiskIO.c ****             }
 1044              		.loc 1 332 17 is_stmt 1 discriminator 3 view .LVU232
 332:System/diskio/DiskIO.c ****             }
 1045              		.loc 1 332 62 is_stmt 0 discriminator 3 view .LVU233
 1046 00bc 05A8     		add	r0, sp, #20
 1047 00be FFF7FEFF 		bl	LEndian2Word
 1048              	.LVL79:
 332:System/diskio/DiskIO.c ****             }
 1049              		.loc 1 332 60 discriminator 3 view .LVU234
 1050 00c2 C5F80D00 		str	r0, [r5, #13]	@ unaligned
 1051              	.LBE8:
 320:System/diskio/DiskIO.c ****             {
 1052              		.loc 1 320 81 is_stmt 1 discriminator 3 view .LVU235
 320:System/diskio/DiskIO.c ****             {
 1053              		.loc 1 320 90 is_stmt 0 discriminator 3 view .LVU236
 1054 00c6 0134     		adds	r4, r4, #1
 1055              	.LVL80:
 320:System/diskio/DiskIO.c ****             {
 1056              		.loc 1 320 90 discriminator 3 view .LVU237
 1057 00c8 E4B2     		uxtb	r4, r4
 1058              	.LVL81:
 1059              	.L76:
 320:System/diskio/DiskIO.c ****             {
 1060              		.loc 1 320 41 is_stmt 1 discriminator 1 view .LVU238
 320:System/diskio/DiskIO.c ****             {
 1061              		.loc 1 320 13 is_stmt 0 discriminator 1 view .LVU239
 1062 00ca 032C     		cmp	r4, #3
 1063 00cc DAD9     		bls	.L77
ARM GAS  C:\Users\huav\AppData\Local\Temp\cclD56Oe.s 			page 48


 1064 00ce B6E7     		b	.L74
 1065              	.LVL82:
 1066              	.L79:
 1067              	.LCFI31:
 1068              		.cfi_def_cfa_offset 0
 1069              		.cfi_restore 4
 1070              		.cfi_restore 5
 1071              		.cfi_restore 6
 1072              		.cfi_restore 7
 1073              		.cfi_restore 14
 320:System/diskio/DiskIO.c ****             {
 1074              		.loc 1 320 13 discriminator 1 view .LVU240
 1075 00d0 7047     		bx	lr
 1076              	.L84:
 1077 00d2 00BF     		.align	2
 1078              	.L83:
 1079 00d4 00000000 		.word	DevCard
 1080 00d8 00000000 		.word	.LANCHOR1
 1081 00dc 00000000 		.word	.LANCHOR0
 1082 00e0 00000000 		.word	.LANCHOR8
 1083              	.LBE7:
 1084              		.cfi_endproc
 1085              	.LFE150:
 1087              		.section	.text.Disk_ParseDBR,"ax",%progbits
 1088              		.align	1
 1089              		.syntax unified
 1090              		.thumb
 1091              		.thumb_func
 1092              		.fpu fpv5-d16
 1094              	Disk_ParseDBR:
 1095              	.LVL83:
 1096              	.LFB151:
 341:System/diskio/DiskIO.c ****     if (FATObj == NULL)
 1097              		.loc 1 341 1 is_stmt 1 view -0
 1098              		.cfi_startproc
 1099              		@ args = 0, pretend = 0, frame = 8
 1100              		@ frame_needed = 0, uses_anonymous_args = 0
 342:System/diskio/DiskIO.c ****         return;
 1101              		.loc 1 342 5 view .LVU242
 342:System/diskio/DiskIO.c ****         return;
 1102              		.loc 1 342 8 is_stmt 0 view .LVU243
 1103 0000 0028     		cmp	r0, #0
 1104 0002 00F0ED80 		beq	.L91
 341:System/diskio/DiskIO.c ****     if (FATObj == NULL)
 1105              		.loc 1 341 1 view .LVU244
 1106 0006 30B5     		push	{r4, r5, lr}
 1107              	.LCFI32:
 1108              		.cfi_def_cfa_offset 12
 1109              		.cfi_offset 4, -12
 1110              		.cfi_offset 5, -8
 1111              		.cfi_offset 14, -4
 1112 0008 85B0     		sub	sp, sp, #20
 1113              	.LCFI33:
 1114              		.cfi_def_cfa_offset 32
 1115 000a 0446     		mov	r4, r0
 345:System/diskio/DiskIO.c ****     {
 1116              		.loc 1 345 5 is_stmt 1 view .LVU245
ARM GAS  C:\Users\huav\AppData\Local\Temp\cclD56Oe.s 			page 49


 345:System/diskio/DiskIO.c ****     {
 1117              		.loc 1 345 15 is_stmt 0 view .LVU246
 1118 000c 0378     		ldrb	r3, [r0]	@ zero_extendqisi2
 345:System/diskio/DiskIO.c ****     {
 1119              		.loc 1 345 8 view .LVU247
 1120 000e BBB1     		cbz	r3, .L87
 347:System/diskio/DiskIO.c ****     }
 1121              		.loc 1 347 9 is_stmt 1 view .LVU248
 347:System/diskio/DiskIO.c ****     }
 1122              		.loc 1 347 16 is_stmt 0 view .LVU249
 1123 0010 744B     		ldr	r3, .L95
 1124 0012 5D69     		ldr	r5, [r3, #20]
 347:System/diskio/DiskIO.c ****     }
 1125              		.loc 1 347 9 view .LVU250
 1126 0014 0123     		movs	r3, #1
 1127 0016 0093     		str	r3, [sp]
 1128 0018 4FF40073 		mov	r3, #512
 1129 001c 724A     		ldr	r2, .L95+4
 1130 001e D0F80910 		ldr	r1, [r0, #9]	@ unaligned
 1131 0022 7248     		ldr	r0, .L95+8
 1132              	.LVL84:
 347:System/diskio/DiskIO.c ****     }
 1133              		.loc 1 347 9 view .LVU251
 1134 0024 A847     		blx	r5
 1135              	.LVL85:
 1136              	.L88:
 356:System/diskio/DiskIO.c ****         (*(Disk_Card_SectionBuff + DISK_CARD_MBR_TERMINATION_BYTE_2_OFFSET) == DISK_CARD_TERMINATIO
 1137              		.loc 1 356 5 is_stmt 1 view .LVU252
 356:System/diskio/DiskIO.c ****         (*(Disk_Card_SectionBuff + DISK_CARD_MBR_TERMINATION_BYTE_2_OFFSET) == DISK_CARD_TERMINATIO
 1138              		.loc 1 356 10 is_stmt 0 view .LVU253
 1139 0026 704B     		ldr	r3, .L95+4
 1140 0028 93F8FE31 		ldrb	r3, [r3, #510]	@ zero_extendqisi2
 356:System/diskio/DiskIO.c ****         (*(Disk_Card_SectionBuff + DISK_CARD_MBR_TERMINATION_BYTE_2_OFFSET) == DISK_CARD_TERMINATIO
 1141              		.loc 1 356 8 view .LVU254
 1142 002c 552B     		cmp	r3, #85
 1143 002e 12D0     		beq	.L94
 1144              	.L89:
 421:System/diskio/DiskIO.c **** }
 1145              		.loc 1 421 5 is_stmt 1 view .LVU255
 1146 0030 4FF40072 		mov	r2, #512
 1147 0034 0021     		movs	r1, #0
 1148 0036 6C48     		ldr	r0, .L95+4
 1149 0038 FFF7FEFF 		bl	memset
 1150              	.LVL86:
 422:System/diskio/DiskIO.c **** 
 1151              		.loc 1 422 1 is_stmt 0 view .LVU256
 1152 003c 05B0     		add	sp, sp, #20
 1153              	.LCFI34:
 1154              		.cfi_remember_state
 1155              		.cfi_def_cfa_offset 12
 1156              		@ sp needed
 1157 003e 30BD     		pop	{r4, r5, pc}
 1158              	.LVL87:
 1159              	.L87:
 1160              	.LCFI35:
 1161              		.cfi_restore_state
 352:System/diskio/DiskIO.c ****     }
ARM GAS  C:\Users\huav\AppData\Local\Temp\cclD56Oe.s 			page 50


 1162              		.loc 1 352 9 is_stmt 1 view .LVU257
 352:System/diskio/DiskIO.c ****     }
 1163              		.loc 1 352 16 is_stmt 0 view .LVU258
 1164 0040 684B     		ldr	r3, .L95
 1165 0042 5D69     		ldr	r5, [r3, #20]
 352:System/diskio/DiskIO.c ****     }
 1166              		.loc 1 352 9 view .LVU259
 1167 0044 0123     		movs	r3, #1
 1168 0046 0093     		str	r3, [sp]
 1169 0048 4FF40073 		mov	r3, #512
 1170 004c 664A     		ldr	r2, .L95+4
 1171 004e 0021     		movs	r1, #0
 1172 0050 6648     		ldr	r0, .L95+8
 1173              	.LVL88:
 352:System/diskio/DiskIO.c ****     }
 1174              		.loc 1 352 9 view .LVU260
 1175 0052 A847     		blx	r5
 1176              	.LVL89:
 1177 0054 E7E7     		b	.L88
 1178              	.L94:
 357:System/diskio/DiskIO.c ****     {
 1179              		.loc 1 357 10 discriminator 1 view .LVU261
 1180 0056 644B     		ldr	r3, .L95+4
 1181 0058 93F8FF31 		ldrb	r3, [r3, #511]	@ zero_extendqisi2
 356:System/diskio/DiskIO.c ****         (*(Disk_Card_SectionBuff + DISK_CARD_MBR_TERMINATION_BYTE_2_OFFSET) == DISK_CARD_TERMINATIO
 1182              		.loc 1 356 110 discriminator 1 view .LVU262
 1183 005c AA2B     		cmp	r3, #170
 1184 005e E7D1     		bne	.L89
 1185              	.LBB9:
 359:System/diskio/DiskIO.c ****         uint32_t word_tmp = 0;
 1186              		.loc 1 359 9 is_stmt 1 view .LVU263
 359:System/diskio/DiskIO.c ****         uint32_t word_tmp = 0;
 1187              		.loc 1 359 18 is_stmt 0 view .LVU264
 1188 0060 0023     		movs	r3, #0
 1189 0062 ADF80A30 		strh	r3, [sp, #10]	@ movhi
 360:System/diskio/DiskIO.c **** 
 1190              		.loc 1 360 9 is_stmt 1 view .LVU265
 360:System/diskio/DiskIO.c **** 
 1191              		.loc 1 360 18 is_stmt 0 view .LVU266
 1192 0066 0393     		str	r3, [sp, #12]
 362:System/diskio/DiskIO.c **** 
 1193              		.loc 1 362 9 is_stmt 1 view .LVU267
 1194 0068 5A22     		movs	r2, #90
 1195 006a 5F49     		ldr	r1, .L95+4
 1196 006c 04F14100 		add	r0, r4, #65
 1197 0070 FFF7FEFF 		bl	memcpy
 1198              	.LVL90:
 364:System/diskio/DiskIO.c ****         FATObj->DBR_info.BytesPerSec = LEndian2HalfWord(&half_word_tmp);
 1199              		.loc 1 364 9 view .LVU268
 364:System/diskio/DiskIO.c ****         FATObj->DBR_info.BytesPerSec = LEndian2HalfWord(&half_word_tmp);
 1200              		.loc 1 364 41 is_stmt 0 view .LVU269
 1201 0074 B4F84C30 		ldrh	r3, [r4, #76]	@ unaligned
 364:System/diskio/DiskIO.c ****         FATObj->DBR_info.BytesPerSec = LEndian2HalfWord(&half_word_tmp);
 1202              		.loc 1 364 23 view .LVU270
 1203 0078 ADF80A30 		strh	r3, [sp, #10]	@ movhi
 365:System/diskio/DiskIO.c **** 
 1204              		.loc 1 365 9 is_stmt 1 view .LVU271
ARM GAS  C:\Users\huav\AppData\Local\Temp\cclD56Oe.s 			page 51


 365:System/diskio/DiskIO.c **** 
 1205              		.loc 1 365 40 is_stmt 0 view .LVU272
 1206 007c 0DF10A00 		add	r0, sp, #10
 1207 0080 FFF7FEFF 		bl	LEndian2HalfWord
 1208              	.LVL91:
 365:System/diskio/DiskIO.c **** 
 1209              		.loc 1 365 38 view .LVU273
 1210 0084 A4F84C00 		strh	r0, [r4, #76]	@ unaligned
 367:System/diskio/DiskIO.c ****         FATObj->DBR_info.RsvdSecCnt = LEndian2HalfWord(&half_word_tmp);
 1211              		.loc 1 367 9 is_stmt 1 view .LVU274
 367:System/diskio/DiskIO.c ****         FATObj->DBR_info.RsvdSecCnt = LEndian2HalfWord(&half_word_tmp);
 1212              		.loc 1 367 41 is_stmt 0 view .LVU275
 1213 0088 B4F84F30 		ldrh	r3, [r4, #79]	@ unaligned
 367:System/diskio/DiskIO.c ****         FATObj->DBR_info.RsvdSecCnt = LEndian2HalfWord(&half_word_tmp);
 1214              		.loc 1 367 23 view .LVU276
 1215 008c ADF80A30 		strh	r3, [sp, #10]	@ movhi
 368:System/diskio/DiskIO.c **** 
 1216              		.loc 1 368 9 is_stmt 1 view .LVU277
 368:System/diskio/DiskIO.c **** 
 1217              		.loc 1 368 39 is_stmt 0 view .LVU278
 1218 0090 0DF10A00 		add	r0, sp, #10
 1219 0094 FFF7FEFF 		bl	LEndian2HalfWord
 1220              	.LVL92:
 368:System/diskio/DiskIO.c **** 
 1221              		.loc 1 368 37 view .LVU279
 1222 0098 A4F84F00 		strh	r0, [r4, #79]	@ unaligned
 370:System/diskio/DiskIO.c ****         FATObj->DBR_info.RootEntCnt = LEndian2HalfWord(&half_word_tmp);
 1223              		.loc 1 370 9 is_stmt 1 view .LVU280
 370:System/diskio/DiskIO.c ****         FATObj->DBR_info.RootEntCnt = LEndian2HalfWord(&half_word_tmp);
 1224              		.loc 1 370 41 is_stmt 0 view .LVU281
 1225 009c B4F85230 		ldrh	r3, [r4, #82]	@ unaligned
 370:System/diskio/DiskIO.c ****         FATObj->DBR_info.RootEntCnt = LEndian2HalfWord(&half_word_tmp);
 1226              		.loc 1 370 23 view .LVU282
 1227 00a0 ADF80A30 		strh	r3, [sp, #10]	@ movhi
 371:System/diskio/DiskIO.c **** 
 1228              		.loc 1 371 9 is_stmt 1 view .LVU283
 371:System/diskio/DiskIO.c **** 
 1229              		.loc 1 371 39 is_stmt 0 view .LVU284
 1230 00a4 0DF10A00 		add	r0, sp, #10
 1231 00a8 FFF7FEFF 		bl	LEndian2HalfWord
 1232              	.LVL93:
 371:System/diskio/DiskIO.c **** 
 1233              		.loc 1 371 37 view .LVU285
 1234 00ac A4F85200 		strh	r0, [r4, #82]	@ unaligned
 373:System/diskio/DiskIO.c ****         FATObj->DBR_info.TotSec16 = LEndian2HalfWord(&half_word_tmp);
 1235              		.loc 1 373 9 is_stmt 1 view .LVU286
 373:System/diskio/DiskIO.c ****         FATObj->DBR_info.TotSec16 = LEndian2HalfWord(&half_word_tmp);
 1236              		.loc 1 373 41 is_stmt 0 view .LVU287
 1237 00b0 B4F85430 		ldrh	r3, [r4, #84]	@ unaligned
 373:System/diskio/DiskIO.c ****         FATObj->DBR_info.TotSec16 = LEndian2HalfWord(&half_word_tmp);
 1238              		.loc 1 373 23 view .LVU288
 1239 00b4 ADF80A30 		strh	r3, [sp, #10]	@ movhi
 374:System/diskio/DiskIO.c **** 
 1240              		.loc 1 374 9 is_stmt 1 view .LVU289
 374:System/diskio/DiskIO.c **** 
 1241              		.loc 1 374 37 is_stmt 0 view .LVU290
 1242 00b8 0DF10A00 		add	r0, sp, #10
ARM GAS  C:\Users\huav\AppData\Local\Temp\cclD56Oe.s 			page 52


 1243 00bc FFF7FEFF 		bl	LEndian2HalfWord
 1244              	.LVL94:
 374:System/diskio/DiskIO.c **** 
 1245              		.loc 1 374 35 view .LVU291
 1246 00c0 A4F85400 		strh	r0, [r4, #84]	@ unaligned
 376:System/diskio/DiskIO.c ****         FATObj->DBR_info.FATSz16 = LEndian2HalfWord(&half_word_tmp);
 1247              		.loc 1 376 9 is_stmt 1 view .LVU292
 376:System/diskio/DiskIO.c ****         FATObj->DBR_info.FATSz16 = LEndian2HalfWord(&half_word_tmp);
 1248              		.loc 1 376 41 is_stmt 0 view .LVU293
 1249 00c4 B4F85730 		ldrh	r3, [r4, #87]	@ unaligned
 376:System/diskio/DiskIO.c ****         FATObj->DBR_info.FATSz16 = LEndian2HalfWord(&half_word_tmp);
 1250              		.loc 1 376 23 view .LVU294
 1251 00c8 ADF80A30 		strh	r3, [sp, #10]	@ movhi
 377:System/diskio/DiskIO.c **** 
 1252              		.loc 1 377 9 is_stmt 1 view .LVU295
 377:System/diskio/DiskIO.c **** 
 1253              		.loc 1 377 36 is_stmt 0 view .LVU296
 1254 00cc 0DF10A00 		add	r0, sp, #10
 1255 00d0 FFF7FEFF 		bl	LEndian2HalfWord
 1256              	.LVL95:
 377:System/diskio/DiskIO.c **** 
 1257              		.loc 1 377 34 view .LVU297
 1258 00d4 A4F85700 		strh	r0, [r4, #87]	@ unaligned
 379:System/diskio/DiskIO.c ****         FATObj->DBR_info.SecPerTrk = LEndian2HalfWord(&half_word_tmp);
 1259              		.loc 1 379 9 is_stmt 1 view .LVU298
 379:System/diskio/DiskIO.c ****         FATObj->DBR_info.SecPerTrk = LEndian2HalfWord(&half_word_tmp);
 1260              		.loc 1 379 41 is_stmt 0 view .LVU299
 1261 00d8 B4F85930 		ldrh	r3, [r4, #89]	@ unaligned
 379:System/diskio/DiskIO.c ****         FATObj->DBR_info.SecPerTrk = LEndian2HalfWord(&half_word_tmp);
 1262              		.loc 1 379 23 view .LVU300
 1263 00dc ADF80A30 		strh	r3, [sp, #10]	@ movhi
 380:System/diskio/DiskIO.c **** 
 1264              		.loc 1 380 9 is_stmt 1 view .LVU301
 380:System/diskio/DiskIO.c **** 
 1265              		.loc 1 380 38 is_stmt 0 view .LVU302
 1266 00e0 0DF10A00 		add	r0, sp, #10
 1267 00e4 FFF7FEFF 		bl	LEndian2HalfWord
 1268              	.LVL96:
 380:System/diskio/DiskIO.c **** 
 1269              		.loc 1 380 36 view .LVU303
 1270 00e8 A4F85900 		strh	r0, [r4, #89]	@ unaligned
 382:System/diskio/DiskIO.c ****         FATObj->DBR_info.NumHeads = LEndian2HalfWord(&half_word_tmp);
 1271              		.loc 1 382 9 is_stmt 1 view .LVU304
 382:System/diskio/DiskIO.c ****         FATObj->DBR_info.NumHeads = LEndian2HalfWord(&half_word_tmp);
 1272              		.loc 1 382 41 is_stmt 0 view .LVU305
 1273 00ec B4F85B30 		ldrh	r3, [r4, #91]	@ unaligned
 382:System/diskio/DiskIO.c ****         FATObj->DBR_info.NumHeads = LEndian2HalfWord(&half_word_tmp);
 1274              		.loc 1 382 23 view .LVU306
 1275 00f0 ADF80A30 		strh	r3, [sp, #10]	@ movhi
 383:System/diskio/DiskIO.c **** 
 1276              		.loc 1 383 9 is_stmt 1 view .LVU307
 383:System/diskio/DiskIO.c **** 
 1277              		.loc 1 383 37 is_stmt 0 view .LVU308
 1278 00f4 0DF10A00 		add	r0, sp, #10
 1279 00f8 FFF7FEFF 		bl	LEndian2HalfWord
 1280              	.LVL97:
 383:System/diskio/DiskIO.c **** 
ARM GAS  C:\Users\huav\AppData\Local\Temp\cclD56Oe.s 			page 53


 1281              		.loc 1 383 35 view .LVU309
 1282 00fc A4F85B00 		strh	r0, [r4, #91]	@ unaligned
 385:System/diskio/DiskIO.c ****         FATObj->DBR_info.HiddSec = LEndian2Word(&word_tmp);
 1283              		.loc 1 385 9 is_stmt 1 view .LVU310
 385:System/diskio/DiskIO.c ****         FATObj->DBR_info.HiddSec = LEndian2Word(&word_tmp);
 1284              		.loc 1 385 36 is_stmt 0 view .LVU311
 1285 0100 D4F85D30 		ldr	r3, [r4, #93]	@ unaligned
 385:System/diskio/DiskIO.c ****         FATObj->DBR_info.HiddSec = LEndian2Word(&word_tmp);
 1286              		.loc 1 385 18 view .LVU312
 1287 0104 0393     		str	r3, [sp, #12]
 386:System/diskio/DiskIO.c **** 
 1288              		.loc 1 386 9 is_stmt 1 view .LVU313
 386:System/diskio/DiskIO.c **** 
 1289              		.loc 1 386 36 is_stmt 0 view .LVU314
 1290 0106 03A8     		add	r0, sp, #12
 1291 0108 FFF7FEFF 		bl	LEndian2Word
 1292              	.LVL98:
 386:System/diskio/DiskIO.c **** 
 1293              		.loc 1 386 34 view .LVU315
 1294 010c C4F85D00 		str	r0, [r4, #93]	@ unaligned
 388:System/diskio/DiskIO.c ****         FATObj->DBR_info.TotSec32 = LEndian2Word(&word_tmp);
 1295              		.loc 1 388 9 is_stmt 1 view .LVU316
 388:System/diskio/DiskIO.c ****         FATObj->DBR_info.TotSec32 = LEndian2Word(&word_tmp);
 1296              		.loc 1 388 36 is_stmt 0 view .LVU317
 1297 0110 D4F86130 		ldr	r3, [r4, #97]	@ unaligned
 388:System/diskio/DiskIO.c ****         FATObj->DBR_info.TotSec32 = LEndian2Word(&word_tmp);
 1298              		.loc 1 388 18 view .LVU318
 1299 0114 0393     		str	r3, [sp, #12]
 389:System/diskio/DiskIO.c **** 
 1300              		.loc 1 389 9 is_stmt 1 view .LVU319
 389:System/diskio/DiskIO.c **** 
 1301              		.loc 1 389 37 is_stmt 0 view .LVU320
 1302 0116 03A8     		add	r0, sp, #12
 1303 0118 FFF7FEFF 		bl	LEndian2Word
 1304              	.LVL99:
 389:System/diskio/DiskIO.c **** 
 1305              		.loc 1 389 35 view .LVU321
 1306 011c C4F86100 		str	r0, [r4, #97]	@ unaligned
 391:System/diskio/DiskIO.c ****         FATObj->DBR_info.FATSz32 = LEndian2Word(&word_tmp);
 1307              		.loc 1 391 9 is_stmt 1 view .LVU322
 391:System/diskio/DiskIO.c ****         FATObj->DBR_info.FATSz32 = LEndian2Word(&word_tmp);
 1308              		.loc 1 391 36 is_stmt 0 view .LVU323
 1309 0120 D4F86530 		ldr	r3, [r4, #101]	@ unaligned
 391:System/diskio/DiskIO.c ****         FATObj->DBR_info.FATSz32 = LEndian2Word(&word_tmp);
 1310              		.loc 1 391 18 view .LVU324
 1311 0124 0393     		str	r3, [sp, #12]
 392:System/diskio/DiskIO.c **** 
 1312              		.loc 1 392 9 is_stmt 1 view .LVU325
 392:System/diskio/DiskIO.c **** 
 1313              		.loc 1 392 36 is_stmt 0 view .LVU326
 1314 0126 03A8     		add	r0, sp, #12
 1315 0128 FFF7FEFF 		bl	LEndian2Word
 1316              	.LVL100:
 392:System/diskio/DiskIO.c **** 
 1317              		.loc 1 392 34 view .LVU327
 1318 012c C4F86500 		str	r0, [r4, #101]	@ unaligned
 394:System/diskio/DiskIO.c ****         FATObj->DBR_info.ExtFlags = LEndian2HalfWord(&half_word_tmp);
ARM GAS  C:\Users\huav\AppData\Local\Temp\cclD56Oe.s 			page 54


 1319              		.loc 1 394 9 is_stmt 1 view .LVU328
 394:System/diskio/DiskIO.c ****         FATObj->DBR_info.ExtFlags = LEndian2HalfWord(&half_word_tmp);
 1320              		.loc 1 394 41 is_stmt 0 view .LVU329
 1321 0130 B4F86930 		ldrh	r3, [r4, #105]	@ unaligned
 394:System/diskio/DiskIO.c ****         FATObj->DBR_info.ExtFlags = LEndian2HalfWord(&half_word_tmp);
 1322              		.loc 1 394 23 view .LVU330
 1323 0134 ADF80A30 		strh	r3, [sp, #10]	@ movhi
 395:System/diskio/DiskIO.c **** 
 1324              		.loc 1 395 9 is_stmt 1 view .LVU331
 395:System/diskio/DiskIO.c **** 
 1325              		.loc 1 395 37 is_stmt 0 view .LVU332
 1326 0138 0DF10A00 		add	r0, sp, #10
 1327 013c FFF7FEFF 		bl	LEndian2HalfWord
 1328              	.LVL101:
 395:System/diskio/DiskIO.c **** 
 1329              		.loc 1 395 35 view .LVU333
 1330 0140 A4F86900 		strh	r0, [r4, #105]	@ unaligned
 397:System/diskio/DiskIO.c ****         FATObj->DBR_info.FSVer = LEndian2HalfWord(&half_word_tmp);
 1331              		.loc 1 397 9 is_stmt 1 view .LVU334
 397:System/diskio/DiskIO.c ****         FATObj->DBR_info.FSVer = LEndian2HalfWord(&half_word_tmp);
 1332              		.loc 1 397 41 is_stmt 0 view .LVU335
 1333 0144 B4F86B30 		ldrh	r3, [r4, #107]	@ unaligned
 397:System/diskio/DiskIO.c ****         FATObj->DBR_info.FSVer = LEndian2HalfWord(&half_word_tmp);
 1334              		.loc 1 397 23 view .LVU336
 1335 0148 ADF80A30 		strh	r3, [sp, #10]	@ movhi
 398:System/diskio/DiskIO.c **** 
 1336              		.loc 1 398 9 is_stmt 1 view .LVU337
 398:System/diskio/DiskIO.c **** 
 1337              		.loc 1 398 34 is_stmt 0 view .LVU338
 1338 014c 0DF10A00 		add	r0, sp, #10
 1339 0150 FFF7FEFF 		bl	LEndian2HalfWord
 1340              	.LVL102:
 398:System/diskio/DiskIO.c **** 
 1341              		.loc 1 398 32 view .LVU339
 1342 0154 A4F86B00 		strh	r0, [r4, #107]	@ unaligned
 400:System/diskio/DiskIO.c ****         FATObj->DBR_info.RootClus = LEndian2Word(&word_tmp);
 1343              		.loc 1 400 9 is_stmt 1 view .LVU340
 400:System/diskio/DiskIO.c ****         FATObj->DBR_info.RootClus = LEndian2Word(&word_tmp);
 1344              		.loc 1 400 36 is_stmt 0 view .LVU341
 1345 0158 D4F86D30 		ldr	r3, [r4, #109]	@ unaligned
 400:System/diskio/DiskIO.c ****         FATObj->DBR_info.RootClus = LEndian2Word(&word_tmp);
 1346              		.loc 1 400 18 view .LVU342
 1347 015c 0393     		str	r3, [sp, #12]
 401:System/diskio/DiskIO.c **** 
 1348              		.loc 1 401 9 is_stmt 1 view .LVU343
 401:System/diskio/DiskIO.c **** 
 1349              		.loc 1 401 37 is_stmt 0 view .LVU344
 1350 015e 03A8     		add	r0, sp, #12
 1351 0160 FFF7FEFF 		bl	LEndian2Word
 1352              	.LVL103:
 401:System/diskio/DiskIO.c **** 
 1353              		.loc 1 401 35 view .LVU345
 1354 0164 C4F86D00 		str	r0, [r4, #109]	@ unaligned
 403:System/diskio/DiskIO.c ****         FATObj->DBR_info.FSInfo = LEndian2HalfWord(&half_word_tmp);
 1355              		.loc 1 403 9 is_stmt 1 view .LVU346
 403:System/diskio/DiskIO.c ****         FATObj->DBR_info.FSInfo = LEndian2HalfWord(&half_word_tmp);
 1356              		.loc 1 403 41 is_stmt 0 view .LVU347
ARM GAS  C:\Users\huav\AppData\Local\Temp\cclD56Oe.s 			page 55


 1357 0168 B4F87130 		ldrh	r3, [r4, #113]	@ unaligned
 403:System/diskio/DiskIO.c ****         FATObj->DBR_info.FSInfo = LEndian2HalfWord(&half_word_tmp);
 1358              		.loc 1 403 23 view .LVU348
 1359 016c ADF80A30 		strh	r3, [sp, #10]	@ movhi
 404:System/diskio/DiskIO.c **** 
 1360              		.loc 1 404 9 is_stmt 1 view .LVU349
 404:System/diskio/DiskIO.c **** 
 1361              		.loc 1 404 35 is_stmt 0 view .LVU350
 1362 0170 0DF10A00 		add	r0, sp, #10
 1363 0174 FFF7FEFF 		bl	LEndian2HalfWord
 1364              	.LVL104:
 404:System/diskio/DiskIO.c **** 
 1365              		.loc 1 404 33 view .LVU351
 1366 0178 A4F87100 		strh	r0, [r4, #113]	@ unaligned
 406:System/diskio/DiskIO.c ****         FATObj->DBR_info.BkBootSec = LEndian2HalfWord(&half_word_tmp);
 1367              		.loc 1 406 9 is_stmt 1 view .LVU352
 406:System/diskio/DiskIO.c ****         FATObj->DBR_info.BkBootSec = LEndian2HalfWord(&half_word_tmp);
 1368              		.loc 1 406 41 is_stmt 0 view .LVU353
 1369 017c B4F87330 		ldrh	r3, [r4, #115]	@ unaligned
 406:System/diskio/DiskIO.c ****         FATObj->DBR_info.BkBootSec = LEndian2HalfWord(&half_word_tmp);
 1370              		.loc 1 406 23 view .LVU354
 1371 0180 ADF80A30 		strh	r3, [sp, #10]	@ movhi
 407:System/diskio/DiskIO.c **** 
 1372              		.loc 1 407 9 is_stmt 1 view .LVU355
 407:System/diskio/DiskIO.c **** 
 1373              		.loc 1 407 38 is_stmt 0 view .LVU356
 1374 0184 0DF10A00 		add	r0, sp, #10
 1375 0188 FFF7FEFF 		bl	LEndian2HalfWord
 1376              	.LVL105:
 407:System/diskio/DiskIO.c **** 
 1377              		.loc 1 407 36 view .LVU357
 1378 018c A4F87300 		strh	r0, [r4, #115]	@ unaligned
 409:System/diskio/DiskIO.c ****         FATObj->DBR_info.VolID = LEndian2Word(&word_tmp);
 1379              		.loc 1 409 9 is_stmt 1 view .LVU358
 409:System/diskio/DiskIO.c ****         FATObj->DBR_info.VolID = LEndian2Word(&word_tmp);
 1380              		.loc 1 409 36 is_stmt 0 view .LVU359
 1381 0190 D4F88430 		ldr	r3, [r4, #132]	@ unaligned
 409:System/diskio/DiskIO.c ****         FATObj->DBR_info.VolID = LEndian2Word(&word_tmp);
 1382              		.loc 1 409 18 view .LVU360
 1383 0194 0393     		str	r3, [sp, #12]
 410:System/diskio/DiskIO.c **** 
 1384              		.loc 1 410 9 is_stmt 1 view .LVU361
 410:System/diskio/DiskIO.c **** 
 1385              		.loc 1 410 34 is_stmt 0 view .LVU362
 1386 0196 03A8     		add	r0, sp, #12
 1387 0198 FFF7FEFF 		bl	LEndian2Word
 1388              	.LVL106:
 410:System/diskio/DiskIO.c **** 
 1389              		.loc 1 410 32 view .LVU363
 1390 019c C4F88400 		str	r0, [r4, #132]	@ unaligned
 412:System/diskio/DiskIO.c ****         FATObj->BytePerSection = FATObj->DBR_info.BytesPerSec;
 1391              		.loc 1 412 9 is_stmt 1 view .LVU364
 412:System/diskio/DiskIO.c ****         FATObj->BytePerSection = FATObj->DBR_info.BytesPerSec;
 1392              		.loc 1 412 58 is_stmt 0 view .LVU365
 1393 01a0 D4F80930 		ldr	r3, [r4, #9]	@ unaligned
 412:System/diskio/DiskIO.c ****         FATObj->BytePerSection = FATObj->DBR_info.BytesPerSec;
 1394              		.loc 1 412 27 view .LVU366
ARM GAS  C:\Users\huav\AppData\Local\Temp\cclD56Oe.s 			page 56


 1395 01a4 C4F89F30 		str	r3, [r4, #159]	@ unaligned
 413:System/diskio/DiskIO.c ****         FATObj->FAT_Sections = FATObj->DBR_info.FATSz32;
 1396              		.loc 1 413 9 is_stmt 1 view .LVU367
 413:System/diskio/DiskIO.c ****         FATObj->FAT_Sections = FATObj->DBR_info.FATSz32;
 1397              		.loc 1 413 50 is_stmt 0 view .LVU368
 1398 01a8 B4F84C20 		ldrh	r2, [r4, #76]	@ unaligned
 413:System/diskio/DiskIO.c ****         FATObj->FAT_Sections = FATObj->DBR_info.FATSz32;
 1399              		.loc 1 413 32 view .LVU369
 1400 01ac C4F8A320 		str	r2, [r4, #163]	@ unaligned
 414:System/diskio/DiskIO.c ****         FATObj->SecPerCluster = FATObj->DBR_info.SecPerClus;
 1401              		.loc 1 414 9 is_stmt 1 view .LVU370
 414:System/diskio/DiskIO.c ****         FATObj->SecPerCluster = FATObj->DBR_info.SecPerClus;
 1402              		.loc 1 414 48 is_stmt 0 view .LVU371
 1403 01b0 D4F86520 		ldr	r2, [r4, #101]	@ unaligned
 414:System/diskio/DiskIO.c ****         FATObj->SecPerCluster = FATObj->DBR_info.SecPerClus;
 1404              		.loc 1 414 30 view .LVU372
 1405 01b4 C4F8A720 		str	r2, [r4, #167]	@ unaligned
 415:System/diskio/DiskIO.c ****         FATObj->Fst_FATSector = FATObj->DBR_SecNo + FATObj->DBR_info.RsvdSecCnt;
 1406              		.loc 1 415 9 is_stmt 1 view .LVU373
 415:System/diskio/DiskIO.c ****         FATObj->Fst_FATSector = FATObj->DBR_SecNo + FATObj->DBR_info.RsvdSecCnt;
 1407              		.loc 1 415 49 is_stmt 0 view .LVU374
 1408 01b8 94F84E10 		ldrb	r1, [r4, #78]	@ zero_extendqisi2
 415:System/diskio/DiskIO.c ****         FATObj->Fst_FATSector = FATObj->DBR_SecNo + FATObj->DBR_info.RsvdSecCnt;
 1409              		.loc 1 415 31 view .LVU375
 1410 01bc C4F8AB10 		str	r1, [r4, #171]	@ unaligned
 416:System/diskio/DiskIO.c ****         FATObj->Fst_DirSector = FATObj->Fst_FATSector + FATObj->DBR_info.NumFATs * FATObj->DBR_info
 1411              		.loc 1 416 9 is_stmt 1 view .LVU376
 416:System/diskio/DiskIO.c ****         FATObj->Fst_DirSector = FATObj->Fst_FATSector + FATObj->DBR_info.NumFATs * FATObj->DBR_info
 1412              		.loc 1 416 69 is_stmt 0 view .LVU377
 1413 01c0 B4F84F10 		ldrh	r1, [r4, #79]	@ unaligned
 416:System/diskio/DiskIO.c ****         FATObj->Fst_DirSector = FATObj->Fst_FATSector + FATObj->DBR_info.NumFATs * FATObj->DBR_info
 1414              		.loc 1 416 51 view .LVU378
 1415 01c4 0B44     		add	r3, r3, r1
 416:System/diskio/DiskIO.c ****         FATObj->Fst_DirSector = FATObj->Fst_FATSector + FATObj->DBR_info.NumFATs * FATObj->DBR_info
 1416              		.loc 1 416 31 view .LVU379
 1417 01c6 C4F8AF30 		str	r3, [r4, #175]	@ unaligned
 417:System/diskio/DiskIO.c ****         FATObj->Total_KBSize = FATObj->DBR_info.TotSec32;
 1418              		.loc 1 417 9 is_stmt 1 view .LVU380
 417:System/diskio/DiskIO.c ****         FATObj->Total_KBSize = FATObj->DBR_info.TotSec32;
 1419              		.loc 1 417 73 is_stmt 0 view .LVU381
 1420 01ca 94F85110 		ldrb	r1, [r4, #81]	@ zero_extendqisi2
 417:System/diskio/DiskIO.c ****         FATObj->Total_KBSize = FATObj->DBR_info.TotSec32;
 1421              		.loc 1 417 55 view .LVU382
 1422 01ce 01FB0233 		mla	r3, r1, r2, r3
 417:System/diskio/DiskIO.c ****         FATObj->Total_KBSize = FATObj->DBR_info.TotSec32;
 1423              		.loc 1 417 31 view .LVU383
 1424 01d2 C4F8B330 		str	r3, [r4, #179]	@ unaligned
 418:System/diskio/DiskIO.c ****     }
 1425              		.loc 1 418 9 is_stmt 1 view .LVU384
 418:System/diskio/DiskIO.c ****     }
 1426              		.loc 1 418 48 is_stmt 0 view .LVU385
 1427 01d6 D4F86130 		ldr	r3, [r4, #97]	@ unaligned
 418:System/diskio/DiskIO.c ****     }
 1428              		.loc 1 418 30 view .LVU386
 1429 01da C4F8B730 		str	r3, [r4, #183]	@ unaligned
 1430 01de 27E7     		b	.L89
 1431              	.LVL107:
ARM GAS  C:\Users\huav\AppData\Local\Temp\cclD56Oe.s 			page 57


 1432              	.L91:
 1433              	.LCFI36:
 1434              		.cfi_def_cfa_offset 0
 1435              		.cfi_restore 4
 1436              		.cfi_restore 5
 1437              		.cfi_restore 14
 418:System/diskio/DiskIO.c ****     }
 1438              		.loc 1 418 30 view .LVU387
 1439 01e0 7047     		bx	lr
 1440              	.L96:
 1441 01e2 00BF     		.align	2
 1442              	.L95:
 1443 01e4 00000000 		.word	DevCard
 1444 01e8 00000000 		.word	.LANCHOR1
 1445 01ec 00000000 		.word	.LANCHOR0
 1446              	.LBE9:
 1447              		.cfi_endproc
 1448              	.LFE151:
 1450              		.section	.rodata.Disk_ParseFSINFO.str1.4,"aMS",%progbits,1
 1451              		.align	2
 1452              	.LC3:
 1453 0000 52526141 		.ascii	"RRaA\000"
 1453      00
 1454 0005 000000   		.align	2
 1455              	.LC4:
 1456 0008 72724161 		.ascii	"rrAa\000"
 1456      00
 1457              		.section	.text.Disk_ParseFSINFO,"ax",%progbits
 1458              		.align	1
 1459              		.syntax unified
 1460              		.thumb
 1461              		.thumb_func
 1462              		.fpu fpv5-d16
 1464              	Disk_ParseFSINFO:
 1465              	.LVL108:
 1466              	.LFB152:
 425:System/diskio/DiskIO.c ****     bool error = true;
 1467              		.loc 1 425 1 is_stmt 1 view -0
 1468              		.cfi_startproc
 1469              		@ args = 0, pretend = 0, frame = 512
 1470              		@ frame_needed = 0, uses_anonymous_args = 0
 426:System/diskio/DiskIO.c ****     Disk_CardFSINFO_Typedef FSInfo;
 1471              		.loc 1 426 5 view .LVU389
 427:System/diskio/DiskIO.c ****     uint32_t FSInfo_SecNo = 1;
 1472              		.loc 1 427 5 view .LVU390
 428:System/diskio/DiskIO.c **** 
 1473              		.loc 1 428 5 view .LVU391
 431:System/diskio/DiskIO.c ****         return;
 1474              		.loc 1 431 5 view .LVU392
 431:System/diskio/DiskIO.c ****         return;
 1475              		.loc 1 431 8 is_stmt 0 view .LVU393
 1476 0000 0028     		cmp	r0, #0
 1477 0002 59D0     		beq	.L105
 425:System/diskio/DiskIO.c ****     bool error = true;
 1478              		.loc 1 425 1 view .LVU394
 1479 0004 70B5     		push	{r4, r5, r6, lr}
 1480              	.LCFI37:
ARM GAS  C:\Users\huav\AppData\Local\Temp\cclD56Oe.s 			page 58


 1481              		.cfi_def_cfa_offset 16
 1482              		.cfi_offset 4, -16
 1483              		.cfi_offset 5, -12
 1484              		.cfi_offset 6, -8
 1485              		.cfi_offset 14, -4
 1486 0006 ADF5027D 		sub	sp, sp, #520
 1487              	.LCFI38:
 1488              		.cfi_def_cfa_offset 536
 1489 000a 0446     		mov	r4, r0
 434:System/diskio/DiskIO.c **** 
 1490              		.loc 1 434 5 is_stmt 1 view .LVU395
 1491 000c 4FF40072 		mov	r2, #512
 1492 0010 0021     		movs	r1, #0
 1493 0012 02A8     		add	r0, sp, #8
 1494              	.LVL109:
 434:System/diskio/DiskIO.c **** 
 1495              		.loc 1 434 5 is_stmt 0 view .LVU396
 1496 0014 FFF7FEFF 		bl	memset
 1497              	.LVL110:
 436:System/diskio/DiskIO.c ****     {
 1498              		.loc 1 436 5 is_stmt 1 view .LVU397
 436:System/diskio/DiskIO.c ****     {
 1499              		.loc 1 436 15 is_stmt 0 view .LVU398
 1500 0018 2378     		ldrb	r3, [r4]	@ zero_extendqisi2
 436:System/diskio/DiskIO.c ****     {
 1501              		.loc 1 436 8 view .LVU399
 1502 001a 002B     		cmp	r3, #0
 1503 001c 35D0     		beq	.L100
 438:System/diskio/DiskIO.c ****         DevCard.read(&DevTFCard_Obj.SDMMC_Obj, FATObj->disk_section_table[0].StartLBA + 1, Disk_Car
 1504              		.loc 1 438 9 is_stmt 1 view .LVU400
 438:System/diskio/DiskIO.c ****         DevCard.read(&DevTFCard_Obj.SDMMC_Obj, FATObj->disk_section_table[0].StartLBA + 1, Disk_Car
 1505              		.loc 1 438 53 is_stmt 0 view .LVU401
 1506 001e D4F80950 		ldr	r5, [r4, #9]	@ unaligned
 438:System/diskio/DiskIO.c ****         DevCard.read(&DevTFCard_Obj.SDMMC_Obj, FATObj->disk_section_table[0].StartLBA + 1, Disk_Car
 1507              		.loc 1 438 22 view .LVU402
 1508 0022 0135     		adds	r5, r5, #1
 1509              	.LVL111:
 439:System/diskio/DiskIO.c ****     }
 1510              		.loc 1 439 9 is_stmt 1 view .LVU403
 439:System/diskio/DiskIO.c ****     }
 1511              		.loc 1 439 16 is_stmt 0 view .LVU404
 1512 0024 254B     		ldr	r3, .L109
 1513 0026 5E69     		ldr	r6, [r3, #20]
 439:System/diskio/DiskIO.c ****     }
 1514              		.loc 1 439 9 view .LVU405
 1515 0028 0123     		movs	r3, #1
 1516 002a 0093     		str	r3, [sp]
 1517 002c 4FF40073 		mov	r3, #512
 1518 0030 234A     		ldr	r2, .L109+4
 1519 0032 2946     		mov	r1, r5
 1520 0034 2348     		ldr	r0, .L109+8
 1521 0036 B047     		blx	r6
 1522              	.LVL112:
 1523              	.L101:
 447:System/diskio/DiskIO.c **** 
 1524              		.loc 1 447 5 is_stmt 1 view .LVU406
 1525 0038 4FF40072 		mov	r2, #512
ARM GAS  C:\Users\huav\AppData\Local\Temp\cclD56Oe.s 			page 59


 1526 003c 2049     		ldr	r1, .L109+4
 1527 003e 02A8     		add	r0, sp, #8
 1528 0040 FFF7FEFF 		bl	memcpy
 1529              	.LVL113:
 450:System/diskio/DiskIO.c ****         (memcmp(FSInfo.ender, DISK_CARD_FSINFO_ENDER, sizeof(FSInfo.ender)) == 0) &&
 1530              		.loc 1 450 5 view .LVU407
 450:System/diskio/DiskIO.c ****         (memcmp(FSInfo.ender, DISK_CARD_FSINFO_ENDER, sizeof(FSInfo.ender)) == 0) &&
 1531              		.loc 1 450 10 is_stmt 0 view .LVU408
 1532 0044 0422     		movs	r2, #4
 1533 0046 2049     		ldr	r1, .L109+12
 1534 0048 02A8     		add	r0, sp, #8
 1535 004a FFF7FEFF 		bl	memcmp
 1536              	.LVL114:
 450:System/diskio/DiskIO.c ****         (memcmp(FSInfo.ender, DISK_CARD_FSINFO_ENDER, sizeof(FSInfo.ender)) == 0) &&
 1537              		.loc 1 450 8 view .LVU409
 1538 004e 48B9     		cbnz	r0, .L102
 451:System/diskio/DiskIO.c ****         (FSInfo.check_end[0] == DISK_CARD_TERMINATION_BYTE_1) &&
 1539              		.loc 1 451 10 discriminator 1 view .LVU410
 1540 0050 0422     		movs	r2, #4
 1541 0052 1E49     		ldr	r1, .L109+16
 1542 0054 7BA8     		add	r0, sp, #492
 1543 0056 FFF7FEFF 		bl	memcmp
 1544              	.LVL115:
 450:System/diskio/DiskIO.c ****         (memcmp(FSInfo.ender, DISK_CARD_FSINFO_ENDER, sizeof(FSInfo.ender)) == 0) &&
 1545              		.loc 1 450 86 discriminator 1 view .LVU411
 1546 005a 18B9     		cbnz	r0, .L102
 452:System/diskio/DiskIO.c ****         (FSInfo.check_end[1] == DISK_CARD_TERMINATION_BYTE_2))
 1547              		.loc 1 452 26 view .LVU412
 1548 005c 9DF80632 		ldrb	r3, [sp, #518]	@ zero_extendqisi2
 451:System/diskio/DiskIO.c ****         (FSInfo.check_end[0] == DISK_CARD_TERMINATION_BYTE_1) &&
 1549              		.loc 1 451 83 view .LVU413
 1550 0060 552B     		cmp	r3, #85
 1551 0062 1DD0     		beq	.L108
 1552              	.L102:
 460:System/diskio/DiskIO.c **** 
 1553              		.loc 1 460 9 is_stmt 1 view .LVU414
 460:System/diskio/DiskIO.c **** 
 1554              		.loc 1 460 30 is_stmt 0 view .LVU415
 1555 0064 0022     		movs	r2, #0
 1556 0066 84F89B20 		strb	r2, [r4, #155]
 1557 006a 84F89C20 		strb	r2, [r4, #156]
 1558 006e 84F89D20 		strb	r2, [r4, #157]
 1559 0072 84F89E20 		strb	r2, [r4, #158]
 462:System/diskio/DiskIO.c ****     {
 1560              		.loc 1 462 5 is_stmt 1 view .LVU416
 464:System/diskio/DiskIO.c ****                          DevCard_Read_FSINFO_Error,
 1561              		.loc 1 464 9 view .LVU417
 464:System/diskio/DiskIO.c ****                          DevCard_Read_FSINFO_Error,
 1562              		.loc 1 464 17 is_stmt 0 view .LVU418
 1563 0076 164B     		ldr	r3, .L109+20
 1564 0078 9C68     		ldr	r4, [r3, #8]
 1565              	.LVL116:
 464:System/diskio/DiskIO.c ****                          DevCard_Read_FSINFO_Error,
 1566              		.loc 1 464 9 view .LVU419
 1567 007a 1346     		mov	r3, r2
 1568 007c 0521     		movs	r1, #5
 1569 007e 1548     		ldr	r0, .L109+24
ARM GAS  C:\Users\huav\AppData\Local\Temp\cclD56Oe.s 			page 60


 1570 0080 0068     		ldr	r0, [r0]
 1571 0082 A047     		blx	r4
 1572              	.LVL117:
 1573              	.L97:
 468:System/diskio/DiskIO.c **** 
 1574              		.loc 1 468 1 view .LVU420
 1575 0084 0DF5027D 		add	sp, sp, #520
 1576              	.LCFI39:
 1577              		.cfi_remember_state
 1578              		.cfi_def_cfa_offset 16
 1579              		@ sp needed
 1580 0088 70BD     		pop	{r4, r5, r6, pc}
 1581              	.LVL118:
 1582              	.L100:
 1583              	.LCFI40:
 1584              		.cfi_restore_state
 444:System/diskio/DiskIO.c ****     }
 1585              		.loc 1 444 9 is_stmt 1 view .LVU421
 444:System/diskio/DiskIO.c ****     }
 1586              		.loc 1 444 16 is_stmt 0 view .LVU422
 1587 008a 0C4B     		ldr	r3, .L109
 1588 008c 5E69     		ldr	r6, [r3, #20]
 444:System/diskio/DiskIO.c ****     }
 1589              		.loc 1 444 9 view .LVU423
 1590 008e 0125     		movs	r5, #1
 1591 0090 0095     		str	r5, [sp]
 1592 0092 4FF40073 		mov	r3, #512
 1593 0096 0A4A     		ldr	r2, .L109+4
 1594 0098 2946     		mov	r1, r5
 1595 009a 0A48     		ldr	r0, .L109+8
 1596 009c B047     		blx	r6
 1597              	.LVL119:
 1598 009e CBE7     		b	.L101
 1599              	.LVL120:
 1600              	.L108:
 453:System/diskio/DiskIO.c ****     {
 1601              		.loc 1 453 26 view .LVU424
 1602 00a0 9DF80732 		ldrb	r3, [sp, #519]	@ zero_extendqisi2
 452:System/diskio/DiskIO.c ****         (FSInfo.check_end[1] == DISK_CARD_TERMINATION_BYTE_2))
 1603              		.loc 1 452 63 view .LVU425
 1604 00a4 AA2B     		cmp	r3, #170
 1605 00a6 DDD1     		bne	.L102
 455:System/diskio/DiskIO.c ****         FATObj->remain_cluster = LEndian2Word(FSInfo.remain_cluster);
 1606              		.loc 1 455 9 is_stmt 1 view .LVU426
 455:System/diskio/DiskIO.c ****         FATObj->remain_cluster = LEndian2Word(FSInfo.remain_cluster);
 1607              		.loc 1 455 30 is_stmt 0 view .LVU427
 1608 00a8 C4F89B50 		str	r5, [r4, #155]	@ unaligned
 456:System/diskio/DiskIO.c ****         error = false;
 1609              		.loc 1 456 9 is_stmt 1 view .LVU428
 456:System/diskio/DiskIO.c ****         error = false;
 1610              		.loc 1 456 34 is_stmt 0 view .LVU429
 1611 00ac 7CA8     		add	r0, sp, #496
 1612 00ae FFF7FEFF 		bl	LEndian2Word
 1613              	.LVL121:
 456:System/diskio/DiskIO.c ****         error = false;
 1614              		.loc 1 456 32 view .LVU430
 1615 00b2 C4F8BF00 		str	r0, [r4, #191]	@ unaligned
ARM GAS  C:\Users\huav\AppData\Local\Temp\cclD56Oe.s 			page 61


 457:System/diskio/DiskIO.c ****     }
 1616              		.loc 1 457 9 is_stmt 1 view .LVU431
 1617              	.LVL122:
 462:System/diskio/DiskIO.c ****     {
 1618              		.loc 1 462 5 view .LVU432
 1619 00b6 E5E7     		b	.L97
 1620              	.LVL123:
 1621              	.L105:
 1622              	.LCFI41:
 1623              		.cfi_def_cfa_offset 0
 1624              		.cfi_restore 4
 1625              		.cfi_restore 5
 1626              		.cfi_restore 6
 1627              		.cfi_restore 14
 462:System/diskio/DiskIO.c ****     {
 1628              		.loc 1 462 5 is_stmt 0 view .LVU433
 1629 00b8 7047     		bx	lr
 1630              	.L110:
 1631 00ba 00BF     		.align	2
 1632              	.L109:
 1633 00bc 00000000 		.word	DevCard
 1634 00c0 00000000 		.word	.LANCHOR1
 1635 00c4 00000000 		.word	.LANCHOR0
 1636 00c8 00000000 		.word	.LC3
 1637 00cc 08000000 		.word	.LC4
 1638 00d0 00000000 		.word	ErrorLog
 1639 00d4 00000000 		.word	.LANCHOR2
 1640              		.cfi_endproc
 1641              	.LFE152:
 1643              		.section	.text.Disk_Parse_Attribute,"ax",%progbits
 1644              		.align	1
 1645              		.syntax unified
 1646              		.thumb
 1647              		.thumb_func
 1648              		.fpu fpv5-d16
 1650              	Disk_Parse_Attribute:
 1651              	.LVL124:
 1652              	.LFB155:
 498:System/diskio/DiskIO.c ****     Disk_FFInfoTable_TypeDef table_tmp;
 1653              		.loc 1 498 1 is_stmt 1 view -0
 1654              		.cfi_startproc
 1655              		@ args = 0, pretend = 0, frame = 632
 1656              		@ frame_needed = 0, uses_anonymous_args = 0
 498:System/diskio/DiskIO.c ****     Disk_FFInfoTable_TypeDef table_tmp;
 1657              		.loc 1 498 1 is_stmt 0 view .LVU435
 1658 0000 2DE9F04F 		push	{r4, r5, r6, r7, r8, r9, r10, fp, lr}
 1659              	.LCFI42:
 1660              		.cfi_def_cfa_offset 36
 1661              		.cfi_offset 4, -36
 1662              		.cfi_offset 5, -32
 1663              		.cfi_offset 6, -28
 1664              		.cfi_offset 7, -24
 1665              		.cfi_offset 8, -20
 1666              		.cfi_offset 9, -16
 1667              		.cfi_offset 10, -12
 1668              		.cfi_offset 11, -8
 1669              		.cfi_offset 14, -4
ARM GAS  C:\Users\huav\AppData\Local\Temp\cclD56Oe.s 			page 62


 1670 0004 ADF5217D 		sub	sp, sp, #644
 1671              	.LCFI43:
 1672              		.cfi_def_cfa_offset 680
 1673 0008 0390     		str	r0, [sp, #12]
 1674 000a 1446     		mov	r4, r2
 499:System/diskio/DiskIO.c ****     Disk_CCSSFFAT_TypeDef *attr_tmp = NULL;
 1675              		.loc 1 499 5 is_stmt 1 view .LVU436
 500:System/diskio/DiskIO.c ****     uint32_t date_tmp = 0;
 1676              		.loc 1 500 5 view .LVU437
 1677              	.LVL125:
 501:System/diskio/DiskIO.c ****     uint32_t disk_section_no = 0;
 1678              		.loc 1 501 5 view .LVU438
 502:System/diskio/DiskIO.c ****     char name[11];
 1679              		.loc 1 502 5 view .LVU439
 503:System/diskio/DiskIO.c **** 
 1680              		.loc 1 503 5 view .LVU440
 505:System/diskio/DiskIO.c ****     memset(&table_tmp, NULL, sizeof(Disk_FFInfoTable_TypeDef));
 1681              		.loc 1 505 5 view .LVU441
 1682 000c 0021     		movs	r1, #0
 1683              	.LVL126:
 505:System/diskio/DiskIO.c ****     memset(&table_tmp, NULL, sizeof(Disk_FFInfoTable_TypeDef));
 1684              		.loc 1 505 5 is_stmt 0 view .LVU442
 1685 000e 0591     		str	r1, [sp, #20]
 1686 0010 0691     		str	r1, [sp, #24]
 1687 0012 CDF81B10 		str	r1, [sp, #27]	@ unaligned
 506:System/diskio/DiskIO.c **** 
 1688              		.loc 1 506 5 is_stmt 1 view .LVU443
 1689 0016 4FF41872 		mov	r2, #608
 1690              	.LVL127:
 506:System/diskio/DiskIO.c **** 
 1691              		.loc 1 506 5 is_stmt 0 view .LVU444
 1692 001a 08A8     		add	r0, sp, #32
 1693              	.LVL128:
 506:System/diskio/DiskIO.c **** 
 1694              		.loc 1 506 5 view .LVU445
 1695 001c FFF7FEFF 		bl	memset
 1696              	.LVL129:
 508:System/diskio/DiskIO.c ****     {
 1697              		.loc 1 508 5 is_stmt 1 view .LVU446
 508:System/diskio/DiskIO.c ****     {
 1698              		.loc 1 508 8 is_stmt 0 view .LVU447
 1699 0020 5CB9     		cbnz	r4, .L116
 1700              	.LVL130:
 1701              	.L112:
 584:System/diskio/DiskIO.c **** }
 1702              		.loc 1 584 5 is_stmt 1 view .LVU448
 584:System/diskio/DiskIO.c **** }
 1703              		.loc 1 584 12 is_stmt 0 view .LVU449
 1704 0022 4FF41872 		mov	r2, #608
 1705 0026 08A9     		add	r1, sp, #32
 1706 0028 039C     		ldr	r4, [sp, #12]
 1707 002a 2046     		mov	r0, r4
 1708 002c FFF7FEFF 		bl	memcpy
 1709              	.LVL131:
 585:System/diskio/DiskIO.c **** 
 1710              		.loc 1 585 1 view .LVU450
 1711 0030 2046     		mov	r0, r4
ARM GAS  C:\Users\huav\AppData\Local\Temp\cclD56Oe.s 			page 63


 1712 0032 0DF5217D 		add	sp, sp, #644
 1713              	.LCFI44:
 1714              		.cfi_remember_state
 1715              		.cfi_def_cfa_offset 36
 1716              		@ sp needed
 1717 0036 BDE8F08F 		pop	{r4, r5, r6, r7, r8, r9, r10, fp, pc}
 1718              	.LVL132:
 1719              	.L116:
 1720              	.LCFI45:
 1721              		.cfi_restore_state
 510:System/diskio/DiskIO.c **** 
 1722              		.loc 1 510 9 is_stmt 1 view .LVU451
 1723 003a 534D     		ldr	r5, .L117
 1724 003c 4FF40076 		mov	r6, #512
 1725 0040 3246     		mov	r2, r6
 1726 0042 0021     		movs	r1, #0
 1727 0044 2846     		mov	r0, r5
 1728 0046 FFF7FEFF 		bl	memset
 1729              	.LVL133:
 512:System/diskio/DiskIO.c **** 
 1730              		.loc 1 512 9 view .LVU452
 512:System/diskio/DiskIO.c **** 
 1731              		.loc 1 512 16 is_stmt 0 view .LVU453
 1732 004a 504B     		ldr	r3, .L117+4
 1733 004c 5F69     		ldr	r7, [r3, #20]
 512:System/diskio/DiskIO.c **** 
 1734              		.loc 1 512 9 view .LVU454
 1735 004e 0123     		movs	r3, #1
 1736 0050 0093     		str	r3, [sp]
 1737 0052 3346     		mov	r3, r6
 1738 0054 2A46     		mov	r2, r5
 1739 0056 2146     		mov	r1, r4
 1740 0058 4D48     		ldr	r0, .L117+8
 1741 005a B847     		blx	r7
 1742              	.LVL134:
 514:System/diskio/DiskIO.c **** 
 1743              		.loc 1 514 9 is_stmt 1 view .LVU455
 516:System/diskio/DiskIO.c ****         {
 1744              		.loc 1 516 9 view .LVU456
 1745              	.LBB10:
 516:System/diskio/DiskIO.c ****         {
 1746              		.loc 1 516 14 view .LVU457
 516:System/diskio/DiskIO.c ****         {
 1747              		.loc 1 516 22 is_stmt 0 view .LVU458
 1748 005c 0026     		movs	r6, #0
 516:System/diskio/DiskIO.c ****         {
 1749              		.loc 1 516 9 view .LVU459
 1750 005e 89E0     		b	.L113
 1751              	.LVL135:
 1752              	.L114:
 518:System/diskio/DiskIO.c ****             memcpy(table_tmp.Info[i].name + 8, attr_tmp->attribute[i].ext, 3);
 1753              		.loc 1 518 13 is_stmt 1 discriminator 3 view .LVU460
 518:System/diskio/DiskIO.c ****             memcpy(table_tmp.Info[i].name + 8, attr_tmp->attribute[i].ext, 3);
 1754              		.loc 1 518 37 is_stmt 0 discriminator 3 view .LVU461
 1755 0060 08AA     		add	r2, sp, #32
 1756 0062 2623     		movs	r3, #38
 1757 0064 06FB03F3 		mul	r3, r6, r3
ARM GAS  C:\Users\huav\AppData\Local\Temp\cclD56Oe.s 			page 64


 1758 0068 D418     		adds	r4, r2, r3
 518:System/diskio/DiskIO.c ****             memcpy(table_tmp.Info[i].name + 8, attr_tmp->attribute[i].ext, 3);
 1759              		.loc 1 518 66 discriminator 3 view .LVU462
 1760 006a 474F     		ldr	r7, .L117
 1761 006c 7501     		lsls	r5, r6, #5
 1762 006e 07EB461A 		add	r10, r7, r6, lsl #5
 518:System/diskio/DiskIO.c ****             memcpy(table_tmp.Info[i].name + 8, attr_tmp->attribute[i].ext, 3);
 1763              		.loc 1 518 13 discriminator 3 view .LVU463
 1764 0072 7859     		ldr	r0, [r7, r5]	@ unaligned
 1765 0074 DAF80410 		ldr	r1, [r10, #4]	@ unaligned
 1766 0078 D050     		str	r0, [r2, r3]	@ unaligned
 1767 007a 6160     		str	r1, [r4, #4]	@ unaligned
 519:System/diskio/DiskIO.c **** 
 1768              		.loc 1 519 13 is_stmt 1 discriminator 3 view .LVU464
 519:System/diskio/DiskIO.c **** 
 1769              		.loc 1 519 70 is_stmt 0 discriminator 3 view .LVU465
 1770 007c 05F10803 		add	r3, r5, #8
 1771 0080 07EB030B 		add	fp, r7, r3
 519:System/diskio/DiskIO.c **** 
 1772              		.loc 1 519 13 discriminator 3 view .LVU466
 1773 0084 FA5A     		ldrh	r2, [r7, r3]	@ unaligned
 1774 0086 9BF80230 		ldrb	r3, [fp, #2]	@ zero_extendqisi2
 1775 008a 2281     		strh	r2, [r4, #8]	@ unaligned
 1776 008c A372     		strb	r3, [r4, #10]
 521:System/diskio/DiskIO.c ****             table_tmp.Info[i].start_cluster = LEndian2HalfWord(attr_tmp->attribute[i].LowCluster) |
 1777              		.loc 1 521 13 is_stmt 1 discriminator 3 view .LVU467
 521:System/diskio/DiskIO.c ****             table_tmp.Info[i].start_cluster = LEndian2HalfWord(attr_tmp->attribute[i].LowCluster) |
 1778              		.loc 1 521 60 is_stmt 0 discriminator 3 view .LVU468
 1779 008e 9AF80B30 		ldrb	r3, [r10, #11]	@ zero_extendqisi2
 521:System/diskio/DiskIO.c ****             table_tmp.Info[i].start_cluster = LEndian2HalfWord(attr_tmp->attribute[i].LowCluster) |
 1780              		.loc 1 521 36 discriminator 3 view .LVU469
 1781 0092 E372     		strb	r3, [r4, #11]
 522:System/diskio/DiskIO.c ****                                               (LEndian2HalfWord(attr_tmp->attribute[i].HighCluster)
 1782              		.loc 1 522 13 is_stmt 1 discriminator 3 view .LVU470
 522:System/diskio/DiskIO.c ****                                               (LEndian2HalfWord(attr_tmp->attribute[i].HighCluster)
 1783              		.loc 1 522 86 is_stmt 0 discriminator 3 view .LVU471
 1784 0094 05F11808 		add	r8, r5, #24
 1785 0098 B844     		add	r8, r8, r7
 522:System/diskio/DiskIO.c ****                                               (LEndian2HalfWord(attr_tmp->attribute[i].HighCluster)
 1786              		.loc 1 522 47 discriminator 3 view .LVU472
 1787 009a 08F10200 		add	r0, r8, #2
 1788 009e FFF7FEFF 		bl	LEndian2HalfWord
 1789              	.LVL136:
 1790 00a2 0290     		str	r0, [sp, #8]
 523:System/diskio/DiskIO.c ****             table_tmp.Info[i].size = LEndian2Word(attr_tmp->attribute[i].FileSize);
 1791              		.loc 1 523 87 discriminator 3 view .LVU473
 1792 00a4 1035     		adds	r5, r5, #16
 1793 00a6 2F44     		add	r7, r7, r5
 523:System/diskio/DiskIO.c ****             table_tmp.Info[i].size = LEndian2Word(attr_tmp->attribute[i].FileSize);
 1794              		.loc 1 523 48 discriminator 3 view .LVU474
 1795 00a8 381D     		adds	r0, r7, #4
 1796 00aa FFF7FEFF 		bl	LEndian2HalfWord
 1797              	.LVL137:
 522:System/diskio/DiskIO.c ****                                               (LEndian2HalfWord(attr_tmp->attribute[i].HighCluster)
 1798              		.loc 1 522 99 discriminator 3 view .LVU475
 1799 00ae 029B     		ldr	r3, [sp, #8]
 1800 00b0 43EA0040 		orr	r0, r3, r0, lsl #16
ARM GAS  C:\Users\huav\AppData\Local\Temp\cclD56Oe.s 			page 65


 522:System/diskio/DiskIO.c ****                                               (LEndian2HalfWord(attr_tmp->attribute[i].HighCluster)
 1801              		.loc 1 522 45 discriminator 3 view .LVU476
 1802 00b4 C4F81E00 		str	r0, [r4, #30]	@ unaligned
 524:System/diskio/DiskIO.c **** 
 1803              		.loc 1 524 13 is_stmt 1 discriminator 3 view .LVU477
 524:System/diskio/DiskIO.c **** 
 1804              		.loc 1 524 38 is_stmt 0 discriminator 3 view .LVU478
 1805 00b8 08F10400 		add	r0, r8, #4
 1806 00bc FFF7FEFF 		bl	LEndian2Word
 1807              	.LVL138:
 524:System/diskio/DiskIO.c **** 
 1808              		.loc 1 524 36 discriminator 3 view .LVU479
 1809 00c0 C4F82200 		str	r0, [r4, #34]	@ unaligned
 527:System/diskio/DiskIO.c ****             table_tmp.Info[i].create_time.sec = (date_tmp & DISK_FILE_DATE_SEC_MASK) * 2;
 1810              		.loc 1 527 13 is_stmt 1 discriminator 3 view .LVU480
 527:System/diskio/DiskIO.c ****             table_tmp.Info[i].create_time.sec = (date_tmp & DISK_FILE_DATE_SEC_MASK) * 2;
 1811              		.loc 1 527 24 is_stmt 0 discriminator 3 view .LVU481
 1812 00c4 0BF10600 		add	r0, fp, #6
 1813 00c8 FFF7FEFF 		bl	LEndian2HalfWord
 1814              	.LVL139:
 528:System/diskio/DiskIO.c ****             date_tmp >>= DISK_FILE_DATE_SEC_BITS;
 1815              		.loc 1 528 13 is_stmt 1 discriminator 3 view .LVU482
 528:System/diskio/DiskIO.c ****             date_tmp >>= DISK_FILE_DATE_SEC_BITS;
 1816              		.loc 1 528 47 is_stmt 0 discriminator 3 view .LVU483
 1817 00cc 00F01F03 		and	r3, r0, #31
 1818 00d0 5B00     		lsls	r3, r3, #1
 1819 00d2 A373     		strb	r3, [r4, #14]
 529:System/diskio/DiskIO.c **** 
 1820              		.loc 1 529 13 is_stmt 1 discriminator 3 view .LVU484
 529:System/diskio/DiskIO.c **** 
 1821              		.loc 1 529 22 is_stmt 0 discriminator 3 view .LVU485
 1822 00d4 4209     		lsrs	r2, r0, #5
 1823              	.LVL140:
 531:System/diskio/DiskIO.c ****             date_tmp >>= DISK_FILE_DATE_MIN_BITS;
 1824              		.loc 1 531 13 is_stmt 1 discriminator 3 view .LVU486
 531:System/diskio/DiskIO.c ****             date_tmp >>= DISK_FILE_DATE_MIN_BITS;
 1825              		.loc 1 531 58 is_stmt 0 discriminator 3 view .LVU487
 1826 00d6 02F02F02 		and	r2, r2, #47
 1827              	.LVL141:
 531:System/diskio/DiskIO.c ****             date_tmp >>= DISK_FILE_DATE_MIN_BITS;
 1828              		.loc 1 531 47 discriminator 3 view .LVU488
 1829 00da 6273     		strb	r2, [r4, #13]
 532:System/diskio/DiskIO.c **** 
 1830              		.loc 1 532 13 is_stmt 1 discriminator 3 view .LVU489
 1831              	.LVL142:
 534:System/diskio/DiskIO.c ****             table_tmp.Info[i].create_time.sec += (uint16_t)(attr_tmp->attribute[i].Time10Ms) / 100;
 1832              		.loc 1 534 13 discriminator 3 view .LVU490
 534:System/diskio/DiskIO.c ****             table_tmp.Info[i].create_time.sec += (uint16_t)(attr_tmp->attribute[i].Time10Ms) / 100;
 1833              		.loc 1 534 59 is_stmt 0 discriminator 3 view .LVU491
 1834 00dc C0F3C420 		ubfx	r0, r0, #11, #5
 1835              	.LVL143:
 534:System/diskio/DiskIO.c ****             table_tmp.Info[i].create_time.sec += (uint16_t)(attr_tmp->attribute[i].Time10Ms) / 100;
 1836              		.loc 1 534 48 discriminator 3 view .LVU492
 1837 00e0 2073     		strb	r0, [r4, #12]
 535:System/diskio/DiskIO.c **** 
 1838              		.loc 1 535 13 is_stmt 1 discriminator 3 view .LVU493
 535:System/diskio/DiskIO.c **** 
ARM GAS  C:\Users\huav\AppData\Local\Temp\cclD56Oe.s 			page 66


 1839              		.loc 1 535 83 is_stmt 0 discriminator 3 view .LVU494
 1840 00e2 9AF80D20 		ldrb	r2, [r10, #13]	@ zero_extendqisi2
 535:System/diskio/DiskIO.c **** 
 1841              		.loc 1 535 47 discriminator 3 view .LVU495
 1842 00e6 2B49     		ldr	r1, .L117+12
 1843 00e8 A1FB0212 		umull	r1, r2, r1, r2
 1844 00ec 03EB5213 		add	r3, r3, r2, lsr #5
 1845 00f0 A373     		strb	r3, [r4, #14]
 538:System/diskio/DiskIO.c ****             table_tmp.Info[i].create_date.day = date_tmp & DISK_FILE_DATE_DAY_MASK;
 1846              		.loc 1 538 13 is_stmt 1 discriminator 3 view .LVU496
 538:System/diskio/DiskIO.c ****             table_tmp.Info[i].create_date.day = date_tmp & DISK_FILE_DATE_DAY_MASK;
 1847              		.loc 1 538 24 is_stmt 0 discriminator 3 view .LVU497
 1848 00f2 3846     		mov	r0, r7
 1849 00f4 FFF7FEFF 		bl	LEndian2HalfWord
 1850              	.LVL144:
 539:System/diskio/DiskIO.c ****             date_tmp >>= DISK_FILE_DATE_DAY_BITS;
 1851              		.loc 1 539 13 is_stmt 1 discriminator 3 view .LVU498
 539:System/diskio/DiskIO.c ****             date_tmp >>= DISK_FILE_DATE_DAY_BITS;
 1852              		.loc 1 539 58 is_stmt 0 discriminator 3 view .LVU499
 1853 00f8 00F01F03 		and	r3, r0, #31
 539:System/diskio/DiskIO.c ****             date_tmp >>= DISK_FILE_DATE_DAY_BITS;
 1854              		.loc 1 539 47 discriminator 3 view .LVU500
 1855 00fc A374     		strb	r3, [r4, #18]
 540:System/diskio/DiskIO.c **** 
 1856              		.loc 1 540 13 is_stmt 1 discriminator 3 view .LVU501
 1857              	.LVL145:
 542:System/diskio/DiskIO.c ****             date_tmp >>= DISK_FILE_DATE_MONTH_BITS;
 1858              		.loc 1 542 13 discriminator 3 view .LVU502
 542:System/diskio/DiskIO.c ****             date_tmp >>= DISK_FILE_DATE_MONTH_BITS;
 1859              		.loc 1 542 60 is_stmt 0 discriminator 3 view .LVU503
 1860 00fe C0F34313 		ubfx	r3, r0, #5, #4
 542:System/diskio/DiskIO.c ****             date_tmp >>= DISK_FILE_DATE_MONTH_BITS;
 1861              		.loc 1 542 49 discriminator 3 view .LVU504
 1862 0102 6374     		strb	r3, [r4, #17]
 543:System/diskio/DiskIO.c **** 
 1863              		.loc 1 543 13 is_stmt 1 discriminator 3 view .LVU505
 1864              	.LVL146:
 545:System/diskio/DiskIO.c ****             table_tmp.Info[i].create_date.year += DISK_FILE_DATEBASE_YEAR;
 1865              		.loc 1 545 13 discriminator 3 view .LVU506
 545:System/diskio/DiskIO.c ****             table_tmp.Info[i].create_date.year += DISK_FILE_DATEBASE_YEAR;
 1866              		.loc 1 545 59 is_stmt 0 discriminator 3 view .LVU507
 1867 0104 C0F34620 		ubfx	r0, r0, #9, #7
 1868              	.LVL147:
 545:System/diskio/DiskIO.c ****             table_tmp.Info[i].create_date.year += DISK_FILE_DATEBASE_YEAR;
 1869              		.loc 1 545 48 discriminator 3 view .LVU508
 1870 0108 A4F80F00 		strh	r0, [r4, #15]	@ unaligned
 546:System/diskio/DiskIO.c **** 
 1871              		.loc 1 546 13 is_stmt 1 discriminator 3 view .LVU509
 546:System/diskio/DiskIO.c **** 
 1872              		.loc 1 546 48 is_stmt 0 discriminator 3 view .LVU510
 1873 010c 00F2BC70 		addw	r0, r0, #1980
 1874 0110 A4F80F00 		strh	r0, [r4, #15]	@ unaligned
 549:System/diskio/DiskIO.c ****             table_tmp.Info[i].modify_time.sec = (date_tmp & DISK_FILE_DATE_SEC_MASK) * 2;
 1875              		.loc 1 549 13 is_stmt 1 discriminator 3 view .LVU511
 549:System/diskio/DiskIO.c ****             table_tmp.Info[i].modify_time.sec = (date_tmp & DISK_FILE_DATE_SEC_MASK) * 2;
 1876              		.loc 1 549 24 is_stmt 0 discriminator 3 view .LVU512
 1877 0114 B81D     		adds	r0, r7, #6
ARM GAS  C:\Users\huav\AppData\Local\Temp\cclD56Oe.s 			page 67


 1878 0116 FFF7FEFF 		bl	LEndian2HalfWord
 1879              	.LVL148:
 550:System/diskio/DiskIO.c ****             date_tmp >>= DISK_FILE_DATE_SEC_BITS;
 1880              		.loc 1 550 13 is_stmt 1 discriminator 3 view .LVU513
 550:System/diskio/DiskIO.c ****             date_tmp >>= DISK_FILE_DATE_SEC_BITS;
 1881              		.loc 1 550 47 is_stmt 0 discriminator 3 view .LVU514
 1882 011a 00F01F03 		and	r3, r0, #31
 1883 011e 5B00     		lsls	r3, r3, #1
 1884 0120 6376     		strb	r3, [r4, #25]
 551:System/diskio/DiskIO.c **** 
 1885              		.loc 1 551 13 is_stmt 1 discriminator 3 view .LVU515
 551:System/diskio/DiskIO.c **** 
 1886              		.loc 1 551 22 is_stmt 0 discriminator 3 view .LVU516
 1887 0122 4309     		lsrs	r3, r0, #5
 1888              	.LVL149:
 553:System/diskio/DiskIO.c ****             date_tmp >>= DISK_FILE_DATE_MIN_BITS;
 1889              		.loc 1 553 13 is_stmt 1 discriminator 3 view .LVU517
 553:System/diskio/DiskIO.c ****             date_tmp >>= DISK_FILE_DATE_MIN_BITS;
 1890              		.loc 1 553 58 is_stmt 0 discriminator 3 view .LVU518
 1891 0124 03F02F03 		and	r3, r3, #47
 1892              	.LVL150:
 553:System/diskio/DiskIO.c ****             date_tmp >>= DISK_FILE_DATE_MIN_BITS;
 1893              		.loc 1 553 47 discriminator 3 view .LVU519
 1894 0128 2376     		strb	r3, [r4, #24]
 554:System/diskio/DiskIO.c **** 
 1895              		.loc 1 554 13 is_stmt 1 discriminator 3 view .LVU520
 1896              	.LVL151:
 556:System/diskio/DiskIO.c **** 
 1897              		.loc 1 556 13 discriminator 3 view .LVU521
 556:System/diskio/DiskIO.c **** 
 1898              		.loc 1 556 59 is_stmt 0 discriminator 3 view .LVU522
 1899 012a C0F3C420 		ubfx	r0, r0, #11, #5
 1900              	.LVL152:
 556:System/diskio/DiskIO.c **** 
 1901              		.loc 1 556 48 discriminator 3 view .LVU523
 1902 012e E075     		strb	r0, [r4, #23]
 559:System/diskio/DiskIO.c ****             table_tmp.Info[i].modify_date.day = date_tmp & DISK_FILE_DATE_DAY_MASK;
 1903              		.loc 1 559 13 is_stmt 1 discriminator 3 view .LVU524
 559:System/diskio/DiskIO.c ****             table_tmp.Info[i].modify_date.day = date_tmp & DISK_FILE_DATE_DAY_MASK;
 1904              		.loc 1 559 24 is_stmt 0 discriminator 3 view .LVU525
 1905 0130 4046     		mov	r0, r8
 1906 0132 FFF7FEFF 		bl	LEndian2HalfWord
 1907              	.LVL153:
 560:System/diskio/DiskIO.c ****             date_tmp >>= DISK_FILE_DATE_DAY_BITS;
 1908              		.loc 1 560 13 is_stmt 1 discriminator 3 view .LVU526
 560:System/diskio/DiskIO.c ****             date_tmp >>= DISK_FILE_DATE_DAY_BITS;
 1909              		.loc 1 560 58 is_stmt 0 discriminator 3 view .LVU527
 1910 0136 00F01F03 		and	r3, r0, #31
 560:System/diskio/DiskIO.c ****             date_tmp >>= DISK_FILE_DATE_DAY_BITS;
 1911              		.loc 1 560 47 discriminator 3 view .LVU528
 1912 013a 6377     		strb	r3, [r4, #29]
 561:System/diskio/DiskIO.c **** 
 1913              		.loc 1 561 13 is_stmt 1 discriminator 3 view .LVU529
 1914              	.LVL154:
 563:System/diskio/DiskIO.c ****             date_tmp >>= DISK_FILE_DATE_MONTH_BITS;
 1915              		.loc 1 563 13 discriminator 3 view .LVU530
 563:System/diskio/DiskIO.c ****             date_tmp >>= DISK_FILE_DATE_MONTH_BITS;
ARM GAS  C:\Users\huav\AppData\Local\Temp\cclD56Oe.s 			page 68


 1916              		.loc 1 563 60 is_stmt 0 discriminator 3 view .LVU531
 1917 013c C0F34313 		ubfx	r3, r0, #5, #4
 563:System/diskio/DiskIO.c ****             date_tmp >>= DISK_FILE_DATE_MONTH_BITS;
 1918              		.loc 1 563 49 discriminator 3 view .LVU532
 1919 0140 2377     		strb	r3, [r4, #28]
 564:System/diskio/DiskIO.c **** 
 1920              		.loc 1 564 13 is_stmt 1 discriminator 3 view .LVU533
 1921              	.LVL155:
 566:System/diskio/DiskIO.c ****             table_tmp.Info[i].modify_date.year += DISK_FILE_DATEBASE_YEAR;
 1922              		.loc 1 566 13 discriminator 3 view .LVU534
 566:System/diskio/DiskIO.c ****             table_tmp.Info[i].modify_date.year += DISK_FILE_DATEBASE_YEAR;
 1923              		.loc 1 566 59 is_stmt 0 discriminator 3 view .LVU535
 1924 0142 C0F34620 		ubfx	r0, r0, #9, #7
 1925              	.LVL156:
 566:System/diskio/DiskIO.c ****             table_tmp.Info[i].modify_date.year += DISK_FILE_DATEBASE_YEAR;
 1926              		.loc 1 566 48 discriminator 3 view .LVU536
 1927 0146 6083     		strh	r0, [r4, #26]	@ movhi
 567:System/diskio/DiskIO.c **** 
 1928              		.loc 1 567 13 is_stmt 1 discriminator 3 view .LVU537
 567:System/diskio/DiskIO.c **** 
 1929              		.loc 1 567 48 is_stmt 0 discriminator 3 view .LVU538
 1930 0148 00F2BC70 		addw	r0, r0, #1980
 1931 014c 6083     		strh	r0, [r4, #26]	@ movhi
 570:System/diskio/DiskIO.c ****             table_tmp.Info[i].access_date.day = date_tmp & DISK_FILE_DATE_DAY_MASK;
 1932              		.loc 1 570 13 is_stmt 1 discriminator 3 view .LVU539
 570:System/diskio/DiskIO.c ****             table_tmp.Info[i].access_date.day = date_tmp & DISK_FILE_DATE_DAY_MASK;
 1933              		.loc 1 570 24 is_stmt 0 discriminator 3 view .LVU540
 1934 014e B81C     		adds	r0, r7, #2
 1935 0150 FFF7FEFF 		bl	LEndian2HalfWord
 1936              	.LVL157:
 571:System/diskio/DiskIO.c ****             date_tmp >>= DISK_FILE_DATE_DAY_BITS;
 1937              		.loc 1 571 13 is_stmt 1 discriminator 3 view .LVU541
 571:System/diskio/DiskIO.c ****             date_tmp >>= DISK_FILE_DATE_DAY_BITS;
 1938              		.loc 1 571 58 is_stmt 0 discriminator 3 view .LVU542
 1939 0154 00F01F03 		and	r3, r0, #31
 571:System/diskio/DiskIO.c ****             date_tmp >>= DISK_FILE_DATE_DAY_BITS;
 1940              		.loc 1 571 47 discriminator 3 view .LVU543
 1941 0158 A375     		strb	r3, [r4, #22]
 572:System/diskio/DiskIO.c **** 
 1942              		.loc 1 572 13 is_stmt 1 discriminator 3 view .LVU544
 1943              	.LVL158:
 574:System/diskio/DiskIO.c ****             date_tmp >>= DISK_FILE_DATE_MONTH_BITS;
 1944              		.loc 1 574 13 discriminator 3 view .LVU545
 574:System/diskio/DiskIO.c ****             date_tmp >>= DISK_FILE_DATE_MONTH_BITS;
 1945              		.loc 1 574 60 is_stmt 0 discriminator 3 view .LVU546
 1946 015a C0F34313 		ubfx	r3, r0, #5, #4
 574:System/diskio/DiskIO.c ****             date_tmp >>= DISK_FILE_DATE_MONTH_BITS;
 1947              		.loc 1 574 49 discriminator 3 view .LVU547
 1948 015e 6375     		strb	r3, [r4, #21]
 575:System/diskio/DiskIO.c **** 
 1949              		.loc 1 575 13 is_stmt 1 discriminator 3 view .LVU548
 1950              	.LVL159:
 577:System/diskio/DiskIO.c ****             table_tmp.Info[i].access_date.year += DISK_FILE_DATEBASE_YEAR;
 1951              		.loc 1 577 13 discriminator 3 view .LVU549
 577:System/diskio/DiskIO.c ****             table_tmp.Info[i].access_date.year += DISK_FILE_DATEBASE_YEAR;
 1952              		.loc 1 577 59 is_stmt 0 discriminator 3 view .LVU550
 1953 0160 C0F34620 		ubfx	r0, r0, #9, #7
ARM GAS  C:\Users\huav\AppData\Local\Temp\cclD56Oe.s 			page 69


 1954              	.LVL160:
 577:System/diskio/DiskIO.c ****             table_tmp.Info[i].access_date.year += DISK_FILE_DATEBASE_YEAR;
 1955              		.loc 1 577 48 discriminator 3 view .LVU551
 1956 0164 A4F81300 		strh	r0, [r4, #19]	@ unaligned
 578:System/diskio/DiskIO.c ****         }
 1957              		.loc 1 578 13 is_stmt 1 discriminator 3 view .LVU552
 578:System/diskio/DiskIO.c ****         }
 1958              		.loc 1 578 48 is_stmt 0 discriminator 3 view .LVU553
 1959 0168 00F2BC70 		addw	r0, r0, #1980
 1960 016c A4F81300 		strh	r0, [r4, #19]	@ unaligned
 516:System/diskio/DiskIO.c ****         {
 1961              		.loc 1 516 37 is_stmt 1 discriminator 3 view .LVU554
 516:System/diskio/DiskIO.c ****         {
 1962              		.loc 1 516 38 is_stmt 0 discriminator 3 view .LVU555
 1963 0170 0136     		adds	r6, r6, #1
 1964              	.LVL161:
 516:System/diskio/DiskIO.c ****         {
 1965              		.loc 1 516 38 discriminator 3 view .LVU556
 1966 0172 F6B2     		uxtb	r6, r6
 1967              	.LVL162:
 1968              	.L113:
 516:System/diskio/DiskIO.c ****         {
 1969              		.loc 1 516 29 is_stmt 1 discriminator 1 view .LVU557
 516:System/diskio/DiskIO.c ****         {
 1970              		.loc 1 516 9 is_stmt 0 discriminator 1 view .LVU558
 1971 0174 0F2E     		cmp	r6, #15
 1972 0176 7FF673AF 		bls	.L114
 1973              	.LBE10:
 581:System/diskio/DiskIO.c ****     }
 1974              		.loc 1 581 9 is_stmt 1 view .LVU559
 1975 017a 4FF40072 		mov	r2, #512
 1976 017e 0021     		movs	r1, #0
 1977 0180 0148     		ldr	r0, .L117
 1978 0182 FFF7FEFF 		bl	memset
 1979              	.LVL163:
 1980 0186 4CE7     		b	.L112
 1981              	.L118:
 1982              		.align	2
 1983              	.L117:
 1984 0188 00000000 		.word	.LANCHOR1
 1985 018c 00000000 		.word	DevCard
 1986 0190 00000000 		.word	.LANCHOR0
 1987 0194 1F85EB51 		.word	1374389535
 1988              		.cfi_endproc
 1989              	.LFE155:
 1991              		.section	.text.Disk_Get_NextCluster,"ax",%progbits
 1992              		.align	1
 1993              		.syntax unified
 1994              		.thumb
 1995              		.thumb_func
 1996              		.fpu fpv5-d16
 1998              	Disk_Get_NextCluster:
 1999              	.LVL164:
 2000              	.LFB159:
 648:System/diskio/DiskIO.c ****     FATCluster_Addr clu_sec = 0;
 2001              		.loc 1 648 1 view -0
 2002              		.cfi_startproc
ARM GAS  C:\Users\huav\AppData\Local\Temp\cclD56Oe.s 			page 70


 2003              		@ args = 0, pretend = 0, frame = 8
 2004              		@ frame_needed = 0, uses_anonymous_args = 0
 648:System/diskio/DiskIO.c ****     FATCluster_Addr clu_sec = 0;
 2005              		.loc 1 648 1 is_stmt 0 view .LVU561
 2006 0000 70B5     		push	{r4, r5, r6, lr}
 2007              	.LCFI46:
 2008              		.cfi_def_cfa_offset 16
 2009              		.cfi_offset 4, -16
 2010              		.cfi_offset 5, -12
 2011              		.cfi_offset 6, -8
 2012              		.cfi_offset 14, -4
 2013 0002 84B0     		sub	sp, sp, #16
 2014              	.LCFI47:
 2015              		.cfi_def_cfa_offset 32
 2016 0004 0C46     		mov	r4, r1
 649:System/diskio/DiskIO.c ****     Disk_FAT_ItemTable_TypeDef *FAT_Table = NULL;
 2017              		.loc 1 649 5 is_stmt 1 view .LVU562
 2018              	.LVL165:
 650:System/diskio/DiskIO.c ****     FATCluster_Addr FATAddr_Tmp = 0;
 2019              		.loc 1 650 5 view .LVU563
 651:System/diskio/DiskIO.c **** 
 2020              		.loc 1 651 5 view .LVU564
 651:System/diskio/DiskIO.c **** 
 2021              		.loc 1 651 21 is_stmt 0 view .LVU565
 2022 0006 0023     		movs	r3, #0
 2023 0008 0393     		str	r3, [sp, #12]
 653:System/diskio/DiskIO.c **** 
 2024              		.loc 1 653 5 is_stmt 1 view .LVU566
 653:System/diskio/DiskIO.c **** 
 2025              		.loc 1 653 61 is_stmt 0 view .LVU567
 2026 000a D0F8AF10 		ldr	r1, [r0, #175]	@ unaligned
 2027              	.LVL166:
 655:System/diskio/DiskIO.c **** 
 2028              		.loc 1 655 5 is_stmt 1 view .LVU568
 655:System/diskio/DiskIO.c **** 
 2029              		.loc 1 655 12 is_stmt 0 view .LVU569
 2030 000e 0B4B     		ldr	r3, .L121
 2031 0010 5E69     		ldr	r6, [r3, #20]
 655:System/diskio/DiskIO.c **** 
 2032              		.loc 1 655 5 view .LVU570
 2033 0012 0B4D     		ldr	r5, .L121+4
 2034 0014 0123     		movs	r3, #1
 2035 0016 0093     		str	r3, [sp]
 2036 0018 4FF40073 		mov	r3, #512
 2037 001c 2A46     		mov	r2, r5
 2038 001e 01EBD411 		add	r1, r1, r4, lsr #7
 2039              	.LVL167:
 655:System/diskio/DiskIO.c **** 
 2040              		.loc 1 655 5 view .LVU571
 2041 0022 0848     		ldr	r0, .L121+8
 2042              	.LVL168:
 655:System/diskio/DiskIO.c **** 
 2043              		.loc 1 655 5 view .LVU572
 2044 0024 B047     		blx	r6
 2045              	.LVL169:
 657:System/diskio/DiskIO.c ****     FATAddr_Tmp = FAT_Table->table_item[cluster % DISK_FAT_CLUSTER_ITEM_SUM];
 2046              		.loc 1 657 5 is_stmt 1 view .LVU573
ARM GAS  C:\Users\huav\AppData\Local\Temp\cclD56Oe.s 			page 71


 658:System/diskio/DiskIO.c **** 
 2047              		.loc 1 658 5 view .LVU574
 658:System/diskio/DiskIO.c **** 
 2048              		.loc 1 658 49 is_stmt 0 view .LVU575
 2049 0026 04F07F04 		and	r4, r4, #127
 2050              	.LVL170:
 658:System/diskio/DiskIO.c **** 
 2051              		.loc 1 658 40 view .LVU576
 2052 002a 55F82430 		ldr	r3, [r5, r4, lsl #2]
 658:System/diskio/DiskIO.c **** 
 2053              		.loc 1 658 17 view .LVU577
 2054 002e 0393     		str	r3, [sp, #12]
 660:System/diskio/DiskIO.c **** }
 2055              		.loc 1 660 5 is_stmt 1 view .LVU578
 660:System/diskio/DiskIO.c **** }
 2056              		.loc 1 660 12 is_stmt 0 view .LVU579
 2057 0030 03A8     		add	r0, sp, #12
 2058 0032 FFF7FEFF 		bl	LEndian2Word
 2059              	.LVL171:
 661:System/diskio/DiskIO.c **** 
 2060              		.loc 1 661 1 view .LVU580
 2061 0036 04B0     		add	sp, sp, #16
 2062              	.LCFI48:
 2063              		.cfi_def_cfa_offset 16
 2064              		@ sp needed
 2065 0038 70BD     		pop	{r4, r5, r6, pc}
 2066              	.L122:
 2067 003a 00BF     		.align	2
 2068              	.L121:
 2069 003c 00000000 		.word	DevCard
 2070 0040 00000000 		.word	.LANCHOR1
 2071 0044 00000000 		.word	.LANCHOR0
 2072              		.cfi_endproc
 2073              	.LFE159:
 2075              		.section	.text.Disk_GetPath_Layer,"ax",%progbits
 2076              		.align	1
 2077              		.syntax unified
 2078              		.thumb
 2079              		.thumb_func
 2080              		.fpu fpv5-d16
 2082              	Disk_GetPath_Layer:
 2083              	.LVL172:
 2084              	.LFB160:
 664:System/diskio/DiskIO.c ****     uint32_t layer = 0;
 2085              		.loc 1 664 1 is_stmt 1 view -0
 2086              		.cfi_startproc
 2087              		@ args = 0, pretend = 0, frame = 0
 2088              		@ frame_needed = 0, uses_anonymous_args = 0
 664:System/diskio/DiskIO.c ****     uint32_t layer = 0;
 2089              		.loc 1 664 1 is_stmt 0 view .LVU582
 2090 0000 10B5     		push	{r4, lr}
 2091              	.LCFI49:
 2092              		.cfi_def_cfa_offset 8
 2093              		.cfi_offset 4, -8
 2094              		.cfi_offset 14, -4
 665:System/diskio/DiskIO.c ****     char *fpath_remain = fpath;
 2095              		.loc 1 665 5 is_stmt 1 view .LVU583
ARM GAS  C:\Users\huav\AppData\Local\Temp\cclD56Oe.s 			page 72


 2096              	.LVL173:
 666:System/diskio/DiskIO.c **** 
 2097              		.loc 1 666 5 view .LVU584
 668:System/diskio/DiskIO.c ****     {
 2098              		.loc 1 668 5 view .LVU585
 665:System/diskio/DiskIO.c ****     char *fpath_remain = fpath;
 2099              		.loc 1 665 14 is_stmt 0 view .LVU586
 2100 0002 0024     		movs	r4, #0
 668:System/diskio/DiskIO.c ****     {
 2101              		.loc 1 668 11 view .LVU587
 2102 0004 01E0     		b	.L124
 2103              	.LVL174:
 2104              	.L128:
 678:System/diskio/DiskIO.c ****             fpath_remain += 1;
 2105              		.loc 1 678 13 is_stmt 1 view .LVU588
 678:System/diskio/DiskIO.c ****             fpath_remain += 1;
 2106              		.loc 1 678 18 is_stmt 0 view .LVU589
 2107 0006 0134     		adds	r4, r4, #1
 2108              	.LVL175:
 679:System/diskio/DiskIO.c ****         }
 2109              		.loc 1 679 13 is_stmt 1 view .LVU590
 679:System/diskio/DiskIO.c ****         }
 2110              		.loc 1 679 26 is_stmt 0 view .LVU591
 2111 0008 0130     		adds	r0, r0, #1
 2112              	.LVL176:
 2113              	.L124:
 668:System/diskio/DiskIO.c ****     {
 2114              		.loc 1 668 11 is_stmt 1 view .LVU592
 2115 000a 20B1     		cbz	r0, .L123
 670:System/diskio/DiskIO.c **** 
 2116              		.loc 1 670 9 view .LVU593
 670:System/diskio/DiskIO.c **** 
 2117              		.loc 1 670 24 is_stmt 0 view .LVU594
 2118 000c 2F21     		movs	r1, #47
 2119 000e FFF7FEFF 		bl	strchr
 2120              	.LVL177:
 672:System/diskio/DiskIO.c ****         {
 2121              		.loc 1 672 9 is_stmt 1 view .LVU595
 672:System/diskio/DiskIO.c ****         {
 2122              		.loc 1 672 12 is_stmt 0 view .LVU596
 2123 0012 0028     		cmp	r0, #0
 2124 0014 F7D1     		bne	.L128
 2125              	.L123:
 684:System/diskio/DiskIO.c **** 
 2126              		.loc 1 684 1 view .LVU597
 2127 0016 2046     		mov	r0, r4
 2128              	.LVL178:
 684:System/diskio/DiskIO.c **** 
 2129              		.loc 1 684 1 view .LVU598
 2130 0018 10BD     		pop	{r4, pc}
 684:System/diskio/DiskIO.c **** 
 2131              		.loc 1 684 1 view .LVU599
 2132              		.cfi_endproc
 2133              	.LFE160:
 2135              		.section	.rodata.Disk_GetFolderName_ByIndex.str1.4,"aMS",%progbits,1
 2136              		.align	2
 2137              	.LC5:
ARM GAS  C:\Users\huav\AppData\Local\Temp\cclD56Oe.s 			page 73


 2138 0000 2F00     		.ascii	"/\000"
 2139              		.section	.text.Disk_GetFolderName_ByIndex,"ax",%progbits
 2140              		.align	1
 2141              		.syntax unified
 2142              		.thumb
 2143              		.thumb_func
 2144              		.fpu fpv5-d16
 2146              	Disk_GetFolderName_ByIndex:
 2147              	.LVL179:
 2148              	.LFB161:
 687:System/diskio/DiskIO.c ****     char *fpath_match = NULL;
 2149              		.loc 1 687 1 is_stmt 1 view -0
 2150              		.cfi_startproc
 2151              		@ args = 0, pretend = 0, frame = 0
 2152              		@ frame_needed = 0, uses_anonymous_args = 0
 687:System/diskio/DiskIO.c ****     char *fpath_match = NULL;
 2153              		.loc 1 687 1 is_stmt 0 view .LVU601
 2154 0000 2DE9F041 		push	{r4, r5, r6, r7, r8, lr}
 2155              	.LCFI50:
 2156              		.cfi_def_cfa_offset 24
 2157              		.cfi_offset 4, -24
 2158              		.cfi_offset 5, -20
 2159              		.cfi_offset 6, -16
 2160              		.cfi_offset 7, -12
 2161              		.cfi_offset 8, -8
 2162              		.cfi_offset 14, -4
 2163 0004 0546     		mov	r5, r0
 2164 0006 0C46     		mov	r4, r1
 2165 0008 9046     		mov	r8, r2
 688:System/diskio/DiskIO.c ****     char *fpath_tmp = NULL;
 2166              		.loc 1 688 5 is_stmt 1 view .LVU602
 2167              	.LVL180:
 689:System/diskio/DiskIO.c **** 
 2168              		.loc 1 689 5 view .LVU603
 691:System/diskio/DiskIO.c ****     if (fpath_tmp == NULL)
 2169              		.loc 1 691 5 view .LVU604
 691:System/diskio/DiskIO.c ****     if (fpath_tmp == NULL)
 2170              		.loc 1 691 36 is_stmt 0 view .LVU605
 2171 000a FFF7FEFF 		bl	strlen
 2172              	.LVL181:
 691:System/diskio/DiskIO.c ****     if (fpath_tmp == NULL)
 2173              		.loc 1 691 25 view .LVU606
 2174 000e 0130     		adds	r0, r0, #1
 2175 0010 80B2     		uxth	r0, r0
 2176 0012 FFF7FEFF 		bl	MMU_Malloc
 2177              	.LVL182:
 692:System/diskio/DiskIO.c ****     {
 2178              		.loc 1 692 5 is_stmt 1 view .LVU607
 692:System/diskio/DiskIO.c ****     {
 2179              		.loc 1 692 8 is_stmt 0 view .LVU608
 2180 0016 0646     		mov	r6, r0
 2181 0018 B0B3     		cbz	r0, .L137
 698:System/diskio/DiskIO.c ****     if (fpath_match == NULL)
 2182              		.loc 1 698 5 is_stmt 1 view .LVU609
 698:System/diskio/DiskIO.c ****     if (fpath_match == NULL)
 2183              		.loc 1 698 38 is_stmt 0 view .LVU610
 2184 001a 2846     		mov	r0, r5
ARM GAS  C:\Users\huav\AppData\Local\Temp\cclD56Oe.s 			page 74


 2185              	.LVL183:
 698:System/diskio/DiskIO.c ****     if (fpath_match == NULL)
 2186              		.loc 1 698 38 view .LVU611
 2187 001c FFF7FEFF 		bl	strlen
 2188              	.LVL184:
 698:System/diskio/DiskIO.c ****     if (fpath_match == NULL)
 2189              		.loc 1 698 27 view .LVU612
 2190 0020 0130     		adds	r0, r0, #1
 2191 0022 80B2     		uxth	r0, r0
 2192 0024 FFF7FEFF 		bl	MMU_Malloc
 2193              	.LVL185:
 699:System/diskio/DiskIO.c ****     {
 2194              		.loc 1 699 5 is_stmt 1 view .LVU613
 699:System/diskio/DiskIO.c ****     {
 2195              		.loc 1 699 8 is_stmt 0 view .LVU614
 2196 0028 0746     		mov	r7, r0
 2197 002a 88B3     		cbz	r0, .L138
 705:System/diskio/DiskIO.c ****     memset(fpath_tmp, '\0', strlen(fpath));
 2198              		.loc 1 705 5 is_stmt 1 view .LVU615
 2199 002c 2846     		mov	r0, r5
 2200              	.LVL186:
 705:System/diskio/DiskIO.c ****     memset(fpath_tmp, '\0', strlen(fpath));
 2201              		.loc 1 705 5 is_stmt 0 view .LVU616
 2202 002e FFF7FEFF 		bl	strlen
 2203              	.LVL187:
 2204 0032 0246     		mov	r2, r0
 2205 0034 0021     		movs	r1, #0
 2206 0036 3846     		mov	r0, r7
 2207 0038 FFF7FEFF 		bl	memset
 2208              	.LVL188:
 706:System/diskio/DiskIO.c ****     memcpy(fpath_tmp, fpath, strlen(fpath));
 2209              		.loc 1 706 5 is_stmt 1 view .LVU617
 2210 003c 2846     		mov	r0, r5
 2211 003e FFF7FEFF 		bl	strlen
 2212              	.LVL189:
 2213 0042 0246     		mov	r2, r0
 2214 0044 0021     		movs	r1, #0
 2215 0046 3046     		mov	r0, r6
 2216 0048 FFF7FEFF 		bl	memset
 2217              	.LVL190:
 707:System/diskio/DiskIO.c **** 
 2218              		.loc 1 707 5 view .LVU618
 2219 004c 2846     		mov	r0, r5
 2220 004e FFF7FEFF 		bl	strlen
 2221              	.LVL191:
 2222 0052 0246     		mov	r2, r0
 2223 0054 2946     		mov	r1, r5
 2224 0056 3046     		mov	r0, r6
 2225 0058 FFF7FEFF 		bl	memcpy
 2226              	.LVL192:
 709:System/diskio/DiskIO.c **** 
 2227              		.loc 1 709 5 view .LVU619
 709:System/diskio/DiskIO.c **** 
 2228              		.loc 1 709 19 is_stmt 0 view .LVU620
 2229 005c 1B49     		ldr	r1, .L141
 2230 005e 3046     		mov	r0, r6
 2231 0060 FFF7FEFF 		bl	strtok
ARM GAS  C:\Users\huav\AppData\Local\Temp\cclD56Oe.s 			page 75


 2232              	.LVL193:
 2233 0064 0746     		mov	r7, r0
 2234              	.LVL194:
 711:System/diskio/DiskIO.c ****     {
 2235              		.loc 1 711 5 is_stmt 1 view .LVU621
 2236              	.L133:
 711:System/diskio/DiskIO.c ****     {
 2237              		.loc 1 711 11 view .LVU622
 2238 0066 FCB1     		cbz	r4, .L139
 713:System/diskio/DiskIO.c **** 
 2239              		.loc 1 713 9 view .LVU623
 2240 0068 2846     		mov	r0, r5
 2241              	.LVL195:
 713:System/diskio/DiskIO.c **** 
 2242              		.loc 1 713 9 is_stmt 0 view .LVU624
 2243 006a FFF7FEFF 		bl	strlen
 2244              	.LVL196:
 2245 006e 0246     		mov	r2, r0
 2246 0070 2946     		mov	r1, r5
 2247 0072 3046     		mov	r0, r6
 2248 0074 FFF7FEFF 		bl	memcpy
 2249              	.LVL197:
 715:System/diskio/DiskIO.c **** 
 2250              		.loc 1 715 9 is_stmt 1 view .LVU625
 715:System/diskio/DiskIO.c **** 
 2251              		.loc 1 715 23 is_stmt 0 view .LVU626
 2252 0078 1449     		ldr	r1, .L141
 2253 007a 0020     		movs	r0, #0
 2254 007c FFF7FEFF 		bl	strtok
 2255              	.LVL198:
 717:System/diskio/DiskIO.c ****         {
 2256              		.loc 1 717 9 is_stmt 1 view .LVU627
 717:System/diskio/DiskIO.c ****         {
 2257              		.loc 1 717 12 is_stmt 0 view .LVU628
 2258 0080 0746     		mov	r7, r0
 2259 0082 48B1     		cbz	r0, .L140
 724:System/diskio/DiskIO.c ****     }
 2260              		.loc 1 724 9 is_stmt 1 view .LVU629
 724:System/diskio/DiskIO.c ****     }
 2261              		.loc 1 724 14 is_stmt 0 view .LVU630
 2262 0084 013C     		subs	r4, r4, #1
 2263              	.LVL199:
 724:System/diskio/DiskIO.c ****     }
 2264              		.loc 1 724 14 view .LVU631
 2265 0086 EEE7     		b	.L133
 2266              	.LVL200:
 2267              	.L137:
 694:System/diskio/DiskIO.c ****         return false;
 2268              		.loc 1 694 9 is_stmt 1 view .LVU632
 2269 0088 FFF7FEFF 		bl	MMU_Free
 2270              	.LVL201:
 695:System/diskio/DiskIO.c ****     }
 2271              		.loc 1 695 9 view .LVU633
 695:System/diskio/DiskIO.c ****     }
 2272              		.loc 1 695 16 is_stmt 0 view .LVU634
 2273 008c 0020     		movs	r0, #0
 2274 008e 1AE0     		b	.L131
ARM GAS  C:\Users\huav\AppData\Local\Temp\cclD56Oe.s 			page 76


 2275              	.LVL202:
 2276              	.L138:
 701:System/diskio/DiskIO.c ****         return false;
 2277              		.loc 1 701 9 is_stmt 1 view .LVU635
 2278 0090 FFF7FEFF 		bl	MMU_Free
 2279              	.LVL203:
 702:System/diskio/DiskIO.c ****     }
 2280              		.loc 1 702 9 view .LVU636
 702:System/diskio/DiskIO.c ****     }
 2281              		.loc 1 702 16 is_stmt 0 view .LVU637
 2282 0094 0020     		movs	r0, #0
 2283 0096 16E0     		b	.L131
 2284              	.LVL204:
 2285              	.L140:
 719:System/diskio/DiskIO.c ****             MMU_Free(fpath_match);
 2286              		.loc 1 719 13 is_stmt 1 view .LVU638
 2287 0098 3046     		mov	r0, r6
 2288              	.LVL205:
 719:System/diskio/DiskIO.c ****             MMU_Free(fpath_match);
 2289              		.loc 1 719 13 is_stmt 0 view .LVU639
 2290 009a FFF7FEFF 		bl	MMU_Free
 2291              	.LVL206:
 720:System/diskio/DiskIO.c ****             return false;
 2292              		.loc 1 720 13 is_stmt 1 view .LVU640
 2293 009e 3846     		mov	r0, r7
 2294 00a0 FFF7FEFF 		bl	MMU_Free
 2295              	.LVL207:
 721:System/diskio/DiskIO.c ****         }
 2296              		.loc 1 721 13 view .LVU641
 721:System/diskio/DiskIO.c ****         }
 2297              		.loc 1 721 20 is_stmt 0 view .LVU642
 2298 00a4 0020     		movs	r0, #0
 2299 00a6 0EE0     		b	.L131
 2300              	.LVL208:
 2301              	.L139:
 727:System/diskio/DiskIO.c **** 
 2302              		.loc 1 727 5 is_stmt 1 view .LVU643
 2303 00a8 3846     		mov	r0, r7
 2304              	.LVL209:
 727:System/diskio/DiskIO.c **** 
 2305              		.loc 1 727 5 is_stmt 0 view .LVU644
 2306 00aa FFF7FEFF 		bl	strlen
 2307              	.LVL210:
 2308 00ae 0246     		mov	r2, r0
 2309 00b0 3946     		mov	r1, r7
 2310 00b2 4046     		mov	r0, r8
 2311 00b4 FFF7FEFF 		bl	memcpy
 2312              	.LVL211:
 729:System/diskio/DiskIO.c ****     MMU_Free(fpath_match);
 2313              		.loc 1 729 5 is_stmt 1 view .LVU645
 2314 00b8 3046     		mov	r0, r6
 2315 00ba FFF7FEFF 		bl	MMU_Free
 2316              	.LVL212:
 730:System/diskio/DiskIO.c ****     return true;
 2317              		.loc 1 730 5 view .LVU646
 2318 00be 3846     		mov	r0, r7
 2319 00c0 FFF7FEFF 		bl	MMU_Free
ARM GAS  C:\Users\huav\AppData\Local\Temp\cclD56Oe.s 			page 77


 2320              	.LVL213:
 731:System/diskio/DiskIO.c **** }
 2321              		.loc 1 731 5 view .LVU647
 731:System/diskio/DiskIO.c **** }
 2322              		.loc 1 731 12 is_stmt 0 view .LVU648
 2323 00c4 0120     		movs	r0, #1
 2324              	.LVL214:
 2325              	.L131:
 732:System/diskio/DiskIO.c **** 
 2326              		.loc 1 732 1 view .LVU649
 2327 00c6 BDE8F081 		pop	{r4, r5, r6, r7, r8, pc}
 2328              	.LVL215:
 2329              	.L142:
 732:System/diskio/DiskIO.c **** 
 2330              		.loc 1 732 1 view .LVU650
 2331 00ca 00BF     		.align	2
 2332              	.L141:
 2333 00cc 00000000 		.word	.LC5
 2334              		.cfi_endproc
 2335              	.LFE161:
 2337              		.section	.rodata.Disk_SFN_LegallyCheck.str1.4,"aMS",%progbits,1
 2338              		.align	2
 2339              	.LC7:
 2340 0000 2E00     		.ascii	".\000"
 2341 0002 0000     		.align	2
 2342              	.LC6:
 2343 0004 5C2F3A2A 		.ascii	"\\/:*?<>|\"\000"
 2343      3F3C3E7C 
 2343      2200
 2344              		.section	.text.Disk_SFN_LegallyCheck,"ax",%progbits
 2345              		.align	1
 2346              		.syntax unified
 2347              		.thumb
 2348              		.thumb_func
 2349              		.fpu fpv5-d16
 2351              	Disk_SFN_LegallyCheck:
 2352              	.LVL216:
 2353              	.LFB163:
 760:System/diskio/DiskIO.c ****     char f_name_tmp[64] = {'\0'};
 2354              		.loc 1 760 1 is_stmt 1 view -0
 2355              		.cfi_startproc
 2356              		@ args = 0, pretend = 0, frame = 80
 2357              		@ frame_needed = 0, uses_anonymous_args = 0
 760:System/diskio/DiskIO.c ****     char f_name_tmp[64] = {'\0'};
 2358              		.loc 1 760 1 is_stmt 0 view .LVU652
 2359 0000 F0B5     		push	{r4, r5, r6, r7, lr}
 2360              	.LCFI51:
 2361              		.cfi_def_cfa_offset 20
 2362              		.cfi_offset 4, -20
 2363              		.cfi_offset 5, -16
 2364              		.cfi_offset 6, -12
 2365              		.cfi_offset 7, -8
 2366              		.cfi_offset 14, -4
 2367 0002 95B0     		sub	sp, sp, #84
 2368              	.LCFI52:
 2369              		.cfi_def_cfa_offset 104
 2370 0004 0446     		mov	r4, r0
ARM GAS  C:\Users\huav\AppData\Local\Temp\cclD56Oe.s 			page 78


 761:System/diskio/DiskIO.c ****     char *f_n = NULL;
 2371              		.loc 1 761 5 is_stmt 1 view .LVU653
 761:System/diskio/DiskIO.c ****     char *f_n = NULL;
 2372              		.loc 1 761 10 is_stmt 0 view .LVU654
 2373 0006 0021     		movs	r1, #0
 2374 0008 0491     		str	r1, [sp, #16]
 2375 000a 3C22     		movs	r2, #60
 2376 000c 05A8     		add	r0, sp, #20
 2377              	.LVL217:
 761:System/diskio/DiskIO.c ****     char *f_n = NULL;
 2378              		.loc 1 761 10 view .LVU655
 2379 000e FFF7FEFF 		bl	memset
 2380              	.LVL218:
 762:System/diskio/DiskIO.c ****     char *e_n = NULL;
 2381              		.loc 1 762 5 is_stmt 1 view .LVU656
 763:System/diskio/DiskIO.c ****     uint8_t file_char_Ucase = 0;
 2382              		.loc 1 763 5 view .LVU657
 764:System/diskio/DiskIO.c ****     uint8_t file_char_Lcase = 0;
 2383              		.loc 1 764 5 view .LVU658
 765:System/diskio/DiskIO.c ****     uint8_t extend_char_Ucase = 0;
 2384              		.loc 1 765 5 view .LVU659
 766:System/diskio/DiskIO.c ****     uint8_t extend_char_Lcase = 0;
 2385              		.loc 1 766 5 view .LVU660
 767:System/diskio/DiskIO.c ****     const char illegal_letter_list[] = {'\\', '/', ':', '*', '?', '<', '>', '|', '"'};
 2386              		.loc 1 767 5 view .LVU661
 768:System/diskio/DiskIO.c **** 
 2387              		.loc 1 768 5 view .LVU662
 768:System/diskio/DiskIO.c **** 
 2388              		.loc 1 768 16 is_stmt 0 view .LVU663
 2389 0012 4E4A     		ldr	r2, .L170
 2390 0014 01AB     		add	r3, sp, #4
 2391 0016 07CA     		ldm	r2, {r0, r1, r2}
 2392 0018 03C3     		stmia	r3!, {r0, r1}
 2393 001a 1A70     		strb	r2, [r3]
 770:System/diskio/DiskIO.c ****         return false;
 2394              		.loc 1 770 5 is_stmt 1 view .LVU664
 770:System/diskio/DiskIO.c ****         return false;
 2395              		.loc 1 770 8 is_stmt 0 view .LVU665
 2396 001c 002C     		cmp	r4, #0
 2397 001e 00F08580 		beq	.L153
 770:System/diskio/DiskIO.c ****         return false;
 2398              		.loc 1 770 30 discriminator 1 view .LVU666
 2399 0022 2046     		mov	r0, r4
 2400 0024 FFF7FEFF 		bl	strlen
 2401              	.LVL219:
 770:System/diskio/DiskIO.c ****         return false;
 2402              		.loc 1 770 26 discriminator 1 view .LVU667
 2403 0028 4028     		cmp	r0, #64
 2404 002a 02D9     		bls	.L164
 771:System/diskio/DiskIO.c **** 
 2405              		.loc 1 771 16 view .LVU668
 2406 002c 0020     		movs	r0, #0
 2407              	.LVL220:
 2408              	.L144:
 836:System/diskio/DiskIO.c **** 
 2409              		.loc 1 836 1 view .LVU669
 2410 002e 15B0     		add	sp, sp, #84
ARM GAS  C:\Users\huav\AppData\Local\Temp\cclD56Oe.s 			page 79


 2411              	.LCFI53:
 2412              		.cfi_remember_state
 2413              		.cfi_def_cfa_offset 20
 2414              		@ sp needed
 2415 0030 F0BD     		pop	{r4, r5, r6, r7, pc}
 2416              	.LVL221:
 2417              	.L164:
 2418              	.LCFI54:
 2419              		.cfi_restore_state
 773:System/diskio/DiskIO.c **** 
 2420              		.loc 1 773 5 is_stmt 1 view .LVU670
 2421 0032 0246     		mov	r2, r0
 2422 0034 2146     		mov	r1, r4
 2423 0036 04A8     		add	r0, sp, #16
 2424 0038 FFF7FEFF 		bl	memcpy
 2425              	.LVL222:
 775:System/diskio/DiskIO.c **** 
 2426              		.loc 1 775 5 view .LVU671
 775:System/diskio/DiskIO.c **** 
 2427              		.loc 1 775 11 is_stmt 0 view .LVU672
 2428 003c 4449     		ldr	r1, .L170+4
 2429 003e 04A8     		add	r0, sp, #16
 2430 0040 FFF7FEFF 		bl	strtok
 2431              	.LVL223:
 777:System/diskio/DiskIO.c ****         return false;
 2432              		.loc 1 777 5 is_stmt 1 view .LVU673
 777:System/diskio/DiskIO.c ****         return false;
 2433              		.loc 1 777 8 is_stmt 0 view .LVU674
 2434 0044 0546     		mov	r5, r0
 2435 0046 0028     		cmp	r0, #0
 2436 0048 72D0     		beq	.L155
 780:System/diskio/DiskIO.c **** 
 2437              		.loc 1 780 5 is_stmt 1 view .LVU675
 780:System/diskio/DiskIO.c **** 
 2438              		.loc 1 780 11 is_stmt 0 view .LVU676
 2439 004a 4149     		ldr	r1, .L170+4
 2440 004c 0020     		movs	r0, #0
 2441              	.LVL224:
 780:System/diskio/DiskIO.c **** 
 2442              		.loc 1 780 11 view .LVU677
 2443 004e FFF7FEFF 		bl	strtok
 2444              	.LVL225:
 2445 0052 0446     		mov	r4, r0
 2446              	.LVL226:
 783:System/diskio/DiskIO.c ****     volatile uint8_t e_n_len = 0;
 2447              		.loc 1 783 5 is_stmt 1 view .LVU678
 783:System/diskio/DiskIO.c ****     volatile uint8_t e_n_len = 0;
 2448              		.loc 1 783 22 is_stmt 0 view .LVU679
 2449 0054 0023     		movs	r3, #0
 2450 0056 8DF80330 		strb	r3, [sp, #3]
 784:System/diskio/DiskIO.c **** 
 2451              		.loc 1 784 5 is_stmt 1 view .LVU680
 784:System/diskio/DiskIO.c **** 
 2452              		.loc 1 784 22 is_stmt 0 view .LVU681
 2453 005a 8DF80230 		strb	r3, [sp, #2]
 786:System/diskio/DiskIO.c ****     e_n_len = strlen(e_n);
 2454              		.loc 1 786 5 is_stmt 1 view .LVU682
ARM GAS  C:\Users\huav\AppData\Local\Temp\cclD56Oe.s 			page 80


 786:System/diskio/DiskIO.c ****     e_n_len = strlen(e_n);
 2455              		.loc 1 786 15 is_stmt 0 view .LVU683
 2456 005e 2846     		mov	r0, r5
 2457              	.LVL227:
 786:System/diskio/DiskIO.c ****     e_n_len = strlen(e_n);
 2458              		.loc 1 786 15 view .LVU684
 2459 0060 FFF7FEFF 		bl	strlen
 2460              	.LVL228:
 786:System/diskio/DiskIO.c ****     e_n_len = strlen(e_n);
 2461              		.loc 1 786 13 view .LVU685
 2462 0064 C0B2     		uxtb	r0, r0
 2463 0066 8DF80300 		strb	r0, [sp, #3]
 787:System/diskio/DiskIO.c ****     /* test code */
 2464              		.loc 1 787 5 is_stmt 1 view .LVU686
 787:System/diskio/DiskIO.c ****     /* test code */
 2465              		.loc 1 787 15 is_stmt 0 view .LVU687
 2466 006a 2046     		mov	r0, r4
 2467 006c FFF7FEFF 		bl	strlen
 2468              	.LVL229:
 787:System/diskio/DiskIO.c ****     /* test code */
 2469              		.loc 1 787 13 view .LVU688
 2470 0070 C0B2     		uxtb	r0, r0
 2471 0072 8DF80200 		strb	r0, [sp, #2]
 791:System/diskio/DiskIO.c ****         (strlen(f_n) <= SFN_FILE_NAME_MAX_LENGTH) &&
 2472              		.loc 1 791 5 is_stmt 1 view .LVU689
 791:System/diskio/DiskIO.c ****         (strlen(f_n) <= SFN_FILE_NAME_MAX_LENGTH) &&
 2473              		.loc 1 791 22 is_stmt 0 view .LVU690
 2474 0076 2B78     		ldrb	r3, [r5]	@ zero_extendqisi2
 791:System/diskio/DiskIO.c ****         (strlen(f_n) <= SFN_FILE_NAME_MAX_LENGTH) &&
 2475              		.loc 1 791 8 view .LVU691
 2476 0078 002B     		cmp	r3, #0
 2477 007a 5BD0     		beq	.L156
 792:System/diskio/DiskIO.c ****         (strlen(e_n) >= 0) &&
 2478              		.loc 1 792 10 view .LVU692
 2479 007c 2846     		mov	r0, r5
 2480 007e FFF7FEFF 		bl	strlen
 2481              	.LVL230:
 792:System/diskio/DiskIO.c ****         (strlen(e_n) >= 0) &&
 2482              		.loc 1 792 51 view .LVU693
 2483 0082 0828     		cmp	r0, #8
 2484 0084 58D8     		bhi	.L157
 794:System/diskio/DiskIO.c ****     {
 2485              		.loc 1 794 10 view .LVU694
 2486 0086 2046     		mov	r0, r4
 2487 0088 FFF7FEFF 		bl	strlen
 2488              	.LVL231:
 793:System/diskio/DiskIO.c ****         (strlen(e_n) <= SFN_EXTEND_NAME_MAX_LENGTH))
 2489              		.loc 1 793 28 view .LVU695
 2490 008c 0328     		cmp	r0, #3
 2491 008e 01D9     		bls	.L158
 835:System/diskio/DiskIO.c **** }
 2492              		.loc 1 835 12 view .LVU696
 2493 0090 0020     		movs	r0, #0
 2494 0092 CCE7     		b	.L144
 2495              	.L158:
 2496              	.LBB11:
 797:System/diskio/DiskIO.c ****         {
ARM GAS  C:\Users\huav\AppData\Local\Temp\cclD56Oe.s 			page 81


 2497              		.loc 1 797 22 view .LVU697
 2498 0094 0026     		movs	r6, #0
 2499              	.L145:
 2500              	.LVL232:
 797:System/diskio/DiskIO.c ****         {
 2501              		.loc 1 797 29 is_stmt 1 discriminator 1 view .LVU698
 797:System/diskio/DiskIO.c ****         {
 2502              		.loc 1 797 9 is_stmt 0 discriminator 1 view .LVU699
 2503 0096 082E     		cmp	r6, #8
 2504 0098 12D8     		bhi	.L165
 799:System/diskio/DiskIO.c ****                 return false;
 2505              		.loc 1 799 13 is_stmt 1 view .LVU700
 799:System/diskio/DiskIO.c ****                 return false;
 2506              		.loc 1 799 48 is_stmt 0 view .LVU701
 2507 009a 14AB     		add	r3, sp, #80
 2508 009c 3344     		add	r3, r3, r6
 2509 009e 13F84C7C 		ldrb	r7, [r3, #-76]	@ zero_extendqisi2
 799:System/diskio/DiskIO.c ****                 return false;
 2510              		.loc 1 799 17 view .LVU702
 2511 00a2 3946     		mov	r1, r7
 2512 00a4 2046     		mov	r0, r4
 2513 00a6 FFF7FEFF 		bl	strchr
 2514              	.LVL233:
 799:System/diskio/DiskIO.c ****                 return false;
 2515              		.loc 1 799 16 view .LVU703
 2516 00aa 0028     		cmp	r0, #0
 2517 00ac 46D1     		bne	.L159
 802:System/diskio/DiskIO.c ****                 return false;
 2518              		.loc 1 802 13 is_stmt 1 view .LVU704
 802:System/diskio/DiskIO.c ****                 return false;
 2519              		.loc 1 802 17 is_stmt 0 view .LVU705
 2520 00ae 3946     		mov	r1, r7
 2521 00b0 2846     		mov	r0, r5
 2522 00b2 FFF7FEFF 		bl	strchr
 2523              	.LVL234:
 802:System/diskio/DiskIO.c ****                 return false;
 2524              		.loc 1 802 16 view .LVU706
 2525 00b6 0028     		cmp	r0, #0
 2526 00b8 42D1     		bne	.L160
 797:System/diskio/DiskIO.c ****         {
 2527              		.loc 1 797 62 is_stmt 1 discriminator 2 view .LVU707
 797:System/diskio/DiskIO.c ****         {
 2528              		.loc 1 797 63 is_stmt 0 discriminator 2 view .LVU708
 2529 00ba 0136     		adds	r6, r6, #1
 2530              	.LVL235:
 797:System/diskio/DiskIO.c ****         {
 2531              		.loc 1 797 63 discriminator 2 view .LVU709
 2532 00bc F6B2     		uxtb	r6, r6
 2533              	.LVL236:
 797:System/diskio/DiskIO.c ****         {
 2534              		.loc 1 797 63 discriminator 2 view .LVU710
 2535 00be EAE7     		b	.L145
 2536              	.L165:
 797:System/diskio/DiskIO.c ****         {
 2537              		.loc 1 797 63 discriminator 2 view .LVU711
 2538              	.LBE11:
 2539              	.LBB12:
ARM GAS  C:\Users\huav\AppData\Local\Temp\cclD56Oe.s 			page 82


 807:System/diskio/DiskIO.c ****         {
 2540              		.loc 1 807 22 view .LVU712
 2541 00c0 0023     		movs	r3, #0
 2542              	.LBE12:
 767:System/diskio/DiskIO.c ****     const char illegal_letter_list[] = {'\\', '/', ':', '*', '?', '<', '>', '|', '"'};
 2543              		.loc 1 767 13 view .LVU713
 2544 00c2 1F46     		mov	r7, r3
 766:System/diskio/DiskIO.c ****     uint8_t extend_char_Lcase = 0;
 2545              		.loc 1 766 13 view .LVU714
 2546 00c4 9C46     		mov	ip, r3
 765:System/diskio/DiskIO.c ****     uint8_t extend_char_Ucase = 0;
 2547              		.loc 1 765 13 view .LVU715
 2548 00c6 1846     		mov	r0, r3
 764:System/diskio/DiskIO.c ****     uint8_t file_char_Lcase = 0;
 2549              		.loc 1 764 13 view .LVU716
 2550 00c8 1E46     		mov	r6, r3
 2551              	.LVL237:
 764:System/diskio/DiskIO.c ****     uint8_t file_char_Lcase = 0;
 2552              		.loc 1 764 13 view .LVU717
 2553 00ca 0FE0     		b	.L147
 2554              	.LVL238:
 2555              	.L169:
 2556              	.LBB13:
 814:System/diskio/DiskIO.c **** 
 2557              		.loc 1 814 25 is_stmt 1 view .LVU718
 814:System/diskio/DiskIO.c **** 
 2558              		.loc 1 814 42 is_stmt 0 view .LVU719
 2559 00cc 0CF1010C 		add	ip, ip, #1
 2560              	.LVL239:
 814:System/diskio/DiskIO.c **** 
 2561              		.loc 1 814 42 view .LVU720
 2562 00d0 5FFA8CFC 		uxtb	ip, ip
 2563              	.LVL240:
 814:System/diskio/DiskIO.c **** 
 2564              		.loc 1 814 42 view .LVU721
 2565 00d4 17E0     		b	.L149
 2566              	.L148:
 821:System/diskio/DiskIO.c ****             {
 2567              		.loc 1 821 13 is_stmt 1 view .LVU722
 823:System/diskio/DiskIO.c ****                     file_char_Ucase++;
 2568              		.loc 1 823 17 view .LVU723
 823:System/diskio/DiskIO.c ****                     file_char_Ucase++;
 2569              		.loc 1 823 21 is_stmt 0 view .LVU724
 2570 00d6 E95C     		ldrb	r1, [r5, r3]	@ zero_extendqisi2
 2571 00d8 1E4A     		ldr	r2, .L170+8
 2572 00da 8A5C     		ldrb	r2, [r1, r2]	@ zero_extendqisi2
 2573 00dc 02F00302 		and	r2, r2, #3
 823:System/diskio/DiskIO.c ****                     file_char_Ucase++;
 2574              		.loc 1 823 20 view .LVU725
 2575 00e0 012A     		cmp	r2, #1
 2576 00e2 15D0     		beq	.L166
 2577              	.L150:
 826:System/diskio/DiskIO.c ****                     file_char_Lcase++;
 2578              		.loc 1 826 17 is_stmt 1 view .LVU726
 826:System/diskio/DiskIO.c ****                     file_char_Lcase++;
 2579              		.loc 1 826 20 is_stmt 0 view .LVU727
 2580 00e4 022A     		cmp	r2, #2
ARM GAS  C:\Users\huav\AppData\Local\Temp\cclD56Oe.s 			page 83


 2581 00e6 16D0     		beq	.L167
 2582              	.L151:
 807:System/diskio/DiskIO.c ****         {
 2583              		.loc 1 807 59 is_stmt 1 discriminator 2 view .LVU728
 807:System/diskio/DiskIO.c ****         {
 2584              		.loc 1 807 60 is_stmt 0 discriminator 2 view .LVU729
 2585 00e8 0133     		adds	r3, r3, #1
 2586              	.LVL241:
 807:System/diskio/DiskIO.c ****         {
 2587              		.loc 1 807 60 discriminator 2 view .LVU730
 2588 00ea DBB2     		uxtb	r3, r3
 2589              	.LVL242:
 2590              	.L147:
 807:System/diskio/DiskIO.c ****         {
 2591              		.loc 1 807 29 is_stmt 1 discriminator 1 view .LVU731
 807:System/diskio/DiskIO.c ****         {
 2592              		.loc 1 807 9 is_stmt 0 discriminator 1 view .LVU732
 2593 00ec 072B     		cmp	r3, #7
 2594 00ee 15D8     		bhi	.L168
 809:System/diskio/DiskIO.c ****             {
 2595              		.loc 1 809 13 is_stmt 1 view .LVU733
 809:System/diskio/DiskIO.c ****             {
 2596              		.loc 1 809 16 is_stmt 0 view .LVU734
 2597 00f0 022B     		cmp	r3, #2
 2598 00f2 F0D8     		bhi	.L148
 811:System/diskio/DiskIO.c ****                 {
 2599              		.loc 1 811 17 is_stmt 1 view .LVU735
 811:System/diskio/DiskIO.c ****                 {
 2600              		.loc 1 811 20 is_stmt 0 view .LVU736
 2601 00f4 002C     		cmp	r4, #0
 2602 00f6 EED0     		beq	.L148
 813:System/diskio/DiskIO.c ****                         extend_char_Ucase++;
 2603              		.loc 1 813 21 is_stmt 1 view .LVU737
 813:System/diskio/DiskIO.c ****                         extend_char_Ucase++;
 2604              		.loc 1 813 25 is_stmt 0 view .LVU738
 2605 00f8 E15C     		ldrb	r1, [r4, r3]	@ zero_extendqisi2
 2606 00fa 164A     		ldr	r2, .L170+8
 2607 00fc 8A5C     		ldrb	r2, [r1, r2]	@ zero_extendqisi2
 2608 00fe 02F00302 		and	r2, r2, #3
 813:System/diskio/DiskIO.c ****                         extend_char_Ucase++;
 2609              		.loc 1 813 24 view .LVU739
 2610 0102 012A     		cmp	r2, #1
 2611 0104 E2D0     		beq	.L169
 2612              	.L149:
 816:System/diskio/DiskIO.c ****                         extend_char_Lcase++;
 2613              		.loc 1 816 21 is_stmt 1 view .LVU740
 816:System/diskio/DiskIO.c ****                         extend_char_Lcase++;
 2614              		.loc 1 816 24 is_stmt 0 view .LVU741
 2615 0106 022A     		cmp	r2, #2
 2616 0108 E5D1     		bne	.L148
 817:System/diskio/DiskIO.c ****                 }
 2617              		.loc 1 817 25 is_stmt 1 view .LVU742
 817:System/diskio/DiskIO.c ****                 }
 2618              		.loc 1 817 42 is_stmt 0 view .LVU743
 2619 010a 0137     		adds	r7, r7, #1
 2620              	.LVL243:
 817:System/diskio/DiskIO.c ****                 }
ARM GAS  C:\Users\huav\AppData\Local\Temp\cclD56Oe.s 			page 84


 2621              		.loc 1 817 42 view .LVU744
 2622 010c FFB2     		uxtb	r7, r7
 2623              	.LVL244:
 817:System/diskio/DiskIO.c ****                 }
 2624              		.loc 1 817 42 view .LVU745
 2625 010e E2E7     		b	.L148
 2626              	.L166:
 824:System/diskio/DiskIO.c **** 
 2627              		.loc 1 824 21 is_stmt 1 view .LVU746
 824:System/diskio/DiskIO.c **** 
 2628              		.loc 1 824 36 is_stmt 0 view .LVU747
 2629 0110 0136     		adds	r6, r6, #1
 2630              	.LVL245:
 824:System/diskio/DiskIO.c **** 
 2631              		.loc 1 824 36 view .LVU748
 2632 0112 F6B2     		uxtb	r6, r6
 2633              	.LVL246:
 824:System/diskio/DiskIO.c **** 
 2634              		.loc 1 824 36 view .LVU749
 2635 0114 E6E7     		b	.L150
 2636              	.L167:
 827:System/diskio/DiskIO.c ****             }
 2637              		.loc 1 827 21 is_stmt 1 view .LVU750
 827:System/diskio/DiskIO.c ****             }
 2638              		.loc 1 827 36 is_stmt 0 view .LVU751
 2639 0116 0130     		adds	r0, r0, #1
 2640              	.LVL247:
 827:System/diskio/DiskIO.c ****             }
 2641              		.loc 1 827 36 view .LVU752
 2642 0118 C0B2     		uxtb	r0, r0
 2643              	.LVL248:
 827:System/diskio/DiskIO.c ****             }
 2644              		.loc 1 827 36 view .LVU753
 2645 011a E5E7     		b	.L151
 2646              	.L168:
 827:System/diskio/DiskIO.c ****             }
 2647              		.loc 1 827 36 view .LVU754
 2648              	.LBE13:
 831:System/diskio/DiskIO.c ****             return true;
 2649              		.loc 1 831 9 is_stmt 1 view .LVU755
 831:System/diskio/DiskIO.c ****             return true;
 2650              		.loc 1 831 12 is_stmt 0 view .LVU756
 2651 011c 50EA0703 		orrs	r3, r0, r7
 2652              	.LVL249:
 831:System/diskio/DiskIO.c ****             return true;
 2653              		.loc 1 831 12 view .LVU757
 2654 0120 10D0     		beq	.L161
 831:System/diskio/DiskIO.c ****             return true;
 2655              		.loc 1 831 66 discriminator 1 view .LVU758
 2656 0122 56EA0C03 		orrs	r3, r6, ip
 2657 0126 0FD0     		beq	.L162
 835:System/diskio/DiskIO.c **** }
 2658              		.loc 1 835 12 view .LVU759
 2659 0128 0020     		movs	r0, #0
 2660              	.LVL250:
 835:System/diskio/DiskIO.c **** }
 2661              		.loc 1 835 12 view .LVU760
ARM GAS  C:\Users\huav\AppData\Local\Temp\cclD56Oe.s 			page 85


 2662 012a 80E7     		b	.L144
 2663              	.LVL251:
 2664              	.L153:
 771:System/diskio/DiskIO.c **** 
 2665              		.loc 1 771 16 view .LVU761
 2666 012c 0020     		movs	r0, #0
 2667 012e 7EE7     		b	.L144
 2668              	.LVL252:
 2669              	.L155:
 778:System/diskio/DiskIO.c **** 
 2670              		.loc 1 778 16 view .LVU762
 2671 0130 0020     		movs	r0, #0
 2672              	.LVL253:
 778:System/diskio/DiskIO.c **** 
 2673              		.loc 1 778 16 view .LVU763
 2674 0132 7CE7     		b	.L144
 2675              	.LVL254:
 2676              	.L156:
 835:System/diskio/DiskIO.c **** }
 2677              		.loc 1 835 12 view .LVU764
 2678 0134 0020     		movs	r0, #0
 2679 0136 7AE7     		b	.L144
 2680              	.L157:
 2681 0138 0020     		movs	r0, #0
 2682 013a 78E7     		b	.L144
 2683              	.LVL255:
 2684              	.L159:
 2685              	.LBB14:
 800:System/diskio/DiskIO.c **** 
 2686              		.loc 1 800 24 view .LVU765
 2687 013c 0020     		movs	r0, #0
 2688 013e 76E7     		b	.L144
 2689              	.L160:
 803:System/diskio/DiskIO.c ****         }
 2690              		.loc 1 803 24 view .LVU766
 2691 0140 0020     		movs	r0, #0
 2692 0142 74E7     		b	.L144
 2693              	.LVL256:
 2694              	.L161:
 803:System/diskio/DiskIO.c ****         }
 2695              		.loc 1 803 24 view .LVU767
 2696              	.LBE14:
 832:System/diskio/DiskIO.c ****     }
 2697              		.loc 1 832 20 view .LVU768
 2698 0144 0120     		movs	r0, #1
 2699              	.LVL257:
 832:System/diskio/DiskIO.c ****     }
 2700              		.loc 1 832 20 view .LVU769
 2701 0146 72E7     		b	.L144
 2702              	.LVL258:
 2703              	.L162:
 832:System/diskio/DiskIO.c ****     }
 2704              		.loc 1 832 20 view .LVU770
 2705 0148 0120     		movs	r0, #1
 2706              	.LVL259:
 832:System/diskio/DiskIO.c ****     }
 2707              		.loc 1 832 20 view .LVU771
ARM GAS  C:\Users\huav\AppData\Local\Temp\cclD56Oe.s 			page 86


 2708 014a 70E7     		b	.L144
 2709              	.L171:
 2710              		.align	2
 2711              	.L170:
 2712 014c 04000000 		.word	.LC6
 2713 0150 00000000 		.word	.LC7
 2714 0154 01000000 		.word	_ctype_+1
 2715              		.cfi_endproc
 2716              	.LFE163:
 2718              		.section	.text.Disk_Name_ConvertTo83Frame,"ax",%progbits
 2719              		.align	1
 2720              		.syntax unified
 2721              		.thumb
 2722              		.thumb_func
 2723              		.fpu fpv5-d16
 2725              	Disk_Name_ConvertTo83Frame:
 2726              	.LVL260:
 2727              	.LFB164:
 845:System/diskio/DiskIO.c ****     char *n_in_tmp = n_in;
 2728              		.loc 1 845 1 is_stmt 1 view -0
 2729              		.cfi_startproc
 2730              		@ args = 0, pretend = 0, frame = 16
 2731              		@ frame_needed = 0, uses_anonymous_args = 0
 845:System/diskio/DiskIO.c ****     char *n_in_tmp = n_in;
 2732              		.loc 1 845 1 is_stmt 0 view .LVU773
 2733 0000 2DE9F043 		push	{r4, r5, r6, r7, r8, r9, lr}
 2734              	.LCFI55:
 2735              		.cfi_def_cfa_offset 28
 2736              		.cfi_offset 4, -28
 2737              		.cfi_offset 5, -24
 2738              		.cfi_offset 6, -20
 2739              		.cfi_offset 7, -16
 2740              		.cfi_offset 8, -12
 2741              		.cfi_offset 9, -8
 2742              		.cfi_offset 14, -4
 2743 0004 85B0     		sub	sp, sp, #20
 2744              	.LCFI56:
 2745              		.cfi_def_cfa_offset 48
 846:System/diskio/DiskIO.c ****     char *file_name_tmp = NULL;
 2746              		.loc 1 846 5 is_stmt 1 view .LVU774
 2747              	.LVL261:
 847:System/diskio/DiskIO.c ****     char *ext_name_tmp = NULL;
 2748              		.loc 1 847 5 view .LVU775
 848:System/diskio/DiskIO.c ****     char file_name[8];
 2749              		.loc 1 848 5 view .LVU776
 849:System/diskio/DiskIO.c ****     char ext_file_name[3];
 2750              		.loc 1 849 5 view .LVU777
 850:System/diskio/DiskIO.c **** 
 2751              		.loc 1 850 5 view .LVU778
 852:System/diskio/DiskIO.c ****     memset(ext_file_name, NULL, sizeof(ext_file_name));
 2752              		.loc 1 852 5 view .LVU779
 2753 0006 0023     		movs	r3, #0
 2754 0008 0293     		str	r3, [sp, #8]
 2755 000a 0393     		str	r3, [sp, #12]
 853:System/diskio/DiskIO.c **** 
 2756              		.loc 1 853 5 view .LVU780
 2757 000c ADF80430 		strh	r3, [sp, #4]	@ movhi
ARM GAS  C:\Users\huav\AppData\Local\Temp\cclD56Oe.s 			page 87


 2758 0010 8DF80630 		strb	r3, [sp, #6]
 855:System/diskio/DiskIO.c ****         return false;
 2759              		.loc 1 855 5 view .LVU781
 855:System/diskio/DiskIO.c ****         return false;
 2760              		.loc 1 855 8 is_stmt 0 view .LVU782
 2761 0014 9942     		cmp	r1, r3
 2762 0016 18BF     		it	ne
 2763 0018 9842     		cmpne	r0, r3
 2764 001a 0CBF     		ite	eq
 2765 001c 0124     		moveq	r4, #1
 2766 001e 0024     		movne	r4, #0
 2767 0020 04D1     		bne	.L190
 2768              	.LVL262:
 2769              	.L173:
 856:System/diskio/DiskIO.c **** 
 2770              		.loc 1 856 9 is_stmt 1 view .LVU783
 856:System/diskio/DiskIO.c **** 
 2771              		.loc 1 856 16 is_stmt 0 view .LVU784
 2772 0022 0026     		movs	r6, #0
 2773              	.LVL263:
 2774              	.L175:
 898:System/diskio/DiskIO.c **** 
 2775              		.loc 1 898 1 view .LVU785
 2776 0024 3046     		mov	r0, r6
 2777 0026 05B0     		add	sp, sp, #20
 2778              	.LCFI57:
 2779              		.cfi_remember_state
 2780              		.cfi_def_cfa_offset 28
 2781              		@ sp needed
 2782 0028 BDE8F083 		pop	{r4, r5, r6, r7, r8, r9, pc}
 2783              	.LVL264:
 2784              	.L190:
 2785              	.LCFI58:
 2786              		.cfi_restore_state
 898:System/diskio/DiskIO.c **** 
 2787              		.loc 1 898 1 view .LVU786
 2788 002c 0746     		mov	r7, r0
 2789 002e 0D46     		mov	r5, r1
 855:System/diskio/DiskIO.c ****         return false;
 2790              		.loc 1 855 51 discriminator 1 view .LVU787
 2791 0030 FFF7FEFF 		bl	Disk_SFN_LegallyCheck
 2792              	.LVL265:
 855:System/diskio/DiskIO.c ****         return false;
 2793              		.loc 1 855 47 discriminator 1 view .LVU788
 2794 0034 0646     		mov	r6, r0
 2795 0036 0028     		cmp	r0, #0
 2796 0038 F3D0     		beq	.L173
 858:System/diskio/DiskIO.c ****     ext_name_tmp = strtok(NULL, SFN_EXTEND_SPLIT_SYMBOL);
 2797              		.loc 1 858 5 is_stmt 1 view .LVU789
 858:System/diskio/DiskIO.c ****     ext_name_tmp = strtok(NULL, SFN_EXTEND_SPLIT_SYMBOL);
 2798              		.loc 1 858 21 is_stmt 0 view .LVU790
 2799 003a DFF8B490 		ldr	r9, .L194+4
 2800 003e 4946     		mov	r1, r9
 2801 0040 3846     		mov	r0, r7
 2802 0042 FFF7FEFF 		bl	strtok
 2803              	.LVL266:
 2804 0046 8046     		mov	r8, r0
ARM GAS  C:\Users\huav\AppData\Local\Temp\cclD56Oe.s 			page 88


 2805              	.LVL267:
 859:System/diskio/DiskIO.c **** 
 2806              		.loc 1 859 5 is_stmt 1 view .LVU791
 859:System/diskio/DiskIO.c **** 
 2807              		.loc 1 859 20 is_stmt 0 view .LVU792
 2808 0048 4946     		mov	r1, r9
 2809 004a 0020     		movs	r0, #0
 2810              	.LVL268:
 859:System/diskio/DiskIO.c **** 
 2811              		.loc 1 859 20 view .LVU793
 2812 004c FFF7FEFF 		bl	strtok
 2813              	.LVL269:
 2814 0050 0746     		mov	r7, r0
 2815              	.LVL270:
 861:System/diskio/DiskIO.c ****         return false;
 2816              		.loc 1 861 5 is_stmt 1 view .LVU794
 861:System/diskio/DiskIO.c ****         return false;
 2817              		.loc 1 861 8 is_stmt 0 view .LVU795
 2818 0052 B8F1000F 		cmp	r8, #0
 2819 0056 47D0     		beq	.L188
 2820              	.LBB15:
 864:System/diskio/DiskIO.c ****     {
 2821              		.loc 1 864 18 view .LVU796
 2822 0058 0024     		movs	r4, #0
 2823 005a 06E0     		b	.L176
 2824              	.LVL271:
 2825              	.L192:
 2826              	.LBB16:
 870:System/diskio/DiskIO.c ****             }
 2827              		.loc 1 870 32 discriminator 1 view .LVU797
 2828 005c 203B     		subs	r3, r3, #32
 2829              	.LVL272:
 2830              	.L179:
 870:System/diskio/DiskIO.c ****             }
 2831              		.loc 1 870 32 discriminator 1 view .LVU798
 2832              	.LBE16:
 870:System/diskio/DiskIO.c ****             }
 2833              		.loc 1 870 30 discriminator 4 view .LVU799
 2834 005e 04AA     		add	r2, sp, #16
 2835 0060 2244     		add	r2, r2, r4
 2836 0062 02F8083C 		strb	r3, [r2, #-8]
 2837              	.LVL273:
 2838              	.L180:
 864:System/diskio/DiskIO.c ****     {
 2839              		.loc 1 864 48 is_stmt 1 discriminator 2 view .LVU800
 864:System/diskio/DiskIO.c ****     {
 2840              		.loc 1 864 49 is_stmt 0 discriminator 2 view .LVU801
 2841 0066 0134     		adds	r4, r4, #1
 2842              	.LVL274:
 864:System/diskio/DiskIO.c ****     {
 2843              		.loc 1 864 49 discriminator 2 view .LVU802
 2844 0068 E4B2     		uxtb	r4, r4
 2845              	.LVL275:
 2846              	.L176:
 864:System/diskio/DiskIO.c ****     {
 2847              		.loc 1 864 25 is_stmt 1 discriminator 1 view .LVU803
 864:System/diskio/DiskIO.c ****     {
ARM GAS  C:\Users\huav\AppData\Local\Temp\cclD56Oe.s 			page 89


 2848              		.loc 1 864 5 is_stmt 0 discriminator 1 view .LVU804
 2849 006a 072C     		cmp	r4, #7
 2850 006c 13D8     		bhi	.L191
 866:System/diskio/DiskIO.c ****         {
 2851              		.loc 1 866 9 is_stmt 1 view .LVU805
 866:System/diskio/DiskIO.c ****         {
 2852              		.loc 1 866 17 is_stmt 0 view .LVU806
 2853 006e 4046     		mov	r0, r8
 2854 0070 FFF7FEFF 		bl	strlen
 2855              	.LVL276:
 866:System/diskio/DiskIO.c ****         {
 2856              		.loc 1 866 12 view .LVU807
 2857 0074 8442     		cmp	r4, r0
 2858 0076 08D2     		bcs	.L177
 868:System/diskio/DiskIO.c ****             {
 2859              		.loc 1 868 13 is_stmt 1 view .LVU808
 870:System/diskio/DiskIO.c ****             }
 2860              		.loc 1 870 17 view .LVU809
 2861              	.LBB17:
 870:System/diskio/DiskIO.c ****             }
 2862              		.loc 1 870 32 view .LVU810
 2863 0078 18F80430 		ldrb	r3, [r8, r4]	@ zero_extendqisi2
 2864              	.LVL277:
 870:System/diskio/DiskIO.c ****             }
 2865              		.loc 1 870 32 view .LVU811
 2866 007c 1B4A     		ldr	r2, .L194
 2867 007e 9A5C     		ldrb	r2, [r3, r2]	@ zero_extendqisi2
 2868 0080 02F00302 		and	r2, r2, #3
 2869 0084 022A     		cmp	r2, #2
 2870 0086 EAD1     		bne	.L179
 2871 0088 E8E7     		b	.L192
 2872              	.LVL278:
 2873              	.L177:
 870:System/diskio/DiskIO.c ****             }
 2874              		.loc 1 870 32 is_stmt 0 view .LVU812
 2875              	.LBE17:
 876:System/diskio/DiskIO.c ****     }
 2876              		.loc 1 876 13 is_stmt 1 view .LVU813
 876:System/diskio/DiskIO.c ****     }
 2877              		.loc 1 876 26 is_stmt 0 view .LVU814
 2878 008a 2022     		movs	r2, #32
 2879 008c 04AB     		add	r3, sp, #16
 2880 008e 2344     		add	r3, r3, r4
 2881 0090 03F8082C 		strb	r2, [r3, #-8]
 2882 0094 E7E7     		b	.L180
 2883              	.L191:
 876:System/diskio/DiskIO.c ****     }
 2884              		.loc 1 876 26 view .LVU815
 2885              	.LBE15:
 2886              	.LBB18:
 879:System/diskio/DiskIO.c ****     {
 2887              		.loc 1 879 18 view .LVU816
 2888 0096 0024     		movs	r4, #0
 2889              	.LVL279:
 879:System/diskio/DiskIO.c ****     {
 2890              		.loc 1 879 18 view .LVU817
 2891 0098 05E0     		b	.L182
ARM GAS  C:\Users\huav\AppData\Local\Temp\cclD56Oe.s 			page 90


 2892              	.LVL280:
 2893              	.L185:
 885:System/diskio/DiskIO.c ****             }
 2894              		.loc 1 885 34 discriminator 4 view .LVU818
 2895 009a 04AA     		add	r2, sp, #16
 2896 009c 2244     		add	r2, r2, r4
 2897 009e 02F80C3C 		strb	r3, [r2, #-12]
 2898              	.LVL281:
 2899              	.L186:
 879:System/diskio/DiskIO.c ****     {
 2900              		.loc 1 879 52 is_stmt 1 discriminator 2 view .LVU819
 879:System/diskio/DiskIO.c ****     {
 2901              		.loc 1 879 53 is_stmt 0 discriminator 2 view .LVU820
 2902 00a2 0134     		adds	r4, r4, #1
 2903              	.LVL282:
 879:System/diskio/DiskIO.c ****     {
 2904              		.loc 1 879 53 discriminator 2 view .LVU821
 2905 00a4 E4B2     		uxtb	r4, r4
 2906              	.LVL283:
 2907              	.L182:
 879:System/diskio/DiskIO.c ****     {
 2908              		.loc 1 879 25 is_stmt 1 discriminator 1 view .LVU822
 879:System/diskio/DiskIO.c ****     {
 2909              		.loc 1 879 5 is_stmt 0 discriminator 1 view .LVU823
 2910 00a6 022C     		cmp	r4, #2
 2911 00a8 13D8     		bhi	.L193
 881:System/diskio/DiskIO.c ****         {
 2912              		.loc 1 881 9 is_stmt 1 view .LVU824
 881:System/diskio/DiskIO.c ****         {
 2913              		.loc 1 881 17 is_stmt 0 view .LVU825
 2914 00aa 3846     		mov	r0, r7
 2915 00ac FFF7FEFF 		bl	strlen
 2916              	.LVL284:
 881:System/diskio/DiskIO.c ****         {
 2917              		.loc 1 881 12 view .LVU826
 2918 00b0 8442     		cmp	r4, r0
 2919 00b2 08D2     		bcs	.L183
 883:System/diskio/DiskIO.c ****             {
 2920              		.loc 1 883 13 is_stmt 1 view .LVU827
 885:System/diskio/DiskIO.c ****             }
 2921              		.loc 1 885 17 view .LVU828
 2922              	.LBB19:
 885:System/diskio/DiskIO.c ****             }
 2923              		.loc 1 885 36 view .LVU829
 2924 00b4 3B5D     		ldrb	r3, [r7, r4]	@ zero_extendqisi2
 2925              	.LVL285:
 885:System/diskio/DiskIO.c ****             }
 2926              		.loc 1 885 36 view .LVU830
 2927 00b6 0D4A     		ldr	r2, .L194
 2928 00b8 9A5C     		ldrb	r2, [r3, r2]	@ zero_extendqisi2
 2929 00ba 02F00302 		and	r2, r2, #3
 2930 00be 022A     		cmp	r2, #2
 2931 00c0 EBD1     		bne	.L185
 885:System/diskio/DiskIO.c ****             }
 2932              		.loc 1 885 36 is_stmt 0 discriminator 1 view .LVU831
 2933 00c2 203B     		subs	r3, r3, #32
 2934              	.LVL286:
ARM GAS  C:\Users\huav\AppData\Local\Temp\cclD56Oe.s 			page 91


 885:System/diskio/DiskIO.c ****             }
 2935              		.loc 1 885 36 discriminator 1 view .LVU832
 2936 00c4 E9E7     		b	.L185
 2937              	.LVL287:
 2938              	.L183:
 885:System/diskio/DiskIO.c ****             }
 2939              		.loc 1 885 36 discriminator 1 view .LVU833
 2940              	.LBE19:
 891:System/diskio/DiskIO.c ****     }
 2941              		.loc 1 891 13 is_stmt 1 view .LVU834
 891:System/diskio/DiskIO.c ****     }
 2942              		.loc 1 891 30 is_stmt 0 view .LVU835
 2943 00c6 2022     		movs	r2, #32
 2944 00c8 04AB     		add	r3, sp, #16
 2945 00ca 2344     		add	r3, r3, r4
 2946 00cc 03F80C2C 		strb	r2, [r3, #-12]
 2947 00d0 E7E7     		b	.L186
 2948              	.L193:
 891:System/diskio/DiskIO.c ****     }
 2949              		.loc 1 891 30 view .LVU836
 2950              	.LBE18:
 894:System/diskio/DiskIO.c ****     memcpy(n_out + sizeof(file_name), ext_file_name, sizeof(ext_file_name));
 2951              		.loc 1 894 5 is_stmt 1 view .LVU837
 2952 00d2 02AB     		add	r3, sp, #8
 2953 00d4 03CB     		ldmia	r3!, {r0, r1}
 2954 00d6 2860     		str	r0, [r5]	@ unaligned
 2955 00d8 6960     		str	r1, [r5, #4]	@ unaligned
 895:System/diskio/DiskIO.c **** 
 2956              		.loc 1 895 5 view .LVU838
 2957 00da BDF80420 		ldrh	r2, [sp, #4]	@ unaligned
 2958 00de 9DF80630 		ldrb	r3, [sp, #6]	@ zero_extendqisi2
 2959 00e2 2A81     		strh	r2, [r5, #8]	@ unaligned
 2960 00e4 AB72     		strb	r3, [r5, #10]
 897:System/diskio/DiskIO.c **** }
 2961              		.loc 1 897 5 view .LVU839
 897:System/diskio/DiskIO.c **** }
 2962              		.loc 1 897 12 is_stmt 0 view .LVU840
 2963 00e6 9DE7     		b	.L175
 2964              	.LVL288:
 2965              	.L188:
 862:System/diskio/DiskIO.c **** 
 2966              		.loc 1 862 16 view .LVU841
 2967 00e8 2646     		mov	r6, r4
 2968 00ea 9BE7     		b	.L175
 2969              	.L195:
 2970              		.align	2
 2971              	.L194:
 2972 00ec 01000000 		.word	_ctype_+1
 2973 00f0 00000000 		.word	.LC7
 2974              		.cfi_endproc
 2975              	.LFE164:
 2977              		.section	.text.Disk_Fill_Attr,"ax",%progbits
 2978              		.align	1
 2979              		.syntax unified
 2980              		.thumb
 2981              		.thumb_func
 2982              		.fpu fpv5-d16
ARM GAS  C:\Users\huav\AppData\Local\Temp\cclD56Oe.s 			page 92


 2984              	Disk_Fill_Attr:
 2985              	.LVL289:
 2986              	.LFB165:
 901:System/diskio/DiskIO.c ****     char Name_Frame83[11];
 2987              		.loc 1 901 1 is_stmt 1 view -0
 2988              		.cfi_startproc
 2989              		@ args = 0, pretend = 0, frame = 16
 2990              		@ frame_needed = 0, uses_anonymous_args = 0
 901:System/diskio/DiskIO.c ****     char Name_Frame83[11];
 2991              		.loc 1 901 1 is_stmt 0 view .LVU843
 2992 0000 2DE9F041 		push	{r4, r5, r6, r7, r8, lr}
 2993              	.LCFI59:
 2994              		.cfi_def_cfa_offset 24
 2995              		.cfi_offset 4, -24
 2996              		.cfi_offset 5, -20
 2997              		.cfi_offset 6, -16
 2998              		.cfi_offset 7, -12
 2999              		.cfi_offset 8, -8
 3000              		.cfi_offset 14, -4
 3001 0004 84B0     		sub	sp, sp, #16
 3002              	.LCFI60:
 3003              		.cfi_def_cfa_offset 40
 902:System/diskio/DiskIO.c ****     uint16_t half_cluster = 0;
 3004              		.loc 1 902 5 is_stmt 1 view .LVU844
 903:System/diskio/DiskIO.c **** 
 3005              		.loc 1 903 5 view .LVU845
 3006              	.LVL290:
 906:System/diskio/DiskIO.c ****         /* file type check */
 3007              		.loc 1 906 5 view .LVU846
 906:System/diskio/DiskIO.c ****         /* file type check */
 3008              		.loc 1 906 8 is_stmt 0 view .LVU847
 3009 0006 002A     		cmp	r2, #0
 3010 0008 18BF     		it	ne
 3011 000a 0028     		cmpne	r0, #0
 3012 000c 07D0     		beq	.L197
 3013 000e 0C46     		mov	r4, r1
 3014 0010 1E46     		mov	r6, r3
 3015 0012 0746     		mov	r7, r0
 3016 0014 1546     		mov	r5, r2
 908:System/diskio/DiskIO.c ****         /* name legally check */
 3017              		.loc 1 908 37 view .LVU848
 3018 0016 4B1E     		subs	r3, r1, #1
 3019              	.LVL291:
 908:System/diskio/DiskIO.c ****         /* name legally check */
 3020              		.loc 1 908 37 view .LVU849
 3021 0018 DBB2     		uxtb	r3, r3
 3022 001a 012B     		cmp	r3, #1
 3023 001c 05D9     		bls	.L203
 3024              	.LVL292:
 3025              	.L197:
 911:System/diskio/DiskIO.c **** 
 3026              		.loc 1 911 9 is_stmt 1 view .LVU850
 911:System/diskio/DiskIO.c **** 
 3027              		.loc 1 911 16 is_stmt 0 view .LVU851
 3028 001e 4FF00008 		mov	r8, #0
 3029              	.LVL293:
 3030              	.L199:
ARM GAS  C:\Users\huav\AppData\Local\Temp\cclD56Oe.s 			page 93


 957:System/diskio/DiskIO.c **** 
 3031              		.loc 1 957 1 view .LVU852
 3032 0022 4046     		mov	r0, r8
 3033 0024 04B0     		add	sp, sp, #16
 3034              	.LCFI61:
 3035              		.cfi_remember_state
 3036              		.cfi_def_cfa_offset 24
 3037              		@ sp needed
 3038 0026 BDE8F081 		pop	{r4, r5, r6, r7, r8, pc}
 3039              	.LVL294:
 3040              	.L203:
 3041              	.LCFI62:
 3042              		.cfi_restore_state
 910:System/diskio/DiskIO.c ****         return false;
 3043              		.loc 1 910 10 discriminator 1 view .LVU853
 3044 002a FFF7FEFF 		bl	Disk_SFN_LegallyCheck
 3045              	.LVL295:
 908:System/diskio/DiskIO.c ****         /* name legally check */
 3046              		.loc 1 908 70 discriminator 1 view .LVU854
 3047 002e 8046     		mov	r8, r0
 3048 0030 0028     		cmp	r0, #0
 3049 0032 F4D0     		beq	.L197
 913:System/diskio/DiskIO.c **** 
 3050              		.loc 1 913 5 is_stmt 1 view .LVU855
 3051 0034 0023     		movs	r3, #0
 3052 0036 0193     		str	r3, [sp, #4]
 3053 0038 0293     		str	r3, [sp, #8]
 3054 003a CDF80B30 		str	r3, [sp, #11]	@ unaligned
 915:System/diskio/DiskIO.c ****     memcpy(Attr_Out->name, Name_Frame83, sizeof(Name_Frame83));
 3055              		.loc 1 915 5 view .LVU856
 3056 003e 01A9     		add	r1, sp, #4
 3057 0040 3846     		mov	r0, r7
 3058 0042 FFF7FEFF 		bl	Disk_Name_ConvertTo83Frame
 3059              	.LVL296:
 916:System/diskio/DiskIO.c **** 
 3060              		.loc 1 916 5 view .LVU857
 3061 0046 01AB     		add	r3, sp, #4
 3062 0048 03CB     		ldmia	r3!, {r0, r1}
 3063 004a 2860     		str	r0, [r5]	@ unaligned
 3064 004c 6960     		str	r1, [r5, #4]	@ unaligned
 3065 004e 1A88     		ldrh	r2, [r3]	@ unaligned
 3066 0050 9B78     		ldrb	r3, [r3, #2]	@ zero_extendqisi2
 3067 0052 2A81     		strh	r2, [r5, #8]	@ unaligned
 3068 0054 AB72     		strb	r3, [r5, #10]
 918:System/diskio/DiskIO.c ****     {
 3069              		.loc 1 918 5 view .LVU858
 918:System/diskio/DiskIO.c ****     {
 3070              		.loc 1 918 8 is_stmt 0 view .LVU859
 3071 0056 022C     		cmp	r4, #2
 3072 0058 13D0     		beq	.L204
 933:System/diskio/DiskIO.c **** 
 3073              		.loc 1 933 9 is_stmt 1 view .LVU860
 933:System/diskio/DiskIO.c **** 
 3074              		.loc 1 933 24 is_stmt 0 view .LVU861
 3075 005a 2023     		movs	r3, #32
 3076 005c EB72     		strb	r3, [r5, #11]
 3077              	.LVL297:
ARM GAS  C:\Users\huav\AppData\Local\Temp\cclD56Oe.s 			page 94


 3078              	.L201:
 935:System/diskio/DiskIO.c ****     uint16_t t_time = GEN_TIME(DISK_FILE_DEFAULT_HOUR, DISK_FILE_DEFAULT_MIN, DISK_FILE_DEFAULT_SEC
 3079              		.loc 1 935 5 is_stmt 1 view .LVU862
 936:System/diskio/DiskIO.c **** 
 3080              		.loc 1 936 5 view .LVU863
 938:System/diskio/DiskIO.c **** 
 3081              		.loc 1 938 5 view .LVU864
 938:System/diskio/DiskIO.c **** 
 3082              		.loc 1 938 24 is_stmt 0 view .LVU865
 3083 005e 0022     		movs	r2, #0
 3084 0060 6A73     		strb	r2, [r5, #13]
 940:System/diskio/DiskIO.c ****     Attr_Out->CreateDate[1] = (uint8_t)(t_date >> 8);
 3085              		.loc 1 940 5 is_stmt 1 view .LVU866
 940:System/diskio/DiskIO.c ****     Attr_Out->CreateDate[1] = (uint8_t)(t_date >> 8);
 3086              		.loc 1 940 29 is_stmt 0 view .LVU867
 3087 0062 FE23     		movs	r3, #254
 3088 0064 2B74     		strb	r3, [r5, #16]
 941:System/diskio/DiskIO.c **** 
 3089              		.loc 1 941 5 is_stmt 1 view .LVU868
 941:System/diskio/DiskIO.c **** 
 3090              		.loc 1 941 29 is_stmt 0 view .LVU869
 3091 0066 5420     		movs	r0, #84
 3092 0068 6874     		strb	r0, [r5, #17]
 943:System/diskio/DiskIO.c ****     Attr_Out->CreateTime[1] = (uint8_t)(t_time >> 8);
 3093              		.loc 1 943 5 is_stmt 1 view .LVU870
 943:System/diskio/DiskIO.c ****     Attr_Out->CreateTime[1] = (uint8_t)(t_time >> 8);
 3094              		.loc 1 943 29 is_stmt 0 view .LVU871
 3095 006a E021     		movs	r1, #224
 3096 006c A973     		strb	r1, [r5, #14]
 944:System/diskio/DiskIO.c **** 
 3097              		.loc 1 944 5 is_stmt 1 view .LVU872
 944:System/diskio/DiskIO.c **** 
 3098              		.loc 1 944 29 is_stmt 0 view .LVU873
 3099 006e 4A21     		movs	r1, #74
 3100 0070 E973     		strb	r1, [r5, #15]
 946:System/diskio/DiskIO.c ****     Attr_Out->ModifyDate[1] = (uint8_t)(t_date >> 8);
 3101              		.loc 1 946 5 is_stmt 1 view .LVU874
 946:System/diskio/DiskIO.c ****     Attr_Out->ModifyDate[1] = (uint8_t)(t_date >> 8);
 3102              		.loc 1 946 29 is_stmt 0 view .LVU875
 3103 0072 2B76     		strb	r3, [r5, #24]
 947:System/diskio/DiskIO.c **** 
 3104              		.loc 1 947 5 is_stmt 1 view .LVU876
 947:System/diskio/DiskIO.c **** 
 3105              		.loc 1 947 29 is_stmt 0 view .LVU877
 3106 0074 6876     		strb	r0, [r5, #25]
 949:System/diskio/DiskIO.c ****     Attr_Out->ModifyTime[1] = (uint8_t)(t_time >> 8);
 3107              		.loc 1 949 5 is_stmt 1 view .LVU878
 949:System/diskio/DiskIO.c ****     Attr_Out->ModifyTime[1] = (uint8_t)(t_time >> 8);
 3108              		.loc 1 949 29 is_stmt 0 view .LVU879
 3109 0076 AB75     		strb	r3, [r5, #22]
 950:System/diskio/DiskIO.c **** 
 3110              		.loc 1 950 5 is_stmt 1 view .LVU880
 950:System/diskio/DiskIO.c **** 
 3111              		.loc 1 950 29 is_stmt 0 view .LVU881
 3112 0078 E975     		strb	r1, [r5, #23]
 952:System/diskio/DiskIO.c **** 
 3113              		.loc 1 952 5 is_stmt 1 view .LVU882
ARM GAS  C:\Users\huav\AppData\Local\Temp\cclD56Oe.s 			page 95


 952:System/diskio/DiskIO.c **** 
 3114              		.loc 1 952 25 is_stmt 0 view .LVU883
 3115 007a 1823     		movs	r3, #24
 3116 007c 2B73     		strb	r3, [r5, #12]
 954:System/diskio/DiskIO.c **** 
 3117              		.loc 1 954 5 is_stmt 1 view .LVU884
 3118 007e EA61     		str	r2, [r5, #28]	@ unaligned
 956:System/diskio/DiskIO.c **** }
 3119              		.loc 1 956 5 view .LVU885
 956:System/diskio/DiskIO.c **** }
 3120              		.loc 1 956 12 is_stmt 0 view .LVU886
 3121 0080 CFE7     		b	.L199
 3122              	.LVL298:
 3123              	.L204:
 920:System/diskio/DiskIO.c **** 
 3124              		.loc 1 920 9 is_stmt 1 view .LVU887
 920:System/diskio/DiskIO.c **** 
 3125              		.loc 1 920 24 is_stmt 0 view .LVU888
 3126 0082 3023     		movs	r3, #48
 3127 0084 EB72     		strb	r3, [r5, #11]
 923:System/diskio/DiskIO.c ****         half_cluster >>= 16;
 3128              		.loc 1 923 9 is_stmt 1 view .LVU889
 924:System/diskio/DiskIO.c ****         Attr_Out->HighCluster[0] = half_cluster;
 3129              		.loc 1 924 9 view .LVU890
 925:System/diskio/DiskIO.c ****         Attr_Out->HighCluster[1] = half_cluster >> 8;
 3130              		.loc 1 925 9 view .LVU891
 925:System/diskio/DiskIO.c ****         Attr_Out->HighCluster[1] = half_cluster >> 8;
 3131              		.loc 1 925 34 is_stmt 0 view .LVU892
 3132 0086 0023     		movs	r3, #0
 3133 0088 2B75     		strb	r3, [r5, #20]
 926:System/diskio/DiskIO.c **** 
 3134              		.loc 1 926 9 is_stmt 1 view .LVU893
 926:System/diskio/DiskIO.c **** 
 3135              		.loc 1 926 34 is_stmt 0 view .LVU894
 3136 008a 6B75     		strb	r3, [r5, #21]
 928:System/diskio/DiskIO.c ****         Attr_Out->LowCluster[0] = half_cluster;
 3137              		.loc 1 928 9 is_stmt 1 view .LVU895
 3138              	.LVL299:
 929:System/diskio/DiskIO.c ****         Attr_Out->LowCluster[1] = half_cluster >> 8;
 3139              		.loc 1 929 9 view .LVU896
 929:System/diskio/DiskIO.c ****         Attr_Out->LowCluster[1] = half_cluster >> 8;
 3140              		.loc 1 929 33 is_stmt 0 view .LVU897
 3141 008c AE76     		strb	r6, [r5, #26]
 930:System/diskio/DiskIO.c ****     }
 3142              		.loc 1 930 9 is_stmt 1 view .LVU898
 930:System/diskio/DiskIO.c ****     }
 3143              		.loc 1 930 33 is_stmt 0 view .LVU899
 3144 008e C6F30726 		ubfx	r6, r6, #8, #8
 3145              	.LVL300:
 930:System/diskio/DiskIO.c ****     }
 3146              		.loc 1 930 33 view .LVU900
 3147 0092 EE76     		strb	r6, [r5, #27]
 3148 0094 E3E7     		b	.L201
 3149              		.cfi_endproc
 3150              	.LFE165:
 3152              		.section	.text.Disk_Establish_ClusterLink,"ax",%progbits
 3153              		.align	1
ARM GAS  C:\Users\huav\AppData\Local\Temp\cclD56Oe.s 			page 96


 3154              		.syntax unified
 3155              		.thumb
 3156              		.thumb_func
 3157              		.fpu fpv5-d16
 3159              	Disk_Establish_ClusterLink:
 3160              	.LVL301:
 3161              	.LFB166:
 960:System/diskio/DiskIO.c ****     uint32_t sec_index = 0;
 3162              		.loc 1 960 1 is_stmt 1 view -0
 3163              		.cfi_startproc
 3164              		@ args = 0, pretend = 0, frame = 0
 3165              		@ frame_needed = 0, uses_anonymous_args = 0
 960:System/diskio/DiskIO.c ****     uint32_t sec_index = 0;
 3166              		.loc 1 960 1 is_stmt 0 view .LVU902
 3167 0000 2DE9F04F 		push	{r4, r5, r6, r7, r8, r9, r10, fp, lr}
 3168              	.LCFI63:
 3169              		.cfi_def_cfa_offset 36
 3170              		.cfi_offset 4, -36
 3171              		.cfi_offset 5, -32
 3172              		.cfi_offset 6, -28
 3173              		.cfi_offset 7, -24
 3174              		.cfi_offset 8, -20
 3175              		.cfi_offset 9, -16
 3176              		.cfi_offset 10, -12
 3177              		.cfi_offset 11, -8
 3178              		.cfi_offset 14, -4
 3179 0004 83B0     		sub	sp, sp, #12
 3180              	.LCFI64:
 3181              		.cfi_def_cfa_offset 48
 961:System/diskio/DiskIO.c ****     uint32_t sec_item_index = 0;
 3182              		.loc 1 961 5 is_stmt 1 view .LVU903
 3183              	.LVL302:
 962:System/diskio/DiskIO.c ****     uint32_t *Data_Ptr = NULL;
 3184              		.loc 1 962 5 view .LVU904
 963:System/diskio/DiskIO.c **** 
 3185              		.loc 1 963 5 view .LVU905
 966:System/diskio/DiskIO.c ****         return false;
 3186              		.loc 1 966 5 view .LVU906
 966:System/diskio/DiskIO.c ****         return false;
 3187              		.loc 1 966 17 is_stmt 0 view .LVU907
 3188 0006 8346     		mov	fp, r0
 966:System/diskio/DiskIO.c ****         return false;
 3189              		.loc 1 966 8 view .LVU908
 3190 0008 0028     		cmp	r0, #0
 3191 000a 18BF     		it	ne
 3192 000c 0129     		cmpne	r1, #1
 3193 000e 94BF     		ite	ls
 3194 0010 0120     		movls	r0, #1
 3195              	.LVL303:
 966:System/diskio/DiskIO.c ****         return false;
 3196              		.loc 1 966 8 view .LVU909
 3197 0012 0020     		movhi	r0, #0
 3198 0014 45D9     		bls	.L207
 3199 0016 1546     		mov	r5, r2
 966:System/diskio/DiskIO.c ****         return false;
 3200              		.loc 1 966 47 discriminator 1 view .LVU910
 3201 0018 012A     		cmp	r2, #1
ARM GAS  C:\Users\huav\AppData\Local\Temp\cclD56Oe.s 			page 97


 3202 001a 3FD9     		bls	.L206
 969:System/diskio/DiskIO.c ****     sec_item_index = (cur_cluster * sizeof(FATCluster_Addr)) % FATObj->BytePerSection;
 3203              		.loc 1 969 5 is_stmt 1 view .LVU911
 969:System/diskio/DiskIO.c ****     sec_item_index = (cur_cluster * sizeof(FATCluster_Addr)) % FATObj->BytePerSection;
 3204              		.loc 1 969 23 is_stmt 0 view .LVU912
 3205 001c DBF8AFA0 		ldr	r10, [fp, #175]	@ unaligned
 969:System/diskio/DiskIO.c ****     sec_item_index = (cur_cluster * sizeof(FATCluster_Addr)) % FATObj->BytePerSection;
 3206              		.loc 1 969 54 view .LVU913
 3207 0020 4FEA8109 		lsl	r9, r1, #2
 969:System/diskio/DiskIO.c ****     sec_item_index = (cur_cluster * sizeof(FATCluster_Addr)) % FATObj->BytePerSection;
 3208              		.loc 1 969 89 view .LVU914
 3209 0024 DBF8A330 		ldr	r3, [fp, #163]	@ unaligned
 969:System/diskio/DiskIO.c ****     sec_item_index = (cur_cluster * sizeof(FATCluster_Addr)) % FATObj->BytePerSection;
 3210              		.loc 1 969 81 view .LVU915
 3211 0028 B9FBF3F1 		udiv	r1, r9, r3
 3212              	.LVL304:
 969:System/diskio/DiskIO.c ****     sec_item_index = (cur_cluster * sizeof(FATCluster_Addr)) % FATObj->BytePerSection;
 3213              		.loc 1 969 15 view .LVU916
 3214 002c 8A44     		add	r10, r10, r1
 3215              	.LVL305:
 970:System/diskio/DiskIO.c **** 
 3216              		.loc 1 970 5 is_stmt 1 view .LVU917
 970:System/diskio/DiskIO.c **** 
 3217              		.loc 1 970 20 is_stmt 0 view .LVU918
 3218 002e 03FB1199 		mls	r9, r3, r1, r9
 3219              	.LVL306:
 972:System/diskio/DiskIO.c **** 
 3220              		.loc 1 972 5 is_stmt 1 view .LVU919
 972:System/diskio/DiskIO.c **** 
 3221              		.loc 1 972 12 is_stmt 0 view .LVU920
 3222 0032 DFF87C80 		ldr	r8, .L209+8
 972:System/diskio/DiskIO.c **** 
 3223              		.loc 1 972 5 view .LVU921
 3224 0036 1C4E     		ldr	r6, .L209
 3225 0038 0124     		movs	r4, #1
 3226 003a 0094     		str	r4, [sp]
 3227 003c 4FF40073 		mov	r3, #512
 3228 0040 3246     		mov	r2, r6
 3229              	.LVL307:
 972:System/diskio/DiskIO.c **** 
 3230              		.loc 1 972 5 view .LVU922
 3231 0042 5146     		mov	r1, r10
 3232 0044 1948     		ldr	r0, .L209+4
 3233 0046 D8F81470 		ldr	r7, [r8, #20]
 3234 004a B847     		blx	r7
 3235              	.LVL308:
 974:System/diskio/DiskIO.c ****     LEndianWord2BytesArray(nxt_cluster, Data_Ptr);
 3236              		.loc 1 974 5 is_stmt 1 view .LVU923
 974:System/diskio/DiskIO.c ****     LEndianWord2BytesArray(nxt_cluster, Data_Ptr);
 3237              		.loc 1 974 14 is_stmt 0 view .LVU924
 3238 004c B144     		add	r9, r9, r6
 3239              	.LVL309:
 975:System/diskio/DiskIO.c **** 
 3240              		.loc 1 975 5 is_stmt 1 view .LVU925
 3241 004e 4946     		mov	r1, r9
 3242 0050 2846     		mov	r0, r5
 3243 0052 FFF7FEFF 		bl	LEndianWord2BytesArray
ARM GAS  C:\Users\huav\AppData\Local\Temp\cclD56Oe.s 			page 98


 3244              	.LVL310:
 978:System/diskio/DiskIO.c **** 
 3245              		.loc 1 978 5 view .LVU926
 3246 0056 0094     		str	r4, [sp]
 3247 0058 4FF40073 		mov	r3, #512
 3248 005c 3246     		mov	r2, r6
 3249 005e 5146     		mov	r1, r10
 3250 0060 1248     		ldr	r0, .L209+4
 3251 0062 D8F81870 		ldr	r7, [r8, #24]
 3252 0066 B847     		blx	r7
 3253              	.LVL311:
 981:System/diskio/DiskIO.c ****     DevCard.read(&DevTFCard_Obj.SDMMC_Obj, sec_index, Disk_Card_SectionBuff, DISK_CARD_SENCTION_SZI
 3254              		.loc 1 981 5 view .LVU927
 981:System/diskio/DiskIO.c ****     DevCard.read(&DevTFCard_Obj.SDMMC_Obj, sec_index, Disk_Card_SectionBuff, DISK_CARD_SENCTION_SZI
 3255              		.loc 1 981 24 is_stmt 0 view .LVU928
 3256 0068 DBF8A730 		ldr	r3, [fp, #167]	@ unaligned
 981:System/diskio/DiskIO.c ****     DevCard.read(&DevTFCard_Obj.SDMMC_Obj, sec_index, Disk_Card_SectionBuff, DISK_CARD_SENCTION_SZI
 3257              		.loc 1 981 15 view .LVU929
 3258 006c 9A44     		add	r10, r10, r3
 3259              	.LVL312:
 982:System/diskio/DiskIO.c **** 
 3260              		.loc 1 982 5 is_stmt 1 view .LVU930
 3261 006e 0094     		str	r4, [sp]
 3262 0070 4FF40073 		mov	r3, #512
 3263 0074 3246     		mov	r2, r6
 3264 0076 5146     		mov	r1, r10
 3265 0078 0C48     		ldr	r0, .L209+4
 3266 007a D8F81470 		ldr	r7, [r8, #20]
 3267 007e B847     		blx	r7
 3268              	.LVL313:
 984:System/diskio/DiskIO.c ****     LEndianWord2BytesArray(nxt_cluster, Data_Ptr);
 3269              		.loc 1 984 5 view .LVU931
 985:System/diskio/DiskIO.c **** 
 3270              		.loc 1 985 5 view .LVU932
 3271 0080 4946     		mov	r1, r9
 3272 0082 2846     		mov	r0, r5
 3273 0084 FFF7FEFF 		bl	LEndianWord2BytesArray
 3274              	.LVL314:
 987:System/diskio/DiskIO.c **** 
 3275              		.loc 1 987 5 view .LVU933
 987:System/diskio/DiskIO.c **** 
 3276              		.loc 1 987 12 is_stmt 0 view .LVU934
 3277 0088 D8F81850 		ldr	r5, [r8, #24]
 3278              	.LVL315:
 987:System/diskio/DiskIO.c **** 
 3279              		.loc 1 987 5 view .LVU935
 3280 008c 0094     		str	r4, [sp]
 3281 008e 4FF40073 		mov	r3, #512
 3282 0092 3246     		mov	r2, r6
 3283 0094 5146     		mov	r1, r10
 3284 0096 0548     		ldr	r0, .L209+4
 3285 0098 A847     		blx	r5
 3286              	.LVL316:
 989:System/diskio/DiskIO.c **** }
 3287              		.loc 1 989 5 is_stmt 1 view .LVU936
 989:System/diskio/DiskIO.c **** }
 3288              		.loc 1 989 12 is_stmt 0 view .LVU937
ARM GAS  C:\Users\huav\AppData\Local\Temp\cclD56Oe.s 			page 99


 3289 009a 2046     		mov	r0, r4
 3290              	.LVL317:
 3291              	.L206:
 990:System/diskio/DiskIO.c **** 
 3292              		.loc 1 990 1 view .LVU938
 3293 009c 03B0     		add	sp, sp, #12
 3294              	.LCFI65:
 3295              		.cfi_remember_state
 3296              		.cfi_def_cfa_offset 36
 3297              		@ sp needed
 3298 009e BDE8F08F 		pop	{r4, r5, r6, r7, r8, r9, r10, fp, pc}
 3299              	.LVL318:
 3300              	.L207:
 3301              	.LCFI66:
 3302              		.cfi_restore_state
 967:System/diskio/DiskIO.c **** 
 3303              		.loc 1 967 16 view .LVU939
 3304 00a2 0020     		movs	r0, #0
 3305 00a4 FAE7     		b	.L206
 3306              	.L210:
 3307 00a6 00BF     		.align	2
 3308              	.L209:
 3309 00a8 00000000 		.word	.LANCHOR1
 3310 00ac 00000000 		.word	.LANCHOR0
 3311 00b0 00000000 		.word	DevCard
 3312              		.cfi_endproc
 3313              	.LFE166:
 3315              		.section	.text.Disk_UpdateFSINFO,"ax",%progbits
 3316              		.align	1
 3317              		.syntax unified
 3318              		.thumb
 3319              		.thumb_func
 3320              		.fpu fpv5-d16
 3322              	Disk_UpdateFSINFO:
 3323              	.LVL319:
 3324              	.LFB153:
 471:System/diskio/DiskIO.c ****     Disk_CardFSINFO_Typedef *FSInfo_Ptr = NULL;
 3325              		.loc 1 471 1 is_stmt 1 view -0
 3326              		.cfi_startproc
 3327              		@ args = 0, pretend = 0, frame = 0
 3328              		@ frame_needed = 0, uses_anonymous_args = 0
 472:System/diskio/DiskIO.c **** 
 3329              		.loc 1 472 5 view .LVU941
 474:System/diskio/DiskIO.c ****         (FATObj->FSInfo_SecNo == 0) ||
 3330              		.loc 1 474 5 view .LVU942
 474:System/diskio/DiskIO.c ****         (FATObj->FSInfo_SecNo == 0) ||
 3331              		.loc 1 474 8 is_stmt 0 view .LVU943
 3332 0000 C0B3     		cbz	r0, .L214
 471:System/diskio/DiskIO.c ****     Disk_CardFSINFO_Typedef *FSInfo_Ptr = NULL;
 3333              		.loc 1 471 1 discriminator 1 view .LVU944
 3334 0002 2DE9F047 		push	{r4, r5, r6, r7, r8, r9, r10, lr}
 3335              	.LCFI67:
 3336              		.cfi_def_cfa_offset 32
 3337              		.cfi_offset 4, -32
 3338              		.cfi_offset 5, -28
 3339              		.cfi_offset 6, -24
 3340              		.cfi_offset 7, -20
ARM GAS  C:\Users\huav\AppData\Local\Temp\cclD56Oe.s 			page 100


 3341              		.cfi_offset 8, -16
 3342              		.cfi_offset 9, -12
 3343              		.cfi_offset 10, -8
 3344              		.cfi_offset 14, -4
 3345 0006 82B0     		sub	sp, sp, #8
 3346              	.LCFI68:
 3347              		.cfi_def_cfa_offset 40
 3348 0008 0D46     		mov	r5, r1
 3349 000a 0446     		mov	r4, r0
 475:System/diskio/DiskIO.c ****         (remain_clus > (FATObj->DBR_info.TotSec32 - FATObj->DBR_info.FATSz32 * FATObj->DBR_info.Num
 3350              		.loc 1 475 16 discriminator 1 view .LVU945
 3351 000c D0F89B10 		ldr	r1, [r0, #155]	@ unaligned
 3352              	.LVL320:
 474:System/diskio/DiskIO.c ****         (FATObj->FSInfo_SecNo == 0) ||
 3353              		.loc 1 474 26 discriminator 1 view .LVU946
 3354 0010 69B3     		cbz	r1, .L211
 476:System/diskio/DiskIO.c ****         return;
 3355              		.loc 1 476 41 view .LVU947
 3356 0012 D0F86130 		ldr	r3, [r0, #97]	@ unaligned
 476:System/diskio/DiskIO.c ****         return;
 3357              		.loc 1 476 69 view .LVU948
 3358 0016 D0F86520 		ldr	r2, [r0, #101]	@ unaligned
 476:System/diskio/DiskIO.c ****         return;
 3359              		.loc 1 476 96 view .LVU949
 3360 001a 90F85100 		ldrb	r0, [r0, #81]	@ zero_extendqisi2
 3361              	.LVL321:
 476:System/diskio/DiskIO.c ****         return;
 3362              		.loc 1 476 51 view .LVU950
 3363 001e 00FB1233 		mls	r3, r0, r2, r3
 476:System/diskio/DiskIO.c ****         return;
 3364              		.loc 1 476 114 view .LVU951
 3365 0022 D4F8A320 		ldr	r2, [r4, #163]	@ unaligned
 476:System/diskio/DiskIO.c ****         return;
 3366              		.loc 1 476 106 view .LVU952
 3367 0026 B3FBF2F3 		udiv	r3, r3, r2
 475:System/diskio/DiskIO.c ****         (remain_clus > (FATObj->DBR_info.TotSec32 - FATObj->DBR_info.FATSz32 * FATObj->DBR_info.Num
 3368              		.loc 1 475 37 view .LVU953
 3369 002a AB42     		cmp	r3, r5
 3370 002c 1FD3     		bcc	.L211
 479:System/diskio/DiskIO.c **** 
 3371              		.loc 1 479 5 is_stmt 1 view .LVU954
 479:System/diskio/DiskIO.c **** 
 3372              		.loc 1 479 12 is_stmt 0 view .LVU955
 3373 002e DFF84C90 		ldr	r9, .L217+4
 479:System/diskio/DiskIO.c **** 
 3374              		.loc 1 479 5 view .LVU956
 3375 0032 114E     		ldr	r6, .L217
 3376 0034 DFF848A0 		ldr	r10, .L217+8
 3377 0038 4FF00108 		mov	r8, #1
 3378 003c CDF80080 		str	r8, [sp]
 3379 0040 4FF40073 		mov	r3, #512
 3380 0044 3246     		mov	r2, r6
 3381 0046 5046     		mov	r0, r10
 3382 0048 D9F81470 		ldr	r7, [r9, #20]
 3383 004c B847     		blx	r7
 3384              	.LVL322:
 481:System/diskio/DiskIO.c ****     LEndianWord2BytesArray(remain_clus, FSInfo_Ptr->remain_cluster);
ARM GAS  C:\Users\huav\AppData\Local\Temp\cclD56Oe.s 			page 101


 3385              		.loc 1 481 5 is_stmt 1 view .LVU957
 482:System/diskio/DiskIO.c **** 
 3386              		.loc 1 482 5 view .LVU958
 3387 004e 06F5F471 		add	r1, r6, #488
 3388 0052 2846     		mov	r0, r5
 3389 0054 FFF7FEFF 		bl	LEndianWord2BytesArray
 3390              	.LVL323:
 484:System/diskio/DiskIO.c **** }
 3391              		.loc 1 484 5 view .LVU959
 484:System/diskio/DiskIO.c **** }
 3392              		.loc 1 484 12 is_stmt 0 view .LVU960
 3393 0058 D9F81850 		ldr	r5, [r9, #24]
 3394              	.LVL324:
 484:System/diskio/DiskIO.c **** }
 3395              		.loc 1 484 5 view .LVU961
 3396 005c CDF80080 		str	r8, [sp]
 3397 0060 4FF40073 		mov	r3, #512
 3398 0064 3246     		mov	r2, r6
 3399 0066 D4F89B10 		ldr	r1, [r4, #155]	@ unaligned
 3400 006a 5046     		mov	r0, r10
 3401 006c A847     		blx	r5
 3402              	.LVL325:
 3403              	.L211:
 485:System/diskio/DiskIO.c **** 
 3404              		.loc 1 485 1 view .LVU962
 3405 006e 02B0     		add	sp, sp, #8
 3406              	.LCFI69:
 3407              		.cfi_def_cfa_offset 32
 3408              		@ sp needed
 3409 0070 BDE8F087 		pop	{r4, r5, r6, r7, r8, r9, r10, pc}
 3410              	.LVL326:
 3411              	.L214:
 3412              	.LCFI70:
 3413              		.cfi_def_cfa_offset 0
 3414              		.cfi_restore 4
 3415              		.cfi_restore 5
 3416              		.cfi_restore 6
 3417              		.cfi_restore 7
 3418              		.cfi_restore 8
 3419              		.cfi_restore 9
 3420              		.cfi_restore 10
 3421              		.cfi_restore 14
 485:System/diskio/DiskIO.c **** 
 3422              		.loc 1 485 1 view .LVU963
 3423 0074 7047     		bx	lr
 3424              	.L218:
 3425 0076 00BF     		.align	2
 3426              	.L217:
 3427 0078 00000000 		.word	.LANCHOR1
 3428 007c 00000000 		.word	DevCard
 3429 0080 00000000 		.word	.LANCHOR0
 3430              		.cfi_endproc
 3431              	.LFE153:
 3433              		.section	.text.Disk_Update_FreeCluster,"ax",%progbits
 3434              		.align	1
 3435              		.syntax unified
 3436              		.thumb
ARM GAS  C:\Users\huav\AppData\Local\Temp\cclD56Oe.s 			page 102


 3437              		.thumb_func
 3438              		.fpu fpv5-d16
 3440              	Disk_Update_FreeCluster:
 3441              	.LVL327:
 3442              	.LFB168:
1009:System/diskio/DiskIO.c ****     uint32_t sec_index = 0;
 3443              		.loc 1 1009 1 is_stmt 1 view -0
 3444              		.cfi_startproc
 3445              		@ args = 0, pretend = 0, frame = 0
 3446              		@ frame_needed = 0, uses_anonymous_args = 0
1010:System/diskio/DiskIO.c ****     uint32_t cluster_tmp = 0;
 3447              		.loc 1 1010 5 view .LVU965
1011:System/diskio/DiskIO.c ****     uint8_t free_index;
 3448              		.loc 1 1011 5 view .LVU966
1012:System/diskio/DiskIO.c **** 
 3449              		.loc 1 1012 5 view .LVU967
1014:System/diskio/DiskIO.c ****         return;
 3450              		.loc 1 1014 5 view .LVU968
1014:System/diskio/DiskIO.c ****         return;
 3451              		.loc 1 1014 8 is_stmt 0 view .LVU969
 3452 0000 0028     		cmp	r0, #0
 3453 0002 6FD0     		beq	.L231
1009:System/diskio/DiskIO.c ****     uint32_t sec_index = 0;
 3454              		.loc 1 1009 1 view .LVU970
 3455 0004 2DE9F041 		push	{r4, r5, r6, r7, r8, lr}
 3456              	.LCFI71:
 3457              		.cfi_def_cfa_offset 24
 3458              		.cfi_offset 4, -24
 3459              		.cfi_offset 5, -20
 3460              		.cfi_offset 6, -16
 3461              		.cfi_offset 7, -12
 3462              		.cfi_offset 8, -8
 3463              		.cfi_offset 14, -4
 3464 0008 82B0     		sub	sp, sp, #8
 3465              	.LCFI72:
 3466              		.cfi_def_cfa_offset 32
 3467 000a 0546     		mov	r5, r0
1017:System/diskio/DiskIO.c ****     {
 3468              		.loc 1 1017 5 is_stmt 1 view .LVU971
1017:System/diskio/DiskIO.c ****     {
 3469              		.loc 1 1017 15 is_stmt 0 view .LVU972
 3470 000c D0F8BF30 		ldr	r3, [r0, #191]	@ unaligned
1017:System/diskio/DiskIO.c ****     {
 3471              		.loc 1 1017 8 view .LVU973
 3472 0010 002B     		cmp	r3, #0
 3473 0012 5AD0     		beq	.L221
1019:System/diskio/DiskIO.c **** 
 3474              		.loc 1 1019 9 is_stmt 1 view .LVU974
1019:System/diskio/DiskIO.c **** 
 3475              		.loc 1 1019 31 is_stmt 0 view .LVU975
 3476 0014 013B     		subs	r3, r3, #1
 3477 0016 C0F8BF30 		str	r3, [r0, #191]	@ unaligned
1021:System/diskio/DiskIO.c **** 
 3478              		.loc 1 1021 9 is_stmt 1 view .LVU976
1021:System/diskio/DiskIO.c **** 
 3479              		.loc 1 1021 27 is_stmt 0 view .LVU977
 3480 001a D0F8BB60 		ldr	r6, [r0, #187]	@ unaligned
ARM GAS  C:\Users\huav\AppData\Local\Temp\cclD56Oe.s 			page 103


1021:System/diskio/DiskIO.c **** 
 3481              		.loc 1 1021 19 view .LVU978
 3482 001e F709     		lsrs	r7, r6, #7
 3483              	.LVL328:
1024:System/diskio/DiskIO.c **** 
 3484              		.loc 1 1024 9 is_stmt 1 view .LVU979
1024:System/diskio/DiskIO.c **** 
 3485              		.loc 1 1024 16 is_stmt 0 view .LVU980
 3486 0020 314B     		ldr	r3, .L238
 3487 0022 5C69     		ldr	r4, [r3, #20]
1024:System/diskio/DiskIO.c **** 
 3488              		.loc 1 1024 66 view .LVU981
 3489 0024 D0F8AF10 		ldr	r1, [r0, #175]	@ unaligned
1024:System/diskio/DiskIO.c **** 
 3490              		.loc 1 1024 9 view .LVU982
 3491 0028 0123     		movs	r3, #1
 3492 002a 0093     		str	r3, [sp]
 3493 002c 4FF40073 		mov	r3, #512
 3494 0030 2E4A     		ldr	r2, .L238+4
 3495 0032 01EBD611 		add	r1, r1, r6, lsr #7
 3496 0036 2E48     		ldr	r0, .L238+8
 3497              	.LVL329:
1024:System/diskio/DiskIO.c **** 
 3498              		.loc 1 1024 9 view .LVU983
 3499 0038 A047     		blx	r4
 3500              	.LVL330:
1026:System/diskio/DiskIO.c ****         {
 3501              		.loc 1 1026 9 is_stmt 1 view .LVU984
1026:System/diskio/DiskIO.c ****         {
 3502              		.loc 1 1026 33 is_stmt 0 view .LVU985
 3503 003a D5F8BB40 		ldr	r4, [r5, #187]	@ unaligned
1026:System/diskio/DiskIO.c ****         {
 3504              		.loc 1 1026 25 view .LVU986
 3505 003e 04F07F04 		and	r4, r4, #127
 3506              	.LVL331:
 3507              	.L222:
1026:System/diskio/DiskIO.c ****         {
 3508              		.loc 1 1026 77 is_stmt 1 discriminator 1 view .LVU987
1026:System/diskio/DiskIO.c ****         {
 3509              		.loc 1 1026 9 is_stmt 0 discriminator 1 view .LVU988
 3510 0042 14F0800F 		tst	r4, #128
 3511 0046 14D1     		bne	.L234
1028:System/diskio/DiskIO.c **** 
 3512              		.loc 1 1028 13 is_stmt 1 view .LVU989
1028:System/diskio/DiskIO.c **** 
 3513              		.loc 1 1028 27 is_stmt 0 view .LVU990
 3514 0048 A046     		mov	r8, r4
 3515 004a 2848     		ldr	r0, .L238+4
 3516 004c 00EB8400 		add	r0, r0, r4, lsl #2
 3517 0050 FFF7FEFF 		bl	LEndian2Word
 3518              	.LVL332:
1030:System/diskio/DiskIO.c ****             {
 3519              		.loc 1 1030 13 is_stmt 1 view .LVU991
1030:System/diskio/DiskIO.c ****             {
 3520              		.loc 1 1030 16 is_stmt 0 view .LVU992
 3521 0054 10B1     		cbz	r0, .L235
1026:System/diskio/DiskIO.c ****         {
ARM GAS  C:\Users\huav\AppData\Local\Temp\cclD56Oe.s 			page 104


 3522              		.loc 1 1026 117 is_stmt 1 discriminator 2 view .LVU993
1026:System/diskio/DiskIO.c ****         {
 3523              		.loc 1 1026 127 is_stmt 0 discriminator 2 view .LVU994
 3524 0056 0134     		adds	r4, r4, #1
 3525              	.LVL333:
1026:System/diskio/DiskIO.c ****         {
 3526              		.loc 1 1026 127 discriminator 2 view .LVU995
 3527 0058 E4B2     		uxtb	r4, r4
 3528              	.LVL334:
1026:System/diskio/DiskIO.c ****         {
 3529              		.loc 1 1026 127 discriminator 2 view .LVU996
 3530 005a F2E7     		b	.L222
 3531              	.L235:
1032:System/diskio/DiskIO.c **** 
 3532              		.loc 1 1032 17 is_stmt 1 view .LVU997
1032:System/diskio/DiskIO.c **** 
 3533              		.loc 1 1032 51 is_stmt 0 view .LVU998
 3534 005c 26F07F06 		bic	r6, r6, #127
1032:System/diskio/DiskIO.c **** 
 3535              		.loc 1 1032 80 view .LVU999
 3536 0060 B044     		add	r8, r8, r6
1032:System/diskio/DiskIO.c **** 
 3537              		.loc 1 1032 38 view .LVU1000
 3538 0062 C5F8BB80 		str	r8, [r5, #187]	@ unaligned
1035:System/diskio/DiskIO.c ****                 return;
 3539              		.loc 1 1035 17 is_stmt 1 view .LVU1001
 3540 0066 D5F8BF10 		ldr	r1, [r5, #191]	@ unaligned
 3541 006a 2846     		mov	r0, r5
 3542              	.LVL335:
1035:System/diskio/DiskIO.c ****                 return;
 3543              		.loc 1 1035 17 is_stmt 0 view .LVU1002
 3544 006c FFF7FEFF 		bl	Disk_UpdateFSINFO
 3545              	.LVL336:
1036:System/diskio/DiskIO.c ****             }
 3546              		.loc 1 1036 17 is_stmt 1 view .LVU1003
 3547 0070 35E0     		b	.L219
 3548              	.L234:
1041:System/diskio/DiskIO.c ****         {
 3549              		.loc 1 1041 9 view .LVU1004
 3550              	.LBB20:
1041:System/diskio/DiskIO.c ****         {
 3551              		.loc 1 1041 14 view .LVU1005
1041:System/diskio/DiskIO.c ****         {
 3552              		.loc 1 1041 23 is_stmt 0 view .LVU1006
 3553 0072 0137     		adds	r7, r7, #1
 3554              	.LVL337:
 3555              	.L225:
1041:System/diskio/DiskIO.c ****         {
 3556              		.loc 1 1041 48 is_stmt 1 discriminator 1 view .LVU1007
1041:System/diskio/DiskIO.c ****         {
 3557              		.loc 1 1041 64 is_stmt 0 discriminator 1 view .LVU1008
 3558 0074 D5F8A730 		ldr	r3, [r5, #167]	@ unaligned
1041:System/diskio/DiskIO.c ****         {
 3559              		.loc 1 1041 9 discriminator 1 view .LVU1009
 3560 0078 BB42     		cmp	r3, r7
 3561 007a 26D9     		bls	.L221
1043:System/diskio/DiskIO.c **** 
ARM GAS  C:\Users\huav\AppData\Local\Temp\cclD56Oe.s 			page 105


 3562              		.loc 1 1043 13 is_stmt 1 view .LVU1010
1043:System/diskio/DiskIO.c **** 
 3563              		.loc 1 1043 20 is_stmt 0 view .LVU1011
 3564 007c 1A4B     		ldr	r3, .L238
 3565 007e 5C69     		ldr	r4, [r3, #20]
 3566              	.LVL338:
1043:System/diskio/DiskIO.c **** 
 3567              		.loc 1 1043 68 view .LVU1012
 3568 0080 D5F8AF10 		ldr	r1, [r5, #175]	@ unaligned
1043:System/diskio/DiskIO.c **** 
 3569              		.loc 1 1043 13 view .LVU1013
 3570 0084 0123     		movs	r3, #1
 3571 0086 0093     		str	r3, [sp]
 3572 0088 4FF40073 		mov	r3, #512
 3573 008c 174A     		ldr	r2, .L238+4
 3574 008e 3944     		add	r1, r1, r7
 3575 0090 1748     		ldr	r0, .L238+8
 3576 0092 A047     		blx	r4
 3577              	.LVL339:
1045:System/diskio/DiskIO.c ****             {
 3578              		.loc 1 1045 13 is_stmt 1 view .LVU1014
1045:System/diskio/DiskIO.c ****             {
 3579              		.loc 1 1045 29 is_stmt 0 view .LVU1015
 3580 0094 0024     		movs	r4, #0
 3581              	.LVL340:
 3582              	.L226:
1045:System/diskio/DiskIO.c ****             {
 3583              		.loc 1 1045 34 is_stmt 1 discriminator 1 view .LVU1016
1045:System/diskio/DiskIO.c ****             {
 3584              		.loc 1 1045 13 is_stmt 0 discriminator 1 view .LVU1017
 3585 0096 14F0800F 		tst	r4, #128
 3586 009a 14D1     		bne	.L236
1047:System/diskio/DiskIO.c **** 
 3587              		.loc 1 1047 17 is_stmt 1 view .LVU1018
1047:System/diskio/DiskIO.c **** 
 3588              		.loc 1 1047 31 is_stmt 0 view .LVU1019
 3589 009c A046     		mov	r8, r4
 3590 009e 1348     		ldr	r0, .L238+4
 3591 00a0 00EB8400 		add	r0, r0, r4, lsl #2
 3592 00a4 FFF7FEFF 		bl	LEndian2Word
 3593              	.LVL341:
1049:System/diskio/DiskIO.c ****                 {
 3594              		.loc 1 1049 17 is_stmt 1 view .LVU1020
1049:System/diskio/DiskIO.c ****                 {
 3595              		.loc 1 1049 20 is_stmt 0 view .LVU1021
 3596 00a8 10B1     		cbz	r0, .L237
1045:System/diskio/DiskIO.c ****             {
 3597              		.loc 1 1045 74 is_stmt 1 discriminator 2 view .LVU1022
1045:System/diskio/DiskIO.c ****             {
 3598              		.loc 1 1045 84 is_stmt 0 discriminator 2 view .LVU1023
 3599 00aa 0134     		adds	r4, r4, #1
 3600              	.LVL342:
1045:System/diskio/DiskIO.c ****             {
 3601              		.loc 1 1045 84 discriminator 2 view .LVU1024
 3602 00ac E4B2     		uxtb	r4, r4
 3603              	.LVL343:
1045:System/diskio/DiskIO.c ****             {
ARM GAS  C:\Users\huav\AppData\Local\Temp\cclD56Oe.s 			page 106


 3604              		.loc 1 1045 84 discriminator 2 view .LVU1025
 3605 00ae F2E7     		b	.L226
 3606              	.L237:
1051:System/diskio/DiskIO.c **** 
 3607              		.loc 1 1051 21 is_stmt 1 view .LVU1026
1051:System/diskio/DiskIO.c **** 
 3608              		.loc 1 1051 55 is_stmt 0 view .LVU1027
 3609 00b0 26F07F06 		bic	r6, r6, #127
 3610              	.LVL344:
1051:System/diskio/DiskIO.c **** 
 3611              		.loc 1 1051 84 view .LVU1028
 3612 00b4 B044     		add	r8, r8, r6
1051:System/diskio/DiskIO.c **** 
 3613              		.loc 1 1051 42 view .LVU1029
 3614 00b6 C5F8BB80 		str	r8, [r5, #187]	@ unaligned
1054:System/diskio/DiskIO.c ****                     return;
 3615              		.loc 1 1054 21 is_stmt 1 view .LVU1030
 3616 00ba D5F8BF10 		ldr	r1, [r5, #191]	@ unaligned
 3617 00be 2846     		mov	r0, r5
 3618              	.LVL345:
1054:System/diskio/DiskIO.c ****                     return;
 3619              		.loc 1 1054 21 is_stmt 0 view .LVU1031
 3620 00c0 FFF7FEFF 		bl	Disk_UpdateFSINFO
 3621              	.LVL346:
1055:System/diskio/DiskIO.c ****                 }
 3622              		.loc 1 1055 21 is_stmt 1 view .LVU1032
 3623 00c4 0BE0     		b	.L219
 3624              	.LVL347:
 3625              	.L236:
1041:System/diskio/DiskIO.c ****         {
 3626              		.loc 1 1041 80 discriminator 2 view .LVU1033
1041:System/diskio/DiskIO.c ****         {
 3627              		.loc 1 1041 87 is_stmt 0 discriminator 2 view .LVU1034
 3628 00c6 0137     		adds	r7, r7, #1
 3629              	.LVL348:
1041:System/diskio/DiskIO.c ****         {
 3630              		.loc 1 1041 87 discriminator 2 view .LVU1035
 3631 00c8 D4E7     		b	.L225
 3632              	.LVL349:
 3633              	.L221:
1041:System/diskio/DiskIO.c ****         {
 3634              		.loc 1 1041 87 discriminator 2 view .LVU1036
 3635              	.LBE20:
1061:System/diskio/DiskIO.c **** }
 3636              		.loc 1 1061 5 is_stmt 1 view .LVU1037
1061:System/diskio/DiskIO.c **** }
 3637              		.loc 1 1061 26 is_stmt 0 view .LVU1038
 3638 00ca 0023     		movs	r3, #0
 3639 00cc 0222     		movs	r2, #2
 3640 00ce 85F8BB20 		strb	r2, [r5, #187]
 3641 00d2 85F8BC30 		strb	r3, [r5, #188]
 3642 00d6 85F8BD30 		strb	r3, [r5, #189]
 3643 00da 85F8BE30 		strb	r3, [r5, #190]
 3644              	.L219:
1062:System/diskio/DiskIO.c **** 
 3645              		.loc 1 1062 1 view .LVU1039
 3646 00de 02B0     		add	sp, sp, #8
ARM GAS  C:\Users\huav\AppData\Local\Temp\cclD56Oe.s 			page 107


 3647              	.LCFI73:
 3648              		.cfi_def_cfa_offset 24
 3649              		@ sp needed
 3650 00e0 BDE8F081 		pop	{r4, r5, r6, r7, r8, pc}
 3651              	.LVL350:
 3652              	.L231:
 3653              	.LCFI74:
 3654              		.cfi_def_cfa_offset 0
 3655              		.cfi_restore 4
 3656              		.cfi_restore 5
 3657              		.cfi_restore 6
 3658              		.cfi_restore 7
 3659              		.cfi_restore 8
 3660              		.cfi_restore 14
1062:System/diskio/DiskIO.c **** 
 3661              		.loc 1 1062 1 view .LVU1040
 3662 00e4 7047     		bx	lr
 3663              	.L239:
 3664 00e6 00BF     		.align	2
 3665              	.L238:
 3666 00e8 00000000 		.word	DevCard
 3667 00ec 00000000 		.word	.LANCHOR1
 3668 00f0 00000000 		.word	.LANCHOR0
 3669              		.cfi_endproc
 3670              	.LFE168:
 3672              		.section	.text.Disk_WriteTo_TargetFFTable,"ax",%progbits
 3673              		.align	1
 3674              		.syntax unified
 3675              		.thumb
 3676              		.thumb_func
 3677              		.fpu fpv5-d16
 3679              	Disk_WriteTo_TargetFFTable:
 3680              	.LVL351:
 3681              	.LFB169:
1065:System/diskio/DiskIO.c ****     uint32_t sec_id = 0;
 3682              		.loc 1 1065 1 is_stmt 1 view -0
 3683              		.cfi_startproc
 3684              		@ args = 0, pretend = 0, frame = 1280
 3685              		@ frame_needed = 0, uses_anonymous_args = 0
1065:System/diskio/DiskIO.c ****     uint32_t sec_id = 0;
 3686              		.loc 1 1065 1 is_stmt 0 view .LVU1042
 3687 0000 2DE9F04F 		push	{r4, r5, r6, r7, r8, r9, r10, fp, lr}
 3688              	.LCFI75:
 3689              		.cfi_def_cfa_offset 36
 3690              		.cfi_offset 4, -36
 3691              		.cfi_offset 5, -32
 3692              		.cfi_offset 6, -28
 3693              		.cfi_offset 7, -24
 3694              		.cfi_offset 8, -20
 3695              		.cfi_offset 9, -16
 3696              		.cfi_offset 10, -12
 3697              		.cfi_offset 11, -8
 3698              		.cfi_offset 14, -4
 3699 0004 ADF20C5D 		subw	sp, sp, #1292
 3700              	.LCFI76:
 3701              		.cfi_def_cfa_offset 1328
 3702 0008 0546     		mov	r5, r0
ARM GAS  C:\Users\huav\AppData\Local\Temp\cclD56Oe.s 			page 108


 3703 000a 8846     		mov	r8, r1
 3704 000c 9246     		mov	r10, r2
 3705 000e 1F46     		mov	r7, r3
1066:System/diskio/DiskIO.c ****     FATCluster_Addr target_file_cluster = cluster;
 3706              		.loc 1 1066 5 is_stmt 1 view .LVU1043
 3707              	.LVL352:
1067:System/diskio/DiskIO.c ****     FATCluster_Addr lst_cluster = 0;
 3708              		.loc 1 1067 5 view .LVU1044
1068:System/diskio/DiskIO.c ****     DiskFATCluster_State_List Cluster_State = Disk_GetClusterState(target_file_cluster);
 3709              		.loc 1 1068 5 view .LVU1045
1069:System/diskio/DiskIO.c ****     Disk_FFInfoTable_TypeDef FFInfo;
 3710              		.loc 1 1069 5 view .LVU1046
1069:System/diskio/DiskIO.c ****     Disk_FFInfoTable_TypeDef FFInfo;
 3711              		.loc 1 1069 47 is_stmt 0 view .LVU1047
 3712 0010 1846     		mov	r0, r3
 3713              	.LVL353:
1069:System/diskio/DiskIO.c ****     Disk_FFInfoTable_TypeDef FFInfo;
 3714              		.loc 1 1069 47 view .LVU1048
 3715 0012 FFF7FEFF 		bl	Disk_GetClusterState
 3716              	.LVL354:
1069:System/diskio/DiskIO.c ****     Disk_FFInfoTable_TypeDef FFInfo;
 3717              		.loc 1 1069 47 view .LVU1049
 3718 0016 0446     		mov	r4, r0
 3719              	.LVL355:
1070:System/diskio/DiskIO.c ****     Disk_FFAttr_TypeDef attr_tmp;
 3720              		.loc 1 1070 5 is_stmt 1 view .LVU1050
1071:System/diskio/DiskIO.c ****     char file_name[12];
 3721              		.loc 1 1071 5 view .LVU1051
1072:System/diskio/DiskIO.c ****     char folder_name[9];
 3722              		.loc 1 1072 5 view .LVU1052
1073:System/diskio/DiskIO.c ****     char *name_tmp;
 3723              		.loc 1 1073 5 view .LVU1053
1074:System/diskio/DiskIO.c **** 
 3724              		.loc 1 1074 5 view .LVU1054
1076:System/diskio/DiskIO.c ****     {
 3725              		.loc 1 1076 5 view .LVU1055
1076:System/diskio/DiskIO.c ****     {
 3726              		.loc 1 1076 8 is_stmt 0 view .LVU1056
 3727 0018 B8F1020F 		cmp	r8, #2
 3728 001c 4CD0     		beq	.L241
1078:System/diskio/DiskIO.c ****         memset(name_tmp, '\0', 12);
 3729              		.loc 1 1078 9 is_stmt 1 view .LVU1057
 3730              	.LVL356:
1079:System/diskio/DiskIO.c ****         memcpy(name_tmp, name, 12);
 3731              		.loc 1 1079 9 view .LVU1058
 3732 001e 0023     		movs	r3, #0
 3733 0020 9F93     		str	r3, [sp, #636]
 3734 0022 A093     		str	r3, [sp, #640]
 3735 0024 A193     		str	r3, [sp, #644]
1080:System/diskio/DiskIO.c ****     }
 3736              		.loc 1 1080 9 view .LVU1059
 3737 0026 9FAB     		add	r3, sp, #636
 3738              	.LVL357:
1080:System/diskio/DiskIO.c ****     }
 3739              		.loc 1 1080 9 is_stmt 0 view .LVU1060
 3740 0028 DAF80000 		ldr	r0, [r10]	@ unaligned
 3741 002c DAF80410 		ldr	r1, [r10, #4]	@ unaligned
ARM GAS  C:\Users\huav\AppData\Local\Temp\cclD56Oe.s 			page 109


 3742 0030 DAF80820 		ldr	r2, [r10, #8]	@ unaligned
 3743 0034 07C3     		stmia	r3!, {r0, r1, r2}
 3744              	.LVL358:
1078:System/diskio/DiskIO.c ****         memset(name_tmp, '\0', 12);
 3745              		.loc 1 1078 18 view .LVU1061
 3746 0036 0DF51F79 		add	r9, sp, #636
 3747              	.LVL359:
 3748              	.L242:
1089:System/diskio/DiskIO.c ****         return 0;
 3749              		.loc 1 1089 5 is_stmt 1 view .LVU1062
1089:System/diskio/DiskIO.c ****         return 0;
 3750              		.loc 1 1089 10 is_stmt 0 view .LVU1063
 3751 003a 4946     		mov	r1, r9
 3752 003c 4846     		mov	r0, r9
 3753 003e FFF7FEFF 		bl	Disk_Name_ConvertTo83Frame
 3754              	.LVL360:
1089:System/diskio/DiskIO.c ****         return 0;
 3755              		.loc 1 1089 8 view .LVU1064
 3756 0042 0028     		cmp	r0, #0
 3757 0044 00F09E80 		beq	.L240
1068:System/diskio/DiskIO.c ****     DiskFATCluster_State_List Cluster_State = Disk_GetClusterState(target_file_cluster);
 3758              		.loc 1 1068 21 view .LVU1065
 3759 0048 0021     		movs	r1, #0
 3760              	.LVL361:
 3761              	.L243:
1092:System/diskio/DiskIO.c ****     {
 3762              		.loc 1 1092 11 is_stmt 1 view .LVU1066
 3763 004a 022C     		cmp	r4, #2
 3764 004c 40F00D81 		bne	.L261
1094:System/diskio/DiskIO.c **** 
 3765              		.loc 1 1094 9 view .LVU1067
1094:System/diskio/DiskIO.c **** 
 3766              		.loc 1 1094 18 is_stmt 0 view .LVU1068
 3767 0050 3946     		mov	r1, r7
 3768              	.LVL362:
1094:System/diskio/DiskIO.c **** 
 3769              		.loc 1 1094 18 view .LVU1069
 3770 0052 2846     		mov	r0, r5
 3771 0054 FFF7FEFF 		bl	Disk_Get_StartSectionOfCluster
 3772              	.LVL363:
 3773 0058 0646     		mov	r6, r0
 3774              	.LVL364:
1096:System/diskio/DiskIO.c ****         {
 3775              		.loc 1 1096 9 is_stmt 1 view .LVU1070
 3776              	.LBB21:
1096:System/diskio/DiskIO.c ****         {
 3777              		.loc 1 1096 14 view .LVU1071
1096:System/diskio/DiskIO.c ****         {
 3778              		.loc 1 1096 22 is_stmt 0 view .LVU1072
 3779 005a 4FF0000B 		mov	fp, #0
 3780              	.LVL365:
 3781              	.L245:
1096:System/diskio/DiskIO.c ****         {
 3782              		.loc 1 1096 41 is_stmt 1 discriminator 1 view .LVU1073
1096:System/diskio/DiskIO.c ****         {
 3783              		.loc 1 1096 63 is_stmt 0 discriminator 1 view .LVU1074
 3784 005e D5F8AB30 		ldr	r3, [r5, #171]	@ unaligned
ARM GAS  C:\Users\huav\AppData\Local\Temp\cclD56Oe.s 			page 110


1096:System/diskio/DiskIO.c ****         {
 3785              		.loc 1 1096 9 discriminator 1 view .LVU1075
 3786 0062 9B45     		cmp	fp, r3
 3787 0064 80F0F680 		bcs	.L262
1098:System/diskio/DiskIO.c ****             memset(&FFInfo, NULL, sizeof(FFInfo));
 3788              		.loc 1 1098 13 is_stmt 1 view .LVU1076
1098:System/diskio/DiskIO.c ****             memset(&FFInfo, NULL, sizeof(FFInfo));
 3789              		.loc 1 1098 20 is_stmt 0 view .LVU1077
 3790 0068 5E44     		add	r6, r6, fp
 3791              	.LVL366:
1099:System/diskio/DiskIO.c **** 
 3792              		.loc 1 1099 13 is_stmt 1 view .LVU1078
 3793 006a 4FF41874 		mov	r4, #608
 3794 006e 2246     		mov	r2, r4
 3795 0070 0021     		movs	r1, #0
 3796 0072 AAA8     		add	r0, sp, #680
 3797 0074 FFF7FEFF 		bl	memset
 3798              	.LVL367:
1101:System/diskio/DiskIO.c **** 
 3799              		.loc 1 1101 13 view .LVU1079
1101:System/diskio/DiskIO.c **** 
 3800              		.loc 1 1101 22 is_stmt 0 view .LVU1080
 3801 0078 3246     		mov	r2, r6
 3802 007a 2946     		mov	r1, r5
 3803 007c 04A8     		add	r0, sp, #16
 3804 007e FFF7FEFF 		bl	Disk_Parse_Attribute
 3805              	.LVL368:
 3806 0082 2246     		mov	r2, r4
 3807 0084 04A9     		add	r1, sp, #16
 3808 0086 AAA8     		add	r0, sp, #680
 3809 0088 FFF7FEFF 		bl	memcpy
 3810              	.LVL369:
1103:System/diskio/DiskIO.c ****             {
 3811              		.loc 1 1103 13 is_stmt 1 view .LVU1081
 3812              	.LBB22:
1103:System/diskio/DiskIO.c ****             {
 3813              		.loc 1 1103 18 view .LVU1082
1103:System/diskio/DiskIO.c ****             {
 3814              		.loc 1 1103 26 is_stmt 0 view .LVU1083
 3815 008c 0024     		movs	r4, #0
 3816              	.LVL370:
 3817              	.L246:
1103:System/diskio/DiskIO.c ****             {
 3818              		.loc 1 1103 40 is_stmt 1 discriminator 1 view .LVU1084
1103:System/diskio/DiskIO.c ****             {
 3819              		.loc 1 1103 13 is_stmt 0 discriminator 1 view .LVU1085
 3820 008e 0F2C     		cmp	r4, #15
 3821 0090 00F2DB80 		bhi	.L263
1105:System/diskio/DiskIO.c ****                 {
 3822              		.loc 1 1105 17 is_stmt 1 view .LVU1086
1105:System/diskio/DiskIO.c ****                 {
 3823              		.loc 1 1105 47 is_stmt 0 view .LVU1087
 3824 0094 2623     		movs	r3, #38
 3825 0096 04FB03F3 		mul	r3, r4, r3
 3826 009a AAAA     		add	r2, sp, #680
 3827 009c D35C     		ldrb	r3, [r2, r3]	@ zero_extendqisi2
1105:System/diskio/DiskIO.c ****                 {
ARM GAS  C:\Users\huav\AppData\Local\Temp\cclD56Oe.s 			page 111


 3828              		.loc 1 1105 20 view .LVU1088
 3829 009e E3B1     		cbz	r3, .L247
1107:System/diskio/DiskIO.c ****                         return target_file_cluster;
 3830              		.loc 1 1107 21 is_stmt 1 view .LVU1089
1107:System/diskio/DiskIO.c ****                         return target_file_cluster;
 3831              		.loc 1 1107 25 is_stmt 0 view .LVU1090
 3832 00a0 4946     		mov	r1, r9
 3833 00a2 2620     		movs	r0, #38
 3834 00a4 00FB0420 		mla	r0, r0, r4, r2
 3835 00a8 FFF7FEFF 		bl	Disk_SFN_Match
 3836              	.LVL371:
1107:System/diskio/DiskIO.c ****                         return target_file_cluster;
 3837              		.loc 1 1107 24 view .LVU1091
 3838 00ac 0028     		cmp	r0, #0
 3839 00ae 40F07E81 		bne	.L264
1103:System/diskio/DiskIO.c ****             {
 3840              		.loc 1 1103 55 is_stmt 1 discriminator 2 view .LVU1092
1103:System/diskio/DiskIO.c ****             {
 3841              		.loc 1 1103 63 is_stmt 0 discriminator 2 view .LVU1093
 3842 00b2 0134     		adds	r4, r4, #1
 3843              	.LVL372:
1103:System/diskio/DiskIO.c ****             {
 3844              		.loc 1 1103 63 discriminator 2 view .LVU1094
 3845 00b4 E4B2     		uxtb	r4, r4
 3846              	.LVL373:
1103:System/diskio/DiskIO.c ****             {
 3847              		.loc 1 1103 63 discriminator 2 view .LVU1095
 3848 00b6 EAE7     		b	.L246
 3849              	.LVL374:
 3850              	.L241:
1103:System/diskio/DiskIO.c ****             {
 3851              		.loc 1 1103 63 discriminator 2 view .LVU1096
 3852              	.LBE22:
 3853              	.LBE21:
1084:System/diskio/DiskIO.c ****         memset(name_tmp, '\0', 9);
 3854              		.loc 1 1084 9 is_stmt 1 view .LVU1097
1085:System/diskio/DiskIO.c ****         memcpy(name_tmp, name, 9);
 3855              		.loc 1 1085 9 view .LVU1098
 3856 00b8 0023     		movs	r3, #0
 3857 00ba 9C93     		str	r3, [sp, #624]
 3858 00bc 9D93     		str	r3, [sp, #628]
 3859 00be 8DF87832 		strb	r3, [sp, #632]
1086:System/diskio/DiskIO.c ****     }
 3860              		.loc 1 1086 9 view .LVU1099
 3861 00c2 9CAB     		add	r3, sp, #624
 3862              	.LVL375:
1086:System/diskio/DiskIO.c ****     }
 3863              		.loc 1 1086 9 is_stmt 0 view .LVU1100
 3864 00c4 DAF80000 		ldr	r0, [r10]	@ unaligned
 3865 00c8 DAF80410 		ldr	r1, [r10, #4]	@ unaligned
 3866 00cc 03C3     		stmia	r3!, {r0, r1}
 3867              	.LVL376:
1086:System/diskio/DiskIO.c ****     }
 3868              		.loc 1 1086 9 view .LVU1101
 3869 00ce 9AF80820 		ldrb	r2, [r10, #8]	@ zero_extendqisi2
 3870 00d2 1A70     		strb	r2, [r3]
1084:System/diskio/DiskIO.c ****         memset(name_tmp, '\0', 9);
ARM GAS  C:\Users\huav\AppData\Local\Temp\cclD56Oe.s 			page 112


 3871              		.loc 1 1084 18 view .LVU1102
 3872 00d4 0DF51C79 		add	r9, sp, #624
 3873              	.LVL377:
1084:System/diskio/DiskIO.c ****         memset(name_tmp, '\0', 9);
 3874              		.loc 1 1084 18 view .LVU1103
 3875 00d8 AFE7     		b	.L242
 3876              	.LVL378:
 3877              	.L247:
 3878              	.LBB26:
 3879              	.LBB23:
1112:System/diskio/DiskIO.c ****                     {
 3880              		.loc 1 1112 24 view .LVU1104
 3881 00da 0394     		str	r4, [sp, #12]
1112:System/diskio/DiskIO.c ****                     {
 3882              		.loc 1 1112 21 is_stmt 1 view .LVU1105
1112:System/diskio/DiskIO.c ****                     {
 3883              		.loc 1 1112 24 is_stmt 0 view .LVU1106
 3884 00dc B8F1020F 		cmp	r8, #2
 3885 00e0 54D0     		beq	.L249
1115:System/diskio/DiskIO.c ****                         memcpy(name_tmp, name, 12);
 3886              		.loc 1 1115 25 is_stmt 1 view .LVU1107
 3887 00e2 0023     		movs	r3, #0
 3888 00e4 C9F80030 		str	r3, [r9]	@ unaligned
 3889 00e8 C9F80430 		str	r3, [r9, #4]	@ unaligned
 3890 00ec C9F80830 		str	r3, [r9, #8]	@ unaligned
1116:System/diskio/DiskIO.c ****                     }
 3891              		.loc 1 1116 25 view .LVU1108
 3892 00f0 DAF80010 		ldr	r1, [r10]	@ unaligned
 3893 00f4 DAF80420 		ldr	r2, [r10, #4]	@ unaligned
 3894 00f8 DAF80830 		ldr	r3, [r10, #8]	@ unaligned
 3895 00fc C9F80010 		str	r1, [r9]	@ unaligned
 3896 0100 C9F80420 		str	r2, [r9, #4]	@ unaligned
 3897 0104 C9F80830 		str	r3, [r9, #8]	@ unaligned
 3898              	.L250:
1124:System/diskio/DiskIO.c ****                     Disk_Fill_Attr(name_tmp, type, &attr_tmp, FATObj->free_cluster);
 3899              		.loc 1 1124 21 view .LVU1109
 3900 0108 2022     		movs	r2, #32
 3901 010a 0021     		movs	r1, #0
 3902 010c A2A8     		add	r0, sp, #648
 3903 010e FFF7FEFF 		bl	memset
 3904              	.LVL379:
1125:System/diskio/DiskIO.c **** 
 3905              		.loc 1 1125 21 view .LVU1110
 3906 0112 D5F8BB30 		ldr	r3, [r5, #187]	@ unaligned
 3907 0116 A2AA     		add	r2, sp, #648
 3908 0118 4146     		mov	r1, r8
 3909 011a 4846     		mov	r0, r9
 3910 011c FFF7FEFF 		bl	Disk_Fill_Attr
 3911              	.LVL380:
1128:System/diskio/DiskIO.c **** 
 3912              		.loc 1 1128 21 view .LVU1111
1128:System/diskio/DiskIO.c **** 
 3913              		.loc 1 1128 28 is_stmt 0 view .LVU1112
 3914 0120 DFF898A2 		ldr	r10, .L267+8
 3915              	.LVL381:
1128:System/diskio/DiskIO.c **** 
 3916              		.loc 1 1128 21 view .LVU1113
ARM GAS  C:\Users\huav\AppData\Local\Temp\cclD56Oe.s 			page 113


 3917 0124 DFF89092 		ldr	r9, .L267+4
 3918              	.LVL382:
1128:System/diskio/DiskIO.c **** 
 3919              		.loc 1 1128 21 view .LVU1114
 3920 0128 4FF0010B 		mov	fp, #1
 3921              	.LVL383:
1128:System/diskio/DiskIO.c **** 
 3922              		.loc 1 1128 21 view .LVU1115
 3923 012c CDF800B0 		str	fp, [sp]
 3924 0130 4FF40073 		mov	r3, #512
 3925 0134 4A46     		mov	r2, r9
 3926 0136 3146     		mov	r1, r6
 3927 0138 9E48     		ldr	r0, .L267
 3928 013a DAF81440 		ldr	r4, [r10, #20]
 3929              	.LVL384:
1128:System/diskio/DiskIO.c **** 
 3930              		.loc 1 1128 21 view .LVU1116
 3931 013e A047     		blx	r4
 3932              	.LVL385:
1131:System/diskio/DiskIO.c **** 
 3933              		.loc 1 1131 21 is_stmt 1 view .LVU1117
 3934 0140 039B     		ldr	r3, [sp, #12]
 3935 0142 4FEA431C 		lsl	ip, r3, #5
 3936 0146 09EB4314 		add	r4, r9, r3, lsl #5
 3937 014a 0DF5227E 		add	lr, sp, #648
 3938 014e BEE80F00 		ldmia	lr!, {r0, r1, r2, r3}
 3939 0152 49F80C00 		str	r0, [r9, ip]	@ unaligned
 3940 0156 6160     		str	r1, [r4, #4]	@ unaligned
 3941 0158 A260     		str	r2, [r4, #8]	@ unaligned
 3942 015a E360     		str	r3, [r4, #12]	@ unaligned
 3943 015c BEE80F00 		ldmia	lr!, {r0, r1, r2, r3}
 3944 0160 2061     		str	r0, [r4, #16]	@ unaligned
 3945 0162 6161     		str	r1, [r4, #20]	@ unaligned
 3946 0164 A261     		str	r2, [r4, #24]	@ unaligned
 3947 0166 E361     		str	r3, [r4, #28]	@ unaligned
1134:System/diskio/DiskIO.c **** 
 3948              		.loc 1 1134 21 view .LVU1118
1134:System/diskio/DiskIO.c **** 
 3949              		.loc 1 1134 28 is_stmt 0 view .LVU1119
 3950 0168 DAF81840 		ldr	r4, [r10, #24]
1134:System/diskio/DiskIO.c **** 
 3951              		.loc 1 1134 21 view .LVU1120
 3952 016c CDF800B0 		str	fp, [sp]
 3953 0170 4FF40073 		mov	r3, #512
 3954 0174 4A46     		mov	r2, r9
 3955 0176 3146     		mov	r1, r6
 3956 0178 8E48     		ldr	r0, .L267
 3957 017a A047     		blx	r4
 3958              	.LVL386:
1136:System/diskio/DiskIO.c ****                     {
 3959              		.loc 1 1136 21 is_stmt 1 view .LVU1121
1136:System/diskio/DiskIO.c ****                     {
 3960              		.loc 1 1136 24 is_stmt 0 view .LVU1122
 3961 017c B8F1020F 		cmp	r8, #2
 3962 0180 18D0     		beq	.L265
 3963              	.LVL387:
 3964              	.L251:
ARM GAS  C:\Users\huav\AppData\Local\Temp\cclD56Oe.s 			page 114


1163:System/diskio/DiskIO.c ****                 }
 3965              		.loc 1 1163 21 is_stmt 1 view .LVU1123
1163:System/diskio/DiskIO.c ****                 }
 3966              		.loc 1 1163 28 is_stmt 0 view .LVU1124
 3967 0182 3846     		mov	r0, r7
 3968              	.LVL388:
 3969              	.L240:
1163:System/diskio/DiskIO.c ****                 }
 3970              		.loc 1 1163 28 view .LVU1125
 3971              	.LBE23:
 3972              	.LBE26:
1242:System/diskio/DiskIO.c **** 
 3973              		.loc 1 1242 1 view .LVU1126
 3974 0184 0DF20C5D 		addw	sp, sp, #1292
 3975              	.LCFI77:
 3976              		.cfi_remember_state
 3977              		.cfi_def_cfa_offset 36
 3978              		@ sp needed
 3979 0188 BDE8F08F 		pop	{r4, r5, r6, r7, r8, r9, r10, fp, pc}
 3980              	.LVL389:
 3981              	.L249:
 3982              	.LCFI78:
 3983              		.cfi_restore_state
 3984              	.LBB27:
 3985              	.LBB24:
1120:System/diskio/DiskIO.c ****                         memcpy(name_tmp, name, 9);
 3986              		.loc 1 1120 25 is_stmt 1 view .LVU1127
 3987 018c 0023     		movs	r3, #0
 3988 018e C9F80030 		str	r3, [r9]	@ unaligned
 3989 0192 C9F80430 		str	r3, [r9, #4]	@ unaligned
 3990 0196 89F80830 		strb	r3, [r9, #8]
1121:System/diskio/DiskIO.c ****                     }
 3991              		.loc 1 1121 25 view .LVU1128
 3992 019a DAF80020 		ldr	r2, [r10]	@ unaligned
 3993 019e DAF80430 		ldr	r3, [r10, #4]	@ unaligned
 3994 01a2 C9F80020 		str	r2, [r9]	@ unaligned
 3995 01a6 C9F80430 		str	r3, [r9, #4]	@ unaligned
 3996 01aa 9AF80830 		ldrb	r3, [r10, #8]	@ zero_extendqisi2
 3997 01ae 89F80830 		strb	r3, [r9, #8]
 3998 01b2 A9E7     		b	.L250
 3999              	.LVL390:
 4000              	.L265:
1138:System/diskio/DiskIO.c ****                         Disk_ClearCluster(FATObj, FATObj->free_cluster);
 4001              		.loc 1 1138 25 view .LVU1129
 4002 01b4 6FF07042 		mvn	r2, #-268435456
 4003 01b8 D5F8BB10 		ldr	r1, [r5, #187]	@ unaligned
 4004 01bc 2846     		mov	r0, r5
 4005 01be FFF7FEFF 		bl	Disk_Establish_ClusterLink
 4006              	.LVL391:
1139:System/diskio/DiskIO.c **** 
 4007              		.loc 1 1139 25 view .LVU1130
 4008 01c2 D5F8BB10 		ldr	r1, [r5, #187]	@ unaligned
 4009 01c6 2846     		mov	r0, r5
 4010 01c8 FFF7FEFF 		bl	Disk_ClearCluster
 4011              	.LVL392:
1141:System/diskio/DiskIO.c ****                         memset(attr_tmp.ext, ' ', 3);
 4012              		.loc 1 1141 25 view .LVU1131
ARM GAS  C:\Users\huav\AppData\Local\Temp\cclD56Oe.s 			page 115


 4013 01cc 4FF02033 		mov	r3, #538976288
 4014 01d0 A293     		str	r3, [sp, #648]
 4015 01d2 A393     		str	r3, [sp, #652]
1142:System/diskio/DiskIO.c ****                         attr_tmp.name[0] = '.';
 4016              		.loc 1 1142 25 view .LVU1132
 4017 01d4 03F16043 		add	r3, r3, #-536870912
 4018 01d8 ADF89032 		strh	r3, [sp, #656]	@ movhi
 4019 01dc 8DF89232 		strb	r3, [sp, #658]
1143:System/diskio/DiskIO.c **** 
 4020              		.loc 1 1143 25 view .LVU1133
1143:System/diskio/DiskIO.c **** 
 4021              		.loc 1 1143 42 is_stmt 0 view .LVU1134
 4022 01e0 2E27     		movs	r7, #46
 4023              	.LVL393:
1143:System/diskio/DiskIO.c **** 
 4024              		.loc 1 1143 42 view .LVU1135
 4025 01e2 8DF88872 		strb	r7, [sp, #648]
1145:System/diskio/DiskIO.c **** 
 4026              		.loc 1 1145 25 is_stmt 1 view .LVU1136
 4027 01e6 4C46     		mov	r4, r9
 4028 01e8 A2AE     		add	r6, sp, #648
 4029              	.LVL394:
1145:System/diskio/DiskIO.c **** 
 4030              		.loc 1 1145 25 is_stmt 0 view .LVU1137
 4031 01ea 0FCE     		ldmia	r6!, {r0, r1, r2, r3}
 4032 01ec 0FC4     		stmia	r4!, {r0, r1, r2, r3}
 4033 01ee 96E80F00 		ldm	r6, {r0, r1, r2, r3}
 4034 01f2 84E80F00 		stm	r4, {r0, r1, r2, r3}
1147:System/diskio/DiskIO.c ****                         target_file_cluster = FATObj->free_cluster;
 4035              		.loc 1 1147 25 is_stmt 1 view .LVU1138
1147:System/diskio/DiskIO.c ****                         target_file_cluster = FATObj->free_cluster;
 4036              		.loc 1 1147 42 is_stmt 0 view .LVU1139
 4037 01f6 8DF88972 		strb	r7, [sp, #649]
1148:System/diskio/DiskIO.c **** 
 4038              		.loc 1 1148 25 is_stmt 1 view .LVU1140
1148:System/diskio/DiskIO.c **** 
 4039              		.loc 1 1148 45 is_stmt 0 view .LVU1141
 4040 01fa D5F8BB70 		ldr	r7, [r5, #187]	@ unaligned
 4041              	.LVL395:
1150:System/diskio/DiskIO.c ****                         attr_tmp.HighCluster[1] = target_file_cluster >> 24;
 4042              		.loc 1 1150 25 is_stmt 1 view .LVU1142
1150:System/diskio/DiskIO.c ****                         attr_tmp.HighCluster[1] = target_file_cluster >> 24;
 4043              		.loc 1 1150 71 is_stmt 0 view .LVU1143
 4044 01fe 3B0C     		lsrs	r3, r7, #16
1150:System/diskio/DiskIO.c ****                         attr_tmp.HighCluster[1] = target_file_cluster >> 24;
 4045              		.loc 1 1150 49 view .LVU1144
 4046 0200 8DF89C32 		strb	r3, [sp, #668]
1151:System/diskio/DiskIO.c ****                         attr_tmp.LowCluster[0] = target_file_cluster;
 4047              		.loc 1 1151 25 is_stmt 1 view .LVU1145
1151:System/diskio/DiskIO.c ****                         attr_tmp.LowCluster[0] = target_file_cluster;
 4048              		.loc 1 1151 71 is_stmt 0 view .LVU1146
 4049 0204 3B0E     		lsrs	r3, r7, #24
1151:System/diskio/DiskIO.c ****                         attr_tmp.LowCluster[0] = target_file_cluster;
 4050              		.loc 1 1151 49 view .LVU1147
 4051 0206 8DF89D32 		strb	r3, [sp, #669]
1152:System/diskio/DiskIO.c ****                         attr_tmp.LowCluster[1] = target_file_cluster >> 8;
 4052              		.loc 1 1152 25 is_stmt 1 view .LVU1148
ARM GAS  C:\Users\huav\AppData\Local\Temp\cclD56Oe.s 			page 116


1152:System/diskio/DiskIO.c ****                         attr_tmp.LowCluster[1] = target_file_cluster >> 8;
 4053              		.loc 1 1152 48 is_stmt 0 view .LVU1149
 4054 020a 8DF8A272 		strb	r7, [sp, #674]
1153:System/diskio/DiskIO.c **** 
 4055              		.loc 1 1153 25 is_stmt 1 view .LVU1150
1153:System/diskio/DiskIO.c **** 
 4056              		.loc 1 1153 70 is_stmt 0 view .LVU1151
 4057 020e 3B0A     		lsrs	r3, r7, #8
1153:System/diskio/DiskIO.c **** 
 4058              		.loc 1 1153 48 view .LVU1152
 4059 0210 8DF8A332 		strb	r3, [sp, #675]
1155:System/diskio/DiskIO.c **** 
 4060              		.loc 1 1155 25 is_stmt 1 view .LVU1153
 4061 0214 09F12006 		add	r6, r9, #32
 4062 0218 A2AC     		add	r4, sp, #648
 4063 021a 0FCC     		ldmia	r4!, {r0, r1, r2, r3}
 4064 021c 0FC6     		stmia	r6!, {r0, r1, r2, r3}
 4065 021e 94E80F00 		ldm	r4, {r0, r1, r2, r3}
 4066 0222 86E80F00 		stm	r6, {r0, r1, r2, r3}
1157:System/diskio/DiskIO.c ****                         DevCard.write(&DevTFCard_Obj.SDMMC_Obj, sec_id, Disk_Card_SectionBuff, size
 4067              		.loc 1 1157 25 view .LVU1154
1157:System/diskio/DiskIO.c ****                         DevCard.write(&DevTFCard_Obj.SDMMC_Obj, sec_id, Disk_Card_SectionBuff, size
 4068              		.loc 1 1157 34 is_stmt 0 view .LVU1155
 4069 0226 3946     		mov	r1, r7
 4070 0228 2846     		mov	r0, r5
 4071 022a FFF7FEFF 		bl	Disk_Get_StartSectionOfCluster
 4072              	.LVL396:
 4073 022e 0146     		mov	r1, r0
 4074              	.LVL397:
1158:System/diskio/DiskIO.c **** 
 4075              		.loc 1 1158 25 is_stmt 1 view .LVU1156
1158:System/diskio/DiskIO.c **** 
 4076              		.loc 1 1158 32 is_stmt 0 view .LVU1157
 4077 0230 DAF81840 		ldr	r4, [r10, #24]
1158:System/diskio/DiskIO.c **** 
 4078              		.loc 1 1158 25 view .LVU1158
 4079 0234 CDF800B0 		str	fp, [sp]
 4080 0238 4FF40073 		mov	r3, #512
 4081 023c 4A46     		mov	r2, r9
 4082 023e 5D48     		ldr	r0, .L267
 4083              	.LVL398:
1158:System/diskio/DiskIO.c **** 
 4084              		.loc 1 1158 25 view .LVU1159
 4085 0240 A047     		blx	r4
 4086              	.LVL399:
1160:System/diskio/DiskIO.c ****                     }
 4087              		.loc 1 1160 25 is_stmt 1 view .LVU1160
 4088 0242 2846     		mov	r0, r5
 4089 0244 FFF7FEFF 		bl	Disk_Update_FreeCluster
 4090              	.LVL400:
 4091 0248 9BE7     		b	.L251
 4092              	.LVL401:
 4093              	.L263:
1160:System/diskio/DiskIO.c ****                     }
 4094              		.loc 1 1160 25 is_stmt 0 view .LVU1161
 4095              	.LBE24:
1096:System/diskio/DiskIO.c ****         {
ARM GAS  C:\Users\huav\AppData\Local\Temp\cclD56Oe.s 			page 117


 4096              		.loc 1 1096 80 is_stmt 1 discriminator 2 view .LVU1162
1096:System/diskio/DiskIO.c ****         {
 4097              		.loc 1 1096 93 is_stmt 0 discriminator 2 view .LVU1163
 4098 024a 0BF1010B 		add	fp, fp, #1
 4099              	.LVL402:
1096:System/diskio/DiskIO.c ****         {
 4100              		.loc 1 1096 93 discriminator 2 view .LVU1164
 4101 024e 5FFA8BFB 		uxtb	fp, fp
 4102              	.LVL403:
1096:System/diskio/DiskIO.c ****         {
 4103              		.loc 1 1096 93 discriminator 2 view .LVU1165
 4104 0252 04E7     		b	.L245
 4105              	.LVL404:
 4106              	.L262:
1096:System/diskio/DiskIO.c ****         {
 4107              		.loc 1 1096 93 discriminator 2 view .LVU1166
 4108              	.LBE27:
1168:System/diskio/DiskIO.c ****         target_file_cluster = Disk_Get_NextCluster(FATObj, target_file_cluster);
 4109              		.loc 1 1168 9 is_stmt 1 view .LVU1167
1169:System/diskio/DiskIO.c ****         Cluster_State = Disk_GetClusterState(target_file_cluster);
 4110              		.loc 1 1169 9 view .LVU1168
1169:System/diskio/DiskIO.c ****         Cluster_State = Disk_GetClusterState(target_file_cluster);
 4111              		.loc 1 1169 31 is_stmt 0 view .LVU1169
 4112 0254 3946     		mov	r1, r7
 4113 0256 2846     		mov	r0, r5
 4114 0258 FFF7FEFF 		bl	Disk_Get_NextCluster
 4115              	.LVL405:
 4116 025c 0646     		mov	r6, r0
 4117              	.LVL406:
1170:System/diskio/DiskIO.c ****     }
 4118              		.loc 1 1170 9 is_stmt 1 view .LVU1170
1170:System/diskio/DiskIO.c ****     }
 4119              		.loc 1 1170 25 is_stmt 0 view .LVU1171
 4120 025e FFF7FEFF 		bl	Disk_GetClusterState
 4121              	.LVL407:
1170:System/diskio/DiskIO.c ****     }
 4122              		.loc 1 1170 25 view .LVU1172
 4123 0262 0446     		mov	r4, r0
 4124              	.LVL408:
1168:System/diskio/DiskIO.c ****         target_file_cluster = Disk_Get_NextCluster(FATObj, target_file_cluster);
 4125              		.loc 1 1168 21 view .LVU1173
 4126 0264 3946     		mov	r1, r7
1169:System/diskio/DiskIO.c ****         Cluster_State = Disk_GetClusterState(target_file_cluster);
 4127              		.loc 1 1169 31 view .LVU1174
 4128 0266 3746     		mov	r7, r6
 4129              	.LVL409:
1169:System/diskio/DiskIO.c ****         Cluster_State = Disk_GetClusterState(target_file_cluster);
 4130              		.loc 1 1169 31 view .LVU1175
 4131 0268 EFE6     		b	.L243
 4132              	.LVL410:
 4133              	.L261:
1174:System/diskio/DiskIO.c ****     {
 4134              		.loc 1 1174 5 is_stmt 1 view .LVU1176
1174:System/diskio/DiskIO.c ****     {
 4135              		.loc 1 1174 15 is_stmt 0 view .LVU1177
 4136 026a D5F8BF00 		ldr	r0, [r5, #191]	@ unaligned
1174:System/diskio/DiskIO.c ****     {
ARM GAS  C:\Users\huav\AppData\Local\Temp\cclD56Oe.s 			page 118


 4137              		.loc 1 1174 8 view .LVU1178
 4138 026e 0028     		cmp	r0, #0
 4139 0270 88D0     		beq	.L240
1176:System/diskio/DiskIO.c ****         Disk_Establish_ClusterLink(FATObj, FATObj->free_cluster, DISK_FAT_CLUSTER_END_MAX_WORLD);
 4140              		.loc 1 1176 9 is_stmt 1 view .LVU1179
 4141 0272 D5F8BB20 		ldr	r2, [r5, #187]	@ unaligned
 4142 0276 2846     		mov	r0, r5
 4143 0278 FFF7FEFF 		bl	Disk_Establish_ClusterLink
 4144              	.LVL411:
1177:System/diskio/DiskIO.c ****         Disk_ClearCluster(FATObj, FATObj->free_cluster);
 4145              		.loc 1 1177 9 view .LVU1180
 4146 027c 6FF07042 		mvn	r2, #-268435456
 4147 0280 D5F8BB10 		ldr	r1, [r5, #187]	@ unaligned
 4148 0284 2846     		mov	r0, r5
 4149 0286 FFF7FEFF 		bl	Disk_Establish_ClusterLink
 4150              	.LVL412:
1178:System/diskio/DiskIO.c **** 
 4151              		.loc 1 1178 9 view .LVU1181
 4152 028a D5F8BB10 		ldr	r1, [r5, #187]	@ unaligned
 4153 028e 2846     		mov	r0, r5
 4154 0290 FFF7FEFF 		bl	Disk_ClearCluster
 4155              	.LVL413:
1181:System/diskio/DiskIO.c ****         memcpy(name_tmp, name, strlen(name));
 4156              		.loc 1 1181 9 view .LVU1182
 4157 0294 0024     		movs	r4, #0
 4158              	.LVL414:
1181:System/diskio/DiskIO.c ****         memcpy(name_tmp, name, strlen(name));
 4159              		.loc 1 1181 9 is_stmt 0 view .LVU1183
 4160 0296 C9F80040 		str	r4, [r9]	@ unaligned
 4161 029a C9F80440 		str	r4, [r9, #4]	@ unaligned
 4162 029e C9F80840 		str	r4, [r9, #8]	@ unaligned
1182:System/diskio/DiskIO.c ****         memset(&attr_tmp, NULL, sizeof(Disk_FFAttr_TypeDef));
 4163              		.loc 1 1182 9 is_stmt 1 view .LVU1184
 4164 02a2 5046     		mov	r0, r10
 4165 02a4 FFF7FEFF 		bl	strlen
 4166              	.LVL415:
 4167 02a8 0246     		mov	r2, r0
 4168 02aa 5146     		mov	r1, r10
 4169 02ac 4846     		mov	r0, r9
 4170 02ae FFF7FEFF 		bl	memcpy
 4171              	.LVL416:
1183:System/diskio/DiskIO.c **** 
 4172              		.loc 1 1183 9 view .LVU1185
 4173 02b2 2022     		movs	r2, #32
 4174 02b4 2146     		mov	r1, r4
 4175 02b6 A2A8     		add	r0, sp, #648
 4176 02b8 FFF7FEFF 		bl	memset
 4177              	.LVL417:
1185:System/diskio/DiskIO.c ****         sec_id = Disk_Get_StartSectionOfCluster(FATObj, FATObj->free_cluster);
 4178              		.loc 1 1185 9 view .LVU1186
 4179 02bc 3B46     		mov	r3, r7
 4180 02be A2AA     		add	r2, sp, #648
 4181 02c0 4146     		mov	r1, r8
 4182 02c2 4846     		mov	r0, r9
 4183 02c4 FFF7FEFF 		bl	Disk_Fill_Attr
 4184              	.LVL418:
1186:System/diskio/DiskIO.c **** 
ARM GAS  C:\Users\huav\AppData\Local\Temp\cclD56Oe.s 			page 119


 4185              		.loc 1 1186 9 view .LVU1187
1186:System/diskio/DiskIO.c **** 
 4186              		.loc 1 1186 18 is_stmt 0 view .LVU1188
 4187 02c8 D5F8BB10 		ldr	r1, [r5, #187]	@ unaligned
 4188 02cc 2846     		mov	r0, r5
 4189 02ce FFF7FEFF 		bl	Disk_Get_StartSectionOfCluster
 4190              	.LVL419:
1189:System/diskio/DiskIO.c **** 
 4191              		.loc 1 1189 9 is_stmt 1 view .LVU1189
1189:System/diskio/DiskIO.c **** 
 4192              		.loc 1 1189 16 is_stmt 0 view .LVU1190
 4193 02d2 DFF8E8B0 		ldr	fp, .L267+8
 4194 02d6 DBF81440 		ldr	r4, [fp, #20]
1189:System/diskio/DiskIO.c **** 
 4195              		.loc 1 1189 9 view .LVU1191
 4196 02da 374E     		ldr	r6, .L267+4
 4197 02dc DFF8D490 		ldr	r9, .L267
 4198              	.LVL420:
1189:System/diskio/DiskIO.c **** 
 4199              		.loc 1 1189 9 view .LVU1192
 4200 02e0 4FF0010A 		mov	r10, #1
 4201              	.LVL421:
1189:System/diskio/DiskIO.c **** 
 4202              		.loc 1 1189 9 view .LVU1193
 4203 02e4 CDF800A0 		str	r10, [sp]
 4204 02e8 4FF40073 		mov	r3, #512
 4205 02ec 3246     		mov	r2, r6
 4206 02ee 0390     		str	r0, [sp, #12]
 4207 02f0 0146     		mov	r1, r0
 4208 02f2 4846     		mov	r0, r9
 4209              	.LVL422:
1189:System/diskio/DiskIO.c **** 
 4210              		.loc 1 1189 9 view .LVU1194
 4211 02f4 A047     		blx	r4
 4212              	.LVL423:
1192:System/diskio/DiskIO.c **** 
 4213              		.loc 1 1192 9 is_stmt 1 view .LVU1195
 4214 02f6 B446     		mov	ip, r6
 4215 02f8 A2AC     		add	r4, sp, #648
 4216 02fa 0FCC     		ldmia	r4!, {r0, r1, r2, r3}
 4217 02fc ACE80F00 		stmia	ip!, {r0, r1, r2, r3}
 4218 0300 94E80F00 		ldm	r4, {r0, r1, r2, r3}
 4219 0304 8CE80F00 		stm	ip, {r0, r1, r2, r3}
1195:System/diskio/DiskIO.c **** 
 4220              		.loc 1 1195 9 view .LVU1196
1195:System/diskio/DiskIO.c **** 
 4221              		.loc 1 1195 16 is_stmt 0 view .LVU1197
 4222 0308 DBF81840 		ldr	r4, [fp, #24]
1195:System/diskio/DiskIO.c **** 
 4223              		.loc 1 1195 9 view .LVU1198
 4224 030c CDF800A0 		str	r10, [sp]
 4225 0310 4FF40073 		mov	r3, #512
 4226 0314 3246     		mov	r2, r6
 4227 0316 0399     		ldr	r1, [sp, #12]
 4228 0318 4846     		mov	r0, r9
 4229 031a A047     		blx	r4
 4230              	.LVL424:
ARM GAS  C:\Users\huav\AppData\Local\Temp\cclD56Oe.s 			page 120


1198:System/diskio/DiskIO.c **** 
 4231              		.loc 1 1198 9 is_stmt 1 view .LVU1199
 4232 031c 2846     		mov	r0, r5
 4233 031e FFF7FEFF 		bl	Disk_Update_FreeCluster
 4234              	.LVL425:
1200:System/diskio/DiskIO.c ****         {
 4235              		.loc 1 1200 9 view .LVU1200
1200:System/diskio/DiskIO.c ****         {
 4236              		.loc 1 1200 12 is_stmt 0 view .LVU1201
 4237 0322 B8F1020F 		cmp	r8, #2
 4238 0326 01D0     		beq	.L266
1241:System/diskio/DiskIO.c **** }
 4239              		.loc 1 1241 12 view .LVU1202
 4240 0328 0020     		movs	r0, #0
 4241 032a 2BE7     		b	.L240
 4242              	.L266:
1202:System/diskio/DiskIO.c ****             Disk_ClearCluster(FATObj, FATObj->free_cluster);
 4243              		.loc 1 1202 13 is_stmt 1 view .LVU1203
 4244 032c 6FF07042 		mvn	r2, #-268435456
 4245 0330 D5F8BB10 		ldr	r1, [r5, #187]	@ unaligned
 4246 0334 2846     		mov	r0, r5
 4247 0336 FFF7FEFF 		bl	Disk_Establish_ClusterLink
 4248              	.LVL426:
1203:System/diskio/DiskIO.c **** 
 4249              		.loc 1 1203 13 view .LVU1204
 4250 033a D5F8BB10 		ldr	r1, [r5, #187]	@ unaligned
 4251 033e 2846     		mov	r0, r5
 4252 0340 FFF7FEFF 		bl	Disk_ClearCluster
 4253              	.LVL427:
1205:System/diskio/DiskIO.c ****             memset(((Disk_CCSSFFAT_TypeDef *)Disk_Card_SectionBuff)->attribute[0].ext, NULL, sizeof
 4254              		.loc 1 1205 13 view .LVU1205
 4255 0344 3446     		mov	r4, r6
 4256 0346 0021     		movs	r1, #0
 4257 0348 3160     		str	r1, [r6]
 4258 034a 7160     		str	r1, [r6, #4]
1206:System/diskio/DiskIO.c ****             ((Disk_CCSSFFAT_TypeDef *)Disk_Card_SectionBuff)->attribute[0].name[0] = '.';
 4259              		.loc 1 1206 13 view .LVU1206
 4260 034c 3181     		strh	r1, [r6, #8]	@ movhi
 4261 034e B172     		strb	r1, [r6, #10]
1207:System/diskio/DiskIO.c **** 
 4262              		.loc 1 1207 13 view .LVU1207
1207:System/diskio/DiskIO.c **** 
 4263              		.loc 1 1207 84 is_stmt 0 view .LVU1208
 4264 0350 2E26     		movs	r6, #46
 4265 0352 2670     		strb	r6, [r4]
1209:System/diskio/DiskIO.c ****             memcpy(Disk_Card_SectionBuff, &(((Disk_CCSSFFAT_TypeDef *)Disk_Card_SectionBuff)->attri
 4266              		.loc 1 1209 13 is_stmt 1 view .LVU1209
 4267 0354 4FF40072 		mov	r2, #512
 4268 0358 2046     		mov	r0, r4
 4269 035a FFF7FEFF 		bl	memset
 4270              	.LVL428:
1210:System/diskio/DiskIO.c **** 
 4271              		.loc 1 1210 13 view .LVU1210
1212:System/diskio/DiskIO.c **** 
 4272              		.loc 1 1212 13 view .LVU1211
1212:System/diskio/DiskIO.c **** 
 4273              		.loc 1 1212 84 is_stmt 0 view .LVU1212
ARM GAS  C:\Users\huav\AppData\Local\Temp\cclD56Oe.s 			page 121


 4274 035e 6670     		strb	r6, [r4, #1]
1214:System/diskio/DiskIO.c ****             {
 4275              		.loc 1 1214 13 is_stmt 1 view .LVU1213
1214:System/diskio/DiskIO.c ****             {
 4276              		.loc 1 1214 16 is_stmt 0 view .LVU1214
 4277 0360 022F     		cmp	r7, #2
 4278 0362 06D9     		bls	.L255
1216:System/diskio/DiskIO.c ****                 ((Disk_CCSSFFAT_TypeDef *)Disk_Card_SectionBuff)->attribute[0].HighCluster[1] = tar
 4279              		.loc 1 1216 17 is_stmt 1 view .LVU1215
1216:System/diskio/DiskIO.c ****                 ((Disk_CCSSFFAT_TypeDef *)Disk_Card_SectionBuff)->attribute[0].HighCluster[1] = tar
 4280              		.loc 1 1216 117 is_stmt 0 view .LVU1216
 4281 0364 3A0C     		lsrs	r2, r7, #16
1216:System/diskio/DiskIO.c ****                 ((Disk_CCSSFFAT_TypeDef *)Disk_Card_SectionBuff)->attribute[0].HighCluster[1] = tar
 4282              		.loc 1 1216 95 view .LVU1217
 4283 0366 2275     		strb	r2, [r4, #20]
1217:System/diskio/DiskIO.c ****                 ((Disk_CCSSFFAT_TypeDef *)Disk_Card_SectionBuff)->attribute[0].LowCluster[0] = targ
 4284              		.loc 1 1217 17 is_stmt 1 view .LVU1218
1217:System/diskio/DiskIO.c ****                 ((Disk_CCSSFFAT_TypeDef *)Disk_Card_SectionBuff)->attribute[0].LowCluster[0] = targ
 4285              		.loc 1 1217 117 is_stmt 0 view .LVU1219
 4286 0368 3A0E     		lsrs	r2, r7, #24
1217:System/diskio/DiskIO.c ****                 ((Disk_CCSSFFAT_TypeDef *)Disk_Card_SectionBuff)->attribute[0].LowCluster[0] = targ
 4287              		.loc 1 1217 95 view .LVU1220
 4288 036a 6275     		strb	r2, [r4, #21]
1218:System/diskio/DiskIO.c ****                 ((Disk_CCSSFFAT_TypeDef *)Disk_Card_SectionBuff)->attribute[0].LowCluster[1] = targ
 4289              		.loc 1 1218 17 is_stmt 1 view .LVU1221
1218:System/diskio/DiskIO.c ****                 ((Disk_CCSSFFAT_TypeDef *)Disk_Card_SectionBuff)->attribute[0].LowCluster[1] = targ
 4290              		.loc 1 1218 94 is_stmt 0 view .LVU1222
 4291 036c A776     		strb	r7, [r4, #26]
1219:System/diskio/DiskIO.c ****             }
 4292              		.loc 1 1219 17 is_stmt 1 view .LVU1223
1219:System/diskio/DiskIO.c ****             }
 4293              		.loc 1 1219 116 is_stmt 0 view .LVU1224
 4294 036e 3F0A     		lsrs	r7, r7, #8
 4295              	.LVL429:
1219:System/diskio/DiskIO.c ****             }
 4296              		.loc 1 1219 94 view .LVU1225
 4297 0370 E776     		strb	r7, [r4, #27]
 4298              	.L255:
1229:System/diskio/DiskIO.c **** 
 4299              		.loc 1 1229 13 is_stmt 1 view .LVU1226
 4300 0372 114F     		ldr	r7, .L267+4
 4301 0374 07F12004 		add	r4, r7, #32
 4302 0378 3E46     		mov	r6, r7
 4303 037a 0FCE     		ldmia	r6!, {r0, r1, r2, r3}
 4304 037c 0FC4     		stmia	r4!, {r0, r1, r2, r3}
 4305 037e 96E80F00 		ldm	r6, {r0, r1, r2, r3}
 4306 0382 84E80F00 		stm	r4, {r0, r1, r2, r3}
1231:System/diskio/DiskIO.c ****             DevCard.write(&DevTFCard_Obj.SDMMC_Obj, sec_id, Disk_Card_SectionBuff, sizeof(Disk_CCSS
 4307              		.loc 1 1231 13 view .LVU1227
1231:System/diskio/DiskIO.c ****             DevCard.write(&DevTFCard_Obj.SDMMC_Obj, sec_id, Disk_Card_SectionBuff, sizeof(Disk_CCSS
 4308              		.loc 1 1231 22 is_stmt 0 view .LVU1228
 4309 0386 D5F8BB10 		ldr	r1, [r5, #187]	@ unaligned
 4310 038a 2846     		mov	r0, r5
 4311 038c FFF7FEFF 		bl	Disk_Get_StartSectionOfCluster
 4312              	.LVL430:
 4313 0390 0146     		mov	r1, r0
 4314              	.LVL431:
ARM GAS  C:\Users\huav\AppData\Local\Temp\cclD56Oe.s 			page 122


1232:System/diskio/DiskIO.c **** 
 4315              		.loc 1 1232 13 is_stmt 1 view .LVU1229
1232:System/diskio/DiskIO.c **** 
 4316              		.loc 1 1232 20 is_stmt 0 view .LVU1230
 4317 0392 0A4B     		ldr	r3, .L267+8
 4318 0394 9C69     		ldr	r4, [r3, #24]
1232:System/diskio/DiskIO.c **** 
 4319              		.loc 1 1232 13 view .LVU1231
 4320 0396 0123     		movs	r3, #1
 4321 0398 0093     		str	r3, [sp]
 4322 039a 4FF40073 		mov	r3, #512
 4323 039e 3A46     		mov	r2, r7
 4324 03a0 0448     		ldr	r0, .L267
 4325              	.LVL432:
1232:System/diskio/DiskIO.c **** 
 4326              		.loc 1 1232 13 view .LVU1232
 4327 03a2 A047     		blx	r4
 4328              	.LVL433:
1234:System/diskio/DiskIO.c **** 
 4329              		.loc 1 1234 13 is_stmt 1 view .LVU1233
1237:System/diskio/DiskIO.c ****         }
 4330              		.loc 1 1237 13 view .LVU1234
 4331 03a4 2846     		mov	r0, r5
 4332 03a6 FFF7FEFF 		bl	Disk_Update_FreeCluster
 4333              	.LVL434:
1241:System/diskio/DiskIO.c **** }
 4334              		.loc 1 1241 12 is_stmt 0 view .LVU1235
 4335 03aa 0020     		movs	r0, #0
 4336 03ac EAE6     		b	.L240
 4337              	.LVL435:
 4338              	.L264:
 4339              	.LBB28:
 4340              	.LBB25:
1108:System/diskio/DiskIO.c ****                 }
 4341              		.loc 1 1108 32 view .LVU1236
 4342 03ae 3846     		mov	r0, r7
 4343 03b0 E8E6     		b	.L240
 4344              	.L268:
 4345 03b2 00BF     		.align	2
 4346              	.L267:
 4347 03b4 00000000 		.word	.LANCHOR0
 4348 03b8 00000000 		.word	.LANCHOR1
 4349 03bc 00000000 		.word	DevCard
 4350              	.LBE25:
 4351              	.LBE28:
 4352              		.cfi_endproc
 4353              	.LFE169:
 4355              		.section	.text.Disk_Create_Folder,"ax",%progbits
 4356              		.align	1
 4357              		.syntax unified
 4358              		.thumb
 4359              		.thumb_func
 4360              		.fpu fpv5-d16
 4362              	Disk_Create_Folder:
 4363              	.LVL436:
 4364              	.LFB170:
1246:System/diskio/DiskIO.c ****     char name_tmp[9];
ARM GAS  C:\Users\huav\AppData\Local\Temp\cclD56Oe.s 			page 123


 4365              		.loc 1 1246 1 is_stmt 1 view -0
 4366              		.cfi_startproc
 4367              		@ args = 0, pretend = 0, frame = 16
 4368              		@ frame_needed = 0, uses_anonymous_args = 0
1246:System/diskio/DiskIO.c ****     char name_tmp[9];
 4369              		.loc 1 1246 1 is_stmt 0 view .LVU1238
 4370 0000 2DE9F041 		push	{r4, r5, r6, r7, r8, lr}
 4371              	.LCFI79:
 4372              		.cfi_def_cfa_offset 24
 4373              		.cfi_offset 4, -24
 4374              		.cfi_offset 5, -20
 4375              		.cfi_offset 6, -16
 4376              		.cfi_offset 7, -12
 4377              		.cfi_offset 8, -8
 4378              		.cfi_offset 14, -4
 4379 0004 84B0     		sub	sp, sp, #16
 4380              	.LCFI80:
 4381              		.cfi_def_cfa_offset 40
 4382 0006 8046     		mov	r8, r0
 4383 0008 0E46     		mov	r6, r1
 4384 000a 1546     		mov	r5, r2
1247:System/diskio/DiskIO.c ****     uint32_t layer = 0;
 4385              		.loc 1 1247 5 is_stmt 1 view .LVU1239
1248:System/diskio/DiskIO.c ****     uint32_t name_index = 0;
 4386              		.loc 1 1248 5 view .LVU1240
 4387              	.LVL437:
1249:System/diskio/DiskIO.c ****     FATCluster_Addr cluster_tmp = cluster;
 4388              		.loc 1 1249 5 view .LVU1241
1250:System/diskio/DiskIO.c **** 
 4389              		.loc 1 1250 5 view .LVU1242
1253:System/diskio/DiskIO.c **** 
 4390              		.loc 1 1253 5 view .LVU1243
1253:System/diskio/DiskIO.c **** 
 4391              		.loc 1 1253 13 is_stmt 0 view .LVU1244
 4392 000c 0846     		mov	r0, r1
 4393              	.LVL438:
1253:System/diskio/DiskIO.c **** 
 4394              		.loc 1 1253 13 view .LVU1245
 4395 000e FFF7FEFF 		bl	Disk_GetPath_Layer
 4396              	.LVL439:
1253:System/diskio/DiskIO.c **** 
 4397              		.loc 1 1253 13 view .LVU1246
 4398 0012 0746     		mov	r7, r0
 4399              	.LVL440:
1255:System/diskio/DiskIO.c ****     {
 4400              		.loc 1 1255 5 is_stmt 1 view .LVU1247
1255:System/diskio/DiskIO.c ****     {
 4401              		.loc 1 1255 21 is_stmt 0 view .LVU1248
 4402 0014 0024     		movs	r4, #0
1255:System/diskio/DiskIO.c ****     {
 4403              		.loc 1 1255 5 view .LVU1249
 4404 0016 08E0     		b	.L270
 4405              	.LVL441:
 4406              	.L279:
1277:System/diskio/DiskIO.c ****     }
 4407              		.loc 1 1277 9 is_stmt 1 discriminator 2 view .LVU1250
1277:System/diskio/DiskIO.c ****     }
ARM GAS  C:\Users\huav\AppData\Local\Temp\cclD56Oe.s 			page 124


 4408              		.loc 1 1277 33 is_stmt 0 discriminator 2 view .LVU1251
 4409 0018 3046     		mov	r0, r6
 4410              	.LVL442:
1277:System/diskio/DiskIO.c ****     }
 4411              		.loc 1 1277 33 discriminator 2 view .LVU1252
 4412 001a FFF7FEFF 		bl	strlen
 4413              	.LVL443:
1277:System/diskio/DiskIO.c ****     }
 4414              		.loc 1 1277 9 discriminator 2 view .LVU1253
 4415 001e 421C     		adds	r2, r0, #1
 4416 0020 0021     		movs	r1, #0
 4417 0022 01A8     		add	r0, sp, #4
 4418 0024 FFF7FEFF 		bl	memset
 4419              	.LVL444:
1255:System/diskio/DiskIO.c ****     {
 4420              		.loc 1 1255 46 is_stmt 1 discriminator 2 view .LVU1254
1255:System/diskio/DiskIO.c ****     {
 4421              		.loc 1 1255 56 is_stmt 0 discriminator 2 view .LVU1255
 4422 0028 0134     		adds	r4, r4, #1
 4423              	.LVL445:
 4424              	.L270:
1255:System/diskio/DiskIO.c ****     {
 4425              		.loc 1 1255 26 is_stmt 1 discriminator 1 view .LVU1256
1255:System/diskio/DiskIO.c ****     {
 4426              		.loc 1 1255 5 is_stmt 0 discriminator 1 view .LVU1257
 4427 002a BC42     		cmp	r4, r7
 4428 002c 1AD2     		bcs	.L278
1257:System/diskio/DiskIO.c **** 
 4429              		.loc 1 1257 9 is_stmt 1 view .LVU1258
 4430 002e 0023     		movs	r3, #0
 4431 0030 0193     		str	r3, [sp, #4]
 4432 0032 0293     		str	r3, [sp, #8]
 4433 0034 8DF80C30 		strb	r3, [sp, #12]
1260:System/diskio/DiskIO.c ****         {
 4434              		.loc 1 1260 9 view .LVU1259
1260:System/diskio/DiskIO.c ****         {
 4435              		.loc 1 1260 13 is_stmt 0 view .LVU1260
 4436 0038 01AA     		add	r2, sp, #4
 4437 003a 2146     		mov	r1, r4
 4438 003c 3046     		mov	r0, r6
 4439 003e FFF7FEFF 		bl	Disk_GetFolderName_ByIndex
 4440              	.LVL446:
1260:System/diskio/DiskIO.c ****         {
 4441              		.loc 1 1260 12 view .LVU1261
 4442 0042 98B1     		cbz	r0, .L273
1263:System/diskio/DiskIO.c ****                 return 0;
 4443              		.loc 1 1263 13 is_stmt 1 view .LVU1262
1263:System/diskio/DiskIO.c ****                 return 0;
 4444              		.loc 1 1263 18 is_stmt 0 view .LVU1263
 4445 0044 01A8     		add	r0, sp, #4
 4446 0046 FFF7FEFF 		bl	Disk_SFN_LegallyCheck
 4447              	.LVL447:
1263:System/diskio/DiskIO.c ****                 return 0;
 4448              		.loc 1 1263 16 view .LVU1264
 4449 004a 88B1     		cbz	r0, .L274
1266:System/diskio/DiskIO.c **** 
 4450              		.loc 1 1266 13 is_stmt 1 view .LVU1265
ARM GAS  C:\Users\huav\AppData\Local\Temp\cclD56Oe.s 			page 125


1266:System/diskio/DiskIO.c **** 
 4451              		.loc 1 1266 27 is_stmt 0 view .LVU1266
 4452 004c 2B46     		mov	r3, r5
 4453 004e 01AA     		add	r2, sp, #4
 4454 0050 0221     		movs	r1, #2
 4455 0052 4046     		mov	r0, r8
 4456 0054 FFF7FEFF 		bl	Disk_WriteTo_TargetFFTable
 4457              	.LVL448:
1268:System/diskio/DiskIO.c ****                 return 0;
 4458              		.loc 1 1268 13 is_stmt 1 view .LVU1267
1268:System/diskio/DiskIO.c ****                 return 0;
 4459              		.loc 1 1268 16 is_stmt 0 view .LVU1268
 4460 0058 0546     		mov	r5, r0
 4461 005a 20B1     		cbz	r0, .L269
1271:System/diskio/DiskIO.c ****                 return cluster_tmp;
 4462              		.loc 1 1271 13 is_stmt 1 view .LVU1269
1271:System/diskio/DiskIO.c ****                 return cluster_tmp;
 4463              		.loc 1 1271 37 is_stmt 0 view .LVU1270
 4464 005c 7B1E     		subs	r3, r7, #1
1271:System/diskio/DiskIO.c ****                 return cluster_tmp;
 4465              		.loc 1 1271 16 view .LVU1271
 4466 005e A342     		cmp	r3, r4
 4467 0060 DAD1     		bne	.L279
 4468 0062 00E0     		b	.L269
 4469              	.LVL449:
 4470              	.L278:
1280:System/diskio/DiskIO.c **** }
 4471              		.loc 1 1280 12 view .LVU1272
 4472 0064 0020     		movs	r0, #0
 4473              	.L269:
1281:System/diskio/DiskIO.c **** 
 4474              		.loc 1 1281 1 view .LVU1273
 4475 0066 04B0     		add	sp, sp, #16
 4476              	.LCFI81:
 4477              		.cfi_remember_state
 4478              		.cfi_def_cfa_offset 24
 4479              		@ sp needed
 4480 0068 BDE8F081 		pop	{r4, r5, r6, r7, r8, pc}
 4481              	.LVL450:
 4482              	.L273:
 4483              	.LCFI82:
 4484              		.cfi_restore_state
1275:System/diskio/DiskIO.c **** 
 4485              		.loc 1 1275 20 view .LVU1274
 4486 006c 0020     		movs	r0, #0
 4487 006e FAE7     		b	.L269
 4488              	.L274:
1264:System/diskio/DiskIO.c **** 
 4489              		.loc 1 1264 24 view .LVU1275
 4490 0070 0020     		movs	r0, #0
 4491 0072 F8E7     		b	.L269
 4492              		.cfi_endproc
 4493              	.LFE170:
 4495              		.section	.text.Disk_Create,"ax",%progbits
 4496              		.align	1
 4497              		.syntax unified
 4498              		.thumb
ARM GAS  C:\Users\huav\AppData\Local\Temp\cclD56Oe.s 			page 126


 4499              		.thumb_func
 4500              		.fpu fpv5-d16
 4502              	Disk_Create:
 4503              	.LVL451:
 4504              	.LFB171:
1289:System/diskio/DiskIO.c ****     FATCluster_Addr target_file_cluster = 2;
 4505              		.loc 1 1289 1 is_stmt 1 view -0
 4506              		.cfi_startproc
 4507              		@ args = 0, pretend = 0, frame = 0
 4508              		@ frame_needed = 0, uses_anonymous_args = 0
1289:System/diskio/DiskIO.c ****     FATCluster_Addr target_file_cluster = 2;
 4509              		.loc 1 1289 1 is_stmt 0 view .LVU1277
 4510 0000 70B5     		push	{r4, r5, r6, lr}
 4511              	.LCFI83:
 4512              		.cfi_def_cfa_offset 16
 4513              		.cfi_offset 4, -16
 4514              		.cfi_offset 5, -12
 4515              		.cfi_offset 6, -8
 4516              		.cfi_offset 14, -4
1290:System/diskio/DiskIO.c **** 
 4517              		.loc 1 1290 5 is_stmt 1 view .LVU1278
 4518              	.LVL452:
1292:System/diskio/DiskIO.c ****         return 0;
 4519              		.loc 1 1292 5 view .LVU1279
1292:System/diskio/DiskIO.c ****         return 0;
 4520              		.loc 1 1292 8 is_stmt 0 view .LVU1280
 4521 0002 0029     		cmp	r1, #0
 4522 0004 08BF     		it	eq
 4523 0006 002A     		cmpeq	r2, #0
 4524 0008 19D0     		beq	.L283
 4525 000a 0446     		mov	r4, r0
 4526 000c 1646     		mov	r6, r2
1296:System/diskio/DiskIO.c ****     {
 4527              		.loc 1 1296 5 is_stmt 1 view .LVU1281
1296:System/diskio/DiskIO.c ****     {
 4528              		.loc 1 1296 8 is_stmt 0 view .LVU1282
 4529 000e 29B1     		cbz	r1, .L284
1298:System/diskio/DiskIO.c **** 
 4530              		.loc 1 1298 9 is_stmt 1 view .LVU1283
1298:System/diskio/DiskIO.c **** 
 4531              		.loc 1 1298 31 is_stmt 0 view .LVU1284
 4532 0010 0222     		movs	r2, #2
 4533              	.LVL453:
1298:System/diskio/DiskIO.c **** 
 4534              		.loc 1 1298 31 view .LVU1285
 4535 0012 FFF7FEFF 		bl	Disk_Create_Folder
 4536              	.LVL454:
1301:System/diskio/DiskIO.c ****             return 0;
 4537              		.loc 1 1301 9 is_stmt 1 view .LVU1286
1301:System/diskio/DiskIO.c ****             return 0;
 4538              		.loc 1 1301 12 is_stmt 0 view .LVU1287
 4539 0016 0546     		mov	r5, r0
 4540 0018 08B9     		cbnz	r0, .L282
 4541 001a 11E0     		b	.L280
 4542              	.LVL455:
 4543              	.L284:
1290:System/diskio/DiskIO.c **** 
ARM GAS  C:\Users\huav\AppData\Local\Temp\cclD56Oe.s 			page 127


 4544              		.loc 1 1290 21 view .LVU1288
 4545 001c 0225     		movs	r5, #2
 4546              	.LVL456:
 4547              	.L282:
1306:System/diskio/DiskIO.c ****     {
 4548              		.loc 1 1306 5 is_stmt 1 view .LVU1289
1306:System/diskio/DiskIO.c ****     {
 4549              		.loc 1 1306 8 is_stmt 0 view .LVU1290
 4550 001e 7EB1     		cbz	r6, .L280
1309:System/diskio/DiskIO.c ****             return 0;
 4551              		.loc 1 1309 9 is_stmt 1 view .LVU1291
1309:System/diskio/DiskIO.c ****             return 0;
 4552              		.loc 1 1309 13 is_stmt 0 view .LVU1292
 4553 0020 3046     		mov	r0, r6
 4554 0022 FFF7FEFF 		bl	strlen
 4555              	.LVL457:
1309:System/diskio/DiskIO.c ****             return 0;
 4556              		.loc 1 1309 12 view .LVU1293
 4557 0026 0C28     		cmp	r0, #12
 4558 0028 01D9     		bls	.L287
1310:System/diskio/DiskIO.c **** 
 4559              		.loc 1 1310 20 view .LVU1294
 4560 002a 0025     		movs	r5, #0
 4561              	.LVL458:
1310:System/diskio/DiskIO.c **** 
 4562              		.loc 1 1310 20 view .LVU1295
 4563 002c 08E0     		b	.L280
 4564              	.LVL459:
 4565              	.L287:
1312:System/diskio/DiskIO.c **** 
 4566              		.loc 1 1312 9 is_stmt 1 view .LVU1296
1312:System/diskio/DiskIO.c **** 
 4567              		.loc 1 1312 31 is_stmt 0 view .LVU1297
 4568 002e 2B46     		mov	r3, r5
 4569 0030 3246     		mov	r2, r6
 4570 0032 0121     		movs	r1, #1
 4571 0034 2046     		mov	r0, r4
 4572 0036 FFF7FEFF 		bl	Disk_WriteTo_TargetFFTable
 4573              	.LVL460:
 4574 003a 0546     		mov	r5, r0
 4575              	.LVL461:
1314:System/diskio/DiskIO.c ****             return 0;
 4576              		.loc 1 1314 9 is_stmt 1 view .LVU1298
 4577 003c 00E0     		b	.L280
 4578              	.LVL462:
 4579              	.L283:
1293:System/diskio/DiskIO.c **** 
 4580              		.loc 1 1293 16 is_stmt 0 view .LVU1299
 4581 003e 0025     		movs	r5, #0
 4582              	.LVL463:
 4583              	.L280:
1319:System/diskio/DiskIO.c **** 
 4584              		.loc 1 1319 1 view .LVU1300
 4585 0040 2846     		mov	r0, r5
 4586 0042 70BD     		pop	{r4, r5, r6, pc}
 4587              		.cfi_endproc
 4588              	.LFE171:
ARM GAS  C:\Users\huav\AppData\Local\Temp\cclD56Oe.s 			page 128


 4590              		.section	.rodata.Disk_Init.str1.4,"aMS",%progbits,1
 4591              		.align	2
 4592              	.LC8:
 4593 0000 44657643 		.ascii	"DevCard_Error\000"
 4593      6172645F 
 4593      4572726F 
 4593      7200
 4594 000e 0000     		.align	2
 4595              	.LC9:
 4596 0010 4469736B 		.ascii	"Disk Init Done\015\012\000"
 4596      20496E69 
 4596      7420446F 
 4596      6E650D0A 
 4596      00
 4597 0021 000000   		.align	2
 4598              	.LC10:
 4599 0024 20202020 		.ascii	"    [Card Info] BlockNbr:     %d\015\012\000"
 4599      5B436172 
 4599      6420496E 
 4599      666F5D20 
 4599      426C6F63 
 4600 0047 00       		.align	2
 4601              	.LC11:
 4602 0048 20202020 		.ascii	"    [Card Info] BlockSize:    %d\015\012\000"
 4602      5B436172 
 4602      6420496E 
 4602      666F5D20 
 4602      426C6F63 
 4603 006b 00       		.align	2
 4604              	.LC12:
 4605 006c 20202020 		.ascii	"    [Card Info] CardSpeed:    %d\015\012\000"
 4605      5B436172 
 4605      6420496E 
 4605      666F5D20 
 4605      43617264 
 4606 008f 00       		.align	2
 4607              	.LC13:
 4608 0090 20202020 		.ascii	"    [Card Info] CardType:     %d\015\012\000"
 4608      5B436172 
 4608      6420496E 
 4608      666F5D20 
 4608      43617264 
 4609 00b3 00       		.align	2
 4610              	.LC14:
 4611 00b4 20202020 		.ascii	"    [Card Info] CardVersion:  %d\015\012\000"
 4611      5B436172 
 4611      6420496E 
 4611      666F5D20 
 4611      43617264 
 4612 00d7 00       		.align	2
 4613              	.LC15:
 4614 00d8 20202020 		.ascii	"    [Card Info] Class:        %d\015\012\000"
 4614      5B436172 
 4614      6420496E 
 4614      666F5D20 
 4614      436C6173 
 4615 00fb 00       		.align	2
ARM GAS  C:\Users\huav\AppData\Local\Temp\cclD56Oe.s 			page 129


 4616              	.LC16:
 4617 00fc 20202020 		.ascii	"    [Card Info] LogBlockNbr:  %d\015\012\000"
 4617      5B436172 
 4617      6420496E 
 4617      666F5D20 
 4617      4C6F6742 
 4618 011f 00       		.align	2
 4619              	.LC17:
 4620 0120 20202020 		.ascii	"    [Card Info] LogBlockSize: %d\015\012\000"
 4620      5B436172 
 4620      6420496E 
 4620      666F5D20 
 4620      4C6F6742 
 4621 0143 00       		.align	2
 4622              	.LC18:
 4623 0144 20202020 		.ascii	"    [Card Info] RelCardAdd:   %d\015\012\000"
 4623      5B436172 
 4623      6420496E 
 4623      666F5D20 
 4623      52656C43 
 4624 0167 00       		.align	2
 4625              	.LC19:
 4626 0168 0D0A00   		.ascii	"\015\012\000"
 4627 016b 00       		.align	2
 4628              	.LC20:
 4629 016c 74657374 		.ascii	"test4/\000"
 4629      342F00
 4630 0173 00       		.align	2
 4631              	.LC21:
 4632 0174 74657374 		.ascii	"test5/\000"
 4632      352F00
 4633 017b 00       		.align	2
 4634              	.LC22:
 4635 017c 74657374 		.ascii	"test6/\000"
 4635      362F00
 4636 0183 00       		.align	2
 4637              	.LC23:
 4638 0184 74657374 		.ascii	"test.txt\000"
 4638      2E747874 
 4638      00
 4639 018d 000000   		.align	2
 4640              	.LC24:
 4641 0190 74657374 		.ascii	"test1/test2/test3/\000"
 4641      312F7465 
 4641      7374322F 
 4641      74657374 
 4641      332F00
 4642              		.section	.text.Disk_Init,"ax",%progbits
 4643              		.align	1
 4644              		.global	Disk_Init
 4645              		.syntax unified
 4646              		.thumb
 4647              		.thumb_func
 4648              		.fpu fpv5-d16
 4650              	Disk_Init:
 4651              	.LVL464:
 4652              	.LFB148:
ARM GAS  C:\Users\huav\AppData\Local\Temp\cclD56Oe.s 			page 130


 226:System/diskio/DiskIO.c ****     memset(&Disk_Info, NULL, sizeof(Disk_Info));
 4653              		.loc 1 226 1 is_stmt 1 view -0
 4654              		.cfi_startproc
 4655              		@ args = 0, pretend = 0, frame = 536
 4656              		@ frame_needed = 0, uses_anonymous_args = 0
 226:System/diskio/DiskIO.c ****     memset(&Disk_Info, NULL, sizeof(Disk_Info));
 4657              		.loc 1 226 1 is_stmt 0 view .LVU1302
 4658 0000 70B5     		push	{r4, r5, r6, lr}
 4659              	.LCFI84:
 4660              		.cfi_def_cfa_offset 16
 4661              		.cfi_offset 4, -16
 4662              		.cfi_offset 5, -12
 4663              		.cfi_offset 6, -8
 4664              		.cfi_offset 14, -4
 4665 0002 ADF5067D 		sub	sp, sp, #536
 4666              	.LCFI85:
 4667              		.cfi_def_cfa_offset 552
 227:System/diskio/DiskIO.c **** 
 4668              		.loc 1 227 5 is_stmt 1 view .LVU1303
 4669 0006 4F4B     		ldr	r3, .L292
 4670 0008 0022     		movs	r2, #0
 4671 000a 1A60     		str	r2, [r3]
 4672 000c 1A71     		strb	r2, [r3, #4]
 230:System/diskio/DiskIO.c **** 
 4673              		.loc 1 230 5 view .LVU1304
 230:System/diskio/DiskIO.c **** 
 4674              		.loc 1 230 19 is_stmt 0 view .LVU1305
 4675 000e 4E4B     		ldr	r3, .L292+4
 4676 0010 1860     		str	r0, [r3]
 239:System/diskio/DiskIO.c ****     /* regist all error to the error tree */
 4677              		.loc 1 239 5 is_stmt 1 view .LVU1306
 239:System/diskio/DiskIO.c ****     /* regist all error to the error tree */
 4678              		.loc 1 239 36 is_stmt 0 view .LVU1307
 4679 0012 4E4C     		ldr	r4, .L292+8
 4680 0014 2368     		ldr	r3, [r4]
 239:System/diskio/DiskIO.c ****     /* regist all error to the error tree */
 4681              		.loc 1 239 28 view .LVU1308
 4682 0016 4E48     		ldr	r0, .L292+12
 4683              	.LVL465:
 239:System/diskio/DiskIO.c ****     /* regist all error to the error tree */
 4684              		.loc 1 239 28 view .LVU1309
 4685 0018 9847     		blx	r3
 4686              	.LVL466:
 239:System/diskio/DiskIO.c ****     /* regist all error to the error tree */
 4687              		.loc 1 239 26 view .LVU1310
 4688 001a 4E4B     		ldr	r3, .L292+16
 4689 001c 1860     		str	r0, [r3]
 241:System/diskio/DiskIO.c **** 
 4690              		.loc 1 241 5 is_stmt 1 view .LVU1311
 241:System/diskio/DiskIO.c **** 
 4691              		.loc 1 241 13 is_stmt 0 view .LVU1312
 4692 001e 6368     		ldr	r3, [r4, #4]
 241:System/diskio/DiskIO.c **** 
 4693              		.loc 1 241 5 view .LVU1313
 4694 0020 0322     		movs	r2, #3
 4695 0022 4D49     		ldr	r1, .L292+20
 4696 0024 9847     		blx	r3
ARM GAS  C:\Users\huav\AppData\Local\Temp\cclD56Oe.s 			page 131


 4697              	.LVL467:
 243:System/diskio/DiskIO.c ****         return false;
 4698              		.loc 1 243 5 is_stmt 1 view .LVU1314
 243:System/diskio/DiskIO.c ****         return false;
 4699              		.loc 1 243 10 is_stmt 0 view .LVU1315
 4700 0026 FFF7FEFF 		bl	ExtDisk_Init
 4701              	.LVL468:
 243:System/diskio/DiskIO.c ****         return false;
 4702              		.loc 1 243 8 view .LVU1316
 4703 002a 0546     		mov	r5, r0
 4704 002c 18B9     		cbnz	r0, .L291
 4705              	.L289:
 291:System/diskio/DiskIO.c **** 
 4706              		.loc 1 291 1 view .LVU1317
 4707 002e 2846     		mov	r0, r5
 4708 0030 0DF5067D 		add	sp, sp, #536
 4709              	.LCFI86:
 4710              		.cfi_remember_state
 4711              		.cfi_def_cfa_offset 16
 4712              		@ sp needed
 4713 0034 70BD     		pop	{r4, r5, r6, pc}
 4714              	.L291:
 4715              	.LCFI87:
 4716              		.cfi_restore_state
 247:System/diskio/DiskIO.c **** 
 4717              		.loc 1 247 5 is_stmt 1 view .LVU1318
 4718 0036 4948     		ldr	r0, .L292+24
 4719 0038 FFF7FEFF 		bl	Disk_Printf
 4720              	.LVL469:
 250:System/diskio/DiskIO.c ****     Disk_Printf("    [Card Info] BlockSize:    %d\r\n", Disk_GetCard_Info().BlockSize);
 4721              		.loc 1 250 5 view .LVU1319
 250:System/diskio/DiskIO.c ****     Disk_Printf("    [Card Info] BlockSize:    %d\r\n", Disk_GetCard_Info().BlockSize);
 4722              		.loc 1 250 57 is_stmt 0 view .LVU1320
 4723 003c 01A8     		add	r0, sp, #4
 4724 003e FFF7FEFF 		bl	Disk_GetCard_Info
 4725              	.LVL470:
 250:System/diskio/DiskIO.c ****     Disk_Printf("    [Card Info] BlockSize:    %d\r\n", Disk_GetCard_Info().BlockSize);
 4726              		.loc 1 250 5 view .LVU1321
 4727 0042 DDF81510 		ldr	r1, [sp, #21]	@ unaligned
 4728 0046 4648     		ldr	r0, .L292+28
 4729 0048 FFF7FEFF 		bl	Disk_Printf
 4730              	.LVL471:
 251:System/diskio/DiskIO.c ****     Disk_Printf("    [Card Info] CardSpeed:    %d\r\n", Disk_GetCard_Info().CardSpeed);
 4731              		.loc 1 251 5 is_stmt 1 view .LVU1322
 251:System/diskio/DiskIO.c ****     Disk_Printf("    [Card Info] CardSpeed:    %d\r\n", Disk_GetCard_Info().CardSpeed);
 4732              		.loc 1 251 57 is_stmt 0 view .LVU1323
 4733 004c 0DA8     		add	r0, sp, #52
 4734 004e FFF7FEFF 		bl	Disk_GetCard_Info
 4735              	.LVL472:
 251:System/diskio/DiskIO.c ****     Disk_Printf("    [Card Info] CardSpeed:    %d\r\n", Disk_GetCard_Info().CardSpeed);
 4736              		.loc 1 251 5 view .LVU1324
 4737 0052 DDF84910 		ldr	r1, [sp, #73]	@ unaligned
 4738 0056 4348     		ldr	r0, .L292+32
 4739 0058 FFF7FEFF 		bl	Disk_Printf
 4740              	.LVL473:
 252:System/diskio/DiskIO.c ****     Disk_Printf("    [Card Info] CardType:     %d\r\n", Disk_GetCard_Info().CardType);
 4741              		.loc 1 252 5 is_stmt 1 view .LVU1325
ARM GAS  C:\Users\huav\AppData\Local\Temp\cclD56Oe.s 			page 132


 252:System/diskio/DiskIO.c ****     Disk_Printf("    [Card Info] CardType:     %d\r\n", Disk_GetCard_Info().CardType);
 4742              		.loc 1 252 57 is_stmt 0 view .LVU1326
 4743 005c 19A8     		add	r0, sp, #100
 4744 005e FFF7FEFF 		bl	Disk_GetCard_Info
 4745              	.LVL474:
 252:System/diskio/DiskIO.c ****     Disk_Printf("    [Card Info] CardType:     %d\r\n", Disk_GetCard_Info().CardType);
 4746              		.loc 1 252 5 view .LVU1327
 4747 0062 DDF88510 		ldr	r1, [sp, #133]	@ unaligned
 4748 0066 4048     		ldr	r0, .L292+36
 4749 0068 FFF7FEFF 		bl	Disk_Printf
 4750              	.LVL475:
 253:System/diskio/DiskIO.c ****     Disk_Printf("    [Card Info] CardVersion:  %d\r\n", Disk_GetCard_Info().CardVersion);
 4751              		.loc 1 253 5 is_stmt 1 view .LVU1328
 253:System/diskio/DiskIO.c ****     Disk_Printf("    [Card Info] CardVersion:  %d\r\n", Disk_GetCard_Info().CardVersion);
 4752              		.loc 1 253 57 is_stmt 0 view .LVU1329
 4753 006c 25A8     		add	r0, sp, #148
 4754 006e FFF7FEFF 		bl	Disk_GetCard_Info
 4755              	.LVL476:
 253:System/diskio/DiskIO.c ****     Disk_Printf("    [Card Info] CardVersion:  %d\r\n", Disk_GetCard_Info().CardVersion);
 4756              		.loc 1 253 5 view .LVU1330
 4757 0072 DDF89510 		ldr	r1, [sp, #149]	@ unaligned
 4758 0076 3D48     		ldr	r0, .L292+40
 4759 0078 FFF7FEFF 		bl	Disk_Printf
 4760              	.LVL477:
 254:System/diskio/DiskIO.c ****     Disk_Printf("    [Card Info] Class:        %d\r\n", Disk_GetCard_Info().Class);
 4761              		.loc 1 254 5 is_stmt 1 view .LVU1331
 254:System/diskio/DiskIO.c ****     Disk_Printf("    [Card Info] Class:        %d\r\n", Disk_GetCard_Info().Class);
 4762              		.loc 1 254 57 is_stmt 0 view .LVU1332
 4763 007c 31A8     		add	r0, sp, #196
 4764 007e FFF7FEFF 		bl	Disk_GetCard_Info
 4765              	.LVL478:
 254:System/diskio/DiskIO.c ****     Disk_Printf("    [Card Info] Class:        %d\r\n", Disk_GetCard_Info().Class);
 4766              		.loc 1 254 5 view .LVU1333
 4767 0082 DDF8C910 		ldr	r1, [sp, #201]	@ unaligned
 4768 0086 3A48     		ldr	r0, .L292+44
 4769 0088 FFF7FEFF 		bl	Disk_Printf
 4770              	.LVL479:
 255:System/diskio/DiskIO.c ****     Disk_Printf("    [Card Info] LogBlockNbr:  %d\r\n", Disk_GetCard_Info().LogBlockNbr);
 4771              		.loc 1 255 5 is_stmt 1 view .LVU1334
 255:System/diskio/DiskIO.c ****     Disk_Printf("    [Card Info] LogBlockNbr:  %d\r\n", Disk_GetCard_Info().LogBlockNbr);
 4772              		.loc 1 255 57 is_stmt 0 view .LVU1335
 4773 008c 3DA8     		add	r0, sp, #244
 4774 008e FFF7FEFF 		bl	Disk_GetCard_Info
 4775              	.LVL480:
 255:System/diskio/DiskIO.c ****     Disk_Printf("    [Card Info] LogBlockNbr:  %d\r\n", Disk_GetCard_Info().LogBlockNbr);
 4776              		.loc 1 255 5 view .LVU1336
 4777 0092 DDF8FD10 		ldr	r1, [sp, #253]	@ unaligned
 4778 0096 3748     		ldr	r0, .L292+48
 4779 0098 FFF7FEFF 		bl	Disk_Printf
 4780              	.LVL481:
 256:System/diskio/DiskIO.c ****     Disk_Printf("    [Card Info] LogBlockSize: %d\r\n", Disk_GetCard_Info().LogBlockSize);
 4781              		.loc 1 256 5 is_stmt 1 view .LVU1337
 256:System/diskio/DiskIO.c ****     Disk_Printf("    [Card Info] LogBlockSize: %d\r\n", Disk_GetCard_Info().LogBlockSize);
 4782              		.loc 1 256 57 is_stmt 0 view .LVU1338
 4783 009c 49A8     		add	r0, sp, #292
 4784 009e FFF7FEFF 		bl	Disk_GetCard_Info
 4785              	.LVL482:
ARM GAS  C:\Users\huav\AppData\Local\Temp\cclD56Oe.s 			page 133


 256:System/diskio/DiskIO.c ****     Disk_Printf("    [Card Info] LogBlockSize: %d\r\n", Disk_GetCard_Info().LogBlockSize);
 4786              		.loc 1 256 5 view .LVU1339
 4787 00a2 DDF83D11 		ldr	r1, [sp, #317]	@ unaligned
 4788 00a6 3448     		ldr	r0, .L292+52
 4789 00a8 FFF7FEFF 		bl	Disk_Printf
 4790              	.LVL483:
 257:System/diskio/DiskIO.c ****     Disk_Printf("    [Card Info] RelCardAdd:   %d\r\n", Disk_GetCard_Info().RelCardAdd);
 4791              		.loc 1 257 5 is_stmt 1 view .LVU1340
 257:System/diskio/DiskIO.c ****     Disk_Printf("    [Card Info] RelCardAdd:   %d\r\n", Disk_GetCard_Info().RelCardAdd);
 4792              		.loc 1 257 57 is_stmt 0 view .LVU1341
 4793 00ac 55A8     		add	r0, sp, #340
 4794 00ae FFF7FEFF 		bl	Disk_GetCard_Info
 4795              	.LVL484:
 257:System/diskio/DiskIO.c ****     Disk_Printf("    [Card Info] RelCardAdd:   %d\r\n", Disk_GetCard_Info().RelCardAdd);
 4796              		.loc 1 257 5 view .LVU1342
 4797 00b2 DDF87111 		ldr	r1, [sp, #369]	@ unaligned
 4798 00b6 3148     		ldr	r0, .L292+56
 4799 00b8 FFF7FEFF 		bl	Disk_Printf
 4800              	.LVL485:
 258:System/diskio/DiskIO.c ****     Disk_Printf("\r\n");
 4801              		.loc 1 258 5 is_stmt 1 view .LVU1343
 258:System/diskio/DiskIO.c ****     Disk_Printf("\r\n");
 4802              		.loc 1 258 57 is_stmt 0 view .LVU1344
 4803 00bc 61A8     		add	r0, sp, #388
 4804 00be FFF7FEFF 		bl	Disk_GetCard_Info
 4805              	.LVL486:
 258:System/diskio/DiskIO.c ****     Disk_Printf("\r\n");
 4806              		.loc 1 258 5 view .LVU1345
 4807 00c2 DDF89111 		ldr	r1, [sp, #401]	@ unaligned
 4808 00c6 2E48     		ldr	r0, .L292+60
 4809 00c8 FFF7FEFF 		bl	Disk_Printf
 4810              	.LVL487:
 259:System/diskio/DiskIO.c **** 
 4811              		.loc 1 259 5 is_stmt 1 view .LVU1346
 4812 00cc 2D48     		ldr	r0, .L292+64
 4813 00ce FFF7FEFF 		bl	Disk_Printf
 4814              	.LVL488:
 262:System/diskio/DiskIO.c ****     Disk_ParseDBR(&FATFs_Obj);
 4815              		.loc 1 262 5 view .LVU1347
 4816 00d2 2D4C     		ldr	r4, .L292+68
 4817 00d4 2046     		mov	r0, r4
 4818 00d6 FFF7FEFF 		bl	Disk_ParseMBR
 4819              	.LVL489:
 263:System/diskio/DiskIO.c ****     Disk_ParseFSINFO(&FATFs_Obj);
 4820              		.loc 1 263 5 view .LVU1348
 4821 00da 2046     		mov	r0, r4
 4822 00dc FFF7FEFF 		bl	Disk_ParseDBR
 4823              	.LVL490:
 264:System/diskio/DiskIO.c ****     Disk_Search_FreeCluster(&FATFs_Obj);
 4824              		.loc 1 264 5 view .LVU1349
 4825 00e0 2046     		mov	r0, r4
 4826 00e2 FFF7FEFF 		bl	Disk_ParseFSINFO
 4827              	.LVL491:
 265:System/diskio/DiskIO.c **** 
 4828              		.loc 1 265 5 view .LVU1350
 4829 00e6 2046     		mov	r0, r4
 4830 00e8 FFF7FEFF 		bl	Disk_Search_FreeCluster
ARM GAS  C:\Users\huav\AppData\Local\Temp\cclD56Oe.s 			page 134


 4831              	.LVL492:
 268:System/diskio/DiskIO.c ****     Disk_FFInfo_TypeDef test2_file;
 4832              		.loc 1 268 5 view .LVU1351
 269:System/diskio/DiskIO.c ****     volatile FATCluster_Addr test_folder1_cluster;
 4833              		.loc 1 269 5 view .LVU1352
 270:System/diskio/DiskIO.c ****     volatile FATCluster_Addr test_folder2_cluster;
 4834              		.loc 1 270 5 view .LVU1353
 271:System/diskio/DiskIO.c ****     volatile FATCluster_Addr test_folder3_cluster;
 4835              		.loc 1 271 5 view .LVU1354
 272:System/diskio/DiskIO.c ****     volatile FATCluster_Addr test_folder4_cluster;
 4836              		.loc 1 272 5 view .LVU1355
 273:System/diskio/DiskIO.c ****     volatile FATCluster_Addr test5_file_cluster;
 4837              		.loc 1 273 5 view .LVU1356
 274:System/diskio/DiskIO.c **** 
 4838              		.loc 1 274 5 view .LVU1357
 276:System/diskio/DiskIO.c ****     memset(&test2_file, NULL, sizeof(test2_file));
 4839              		.loc 1 276 5 view .LVU1358
 4840 00ec 2626     		movs	r6, #38
 4841 00ee 3246     		mov	r2, r6
 4842 00f0 0021     		movs	r1, #0
 4843 00f2 7CA8     		add	r0, sp, #496
 4844 00f4 FFF7FEFF 		bl	memset
 4845              	.LVL493:
 277:System/diskio/DiskIO.c **** 
 4846              		.loc 1 277 5 view .LVU1359
 4847 00f8 3246     		mov	r2, r6
 4848 00fa 0021     		movs	r1, #0
 4849 00fc 72A8     		add	r0, sp, #456
 4850 00fe FFF7FEFF 		bl	memset
 4851              	.LVL494:
 282:System/diskio/DiskIO.c ****     test_folder2_cluster = Disk_Create(&FATFs_Obj, "test5/", NULL);
 4852              		.loc 1 282 5 view .LVU1360
 282:System/diskio/DiskIO.c ****     test_folder2_cluster = Disk_Create(&FATFs_Obj, "test5/", NULL);
 4853              		.loc 1 282 28 is_stmt 0 view .LVU1361
 4854 0102 0022     		movs	r2, #0
 4855 0104 2149     		ldr	r1, .L292+72
 4856 0106 2046     		mov	r0, r4
 4857 0108 FFF7FEFF 		bl	Disk_Create
 4858              	.LVL495:
 282:System/diskio/DiskIO.c ****     test_folder2_cluster = Disk_Create(&FATFs_Obj, "test5/", NULL);
 4859              		.loc 1 282 26 view .LVU1362
 4860 010c 7190     		str	r0, [sp, #452]
 283:System/diskio/DiskIO.c ****     test_folder3_cluster = Disk_Create(&FATFs_Obj, "test6/", NULL);
 4861              		.loc 1 283 5 is_stmt 1 view .LVU1363
 283:System/diskio/DiskIO.c ****     test_folder3_cluster = Disk_Create(&FATFs_Obj, "test6/", NULL);
 4862              		.loc 1 283 28 is_stmt 0 view .LVU1364
 4863 010e 0022     		movs	r2, #0
 4864 0110 1F49     		ldr	r1, .L292+76
 4865 0112 2046     		mov	r0, r4
 4866 0114 FFF7FEFF 		bl	Disk_Create
 4867              	.LVL496:
 283:System/diskio/DiskIO.c ****     test_folder3_cluster = Disk_Create(&FATFs_Obj, "test6/", NULL);
 4868              		.loc 1 283 26 view .LVU1365
 4869 0118 7090     		str	r0, [sp, #448]
 284:System/diskio/DiskIO.c ****     test_folder4_cluster = Disk_Create(&FATFs_Obj, "test1/test2/test3/", "test.txt");
 4870              		.loc 1 284 5 is_stmt 1 view .LVU1366
 284:System/diskio/DiskIO.c ****     test_folder4_cluster = Disk_Create(&FATFs_Obj, "test1/test2/test3/", "test.txt");
ARM GAS  C:\Users\huav\AppData\Local\Temp\cclD56Oe.s 			page 135


 4871              		.loc 1 284 28 is_stmt 0 view .LVU1367
 4872 011a 0022     		movs	r2, #0
 4873 011c 1D49     		ldr	r1, .L292+80
 4874 011e 2046     		mov	r0, r4
 4875 0120 FFF7FEFF 		bl	Disk_Create
 4876              	.LVL497:
 284:System/diskio/DiskIO.c ****     test_folder4_cluster = Disk_Create(&FATFs_Obj, "test1/test2/test3/", "test.txt");
 4877              		.loc 1 284 26 view .LVU1368
 4878 0124 6F90     		str	r0, [sp, #444]
 285:System/diskio/DiskIO.c **** 
 4879              		.loc 1 285 5 is_stmt 1 view .LVU1369
 285:System/diskio/DiskIO.c **** 
 4880              		.loc 1 285 28 is_stmt 0 view .LVU1370
 4881 0126 1C4E     		ldr	r6, .L292+84
 4882 0128 3246     		mov	r2, r6
 4883 012a 1C49     		ldr	r1, .L292+88
 4884 012c 2046     		mov	r0, r4
 4885 012e FFF7FEFF 		bl	Disk_Create
 4886              	.LVL498:
 285:System/diskio/DiskIO.c **** 
 4887              		.loc 1 285 26 view .LVU1371
 4888 0132 6E90     		str	r0, [sp, #440]
 287:System/diskio/DiskIO.c ****     /* test code */
 4889              		.loc 1 287 5 is_stmt 1 view .LVU1372
 287:System/diskio/DiskIO.c ****     /* test code */
 4890              		.loc 1 287 26 is_stmt 0 view .LVU1373
 4891 0134 3246     		mov	r2, r6
 4892 0136 0021     		movs	r1, #0
 4893 0138 2046     		mov	r0, r4
 4894 013a FFF7FEFF 		bl	Disk_Create
 4895              	.LVL499:
 287:System/diskio/DiskIO.c ****     /* test code */
 4896              		.loc 1 287 24 view .LVU1374
 4897 013e 6D90     		str	r0, [sp, #436]
 290:System/diskio/DiskIO.c **** }
 4898              		.loc 1 290 5 is_stmt 1 view .LVU1375
 290:System/diskio/DiskIO.c **** }
 4899              		.loc 1 290 12 is_stmt 0 view .LVU1376
 4900 0140 75E7     		b	.L289
 4901              	.L293:
 4902 0142 00BF     		.align	2
 4903              	.L292:
 4904 0144 00000000 		.word	.LANCHOR3
 4905 0148 00000000 		.word	.LANCHOR6
 4906 014c 00000000 		.word	ErrorLog
 4907 0150 00000000 		.word	.LC8
 4908 0154 00000000 		.word	.LANCHOR2
 4909 0158 00000000 		.word	.LANCHOR9
 4910 015c 10000000 		.word	.LC9
 4911 0160 24000000 		.word	.LC10
 4912 0164 48000000 		.word	.LC11
 4913 0168 6C000000 		.word	.LC12
 4914 016c 90000000 		.word	.LC13
 4915 0170 B4000000 		.word	.LC14
 4916 0174 D8000000 		.word	.LC15
 4917 0178 FC000000 		.word	.LC16
 4918 017c 20010000 		.word	.LC17
ARM GAS  C:\Users\huav\AppData\Local\Temp\cclD56Oe.s 			page 136


 4919 0180 44010000 		.word	.LC18
 4920 0184 68010000 		.word	.LC19
 4921 0188 00000000 		.word	.LANCHOR4
 4922 018c 6C010000 		.word	.LC20
 4923 0190 74010000 		.word	.LC21
 4924 0194 7C010000 		.word	.LC22
 4925 0198 84010000 		.word	.LC23
 4926 019c 90010000 		.word	.LC24
 4927              		.cfi_endproc
 4928              	.LFE148:
 4930              		.section	.rodata.str1.4,"aMS",%progbits,1
 4931              		.align	2
 4932              	.LC25:
 4933 0000 45787465 		.ascii	"External Storage Init Error\015\012\000"
 4933      726E616C 
 4933      2053746F 
 4933      72616765 
 4933      20496E69 
 4934 001e 0000     		.align	2
 4935              	.LC26:
 4936 0020 45787465 		.ascii	"External Storage FSINFO Read Error\015\012\000"
 4936      726E616C 
 4936      2053746F 
 4936      72616765 
 4936      20465349 
 4937 0045 000000   		.align	2
 4938              	.LC27:
 4939 0048 45787465 		.ascii	"External Storage No Free Cluster\015\012\000"
 4939      726E616C 
 4939      2053746F 
 4939      72616765 
 4939      204E6F20 
 4940              		.section	.bss.DevCard_Error_Handle,"aw",%nobits
 4941              		.align	2
 4942              		.set	.LANCHOR2,. + 0
 4945              	DevCard_Error_Handle:
 4946 0000 00000000 		.space	4
 4947              		.section	.bss.Disk_Card_SectionBuff,"aw",%nobits
 4948              		.align	2
 4949              		.set	.LANCHOR1,. + 0
 4952              	Disk_Card_SectionBuff:
 4953 0000 00000000 		.space	1024
 4953      00000000 
 4953      00000000 
 4953      00000000 
 4953      00000000 
 4954              		.section	.bss.Disk_Info,"aw",%nobits
 4955              		.align	2
 4956              		.set	.LANCHOR3,. + 0
 4959              	Disk_Info:
 4960 0000 00000000 		.space	5
 4960      00
 4961              		.section	.bss.Disk_PrintOut,"aw",%nobits
 4962              		.align	2
 4963              		.set	.LANCHOR6,. + 0
 4966              	Disk_PrintOut:
 4967 0000 00000000 		.space	4
ARM GAS  C:\Users\huav\AppData\Local\Temp\cclD56Oe.s 			page 137


 4968              		.section	.bss.Disk_Print_Buff,"aw",%nobits
 4969              		.align	2
 4970              		.set	.LANCHOR7,. + 0
 4973              	Disk_Print_Buff:
 4974 0000 00000000 		.space	128
 4974      00000000 
 4974      00000000 
 4974      00000000 
 4974      00000000 
 4975              		.section	.bss.FATFs_Obj,"aw",%nobits
 4976              		.align	2
 4977              		.set	.LANCHOR4,. + 0
 4980              	FATFs_Obj:
 4981 0000 00000000 		.space	195
 4981      00000000 
 4981      00000000 
 4981      00000000 
 4981      00000000 
 4982              		.section	.data.DevCard_ErrorList,"aw"
 4983              		.align	2
 4984              		.set	.LANCHOR9,. + 0
 4987              	DevCard_ErrorList:
 4988 0000 0200     		.short	2
 4989 0002 00       		.byte	0
 4990 0003 00       		.space	1
 4991 0004 00000000 		.word	.LC25
 4992 0008 01       		.byte	1
 4993 0009 00       		.byte	0
 4994 000a 00000000 		.4byte	Disk_ExtModule_InitError
 4995 000e 00000000 		.4byte	0
 4996 0012 0000     		.short	0
 4997 0014 00000000 		.space	4
 4998 0018 0500     		.short	5
 4999 001a 00       		.byte	0
 5000 001b 00       		.space	1
 5001 001c 20000000 		.word	.LC26
 5002 0020 01       		.byte	1
 5003 0021 00       		.byte	0
 5004 0022 00000000 		.4byte	Disk_FSINFO_ReadError
 5005 0026 00000000 		.4byte	0
 5006 002a 0000     		.short	0
 5007 002c 00000000 		.space	4
 5008 0030 0600     		.short	6
 5009 0032 00       		.byte	0
 5010 0033 00       		.space	1
 5011 0034 48000000 		.word	.LC27
 5012 0038 01       		.byte	1
 5013 0039 00       		.byte	0
 5014 003a 00000000 		.4byte	Disk_FreeCluster_SearchError
 5015 003e 00000000 		.4byte	0
 5016 0042 0000     		.short	0
 5017 0044 00000000 		.space	4
 5018              		.section	.data.DevTFCard_Obj,"aw"
 5019              		.align	2
 5020              		.set	.LANCHOR0,. + 0
 5023              	DevTFCard_Obj:
 5024 0000 00000000 		.space	132
ARM GAS  C:\Users\huav\AppData\Local\Temp\cclD56Oe.s 			page 138


 5024      00000000 
 5024      00000000 
 5024      00000000 
 5024      00000000 
 5025 0084 00700052 		.word	1375760384
 5026 0088 00000000 		.space	36
 5026      00000000 
 5026      00000000 
 5026      00000000 
 5026      00000000 
 5027 00ac 00000000 		.space	48
 5027      00000000 
 5027      00000000 
 5027      00000000 
 5027      00000000 
 5028              		.section	.rodata.DiskCard_NoneMBR_Label,"a"
 5029              		.align	2
 5030              		.set	.LANCHOR8,. + 0
 5033              	DiskCard_NoneMBR_Label:
 5034 0000 EB5890   		.ascii	"\353X\220"
 5035              		.section	.rodata.SDMMC_Pin,"a"
 5036              		.align	2
 5037              		.set	.LANCHOR5,. + 0
 5040              	SDMMC_Pin:
 5041 0000 00080258 		.word	1476528128
 5042 0004 00080258 		.word	1476528128
 5043 0008 00080258 		.word	1476528128
 5044 000c 00080258 		.word	1476528128
 5045 0010 00080258 		.word	1476528128
 5046 0014 000C0258 		.word	1476529152
 5047 0018 00010000 		.word	256
 5048 001c 00020000 		.word	512
 5049 0020 00040000 		.word	1024
 5050 0024 00080000 		.word	2048
 5051 0028 00100000 		.word	4096
 5052 002c 04000000 		.word	4
 5053 0030 0C000000 		.word	12
 5054              		.text
 5055              	.Letext0:
 5056              		.file 2 "c:\\program files (x86)\\gnu arm embedded toolchain\\10 2020-q4-major\\arm-none-eabi\\inc
 5057              		.file 3 "c:\\program files (x86)\\gnu arm embedded toolchain\\10 2020-q4-major\\arm-none-eabi\\inc
 5058              		.file 4 "c:\\program files (x86)\\gnu arm embedded toolchain\\10 2020-q4-major\\lib\\gcc\\arm-none
 5059              		.file 5 "c:\\program files (x86)\\gnu arm embedded toolchain\\10 2020-q4-major\\arm-none-eabi\\inc
 5060              		.file 6 "HAL_Lib/CMSIS/Device/ST/STM32H7xx/Include/stm32h743xx.h"
 5061              		.file 7 "HAL_Lib/STM32H7xx_HAL_Driver/Inc/stm32h7xx_hal_def.h"
 5062              		.file 8 "HAL_Lib/STM32H7xx_HAL_Driver/Inc/stm32h7xx_ll_sdmmc.h"
 5063              		.file 9 "HAL_Lib/STM32H7xx_HAL_Driver/Inc/stm32h7xx_hal_sd.h"
 5064              		.file 10 "Bsp/Bsp_SDMMC.h"
 5065              		.file 11 "Device/Dev_Card.h"
 5066              		.file 12 "System/diskio/DiskIO.h"
 5067              		.file 13 "DataStructure/linked_list.h"
 5068              		.file 14 "Common/error_log.h"
 5069              		.file 15 "c:\\program files (x86)\\gnu arm embedded toolchain\\10 2020-q4-major\\arm-none-eabi\\in
 5070              		.file 16 "c:\\program files (x86)\\gnu arm embedded toolchain\\10 2020-q4-major\\arm-none-eabi\\in
 5071              		.file 17 "<built-in>"
 5072              		.file 18 "DataStructure/Data_Convert_Util.h"
 5073              		.file 19 "System/mmu/mmu.h"
ARM GAS  C:\Users\huav\AppData\Local\Temp\cclD56Oe.s 			page 139


ARM GAS  C:\Users\huav\AppData\Local\Temp\cclD56Oe.s 			page 140


DEFINED SYMBOLS
                            *ABS*:00000000 DiskIO.c
C:\Users\huav\AppData\Local\Temp\cclD56Oe.s:17     .text.Disk_GetCard_Info:00000000 $t
C:\Users\huav\AppData\Local\Temp\cclD56Oe.s:24     .text.Disk_GetCard_Info:00000000 Disk_GetCard_Info
C:\Users\huav\AppData\Local\Temp\cclD56Oe.s:55     .text.Disk_GetCard_Info:00000010 $d
C:\Users\huav\AppData\Local\Temp\cclD56Oe.s:61     .text.Disk_Get_StartSectionOfCluster:00000000 $t
C:\Users\huav\AppData\Local\Temp\cclD56Oe.s:67     .text.Disk_Get_StartSectionOfCluster:00000000 Disk_Get_StartSectionOfCluster
C:\Users\huav\AppData\Local\Temp\cclD56Oe.s:102    .text.Disk_Search_FreeCluster:00000000 $t
C:\Users\huav\AppData\Local\Temp\cclD56Oe.s:108    .text.Disk_Search_FreeCluster:00000000 Disk_Search_FreeCluster
C:\Users\huav\AppData\Local\Temp\cclD56Oe.s:254    .text.Disk_Search_FreeCluster:0000006c $d
C:\Users\huav\AppData\Local\Temp\cclD56Oe.s:263    .text.Disk_GetClusterState:00000000 $t
C:\Users\huav\AppData\Local\Temp\cclD56Oe.s:269    .text.Disk_GetClusterState:00000000 Disk_GetClusterState
C:\Users\huav\AppData\Local\Temp\cclD56Oe.s:349    .text.Disk_GetClusterState:00000038 $d
C:\Users\huav\AppData\Local\Temp\cclD56Oe.s:356    .rodata.Disk_ExtModule_InitError.str1.4:00000000 $d
C:\Users\huav\AppData\Local\Temp\cclD56Oe.s:360    .text.Disk_ExtModule_InitError:00000000 $t
C:\Users\huav\AppData\Local\Temp\cclD56Oe.s:366    .text.Disk_ExtModule_InitError:00000000 Disk_ExtModule_InitError
C:\Users\huav\AppData\Local\Temp\cclD56Oe.s:397    .text.Disk_ExtModule_InitError:00000010 $d
C:\Users\huav\AppData\Local\Temp\cclD56Oe.s:403    .rodata.Disk_FreeCluster_SearchError.str1.4:00000000 $d
C:\Users\huav\AppData\Local\Temp\cclD56Oe.s:407    .text.Disk_FreeCluster_SearchError:00000000 $t
C:\Users\huav\AppData\Local\Temp\cclD56Oe.s:413    .text.Disk_FreeCluster_SearchError:00000000 Disk_FreeCluster_SearchError
C:\Users\huav\AppData\Local\Temp\cclD56Oe.s:441    .text.Disk_FreeCluster_SearchError:0000000c $d
C:\Users\huav\AppData\Local\Temp\cclD56Oe.s:447    .rodata.Disk_FSINFO_ReadError.str1.4:00000000 $d
C:\Users\huav\AppData\Local\Temp\cclD56Oe.s:451    .text.Disk_FSINFO_ReadError:00000000 $t
C:\Users\huav\AppData\Local\Temp\cclD56Oe.s:457    .text.Disk_FSINFO_ReadError:00000000 Disk_FSINFO_ReadError
C:\Users\huav\AppData\Local\Temp\cclD56Oe.s:485    .text.Disk_FSINFO_ReadError:0000000c $d
C:\Users\huav\AppData\Local\Temp\cclD56Oe.s:491    .text.ExtDisk_Init:00000000 $t
C:\Users\huav\AppData\Local\Temp\cclD56Oe.s:497    .text.ExtDisk_Init:00000000 ExtDisk_Init
C:\Users\huav\AppData\Local\Temp\cclD56Oe.s:591    .text.ExtDisk_Init:00000054 $d
C:\Users\huav\AppData\Local\Temp\cclD56Oe.s:602    .text.Disk_ClearCluster:00000000 $t
C:\Users\huav\AppData\Local\Temp\cclD56Oe.s:608    .text.Disk_ClearCluster:00000000 Disk_ClearCluster
C:\Users\huav\AppData\Local\Temp\cclD56Oe.s:690    .text.Disk_ClearCluster:00000040 $d
C:\Users\huav\AppData\Local\Temp\cclD56Oe.s:697    .text.Disk_Printf:00000000 $t
C:\Users\huav\AppData\Local\Temp\cclD56Oe.s:703    .text.Disk_Printf:00000000 Disk_Printf
C:\Users\huav\AppData\Local\Temp\cclD56Oe.s:785    .text.Disk_Printf:00000040 $d
C:\Users\huav\AppData\Local\Temp\cclD56Oe.s:791    .text.Disk_SFN_Match:00000000 $t
C:\Users\huav\AppData\Local\Temp\cclD56Oe.s:797    .text.Disk_SFN_Match:00000000 Disk_SFN_Match
C:\Users\huav\AppData\Local\Temp\cclD56Oe.s:878    .text.Disk_ParseMBR:00000000 $t
C:\Users\huav\AppData\Local\Temp\cclD56Oe.s:884    .text.Disk_ParseMBR:00000000 Disk_ParseMBR
C:\Users\huav\AppData\Local\Temp\cclD56Oe.s:1079   .text.Disk_ParseMBR:000000d4 $d
C:\Users\huav\AppData\Local\Temp\cclD56Oe.s:1088   .text.Disk_ParseDBR:00000000 $t
C:\Users\huav\AppData\Local\Temp\cclD56Oe.s:1094   .text.Disk_ParseDBR:00000000 Disk_ParseDBR
C:\Users\huav\AppData\Local\Temp\cclD56Oe.s:1443   .text.Disk_ParseDBR:000001e4 $d
C:\Users\huav\AppData\Local\Temp\cclD56Oe.s:1451   .rodata.Disk_ParseFSINFO.str1.4:00000000 $d
C:\Users\huav\AppData\Local\Temp\cclD56Oe.s:1458   .text.Disk_ParseFSINFO:00000000 $t
C:\Users\huav\AppData\Local\Temp\cclD56Oe.s:1464   .text.Disk_ParseFSINFO:00000000 Disk_ParseFSINFO
C:\Users\huav\AppData\Local\Temp\cclD56Oe.s:1633   .text.Disk_ParseFSINFO:000000bc $d
C:\Users\huav\AppData\Local\Temp\cclD56Oe.s:1644   .text.Disk_Parse_Attribute:00000000 $t
C:\Users\huav\AppData\Local\Temp\cclD56Oe.s:1650   .text.Disk_Parse_Attribute:00000000 Disk_Parse_Attribute
C:\Users\huav\AppData\Local\Temp\cclD56Oe.s:1984   .text.Disk_Parse_Attribute:00000188 $d
C:\Users\huav\AppData\Local\Temp\cclD56Oe.s:1992   .text.Disk_Get_NextCluster:00000000 $t
C:\Users\huav\AppData\Local\Temp\cclD56Oe.s:1998   .text.Disk_Get_NextCluster:00000000 Disk_Get_NextCluster
C:\Users\huav\AppData\Local\Temp\cclD56Oe.s:2069   .text.Disk_Get_NextCluster:0000003c $d
C:\Users\huav\AppData\Local\Temp\cclD56Oe.s:2076   .text.Disk_GetPath_Layer:00000000 $t
C:\Users\huav\AppData\Local\Temp\cclD56Oe.s:2082   .text.Disk_GetPath_Layer:00000000 Disk_GetPath_Layer
C:\Users\huav\AppData\Local\Temp\cclD56Oe.s:2136   .rodata.Disk_GetFolderName_ByIndex.str1.4:00000000 $d
C:\Users\huav\AppData\Local\Temp\cclD56Oe.s:2140   .text.Disk_GetFolderName_ByIndex:00000000 $t
C:\Users\huav\AppData\Local\Temp\cclD56Oe.s:2146   .text.Disk_GetFolderName_ByIndex:00000000 Disk_GetFolderName_ByIndex
ARM GAS  C:\Users\huav\AppData\Local\Temp\cclD56Oe.s 			page 141


C:\Users\huav\AppData\Local\Temp\cclD56Oe.s:2333   .text.Disk_GetFolderName_ByIndex:000000cc $d
C:\Users\huav\AppData\Local\Temp\cclD56Oe.s:2338   .rodata.Disk_SFN_LegallyCheck.str1.4:00000000 $d
C:\Users\huav\AppData\Local\Temp\cclD56Oe.s:2345   .text.Disk_SFN_LegallyCheck:00000000 $t
C:\Users\huav\AppData\Local\Temp\cclD56Oe.s:2351   .text.Disk_SFN_LegallyCheck:00000000 Disk_SFN_LegallyCheck
C:\Users\huav\AppData\Local\Temp\cclD56Oe.s:2712   .text.Disk_SFN_LegallyCheck:0000014c $d
C:\Users\huav\AppData\Local\Temp\cclD56Oe.s:2719   .text.Disk_Name_ConvertTo83Frame:00000000 $t
C:\Users\huav\AppData\Local\Temp\cclD56Oe.s:2725   .text.Disk_Name_ConvertTo83Frame:00000000 Disk_Name_ConvertTo83Frame
C:\Users\huav\AppData\Local\Temp\cclD56Oe.s:2972   .text.Disk_Name_ConvertTo83Frame:000000ec $d
C:\Users\huav\AppData\Local\Temp\cclD56Oe.s:2978   .text.Disk_Fill_Attr:00000000 $t
C:\Users\huav\AppData\Local\Temp\cclD56Oe.s:2984   .text.Disk_Fill_Attr:00000000 Disk_Fill_Attr
C:\Users\huav\AppData\Local\Temp\cclD56Oe.s:3153   .text.Disk_Establish_ClusterLink:00000000 $t
C:\Users\huav\AppData\Local\Temp\cclD56Oe.s:3159   .text.Disk_Establish_ClusterLink:00000000 Disk_Establish_ClusterLink
C:\Users\huav\AppData\Local\Temp\cclD56Oe.s:3309   .text.Disk_Establish_ClusterLink:000000a8 $d
C:\Users\huav\AppData\Local\Temp\cclD56Oe.s:3316   .text.Disk_UpdateFSINFO:00000000 $t
C:\Users\huav\AppData\Local\Temp\cclD56Oe.s:3322   .text.Disk_UpdateFSINFO:00000000 Disk_UpdateFSINFO
C:\Users\huav\AppData\Local\Temp\cclD56Oe.s:3427   .text.Disk_UpdateFSINFO:00000078 $d
C:\Users\huav\AppData\Local\Temp\cclD56Oe.s:3434   .text.Disk_Update_FreeCluster:00000000 $t
C:\Users\huav\AppData\Local\Temp\cclD56Oe.s:3440   .text.Disk_Update_FreeCluster:00000000 Disk_Update_FreeCluster
C:\Users\huav\AppData\Local\Temp\cclD56Oe.s:3666   .text.Disk_Update_FreeCluster:000000e8 $d
C:\Users\huav\AppData\Local\Temp\cclD56Oe.s:3673   .text.Disk_WriteTo_TargetFFTable:00000000 $t
C:\Users\huav\AppData\Local\Temp\cclD56Oe.s:3679   .text.Disk_WriteTo_TargetFFTable:00000000 Disk_WriteTo_TargetFFTable
C:\Users\huav\AppData\Local\Temp\cclD56Oe.s:4347   .text.Disk_WriteTo_TargetFFTable:000003b4 $d
C:\Users\huav\AppData\Local\Temp\cclD56Oe.s:4356   .text.Disk_Create_Folder:00000000 $t
C:\Users\huav\AppData\Local\Temp\cclD56Oe.s:4362   .text.Disk_Create_Folder:00000000 Disk_Create_Folder
C:\Users\huav\AppData\Local\Temp\cclD56Oe.s:4496   .text.Disk_Create:00000000 $t
C:\Users\huav\AppData\Local\Temp\cclD56Oe.s:4502   .text.Disk_Create:00000000 Disk_Create
C:\Users\huav\AppData\Local\Temp\cclD56Oe.s:4591   .rodata.Disk_Init.str1.4:00000000 $d
C:\Users\huav\AppData\Local\Temp\cclD56Oe.s:4643   .text.Disk_Init:00000000 $t
C:\Users\huav\AppData\Local\Temp\cclD56Oe.s:4650   .text.Disk_Init:00000000 Disk_Init
C:\Users\huav\AppData\Local\Temp\cclD56Oe.s:4904   .text.Disk_Init:00000144 $d
C:\Users\huav\AppData\Local\Temp\cclD56Oe.s:4931   .rodata.str1.4:00000000 $d
C:\Users\huav\AppData\Local\Temp\cclD56Oe.s:4941   .bss.DevCard_Error_Handle:00000000 $d
C:\Users\huav\AppData\Local\Temp\cclD56Oe.s:4945   .bss.DevCard_Error_Handle:00000000 DevCard_Error_Handle
C:\Users\huav\AppData\Local\Temp\cclD56Oe.s:4948   .bss.Disk_Card_SectionBuff:00000000 $d
C:\Users\huav\AppData\Local\Temp\cclD56Oe.s:4952   .bss.Disk_Card_SectionBuff:00000000 Disk_Card_SectionBuff
C:\Users\huav\AppData\Local\Temp\cclD56Oe.s:4955   .bss.Disk_Info:00000000 $d
C:\Users\huav\AppData\Local\Temp\cclD56Oe.s:4959   .bss.Disk_Info:00000000 Disk_Info
C:\Users\huav\AppData\Local\Temp\cclD56Oe.s:4962   .bss.Disk_PrintOut:00000000 $d
C:\Users\huav\AppData\Local\Temp\cclD56Oe.s:4966   .bss.Disk_PrintOut:00000000 Disk_PrintOut
C:\Users\huav\AppData\Local\Temp\cclD56Oe.s:4969   .bss.Disk_Print_Buff:00000000 $d
C:\Users\huav\AppData\Local\Temp\cclD56Oe.s:4973   .bss.Disk_Print_Buff:00000000 Disk_Print_Buff
C:\Users\huav\AppData\Local\Temp\cclD56Oe.s:4976   .bss.FATFs_Obj:00000000 $d
C:\Users\huav\AppData\Local\Temp\cclD56Oe.s:4980   .bss.FATFs_Obj:00000000 FATFs_Obj
C:\Users\huav\AppData\Local\Temp\cclD56Oe.s:4983   .data.DevCard_ErrorList:00000000 $d
C:\Users\huav\AppData\Local\Temp\cclD56Oe.s:4987   .data.DevCard_ErrorList:00000000 DevCard_ErrorList
C:\Users\huav\AppData\Local\Temp\cclD56Oe.s:5019   .data.DevTFCard_Obj:00000000 $d
C:\Users\huav\AppData\Local\Temp\cclD56Oe.s:5023   .data.DevTFCard_Obj:00000000 DevTFCard_Obj
C:\Users\huav\AppData\Local\Temp\cclD56Oe.s:5029   .rodata.DiskCard_NoneMBR_Label:00000000 $d
C:\Users\huav\AppData\Local\Temp\cclD56Oe.s:5033   .rodata.DiskCard_NoneMBR_Label:00000000 DiskCard_NoneMBR_Label
C:\Users\huav\AppData\Local\Temp\cclD56Oe.s:5036   .rodata.SDMMC_Pin:00000000 $d
C:\Users\huav\AppData\Local\Temp\cclD56Oe.s:5040   .rodata.SDMMC_Pin:00000000 SDMMC_Pin

UNDEFINED SYMBOLS
DevCard
ErrorLog
memset
vsnprintf
ARM GAS  C:\Users\huav\AppData\Local\Temp\cclD56Oe.s 			page 142


memcmp
LEndian2HalfWord
LEndian2Word
memcpy
strchr
strlen
MMU_Malloc
strtok
MMU_Free
_ctype_
LEndianWord2BytesArray
