ARM GAS  C:\Users\HUAV\AppData\Local\Temp\ccqK5tkd.s 			page 1


   1              		.cpu cortex-m7
   2              		.eabi_attribute 28, 1
   3              		.eabi_attribute 20, 1
   4              		.eabi_attribute 21, 1
   5              		.eabi_attribute 23, 3
   6              		.eabi_attribute 24, 1
   7              		.eabi_attribute 25, 1
   8              		.eabi_attribute 26, 1
   9              		.eabi_attribute 30, 1
  10              		.eabi_attribute 34, 1
  11              		.eabi_attribute 18, 4
  12              		.file	"error_log.c"
  13              		.text
  14              	.Ltext0:
  15              		.cfi_sections	.debug_frame
  16              		.section	.text.Error_InsertPriority_Compare,"ax",%progbits
  17              		.align	1
  18              		.arch armv7e-m
  19              		.syntax unified
  20              		.thumb
  21              		.thumb_func
  22              		.fpu fpv5-d16
  24              	Error_InsertPriority_Compare:
  25              	.LVL0:
  26              	.LFB3:
  27              		.file 1 "Common/error_log.c"
   1:Common/error_log.c **** #include "error_log.h"
   2:Common/error_log.c **** #include "queue.h"
   3:Common/error_log.c **** #include "mmu.h"
   4:Common/error_log.c **** #include <stdarg.h>
   5:Common/error_log.c **** 
   6:Common/error_log.c **** /*
   7:Common/error_log.c **** error data in queue
   8:Common/error_log.c **** --------------------------------------------------------------------------------------------
   9:Common/error_log.c **** | out state | log state | info size |                    error describe                    |
  10:Common/error_log.c **** --------------------------------------------------------------------------------------------
  11:Common/error_log.c **** */
  12:Common/error_log.c **** 
  13:Common/error_log.c **** /* internal vriable */
  14:Common/error_log.c **** static bool ErrorQueue_Init = false;
  15:Common/error_log.c **** static bool ErrorQueue_CreateState = false;
  16:Common/error_log.c **** static QueueObj_TypeDef ErrorQueue;
  17:Common/error_log.c **** static Error_OutState_List ErrorOut_State = Error_OutFree;
  18:Common/error_log.c **** static Error_LogState_List ErrorLog_State = Error_LogFree;
  19:Common/error_log.c **** static error_port_callback out_callback = NULL;
  20:Common/error_log.c **** static error_port_callback log_callback = NULL;
  21:Common/error_log.c **** static Error_Port_Reg port_reg;
  22:Common/error_log.c **** 
  23:Common/error_log.c **** /* internal function */
  24:Common/error_log.c **** static bool Error_Out(void);
  25:Common/error_log.c **** static bool Error_Log(void);
  26:Common/error_log.c **** 
  27:Common/error_log.c **** /* external function */
  28:Common/error_log.c **** static Error_Handler ErrorTree_Create(char *name);
  29:Common/error_log.c **** static bool Error_Register(Error_Handler hdl, Error_Obj_Typedef *obj, uint16_t num);
  30:Common/error_log.c **** static bool Error_Trigger(Error_Handler hdl, int16_t code, uint8_t *p_arg, uint16_t size);
  31:Common/error_log.c **** static bool Error_Proc(Error_Handler hdl);
ARM GAS  C:\Users\HUAV\AppData\Local\Temp\ccqK5tkd.s 			page 2


  32:Common/error_log.c **** static void Error_Set_Callback(ErrorLog_Callback_Type_List type, error_port_callback callback);
  33:Common/error_log.c **** static uint32_t Error_DescToQueue(const char *str, ...);
  34:Common/error_log.c **** 
  35:Common/error_log.c **** ErrorLog_TypeDef ErrorLog = {
  36:Common/error_log.c ****     .create = ErrorTree_Create,
  37:Common/error_log.c ****     .proc = Error_Proc,
  38:Common/error_log.c ****     .registe = Error_Register,
  39:Common/error_log.c ****     .trigger = Error_Trigger,
  40:Common/error_log.c ****     .set_callback = Error_Set_Callback,
  41:Common/error_log.c ****     .add_desc = Error_DescToQueue,
  42:Common/error_log.c **** };
  43:Common/error_log.c **** 
  44:Common/error_log.c **** static data_handle Error_InsertPriority_Compare(data_handle l_addr, data_handle r_addr)
  45:Common/error_log.c **** {
  28              		.loc 1 45 1 view -0
  29              		.cfi_startproc
  30              		@ args = 0, pretend = 0, frame = 8
  31              		@ frame_needed = 0, uses_anonymous_args = 0
  32              		@ link register save eliminated.
  33              		.loc 1 45 1 is_stmt 0 view .LVU1
  34 0000 10B4     		push	{r4}
  35              	.LCFI0:
  36              		.cfi_def_cfa_offset 4
  37              		.cfi_offset 4, -4
  38 0002 83B0     		sub	sp, sp, #12
  39              	.LCFI1:
  40              		.cfi_def_cfa_offset 16
  41 0004 0346     		mov	r3, r0
  46:Common/error_log.c ****     volatile int16_t l_code = 0;
  42              		.loc 1 46 5 is_stmt 1 view .LVU2
  43              		.loc 1 46 22 is_stmt 0 view .LVU3
  44 0006 0022     		movs	r2, #0
  45 0008 ADF80620 		strh	r2, [sp, #6]	@ movhi
  47:Common/error_log.c ****     volatile int16_t r_code = 0;
  46              		.loc 1 47 5 is_stmt 1 view .LVU4
  47              		.loc 1 47 22 is_stmt 0 view .LVU5
  48 000c ADF80420 		strh	r2, [sp, #4]	@ movhi
  48:Common/error_log.c **** 
  49:Common/error_log.c ****     if ((l_addr == 0) && (r_addr == 0) && (l_addr != r_addr))
  49              		.loc 1 49 5 is_stmt 1 view .LVU6
  50              		.loc 1 49 8 is_stmt 0 view .LVU7
  51 0010 0843     		orrs	r0, r0, r1
  52              	.LVL1:
  53              		.loc 1 49 8 view .LVU8
  54 0012 01D1     		bne	.L2
  55              		.loc 1 49 40 discriminator 1 view .LVU9
  56 0014 8B42     		cmp	r3, r1
  57 0016 0DD1     		bne	.L1
  58              	.L2:
  50:Common/error_log.c ****         return 0;
  51:Common/error_log.c **** 
  52:Common/error_log.c ****     l_code = ErrorTreeDataToObj(l_addr)->code;
  59              		.loc 1 52 5 is_stmt 1 view .LVU10
  60              		.loc 1 52 40 is_stmt 0 view .LVU11
  61 0018 B3F90020 		ldrsh	r2, [r3]	@ unaligned
  62 001c 14B2     		sxth	r4, r2
  63              		.loc 1 52 12 view .LVU12
ARM GAS  C:\Users\HUAV\AppData\Local\Temp\ccqK5tkd.s 			page 3


  64 001e ADF80620 		strh	r2, [sp, #6]	@ movhi
  53:Common/error_log.c ****     r_code = ErrorTreeDataToObj(r_addr)->code;
  65              		.loc 1 53 5 is_stmt 1 view .LVU13
  66              		.loc 1 53 40 is_stmt 0 view .LVU14
  67 0022 B1F90020 		ldrsh	r2, [r1]	@ unaligned
  68 0026 10B2     		sxth	r0, r2
  69              		.loc 1 53 12 view .LVU15
  70 0028 ADF80420 		strh	r2, [sp, #4]	@ movhi
  54:Common/error_log.c **** 
  55:Common/error_log.c ****     if (ErrorTreeDataToObj(l_addr)->code > ErrorTreeDataToObj(r_addr)->code)
  71              		.loc 1 55 5 is_stmt 1 view .LVU16
  72              		.loc 1 55 8 is_stmt 0 view .LVU17
  73 002c 8442     		cmp	r4, r0
  74 002e 05DC     		bgt	.L4
  56:Common/error_log.c ****         return r_addr;
  57:Common/error_log.c **** 
  58:Common/error_log.c ****     if (ErrorTreeDataToObj(l_addr)->code < ErrorTreeDataToObj(r_addr)->code)
  75              		.loc 1 58 5 is_stmt 1 view .LVU18
  76              		.loc 1 58 8 is_stmt 0 view .LVU19
  77 0030 06DB     		blt	.L5
  59:Common/error_log.c ****         return l_addr;
  60:Common/error_log.c **** 
  61:Common/error_log.c ****     return 0;
  78              		.loc 1 61 12 view .LVU20
  79 0032 0020     		movs	r0, #0
  80              	.L1:
  62:Common/error_log.c **** }
  81              		.loc 1 62 1 view .LVU21
  82 0034 03B0     		add	sp, sp, #12
  83              	.LCFI2:
  84              		.cfi_remember_state
  85              		.cfi_def_cfa_offset 4
  86              		@ sp needed
  87 0036 5DF8044B 		ldr	r4, [sp], #4
  88              	.LCFI3:
  89              		.cfi_restore 4
  90              		.cfi_def_cfa_offset 0
  91 003a 7047     		bx	lr
  92              	.L4:
  93              	.LCFI4:
  94              		.cfi_restore_state
  56:Common/error_log.c ****         return r_addr;
  95              		.loc 1 56 16 view .LVU22
  96 003c 0846     		mov	r0, r1
  97 003e F9E7     		b	.L1
  98              	.L5:
  59:Common/error_log.c ****         return l_addr;
  99              		.loc 1 59 16 view .LVU23
 100 0040 1846     		mov	r0, r3
 101 0042 F7E7     		b	.L1
 102              		.cfi_endproc
 103              	.LFE3:
 105              		.section	.text.Error_Search,"ax",%progbits
 106              		.align	1
 107              		.syntax unified
 108              		.thumb
 109              		.thumb_func
ARM GAS  C:\Users\HUAV\AppData\Local\Temp\ccqK5tkd.s 			page 4


 110              		.fpu fpv5-d16
 112              	Error_Search:
 113              	.LVL2:
 114              	.LFB4:
  63:Common/error_log.c **** 
  64:Common/error_log.c **** static uint8_t Error_Search(data_handle l_addr, data_handle r_addr)
  65:Common/error_log.c **** {
 115              		.loc 1 65 1 is_stmt 1 view -0
 116              		.cfi_startproc
 117              		@ args = 0, pretend = 0, frame = 8
 118              		@ frame_needed = 0, uses_anonymous_args = 0
 119              		@ link register save eliminated.
 120              		.loc 1 65 1 is_stmt 0 view .LVU25
 121 0000 82B0     		sub	sp, sp, #8
 122              	.LCFI5:
 123              		.cfi_def_cfa_offset 8
  66:Common/error_log.c ****     volatile int16_t node_code = ErrorTreeDataToObj(l_addr)->code;
 124              		.loc 1 66 5 is_stmt 1 view .LVU26
 125              		.loc 1 66 60 is_stmt 0 view .LVU27
 126 0002 B0F90030 		ldrsh	r3, [r0]	@ unaligned
 127              		.loc 1 66 22 view .LVU28
 128 0006 ADF80630 		strh	r3, [sp, #6]	@ movhi
  67:Common/error_log.c ****     volatile int16_t code = *((int16_t *)((uint32_t)r_addr));
 129              		.loc 1 67 5 is_stmt 1 view .LVU29
 130              		.loc 1 67 29 is_stmt 0 view .LVU30
 131 000a B1F90030 		ldrsh	r3, [r1]
 132              		.loc 1 67 22 view .LVU31
 133 000e ADF80430 		strh	r3, [sp, #4]	@ movhi
  68:Common/error_log.c **** 
  69:Common/error_log.c ****     if (node_code > code)
 134              		.loc 1 69 5 is_stmt 1 view .LVU32
 135              		.loc 1 69 19 is_stmt 0 view .LVU33
 136 0012 BDF80620 		ldrh	r2, [sp, #6]
 137 0016 12B2     		sxth	r2, r2
 138 0018 BDF80430 		ldrh	r3, [sp, #4]
 139 001c 1BB2     		sxth	r3, r3
 140              		.loc 1 69 8 view .LVU34
 141 001e 9A42     		cmp	r2, r3
 142 0020 11DC     		bgt	.L9
  70:Common/error_log.c ****         return Tree_Search_L;
  71:Common/error_log.c **** 
  72:Common/error_log.c ****     if (node_code < code)
 143              		.loc 1 72 5 is_stmt 1 view .LVU35
 144              		.loc 1 72 19 is_stmt 0 view .LVU36
 145 0022 BDF80620 		ldrh	r2, [sp, #6]
 146 0026 12B2     		sxth	r2, r2
 147 0028 BDF80430 		ldrh	r3, [sp, #4]
 148 002c 1BB2     		sxth	r3, r3
 149              		.loc 1 72 8 view .LVU37
 150 002e 9A42     		cmp	r2, r3
 151 0030 0BDB     		blt	.L10
  73:Common/error_log.c ****         return Tree_Search_R;
  74:Common/error_log.c **** 
  75:Common/error_log.c ****     if (node_code == code)
 152              		.loc 1 75 5 is_stmt 1 view .LVU38
 153              		.loc 1 75 19 is_stmt 0 view .LVU39
 154 0032 BDF80620 		ldrh	r2, [sp, #6]
ARM GAS  C:\Users\HUAV\AppData\Local\Temp\ccqK5tkd.s 			page 5


 155 0036 12B2     		sxth	r2, r2
 156 0038 BDF80430 		ldrh	r3, [sp, #4]
 157 003c 1BB2     		sxth	r3, r3
 158              		.loc 1 75 8 view .LVU40
 159 003e 9A42     		cmp	r2, r3
 160 0040 05D0     		beq	.L11
 161              	.LVL3:
 162              	.L7:
  76:Common/error_log.c ****         return Tree_Search_D;
  77:Common/error_log.c **** }
 163              		.loc 1 77 1 view .LVU41
 164 0042 02B0     		add	sp, sp, #8
 165              	.LCFI6:
 166              		.cfi_remember_state
 167              		.cfi_def_cfa_offset 0
 168              		@ sp needed
 169 0044 7047     		bx	lr
 170              	.LVL4:
 171              	.L9:
 172              	.LCFI7:
 173              		.cfi_restore_state
  70:Common/error_log.c **** 
 174              		.loc 1 70 16 view .LVU42
 175 0046 0120     		movs	r0, #1
 176              	.LVL5:
  70:Common/error_log.c **** 
 177              		.loc 1 70 16 view .LVU43
 178 0048 FBE7     		b	.L7
 179              	.LVL6:
 180              	.L10:
  73:Common/error_log.c ****         return Tree_Search_R;
 181              		.loc 1 73 16 view .LVU44
 182 004a 0220     		movs	r0, #2
 183              	.LVL7:
  73:Common/error_log.c ****         return Tree_Search_R;
 184              		.loc 1 73 16 view .LVU45
 185 004c F9E7     		b	.L7
 186              	.LVL8:
 187              	.L11:
  76:Common/error_log.c ****         return Tree_Search_D;
 188              		.loc 1 76 16 view .LVU46
 189 004e 0320     		movs	r0, #3
 190              	.LVL9:
  76:Common/error_log.c ****         return Tree_Search_D;
 191              		.loc 1 76 16 view .LVU47
 192 0050 F7E7     		b	.L7
 193              		.cfi_endproc
 194              	.LFE4:
 196              		.section	.text.Error_Register,"ax",%progbits
 197              		.align	1
 198              		.syntax unified
 199              		.thumb
 200              		.thumb_func
 201              		.fpu fpv5-d16
 203              	Error_Register:
 204              	.LVL10:
 205              	.LFB6:
ARM GAS  C:\Users\HUAV\AppData\Local\Temp\ccqK5tkd.s 			page 6


  78:Common/error_log.c **** 
  79:Common/error_log.c **** static Error_Handler ErrorTree_Create(char *name)
  80:Common/error_log.c **** {
  81:Common/error_log.c ****     volatile ErrorTree_TypeDef *Error_Tmp = NULL;
  82:Common/error_log.c **** 
  83:Common/error_log.c ****     if (!ErrorQueue_Init)
  84:Common/error_log.c ****     {
  85:Common/error_log.c ****         ErrorQueue_CreateState = Queue.create_auto(&ErrorQueue, "ErrorQueue", ERROR_DESC_BUFFSIZE);
  86:Common/error_log.c ****         ErrorQueue_Init = true;
  87:Common/error_log.c ****     }
  88:Common/error_log.c **** 
  89:Common/error_log.c ****     Error_Tmp = (ErrorTree_TypeDef *)MMU_Malloc(sizeof(ErrorTree_TypeDef));
  90:Common/error_log.c **** 
  91:Common/error_log.c ****     if (Error_Tmp == NULL)
  92:Common/error_log.c ****         return NULL;
  93:Common/error_log.c **** 
  94:Common/error_log.c ****     Error_Tmp->tree = BalanceTree.Create(name, Error_InsertPriority_Compare, Error_Search, Error_In
  95:Common/error_log.c **** 
  96:Common/error_log.c ****     if (Error_Tmp == NULL)
  97:Common/error_log.c ****         return 0;
  98:Common/error_log.c **** 
  99:Common/error_log.c ****     Error_Tmp->reg_num = 0;
 100:Common/error_log.c ****     Error_Tmp->link_node = NULL;
 101:Common/error_log.c **** 
 102:Common/error_log.c ****     return (Error_Handler)Error_Tmp;
 103:Common/error_log.c **** }
 104:Common/error_log.c **** 
 105:Common/error_log.c **** static bool Error_Register(Error_Handler hdl, Error_Obj_Typedef *Obj_List, uint16_t num)
 106:Common/error_log.c **** {
 206              		.loc 1 106 1 is_stmt 1 view -0
 207              		.cfi_startproc
 208              		@ args = 0, pretend = 0, frame = 0
 209              		@ frame_needed = 0, uses_anonymous_args = 0
 107:Common/error_log.c ****     item_obj *linked_item = NULL;
 210              		.loc 1 107 5 view .LVU49
 108:Common/error_log.c **** 
 109:Common/error_log.c ****     if (hdl == 0)
 211              		.loc 1 109 5 view .LVU50
 212              		.loc 1 109 8 is_stmt 0 view .LVU51
 213 0000 B0B1     		cbz	r0, .L17
 106:Common/error_log.c ****     item_obj *linked_item = NULL;
 214              		.loc 1 106 1 view .LVU52
 215 0002 F8B5     		push	{r3, r4, r5, r6, r7, lr}
 216              	.LCFI8:
 217              		.cfi_def_cfa_offset 24
 218              		.cfi_offset 3, -24
 219              		.cfi_offset 4, -20
 220              		.cfi_offset 5, -16
 221              		.cfi_offset 6, -12
 222              		.cfi_offset 7, -8
 223              		.cfi_offset 14, -4
 224 0004 0E46     		mov	r6, r1
 225 0006 1546     		mov	r5, r2
 226 0008 0746     		mov	r7, r0
 227              	.LBB2:
 110:Common/error_log.c ****         return false;
 111:Common/error_log.c **** 
ARM GAS  C:\Users\HUAV\AppData\Local\Temp\ccqK5tkd.s 			page 7


 112:Common/error_log.c ****     for (uint16_t i = 0; i < num; i++)
 228              		.loc 1 112 19 view .LVU53
 229 000a 0024     		movs	r4, #0
 230              	.LVL11:
 231              	.L15:
 232              		.loc 1 112 26 is_stmt 1 discriminator 1 view .LVU54
 233              		.loc 1 112 5 is_stmt 0 discriminator 1 view .LVU55
 234 000c AC42     		cmp	r4, r5
 235 000e 0CD2     		bcs	.L22
 113:Common/error_log.c ****     {
 114:Common/error_log.c ****         BalanceTree.Insert(ErrorHandleToObj(hdl)->tree, Obj_List[i].desc, (data_handle)(&Obj_List[i
 236              		.loc 1 114 9 is_stmt 1 discriminator 3 view .LVU56
 237              		.loc 1 114 20 is_stmt 0 discriminator 3 view .LVU57
 238 0010 084B     		ldr	r3, .L23
 239 0012 5B68     		ldr	r3, [r3, #4]
 240              		.loc 1 114 65 discriminator 3 view .LVU58
 241 0014 04EB4402 		add	r2, r4, r4, lsl #1
 242 0018 06EBC202 		add	r2, r6, r2, lsl #3
 243              		.loc 1 114 9 discriminator 3 view .LVU59
 244 001c 5168     		ldr	r1, [r2, #4]	@ unaligned
 245 001e D7F80200 		ldr	r0, [r7, #2]	@ unaligned
 246 0022 9847     		blx	r3
 247              	.LVL12:
 112:Common/error_log.c ****     {
 248              		.loc 1 112 35 is_stmt 1 discriminator 3 view .LVU60
 112:Common/error_log.c ****     {
 249              		.loc 1 112 36 is_stmt 0 discriminator 3 view .LVU61
 250 0024 0134     		adds	r4, r4, #1
 251              	.LVL13:
 112:Common/error_log.c ****     {
 252              		.loc 1 112 36 discriminator 3 view .LVU62
 253 0026 A4B2     		uxth	r4, r4
 254              	.LVL14:
 112:Common/error_log.c ****     {
 255              		.loc 1 112 36 discriminator 3 view .LVU63
 256 0028 F0E7     		b	.L15
 257              	.L22:
 112:Common/error_log.c ****     {
 258              		.loc 1 112 36 discriminator 3 view .LVU64
 259              	.LBE2:
 115:Common/error_log.c ****     }
 116:Common/error_log.c **** 
 117:Common/error_log.c ****     ErrorHandleToObj(hdl)->reg_num = num;
 260              		.loc 1 117 5 is_stmt 1 view .LVU65
 261              		.loc 1 117 36 is_stmt 0 view .LVU66
 262 002a 3D80     		strh	r5, [r7]	@ unaligned
 118:Common/error_log.c ****     return true;
 263              		.loc 1 118 5 is_stmt 1 view .LVU67
 264              		.loc 1 118 12 is_stmt 0 view .LVU68
 265 002c 0120     		movs	r0, #1
 119:Common/error_log.c **** }
 266              		.loc 1 119 1 view .LVU69
 267 002e F8BD     		pop	{r3, r4, r5, r6, r7, pc}
 268              	.LVL15:
 269              	.L17:
 270              	.LCFI9:
 271              		.cfi_def_cfa_offset 0
ARM GAS  C:\Users\HUAV\AppData\Local\Temp\ccqK5tkd.s 			page 8


 272              		.cfi_restore 3
 273              		.cfi_restore 4
 274              		.cfi_restore 5
 275              		.cfi_restore 6
 276              		.cfi_restore 7
 277              		.cfi_restore 14
 110:Common/error_log.c **** 
 278              		.loc 1 110 16 view .LVU70
 279 0030 0020     		movs	r0, #0
 280              	.LVL16:
 281              		.loc 1 119 1 view .LVU71
 282 0032 7047     		bx	lr
 283              	.L24:
 284              		.align	2
 285              	.L23:
 286 0034 00000000 		.word	BalanceTree
 287              		.cfi_endproc
 288              	.LFE6:
 290              		.section	.text.Error_Set_Callback,"ax",%progbits
 291              		.align	1
 292              		.syntax unified
 293              		.thumb
 294              		.thumb_func
 295              		.fpu fpv5-d16
 297              	Error_Set_Callback:
 298              	.LVL17:
 299              	.LFB9:
 120:Common/error_log.c **** 
 121:Common/error_log.c **** static uint32_t Error_DescToQueue(const char *str, ...)
 122:Common/error_log.c **** {
 123:Common/error_log.c ****     uint32_t length = 0;
 124:Common/error_log.c ****     char p_data[128] = {0};
 125:Common/error_log.c ****     va_list arp;
 126:Common/error_log.c ****     va_start(arp, str);
 127:Common/error_log.c **** 
 128:Common/error_log.c ****     if (ErrorQueue_CreateState)
 129:Common/error_log.c ****     {
 130:Common/error_log.c ****         length = vsnprintf((char *)p_data, sizeof(p_data), (char *)str, arp);
 131:Common/error_log.c **** 
 132:Common/error_log.c ****         port_reg.section.len = length;
 133:Common/error_log.c ****         Queue.push(&ErrorQueue, &port_reg.val, sizeof(port_reg.val));
 134:Common/error_log.c ****         Queue.push(&ErrorQueue, p_data, length);
 135:Common/error_log.c ****     }
 136:Common/error_log.c **** 
 137:Common/error_log.c ****     va_end(arp);
 138:Common/error_log.c ****     return length;
 139:Common/error_log.c **** }
 140:Common/error_log.c **** 
 141:Common/error_log.c **** /* still in half way */
 142:Common/error_log.c **** static bool Error_Trigger(Error_Handler hdl, int16_t code, uint8_t *p_arg, uint16_t size)
 143:Common/error_log.c **** {
 144:Common/error_log.c ****     int16_t code_tmp = code;
 145:Common/error_log.c ****     data_handle match_data = 0;
 146:Common/error_log.c ****     ErrorStream_TypeDef data_stream;
 147:Common/error_log.c ****     char *letter = NULL;
 148:Common/error_log.c **** 
 149:Common/error_log.c ****     port_reg.val = 0;
ARM GAS  C:\Users\HUAV\AppData\Local\Temp\ccqK5tkd.s 			page 9


 150:Common/error_log.c **** 
 151:Common/error_log.c ****     if (hdl == 0)
 152:Common/error_log.c ****         return false;
 153:Common/error_log.c **** 
 154:Common/error_log.c ****     TreeNode_Handle search_handle = BalanceTree.Search(ErrorHandleToObj(hdl)->tree, (data_handle)&c
 155:Common/error_log.c **** 
 156:Common/error_log.c ****     data_stream.p_data = p_arg;
 157:Common/error_log.c ****     data_stream.size = size;
 158:Common/error_log.c **** 
 159:Common/error_log.c ****     (ErrorTreeDataToObj(TreeNodeHandleToObj(search_handle)->data)->prc_data_stream).p_data = p_arg;
 160:Common/error_log.c ****     (ErrorTreeDataToObj(TreeNodeHandleToObj(search_handle)->data)->prc_data_stream).size = size;
 161:Common/error_log.c **** 
 162:Common/error_log.c ****     /* find target node */
 163:Common/error_log.c ****     if (search_handle)
 164:Common/error_log.c ****     {
 165:Common/error_log.c ****         if (TreeNodeHandleToObj(search_handle)->data)
 166:Common/error_log.c ****         {
 167:Common/error_log.c ****             port_reg.section.log_reg = ErrorTreeDataToObj(TreeNodeHandleToObj(search_handle)->data)
 168:Common/error_log.c ****             port_reg.section.out_reg = ErrorTreeDataToObj(TreeNodeHandleToObj(search_handle)->data)
 169:Common/error_log.c ****             port_reg.section.len = strlen(ErrorTreeDataToObj(TreeNodeHandleToObj(search_handle)->da
 170:Common/error_log.c **** 
 171:Common/error_log.c ****             if (ErrorQueue_CreateState && port_reg.val)
 172:Common/error_log.c ****             {
 173:Common/error_log.c ****                 /* Push Error describe into Error_Queue */
 174:Common/error_log.c ****                 /* push out or log state */
 175:Common/error_log.c ****                 Queue.push(&ErrorQueue, &port_reg.val, sizeof(port_reg.val));
 176:Common/error_log.c ****                 /* push error tree name */
 177:Common/error_log.c ****                 letter = "[ ";
 178:Common/error_log.c ****                 Queue.push(&ErrorQueue, letter, strlen(letter));
 179:Common/error_log.c **** 
 180:Common/error_log.c ****                 Queue.push(&ErrorQueue, ErrorHandleToObj(hdl)->tree->name, strlen(ErrorHandleToObj(
 181:Common/error_log.c **** 
 182:Common/error_log.c ****                 letter = " ] ";
 183:Common/error_log.c ****                 Queue.push(&ErrorQueue, letter, strlen(letter));
 184:Common/error_log.c **** 
 185:Common/error_log.c ****                 /* push error decribe */
 186:Common/error_log.c ****                 Queue.push(&ErrorQueue, ErrorTreeDataToObj(TreeNodeHandleToObj(search_handle)->data
 187:Common/error_log.c ****             }
 188:Common/error_log.c **** 
 189:Common/error_log.c ****             if (ErrorTreeDataToObj(TreeNodeHandleToObj(search_handle)->data)->proc_type == Error_Pr
 190:Common/error_log.c ****             {
 191:Common/error_log.c ****                 /* trigger process callback */
 192:Common/error_log.c ****                 if (ErrorTreeDataToObj(TreeNodeHandleToObj(search_handle)->data)->prc_callback)
 193:Common/error_log.c ****                 {
 194:Common/error_log.c ****                     ErrorTreeDataToObj(TreeNodeHandleToObj(search_handle)->data)->prc_callback(code
 195:Common/error_log.c ****                 }
 196:Common/error_log.c ****             }
 197:Common/error_log.c ****             else if (ErrorTreeDataToObj(TreeNodeHandleToObj(search_handle)->data)->proc_type == Err
 198:Common/error_log.c ****             {
 199:Common/error_log.c ****                 /* add error into linked list */
 200:Common/error_log.c ****                 /* reserve */
 201:Common/error_log.c ****             }
 202:Common/error_log.c ****             else if (ErrorTreeDataToObj(TreeNodeHandleToObj(search_handle)->data)->proc_type == Err
 203:Common/error_log.c ****             {
 204:Common/error_log.c ****                 /* reserve */
 205:Common/error_log.c ****             }
 206:Common/error_log.c ****         }
ARM GAS  C:\Users\HUAV\AppData\Local\Temp\ccqK5tkd.s 			page 10


 207:Common/error_log.c ****     }
 208:Common/error_log.c **** 
 209:Common/error_log.c ****     port_reg.val = 0;
 210:Common/error_log.c **** 
 211:Common/error_log.c ****     return true;
 212:Common/error_log.c **** }
 213:Common/error_log.c **** 
 214:Common/error_log.c **** static void Error_Set_Callback(ErrorLog_Callback_Type_List type, error_port_callback callback)
 215:Common/error_log.c **** {
 300              		.loc 1 215 1 is_stmt 1 view -0
 301              		.cfi_startproc
 302              		@ args = 0, pretend = 0, frame = 0
 303              		@ frame_needed = 0, uses_anonymous_args = 0
 304              		@ link register save eliminated.
 216:Common/error_log.c ****     switch (type)
 305              		.loc 1 216 5 view .LVU73
 306 0000 0128     		cmp	r0, #1
 307 0002 02D0     		beq	.L26
 308 0004 0228     		cmp	r0, #2
 309 0006 03D0     		beq	.L27
 310 0008 7047     		bx	lr
 311              	.L26:
 217:Common/error_log.c ****     {
 218:Common/error_log.c ****     case Error_Out_Callback:
 219:Common/error_log.c ****         out_callback = callback;
 312              		.loc 1 219 9 view .LVU74
 313              		.loc 1 219 22 is_stmt 0 view .LVU75
 314 000a 034B     		ldr	r3, .L29
 315 000c 1960     		str	r1, [r3]
 220:Common/error_log.c ****         break;
 316              		.loc 1 220 9 is_stmt 1 view .LVU76
 317 000e 7047     		bx	lr
 318              	.L27:
 221:Common/error_log.c **** 
 222:Common/error_log.c ****     case Error_Log_Callback:
 223:Common/error_log.c ****         log_callback = callback;
 319              		.loc 1 223 9 view .LVU77
 320              		.loc 1 223 22 is_stmt 0 view .LVU78
 321 0010 024B     		ldr	r3, .L29+4
 322 0012 1960     		str	r1, [r3]
 224:Common/error_log.c ****         break;
 323              		.loc 1 224 9 is_stmt 1 view .LVU79
 225:Common/error_log.c **** 
 226:Common/error_log.c ****     default:
 227:Common/error_log.c ****         break;
 228:Common/error_log.c ****     }
 229:Common/error_log.c **** }
 324              		.loc 1 229 1 is_stmt 0 view .LVU80
 325 0014 7047     		bx	lr
 326              	.L30:
 327 0016 00BF     		.align	2
 328              	.L29:
 329 0018 00000000 		.word	.LANCHOR0
 330 001c 00000000 		.word	.LANCHOR1
 331              		.cfi_endproc
 332              	.LFE9:
 334              		.section	.text.Error_DescToQueue,"ax",%progbits
ARM GAS  C:\Users\HUAV\AppData\Local\Temp\ccqK5tkd.s 			page 11


 335              		.align	1
 336              		.syntax unified
 337              		.thumb
 338              		.thumb_func
 339              		.fpu fpv5-d16
 341              	Error_DescToQueue:
 342              	.LVL18:
 343              	.LFB7:
 122:Common/error_log.c ****     uint32_t length = 0;
 344              		.loc 1 122 1 is_stmt 1 view -0
 345              		.cfi_startproc
 346              		@ args = 4, pretend = 16, frame = 136
 347              		@ frame_needed = 0, uses_anonymous_args = 1
 122:Common/error_log.c ****     uint32_t length = 0;
 348              		.loc 1 122 1 is_stmt 0 view .LVU82
 349 0000 0FB4     		push	{r0, r1, r2, r3}
 350              	.LCFI10:
 351              		.cfi_def_cfa_offset 16
 352              		.cfi_offset 0, -16
 353              		.cfi_offset 1, -12
 354              		.cfi_offset 2, -8
 355              		.cfi_offset 3, -4
 356 0002 F0B5     		push	{r4, r5, r6, r7, lr}
 357              	.LCFI11:
 358              		.cfi_def_cfa_offset 36
 359              		.cfi_offset 4, -36
 360              		.cfi_offset 5, -32
 361              		.cfi_offset 6, -28
 362              		.cfi_offset 7, -24
 363              		.cfi_offset 14, -20
 364 0004 A3B0     		sub	sp, sp, #140
 365              	.LCFI12:
 366              		.cfi_def_cfa_offset 176
 367 0006 28AC     		add	r4, sp, #160
 368 0008 54F8045B 		ldr	r5, [r4], #4
 123:Common/error_log.c ****     char p_data[128] = {0};
 369              		.loc 1 123 5 is_stmt 1 view .LVU83
 370              	.LVL19:
 124:Common/error_log.c ****     va_list arp;
 371              		.loc 1 124 5 view .LVU84
 124:Common/error_log.c ****     va_list arp;
 372              		.loc 1 124 10 is_stmt 0 view .LVU85
 373 000c 0021     		movs	r1, #0
 374 000e 0291     		str	r1, [sp, #8]
 375 0010 7C22     		movs	r2, #124
 376 0012 03A8     		add	r0, sp, #12
 377 0014 FFF7FEFF 		bl	memset
 378              	.LVL20:
 125:Common/error_log.c ****     va_start(arp, str);
 379              		.loc 1 125 5 is_stmt 1 view .LVU86
 126:Common/error_log.c **** 
 380              		.loc 1 126 5 view .LVU87
 381 0018 0194     		str	r4, [sp, #4]
 128:Common/error_log.c ****     {
 382              		.loc 1 128 5 view .LVU88
 128:Common/error_log.c ****     {
 383              		.loc 1 128 9 is_stmt 0 view .LVU89
ARM GAS  C:\Users\HUAV\AppData\Local\Temp\ccqK5tkd.s 			page 12


 384 001a 104B     		ldr	r3, .L36
 385 001c 1B78     		ldrb	r3, [r3]	@ zero_extendqisi2
 128:Common/error_log.c ****     {
 386              		.loc 1 128 8 view .LVU90
 387 001e 33B9     		cbnz	r3, .L35
 123:Common/error_log.c ****     char p_data[128] = {0};
 388              		.loc 1 123 14 view .LVU91
 389 0020 0024     		movs	r4, #0
 137:Common/error_log.c ****     return length;
 390              		.loc 1 137 5 is_stmt 1 view .LVU92
 138:Common/error_log.c **** }
 391              		.loc 1 138 5 view .LVU93
 392              	.LVL21:
 393              	.L31:
 139:Common/error_log.c **** 
 394              		.loc 1 139 1 is_stmt 0 view .LVU94
 395 0022 2046     		mov	r0, r4
 396 0024 23B0     		add	sp, sp, #140
 397              	.LCFI13:
 398              		.cfi_remember_state
 399              		.cfi_def_cfa_offset 36
 400              		@ sp needed
 401 0026 BDE8F040 		pop	{r4, r5, r6, r7, lr}
 402              	.LCFI14:
 403              		.cfi_restore 14
 404              		.cfi_restore 7
 405              		.cfi_restore 6
 406              		.cfi_restore 5
 407              		.cfi_restore 4
 408              		.cfi_def_cfa_offset 16
 409 002a 04B0     		add	sp, sp, #16
 410              	.LCFI15:
 411              		.cfi_restore 3
 412              		.cfi_restore 2
 413              		.cfi_restore 1
 414              		.cfi_restore 0
 415              		.cfi_def_cfa_offset 0
 416 002c 7047     		bx	lr
 417              	.LVL22:
 418              	.L35:
 419              	.LCFI16:
 420              		.cfi_restore_state
 130:Common/error_log.c **** 
 421              		.loc 1 130 9 is_stmt 1 view .LVU95
 130:Common/error_log.c **** 
 422              		.loc 1 130 18 is_stmt 0 view .LVU96
 423 002e 2346     		mov	r3, r4
 424 0030 2A46     		mov	r2, r5
 425 0032 8021     		movs	r1, #128
 426 0034 02A8     		add	r0, sp, #8
 427 0036 FFF7FEFF 		bl	vsnprintf
 428              	.LVL23:
 429 003a 0446     		mov	r4, r0
 430              	.LVL24:
 132:Common/error_log.c ****         Queue.push(&ErrorQueue, &port_reg.val, sizeof(port_reg.val));
 431              		.loc 1 132 9 is_stmt 1 view .LVU97
 132:Common/error_log.c ****         Queue.push(&ErrorQueue, &port_reg.val, sizeof(port_reg.val));
ARM GAS  C:\Users\HUAV\AppData\Local\Temp\ccqK5tkd.s 			page 13


 432              		.loc 1 132 30 is_stmt 0 view .LVU98
 433 003c 87B2     		uxth	r7, r0
 434 003e 0849     		ldr	r1, .L36+4
 435 0040 A1F80100 		strh	r0, [r1, #1]	@ unaligned
 133:Common/error_log.c ****         Queue.push(&ErrorQueue, p_data, length);
 436              		.loc 1 133 9 is_stmt 1 view .LVU99
 133:Common/error_log.c ****         Queue.push(&ErrorQueue, p_data, length);
 437              		.loc 1 133 14 is_stmt 0 view .LVU100
 438 0044 074E     		ldr	r6, .L36+8
 439 0046 B369     		ldr	r3, [r6, #24]
 133:Common/error_log.c ****         Queue.push(&ErrorQueue, p_data, length);
 440              		.loc 1 133 9 view .LVU101
 441 0048 074D     		ldr	r5, .L36+12
 442 004a 0422     		movs	r2, #4
 443 004c 2846     		mov	r0, r5
 444              	.LVL25:
 133:Common/error_log.c ****         Queue.push(&ErrorQueue, p_data, length);
 445              		.loc 1 133 9 view .LVU102
 446 004e 9847     		blx	r3
 447              	.LVL26:
 134:Common/error_log.c ****     }
 448              		.loc 1 134 9 is_stmt 1 view .LVU103
 134:Common/error_log.c ****     }
 449              		.loc 1 134 14 is_stmt 0 view .LVU104
 450 0050 B369     		ldr	r3, [r6, #24]
 134:Common/error_log.c ****     }
 451              		.loc 1 134 9 view .LVU105
 452 0052 3A46     		mov	r2, r7
 453 0054 02A9     		add	r1, sp, #8
 454 0056 2846     		mov	r0, r5
 455 0058 9847     		blx	r3
 456              	.LVL27:
 457 005a E2E7     		b	.L31
 458              	.L37:
 459              		.align	2
 460              	.L36:
 461 005c 00000000 		.word	.LANCHOR2
 462 0060 00000000 		.word	.LANCHOR3
 463 0064 00000000 		.word	Queue
 464 0068 00000000 		.word	.LANCHOR4
 465              		.cfi_endproc
 466              	.LFE7:
 468              		.section	.rodata.ErrorTree_Create.str1.4,"aMS",%progbits,1
 469              		.align	2
 470              	.LC0:
 471 0000 4572726F 		.ascii	"ErrorQueue\000"
 471      72517565 
 471      756500
 472              		.section	.text.ErrorTree_Create,"ax",%progbits
 473              		.align	1
 474              		.syntax unified
 475              		.thumb
 476              		.thumb_func
 477              		.fpu fpv5-d16
 479              	ErrorTree_Create:
 480              	.LVL28:
 481              	.LFB5:
ARM GAS  C:\Users\HUAV\AppData\Local\Temp\ccqK5tkd.s 			page 14


  80:Common/error_log.c ****     volatile ErrorTree_TypeDef *Error_Tmp = NULL;
 482              		.loc 1 80 1 is_stmt 1 view -0
 483              		.cfi_startproc
 484              		@ args = 0, pretend = 0, frame = 0
 485              		@ frame_needed = 0, uses_anonymous_args = 0
  80:Common/error_log.c ****     volatile ErrorTree_TypeDef *Error_Tmp = NULL;
 486              		.loc 1 80 1 is_stmt 0 view .LVU107
 487 0000 70B5     		push	{r4, r5, r6, lr}
 488              	.LCFI17:
 489              		.cfi_def_cfa_offset 16
 490              		.cfi_offset 4, -16
 491              		.cfi_offset 5, -12
 492              		.cfi_offset 6, -8
 493              		.cfi_offset 14, -4
 494 0002 0546     		mov	r5, r0
  81:Common/error_log.c **** 
 495              		.loc 1 81 5 is_stmt 1 view .LVU108
 496              	.LVL29:
  83:Common/error_log.c ****     {
 497              		.loc 1 83 5 view .LVU109
  83:Common/error_log.c ****     {
 498              		.loc 1 83 9 is_stmt 0 view .LVU110
 499 0004 164B     		ldr	r3, .L43
 500 0006 1B78     		ldrb	r3, [r3]	@ zero_extendqisi2
  83:Common/error_log.c ****     {
 501              		.loc 1 83 8 view .LVU111
 502 0008 5BB9     		cbnz	r3, .L39
  85:Common/error_log.c ****         ErrorQueue_Init = true;
 503              		.loc 1 85 9 is_stmt 1 view .LVU112
  85:Common/error_log.c ****         ErrorQueue_Init = true;
 504              		.loc 1 85 39 is_stmt 0 view .LVU113
 505 000a 164B     		ldr	r3, .L43+4
 506 000c 9B68     		ldr	r3, [r3, #8]
  85:Common/error_log.c ****         ErrorQueue_Init = true;
 507              		.loc 1 85 34 view .LVU114
 508 000e 4FF48062 		mov	r2, #1024
 509 0012 1549     		ldr	r1, .L43+8
 510 0014 1548     		ldr	r0, .L43+12
 511              	.LVL30:
  85:Common/error_log.c ****         ErrorQueue_Init = true;
 512              		.loc 1 85 34 view .LVU115
 513 0016 9847     		blx	r3
 514              	.LVL31:
  85:Common/error_log.c ****         ErrorQueue_Init = true;
 515              		.loc 1 85 32 view .LVU116
 516 0018 154B     		ldr	r3, .L43+16
 517 001a 1870     		strb	r0, [r3]
  86:Common/error_log.c ****     }
 518              		.loc 1 86 9 is_stmt 1 view .LVU117
  86:Common/error_log.c ****     }
 519              		.loc 1 86 25 is_stmt 0 view .LVU118
 520 001c 104B     		ldr	r3, .L43
 521 001e 0122     		movs	r2, #1
 522 0020 1A70     		strb	r2, [r3]
 523              	.L39:
  89:Common/error_log.c **** 
 524              		.loc 1 89 5 is_stmt 1 view .LVU119
ARM GAS  C:\Users\HUAV\AppData\Local\Temp\ccqK5tkd.s 			page 15


  89:Common/error_log.c **** 
 525              		.loc 1 89 38 is_stmt 0 view .LVU120
 526 0022 0A20     		movs	r0, #10
 527 0024 FFF7FEFF 		bl	MMU_Malloc
 528              	.LVL32:
  91:Common/error_log.c ****         return NULL;
 529              		.loc 1 91 5 is_stmt 1 view .LVU121
  91:Common/error_log.c ****         return NULL;
 530              		.loc 1 91 8 is_stmt 0 view .LVU122
 531 0028 0446     		mov	r4, r0
 532 002a B8B1     		cbz	r0, .L41
  94:Common/error_log.c **** 
 533              		.loc 1 94 5 is_stmt 1 view .LVU123
  94:Common/error_log.c **** 
 534              		.loc 1 94 34 is_stmt 0 view .LVU124
 535 002c 114B     		ldr	r3, .L43+20
 536 002e 1E68     		ldr	r6, [r3]
  94:Common/error_log.c **** 
 537              		.loc 1 94 23 view .LVU125
 538 0030 1149     		ldr	r1, .L43+24
 539 0032 0B46     		mov	r3, r1
 540 0034 114A     		ldr	r2, .L43+28
 541 0036 2846     		mov	r0, r5
 542              	.LVL33:
  94:Common/error_log.c **** 
 543              		.loc 1 94 23 view .LVU126
 544 0038 B047     		blx	r6
 545              	.LVL34:
  94:Common/error_log.c **** 
 546              		.loc 1 94 21 view .LVU127
 547 003a C4F80200 		str	r0, [r4, #2]	@ unaligned
  96:Common/error_log.c ****         return 0;
 548              		.loc 1 96 5 is_stmt 1 view .LVU128
  99:Common/error_log.c ****     Error_Tmp->link_node = NULL;
 549              		.loc 1 99 5 view .LVU129
  99:Common/error_log.c ****     Error_Tmp->link_node = NULL;
 550              		.loc 1 99 24 is_stmt 0 view .LVU130
 551 003e 2378     		ldrb	r3, [r4]	@ zero_extendqisi2
 552 0040 0023     		movs	r3, #0
 553 0042 2370     		strb	r3, [r4]
 554 0044 6278     		ldrb	r2, [r4, #1]	@ zero_extendqisi2
 555 0046 6370     		strb	r3, [r4, #1]
 100:Common/error_log.c **** 
 556              		.loc 1 100 5 is_stmt 1 view .LVU131
 100:Common/error_log.c **** 
 557              		.loc 1 100 26 is_stmt 0 view .LVU132
 558 0048 A279     		ldrb	r2, [r4, #6]	@ zero_extendqisi2
 559 004a A371     		strb	r3, [r4, #6]
 560 004c E279     		ldrb	r2, [r4, #7]	@ zero_extendqisi2
 561 004e E371     		strb	r3, [r4, #7]
 562 0050 227A     		ldrb	r2, [r4, #8]	@ zero_extendqisi2
 563 0052 2372     		strb	r3, [r4, #8]
 564 0054 627A     		ldrb	r2, [r4, #9]	@ zero_extendqisi2
 565 0056 6372     		strb	r3, [r4, #9]
 102:Common/error_log.c **** }
 566              		.loc 1 102 5 is_stmt 1 view .LVU133
 102:Common/error_log.c **** }
ARM GAS  C:\Users\HUAV\AppData\Local\Temp\ccqK5tkd.s 			page 16


 567              		.loc 1 102 12 is_stmt 0 view .LVU134
 568 0058 2046     		mov	r0, r4
 569              	.L38:
 103:Common/error_log.c **** 
 570              		.loc 1 103 1 view .LVU135
 571 005a 70BD     		pop	{r4, r5, r6, pc}
 572              	.LVL35:
 573              	.L41:
  92:Common/error_log.c **** 
 574              		.loc 1 92 16 view .LVU136
 575 005c 0020     		movs	r0, #0
 576              	.LVL36:
  92:Common/error_log.c **** 
 577              		.loc 1 92 16 view .LVU137
 578 005e FCE7     		b	.L38
 579              	.L44:
 580              		.align	2
 581              	.L43:
 582 0060 00000000 		.word	.LANCHOR5
 583 0064 00000000 		.word	Queue
 584 0068 00000000 		.word	.LC0
 585 006c 00000000 		.word	.LANCHOR4
 586 0070 00000000 		.word	.LANCHOR2
 587 0074 00000000 		.word	BalanceTree
 588 0078 00000000 		.word	Error_InsertPriority_Compare
 589 007c 00000000 		.word	Error_Search
 590              		.cfi_endproc
 591              	.LFE5:
 593              		.section	.text.Error_Proc,"ax",%progbits
 594              		.align	1
 595              		.syntax unified
 596              		.thumb
 597              		.thumb_func
 598              		.fpu fpv5-d16
 600              	Error_Proc:
 601              	.LVL37:
 602              	.LFB10:
 230:Common/error_log.c **** /* still in half way */
 231:Common/error_log.c **** static bool Error_Proc(Error_Handler hdl)
 232:Common/error_log.c **** {
 603              		.loc 1 232 1 is_stmt 1 view -0
 604              		.cfi_startproc
 605              		@ args = 0, pretend = 0, frame = 16
 606              		@ frame_needed = 0, uses_anonymous_args = 0
 607              		.loc 1 232 1 is_stmt 0 view .LVU139
 608 0000 F0B5     		push	{r4, r5, r6, r7, lr}
 609              	.LCFI18:
 610              		.cfi_def_cfa_offset 20
 611              		.cfi_offset 4, -20
 612              		.cfi_offset 5, -16
 613              		.cfi_offset 6, -12
 614              		.cfi_offset 7, -8
 615              		.cfi_offset 14, -4
 616 0002 87B0     		sub	sp, sp, #28
 617              	.LCFI19:
 618              		.cfi_def_cfa_offset 48
 233:Common/error_log.c ****     ErrorStream_TypeDef stream;
ARM GAS  C:\Users\HUAV\AppData\Local\Temp\ccqK5tkd.s 			page 17


 619              		.loc 1 233 5 is_stmt 1 view .LVU140
 234:Common/error_log.c ****     Error_Port_Reg ErrorQueue_Head_State;
 620              		.loc 1 234 5 view .LVU141
 235:Common/error_log.c ****     uint8_t *p_data = NULL;
 621              		.loc 1 235 5 view .LVU142
 622              	.LVL38:
 236:Common/error_log.c **** 
 237:Common/error_log.c ****     memset(&ErrorQueue_Head_State, NULL, sizeof(Error_Port_Reg));
 623              		.loc 1 237 5 view .LVU143
 624 0004 0023     		movs	r3, #0
 625 0006 0393     		str	r3, [sp, #12]
 238:Common/error_log.c ****     memset(&stream, NULL, sizeof(ErrorStream_TypeDef));
 626              		.loc 1 238 5 view .LVU144
 627 0008 0493     		str	r3, [sp, #16]
 628 000a ADF81430 		strh	r3, [sp, #20]	@ movhi
 239:Common/error_log.c **** 
 240:Common/error_log.c ****     if (hdl == 0 || !ErrorQueue_CreateState)
 629              		.loc 1 240 5 view .LVU145
 630              		.loc 1 240 8 is_stmt 0 view .LVU146
 631 000e 0028     		cmp	r0, #0
 632 0010 5AD0     		beq	.L51
 633              		.loc 1 240 21 discriminator 1 view .LVU147
 634 0012 2F4B     		ldr	r3, .L54
 635 0014 1C78     		ldrb	r4, [r3]	@ zero_extendqisi2
 636              		.loc 1 240 18 discriminator 1 view .LVU148
 637 0016 002C     		cmp	r4, #0
 638 0018 57D0     		beq	.L46
 241:Common/error_log.c ****         return false;
 242:Common/error_log.c **** 
 243:Common/error_log.c ****     /* reserved still developing */
 244:Common/error_log.c ****     if (ErrorHandleToObj(hdl)->link_node)
 639              		.loc 1 244 5 is_stmt 1 view .LVU149
 245:Common/error_log.c ****     {
 246:Common/error_log.c ****     }
 640              		.loc 1 246 5 view .LVU150
 247:Common/error_log.c **** 
 248:Common/error_log.c ****     Queue.check(&ErrorQueue, 0, &ErrorQueue_Head_State.val, sizeof(ErrorQueue_Head_State.val));
 641              		.loc 1 248 5 view .LVU151
 642              		.loc 1 248 10 is_stmt 0 view .LVU152
 643 001a 2E4B     		ldr	r3, .L54+4
 644 001c 5D69     		ldr	r5, [r3, #20]
 645              		.loc 1 248 5 view .LVU153
 646 001e 0423     		movs	r3, #4
 647 0020 03AA     		add	r2, sp, #12
 648 0022 0021     		movs	r1, #0
 649 0024 2C48     		ldr	r0, .L54+8
 650              	.LVL39:
 651              		.loc 1 248 5 view .LVU154
 652 0026 A847     		blx	r5
 653              	.LVL40:
 249:Common/error_log.c **** 
 250:Common/error_log.c ****     if ((ErrorQueue_Head_State.section.out_reg || ErrorQueue_Head_State.section.log_reg) && (out_ca
 654              		.loc 1 250 5 is_stmt 1 view .LVU155
 655              		.loc 1 250 48 is_stmt 0 view .LVU156
 656 0028 9DF80C30 		ldrb	r3, [sp, #12]	@ zero_extendqisi2
 657              		.loc 1 250 8 view .LVU157
 658 002c 002B     		cmp	r3, #0
ARM GAS  C:\Users\HUAV\AppData\Local\Temp\ccqK5tkd.s 			page 18


 659 002e 4CD0     		beq	.L46
 660              		.loc 1 250 94 discriminator 1 view .LVU158
 661 0030 2A4B     		ldr	r3, .L54+12
 662 0032 1B68     		ldr	r3, [r3]
 663              		.loc 1 250 90 discriminator 1 view .LVU159
 664 0034 002B     		cmp	r3, #0
 665 0036 42D0     		beq	.L53
 666              	.L47:
 251:Common/error_log.c ****     {
 252:Common/error_log.c ****         p_data = (uint8_t *)MMU_Malloc(ErrorQueue_Head_State.section.len);
 667              		.loc 1 252 9 is_stmt 1 view .LVU160
 668              		.loc 1 252 29 is_stmt 0 view .LVU161
 669 0038 BDF80D00 		ldrh	r0, [sp, #13]	@ unaligned
 670 003c FFF7FEFF 		bl	MMU_Malloc
 671              	.LVL41:
 253:Common/error_log.c **** 
 254:Common/error_log.c ****         if (p_data)
 672              		.loc 1 254 9 is_stmt 1 view .LVU162
 673              		.loc 1 254 12 is_stmt 0 view .LVU163
 674 0040 0546     		mov	r5, r0
 675 0042 0028     		cmp	r0, #0
 676 0044 41D0     		beq	.L46
 255:Common/error_log.c ****         {
 256:Common/error_log.c ****             if ((Queue.state(ErrorQueue) == Queue_full) || (Queue.state(ErrorQueue) == Queue_ok))
 677              		.loc 1 256 13 is_stmt 1 view .LVU164
 678              		.loc 1 256 23 is_stmt 0 view .LVU165
 679 0046 234B     		ldr	r3, .L54+4
 680 0048 1E6A     		ldr	r6, [r3, #32]
 681              		.loc 1 256 18 view .LVU166
 682 004a 234B     		ldr	r3, .L54+8
 683 004c 1A7C     		ldrb	r2, [r3, #16]	@ zero_extendqisi2
 684 004e 8DF80020 		strb	r2, [sp]
 685 0052 0FCB     		ldm	r3, {r0, r1, r2, r3}
 686              	.LVL42:
 687              		.loc 1 256 18 view .LVU167
 688 0054 B047     		blx	r6
 689              	.LVL43:
 690              		.loc 1 256 16 view .LVU168
 691 0056 0428     		cmp	r0, #4
 692 0058 08D0     		beq	.L48
 693              		.loc 1 256 66 discriminator 1 view .LVU169
 694 005a 1E4B     		ldr	r3, .L54+4
 695 005c 1E6A     		ldr	r6, [r3, #32]
 696              		.loc 1 256 61 discriminator 1 view .LVU170
 697 005e 1E4B     		ldr	r3, .L54+8
 698 0060 1A7C     		ldrb	r2, [r3, #16]	@ zero_extendqisi2
 699 0062 8DF80020 		strb	r2, [sp]
 700 0066 0FCB     		ldm	r3, {r0, r1, r2, r3}
 701 0068 B047     		blx	r6
 702              	.LVL44:
 703              		.loc 1 256 57 discriminator 1 view .LVU171
 704 006a 20BB     		cbnz	r0, .L49
 705              	.L48:
 257:Common/error_log.c ****             {
 258:Common/error_log.c ****                 Queue.pop(&ErrorQueue, &ErrorQueue_Head_State.val, sizeof(ErrorQueue_Head_State.val
 706              		.loc 1 258 17 is_stmt 1 view .LVU172
 707              		.loc 1 258 22 is_stmt 0 view .LVU173
ARM GAS  C:\Users\HUAV\AppData\Local\Temp\ccqK5tkd.s 			page 19


 708 006c 194F     		ldr	r7, .L54+4
 709 006e FB69     		ldr	r3, [r7, #28]
 710              		.loc 1 258 17 view .LVU174
 711 0070 194E     		ldr	r6, .L54+8
 712 0072 0422     		movs	r2, #4
 713 0074 03A9     		add	r1, sp, #12
 714 0076 3046     		mov	r0, r6
 715 0078 9847     		blx	r3
 716              	.LVL45:
 259:Common/error_log.c ****                 Queue.pop(&ErrorQueue, p_data, ErrorQueue_Head_State.section.len);
 717              		.loc 1 259 17 is_stmt 1 view .LVU175
 718              		.loc 1 259 22 is_stmt 0 view .LVU176
 719 007a FB69     		ldr	r3, [r7, #28]
 720              		.loc 1 259 17 view .LVU177
 721 007c BDF80D20 		ldrh	r2, [sp, #13]	@ unaligned
 722 0080 2946     		mov	r1, r5
 723 0082 3046     		mov	r0, r6
 724 0084 9847     		blx	r3
 725              	.LVL46:
 260:Common/error_log.c **** 
 261:Common/error_log.c ****                 if (ErrorQueue_Head_State.section.out_reg && out_callback && p_data)
 726              		.loc 1 261 17 is_stmt 1 view .LVU178
 727              		.loc 1 261 21 is_stmt 0 view .LVU179
 728 0086 9DF80C30 		ldrb	r3, [sp, #12]	@ zero_extendqisi2
 729              		.loc 1 261 20 view .LVU180
 730 008a 13F00F0F 		tst	r3, #15
 731 008e 06D0     		beq	.L50
 732              		.loc 1 261 59 discriminator 1 view .LVU181
 733 0090 124B     		ldr	r3, .L54+12
 734 0092 1B68     		ldr	r3, [r3]
 735 0094 1BB1     		cbz	r3, .L50
 262:Common/error_log.c ****                 {
 263:Common/error_log.c ****                     out_callback(p_data, ErrorQueue_Head_State.section.len);
 736              		.loc 1 263 21 is_stmt 1 view .LVU182
 737 0096 BDF80D10 		ldrh	r1, [sp, #13]	@ unaligned
 738 009a 2846     		mov	r0, r5
 739 009c 9847     		blx	r3
 740              	.LVL47:
 741              	.L50:
 264:Common/error_log.c ****                 }
 265:Common/error_log.c **** 
 266:Common/error_log.c ****                 if (ErrorQueue_Head_State.section.log_reg && log_callback && p_data)
 742              		.loc 1 266 17 view .LVU183
 743              		.loc 1 266 21 is_stmt 0 view .LVU184
 744 009e 9DF80C30 		ldrb	r3, [sp, #12]	@ zero_extendqisi2
 745              		.loc 1 266 20 view .LVU185
 746 00a2 13F0F00F 		tst	r3, #240
 747 00a6 06D0     		beq	.L49
 748              		.loc 1 266 59 discriminator 1 view .LVU186
 749 00a8 0D4B     		ldr	r3, .L54+16
 750 00aa 1B68     		ldr	r3, [r3]
 751 00ac 1BB1     		cbz	r3, .L49
 267:Common/error_log.c ****                 {
 268:Common/error_log.c ****                     log_callback(p_data, ErrorQueue_Head_State.section.len);
 752              		.loc 1 268 21 is_stmt 1 view .LVU187
 753 00ae BDF80D10 		ldrh	r1, [sp, #13]	@ unaligned
 754 00b2 2846     		mov	r0, r5
ARM GAS  C:\Users\HUAV\AppData\Local\Temp\ccqK5tkd.s 			page 20


 755 00b4 9847     		blx	r3
 756              	.LVL48:
 757              	.L49:
 269:Common/error_log.c ****                 }
 270:Common/error_log.c ****             }
 271:Common/error_log.c **** 
 272:Common/error_log.c ****             MMU_Free(p_data);
 758              		.loc 1 272 13 view .LVU188
 759 00b6 2846     		mov	r0, r5
 760 00b8 FFF7FEFF 		bl	MMU_Free
 761              	.LVL49:
 762 00bc 05E0     		b	.L46
 763              	.LVL50:
 764              	.L53:
 250:Common/error_log.c ****     {
 765              		.loc 1 250 107 is_stmt 0 discriminator 2 view .LVU189
 766 00be 084B     		ldr	r3, .L54+16
 767 00c0 1B68     		ldr	r3, [r3]
 768 00c2 002B     		cmp	r3, #0
 769 00c4 B8D1     		bne	.L47
 770 00c6 00E0     		b	.L46
 771              	.LVL51:
 772              	.L51:
 241:Common/error_log.c **** 
 773              		.loc 1 241 16 view .LVU190
 774 00c8 0024     		movs	r4, #0
 775              	.LVL52:
 776              	.L46:
 273:Common/error_log.c ****         }
 274:Common/error_log.c ****     }
 275:Common/error_log.c **** 
 276:Common/error_log.c ****     return true;
 277:Common/error_log.c **** }
 777              		.loc 1 277 1 view .LVU191
 778 00ca 2046     		mov	r0, r4
 779 00cc 07B0     		add	sp, sp, #28
 780              	.LCFI20:
 781              		.cfi_def_cfa_offset 20
 782              		@ sp needed
 783 00ce F0BD     		pop	{r4, r5, r6, r7, pc}
 784              	.L55:
 785              		.align	2
 786              	.L54:
 787 00d0 00000000 		.word	.LANCHOR2
 788 00d4 00000000 		.word	Queue
 789 00d8 00000000 		.word	.LANCHOR4
 790 00dc 00000000 		.word	.LANCHOR0
 791 00e0 00000000 		.word	.LANCHOR1
 792              		.cfi_endproc
 793              	.LFE10:
 795              		.section	.rodata.Error_Trigger.str1.4,"aMS",%progbits,1
 796              		.align	2
 797              	.LC1:
 798 0000 5B2000   		.ascii	"[ \000"
 799 0003 00       		.align	2
 800              	.LC2:
 801 0004 205D2000 		.ascii	" ] \000"
ARM GAS  C:\Users\HUAV\AppData\Local\Temp\ccqK5tkd.s 			page 21


 802              		.section	.text.Error_Trigger,"ax",%progbits
 803              		.align	1
 804              		.syntax unified
 805              		.thumb
 806              		.thumb_func
 807              		.fpu fpv5-d16
 809              	Error_Trigger:
 810              	.LVL53:
 811              	.LFB8:
 143:Common/error_log.c ****     int16_t code_tmp = code;
 812              		.loc 1 143 1 is_stmt 1 view -0
 813              		.cfi_startproc
 814              		@ args = 0, pretend = 0, frame = 8
 815              		@ frame_needed = 0, uses_anonymous_args = 0
 143:Common/error_log.c ****     int16_t code_tmp = code;
 816              		.loc 1 143 1 is_stmt 0 view .LVU193
 817 0000 2DE9F04F 		push	{r4, r5, r6, r7, r8, r9, r10, fp, lr}
 818              	.LCFI21:
 819              		.cfi_def_cfa_offset 36
 820              		.cfi_offset 4, -36
 821              		.cfi_offset 5, -32
 822              		.cfi_offset 6, -28
 823              		.cfi_offset 7, -24
 824              		.cfi_offset 8, -20
 825              		.cfi_offset 9, -16
 826              		.cfi_offset 10, -12
 827              		.cfi_offset 11, -8
 828              		.cfi_offset 14, -4
 829 0004 83B0     		sub	sp, sp, #12
 830              	.LCFI22:
 831              		.cfi_def_cfa_offset 48
 832 0006 0D46     		mov	r5, r1
 144:Common/error_log.c ****     data_handle match_data = 0;
 833              		.loc 1 144 5 is_stmt 1 view .LVU194
 144:Common/error_log.c ****     data_handle match_data = 0;
 834              		.loc 1 144 13 is_stmt 0 view .LVU195
 835 0008 ADF80610 		strh	r1, [sp, #6]	@ movhi
 145:Common/error_log.c ****     ErrorStream_TypeDef data_stream;
 836              		.loc 1 145 5 is_stmt 1 view .LVU196
 837              	.LVL54:
 146:Common/error_log.c ****     char *letter = NULL;
 838              		.loc 1 146 5 view .LVU197
 147:Common/error_log.c **** 
 839              		.loc 1 147 5 view .LVU198
 149:Common/error_log.c **** 
 840              		.loc 1 149 5 view .LVU199
 149:Common/error_log.c **** 
 841              		.loc 1 149 18 is_stmt 0 view .LVU200
 842 000c 3E49     		ldr	r1, .L62
 843              	.LVL55:
 149:Common/error_log.c **** 
 844              		.loc 1 149 18 view .LVU201
 845 000e 0024     		movs	r4, #0
 846 0010 0C60     		str	r4, [r1]
 151:Common/error_log.c ****         return false;
 847              		.loc 1 151 5 is_stmt 1 view .LVU202
 151:Common/error_log.c ****         return false;
ARM GAS  C:\Users\HUAV\AppData\Local\Temp\ccqK5tkd.s 			page 22


 848              		.loc 1 151 8 is_stmt 0 view .LVU203
 849 0012 0028     		cmp	r0, #0
 850 0014 76D0     		beq	.L60
 851 0016 1746     		mov	r7, r2
 852 0018 1E46     		mov	r6, r3
 154:Common/error_log.c **** 
 853              		.loc 1 154 5 is_stmt 1 view .LVU204
 154:Common/error_log.c **** 
 854              		.loc 1 154 48 is_stmt 0 view .LVU205
 855 001a 3C4A     		ldr	r2, .L62+4
 856              	.LVL56:
 154:Common/error_log.c **** 
 857              		.loc 1 154 48 view .LVU206
 858 001c 9268     		ldr	r2, [r2, #8]
 154:Common/error_log.c **** 
 859              		.loc 1 154 56 view .LVU207
 860 001e 8046     		mov	r8, r0
 154:Common/error_log.c **** 
 861              		.loc 1 154 37 view .LVU208
 862 0020 0DF10601 		add	r1, sp, #6
 863              	.LVL57:
 154:Common/error_log.c **** 
 864              		.loc 1 154 37 view .LVU209
 865 0024 D0F80200 		ldr	r0, [r0, #2]	@ unaligned
 866              	.LVL58:
 154:Common/error_log.c **** 
 867              		.loc 1 154 37 view .LVU210
 868 0028 9047     		blx	r2
 869              	.LVL59:
 154:Common/error_log.c **** 
 870              		.loc 1 154 37 view .LVU211
 871 002a 0446     		mov	r4, r0
 156:Common/error_log.c ****     data_stream.size = size;
 872              		.loc 1 156 5 is_stmt 1 view .LVU212
 157:Common/error_log.c **** 
 873              		.loc 1 157 5 view .LVU213
 159:Common/error_log.c ****     (ErrorTreeDataToObj(TreeNodeHandleToObj(search_handle)->data)->prc_data_stream).size = size;
 874              		.loc 1 159 5 view .LVU214
 159:Common/error_log.c ****     (ErrorTreeDataToObj(TreeNodeHandleToObj(search_handle)->data)->prc_data_stream).size = size;
 875              		.loc 1 159 6 is_stmt 0 view .LVU215
 876 002c 4368     		ldr	r3, [r0, #4]	@ unaligned
 159:Common/error_log.c ****     (ErrorTreeDataToObj(TreeNodeHandleToObj(search_handle)->data)->prc_data_stream).size = size;
 877              		.loc 1 159 92 view .LVU216
 878 002e C3F80E70 		str	r7, [r3, #14]	@ unaligned
 160:Common/error_log.c **** 
 879              		.loc 1 160 5 is_stmt 1 view .LVU217
 160:Common/error_log.c **** 
 880              		.loc 1 160 6 is_stmt 0 view .LVU218
 881 0032 4368     		ldr	r3, [r0, #4]	@ unaligned
 160:Common/error_log.c **** 
 882              		.loc 1 160 90 view .LVU219
 883 0034 5E82     		strh	r6, [r3, #18]	@ unaligned
 163:Common/error_log.c ****     {
 884              		.loc 1 163 5 is_stmt 1 view .LVU220
 163:Common/error_log.c ****     {
 885              		.loc 1 163 8 is_stmt 0 view .LVU221
 886 0036 0028     		cmp	r0, #0
ARM GAS  C:\Users\HUAV\AppData\Local\Temp\ccqK5tkd.s 			page 23


 887 0038 5DD0     		beq	.L58
 165:Common/error_log.c ****         {
 888              		.loc 1 165 9 is_stmt 1 view .LVU222
 165:Common/error_log.c ****         {
 889              		.loc 1 165 47 is_stmt 0 view .LVU223
 890 003a 4368     		ldr	r3, [r0, #4]	@ unaligned
 165:Common/error_log.c ****         {
 891              		.loc 1 165 12 view .LVU224
 892 003c 002B     		cmp	r3, #0
 893 003e 5AD0     		beq	.L58
 167:Common/error_log.c ****             port_reg.section.out_reg = ErrorTreeDataToObj(TreeNodeHandleToObj(search_handle)->data)
 894              		.loc 1 167 13 is_stmt 1 view .LVU225
 167:Common/error_log.c ****             port_reg.section.out_reg = ErrorTreeDataToObj(TreeNodeHandleToObj(search_handle)->data)
 895              		.loc 1 167 100 is_stmt 0 view .LVU226
 896 0040 597A     		ldrb	r1, [r3, #9]	@ zero_extendqisi2
 167:Common/error_log.c ****             port_reg.section.out_reg = ErrorTreeDataToObj(TreeNodeHandleToObj(search_handle)->data)
 897              		.loc 1 167 38 view .LVU227
 898 0042 DFF8C4A0 		ldr	r10, .L62
 899 0046 9AF80020 		ldrb	r2, [r10]	@ zero_extendqisi2
 900 004a 61F30712 		bfi	r2, r1, #4, #4
 168:Common/error_log.c ****             port_reg.section.len = strlen(ErrorTreeDataToObj(TreeNodeHandleToObj(search_handle)->da
 901              		.loc 1 168 13 is_stmt 1 view .LVU228
 168:Common/error_log.c ****             port_reg.section.len = strlen(ErrorTreeDataToObj(TreeNodeHandleToObj(search_handle)->da
 902              		.loc 1 168 100 is_stmt 0 view .LVU229
 903 004e 197A     		ldrb	r1, [r3, #8]	@ zero_extendqisi2
 168:Common/error_log.c ****             port_reg.section.len = strlen(ErrorTreeDataToObj(TreeNodeHandleToObj(search_handle)->da
 904              		.loc 1 168 38 view .LVU230
 905 0050 61F30302 		bfi	r2, r1, #0, #4
 906 0054 8AF80020 		strb	r2, [r10]
 169:Common/error_log.c **** 
 907              		.loc 1 169 13 is_stmt 1 view .LVU231
 169:Common/error_log.c **** 
 908              		.loc 1 169 36 is_stmt 0 view .LVU232
 909 0058 5868     		ldr	r0, [r3, #4]	@ unaligned
 910 005a FFF7FEFF 		bl	strlen
 911              	.LVL60:
 912 005e 8146     		mov	r9, r0
 169:Common/error_log.c **** 
 913              		.loc 1 169 141 view .LVU233
 914 0060 D8F80230 		ldr	r3, [r8, #2]	@ unaligned
 169:Common/error_log.c **** 
 915              		.loc 1 169 113 view .LVU234
 916 0064 1868     		ldr	r0, [r3]	@ unaligned
 917 0066 FFF7FEFF 		bl	strlen
 918              	.LVL61:
 169:Common/error_log.c **** 
 919              		.loc 1 169 111 view .LVU235
 920 006a 8144     		add	r9, r9, r0
 921 006c 1FFA89F9 		uxth	r9, r9
 169:Common/error_log.c **** 
 922              		.loc 1 169 34 view .LVU236
 923 0070 09F10509 		add	r9, r9, #5
 924 0074 AAF80190 		strh	r9, [r10, #1]	@ unaligned
 171:Common/error_log.c ****             {
 925              		.loc 1 171 13 is_stmt 1 view .LVU237
 171:Common/error_log.c ****             {
 926              		.loc 1 171 17 is_stmt 0 view .LVU238
ARM GAS  C:\Users\HUAV\AppData\Local\Temp\ccqK5tkd.s 			page 24


 927 0078 254B     		ldr	r3, .L62+8
 928 007a 1B78     		ldrb	r3, [r3]	@ zero_extendqisi2
 171:Common/error_log.c ****             {
 929              		.loc 1 171 16 view .LVU239
 930 007c 8BB3     		cbz	r3, .L59
 171:Common/error_log.c ****             {
 931              		.loc 1 171 51 discriminator 1 view .LVU240
 932 007e DAF80030 		ldr	r3, [r10]
 171:Common/error_log.c ****             {
 933              		.loc 1 171 40 discriminator 1 view .LVU241
 934 0082 73B3     		cbz	r3, .L59
 175:Common/error_log.c ****                 /* push error tree name */
 935              		.loc 1 175 17 is_stmt 1 view .LVU242
 175:Common/error_log.c ****                 /* push error tree name */
 936              		.loc 1 175 22 is_stmt 0 view .LVU243
 937 0084 DFF894A0 		ldr	r10, .L62+20
 938 0088 DAF81830 		ldr	r3, [r10, #24]
 175:Common/error_log.c ****                 /* push error tree name */
 939              		.loc 1 175 17 view .LVU244
 940 008c DFF89090 		ldr	r9, .L62+24
 941 0090 0422     		movs	r2, #4
 942 0092 1D49     		ldr	r1, .L62
 943 0094 4846     		mov	r0, r9
 944 0096 9847     		blx	r3
 945              	.LVL62:
 177:Common/error_log.c ****                 Queue.push(&ErrorQueue, letter, strlen(letter));
 946              		.loc 1 177 17 is_stmt 1 view .LVU245
 178:Common/error_log.c **** 
 947              		.loc 1 178 17 view .LVU246
 178:Common/error_log.c **** 
 948              		.loc 1 178 22 is_stmt 0 view .LVU247
 949 0098 DAF81830 		ldr	r3, [r10, #24]
 178:Common/error_log.c **** 
 950              		.loc 1 178 17 view .LVU248
 951 009c 0222     		movs	r2, #2
 952 009e 1D49     		ldr	r1, .L62+12
 953 00a0 4846     		mov	r0, r9
 954 00a2 9847     		blx	r3
 955              	.LVL63:
 180:Common/error_log.c **** 
 956              		.loc 1 180 17 is_stmt 1 view .LVU249
 180:Common/error_log.c **** 
 957              		.loc 1 180 22 is_stmt 0 view .LVU250
 958 00a4 DAF818B0 		ldr	fp, [r10, #24]
 180:Common/error_log.c **** 
 959              		.loc 1 180 62 view .LVU251
 960 00a8 D8F80230 		ldr	r3, [r8, #2]	@ unaligned
 180:Common/error_log.c **** 
 961              		.loc 1 180 68 view .LVU252
 962 00ac D3F80080 		ldr	r8, [r3]	@ unaligned
 963              	.LVL64:
 180:Common/error_log.c **** 
 964              		.loc 1 180 76 view .LVU253
 965 00b0 4046     		mov	r0, r8
 966 00b2 FFF7FEFF 		bl	strlen
 967              	.LVL65:
 180:Common/error_log.c **** 
ARM GAS  C:\Users\HUAV\AppData\Local\Temp\ccqK5tkd.s 			page 25


 968              		.loc 1 180 17 view .LVU254
 969 00b6 82B2     		uxth	r2, r0
 970 00b8 4146     		mov	r1, r8
 971 00ba 4846     		mov	r0, r9
 972 00bc D847     		blx	fp
 973              	.LVL66:
 182:Common/error_log.c ****                 Queue.push(&ErrorQueue, letter, strlen(letter));
 974              		.loc 1 182 17 is_stmt 1 view .LVU255
 183:Common/error_log.c **** 
 975              		.loc 1 183 17 view .LVU256
 183:Common/error_log.c **** 
 976              		.loc 1 183 22 is_stmt 0 view .LVU257
 977 00be DAF81830 		ldr	r3, [r10, #24]
 183:Common/error_log.c **** 
 978              		.loc 1 183 17 view .LVU258
 979 00c2 0322     		movs	r2, #3
 980 00c4 1449     		ldr	r1, .L62+16
 981 00c6 4846     		mov	r0, r9
 982 00c8 9847     		blx	r3
 983              	.LVL67:
 186:Common/error_log.c ****             }
 984              		.loc 1 186 17 is_stmt 1 view .LVU259
 186:Common/error_log.c ****             }
 985              		.loc 1 186 22 is_stmt 0 view .LVU260
 986 00ca DAF818A0 		ldr	r10, [r10, #24]
 186:Common/error_log.c ****             }
 987              		.loc 1 186 41 view .LVU261
 988 00ce 6368     		ldr	r3, [r4, #4]	@ unaligned
 186:Common/error_log.c ****             }
 989              		.loc 1 186 101 view .LVU262
 990 00d0 D3F80480 		ldr	r8, [r3, #4]	@ unaligned
 186:Common/error_log.c ****             }
 991              		.loc 1 186 109 view .LVU263
 992 00d4 4046     		mov	r0, r8
 993 00d6 FFF7FEFF 		bl	strlen
 994              	.LVL68:
 186:Common/error_log.c ****             }
 995              		.loc 1 186 17 view .LVU264
 996 00da 82B2     		uxth	r2, r0
 997 00dc 4146     		mov	r1, r8
 998 00de 4846     		mov	r0, r9
 999 00e0 D047     		blx	r10
 1000              	.LVL69:
 1001              	.L59:
 189:Common/error_log.c ****             {
 1002              		.loc 1 189 13 is_stmt 1 view .LVU265
 189:Common/error_log.c ****             {
 1003              		.loc 1 189 17 is_stmt 0 view .LVU266
 1004 00e2 6368     		ldr	r3, [r4, #4]	@ unaligned
 189:Common/error_log.c ****             {
 1005              		.loc 1 189 77 view .LVU267
 1006 00e4 9A78     		ldrb	r2, [r3, #2]	@ zero_extendqisi2
 189:Common/error_log.c ****             {
 1007              		.loc 1 189 16 view .LVU268
 1008 00e6 32B9     		cbnz	r2, .L58
 192:Common/error_log.c ****                 {
 1009              		.loc 1 192 17 is_stmt 1 view .LVU269
ARM GAS  C:\Users\HUAV\AppData\Local\Temp\ccqK5tkd.s 			page 26


 192:Common/error_log.c ****                 {
 1010              		.loc 1 192 81 is_stmt 0 view .LVU270
 1011 00e8 D3F80A30 		ldr	r3, [r3, #10]	@ unaligned
 192:Common/error_log.c ****                 {
 1012              		.loc 1 192 20 view .LVU271
 1013 00ec 1BB1     		cbz	r3, .L58
 194:Common/error_log.c ****                 }
 1014              		.loc 1 194 21 is_stmt 1 view .LVU272
 1015 00ee 3246     		mov	r2, r6
 1016 00f0 3946     		mov	r1, r7
 1017 00f2 2846     		mov	r0, r5
 1018 00f4 9847     		blx	r3
 1019              	.LVL70:
 1020              	.L58:
 205:Common/error_log.c ****         }
 1021              		.loc 1 205 13 view .LVU273
 209:Common/error_log.c **** 
 1022              		.loc 1 209 5 view .LVU274
 209:Common/error_log.c **** 
 1023              		.loc 1 209 18 is_stmt 0 view .LVU275
 1024 00f6 044B     		ldr	r3, .L62
 1025 00f8 0022     		movs	r2, #0
 1026 00fa 1A60     		str	r2, [r3]
 211:Common/error_log.c **** }
 1027              		.loc 1 211 5 is_stmt 1 view .LVU276
 211:Common/error_log.c **** }
 1028              		.loc 1 211 12 is_stmt 0 view .LVU277
 1029 00fc 0120     		movs	r0, #1
 1030              	.LVL71:
 1031              	.L57:
 212:Common/error_log.c **** 
 1032              		.loc 1 212 1 view .LVU278
 1033 00fe 03B0     		add	sp, sp, #12
 1034              	.LCFI23:
 1035              		.cfi_remember_state
 1036              		.cfi_def_cfa_offset 36
 1037              		@ sp needed
 1038 0100 BDE8F08F 		pop	{r4, r5, r6, r7, r8, r9, r10, fp, pc}
 1039              	.LVL72:
 1040              	.L60:
 1041              	.LCFI24:
 1042              		.cfi_restore_state
 152:Common/error_log.c **** 
 1043              		.loc 1 152 16 view .LVU279
 1044 0104 0020     		movs	r0, #0
 1045              	.LVL73:
 152:Common/error_log.c **** 
 1046              		.loc 1 152 16 view .LVU280
 1047 0106 FAE7     		b	.L57
 1048              	.L63:
 1049              		.align	2
 1050              	.L62:
 1051 0108 00000000 		.word	.LANCHOR3
 1052 010c 00000000 		.word	BalanceTree
 1053 0110 00000000 		.word	.LANCHOR2
 1054 0114 00000000 		.word	.LC1
 1055 0118 04000000 		.word	.LC2
ARM GAS  C:\Users\HUAV\AppData\Local\Temp\ccqK5tkd.s 			page 27


 1056 011c 00000000 		.word	Queue
 1057 0120 00000000 		.word	.LANCHOR4
 1058              		.cfi_endproc
 1059              	.LFE8:
 1061              		.global	ErrorLog
 1062              		.section	.bss.ErrorQueue,"aw",%nobits
 1063              		.align	2
 1064              		.set	.LANCHOR4,. + 0
 1067              	ErrorQueue:
 1068 0000 00000000 		.space	17
 1068      00000000 
 1068      00000000 
 1068      00000000 
 1068      00
 1069              		.section	.bss.ErrorQueue_CreateState,"aw",%nobits
 1070              		.set	.LANCHOR2,. + 0
 1073              	ErrorQueue_CreateState:
 1074 0000 00       		.space	1
 1075              		.section	.bss.ErrorQueue_Init,"aw",%nobits
 1076              		.set	.LANCHOR5,. + 0
 1079              	ErrorQueue_Init:
 1080 0000 00       		.space	1
 1081              		.section	.bss.log_callback,"aw",%nobits
 1082              		.align	2
 1083              		.set	.LANCHOR1,. + 0
 1086              	log_callback:
 1087 0000 00000000 		.space	4
 1088              		.section	.bss.out_callback,"aw",%nobits
 1089              		.align	2
 1090              		.set	.LANCHOR0,. + 0
 1093              	out_callback:
 1094 0000 00000000 		.space	4
 1095              		.section	.bss.port_reg,"aw",%nobits
 1096              		.align	2
 1097              		.set	.LANCHOR3,. + 0
 1100              	port_reg:
 1101 0000 00000000 		.space	4
 1102              		.section	.data.ErrorLog,"aw"
 1103              		.align	2
 1106              	ErrorLog:
 1107 0000 00000000 		.word	ErrorTree_Create
 1108 0004 00000000 		.word	Error_Register
 1109 0008 00000000 		.word	Error_Trigger
 1110 000c 00000000 		.word	Error_Proc
 1111 0010 00000000 		.word	Error_Set_Callback
 1112 0014 00000000 		.word	Error_DescToQueue
 1113              		.text
 1114              	.Letext0:
 1115              		.file 2 "d:\\software\\zephyr_env_gcc\\gcc-arm-none-eabi-9-2019-q4-major-win32\\arm-none-eabi\\inc
 1116              		.file 3 "d:\\software\\zephyr_env_gcc\\gcc-arm-none-eabi-9-2019-q4-major-win32\\arm-none-eabi\\inc
 1117              		.file 4 "d:\\software\\zephyr_env_gcc\\gcc-arm-none-eabi-9-2019-q4-major-win32\\arm-none-eabi\\inc
 1118              		.file 5 "d:\\software\\zephyr_env_gcc\\gcc-arm-none-eabi-9-2019-q4-major-win32\\arm-none-eabi\\inc
 1119              		.file 6 "d:\\software\\zephyr_env_gcc\\gcc-arm-none-eabi-9-2019-q4-major-win32\\lib\\gcc\\arm-none
 1120              		.file 7 "d:\\software\\zephyr_env_gcc\\gcc-arm-none-eabi-9-2019-q4-major-win32\\arm-none-eabi\\inc
 1121              		.file 8 "d:\\software\\zephyr_env_gcc\\gcc-arm-none-eabi-9-2019-q4-major-win32\\lib\\gcc\\arm-none
 1122              		.file 9 "d:\\software\\zephyr_env_gcc\\gcc-arm-none-eabi-9-2019-q4-major-win32\\arm-none-eabi\\inc
 1123              		.file 10 "DataStructure/binary_tree.h"
ARM GAS  C:\Users\HUAV\AppData\Local\Temp\ccqK5tkd.s 			page 28


 1124              		.file 11 "DataStructure/linked_list.h"
 1125              		.file 12 "Common/error_log.h"
 1126              		.file 13 "DataStructure/queue.h"
 1127              		.file 14 "System/mmu/mmu.h"
 1128              		.file 15 "d:\\software\\zephyr_env_gcc\\gcc-arm-none-eabi-9-2019-q4-major-win32\\arm-none-eabi\\in
 1129              		.file 16 "d:\\software\\zephyr_env_gcc\\gcc-arm-none-eabi-9-2019-q4-major-win32\\arm-none-eabi\\in
 1130              		.file 17 "<built-in>"
ARM GAS  C:\Users\HUAV\AppData\Local\Temp\ccqK5tkd.s 			page 29

