ARM GAS  C:\Users\8bit\AppData\Local\Temp\ccSaKvoD.s 			page 1


   1              		.cpu cortex-m4
   2              		.arch armv7e-m
   3              		.fpu fpv4-sp-d16
   4              		.eabi_attribute 27, 1
   5              		.eabi_attribute 28, 1
   6              		.eabi_attribute 20, 1
   7              		.eabi_attribute 21, 1
   8              		.eabi_attribute 23, 3
   9              		.eabi_attribute 24, 1
  10              		.eabi_attribute 25, 1
  11              		.eabi_attribute 26, 1
  12              		.eabi_attribute 30, 1
  13              		.eabi_attribute 34, 1
  14              		.eabi_attribute 18, 4
  15              		.file	"filter.c"
  16              		.text
  17              	.Ltext0:
  18              		.cfi_sections	.debug_frame
  19              		.section	.text.Filter_Item_Update,"ax",%progbits
  20              		.align	1
  21              		.syntax unified
  22              		.thumb
  23              		.thumb_func
  25              	Filter_Item_Update:
  26              	.LVL0:
  27              	.LFB9:
  28              		.file 1 "Algorithm/Filter_Dep/filter.c"
   1:Algorithm/Filter_Dep/filter.c **** /*
   2:Algorithm/Filter_Dep/filter.c ****  * we use tcm section to increase the speed on filter algorithm function execution
   3:Algorithm/Filter_Dep/filter.c ****  */
   4:Algorithm/Filter_Dep/filter.c **** 
   5:Algorithm/Filter_Dep/filter.c **** #include "filter.h"
   6:Algorithm/Filter_Dep/filter.c **** 
   7:Algorithm/Filter_Dep/filter.c **** #define PI 3.14159265359
   8:Algorithm/Filter_Dep/filter.c **** 
   9:Algorithm/Filter_Dep/filter.c **** #define To_RCParam_Ptr(x) ((RC_Filter_Param_TypeDef *)x)
  10:Algorithm/Filter_Dep/filter.c **** 
  11:Algorithm/Filter_Dep/filter.c **** /* internal function */
  12:Algorithm/Filter_Dep/filter.c **** static void Filter_Item_Update(item_obj **header, item_obj **ender, float cur_data);
  13:Algorithm/Filter_Dep/filter.c **** static bool Filter_List_Create(uint8_t order, item_obj *item, list_obj **header, item_obj **ender);
  14:Algorithm/Filter_Dep/filter.c **** 
  15:Algorithm/Filter_Dep/filter.c **** /* external function */
  16:Algorithm/Filter_Dep/filter.c **** /* butterworth filter section */
  17:Algorithm/Filter_Dep/filter.c **** static BWF_Object_Handle Butterworth_Init(const FilterParam_Obj_TypeDef *param_obj);
  18:Algorithm/Filter_Dep/filter.c **** static float Butterworth_Filter_Update(BWF_Object_Handle obj, float cur_e);
  19:Algorithm/Filter_Dep/filter.c **** /* smooth window filter section */
  20:Algorithm/Filter_Dep/filter.c **** static SW_Object_Handle SmoothWindow_Init(uint8_t window_size);
  21:Algorithm/Filter_Dep/filter.c **** static float SmoothWindow_Update(SW_Object_Handle hdl, float cur_e);
  22:Algorithm/Filter_Dep/filter.c **** /* rc filter section */
  23:Algorithm/Filter_Dep/filter.c **** static RC_Object_Handle RC_Filter_Init(RC_Filter_Param_TypeDef *obj);
  24:Algorithm/Filter_Dep/filter.c **** static float RC_Filter_Update(RC_Object_Handle hdl, uint32_t sys_ms, float in);
  25:Algorithm/Filter_Dep/filter.c **** 
  26:Algorithm/Filter_Dep/filter.c **** Butterworth_Filter_TypeDef Butterworth = {
  27:Algorithm/Filter_Dep/filter.c ****     .init = Butterworth_Init,
  28:Algorithm/Filter_Dep/filter.c ****     .update = Butterworth_Filter_Update,
  29:Algorithm/Filter_Dep/filter.c **** };
  30:Algorithm/Filter_Dep/filter.c **** 
ARM GAS  C:\Users\8bit\AppData\Local\Temp\ccSaKvoD.s 			page 2


  31:Algorithm/Filter_Dep/filter.c **** SmoothWindow_Filter_TypeDef SmoothWindow = {
  32:Algorithm/Filter_Dep/filter.c ****     .init = SmoothWindow_Init,
  33:Algorithm/Filter_Dep/filter.c ****     .update = SmoothWindow_Update,
  34:Algorithm/Filter_Dep/filter.c **** };
  35:Algorithm/Filter_Dep/filter.c **** 
  36:Algorithm/Filter_Dep/filter.c **** RC_Filter_TypeDef RCFilter = {
  37:Algorithm/Filter_Dep/filter.c ****     .init = RC_Filter_Init,
  38:Algorithm/Filter_Dep/filter.c ****     .update = RC_Filter_Update,
  39:Algorithm/Filter_Dep/filter.c **** };
  40:Algorithm/Filter_Dep/filter.c **** 
  41:Algorithm/Filter_Dep/filter.c **** /********************************************************** general filter section ****************
  42:Algorithm/Filter_Dep/filter.c **** static bool Filter_List_Create(uint8_t order, item_obj *item, list_obj **header, item_obj **ender)
  43:Algorithm/Filter_Dep/filter.c **** {
  44:Algorithm/Filter_Dep/filter.c ****     for (uint8_t i = 0; i < order; i++)
  45:Algorithm/Filter_Dep/filter.c ****     {
  46:Algorithm/Filter_Dep/filter.c ****         float *u_temp = (float *)FILTER_MALLOC(sizeof(float));
  47:Algorithm/Filter_Dep/filter.c **** 
  48:Algorithm/Filter_Dep/filter.c ****         if (u_temp == NULL)
  49:Algorithm/Filter_Dep/filter.c ****         {
  50:Algorithm/Filter_Dep/filter.c ****             FILTER_FREE(u_temp);
  51:Algorithm/Filter_Dep/filter.c ****             return false;
  52:Algorithm/Filter_Dep/filter.c ****         }
  53:Algorithm/Filter_Dep/filter.c ****         else
  54:Algorithm/Filter_Dep/filter.c ****         {
  55:Algorithm/Filter_Dep/filter.c ****             List_ItemInit(&item[i], u_temp);
  56:Algorithm/Filter_Dep/filter.c ****             *u_temp = 0.0f;
  57:Algorithm/Filter_Dep/filter.c ****         }
  58:Algorithm/Filter_Dep/filter.c **** 
  59:Algorithm/Filter_Dep/filter.c ****         /* link element */
  60:Algorithm/Filter_Dep/filter.c ****         if (i > 0)
  61:Algorithm/Filter_Dep/filter.c ****         {
  62:Algorithm/Filter_Dep/filter.c ****             item[i - 1].nxt = &item[i];
  63:Algorithm/Filter_Dep/filter.c ****             item[i].prv = &item[i - 1];
  64:Algorithm/Filter_Dep/filter.c ****         }
  65:Algorithm/Filter_Dep/filter.c ****         else
  66:Algorithm/Filter_Dep/filter.c ****             *header = &item[0];
  67:Algorithm/Filter_Dep/filter.c ****     }
  68:Algorithm/Filter_Dep/filter.c **** 
  69:Algorithm/Filter_Dep/filter.c ****     *ender = &item[order - 1];
  70:Algorithm/Filter_Dep/filter.c **** 
  71:Algorithm/Filter_Dep/filter.c ****     return true;
  72:Algorithm/Filter_Dep/filter.c **** }
  73:Algorithm/Filter_Dep/filter.c **** 
  74:Algorithm/Filter_Dep/filter.c **** static void Filter_Item_Update(item_obj **header, item_obj **ender, float cur_data)
  75:Algorithm/Filter_Dep/filter.c **** {
  29              		.loc 1 75 1 view -0
  30              		.cfi_startproc
  31              		@ args = 0, pretend = 0, frame = 0
  32              		@ frame_needed = 0, uses_anonymous_args = 0
  33              		@ link register save eliminated.
  34              		.loc 1 75 1 is_stmt 0 view .LVU1
  35 0000 10B4     		push	{r4}
  36              	.LCFI0:
  37              		.cfi_def_cfa_offset 4
  38              		.cfi_offset 4, -4
  76:Algorithm/Filter_Dep/filter.c ****     item_obj *i_tmp = NULL;
  39              		.loc 1 76 5 is_stmt 1 view .LVU2
ARM GAS  C:\Users\8bit\AppData\Local\Temp\ccSaKvoD.s 			page 3


  40              	.LVL1:
  77:Algorithm/Filter_Dep/filter.c **** 
  78:Algorithm/Filter_Dep/filter.c ****     *((float *)((*ender)->data)) = cur_data;
  41              		.loc 1 78 5 view .LVU3
  42              		.loc 1 78 18 is_stmt 0 view .LVU4
  43 0002 0B68     		ldr	r3, [r1]
  44              		.loc 1 78 25 view .LVU5
  45 0004 1B69     		ldr	r3, [r3, #16]
  46              		.loc 1 78 34 view .LVU6
  47 0006 83ED000A 		vstr.32	s0, [r3]
  79:Algorithm/Filter_Dep/filter.c ****     (*ender)->prv->nxt = NULL;
  48              		.loc 1 79 5 is_stmt 1 view .LVU7
  49              		.loc 1 79 6 is_stmt 0 view .LVU8
  50 000a 0B68     		ldr	r3, [r1]
  51              		.loc 1 79 13 view .LVU9
  52 000c 9B68     		ldr	r3, [r3, #8]
  53              		.loc 1 79 24 view .LVU10
  54 000e 0022     		movs	r2, #0
  55 0010 DA60     		str	r2, [r3, #12]
  80:Algorithm/Filter_Dep/filter.c ****     i_tmp = (*ender)->prv;
  56              		.loc 1 80 5 is_stmt 1 view .LVU11
  57              		.loc 1 80 14 is_stmt 0 view .LVU12
  58 0012 0B68     		ldr	r3, [r1]
  59              		.loc 1 80 11 view .LVU13
  60 0014 9C68     		ldr	r4, [r3, #8]
  61              	.LVL2:
  81:Algorithm/Filter_Dep/filter.c ****     (*ender)->prv = NULL;
  62              		.loc 1 81 5 is_stmt 1 view .LVU14
  63              		.loc 1 81 19 is_stmt 0 view .LVU15
  64 0016 9A60     		str	r2, [r3, #8]
  82:Algorithm/Filter_Dep/filter.c ****     (*header)->prv = *ender;
  65              		.loc 1 82 5 is_stmt 1 view .LVU16
  66              		.loc 1 82 6 is_stmt 0 view .LVU17
  67 0018 0268     		ldr	r2, [r0]
  68              		.loc 1 82 22 view .LVU18
  69 001a 0B68     		ldr	r3, [r1]
  70              		.loc 1 82 20 view .LVU19
  71 001c 9360     		str	r3, [r2, #8]
  83:Algorithm/Filter_Dep/filter.c ****     (*ender)->nxt = *header;
  72              		.loc 1 83 5 is_stmt 1 view .LVU20
  73              		.loc 1 83 21 is_stmt 0 view .LVU21
  74 001e 0268     		ldr	r2, [r0]
  75              		.loc 1 83 19 view .LVU22
  76 0020 DA60     		str	r2, [r3, #12]
  84:Algorithm/Filter_Dep/filter.c ****     *header = *ender;
  77              		.loc 1 84 5 is_stmt 1 view .LVU23
  78              		.loc 1 84 15 is_stmt 0 view .LVU24
  79 0022 0B68     		ldr	r3, [r1]
  80              		.loc 1 84 13 view .LVU25
  81 0024 0360     		str	r3, [r0]
  85:Algorithm/Filter_Dep/filter.c ****     *ender = i_tmp;
  82              		.loc 1 85 5 is_stmt 1 view .LVU26
  83              		.loc 1 85 12 is_stmt 0 view .LVU27
  84 0026 0C60     		str	r4, [r1]
  86:Algorithm/Filter_Dep/filter.c **** }
  85              		.loc 1 86 1 view .LVU28
  86 0028 5DF8044B 		ldr	r4, [sp], #4
ARM GAS  C:\Users\8bit\AppData\Local\Temp\ccSaKvoD.s 			page 4


  87              	.LCFI1:
  88              		.cfi_restore 4
  89              		.cfi_def_cfa_offset 0
  90              	.LVL3:
  91              		.loc 1 86 1 view .LVU29
  92 002c 7047     		bx	lr
  93              		.cfi_endproc
  94              	.LFE9:
  96              		.section	.text.Butterworth_Filter_Update,"ax",%progbits
  97              		.align	1
  98              		.syntax unified
  99              		.thumb
 100              		.thumb_func
 102              	Butterworth_Filter_Update:
 103              	.LVL4:
 104              	.LFB11:
  87:Algorithm/Filter_Dep/filter.c **** 
  88:Algorithm/Filter_Dep/filter.c **** /********************************************************** butterworth filter section ************
  89:Algorithm/Filter_Dep/filter.c **** static BWF_Object_Handle Butterworth_Init(const FilterParam_Obj_TypeDef *param_obj)
  90:Algorithm/Filter_Dep/filter.c **** {
  91:Algorithm/Filter_Dep/filter.c ****     Filter_ButterworthParam_TypeDef *BWF_Obj = NULL;
  92:Algorithm/Filter_Dep/filter.c ****     uint8_t e_cnt = 0;
  93:Algorithm/Filter_Dep/filter.c ****     uint8_t u_cnt = 0;
  94:Algorithm/Filter_Dep/filter.c **** 
  95:Algorithm/Filter_Dep/filter.c ****     if(param_obj == NULL)
  96:Algorithm/Filter_Dep/filter.c ****         return 0;
  97:Algorithm/Filter_Dep/filter.c **** 
  98:Algorithm/Filter_Dep/filter.c ****     if (param_obj->order > 1)
  99:Algorithm/Filter_Dep/filter.c ****     {
 100:Algorithm/Filter_Dep/filter.c ****         e_cnt = param_obj->order + 1;
 101:Algorithm/Filter_Dep/filter.c ****         u_cnt = param_obj->order;
 102:Algorithm/Filter_Dep/filter.c ****         
 103:Algorithm/Filter_Dep/filter.c ****         if ((param_obj->ep_list == NULL) || (param_obj->up_list == NULL))
 104:Algorithm/Filter_Dep/filter.c ****             return 0;
 105:Algorithm/Filter_Dep/filter.c **** 
 106:Algorithm/Filter_Dep/filter.c ****         BWF_Obj = FILTER_MALLOC(sizeof(Filter_ButterworthParam_TypeDef));
 107:Algorithm/Filter_Dep/filter.c **** 
 108:Algorithm/Filter_Dep/filter.c ****         if (BWF_Obj == NULL)
 109:Algorithm/Filter_Dep/filter.c ****         {
 110:Algorithm/Filter_Dep/filter.c ****             FILTER_FREE(BWF_Obj);
 111:Algorithm/Filter_Dep/filter.c ****             return 0;
 112:Algorithm/Filter_Dep/filter.c ****         }
 113:Algorithm/Filter_Dep/filter.c **** 
 114:Algorithm/Filter_Dep/filter.c ****         BWF_Obj->p_e_data_cache = FILTER_MALLOC(sizeof(item_obj) * e_cnt);
 115:Algorithm/Filter_Dep/filter.c ****         if (BWF_Obj->p_e_data_cache == NULL)
 116:Algorithm/Filter_Dep/filter.c ****         {
 117:Algorithm/Filter_Dep/filter.c ****             FILTER_FREE(BWF_Obj->p_e_data_cache);
 118:Algorithm/Filter_Dep/filter.c ****             FILTER_FREE(BWF_Obj);
 119:Algorithm/Filter_Dep/filter.c ****             return 0;
 120:Algorithm/Filter_Dep/filter.c ****         }
 121:Algorithm/Filter_Dep/filter.c ****         else
 122:Algorithm/Filter_Dep/filter.c ****         {
 123:Algorithm/Filter_Dep/filter.c ****             if (!Filter_List_Create(e_cnt, BWF_Obj->p_e_data_cache, &(BWF_Obj->p_e_list_header), &(
 124:Algorithm/Filter_Dep/filter.c ****             {
 125:Algorithm/Filter_Dep/filter.c ****                 FILTER_FREE(BWF_Obj->p_e_data_cache);
 126:Algorithm/Filter_Dep/filter.c ****                 FILTER_FREE(BWF_Obj);
 127:Algorithm/Filter_Dep/filter.c ****                 return 0;
ARM GAS  C:\Users\8bit\AppData\Local\Temp\ccSaKvoD.s 			page 5


 128:Algorithm/Filter_Dep/filter.c ****             }
 129:Algorithm/Filter_Dep/filter.c ****         }
 130:Algorithm/Filter_Dep/filter.c **** 
 131:Algorithm/Filter_Dep/filter.c ****         BWF_Obj->p_u_data_cache = FILTER_MALLOC(sizeof(item_obj) * u_cnt);
 132:Algorithm/Filter_Dep/filter.c ****         if (BWF_Obj->p_u_data_cache == NULL)
 133:Algorithm/Filter_Dep/filter.c ****         {
 134:Algorithm/Filter_Dep/filter.c ****             FILTER_FREE(BWF_Obj->p_e_data_cache);
 135:Algorithm/Filter_Dep/filter.c ****             FILTER_FREE(BWF_Obj->p_u_data_cache);
 136:Algorithm/Filter_Dep/filter.c ****             FILTER_FREE(BWF_Obj);
 137:Algorithm/Filter_Dep/filter.c ****             return 0;
 138:Algorithm/Filter_Dep/filter.c ****         }
 139:Algorithm/Filter_Dep/filter.c ****         else
 140:Algorithm/Filter_Dep/filter.c ****         {
 141:Algorithm/Filter_Dep/filter.c ****             if (!Filter_List_Create(u_cnt, BWF_Obj->p_u_data_cache, &(BWF_Obj->p_u_list_header), &(
 142:Algorithm/Filter_Dep/filter.c ****             {
 143:Algorithm/Filter_Dep/filter.c ****                 FILTER_FREE(BWF_Obj->p_e_data_cache);
 144:Algorithm/Filter_Dep/filter.c ****                 FILTER_FREE(BWF_Obj->p_u_data_cache);
 145:Algorithm/Filter_Dep/filter.c ****                 FILTER_FREE(BWF_Obj);
 146:Algorithm/Filter_Dep/filter.c ****                 return 0;
 147:Algorithm/Filter_Dep/filter.c ****             }
 148:Algorithm/Filter_Dep/filter.c ****         }
 149:Algorithm/Filter_Dep/filter.c **** 
 150:Algorithm/Filter_Dep/filter.c ****         BWF_Obj->e_para_buf = FILTER_MALLOC(sizeof(float) * e_cnt);
 151:Algorithm/Filter_Dep/filter.c ****         if(BWF_Obj->e_para_buf == NULL)
 152:Algorithm/Filter_Dep/filter.c ****         {
 153:Algorithm/Filter_Dep/filter.c ****             FILTER_FREE(BWF_Obj->e_para_buf);
 154:Algorithm/Filter_Dep/filter.c ****             FILTER_FREE(BWF_Obj->p_e_data_cache);
 155:Algorithm/Filter_Dep/filter.c ****             FILTER_FREE(BWF_Obj->p_u_data_cache);
 156:Algorithm/Filter_Dep/filter.c ****             FILTER_FREE(BWF_Obj);
 157:Algorithm/Filter_Dep/filter.c ****             return 0;
 158:Algorithm/Filter_Dep/filter.c ****         }
 159:Algorithm/Filter_Dep/filter.c **** 
 160:Algorithm/Filter_Dep/filter.c ****         BWF_Obj->u_para_buf = FILTER_MALLOC(sizeof(float) * u_cnt);
 161:Algorithm/Filter_Dep/filter.c ****         if(BWF_Obj->u_para_buf == NULL)
 162:Algorithm/Filter_Dep/filter.c ****         {
 163:Algorithm/Filter_Dep/filter.c ****             FILTER_FREE(BWF_Obj->e_para_buf);
 164:Algorithm/Filter_Dep/filter.c ****             FILTER_FREE(BWF_Obj->u_para_buf);
 165:Algorithm/Filter_Dep/filter.c ****             FILTER_FREE(BWF_Obj->p_e_data_cache);
 166:Algorithm/Filter_Dep/filter.c ****             FILTER_FREE(BWF_Obj->p_u_data_cache);
 167:Algorithm/Filter_Dep/filter.c ****             FILTER_FREE(BWF_Obj);
 168:Algorithm/Filter_Dep/filter.c ****             return 0;
 169:Algorithm/Filter_Dep/filter.c ****         }
 170:Algorithm/Filter_Dep/filter.c **** 
 171:Algorithm/Filter_Dep/filter.c ****         BWF_Obj->order = param_obj->order;
 172:Algorithm/Filter_Dep/filter.c **** 
 173:Algorithm/Filter_Dep/filter.c ****         for(uint8_t i = 0; i < e_cnt; i++)
 174:Algorithm/Filter_Dep/filter.c ****         {
 175:Algorithm/Filter_Dep/filter.c ****             BWF_Obj->e_para_buf[i] = param_obj->ep_list[i].p * param_obj->ep_list[i].scale;
 176:Algorithm/Filter_Dep/filter.c ****         
 177:Algorithm/Filter_Dep/filter.c ****             if(i < u_cnt)
 178:Algorithm/Filter_Dep/filter.c ****             {
 179:Algorithm/Filter_Dep/filter.c ****                 BWF_Obj->u_para_buf[i] = param_obj->up_list[i].p * param_obj->up_list[i].scale;
 180:Algorithm/Filter_Dep/filter.c ****             }
 181:Algorithm/Filter_Dep/filter.c ****         }
 182:Algorithm/Filter_Dep/filter.c ****     }
 183:Algorithm/Filter_Dep/filter.c **** 
 184:Algorithm/Filter_Dep/filter.c ****     return (uint32_t)BWF_Obj;
ARM GAS  C:\Users\8bit\AppData\Local\Temp\ccSaKvoD.s 			page 6


 185:Algorithm/Filter_Dep/filter.c **** }
 186:Algorithm/Filter_Dep/filter.c **** 
 187:Algorithm/Filter_Dep/filter.c **** static float Butterworth_Filter_Update(BWF_Object_Handle obj, float cur_e)
 188:Algorithm/Filter_Dep/filter.c **** {
 105              		.loc 1 188 1 is_stmt 1 view -0
 106              		.cfi_startproc
 107              		@ args = 0, pretend = 0, frame = 0
 108              		@ frame_needed = 0, uses_anonymous_args = 0
 109              		.loc 1 188 1 is_stmt 0 view .LVU31
 110 0000 38B5     		push	{r3, r4, r5, lr}
 111              	.LCFI2:
 112              		.cfi_def_cfa_offset 16
 113              		.cfi_offset 3, -16
 114              		.cfi_offset 4, -12
 115              		.cfi_offset 5, -8
 116              		.cfi_offset 14, -4
 117 0002 2DED028B 		vpush.64	{d8}
 118              	.LCFI3:
 119              		.cfi_def_cfa_offset 24
 120              		.cfi_offset 80, -24
 121              		.cfi_offset 81, -20
 189:Algorithm/Filter_Dep/filter.c ****     Filter_ButterworthParam_TypeDef *filter_obj = NULL;
 122              		.loc 1 189 5 is_stmt 1 view .LVU32
 123              	.LVL5:
 190:Algorithm/Filter_Dep/filter.c ****     item_obj *u_item = NULL;
 124              		.loc 1 190 5 view .LVU33
 191:Algorithm/Filter_Dep/filter.c ****     item_obj *e_item = NULL;
 125              		.loc 1 191 5 view .LVU34
 192:Algorithm/Filter_Dep/filter.c **** 
 193:Algorithm/Filter_Dep/filter.c ****     float u_tmp = 0.0f;
 126              		.loc 1 193 5 view .LVU35
 194:Algorithm/Filter_Dep/filter.c ****     float E_Additive = 0.0f;
 127              		.loc 1 194 5 view .LVU36
 195:Algorithm/Filter_Dep/filter.c ****     float U_Additive = 0.0f;
 128              		.loc 1 195 5 view .LVU37
 196:Algorithm/Filter_Dep/filter.c **** 
 197:Algorithm/Filter_Dep/filter.c ****     if (obj)
 129              		.loc 1 197 5 view .LVU38
 130              		.loc 1 197 8 is_stmt 0 view .LVU39
 131 0006 30B9     		cbnz	r0, .L11
 193:Algorithm/Filter_Dep/filter.c ****     float E_Additive = 0.0f;
 132              		.loc 1 193 11 view .LVU40
 133 0008 9FED228A 		vldr.32	s16, .L13
 198:Algorithm/Filter_Dep/filter.c ****     {
 199:Algorithm/Filter_Dep/filter.c ****         filter_obj = (Filter_ButterworthParam_TypeDef *)obj;
 200:Algorithm/Filter_Dep/filter.c ****         Filter_Item_Update(&(filter_obj->p_e_list_header), &(filter_obj->p_e_list_ender), cur_e);
 201:Algorithm/Filter_Dep/filter.c **** 
 202:Algorithm/Filter_Dep/filter.c ****         u_item = filter_obj->p_u_list_header;
 203:Algorithm/Filter_Dep/filter.c ****         e_item = filter_obj->p_e_list_header;
 204:Algorithm/Filter_Dep/filter.c **** 
 205:Algorithm/Filter_Dep/filter.c ****         for (uint8_t i = 0; i <= filter_obj->order; i++)
 206:Algorithm/Filter_Dep/filter.c ****         {
 207:Algorithm/Filter_Dep/filter.c ****             /* comput E additive */
 208:Algorithm/Filter_Dep/filter.c ****             if (e_item)
 209:Algorithm/Filter_Dep/filter.c ****             {
 210:Algorithm/Filter_Dep/filter.c ****                 E_Additive += filter_obj->e_para_buf[i] * (*(float *)(e_item->data));
 211:Algorithm/Filter_Dep/filter.c ****                 e_item = e_item->nxt;
ARM GAS  C:\Users\8bit\AppData\Local\Temp\ccSaKvoD.s 			page 7


 212:Algorithm/Filter_Dep/filter.c ****             }
 213:Algorithm/Filter_Dep/filter.c **** 
 214:Algorithm/Filter_Dep/filter.c ****             /* comput U additive */
 215:Algorithm/Filter_Dep/filter.c ****             if (i < filter_obj->order && u_item)
 216:Algorithm/Filter_Dep/filter.c ****             {
 217:Algorithm/Filter_Dep/filter.c ****                 U_Additive += filter_obj->u_para_buf[i] * (*(float *)(u_item->data));
 218:Algorithm/Filter_Dep/filter.c ****                 u_item = u_item->nxt;
 219:Algorithm/Filter_Dep/filter.c ****             }
 220:Algorithm/Filter_Dep/filter.c ****         }
 221:Algorithm/Filter_Dep/filter.c **** 
 222:Algorithm/Filter_Dep/filter.c ****         u_tmp = E_Additive - U_Additive;
 223:Algorithm/Filter_Dep/filter.c ****         /* update last time filted data */
 224:Algorithm/Filter_Dep/filter.c ****         Filter_Item_Update(&(filter_obj->p_u_list_header), &(filter_obj->p_u_list_ender), u_tmp);
 225:Algorithm/Filter_Dep/filter.c ****     }
 226:Algorithm/Filter_Dep/filter.c **** 
 227:Algorithm/Filter_Dep/filter.c ****     return u_tmp;
 134              		.loc 1 227 5 is_stmt 1 view .LVU41
 135              	.LVL6:
 136              	.L3:
 228:Algorithm/Filter_Dep/filter.c **** }
 137              		.loc 1 228 1 is_stmt 0 view .LVU42
 138 000c B0EE480A 		vmov.f32	s0, s16
 139 0010 BDEC028B 		vldm	sp!, {d8}
 140              	.LCFI4:
 141              		.cfi_remember_state
 142              		.cfi_restore 80
 143              		.cfi_restore 81
 144              		.cfi_def_cfa_offset 16
 145 0014 38BD     		pop	{r3, r4, r5, pc}
 146              	.LVL7:
 147              	.L11:
 148              	.LCFI5:
 149              		.cfi_restore_state
 150              		.loc 1 228 1 view .LVU43
 151 0016 0446     		mov	r4, r0
 199:Algorithm/Filter_Dep/filter.c ****         Filter_Item_Update(&(filter_obj->p_e_list_header), &(filter_obj->p_e_list_ender), cur_e);
 152              		.loc 1 199 9 is_stmt 1 view .LVU44
 153              	.LVL8:
 200:Algorithm/Filter_Dep/filter.c **** 
 154              		.loc 1 200 9 view .LVU45
 155 0018 00F11001 		add	r1, r0, #16
 156 001c 0C30     		adds	r0, r0, #12
 157              	.LVL9:
 200:Algorithm/Filter_Dep/filter.c **** 
 158              		.loc 1 200 9 is_stmt 0 view .LVU46
 159 001e FFF7FEFF 		bl	Filter_Item_Update
 160              	.LVL10:
 202:Algorithm/Filter_Dep/filter.c ****         e_item = filter_obj->p_e_list_header;
 161              		.loc 1 202 9 is_stmt 1 view .LVU47
 202:Algorithm/Filter_Dep/filter.c ****         e_item = filter_obj->p_e_list_header;
 162              		.loc 1 202 16 is_stmt 0 view .LVU48
 163 0022 6569     		ldr	r5, [r4, #20]
 164              	.LVL11:
 203:Algorithm/Filter_Dep/filter.c **** 
 165              		.loc 1 203 9 is_stmt 1 view .LVU49
 203:Algorithm/Filter_Dep/filter.c **** 
 166              		.loc 1 203 16 is_stmt 0 view .LVU50
ARM GAS  C:\Users\8bit\AppData\Local\Temp\ccSaKvoD.s 			page 8


 167 0024 E168     		ldr	r1, [r4, #12]
 168              	.LVL12:
 205:Algorithm/Filter_Dep/filter.c ****         {
 169              		.loc 1 205 9 is_stmt 1 view .LVU51
 170              	.LBB2:
 205:Algorithm/Filter_Dep/filter.c ****         {
 171              		.loc 1 205 14 view .LVU52
 205:Algorithm/Filter_Dep/filter.c ****         {
 172              		.loc 1 205 22 is_stmt 0 view .LVU53
 173 0026 0023     		movs	r3, #0
 174              	.LBE2:
 195:Algorithm/Filter_Dep/filter.c **** 
 175              		.loc 1 195 11 view .LVU54
 176 0028 9FED1A8A 		vldr.32	s16, .L13
 194:Algorithm/Filter_Dep/filter.c ****     float U_Additive = 0.0f;
 177              		.loc 1 194 11 view .LVU55
 178 002c B0EE487A 		vmov.f32	s14, s16
 179              	.LBB3:
 205:Algorithm/Filter_Dep/filter.c ****         {
 180              		.loc 1 205 9 view .LVU56
 181 0030 01E0     		b	.L5
 182              	.LVL13:
 183              	.L7:
 205:Algorithm/Filter_Dep/filter.c ****         {
 184              		.loc 1 205 53 is_stmt 1 discriminator 2 view .LVU57
 205:Algorithm/Filter_Dep/filter.c ****         {
 185              		.loc 1 205 54 is_stmt 0 discriminator 2 view .LVU58
 186 0032 0133     		adds	r3, r3, #1
 187              	.LVL14:
 205:Algorithm/Filter_Dep/filter.c ****         {
 188              		.loc 1 205 54 discriminator 2 view .LVU59
 189 0034 DBB2     		uxtb	r3, r3
 190              	.LVL15:
 191              	.L5:
 205:Algorithm/Filter_Dep/filter.c ****         {
 192              		.loc 1 205 29 is_stmt 1 discriminator 1 view .LVU60
 205:Algorithm/Filter_Dep/filter.c ****         {
 193              		.loc 1 205 44 is_stmt 0 discriminator 1 view .LVU61
 194 0036 2278     		ldrb	r2, [r4]	@ zero_extendqisi2
 205:Algorithm/Filter_Dep/filter.c ****         {
 195              		.loc 1 205 9 discriminator 1 view .LVU62
 196 0038 9A42     		cmp	r2, r3
 197 003a 1FD3     		bcc	.L12
 208:Algorithm/Filter_Dep/filter.c ****             {
 198              		.loc 1 208 13 is_stmt 1 view .LVU63
 208:Algorithm/Filter_Dep/filter.c ****             {
 199              		.loc 1 208 16 is_stmt 0 view .LVU64
 200 003c 61B1     		cbz	r1, .L6
 210:Algorithm/Filter_Dep/filter.c ****                 e_item = e_item->nxt;
 201              		.loc 1 210 17 is_stmt 1 view .LVU65
 210:Algorithm/Filter_Dep/filter.c ****                 e_item = e_item->nxt;
 202              		.loc 1 210 41 is_stmt 0 view .LVU66
 203 003e 6068     		ldr	r0, [r4, #4]
 210:Algorithm/Filter_Dep/filter.c ****                 e_item = e_item->nxt;
 204              		.loc 1 210 53 view .LVU67
 205 0040 00EB8300 		add	r0, r0, r3, lsl #2
 206 0044 D0ED007A 		vldr.32	s15, [r0]
ARM GAS  C:\Users\8bit\AppData\Local\Temp\ccSaKvoD.s 			page 9


 210:Algorithm/Filter_Dep/filter.c ****                 e_item = e_item->nxt;
 207              		.loc 1 210 77 view .LVU68
 208 0048 0869     		ldr	r0, [r1, #16]
 210:Algorithm/Filter_Dep/filter.c ****                 e_item = e_item->nxt;
 209              		.loc 1 210 60 view .LVU69
 210 004a D0ED006A 		vldr.32	s13, [r0]
 210:Algorithm/Filter_Dep/filter.c ****                 e_item = e_item->nxt;
 211              		.loc 1 210 57 view .LVU70
 212 004e 67EEA67A 		vmul.f32	s15, s15, s13
 210:Algorithm/Filter_Dep/filter.c ****                 e_item = e_item->nxt;
 213              		.loc 1 210 28 view .LVU71
 214 0052 37EE277A 		vadd.f32	s14, s14, s15
 215              	.LVL16:
 211:Algorithm/Filter_Dep/filter.c ****             }
 216              		.loc 1 211 17 is_stmt 1 view .LVU72
 211:Algorithm/Filter_Dep/filter.c ****             }
 217              		.loc 1 211 24 is_stmt 0 view .LVU73
 218 0056 C968     		ldr	r1, [r1, #12]
 219              	.LVL17:
 220              	.L6:
 215:Algorithm/Filter_Dep/filter.c ****             {
 221              		.loc 1 215 13 is_stmt 1 view .LVU74
 215:Algorithm/Filter_Dep/filter.c ****             {
 222              		.loc 1 215 16 is_stmt 0 view .LVU75
 223 0058 9A42     		cmp	r2, r3
 224 005a EAD9     		bls	.L7
 215:Algorithm/Filter_Dep/filter.c ****             {
 225              		.loc 1 215 39 discriminator 1 view .LVU76
 226 005c 002D     		cmp	r5, #0
 227 005e E8D0     		beq	.L7
 217:Algorithm/Filter_Dep/filter.c ****                 u_item = u_item->nxt;
 228              		.loc 1 217 17 is_stmt 1 view .LVU77
 217:Algorithm/Filter_Dep/filter.c ****                 u_item = u_item->nxt;
 229              		.loc 1 217 41 is_stmt 0 view .LVU78
 230 0060 A268     		ldr	r2, [r4, #8]
 217:Algorithm/Filter_Dep/filter.c ****                 u_item = u_item->nxt;
 231              		.loc 1 217 53 view .LVU79
 232 0062 02EB8302 		add	r2, r2, r3, lsl #2
 233 0066 D2ED007A 		vldr.32	s15, [r2]
 217:Algorithm/Filter_Dep/filter.c ****                 u_item = u_item->nxt;
 234              		.loc 1 217 77 view .LVU80
 235 006a 2A69     		ldr	r2, [r5, #16]
 217:Algorithm/Filter_Dep/filter.c ****                 u_item = u_item->nxt;
 236              		.loc 1 217 60 view .LVU81
 237 006c D2ED006A 		vldr.32	s13, [r2]
 217:Algorithm/Filter_Dep/filter.c ****                 u_item = u_item->nxt;
 238              		.loc 1 217 57 view .LVU82
 239 0070 67EEA67A 		vmul.f32	s15, s15, s13
 217:Algorithm/Filter_Dep/filter.c ****                 u_item = u_item->nxt;
 240              		.loc 1 217 28 view .LVU83
 241 0074 38EE278A 		vadd.f32	s16, s16, s15
 242              	.LVL18:
 218:Algorithm/Filter_Dep/filter.c ****             }
 243              		.loc 1 218 17 is_stmt 1 view .LVU84
 218:Algorithm/Filter_Dep/filter.c ****             }
 244              		.loc 1 218 24 is_stmt 0 view .LVU85
 245 0078 ED68     		ldr	r5, [r5, #12]
ARM GAS  C:\Users\8bit\AppData\Local\Temp\ccSaKvoD.s 			page 10


 246              	.LVL19:
 218:Algorithm/Filter_Dep/filter.c ****             }
 247              		.loc 1 218 24 view .LVU86
 248 007a DAE7     		b	.L7
 249              	.L12:
 218:Algorithm/Filter_Dep/filter.c ****             }
 250              		.loc 1 218 24 view .LVU87
 251              	.LBE3:
 222:Algorithm/Filter_Dep/filter.c ****         /* update last time filted data */
 252              		.loc 1 222 9 is_stmt 1 view .LVU88
 222:Algorithm/Filter_Dep/filter.c ****         /* update last time filted data */
 253              		.loc 1 222 15 is_stmt 0 view .LVU89
 254 007c 37EE488A 		vsub.f32	s16, s14, s16
 255              	.LVL20:
 224:Algorithm/Filter_Dep/filter.c ****     }
 256              		.loc 1 224 9 is_stmt 1 view .LVU90
 257 0080 B0EE480A 		vmov.f32	s0, s16
 258 0084 04F11801 		add	r1, r4, #24
 259              	.LVL21:
 224:Algorithm/Filter_Dep/filter.c ****     }
 260              		.loc 1 224 9 is_stmt 0 view .LVU91
 261 0088 04F11400 		add	r0, r4, #20
 262 008c FFF7FEFF 		bl	Filter_Item_Update
 263              	.LVL22:
 224:Algorithm/Filter_Dep/filter.c ****     }
 264              		.loc 1 224 9 view .LVU92
 265 0090 BCE7     		b	.L3
 266              	.L14:
 267 0092 00BF     		.align	2
 268              	.L13:
 269 0094 00000000 		.word	0
 270              		.cfi_endproc
 271              	.LFE11:
 273              		.section	.text.SmoothWindow_Comput_Sum,"ax",%progbits
 274              		.align	1
 275              		.syntax unified
 276              		.thumb
 277              		.thumb_func
 279              	SmoothWindow_Comput_Sum:
 280              	.LVL23:
 281              	.LFB13:
 229:Algorithm/Filter_Dep/filter.c **** 
 230:Algorithm/Filter_Dep/filter.c **** /********************************************************** smooth window filter section **********
 231:Algorithm/Filter_Dep/filter.c **** static SW_Object_Handle SmoothWindow_Init(uint8_t window_size)
 232:Algorithm/Filter_Dep/filter.c **** {
 233:Algorithm/Filter_Dep/filter.c ****     SW_Object_Handle hdl = 0;
 234:Algorithm/Filter_Dep/filter.c ****     SmoothWindow_Param_TypeDef *param = NULL;
 235:Algorithm/Filter_Dep/filter.c **** 
 236:Algorithm/Filter_Dep/filter.c ****     if(window_size <= MAX_SMOOTH_WINDOW_SIZE)
 237:Algorithm/Filter_Dep/filter.c ****     {
 238:Algorithm/Filter_Dep/filter.c ****         param = FILTER_MALLOC(sizeof(SmoothWindow_Param_TypeDef));
 239:Algorithm/Filter_Dep/filter.c **** 
 240:Algorithm/Filter_Dep/filter.c ****         if(param == NULL)
 241:Algorithm/Filter_Dep/filter.c ****             return 0;
 242:Algorithm/Filter_Dep/filter.c **** 
 243:Algorithm/Filter_Dep/filter.c ****         param->smooth_period = 0;
 244:Algorithm/Filter_Dep/filter.c ****         param->window_size = window_size;
ARM GAS  C:\Users\8bit\AppData\Local\Temp\ccSaKvoD.s 			page 11


 245:Algorithm/Filter_Dep/filter.c ****         param->window_cache = FILTER_MALLOC(sizeof(item_obj) * window_size);
 246:Algorithm/Filter_Dep/filter.c **** 
 247:Algorithm/Filter_Dep/filter.c ****         if(param->window_cache == NULL)
 248:Algorithm/Filter_Dep/filter.c ****         {
 249:Algorithm/Filter_Dep/filter.c ****             FILTER_FREE(param->window_cache);
 250:Algorithm/Filter_Dep/filter.c ****             FILTER_FREE(param);
 251:Algorithm/Filter_Dep/filter.c ****             return 0;
 252:Algorithm/Filter_Dep/filter.c ****         }
 253:Algorithm/Filter_Dep/filter.c **** 
 254:Algorithm/Filter_Dep/filter.c ****         if(!Filter_List_Create(window_size, param->window_cache, &(param->window_header), &(param->
 255:Algorithm/Filter_Dep/filter.c ****             return 0;
 256:Algorithm/Filter_Dep/filter.c **** 
 257:Algorithm/Filter_Dep/filter.c ****         hdl = (uint32_t)param;
 258:Algorithm/Filter_Dep/filter.c ****     }
 259:Algorithm/Filter_Dep/filter.c **** 
 260:Algorithm/Filter_Dep/filter.c ****     return hdl;
 261:Algorithm/Filter_Dep/filter.c **** }
 262:Algorithm/Filter_Dep/filter.c **** 
 263:Algorithm/Filter_Dep/filter.c **** static int SmoothWindow_Comput_Sum(item_obj *item, void *item_data, void *sum)
 264:Algorithm/Filter_Dep/filter.c **** {
 282              		.loc 1 264 1 is_stmt 1 view -0
 283              		.cfi_startproc
 284              		@ args = 0, pretend = 0, frame = 0
 285              		@ frame_needed = 0, uses_anonymous_args = 0
 286              		@ link register save eliminated.
 265:Algorithm/Filter_Dep/filter.c ****     if(item && item_data && sum)
 287              		.loc 1 265 5 view .LVU94
 288              		.loc 1 265 7 is_stmt 0 view .LVU95
 289 0000 58B1     		cbz	r0, .L17
 290              		.loc 1 265 13 discriminator 1 view .LVU96
 291 0002 61B1     		cbz	r1, .L18
 292              		.loc 1 265 26 discriminator 2 view .LVU97
 293 0004 6AB1     		cbz	r2, .L19
 266:Algorithm/Filter_Dep/filter.c ****     {
 267:Algorithm/Filter_Dep/filter.c ****         *((float *) sum) += *((float *) item_data);
 294              		.loc 1 267 9 is_stmt 1 view .LVU98
 295              		.loc 1 267 29 is_stmt 0 view .LVU99
 296 0006 91ED007A 		vldr.32	s14, [r1]
 297              		.loc 1 267 26 view .LVU100
 298 000a D2ED007A 		vldr.32	s15, [r2]
 299 000e 77EE877A 		vadd.f32	s15, s15, s14
 300 0012 C2ED007A 		vstr.32	s15, [r2]
 268:Algorithm/Filter_Dep/filter.c **** 
 269:Algorithm/Filter_Dep/filter.c ****         return 1;
 301              		.loc 1 269 9 is_stmt 1 view .LVU101
 302              		.loc 1 269 16 is_stmt 0 view .LVU102
 303 0016 0120     		movs	r0, #1
 304              	.LVL24:
 305              		.loc 1 269 16 view .LVU103
 306 0018 7047     		bx	lr
 307              	.LVL25:
 308              	.L17:
 270:Algorithm/Filter_Dep/filter.c ****     }
 271:Algorithm/Filter_Dep/filter.c **** 
 272:Algorithm/Filter_Dep/filter.c ****     return 0;
 309              		.loc 1 272 12 view .LVU104
 310 001a 0020     		movs	r0, #0
ARM GAS  C:\Users\8bit\AppData\Local\Temp\ccSaKvoD.s 			page 12


 311              	.LVL26:
 312              		.loc 1 272 12 view .LVU105
 313 001c 7047     		bx	lr
 314              	.LVL27:
 315              	.L18:
 316              		.loc 1 272 12 view .LVU106
 317 001e 0020     		movs	r0, #0
 318              	.LVL28:
 319              		.loc 1 272 12 view .LVU107
 320 0020 7047     		bx	lr
 321              	.LVL29:
 322              	.L19:
 323              		.loc 1 272 12 view .LVU108
 324 0022 0020     		movs	r0, #0
 325              	.LVL30:
 273:Algorithm/Filter_Dep/filter.c **** }
 326              		.loc 1 273 1 view .LVU109
 327 0024 7047     		bx	lr
 328              		.cfi_endproc
 329              	.LFE13:
 331              		.section	.text.RC_Filter_Init,"ax",%progbits
 332              		.align	1
 333              		.syntax unified
 334              		.thumb
 335              		.thumb_func
 337              	RC_Filter_Init:
 338              	.LVL31:
 339              	.LFB15:
 274:Algorithm/Filter_Dep/filter.c **** 
 275:Algorithm/Filter_Dep/filter.c **** static float SmoothWindow_Update(SW_Object_Handle hdl, float cur_e)
 276:Algorithm/Filter_Dep/filter.c **** {
 277:Algorithm/Filter_Dep/filter.c ****     float sum = 0.0f;
 278:Algorithm/Filter_Dep/filter.c ****     SmoothWindow_Param_TypeDef *param = NULL; 
 279:Algorithm/Filter_Dep/filter.c **** 
 280:Algorithm/Filter_Dep/filter.c ****     if(hdl)
 281:Algorithm/Filter_Dep/filter.c ****     {
 282:Algorithm/Filter_Dep/filter.c ****         param = (SmoothWindow_Param_TypeDef *)hdl;
 283:Algorithm/Filter_Dep/filter.c ****     
 284:Algorithm/Filter_Dep/filter.c ****         if(param->smooth_period < param->window_size)
 285:Algorithm/Filter_Dep/filter.c ****             param->smooth_period ++;
 286:Algorithm/Filter_Dep/filter.c **** 
 287:Algorithm/Filter_Dep/filter.c ****         Filter_Item_Update(&(param->window_header), &(param->window_ender), cur_e);
 288:Algorithm/Filter_Dep/filter.c ****      
 289:Algorithm/Filter_Dep/filter.c ****         List_traverse(param->window_header, SmoothWindow_Comput_Sum, &sum, pre_callback);
 290:Algorithm/Filter_Dep/filter.c ****         sum /= param->smooth_period;
 291:Algorithm/Filter_Dep/filter.c ****     }
 292:Algorithm/Filter_Dep/filter.c **** 
 293:Algorithm/Filter_Dep/filter.c ****     return sum;
 294:Algorithm/Filter_Dep/filter.c **** }
 295:Algorithm/Filter_Dep/filter.c **** 
 296:Algorithm/Filter_Dep/filter.c **** /********************************************************** RC Filter section *********************
 297:Algorithm/Filter_Dep/filter.c **** /* none tested */
 298:Algorithm/Filter_Dep/filter.c **** static RC_Object_Handle RC_Filter_Init(RC_Filter_Param_TypeDef *obj)
 299:Algorithm/Filter_Dep/filter.c **** {
 340              		.loc 1 299 1 is_stmt 1 view -0
 341              		.cfi_startproc
 342              		@ args = 0, pretend = 0, frame = 0
ARM GAS  C:\Users\8bit\AppData\Local\Temp\ccSaKvoD.s 			page 13


 343              		@ frame_needed = 0, uses_anonymous_args = 0
 344              		@ link register save eliminated.
 300:Algorithm/Filter_Dep/filter.c ****     if (obj == NULL)
 345              		.loc 1 300 5 view .LVU111
 346              		.loc 1 300 8 is_stmt 0 view .LVU112
 347 0000 30B1     		cbz	r0, .L22
 301:Algorithm/Filter_Dep/filter.c ****         return 0;
 302:Algorithm/Filter_Dep/filter.c **** 
 303:Algorithm/Filter_Dep/filter.c ****     obj->dt = 0.0f;
 348              		.loc 1 303 5 is_stmt 1 view .LVU113
 349              		.loc 1 303 13 is_stmt 0 view .LVU114
 350 0002 0022     		movs	r2, #0
 351 0004 4260     		str	r2, [r0, #4]	@ float
 304:Algorithm/Filter_Dep/filter.c ****     obj->f_cut = 0.0f;
 352              		.loc 1 304 5 is_stmt 1 view .LVU115
 353              		.loc 1 304 16 is_stmt 0 view .LVU116
 354 0006 0260     		str	r2, [r0]	@ float
 305:Algorithm/Filter_Dep/filter.c ****     obj->lst_out = 0.0f;
 355              		.loc 1 305 5 is_stmt 1 view .LVU117
 356              		.loc 1 305 18 is_stmt 0 view .LVU118
 357 0008 8260     		str	r2, [r0, #8]	@ float
 306:Algorithm/Filter_Dep/filter.c ****     obj->lst_tick = 0;
 358              		.loc 1 306 5 is_stmt 1 view .LVU119
 359              		.loc 1 306 19 is_stmt 0 view .LVU120
 360 000a 0022     		movs	r2, #0
 361 000c C260     		str	r2, [r0, #12]
 307:Algorithm/Filter_Dep/filter.c **** 
 308:Algorithm/Filter_Dep/filter.c ****     return (RC_Object_Handle)obj;
 362              		.loc 1 308 5 is_stmt 1 view .LVU121
 363              		.loc 1 308 12 is_stmt 0 view .LVU122
 364 000e 7047     		bx	lr
 365              	.L22:
 301:Algorithm/Filter_Dep/filter.c **** 
 366              		.loc 1 301 16 view .LVU123
 367 0010 0020     		movs	r0, #0
 368              	.LVL32:
 309:Algorithm/Filter_Dep/filter.c **** }
 369              		.loc 1 309 1 view .LVU124
 370 0012 7047     		bx	lr
 371              		.cfi_endproc
 372              	.LFE15:
 374              		.global	__aeabi_f2d
 375              		.global	__aeabi_dmul
 376              		.global	__aeabi_d2f
 377              		.section	.text.RC_Filter_Update,"ax",%progbits
 378              		.align	1
 379              		.syntax unified
 380              		.thumb
 381              		.thumb_func
 383              	RC_Filter_Update:
 384              	.LVL33:
 385              	.LFB16:
 310:Algorithm/Filter_Dep/filter.c **** 
 311:Algorithm/Filter_Dep/filter.c **** static float RC_Filter_Update(RC_Object_Handle hdl, uint32_t sys_ms, float in)
 312:Algorithm/Filter_Dep/filter.c **** {
 386              		.loc 1 312 1 is_stmt 1 view -0
 387              		.cfi_startproc
ARM GAS  C:\Users\8bit\AppData\Local\Temp\ccSaKvoD.s 			page 14


 388              		@ args = 0, pretend = 0, frame = 0
 389              		@ frame_needed = 0, uses_anonymous_args = 0
 313:Algorithm/Filter_Dep/filter.c ****     float val = 0.0f;
 390              		.loc 1 313 5 view .LVU126
 314:Algorithm/Filter_Dep/filter.c ****     float alpha = 0.0f;
 391              		.loc 1 314 5 view .LVU127
 315:Algorithm/Filter_Dep/filter.c **** 
 316:Algorithm/Filter_Dep/filter.c ****     if (hdl == 0)
 392              		.loc 1 316 5 view .LVU128
 393              		.loc 1 316 8 is_stmt 0 view .LVU129
 394 0000 0028     		cmp	r0, #0
 395 0002 3ED0     		beq	.L26
 312:Algorithm/Filter_Dep/filter.c ****     float val = 0.0f;
 396              		.loc 1 312 1 view .LVU130
 397 0004 F8B5     		push	{r3, r4, r5, r6, r7, lr}
 398              	.LCFI6:
 399              		.cfi_def_cfa_offset 24
 400              		.cfi_offset 3, -24
 401              		.cfi_offset 4, -20
 402              		.cfi_offset 5, -16
 403              		.cfi_offset 6, -12
 404              		.cfi_offset 7, -8
 405              		.cfi_offset 14, -4
 406 0006 2DED048B 		vpush.64	{d8, d9}
 407              	.LCFI7:
 408              		.cfi_def_cfa_offset 40
 409              		.cfi_offset 80, -40
 410              		.cfi_offset 81, -36
 411              		.cfi_offset 82, -32
 412              		.cfi_offset 83, -28
 413 000a 0D46     		mov	r5, r1
 414 000c B0EE408A 		vmov.f32	s16, s0
 415 0010 0446     		mov	r4, r0
 317:Algorithm/Filter_Dep/filter.c ****         return 0.0f;
 318:Algorithm/Filter_Dep/filter.c **** 
 319:Algorithm/Filter_Dep/filter.c ****     if (To_RCParam_Ptr(hdl)->lst_tick)
 416              		.loc 1 319 5 is_stmt 1 view .LVU131
 417              		.loc 1 319 28 is_stmt 0 view .LVU132
 418 0012 C368     		ldr	r3, [r0, #12]
 419              		.loc 1 319 8 view .LVU133
 420 0014 7BB3     		cbz	r3, .L27
 320:Algorithm/Filter_Dep/filter.c ****     {
 321:Algorithm/Filter_Dep/filter.c ****         To_RCParam_Ptr(hdl)->dt = 1.0f / (sys_ms - To_RCParam_Ptr(hdl)->lst_tick);
 421              		.loc 1 321 9 is_stmt 1 view .LVU134
 422              		.loc 1 321 50 is_stmt 0 view .LVU135
 423 0016 CB1A     		subs	r3, r1, r3
 424              		.loc 1 321 40 view .LVU136
 425 0018 07EE903A 		vmov	s15, r3	@ int
 426 001c F8EE677A 		vcvt.f32.u32	s15, s15
 427 0020 F7EE008A 		vmov.f32	s17, #1.0e+0
 428 0024 88EEA79A 		vdiv.f32	s18, s17, s15
 429              		.loc 1 321 33 view .LVU137
 430 0028 80ED019A 		vstr.32	s18, [r0, #4]
 322:Algorithm/Filter_Dep/filter.c ****         
 323:Algorithm/Filter_Dep/filter.c ****         /* comput alpha */
 324:Algorithm/Filter_Dep/filter.c ****         alpha = 2 * PI * To_RCParam_Ptr(hdl)->f_cut * To_RCParam_Ptr(hdl)->dt;
 431              		.loc 1 324 9 is_stmt 1 view .LVU138
ARM GAS  C:\Users\8bit\AppData\Local\Temp\ccSaKvoD.s 			page 15


 432              		.loc 1 324 45 is_stmt 0 view .LVU139
 433 002c 0068     		ldr	r0, [r0]	@ float
 434              	.LVL34:
 435              		.loc 1 324 45 view .LVU140
 436 002e FFF7FEFF 		bl	__aeabi_f2d
 437              	.LVL35:
 438              		.loc 1 324 24 view .LVU141
 439 0032 16A3     		adr	r3, .L32+4
 440 0034 D3E90023 		ldrd	r2, [r3]
 441 0038 FFF7FEFF 		bl	__aeabi_dmul
 442              	.LVL36:
 443 003c 0646     		mov	r6, r0
 444 003e 0F46     		mov	r7, r1
 445              		.loc 1 324 74 view .LVU142
 446 0040 19EE100A 		vmov	r0, s18
 447 0044 FFF7FEFF 		bl	__aeabi_f2d
 448              	.LVL37:
 449 0048 0246     		mov	r2, r0
 450 004a 0B46     		mov	r3, r1
 451              		.loc 1 324 53 view .LVU143
 452 004c 3046     		mov	r0, r6
 453 004e 3946     		mov	r1, r7
 454 0050 FFF7FEFF 		bl	__aeabi_dmul
 455              	.LVL38:
 456              		.loc 1 324 15 view .LVU144
 457 0054 FFF7FEFF 		bl	__aeabi_d2f
 458              	.LVL39:
 459 0058 07EE900A 		vmov	s15, r0
 460              	.LVL40:
 325:Algorithm/Filter_Dep/filter.c ****         
 326:Algorithm/Filter_Dep/filter.c ****         /* filter update */
 327:Algorithm/Filter_Dep/filter.c ****         val = alpha * in + (1.0f - alpha) * To_RCParam_Ptr(hdl)->lst_out;
 461              		.loc 1 327 9 is_stmt 1 view .LVU145
 462              		.loc 1 327 21 is_stmt 0 view .LVU146
 463 005c 27EE880A 		vmul.f32	s0, s15, s16
 464              		.loc 1 327 34 view .LVU147
 465 0060 78EEE78A 		vsub.f32	s17, s17, s15
 466              		.loc 1 327 64 view .LVU148
 467 0064 D4ED027A 		vldr.32	s15, [r4, #8]
 468              		.loc 1 327 43 view .LVU149
 469 0068 68EEA78A 		vmul.f32	s17, s17, s15
 470              		.loc 1 327 13 view .LVU150
 471 006c 30EE280A 		vadd.f32	s0, s0, s17
 472              	.LVL41:
 328:Algorithm/Filter_Dep/filter.c ****         To_RCParam_Ptr(hdl)->lst_out = val;
 473              		.loc 1 328 9 is_stmt 1 view .LVU151
 474              		.loc 1 328 38 is_stmt 0 view .LVU152
 475 0070 84ED020A 		vstr.32	s0, [r4, #8]
 476 0074 01E0     		b	.L25
 477              	.LVL42:
 478              	.L27:
 313:Algorithm/Filter_Dep/filter.c ****     float alpha = 0.0f;
 479              		.loc 1 313 11 view .LVU153
 480 0076 9FED040A 		vldr.32	s0, .L32
 481              	.LVL43:
 482              	.L25:
 329:Algorithm/Filter_Dep/filter.c ****     }    
ARM GAS  C:\Users\8bit\AppData\Local\Temp\ccSaKvoD.s 			page 16


 330:Algorithm/Filter_Dep/filter.c ****     To_RCParam_Ptr(hdl)->lst_tick = sys_ms;
 483              		.loc 1 330 5 is_stmt 1 view .LVU154
 484              		.loc 1 330 35 is_stmt 0 view .LVU155
 485 007a E560     		str	r5, [r4, #12]
 331:Algorithm/Filter_Dep/filter.c **** 
 332:Algorithm/Filter_Dep/filter.c ****     return val;
 486              		.loc 1 332 5 is_stmt 1 view .LVU156
 333:Algorithm/Filter_Dep/filter.c **** }
 487              		.loc 1 333 1 is_stmt 0 view .LVU157
 488 007c BDEC048B 		vldm	sp!, {d8-d9}
 489              	.LCFI8:
 490              		.cfi_restore 82
 491              		.cfi_restore 83
 492              		.cfi_restore 80
 493              		.cfi_restore 81
 494              		.cfi_def_cfa_offset 24
 495              	.LVL44:
 496              		.loc 1 333 1 view .LVU158
 497 0080 F8BD     		pop	{r3, r4, r5, r6, r7, pc}
 498              	.LVL45:
 499              	.L26:
 500              	.LCFI9:
 501              		.cfi_def_cfa_offset 0
 502              		.cfi_restore 3
 503              		.cfi_restore 4
 504              		.cfi_restore 5
 505              		.cfi_restore 6
 506              		.cfi_restore 7
 507              		.cfi_restore 14
 317:Algorithm/Filter_Dep/filter.c **** 
 508              		.loc 1 317 16 view .LVU159
 509 0082 9FED010A 		vldr.32	s0, .L32
 510              	.LVL46:
 511              		.loc 1 333 1 view .LVU160
 512 0086 7047     		bx	lr
 513              	.L33:
 514              		.align	3
 515              	.L32:
 516 0088 00000000 		.word	0
 517 008c EA2E4454 		.word	1413754602
 518 0090 FB211940 		.word	1075388923
 519              		.cfi_endproc
 520              	.LFE16:
 522              		.section	.text.Filter_List_Create,"ax",%progbits
 523              		.align	1
 524              		.syntax unified
 525              		.thumb
 526              		.thumb_func
 528              	Filter_List_Create:
 529              	.LVL47:
 530              	.LFB8:
  43:Algorithm/Filter_Dep/filter.c ****     for (uint8_t i = 0; i < order; i++)
 531              		.loc 1 43 1 is_stmt 1 view -0
 532              		.cfi_startproc
 533              		@ args = 0, pretend = 0, frame = 0
 534              		@ frame_needed = 0, uses_anonymous_args = 0
  43:Algorithm/Filter_Dep/filter.c ****     for (uint8_t i = 0; i < order; i++)
ARM GAS  C:\Users\8bit\AppData\Local\Temp\ccSaKvoD.s 			page 17


 535              		.loc 1 43 1 is_stmt 0 view .LVU162
 536 0000 2DE9F84F 		push	{r3, r4, r5, r6, r7, r8, r9, r10, fp, lr}
 537              	.LCFI10:
 538              		.cfi_def_cfa_offset 40
 539              		.cfi_offset 3, -40
 540              		.cfi_offset 4, -36
 541              		.cfi_offset 5, -32
 542              		.cfi_offset 6, -28
 543              		.cfi_offset 7, -24
 544              		.cfi_offset 8, -20
 545              		.cfi_offset 9, -16
 546              		.cfi_offset 10, -12
 547              		.cfi_offset 11, -8
 548              		.cfi_offset 14, -4
 549 0004 8046     		mov	r8, r0
 550 0006 0F46     		mov	r7, r1
 551 0008 9146     		mov	r9, r2
 552 000a 9A46     		mov	r10, r3
  44:Algorithm/Filter_Dep/filter.c ****     {
 553              		.loc 1 44 5 is_stmt 1 view .LVU163
 554              	.LBB4:
  44:Algorithm/Filter_Dep/filter.c ****     {
 555              		.loc 1 44 10 view .LVU164
 556              	.LVL48:
  44:Algorithm/Filter_Dep/filter.c ****     {
 557              		.loc 1 44 18 is_stmt 0 view .LVU165
 558 000c 0024     		movs	r4, #0
  44:Algorithm/Filter_Dep/filter.c ****     {
 559              		.loc 1 44 5 view .LVU166
 560 000e 08E0     		b	.L35
 561              	.LVL49:
 562              	.L43:
 563              	.LBB5:
  50:Algorithm/Filter_Dep/filter.c ****             return false;
 564              		.loc 1 50 13 is_stmt 1 view .LVU167
 565 0010 174B     		ldr	r3, .L44
 566 0012 1B6B     		ldr	r3, [r3, #48]
 567 0014 9847     		blx	r3
 568              	.LVL50:
  50:Algorithm/Filter_Dep/filter.c ****             return false;
 569              		.loc 1 50 32 view .LVU168
  51:Algorithm/Filter_Dep/filter.c ****         }
 570              		.loc 1 51 13 view .LVU169
  51:Algorithm/Filter_Dep/filter.c ****         }
 571              		.loc 1 51 20 is_stmt 0 view .LVU170
 572 0016 0020     		movs	r0, #0
 573 0018 27E0     		b	.L37
 574              	.L38:
  66:Algorithm/Filter_Dep/filter.c ****     }
 575              		.loc 1 66 13 is_stmt 1 view .LVU171
  66:Algorithm/Filter_Dep/filter.c ****     }
 576              		.loc 1 66 21 is_stmt 0 view .LVU172
 577 001a C9F80070 		str	r7, [r9]
 578              	.L39:
  66:Algorithm/Filter_Dep/filter.c ****     }
 579              		.loc 1 66 21 view .LVU173
 580              	.LBE5:
ARM GAS  C:\Users\8bit\AppData\Local\Temp\ccSaKvoD.s 			page 18


  44:Algorithm/Filter_Dep/filter.c ****     {
 581              		.loc 1 44 36 is_stmt 1 discriminator 2 view .LVU174
  44:Algorithm/Filter_Dep/filter.c ****     {
 582              		.loc 1 44 37 is_stmt 0 discriminator 2 view .LVU175
 583 001e 0134     		adds	r4, r4, #1
 584              	.LVL51:
  44:Algorithm/Filter_Dep/filter.c ****     {
 585              		.loc 1 44 37 discriminator 2 view .LVU176
 586 0020 E4B2     		uxtb	r4, r4
 587              	.LVL52:
 588              	.L35:
  44:Algorithm/Filter_Dep/filter.c ****     {
 589              		.loc 1 44 25 is_stmt 1 discriminator 1 view .LVU177
  44:Algorithm/Filter_Dep/filter.c ****     {
 590              		.loc 1 44 5 is_stmt 0 discriminator 1 view .LVU178
 591 0022 4445     		cmp	r4, r8
 592 0024 19D2     		bcs	.L42
 593              	.LBB6:
  46:Algorithm/Filter_Dep/filter.c **** 
 594              		.loc 1 46 9 is_stmt 1 view .LVU179
  46:Algorithm/Filter_Dep/filter.c **** 
 595              		.loc 1 46 34 is_stmt 0 view .LVU180
 596 0026 124B     		ldr	r3, .L44
 597 0028 DB6A     		ldr	r3, [r3, #44]
 598 002a 0420     		movs	r0, #4
 599 002c 9847     		blx	r3
 600              	.LVL53:
  48:Algorithm/Filter_Dep/filter.c ****         {
 601              		.loc 1 48 9 is_stmt 1 view .LVU181
  48:Algorithm/Filter_Dep/filter.c ****         {
 602              		.loc 1 48 12 is_stmt 0 view .LVU182
 603 002e 8346     		mov	fp, r0
 604 0030 0028     		cmp	r0, #0
 605 0032 EDD0     		beq	.L43
  55:Algorithm/Filter_Dep/filter.c ****             *u_temp = 0.0f;
 606              		.loc 1 55 13 is_stmt 1 view .LVU183
  55:Algorithm/Filter_Dep/filter.c ****             *u_temp = 0.0f;
 607              		.loc 1 55 32 is_stmt 0 view .LVU184
 608 0034 04EB8405 		add	r5, r4, r4, lsl #2
 609 0038 AE00     		lsls	r6, r5, #2
  55:Algorithm/Filter_Dep/filter.c ****             *u_temp = 0.0f;
 610              		.loc 1 55 13 view .LVU185
 611 003a 07EB8505 		add	r5, r7, r5, lsl #2
 612 003e 0146     		mov	r1, r0
 613 0040 2846     		mov	r0, r5
 614              	.LVL54:
  55:Algorithm/Filter_Dep/filter.c ****             *u_temp = 0.0f;
 615              		.loc 1 55 13 view .LVU186
 616 0042 FFF7FEFF 		bl	List_ItemInit
 617              	.LVL55:
  56:Algorithm/Filter_Dep/filter.c ****         }
 618              		.loc 1 56 13 is_stmt 1 view .LVU187
  56:Algorithm/Filter_Dep/filter.c ****         }
 619              		.loc 1 56 21 is_stmt 0 view .LVU188
 620 0046 0023     		movs	r3, #0
 621 0048 CBF80030 		str	r3, [fp]	@ float
  60:Algorithm/Filter_Dep/filter.c ****         {
ARM GAS  C:\Users\8bit\AppData\Local\Temp\ccSaKvoD.s 			page 19


 622              		.loc 1 60 9 is_stmt 1 view .LVU189
  60:Algorithm/Filter_Dep/filter.c ****         {
 623              		.loc 1 60 12 is_stmt 0 view .LVU190
 624 004c 002C     		cmp	r4, #0
 625 004e E4D0     		beq	.L38
  62:Algorithm/Filter_Dep/filter.c ****             item[i].prv = &item[i - 1];
 626              		.loc 1 62 13 is_stmt 1 view .LVU191
  62:Algorithm/Filter_Dep/filter.c ****             item[i].prv = &item[i - 1];
 627              		.loc 1 62 17 is_stmt 0 view .LVU192
 628 0050 143E     		subs	r6, r6, #20
 629 0052 3E44     		add	r6, r6, r7
  62:Algorithm/Filter_Dep/filter.c ****             item[i].prv = &item[i - 1];
 630              		.loc 1 62 29 view .LVU193
 631 0054 F560     		str	r5, [r6, #12]
  63:Algorithm/Filter_Dep/filter.c ****         }
 632              		.loc 1 63 13 is_stmt 1 view .LVU194
  63:Algorithm/Filter_Dep/filter.c ****         }
 633              		.loc 1 63 25 is_stmt 0 view .LVU195
 634 0056 AE60     		str	r6, [r5, #8]
 635 0058 E1E7     		b	.L39
 636              	.LVL56:
 637              	.L42:
  63:Algorithm/Filter_Dep/filter.c ****         }
 638              		.loc 1 63 25 view .LVU196
 639              	.LBE6:
 640              	.LBE4:
  69:Algorithm/Filter_Dep/filter.c **** 
 641              		.loc 1 69 5 is_stmt 1 view .LVU197
  69:Algorithm/Filter_Dep/filter.c **** 
 642              		.loc 1 69 19 is_stmt 0 view .LVU198
 643 005a 08EB8803 		add	r3, r8, r8, lsl #2
 644 005e 9B00     		lsls	r3, r3, #2
 645 0060 143B     		subs	r3, r3, #20
  69:Algorithm/Filter_Dep/filter.c **** 
 646              		.loc 1 69 14 view .LVU199
 647 0062 1F44     		add	r7, r7, r3
 648              	.LVL57:
  69:Algorithm/Filter_Dep/filter.c **** 
 649              		.loc 1 69 12 view .LVU200
 650 0064 CAF80070 		str	r7, [r10]
  71:Algorithm/Filter_Dep/filter.c **** }
 651              		.loc 1 71 5 is_stmt 1 view .LVU201
  71:Algorithm/Filter_Dep/filter.c **** }
 652              		.loc 1 71 12 is_stmt 0 view .LVU202
 653 0068 0120     		movs	r0, #1
 654              	.L37:
  72:Algorithm/Filter_Dep/filter.c **** 
 655              		.loc 1 72 1 view .LVU203
 656 006a BDE8F88F 		pop	{r3, r4, r5, r6, r7, r8, r9, r10, fp, pc}
 657              	.LVL58:
 658              	.L45:
  72:Algorithm/Filter_Dep/filter.c **** 
 659              		.loc 1 72 1 view .LVU204
 660 006e 00BF     		.align	2
 661              	.L44:
 662 0070 00000000 		.word	SrvOsCommon
 663              		.cfi_endproc
ARM GAS  C:\Users\8bit\AppData\Local\Temp\ccSaKvoD.s 			page 20


 664              	.LFE8:
 666              		.section	.text.Butterworth_Init,"ax",%progbits
 667              		.align	1
 668              		.syntax unified
 669              		.thumb
 670              		.thumb_func
 672              	Butterworth_Init:
 673              	.LVL59:
 674              	.LFB10:
  90:Algorithm/Filter_Dep/filter.c ****     Filter_ButterworthParam_TypeDef *BWF_Obj = NULL;
 675              		.loc 1 90 1 is_stmt 1 view -0
 676              		.cfi_startproc
 677              		@ args = 0, pretend = 0, frame = 0
 678              		@ frame_needed = 0, uses_anonymous_args = 0
  91:Algorithm/Filter_Dep/filter.c ****     uint8_t e_cnt = 0;
 679              		.loc 1 91 5 view .LVU206
  92:Algorithm/Filter_Dep/filter.c ****     uint8_t u_cnt = 0;
 680              		.loc 1 92 5 view .LVU207
  93:Algorithm/Filter_Dep/filter.c **** 
 681              		.loc 1 93 5 view .LVU208
  95:Algorithm/Filter_Dep/filter.c ****         return 0;
 682              		.loc 1 95 5 view .LVU209
  95:Algorithm/Filter_Dep/filter.c ****         return 0;
 683              		.loc 1 95 7 is_stmt 0 view .LVU210
 684 0000 0028     		cmp	r0, #0
 685 0002 00F0C380 		beq	.L59
  90:Algorithm/Filter_Dep/filter.c ****     Filter_ButterworthParam_TypeDef *BWF_Obj = NULL;
 686              		.loc 1 90 1 view .LVU211
 687 0006 F8B5     		push	{r3, r4, r5, r6, r7, lr}
 688              	.LCFI11:
 689              		.cfi_def_cfa_offset 24
 690              		.cfi_offset 3, -24
 691              		.cfi_offset 4, -20
 692              		.cfi_offset 5, -16
 693              		.cfi_offset 6, -12
 694              		.cfi_offset 7, -8
 695              		.cfi_offset 14, -4
 696 0008 0546     		mov	r5, r0
  98:Algorithm/Filter_Dep/filter.c ****     {
 697              		.loc 1 98 5 is_stmt 1 view .LVU212
  98:Algorithm/Filter_Dep/filter.c ****     {
 698              		.loc 1 98 18 is_stmt 0 view .LVU213
 699 000a 0678     		ldrb	r6, [r0]	@ zero_extendqisi2
  98:Algorithm/Filter_Dep/filter.c ****     {
 700              		.loc 1 98 8 view .LVU214
 701 000c 012E     		cmp	r6, #1
 702 000e 40F2BA80 		bls	.L60
 100:Algorithm/Filter_Dep/filter.c ****         u_cnt = param_obj->order;
 703              		.loc 1 100 9 is_stmt 1 view .LVU215
 100:Algorithm/Filter_Dep/filter.c ****         u_cnt = param_obj->order;
 704              		.loc 1 100 15 is_stmt 0 view .LVU216
 705 0012 771C     		adds	r7, r6, #1
 706 0014 FFB2     		uxtb	r7, r7
 707              	.LVL60:
 101:Algorithm/Filter_Dep/filter.c ****         
 708              		.loc 1 101 9 is_stmt 1 view .LVU217
 103:Algorithm/Filter_Dep/filter.c ****             return 0;
ARM GAS  C:\Users\8bit\AppData\Local\Temp\ccSaKvoD.s 			page 21


 709              		.loc 1 103 9 view .LVU218
 103:Algorithm/Filter_Dep/filter.c ****             return 0;
 710              		.loc 1 103 23 is_stmt 0 view .LVU219
 711 0016 4368     		ldr	r3, [r0, #4]
 103:Algorithm/Filter_Dep/filter.c ****             return 0;
 712              		.loc 1 103 12 view .LVU220
 713 0018 002B     		cmp	r3, #0
 714 001a 00F0B980 		beq	.L61
 103:Algorithm/Filter_Dep/filter.c ****             return 0;
 715              		.loc 1 103 55 discriminator 1 view .LVU221
 716 001e 8368     		ldr	r3, [r0, #8]
 103:Algorithm/Filter_Dep/filter.c ****             return 0;
 717              		.loc 1 103 42 discriminator 1 view .LVU222
 718 0020 002B     		cmp	r3, #0
 719 0022 00F0B780 		beq	.L62
 106:Algorithm/Filter_Dep/filter.c **** 
 720              		.loc 1 106 9 is_stmt 1 view .LVU223
 106:Algorithm/Filter_Dep/filter.c **** 
 721              		.loc 1 106 19 is_stmt 0 view .LVU224
 722 0026 5C4B     		ldr	r3, .L74
 723 0028 DB6A     		ldr	r3, [r3, #44]
 724 002a 2420     		movs	r0, #36
 725              	.LVL61:
 106:Algorithm/Filter_Dep/filter.c **** 
 726              		.loc 1 106 19 view .LVU225
 727 002c 9847     		blx	r3
 728              	.LVL62:
 108:Algorithm/Filter_Dep/filter.c ****         {
 729              		.loc 1 108 9 is_stmt 1 view .LVU226
 108:Algorithm/Filter_Dep/filter.c ****         {
 730              		.loc 1 108 12 is_stmt 0 view .LVU227
 731 002e 0446     		mov	r4, r0
 732 0030 0028     		cmp	r0, #0
 733 0032 37D0     		beq	.L67
 114:Algorithm/Filter_Dep/filter.c ****         if (BWF_Obj->p_e_data_cache == NULL)
 734              		.loc 1 114 9 is_stmt 1 view .LVU228
 114:Algorithm/Filter_Dep/filter.c ****         if (BWF_Obj->p_e_data_cache == NULL)
 735              		.loc 1 114 35 is_stmt 0 view .LVU229
 736 0034 584B     		ldr	r3, .L74
 737 0036 DB6A     		ldr	r3, [r3, #44]
 738 0038 07EB8700 		add	r0, r7, r7, lsl #2
 739              	.LVL63:
 114:Algorithm/Filter_Dep/filter.c ****         if (BWF_Obj->p_e_data_cache == NULL)
 740              		.loc 1 114 35 view .LVU230
 741 003c 8000     		lsls	r0, r0, #2
 742 003e 9847     		blx	r3
 743              	.LVL64:
 114:Algorithm/Filter_Dep/filter.c ****         if (BWF_Obj->p_e_data_cache == NULL)
 744              		.loc 1 114 33 view .LVU231
 745 0040 E061     		str	r0, [r4, #28]
 115:Algorithm/Filter_Dep/filter.c ****         {
 746              		.loc 1 115 9 is_stmt 1 view .LVU232
 115:Algorithm/Filter_Dep/filter.c ****         {
 747              		.loc 1 115 12 is_stmt 0 view .LVU233
 748 0042 0028     		cmp	r0, #0
 749 0044 33D0     		beq	.L68
 123:Algorithm/Filter_Dep/filter.c ****             {
ARM GAS  C:\Users\8bit\AppData\Local\Temp\ccSaKvoD.s 			page 22


 750              		.loc 1 123 13 is_stmt 1 view .LVU234
 123:Algorithm/Filter_Dep/filter.c ****             {
 751              		.loc 1 123 18 is_stmt 0 view .LVU235
 752 0046 04F11003 		add	r3, r4, #16
 753 004a 04F10C02 		add	r2, r4, #12
 754 004e 0146     		mov	r1, r0
 755 0050 3846     		mov	r0, r7
 756 0052 FFF7FEFF 		bl	Filter_List_Create
 757              	.LVL65:
 123:Algorithm/Filter_Dep/filter.c ****             {
 758              		.loc 1 123 16 view .LVU236
 759 0056 0028     		cmp	r0, #0
 760 0058 31D0     		beq	.L69
 131:Algorithm/Filter_Dep/filter.c ****         if (BWF_Obj->p_u_data_cache == NULL)
 761              		.loc 1 131 9 is_stmt 1 view .LVU237
 131:Algorithm/Filter_Dep/filter.c ****         if (BWF_Obj->p_u_data_cache == NULL)
 762              		.loc 1 131 35 is_stmt 0 view .LVU238
 763 005a 4F4B     		ldr	r3, .L74
 764 005c DB6A     		ldr	r3, [r3, #44]
 765 005e 06EB8600 		add	r0, r6, r6, lsl #2
 766 0062 8000     		lsls	r0, r0, #2
 767 0064 9847     		blx	r3
 768              	.LVL66:
 769 0066 0146     		mov	r1, r0
 131:Algorithm/Filter_Dep/filter.c ****         if (BWF_Obj->p_u_data_cache == NULL)
 770              		.loc 1 131 33 view .LVU239
 771 0068 2062     		str	r0, [r4, #32]
 132:Algorithm/Filter_Dep/filter.c ****         {
 772              		.loc 1 132 9 is_stmt 1 view .LVU240
 132:Algorithm/Filter_Dep/filter.c ****         {
 773              		.loc 1 132 12 is_stmt 0 view .LVU241
 774 006a 0028     		cmp	r0, #0
 775 006c 30D0     		beq	.L70
 141:Algorithm/Filter_Dep/filter.c ****             {
 776              		.loc 1 141 13 is_stmt 1 view .LVU242
 141:Algorithm/Filter_Dep/filter.c ****             {
 777              		.loc 1 141 18 is_stmt 0 view .LVU243
 778 006e 04F11803 		add	r3, r4, #24
 779 0072 04F11402 		add	r2, r4, #20
 780 0076 3046     		mov	r0, r6
 781 0078 FFF7FEFF 		bl	Filter_List_Create
 782              	.LVL67:
 141:Algorithm/Filter_Dep/filter.c ****             {
 783              		.loc 1 141 16 view .LVU244
 784 007c 0028     		cmp	r0, #0
 785 007e 33D0     		beq	.L71
 150:Algorithm/Filter_Dep/filter.c ****         if(BWF_Obj->e_para_buf == NULL)
 786              		.loc 1 150 9 is_stmt 1 view .LVU245
 150:Algorithm/Filter_Dep/filter.c ****         if(BWF_Obj->e_para_buf == NULL)
 787              		.loc 1 150 31 is_stmt 0 view .LVU246
 788 0080 454B     		ldr	r3, .L74
 789 0082 DB6A     		ldr	r3, [r3, #44]
 790 0084 B800     		lsls	r0, r7, #2
 791 0086 9847     		blx	r3
 792              	.LVL68:
 150:Algorithm/Filter_Dep/filter.c ****         if(BWF_Obj->e_para_buf == NULL)
 793              		.loc 1 150 29 view .LVU247
ARM GAS  C:\Users\8bit\AppData\Local\Temp\ccSaKvoD.s 			page 23


 794 0088 6060     		str	r0, [r4, #4]
 151:Algorithm/Filter_Dep/filter.c ****         {
 795              		.loc 1 151 9 is_stmt 1 view .LVU248
 151:Algorithm/Filter_Dep/filter.c ****         {
 796              		.loc 1 151 11 is_stmt 0 view .LVU249
 797 008a 0028     		cmp	r0, #0
 798 008c 38D0     		beq	.L72
 160:Algorithm/Filter_Dep/filter.c ****         if(BWF_Obj->u_para_buf == NULL)
 799              		.loc 1 160 9 is_stmt 1 view .LVU250
 160:Algorithm/Filter_Dep/filter.c ****         if(BWF_Obj->u_para_buf == NULL)
 800              		.loc 1 160 31 is_stmt 0 view .LVU251
 801 008e 424B     		ldr	r3, .L74
 802 0090 DB6A     		ldr	r3, [r3, #44]
 803 0092 B000     		lsls	r0, r6, #2
 804 0094 9847     		blx	r3
 805              	.LVL69:
 160:Algorithm/Filter_Dep/filter.c ****         if(BWF_Obj->u_para_buf == NULL)
 806              		.loc 1 160 29 view .LVU252
 807 0096 A060     		str	r0, [r4, #8]
 161:Algorithm/Filter_Dep/filter.c ****         {
 808              		.loc 1 161 9 is_stmt 1 view .LVU253
 161:Algorithm/Filter_Dep/filter.c ****         {
 809              		.loc 1 161 11 is_stmt 0 view .LVU254
 810 0098 0028     		cmp	r0, #0
 811 009a 3FD0     		beq	.L73
 171:Algorithm/Filter_Dep/filter.c **** 
 812              		.loc 1 171 9 is_stmt 1 view .LVU255
 171:Algorithm/Filter_Dep/filter.c **** 
 813              		.loc 1 171 35 is_stmt 0 view .LVU256
 814 009c 2B78     		ldrb	r3, [r5]	@ zero_extendqisi2
 171:Algorithm/Filter_Dep/filter.c **** 
 815              		.loc 1 171 24 view .LVU257
 816 009e 2370     		strb	r3, [r4]
 173:Algorithm/Filter_Dep/filter.c ****         {
 817              		.loc 1 173 9 is_stmt 1 view .LVU258
 818              	.LBB7:
 173:Algorithm/Filter_Dep/filter.c ****         {
 819              		.loc 1 173 13 view .LVU259
 820              	.LVL70:
 173:Algorithm/Filter_Dep/filter.c ****         {
 821              		.loc 1 173 21 is_stmt 0 view .LVU260
 822 00a0 0023     		movs	r3, #0
 173:Algorithm/Filter_Dep/filter.c ****         {
 823              		.loc 1 173 9 view .LVU261
 824 00a2 4FE0     		b	.L56
 825              	.LVL71:
 826              	.L67:
 173:Algorithm/Filter_Dep/filter.c ****         {
 827              		.loc 1 173 9 view .LVU262
 828              	.LBE7:
 110:Algorithm/Filter_Dep/filter.c ****             return 0;
 829              		.loc 1 110 13 is_stmt 1 view .LVU263
 830 00a4 3C4B     		ldr	r3, .L74
 831 00a6 1B6B     		ldr	r3, [r3, #48]
 832 00a8 9847     		blx	r3
 833              	.LVL72:
 110:Algorithm/Filter_Dep/filter.c ****             return 0;
ARM GAS  C:\Users\8bit\AppData\Local\Temp\ccSaKvoD.s 			page 24


 834              		.loc 1 110 33 view .LVU264
 111:Algorithm/Filter_Dep/filter.c ****         }
 835              		.loc 1 111 13 view .LVU265
 111:Algorithm/Filter_Dep/filter.c ****         }
 836              		.loc 1 111 20 is_stmt 0 view .LVU266
 837 00aa 0020     		movs	r0, #0
 838 00ac 6DE0     		b	.L46
 839              	.L68:
 117:Algorithm/Filter_Dep/filter.c ****             FILTER_FREE(BWF_Obj);
 840              		.loc 1 117 13 is_stmt 1 view .LVU267
 841 00ae 3A4D     		ldr	r5, .L74
 842              	.LVL73:
 117:Algorithm/Filter_Dep/filter.c ****             FILTER_FREE(BWF_Obj);
 843              		.loc 1 117 13 is_stmt 0 view .LVU268
 844 00b0 2B6B     		ldr	r3, [r5, #48]
 845 00b2 9847     		blx	r3
 846              	.LVL74:
 117:Algorithm/Filter_Dep/filter.c ****             FILTER_FREE(BWF_Obj);
 847              		.loc 1 117 49 is_stmt 1 view .LVU269
 118:Algorithm/Filter_Dep/filter.c ****             return 0;
 848              		.loc 1 118 13 view .LVU270
 849 00b4 2B6B     		ldr	r3, [r5, #48]
 850 00b6 2046     		mov	r0, r4
 851 00b8 9847     		blx	r3
 852              	.LVL75:
 118:Algorithm/Filter_Dep/filter.c ****             return 0;
 853              		.loc 1 118 33 view .LVU271
 119:Algorithm/Filter_Dep/filter.c ****         }
 854              		.loc 1 119 13 view .LVU272
 119:Algorithm/Filter_Dep/filter.c ****         }
 855              		.loc 1 119 20 is_stmt 0 view .LVU273
 856 00ba 0020     		movs	r0, #0
 857 00bc 65E0     		b	.L46
 858              	.LVL76:
 859              	.L69:
 125:Algorithm/Filter_Dep/filter.c ****                 FILTER_FREE(BWF_Obj);
 860              		.loc 1 125 17 is_stmt 1 view .LVU274
 861 00be 364D     		ldr	r5, .L74
 862              	.LVL77:
 125:Algorithm/Filter_Dep/filter.c ****                 FILTER_FREE(BWF_Obj);
 863              		.loc 1 125 17 is_stmt 0 view .LVU275
 864 00c0 2B6B     		ldr	r3, [r5, #48]
 865 00c2 E069     		ldr	r0, [r4, #28]
 866 00c4 9847     		blx	r3
 867              	.LVL78:
 125:Algorithm/Filter_Dep/filter.c ****                 FILTER_FREE(BWF_Obj);
 868              		.loc 1 125 53 is_stmt 1 view .LVU276
 126:Algorithm/Filter_Dep/filter.c ****                 return 0;
 869              		.loc 1 126 17 view .LVU277
 870 00c6 2B6B     		ldr	r3, [r5, #48]
 871 00c8 2046     		mov	r0, r4
 872 00ca 9847     		blx	r3
 873              	.LVL79:
 126:Algorithm/Filter_Dep/filter.c ****                 return 0;
 874              		.loc 1 126 37 view .LVU278
 127:Algorithm/Filter_Dep/filter.c ****             }
 875              		.loc 1 127 17 view .LVU279
ARM GAS  C:\Users\8bit\AppData\Local\Temp\ccSaKvoD.s 			page 25


 127:Algorithm/Filter_Dep/filter.c ****             }
 876              		.loc 1 127 24 is_stmt 0 view .LVU280
 877 00cc 0020     		movs	r0, #0
 878 00ce 5CE0     		b	.L46
 879              	.LVL80:
 880              	.L70:
 134:Algorithm/Filter_Dep/filter.c ****             FILTER_FREE(BWF_Obj->p_u_data_cache);
 881              		.loc 1 134 13 is_stmt 1 view .LVU281
 882 00d0 314D     		ldr	r5, .L74
 883              	.LVL81:
 134:Algorithm/Filter_Dep/filter.c ****             FILTER_FREE(BWF_Obj->p_u_data_cache);
 884              		.loc 1 134 13 is_stmt 0 view .LVU282
 885 00d2 2B6B     		ldr	r3, [r5, #48]
 886 00d4 E069     		ldr	r0, [r4, #28]
 887 00d6 9847     		blx	r3
 888              	.LVL82:
 134:Algorithm/Filter_Dep/filter.c ****             FILTER_FREE(BWF_Obj->p_u_data_cache);
 889              		.loc 1 134 49 is_stmt 1 view .LVU283
 135:Algorithm/Filter_Dep/filter.c ****             FILTER_FREE(BWF_Obj);
 890              		.loc 1 135 13 view .LVU284
 891 00d8 2B6B     		ldr	r3, [r5, #48]
 892 00da 206A     		ldr	r0, [r4, #32]
 893 00dc 9847     		blx	r3
 894              	.LVL83:
 135:Algorithm/Filter_Dep/filter.c ****             FILTER_FREE(BWF_Obj);
 895              		.loc 1 135 49 view .LVU285
 136:Algorithm/Filter_Dep/filter.c ****             return 0;
 896              		.loc 1 136 13 view .LVU286
 897 00de 2B6B     		ldr	r3, [r5, #48]
 898 00e0 2046     		mov	r0, r4
 899 00e2 9847     		blx	r3
 900              	.LVL84:
 136:Algorithm/Filter_Dep/filter.c ****             return 0;
 901              		.loc 1 136 33 view .LVU287
 137:Algorithm/Filter_Dep/filter.c ****         }
 902              		.loc 1 137 13 view .LVU288
 137:Algorithm/Filter_Dep/filter.c ****         }
 903              		.loc 1 137 20 is_stmt 0 view .LVU289
 904 00e4 0020     		movs	r0, #0
 905 00e6 50E0     		b	.L46
 906              	.LVL85:
 907              	.L71:
 143:Algorithm/Filter_Dep/filter.c ****                 FILTER_FREE(BWF_Obj->p_u_data_cache);
 908              		.loc 1 143 17 is_stmt 1 view .LVU290
 909 00e8 2B4D     		ldr	r5, .L74
 910              	.LVL86:
 143:Algorithm/Filter_Dep/filter.c ****                 FILTER_FREE(BWF_Obj->p_u_data_cache);
 911              		.loc 1 143 17 is_stmt 0 view .LVU291
 912 00ea 2B6B     		ldr	r3, [r5, #48]
 913 00ec E069     		ldr	r0, [r4, #28]
 914 00ee 9847     		blx	r3
 915              	.LVL87:
 143:Algorithm/Filter_Dep/filter.c ****                 FILTER_FREE(BWF_Obj->p_u_data_cache);
 916              		.loc 1 143 53 is_stmt 1 view .LVU292
 144:Algorithm/Filter_Dep/filter.c ****                 FILTER_FREE(BWF_Obj);
 917              		.loc 1 144 17 view .LVU293
 918 00f0 2B6B     		ldr	r3, [r5, #48]
ARM GAS  C:\Users\8bit\AppData\Local\Temp\ccSaKvoD.s 			page 26


 919 00f2 206A     		ldr	r0, [r4, #32]
 920 00f4 9847     		blx	r3
 921              	.LVL88:
 144:Algorithm/Filter_Dep/filter.c ****                 FILTER_FREE(BWF_Obj);
 922              		.loc 1 144 53 view .LVU294
 145:Algorithm/Filter_Dep/filter.c ****                 return 0;
 923              		.loc 1 145 17 view .LVU295
 924 00f6 2B6B     		ldr	r3, [r5, #48]
 925 00f8 2046     		mov	r0, r4
 926 00fa 9847     		blx	r3
 927              	.LVL89:
 145:Algorithm/Filter_Dep/filter.c ****                 return 0;
 928              		.loc 1 145 37 view .LVU296
 146:Algorithm/Filter_Dep/filter.c ****             }
 929              		.loc 1 146 17 view .LVU297
 146:Algorithm/Filter_Dep/filter.c ****             }
 930              		.loc 1 146 24 is_stmt 0 view .LVU298
 931 00fc 0020     		movs	r0, #0
 932 00fe 44E0     		b	.L46
 933              	.LVL90:
 934              	.L72:
 153:Algorithm/Filter_Dep/filter.c ****             FILTER_FREE(BWF_Obj->p_e_data_cache);
 935              		.loc 1 153 13 is_stmt 1 view .LVU299
 936 0100 254D     		ldr	r5, .L74
 937              	.LVL91:
 153:Algorithm/Filter_Dep/filter.c ****             FILTER_FREE(BWF_Obj->p_e_data_cache);
 938              		.loc 1 153 13 is_stmt 0 view .LVU300
 939 0102 2B6B     		ldr	r3, [r5, #48]
 940 0104 9847     		blx	r3
 941              	.LVL92:
 153:Algorithm/Filter_Dep/filter.c ****             FILTER_FREE(BWF_Obj->p_e_data_cache);
 942              		.loc 1 153 45 is_stmt 1 view .LVU301
 154:Algorithm/Filter_Dep/filter.c ****             FILTER_FREE(BWF_Obj->p_u_data_cache);
 943              		.loc 1 154 13 view .LVU302
 944 0106 2B6B     		ldr	r3, [r5, #48]
 945 0108 E069     		ldr	r0, [r4, #28]
 946 010a 9847     		blx	r3
 947              	.LVL93:
 154:Algorithm/Filter_Dep/filter.c ****             FILTER_FREE(BWF_Obj->p_u_data_cache);
 948              		.loc 1 154 49 view .LVU303
 155:Algorithm/Filter_Dep/filter.c ****             FILTER_FREE(BWF_Obj);
 949              		.loc 1 155 13 view .LVU304
 950 010c 2B6B     		ldr	r3, [r5, #48]
 951 010e 206A     		ldr	r0, [r4, #32]
 952 0110 9847     		blx	r3
 953              	.LVL94:
 155:Algorithm/Filter_Dep/filter.c ****             FILTER_FREE(BWF_Obj);
 954              		.loc 1 155 49 view .LVU305
 156:Algorithm/Filter_Dep/filter.c ****             return 0;
 955              		.loc 1 156 13 view .LVU306
 956 0112 2B6B     		ldr	r3, [r5, #48]
 957 0114 2046     		mov	r0, r4
 958 0116 9847     		blx	r3
 959              	.LVL95:
 156:Algorithm/Filter_Dep/filter.c ****             return 0;
 960              		.loc 1 156 33 view .LVU307
 157:Algorithm/Filter_Dep/filter.c ****         }
ARM GAS  C:\Users\8bit\AppData\Local\Temp\ccSaKvoD.s 			page 27


 961              		.loc 1 157 13 view .LVU308
 157:Algorithm/Filter_Dep/filter.c ****         }
 962              		.loc 1 157 20 is_stmt 0 view .LVU309
 963 0118 0020     		movs	r0, #0
 964 011a 36E0     		b	.L46
 965              	.LVL96:
 966              	.L73:
 163:Algorithm/Filter_Dep/filter.c ****             FILTER_FREE(BWF_Obj->u_para_buf);
 967              		.loc 1 163 13 is_stmt 1 view .LVU310
 968 011c 1E4D     		ldr	r5, .L74
 969              	.LVL97:
 163:Algorithm/Filter_Dep/filter.c ****             FILTER_FREE(BWF_Obj->u_para_buf);
 970              		.loc 1 163 13 is_stmt 0 view .LVU311
 971 011e 2B6B     		ldr	r3, [r5, #48]
 972 0120 6068     		ldr	r0, [r4, #4]
 973 0122 9847     		blx	r3
 974              	.LVL98:
 163:Algorithm/Filter_Dep/filter.c ****             FILTER_FREE(BWF_Obj->u_para_buf);
 975              		.loc 1 163 45 is_stmt 1 view .LVU312
 164:Algorithm/Filter_Dep/filter.c ****             FILTER_FREE(BWF_Obj->p_e_data_cache);
 976              		.loc 1 164 13 view .LVU313
 977 0124 2B6B     		ldr	r3, [r5, #48]
 978 0126 A068     		ldr	r0, [r4, #8]
 979 0128 9847     		blx	r3
 980              	.LVL99:
 164:Algorithm/Filter_Dep/filter.c ****             FILTER_FREE(BWF_Obj->p_e_data_cache);
 981              		.loc 1 164 45 view .LVU314
 165:Algorithm/Filter_Dep/filter.c ****             FILTER_FREE(BWF_Obj->p_u_data_cache);
 982              		.loc 1 165 13 view .LVU315
 983 012a 2B6B     		ldr	r3, [r5, #48]
 984 012c E069     		ldr	r0, [r4, #28]
 985 012e 9847     		blx	r3
 986              	.LVL100:
 165:Algorithm/Filter_Dep/filter.c ****             FILTER_FREE(BWF_Obj->p_u_data_cache);
 987              		.loc 1 165 49 view .LVU316
 166:Algorithm/Filter_Dep/filter.c ****             FILTER_FREE(BWF_Obj);
 988              		.loc 1 166 13 view .LVU317
 989 0130 2B6B     		ldr	r3, [r5, #48]
 990 0132 206A     		ldr	r0, [r4, #32]
 991 0134 9847     		blx	r3
 992              	.LVL101:
 166:Algorithm/Filter_Dep/filter.c ****             FILTER_FREE(BWF_Obj);
 993              		.loc 1 166 49 view .LVU318
 167:Algorithm/Filter_Dep/filter.c ****             return 0;
 994              		.loc 1 167 13 view .LVU319
 995 0136 2B6B     		ldr	r3, [r5, #48]
 996 0138 2046     		mov	r0, r4
 997 013a 9847     		blx	r3
 998              	.LVL102:
 167:Algorithm/Filter_Dep/filter.c ****             return 0;
 999              		.loc 1 167 33 view .LVU320
 168:Algorithm/Filter_Dep/filter.c ****         }
 1000              		.loc 1 168 13 view .LVU321
 168:Algorithm/Filter_Dep/filter.c ****         }
 1001              		.loc 1 168 20 is_stmt 0 view .LVU322
 1002 013c 0020     		movs	r0, #0
 1003 013e 24E0     		b	.L46
ARM GAS  C:\Users\8bit\AppData\Local\Temp\ccSaKvoD.s 			page 28


 1004              	.LVL103:
 1005              	.L57:
 1006              	.LBB8:
 173:Algorithm/Filter_Dep/filter.c ****         {
 1007              		.loc 1 173 39 is_stmt 1 discriminator 2 view .LVU323
 173:Algorithm/Filter_Dep/filter.c ****         {
 1008              		.loc 1 173 40 is_stmt 0 discriminator 2 view .LVU324
 1009 0140 0133     		adds	r3, r3, #1
 1010              	.LVL104:
 173:Algorithm/Filter_Dep/filter.c ****         {
 1011              		.loc 1 173 40 discriminator 2 view .LVU325
 1012 0142 DBB2     		uxtb	r3, r3
 1013              	.LVL105:
 1014              	.L56:
 173:Algorithm/Filter_Dep/filter.c ****         {
 1015              		.loc 1 173 28 is_stmt 1 discriminator 1 view .LVU326
 173:Algorithm/Filter_Dep/filter.c ****         {
 1016              		.loc 1 173 9 is_stmt 0 discriminator 1 view .LVU327
 1017 0144 BB42     		cmp	r3, r7
 1018 0146 1FD2     		bcs	.L48
 175:Algorithm/Filter_Dep/filter.c ****         
 1019              		.loc 1 175 13 is_stmt 1 view .LVU328
 175:Algorithm/Filter_Dep/filter.c ****         
 1020              		.loc 1 175 47 is_stmt 0 view .LVU329
 1021 0148 6A68     		ldr	r2, [r5, #4]
 175:Algorithm/Filter_Dep/filter.c ****         
 1022              		.loc 1 175 56 view .LVU330
 1023 014a D800     		lsls	r0, r3, #3
 1024 014c 02EBC302 		add	r2, r2, r3, lsl #3
 175:Algorithm/Filter_Dep/filter.c ****         
 1025              		.loc 1 175 59 view .LVU331
 1026 0150 D2ED007A 		vldr.32	s15, [r2]
 175:Algorithm/Filter_Dep/filter.c ****         
 1027              		.loc 1 175 85 view .LVU332
 1028 0154 92ED017A 		vldr.32	s14, [r2, #4]
 175:Algorithm/Filter_Dep/filter.c ****         
 1029              		.loc 1 175 20 view .LVU333
 1030 0158 6268     		ldr	r2, [r4, #4]
 175:Algorithm/Filter_Dep/filter.c ****         
 1031              		.loc 1 175 32 view .LVU334
 1032 015a 9900     		lsls	r1, r3, #2
 1033 015c 02EB8302 		add	r2, r2, r3, lsl #2
 175:Algorithm/Filter_Dep/filter.c ****         
 1034              		.loc 1 175 62 view .LVU335
 1035 0160 67EE877A 		vmul.f32	s15, s15, s14
 175:Algorithm/Filter_Dep/filter.c ****         
 1036              		.loc 1 175 36 view .LVU336
 1037 0164 C2ED007A 		vstr.32	s15, [r2]
 177:Algorithm/Filter_Dep/filter.c ****             {
 1038              		.loc 1 177 13 is_stmt 1 view .LVU337
 177:Algorithm/Filter_Dep/filter.c ****             {
 1039              		.loc 1 177 15 is_stmt 0 view .LVU338
 1040 0168 9E42     		cmp	r6, r3
 1041 016a E9D9     		bls	.L57
 179:Algorithm/Filter_Dep/filter.c ****             }
 1042              		.loc 1 179 17 is_stmt 1 view .LVU339
 179:Algorithm/Filter_Dep/filter.c ****             }
ARM GAS  C:\Users\8bit\AppData\Local\Temp\ccSaKvoD.s 			page 29


 1043              		.loc 1 179 51 is_stmt 0 view .LVU340
 1044 016c AA68     		ldr	r2, [r5, #8]
 179:Algorithm/Filter_Dep/filter.c ****             }
 1045              		.loc 1 179 60 view .LVU341
 1046 016e 0244     		add	r2, r2, r0
 179:Algorithm/Filter_Dep/filter.c ****             }
 1047              		.loc 1 179 63 view .LVU342
 1048 0170 D2ED007A 		vldr.32	s15, [r2]
 179:Algorithm/Filter_Dep/filter.c ****             }
 1049              		.loc 1 179 89 view .LVU343
 1050 0174 92ED017A 		vldr.32	s14, [r2, #4]
 179:Algorithm/Filter_Dep/filter.c ****             }
 1051              		.loc 1 179 24 view .LVU344
 1052 0178 A268     		ldr	r2, [r4, #8]
 179:Algorithm/Filter_Dep/filter.c ****             }
 1053              		.loc 1 179 36 view .LVU345
 1054 017a 0A44     		add	r2, r2, r1
 179:Algorithm/Filter_Dep/filter.c ****             }
 1055              		.loc 1 179 66 view .LVU346
 1056 017c 67EE877A 		vmul.f32	s15, s15, s14
 179:Algorithm/Filter_Dep/filter.c ****             }
 1057              		.loc 1 179 40 view .LVU347
 1058 0180 C2ED007A 		vstr.32	s15, [r2]
 1059 0184 DCE7     		b	.L57
 1060              	.LVL106:
 1061              	.L60:
 179:Algorithm/Filter_Dep/filter.c ****             }
 1062              		.loc 1 179 40 view .LVU348
 1063              	.LBE8:
  91:Algorithm/Filter_Dep/filter.c ****     uint8_t e_cnt = 0;
 1064              		.loc 1 91 38 view .LVU349
 1065 0186 0024     		movs	r4, #0
 1066              	.LVL107:
 1067              	.L48:
 184:Algorithm/Filter_Dep/filter.c **** }
 1068              		.loc 1 184 5 is_stmt 1 view .LVU350
 184:Algorithm/Filter_Dep/filter.c **** }
 1069              		.loc 1 184 12 is_stmt 0 view .LVU351
 1070 0188 2046     		mov	r0, r4
 1071              	.LVL108:
 1072              	.L46:
 185:Algorithm/Filter_Dep/filter.c **** 
 1073              		.loc 1 185 1 view .LVU352
 1074 018a F8BD     		pop	{r3, r4, r5, r6, r7, pc}
 1075              	.LVL109:
 1076              	.L59:
 1077              	.LCFI12:
 1078              		.cfi_def_cfa_offset 0
 1079              		.cfi_restore 3
 1080              		.cfi_restore 4
 1081              		.cfi_restore 5
 1082              		.cfi_restore 6
 1083              		.cfi_restore 7
 1084              		.cfi_restore 14
  96:Algorithm/Filter_Dep/filter.c **** 
 1085              		.loc 1 96 16 view .LVU353
 1086 018c 0020     		movs	r0, #0
ARM GAS  C:\Users\8bit\AppData\Local\Temp\ccSaKvoD.s 			page 30


 1087              	.LVL110:
 185:Algorithm/Filter_Dep/filter.c **** 
 1088              		.loc 1 185 1 view .LVU354
 1089 018e 7047     		bx	lr
 1090              	.LVL111:
 1091              	.L61:
 1092              	.LCFI13:
 1093              		.cfi_def_cfa_offset 24
 1094              		.cfi_offset 3, -24
 1095              		.cfi_offset 4, -20
 1096              		.cfi_offset 5, -16
 1097              		.cfi_offset 6, -12
 1098              		.cfi_offset 7, -8
 1099              		.cfi_offset 14, -4
 104:Algorithm/Filter_Dep/filter.c **** 
 1100              		.loc 1 104 20 view .LVU355
 1101 0190 0020     		movs	r0, #0
 1102              	.LVL112:
 104:Algorithm/Filter_Dep/filter.c **** 
 1103              		.loc 1 104 20 view .LVU356
 1104 0192 FAE7     		b	.L46
 1105              	.LVL113:
 1106              	.L62:
 104:Algorithm/Filter_Dep/filter.c **** 
 1107              		.loc 1 104 20 view .LVU357
 1108 0194 0020     		movs	r0, #0
 1109              	.LVL114:
 104:Algorithm/Filter_Dep/filter.c **** 
 1110              		.loc 1 104 20 view .LVU358
 1111 0196 F8E7     		b	.L46
 1112              	.L75:
 1113              		.align	2
 1114              	.L74:
 1115 0198 00000000 		.word	SrvOsCommon
 1116              		.cfi_endproc
 1117              	.LFE10:
 1119              		.section	.text.SmoothWindow_Init,"ax",%progbits
 1120              		.align	1
 1121              		.syntax unified
 1122              		.thumb
 1123              		.thumb_func
 1125              	SmoothWindow_Init:
 1126              	.LVL115:
 1127              	.LFB12:
 232:Algorithm/Filter_Dep/filter.c ****     SW_Object_Handle hdl = 0;
 1128              		.loc 1 232 1 is_stmt 1 view -0
 1129              		.cfi_startproc
 1130              		@ args = 0, pretend = 0, frame = 0
 1131              		@ frame_needed = 0, uses_anonymous_args = 0
 233:Algorithm/Filter_Dep/filter.c ****     SmoothWindow_Param_TypeDef *param = NULL;
 1132              		.loc 1 233 5 view .LVU360
 234:Algorithm/Filter_Dep/filter.c **** 
 1133              		.loc 1 234 5 view .LVU361
 236:Algorithm/Filter_Dep/filter.c ****     {
 1134              		.loc 1 236 5 view .LVU362
 236:Algorithm/Filter_Dep/filter.c ****     {
 1135              		.loc 1 236 7 is_stmt 0 view .LVU363
ARM GAS  C:\Users\8bit\AppData\Local\Temp\ccSaKvoD.s 			page 31


 1136 0000 0A28     		cmp	r0, #10
 1137 0002 24D8     		bhi	.L79
 232:Algorithm/Filter_Dep/filter.c ****     SW_Object_Handle hdl = 0;
 1138              		.loc 1 232 1 view .LVU364
 1139 0004 38B5     		push	{r3, r4, r5, lr}
 1140              	.LCFI14:
 1141              		.cfi_def_cfa_offset 16
 1142              		.cfi_offset 3, -16
 1143              		.cfi_offset 4, -12
 1144              		.cfi_offset 5, -8
 1145              		.cfi_offset 14, -4
 1146 0006 0446     		mov	r4, r0
 238:Algorithm/Filter_Dep/filter.c **** 
 1147              		.loc 1 238 9 is_stmt 1 view .LVU365
 238:Algorithm/Filter_Dep/filter.c **** 
 1148              		.loc 1 238 17 is_stmt 0 view .LVU366
 1149 0008 144B     		ldr	r3, .L87
 1150 000a DB6A     		ldr	r3, [r3, #44]
 1151 000c 1020     		movs	r0, #16
 1152              	.LVL116:
 238:Algorithm/Filter_Dep/filter.c **** 
 1153              		.loc 1 238 17 view .LVU367
 1154 000e 9847     		blx	r3
 1155              	.LVL117:
 240:Algorithm/Filter_Dep/filter.c ****             return 0;
 1156              		.loc 1 240 9 is_stmt 1 view .LVU368
 240:Algorithm/Filter_Dep/filter.c ****             return 0;
 1157              		.loc 1 240 11 is_stmt 0 view .LVU369
 1158 0010 0546     		mov	r5, r0
 1159 0012 F0B1     		cbz	r0, .L80
 243:Algorithm/Filter_Dep/filter.c ****         param->window_size = window_size;
 1160              		.loc 1 243 9 is_stmt 1 view .LVU370
 243:Algorithm/Filter_Dep/filter.c ****         param->window_size = window_size;
 1161              		.loc 1 243 30 is_stmt 0 view .LVU371
 1162 0014 0023     		movs	r3, #0
 1163 0016 4370     		strb	r3, [r0, #1]
 244:Algorithm/Filter_Dep/filter.c ****         param->window_cache = FILTER_MALLOC(sizeof(item_obj) * window_size);
 1164              		.loc 1 244 9 is_stmt 1 view .LVU372
 244:Algorithm/Filter_Dep/filter.c ****         param->window_cache = FILTER_MALLOC(sizeof(item_obj) * window_size);
 1165              		.loc 1 244 28 is_stmt 0 view .LVU373
 1166 0018 0470     		strb	r4, [r0]
 245:Algorithm/Filter_Dep/filter.c **** 
 1167              		.loc 1 245 9 is_stmt 1 view .LVU374
 245:Algorithm/Filter_Dep/filter.c **** 
 1168              		.loc 1 245 31 is_stmt 0 view .LVU375
 1169 001a 104B     		ldr	r3, .L87
 1170 001c DB6A     		ldr	r3, [r3, #44]
 1171 001e 04EB8400 		add	r0, r4, r4, lsl #2
 1172              	.LVL118:
 245:Algorithm/Filter_Dep/filter.c **** 
 1173              		.loc 1 245 31 view .LVU376
 1174 0022 8000     		lsls	r0, r0, #2
 1175 0024 9847     		blx	r3
 1176              	.LVL119:
 245:Algorithm/Filter_Dep/filter.c **** 
 1177              		.loc 1 245 29 view .LVU377
 1178 0026 E860     		str	r0, [r5, #12]
ARM GAS  C:\Users\8bit\AppData\Local\Temp\ccSaKvoD.s 			page 32


 247:Algorithm/Filter_Dep/filter.c ****         {
 1179              		.loc 1 247 9 is_stmt 1 view .LVU378
 247:Algorithm/Filter_Dep/filter.c ****         {
 1180              		.loc 1 247 11 is_stmt 0 view .LVU379
 1181 0028 48B1     		cbz	r0, .L86
 254:Algorithm/Filter_Dep/filter.c ****             return 0;
 1182              		.loc 1 254 9 is_stmt 1 view .LVU380
 254:Algorithm/Filter_Dep/filter.c ****             return 0;
 1183              		.loc 1 254 13 is_stmt 0 view .LVU381
 1184 002a 05F10803 		add	r3, r5, #8
 1185 002e 2A1D     		adds	r2, r5, #4
 1186 0030 0146     		mov	r1, r0
 1187 0032 2046     		mov	r0, r4
 1188 0034 FFF7FEFF 		bl	Filter_List_Create
 1189              	.LVL120:
 254:Algorithm/Filter_Dep/filter.c ****             return 0;
 1190              		.loc 1 254 11 view .LVU382
 1191 0038 68B1     		cbz	r0, .L81
 257:Algorithm/Filter_Dep/filter.c ****     }
 1192              		.loc 1 257 9 is_stmt 1 view .LVU383
 257:Algorithm/Filter_Dep/filter.c ****     }
 1193              		.loc 1 257 13 is_stmt 0 view .LVU384
 1194 003a 2846     		mov	r0, r5
 1195              	.LVL121:
 1196              	.L76:
 261:Algorithm/Filter_Dep/filter.c **** 
 1197              		.loc 1 261 1 view .LVU385
 1198 003c 38BD     		pop	{r3, r4, r5, pc}
 1199              	.LVL122:
 1200              	.L86:
 249:Algorithm/Filter_Dep/filter.c ****             FILTER_FREE(param);
 1201              		.loc 1 249 13 is_stmt 1 view .LVU386
 1202 003e 074C     		ldr	r4, .L87
 1203 0040 236B     		ldr	r3, [r4, #48]
 1204 0042 9847     		blx	r3
 1205              	.LVL123:
 249:Algorithm/Filter_Dep/filter.c ****             FILTER_FREE(param);
 1206              		.loc 1 249 45 view .LVU387
 250:Algorithm/Filter_Dep/filter.c ****             return 0;
 1207              		.loc 1 250 13 view .LVU388
 1208 0044 236B     		ldr	r3, [r4, #48]
 1209 0046 2846     		mov	r0, r5
 1210 0048 9847     		blx	r3
 1211              	.LVL124:
 250:Algorithm/Filter_Dep/filter.c ****             return 0;
 1212              		.loc 1 250 31 view .LVU389
 251:Algorithm/Filter_Dep/filter.c ****         }
 1213              		.loc 1 251 13 view .LVU390
 251:Algorithm/Filter_Dep/filter.c ****         }
 1214              		.loc 1 251 20 is_stmt 0 view .LVU391
 1215 004a 0020     		movs	r0, #0
 1216 004c F6E7     		b	.L76
 1217              	.LVL125:
 1218              	.L79:
 1219              	.LCFI15:
 1220              		.cfi_def_cfa_offset 0
 1221              		.cfi_restore 3
ARM GAS  C:\Users\8bit\AppData\Local\Temp\ccSaKvoD.s 			page 33


 1222              		.cfi_restore 4
 1223              		.cfi_restore 5
 1224              		.cfi_restore 14
 233:Algorithm/Filter_Dep/filter.c ****     SmoothWindow_Param_TypeDef *param = NULL;
 1225              		.loc 1 233 22 view .LVU392
 1226 004e 0020     		movs	r0, #0
 1227              	.LVL126:
 261:Algorithm/Filter_Dep/filter.c **** 
 1228              		.loc 1 261 1 view .LVU393
 1229 0050 7047     		bx	lr
 1230              	.LVL127:
 1231              	.L80:
 1232              	.LCFI16:
 1233              		.cfi_def_cfa_offset 16
 1234              		.cfi_offset 3, -16
 1235              		.cfi_offset 4, -12
 1236              		.cfi_offset 5, -8
 1237              		.cfi_offset 14, -4
 241:Algorithm/Filter_Dep/filter.c **** 
 1238              		.loc 1 241 20 view .LVU394
 1239 0052 0020     		movs	r0, #0
 1240              	.LVL128:
 241:Algorithm/Filter_Dep/filter.c **** 
 1241              		.loc 1 241 20 view .LVU395
 1242 0054 F2E7     		b	.L76
 1243              	.L81:
 255:Algorithm/Filter_Dep/filter.c **** 
 1244              		.loc 1 255 20 view .LVU396
 1245 0056 0020     		movs	r0, #0
 1246              	.LVL129:
 255:Algorithm/Filter_Dep/filter.c **** 
 1247              		.loc 1 255 20 view .LVU397
 1248 0058 F0E7     		b	.L76
 1249              	.L88:
 1250 005a 00BF     		.align	2
 1251              	.L87:
 1252 005c 00000000 		.word	SrvOsCommon
 1253              		.cfi_endproc
 1254              	.LFE12:
 1256              		.section	.text.SmoothWindow_Update,"ax",%progbits
 1257              		.align	1
 1258              		.syntax unified
 1259              		.thumb
 1260              		.thumb_func
 1262              	SmoothWindow_Update:
 1263              	.LVL130:
 1264              	.LFB14:
 276:Algorithm/Filter_Dep/filter.c ****     float sum = 0.0f;
 1265              		.loc 1 276 1 is_stmt 1 view -0
 1266              		.cfi_startproc
 1267              		@ args = 0, pretend = 0, frame = 8
 1268              		@ frame_needed = 0, uses_anonymous_args = 0
 276:Algorithm/Filter_Dep/filter.c ****     float sum = 0.0f;
 1269              		.loc 1 276 1 is_stmt 0 view .LVU399
 1270 0000 10B5     		push	{r4, lr}
 1271              	.LCFI17:
 1272              		.cfi_def_cfa_offset 8
ARM GAS  C:\Users\8bit\AppData\Local\Temp\ccSaKvoD.s 			page 34


 1273              		.cfi_offset 4, -8
 1274              		.cfi_offset 14, -4
 1275 0002 82B0     		sub	sp, sp, #8
 1276              	.LCFI18:
 1277              		.cfi_def_cfa_offset 16
 277:Algorithm/Filter_Dep/filter.c ****     SmoothWindow_Param_TypeDef *param = NULL; 
 1278              		.loc 1 277 5 is_stmt 1 view .LVU400
 277:Algorithm/Filter_Dep/filter.c ****     SmoothWindow_Param_TypeDef *param = NULL; 
 1279              		.loc 1 277 11 is_stmt 0 view .LVU401
 1280 0004 0023     		movs	r3, #0
 1281 0006 0193     		str	r3, [sp, #4]	@ float
 278:Algorithm/Filter_Dep/filter.c **** 
 1282              		.loc 1 278 5 is_stmt 1 view .LVU402
 1283              	.LVL131:
 280:Algorithm/Filter_Dep/filter.c ****     {
 1284              		.loc 1 280 5 view .LVU403
 280:Algorithm/Filter_Dep/filter.c ****     {
 1285              		.loc 1 280 7 is_stmt 0 view .LVU404
 1286 0008 E0B1     		cbz	r0, .L90
 1287 000a 0446     		mov	r4, r0
 282:Algorithm/Filter_Dep/filter.c ****     
 1288              		.loc 1 282 9 is_stmt 1 view .LVU405
 1289              	.LVL132:
 284:Algorithm/Filter_Dep/filter.c ****             param->smooth_period ++;
 1290              		.loc 1 284 9 view .LVU406
 284:Algorithm/Filter_Dep/filter.c ****             param->smooth_period ++;
 1291              		.loc 1 284 17 is_stmt 0 view .LVU407
 1292 000c 4378     		ldrb	r3, [r0, #1]	@ zero_extendqisi2
 284:Algorithm/Filter_Dep/filter.c ****             param->smooth_period ++;
 1293              		.loc 1 284 40 view .LVU408
 1294 000e 0278     		ldrb	r2, [r0]	@ zero_extendqisi2
 284:Algorithm/Filter_Dep/filter.c ****             param->smooth_period ++;
 1295              		.loc 1 284 11 view .LVU409
 1296 0010 9342     		cmp	r3, r2
 1297 0012 01D2     		bcs	.L91
 285:Algorithm/Filter_Dep/filter.c **** 
 1298              		.loc 1 285 13 is_stmt 1 view .LVU410
 285:Algorithm/Filter_Dep/filter.c **** 
 1299              		.loc 1 285 34 is_stmt 0 view .LVU411
 1300 0014 0133     		adds	r3, r3, #1
 1301 0016 4370     		strb	r3, [r0, #1]
 1302              	.L91:
 287:Algorithm/Filter_Dep/filter.c ****      
 1303              		.loc 1 287 9 is_stmt 1 view .LVU412
 1304 0018 04F10801 		add	r1, r4, #8
 1305 001c 201D     		adds	r0, r4, #4
 1306              	.LVL133:
 287:Algorithm/Filter_Dep/filter.c ****      
 1307              		.loc 1 287 9 is_stmt 0 view .LVU413
 1308 001e FFF7FEFF 		bl	Filter_Item_Update
 1309              	.LVL134:
 289:Algorithm/Filter_Dep/filter.c ****         sum /= param->smooth_period;
 1310              		.loc 1 289 9 is_stmt 1 view .LVU414
 1311 0022 0023     		movs	r3, #0
 1312 0024 01AA     		add	r2, sp, #4
 1313 0026 0949     		ldr	r1, .L93
 1314 0028 6068     		ldr	r0, [r4, #4]
ARM GAS  C:\Users\8bit\AppData\Local\Temp\ccSaKvoD.s 			page 35


 1315 002a FFF7FEFF 		bl	List_traverse
 1316              	.LVL135:
 290:Algorithm/Filter_Dep/filter.c ****     }
 1317              		.loc 1 290 9 view .LVU415
 290:Algorithm/Filter_Dep/filter.c ****     }
 1318              		.loc 1 290 21 is_stmt 0 view .LVU416
 1319 002e 6378     		ldrb	r3, [r4, #1]	@ zero_extendqisi2
 1320 0030 07EE903A 		vmov	s15, r3	@ int
 290:Algorithm/Filter_Dep/filter.c ****     }
 1321              		.loc 1 290 13 view .LVU417
 1322 0034 F8EEE77A 		vcvt.f32.s32	s15, s15
 1323 0038 DDED016A 		vldr.32	s13, [sp, #4]
 1324 003c 86EEA77A 		vdiv.f32	s14, s13, s15
 1325 0040 8DED017A 		vstr.32	s14, [sp, #4]
 1326              	.LVL136:
 1327              	.L90:
 293:Algorithm/Filter_Dep/filter.c **** }
 1328              		.loc 1 293 5 is_stmt 1 view .LVU418
 294:Algorithm/Filter_Dep/filter.c **** 
 1329              		.loc 1 294 1 is_stmt 0 view .LVU419
 1330 0044 9DED010A 		vldr.32	s0, [sp, #4]
 1331 0048 02B0     		add	sp, sp, #8
 1332              	.LCFI19:
 1333              		.cfi_def_cfa_offset 8
 1334              		@ sp needed
 1335 004a 10BD     		pop	{r4, pc}
 1336              	.L94:
 1337              		.align	2
 1338              	.L93:
 1339 004c 00000000 		.word	SmoothWindow_Comput_Sum
 1340              		.cfi_endproc
 1341              	.LFE14:
 1343              		.global	RCFilter
 1344              		.global	SmoothWindow
 1345              		.global	Butterworth
 1346              		.section	.data.Butterworth,"aw"
 1347              		.align	2
 1350              	Butterworth:
 1351 0000 00000000 		.word	Butterworth_Init
 1352 0004 00000000 		.word	Butterworth_Filter_Update
 1353              		.section	.data.RCFilter,"aw"
 1354              		.align	2
 1357              	RCFilter:
 1358 0000 00000000 		.word	RC_Filter_Init
 1359 0004 00000000 		.word	RC_Filter_Update
 1360              		.section	.data.SmoothWindow,"aw"
 1361              		.align	2
 1364              	SmoothWindow:
 1365 0000 00000000 		.word	SmoothWindow_Init
 1366 0004 00000000 		.word	SmoothWindow_Update
 1367              		.text
 1368              	.Letext0:
 1369              		.file 2 "c:\\program files (x86)\\gnu arm embedded toolchain\\10 2021.10\\arm-none-eabi\\include\\
 1370              		.file 3 "c:\\program files (x86)\\gnu arm embedded toolchain\\10 2021.10\\lib\\gcc\\arm-none-eabi\
 1371              		.file 4 "c:\\program files (x86)\\gnu arm embedded toolchain\\10 2021.10\\arm-none-eabi\\include\\
 1372              		.file 5 "DataStructure/linked_list.h"
 1373              		.file 6 "System/FreeRTOS/include/portable.h"
ARM GAS  C:\Users\8bit\AppData\Local\Temp\ccSaKvoD.s 			page 36


 1374              		.file 7 "Service/Srv_OsCommon.h"
 1375              		.file 8 "Algorithm/Filter_Dep/filter_param.h"
 1376              		.file 9 "Algorithm/Filter_Dep/filter.h"
ARM GAS  C:\Users\8bit\AppData\Local\Temp\ccSaKvoD.s 			page 37


DEFINED SYMBOLS
                            *ABS*:00000000 filter.c
C:\Users\8bit\AppData\Local\Temp\ccSaKvoD.s:20     .text.Filter_Item_Update:00000000 $t
C:\Users\8bit\AppData\Local\Temp\ccSaKvoD.s:25     .text.Filter_Item_Update:00000000 Filter_Item_Update
C:\Users\8bit\AppData\Local\Temp\ccSaKvoD.s:97     .text.Butterworth_Filter_Update:00000000 $t
C:\Users\8bit\AppData\Local\Temp\ccSaKvoD.s:102    .text.Butterworth_Filter_Update:00000000 Butterworth_Filter_Update
C:\Users\8bit\AppData\Local\Temp\ccSaKvoD.s:269    .text.Butterworth_Filter_Update:00000094 $d
C:\Users\8bit\AppData\Local\Temp\ccSaKvoD.s:274    .text.SmoothWindow_Comput_Sum:00000000 $t
C:\Users\8bit\AppData\Local\Temp\ccSaKvoD.s:279    .text.SmoothWindow_Comput_Sum:00000000 SmoothWindow_Comput_Sum
C:\Users\8bit\AppData\Local\Temp\ccSaKvoD.s:332    .text.RC_Filter_Init:00000000 $t
C:\Users\8bit\AppData\Local\Temp\ccSaKvoD.s:337    .text.RC_Filter_Init:00000000 RC_Filter_Init
C:\Users\8bit\AppData\Local\Temp\ccSaKvoD.s:378    .text.RC_Filter_Update:00000000 $t
C:\Users\8bit\AppData\Local\Temp\ccSaKvoD.s:383    .text.RC_Filter_Update:00000000 RC_Filter_Update
C:\Users\8bit\AppData\Local\Temp\ccSaKvoD.s:516    .text.RC_Filter_Update:00000088 $d
C:\Users\8bit\AppData\Local\Temp\ccSaKvoD.s:523    .text.Filter_List_Create:00000000 $t
C:\Users\8bit\AppData\Local\Temp\ccSaKvoD.s:528    .text.Filter_List_Create:00000000 Filter_List_Create
C:\Users\8bit\AppData\Local\Temp\ccSaKvoD.s:662    .text.Filter_List_Create:00000070 $d
C:\Users\8bit\AppData\Local\Temp\ccSaKvoD.s:667    .text.Butterworth_Init:00000000 $t
C:\Users\8bit\AppData\Local\Temp\ccSaKvoD.s:672    .text.Butterworth_Init:00000000 Butterworth_Init
C:\Users\8bit\AppData\Local\Temp\ccSaKvoD.s:1115   .text.Butterworth_Init:00000198 $d
C:\Users\8bit\AppData\Local\Temp\ccSaKvoD.s:1120   .text.SmoothWindow_Init:00000000 $t
C:\Users\8bit\AppData\Local\Temp\ccSaKvoD.s:1125   .text.SmoothWindow_Init:00000000 SmoothWindow_Init
C:\Users\8bit\AppData\Local\Temp\ccSaKvoD.s:1252   .text.SmoothWindow_Init:0000005c $d
C:\Users\8bit\AppData\Local\Temp\ccSaKvoD.s:1257   .text.SmoothWindow_Update:00000000 $t
C:\Users\8bit\AppData\Local\Temp\ccSaKvoD.s:1262   .text.SmoothWindow_Update:00000000 SmoothWindow_Update
C:\Users\8bit\AppData\Local\Temp\ccSaKvoD.s:1339   .text.SmoothWindow_Update:0000004c $d
C:\Users\8bit\AppData\Local\Temp\ccSaKvoD.s:1357   .data.RCFilter:00000000 RCFilter
C:\Users\8bit\AppData\Local\Temp\ccSaKvoD.s:1364   .data.SmoothWindow:00000000 SmoothWindow
C:\Users\8bit\AppData\Local\Temp\ccSaKvoD.s:1350   .data.Butterworth:00000000 Butterworth
C:\Users\8bit\AppData\Local\Temp\ccSaKvoD.s:1347   .data.Butterworth:00000000 $d
C:\Users\8bit\AppData\Local\Temp\ccSaKvoD.s:1354   .data.RCFilter:00000000 $d
C:\Users\8bit\AppData\Local\Temp\ccSaKvoD.s:1361   .data.SmoothWindow:00000000 $d

UNDEFINED SYMBOLS
__aeabi_f2d
__aeabi_dmul
__aeabi_d2f
List_ItemInit
SrvOsCommon
List_traverse
