ARM GAS  C:\Users\8bit\AppData\Local\Temp\ccCVhsKJ.s 			page 1


   1              		.cpu cortex-m4
   2              		.arch armv7e-m
   3              		.fpu fpv4-sp-d16
   4              		.eabi_attribute 27, 1
   5              		.eabi_attribute 28, 1
   6              		.eabi_attribute 20, 1
   7              		.eabi_attribute 21, 1
   8              		.eabi_attribute 23, 3
   9              		.eabi_attribute 24, 1
  10              		.eabi_attribute 25, 1
  11              		.eabi_attribute 26, 1
  12              		.eabi_attribute 30, 1
  13              		.eabi_attribute 34, 1
  14              		.eabi_attribute 18, 4
  15              		.file	"filter.c"
  16              		.text
  17              	.Ltext0:
  18              		.cfi_sections	.debug_frame
  19              		.section	.text.Filter_Item_Update,"ax",%progbits
  20              		.align	1
  21              		.syntax unified
  22              		.thumb
  23              		.thumb_func
  25              	Filter_Item_Update:
  26              	.LVL0:
  27              	.LFB9:
  28              		.file 1 "Algorithm/Filter_Dep/filter.c"
   1:Algorithm/Filter_Dep/filter.c **** /*
   2:Algorithm/Filter_Dep/filter.c ****  * we use tcm section to increase the speed on filter algorithm function execution
   3:Algorithm/Filter_Dep/filter.c ****  */
   4:Algorithm/Filter_Dep/filter.c **** 
   5:Algorithm/Filter_Dep/filter.c **** #include "filter.h"
   6:Algorithm/Filter_Dep/filter.c **** 
   7:Algorithm/Filter_Dep/filter.c **** /* internal function */
   8:Algorithm/Filter_Dep/filter.c **** static void Filter_Item_Update(item_obj **header, item_obj **ender, float cur_data);
   9:Algorithm/Filter_Dep/filter.c **** static bool Filter_List_Create(uint8_t order, item_obj *item, list_obj **header, item_obj **ender);
  10:Algorithm/Filter_Dep/filter.c **** 
  11:Algorithm/Filter_Dep/filter.c **** /* external function */
  12:Algorithm/Filter_Dep/filter.c **** /* butterworth filter section */
  13:Algorithm/Filter_Dep/filter.c **** static BWF_Object_Handle Butterworth_Init(const FilterParam_Obj_TypeDef *param_obj);
  14:Algorithm/Filter_Dep/filter.c **** static float Butterworth_Filter_Update(BWF_Object_Handle obj, float cur_e);
  15:Algorithm/Filter_Dep/filter.c **** /* smooth window filter section */
  16:Algorithm/Filter_Dep/filter.c **** static SW_Object_Handle SmoothWindow_Init(uint8_t window_size);
  17:Algorithm/Filter_Dep/filter.c **** static float SmoothWindow_Update(SW_Object_Handle hdl, float cur_e);
  18:Algorithm/Filter_Dep/filter.c **** 
  19:Algorithm/Filter_Dep/filter.c **** Butterworth_Filter_TypeDef Butterworth = {
  20:Algorithm/Filter_Dep/filter.c ****     .init = Butterworth_Init,
  21:Algorithm/Filter_Dep/filter.c ****     .update = Butterworth_Filter_Update,
  22:Algorithm/Filter_Dep/filter.c **** };
  23:Algorithm/Filter_Dep/filter.c **** 
  24:Algorithm/Filter_Dep/filter.c **** SmoothWindow_Filter_TypeDef SmoothWindow = {
  25:Algorithm/Filter_Dep/filter.c ****     .init = SmoothWindow_Init,
  26:Algorithm/Filter_Dep/filter.c ****     .update = SmoothWindow_Update,
  27:Algorithm/Filter_Dep/filter.c **** };
  28:Algorithm/Filter_Dep/filter.c **** 
  29:Algorithm/Filter_Dep/filter.c **** /********************************************************** general filter section ****************
  30:Algorithm/Filter_Dep/filter.c **** static bool Filter_List_Create(uint8_t order, item_obj *item, list_obj **header, item_obj **ender)
ARM GAS  C:\Users\8bit\AppData\Local\Temp\ccCVhsKJ.s 			page 2


  31:Algorithm/Filter_Dep/filter.c **** {
  32:Algorithm/Filter_Dep/filter.c ****     for (uint8_t i = 0; i < order; i++)
  33:Algorithm/Filter_Dep/filter.c ****     {
  34:Algorithm/Filter_Dep/filter.c ****         float *u_temp = (float *)FILTER_MALLOC(sizeof(float));
  35:Algorithm/Filter_Dep/filter.c **** 
  36:Algorithm/Filter_Dep/filter.c ****         if (u_temp == NULL)
  37:Algorithm/Filter_Dep/filter.c ****         {
  38:Algorithm/Filter_Dep/filter.c ****             FILTER_FREE(u_temp);
  39:Algorithm/Filter_Dep/filter.c ****             return false;
  40:Algorithm/Filter_Dep/filter.c ****         }
  41:Algorithm/Filter_Dep/filter.c ****         else
  42:Algorithm/Filter_Dep/filter.c ****         {
  43:Algorithm/Filter_Dep/filter.c ****             List_ItemInit(&item[i], u_temp);
  44:Algorithm/Filter_Dep/filter.c ****             *u_temp = 0.0f;
  45:Algorithm/Filter_Dep/filter.c ****         }
  46:Algorithm/Filter_Dep/filter.c **** 
  47:Algorithm/Filter_Dep/filter.c ****         /* link element */
  48:Algorithm/Filter_Dep/filter.c ****         if (i > 0)
  49:Algorithm/Filter_Dep/filter.c ****         {
  50:Algorithm/Filter_Dep/filter.c ****             item[i - 1].nxt = &item[i];
  51:Algorithm/Filter_Dep/filter.c ****             item[i].prv = &item[i - 1];
  52:Algorithm/Filter_Dep/filter.c ****         }
  53:Algorithm/Filter_Dep/filter.c ****         else
  54:Algorithm/Filter_Dep/filter.c ****             *header = &item[0];
  55:Algorithm/Filter_Dep/filter.c ****     }
  56:Algorithm/Filter_Dep/filter.c **** 
  57:Algorithm/Filter_Dep/filter.c ****     *ender = &item[order - 1];
  58:Algorithm/Filter_Dep/filter.c **** 
  59:Algorithm/Filter_Dep/filter.c ****     return true;
  60:Algorithm/Filter_Dep/filter.c **** }
  61:Algorithm/Filter_Dep/filter.c **** 
  62:Algorithm/Filter_Dep/filter.c **** static void Filter_Item_Update(item_obj **header, item_obj **ender, float cur_data)
  63:Algorithm/Filter_Dep/filter.c **** {
  29              		.loc 1 63 1 view -0
  30              		.cfi_startproc
  31              		@ args = 0, pretend = 0, frame = 0
  32              		@ frame_needed = 0, uses_anonymous_args = 0
  33              		@ link register save eliminated.
  34              		.loc 1 63 1 is_stmt 0 view .LVU1
  35 0000 10B4     		push	{r4}
  36              	.LCFI0:
  37              		.cfi_def_cfa_offset 4
  38              		.cfi_offset 4, -4
  64:Algorithm/Filter_Dep/filter.c ****     item_obj *i_tmp = NULL;
  39              		.loc 1 64 5 is_stmt 1 view .LVU2
  40              	.LVL1:
  65:Algorithm/Filter_Dep/filter.c **** 
  66:Algorithm/Filter_Dep/filter.c ****     *((float *)((*ender)->data)) = cur_data;
  41              		.loc 1 66 5 view .LVU3
  42              		.loc 1 66 18 is_stmt 0 view .LVU4
  43 0002 0B68     		ldr	r3, [r1]
  44              		.loc 1 66 25 view .LVU5
  45 0004 1B69     		ldr	r3, [r3, #16]
  46              		.loc 1 66 34 view .LVU6
  47 0006 83ED000A 		vstr.32	s0, [r3]
  67:Algorithm/Filter_Dep/filter.c ****     (*ender)->prv->nxt = NULL;
  48              		.loc 1 67 5 is_stmt 1 view .LVU7
ARM GAS  C:\Users\8bit\AppData\Local\Temp\ccCVhsKJ.s 			page 3


  49              		.loc 1 67 6 is_stmt 0 view .LVU8
  50 000a 0B68     		ldr	r3, [r1]
  51              		.loc 1 67 13 view .LVU9
  52 000c 9B68     		ldr	r3, [r3, #8]
  53              		.loc 1 67 24 view .LVU10
  54 000e 0022     		movs	r2, #0
  55 0010 DA60     		str	r2, [r3, #12]
  68:Algorithm/Filter_Dep/filter.c ****     i_tmp = (*ender)->prv;
  56              		.loc 1 68 5 is_stmt 1 view .LVU11
  57              		.loc 1 68 14 is_stmt 0 view .LVU12
  58 0012 0B68     		ldr	r3, [r1]
  59              		.loc 1 68 11 view .LVU13
  60 0014 9C68     		ldr	r4, [r3, #8]
  61              	.LVL2:
  69:Algorithm/Filter_Dep/filter.c ****     (*ender)->prv = NULL;
  62              		.loc 1 69 5 is_stmt 1 view .LVU14
  63              		.loc 1 69 19 is_stmt 0 view .LVU15
  64 0016 9A60     		str	r2, [r3, #8]
  70:Algorithm/Filter_Dep/filter.c ****     (*header)->prv = *ender;
  65              		.loc 1 70 5 is_stmt 1 view .LVU16
  66              		.loc 1 70 6 is_stmt 0 view .LVU17
  67 0018 0268     		ldr	r2, [r0]
  68              		.loc 1 70 22 view .LVU18
  69 001a 0B68     		ldr	r3, [r1]
  70              		.loc 1 70 20 view .LVU19
  71 001c 9360     		str	r3, [r2, #8]
  71:Algorithm/Filter_Dep/filter.c ****     (*ender)->nxt = *header;
  72              		.loc 1 71 5 is_stmt 1 view .LVU20
  73              		.loc 1 71 21 is_stmt 0 view .LVU21
  74 001e 0268     		ldr	r2, [r0]
  75              		.loc 1 71 19 view .LVU22
  76 0020 DA60     		str	r2, [r3, #12]
  72:Algorithm/Filter_Dep/filter.c ****     *header = *ender;
  77              		.loc 1 72 5 is_stmt 1 view .LVU23
  78              		.loc 1 72 15 is_stmt 0 view .LVU24
  79 0022 0B68     		ldr	r3, [r1]
  80              		.loc 1 72 13 view .LVU25
  81 0024 0360     		str	r3, [r0]
  73:Algorithm/Filter_Dep/filter.c ****     *ender = i_tmp;
  82              		.loc 1 73 5 is_stmt 1 view .LVU26
  83              		.loc 1 73 12 is_stmt 0 view .LVU27
  84 0026 0C60     		str	r4, [r1]
  74:Algorithm/Filter_Dep/filter.c **** }
  85              		.loc 1 74 1 view .LVU28
  86 0028 5DF8044B 		ldr	r4, [sp], #4
  87              	.LCFI1:
  88              		.cfi_restore 4
  89              		.cfi_def_cfa_offset 0
  90              	.LVL3:
  91              		.loc 1 74 1 view .LVU29
  92 002c 7047     		bx	lr
  93              		.cfi_endproc
  94              	.LFE9:
  96              		.section	.text.Butterworth_Filter_Update,"ax",%progbits
  97              		.align	1
  98              		.syntax unified
  99              		.thumb
ARM GAS  C:\Users\8bit\AppData\Local\Temp\ccCVhsKJ.s 			page 4


 100              		.thumb_func
 102              	Butterworth_Filter_Update:
 103              	.LVL4:
 104              	.LFB11:
  75:Algorithm/Filter_Dep/filter.c **** 
  76:Algorithm/Filter_Dep/filter.c **** /********************************************************** butterworth filter section ************
  77:Algorithm/Filter_Dep/filter.c **** static BWF_Object_Handle Butterworth_Init(const FilterParam_Obj_TypeDef *param_obj)
  78:Algorithm/Filter_Dep/filter.c **** {
  79:Algorithm/Filter_Dep/filter.c ****     Filter_ButterworthParam_TypeDef *BWF_Obj = NULL;
  80:Algorithm/Filter_Dep/filter.c ****     uint8_t e_cnt = 0;
  81:Algorithm/Filter_Dep/filter.c ****     uint8_t u_cnt = 0;
  82:Algorithm/Filter_Dep/filter.c **** 
  83:Algorithm/Filter_Dep/filter.c ****     if(param_obj == NULL)
  84:Algorithm/Filter_Dep/filter.c ****         return 0;
  85:Algorithm/Filter_Dep/filter.c **** 
  86:Algorithm/Filter_Dep/filter.c ****     if (param_obj->order > 1)
  87:Algorithm/Filter_Dep/filter.c ****     {
  88:Algorithm/Filter_Dep/filter.c ****         e_cnt = param_obj->order + 1;
  89:Algorithm/Filter_Dep/filter.c ****         u_cnt = param_obj->order;
  90:Algorithm/Filter_Dep/filter.c ****         
  91:Algorithm/Filter_Dep/filter.c ****         if ((param_obj->ep_list == NULL) || (param_obj->up_list == NULL))
  92:Algorithm/Filter_Dep/filter.c ****             return 0;
  93:Algorithm/Filter_Dep/filter.c **** 
  94:Algorithm/Filter_Dep/filter.c ****         BWF_Obj = FILTER_MALLOC(sizeof(Filter_ButterworthParam_TypeDef));
  95:Algorithm/Filter_Dep/filter.c **** 
  96:Algorithm/Filter_Dep/filter.c ****         if (BWF_Obj == NULL)
  97:Algorithm/Filter_Dep/filter.c ****         {
  98:Algorithm/Filter_Dep/filter.c ****             FILTER_FREE(BWF_Obj);
  99:Algorithm/Filter_Dep/filter.c ****             return 0;
 100:Algorithm/Filter_Dep/filter.c ****         }
 101:Algorithm/Filter_Dep/filter.c **** 
 102:Algorithm/Filter_Dep/filter.c ****         BWF_Obj->p_e_data_cache = FILTER_MALLOC(sizeof(item_obj) * e_cnt);
 103:Algorithm/Filter_Dep/filter.c ****         if (BWF_Obj->p_e_data_cache == NULL)
 104:Algorithm/Filter_Dep/filter.c ****         {
 105:Algorithm/Filter_Dep/filter.c ****             FILTER_FREE(BWF_Obj->p_e_data_cache);
 106:Algorithm/Filter_Dep/filter.c ****             FILTER_FREE(BWF_Obj);
 107:Algorithm/Filter_Dep/filter.c ****             return 0;
 108:Algorithm/Filter_Dep/filter.c ****         }
 109:Algorithm/Filter_Dep/filter.c ****         else
 110:Algorithm/Filter_Dep/filter.c ****         {
 111:Algorithm/Filter_Dep/filter.c ****             if (!Filter_List_Create(e_cnt, BWF_Obj->p_e_data_cache, &(BWF_Obj->p_e_list_header), &(
 112:Algorithm/Filter_Dep/filter.c ****             {
 113:Algorithm/Filter_Dep/filter.c ****                 FILTER_FREE(BWF_Obj->p_e_data_cache);
 114:Algorithm/Filter_Dep/filter.c ****                 FILTER_FREE(BWF_Obj);
 115:Algorithm/Filter_Dep/filter.c ****                 return 0;
 116:Algorithm/Filter_Dep/filter.c ****             }
 117:Algorithm/Filter_Dep/filter.c ****         }
 118:Algorithm/Filter_Dep/filter.c **** 
 119:Algorithm/Filter_Dep/filter.c ****         BWF_Obj->p_u_data_cache = FILTER_MALLOC(sizeof(item_obj) * u_cnt);
 120:Algorithm/Filter_Dep/filter.c ****         if (BWF_Obj->p_u_data_cache == NULL)
 121:Algorithm/Filter_Dep/filter.c ****         {
 122:Algorithm/Filter_Dep/filter.c ****             FILTER_FREE(BWF_Obj->p_e_data_cache);
 123:Algorithm/Filter_Dep/filter.c ****             FILTER_FREE(BWF_Obj->p_u_data_cache);
 124:Algorithm/Filter_Dep/filter.c ****             FILTER_FREE(BWF_Obj);
 125:Algorithm/Filter_Dep/filter.c ****             return 0;
 126:Algorithm/Filter_Dep/filter.c ****         }
 127:Algorithm/Filter_Dep/filter.c ****         else
ARM GAS  C:\Users\8bit\AppData\Local\Temp\ccCVhsKJ.s 			page 5


 128:Algorithm/Filter_Dep/filter.c ****         {
 129:Algorithm/Filter_Dep/filter.c ****             if (!Filter_List_Create(u_cnt, BWF_Obj->p_u_data_cache, &(BWF_Obj->p_u_list_header), &(
 130:Algorithm/Filter_Dep/filter.c ****             {
 131:Algorithm/Filter_Dep/filter.c ****                 FILTER_FREE(BWF_Obj->p_e_data_cache);
 132:Algorithm/Filter_Dep/filter.c ****                 FILTER_FREE(BWF_Obj->p_u_data_cache);
 133:Algorithm/Filter_Dep/filter.c ****                 FILTER_FREE(BWF_Obj);
 134:Algorithm/Filter_Dep/filter.c ****                 return 0;
 135:Algorithm/Filter_Dep/filter.c ****             }
 136:Algorithm/Filter_Dep/filter.c ****         }
 137:Algorithm/Filter_Dep/filter.c **** 
 138:Algorithm/Filter_Dep/filter.c ****         BWF_Obj->e_para_buf = FILTER_MALLOC(sizeof(float) * e_cnt);
 139:Algorithm/Filter_Dep/filter.c ****         if(BWF_Obj->e_para_buf == NULL)
 140:Algorithm/Filter_Dep/filter.c ****         {
 141:Algorithm/Filter_Dep/filter.c ****             FILTER_FREE(BWF_Obj->e_para_buf);
 142:Algorithm/Filter_Dep/filter.c ****             FILTER_FREE(BWF_Obj->p_e_data_cache);
 143:Algorithm/Filter_Dep/filter.c ****             FILTER_FREE(BWF_Obj->p_u_data_cache);
 144:Algorithm/Filter_Dep/filter.c ****             FILTER_FREE(BWF_Obj);
 145:Algorithm/Filter_Dep/filter.c ****             return 0;
 146:Algorithm/Filter_Dep/filter.c ****         }
 147:Algorithm/Filter_Dep/filter.c **** 
 148:Algorithm/Filter_Dep/filter.c ****         BWF_Obj->u_para_buf = FILTER_MALLOC(sizeof(float) * u_cnt);
 149:Algorithm/Filter_Dep/filter.c ****         if(BWF_Obj->u_para_buf == NULL)
 150:Algorithm/Filter_Dep/filter.c ****         {
 151:Algorithm/Filter_Dep/filter.c ****             FILTER_FREE(BWF_Obj->e_para_buf);
 152:Algorithm/Filter_Dep/filter.c ****             FILTER_FREE(BWF_Obj->u_para_buf);
 153:Algorithm/Filter_Dep/filter.c ****             FILTER_FREE(BWF_Obj->p_e_data_cache);
 154:Algorithm/Filter_Dep/filter.c ****             FILTER_FREE(BWF_Obj->p_u_data_cache);
 155:Algorithm/Filter_Dep/filter.c ****             FILTER_FREE(BWF_Obj);
 156:Algorithm/Filter_Dep/filter.c ****             return 0;
 157:Algorithm/Filter_Dep/filter.c ****         }
 158:Algorithm/Filter_Dep/filter.c **** 
 159:Algorithm/Filter_Dep/filter.c ****         BWF_Obj->order = param_obj->order;
 160:Algorithm/Filter_Dep/filter.c **** 
 161:Algorithm/Filter_Dep/filter.c ****         for(uint8_t i = 0; i < e_cnt; i++)
 162:Algorithm/Filter_Dep/filter.c ****         {
 163:Algorithm/Filter_Dep/filter.c ****             BWF_Obj->e_para_buf[i] = param_obj->ep_list[i].p * param_obj->ep_list[i].scale;
 164:Algorithm/Filter_Dep/filter.c ****         
 165:Algorithm/Filter_Dep/filter.c ****             if(i < u_cnt)
 166:Algorithm/Filter_Dep/filter.c ****             {
 167:Algorithm/Filter_Dep/filter.c ****                 BWF_Obj->u_para_buf[i] = param_obj->up_list[i].p * param_obj->up_list[i].scale;
 168:Algorithm/Filter_Dep/filter.c ****             }
 169:Algorithm/Filter_Dep/filter.c ****         }
 170:Algorithm/Filter_Dep/filter.c ****     }
 171:Algorithm/Filter_Dep/filter.c **** 
 172:Algorithm/Filter_Dep/filter.c ****     return (uint32_t)BWF_Obj;
 173:Algorithm/Filter_Dep/filter.c **** }
 174:Algorithm/Filter_Dep/filter.c **** 
 175:Algorithm/Filter_Dep/filter.c **** static float Butterworth_Filter_Update(BWF_Object_Handle obj, float cur_e)
 176:Algorithm/Filter_Dep/filter.c **** {
 105              		.loc 1 176 1 is_stmt 1 view -0
 106              		.cfi_startproc
 107              		@ args = 0, pretend = 0, frame = 0
 108              		@ frame_needed = 0, uses_anonymous_args = 0
 109              		.loc 1 176 1 is_stmt 0 view .LVU31
 110 0000 38B5     		push	{r3, r4, r5, lr}
 111              	.LCFI2:
 112              		.cfi_def_cfa_offset 16
ARM GAS  C:\Users\8bit\AppData\Local\Temp\ccCVhsKJ.s 			page 6


 113              		.cfi_offset 3, -16
 114              		.cfi_offset 4, -12
 115              		.cfi_offset 5, -8
 116              		.cfi_offset 14, -4
 117 0002 2DED028B 		vpush.64	{d8}
 118              	.LCFI3:
 119              		.cfi_def_cfa_offset 24
 120              		.cfi_offset 80, -24
 121              		.cfi_offset 81, -20
 177:Algorithm/Filter_Dep/filter.c ****     Filter_ButterworthParam_TypeDef *filter_obj = NULL;
 122              		.loc 1 177 5 is_stmt 1 view .LVU32
 123              	.LVL5:
 178:Algorithm/Filter_Dep/filter.c ****     item_obj *u_item = NULL;
 124              		.loc 1 178 5 view .LVU33
 179:Algorithm/Filter_Dep/filter.c ****     item_obj *e_item = NULL;
 125              		.loc 1 179 5 view .LVU34
 180:Algorithm/Filter_Dep/filter.c **** 
 181:Algorithm/Filter_Dep/filter.c ****     float u_tmp = 0.0f;
 126              		.loc 1 181 5 view .LVU35
 182:Algorithm/Filter_Dep/filter.c ****     float E_Additive = 0.0f;
 127              		.loc 1 182 5 view .LVU36
 183:Algorithm/Filter_Dep/filter.c ****     float U_Additive = 0.0f;
 128              		.loc 1 183 5 view .LVU37
 184:Algorithm/Filter_Dep/filter.c **** 
 185:Algorithm/Filter_Dep/filter.c ****     if (obj)
 129              		.loc 1 185 5 view .LVU38
 130              		.loc 1 185 8 is_stmt 0 view .LVU39
 131 0006 30B9     		cbnz	r0, .L11
 181:Algorithm/Filter_Dep/filter.c ****     float E_Additive = 0.0f;
 132              		.loc 1 181 11 view .LVU40
 133 0008 9FED228A 		vldr.32	s16, .L13
 186:Algorithm/Filter_Dep/filter.c ****     {
 187:Algorithm/Filter_Dep/filter.c ****         filter_obj = (Filter_ButterworthParam_TypeDef *)obj;
 188:Algorithm/Filter_Dep/filter.c ****         Filter_Item_Update(&(filter_obj->p_e_list_header), &(filter_obj->p_e_list_ender), cur_e);
 189:Algorithm/Filter_Dep/filter.c **** 
 190:Algorithm/Filter_Dep/filter.c ****         u_item = filter_obj->p_u_list_header;
 191:Algorithm/Filter_Dep/filter.c ****         e_item = filter_obj->p_e_list_header;
 192:Algorithm/Filter_Dep/filter.c **** 
 193:Algorithm/Filter_Dep/filter.c ****         for (uint8_t i = 0; i <= filter_obj->order; i++)
 194:Algorithm/Filter_Dep/filter.c ****         {
 195:Algorithm/Filter_Dep/filter.c ****             /* comput E additive */
 196:Algorithm/Filter_Dep/filter.c ****             if (e_item)
 197:Algorithm/Filter_Dep/filter.c ****             {
 198:Algorithm/Filter_Dep/filter.c ****                 E_Additive += filter_obj->e_para_buf[i] * (*(float *)(e_item->data));
 199:Algorithm/Filter_Dep/filter.c ****                 e_item = e_item->nxt;
 200:Algorithm/Filter_Dep/filter.c ****             }
 201:Algorithm/Filter_Dep/filter.c **** 
 202:Algorithm/Filter_Dep/filter.c ****             /* comput U additive */
 203:Algorithm/Filter_Dep/filter.c ****             if (i < filter_obj->order && u_item)
 204:Algorithm/Filter_Dep/filter.c ****             {
 205:Algorithm/Filter_Dep/filter.c ****                 U_Additive += filter_obj->u_para_buf[i] * (*(float *)(u_item->data));
 206:Algorithm/Filter_Dep/filter.c ****                 u_item = u_item->nxt;
 207:Algorithm/Filter_Dep/filter.c ****             }
 208:Algorithm/Filter_Dep/filter.c ****         }
 209:Algorithm/Filter_Dep/filter.c **** 
 210:Algorithm/Filter_Dep/filter.c ****         u_tmp = E_Additive - U_Additive;
 211:Algorithm/Filter_Dep/filter.c ****         /* update last time filted data */
ARM GAS  C:\Users\8bit\AppData\Local\Temp\ccCVhsKJ.s 			page 7


 212:Algorithm/Filter_Dep/filter.c ****         Filter_Item_Update(&(filter_obj->p_u_list_header), &(filter_obj->p_u_list_ender), u_tmp);
 213:Algorithm/Filter_Dep/filter.c ****     }
 214:Algorithm/Filter_Dep/filter.c **** 
 215:Algorithm/Filter_Dep/filter.c ****     return u_tmp;
 134              		.loc 1 215 5 is_stmt 1 view .LVU41
 135              	.LVL6:
 136              	.L3:
 216:Algorithm/Filter_Dep/filter.c **** }
 137              		.loc 1 216 1 is_stmt 0 view .LVU42
 138 000c B0EE480A 		vmov.f32	s0, s16
 139 0010 BDEC028B 		vldm	sp!, {d8}
 140              	.LCFI4:
 141              		.cfi_remember_state
 142              		.cfi_restore 80
 143              		.cfi_restore 81
 144              		.cfi_def_cfa_offset 16
 145 0014 38BD     		pop	{r3, r4, r5, pc}
 146              	.LVL7:
 147              	.L11:
 148              	.LCFI5:
 149              		.cfi_restore_state
 150              		.loc 1 216 1 view .LVU43
 151 0016 0446     		mov	r4, r0
 187:Algorithm/Filter_Dep/filter.c ****         Filter_Item_Update(&(filter_obj->p_e_list_header), &(filter_obj->p_e_list_ender), cur_e);
 152              		.loc 1 187 9 is_stmt 1 view .LVU44
 153              	.LVL8:
 188:Algorithm/Filter_Dep/filter.c **** 
 154              		.loc 1 188 9 view .LVU45
 155 0018 00F11001 		add	r1, r0, #16
 156 001c 0C30     		adds	r0, r0, #12
 157              	.LVL9:
 188:Algorithm/Filter_Dep/filter.c **** 
 158              		.loc 1 188 9 is_stmt 0 view .LVU46
 159 001e FFF7FEFF 		bl	Filter_Item_Update
 160              	.LVL10:
 190:Algorithm/Filter_Dep/filter.c ****         e_item = filter_obj->p_e_list_header;
 161              		.loc 1 190 9 is_stmt 1 view .LVU47
 190:Algorithm/Filter_Dep/filter.c ****         e_item = filter_obj->p_e_list_header;
 162              		.loc 1 190 16 is_stmt 0 view .LVU48
 163 0022 6569     		ldr	r5, [r4, #20]
 164              	.LVL11:
 191:Algorithm/Filter_Dep/filter.c **** 
 165              		.loc 1 191 9 is_stmt 1 view .LVU49
 191:Algorithm/Filter_Dep/filter.c **** 
 166              		.loc 1 191 16 is_stmt 0 view .LVU50
 167 0024 E168     		ldr	r1, [r4, #12]
 168              	.LVL12:
 193:Algorithm/Filter_Dep/filter.c ****         {
 169              		.loc 1 193 9 is_stmt 1 view .LVU51
 170              	.LBB2:
 193:Algorithm/Filter_Dep/filter.c ****         {
 171              		.loc 1 193 14 view .LVU52
 193:Algorithm/Filter_Dep/filter.c ****         {
 172              		.loc 1 193 22 is_stmt 0 view .LVU53
 173 0026 0023     		movs	r3, #0
 174              	.LBE2:
 183:Algorithm/Filter_Dep/filter.c **** 
ARM GAS  C:\Users\8bit\AppData\Local\Temp\ccCVhsKJ.s 			page 8


 175              		.loc 1 183 11 view .LVU54
 176 0028 9FED1A8A 		vldr.32	s16, .L13
 182:Algorithm/Filter_Dep/filter.c ****     float U_Additive = 0.0f;
 177              		.loc 1 182 11 view .LVU55
 178 002c B0EE487A 		vmov.f32	s14, s16
 179              	.LBB3:
 193:Algorithm/Filter_Dep/filter.c ****         {
 180              		.loc 1 193 9 view .LVU56
 181 0030 01E0     		b	.L5
 182              	.LVL13:
 183              	.L7:
 193:Algorithm/Filter_Dep/filter.c ****         {
 184              		.loc 1 193 53 is_stmt 1 discriminator 2 view .LVU57
 193:Algorithm/Filter_Dep/filter.c ****         {
 185              		.loc 1 193 54 is_stmt 0 discriminator 2 view .LVU58
 186 0032 0133     		adds	r3, r3, #1
 187              	.LVL14:
 193:Algorithm/Filter_Dep/filter.c ****         {
 188              		.loc 1 193 54 discriminator 2 view .LVU59
 189 0034 DBB2     		uxtb	r3, r3
 190              	.LVL15:
 191              	.L5:
 193:Algorithm/Filter_Dep/filter.c ****         {
 192              		.loc 1 193 29 is_stmt 1 discriminator 1 view .LVU60
 193:Algorithm/Filter_Dep/filter.c ****         {
 193              		.loc 1 193 44 is_stmt 0 discriminator 1 view .LVU61
 194 0036 2278     		ldrb	r2, [r4]	@ zero_extendqisi2
 193:Algorithm/Filter_Dep/filter.c ****         {
 195              		.loc 1 193 9 discriminator 1 view .LVU62
 196 0038 9A42     		cmp	r2, r3
 197 003a 1FD3     		bcc	.L12
 196:Algorithm/Filter_Dep/filter.c ****             {
 198              		.loc 1 196 13 is_stmt 1 view .LVU63
 196:Algorithm/Filter_Dep/filter.c ****             {
 199              		.loc 1 196 16 is_stmt 0 view .LVU64
 200 003c 61B1     		cbz	r1, .L6
 198:Algorithm/Filter_Dep/filter.c ****                 e_item = e_item->nxt;
 201              		.loc 1 198 17 is_stmt 1 view .LVU65
 198:Algorithm/Filter_Dep/filter.c ****                 e_item = e_item->nxt;
 202              		.loc 1 198 41 is_stmt 0 view .LVU66
 203 003e 6068     		ldr	r0, [r4, #4]
 198:Algorithm/Filter_Dep/filter.c ****                 e_item = e_item->nxt;
 204              		.loc 1 198 53 view .LVU67
 205 0040 00EB8300 		add	r0, r0, r3, lsl #2
 206 0044 D0ED007A 		vldr.32	s15, [r0]
 198:Algorithm/Filter_Dep/filter.c ****                 e_item = e_item->nxt;
 207              		.loc 1 198 77 view .LVU68
 208 0048 0869     		ldr	r0, [r1, #16]
 198:Algorithm/Filter_Dep/filter.c ****                 e_item = e_item->nxt;
 209              		.loc 1 198 60 view .LVU69
 210 004a D0ED006A 		vldr.32	s13, [r0]
 198:Algorithm/Filter_Dep/filter.c ****                 e_item = e_item->nxt;
 211              		.loc 1 198 57 view .LVU70
 212 004e 67EEA67A 		vmul.f32	s15, s15, s13
 198:Algorithm/Filter_Dep/filter.c ****                 e_item = e_item->nxt;
 213              		.loc 1 198 28 view .LVU71
 214 0052 37EE277A 		vadd.f32	s14, s14, s15
ARM GAS  C:\Users\8bit\AppData\Local\Temp\ccCVhsKJ.s 			page 9


 215              	.LVL16:
 199:Algorithm/Filter_Dep/filter.c ****             }
 216              		.loc 1 199 17 is_stmt 1 view .LVU72
 199:Algorithm/Filter_Dep/filter.c ****             }
 217              		.loc 1 199 24 is_stmt 0 view .LVU73
 218 0056 C968     		ldr	r1, [r1, #12]
 219              	.LVL17:
 220              	.L6:
 203:Algorithm/Filter_Dep/filter.c ****             {
 221              		.loc 1 203 13 is_stmt 1 view .LVU74
 203:Algorithm/Filter_Dep/filter.c ****             {
 222              		.loc 1 203 16 is_stmt 0 view .LVU75
 223 0058 9A42     		cmp	r2, r3
 224 005a EAD9     		bls	.L7
 203:Algorithm/Filter_Dep/filter.c ****             {
 225              		.loc 1 203 39 discriminator 1 view .LVU76
 226 005c 002D     		cmp	r5, #0
 227 005e E8D0     		beq	.L7
 205:Algorithm/Filter_Dep/filter.c ****                 u_item = u_item->nxt;
 228              		.loc 1 205 17 is_stmt 1 view .LVU77
 205:Algorithm/Filter_Dep/filter.c ****                 u_item = u_item->nxt;
 229              		.loc 1 205 41 is_stmt 0 view .LVU78
 230 0060 A268     		ldr	r2, [r4, #8]
 205:Algorithm/Filter_Dep/filter.c ****                 u_item = u_item->nxt;
 231              		.loc 1 205 53 view .LVU79
 232 0062 02EB8302 		add	r2, r2, r3, lsl #2
 233 0066 D2ED007A 		vldr.32	s15, [r2]
 205:Algorithm/Filter_Dep/filter.c ****                 u_item = u_item->nxt;
 234              		.loc 1 205 77 view .LVU80
 235 006a 2A69     		ldr	r2, [r5, #16]
 205:Algorithm/Filter_Dep/filter.c ****                 u_item = u_item->nxt;
 236              		.loc 1 205 60 view .LVU81
 237 006c D2ED006A 		vldr.32	s13, [r2]
 205:Algorithm/Filter_Dep/filter.c ****                 u_item = u_item->nxt;
 238              		.loc 1 205 57 view .LVU82
 239 0070 67EEA67A 		vmul.f32	s15, s15, s13
 205:Algorithm/Filter_Dep/filter.c ****                 u_item = u_item->nxt;
 240              		.loc 1 205 28 view .LVU83
 241 0074 38EE278A 		vadd.f32	s16, s16, s15
 242              	.LVL18:
 206:Algorithm/Filter_Dep/filter.c ****             }
 243              		.loc 1 206 17 is_stmt 1 view .LVU84
 206:Algorithm/Filter_Dep/filter.c ****             }
 244              		.loc 1 206 24 is_stmt 0 view .LVU85
 245 0078 ED68     		ldr	r5, [r5, #12]
 246              	.LVL19:
 206:Algorithm/Filter_Dep/filter.c ****             }
 247              		.loc 1 206 24 view .LVU86
 248 007a DAE7     		b	.L7
 249              	.L12:
 206:Algorithm/Filter_Dep/filter.c ****             }
 250              		.loc 1 206 24 view .LVU87
 251              	.LBE3:
 210:Algorithm/Filter_Dep/filter.c ****         /* update last time filted data */
 252              		.loc 1 210 9 is_stmt 1 view .LVU88
 210:Algorithm/Filter_Dep/filter.c ****         /* update last time filted data */
 253              		.loc 1 210 15 is_stmt 0 view .LVU89
ARM GAS  C:\Users\8bit\AppData\Local\Temp\ccCVhsKJ.s 			page 10


 254 007c 37EE488A 		vsub.f32	s16, s14, s16
 255              	.LVL20:
 212:Algorithm/Filter_Dep/filter.c ****     }
 256              		.loc 1 212 9 is_stmt 1 view .LVU90
 257 0080 B0EE480A 		vmov.f32	s0, s16
 258 0084 04F11801 		add	r1, r4, #24
 259              	.LVL21:
 212:Algorithm/Filter_Dep/filter.c ****     }
 260              		.loc 1 212 9 is_stmt 0 view .LVU91
 261 0088 04F11400 		add	r0, r4, #20
 262 008c FFF7FEFF 		bl	Filter_Item_Update
 263              	.LVL22:
 212:Algorithm/Filter_Dep/filter.c ****     }
 264              		.loc 1 212 9 view .LVU92
 265 0090 BCE7     		b	.L3
 266              	.L14:
 267 0092 00BF     		.align	2
 268              	.L13:
 269 0094 00000000 		.word	0
 270              		.cfi_endproc
 271              	.LFE11:
 273              		.section	.text.SmoothWindow_Comput_Sum,"ax",%progbits
 274              		.align	1
 275              		.syntax unified
 276              		.thumb
 277              		.thumb_func
 279              	SmoothWindow_Comput_Sum:
 280              	.LVL23:
 281              	.LFB13:
 217:Algorithm/Filter_Dep/filter.c **** 
 218:Algorithm/Filter_Dep/filter.c **** /********************************************************** smooth window filter section **********
 219:Algorithm/Filter_Dep/filter.c **** static SW_Object_Handle SmoothWindow_Init(uint8_t window_size)
 220:Algorithm/Filter_Dep/filter.c **** {
 221:Algorithm/Filter_Dep/filter.c ****     SW_Object_Handle hdl = 0;
 222:Algorithm/Filter_Dep/filter.c ****     SmoothWindow_Param_TypeDef *param = NULL;
 223:Algorithm/Filter_Dep/filter.c **** 
 224:Algorithm/Filter_Dep/filter.c ****     if(window_size <= MAX_SMOOTH_WINDOW_SIZE)
 225:Algorithm/Filter_Dep/filter.c ****     {
 226:Algorithm/Filter_Dep/filter.c ****         param = FILTER_MALLOC(sizeof(SmoothWindow_Param_TypeDef));
 227:Algorithm/Filter_Dep/filter.c **** 
 228:Algorithm/Filter_Dep/filter.c ****         if(param == NULL)
 229:Algorithm/Filter_Dep/filter.c ****             return 0;
 230:Algorithm/Filter_Dep/filter.c **** 
 231:Algorithm/Filter_Dep/filter.c ****         param->smooth_period = 0;
 232:Algorithm/Filter_Dep/filter.c ****         param->window_size = window_size;
 233:Algorithm/Filter_Dep/filter.c ****         param->window_cache = FILTER_MALLOC(sizeof(item_obj) * window_size);
 234:Algorithm/Filter_Dep/filter.c **** 
 235:Algorithm/Filter_Dep/filter.c ****         if(param->window_cache == NULL)
 236:Algorithm/Filter_Dep/filter.c ****         {
 237:Algorithm/Filter_Dep/filter.c ****             FILTER_FREE(param->window_cache);
 238:Algorithm/Filter_Dep/filter.c ****             FILTER_FREE(param);
 239:Algorithm/Filter_Dep/filter.c ****             return 0;
 240:Algorithm/Filter_Dep/filter.c ****         }
 241:Algorithm/Filter_Dep/filter.c **** 
 242:Algorithm/Filter_Dep/filter.c ****         if(!Filter_List_Create(window_size, param->window_cache, &(param->window_header), &(param->
 243:Algorithm/Filter_Dep/filter.c ****             return 0;
 244:Algorithm/Filter_Dep/filter.c **** 
ARM GAS  C:\Users\8bit\AppData\Local\Temp\ccCVhsKJ.s 			page 11


 245:Algorithm/Filter_Dep/filter.c ****         hdl = (uint32_t)param;
 246:Algorithm/Filter_Dep/filter.c ****     }
 247:Algorithm/Filter_Dep/filter.c **** 
 248:Algorithm/Filter_Dep/filter.c ****     return hdl;
 249:Algorithm/Filter_Dep/filter.c **** }
 250:Algorithm/Filter_Dep/filter.c **** 
 251:Algorithm/Filter_Dep/filter.c **** static int SmoothWindow_Comput_Sum(item_obj *item, void *item_data, void *sum)
 252:Algorithm/Filter_Dep/filter.c **** {
 282              		.loc 1 252 1 is_stmt 1 view -0
 283              		.cfi_startproc
 284              		@ args = 0, pretend = 0, frame = 0
 285              		@ frame_needed = 0, uses_anonymous_args = 0
 286              		@ link register save eliminated.
 253:Algorithm/Filter_Dep/filter.c ****     if(item && item_data && sum)
 287              		.loc 1 253 5 view .LVU94
 288              		.loc 1 253 7 is_stmt 0 view .LVU95
 289 0000 58B1     		cbz	r0, .L17
 290              		.loc 1 253 13 discriminator 1 view .LVU96
 291 0002 61B1     		cbz	r1, .L18
 292              		.loc 1 253 26 discriminator 2 view .LVU97
 293 0004 6AB1     		cbz	r2, .L19
 254:Algorithm/Filter_Dep/filter.c ****     {
 255:Algorithm/Filter_Dep/filter.c ****         *((float *) sum) += *((float *) item_data);
 294              		.loc 1 255 9 is_stmt 1 view .LVU98
 295              		.loc 1 255 29 is_stmt 0 view .LVU99
 296 0006 91ED007A 		vldr.32	s14, [r1]
 297              		.loc 1 255 26 view .LVU100
 298 000a D2ED007A 		vldr.32	s15, [r2]
 299 000e 77EE877A 		vadd.f32	s15, s15, s14
 300 0012 C2ED007A 		vstr.32	s15, [r2]
 256:Algorithm/Filter_Dep/filter.c **** 
 257:Algorithm/Filter_Dep/filter.c ****         return 1;
 301              		.loc 1 257 9 is_stmt 1 view .LVU101
 302              		.loc 1 257 16 is_stmt 0 view .LVU102
 303 0016 0120     		movs	r0, #1
 304              	.LVL24:
 305              		.loc 1 257 16 view .LVU103
 306 0018 7047     		bx	lr
 307              	.LVL25:
 308              	.L17:
 258:Algorithm/Filter_Dep/filter.c ****     }
 259:Algorithm/Filter_Dep/filter.c **** 
 260:Algorithm/Filter_Dep/filter.c ****     return 0;
 309              		.loc 1 260 12 view .LVU104
 310 001a 0020     		movs	r0, #0
 311              	.LVL26:
 312              		.loc 1 260 12 view .LVU105
 313 001c 7047     		bx	lr
 314              	.LVL27:
 315              	.L18:
 316              		.loc 1 260 12 view .LVU106
 317 001e 0020     		movs	r0, #0
 318              	.LVL28:
 319              		.loc 1 260 12 view .LVU107
 320 0020 7047     		bx	lr
 321              	.LVL29:
 322              	.L19:
ARM GAS  C:\Users\8bit\AppData\Local\Temp\ccCVhsKJ.s 			page 12


 323              		.loc 1 260 12 view .LVU108
 324 0022 0020     		movs	r0, #0
 325              	.LVL30:
 261:Algorithm/Filter_Dep/filter.c **** }
 326              		.loc 1 261 1 view .LVU109
 327 0024 7047     		bx	lr
 328              		.cfi_endproc
 329              	.LFE13:
 331              		.section	.text.Filter_List_Create,"ax",%progbits
 332              		.align	1
 333              		.syntax unified
 334              		.thumb
 335              		.thumb_func
 337              	Filter_List_Create:
 338              	.LVL31:
 339              	.LFB8:
  31:Algorithm/Filter_Dep/filter.c ****     for (uint8_t i = 0; i < order; i++)
 340              		.loc 1 31 1 is_stmt 1 view -0
 341              		.cfi_startproc
 342              		@ args = 0, pretend = 0, frame = 0
 343              		@ frame_needed = 0, uses_anonymous_args = 0
  31:Algorithm/Filter_Dep/filter.c ****     for (uint8_t i = 0; i < order; i++)
 344              		.loc 1 31 1 is_stmt 0 view .LVU111
 345 0000 2DE9F84F 		push	{r3, r4, r5, r6, r7, r8, r9, r10, fp, lr}
 346              	.LCFI6:
 347              		.cfi_def_cfa_offset 40
 348              		.cfi_offset 3, -40
 349              		.cfi_offset 4, -36
 350              		.cfi_offset 5, -32
 351              		.cfi_offset 6, -28
 352              		.cfi_offset 7, -24
 353              		.cfi_offset 8, -20
 354              		.cfi_offset 9, -16
 355              		.cfi_offset 10, -12
 356              		.cfi_offset 11, -8
 357              		.cfi_offset 14, -4
 358 0004 8046     		mov	r8, r0
 359 0006 0F46     		mov	r7, r1
 360 0008 9146     		mov	r9, r2
 361 000a 9A46     		mov	r10, r3
  32:Algorithm/Filter_Dep/filter.c ****     {
 362              		.loc 1 32 5 is_stmt 1 view .LVU112
 363              	.LBB4:
  32:Algorithm/Filter_Dep/filter.c ****     {
 364              		.loc 1 32 10 view .LVU113
 365              	.LVL32:
  32:Algorithm/Filter_Dep/filter.c ****     {
 366              		.loc 1 32 18 is_stmt 0 view .LVU114
 367 000c 0024     		movs	r4, #0
  32:Algorithm/Filter_Dep/filter.c ****     {
 368              		.loc 1 32 5 view .LVU115
 369 000e 08E0     		b	.L21
 370              	.LVL33:
 371              	.L29:
 372              	.LBB5:
  38:Algorithm/Filter_Dep/filter.c ****             return false;
 373              		.loc 1 38 13 is_stmt 1 view .LVU116
ARM GAS  C:\Users\8bit\AppData\Local\Temp\ccCVhsKJ.s 			page 13


 374 0010 174B     		ldr	r3, .L30
 375 0012 DB6A     		ldr	r3, [r3, #44]
 376 0014 9847     		blx	r3
 377              	.LVL34:
  38:Algorithm/Filter_Dep/filter.c ****             return false;
 378              		.loc 1 38 32 view .LVU117
  39:Algorithm/Filter_Dep/filter.c ****         }
 379              		.loc 1 39 13 view .LVU118
  39:Algorithm/Filter_Dep/filter.c ****         }
 380              		.loc 1 39 20 is_stmt 0 view .LVU119
 381 0016 0020     		movs	r0, #0
 382 0018 27E0     		b	.L23
 383              	.L24:
  54:Algorithm/Filter_Dep/filter.c ****     }
 384              		.loc 1 54 13 is_stmt 1 view .LVU120
  54:Algorithm/Filter_Dep/filter.c ****     }
 385              		.loc 1 54 21 is_stmt 0 view .LVU121
 386 001a C9F80070 		str	r7, [r9]
 387              	.L25:
  54:Algorithm/Filter_Dep/filter.c ****     }
 388              		.loc 1 54 21 view .LVU122
 389              	.LBE5:
  32:Algorithm/Filter_Dep/filter.c ****     {
 390              		.loc 1 32 36 is_stmt 1 discriminator 2 view .LVU123
  32:Algorithm/Filter_Dep/filter.c ****     {
 391              		.loc 1 32 37 is_stmt 0 discriminator 2 view .LVU124
 392 001e 0134     		adds	r4, r4, #1
 393              	.LVL35:
  32:Algorithm/Filter_Dep/filter.c ****     {
 394              		.loc 1 32 37 discriminator 2 view .LVU125
 395 0020 E4B2     		uxtb	r4, r4
 396              	.LVL36:
 397              	.L21:
  32:Algorithm/Filter_Dep/filter.c ****     {
 398              		.loc 1 32 25 is_stmt 1 discriminator 1 view .LVU126
  32:Algorithm/Filter_Dep/filter.c ****     {
 399              		.loc 1 32 5 is_stmt 0 discriminator 1 view .LVU127
 400 0022 4445     		cmp	r4, r8
 401 0024 19D2     		bcs	.L28
 402              	.LBB6:
  34:Algorithm/Filter_Dep/filter.c **** 
 403              		.loc 1 34 9 is_stmt 1 view .LVU128
  34:Algorithm/Filter_Dep/filter.c **** 
 404              		.loc 1 34 34 is_stmt 0 view .LVU129
 405 0026 124B     		ldr	r3, .L30
 406 0028 9B6A     		ldr	r3, [r3, #40]
 407 002a 0420     		movs	r0, #4
 408 002c 9847     		blx	r3
 409              	.LVL37:
  36:Algorithm/Filter_Dep/filter.c ****         {
 410              		.loc 1 36 9 is_stmt 1 view .LVU130
  36:Algorithm/Filter_Dep/filter.c ****         {
 411              		.loc 1 36 12 is_stmt 0 view .LVU131
 412 002e 8346     		mov	fp, r0
 413 0030 0028     		cmp	r0, #0
 414 0032 EDD0     		beq	.L29
  43:Algorithm/Filter_Dep/filter.c ****             *u_temp = 0.0f;
ARM GAS  C:\Users\8bit\AppData\Local\Temp\ccCVhsKJ.s 			page 14


 415              		.loc 1 43 13 is_stmt 1 view .LVU132
  43:Algorithm/Filter_Dep/filter.c ****             *u_temp = 0.0f;
 416              		.loc 1 43 32 is_stmt 0 view .LVU133
 417 0034 04EB8405 		add	r5, r4, r4, lsl #2
 418 0038 AE00     		lsls	r6, r5, #2
  43:Algorithm/Filter_Dep/filter.c ****             *u_temp = 0.0f;
 419              		.loc 1 43 13 view .LVU134
 420 003a 07EB8505 		add	r5, r7, r5, lsl #2
 421 003e 0146     		mov	r1, r0
 422 0040 2846     		mov	r0, r5
 423              	.LVL38:
  43:Algorithm/Filter_Dep/filter.c ****             *u_temp = 0.0f;
 424              		.loc 1 43 13 view .LVU135
 425 0042 FFF7FEFF 		bl	List_ItemInit
 426              	.LVL39:
  44:Algorithm/Filter_Dep/filter.c ****         }
 427              		.loc 1 44 13 is_stmt 1 view .LVU136
  44:Algorithm/Filter_Dep/filter.c ****         }
 428              		.loc 1 44 21 is_stmt 0 view .LVU137
 429 0046 0023     		movs	r3, #0
 430 0048 CBF80030 		str	r3, [fp]	@ float
  48:Algorithm/Filter_Dep/filter.c ****         {
 431              		.loc 1 48 9 is_stmt 1 view .LVU138
  48:Algorithm/Filter_Dep/filter.c ****         {
 432              		.loc 1 48 12 is_stmt 0 view .LVU139
 433 004c 002C     		cmp	r4, #0
 434 004e E4D0     		beq	.L24
  50:Algorithm/Filter_Dep/filter.c ****             item[i].prv = &item[i - 1];
 435              		.loc 1 50 13 is_stmt 1 view .LVU140
  50:Algorithm/Filter_Dep/filter.c ****             item[i].prv = &item[i - 1];
 436              		.loc 1 50 17 is_stmt 0 view .LVU141
 437 0050 143E     		subs	r6, r6, #20
 438 0052 3E44     		add	r6, r6, r7
  50:Algorithm/Filter_Dep/filter.c ****             item[i].prv = &item[i - 1];
 439              		.loc 1 50 29 view .LVU142
 440 0054 F560     		str	r5, [r6, #12]
  51:Algorithm/Filter_Dep/filter.c ****         }
 441              		.loc 1 51 13 is_stmt 1 view .LVU143
  51:Algorithm/Filter_Dep/filter.c ****         }
 442              		.loc 1 51 25 is_stmt 0 view .LVU144
 443 0056 AE60     		str	r6, [r5, #8]
 444 0058 E1E7     		b	.L25
 445              	.LVL40:
 446              	.L28:
  51:Algorithm/Filter_Dep/filter.c ****         }
 447              		.loc 1 51 25 view .LVU145
 448              	.LBE6:
 449              	.LBE4:
  57:Algorithm/Filter_Dep/filter.c **** 
 450              		.loc 1 57 5 is_stmt 1 view .LVU146
  57:Algorithm/Filter_Dep/filter.c **** 
 451              		.loc 1 57 19 is_stmt 0 view .LVU147
 452 005a 08EB8803 		add	r3, r8, r8, lsl #2
 453 005e 9B00     		lsls	r3, r3, #2
 454 0060 143B     		subs	r3, r3, #20
  57:Algorithm/Filter_Dep/filter.c **** 
 455              		.loc 1 57 14 view .LVU148
ARM GAS  C:\Users\8bit\AppData\Local\Temp\ccCVhsKJ.s 			page 15


 456 0062 1F44     		add	r7, r7, r3
 457              	.LVL41:
  57:Algorithm/Filter_Dep/filter.c **** 
 458              		.loc 1 57 12 view .LVU149
 459 0064 CAF80070 		str	r7, [r10]
  59:Algorithm/Filter_Dep/filter.c **** }
 460              		.loc 1 59 5 is_stmt 1 view .LVU150
  59:Algorithm/Filter_Dep/filter.c **** }
 461              		.loc 1 59 12 is_stmt 0 view .LVU151
 462 0068 0120     		movs	r0, #1
 463              	.L23:
  60:Algorithm/Filter_Dep/filter.c **** 
 464              		.loc 1 60 1 view .LVU152
 465 006a BDE8F88F 		pop	{r3, r4, r5, r6, r7, r8, r9, r10, fp, pc}
 466              	.LVL42:
 467              	.L31:
  60:Algorithm/Filter_Dep/filter.c **** 
 468              		.loc 1 60 1 view .LVU153
 469 006e 00BF     		.align	2
 470              	.L30:
 471 0070 00000000 		.word	SrvOsCommon
 472              		.cfi_endproc
 473              	.LFE8:
 475              		.section	.text.Butterworth_Init,"ax",%progbits
 476              		.align	1
 477              		.syntax unified
 478              		.thumb
 479              		.thumb_func
 481              	Butterworth_Init:
 482              	.LVL43:
 483              	.LFB10:
  78:Algorithm/Filter_Dep/filter.c ****     Filter_ButterworthParam_TypeDef *BWF_Obj = NULL;
 484              		.loc 1 78 1 is_stmt 1 view -0
 485              		.cfi_startproc
 486              		@ args = 0, pretend = 0, frame = 0
 487              		@ frame_needed = 0, uses_anonymous_args = 0
  79:Algorithm/Filter_Dep/filter.c ****     uint8_t e_cnt = 0;
 488              		.loc 1 79 5 view .LVU155
  80:Algorithm/Filter_Dep/filter.c ****     uint8_t u_cnt = 0;
 489              		.loc 1 80 5 view .LVU156
  81:Algorithm/Filter_Dep/filter.c **** 
 490              		.loc 1 81 5 view .LVU157
  83:Algorithm/Filter_Dep/filter.c ****         return 0;
 491              		.loc 1 83 5 view .LVU158
  83:Algorithm/Filter_Dep/filter.c ****         return 0;
 492              		.loc 1 83 7 is_stmt 0 view .LVU159
 493 0000 0028     		cmp	r0, #0
 494 0002 00F0C380 		beq	.L45
  78:Algorithm/Filter_Dep/filter.c ****     Filter_ButterworthParam_TypeDef *BWF_Obj = NULL;
 495              		.loc 1 78 1 view .LVU160
 496 0006 F8B5     		push	{r3, r4, r5, r6, r7, lr}
 497              	.LCFI7:
 498              		.cfi_def_cfa_offset 24
 499              		.cfi_offset 3, -24
 500              		.cfi_offset 4, -20
 501              		.cfi_offset 5, -16
 502              		.cfi_offset 6, -12
ARM GAS  C:\Users\8bit\AppData\Local\Temp\ccCVhsKJ.s 			page 16


 503              		.cfi_offset 7, -8
 504              		.cfi_offset 14, -4
 505 0008 0546     		mov	r5, r0
  86:Algorithm/Filter_Dep/filter.c ****     {
 506              		.loc 1 86 5 is_stmt 1 view .LVU161
  86:Algorithm/Filter_Dep/filter.c ****     {
 507              		.loc 1 86 18 is_stmt 0 view .LVU162
 508 000a 0678     		ldrb	r6, [r0]	@ zero_extendqisi2
  86:Algorithm/Filter_Dep/filter.c ****     {
 509              		.loc 1 86 8 view .LVU163
 510 000c 012E     		cmp	r6, #1
 511 000e 40F2BA80 		bls	.L46
  88:Algorithm/Filter_Dep/filter.c ****         u_cnt = param_obj->order;
 512              		.loc 1 88 9 is_stmt 1 view .LVU164
  88:Algorithm/Filter_Dep/filter.c ****         u_cnt = param_obj->order;
 513              		.loc 1 88 15 is_stmt 0 view .LVU165
 514 0012 771C     		adds	r7, r6, #1
 515 0014 FFB2     		uxtb	r7, r7
 516              	.LVL44:
  89:Algorithm/Filter_Dep/filter.c ****         
 517              		.loc 1 89 9 is_stmt 1 view .LVU166
  91:Algorithm/Filter_Dep/filter.c ****             return 0;
 518              		.loc 1 91 9 view .LVU167
  91:Algorithm/Filter_Dep/filter.c ****             return 0;
 519              		.loc 1 91 23 is_stmt 0 view .LVU168
 520 0016 4368     		ldr	r3, [r0, #4]
  91:Algorithm/Filter_Dep/filter.c ****             return 0;
 521              		.loc 1 91 12 view .LVU169
 522 0018 002B     		cmp	r3, #0
 523 001a 00F0B980 		beq	.L47
  91:Algorithm/Filter_Dep/filter.c ****             return 0;
 524              		.loc 1 91 55 discriminator 1 view .LVU170
 525 001e 8368     		ldr	r3, [r0, #8]
  91:Algorithm/Filter_Dep/filter.c ****             return 0;
 526              		.loc 1 91 42 discriminator 1 view .LVU171
 527 0020 002B     		cmp	r3, #0
 528 0022 00F0B780 		beq	.L48
  94:Algorithm/Filter_Dep/filter.c **** 
 529              		.loc 1 94 9 is_stmt 1 view .LVU172
  94:Algorithm/Filter_Dep/filter.c **** 
 530              		.loc 1 94 19 is_stmt 0 view .LVU173
 531 0026 5C4B     		ldr	r3, .L60
 532 0028 9B6A     		ldr	r3, [r3, #40]
 533 002a 2420     		movs	r0, #36
 534              	.LVL45:
  94:Algorithm/Filter_Dep/filter.c **** 
 535              		.loc 1 94 19 view .LVU174
 536 002c 9847     		blx	r3
 537              	.LVL46:
  96:Algorithm/Filter_Dep/filter.c ****         {
 538              		.loc 1 96 9 is_stmt 1 view .LVU175
  96:Algorithm/Filter_Dep/filter.c ****         {
 539              		.loc 1 96 12 is_stmt 0 view .LVU176
 540 002e 0446     		mov	r4, r0
 541 0030 0028     		cmp	r0, #0
 542 0032 37D0     		beq	.L53
 102:Algorithm/Filter_Dep/filter.c ****         if (BWF_Obj->p_e_data_cache == NULL)
ARM GAS  C:\Users\8bit\AppData\Local\Temp\ccCVhsKJ.s 			page 17


 543              		.loc 1 102 9 is_stmt 1 view .LVU177
 102:Algorithm/Filter_Dep/filter.c ****         if (BWF_Obj->p_e_data_cache == NULL)
 544              		.loc 1 102 35 is_stmt 0 view .LVU178
 545 0034 584B     		ldr	r3, .L60
 546 0036 9B6A     		ldr	r3, [r3, #40]
 547 0038 07EB8700 		add	r0, r7, r7, lsl #2
 548              	.LVL47:
 102:Algorithm/Filter_Dep/filter.c ****         if (BWF_Obj->p_e_data_cache == NULL)
 549              		.loc 1 102 35 view .LVU179
 550 003c 8000     		lsls	r0, r0, #2
 551 003e 9847     		blx	r3
 552              	.LVL48:
 102:Algorithm/Filter_Dep/filter.c ****         if (BWF_Obj->p_e_data_cache == NULL)
 553              		.loc 1 102 33 view .LVU180
 554 0040 E061     		str	r0, [r4, #28]
 103:Algorithm/Filter_Dep/filter.c ****         {
 555              		.loc 1 103 9 is_stmt 1 view .LVU181
 103:Algorithm/Filter_Dep/filter.c ****         {
 556              		.loc 1 103 12 is_stmt 0 view .LVU182
 557 0042 0028     		cmp	r0, #0
 558 0044 33D0     		beq	.L54
 111:Algorithm/Filter_Dep/filter.c ****             {
 559              		.loc 1 111 13 is_stmt 1 view .LVU183
 111:Algorithm/Filter_Dep/filter.c ****             {
 560              		.loc 1 111 18 is_stmt 0 view .LVU184
 561 0046 04F11003 		add	r3, r4, #16
 562 004a 04F10C02 		add	r2, r4, #12
 563 004e 0146     		mov	r1, r0
 564 0050 3846     		mov	r0, r7
 565 0052 FFF7FEFF 		bl	Filter_List_Create
 566              	.LVL49:
 111:Algorithm/Filter_Dep/filter.c ****             {
 567              		.loc 1 111 16 view .LVU185
 568 0056 0028     		cmp	r0, #0
 569 0058 31D0     		beq	.L55
 119:Algorithm/Filter_Dep/filter.c ****         if (BWF_Obj->p_u_data_cache == NULL)
 570              		.loc 1 119 9 is_stmt 1 view .LVU186
 119:Algorithm/Filter_Dep/filter.c ****         if (BWF_Obj->p_u_data_cache == NULL)
 571              		.loc 1 119 35 is_stmt 0 view .LVU187
 572 005a 4F4B     		ldr	r3, .L60
 573 005c 9B6A     		ldr	r3, [r3, #40]
 574 005e 06EB8600 		add	r0, r6, r6, lsl #2
 575 0062 8000     		lsls	r0, r0, #2
 576 0064 9847     		blx	r3
 577              	.LVL50:
 578 0066 0146     		mov	r1, r0
 119:Algorithm/Filter_Dep/filter.c ****         if (BWF_Obj->p_u_data_cache == NULL)
 579              		.loc 1 119 33 view .LVU188
 580 0068 2062     		str	r0, [r4, #32]
 120:Algorithm/Filter_Dep/filter.c ****         {
 581              		.loc 1 120 9 is_stmt 1 view .LVU189
 120:Algorithm/Filter_Dep/filter.c ****         {
 582              		.loc 1 120 12 is_stmt 0 view .LVU190
 583 006a 0028     		cmp	r0, #0
 584 006c 30D0     		beq	.L56
 129:Algorithm/Filter_Dep/filter.c ****             {
 585              		.loc 1 129 13 is_stmt 1 view .LVU191
ARM GAS  C:\Users\8bit\AppData\Local\Temp\ccCVhsKJ.s 			page 18


 129:Algorithm/Filter_Dep/filter.c ****             {
 586              		.loc 1 129 18 is_stmt 0 view .LVU192
 587 006e 04F11803 		add	r3, r4, #24
 588 0072 04F11402 		add	r2, r4, #20
 589 0076 3046     		mov	r0, r6
 590 0078 FFF7FEFF 		bl	Filter_List_Create
 591              	.LVL51:
 129:Algorithm/Filter_Dep/filter.c ****             {
 592              		.loc 1 129 16 view .LVU193
 593 007c 0028     		cmp	r0, #0
 594 007e 33D0     		beq	.L57
 138:Algorithm/Filter_Dep/filter.c ****         if(BWF_Obj->e_para_buf == NULL)
 595              		.loc 1 138 9 is_stmt 1 view .LVU194
 138:Algorithm/Filter_Dep/filter.c ****         if(BWF_Obj->e_para_buf == NULL)
 596              		.loc 1 138 31 is_stmt 0 view .LVU195
 597 0080 454B     		ldr	r3, .L60
 598 0082 9B6A     		ldr	r3, [r3, #40]
 599 0084 B800     		lsls	r0, r7, #2
 600 0086 9847     		blx	r3
 601              	.LVL52:
 138:Algorithm/Filter_Dep/filter.c ****         if(BWF_Obj->e_para_buf == NULL)
 602              		.loc 1 138 29 view .LVU196
 603 0088 6060     		str	r0, [r4, #4]
 139:Algorithm/Filter_Dep/filter.c ****         {
 604              		.loc 1 139 9 is_stmt 1 view .LVU197
 139:Algorithm/Filter_Dep/filter.c ****         {
 605              		.loc 1 139 11 is_stmt 0 view .LVU198
 606 008a 0028     		cmp	r0, #0
 607 008c 38D0     		beq	.L58
 148:Algorithm/Filter_Dep/filter.c ****         if(BWF_Obj->u_para_buf == NULL)
 608              		.loc 1 148 9 is_stmt 1 view .LVU199
 148:Algorithm/Filter_Dep/filter.c ****         if(BWF_Obj->u_para_buf == NULL)
 609              		.loc 1 148 31 is_stmt 0 view .LVU200
 610 008e 424B     		ldr	r3, .L60
 611 0090 9B6A     		ldr	r3, [r3, #40]
 612 0092 B000     		lsls	r0, r6, #2
 613 0094 9847     		blx	r3
 614              	.LVL53:
 148:Algorithm/Filter_Dep/filter.c ****         if(BWF_Obj->u_para_buf == NULL)
 615              		.loc 1 148 29 view .LVU201
 616 0096 A060     		str	r0, [r4, #8]
 149:Algorithm/Filter_Dep/filter.c ****         {
 617              		.loc 1 149 9 is_stmt 1 view .LVU202
 149:Algorithm/Filter_Dep/filter.c ****         {
 618              		.loc 1 149 11 is_stmt 0 view .LVU203
 619 0098 0028     		cmp	r0, #0
 620 009a 3FD0     		beq	.L59
 159:Algorithm/Filter_Dep/filter.c **** 
 621              		.loc 1 159 9 is_stmt 1 view .LVU204
 159:Algorithm/Filter_Dep/filter.c **** 
 622              		.loc 1 159 35 is_stmt 0 view .LVU205
 623 009c 2B78     		ldrb	r3, [r5]	@ zero_extendqisi2
 159:Algorithm/Filter_Dep/filter.c **** 
 624              		.loc 1 159 24 view .LVU206
 625 009e 2370     		strb	r3, [r4]
 161:Algorithm/Filter_Dep/filter.c ****         {
 626              		.loc 1 161 9 is_stmt 1 view .LVU207
ARM GAS  C:\Users\8bit\AppData\Local\Temp\ccCVhsKJ.s 			page 19


 627              	.LBB7:
 161:Algorithm/Filter_Dep/filter.c ****         {
 628              		.loc 1 161 13 view .LVU208
 629              	.LVL54:
 161:Algorithm/Filter_Dep/filter.c ****         {
 630              		.loc 1 161 21 is_stmt 0 view .LVU209
 631 00a0 0023     		movs	r3, #0
 161:Algorithm/Filter_Dep/filter.c ****         {
 632              		.loc 1 161 9 view .LVU210
 633 00a2 4FE0     		b	.L42
 634              	.LVL55:
 635              	.L53:
 161:Algorithm/Filter_Dep/filter.c ****         {
 636              		.loc 1 161 9 view .LVU211
 637              	.LBE7:
  98:Algorithm/Filter_Dep/filter.c ****             return 0;
 638              		.loc 1 98 13 is_stmt 1 view .LVU212
 639 00a4 3C4B     		ldr	r3, .L60
 640 00a6 DB6A     		ldr	r3, [r3, #44]
 641 00a8 9847     		blx	r3
 642              	.LVL56:
  98:Algorithm/Filter_Dep/filter.c ****             return 0;
 643              		.loc 1 98 33 view .LVU213
  99:Algorithm/Filter_Dep/filter.c ****         }
 644              		.loc 1 99 13 view .LVU214
  99:Algorithm/Filter_Dep/filter.c ****         }
 645              		.loc 1 99 20 is_stmt 0 view .LVU215
 646 00aa 0020     		movs	r0, #0
 647 00ac 6DE0     		b	.L32
 648              	.L54:
 105:Algorithm/Filter_Dep/filter.c ****             FILTER_FREE(BWF_Obj);
 649              		.loc 1 105 13 is_stmt 1 view .LVU216
 650 00ae 3A4D     		ldr	r5, .L60
 651              	.LVL57:
 105:Algorithm/Filter_Dep/filter.c ****             FILTER_FREE(BWF_Obj);
 652              		.loc 1 105 13 is_stmt 0 view .LVU217
 653 00b0 EB6A     		ldr	r3, [r5, #44]
 654 00b2 9847     		blx	r3
 655              	.LVL58:
 105:Algorithm/Filter_Dep/filter.c ****             FILTER_FREE(BWF_Obj);
 656              		.loc 1 105 49 is_stmt 1 view .LVU218
 106:Algorithm/Filter_Dep/filter.c ****             return 0;
 657              		.loc 1 106 13 view .LVU219
 658 00b4 EB6A     		ldr	r3, [r5, #44]
 659 00b6 2046     		mov	r0, r4
 660 00b8 9847     		blx	r3
 661              	.LVL59:
 106:Algorithm/Filter_Dep/filter.c ****             return 0;
 662              		.loc 1 106 33 view .LVU220
 107:Algorithm/Filter_Dep/filter.c ****         }
 663              		.loc 1 107 13 view .LVU221
 107:Algorithm/Filter_Dep/filter.c ****         }
 664              		.loc 1 107 20 is_stmt 0 view .LVU222
 665 00ba 0020     		movs	r0, #0
 666 00bc 65E0     		b	.L32
 667              	.LVL60:
 668              	.L55:
ARM GAS  C:\Users\8bit\AppData\Local\Temp\ccCVhsKJ.s 			page 20


 113:Algorithm/Filter_Dep/filter.c ****                 FILTER_FREE(BWF_Obj);
 669              		.loc 1 113 17 is_stmt 1 view .LVU223
 670 00be 364D     		ldr	r5, .L60
 671              	.LVL61:
 113:Algorithm/Filter_Dep/filter.c ****                 FILTER_FREE(BWF_Obj);
 672              		.loc 1 113 17 is_stmt 0 view .LVU224
 673 00c0 EB6A     		ldr	r3, [r5, #44]
 674 00c2 E069     		ldr	r0, [r4, #28]
 675 00c4 9847     		blx	r3
 676              	.LVL62:
 113:Algorithm/Filter_Dep/filter.c ****                 FILTER_FREE(BWF_Obj);
 677              		.loc 1 113 53 is_stmt 1 view .LVU225
 114:Algorithm/Filter_Dep/filter.c ****                 return 0;
 678              		.loc 1 114 17 view .LVU226
 679 00c6 EB6A     		ldr	r3, [r5, #44]
 680 00c8 2046     		mov	r0, r4
 681 00ca 9847     		blx	r3
 682              	.LVL63:
 114:Algorithm/Filter_Dep/filter.c ****                 return 0;
 683              		.loc 1 114 37 view .LVU227
 115:Algorithm/Filter_Dep/filter.c ****             }
 684              		.loc 1 115 17 view .LVU228
 115:Algorithm/Filter_Dep/filter.c ****             }
 685              		.loc 1 115 24 is_stmt 0 view .LVU229
 686 00cc 0020     		movs	r0, #0
 687 00ce 5CE0     		b	.L32
 688              	.LVL64:
 689              	.L56:
 122:Algorithm/Filter_Dep/filter.c ****             FILTER_FREE(BWF_Obj->p_u_data_cache);
 690              		.loc 1 122 13 is_stmt 1 view .LVU230
 691 00d0 314D     		ldr	r5, .L60
 692              	.LVL65:
 122:Algorithm/Filter_Dep/filter.c ****             FILTER_FREE(BWF_Obj->p_u_data_cache);
 693              		.loc 1 122 13 is_stmt 0 view .LVU231
 694 00d2 EB6A     		ldr	r3, [r5, #44]
 695 00d4 E069     		ldr	r0, [r4, #28]
 696 00d6 9847     		blx	r3
 697              	.LVL66:
 122:Algorithm/Filter_Dep/filter.c ****             FILTER_FREE(BWF_Obj->p_u_data_cache);
 698              		.loc 1 122 49 is_stmt 1 view .LVU232
 123:Algorithm/Filter_Dep/filter.c ****             FILTER_FREE(BWF_Obj);
 699              		.loc 1 123 13 view .LVU233
 700 00d8 EB6A     		ldr	r3, [r5, #44]
 701 00da 206A     		ldr	r0, [r4, #32]
 702 00dc 9847     		blx	r3
 703              	.LVL67:
 123:Algorithm/Filter_Dep/filter.c ****             FILTER_FREE(BWF_Obj);
 704              		.loc 1 123 49 view .LVU234
 124:Algorithm/Filter_Dep/filter.c ****             return 0;
 705              		.loc 1 124 13 view .LVU235
 706 00de EB6A     		ldr	r3, [r5, #44]
 707 00e0 2046     		mov	r0, r4
 708 00e2 9847     		blx	r3
 709              	.LVL68:
 124:Algorithm/Filter_Dep/filter.c ****             return 0;
 710              		.loc 1 124 33 view .LVU236
 125:Algorithm/Filter_Dep/filter.c ****         }
ARM GAS  C:\Users\8bit\AppData\Local\Temp\ccCVhsKJ.s 			page 21


 711              		.loc 1 125 13 view .LVU237
 125:Algorithm/Filter_Dep/filter.c ****         }
 712              		.loc 1 125 20 is_stmt 0 view .LVU238
 713 00e4 0020     		movs	r0, #0
 714 00e6 50E0     		b	.L32
 715              	.LVL69:
 716              	.L57:
 131:Algorithm/Filter_Dep/filter.c ****                 FILTER_FREE(BWF_Obj->p_u_data_cache);
 717              		.loc 1 131 17 is_stmt 1 view .LVU239
 718 00e8 2B4D     		ldr	r5, .L60
 719              	.LVL70:
 131:Algorithm/Filter_Dep/filter.c ****                 FILTER_FREE(BWF_Obj->p_u_data_cache);
 720              		.loc 1 131 17 is_stmt 0 view .LVU240
 721 00ea EB6A     		ldr	r3, [r5, #44]
 722 00ec E069     		ldr	r0, [r4, #28]
 723 00ee 9847     		blx	r3
 724              	.LVL71:
 131:Algorithm/Filter_Dep/filter.c ****                 FILTER_FREE(BWF_Obj->p_u_data_cache);
 725              		.loc 1 131 53 is_stmt 1 view .LVU241
 132:Algorithm/Filter_Dep/filter.c ****                 FILTER_FREE(BWF_Obj);
 726              		.loc 1 132 17 view .LVU242
 727 00f0 EB6A     		ldr	r3, [r5, #44]
 728 00f2 206A     		ldr	r0, [r4, #32]
 729 00f4 9847     		blx	r3
 730              	.LVL72:
 132:Algorithm/Filter_Dep/filter.c ****                 FILTER_FREE(BWF_Obj);
 731              		.loc 1 132 53 view .LVU243
 133:Algorithm/Filter_Dep/filter.c ****                 return 0;
 732              		.loc 1 133 17 view .LVU244
 733 00f6 EB6A     		ldr	r3, [r5, #44]
 734 00f8 2046     		mov	r0, r4
 735 00fa 9847     		blx	r3
 736              	.LVL73:
 133:Algorithm/Filter_Dep/filter.c ****                 return 0;
 737              		.loc 1 133 37 view .LVU245
 134:Algorithm/Filter_Dep/filter.c ****             }
 738              		.loc 1 134 17 view .LVU246
 134:Algorithm/Filter_Dep/filter.c ****             }
 739              		.loc 1 134 24 is_stmt 0 view .LVU247
 740 00fc 0020     		movs	r0, #0
 741 00fe 44E0     		b	.L32
 742              	.LVL74:
 743              	.L58:
 141:Algorithm/Filter_Dep/filter.c ****             FILTER_FREE(BWF_Obj->p_e_data_cache);
 744              		.loc 1 141 13 is_stmt 1 view .LVU248
 745 0100 254D     		ldr	r5, .L60
 746              	.LVL75:
 141:Algorithm/Filter_Dep/filter.c ****             FILTER_FREE(BWF_Obj->p_e_data_cache);
 747              		.loc 1 141 13 is_stmt 0 view .LVU249
 748 0102 EB6A     		ldr	r3, [r5, #44]
 749 0104 9847     		blx	r3
 750              	.LVL76:
 141:Algorithm/Filter_Dep/filter.c ****             FILTER_FREE(BWF_Obj->p_e_data_cache);
 751              		.loc 1 141 45 is_stmt 1 view .LVU250
 142:Algorithm/Filter_Dep/filter.c ****             FILTER_FREE(BWF_Obj->p_u_data_cache);
 752              		.loc 1 142 13 view .LVU251
 753 0106 EB6A     		ldr	r3, [r5, #44]
ARM GAS  C:\Users\8bit\AppData\Local\Temp\ccCVhsKJ.s 			page 22


 754 0108 E069     		ldr	r0, [r4, #28]
 755 010a 9847     		blx	r3
 756              	.LVL77:
 142:Algorithm/Filter_Dep/filter.c ****             FILTER_FREE(BWF_Obj->p_u_data_cache);
 757              		.loc 1 142 49 view .LVU252
 143:Algorithm/Filter_Dep/filter.c ****             FILTER_FREE(BWF_Obj);
 758              		.loc 1 143 13 view .LVU253
 759 010c EB6A     		ldr	r3, [r5, #44]
 760 010e 206A     		ldr	r0, [r4, #32]
 761 0110 9847     		blx	r3
 762              	.LVL78:
 143:Algorithm/Filter_Dep/filter.c ****             FILTER_FREE(BWF_Obj);
 763              		.loc 1 143 49 view .LVU254
 144:Algorithm/Filter_Dep/filter.c ****             return 0;
 764              		.loc 1 144 13 view .LVU255
 765 0112 EB6A     		ldr	r3, [r5, #44]
 766 0114 2046     		mov	r0, r4
 767 0116 9847     		blx	r3
 768              	.LVL79:
 144:Algorithm/Filter_Dep/filter.c ****             return 0;
 769              		.loc 1 144 33 view .LVU256
 145:Algorithm/Filter_Dep/filter.c ****         }
 770              		.loc 1 145 13 view .LVU257
 145:Algorithm/Filter_Dep/filter.c ****         }
 771              		.loc 1 145 20 is_stmt 0 view .LVU258
 772 0118 0020     		movs	r0, #0
 773 011a 36E0     		b	.L32
 774              	.LVL80:
 775              	.L59:
 151:Algorithm/Filter_Dep/filter.c ****             FILTER_FREE(BWF_Obj->u_para_buf);
 776              		.loc 1 151 13 is_stmt 1 view .LVU259
 777 011c 1E4D     		ldr	r5, .L60
 778              	.LVL81:
 151:Algorithm/Filter_Dep/filter.c ****             FILTER_FREE(BWF_Obj->u_para_buf);
 779              		.loc 1 151 13 is_stmt 0 view .LVU260
 780 011e EB6A     		ldr	r3, [r5, #44]
 781 0120 6068     		ldr	r0, [r4, #4]
 782 0122 9847     		blx	r3
 783              	.LVL82:
 151:Algorithm/Filter_Dep/filter.c ****             FILTER_FREE(BWF_Obj->u_para_buf);
 784              		.loc 1 151 45 is_stmt 1 view .LVU261
 152:Algorithm/Filter_Dep/filter.c ****             FILTER_FREE(BWF_Obj->p_e_data_cache);
 785              		.loc 1 152 13 view .LVU262
 786 0124 EB6A     		ldr	r3, [r5, #44]
 787 0126 A068     		ldr	r0, [r4, #8]
 788 0128 9847     		blx	r3
 789              	.LVL83:
 152:Algorithm/Filter_Dep/filter.c ****             FILTER_FREE(BWF_Obj->p_e_data_cache);
 790              		.loc 1 152 45 view .LVU263
 153:Algorithm/Filter_Dep/filter.c ****             FILTER_FREE(BWF_Obj->p_u_data_cache);
 791              		.loc 1 153 13 view .LVU264
 792 012a EB6A     		ldr	r3, [r5, #44]
 793 012c E069     		ldr	r0, [r4, #28]
 794 012e 9847     		blx	r3
 795              	.LVL84:
 153:Algorithm/Filter_Dep/filter.c ****             FILTER_FREE(BWF_Obj->p_u_data_cache);
 796              		.loc 1 153 49 view .LVU265
ARM GAS  C:\Users\8bit\AppData\Local\Temp\ccCVhsKJ.s 			page 23


 154:Algorithm/Filter_Dep/filter.c ****             FILTER_FREE(BWF_Obj);
 797              		.loc 1 154 13 view .LVU266
 798 0130 EB6A     		ldr	r3, [r5, #44]
 799 0132 206A     		ldr	r0, [r4, #32]
 800 0134 9847     		blx	r3
 801              	.LVL85:
 154:Algorithm/Filter_Dep/filter.c ****             FILTER_FREE(BWF_Obj);
 802              		.loc 1 154 49 view .LVU267
 155:Algorithm/Filter_Dep/filter.c ****             return 0;
 803              		.loc 1 155 13 view .LVU268
 804 0136 EB6A     		ldr	r3, [r5, #44]
 805 0138 2046     		mov	r0, r4
 806 013a 9847     		blx	r3
 807              	.LVL86:
 155:Algorithm/Filter_Dep/filter.c ****             return 0;
 808              		.loc 1 155 33 view .LVU269
 156:Algorithm/Filter_Dep/filter.c ****         }
 809              		.loc 1 156 13 view .LVU270
 156:Algorithm/Filter_Dep/filter.c ****         }
 810              		.loc 1 156 20 is_stmt 0 view .LVU271
 811 013c 0020     		movs	r0, #0
 812 013e 24E0     		b	.L32
 813              	.LVL87:
 814              	.L43:
 815              	.LBB8:
 161:Algorithm/Filter_Dep/filter.c ****         {
 816              		.loc 1 161 39 is_stmt 1 discriminator 2 view .LVU272
 161:Algorithm/Filter_Dep/filter.c ****         {
 817              		.loc 1 161 40 is_stmt 0 discriminator 2 view .LVU273
 818 0140 0133     		adds	r3, r3, #1
 819              	.LVL88:
 161:Algorithm/Filter_Dep/filter.c ****         {
 820              		.loc 1 161 40 discriminator 2 view .LVU274
 821 0142 DBB2     		uxtb	r3, r3
 822              	.LVL89:
 823              	.L42:
 161:Algorithm/Filter_Dep/filter.c ****         {
 824              		.loc 1 161 28 is_stmt 1 discriminator 1 view .LVU275
 161:Algorithm/Filter_Dep/filter.c ****         {
 825              		.loc 1 161 9 is_stmt 0 discriminator 1 view .LVU276
 826 0144 BB42     		cmp	r3, r7
 827 0146 1FD2     		bcs	.L34
 163:Algorithm/Filter_Dep/filter.c ****         
 828              		.loc 1 163 13 is_stmt 1 view .LVU277
 163:Algorithm/Filter_Dep/filter.c ****         
 829              		.loc 1 163 47 is_stmt 0 view .LVU278
 830 0148 6A68     		ldr	r2, [r5, #4]
 163:Algorithm/Filter_Dep/filter.c ****         
 831              		.loc 1 163 56 view .LVU279
 832 014a D800     		lsls	r0, r3, #3
 833 014c 02EBC302 		add	r2, r2, r3, lsl #3
 163:Algorithm/Filter_Dep/filter.c ****         
 834              		.loc 1 163 59 view .LVU280
 835 0150 D2ED007A 		vldr.32	s15, [r2]
 163:Algorithm/Filter_Dep/filter.c ****         
 836              		.loc 1 163 85 view .LVU281
 837 0154 92ED017A 		vldr.32	s14, [r2, #4]
ARM GAS  C:\Users\8bit\AppData\Local\Temp\ccCVhsKJ.s 			page 24


 163:Algorithm/Filter_Dep/filter.c ****         
 838              		.loc 1 163 20 view .LVU282
 839 0158 6268     		ldr	r2, [r4, #4]
 163:Algorithm/Filter_Dep/filter.c ****         
 840              		.loc 1 163 32 view .LVU283
 841 015a 9900     		lsls	r1, r3, #2
 842 015c 02EB8302 		add	r2, r2, r3, lsl #2
 163:Algorithm/Filter_Dep/filter.c ****         
 843              		.loc 1 163 62 view .LVU284
 844 0160 67EE877A 		vmul.f32	s15, s15, s14
 163:Algorithm/Filter_Dep/filter.c ****         
 845              		.loc 1 163 36 view .LVU285
 846 0164 C2ED007A 		vstr.32	s15, [r2]
 165:Algorithm/Filter_Dep/filter.c ****             {
 847              		.loc 1 165 13 is_stmt 1 view .LVU286
 165:Algorithm/Filter_Dep/filter.c ****             {
 848              		.loc 1 165 15 is_stmt 0 view .LVU287
 849 0168 9E42     		cmp	r6, r3
 850 016a E9D9     		bls	.L43
 167:Algorithm/Filter_Dep/filter.c ****             }
 851              		.loc 1 167 17 is_stmt 1 view .LVU288
 167:Algorithm/Filter_Dep/filter.c ****             }
 852              		.loc 1 167 51 is_stmt 0 view .LVU289
 853 016c AA68     		ldr	r2, [r5, #8]
 167:Algorithm/Filter_Dep/filter.c ****             }
 854              		.loc 1 167 60 view .LVU290
 855 016e 0244     		add	r2, r2, r0
 167:Algorithm/Filter_Dep/filter.c ****             }
 856              		.loc 1 167 63 view .LVU291
 857 0170 D2ED007A 		vldr.32	s15, [r2]
 167:Algorithm/Filter_Dep/filter.c ****             }
 858              		.loc 1 167 89 view .LVU292
 859 0174 92ED017A 		vldr.32	s14, [r2, #4]
 167:Algorithm/Filter_Dep/filter.c ****             }
 860              		.loc 1 167 24 view .LVU293
 861 0178 A268     		ldr	r2, [r4, #8]
 167:Algorithm/Filter_Dep/filter.c ****             }
 862              		.loc 1 167 36 view .LVU294
 863 017a 0A44     		add	r2, r2, r1
 167:Algorithm/Filter_Dep/filter.c ****             }
 864              		.loc 1 167 66 view .LVU295
 865 017c 67EE877A 		vmul.f32	s15, s15, s14
 167:Algorithm/Filter_Dep/filter.c ****             }
 866              		.loc 1 167 40 view .LVU296
 867 0180 C2ED007A 		vstr.32	s15, [r2]
 868 0184 DCE7     		b	.L43
 869              	.LVL90:
 870              	.L46:
 167:Algorithm/Filter_Dep/filter.c ****             }
 871              		.loc 1 167 40 view .LVU297
 872              	.LBE8:
  79:Algorithm/Filter_Dep/filter.c ****     uint8_t e_cnt = 0;
 873              		.loc 1 79 38 view .LVU298
 874 0186 0024     		movs	r4, #0
 875              	.LVL91:
 876              	.L34:
 172:Algorithm/Filter_Dep/filter.c **** }
ARM GAS  C:\Users\8bit\AppData\Local\Temp\ccCVhsKJ.s 			page 25


 877              		.loc 1 172 5 is_stmt 1 view .LVU299
 172:Algorithm/Filter_Dep/filter.c **** }
 878              		.loc 1 172 12 is_stmt 0 view .LVU300
 879 0188 2046     		mov	r0, r4
 880              	.LVL92:
 881              	.L32:
 173:Algorithm/Filter_Dep/filter.c **** 
 882              		.loc 1 173 1 view .LVU301
 883 018a F8BD     		pop	{r3, r4, r5, r6, r7, pc}
 884              	.LVL93:
 885              	.L45:
 886              	.LCFI8:
 887              		.cfi_def_cfa_offset 0
 888              		.cfi_restore 3
 889              		.cfi_restore 4
 890              		.cfi_restore 5
 891              		.cfi_restore 6
 892              		.cfi_restore 7
 893              		.cfi_restore 14
  84:Algorithm/Filter_Dep/filter.c **** 
 894              		.loc 1 84 16 view .LVU302
 895 018c 0020     		movs	r0, #0
 896              	.LVL94:
 173:Algorithm/Filter_Dep/filter.c **** 
 897              		.loc 1 173 1 view .LVU303
 898 018e 7047     		bx	lr
 899              	.LVL95:
 900              	.L47:
 901              	.LCFI9:
 902              		.cfi_def_cfa_offset 24
 903              		.cfi_offset 3, -24
 904              		.cfi_offset 4, -20
 905              		.cfi_offset 5, -16
 906              		.cfi_offset 6, -12
 907              		.cfi_offset 7, -8
 908              		.cfi_offset 14, -4
  92:Algorithm/Filter_Dep/filter.c **** 
 909              		.loc 1 92 20 view .LVU304
 910 0190 0020     		movs	r0, #0
 911              	.LVL96:
  92:Algorithm/Filter_Dep/filter.c **** 
 912              		.loc 1 92 20 view .LVU305
 913 0192 FAE7     		b	.L32
 914              	.LVL97:
 915              	.L48:
  92:Algorithm/Filter_Dep/filter.c **** 
 916              		.loc 1 92 20 view .LVU306
 917 0194 0020     		movs	r0, #0
 918              	.LVL98:
  92:Algorithm/Filter_Dep/filter.c **** 
 919              		.loc 1 92 20 view .LVU307
 920 0196 F8E7     		b	.L32
 921              	.L61:
 922              		.align	2
 923              	.L60:
 924 0198 00000000 		.word	SrvOsCommon
 925              		.cfi_endproc
ARM GAS  C:\Users\8bit\AppData\Local\Temp\ccCVhsKJ.s 			page 26


 926              	.LFE10:
 928              		.section	.text.SmoothWindow_Init,"ax",%progbits
 929              		.align	1
 930              		.syntax unified
 931              		.thumb
 932              		.thumb_func
 934              	SmoothWindow_Init:
 935              	.LVL99:
 936              	.LFB12:
 220:Algorithm/Filter_Dep/filter.c ****     SW_Object_Handle hdl = 0;
 937              		.loc 1 220 1 is_stmt 1 view -0
 938              		.cfi_startproc
 939              		@ args = 0, pretend = 0, frame = 0
 940              		@ frame_needed = 0, uses_anonymous_args = 0
 221:Algorithm/Filter_Dep/filter.c ****     SmoothWindow_Param_TypeDef *param = NULL;
 941              		.loc 1 221 5 view .LVU309
 222:Algorithm/Filter_Dep/filter.c **** 
 942              		.loc 1 222 5 view .LVU310
 224:Algorithm/Filter_Dep/filter.c ****     {
 943              		.loc 1 224 5 view .LVU311
 224:Algorithm/Filter_Dep/filter.c ****     {
 944              		.loc 1 224 7 is_stmt 0 view .LVU312
 945 0000 0A28     		cmp	r0, #10
 946 0002 24D8     		bhi	.L65
 220:Algorithm/Filter_Dep/filter.c ****     SW_Object_Handle hdl = 0;
 947              		.loc 1 220 1 view .LVU313
 948 0004 38B5     		push	{r3, r4, r5, lr}
 949              	.LCFI10:
 950              		.cfi_def_cfa_offset 16
 951              		.cfi_offset 3, -16
 952              		.cfi_offset 4, -12
 953              		.cfi_offset 5, -8
 954              		.cfi_offset 14, -4
 955 0006 0446     		mov	r4, r0
 226:Algorithm/Filter_Dep/filter.c **** 
 956              		.loc 1 226 9 is_stmt 1 view .LVU314
 226:Algorithm/Filter_Dep/filter.c **** 
 957              		.loc 1 226 17 is_stmt 0 view .LVU315
 958 0008 144B     		ldr	r3, .L73
 959 000a 9B6A     		ldr	r3, [r3, #40]
 960 000c 1020     		movs	r0, #16
 961              	.LVL100:
 226:Algorithm/Filter_Dep/filter.c **** 
 962              		.loc 1 226 17 view .LVU316
 963 000e 9847     		blx	r3
 964              	.LVL101:
 228:Algorithm/Filter_Dep/filter.c ****             return 0;
 965              		.loc 1 228 9 is_stmt 1 view .LVU317
 228:Algorithm/Filter_Dep/filter.c ****             return 0;
 966              		.loc 1 228 11 is_stmt 0 view .LVU318
 967 0010 0546     		mov	r5, r0
 968 0012 F0B1     		cbz	r0, .L66
 231:Algorithm/Filter_Dep/filter.c ****         param->window_size = window_size;
 969              		.loc 1 231 9 is_stmt 1 view .LVU319
 231:Algorithm/Filter_Dep/filter.c ****         param->window_size = window_size;
 970              		.loc 1 231 30 is_stmt 0 view .LVU320
 971 0014 0023     		movs	r3, #0
ARM GAS  C:\Users\8bit\AppData\Local\Temp\ccCVhsKJ.s 			page 27


 972 0016 4370     		strb	r3, [r0, #1]
 232:Algorithm/Filter_Dep/filter.c ****         param->window_cache = FILTER_MALLOC(sizeof(item_obj) * window_size);
 973              		.loc 1 232 9 is_stmt 1 view .LVU321
 232:Algorithm/Filter_Dep/filter.c ****         param->window_cache = FILTER_MALLOC(sizeof(item_obj) * window_size);
 974              		.loc 1 232 28 is_stmt 0 view .LVU322
 975 0018 0470     		strb	r4, [r0]
 233:Algorithm/Filter_Dep/filter.c **** 
 976              		.loc 1 233 9 is_stmt 1 view .LVU323
 233:Algorithm/Filter_Dep/filter.c **** 
 977              		.loc 1 233 31 is_stmt 0 view .LVU324
 978 001a 104B     		ldr	r3, .L73
 979 001c 9B6A     		ldr	r3, [r3, #40]
 980 001e 04EB8400 		add	r0, r4, r4, lsl #2
 981              	.LVL102:
 233:Algorithm/Filter_Dep/filter.c **** 
 982              		.loc 1 233 31 view .LVU325
 983 0022 8000     		lsls	r0, r0, #2
 984 0024 9847     		blx	r3
 985              	.LVL103:
 233:Algorithm/Filter_Dep/filter.c **** 
 986              		.loc 1 233 29 view .LVU326
 987 0026 E860     		str	r0, [r5, #12]
 235:Algorithm/Filter_Dep/filter.c ****         {
 988              		.loc 1 235 9 is_stmt 1 view .LVU327
 235:Algorithm/Filter_Dep/filter.c ****         {
 989              		.loc 1 235 11 is_stmt 0 view .LVU328
 990 0028 48B1     		cbz	r0, .L72
 242:Algorithm/Filter_Dep/filter.c ****             return 0;
 991              		.loc 1 242 9 is_stmt 1 view .LVU329
 242:Algorithm/Filter_Dep/filter.c ****             return 0;
 992              		.loc 1 242 13 is_stmt 0 view .LVU330
 993 002a 05F10803 		add	r3, r5, #8
 994 002e 2A1D     		adds	r2, r5, #4
 995 0030 0146     		mov	r1, r0
 996 0032 2046     		mov	r0, r4
 997 0034 FFF7FEFF 		bl	Filter_List_Create
 998              	.LVL104:
 242:Algorithm/Filter_Dep/filter.c ****             return 0;
 999              		.loc 1 242 11 view .LVU331
 1000 0038 68B1     		cbz	r0, .L67
 245:Algorithm/Filter_Dep/filter.c ****     }
 1001              		.loc 1 245 9 is_stmt 1 view .LVU332
 245:Algorithm/Filter_Dep/filter.c ****     }
 1002              		.loc 1 245 13 is_stmt 0 view .LVU333
 1003 003a 2846     		mov	r0, r5
 1004              	.LVL105:
 1005              	.L62:
 249:Algorithm/Filter_Dep/filter.c **** 
 1006              		.loc 1 249 1 view .LVU334
 1007 003c 38BD     		pop	{r3, r4, r5, pc}
 1008              	.LVL106:
 1009              	.L72:
 237:Algorithm/Filter_Dep/filter.c ****             FILTER_FREE(param);
 1010              		.loc 1 237 13 is_stmt 1 view .LVU335
 1011 003e 074C     		ldr	r4, .L73
 1012 0040 E36A     		ldr	r3, [r4, #44]
 1013 0042 9847     		blx	r3
ARM GAS  C:\Users\8bit\AppData\Local\Temp\ccCVhsKJ.s 			page 28


 1014              	.LVL107:
 237:Algorithm/Filter_Dep/filter.c ****             FILTER_FREE(param);
 1015              		.loc 1 237 45 view .LVU336
 238:Algorithm/Filter_Dep/filter.c ****             return 0;
 1016              		.loc 1 238 13 view .LVU337
 1017 0044 E36A     		ldr	r3, [r4, #44]
 1018 0046 2846     		mov	r0, r5
 1019 0048 9847     		blx	r3
 1020              	.LVL108:
 238:Algorithm/Filter_Dep/filter.c ****             return 0;
 1021              		.loc 1 238 31 view .LVU338
 239:Algorithm/Filter_Dep/filter.c ****         }
 1022              		.loc 1 239 13 view .LVU339
 239:Algorithm/Filter_Dep/filter.c ****         }
 1023              		.loc 1 239 20 is_stmt 0 view .LVU340
 1024 004a 0020     		movs	r0, #0
 1025 004c F6E7     		b	.L62
 1026              	.LVL109:
 1027              	.L65:
 1028              	.LCFI11:
 1029              		.cfi_def_cfa_offset 0
 1030              		.cfi_restore 3
 1031              		.cfi_restore 4
 1032              		.cfi_restore 5
 1033              		.cfi_restore 14
 221:Algorithm/Filter_Dep/filter.c ****     SmoothWindow_Param_TypeDef *param = NULL;
 1034              		.loc 1 221 22 view .LVU341
 1035 004e 0020     		movs	r0, #0
 1036              	.LVL110:
 249:Algorithm/Filter_Dep/filter.c **** 
 1037              		.loc 1 249 1 view .LVU342
 1038 0050 7047     		bx	lr
 1039              	.LVL111:
 1040              	.L66:
 1041              	.LCFI12:
 1042              		.cfi_def_cfa_offset 16
 1043              		.cfi_offset 3, -16
 1044              		.cfi_offset 4, -12
 1045              		.cfi_offset 5, -8
 1046              		.cfi_offset 14, -4
 229:Algorithm/Filter_Dep/filter.c **** 
 1047              		.loc 1 229 20 view .LVU343
 1048 0052 0020     		movs	r0, #0
 1049              	.LVL112:
 229:Algorithm/Filter_Dep/filter.c **** 
 1050              		.loc 1 229 20 view .LVU344
 1051 0054 F2E7     		b	.L62
 1052              	.L67:
 243:Algorithm/Filter_Dep/filter.c **** 
 1053              		.loc 1 243 20 view .LVU345
 1054 0056 0020     		movs	r0, #0
 1055              	.LVL113:
 243:Algorithm/Filter_Dep/filter.c **** 
 1056              		.loc 1 243 20 view .LVU346
 1057 0058 F0E7     		b	.L62
 1058              	.L74:
 1059 005a 00BF     		.align	2
ARM GAS  C:\Users\8bit\AppData\Local\Temp\ccCVhsKJ.s 			page 29


 1060              	.L73:
 1061 005c 00000000 		.word	SrvOsCommon
 1062              		.cfi_endproc
 1063              	.LFE12:
 1065              		.section	.text.SmoothWindow_Update,"ax",%progbits
 1066              		.align	1
 1067              		.syntax unified
 1068              		.thumb
 1069              		.thumb_func
 1071              	SmoothWindow_Update:
 1072              	.LVL114:
 1073              	.LFB14:
 262:Algorithm/Filter_Dep/filter.c **** 
 263:Algorithm/Filter_Dep/filter.c **** static float SmoothWindow_Update(SW_Object_Handle hdl, float cur_e)
 264:Algorithm/Filter_Dep/filter.c **** {
 1074              		.loc 1 264 1 is_stmt 1 view -0
 1075              		.cfi_startproc
 1076              		@ args = 0, pretend = 0, frame = 8
 1077              		@ frame_needed = 0, uses_anonymous_args = 0
 1078              		.loc 1 264 1 is_stmt 0 view .LVU348
 1079 0000 10B5     		push	{r4, lr}
 1080              	.LCFI13:
 1081              		.cfi_def_cfa_offset 8
 1082              		.cfi_offset 4, -8
 1083              		.cfi_offset 14, -4
 1084 0002 82B0     		sub	sp, sp, #8
 1085              	.LCFI14:
 1086              		.cfi_def_cfa_offset 16
 265:Algorithm/Filter_Dep/filter.c ****     float sum = 0.0f;
 1087              		.loc 1 265 5 is_stmt 1 view .LVU349
 1088              		.loc 1 265 11 is_stmt 0 view .LVU350
 1089 0004 0023     		movs	r3, #0
 1090 0006 0193     		str	r3, [sp, #4]	@ float
 266:Algorithm/Filter_Dep/filter.c ****     SmoothWindow_Param_TypeDef *param = NULL; 
 1091              		.loc 1 266 5 is_stmt 1 view .LVU351
 1092              	.LVL115:
 267:Algorithm/Filter_Dep/filter.c **** 
 268:Algorithm/Filter_Dep/filter.c ****     if(hdl)
 1093              		.loc 1 268 5 view .LVU352
 1094              		.loc 1 268 7 is_stmt 0 view .LVU353
 1095 0008 E0B1     		cbz	r0, .L76
 1096 000a 0446     		mov	r4, r0
 269:Algorithm/Filter_Dep/filter.c ****     {
 270:Algorithm/Filter_Dep/filter.c ****         param = (SmoothWindow_Param_TypeDef *)hdl;
 1097              		.loc 1 270 9 is_stmt 1 view .LVU354
 1098              	.LVL116:
 271:Algorithm/Filter_Dep/filter.c ****     
 272:Algorithm/Filter_Dep/filter.c ****         if(param->smooth_period < param->window_size)
 1099              		.loc 1 272 9 view .LVU355
 1100              		.loc 1 272 17 is_stmt 0 view .LVU356
 1101 000c 4378     		ldrb	r3, [r0, #1]	@ zero_extendqisi2
 1102              		.loc 1 272 40 view .LVU357
 1103 000e 0278     		ldrb	r2, [r0]	@ zero_extendqisi2
 1104              		.loc 1 272 11 view .LVU358
 1105 0010 9342     		cmp	r3, r2
 1106 0012 01D2     		bcs	.L77
 273:Algorithm/Filter_Dep/filter.c ****             param->smooth_period ++;
ARM GAS  C:\Users\8bit\AppData\Local\Temp\ccCVhsKJ.s 			page 30


 1107              		.loc 1 273 13 is_stmt 1 view .LVU359
 1108              		.loc 1 273 34 is_stmt 0 view .LVU360
 1109 0014 0133     		adds	r3, r3, #1
 1110 0016 4370     		strb	r3, [r0, #1]
 1111              	.L77:
 274:Algorithm/Filter_Dep/filter.c **** 
 275:Algorithm/Filter_Dep/filter.c ****         Filter_Item_Update(&(param->window_header), &(param->window_ender), cur_e);
 1112              		.loc 1 275 9 is_stmt 1 view .LVU361
 1113 0018 04F10801 		add	r1, r4, #8
 1114 001c 201D     		adds	r0, r4, #4
 1115              	.LVL117:
 1116              		.loc 1 275 9 is_stmt 0 view .LVU362
 1117 001e FFF7FEFF 		bl	Filter_Item_Update
 1118              	.LVL118:
 276:Algorithm/Filter_Dep/filter.c ****      
 277:Algorithm/Filter_Dep/filter.c ****         List_traverse(param->window_header, SmoothWindow_Comput_Sum, &sum, pre_callback);
 1119              		.loc 1 277 9 is_stmt 1 view .LVU363
 1120 0022 0023     		movs	r3, #0
 1121 0024 01AA     		add	r2, sp, #4
 1122 0026 0949     		ldr	r1, .L79
 1123 0028 6068     		ldr	r0, [r4, #4]
 1124 002a FFF7FEFF 		bl	List_traverse
 1125              	.LVL119:
 278:Algorithm/Filter_Dep/filter.c ****         sum /= param->smooth_period;
 1126              		.loc 1 278 9 view .LVU364
 1127              		.loc 1 278 21 is_stmt 0 view .LVU365
 1128 002e 6378     		ldrb	r3, [r4, #1]	@ zero_extendqisi2
 1129 0030 07EE903A 		vmov	s15, r3	@ int
 1130              		.loc 1 278 13 view .LVU366
 1131 0034 F8EEE77A 		vcvt.f32.s32	s15, s15
 1132 0038 DDED016A 		vldr.32	s13, [sp, #4]
 1133 003c 86EEA77A 		vdiv.f32	s14, s13, s15
 1134 0040 8DED017A 		vstr.32	s14, [sp, #4]
 1135              	.LVL120:
 1136              	.L76:
 279:Algorithm/Filter_Dep/filter.c ****     }
 280:Algorithm/Filter_Dep/filter.c **** 
 281:Algorithm/Filter_Dep/filter.c ****     return sum;
 1137              		.loc 1 281 5 is_stmt 1 view .LVU367
 282:Algorithm/Filter_Dep/filter.c **** }
 1138              		.loc 1 282 1 is_stmt 0 view .LVU368
 1139 0044 9DED010A 		vldr.32	s0, [sp, #4]
 1140 0048 02B0     		add	sp, sp, #8
 1141              	.LCFI15:
 1142              		.cfi_def_cfa_offset 8
 1143              		@ sp needed
 1144 004a 10BD     		pop	{r4, pc}
 1145              	.L80:
 1146              		.align	2
 1147              	.L79:
 1148 004c 00000000 		.word	SmoothWindow_Comput_Sum
 1149              		.cfi_endproc
 1150              	.LFE14:
 1152              		.global	SmoothWindow
 1153              		.global	Butterworth
 1154              		.section	.data.Butterworth,"aw"
 1155              		.align	2
ARM GAS  C:\Users\8bit\AppData\Local\Temp\ccCVhsKJ.s 			page 31


 1158              	Butterworth:
 1159 0000 00000000 		.word	Butterworth_Init
 1160 0004 00000000 		.word	Butterworth_Filter_Update
 1161              		.section	.data.SmoothWindow,"aw"
 1162              		.align	2
 1165              	SmoothWindow:
 1166 0000 00000000 		.word	SmoothWindow_Init
 1167 0004 00000000 		.word	SmoothWindow_Update
 1168              		.text
 1169              	.Letext0:
 1170              		.file 2 "c:\\program files (x86)\\gnu arm embedded toolchain\\10 2021.10\\arm-none-eabi\\include\\
 1171              		.file 3 "c:\\program files (x86)\\gnu arm embedded toolchain\\10 2021.10\\lib\\gcc\\arm-none-eabi\
 1172              		.file 4 "c:\\program files (x86)\\gnu arm embedded toolchain\\10 2021.10\\arm-none-eabi\\include\\
 1173              		.file 5 "DataStructure/linked_list.h"
 1174              		.file 6 "System/FreeRTOS/include/portable.h"
 1175              		.file 7 "Service/Srv_OsCommon.h"
 1176              		.file 8 "Algorithm/Filter_Dep/filter_param.h"
 1177              		.file 9 "Algorithm/Filter_Dep/filter.h"
 1178              		.file 10 "System/FreeRTOS/FreeRTOSConfig.h"
ARM GAS  C:\Users\8bit\AppData\Local\Temp\ccCVhsKJ.s 			page 32


DEFINED SYMBOLS
                            *ABS*:00000000 filter.c
C:\Users\8bit\AppData\Local\Temp\ccCVhsKJ.s:20     .text.Filter_Item_Update:00000000 $t
C:\Users\8bit\AppData\Local\Temp\ccCVhsKJ.s:25     .text.Filter_Item_Update:00000000 Filter_Item_Update
C:\Users\8bit\AppData\Local\Temp\ccCVhsKJ.s:97     .text.Butterworth_Filter_Update:00000000 $t
C:\Users\8bit\AppData\Local\Temp\ccCVhsKJ.s:102    .text.Butterworth_Filter_Update:00000000 Butterworth_Filter_Update
C:\Users\8bit\AppData\Local\Temp\ccCVhsKJ.s:269    .text.Butterworth_Filter_Update:00000094 $d
C:\Users\8bit\AppData\Local\Temp\ccCVhsKJ.s:274    .text.SmoothWindow_Comput_Sum:00000000 $t
C:\Users\8bit\AppData\Local\Temp\ccCVhsKJ.s:279    .text.SmoothWindow_Comput_Sum:00000000 SmoothWindow_Comput_Sum
C:\Users\8bit\AppData\Local\Temp\ccCVhsKJ.s:332    .text.Filter_List_Create:00000000 $t
C:\Users\8bit\AppData\Local\Temp\ccCVhsKJ.s:337    .text.Filter_List_Create:00000000 Filter_List_Create
C:\Users\8bit\AppData\Local\Temp\ccCVhsKJ.s:471    .text.Filter_List_Create:00000070 $d
C:\Users\8bit\AppData\Local\Temp\ccCVhsKJ.s:476    .text.Butterworth_Init:00000000 $t
C:\Users\8bit\AppData\Local\Temp\ccCVhsKJ.s:481    .text.Butterworth_Init:00000000 Butterworth_Init
C:\Users\8bit\AppData\Local\Temp\ccCVhsKJ.s:924    .text.Butterworth_Init:00000198 $d
C:\Users\8bit\AppData\Local\Temp\ccCVhsKJ.s:929    .text.SmoothWindow_Init:00000000 $t
C:\Users\8bit\AppData\Local\Temp\ccCVhsKJ.s:934    .text.SmoothWindow_Init:00000000 SmoothWindow_Init
C:\Users\8bit\AppData\Local\Temp\ccCVhsKJ.s:1061   .text.SmoothWindow_Init:0000005c $d
C:\Users\8bit\AppData\Local\Temp\ccCVhsKJ.s:1066   .text.SmoothWindow_Update:00000000 $t
C:\Users\8bit\AppData\Local\Temp\ccCVhsKJ.s:1071   .text.SmoothWindow_Update:00000000 SmoothWindow_Update
C:\Users\8bit\AppData\Local\Temp\ccCVhsKJ.s:1148   .text.SmoothWindow_Update:0000004c $d
C:\Users\8bit\AppData\Local\Temp\ccCVhsKJ.s:1165   .data.SmoothWindow:00000000 SmoothWindow
C:\Users\8bit\AppData\Local\Temp\ccCVhsKJ.s:1158   .data.Butterworth:00000000 Butterworth
C:\Users\8bit\AppData\Local\Temp\ccCVhsKJ.s:1155   .data.Butterworth:00000000 $d
C:\Users\8bit\AppData\Local\Temp\ccCVhsKJ.s:1162   .data.SmoothWindow:00000000 $d

UNDEFINED SYMBOLS
List_ItemInit
SrvOsCommon
List_traverse
