ARM GAS  /var/folders/8_/_8bzxkcs1296m80nzxdrn9q80000gn/T//ccMa76Fr.s 			page 1


   1              		.cpu cortex-m7
   2              		.eabi_attribute 28, 1
   3              		.eabi_attribute 20, 1
   4              		.eabi_attribute 21, 1
   5              		.eabi_attribute 23, 3
   6              		.eabi_attribute 24, 1
   7              		.eabi_attribute 25, 1
   8              		.eabi_attribute 26, 1
   9              		.eabi_attribute 30, 1
  10              		.eabi_attribute 34, 1
  11              		.eabi_attribute 18, 4
  12              		.file	"filter.c"
  13              		.text
  14              	.Ltext0:
  15              		.cfi_sections	.debug_frame
  16              		.section	.text.Butterworth_Item_Update,"ax",%progbits
  17              		.align	1
  18              		.arch armv7e-m
  19              		.syntax unified
  20              		.thumb
  21              		.thumb_func
  22              		.fpu fpv5-d16
  24              	Butterworth_Item_Update:
  25              	.LVL0:
  26              	.LFB5:
  27              		.file 1 "Algorithm/filter.c"
   1:Algorithm/filter.c **** /*
   2:Algorithm/filter.c ****  * we use tcm section to increase the speed on filter algorithm function execution
   3:Algorithm/filter.c ****  */
   4:Algorithm/filter.c **** 
   5:Algorithm/filter.c **** #include "filter.h"
   6:Algorithm/filter.c **** #include "system_cfg.h"
   7:Algorithm/filter.c **** #include "mmu.h"
   8:Algorithm/filter.c **** 
   9:Algorithm/filter.c **** /* internal function */
  10:Algorithm/filter.c **** static bool Butterworth_List_Create(uint8_t order, item_obj *item, list_obj **header, item_obj **en
  11:Algorithm/filter.c **** static void Butterworth_Item_Update(item_obj **header, item_obj **ender, float cur_data);
  12:Algorithm/filter.c **** 
  13:Algorithm/filter.c **** /* external function */
  14:Algorithm/filter.c **** static BWF_Object_Handle Butterworth_Init(const FilterParam_Obj_TypeDef *param_obj);
  15:Algorithm/filter.c **** static float Butterworth_Filter_Update(BWF_Object_Handle obj, float cur_e);
  16:Algorithm/filter.c **** 
  17:Algorithm/filter.c **** Butterworth_Filter_TypeDef Butterworth = {
  18:Algorithm/filter.c ****     .init = Butterworth_Init,
  19:Algorithm/filter.c ****     .update = Butterworth_Filter_Update,
  20:Algorithm/filter.c **** };
  21:Algorithm/filter.c **** 
  22:Algorithm/filter.c **** static bool Butterworth_List_Create(uint8_t order, item_obj *item, list_obj **header, item_obj **en
  23:Algorithm/filter.c **** {
  24:Algorithm/filter.c ****     for (uint8_t i = 0; i < order; i++)
  25:Algorithm/filter.c ****     {
  26:Algorithm/filter.c ****         float *u_temp = (float *)MMU_Malloc(sizeof(float));
  27:Algorithm/filter.c **** 
  28:Algorithm/filter.c ****         if (u_temp == NULL)
  29:Algorithm/filter.c ****         {
  30:Algorithm/filter.c ****             MMU_Free(u_temp);
  31:Algorithm/filter.c ****             return false;
ARM GAS  /var/folders/8_/_8bzxkcs1296m80nzxdrn9q80000gn/T//ccMa76Fr.s 			page 2


  32:Algorithm/filter.c ****         }
  33:Algorithm/filter.c ****         else
  34:Algorithm/filter.c ****         {
  35:Algorithm/filter.c ****             List_ItemInit(&item[i], u_temp);
  36:Algorithm/filter.c ****             *u_temp = 0.0f;
  37:Algorithm/filter.c ****         }
  38:Algorithm/filter.c **** 
  39:Algorithm/filter.c ****         /* link element */
  40:Algorithm/filter.c ****         if (i > 0)
  41:Algorithm/filter.c ****         {
  42:Algorithm/filter.c ****             item[i - 1].nxt = &item[i];
  43:Algorithm/filter.c ****             item[i].prv = &item[i - 1];
  44:Algorithm/filter.c ****         }
  45:Algorithm/filter.c ****         else
  46:Algorithm/filter.c ****             *header = &item[0];
  47:Algorithm/filter.c ****     }
  48:Algorithm/filter.c **** 
  49:Algorithm/filter.c ****     *ender = &item[order - 1];
  50:Algorithm/filter.c **** 
  51:Algorithm/filter.c ****     return true;
  52:Algorithm/filter.c **** }
  53:Algorithm/filter.c **** 
  54:Algorithm/filter.c **** static BWF_Object_Handle Butterworth_Init(const FilterParam_Obj_TypeDef *param_obj)
  55:Algorithm/filter.c **** {
  56:Algorithm/filter.c ****     Filter_ButterworthParam_TypeDef *BWF_Obj = NULL;
  57:Algorithm/filter.c ****     uint8_t e_cnt = 0;
  58:Algorithm/filter.c ****     uint8_t u_cnt = 0;
  59:Algorithm/filter.c **** 
  60:Algorithm/filter.c ****     if(param_obj == NULL)
  61:Algorithm/filter.c ****         return 0;
  62:Algorithm/filter.c **** 
  63:Algorithm/filter.c ****     if (param_obj->order > 1)
  64:Algorithm/filter.c ****     {
  65:Algorithm/filter.c ****         e_cnt = param_obj->order + 1;
  66:Algorithm/filter.c ****         u_cnt = param_obj->order;
  67:Algorithm/filter.c ****         
  68:Algorithm/filter.c ****         if ((param_obj->ep_list == NULL) || (param_obj->up_list == NULL))
  69:Algorithm/filter.c ****             return 0;
  70:Algorithm/filter.c **** 
  71:Algorithm/filter.c ****         BWF_Obj = MMU_Malloc(sizeof(Filter_ButterworthParam_TypeDef));
  72:Algorithm/filter.c **** 
  73:Algorithm/filter.c ****         if (BWF_Obj == NULL)
  74:Algorithm/filter.c ****         {
  75:Algorithm/filter.c ****             MMU_Free(BWF_Obj);
  76:Algorithm/filter.c ****             return 0;
  77:Algorithm/filter.c ****         }
  78:Algorithm/filter.c **** 
  79:Algorithm/filter.c ****         BWF_Obj->p_e_data_cache = MMU_Malloc(sizeof(item_obj) * e_cnt);
  80:Algorithm/filter.c ****         if (BWF_Obj->p_e_data_cache == NULL)
  81:Algorithm/filter.c ****         {
  82:Algorithm/filter.c ****             MMU_Free(BWF_Obj->p_e_data_cache);
  83:Algorithm/filter.c ****             MMU_Free(BWF_Obj);
  84:Algorithm/filter.c ****             return 0;
  85:Algorithm/filter.c ****         }
  86:Algorithm/filter.c ****         else
  87:Algorithm/filter.c ****         {
  88:Algorithm/filter.c ****             if (!Butterworth_List_Create(e_cnt, BWF_Obj->p_e_data_cache, &(BWF_Obj->p_e_list_header
ARM GAS  /var/folders/8_/_8bzxkcs1296m80nzxdrn9q80000gn/T//ccMa76Fr.s 			page 3


  89:Algorithm/filter.c ****             {
  90:Algorithm/filter.c ****                 MMU_Free(BWF_Obj->p_e_data_cache);
  91:Algorithm/filter.c ****                 MMU_Free(BWF_Obj);
  92:Algorithm/filter.c ****                 return 0;
  93:Algorithm/filter.c ****             }
  94:Algorithm/filter.c ****         }
  95:Algorithm/filter.c **** 
  96:Algorithm/filter.c ****         BWF_Obj->p_u_data_cache = MMU_Malloc(sizeof(item_obj) * u_cnt);
  97:Algorithm/filter.c ****         if (BWF_Obj->p_u_data_cache == NULL)
  98:Algorithm/filter.c ****         {
  99:Algorithm/filter.c ****             MMU_Free(BWF_Obj->p_e_data_cache);
 100:Algorithm/filter.c ****             MMU_Free(BWF_Obj->p_u_data_cache);
 101:Algorithm/filter.c ****             MMU_Free(BWF_Obj);
 102:Algorithm/filter.c ****             return 0;
 103:Algorithm/filter.c ****         }
 104:Algorithm/filter.c ****         else
 105:Algorithm/filter.c ****         {
 106:Algorithm/filter.c ****             if (!Butterworth_List_Create(u_cnt, BWF_Obj->p_u_data_cache, &(BWF_Obj->p_u_list_header
 107:Algorithm/filter.c ****             {
 108:Algorithm/filter.c ****                 MMU_Free(BWF_Obj->p_e_data_cache);
 109:Algorithm/filter.c ****                 MMU_Free(BWF_Obj->p_u_data_cache);
 110:Algorithm/filter.c ****                 MMU_Free(BWF_Obj);
 111:Algorithm/filter.c ****                 return 0;
 112:Algorithm/filter.c ****             }
 113:Algorithm/filter.c ****         }
 114:Algorithm/filter.c **** 
 115:Algorithm/filter.c ****         BWF_Obj->e_para_buf = MMU_Malloc(sizeof(float) * e_cnt);
 116:Algorithm/filter.c ****         if(BWF_Obj->e_para_buf == NULL)
 117:Algorithm/filter.c ****         {
 118:Algorithm/filter.c ****             MMU_Free(BWF_Obj->e_para_buf);
 119:Algorithm/filter.c ****             MMU_Free(BWF_Obj->p_e_data_cache);
 120:Algorithm/filter.c ****             MMU_Free(BWF_Obj->p_u_data_cache);
 121:Algorithm/filter.c ****             MMU_Free(BWF_Obj);
 122:Algorithm/filter.c ****             return 0;
 123:Algorithm/filter.c ****         }
 124:Algorithm/filter.c **** 
 125:Algorithm/filter.c ****         BWF_Obj->u_para_buf = MMU_Malloc(sizeof(float) * u_cnt);
 126:Algorithm/filter.c ****         if(BWF_Obj->u_para_buf == NULL)
 127:Algorithm/filter.c ****         {
 128:Algorithm/filter.c ****             MMU_Free(BWF_Obj->e_para_buf);
 129:Algorithm/filter.c ****             MMU_Free(BWF_Obj->u_para_buf);
 130:Algorithm/filter.c ****             MMU_Free(BWF_Obj->p_e_data_cache);
 131:Algorithm/filter.c ****             MMU_Free(BWF_Obj->p_u_data_cache);
 132:Algorithm/filter.c ****             MMU_Free(BWF_Obj);
 133:Algorithm/filter.c ****             return 0;
 134:Algorithm/filter.c ****         }
 135:Algorithm/filter.c **** 
 136:Algorithm/filter.c ****         BWF_Obj->order = param_obj->order;
 137:Algorithm/filter.c **** 
 138:Algorithm/filter.c ****         for(uint8_t i = 0; i < e_cnt; i++)
 139:Algorithm/filter.c ****         {
 140:Algorithm/filter.c ****             BWF_Obj->e_para_buf[i] = param_obj->ep_list[i].p * param_obj->ep_list[i].scale;
 141:Algorithm/filter.c ****         
 142:Algorithm/filter.c ****             if(i < u_cnt)
 143:Algorithm/filter.c ****             {
 144:Algorithm/filter.c ****                 BWF_Obj->u_para_buf[i] = param_obj->up_list[i].p * param_obj->up_list[i].scale;
 145:Algorithm/filter.c ****             }
ARM GAS  /var/folders/8_/_8bzxkcs1296m80nzxdrn9q80000gn/T//ccMa76Fr.s 			page 4


 146:Algorithm/filter.c ****         }
 147:Algorithm/filter.c ****     }
 148:Algorithm/filter.c **** 
 149:Algorithm/filter.c ****     return (uint32_t)BWF_Obj;
 150:Algorithm/filter.c **** }
 151:Algorithm/filter.c **** 
 152:Algorithm/filter.c **** static void Butterworth_Item_Update(item_obj **header, item_obj **ender, float cur_data)
 153:Algorithm/filter.c **** {
  28              		.loc 1 153 1 view -0
  29              		.cfi_startproc
  30              		@ args = 0, pretend = 0, frame = 0
  31              		@ frame_needed = 0, uses_anonymous_args = 0
  32              		@ link register save eliminated.
  33              		.loc 1 153 1 is_stmt 0 view .LVU1
  34 0000 10B4     		push	{r4}
  35              	.LCFI0:
  36              		.cfi_def_cfa_offset 4
  37              		.cfi_offset 4, -4
 154:Algorithm/filter.c ****     item_obj *i_tmp = NULL;
  38              		.loc 1 154 5 is_stmt 1 view .LVU2
  39              	.LVL1:
 155:Algorithm/filter.c **** 
 156:Algorithm/filter.c ****     *((float *)((*ender)->data)) = cur_data;
  40              		.loc 1 156 5 view .LVU3
  41              		.loc 1 156 18 is_stmt 0 view .LVU4
  42 0002 0B68     		ldr	r3, [r1]
  43              		.loc 1 156 25 view .LVU5
  44 0004 1B69     		ldr	r3, [r3, #16]
  45              		.loc 1 156 34 view .LVU6
  46 0006 83ED000A 		vstr.32	s0, [r3]
 157:Algorithm/filter.c ****     (*ender)->prv->nxt = NULL;
  47              		.loc 1 157 5 is_stmt 1 view .LVU7
  48              		.loc 1 157 6 is_stmt 0 view .LVU8
  49 000a 0B68     		ldr	r3, [r1]
  50              		.loc 1 157 13 view .LVU9
  51 000c 9B68     		ldr	r3, [r3, #8]
  52              		.loc 1 157 24 view .LVU10
  53 000e 0022     		movs	r2, #0
  54 0010 DA60     		str	r2, [r3, #12]
 158:Algorithm/filter.c ****     i_tmp = (*ender)->prv;
  55              		.loc 1 158 5 is_stmt 1 view .LVU11
  56              		.loc 1 158 14 is_stmt 0 view .LVU12
  57 0012 0B68     		ldr	r3, [r1]
  58              		.loc 1 158 11 view .LVU13
  59 0014 9C68     		ldr	r4, [r3, #8]
  60              	.LVL2:
 159:Algorithm/filter.c ****     (*ender)->prv = NULL;
  61              		.loc 1 159 5 is_stmt 1 view .LVU14
  62              		.loc 1 159 19 is_stmt 0 view .LVU15
  63 0016 9A60     		str	r2, [r3, #8]
 160:Algorithm/filter.c ****     (*header)->prv = *ender;
  64              		.loc 1 160 5 is_stmt 1 view .LVU16
  65              		.loc 1 160 6 is_stmt 0 view .LVU17
  66 0018 0268     		ldr	r2, [r0]
  67              		.loc 1 160 22 view .LVU18
  68 001a 0B68     		ldr	r3, [r1]
  69              		.loc 1 160 20 view .LVU19
ARM GAS  /var/folders/8_/_8bzxkcs1296m80nzxdrn9q80000gn/T//ccMa76Fr.s 			page 5


  70 001c 9360     		str	r3, [r2, #8]
 161:Algorithm/filter.c ****     (*ender)->nxt = *header;
  71              		.loc 1 161 5 is_stmt 1 view .LVU20
  72              		.loc 1 161 21 is_stmt 0 view .LVU21
  73 001e 0268     		ldr	r2, [r0]
  74              		.loc 1 161 19 view .LVU22
  75 0020 DA60     		str	r2, [r3, #12]
 162:Algorithm/filter.c ****     *header = *ender;
  76              		.loc 1 162 5 is_stmt 1 view .LVU23
  77              		.loc 1 162 15 is_stmt 0 view .LVU24
  78 0022 0B68     		ldr	r3, [r1]
  79              		.loc 1 162 13 view .LVU25
  80 0024 0360     		str	r3, [r0]
 163:Algorithm/filter.c ****     *ender = i_tmp;
  81              		.loc 1 163 5 is_stmt 1 view .LVU26
  82              		.loc 1 163 12 is_stmt 0 view .LVU27
  83 0026 0C60     		str	r4, [r1]
 164:Algorithm/filter.c **** }
  84              		.loc 1 164 1 view .LVU28
  85 0028 5DF8044B 		ldr	r4, [sp], #4
  86              	.LCFI1:
  87              		.cfi_restore 4
  88              		.cfi_def_cfa_offset 0
  89              	.LVL3:
  90              		.loc 1 164 1 view .LVU29
  91 002c 7047     		bx	lr
  92              		.cfi_endproc
  93              	.LFE5:
  95              		.section	.text.Butterworth_Filter_Update,"ax",%progbits
  96              		.align	1
  97              		.syntax unified
  98              		.thumb
  99              		.thumb_func
 100              		.fpu fpv5-d16
 102              	Butterworth_Filter_Update:
 103              	.LVL4:
 104              	.LFB6:
 165:Algorithm/filter.c **** 
 166:Algorithm/filter.c **** static float Butterworth_Filter_Update(BWF_Object_Handle obj, float cur_e)
 167:Algorithm/filter.c **** {
 105              		.loc 1 167 1 is_stmt 1 view -0
 106              		.cfi_startproc
 107              		@ args = 0, pretend = 0, frame = 0
 108              		@ frame_needed = 0, uses_anonymous_args = 0
 109              		.loc 1 167 1 is_stmt 0 view .LVU31
 110 0000 10B5     		push	{r4, lr}
 111              	.LCFI2:
 112              		.cfi_def_cfa_offset 8
 113              		.cfi_offset 4, -8
 114              		.cfi_offset 14, -4
 115 0002 2DED028B 		vpush.64	{d8}
 116              	.LCFI3:
 117              		.cfi_def_cfa_offset 16
 118              		.cfi_offset 80, -16
 119              		.cfi_offset 81, -12
 168:Algorithm/filter.c ****     Filter_ButterworthParam_TypeDef *filter_obj = NULL;
 120              		.loc 1 168 5 is_stmt 1 view .LVU32
ARM GAS  /var/folders/8_/_8bzxkcs1296m80nzxdrn9q80000gn/T//ccMa76Fr.s 			page 6


 121              	.LVL5:
 169:Algorithm/filter.c ****     item_obj *u_item = NULL;
 122              		.loc 1 169 5 view .LVU33
 170:Algorithm/filter.c ****     item_obj *e_item = NULL;
 123              		.loc 1 170 5 view .LVU34
 171:Algorithm/filter.c **** 
 172:Algorithm/filter.c ****     float u_tmp = 0.0f;
 124              		.loc 1 172 5 view .LVU35
 173:Algorithm/filter.c ****     float E_Additive = 0.0f;
 125              		.loc 1 173 5 view .LVU36
 174:Algorithm/filter.c ****     float U_Additive = 0.0f;
 126              		.loc 1 174 5 view .LVU37
 175:Algorithm/filter.c **** 
 176:Algorithm/filter.c ****     if (obj)
 127              		.loc 1 176 5 view .LVU38
 128              		.loc 1 176 8 is_stmt 0 view .LVU39
 129 0006 30B9     		cbnz	r0, .L11
 172:Algorithm/filter.c ****     float E_Additive = 0.0f;
 130              		.loc 1 172 11 view .LVU40
 131 0008 9FED238A 		vldr.32	s16, .L13
 177:Algorithm/filter.c ****     {
 178:Algorithm/filter.c ****         filter_obj = (Filter_ButterworthParam_TypeDef *)obj;
 179:Algorithm/filter.c ****         Butterworth_Item_Update(&(filter_obj->p_e_list_header), &(filter_obj->p_e_list_ender), cur_
 180:Algorithm/filter.c **** 
 181:Algorithm/filter.c ****         u_item = filter_obj->p_u_list_header;
 182:Algorithm/filter.c ****         e_item = filter_obj->p_e_list_header;
 183:Algorithm/filter.c **** 
 184:Algorithm/filter.c ****         for (uint8_t i = 0; i < filter_obj->order + 1; i++)
 185:Algorithm/filter.c ****         {
 186:Algorithm/filter.c ****             /* comput E additive */
 187:Algorithm/filter.c ****             if (e_item)
 188:Algorithm/filter.c ****             {
 189:Algorithm/filter.c ****                 E_Additive += filter_obj->e_para_buf[i] * (*(float *)(e_item->data));
 190:Algorithm/filter.c ****                 e_item = e_item->nxt;
 191:Algorithm/filter.c ****             }
 192:Algorithm/filter.c **** 
 193:Algorithm/filter.c ****             /* comput U additive */
 194:Algorithm/filter.c ****             if (i <= filter_obj->order && u_item)
 195:Algorithm/filter.c ****             {
 196:Algorithm/filter.c ****                 U_Additive += filter_obj->u_para_buf[i] * (*(float *)(u_item->data));
 197:Algorithm/filter.c ****                 u_item = u_item->nxt;
 198:Algorithm/filter.c ****             }
 199:Algorithm/filter.c ****         }
 200:Algorithm/filter.c **** 
 201:Algorithm/filter.c ****         u_tmp = E_Additive - U_Additive;
 202:Algorithm/filter.c ****         /* update last time filted data */
 203:Algorithm/filter.c ****         Butterworth_Item_Update(&(filter_obj->p_u_list_header), &(filter_obj->p_u_list_ender), u_tm
 204:Algorithm/filter.c ****     }
 205:Algorithm/filter.c **** 
 206:Algorithm/filter.c ****     return u_tmp;
 132              		.loc 1 206 5 is_stmt 1 view .LVU41
 133              	.LVL6:
 134              	.L3:
 207:Algorithm/filter.c **** }
 135              		.loc 1 207 1 is_stmt 0 view .LVU42
 136 000c B0EE480A 		vmov.f32	s0, s16
 137 0010 BDEC028B 		vldm	sp!, {d8}
ARM GAS  /var/folders/8_/_8bzxkcs1296m80nzxdrn9q80000gn/T//ccMa76Fr.s 			page 7


 138              	.LCFI4:
 139              		.cfi_remember_state
 140              		.cfi_restore 80
 141              		.cfi_restore 81
 142              		.cfi_def_cfa_offset 8
 143 0014 10BD     		pop	{r4, pc}
 144              	.LVL7:
 145              	.L11:
 146              	.LCFI5:
 147              		.cfi_restore_state
 148              		.loc 1 207 1 view .LVU43
 149 0016 0446     		mov	r4, r0
 178:Algorithm/filter.c ****         Butterworth_Item_Update(&(filter_obj->p_e_list_header), &(filter_obj->p_e_list_ender), cur_
 150              		.loc 1 178 9 is_stmt 1 view .LVU44
 151              	.LVL8:
 179:Algorithm/filter.c **** 
 152              		.loc 1 179 9 view .LVU45
 153 0018 00F10D01 		add	r1, r0, #13
 154 001c 0930     		adds	r0, r0, #9
 155              	.LVL9:
 179:Algorithm/filter.c **** 
 156              		.loc 1 179 9 is_stmt 0 view .LVU46
 157 001e FFF7FEFF 		bl	Butterworth_Item_Update
 158              	.LVL10:
 181:Algorithm/filter.c ****         e_item = filter_obj->p_e_list_header;
 159              		.loc 1 181 9 is_stmt 1 view .LVU47
 181:Algorithm/filter.c ****         e_item = filter_obj->p_e_list_header;
 160              		.loc 1 181 16 is_stmt 0 view .LVU48
 161 0022 D4F81110 		ldr	r1, [r4, #17]	@ unaligned
 162              	.LVL11:
 182:Algorithm/filter.c **** 
 163              		.loc 1 182 9 is_stmt 1 view .LVU49
 182:Algorithm/filter.c **** 
 164              		.loc 1 182 16 is_stmt 0 view .LVU50
 165 0026 D4F80920 		ldr	r2, [r4, #9]	@ unaligned
 166              	.LVL12:
 184:Algorithm/filter.c ****         {
 167              		.loc 1 184 9 is_stmt 1 view .LVU51
 168              	.LBB2:
 184:Algorithm/filter.c ****         {
 169              		.loc 1 184 14 view .LVU52
 184:Algorithm/filter.c ****         {
 170              		.loc 1 184 22 is_stmt 0 view .LVU53
 171 002a 0023     		movs	r3, #0
 172              	.LBE2:
 174:Algorithm/filter.c **** 
 173              		.loc 1 174 11 view .LVU54
 174 002c 9FED1A8A 		vldr.32	s16, .L13
 173:Algorithm/filter.c ****     float U_Additive = 0.0f;
 175              		.loc 1 173 11 view .LVU55
 176 0030 B0EE487A 		vmov.f32	s14, s16
 177              	.LBB3:
 184:Algorithm/filter.c ****         {
 178              		.loc 1 184 9 view .LVU56
 179 0034 01E0     		b	.L5
 180              	.LVL13:
 181              	.L7:
ARM GAS  /var/folders/8_/_8bzxkcs1296m80nzxdrn9q80000gn/T//ccMa76Fr.s 			page 8


 184:Algorithm/filter.c ****         {
 182              		.loc 1 184 56 is_stmt 1 discriminator 2 view .LVU57
 184:Algorithm/filter.c ****         {
 183              		.loc 1 184 57 is_stmt 0 discriminator 2 view .LVU58
 184 0036 0133     		adds	r3, r3, #1
 185              	.LVL14:
 184:Algorithm/filter.c ****         {
 186              		.loc 1 184 57 discriminator 2 view .LVU59
 187 0038 DBB2     		uxtb	r3, r3
 188              	.LVL15:
 189              	.L5:
 184:Algorithm/filter.c ****         {
 190              		.loc 1 184 29 is_stmt 1 discriminator 1 view .LVU60
 184:Algorithm/filter.c ****         {
 191              		.loc 1 184 43 is_stmt 0 discriminator 1 view .LVU61
 192 003a 2078     		ldrb	r0, [r4]	@ zero_extendqisi2
 184:Algorithm/filter.c ****         {
 193              		.loc 1 184 9 discriminator 1 view .LVU62
 194 003c 9842     		cmp	r0, r3
 195 003e 1FD3     		bcc	.L12
 187:Algorithm/filter.c ****             {
 196              		.loc 1 187 13 is_stmt 1 view .LVU63
 187:Algorithm/filter.c ****             {
 197              		.loc 1 187 16 is_stmt 0 view .LVU64
 198 0040 6AB1     		cbz	r2, .L6
 189:Algorithm/filter.c ****                 e_item = e_item->nxt;
 199              		.loc 1 189 17 is_stmt 1 view .LVU65
 189:Algorithm/filter.c ****                 e_item = e_item->nxt;
 200              		.loc 1 189 41 is_stmt 0 view .LVU66
 201 0042 D4F80100 		ldr	r0, [r4, #1]	@ unaligned
 189:Algorithm/filter.c ****                 e_item = e_item->nxt;
 202              		.loc 1 189 53 view .LVU67
 203 0046 00EB8300 		add	r0, r0, r3, lsl #2
 204 004a D0ED007A 		vldr.32	s15, [r0]
 189:Algorithm/filter.c ****                 e_item = e_item->nxt;
 205              		.loc 1 189 77 view .LVU68
 206 004e 1069     		ldr	r0, [r2, #16]
 189:Algorithm/filter.c ****                 e_item = e_item->nxt;
 207              		.loc 1 189 60 view .LVU69
 208 0050 D0ED006A 		vldr.32	s13, [r0]
 189:Algorithm/filter.c ****                 e_item = e_item->nxt;
 209              		.loc 1 189 57 view .LVU70
 210 0054 67EEA67A 		vmul.f32	s15, s15, s13
 189:Algorithm/filter.c ****                 e_item = e_item->nxt;
 211              		.loc 1 189 28 view .LVU71
 212 0058 37EE277A 		vadd.f32	s14, s14, s15
 213              	.LVL16:
 190:Algorithm/filter.c ****             }
 214              		.loc 1 190 17 is_stmt 1 view .LVU72
 190:Algorithm/filter.c ****             }
 215              		.loc 1 190 24 is_stmt 0 view .LVU73
 216 005c D268     		ldr	r2, [r2, #12]
 217              	.LVL17:
 218              	.L6:
 194:Algorithm/filter.c ****             {
 219              		.loc 1 194 13 is_stmt 1 view .LVU74
 194:Algorithm/filter.c ****             {
ARM GAS  /var/folders/8_/_8bzxkcs1296m80nzxdrn9q80000gn/T//ccMa76Fr.s 			page 9


 220              		.loc 1 194 40 is_stmt 0 view .LVU75
 221 005e 0029     		cmp	r1, #0
 222 0060 E9D0     		beq	.L7
 196:Algorithm/filter.c ****                 u_item = u_item->nxt;
 223              		.loc 1 196 17 is_stmt 1 view .LVU76
 196:Algorithm/filter.c ****                 u_item = u_item->nxt;
 224              		.loc 1 196 41 is_stmt 0 view .LVU77
 225 0062 D4F80500 		ldr	r0, [r4, #5]	@ unaligned
 196:Algorithm/filter.c ****                 u_item = u_item->nxt;
 226              		.loc 1 196 53 view .LVU78
 227 0066 00EB8300 		add	r0, r0, r3, lsl #2
 228 006a D0ED007A 		vldr.32	s15, [r0]
 196:Algorithm/filter.c ****                 u_item = u_item->nxt;
 229              		.loc 1 196 77 view .LVU79
 230 006e 0869     		ldr	r0, [r1, #16]
 196:Algorithm/filter.c ****                 u_item = u_item->nxt;
 231              		.loc 1 196 60 view .LVU80
 232 0070 D0ED006A 		vldr.32	s13, [r0]
 196:Algorithm/filter.c ****                 u_item = u_item->nxt;
 233              		.loc 1 196 57 view .LVU81
 234 0074 67EEA67A 		vmul.f32	s15, s15, s13
 196:Algorithm/filter.c ****                 u_item = u_item->nxt;
 235              		.loc 1 196 28 view .LVU82
 236 0078 38EE278A 		vadd.f32	s16, s16, s15
 237              	.LVL18:
 197:Algorithm/filter.c ****             }
 238              		.loc 1 197 17 is_stmt 1 view .LVU83
 197:Algorithm/filter.c ****             }
 239              		.loc 1 197 24 is_stmt 0 view .LVU84
 240 007c C968     		ldr	r1, [r1, #12]
 241              	.LVL19:
 197:Algorithm/filter.c ****             }
 242              		.loc 1 197 24 view .LVU85
 243 007e DAE7     		b	.L7
 244              	.L12:
 197:Algorithm/filter.c ****             }
 245              		.loc 1 197 24 view .LVU86
 246              	.LBE3:
 201:Algorithm/filter.c ****         /* update last time filted data */
 247              		.loc 1 201 9 is_stmt 1 view .LVU87
 201:Algorithm/filter.c ****         /* update last time filted data */
 248              		.loc 1 201 15 is_stmt 0 view .LVU88
 249 0080 37EE488A 		vsub.f32	s16, s14, s16
 250              	.LVL20:
 203:Algorithm/filter.c ****     }
 251              		.loc 1 203 9 is_stmt 1 view .LVU89
 252 0084 B0EE480A 		vmov.f32	s0, s16
 253 0088 04F11501 		add	r1, r4, #21
 254              	.LVL21:
 203:Algorithm/filter.c ****     }
 255              		.loc 1 203 9 is_stmt 0 view .LVU90
 256 008c 04F11100 		add	r0, r4, #17
 257 0090 FFF7FEFF 		bl	Butterworth_Item_Update
 258              	.LVL22:
 203:Algorithm/filter.c ****     }
 259              		.loc 1 203 9 view .LVU91
 260 0094 BAE7     		b	.L3
ARM GAS  /var/folders/8_/_8bzxkcs1296m80nzxdrn9q80000gn/T//ccMa76Fr.s 			page 10


 261              	.L14:
 262 0096 00BF     		.align	2
 263              	.L13:
 264 0098 00000000 		.word	0
 265              		.cfi_endproc
 266              	.LFE6:
 268              		.section	.text.Butterworth_List_Create,"ax",%progbits
 269              		.align	1
 270              		.syntax unified
 271              		.thumb
 272              		.thumb_func
 273              		.fpu fpv5-d16
 275              	Butterworth_List_Create:
 276              	.LVL23:
 277              	.LFB3:
  23:Algorithm/filter.c ****     for (uint8_t i = 0; i < order; i++)
 278              		.loc 1 23 1 is_stmt 1 view -0
 279              		.cfi_startproc
 280              		@ args = 0, pretend = 0, frame = 0
 281              		@ frame_needed = 0, uses_anonymous_args = 0
  23:Algorithm/filter.c ****     for (uint8_t i = 0; i < order; i++)
 282              		.loc 1 23 1 is_stmt 0 view .LVU93
 283 0000 2DE9F84F 		push	{r3, r4, r5, r6, r7, r8, r9, r10, fp, lr}
 284              	.LCFI6:
 285              		.cfi_def_cfa_offset 40
 286              		.cfi_offset 3, -40
 287              		.cfi_offset 4, -36
 288              		.cfi_offset 5, -32
 289              		.cfi_offset 6, -28
 290              		.cfi_offset 7, -24
 291              		.cfi_offset 8, -20
 292              		.cfi_offset 9, -16
 293              		.cfi_offset 10, -12
 294              		.cfi_offset 11, -8
 295              		.cfi_offset 14, -4
 296 0004 8046     		mov	r8, r0
 297 0006 0F46     		mov	r7, r1
 298 0008 9146     		mov	r9, r2
 299 000a 9A46     		mov	r10, r3
  24:Algorithm/filter.c ****     {
 300              		.loc 1 24 5 is_stmt 1 view .LVU94
 301              	.LBB4:
  24:Algorithm/filter.c ****     {
 302              		.loc 1 24 10 view .LVU95
 303              	.LVL24:
  24:Algorithm/filter.c ****     {
 304              		.loc 1 24 18 is_stmt 0 view .LVU96
 305 000c 0024     		movs	r4, #0
  24:Algorithm/filter.c ****     {
 306              		.loc 1 24 5 view .LVU97
 307 000e 07E0     		b	.L16
 308              	.LVL25:
 309              	.L24:
 310              	.LBB5:
  30:Algorithm/filter.c ****             return false;
 311              		.loc 1 30 13 is_stmt 1 view .LVU98
 312 0010 FFF7FEFF 		bl	MMU_Free
ARM GAS  /var/folders/8_/_8bzxkcs1296m80nzxdrn9q80000gn/T//ccMa76Fr.s 			page 11


 313              	.LVL26:
  31:Algorithm/filter.c ****         }
 314              		.loc 1 31 13 view .LVU99
  31:Algorithm/filter.c ****         }
 315              		.loc 1 31 20 is_stmt 0 view .LVU100
 316 0014 0020     		movs	r0, #0
 317 0016 26E0     		b	.L18
 318              	.L19:
  46:Algorithm/filter.c ****     }
 319              		.loc 1 46 13 is_stmt 1 view .LVU101
  46:Algorithm/filter.c ****     }
 320              		.loc 1 46 21 is_stmt 0 view .LVU102
 321 0018 C9F80070 		str	r7, [r9]
 322              	.L20:
  46:Algorithm/filter.c ****     }
 323              		.loc 1 46 21 view .LVU103
 324              	.LBE5:
  24:Algorithm/filter.c ****     {
 325              		.loc 1 24 36 is_stmt 1 discriminator 2 view .LVU104
  24:Algorithm/filter.c ****     {
 326              		.loc 1 24 37 is_stmt 0 discriminator 2 view .LVU105
 327 001c 0134     		adds	r4, r4, #1
 328              	.LVL27:
  24:Algorithm/filter.c ****     {
 329              		.loc 1 24 37 discriminator 2 view .LVU106
 330 001e E4B2     		uxtb	r4, r4
 331              	.LVL28:
 332              	.L16:
  24:Algorithm/filter.c ****     {
 333              		.loc 1 24 25 is_stmt 1 discriminator 1 view .LVU107
  24:Algorithm/filter.c ****     {
 334              		.loc 1 24 5 is_stmt 0 discriminator 1 view .LVU108
 335 0020 4445     		cmp	r4, r8
 336 0022 18D2     		bcs	.L23
 337              	.LBB6:
  26:Algorithm/filter.c **** 
 338              		.loc 1 26 9 is_stmt 1 view .LVU109
  26:Algorithm/filter.c **** 
 339              		.loc 1 26 34 is_stmt 0 view .LVU110
 340 0024 0420     		movs	r0, #4
 341 0026 FFF7FEFF 		bl	MMU_Malloc
 342              	.LVL29:
  28:Algorithm/filter.c ****         {
 343              		.loc 1 28 9 is_stmt 1 view .LVU111
  28:Algorithm/filter.c ****         {
 344              		.loc 1 28 12 is_stmt 0 view .LVU112
 345 002a 8346     		mov	fp, r0
 346 002c 0028     		cmp	r0, #0
 347 002e EFD0     		beq	.L24
  35:Algorithm/filter.c ****             *u_temp = 0.0f;
 348              		.loc 1 35 13 is_stmt 1 view .LVU113
  35:Algorithm/filter.c ****             *u_temp = 0.0f;
 349              		.loc 1 35 32 is_stmt 0 view .LVU114
 350 0030 04EB8405 		add	r5, r4, r4, lsl #2
 351 0034 AE00     		lsls	r6, r5, #2
  35:Algorithm/filter.c ****             *u_temp = 0.0f;
 352              		.loc 1 35 13 view .LVU115
ARM GAS  /var/folders/8_/_8bzxkcs1296m80nzxdrn9q80000gn/T//ccMa76Fr.s 			page 12


 353 0036 07EB8505 		add	r5, r7, r5, lsl #2
 354 003a 0146     		mov	r1, r0
 355 003c 2846     		mov	r0, r5
 356              	.LVL30:
  35:Algorithm/filter.c ****             *u_temp = 0.0f;
 357              		.loc 1 35 13 view .LVU116
 358 003e FFF7FEFF 		bl	List_ItemInit
 359              	.LVL31:
  36:Algorithm/filter.c ****         }
 360              		.loc 1 36 13 is_stmt 1 view .LVU117
  36:Algorithm/filter.c ****         }
 361              		.loc 1 36 21 is_stmt 0 view .LVU118
 362 0042 0023     		movs	r3, #0
 363 0044 CBF80030 		str	r3, [fp]	@ float
  40:Algorithm/filter.c ****         {
 364              		.loc 1 40 9 is_stmt 1 view .LVU119
  40:Algorithm/filter.c ****         {
 365              		.loc 1 40 12 is_stmt 0 view .LVU120
 366 0048 002C     		cmp	r4, #0
 367 004a E5D0     		beq	.L19
  42:Algorithm/filter.c ****             item[i].prv = &item[i - 1];
 368              		.loc 1 42 13 is_stmt 1 view .LVU121
  42:Algorithm/filter.c ****             item[i].prv = &item[i - 1];
 369              		.loc 1 42 17 is_stmt 0 view .LVU122
 370 004c 143E     		subs	r6, r6, #20
 371 004e 3E44     		add	r6, r6, r7
  42:Algorithm/filter.c ****             item[i].prv = &item[i - 1];
 372              		.loc 1 42 29 view .LVU123
 373 0050 F560     		str	r5, [r6, #12]
  43:Algorithm/filter.c ****         }
 374              		.loc 1 43 13 is_stmt 1 view .LVU124
  43:Algorithm/filter.c ****         }
 375              		.loc 1 43 25 is_stmt 0 view .LVU125
 376 0052 AE60     		str	r6, [r5, #8]
 377 0054 E2E7     		b	.L20
 378              	.LVL32:
 379              	.L23:
  43:Algorithm/filter.c ****         }
 380              		.loc 1 43 25 view .LVU126
 381              	.LBE6:
 382              	.LBE4:
  49:Algorithm/filter.c **** 
 383              		.loc 1 49 5 is_stmt 1 view .LVU127
  49:Algorithm/filter.c **** 
 384              		.loc 1 49 19 is_stmt 0 view .LVU128
 385 0056 08EB8803 		add	r3, r8, r8, lsl #2
 386 005a 9B00     		lsls	r3, r3, #2
 387 005c 143B     		subs	r3, r3, #20
  49:Algorithm/filter.c **** 
 388              		.loc 1 49 14 view .LVU129
 389 005e 1F44     		add	r7, r7, r3
 390              	.LVL33:
  49:Algorithm/filter.c **** 
 391              		.loc 1 49 12 view .LVU130
 392 0060 CAF80070 		str	r7, [r10]
  51:Algorithm/filter.c **** }
 393              		.loc 1 51 5 is_stmt 1 view .LVU131
ARM GAS  /var/folders/8_/_8bzxkcs1296m80nzxdrn9q80000gn/T//ccMa76Fr.s 			page 13


  51:Algorithm/filter.c **** }
 394              		.loc 1 51 12 is_stmt 0 view .LVU132
 395 0064 0120     		movs	r0, #1
 396              	.L18:
  52:Algorithm/filter.c **** 
 397              		.loc 1 52 1 view .LVU133
 398 0066 BDE8F88F 		pop	{r3, r4, r5, r6, r7, r8, r9, r10, fp, pc}
  52:Algorithm/filter.c **** 
 399              		.loc 1 52 1 view .LVU134
 400              		.cfi_endproc
 401              	.LFE3:
 403              		.section	.text.Butterworth_Init,"ax",%progbits
 404              		.align	1
 405              		.syntax unified
 406              		.thumb
 407              		.thumb_func
 408              		.fpu fpv5-d16
 410              	Butterworth_Init:
 411              	.LVL34:
 412              	.LFB4:
  55:Algorithm/filter.c ****     Filter_ButterworthParam_TypeDef *BWF_Obj = NULL;
 413              		.loc 1 55 1 is_stmt 1 view -0
 414              		.cfi_startproc
 415              		@ args = 0, pretend = 0, frame = 0
 416              		@ frame_needed = 0, uses_anonymous_args = 0
  56:Algorithm/filter.c ****     uint8_t e_cnt = 0;
 417              		.loc 1 56 5 view .LVU136
  57:Algorithm/filter.c ****     uint8_t u_cnt = 0;
 418              		.loc 1 57 5 view .LVU137
  58:Algorithm/filter.c **** 
 419              		.loc 1 58 5 view .LVU138
  60:Algorithm/filter.c ****         return 0;
 420              		.loc 1 60 5 view .LVU139
  60:Algorithm/filter.c ****         return 0;
 421              		.loc 1 60 7 is_stmt 0 view .LVU140
 422 0000 0028     		cmp	r0, #0
 423 0002 00F0CE80 		beq	.L38
  55:Algorithm/filter.c ****     Filter_ButterworthParam_TypeDef *BWF_Obj = NULL;
 424              		.loc 1 55 1 view .LVU141
 425 0006 2DE9F843 		push	{r3, r4, r5, r6, r7, r8, r9, lr}
 426              	.LCFI7:
 427              		.cfi_def_cfa_offset 32
 428              		.cfi_offset 3, -32
 429              		.cfi_offset 4, -28
 430              		.cfi_offset 5, -24
 431              		.cfi_offset 6, -20
 432              		.cfi_offset 7, -16
 433              		.cfi_offset 8, -12
 434              		.cfi_offset 9, -8
 435              		.cfi_offset 14, -4
 436 000a 0546     		mov	r5, r0
  63:Algorithm/filter.c ****     {
 437              		.loc 1 63 5 is_stmt 1 view .LVU142
  63:Algorithm/filter.c ****     {
 438              		.loc 1 63 18 is_stmt 0 view .LVU143
 439 000c 0678     		ldrb	r6, [r0]	@ zero_extendqisi2
  63:Algorithm/filter.c ****     {
ARM GAS  /var/folders/8_/_8bzxkcs1296m80nzxdrn9q80000gn/T//ccMa76Fr.s 			page 14


 440              		.loc 1 63 8 view .LVU144
 441 000e 012E     		cmp	r6, #1
 442 0010 40F2C380 		bls	.L39
  65:Algorithm/filter.c ****         u_cnt = param_obj->order;
 443              		.loc 1 65 9 is_stmt 1 view .LVU145
  65:Algorithm/filter.c ****         u_cnt = param_obj->order;
 444              		.loc 1 65 15 is_stmt 0 view .LVU146
 445 0014 771C     		adds	r7, r6, #1
 446 0016 FFB2     		uxtb	r7, r7
 447              	.LVL35:
  66:Algorithm/filter.c ****         
 448              		.loc 1 66 9 is_stmt 1 view .LVU147
  68:Algorithm/filter.c ****             return 0;
 449              		.loc 1 68 9 view .LVU148
  68:Algorithm/filter.c ****             return 0;
 450              		.loc 1 68 23 is_stmt 0 view .LVU149
 451 0018 D0F80130 		ldr	r3, [r0, #1]	@ unaligned
  68:Algorithm/filter.c ****             return 0;
 452              		.loc 1 68 12 view .LVU150
 453 001c 002B     		cmp	r3, #0
 454 001e 00F0C280 		beq	.L40
  68:Algorithm/filter.c ****             return 0;
 455              		.loc 1 68 55 discriminator 1 view .LVU151
 456 0022 D0F80530 		ldr	r3, [r0, #5]	@ unaligned
  68:Algorithm/filter.c ****             return 0;
 457              		.loc 1 68 42 discriminator 1 view .LVU152
 458 0026 002B     		cmp	r3, #0
 459 0028 00F0BF80 		beq	.L41
  71:Algorithm/filter.c **** 
 460              		.loc 1 71 9 is_stmt 1 view .LVU153
  71:Algorithm/filter.c **** 
 461              		.loc 1 71 19 is_stmt 0 view .LVU154
 462 002c 2120     		movs	r0, #33
 463              	.LVL36:
  71:Algorithm/filter.c **** 
 464              		.loc 1 71 19 view .LVU155
 465 002e FFF7FEFF 		bl	MMU_Malloc
 466              	.LVL37:
  73:Algorithm/filter.c ****         {
 467              		.loc 1 73 9 is_stmt 1 view .LVU156
  73:Algorithm/filter.c ****         {
 468              		.loc 1 73 12 is_stmt 0 view .LVU157
 469 0032 0446     		mov	r4, r0
 470 0034 C0B3     		cbz	r0, .L46
  79:Algorithm/filter.c ****         if (BWF_Obj->p_e_data_cache == NULL)
 471              		.loc 1 79 9 is_stmt 1 view .LVU158
  79:Algorithm/filter.c ****         if (BWF_Obj->p_e_data_cache == NULL)
 472              		.loc 1 79 35 is_stmt 0 view .LVU159
 473 0036 1FFA87F8 		uxth	r8, r7
 474 003a 07EB8700 		add	r0, r7, r7, lsl #2
 475              	.LVL38:
  79:Algorithm/filter.c ****         if (BWF_Obj->p_e_data_cache == NULL)
 476              		.loc 1 79 35 view .LVU160
 477 003e 8000     		lsls	r0, r0, #2
 478 0040 FFF7FEFF 		bl	MMU_Malloc
 479              	.LVL39:
 480 0044 0146     		mov	r1, r0
ARM GAS  /var/folders/8_/_8bzxkcs1296m80nzxdrn9q80000gn/T//ccMa76Fr.s 			page 15


  79:Algorithm/filter.c ****         if (BWF_Obj->p_e_data_cache == NULL)
 481              		.loc 1 79 33 view .LVU161
 482 0046 C4F81900 		str	r0, [r4, #25]	@ unaligned
  80:Algorithm/filter.c ****         {
 483              		.loc 1 80 9 is_stmt 1 view .LVU162
  80:Algorithm/filter.c ****         {
 484              		.loc 1 80 12 is_stmt 0 view .LVU163
 485 004a 88B3     		cbz	r0, .L47
  88:Algorithm/filter.c ****             {
 486              		.loc 1 88 13 is_stmt 1 view .LVU164
  88:Algorithm/filter.c ****             {
 487              		.loc 1 88 18 is_stmt 0 view .LVU165
 488 004c 04F10D03 		add	r3, r4, #13
 489 0050 04F10902 		add	r2, r4, #9
 490 0054 3846     		mov	r0, r7
 491 0056 FFF7FEFF 		bl	Butterworth_List_Create
 492              	.LVL40:
  88:Algorithm/filter.c ****             {
 493              		.loc 1 88 16 view .LVU166
 494 005a 80B3     		cbz	r0, .L48
  96:Algorithm/filter.c ****         if (BWF_Obj->p_u_data_cache == NULL)
 495              		.loc 1 96 9 is_stmt 1 view .LVU167
  96:Algorithm/filter.c ****         if (BWF_Obj->p_u_data_cache == NULL)
 496              		.loc 1 96 35 is_stmt 0 view .LVU168
 497 005c 1FFA86F9 		uxth	r9, r6
 498 0060 06EB8600 		add	r0, r6, r6, lsl #2
 499 0064 8000     		lsls	r0, r0, #2
 500 0066 FFF7FEFF 		bl	MMU_Malloc
 501              	.LVL41:
 502 006a 0146     		mov	r1, r0
  96:Algorithm/filter.c ****         if (BWF_Obj->p_u_data_cache == NULL)
 503              		.loc 1 96 33 view .LVU169
 504 006c C4F81D00 		str	r0, [r4, #29]	@ unaligned
  97:Algorithm/filter.c ****         {
 505              		.loc 1 97 9 is_stmt 1 view .LVU170
  97:Algorithm/filter.c ****         {
 506              		.loc 1 97 12 is_stmt 0 view .LVU171
 507 0070 70B3     		cbz	r0, .L49
 106:Algorithm/filter.c ****             {
 508              		.loc 1 106 13 is_stmt 1 view .LVU172
 106:Algorithm/filter.c ****             {
 509              		.loc 1 106 18 is_stmt 0 view .LVU173
 510 0072 04F11503 		add	r3, r4, #21
 511 0076 04F11102 		add	r2, r4, #17
 512 007a 3046     		mov	r0, r6
 513 007c FFF7FEFF 		bl	Butterworth_List_Create
 514              	.LVL42:
 106:Algorithm/filter.c ****             {
 515              		.loc 1 106 16 view .LVU174
 516 0080 98B3     		cbz	r0, .L50
 115:Algorithm/filter.c ****         if(BWF_Obj->e_para_buf == NULL)
 517              		.loc 1 115 9 is_stmt 1 view .LVU175
 115:Algorithm/filter.c ****         if(BWF_Obj->e_para_buf == NULL)
 518              		.loc 1 115 31 is_stmt 0 view .LVU176
 519 0082 4FEA8800 		lsl	r0, r8, #2
 520 0086 FFF7FEFF 		bl	MMU_Malloc
 521              	.LVL43:
ARM GAS  /var/folders/8_/_8bzxkcs1296m80nzxdrn9q80000gn/T//ccMa76Fr.s 			page 16


 115:Algorithm/filter.c ****         if(BWF_Obj->e_para_buf == NULL)
 522              		.loc 1 115 29 view .LVU177
 523 008a C4F80100 		str	r0, [r4, #1]	@ unaligned
 116:Algorithm/filter.c ****         {
 524              		.loc 1 116 9 is_stmt 1 view .LVU178
 116:Algorithm/filter.c ****         {
 525              		.loc 1 116 11 is_stmt 0 view .LVU179
 526 008e C8B3     		cbz	r0, .L51
 125:Algorithm/filter.c ****         if(BWF_Obj->u_para_buf == NULL)
 527              		.loc 1 125 9 is_stmt 1 view .LVU180
 125:Algorithm/filter.c ****         if(BWF_Obj->u_para_buf == NULL)
 528              		.loc 1 125 31 is_stmt 0 view .LVU181
 529 0090 4FEA8900 		lsl	r0, r9, #2
 530 0094 FFF7FEFF 		bl	MMU_Malloc
 531              	.LVL44:
 125:Algorithm/filter.c ****         if(BWF_Obj->u_para_buf == NULL)
 532              		.loc 1 125 29 view .LVU182
 533 0098 C4F80500 		str	r0, [r4, #5]	@ unaligned
 126:Algorithm/filter.c ****         {
 534              		.loc 1 126 9 is_stmt 1 view .LVU183
 126:Algorithm/filter.c ****         {
 535              		.loc 1 126 11 is_stmt 0 view .LVU184
 536 009c 0028     		cmp	r0, #0
 537 009e 40D0     		beq	.L52
 136:Algorithm/filter.c **** 
 538              		.loc 1 136 9 is_stmt 1 view .LVU185
 136:Algorithm/filter.c **** 
 539              		.loc 1 136 35 is_stmt 0 view .LVU186
 540 00a0 2B78     		ldrb	r3, [r5]	@ zero_extendqisi2
 136:Algorithm/filter.c **** 
 541              		.loc 1 136 24 view .LVU187
 542 00a2 2370     		strb	r3, [r4]
 138:Algorithm/filter.c ****         {
 543              		.loc 1 138 9 is_stmt 1 view .LVU188
 544              	.LBB7:
 138:Algorithm/filter.c ****         {
 545              		.loc 1 138 13 view .LVU189
 546              	.LVL45:
 138:Algorithm/filter.c ****         {
 547              		.loc 1 138 21 is_stmt 0 view .LVU190
 548 00a4 0023     		movs	r3, #0
 138:Algorithm/filter.c ****         {
 549              		.loc 1 138 9 view .LVU191
 550 00a6 53E0     		b	.L35
 551              	.LVL46:
 552              	.L46:
 138:Algorithm/filter.c ****         {
 553              		.loc 1 138 9 view .LVU192
 554              	.LBE7:
  75:Algorithm/filter.c ****             return 0;
 555              		.loc 1 75 13 is_stmt 1 view .LVU193
 556 00a8 FFF7FEFF 		bl	MMU_Free
 557              	.LVL47:
  76:Algorithm/filter.c ****         }
 558              		.loc 1 76 13 view .LVU194
  76:Algorithm/filter.c ****         }
 559              		.loc 1 76 20 is_stmt 0 view .LVU195
ARM GAS  /var/folders/8_/_8bzxkcs1296m80nzxdrn9q80000gn/T//ccMa76Fr.s 			page 17


 560 00ac 0020     		movs	r0, #0
 561 00ae 76E0     		b	.L25
 562              	.L47:
  82:Algorithm/filter.c ****             MMU_Free(BWF_Obj);
 563              		.loc 1 82 13 is_stmt 1 view .LVU196
 564 00b0 FFF7FEFF 		bl	MMU_Free
 565              	.LVL48:
  83:Algorithm/filter.c ****             return 0;
 566              		.loc 1 83 13 view .LVU197
 567 00b4 2046     		mov	r0, r4
 568 00b6 FFF7FEFF 		bl	MMU_Free
 569              	.LVL49:
  84:Algorithm/filter.c ****         }
 570              		.loc 1 84 13 view .LVU198
  84:Algorithm/filter.c ****         }
 571              		.loc 1 84 20 is_stmt 0 view .LVU199
 572 00ba 0020     		movs	r0, #0
 573 00bc 6FE0     		b	.L25
 574              	.L48:
  90:Algorithm/filter.c ****                 MMU_Free(BWF_Obj);
 575              		.loc 1 90 17 is_stmt 1 view .LVU200
 576 00be D4F81900 		ldr	r0, [r4, #25]	@ unaligned
 577 00c2 FFF7FEFF 		bl	MMU_Free
 578              	.LVL50:
  91:Algorithm/filter.c ****                 return 0;
 579              		.loc 1 91 17 view .LVU201
 580 00c6 2046     		mov	r0, r4
 581 00c8 FFF7FEFF 		bl	MMU_Free
 582              	.LVL51:
  92:Algorithm/filter.c ****             }
 583              		.loc 1 92 17 view .LVU202
  92:Algorithm/filter.c ****             }
 584              		.loc 1 92 24 is_stmt 0 view .LVU203
 585 00cc 0020     		movs	r0, #0
 586 00ce 66E0     		b	.L25
 587              	.L49:
  99:Algorithm/filter.c ****             MMU_Free(BWF_Obj->p_u_data_cache);
 588              		.loc 1 99 13 is_stmt 1 view .LVU204
 589 00d0 D4F81900 		ldr	r0, [r4, #25]	@ unaligned
 590 00d4 FFF7FEFF 		bl	MMU_Free
 591              	.LVL52:
 100:Algorithm/filter.c ****             MMU_Free(BWF_Obj);
 592              		.loc 1 100 13 view .LVU205
 593 00d8 D4F81D00 		ldr	r0, [r4, #29]	@ unaligned
 594 00dc FFF7FEFF 		bl	MMU_Free
 595              	.LVL53:
 101:Algorithm/filter.c ****             return 0;
 596              		.loc 1 101 13 view .LVU206
 597 00e0 2046     		mov	r0, r4
 598 00e2 FFF7FEFF 		bl	MMU_Free
 599              	.LVL54:
 102:Algorithm/filter.c ****         }
 600              		.loc 1 102 13 view .LVU207
 102:Algorithm/filter.c ****         }
 601              		.loc 1 102 20 is_stmt 0 view .LVU208
 602 00e6 0020     		movs	r0, #0
 603 00e8 59E0     		b	.L25
ARM GAS  /var/folders/8_/_8bzxkcs1296m80nzxdrn9q80000gn/T//ccMa76Fr.s 			page 18


 604              	.L50:
 108:Algorithm/filter.c ****                 MMU_Free(BWF_Obj->p_u_data_cache);
 605              		.loc 1 108 17 is_stmt 1 view .LVU209
 606 00ea D4F81900 		ldr	r0, [r4, #25]	@ unaligned
 607 00ee FFF7FEFF 		bl	MMU_Free
 608              	.LVL55:
 109:Algorithm/filter.c ****                 MMU_Free(BWF_Obj);
 609              		.loc 1 109 17 view .LVU210
 610 00f2 D4F81D00 		ldr	r0, [r4, #29]	@ unaligned
 611 00f6 FFF7FEFF 		bl	MMU_Free
 612              	.LVL56:
 110:Algorithm/filter.c ****                 return 0;
 613              		.loc 1 110 17 view .LVU211
 614 00fa 2046     		mov	r0, r4
 615 00fc FFF7FEFF 		bl	MMU_Free
 616              	.LVL57:
 111:Algorithm/filter.c ****             }
 617              		.loc 1 111 17 view .LVU212
 111:Algorithm/filter.c ****             }
 618              		.loc 1 111 24 is_stmt 0 view .LVU213
 619 0100 0020     		movs	r0, #0
 620 0102 4CE0     		b	.L25
 621              	.L51:
 118:Algorithm/filter.c ****             MMU_Free(BWF_Obj->p_e_data_cache);
 622              		.loc 1 118 13 is_stmt 1 view .LVU214
 623 0104 FFF7FEFF 		bl	MMU_Free
 624              	.LVL58:
 119:Algorithm/filter.c ****             MMU_Free(BWF_Obj->p_u_data_cache);
 625              		.loc 1 119 13 view .LVU215
 626 0108 D4F81900 		ldr	r0, [r4, #25]	@ unaligned
 627 010c FFF7FEFF 		bl	MMU_Free
 628              	.LVL59:
 120:Algorithm/filter.c ****             MMU_Free(BWF_Obj);
 629              		.loc 1 120 13 view .LVU216
 630 0110 D4F81D00 		ldr	r0, [r4, #29]	@ unaligned
 631 0114 FFF7FEFF 		bl	MMU_Free
 632              	.LVL60:
 121:Algorithm/filter.c ****             return 0;
 633              		.loc 1 121 13 view .LVU217
 634 0118 2046     		mov	r0, r4
 635 011a FFF7FEFF 		bl	MMU_Free
 636              	.LVL61:
 122:Algorithm/filter.c ****         }
 637              		.loc 1 122 13 view .LVU218
 122:Algorithm/filter.c ****         }
 638              		.loc 1 122 20 is_stmt 0 view .LVU219
 639 011e 0020     		movs	r0, #0
 640 0120 3DE0     		b	.L25
 641              	.L52:
 128:Algorithm/filter.c ****             MMU_Free(BWF_Obj->u_para_buf);
 642              		.loc 1 128 13 is_stmt 1 view .LVU220
 643 0122 D4F80100 		ldr	r0, [r4, #1]	@ unaligned
 644 0126 FFF7FEFF 		bl	MMU_Free
 645              	.LVL62:
 129:Algorithm/filter.c ****             MMU_Free(BWF_Obj->p_e_data_cache);
 646              		.loc 1 129 13 view .LVU221
 647 012a D4F80500 		ldr	r0, [r4, #5]	@ unaligned
ARM GAS  /var/folders/8_/_8bzxkcs1296m80nzxdrn9q80000gn/T//ccMa76Fr.s 			page 19


 648 012e FFF7FEFF 		bl	MMU_Free
 649              	.LVL63:
 130:Algorithm/filter.c ****             MMU_Free(BWF_Obj->p_u_data_cache);
 650              		.loc 1 130 13 view .LVU222
 651 0132 D4F81900 		ldr	r0, [r4, #25]	@ unaligned
 652 0136 FFF7FEFF 		bl	MMU_Free
 653              	.LVL64:
 131:Algorithm/filter.c ****             MMU_Free(BWF_Obj);
 654              		.loc 1 131 13 view .LVU223
 655 013a D4F81D00 		ldr	r0, [r4, #29]	@ unaligned
 656 013e FFF7FEFF 		bl	MMU_Free
 657              	.LVL65:
 132:Algorithm/filter.c ****             return 0;
 658              		.loc 1 132 13 view .LVU224
 659 0142 2046     		mov	r0, r4
 660 0144 FFF7FEFF 		bl	MMU_Free
 661              	.LVL66:
 133:Algorithm/filter.c ****         }
 662              		.loc 1 133 13 view .LVU225
 133:Algorithm/filter.c ****         }
 663              		.loc 1 133 20 is_stmt 0 view .LVU226
 664 0148 0020     		movs	r0, #0
 665 014a 28E0     		b	.L25
 666              	.LVL67:
 667              	.L36:
 668              	.LBB8:
 138:Algorithm/filter.c ****         {
 669              		.loc 1 138 39 is_stmt 1 discriminator 2 view .LVU227
 138:Algorithm/filter.c ****         {
 670              		.loc 1 138 40 is_stmt 0 discriminator 2 view .LVU228
 671 014c 0133     		adds	r3, r3, #1
 672              	.LVL68:
 138:Algorithm/filter.c ****         {
 673              		.loc 1 138 40 discriminator 2 view .LVU229
 674 014e DBB2     		uxtb	r3, r3
 675              	.LVL69:
 676              	.L35:
 138:Algorithm/filter.c ****         {
 677              		.loc 1 138 28 is_stmt 1 discriminator 1 view .LVU230
 138:Algorithm/filter.c ****         {
 678              		.loc 1 138 9 is_stmt 0 discriminator 1 view .LVU231
 679 0150 BB42     		cmp	r3, r7
 680 0152 23D2     		bcs	.L27
 140:Algorithm/filter.c ****         
 681              		.loc 1 140 13 is_stmt 1 view .LVU232
 140:Algorithm/filter.c ****         
 682              		.loc 1 140 47 is_stmt 0 view .LVU233
 683 0154 D5F80120 		ldr	r2, [r5, #1]	@ unaligned
 140:Algorithm/filter.c ****         
 684              		.loc 1 140 56 view .LVU234
 685 0158 D800     		lsls	r0, r3, #3
 686 015a 02EBC302 		add	r2, r2, r3, lsl #3
 140:Algorithm/filter.c ****         
 687              		.loc 1 140 59 view .LVU235
 688 015e D2ED007A 		vldr.32	s15, [r2]
 140:Algorithm/filter.c ****         
 689              		.loc 1 140 85 view .LVU236
ARM GAS  /var/folders/8_/_8bzxkcs1296m80nzxdrn9q80000gn/T//ccMa76Fr.s 			page 20


 690 0162 92ED017A 		vldr.32	s14, [r2, #4]
 140:Algorithm/filter.c ****         
 691              		.loc 1 140 20 view .LVU237
 692 0166 D4F80120 		ldr	r2, [r4, #1]	@ unaligned
 140:Algorithm/filter.c ****         
 693              		.loc 1 140 32 view .LVU238
 694 016a 9900     		lsls	r1, r3, #2
 695 016c 02EB8302 		add	r2, r2, r3, lsl #2
 140:Algorithm/filter.c ****         
 696              		.loc 1 140 62 view .LVU239
 697 0170 67EE877A 		vmul.f32	s15, s15, s14
 140:Algorithm/filter.c ****         
 698              		.loc 1 140 36 view .LVU240
 699 0174 C2ED007A 		vstr.32	s15, [r2]
 142:Algorithm/filter.c ****             {
 700              		.loc 1 142 13 is_stmt 1 view .LVU241
 142:Algorithm/filter.c ****             {
 701              		.loc 1 142 15 is_stmt 0 view .LVU242
 702 0178 9E42     		cmp	r6, r3
 703 017a E7D9     		bls	.L36
 144:Algorithm/filter.c ****             }
 704              		.loc 1 144 17 is_stmt 1 view .LVU243
 144:Algorithm/filter.c ****             }
 705              		.loc 1 144 51 is_stmt 0 view .LVU244
 706 017c D5F80520 		ldr	r2, [r5, #5]	@ unaligned
 144:Algorithm/filter.c ****             }
 707              		.loc 1 144 60 view .LVU245
 708 0180 0244     		add	r2, r2, r0
 144:Algorithm/filter.c ****             }
 709              		.loc 1 144 63 view .LVU246
 710 0182 D2ED007A 		vldr.32	s15, [r2]
 144:Algorithm/filter.c ****             }
 711              		.loc 1 144 89 view .LVU247
 712 0186 92ED017A 		vldr.32	s14, [r2, #4]
 144:Algorithm/filter.c ****             }
 713              		.loc 1 144 24 view .LVU248
 714 018a D4F80520 		ldr	r2, [r4, #5]	@ unaligned
 144:Algorithm/filter.c ****             }
 715              		.loc 1 144 36 view .LVU249
 716 018e 0A44     		add	r2, r2, r1
 144:Algorithm/filter.c ****             }
 717              		.loc 1 144 66 view .LVU250
 718 0190 67EE877A 		vmul.f32	s15, s15, s14
 144:Algorithm/filter.c ****             }
 719              		.loc 1 144 40 view .LVU251
 720 0194 C2ED007A 		vstr.32	s15, [r2]
 721 0198 D8E7     		b	.L36
 722              	.LVL70:
 723              	.L39:
 144:Algorithm/filter.c ****             }
 724              		.loc 1 144 40 view .LVU252
 725              	.LBE8:
  56:Algorithm/filter.c ****     uint8_t e_cnt = 0;
 726              		.loc 1 56 38 view .LVU253
 727 019a 0024     		movs	r4, #0
 728              	.LVL71:
 729              	.L27:
ARM GAS  /var/folders/8_/_8bzxkcs1296m80nzxdrn9q80000gn/T//ccMa76Fr.s 			page 21


 149:Algorithm/filter.c **** }
 730              		.loc 1 149 5 is_stmt 1 view .LVU254
 149:Algorithm/filter.c **** }
 731              		.loc 1 149 12 is_stmt 0 view .LVU255
 732 019c 2046     		mov	r0, r4
 733              	.LVL72:
 734              	.L25:
 150:Algorithm/filter.c **** 
 735              		.loc 1 150 1 view .LVU256
 736 019e BDE8F883 		pop	{r3, r4, r5, r6, r7, r8, r9, pc}
 737              	.LVL73:
 738              	.L38:
 739              	.LCFI8:
 740              		.cfi_def_cfa_offset 0
 741              		.cfi_restore 3
 742              		.cfi_restore 4
 743              		.cfi_restore 5
 744              		.cfi_restore 6
 745              		.cfi_restore 7
 746              		.cfi_restore 8
 747              		.cfi_restore 9
 748              		.cfi_restore 14
  61:Algorithm/filter.c **** 
 749              		.loc 1 61 16 view .LVU257
 750 01a2 0020     		movs	r0, #0
 751              	.LVL74:
 150:Algorithm/filter.c **** 
 752              		.loc 1 150 1 view .LVU258
 753 01a4 7047     		bx	lr
 754              	.LVL75:
 755              	.L40:
 756              	.LCFI9:
 757              		.cfi_def_cfa_offset 32
 758              		.cfi_offset 3, -32
 759              		.cfi_offset 4, -28
 760              		.cfi_offset 5, -24
 761              		.cfi_offset 6, -20
 762              		.cfi_offset 7, -16
 763              		.cfi_offset 8, -12
 764              		.cfi_offset 9, -8
 765              		.cfi_offset 14, -4
  69:Algorithm/filter.c **** 
 766              		.loc 1 69 20 view .LVU259
 767 01a6 0020     		movs	r0, #0
 768              	.LVL76:
  69:Algorithm/filter.c **** 
 769              		.loc 1 69 20 view .LVU260
 770 01a8 F9E7     		b	.L25
 771              	.LVL77:
 772              	.L41:
  69:Algorithm/filter.c **** 
 773              		.loc 1 69 20 view .LVU261
 774 01aa 0020     		movs	r0, #0
 775              	.LVL78:
  69:Algorithm/filter.c **** 
 776              		.loc 1 69 20 view .LVU262
 777 01ac F7E7     		b	.L25
ARM GAS  /var/folders/8_/_8bzxkcs1296m80nzxdrn9q80000gn/T//ccMa76Fr.s 			page 22


 778              		.cfi_endproc
 779              	.LFE4:
 781              		.global	Butterworth
 782              		.section	.data.Butterworth,"aw"
 783              		.align	2
 786              	Butterworth:
 787 0000 00000000 		.word	Butterworth_Init
 788 0004 00000000 		.word	Butterworth_Filter_Update
 789              		.text
 790              	.Letext0:
 791              		.file 2 "/opt/homebrew/Cellar/arm-none-eabi-gcc/10.3-2021.07/gcc/arm-none-eabi/include/machine/_de
 792              		.file 3 "/opt/homebrew/Cellar/arm-none-eabi-gcc/10.3-2021.07/gcc/arm-none-eabi/include/sys/_stdint
 793              		.file 4 "DataStructure/linked_list.h"
 794              		.file 5 "Algorithm/filter_param.h"
 795              		.file 6 "Algorithm/filter.h"
 796              		.file 7 "System/mmu/mmu.h"
ARM GAS  /var/folders/8_/_8bzxkcs1296m80nzxdrn9q80000gn/T//ccMa76Fr.s 			page 23

