ARM GAS  C:\Users\8bit\AppData\Local\Temp\cckd77rw.s 			page 1


   1              		.cpu cortex-m4
   2              		.arch armv7e-m
   3              		.fpu fpv4-sp-d16
   4              		.eabi_attribute 27, 1
   5              		.eabi_attribute 28, 1
   6              		.eabi_attribute 20, 1
   7              		.eabi_attribute 21, 1
   8              		.eabi_attribute 23, 3
   9              		.eabi_attribute 24, 1
  10              		.eabi_attribute 25, 1
  11              		.eabi_attribute 26, 1
  12              		.eabi_attribute 30, 1
  13              		.eabi_attribute 34, 1
  14              		.eabi_attribute 18, 4
  15              		.file	"HW_Def.c"
  16              		.text
  17              	.Ltext0:
  18              		.cfi_sections	.debug_frame
  19              		.global	__aeabi_f2d
  20              		.global	__aeabi_d2f
  21              		.section	.text.PriIMU_Dir_Tune,"ax",%progbits
  22              		.align	1
  23              		.global	PriIMU_Dir_Tune
  24              		.syntax unified
  25              		.thumb
  26              		.thumb_func
  28              	PriIMU_Dir_Tune:
  29              	.LVL0:
  30              	.LFB134:
  31              		.file 1 "HW_Lib/AT32F435/PinPort_Def/CCRC_AT32_20/HW_Def.c"
   1:HW_Lib/AT32F435/PinPort_Def/CCRC_AT32_20/HW_Def.c **** #include "HW_Def.h"
   2:HW_Lib/AT32F435/PinPort_Def/CCRC_AT32_20/HW_Def.c **** 
   3:HW_Lib/AT32F435/PinPort_Def/CCRC_AT32_20/HW_Def.c **** // MOTOR 1 B06
   4:HW_Lib/AT32F435/PinPort_Def/CCRC_AT32_20/HW_Def.c **** // MOTOR 2 B07
   5:HW_Lib/AT32F435/PinPort_Def/CCRC_AT32_20/HW_Def.c **** // MOTOR 3 A03
   6:HW_Lib/AT32F435/PinPort_Def/CCRC_AT32_20/HW_Def.c **** // MOTOR 4 B01
   7:HW_Lib/AT32F435/PinPort_Def/CCRC_AT32_20/HW_Def.c **** 
   8:HW_Lib/AT32F435/PinPort_Def/CCRC_AT32_20/HW_Def.c **** // OSD_CS 1 B12
   9:HW_Lib/AT32F435/PinPort_Def/CCRC_AT32_20/HW_Def.c **** 
  10:HW_Lib/AT32F435/PinPort_Def/CCRC_AT32_20/HW_Def.c **** // ADC_BATT 1 A00
  11:HW_Lib/AT32F435/PinPort_Def/CCRC_AT32_20/HW_Def.c **** // ADC_CURR 1 A01
  12:HW_Lib/AT32F435/PinPort_Def/CCRC_AT32_20/HW_Def.c **** 
  13:HW_Lib/AT32F435/PinPort_Def/CCRC_AT32_20/HW_Def.c **** // timer A08 AF1
  14:HW_Lib/AT32F435/PinPort_Def/CCRC_AT32_20/HW_Def.c **** // # pin A08: TIM1 CH1 (AF1)
  15:HW_Lib/AT32F435/PinPort_Def/CCRC_AT32_20/HW_Def.c **** 
  16:HW_Lib/AT32F435/PinPort_Def/CCRC_AT32_20/HW_Def.c **** // timer B06 AF2
  17:HW_Lib/AT32F435/PinPort_Def/CCRC_AT32_20/HW_Def.c **** // # pin B06: TIM4 CH1 (AF2)
  18:HW_Lib/AT32F435/PinPort_Def/CCRC_AT32_20/HW_Def.c **** // timer B07 AF2
  19:HW_Lib/AT32F435/PinPort_Def/CCRC_AT32_20/HW_Def.c **** // # pin B07: TIM4 CH2 (AF2)
  20:HW_Lib/AT32F435/PinPort_Def/CCRC_AT32_20/HW_Def.c **** // timer A03 AF1
  21:HW_Lib/AT32F435/PinPort_Def/CCRC_AT32_20/HW_Def.c **** // # pin A03: TIM2 CH4 (AF1)
  22:HW_Lib/AT32F435/PinPort_Def/CCRC_AT32_20/HW_Def.c **** // timer B01 AF2
  23:HW_Lib/AT32F435/PinPort_Def/CCRC_AT32_20/HW_Def.c **** // # pin B01: TIM3 CH4 (AF2)
  24:HW_Lib/AT32F435/PinPort_Def/CCRC_AT32_20/HW_Def.c **** 
  25:HW_Lib/AT32F435/PinPort_Def/CCRC_AT32_20/HW_Def.c **** // dma ADC 1 11
  26:HW_Lib/AT32F435/PinPort_Def/CCRC_AT32_20/HW_Def.c **** // # ADC 1: DMA2 Channel 0 Channel 5
  27:HW_Lib/AT32F435/PinPort_Def/CCRC_AT32_20/HW_Def.c **** 
ARM GAS  C:\Users\8bit\AppData\Local\Temp\cckd77rw.s 			page 2


  28:HW_Lib/AT32F435/PinPort_Def/CCRC_AT32_20/HW_Def.c **** // dma pin A08 7
  29:HW_Lib/AT32F435/PinPort_Def/CCRC_AT32_20/HW_Def.c **** // # pin A08: DMA2 Channel 0 Channel 42
  30:HW_Lib/AT32F435/PinPort_Def/CCRC_AT32_20/HW_Def.c **** // dma pin B06 0
  31:HW_Lib/AT32F435/PinPort_Def/CCRC_AT32_20/HW_Def.c **** // # pin B06: DMA1 Channel 0 Channel 67
  32:HW_Lib/AT32F435/PinPort_Def/CCRC_AT32_20/HW_Def.c **** // dma pin B07 1
  33:HW_Lib/AT32F435/PinPort_Def/CCRC_AT32_20/HW_Def.c **** // # pin B07: DMA1 Channel 0 Channel 68
  34:HW_Lib/AT32F435/PinPort_Def/CCRC_AT32_20/HW_Def.c **** // dma pin A03 2
  35:HW_Lib/AT32F435/PinPort_Def/CCRC_AT32_20/HW_Def.c **** // # pin A03: DMA1 Channel 0 Channel 59
  36:HW_Lib/AT32F435/PinPort_Def/CCRC_AT32_20/HW_Def.c **** // dma pin B01 3
  37:HW_Lib/AT32F435/PinPort_Def/CCRC_AT32_20/HW_Def.c **** // # pin B01: DMA1 Channel 0 Channel 64
  38:HW_Lib/AT32F435/PinPort_Def/CCRC_AT32_20/HW_Def.c **** 
  39:HW_Lib/AT32F435/PinPort_Def/CCRC_AT32_20/HW_Def.c **** /* Led 1 C13 */
  40:HW_Lib/AT32F435/PinPort_Def/CCRC_AT32_20/HW_Def.c **** BspGPIO_Port_TypeDef Led1_Port = {
  41:HW_Lib/AT32F435/PinPort_Def/CCRC_AT32_20/HW_Def.c ****     .port = GPIOC,
  42:HW_Lib/AT32F435/PinPort_Def/CCRC_AT32_20/HW_Def.c **** };
  43:HW_Lib/AT32F435/PinPort_Def/CCRC_AT32_20/HW_Def.c **** 
  44:HW_Lib/AT32F435/PinPort_Def/CCRC_AT32_20/HW_Def.c **** BspGPIO_Obj_TypeDef Led1 = {
  45:HW_Lib/AT32F435/PinPort_Def/CCRC_AT32_20/HW_Def.c ****     .open_drain = false,
  46:HW_Lib/AT32F435/PinPort_Def/CCRC_AT32_20/HW_Def.c ****     .port = (void *)&Led1_Port,
  47:HW_Lib/AT32F435/PinPort_Def/CCRC_AT32_20/HW_Def.c ****     .pin = GPIO_PINS_13,
  48:HW_Lib/AT32F435/PinPort_Def/CCRC_AT32_20/HW_Def.c ****     .init_state = GPIO_PULL_NONE,
  49:HW_Lib/AT32F435/PinPort_Def/CCRC_AT32_20/HW_Def.c **** };
  50:HW_Lib/AT32F435/PinPort_Def/CCRC_AT32_20/HW_Def.c **** 
  51:HW_Lib/AT32F435/PinPort_Def/CCRC_AT32_20/HW_Def.c **** /* Led 2 C14 */
  52:HW_Lib/AT32F435/PinPort_Def/CCRC_AT32_20/HW_Def.c **** BspGPIO_Port_TypeDef Led2_Port = {
  53:HW_Lib/AT32F435/PinPort_Def/CCRC_AT32_20/HW_Def.c ****     .port = GPIOC,
  54:HW_Lib/AT32F435/PinPort_Def/CCRC_AT32_20/HW_Def.c **** };
  55:HW_Lib/AT32F435/PinPort_Def/CCRC_AT32_20/HW_Def.c **** 
  56:HW_Lib/AT32F435/PinPort_Def/CCRC_AT32_20/HW_Def.c **** BspGPIO_Obj_TypeDef Led2 = {
  57:HW_Lib/AT32F435/PinPort_Def/CCRC_AT32_20/HW_Def.c ****     .open_drain = false,
  58:HW_Lib/AT32F435/PinPort_Def/CCRC_AT32_20/HW_Def.c ****     .port = (void *)&Led2_Port,
  59:HW_Lib/AT32F435/PinPort_Def/CCRC_AT32_20/HW_Def.c ****     .pin = GPIO_PINS_14,
  60:HW_Lib/AT32F435/PinPort_Def/CCRC_AT32_20/HW_Def.c ****     .init_state = GPIO_PULL_NONE,
  61:HW_Lib/AT32F435/PinPort_Def/CCRC_AT32_20/HW_Def.c **** };
  62:HW_Lib/AT32F435/PinPort_Def/CCRC_AT32_20/HW_Def.c **** 
  63:HW_Lib/AT32F435/PinPort_Def/CCRC_AT32_20/HW_Def.c **** /* on board receiver uart tx port B11 */
  64:HW_Lib/AT32F435/PinPort_Def/CCRC_AT32_20/HW_Def.c **** BspGPIO_Port_TypeDef Uart3_Tx_Port = {
  65:HW_Lib/AT32F435/PinPort_Def/CCRC_AT32_20/HW_Def.c ****     .port = GPIOB,
  66:HW_Lib/AT32F435/PinPort_Def/CCRC_AT32_20/HW_Def.c **** };
  67:HW_Lib/AT32F435/PinPort_Def/CCRC_AT32_20/HW_Def.c **** 
  68:HW_Lib/AT32F435/PinPort_Def/CCRC_AT32_20/HW_Def.c **** BspGPIO_Obj_TypeDef Uart3_TxPin = {
  69:HW_Lib/AT32F435/PinPort_Def/CCRC_AT32_20/HW_Def.c ****     .open_drain = false,
  70:HW_Lib/AT32F435/PinPort_Def/CCRC_AT32_20/HW_Def.c ****     .port = (void *)&Uart3_Tx_Port,
  71:HW_Lib/AT32F435/PinPort_Def/CCRC_AT32_20/HW_Def.c ****     .pin = GPIO_PINS_11,
  72:HW_Lib/AT32F435/PinPort_Def/CCRC_AT32_20/HW_Def.c ****     .init_state = GPIO_PULL_NONE,
  73:HW_Lib/AT32F435/PinPort_Def/CCRC_AT32_20/HW_Def.c ****     .alternate = GPIO_MUX_7,
  74:HW_Lib/AT32F435/PinPort_Def/CCRC_AT32_20/HW_Def.c **** };
  75:HW_Lib/AT32F435/PinPort_Def/CCRC_AT32_20/HW_Def.c **** 
  76:HW_Lib/AT32F435/PinPort_Def/CCRC_AT32_20/HW_Def.c **** /* on board receiver uart rx port B10 */
  77:HW_Lib/AT32F435/PinPort_Def/CCRC_AT32_20/HW_Def.c **** BspGPIO_Port_TypeDef Uart3_Rx_Port = {
  78:HW_Lib/AT32F435/PinPort_Def/CCRC_AT32_20/HW_Def.c ****     .port = GPIOB,
  79:HW_Lib/AT32F435/PinPort_Def/CCRC_AT32_20/HW_Def.c **** };
  80:HW_Lib/AT32F435/PinPort_Def/CCRC_AT32_20/HW_Def.c **** 
  81:HW_Lib/AT32F435/PinPort_Def/CCRC_AT32_20/HW_Def.c **** BspGPIO_Obj_TypeDef Uart3_RxPin = {
  82:HW_Lib/AT32F435/PinPort_Def/CCRC_AT32_20/HW_Def.c ****     .open_drain = false,
  83:HW_Lib/AT32F435/PinPort_Def/CCRC_AT32_20/HW_Def.c ****     .port = (void *)&Uart3_Rx_Port,
  84:HW_Lib/AT32F435/PinPort_Def/CCRC_AT32_20/HW_Def.c ****     .pin = GPIO_PINS_10,
ARM GAS  C:\Users\8bit\AppData\Local\Temp\cckd77rw.s 			page 3


  85:HW_Lib/AT32F435/PinPort_Def/CCRC_AT32_20/HW_Def.c ****     .init_state = GPIO_PULL_NONE,
  86:HW_Lib/AT32F435/PinPort_Def/CCRC_AT32_20/HW_Def.c ****     .alternate = GPIO_MUX_7,
  87:HW_Lib/AT32F435/PinPort_Def/CCRC_AT32_20/HW_Def.c **** };
  88:HW_Lib/AT32F435/PinPort_Def/CCRC_AT32_20/HW_Def.c **** 
  89:HW_Lib/AT32F435/PinPort_Def/CCRC_AT32_20/HW_Def.c **** /* uart 1 tx pin A09 */
  90:HW_Lib/AT32F435/PinPort_Def/CCRC_AT32_20/HW_Def.c **** BspGPIO_Port_TypeDef Uart1_Tx_Port = {
  91:HW_Lib/AT32F435/PinPort_Def/CCRC_AT32_20/HW_Def.c ****     .port = GPIOA,
  92:HW_Lib/AT32F435/PinPort_Def/CCRC_AT32_20/HW_Def.c **** };
  93:HW_Lib/AT32F435/PinPort_Def/CCRC_AT32_20/HW_Def.c **** 
  94:HW_Lib/AT32F435/PinPort_Def/CCRC_AT32_20/HW_Def.c **** BspGPIO_Obj_TypeDef Uart1_TxPin = {
  95:HW_Lib/AT32F435/PinPort_Def/CCRC_AT32_20/HW_Def.c ****     .open_drain = false,
  96:HW_Lib/AT32F435/PinPort_Def/CCRC_AT32_20/HW_Def.c ****     .port = (void *)&Uart1_Tx_Port,
  97:HW_Lib/AT32F435/PinPort_Def/CCRC_AT32_20/HW_Def.c ****     .pin = GPIO_PINS_9,
  98:HW_Lib/AT32F435/PinPort_Def/CCRC_AT32_20/HW_Def.c ****     .init_state = GPIO_PULL_NONE,
  99:HW_Lib/AT32F435/PinPort_Def/CCRC_AT32_20/HW_Def.c ****     .alternate = GPIO_MUX_7,
 100:HW_Lib/AT32F435/PinPort_Def/CCRC_AT32_20/HW_Def.c **** };
 101:HW_Lib/AT32F435/PinPort_Def/CCRC_AT32_20/HW_Def.c **** 
 102:HW_Lib/AT32F435/PinPort_Def/CCRC_AT32_20/HW_Def.c **** /* uart 1 rx pin A10 */
 103:HW_Lib/AT32F435/PinPort_Def/CCRC_AT32_20/HW_Def.c **** BspGPIO_Port_TypeDef Uart1_Rx_Port = {
 104:HW_Lib/AT32F435/PinPort_Def/CCRC_AT32_20/HW_Def.c ****     .port = GPIOA,
 105:HW_Lib/AT32F435/PinPort_Def/CCRC_AT32_20/HW_Def.c **** };
 106:HW_Lib/AT32F435/PinPort_Def/CCRC_AT32_20/HW_Def.c **** 
 107:HW_Lib/AT32F435/PinPort_Def/CCRC_AT32_20/HW_Def.c **** BspGPIO_Obj_TypeDef Uart1_RxPin = {
 108:HW_Lib/AT32F435/PinPort_Def/CCRC_AT32_20/HW_Def.c ****     .open_drain = false,
 109:HW_Lib/AT32F435/PinPort_Def/CCRC_AT32_20/HW_Def.c ****     .port = (void *)&Uart1_Rx_Port,
 110:HW_Lib/AT32F435/PinPort_Def/CCRC_AT32_20/HW_Def.c ****     .pin = GPIO_PINS_10,
 111:HW_Lib/AT32F435/PinPort_Def/CCRC_AT32_20/HW_Def.c ****     .init_state = GPIO_PULL_NONE,
 112:HW_Lib/AT32F435/PinPort_Def/CCRC_AT32_20/HW_Def.c ****     .alternate = GPIO_MUX_7,
 113:HW_Lib/AT32F435/PinPort_Def/CCRC_AT32_20/HW_Def.c **** };
 114:HW_Lib/AT32F435/PinPort_Def/CCRC_AT32_20/HW_Def.c **** 
 115:HW_Lib/AT32F435/PinPort_Def/CCRC_AT32_20/HW_Def.c **** /* uart 2 tx pin A02 */
 116:HW_Lib/AT32F435/PinPort_Def/CCRC_AT32_20/HW_Def.c **** BspGPIO_Port_TypeDef Uart2_Tx_Port = {
 117:HW_Lib/AT32F435/PinPort_Def/CCRC_AT32_20/HW_Def.c ****     .port = GPIOA,
 118:HW_Lib/AT32F435/PinPort_Def/CCRC_AT32_20/HW_Def.c **** };
 119:HW_Lib/AT32F435/PinPort_Def/CCRC_AT32_20/HW_Def.c **** 
 120:HW_Lib/AT32F435/PinPort_Def/CCRC_AT32_20/HW_Def.c **** BspGPIO_Obj_TypeDef Uart2_TxPin = {
 121:HW_Lib/AT32F435/PinPort_Def/CCRC_AT32_20/HW_Def.c ****     .open_drain = false,
 122:HW_Lib/AT32F435/PinPort_Def/CCRC_AT32_20/HW_Def.c ****     .port = (void *)&Uart2_Tx_Port,
 123:HW_Lib/AT32F435/PinPort_Def/CCRC_AT32_20/HW_Def.c ****     .pin = GPIO_PINS_2,
 124:HW_Lib/AT32F435/PinPort_Def/CCRC_AT32_20/HW_Def.c ****     .init_state = GPIO_PULL_NONE,
 125:HW_Lib/AT32F435/PinPort_Def/CCRC_AT32_20/HW_Def.c ****     .alternate = GPIO_MUX_7,
 126:HW_Lib/AT32F435/PinPort_Def/CCRC_AT32_20/HW_Def.c **** };
 127:HW_Lib/AT32F435/PinPort_Def/CCRC_AT32_20/HW_Def.c **** 
 128:HW_Lib/AT32F435/PinPort_Def/CCRC_AT32_20/HW_Def.c **** /* uart 2 rx pin B00 */
 129:HW_Lib/AT32F435/PinPort_Def/CCRC_AT32_20/HW_Def.c **** BspGPIO_Port_TypeDef Uart2_Rx_Port = {
 130:HW_Lib/AT32F435/PinPort_Def/CCRC_AT32_20/HW_Def.c ****     .port = GPIOB,
 131:HW_Lib/AT32F435/PinPort_Def/CCRC_AT32_20/HW_Def.c **** };
 132:HW_Lib/AT32F435/PinPort_Def/CCRC_AT32_20/HW_Def.c **** 
 133:HW_Lib/AT32F435/PinPort_Def/CCRC_AT32_20/HW_Def.c **** BspGPIO_Obj_TypeDef Uart2_RxPin = {
 134:HW_Lib/AT32F435/PinPort_Def/CCRC_AT32_20/HW_Def.c ****     .open_drain = false,
 135:HW_Lib/AT32F435/PinPort_Def/CCRC_AT32_20/HW_Def.c ****     .port = (void *)&Uart2_Rx_Port,
 136:HW_Lib/AT32F435/PinPort_Def/CCRC_AT32_20/HW_Def.c ****     .pin = GPIO_PINS_0,
 137:HW_Lib/AT32F435/PinPort_Def/CCRC_AT32_20/HW_Def.c ****     .init_state = GPIO_PULL_NONE,
 138:HW_Lib/AT32F435/PinPort_Def/CCRC_AT32_20/HW_Def.c ****     .alternate = GPIO_MUX_6,
 139:HW_Lib/AT32F435/PinPort_Def/CCRC_AT32_20/HW_Def.c **** };
 140:HW_Lib/AT32F435/PinPort_Def/CCRC_AT32_20/HW_Def.c **** 
 141:HW_Lib/AT32F435/PinPort_Def/CCRC_AT32_20/HW_Def.c **** /* uart 5 tx pin B09 */
ARM GAS  C:\Users\8bit\AppData\Local\Temp\cckd77rw.s 			page 4


 142:HW_Lib/AT32F435/PinPort_Def/CCRC_AT32_20/HW_Def.c **** BspGPIO_Port_TypeDef Uart5_Tx_Port = {
 143:HW_Lib/AT32F435/PinPort_Def/CCRC_AT32_20/HW_Def.c ****     .port = GPIOB,
 144:HW_Lib/AT32F435/PinPort_Def/CCRC_AT32_20/HW_Def.c **** };
 145:HW_Lib/AT32F435/PinPort_Def/CCRC_AT32_20/HW_Def.c **** 
 146:HW_Lib/AT32F435/PinPort_Def/CCRC_AT32_20/HW_Def.c **** BspGPIO_Obj_TypeDef Uart5_TxPin = {
 147:HW_Lib/AT32F435/PinPort_Def/CCRC_AT32_20/HW_Def.c ****     .open_drain = false,
 148:HW_Lib/AT32F435/PinPort_Def/CCRC_AT32_20/HW_Def.c ****     .port = (void *)&Uart5_Tx_Port,
 149:HW_Lib/AT32F435/PinPort_Def/CCRC_AT32_20/HW_Def.c ****     .pin = GPIO_PINS_9,
 150:HW_Lib/AT32F435/PinPort_Def/CCRC_AT32_20/HW_Def.c ****     .init_state = GPIO_PULL_NONE,
 151:HW_Lib/AT32F435/PinPort_Def/CCRC_AT32_20/HW_Def.c ****     .alternate = GPIO_MUX_8,
 152:HW_Lib/AT32F435/PinPort_Def/CCRC_AT32_20/HW_Def.c **** };
 153:HW_Lib/AT32F435/PinPort_Def/CCRC_AT32_20/HW_Def.c **** 
 154:HW_Lib/AT32F435/PinPort_Def/CCRC_AT32_20/HW_Def.c **** /* uart 5 rx pin B08 */
 155:HW_Lib/AT32F435/PinPort_Def/CCRC_AT32_20/HW_Def.c **** BspGPIO_Port_TypeDef Uart5_Rx_Port = {
 156:HW_Lib/AT32F435/PinPort_Def/CCRC_AT32_20/HW_Def.c ****     .port = GPIOB,
 157:HW_Lib/AT32F435/PinPort_Def/CCRC_AT32_20/HW_Def.c **** };
 158:HW_Lib/AT32F435/PinPort_Def/CCRC_AT32_20/HW_Def.c **** 
 159:HW_Lib/AT32F435/PinPort_Def/CCRC_AT32_20/HW_Def.c **** BspGPIO_Obj_TypeDef Uart5_RxPin = {
 160:HW_Lib/AT32F435/PinPort_Def/CCRC_AT32_20/HW_Def.c ****     .open_drain = false,
 161:HW_Lib/AT32F435/PinPort_Def/CCRC_AT32_20/HW_Def.c ****     .port = (void *)&Uart5_Rx_Port,
 162:HW_Lib/AT32F435/PinPort_Def/CCRC_AT32_20/HW_Def.c ****     .pin = GPIO_PINS_8,
 163:HW_Lib/AT32F435/PinPort_Def/CCRC_AT32_20/HW_Def.c ****     .init_state = GPIO_PULL_NONE,
 164:HW_Lib/AT32F435/PinPort_Def/CCRC_AT32_20/HW_Def.c ****     .alternate = GPIO_MUX_8,
 165:HW_Lib/AT32F435/PinPort_Def/CCRC_AT32_20/HW_Def.c **** };
 166:HW_Lib/AT32F435/PinPort_Def/CCRC_AT32_20/HW_Def.c **** 
 167:HW_Lib/AT32F435/PinPort_Def/CCRC_AT32_20/HW_Def.c **** /* uart 7 tx pin B04 */
 168:HW_Lib/AT32F435/PinPort_Def/CCRC_AT32_20/HW_Def.c **** BspGPIO_Port_TypeDef Uart7_Tx_Port = {
 169:HW_Lib/AT32F435/PinPort_Def/CCRC_AT32_20/HW_Def.c ****     .port = GPIOB,
 170:HW_Lib/AT32F435/PinPort_Def/CCRC_AT32_20/HW_Def.c **** };
 171:HW_Lib/AT32F435/PinPort_Def/CCRC_AT32_20/HW_Def.c **** 
 172:HW_Lib/AT32F435/PinPort_Def/CCRC_AT32_20/HW_Def.c **** BspGPIO_Obj_TypeDef Uart7_TxPin = {
 173:HW_Lib/AT32F435/PinPort_Def/CCRC_AT32_20/HW_Def.c ****     .open_drain = false,
 174:HW_Lib/AT32F435/PinPort_Def/CCRC_AT32_20/HW_Def.c ****     .port = (void *)&Uart7_Tx_Port,
 175:HW_Lib/AT32F435/PinPort_Def/CCRC_AT32_20/HW_Def.c ****     .pin = GPIO_PINS_4,
 176:HW_Lib/AT32F435/PinPort_Def/CCRC_AT32_20/HW_Def.c ****     .init_state = GPIO_PULL_NONE,
 177:HW_Lib/AT32F435/PinPort_Def/CCRC_AT32_20/HW_Def.c ****     .alternate = GPIO_MUX_8,
 178:HW_Lib/AT32F435/PinPort_Def/CCRC_AT32_20/HW_Def.c **** };
 179:HW_Lib/AT32F435/PinPort_Def/CCRC_AT32_20/HW_Def.c **** 
 180:HW_Lib/AT32F435/PinPort_Def/CCRC_AT32_20/HW_Def.c **** /* uart 7 rx pin B03 */
 181:HW_Lib/AT32F435/PinPort_Def/CCRC_AT32_20/HW_Def.c **** BspGPIO_Port_TypeDef Uart7_Rx_Port = {
 182:HW_Lib/AT32F435/PinPort_Def/CCRC_AT32_20/HW_Def.c ****     .port = GPIOB,
 183:HW_Lib/AT32F435/PinPort_Def/CCRC_AT32_20/HW_Def.c **** };
 184:HW_Lib/AT32F435/PinPort_Def/CCRC_AT32_20/HW_Def.c **** 
 185:HW_Lib/AT32F435/PinPort_Def/CCRC_AT32_20/HW_Def.c **** BspGPIO_Obj_TypeDef Uart7_RxPin = {
 186:HW_Lib/AT32F435/PinPort_Def/CCRC_AT32_20/HW_Def.c ****     .open_drain = false,
 187:HW_Lib/AT32F435/PinPort_Def/CCRC_AT32_20/HW_Def.c ****     .port = (void *)&Uart7_Rx_Port,
 188:HW_Lib/AT32F435/PinPort_Def/CCRC_AT32_20/HW_Def.c ****     .pin = GPIO_PINS_3,
 189:HW_Lib/AT32F435/PinPort_Def/CCRC_AT32_20/HW_Def.c ****     .init_state = GPIO_PULL_NONE,
 190:HW_Lib/AT32F435/PinPort_Def/CCRC_AT32_20/HW_Def.c ****     .alternate = GPIO_MUX_8,
 191:HW_Lib/AT32F435/PinPort_Def/CCRC_AT32_20/HW_Def.c **** };
 192:HW_Lib/AT32F435/PinPort_Def/CCRC_AT32_20/HW_Def.c **** 
 193:HW_Lib/AT32F435/PinPort_Def/CCRC_AT32_20/HW_Def.c **** /* IMU CS Pin A04 */
 194:HW_Lib/AT32F435/PinPort_Def/CCRC_AT32_20/HW_Def.c **** BspGPIO_Port_TypeDef PriIMU_CS_Port = {
 195:HW_Lib/AT32F435/PinPort_Def/CCRC_AT32_20/HW_Def.c ****     .port = GPIOA,
 196:HW_Lib/AT32F435/PinPort_Def/CCRC_AT32_20/HW_Def.c **** };
 197:HW_Lib/AT32F435/PinPort_Def/CCRC_AT32_20/HW_Def.c **** 
 198:HW_Lib/AT32F435/PinPort_Def/CCRC_AT32_20/HW_Def.c **** BspGPIO_Obj_TypeDef PriIMU_CSPin = {
ARM GAS  C:\Users\8bit\AppData\Local\Temp\cckd77rw.s 			page 5


 199:HW_Lib/AT32F435/PinPort_Def/CCRC_AT32_20/HW_Def.c ****     .open_drain = false,
 200:HW_Lib/AT32F435/PinPort_Def/CCRC_AT32_20/HW_Def.c ****     .init_state = GPIO_PULL_UP,
 201:HW_Lib/AT32F435/PinPort_Def/CCRC_AT32_20/HW_Def.c ****     .pin = GPIO_PINS_4,
 202:HW_Lib/AT32F435/PinPort_Def/CCRC_AT32_20/HW_Def.c ****     .port = &PriIMU_CS_Port,
 203:HW_Lib/AT32F435/PinPort_Def/CCRC_AT32_20/HW_Def.c **** };
 204:HW_Lib/AT32F435/PinPort_Def/CCRC_AT32_20/HW_Def.c **** 
 205:HW_Lib/AT32F435/PinPort_Def/CCRC_AT32_20/HW_Def.c **** /* IMU INT Pin A15 */
 206:HW_Lib/AT32F435/PinPort_Def/CCRC_AT32_20/HW_Def.c **** BspGPIO_EXTI_Port_TypeDef PriIMU_INT_Port = {
 207:HW_Lib/AT32F435/PinPort_Def/CCRC_AT32_20/HW_Def.c ****     .port = SCFG_PORT_SOURCE_GPIOA,
 208:HW_Lib/AT32F435/PinPort_Def/CCRC_AT32_20/HW_Def.c **** };
 209:HW_Lib/AT32F435/PinPort_Def/CCRC_AT32_20/HW_Def.c **** 
 210:HW_Lib/AT32F435/PinPort_Def/CCRC_AT32_20/HW_Def.c **** BspGPIO_Obj_TypeDef PriIMU_INTPin = {
 211:HW_Lib/AT32F435/PinPort_Def/CCRC_AT32_20/HW_Def.c ****     .open_drain = false,
 212:HW_Lib/AT32F435/PinPort_Def/CCRC_AT32_20/HW_Def.c ****     .port = (void *)&PriIMU_INT_Port,
 213:HW_Lib/AT32F435/PinPort_Def/CCRC_AT32_20/HW_Def.c ****     .pin = GPIO_PINS_15,
 214:HW_Lib/AT32F435/PinPort_Def/CCRC_AT32_20/HW_Def.c ****     .init_state = EXINT_TRIGGER_FALLING_EDGE,
 215:HW_Lib/AT32F435/PinPort_Def/CCRC_AT32_20/HW_Def.c **** };
 216:HW_Lib/AT32F435/PinPort_Def/CCRC_AT32_20/HW_Def.c **** 
 217:HW_Lib/AT32F435/PinPort_Def/CCRC_AT32_20/HW_Def.c **** /* IMU Bus Pin (SPI1) */
 218:HW_Lib/AT32F435/PinPort_Def/CCRC_AT32_20/HW_Def.c **** /* SPI_SCK  1 A05 */
 219:HW_Lib/AT32F435/PinPort_Def/CCRC_AT32_20/HW_Def.c **** /* SPI_MISO 1 A06 */
 220:HW_Lib/AT32F435/PinPort_Def/CCRC_AT32_20/HW_Def.c **** /* SPI_MOSI 1 A07 */
 221:HW_Lib/AT32F435/PinPort_Def/CCRC_AT32_20/HW_Def.c **** BspSPI_PinConfig_TypeDef PriIMU_BusPin = {
 222:HW_Lib/AT32F435/PinPort_Def/CCRC_AT32_20/HW_Def.c ****     .port_mosi = (void *)GPIOA,
 223:HW_Lib/AT32F435/PinPort_Def/CCRC_AT32_20/HW_Def.c ****     .port_miso = (void *)GPIOA,
 224:HW_Lib/AT32F435/PinPort_Def/CCRC_AT32_20/HW_Def.c ****     .port_clk = (void *)GPIOA,
 225:HW_Lib/AT32F435/PinPort_Def/CCRC_AT32_20/HW_Def.c ****     
 226:HW_Lib/AT32F435/PinPort_Def/CCRC_AT32_20/HW_Def.c ****     .pin_mosi = GPIO_PINS_7,
 227:HW_Lib/AT32F435/PinPort_Def/CCRC_AT32_20/HW_Def.c ****     .pin_miso = GPIO_PINS_6,
 228:HW_Lib/AT32F435/PinPort_Def/CCRC_AT32_20/HW_Def.c ****     .pin_clk = GPIO_PINS_5,
 229:HW_Lib/AT32F435/PinPort_Def/CCRC_AT32_20/HW_Def.c **** 
 230:HW_Lib/AT32F435/PinPort_Def/CCRC_AT32_20/HW_Def.c ****     .pin_Alternate = GPIO_MUX_5,
 231:HW_Lib/AT32F435/PinPort_Def/CCRC_AT32_20/HW_Def.c **** };
 232:HW_Lib/AT32F435/PinPort_Def/CCRC_AT32_20/HW_Def.c **** 
 233:HW_Lib/AT32F435/PinPort_Def/CCRC_AT32_20/HW_Def.c **** BspSPI_NorModeConfig_TypeDef PriIMU_BusCfg = {
 234:HW_Lib/AT32F435/PinPort_Def/CCRC_AT32_20/HW_Def.c ****     .Instance = PriIMU_SPI_BUS,
 235:HW_Lib/AT32F435/PinPort_Def/CCRC_AT32_20/HW_Def.c ****     .CLKPolarity = SPI_CLOCK_POLARITY_HIGH,
 236:HW_Lib/AT32F435/PinPort_Def/CCRC_AT32_20/HW_Def.c ****     .CLKPhase = SPI_CLOCK_PHASE_2EDGE,
 237:HW_Lib/AT32F435/PinPort_Def/CCRC_AT32_20/HW_Def.c ****     .BaudRatePrescaler = SPI_MCLK_DIV_8,
 238:HW_Lib/AT32F435/PinPort_Def/CCRC_AT32_20/HW_Def.c **** };
 239:HW_Lib/AT32F435/PinPort_Def/CCRC_AT32_20/HW_Def.c **** 
 240:HW_Lib/AT32F435/PinPort_Def/CCRC_AT32_20/HW_Def.c **** /* external flash chip cs B05 */
 241:HW_Lib/AT32F435/PinPort_Def/CCRC_AT32_20/HW_Def.c **** BspGPIO_Port_TypeDef ExtFlash_CS_Port = {
 242:HW_Lib/AT32F435/PinPort_Def/CCRC_AT32_20/HW_Def.c ****     .port = GPIOB,
 243:HW_Lib/AT32F435/PinPort_Def/CCRC_AT32_20/HW_Def.c **** };
 244:HW_Lib/AT32F435/PinPort_Def/CCRC_AT32_20/HW_Def.c **** 
 245:HW_Lib/AT32F435/PinPort_Def/CCRC_AT32_20/HW_Def.c **** BspGPIO_Obj_TypeDef ExtFlash_CSPin = {
 246:HW_Lib/AT32F435/PinPort_Def/CCRC_AT32_20/HW_Def.c ****     .open_drain = false,
 247:HW_Lib/AT32F435/PinPort_Def/CCRC_AT32_20/HW_Def.c ****     .port = (void *)&ExtFlash_CS_Port,
 248:HW_Lib/AT32F435/PinPort_Def/CCRC_AT32_20/HW_Def.c ****     .pin = GPIO_PINS_5,
 249:HW_Lib/AT32F435/PinPort_Def/CCRC_AT32_20/HW_Def.c ****     .init_state = GPIO_PULL_UP,
 250:HW_Lib/AT32F435/PinPort_Def/CCRC_AT32_20/HW_Def.c **** };
 251:HW_Lib/AT32F435/PinPort_Def/CCRC_AT32_20/HW_Def.c **** 
 252:HW_Lib/AT32F435/PinPort_Def/CCRC_AT32_20/HW_Def.c **** /* external flash chip bus Pin (SPI2) */
 253:HW_Lib/AT32F435/PinPort_Def/CCRC_AT32_20/HW_Def.c **** /* SPI_SCK  2 B13 */
 254:HW_Lib/AT32F435/PinPort_Def/CCRC_AT32_20/HW_Def.c **** /* SPI_MISO 2 B14 */
 255:HW_Lib/AT32F435/PinPort_Def/CCRC_AT32_20/HW_Def.c **** /* SPI_MOSI 2 B15 */
ARM GAS  C:\Users\8bit\AppData\Local\Temp\cckd77rw.s 			page 6


 256:HW_Lib/AT32F435/PinPort_Def/CCRC_AT32_20/HW_Def.c **** BspSPI_PinConfig_TypeDef ExtFlash_SPIPin = {
 257:HW_Lib/AT32F435/PinPort_Def/CCRC_AT32_20/HW_Def.c ****     .port_mosi = (void *)GPIOB,
 258:HW_Lib/AT32F435/PinPort_Def/CCRC_AT32_20/HW_Def.c ****     .port_miso = (void *)GPIOB,
 259:HW_Lib/AT32F435/PinPort_Def/CCRC_AT32_20/HW_Def.c ****     .port_clk = (void *)GPIOB,
 260:HW_Lib/AT32F435/PinPort_Def/CCRC_AT32_20/HW_Def.c ****     
 261:HW_Lib/AT32F435/PinPort_Def/CCRC_AT32_20/HW_Def.c ****     .pin_mosi = GPIO_PINS_15,
 262:HW_Lib/AT32F435/PinPort_Def/CCRC_AT32_20/HW_Def.c ****     .pin_miso = GPIO_PINS_14,
 263:HW_Lib/AT32F435/PinPort_Def/CCRC_AT32_20/HW_Def.c ****     .pin_clk = GPIO_PINS_13,
 264:HW_Lib/AT32F435/PinPort_Def/CCRC_AT32_20/HW_Def.c **** 
 265:HW_Lib/AT32F435/PinPort_Def/CCRC_AT32_20/HW_Def.c ****     .pin_Alternate = GPIO_MUX_5,
 266:HW_Lib/AT32F435/PinPort_Def/CCRC_AT32_20/HW_Def.c **** };
 267:HW_Lib/AT32F435/PinPort_Def/CCRC_AT32_20/HW_Def.c **** 
 268:HW_Lib/AT32F435/PinPort_Def/CCRC_AT32_20/HW_Def.c **** /* PWM IO */
 269:HW_Lib/AT32F435/PinPort_Def/CCRC_AT32_20/HW_Def.c **** BspGPIO_Port_TypeDef PWM_1_Port = {
 270:HW_Lib/AT32F435/PinPort_Def/CCRC_AT32_20/HW_Def.c ****     .port = GPIOB,
 271:HW_Lib/AT32F435/PinPort_Def/CCRC_AT32_20/HW_Def.c **** };
 272:HW_Lib/AT32F435/PinPort_Def/CCRC_AT32_20/HW_Def.c **** 
 273:HW_Lib/AT32F435/PinPort_Def/CCRC_AT32_20/HW_Def.c **** BspGPIO_Port_TypeDef PWM_2_Port = {
 274:HW_Lib/AT32F435/PinPort_Def/CCRC_AT32_20/HW_Def.c ****     .port = GPIOB,
 275:HW_Lib/AT32F435/PinPort_Def/CCRC_AT32_20/HW_Def.c **** };
 276:HW_Lib/AT32F435/PinPort_Def/CCRC_AT32_20/HW_Def.c **** 
 277:HW_Lib/AT32F435/PinPort_Def/CCRC_AT32_20/HW_Def.c **** BspGPIO_Port_TypeDef PWM_3_Port = {
 278:HW_Lib/AT32F435/PinPort_Def/CCRC_AT32_20/HW_Def.c ****     .port = GPIOA,
 279:HW_Lib/AT32F435/PinPort_Def/CCRC_AT32_20/HW_Def.c **** };
 280:HW_Lib/AT32F435/PinPort_Def/CCRC_AT32_20/HW_Def.c **** 
 281:HW_Lib/AT32F435/PinPort_Def/CCRC_AT32_20/HW_Def.c **** BspGPIO_Port_TypeDef PWM_4_Port = {
 282:HW_Lib/AT32F435/PinPort_Def/CCRC_AT32_20/HW_Def.c ****     .port = GPIOB,
 283:HW_Lib/AT32F435/PinPort_Def/CCRC_AT32_20/HW_Def.c **** };
 284:HW_Lib/AT32F435/PinPort_Def/CCRC_AT32_20/HW_Def.c **** 
 285:HW_Lib/AT32F435/PinPort_Def/CCRC_AT32_20/HW_Def.c **** /* I2c 2 SCL H02 */
 286:HW_Lib/AT32F435/PinPort_Def/CCRC_AT32_20/HW_Def.c **** static BspGPIO_Port_TypeDef I2c2_SCL_Port = {
 287:HW_Lib/AT32F435/PinPort_Def/CCRC_AT32_20/HW_Def.c ****     .port = GPIOH,
 288:HW_Lib/AT32F435/PinPort_Def/CCRC_AT32_20/HW_Def.c **** };
 289:HW_Lib/AT32F435/PinPort_Def/CCRC_AT32_20/HW_Def.c **** 
 290:HW_Lib/AT32F435/PinPort_Def/CCRC_AT32_20/HW_Def.c **** /* I2C 2 SDA H03 */
 291:HW_Lib/AT32F435/PinPort_Def/CCRC_AT32_20/HW_Def.c **** static BspGPIO_Port_TypeDef I2c2_SDA_Port = {
 292:HW_Lib/AT32F435/PinPort_Def/CCRC_AT32_20/HW_Def.c ****     .port = GPIOH,
 293:HW_Lib/AT32F435/PinPort_Def/CCRC_AT32_20/HW_Def.c **** };
 294:HW_Lib/AT32F435/PinPort_Def/CCRC_AT32_20/HW_Def.c **** 
 295:HW_Lib/AT32F435/PinPort_Def/CCRC_AT32_20/HW_Def.c **** static BspIIC_PinConfig_TypeDef I2c2_BusPin = {
 296:HW_Lib/AT32F435/PinPort_Def/CCRC_AT32_20/HW_Def.c ****     .port_sck = &I2c2_SCL_Port,
 297:HW_Lib/AT32F435/PinPort_Def/CCRC_AT32_20/HW_Def.c ****     .port_sda = &I2c2_SDA_Port,
 298:HW_Lib/AT32F435/PinPort_Def/CCRC_AT32_20/HW_Def.c ****     .pin_sck = GPIO_PINS_2,
 299:HW_Lib/AT32F435/PinPort_Def/CCRC_AT32_20/HW_Def.c ****     .pin_sda = GPIO_PINS_3,
 300:HW_Lib/AT32F435/PinPort_Def/CCRC_AT32_20/HW_Def.c **** 
 301:HW_Lib/AT32F435/PinPort_Def/CCRC_AT32_20/HW_Def.c ****     .pin_Alternate = GPIO_MUX_4,
 302:HW_Lib/AT32F435/PinPort_Def/CCRC_AT32_20/HW_Def.c **** };
 303:HW_Lib/AT32F435/PinPort_Def/CCRC_AT32_20/HW_Def.c **** 
 304:HW_Lib/AT32F435/PinPort_Def/CCRC_AT32_20/HW_Def.c **** BspIICObj_TypeDef Baro_BusCfg = {
 305:HW_Lib/AT32F435/PinPort_Def/CCRC_AT32_20/HW_Def.c ****     .init = false,
 306:HW_Lib/AT32F435/PinPort_Def/CCRC_AT32_20/HW_Def.c ****     .Pin = &I2c2_BusPin,
 307:HW_Lib/AT32F435/PinPort_Def/CCRC_AT32_20/HW_Def.c ****     .instance_id = BspIIC_Instance_I2C_2,
 308:HW_Lib/AT32F435/PinPort_Def/CCRC_AT32_20/HW_Def.c **** };
 309:HW_Lib/AT32F435/PinPort_Def/CCRC_AT32_20/HW_Def.c **** 
 310:HW_Lib/AT32F435/PinPort_Def/CCRC_AT32_20/HW_Def.c **** void PriIMU_Dir_Tune(float *gyr, float *acc)
 311:HW_Lib/AT32F435/PinPort_Def/CCRC_AT32_20/HW_Def.c **** {
  32              		.loc 1 311 1 view -0
ARM GAS  C:\Users\8bit\AppData\Local\Temp\cckd77rw.s 			page 7


  33              		.cfi_startproc
  34              		@ args = 0, pretend = 0, frame = 48
  35              		@ frame_needed = 0, uses_anonymous_args = 0
  36              		.loc 1 311 1 is_stmt 0 view .LVU1
  37 0000 2DE9F041 		push	{r4, r5, r6, r7, r8, lr}
  38              	.LCFI0:
  39              		.cfi_def_cfa_offset 24
  40              		.cfi_offset 4, -24
  41              		.cfi_offset 5, -20
  42              		.cfi_offset 6, -16
  43              		.cfi_offset 7, -12
  44              		.cfi_offset 8, -8
  45              		.cfi_offset 14, -4
  46 0004 8CB0     		sub	sp, sp, #48
  47              	.LCFI1:
  48              		.cfi_def_cfa_offset 72
 312:HW_Lib/AT32F435/PinPort_Def/CCRC_AT32_20/HW_Def.c ****     double gyr_tmp[Axis_Sum] = {0.0};
  49              		.loc 1 312 5 is_stmt 1 view .LVU2
  50              		.loc 1 312 12 is_stmt 0 view .LVU3
  51 0006 0023     		movs	r3, #0
  52 0008 0693     		str	r3, [sp, #24]
  53 000a 0793     		str	r3, [sp, #28]
  54 000c 0893     		str	r3, [sp, #32]
  55 000e 0993     		str	r3, [sp, #36]
  56 0010 0A93     		str	r3, [sp, #40]
  57 0012 0B93     		str	r3, [sp, #44]
 313:HW_Lib/AT32F435/PinPort_Def/CCRC_AT32_20/HW_Def.c ****     double acc_tmp[Axis_Sum] = {0.0};
  58              		.loc 1 313 5 is_stmt 1 view .LVU4
  59              		.loc 1 313 12 is_stmt 0 view .LVU5
  60 0014 0093     		str	r3, [sp]
  61 0016 0193     		str	r3, [sp, #4]
  62 0018 0293     		str	r3, [sp, #8]
  63 001a 0393     		str	r3, [sp, #12]
  64 001c 0493     		str	r3, [sp, #16]
  65 001e 0593     		str	r3, [sp, #20]
 314:HW_Lib/AT32F435/PinPort_Def/CCRC_AT32_20/HW_Def.c **** 
 315:HW_Lib/AT32F435/PinPort_Def/CCRC_AT32_20/HW_Def.c ****     if (gyr && acc)
  66              		.loc 1 315 5 is_stmt 1 view .LVU6
  67              		.loc 1 315 8 is_stmt 0 view .LVU7
  68 0020 0028     		cmp	r0, #0
  69 0022 44D0     		beq	.L1
  70 0024 0E46     		mov	r6, r1
  71 0026 8046     		mov	r8, r0
  72              		.loc 1 315 13 discriminator 1 view .LVU8
  73 0028 0029     		cmp	r1, #0
  74 002a 40D0     		beq	.L1
  75              	.LBB2:
 316:HW_Lib/AT32F435/PinPort_Def/CCRC_AT32_20/HW_Def.c ****     {
 317:HW_Lib/AT32F435/PinPort_Def/CCRC_AT32_20/HW_Def.c ****         for (uint8_t i = Axis_X; i < Axis_Sum; i++)
  76              		.loc 1 317 22 view .LVU9
  77 002c 0024     		movs	r4, #0
  78 002e 12E0     		b	.L3
  79              	.LVL1:
  80              	.L4:
 318:HW_Lib/AT32F435/PinPort_Def/CCRC_AT32_20/HW_Def.c ****         {
 319:HW_Lib/AT32F435/PinPort_Def/CCRC_AT32_20/HW_Def.c ****             gyr_tmp[i] = gyr[i];
  81              		.loc 1 319 13 is_stmt 1 discriminator 3 view .LVU10
ARM GAS  C:\Users\8bit\AppData\Local\Temp\cckd77rw.s 			page 8


  82              		.loc 1 319 29 is_stmt 0 discriminator 3 view .LVU11
  83 0030 A500     		lsls	r5, r4, #2
  84 0032 08EB8403 		add	r3, r8, r4, lsl #2
  85 0036 1868     		ldr	r0, [r3]	@ float
  86 0038 FFF7FEFF 		bl	__aeabi_f2d
  87              	.LVL2:
  88              		.loc 1 319 24 discriminator 3 view .LVU12
  89 003c 0CAB     		add	r3, sp, #48
  90 003e 03EBC407 		add	r7, r3, r4, lsl #3
  91 0042 47E90601 		strd	r0, [r7, #-24]
 320:HW_Lib/AT32F435/PinPort_Def/CCRC_AT32_20/HW_Def.c ****             acc_tmp[i] = acc[i];
  92              		.loc 1 320 13 is_stmt 1 discriminator 3 view .LVU13
  93              		.loc 1 320 29 is_stmt 0 discriminator 3 view .LVU14
  94 0046 3544     		add	r5, r5, r6
  95 0048 2868     		ldr	r0, [r5]	@ float
  96 004a FFF7FEFF 		bl	__aeabi_f2d
  97              	.LVL3:
  98              		.loc 1 320 24 discriminator 3 view .LVU15
  99 004e 47E90C01 		strd	r0, [r7, #-48]
 317:HW_Lib/AT32F435/PinPort_Def/CCRC_AT32_20/HW_Def.c ****         {
 100              		.loc 1 317 48 is_stmt 1 discriminator 3 view .LVU16
 317:HW_Lib/AT32F435/PinPort_Def/CCRC_AT32_20/HW_Def.c ****         {
 101              		.loc 1 317 49 is_stmt 0 discriminator 3 view .LVU17
 102 0052 0134     		adds	r4, r4, #1
 103              	.LVL4:
 317:HW_Lib/AT32F435/PinPort_Def/CCRC_AT32_20/HW_Def.c ****         {
 104              		.loc 1 317 49 discriminator 3 view .LVU18
 105 0054 E4B2     		uxtb	r4, r4
 106              	.LVL5:
 107              	.L3:
 317:HW_Lib/AT32F435/PinPort_Def/CCRC_AT32_20/HW_Def.c ****         {
 108              		.loc 1 317 34 is_stmt 1 discriminator 1 view .LVU19
 317:HW_Lib/AT32F435/PinPort_Def/CCRC_AT32_20/HW_Def.c ****         {
 109              		.loc 1 317 9 is_stmt 0 discriminator 1 view .LVU20
 110 0056 022C     		cmp	r4, #2
 111 0058 EAD9     		bls	.L4
 112              	.LBE2:
 321:HW_Lib/AT32F435/PinPort_Def/CCRC_AT32_20/HW_Def.c ****         }
 322:HW_Lib/AT32F435/PinPort_Def/CCRC_AT32_20/HW_Def.c **** 
 323:HW_Lib/AT32F435/PinPort_Def/CCRC_AT32_20/HW_Def.c ****         gyr[Axis_X] = -gyr_tmp[Axis_Y];
 113              		.loc 1 323 9 is_stmt 1 view .LVU21
 114              		.loc 1 323 31 is_stmt 0 view .LVU22
 115 005a DDE90801 		ldrd	r0, [sp, #32]
 116 005e FFF7FEFF 		bl	__aeabi_d2f
 117              	.LVL6:
 118              		.loc 1 323 21 view .LVU23
 119 0062 07EE900A 		vmov	s15, r0
 120 0066 F1EE677A 		vneg.f32	s15, s15
 121 006a C8ED007A 		vstr.32	s15, [r8]
 324:HW_Lib/AT32F435/PinPort_Def/CCRC_AT32_20/HW_Def.c ****         gyr[Axis_Y] = gyr_tmp[Axis_X];
 122              		.loc 1 324 9 is_stmt 1 view .LVU24
 123              		.loc 1 324 30 is_stmt 0 view .LVU25
 124 006e DDE90601 		ldrd	r0, [sp, #24]
 125 0072 FFF7FEFF 		bl	__aeabi_d2f
 126              	.LVL7:
 127              		.loc 1 324 21 view .LVU26
 128 0076 C8F80400 		str	r0, [r8, #4]	@ float
ARM GAS  C:\Users\8bit\AppData\Local\Temp\cckd77rw.s 			page 9


 325:HW_Lib/AT32F435/PinPort_Def/CCRC_AT32_20/HW_Def.c ****         gyr[Axis_Z] = gyr_tmp[Axis_Z];
 129              		.loc 1 325 9 is_stmt 1 view .LVU27
 130              		.loc 1 325 30 is_stmt 0 view .LVU28
 131 007a DDE90A01 		ldrd	r0, [sp, #40]
 132 007e FFF7FEFF 		bl	__aeabi_d2f
 133              	.LVL8:
 134              		.loc 1 325 21 view .LVU29
 135 0082 C8F80800 		str	r0, [r8, #8]	@ float
 326:HW_Lib/AT32F435/PinPort_Def/CCRC_AT32_20/HW_Def.c **** 
 327:HW_Lib/AT32F435/PinPort_Def/CCRC_AT32_20/HW_Def.c ****         acc[Axis_X] = -acc_tmp[Axis_Y];
 136              		.loc 1 327 9 is_stmt 1 view .LVU30
 137              		.loc 1 327 31 is_stmt 0 view .LVU31
 138 0086 DDE90201 		ldrd	r0, [sp, #8]
 139 008a FFF7FEFF 		bl	__aeabi_d2f
 140              	.LVL9:
 141              		.loc 1 327 21 view .LVU32
 142 008e 07EE900A 		vmov	s15, r0
 143 0092 F1EE677A 		vneg.f32	s15, s15
 144 0096 C6ED007A 		vstr.32	s15, [r6]
 328:HW_Lib/AT32F435/PinPort_Def/CCRC_AT32_20/HW_Def.c ****         acc[Axis_Y] = acc_tmp[Axis_X];
 145              		.loc 1 328 9 is_stmt 1 view .LVU33
 146              		.loc 1 328 30 is_stmt 0 view .LVU34
 147 009a DDE90001 		ldrd	r0, [sp]
 148 009e FFF7FEFF 		bl	__aeabi_d2f
 149              	.LVL10:
 150              		.loc 1 328 21 view .LVU35
 151 00a2 7060     		str	r0, [r6, #4]	@ float
 329:HW_Lib/AT32F435/PinPort_Def/CCRC_AT32_20/HW_Def.c ****         acc[Axis_Z] = acc_tmp[Axis_Z];
 152              		.loc 1 329 9 is_stmt 1 view .LVU36
 153              		.loc 1 329 30 is_stmt 0 view .LVU37
 154 00a4 DDE90401 		ldrd	r0, [sp, #16]
 155 00a8 FFF7FEFF 		bl	__aeabi_d2f
 156              	.LVL11:
 157              		.loc 1 329 21 view .LVU38
 158 00ac B060     		str	r0, [r6, #8]	@ float
 159              	.LVL12:
 160              	.L1:
 330:HW_Lib/AT32F435/PinPort_Def/CCRC_AT32_20/HW_Def.c ****     }
 331:HW_Lib/AT32F435/PinPort_Def/CCRC_AT32_20/HW_Def.c **** }
 161              		.loc 1 331 1 view .LVU39
 162 00ae 0CB0     		add	sp, sp, #48
 163              	.LCFI2:
 164              		.cfi_def_cfa_offset 24
 165              		@ sp needed
 166 00b0 BDE8F081 		pop	{r4, r5, r6, r7, r8, pc}
 167              		.cfi_endproc
 168              	.LFE134:
 170              		.global	DebugPort
 171              		.global	Baro_BusCfg
 172              		.global	PWM_4_Port
 173              		.global	PWM_3_Port
 174              		.global	PWM_2_Port
 175              		.global	PWM_1_Port
 176              		.global	ExtFlash_SPIPin
 177              		.global	ExtFlash_CSPin
 178              		.global	ExtFlash_CS_Port
 179              		.global	PriIMU_BusCfg
ARM GAS  C:\Users\8bit\AppData\Local\Temp\cckd77rw.s 			page 10


 180              		.global	PriIMU_BusPin
 181              		.global	PriIMU_INTPin
 182              		.global	PriIMU_INT_Port
 183              		.global	PriIMU_CSPin
 184              		.global	PriIMU_CS_Port
 185              		.global	Uart7_RxPin
 186              		.global	Uart7_Rx_Port
 187              		.global	Uart7_TxPin
 188              		.global	Uart7_Tx_Port
 189              		.global	Uart5_RxPin
 190              		.global	Uart5_Rx_Port
 191              		.global	Uart5_TxPin
 192              		.global	Uart5_Tx_Port
 193              		.global	Uart2_RxPin
 194              		.global	Uart2_Rx_Port
 195              		.global	Uart2_TxPin
 196              		.global	Uart2_Tx_Port
 197              		.global	Uart1_RxPin
 198              		.global	Uart1_Rx_Port
 199              		.global	Uart1_TxPin
 200              		.global	Uart1_Tx_Port
 201              		.global	Uart3_RxPin
 202              		.global	Uart3_Rx_Port
 203              		.global	Uart3_TxPin
 204              		.global	Uart3_Tx_Port
 205              		.global	Led2
 206              		.global	Led2_Port
 207              		.global	Led1
 208              		.global	Led1_Port
 209              		.section	.bss.PriIMU_INT_Port,"aw",%nobits
 210              		.align	2
 213              	PriIMU_INT_Port:
 214 0000 00       		.space	1
 215              		.section	.data.Baro_BusCfg,"aw"
 216              		.align	2
 219              	Baro_BusCfg:
 220 0000 00000000 		.word	I2c2_BusPin
 221 0004 00       		.byte	0
 222 0005 01       		.byte	1
 223 0006 00000000 		.space	14
 223      00000000 
 223      00000000 
 223      0000
 224              		.section	.data.DebugPort,"aw"
 225              		.align	2
 228              	DebugPort:
 229 0000 00000000 		.word	Debug_Port_Obj
 230 0004 00000000 		.space	16
 230      00000000 
 230      00000000 
 230      00000000 
 231              		.section	.data.Debug_Port_Obj,"aw"
 232              		.align	2
 235              	Debug_Port_Obj:
 236 0000 00080700 		.word	460800
 237 0004 00       		.byte	0
 238 0005 000000   		.space	3
ARM GAS  C:\Users\8bit\AppData\Local\Temp\cckd77rw.s 			page 11


 239 0008 00780040 		.word	1073772544
 240 000c 00000000 		.space	4
 241 0010 FF       		.byte	-1
 242 0011 FF       		.byte	-1
 243 0012 00000000 		.space	6
 243      0000
 244 0018 FF       		.byte	-1
 245 0019 FF       		.byte	-1
 246 001a 00000000 		.space	6
 246      0000
 247 0020 00000000 		.word	Uart7_Tx_Port
 248 0024 1000     		.short	16
 249 0026 00       		.byte	0
 250 0027 00       		.space	1
 251 0028 08000000 		.word	8
 252 002c 00000000 		.word	Uart7_Rx_Port
 253 0030 0800     		.short	8
 254 0032 00       		.byte	0
 255 0033 00       		.space	1
 256 0034 08000000 		.word	8
 257 0038 00000000 		.space	8
 257      00000000 
 258 0040 00000000 		.word	0
 259 0044 0000     		.short	0
 260 0046 00000000 		.space	42
 260      00000000 
 260      00000000 
 260      00000000 
 260      00000000 
 261              		.section	.data.ExtFlash_CSPin,"aw"
 262              		.align	2
 265              	ExtFlash_CSPin:
 266 0000 00000000 		.word	ExtFlash_CS_Port
 267 0004 2000     		.short	32
 268 0006 01       		.byte	1
 269 0007 00       		.byte	0
 270 0008 00000000 		.space	4
 271              		.section	.data.ExtFlash_CS_Port,"aw"
 272              		.align	2
 275              	ExtFlash_CS_Port:
 276 0000 00040240 		.word	1073873920
 277              		.section	.data.ExtFlash_SPIPin,"aw"
 278              		.align	2
 281              	ExtFlash_SPIPin:
 282 0000 00040240 		.word	1073873920
 283 0004 00040240 		.word	1073873920
 284 0008 00040240 		.word	1073873920
 285 000c 00800000 		.word	32768
 286 0010 00400000 		.word	16384
 287 0014 00200000 		.word	8192
 288 0018 05000000 		.word	5
 289              		.section	.data.I2c2_BusPin,"aw"
 290              		.align	2
 293              	I2c2_BusPin:
 294 0000 00000000 		.word	I2c2_SDA_Port
 295 0004 00000000 		.word	I2c2_SCL_Port
 296 0008 08000000 		.word	8
ARM GAS  C:\Users\8bit\AppData\Local\Temp\cckd77rw.s 			page 12


 297 000c 04000000 		.word	4
 298 0010 04000000 		.word	4
 299              		.section	.data.I2c2_SCL_Port,"aw"
 300              		.align	2
 303              	I2c2_SCL_Port:
 304 0000 001C0240 		.word	1073880064
 305              		.section	.data.I2c2_SDA_Port,"aw"
 306              		.align	2
 309              	I2c2_SDA_Port:
 310 0000 001C0240 		.word	1073880064
 311              		.section	.data.Led1,"aw"
 312              		.align	2
 315              	Led1:
 316 0000 00000000 		.word	Led1_Port
 317 0004 0020     		.short	8192
 318 0006 00       		.byte	0
 319 0007 00       		.byte	0
 320 0008 00000000 		.space	4
 321              		.section	.data.Led1_Port,"aw"
 322              		.align	2
 325              	Led1_Port:
 326 0000 00080240 		.word	1073874944
 327              		.section	.data.Led2,"aw"
 328              		.align	2
 331              	Led2:
 332 0000 00000000 		.word	Led2_Port
 333 0004 0040     		.short	16384
 334 0006 00       		.byte	0
 335 0007 00       		.byte	0
 336 0008 00000000 		.space	4
 337              		.section	.data.Led2_Port,"aw"
 338              		.align	2
 341              	Led2_Port:
 342 0000 00080240 		.word	1073874944
 343              		.section	.data.PWM_1_Port,"aw"
 344              		.align	2
 347              	PWM_1_Port:
 348 0000 00040240 		.word	1073873920
 349              		.section	.data.PWM_2_Port,"aw"
 350              		.align	2
 353              	PWM_2_Port:
 354 0000 00040240 		.word	1073873920
 355              		.section	.data.PWM_3_Port,"aw"
 356              		.align	2
 359              	PWM_3_Port:
 360 0000 00000240 		.word	1073872896
 361              		.section	.data.PWM_4_Port,"aw"
 362              		.align	2
 365              	PWM_4_Port:
 366 0000 00040240 		.word	1073873920
 367              		.section	.data.PriIMU_BusCfg,"aw"
 368              		.align	2
 371              	PriIMU_BusCfg:
 372 0000 00000000 		.space	28
 372      00000000 
 372      00000000 
 372      00000000 
ARM GAS  C:\Users\8bit\AppData\Local\Temp\cckd77rw.s 			page 13


 372      00000000 
 373 001c 00300140 		.word	1073819648
 374 0020 01000000 		.word	1
 375 0024 01000000 		.word	1
 376 0028 02000000 		.word	2
 377              		.section	.data.PriIMU_BusPin,"aw"
 378              		.align	2
 381              	PriIMU_BusPin:
 382 0000 00000240 		.word	1073872896
 383 0004 00000240 		.word	1073872896
 384 0008 00000240 		.word	1073872896
 385 000c 80000000 		.word	128
 386 0010 40000000 		.word	64
 387 0014 20000000 		.word	32
 388 0018 05000000 		.word	5
 389              		.section	.data.PriIMU_CSPin,"aw"
 390              		.align	2
 393              	PriIMU_CSPin:
 394 0000 00000000 		.word	PriIMU_CS_Port
 395 0004 1000     		.short	16
 396 0006 01       		.byte	1
 397 0007 00       		.byte	0
 398 0008 00000000 		.space	4
 399              		.section	.data.PriIMU_CS_Port,"aw"
 400              		.align	2
 403              	PriIMU_CS_Port:
 404 0000 00000240 		.word	1073872896
 405              		.section	.data.PriIMU_INTPin,"aw"
 406              		.align	2
 409              	PriIMU_INTPin:
 410 0000 00000000 		.word	PriIMU_INT_Port
 411 0004 0080     		.short	-32768
 412 0006 01       		.byte	1
 413 0007 00       		.byte	0
 414 0008 00000000 		.space	4
 415              		.section	.data.Uart1_RxPin,"aw"
 416              		.align	2
 419              	Uart1_RxPin:
 420 0000 00000000 		.word	Uart1_Rx_Port
 421 0004 0004     		.short	1024
 422 0006 00       		.byte	0
 423 0007 00       		.byte	0
 424 0008 07000000 		.word	7
 425              		.section	.data.Uart1_Rx_Port,"aw"
 426              		.align	2
 429              	Uart1_Rx_Port:
 430 0000 00000240 		.word	1073872896
 431              		.section	.data.Uart1_TxPin,"aw"
 432              		.align	2
 435              	Uart1_TxPin:
 436 0000 00000000 		.word	Uart1_Tx_Port
 437 0004 0002     		.short	512
 438 0006 00       		.byte	0
 439 0007 00       		.byte	0
 440 0008 07000000 		.word	7
 441              		.section	.data.Uart1_Tx_Port,"aw"
 442              		.align	2
ARM GAS  C:\Users\8bit\AppData\Local\Temp\cckd77rw.s 			page 14


 445              	Uart1_Tx_Port:
 446 0000 00000240 		.word	1073872896
 447              		.section	.data.Uart2_RxPin,"aw"
 448              		.align	2
 451              	Uart2_RxPin:
 452 0000 00000000 		.word	Uart2_Rx_Port
 453 0004 0100     		.short	1
 454 0006 00       		.byte	0
 455 0007 00       		.byte	0
 456 0008 06000000 		.word	6
 457              		.section	.data.Uart2_Rx_Port,"aw"
 458              		.align	2
 461              	Uart2_Rx_Port:
 462 0000 00040240 		.word	1073873920
 463              		.section	.data.Uart2_TxPin,"aw"
 464              		.align	2
 467              	Uart2_TxPin:
 468 0000 00000000 		.word	Uart2_Tx_Port
 469 0004 0400     		.short	4
 470 0006 00       		.byte	0
 471 0007 00       		.byte	0
 472 0008 07000000 		.word	7
 473              		.section	.data.Uart2_Tx_Port,"aw"
 474              		.align	2
 477              	Uart2_Tx_Port:
 478 0000 00000240 		.word	1073872896
 479              		.section	.data.Uart3_RxPin,"aw"
 480              		.align	2
 483              	Uart3_RxPin:
 484 0000 00000000 		.word	Uart3_Rx_Port
 485 0004 0004     		.short	1024
 486 0006 00       		.byte	0
 487 0007 00       		.byte	0
 488 0008 07000000 		.word	7
 489              		.section	.data.Uart3_Rx_Port,"aw"
 490              		.align	2
 493              	Uart3_Rx_Port:
 494 0000 00040240 		.word	1073873920
 495              		.section	.data.Uart3_TxPin,"aw"
 496              		.align	2
 499              	Uart3_TxPin:
 500 0000 00000000 		.word	Uart3_Tx_Port
 501 0004 0008     		.short	2048
 502 0006 00       		.byte	0
 503 0007 00       		.byte	0
 504 0008 07000000 		.word	7
 505              		.section	.data.Uart3_Tx_Port,"aw"
 506              		.align	2
 509              	Uart3_Tx_Port:
 510 0000 00040240 		.word	1073873920
 511              		.section	.data.Uart5_RxPin,"aw"
 512              		.align	2
 515              	Uart5_RxPin:
 516 0000 00000000 		.word	Uart5_Rx_Port
 517 0004 0001     		.short	256
 518 0006 00       		.byte	0
 519 0007 00       		.byte	0
ARM GAS  C:\Users\8bit\AppData\Local\Temp\cckd77rw.s 			page 15


 520 0008 08000000 		.word	8
 521              		.section	.data.Uart5_Rx_Port,"aw"
 522              		.align	2
 525              	Uart5_Rx_Port:
 526 0000 00040240 		.word	1073873920
 527              		.section	.data.Uart5_TxPin,"aw"
 528              		.align	2
 531              	Uart5_TxPin:
 532 0000 00000000 		.word	Uart5_Tx_Port
 533 0004 0002     		.short	512
 534 0006 00       		.byte	0
 535 0007 00       		.byte	0
 536 0008 08000000 		.word	8
 537              		.section	.data.Uart5_Tx_Port,"aw"
 538              		.align	2
 541              	Uart5_Tx_Port:
 542 0000 00040240 		.word	1073873920
 543              		.section	.data.Uart7_RxPin,"aw"
 544              		.align	2
 547              	Uart7_RxPin:
 548 0000 00000000 		.word	Uart7_Rx_Port
 549 0004 0800     		.short	8
 550 0006 00       		.byte	0
 551 0007 00       		.byte	0
 552 0008 08000000 		.word	8
 553              		.section	.data.Uart7_Rx_Port,"aw"
 554              		.align	2
 557              	Uart7_Rx_Port:
 558 0000 00040240 		.word	1073873920
 559              		.section	.data.Uart7_TxPin,"aw"
 560              		.align	2
 563              	Uart7_TxPin:
 564 0000 00000000 		.word	Uart7_Tx_Port
 565 0004 1000     		.short	16
 566 0006 00       		.byte	0
 567 0007 00       		.byte	0
 568 0008 08000000 		.word	8
 569              		.section	.data.Uart7_Tx_Port,"aw"
 570              		.align	2
 573              	Uart7_Tx_Port:
 574 0000 00040240 		.word	1073873920
 575              		.text
 576              	.Letext0:
 577              		.file 2 "c:\\program files (x86)\\gnu arm embedded toolchain\\10 2021.10\\arm-none-eabi\\include\\
 578              		.file 3 "c:\\program files (x86)\\gnu arm embedded toolchain\\10 2021.10\\arm-none-eabi\\include\\
 579              		.file 4 "HW_Lib/AT32F435/drivers/inc/at32f435_437_tmr.h"
 580              		.file 5 "HW_Lib/AT32F435/drivers/inc/at32f435_437_gpio.h"
 581              		.file 6 "HW_Lib/AT32F435/drivers/inc/at32f435_437_usart.h"
 582              		.file 7 "HW_Lib/AT32F435/drivers/inc/at32f435_437_spi.h"
 583              		.file 8 "HW_Lib/AT32F435/drivers/inc/at32f435_437_exint.h"
 584              		.file 9 "HW_Lib/AT32F435/drivers/inc/at32f435_437_scfg.h"
 585              		.file 10 "HW_Lib/Port_Def/Bsp_GPIO_Port_Def.h"
 586              		.file 11 "HW_Lib/AT32F435/bsp/Bsp_GPIO.h"
 587              		.file 12 "HW_Lib/Port_Def/Bsp_IIC_Port_Def.h"
 588              		.file 13 "HW_Lib/AT32F435/bsp/Bsp_IIC.h"
 589              		.file 14 "HW_Lib/AT32F435/bsp/Bsp_DMA.h"
 590              		.file 15 "HW_Lib/Port_Def/Bsp_Uart_Port_Def.h"
ARM GAS  C:\Users\8bit\AppData\Local\Temp\cckd77rw.s 			page 16


 591              		.file 16 "HW_Lib/Port_Def/Bsp_SPI_Port_Def.h"
 592              		.file 17 "Device/Dev_Led.h"
 593              		.file 18 "debug/debug_util.h"
 594              		.file 19 "common/Error_Log/../../common/gen_physic_def/imu_data.h"
 595              		.file 20 "HW_Lib/AT32F435/PinPort_Def/CCRC_AT32_20/HW_Def.h"
ARM GAS  C:\Users\8bit\AppData\Local\Temp\cckd77rw.s 			page 17


DEFINED SYMBOLS
                            *ABS*:00000000 HW_Def.c
C:\Users\8bit\AppData\Local\Temp\cckd77rw.s:22     .text.PriIMU_Dir_Tune:00000000 $t
C:\Users\8bit\AppData\Local\Temp\cckd77rw.s:28     .text.PriIMU_Dir_Tune:00000000 PriIMU_Dir_Tune
C:\Users\8bit\AppData\Local\Temp\cckd77rw.s:228    .data.DebugPort:00000000 DebugPort
C:\Users\8bit\AppData\Local\Temp\cckd77rw.s:219    .data.Baro_BusCfg:00000000 Baro_BusCfg
C:\Users\8bit\AppData\Local\Temp\cckd77rw.s:365    .data.PWM_4_Port:00000000 PWM_4_Port
C:\Users\8bit\AppData\Local\Temp\cckd77rw.s:359    .data.PWM_3_Port:00000000 PWM_3_Port
C:\Users\8bit\AppData\Local\Temp\cckd77rw.s:353    .data.PWM_2_Port:00000000 PWM_2_Port
C:\Users\8bit\AppData\Local\Temp\cckd77rw.s:347    .data.PWM_1_Port:00000000 PWM_1_Port
C:\Users\8bit\AppData\Local\Temp\cckd77rw.s:281    .data.ExtFlash_SPIPin:00000000 ExtFlash_SPIPin
C:\Users\8bit\AppData\Local\Temp\cckd77rw.s:265    .data.ExtFlash_CSPin:00000000 ExtFlash_CSPin
C:\Users\8bit\AppData\Local\Temp\cckd77rw.s:275    .data.ExtFlash_CS_Port:00000000 ExtFlash_CS_Port
C:\Users\8bit\AppData\Local\Temp\cckd77rw.s:371    .data.PriIMU_BusCfg:00000000 PriIMU_BusCfg
C:\Users\8bit\AppData\Local\Temp\cckd77rw.s:381    .data.PriIMU_BusPin:00000000 PriIMU_BusPin
C:\Users\8bit\AppData\Local\Temp\cckd77rw.s:409    .data.PriIMU_INTPin:00000000 PriIMU_INTPin
C:\Users\8bit\AppData\Local\Temp\cckd77rw.s:213    .bss.PriIMU_INT_Port:00000000 PriIMU_INT_Port
C:\Users\8bit\AppData\Local\Temp\cckd77rw.s:393    .data.PriIMU_CSPin:00000000 PriIMU_CSPin
C:\Users\8bit\AppData\Local\Temp\cckd77rw.s:403    .data.PriIMU_CS_Port:00000000 PriIMU_CS_Port
C:\Users\8bit\AppData\Local\Temp\cckd77rw.s:547    .data.Uart7_RxPin:00000000 Uart7_RxPin
C:\Users\8bit\AppData\Local\Temp\cckd77rw.s:557    .data.Uart7_Rx_Port:00000000 Uart7_Rx_Port
C:\Users\8bit\AppData\Local\Temp\cckd77rw.s:563    .data.Uart7_TxPin:00000000 Uart7_TxPin
C:\Users\8bit\AppData\Local\Temp\cckd77rw.s:573    .data.Uart7_Tx_Port:00000000 Uart7_Tx_Port
C:\Users\8bit\AppData\Local\Temp\cckd77rw.s:515    .data.Uart5_RxPin:00000000 Uart5_RxPin
C:\Users\8bit\AppData\Local\Temp\cckd77rw.s:525    .data.Uart5_Rx_Port:00000000 Uart5_Rx_Port
C:\Users\8bit\AppData\Local\Temp\cckd77rw.s:531    .data.Uart5_TxPin:00000000 Uart5_TxPin
C:\Users\8bit\AppData\Local\Temp\cckd77rw.s:541    .data.Uart5_Tx_Port:00000000 Uart5_Tx_Port
C:\Users\8bit\AppData\Local\Temp\cckd77rw.s:451    .data.Uart2_RxPin:00000000 Uart2_RxPin
C:\Users\8bit\AppData\Local\Temp\cckd77rw.s:461    .data.Uart2_Rx_Port:00000000 Uart2_Rx_Port
C:\Users\8bit\AppData\Local\Temp\cckd77rw.s:467    .data.Uart2_TxPin:00000000 Uart2_TxPin
C:\Users\8bit\AppData\Local\Temp\cckd77rw.s:477    .data.Uart2_Tx_Port:00000000 Uart2_Tx_Port
C:\Users\8bit\AppData\Local\Temp\cckd77rw.s:419    .data.Uart1_RxPin:00000000 Uart1_RxPin
C:\Users\8bit\AppData\Local\Temp\cckd77rw.s:429    .data.Uart1_Rx_Port:00000000 Uart1_Rx_Port
C:\Users\8bit\AppData\Local\Temp\cckd77rw.s:435    .data.Uart1_TxPin:00000000 Uart1_TxPin
C:\Users\8bit\AppData\Local\Temp\cckd77rw.s:445    .data.Uart1_Tx_Port:00000000 Uart1_Tx_Port
C:\Users\8bit\AppData\Local\Temp\cckd77rw.s:483    .data.Uart3_RxPin:00000000 Uart3_RxPin
C:\Users\8bit\AppData\Local\Temp\cckd77rw.s:493    .data.Uart3_Rx_Port:00000000 Uart3_Rx_Port
C:\Users\8bit\AppData\Local\Temp\cckd77rw.s:499    .data.Uart3_TxPin:00000000 Uart3_TxPin
C:\Users\8bit\AppData\Local\Temp\cckd77rw.s:509    .data.Uart3_Tx_Port:00000000 Uart3_Tx_Port
C:\Users\8bit\AppData\Local\Temp\cckd77rw.s:331    .data.Led2:00000000 Led2
C:\Users\8bit\AppData\Local\Temp\cckd77rw.s:341    .data.Led2_Port:00000000 Led2_Port
C:\Users\8bit\AppData\Local\Temp\cckd77rw.s:315    .data.Led1:00000000 Led1
C:\Users\8bit\AppData\Local\Temp\cckd77rw.s:325    .data.Led1_Port:00000000 Led1_Port
C:\Users\8bit\AppData\Local\Temp\cckd77rw.s:210    .bss.PriIMU_INT_Port:00000000 $d
C:\Users\8bit\AppData\Local\Temp\cckd77rw.s:216    .data.Baro_BusCfg:00000000 $d
C:\Users\8bit\AppData\Local\Temp\cckd77rw.s:293    .data.I2c2_BusPin:00000000 I2c2_BusPin
C:\Users\8bit\AppData\Local\Temp\cckd77rw.s:225    .data.DebugPort:00000000 $d
C:\Users\8bit\AppData\Local\Temp\cckd77rw.s:235    .data.Debug_Port_Obj:00000000 Debug_Port_Obj
C:\Users\8bit\AppData\Local\Temp\cckd77rw.s:232    .data.Debug_Port_Obj:00000000 $d
C:\Users\8bit\AppData\Local\Temp\cckd77rw.s:262    .data.ExtFlash_CSPin:00000000 $d
C:\Users\8bit\AppData\Local\Temp\cckd77rw.s:272    .data.ExtFlash_CS_Port:00000000 $d
C:\Users\8bit\AppData\Local\Temp\cckd77rw.s:278    .data.ExtFlash_SPIPin:00000000 $d
C:\Users\8bit\AppData\Local\Temp\cckd77rw.s:290    .data.I2c2_BusPin:00000000 $d
C:\Users\8bit\AppData\Local\Temp\cckd77rw.s:309    .data.I2c2_SDA_Port:00000000 I2c2_SDA_Port
C:\Users\8bit\AppData\Local\Temp\cckd77rw.s:303    .data.I2c2_SCL_Port:00000000 I2c2_SCL_Port
C:\Users\8bit\AppData\Local\Temp\cckd77rw.s:300    .data.I2c2_SCL_Port:00000000 $d
C:\Users\8bit\AppData\Local\Temp\cckd77rw.s:306    .data.I2c2_SDA_Port:00000000 $d
ARM GAS  C:\Users\8bit\AppData\Local\Temp\cckd77rw.s 			page 18


C:\Users\8bit\AppData\Local\Temp\cckd77rw.s:312    .data.Led1:00000000 $d
C:\Users\8bit\AppData\Local\Temp\cckd77rw.s:322    .data.Led1_Port:00000000 $d
C:\Users\8bit\AppData\Local\Temp\cckd77rw.s:328    .data.Led2:00000000 $d
C:\Users\8bit\AppData\Local\Temp\cckd77rw.s:338    .data.Led2_Port:00000000 $d
C:\Users\8bit\AppData\Local\Temp\cckd77rw.s:344    .data.PWM_1_Port:00000000 $d
C:\Users\8bit\AppData\Local\Temp\cckd77rw.s:350    .data.PWM_2_Port:00000000 $d
C:\Users\8bit\AppData\Local\Temp\cckd77rw.s:356    .data.PWM_3_Port:00000000 $d
C:\Users\8bit\AppData\Local\Temp\cckd77rw.s:362    .data.PWM_4_Port:00000000 $d
C:\Users\8bit\AppData\Local\Temp\cckd77rw.s:368    .data.PriIMU_BusCfg:00000000 $d
C:\Users\8bit\AppData\Local\Temp\cckd77rw.s:378    .data.PriIMU_BusPin:00000000 $d
C:\Users\8bit\AppData\Local\Temp\cckd77rw.s:390    .data.PriIMU_CSPin:00000000 $d
C:\Users\8bit\AppData\Local\Temp\cckd77rw.s:400    .data.PriIMU_CS_Port:00000000 $d
C:\Users\8bit\AppData\Local\Temp\cckd77rw.s:406    .data.PriIMU_INTPin:00000000 $d
C:\Users\8bit\AppData\Local\Temp\cckd77rw.s:416    .data.Uart1_RxPin:00000000 $d
C:\Users\8bit\AppData\Local\Temp\cckd77rw.s:426    .data.Uart1_Rx_Port:00000000 $d
C:\Users\8bit\AppData\Local\Temp\cckd77rw.s:432    .data.Uart1_TxPin:00000000 $d
C:\Users\8bit\AppData\Local\Temp\cckd77rw.s:442    .data.Uart1_Tx_Port:00000000 $d
C:\Users\8bit\AppData\Local\Temp\cckd77rw.s:448    .data.Uart2_RxPin:00000000 $d
C:\Users\8bit\AppData\Local\Temp\cckd77rw.s:458    .data.Uart2_Rx_Port:00000000 $d
C:\Users\8bit\AppData\Local\Temp\cckd77rw.s:464    .data.Uart2_TxPin:00000000 $d
C:\Users\8bit\AppData\Local\Temp\cckd77rw.s:474    .data.Uart2_Tx_Port:00000000 $d
C:\Users\8bit\AppData\Local\Temp\cckd77rw.s:480    .data.Uart3_RxPin:00000000 $d
C:\Users\8bit\AppData\Local\Temp\cckd77rw.s:490    .data.Uart3_Rx_Port:00000000 $d
C:\Users\8bit\AppData\Local\Temp\cckd77rw.s:496    .data.Uart3_TxPin:00000000 $d
C:\Users\8bit\AppData\Local\Temp\cckd77rw.s:506    .data.Uart3_Tx_Port:00000000 $d
C:\Users\8bit\AppData\Local\Temp\cckd77rw.s:512    .data.Uart5_RxPin:00000000 $d
C:\Users\8bit\AppData\Local\Temp\cckd77rw.s:522    .data.Uart5_Rx_Port:00000000 $d
C:\Users\8bit\AppData\Local\Temp\cckd77rw.s:528    .data.Uart5_TxPin:00000000 $d
C:\Users\8bit\AppData\Local\Temp\cckd77rw.s:538    .data.Uart5_Tx_Port:00000000 $d
C:\Users\8bit\AppData\Local\Temp\cckd77rw.s:544    .data.Uart7_RxPin:00000000 $d
C:\Users\8bit\AppData\Local\Temp\cckd77rw.s:554    .data.Uart7_Rx_Port:00000000 $d
C:\Users\8bit\AppData\Local\Temp\cckd77rw.s:560    .data.Uart7_TxPin:00000000 $d
C:\Users\8bit\AppData\Local\Temp\cckd77rw.s:570    .data.Uart7_Tx_Port:00000000 $d

UNDEFINED SYMBOLS
__aeabi_f2d
__aeabi_d2f
