ARM GAS  C:\Users\8bit\AppData\Local\Temp\ccxE8K1A.s 			page 1


   1              		.cpu cortex-m4
   2              		.arch armv7e-m
   3              		.fpu fpv4-sp-d16
   4              		.eabi_attribute 27, 1
   5              		.eabi_attribute 28, 1
   6              		.eabi_attribute 20, 1
   7              		.eabi_attribute 21, 1
   8              		.eabi_attribute 23, 3
   9              		.eabi_attribute 24, 1
  10              		.eabi_attribute 25, 1
  11              		.eabi_attribute 26, 1
  12              		.eabi_attribute 30, 1
  13              		.eabi_attribute 34, 1
  14              		.eabi_attribute 18, 4
  15              		.file	"i2c_application.c"
  16              		.text
  17              	.Ltext0:
  18              		.cfi_sections	.debug_frame
  19              		.section	.text.i2c_lowlevel_init,"ax",%progbits
  20              		.align	1
  21              		.weak	i2c_lowlevel_init
  22              		.syntax unified
  23              		.thumb
  24              		.thumb_func
  26              	i2c_lowlevel_init:
  27              	.LVL0:
  28              	.LFB133:
  29              		.file 1 "HW_Lib/AT32F435/drivers/src/i2c_application.c"
   1:HW_Lib/AT32F435/drivers/src/i2c_application.c **** /**
   2:HW_Lib/AT32F435/drivers/src/i2c_application.c ****   **************************************************************************
   3:HW_Lib/AT32F435/drivers/src/i2c_application.c ****   * @file     i2c_application.c
   4:HW_Lib/AT32F435/drivers/src/i2c_application.c ****   * @version  v2.1.0
   5:HW_Lib/AT32F435/drivers/src/i2c_application.c ****   * @date     2022-08-16
   6:HW_Lib/AT32F435/drivers/src/i2c_application.c ****   * @brief    the driver library of the i2c peripheral
   7:HW_Lib/AT32F435/drivers/src/i2c_application.c ****   **************************************************************************
   8:HW_Lib/AT32F435/drivers/src/i2c_application.c ****   *                       Copyright notice & Disclaimer
   9:HW_Lib/AT32F435/drivers/src/i2c_application.c ****   *
  10:HW_Lib/AT32F435/drivers/src/i2c_application.c ****   * The software Board Support Package (BSP) that is made available to
  11:HW_Lib/AT32F435/drivers/src/i2c_application.c ****   * download from Artery official website is the copyrighted work of Artery.
  12:HW_Lib/AT32F435/drivers/src/i2c_application.c ****   * Artery authorizes customers to use, copy, and distribute the BSP
  13:HW_Lib/AT32F435/drivers/src/i2c_application.c ****   * software and its related documentation for the purpose of design and
  14:HW_Lib/AT32F435/drivers/src/i2c_application.c ****   * development in conjunction with Artery microcontrollers. Use of the
  15:HW_Lib/AT32F435/drivers/src/i2c_application.c ****   * software is governed by this copyright notice and the following disclaimer.
  16:HW_Lib/AT32F435/drivers/src/i2c_application.c ****   *
  17:HW_Lib/AT32F435/drivers/src/i2c_application.c ****   * THIS SOFTWARE IS PROVIDED ON "AS IS" BASIS WITHOUT WARRANTIES,
  18:HW_Lib/AT32F435/drivers/src/i2c_application.c ****   * GUARANTEES OR REPRESENTATIONS OF ANY KIND. ARTERY EXPRESSLY DISCLAIMS,
  19:HW_Lib/AT32F435/drivers/src/i2c_application.c ****   * TO THE FULLEST EXTENT PERMITTED BY LAW, ALL EXPRESS, IMPLIED OR
  20:HW_Lib/AT32F435/drivers/src/i2c_application.c ****   * STATUTORY OR OTHER WARRANTIES, GUARANTEES OR REPRESENTATIONS,
  21:HW_Lib/AT32F435/drivers/src/i2c_application.c ****   * INCLUDING BUT NOT LIMITED TO, THE IMPLIED WARRANTIES OF MERCHANTABILITY,
  22:HW_Lib/AT32F435/drivers/src/i2c_application.c ****   * FITNESS FOR A PARTICULAR PURPOSE, OR NON-INFRINGEMENT.
  23:HW_Lib/AT32F435/drivers/src/i2c_application.c ****   *
  24:HW_Lib/AT32F435/drivers/src/i2c_application.c ****   **************************************************************************
  25:HW_Lib/AT32F435/drivers/src/i2c_application.c ****   */
  26:HW_Lib/AT32F435/drivers/src/i2c_application.c **** 
  27:HW_Lib/AT32F435/drivers/src/i2c_application.c **** #include "i2c_application.h"
  28:HW_Lib/AT32F435/drivers/src/i2c_application.c **** 
  29:HW_Lib/AT32F435/drivers/src/i2c_application.c **** /** @addtogroup AT32F435_437_middlewares_i2c_application_library
ARM GAS  C:\Users\8bit\AppData\Local\Temp\ccxE8K1A.s 			page 2


  30:HW_Lib/AT32F435/drivers/src/i2c_application.c ****   * @{
  31:HW_Lib/AT32F435/drivers/src/i2c_application.c ****   */
  32:HW_Lib/AT32F435/drivers/src/i2c_application.c **** 
  33:HW_Lib/AT32F435/drivers/src/i2c_application.c **** /**
  34:HW_Lib/AT32F435/drivers/src/i2c_application.c ****   * @brief get the dma transfer direction flag through the channel
  35:HW_Lib/AT32F435/drivers/src/i2c_application.c ****   */
  36:HW_Lib/AT32F435/drivers/src/i2c_application.c **** #define DMA_GET_REQUEST(DMA_CHANNEL) \
  37:HW_Lib/AT32F435/drivers/src/i2c_application.c **** (((uint32_t)(DMA_CHANNEL) == ((uint32_t)hi2c->dma_tx_channel)) ? I2C_DMA_REQUEST_TX : I2C_DMA_REQUE
  38:HW_Lib/AT32F435/drivers/src/i2c_application.c **** 
  39:HW_Lib/AT32F435/drivers/src/i2c_application.c **** /**
  40:HW_Lib/AT32F435/drivers/src/i2c_application.c ****   * @brief get the dma transfer complete flag through the channel
  41:HW_Lib/AT32F435/drivers/src/i2c_application.c ****   */
  42:HW_Lib/AT32F435/drivers/src/i2c_application.c **** #define DMA_GET_TC_FLAG(DMA_CHANNEL) \
  43:HW_Lib/AT32F435/drivers/src/i2c_application.c **** (((uint32_t)(DMA_CHANNEL) == ((uint32_t)DMA1_CHANNEL1))? DMA1_FDT1_FLAG : \
  44:HW_Lib/AT32F435/drivers/src/i2c_application.c ****  ((uint32_t)(DMA_CHANNEL) == ((uint32_t)DMA1_CHANNEL2))? DMA1_FDT2_FLAG : \
  45:HW_Lib/AT32F435/drivers/src/i2c_application.c ****  ((uint32_t)(DMA_CHANNEL) == ((uint32_t)DMA1_CHANNEL3))? DMA1_FDT3_FLAG : \
  46:HW_Lib/AT32F435/drivers/src/i2c_application.c ****  ((uint32_t)(DMA_CHANNEL) == ((uint32_t)DMA1_CHANNEL4))? DMA1_FDT4_FLAG : \
  47:HW_Lib/AT32F435/drivers/src/i2c_application.c ****  ((uint32_t)(DMA_CHANNEL) == ((uint32_t)DMA1_CHANNEL5))? DMA1_FDT5_FLAG : \
  48:HW_Lib/AT32F435/drivers/src/i2c_application.c ****  ((uint32_t)(DMA_CHANNEL) == ((uint32_t)DMA1_CHANNEL6))? DMA1_FDT6_FLAG : \
  49:HW_Lib/AT32F435/drivers/src/i2c_application.c ****  ((uint32_t)(DMA_CHANNEL) == ((uint32_t)DMA1_CHANNEL7))? DMA1_FDT7_FLAG : \
  50:HW_Lib/AT32F435/drivers/src/i2c_application.c ****  ((uint32_t)(DMA_CHANNEL) == ((uint32_t)DMA2_CHANNEL1))? DMA2_FDT1_FLAG : \
  51:HW_Lib/AT32F435/drivers/src/i2c_application.c ****  ((uint32_t)(DMA_CHANNEL) == ((uint32_t)DMA2_CHANNEL2))? DMA2_FDT2_FLAG : \
  52:HW_Lib/AT32F435/drivers/src/i2c_application.c ****  ((uint32_t)(DMA_CHANNEL) == ((uint32_t)DMA2_CHANNEL3))? DMA2_FDT3_FLAG : \
  53:HW_Lib/AT32F435/drivers/src/i2c_application.c ****  ((uint32_t)(DMA_CHANNEL) == ((uint32_t)DMA2_CHANNEL4))? DMA2_FDT4_FLAG : \
  54:HW_Lib/AT32F435/drivers/src/i2c_application.c ****  ((uint32_t)(DMA_CHANNEL) == ((uint32_t)DMA2_CHANNEL5))? DMA2_FDT5_FLAG : \
  55:HW_Lib/AT32F435/drivers/src/i2c_application.c ****  ((uint32_t)(DMA_CHANNEL) == ((uint32_t)DMA2_CHANNEL6))? DMA2_FDT6_FLAG : \
  56:HW_Lib/AT32F435/drivers/src/i2c_application.c ****                                                          DMA2_FDT7_FLAG)
  57:HW_Lib/AT32F435/drivers/src/i2c_application.c **** 
  58:HW_Lib/AT32F435/drivers/src/i2c_application.c **** /**
  59:HW_Lib/AT32F435/drivers/src/i2c_application.c ****   * @brief get the dma half transfer flag through the channel
  60:HW_Lib/AT32F435/drivers/src/i2c_application.c ****   */
  61:HW_Lib/AT32F435/drivers/src/i2c_application.c **** #define DMA_GET_HT_FLAG(DMA_CHANNEL) \
  62:HW_Lib/AT32F435/drivers/src/i2c_application.c **** (((uint32_t)(DMA_CHANNEL) == ((uint32_t)DMA1_CHANNEL1))? DMA1_HDT1_FLAG : \
  63:HW_Lib/AT32F435/drivers/src/i2c_application.c ****  ((uint32_t)(DMA_CHANNEL) == ((uint32_t)DMA1_CHANNEL2))? DMA1_HDT2_FLAG : \
  64:HW_Lib/AT32F435/drivers/src/i2c_application.c ****  ((uint32_t)(DMA_CHANNEL) == ((uint32_t)DMA1_CHANNEL3))? DMA1_HDT3_FLAG : \
  65:HW_Lib/AT32F435/drivers/src/i2c_application.c ****  ((uint32_t)(DMA_CHANNEL) == ((uint32_t)DMA1_CHANNEL4))? DMA1_HDT4_FLAG : \
  66:HW_Lib/AT32F435/drivers/src/i2c_application.c ****  ((uint32_t)(DMA_CHANNEL) == ((uint32_t)DMA1_CHANNEL5))? DMA1_HDT5_FLAG : \
  67:HW_Lib/AT32F435/drivers/src/i2c_application.c ****  ((uint32_t)(DMA_CHANNEL) == ((uint32_t)DMA1_CHANNEL6))? DMA1_HDT6_FLAG : \
  68:HW_Lib/AT32F435/drivers/src/i2c_application.c ****  ((uint32_t)(DMA_CHANNEL) == ((uint32_t)DMA1_CHANNEL7))? DMA1_HDT7_FLAG : \
  69:HW_Lib/AT32F435/drivers/src/i2c_application.c ****  ((uint32_t)(DMA_CHANNEL) == ((uint32_t)DMA2_CHANNEL1))? DMA2_HDT1_FLAG : \
  70:HW_Lib/AT32F435/drivers/src/i2c_application.c ****  ((uint32_t)(DMA_CHANNEL) == ((uint32_t)DMA2_CHANNEL2))? DMA2_HDT2_FLAG : \
  71:HW_Lib/AT32F435/drivers/src/i2c_application.c ****  ((uint32_t)(DMA_CHANNEL) == ((uint32_t)DMA2_CHANNEL3))? DMA2_HDT3_FLAG : \
  72:HW_Lib/AT32F435/drivers/src/i2c_application.c ****  ((uint32_t)(DMA_CHANNEL) == ((uint32_t)DMA2_CHANNEL4))? DMA2_HDT4_FLAG : \
  73:HW_Lib/AT32F435/drivers/src/i2c_application.c ****  ((uint32_t)(DMA_CHANNEL) == ((uint32_t)DMA2_CHANNEL5))? DMA2_HDT5_FLAG : \
  74:HW_Lib/AT32F435/drivers/src/i2c_application.c ****  ((uint32_t)(DMA_CHANNEL) == ((uint32_t)DMA2_CHANNEL6))? DMA2_HDT6_FLAG : \
  75:HW_Lib/AT32F435/drivers/src/i2c_application.c ****                                                          DMA2_HDT7_FLAG)
  76:HW_Lib/AT32F435/drivers/src/i2c_application.c **** 
  77:HW_Lib/AT32F435/drivers/src/i2c_application.c **** /**
  78:HW_Lib/AT32F435/drivers/src/i2c_application.c ****   * @brief get the dma transfer error flag through the channel
  79:HW_Lib/AT32F435/drivers/src/i2c_application.c ****   */
  80:HW_Lib/AT32F435/drivers/src/i2c_application.c **** #define DMA_GET_TERR_FLAG(DMA_CHANNEL) \
  81:HW_Lib/AT32F435/drivers/src/i2c_application.c **** (((uint32_t)(DMA_CHANNEL) == ((uint32_t)DMA1_CHANNEL1))? DMA1_DTERR1_FLAG : \
  82:HW_Lib/AT32F435/drivers/src/i2c_application.c ****  ((uint32_t)(DMA_CHANNEL) == ((uint32_t)DMA1_CHANNEL2))? DMA1_DTERR2_FLAG : \
  83:HW_Lib/AT32F435/drivers/src/i2c_application.c ****  ((uint32_t)(DMA_CHANNEL) == ((uint32_t)DMA1_CHANNEL3))? DMA1_DTERR3_FLAG : \
  84:HW_Lib/AT32F435/drivers/src/i2c_application.c ****  ((uint32_t)(DMA_CHANNEL) == ((uint32_t)DMA1_CHANNEL4))? DMA1_DTERR4_FLAG : \
  85:HW_Lib/AT32F435/drivers/src/i2c_application.c ****  ((uint32_t)(DMA_CHANNEL) == ((uint32_t)DMA1_CHANNEL5))? DMA1_DTERR5_FLAG : \
  86:HW_Lib/AT32F435/drivers/src/i2c_application.c ****  ((uint32_t)(DMA_CHANNEL) == ((uint32_t)DMA1_CHANNEL6))? DMA1_DTERR6_FLAG : \
ARM GAS  C:\Users\8bit\AppData\Local\Temp\ccxE8K1A.s 			page 3


  87:HW_Lib/AT32F435/drivers/src/i2c_application.c ****  ((uint32_t)(DMA_CHANNEL) == ((uint32_t)DMA1_CHANNEL7))? DMA1_DTERR7_FLAG : \
  88:HW_Lib/AT32F435/drivers/src/i2c_application.c ****  ((uint32_t)(DMA_CHANNEL) == ((uint32_t)DMA2_CHANNEL1))? DMA2_DTERR1_FLAG : \
  89:HW_Lib/AT32F435/drivers/src/i2c_application.c ****  ((uint32_t)(DMA_CHANNEL) == ((uint32_t)DMA2_CHANNEL2))? DMA2_DTERR2_FLAG : \
  90:HW_Lib/AT32F435/drivers/src/i2c_application.c ****  ((uint32_t)(DMA_CHANNEL) == ((uint32_t)DMA2_CHANNEL3))? DMA2_DTERR3_FLAG : \
  91:HW_Lib/AT32F435/drivers/src/i2c_application.c ****  ((uint32_t)(DMA_CHANNEL) == ((uint32_t)DMA2_CHANNEL4))? DMA2_DTERR4_FLAG : \
  92:HW_Lib/AT32F435/drivers/src/i2c_application.c ****  ((uint32_t)(DMA_CHANNEL) == ((uint32_t)DMA2_CHANNEL5))? DMA2_DTERR5_FLAG : \
  93:HW_Lib/AT32F435/drivers/src/i2c_application.c ****  ((uint32_t)(DMA_CHANNEL) == ((uint32_t)DMA2_CHANNEL6))? DMA2_DTERR6_FLAG : \
  94:HW_Lib/AT32F435/drivers/src/i2c_application.c ****                                                          DMA2_DTERR7_FLAG)
  95:HW_Lib/AT32F435/drivers/src/i2c_application.c **** 
  96:HW_Lib/AT32F435/drivers/src/i2c_application.c **** /**
  97:HW_Lib/AT32F435/drivers/src/i2c_application.c ****   * @brief i2c transmission status
  98:HW_Lib/AT32F435/drivers/src/i2c_application.c ****   */
  99:HW_Lib/AT32F435/drivers/src/i2c_application.c **** #define I2C_START                        0
 100:HW_Lib/AT32F435/drivers/src/i2c_application.c **** #define I2C_END                          1
 101:HW_Lib/AT32F435/drivers/src/i2c_application.c **** 
 102:HW_Lib/AT32F435/drivers/src/i2c_application.c **** /**
 103:HW_Lib/AT32F435/drivers/src/i2c_application.c ****   * @brief  initializes peripherals used by the i2c.
 104:HW_Lib/AT32F435/drivers/src/i2c_application.c ****   * @param  none
 105:HW_Lib/AT32F435/drivers/src/i2c_application.c ****   * @retval none
 106:HW_Lib/AT32F435/drivers/src/i2c_application.c ****   */
 107:HW_Lib/AT32F435/drivers/src/i2c_application.c **** __WEAK void i2c_lowlevel_init(i2c_handle_type* hi2c)
 108:HW_Lib/AT32F435/drivers/src/i2c_application.c **** {
  30              		.loc 1 108 1 view -0
  31              		.cfi_startproc
  32              		@ args = 0, pretend = 0, frame = 0
  33              		@ frame_needed = 0, uses_anonymous_args = 0
  34              		@ link register save eliminated.
 109:HW_Lib/AT32F435/drivers/src/i2c_application.c **** 
 110:HW_Lib/AT32F435/drivers/src/i2c_application.c **** }
  35              		.loc 1 110 1 view .LVU1
  36 0000 7047     		bx	lr
  37              		.cfi_endproc
  38              	.LFE133:
  40              		.section	.text.i2c_config,"ax",%progbits
  41              		.align	1
  42              		.global	i2c_config
  43              		.syntax unified
  44              		.thumb
  45              		.thumb_func
  47              	i2c_config:
  48              	.LVL1:
  49              	.LFB134:
 111:HW_Lib/AT32F435/drivers/src/i2c_application.c **** 
 112:HW_Lib/AT32F435/drivers/src/i2c_application.c **** /**
 113:HW_Lib/AT32F435/drivers/src/i2c_application.c ****   * @brief  i2c peripheral initialization.
 114:HW_Lib/AT32F435/drivers/src/i2c_application.c ****   * @param  hi2c: the handle points to the operation information.
 115:HW_Lib/AT32F435/drivers/src/i2c_application.c ****   * @retval none.
 116:HW_Lib/AT32F435/drivers/src/i2c_application.c ****   */
 117:HW_Lib/AT32F435/drivers/src/i2c_application.c **** void i2c_config(i2c_handle_type* hi2c)
 118:HW_Lib/AT32F435/drivers/src/i2c_application.c **** {
  50              		.loc 1 118 1 view -0
  51              		.cfi_startproc
  52              		@ args = 0, pretend = 0, frame = 0
  53              		@ frame_needed = 0, uses_anonymous_args = 0
  54              		.loc 1 118 1 is_stmt 0 view .LVU3
  55 0000 10B5     		push	{r4, lr}
  56              	.LCFI0:
ARM GAS  C:\Users\8bit\AppData\Local\Temp\ccxE8K1A.s 			page 4


  57              		.cfi_def_cfa_offset 8
  58              		.cfi_offset 4, -8
  59              		.cfi_offset 14, -4
  60 0002 0446     		mov	r4, r0
 119:HW_Lib/AT32F435/drivers/src/i2c_application.c ****   /* reset i2c peripheral */
 120:HW_Lib/AT32F435/drivers/src/i2c_application.c ****   i2c_reset(hi2c->i2cx);
  61              		.loc 1 120 3 is_stmt 1 view .LVU4
  62 0004 0068     		ldr	r0, [r0]
  63              	.LVL2:
  64              		.loc 1 120 3 is_stmt 0 view .LVU5
  65 0006 FFF7FEFF 		bl	i2c_reset
  66              	.LVL3:
 121:HW_Lib/AT32F435/drivers/src/i2c_application.c **** 
 122:HW_Lib/AT32F435/drivers/src/i2c_application.c ****   /* i2c peripheral initialization */
 123:HW_Lib/AT32F435/drivers/src/i2c_application.c ****   i2c_lowlevel_init(hi2c);
  67              		.loc 1 123 3 is_stmt 1 view .LVU6
  68 000a 2046     		mov	r0, r4
  69 000c FFF7FEFF 		bl	i2c_lowlevel_init
  70              	.LVL4:
 124:HW_Lib/AT32F435/drivers/src/i2c_application.c **** 
 125:HW_Lib/AT32F435/drivers/src/i2c_application.c ****   /* i2c peripheral enable */
 126:HW_Lib/AT32F435/drivers/src/i2c_application.c ****   i2c_enable(hi2c->i2cx, TRUE);
  71              		.loc 1 126 3 view .LVU7
  72 0010 0121     		movs	r1, #1
  73 0012 2068     		ldr	r0, [r4]
  74 0014 FFF7FEFF 		bl	i2c_enable
  75              	.LVL5:
 127:HW_Lib/AT32F435/drivers/src/i2c_application.c **** }
  76              		.loc 1 127 1 is_stmt 0 view .LVU8
  77 0018 10BD     		pop	{r4, pc}
  78              		.loc 1 127 1 view .LVU9
  79              		.cfi_endproc
  80              	.LFE134:
  82              		.section	.text.i2c_refresh_txdt_register,"ax",%progbits
  83              		.align	1
  84              		.global	i2c_refresh_txdt_register
  85              		.syntax unified
  86              		.thumb
  87              		.thumb_func
  89              	i2c_refresh_txdt_register:
  90              	.LVL6:
  91              	.LFB135:
 128:HW_Lib/AT32F435/drivers/src/i2c_application.c **** 
 129:HW_Lib/AT32F435/drivers/src/i2c_application.c **** /**
 130:HW_Lib/AT32F435/drivers/src/i2c_application.c ****   * @brief  refresh i2c register.
 131:HW_Lib/AT32F435/drivers/src/i2c_application.c ****   * @param  hi2c: the handle points to the operation information.
 132:HW_Lib/AT32F435/drivers/src/i2c_application.c ****   * @retval none.
 133:HW_Lib/AT32F435/drivers/src/i2c_application.c ****   */
 134:HW_Lib/AT32F435/drivers/src/i2c_application.c **** void i2c_refresh_txdt_register(i2c_handle_type* hi2c)
 135:HW_Lib/AT32F435/drivers/src/i2c_application.c **** {
  92              		.loc 1 135 1 is_stmt 1 view -0
  93              		.cfi_startproc
  94              		@ args = 0, pretend = 0, frame = 0
  95              		@ frame_needed = 0, uses_anonymous_args = 0
  96              		.loc 1 135 1 is_stmt 0 view .LVU11
  97 0000 10B5     		push	{r4, lr}
  98              	.LCFI1:
ARM GAS  C:\Users\8bit\AppData\Local\Temp\ccxE8K1A.s 			page 5


  99              		.cfi_def_cfa_offset 8
 100              		.cfi_offset 4, -8
 101              		.cfi_offset 14, -4
 102 0002 0446     		mov	r4, r0
 136:HW_Lib/AT32F435/drivers/src/i2c_application.c ****   /* clear tdis flag */
 137:HW_Lib/AT32F435/drivers/src/i2c_application.c ****   if (i2c_flag_get(hi2c->i2cx, I2C_TDIS_FLAG) != RESET)
 103              		.loc 1 137 3 is_stmt 1 view .LVU12
 104              		.loc 1 137 7 is_stmt 0 view .LVU13
 105 0004 0221     		movs	r1, #2
 106 0006 0068     		ldr	r0, [r0]
 107              	.LVL7:
 108              		.loc 1 137 7 view .LVU14
 109 0008 FFF7FEFF 		bl	i2c_flag_get
 110              	.LVL8:
 111              		.loc 1 137 6 view .LVU15
 112 000c 10B1     		cbz	r0, .L5
 138:HW_Lib/AT32F435/drivers/src/i2c_application.c ****   {
 139:HW_Lib/AT32F435/drivers/src/i2c_application.c ****     hi2c->i2cx->txdt = 0x00;
 113              		.loc 1 139 5 is_stmt 1 view .LVU16
 114              		.loc 1 139 9 is_stmt 0 view .LVU17
 115 000e 2368     		ldr	r3, [r4]
 116              		.loc 1 139 22 view .LVU18
 117 0010 0022     		movs	r2, #0
 118 0012 9A62     		str	r2, [r3, #40]
 119              	.L5:
 140:HW_Lib/AT32F435/drivers/src/i2c_application.c ****   }
 141:HW_Lib/AT32F435/drivers/src/i2c_application.c **** 
 142:HW_Lib/AT32F435/drivers/src/i2c_application.c ****   /* refresh txdt register*/
 143:HW_Lib/AT32F435/drivers/src/i2c_application.c ****   if (i2c_flag_get(hi2c->i2cx, I2C_TDBE_FLAG) == RESET)
 120              		.loc 1 143 3 is_stmt 1 view .LVU19
 121              		.loc 1 143 7 is_stmt 0 view .LVU20
 122 0014 0121     		movs	r1, #1
 123 0016 2068     		ldr	r0, [r4]
 124 0018 FFF7FEFF 		bl	i2c_flag_get
 125              	.LVL9:
 126              		.loc 1 143 6 view .LVU21
 127 001c 20B9     		cbnz	r0, .L4
 144:HW_Lib/AT32F435/drivers/src/i2c_application.c ****   {
 145:HW_Lib/AT32F435/drivers/src/i2c_application.c ****     hi2c->i2cx->sts_bit.tdbe = 1;
 128              		.loc 1 145 5 is_stmt 1 view .LVU22
 129              		.loc 1 145 9 is_stmt 0 view .LVU23
 130 001e 2268     		ldr	r2, [r4]
 131              		.loc 1 145 30 view .LVU24
 132 0020 9369     		ldr	r3, [r2, #24]
 133 0022 43F00103 		orr	r3, r3, #1
 134 0026 9361     		str	r3, [r2, #24]
 135              	.L4:
 146:HW_Lib/AT32F435/drivers/src/i2c_application.c ****   }
 147:HW_Lib/AT32F435/drivers/src/i2c_application.c **** }
 136              		.loc 1 147 1 view .LVU25
 137 0028 10BD     		pop	{r4, pc}
 138              		.loc 1 147 1 view .LVU26
 139              		.cfi_endproc
 140              	.LFE135:
 142              		.section	.text.i2c_reset_ctrl2_register,"ax",%progbits
 143              		.align	1
 144              		.global	i2c_reset_ctrl2_register
ARM GAS  C:\Users\8bit\AppData\Local\Temp\ccxE8K1A.s 			page 6


 145              		.syntax unified
 146              		.thumb
 147              		.thumb_func
 149              	i2c_reset_ctrl2_register:
 150              	.LVL10:
 151              	.LFB136:
 148:HW_Lib/AT32F435/drivers/src/i2c_application.c **** 
 149:HW_Lib/AT32F435/drivers/src/i2c_application.c **** /**
 150:HW_Lib/AT32F435/drivers/src/i2c_application.c ****   * @brief  reset ctrl2 register.
 151:HW_Lib/AT32F435/drivers/src/i2c_application.c ****   * @param  hi2c: the handle points to the operation information.
 152:HW_Lib/AT32F435/drivers/src/i2c_application.c ****   * @retval none.
 153:HW_Lib/AT32F435/drivers/src/i2c_application.c ****   */
 154:HW_Lib/AT32F435/drivers/src/i2c_application.c **** void i2c_reset_ctrl2_register(i2c_handle_type* hi2c)
 155:HW_Lib/AT32F435/drivers/src/i2c_application.c **** {
 152              		.loc 1 155 1 is_stmt 1 view -0
 153              		.cfi_startproc
 154              		@ args = 0, pretend = 0, frame = 0
 155              		@ frame_needed = 0, uses_anonymous_args = 0
 156              		@ link register save eliminated.
 156:HW_Lib/AT32F435/drivers/src/i2c_application.c ****   hi2c->i2cx->ctrl2_bit.saddr   = 0;
 157              		.loc 1 156 3 view .LVU28
 158              		.loc 1 156 7 is_stmt 0 view .LVU29
 159 0000 0368     		ldr	r3, [r0]
 160              		.loc 1 156 33 view .LVU30
 161 0002 5A68     		ldr	r2, [r3, #4]
 162 0004 6FF30902 		bfc	r2, #0, #10
 163 0008 5A60     		str	r2, [r3, #4]
 157:HW_Lib/AT32F435/drivers/src/i2c_application.c ****   hi2c->i2cx->ctrl2_bit.readh10 = 0;
 164              		.loc 1 157 3 is_stmt 1 view .LVU31
 165              		.loc 1 157 7 is_stmt 0 view .LVU32
 166 000a 0368     		ldr	r3, [r0]
 167              		.loc 1 157 33 view .LVU33
 168 000c 5A68     		ldr	r2, [r3, #4]
 169 000e 6FF30C32 		bfc	r2, #12, #1
 170 0012 5A60     		str	r2, [r3, #4]
 158:HW_Lib/AT32F435/drivers/src/i2c_application.c ****   hi2c->i2cx->ctrl2_bit.cnt     = 0;
 171              		.loc 1 158 3 is_stmt 1 view .LVU34
 172              		.loc 1 158 7 is_stmt 0 view .LVU35
 173 0014 0368     		ldr	r3, [r0]
 174              		.loc 1 158 33 view .LVU36
 175 0016 5A68     		ldr	r2, [r3, #4]
 176 0018 6FF31742 		bfc	r2, #16, #8
 177 001c 5A60     		str	r2, [r3, #4]
 159:HW_Lib/AT32F435/drivers/src/i2c_application.c ****   hi2c->i2cx->ctrl2_bit.rlden   = 0;
 178              		.loc 1 159 3 is_stmt 1 view .LVU37
 179              		.loc 1 159 7 is_stmt 0 view .LVU38
 180 001e 0368     		ldr	r3, [r0]
 181              		.loc 1 159 33 view .LVU39
 182 0020 5A68     		ldr	r2, [r3, #4]
 183 0022 6FF31862 		bfc	r2, #24, #1
 184 0026 5A60     		str	r2, [r3, #4]
 160:HW_Lib/AT32F435/drivers/src/i2c_application.c ****   hi2c->i2cx->ctrl2_bit.dir     = 0;
 185              		.loc 1 160 3 is_stmt 1 view .LVU40
 186              		.loc 1 160 7 is_stmt 0 view .LVU41
 187 0028 0368     		ldr	r3, [r0]
 188              		.loc 1 160 33 view .LVU42
 189 002a 5A68     		ldr	r2, [r3, #4]
ARM GAS  C:\Users\8bit\AppData\Local\Temp\ccxE8K1A.s 			page 7


 190 002c 6FF38A22 		bfc	r2, #10, #1
 191 0030 5A60     		str	r2, [r3, #4]
 161:HW_Lib/AT32F435/drivers/src/i2c_application.c **** }
 192              		.loc 1 161 1 view .LVU43
 193 0032 7047     		bx	lr
 194              		.cfi_endproc
 195              	.LFE136:
 197              		.section	.text.i2c_wait_end,"ax",%progbits
 198              		.align	1
 199              		.global	i2c_wait_end
 200              		.syntax unified
 201              		.thumb
 202              		.thumb_func
 204              	i2c_wait_end:
 205              	.LVL11:
 206              	.LFB137:
 162:HW_Lib/AT32F435/drivers/src/i2c_application.c **** 
 163:HW_Lib/AT32F435/drivers/src/i2c_application.c **** /**
 164:HW_Lib/AT32F435/drivers/src/i2c_application.c ****   * @brief  wait for the transfer to end.
 165:HW_Lib/AT32F435/drivers/src/i2c_application.c ****   * @param  hi2c: the handle points to the operation information.
 166:HW_Lib/AT32F435/drivers/src/i2c_application.c ****   * @param  timeout: maximum waiting time.
 167:HW_Lib/AT32F435/drivers/src/i2c_application.c ****   * @retval i2c status.
 168:HW_Lib/AT32F435/drivers/src/i2c_application.c ****   */
 169:HW_Lib/AT32F435/drivers/src/i2c_application.c **** i2c_status_type i2c_wait_end(i2c_handle_type* hi2c, uint32_t timeout)
 170:HW_Lib/AT32F435/drivers/src/i2c_application.c **** {
 207              		.loc 1 170 1 is_stmt 1 view -0
 208              		.cfi_startproc
 209              		@ args = 0, pretend = 0, frame = 0
 210              		@ frame_needed = 0, uses_anonymous_args = 0
 211              		@ link register save eliminated.
 212              		.loc 1 170 1 is_stmt 0 view .LVU45
 213 0000 0246     		mov	r2, r0
 171:HW_Lib/AT32F435/drivers/src/i2c_application.c ****   while(hi2c->status != I2C_END)
 214              		.loc 1 171 3 is_stmt 1 view .LVU46
 215              	.L10:
 216              		.loc 1 171 8 view .LVU47
 217              		.loc 1 171 13 is_stmt 0 view .LVU48
 218 0002 1369     		ldr	r3, [r2, #16]
 219              		.loc 1 171 8 view .LVU49
 220 0004 012B     		cmp	r3, #1
 221 0006 03D0     		beq	.L14
 172:HW_Lib/AT32F435/drivers/src/i2c_application.c ****   {
 173:HW_Lib/AT32F435/drivers/src/i2c_application.c ****     /* check timeout */
 174:HW_Lib/AT32F435/drivers/src/i2c_application.c ****     if((timeout--) == 0)
 222              		.loc 1 174 5 is_stmt 1 view .LVU50
 223              		.loc 1 174 16 is_stmt 0 view .LVU51
 224 0008 4B1E     		subs	r3, r1, #1
 225              	.LVL12:
 226              		.loc 1 174 7 view .LVU52
 227 000a 41B1     		cbz	r1, .L13
 228              		.loc 1 174 16 view .LVU53
 229 000c 1946     		mov	r1, r3
 230 000e F8E7     		b	.L10
 231              	.LVL13:
 232              	.L14:
 175:HW_Lib/AT32F435/drivers/src/i2c_application.c ****     {
 176:HW_Lib/AT32F435/drivers/src/i2c_application.c ****       return I2C_ERR_TIMEOUT;
ARM GAS  C:\Users\8bit\AppData\Local\Temp\ccxE8K1A.s 			page 8


 177:HW_Lib/AT32F435/drivers/src/i2c_application.c ****     }
 178:HW_Lib/AT32F435/drivers/src/i2c_application.c ****   }
 179:HW_Lib/AT32F435/drivers/src/i2c_application.c **** 
 180:HW_Lib/AT32F435/drivers/src/i2c_application.c ****   if(hi2c->error_code != I2C_OK)
 233              		.loc 1 180 3 is_stmt 1 view .LVU54
 234              		.loc 1 180 10 is_stmt 0 view .LVU55
 235 0010 137D     		ldrb	r3, [r2, #20]	@ zero_extendqisi2
 236              		.loc 1 180 5 view .LVU56
 237 0012 03F0FF00 		and	r0, r3, #255
 238              	.LVL14:
 239              		.loc 1 180 5 view .LVU57
 240 0016 1BB1     		cbz	r3, .L11
 181:HW_Lib/AT32F435/drivers/src/i2c_application.c ****   {
 182:HW_Lib/AT32F435/drivers/src/i2c_application.c ****     return hi2c->error_code;
 241              		.loc 1 182 5 is_stmt 1 view .LVU58
 242              		.loc 1 182 16 is_stmt 0 view .LVU59
 243 0018 107D     		ldrb	r0, [r2, #20]	@ zero_extendqisi2
 244 001a C0B2     		uxtb	r0, r0
 245 001c 7047     		bx	lr
 246              	.LVL15:
 247              	.L13:
 176:HW_Lib/AT32F435/drivers/src/i2c_application.c ****     }
 248              		.loc 1 176 14 view .LVU60
 249 001e 1220     		movs	r0, #18
 250              	.LVL16:
 251              	.L11:
 183:HW_Lib/AT32F435/drivers/src/i2c_application.c ****   }
 184:HW_Lib/AT32F435/drivers/src/i2c_application.c **** 
 185:HW_Lib/AT32F435/drivers/src/i2c_application.c ****   return I2C_OK;
 186:HW_Lib/AT32F435/drivers/src/i2c_application.c **** }
 252              		.loc 1 186 1 view .LVU61
 253 0020 7047     		bx	lr
 254              		.cfi_endproc
 255              	.LFE137:
 257              		.section	.text.i2c_wait_flag,"ax",%progbits
 258              		.align	1
 259              		.global	i2c_wait_flag
 260              		.syntax unified
 261              		.thumb
 262              		.thumb_func
 264              	i2c_wait_flag:
 265              	.LVL17:
 266              	.LFB138:
 187:HW_Lib/AT32F435/drivers/src/i2c_application.c **** 
 188:HW_Lib/AT32F435/drivers/src/i2c_application.c **** /**
 189:HW_Lib/AT32F435/drivers/src/i2c_application.c ****   * @brief  wait for the flag to be set or reset, only BUSYF flag
 190:HW_Lib/AT32F435/drivers/src/i2c_application.c ****   *         is waiting to be reset, and other flags are waiting to be set
 191:HW_Lib/AT32F435/drivers/src/i2c_application.c ****   * @param  hi2c: the handle points to the operation information.
 192:HW_Lib/AT32F435/drivers/src/i2c_application.c ****   * @param  flag: specifies the flag to check.
 193:HW_Lib/AT32F435/drivers/src/i2c_application.c ****   *         this parameter can be one of the following values:
 194:HW_Lib/AT32F435/drivers/src/i2c_application.c ****   *         - I2C_TDBE_FLAG: transmit data buffer empty flag.
 195:HW_Lib/AT32F435/drivers/src/i2c_application.c ****   *         - I2C_TDIS_FLAG: send interrupt status.
 196:HW_Lib/AT32F435/drivers/src/i2c_application.c ****   *         - I2C_RDBF_FLAG: receive data buffer full flag.
 197:HW_Lib/AT32F435/drivers/src/i2c_application.c ****   *         - I2C_ADDRF_FLAG: 0~7 bit address match flag.
 198:HW_Lib/AT32F435/drivers/src/i2c_application.c ****   *         - I2C_ACKFAIL_FLAG: acknowledge failure flag.
 199:HW_Lib/AT32F435/drivers/src/i2c_application.c ****   *         - I2C_STOPF_FLAG: stop condition generation complete flag.
 200:HW_Lib/AT32F435/drivers/src/i2c_application.c ****   *         - I2C_TDC_FLAG: transmit data complete flag.
ARM GAS  C:\Users\8bit\AppData\Local\Temp\ccxE8K1A.s 			page 9


 201:HW_Lib/AT32F435/drivers/src/i2c_application.c ****   *         - I2C_TCRLD_FLAG: transmission is complete, waiting to load data.
 202:HW_Lib/AT32F435/drivers/src/i2c_application.c ****   *         - I2C_BUSERR_FLAG: bus error flag.
 203:HW_Lib/AT32F435/drivers/src/i2c_application.c ****   *         - I2C_ARLOST_FLAG: arbitration lost flag.
 204:HW_Lib/AT32F435/drivers/src/i2c_application.c ****   *         - I2C_OUF_FLAG: overflow or underflow flag.
 205:HW_Lib/AT32F435/drivers/src/i2c_application.c ****   *         - I2C_PECERR_FLAG: pec receive error flag.
 206:HW_Lib/AT32F435/drivers/src/i2c_application.c ****   *         - I2C_TMOUT_FLAG: smbus timeout flag.
 207:HW_Lib/AT32F435/drivers/src/i2c_application.c ****   *         - I2C_ALERTF_FLAG: smbus alert flag.
 208:HW_Lib/AT32F435/drivers/src/i2c_application.c ****   *         - I2C_BUSYF_FLAG: bus busy flag transmission mode.
 209:HW_Lib/AT32F435/drivers/src/i2c_application.c ****   *         - I2C_SDIR_FLAG: slave data transmit direction.
 210:HW_Lib/AT32F435/drivers/src/i2c_application.c ****   * @param  event_check: check other error flags while waiting for the flag.
 211:HW_Lib/AT32F435/drivers/src/i2c_application.c ****   *         parameter as following values:
 212:HW_Lib/AT32F435/drivers/src/i2c_application.c ****   *         - I2C_EVENT_CHECK_NONE
 213:HW_Lib/AT32F435/drivers/src/i2c_application.c ****   *         - I2C_EVENT_CHECK_ACKFAIL
 214:HW_Lib/AT32F435/drivers/src/i2c_application.c ****   *         - I2C_EVENT_CHECK_STOP
 215:HW_Lib/AT32F435/drivers/src/i2c_application.c ****   * @param  timeout: maximum waiting time.
 216:HW_Lib/AT32F435/drivers/src/i2c_application.c ****   * @retval i2c status.
 217:HW_Lib/AT32F435/drivers/src/i2c_application.c ****   */
 218:HW_Lib/AT32F435/drivers/src/i2c_application.c **** i2c_status_type i2c_wait_flag(i2c_handle_type* hi2c, uint32_t flag, uint32_t event_check, uint32_t 
 219:HW_Lib/AT32F435/drivers/src/i2c_application.c **** {
 267              		.loc 1 219 1 is_stmt 1 view -0
 268              		.cfi_startproc
 269              		@ args = 0, pretend = 0, frame = 0
 270              		@ frame_needed = 0, uses_anonymous_args = 0
 271              		.loc 1 219 1 is_stmt 0 view .LVU63
 272 0000 F8B5     		push	{r3, r4, r5, r6, r7, lr}
 273              	.LCFI2:
 274              		.cfi_def_cfa_offset 24
 275              		.cfi_offset 3, -24
 276              		.cfi_offset 4, -20
 277              		.cfi_offset 5, -16
 278              		.cfi_offset 6, -12
 279              		.cfi_offset 7, -8
 280              		.cfi_offset 14, -4
 281 0002 0546     		mov	r5, r0
 282 0004 0F46     		mov	r7, r1
 283 0006 1646     		mov	r6, r2
 284 0008 1C46     		mov	r4, r3
 220:HW_Lib/AT32F435/drivers/src/i2c_application.c ****   if(flag == I2C_BUSYF_FLAG)
 285              		.loc 1 220 3 is_stmt 1 view .LVU64
 286              		.loc 1 220 5 is_stmt 0 view .LVU65
 287 000a B1F5004F 		cmp	r1, #32768
 288 000e 1BD1     		bne	.L17
 289              	.LVL18:
 290              	.L16:
 221:HW_Lib/AT32F435/drivers/src/i2c_application.c ****   {
 222:HW_Lib/AT32F435/drivers/src/i2c_application.c ****     while(i2c_flag_get(hi2c->i2cx, flag) != RESET)
 291              		.loc 1 222 10 is_stmt 1 view .LVU66
 292              		.loc 1 222 11 is_stmt 0 view .LVU67
 293 0010 3946     		mov	r1, r7
 294 0012 2868     		ldr	r0, [r5]
 295 0014 FFF7FEFF 		bl	i2c_flag_get
 296              	.LVL19:
 297              		.loc 1 222 10 view .LVU68
 298 0018 0346     		mov	r3, r0
 299 001a A0B3     		cbz	r0, .L18
 223:HW_Lib/AT32F435/drivers/src/i2c_application.c ****     {
 224:HW_Lib/AT32F435/drivers/src/i2c_application.c ****       /* check timeout */
ARM GAS  C:\Users\8bit\AppData\Local\Temp\ccxE8K1A.s 			page 10


 225:HW_Lib/AT32F435/drivers/src/i2c_application.c ****       if((timeout--) == 0)
 300              		.loc 1 225 7 is_stmt 1 view .LVU69
 301              		.loc 1 225 18 is_stmt 0 view .LVU70
 302 001c 631E     		subs	r3, r4, #1
 303              	.LVL20:
 304              		.loc 1 225 9 view .LVU71
 305 001e 0CB1     		cbz	r4, .L26
 306              		.loc 1 225 18 view .LVU72
 307 0020 1C46     		mov	r4, r3
 308 0022 F5E7     		b	.L16
 309              	.L26:
 226:HW_Lib/AT32F435/drivers/src/i2c_application.c ****       {
 227:HW_Lib/AT32F435/drivers/src/i2c_application.c ****         hi2c->error_code = I2C_ERR_TIMEOUT;
 310              		.loc 1 227 9 is_stmt 1 view .LVU73
 311              		.loc 1 227 26 is_stmt 0 view .LVU74
 312 0024 1223     		movs	r3, #18
 313              	.LVL21:
 314              		.loc 1 227 26 view .LVU75
 315 0026 2B75     		strb	r3, [r5, #20]
 228:HW_Lib/AT32F435/drivers/src/i2c_application.c **** 
 229:HW_Lib/AT32F435/drivers/src/i2c_application.c ****         return I2C_ERR_TIMEOUT;
 316              		.loc 1 229 9 is_stmt 1 view .LVU76
 317              		.loc 1 229 16 is_stmt 0 view .LVU77
 318 0028 2DE0     		b	.L18
 319              	.LVL22:
 320              	.L29:
 230:HW_Lib/AT32F435/drivers/src/i2c_application.c ****       }
 231:HW_Lib/AT32F435/drivers/src/i2c_application.c ****     }
 232:HW_Lib/AT32F435/drivers/src/i2c_application.c ****   }
 233:HW_Lib/AT32F435/drivers/src/i2c_application.c ****   else
 234:HW_Lib/AT32F435/drivers/src/i2c_application.c ****   {
 235:HW_Lib/AT32F435/drivers/src/i2c_application.c ****     while(i2c_flag_get(hi2c->i2cx, flag) == RESET)
 236:HW_Lib/AT32F435/drivers/src/i2c_application.c ****     {
 237:HW_Lib/AT32F435/drivers/src/i2c_application.c ****       /* check the ack fail flag */
 238:HW_Lib/AT32F435/drivers/src/i2c_application.c ****       if(event_check & I2C_EVENT_CHECK_ACKFAIL)
 239:HW_Lib/AT32F435/drivers/src/i2c_application.c ****       {
 240:HW_Lib/AT32F435/drivers/src/i2c_application.c ****         if(i2c_flag_get(hi2c->i2cx, I2C_ACKFAIL_FLAG) != RESET)
 321              		.loc 1 240 9 is_stmt 1 view .LVU78
 322              		.loc 1 240 12 is_stmt 0 view .LVU79
 323 002a 1021     		movs	r1, #16
 324 002c 2868     		ldr	r0, [r5]
 325 002e FFF7FEFF 		bl	i2c_flag_get
 326              	.LVL23:
 327              		.loc 1 240 11 view .LVU80
 328 0032 88B1     		cbz	r0, .L20
 241:HW_Lib/AT32F435/drivers/src/i2c_application.c ****         {
 242:HW_Lib/AT32F435/drivers/src/i2c_application.c ****           /* clear ack fail flag */
 243:HW_Lib/AT32F435/drivers/src/i2c_application.c ****           i2c_flag_clear(hi2c->i2cx, I2C_ACKFAIL_FLAG);
 329              		.loc 1 243 11 is_stmt 1 view .LVU81
 330 0034 1021     		movs	r1, #16
 331 0036 2868     		ldr	r0, [r5]
 332 0038 FFF7FEFF 		bl	i2c_flag_clear
 333              	.LVL24:
 244:HW_Lib/AT32F435/drivers/src/i2c_application.c **** 
 245:HW_Lib/AT32F435/drivers/src/i2c_application.c ****           hi2c->error_code = I2C_ERR_ACKFAIL;
 334              		.loc 1 245 11 view .LVU82
 335              		.loc 1 245 28 is_stmt 0 view .LVU83
ARM GAS  C:\Users\8bit\AppData\Local\Temp\ccxE8K1A.s 			page 11


 336 003c 1123     		movs	r3, #17
 337 003e 2B75     		strb	r3, [r5, #20]
 246:HW_Lib/AT32F435/drivers/src/i2c_application.c **** 
 247:HW_Lib/AT32F435/drivers/src/i2c_application.c ****           return I2C_ERR_ACKFAIL;
 338              		.loc 1 247 11 is_stmt 1 view .LVU84
 339              		.loc 1 247 18 is_stmt 0 view .LVU85
 340 0040 21E0     		b	.L18
 341              	.L21:
 248:HW_Lib/AT32F435/drivers/src/i2c_application.c ****         }
 249:HW_Lib/AT32F435/drivers/src/i2c_application.c ****       }
 250:HW_Lib/AT32F435/drivers/src/i2c_application.c **** 
 251:HW_Lib/AT32F435/drivers/src/i2c_application.c ****       /* check the stop flag */
 252:HW_Lib/AT32F435/drivers/src/i2c_application.c ****       if(event_check & I2C_EVENT_CHECK_STOP)
 253:HW_Lib/AT32F435/drivers/src/i2c_application.c ****       {
 254:HW_Lib/AT32F435/drivers/src/i2c_application.c ****         if(i2c_flag_get(hi2c->i2cx, I2C_STOPF_FLAG) != RESET)
 255:HW_Lib/AT32F435/drivers/src/i2c_application.c ****         {
 256:HW_Lib/AT32F435/drivers/src/i2c_application.c ****           /* clear stop flag */
 257:HW_Lib/AT32F435/drivers/src/i2c_application.c ****           i2c_flag_clear(hi2c->i2cx, I2C_STOPF_FLAG);
 258:HW_Lib/AT32F435/drivers/src/i2c_application.c **** 
 259:HW_Lib/AT32F435/drivers/src/i2c_application.c ****           i2c_reset_ctrl2_register(hi2c);
 260:HW_Lib/AT32F435/drivers/src/i2c_application.c **** 
 261:HW_Lib/AT32F435/drivers/src/i2c_application.c ****           hi2c->error_code = I2C_ERR_STOP;
 262:HW_Lib/AT32F435/drivers/src/i2c_application.c **** 
 263:HW_Lib/AT32F435/drivers/src/i2c_application.c ****           return I2C_ERR_STOP;
 264:HW_Lib/AT32F435/drivers/src/i2c_application.c ****         }
 265:HW_Lib/AT32F435/drivers/src/i2c_application.c ****       }
 266:HW_Lib/AT32F435/drivers/src/i2c_application.c **** 
 267:HW_Lib/AT32F435/drivers/src/i2c_application.c ****       /* check timeout */
 268:HW_Lib/AT32F435/drivers/src/i2c_application.c ****       if((timeout--) == 0)
 342              		.loc 1 268 7 is_stmt 1 view .LVU86
 343              		.loc 1 268 18 is_stmt 0 view .LVU87
 344 0042 631E     		subs	r3, r4, #1
 345              	.LVL25:
 346              		.loc 1 268 9 view .LVU88
 347 0044 DCB1     		cbz	r4, .L27
 348              		.loc 1 268 18 view .LVU89
 349 0046 1C46     		mov	r4, r3
 350              	.L17:
 235:HW_Lib/AT32F435/drivers/src/i2c_application.c ****     {
 351              		.loc 1 235 10 is_stmt 1 view .LVU90
 235:HW_Lib/AT32F435/drivers/src/i2c_application.c ****     {
 352              		.loc 1 235 11 is_stmt 0 view .LVU91
 353 0048 3946     		mov	r1, r7
 354 004a 2868     		ldr	r0, [r5]
 355 004c FFF7FEFF 		bl	i2c_flag_get
 356              	.LVL26:
 235:HW_Lib/AT32F435/drivers/src/i2c_application.c ****     {
 357              		.loc 1 235 10 view .LVU92
 358 0050 C0B9     		cbnz	r0, .L28
 238:HW_Lib/AT32F435/drivers/src/i2c_application.c ****       {
 359              		.loc 1 238 7 is_stmt 1 view .LVU93
 238:HW_Lib/AT32F435/drivers/src/i2c_application.c ****       {
 360              		.loc 1 238 9 is_stmt 0 view .LVU94
 361 0052 16F0010F 		tst	r6, #1
 362 0056 E8D1     		bne	.L29
 363              	.L20:
 252:HW_Lib/AT32F435/drivers/src/i2c_application.c ****       {
ARM GAS  C:\Users\8bit\AppData\Local\Temp\ccxE8K1A.s 			page 12


 364              		.loc 1 252 7 is_stmt 1 view .LVU95
 252:HW_Lib/AT32F435/drivers/src/i2c_application.c ****       {
 365              		.loc 1 252 9 is_stmt 0 view .LVU96
 366 0058 16F0020F 		tst	r6, #2
 367 005c F1D0     		beq	.L21
 254:HW_Lib/AT32F435/drivers/src/i2c_application.c ****         {
 368              		.loc 1 254 9 is_stmt 1 view .LVU97
 254:HW_Lib/AT32F435/drivers/src/i2c_application.c ****         {
 369              		.loc 1 254 12 is_stmt 0 view .LVU98
 370 005e 2021     		movs	r1, #32
 371 0060 2868     		ldr	r0, [r5]
 372 0062 FFF7FEFF 		bl	i2c_flag_get
 373              	.LVL27:
 254:HW_Lib/AT32F435/drivers/src/i2c_application.c ****         {
 374              		.loc 1 254 11 view .LVU99
 375 0066 0028     		cmp	r0, #0
 376 0068 EBD0     		beq	.L21
 257:HW_Lib/AT32F435/drivers/src/i2c_application.c **** 
 377              		.loc 1 257 11 is_stmt 1 view .LVU100
 378 006a 2021     		movs	r1, #32
 379 006c 2868     		ldr	r0, [r5]
 380 006e FFF7FEFF 		bl	i2c_flag_clear
 381              	.LVL28:
 259:HW_Lib/AT32F435/drivers/src/i2c_application.c **** 
 382              		.loc 1 259 11 view .LVU101
 383 0072 2846     		mov	r0, r5
 384 0074 FFF7FEFF 		bl	i2c_reset_ctrl2_register
 385              	.LVL29:
 261:HW_Lib/AT32F435/drivers/src/i2c_application.c **** 
 386              		.loc 1 261 11 view .LVU102
 261:HW_Lib/AT32F435/drivers/src/i2c_application.c **** 
 387              		.loc 1 261 28 is_stmt 0 view .LVU103
 388 0078 1023     		movs	r3, #16
 389 007a 2B75     		strb	r3, [r5, #20]
 263:HW_Lib/AT32F435/drivers/src/i2c_application.c ****         }
 390              		.loc 1 263 11 is_stmt 1 view .LVU104
 263:HW_Lib/AT32F435/drivers/src/i2c_application.c ****         }
 391              		.loc 1 263 18 is_stmt 0 view .LVU105
 392 007c 03E0     		b	.L18
 393              	.LVL30:
 394              	.L27:
 269:HW_Lib/AT32F435/drivers/src/i2c_application.c ****       {
 270:HW_Lib/AT32F435/drivers/src/i2c_application.c ****         hi2c->error_code = I2C_ERR_TIMEOUT;
 395              		.loc 1 270 9 is_stmt 1 view .LVU106
 396              		.loc 1 270 26 is_stmt 0 view .LVU107
 397 007e 1223     		movs	r3, #18
 398              	.LVL31:
 399              		.loc 1 270 26 view .LVU108
 400 0080 2B75     		strb	r3, [r5, #20]
 271:HW_Lib/AT32F435/drivers/src/i2c_application.c **** 
 272:HW_Lib/AT32F435/drivers/src/i2c_application.c ****         return I2C_ERR_TIMEOUT;
 401              		.loc 1 272 9 is_stmt 1 view .LVU109
 402              		.loc 1 272 16 is_stmt 0 view .LVU110
 403 0082 00E0     		b	.L18
 404              	.LVL32:
 405              	.L28:
 273:HW_Lib/AT32F435/drivers/src/i2c_application.c ****       }
ARM GAS  C:\Users\8bit\AppData\Local\Temp\ccxE8K1A.s 			page 13


 274:HW_Lib/AT32F435/drivers/src/i2c_application.c ****     }
 275:HW_Lib/AT32F435/drivers/src/i2c_application.c ****   }
 276:HW_Lib/AT32F435/drivers/src/i2c_application.c **** 
 277:HW_Lib/AT32F435/drivers/src/i2c_application.c ****   return I2C_OK;
 406              		.loc 1 277 10 view .LVU111
 407 0084 0023     		movs	r3, #0
 408              	.LVL33:
 409              	.L18:
 278:HW_Lib/AT32F435/drivers/src/i2c_application.c **** }
 410              		.loc 1 278 1 view .LVU112
 411 0086 1846     		mov	r0, r3
 412 0088 F8BD     		pop	{r3, r4, r5, r6, r7, pc}
 413              		.loc 1 278 1 view .LVU113
 414              		.cfi_endproc
 415              	.LFE138:
 417              		.section	.text.i2c_dma_config,"ax",%progbits
 418              		.align	1
 419              		.global	i2c_dma_config
 420              		.syntax unified
 421              		.thumb
 422              		.thumb_func
 424              	i2c_dma_config:
 425              	.LVL34:
 426              	.LFB139:
 279:HW_Lib/AT32F435/drivers/src/i2c_application.c **** 
 280:HW_Lib/AT32F435/drivers/src/i2c_application.c **** /**
 281:HW_Lib/AT32F435/drivers/src/i2c_application.c ****   * @brief  dma transfer cofiguration.
 282:HW_Lib/AT32F435/drivers/src/i2c_application.c ****   * @param  hi2c: the handle points to the operation information.
 283:HW_Lib/AT32F435/drivers/src/i2c_application.c ****   * @param  dma_channelx: dma channel to be cofigured.
 284:HW_Lib/AT32F435/drivers/src/i2c_application.c ****   * @param  pdata: data buffer.
 285:HW_Lib/AT32F435/drivers/src/i2c_application.c ****   * @param  size: data size.
 286:HW_Lib/AT32F435/drivers/src/i2c_application.c ****   * @retval none.
 287:HW_Lib/AT32F435/drivers/src/i2c_application.c ****   */
 288:HW_Lib/AT32F435/drivers/src/i2c_application.c **** void i2c_dma_config(i2c_handle_type* hi2c, dma_channel_type* dma_channel, uint8_t* pdata, uint16_t 
 289:HW_Lib/AT32F435/drivers/src/i2c_application.c **** {
 427              		.loc 1 289 1 is_stmt 1 view -0
 428              		.cfi_startproc
 429              		@ args = 0, pretend = 0, frame = 0
 430              		@ frame_needed = 0, uses_anonymous_args = 0
 431              		.loc 1 289 1 is_stmt 0 view .LVU115
 432 0000 F8B5     		push	{r3, r4, r5, r6, r7, lr}
 433              	.LCFI3:
 434              		.cfi_def_cfa_offset 24
 435              		.cfi_offset 3, -24
 436              		.cfi_offset 4, -20
 437              		.cfi_offset 5, -16
 438              		.cfi_offset 6, -12
 439              		.cfi_offset 7, -8
 440              		.cfi_offset 14, -4
 441 0002 0546     		mov	r5, r0
 442 0004 0C46     		mov	r4, r1
 443 0006 1746     		mov	r7, r2
 444 0008 1E46     		mov	r6, r3
 290:HW_Lib/AT32F435/drivers/src/i2c_application.c ****   /* disable the dma channel */
 291:HW_Lib/AT32F435/drivers/src/i2c_application.c ****   dma_channel_enable(dma_channel, FALSE);
 445              		.loc 1 291 3 is_stmt 1 view .LVU116
 446 000a 0021     		movs	r1, #0
ARM GAS  C:\Users\8bit\AppData\Local\Temp\ccxE8K1A.s 			page 14


 447              	.LVL35:
 448              		.loc 1 291 3 is_stmt 0 view .LVU117
 449 000c 2046     		mov	r0, r4
 450              	.LVL36:
 451              		.loc 1 291 3 view .LVU118
 452 000e FFF7FEFF 		bl	dma_channel_enable
 453              	.LVL37:
 292:HW_Lib/AT32F435/drivers/src/i2c_application.c **** 
 293:HW_Lib/AT32F435/drivers/src/i2c_application.c ****   /* disable the transfer complete interrupt */
 294:HW_Lib/AT32F435/drivers/src/i2c_application.c ****   dma_interrupt_enable(dma_channel, DMA_FDT_INT, FALSE);
 454              		.loc 1 294 3 is_stmt 1 view .LVU119
 455 0012 0022     		movs	r2, #0
 456 0014 0221     		movs	r1, #2
 457 0016 2046     		mov	r0, r4
 458 0018 FFF7FEFF 		bl	dma_interrupt_enable
 459              	.LVL38:
 295:HW_Lib/AT32F435/drivers/src/i2c_application.c **** 
 296:HW_Lib/AT32F435/drivers/src/i2c_application.c ****   /* configure the dma channel with the buffer address and the buffer size */
 297:HW_Lib/AT32F435/drivers/src/i2c_application.c ****   hi2c->dma_init_struct.memory_base_addr     = (uint32_t)pdata;
 460              		.loc 1 297 3 view .LVU120
 461              		.loc 1 297 46 is_stmt 0 view .LVU121
 462 001c 6F62     		str	r7, [r5, #36]
 298:HW_Lib/AT32F435/drivers/src/i2c_application.c ****   hi2c->dma_init_struct.direction            = (dma_channel == hi2c->dma_tx_channel) ? DMA_DIR_MEMO
 463              		.loc 1 298 3 is_stmt 1 view .LVU122
 464              		.loc 1 298 68 is_stmt 0 view .LVU123
 465 001e AB69     		ldr	r3, [r5, #24]
 466              		.loc 1 298 117 view .LVU124
 467 0020 A342     		cmp	r3, r4
 468 0022 16D0     		beq	.L36
 469 0024 0022     		movs	r2, #0
 470              	.L31:
 471              		.loc 1 298 46 discriminator 4 view .LVU125
 472 0026 2A85     		strh	r2, [r5, #40]	@ movhi
 299:HW_Lib/AT32F435/drivers/src/i2c_application.c ****   hi2c->dma_init_struct.peripheral_base_addr = (dma_channel == hi2c->dma_tx_channel) ? (uint32_t)&h
 473              		.loc 1 299 3 is_stmt 1 discriminator 4 view .LVU126
 474              		.loc 1 299 116 is_stmt 0 discriminator 4 view .LVU127
 475 0028 A342     		cmp	r3, r4
 476 002a 14D0     		beq	.L37
 477              		.loc 1 299 133 discriminator 2 view .LVU128
 478 002c 2B68     		ldr	r3, [r5]
 479              		.loc 1 299 128 discriminator 2 view .LVU129
 480 002e 2433     		adds	r3, r3, #36
 481              	.L33:
 482              		.loc 1 299 46 discriminator 4 view .LVU130
 483 0030 2B62     		str	r3, [r5, #32]
 300:HW_Lib/AT32F435/drivers/src/i2c_application.c ****   hi2c->dma_init_struct.buffer_size          = (uint32_t)size;
 484              		.loc 1 300 3 is_stmt 1 discriminator 4 view .LVU131
 485              		.loc 1 300 46 is_stmt 0 discriminator 4 view .LVU132
 486 0032 6E85     		strh	r6, [r5, #42]	@ movhi
 301:HW_Lib/AT32F435/drivers/src/i2c_application.c ****   dma_init(dma_channel, &hi2c->dma_init_struct);
 487              		.loc 1 301 3 is_stmt 1 discriminator 4 view .LVU133
 488 0034 05F12001 		add	r1, r5, #32
 489 0038 2046     		mov	r0, r4
 490 003a FFF7FEFF 		bl	dma_init
 491              	.LVL39:
 302:HW_Lib/AT32F435/drivers/src/i2c_application.c **** 
 303:HW_Lib/AT32F435/drivers/src/i2c_application.c ****   /* enable the transfer complete interrupt */
ARM GAS  C:\Users\8bit\AppData\Local\Temp\ccxE8K1A.s 			page 15


 304:HW_Lib/AT32F435/drivers/src/i2c_application.c ****   dma_interrupt_enable(dma_channel, DMA_FDT_INT, TRUE);
 492              		.loc 1 304 3 discriminator 4 view .LVU134
 493 003e 0122     		movs	r2, #1
 494 0040 0221     		movs	r1, #2
 495 0042 2046     		mov	r0, r4
 496 0044 FFF7FEFF 		bl	dma_interrupt_enable
 497              	.LVL40:
 305:HW_Lib/AT32F435/drivers/src/i2c_application.c **** 
 306:HW_Lib/AT32F435/drivers/src/i2c_application.c ****   /* enable the dma channel */
 307:HW_Lib/AT32F435/drivers/src/i2c_application.c ****   dma_channel_enable(dma_channel, TRUE);
 498              		.loc 1 307 3 discriminator 4 view .LVU135
 499 0048 0121     		movs	r1, #1
 500 004a 2046     		mov	r0, r4
 501 004c FFF7FEFF 		bl	dma_channel_enable
 502              	.LVL41:
 308:HW_Lib/AT32F435/drivers/src/i2c_application.c **** }
 503              		.loc 1 308 1 is_stmt 0 discriminator 4 view .LVU136
 504 0050 F8BD     		pop	{r3, r4, r5, r6, r7, pc}
 505              	.LVL42:
 506              	.L36:
 298:HW_Lib/AT32F435/drivers/src/i2c_application.c ****   hi2c->dma_init_struct.peripheral_base_addr = (dma_channel == hi2c->dma_tx_channel) ? (uint32_t)&h
 507              		.loc 1 298 117 view .LVU137
 508 0052 1022     		movs	r2, #16
 509 0054 E7E7     		b	.L31
 510              	.L37:
 299:HW_Lib/AT32F435/drivers/src/i2c_application.c ****   hi2c->dma_init_struct.buffer_size          = (uint32_t)size;
 511              		.loc 1 299 103 discriminator 1 view .LVU138
 512 0056 2B68     		ldr	r3, [r5]
 299:HW_Lib/AT32F435/drivers/src/i2c_application.c ****   hi2c->dma_init_struct.buffer_size          = (uint32_t)size;
 513              		.loc 1 299 98 discriminator 1 view .LVU139
 514 0058 2833     		adds	r3, r3, #40
 515 005a E9E7     		b	.L33
 516              		.cfi_endproc
 517              	.LFE139:
 519              		.section	.text.i2c_start_transfer,"ax",%progbits
 520              		.align	1
 521              		.global	i2c_start_transfer
 522              		.syntax unified
 523              		.thumb
 524              		.thumb_func
 526              	i2c_start_transfer:
 527              	.LVL43:
 528              	.LFB140:
 309:HW_Lib/AT32F435/drivers/src/i2c_application.c **** 
 310:HW_Lib/AT32F435/drivers/src/i2c_application.c **** /**
 311:HW_Lib/AT32F435/drivers/src/i2c_application.c ****   * @brief  start transfer in poll mode or interrupt mode.
 312:HW_Lib/AT32F435/drivers/src/i2c_application.c ****   * @param  hi2c: the handle points to the operation information.
 313:HW_Lib/AT32F435/drivers/src/i2c_application.c ****   * @param  address: slave address.
 314:HW_Lib/AT32F435/drivers/src/i2c_application.c ****   * @param  start: config gen start condition mode.
 315:HW_Lib/AT32F435/drivers/src/i2c_application.c ****   *         parameter as following values:
 316:HW_Lib/AT32F435/drivers/src/i2c_application.c ****   *         - I2C_WITHOUT_START: transfer data without start condition.
 317:HW_Lib/AT32F435/drivers/src/i2c_application.c ****   *         - I2C_GEN_START_READ: read data and generate start.
 318:HW_Lib/AT32F435/drivers/src/i2c_application.c ****   *         - I2C_GEN_START_WRITE: send data and generate start.
 319:HW_Lib/AT32F435/drivers/src/i2c_application.c ****   * @retval i2c status.
 320:HW_Lib/AT32F435/drivers/src/i2c_application.c ****   */
 321:HW_Lib/AT32F435/drivers/src/i2c_application.c **** void i2c_start_transfer(i2c_handle_type* hi2c, uint16_t address, i2c_start_mode_type start)
 322:HW_Lib/AT32F435/drivers/src/i2c_application.c **** {
ARM GAS  C:\Users\8bit\AppData\Local\Temp\ccxE8K1A.s 			page 16


 529              		.loc 1 322 1 is_stmt 1 view -0
 530              		.cfi_startproc
 531              		@ args = 0, pretend = 0, frame = 0
 532              		@ frame_needed = 0, uses_anonymous_args = 0
 533              		.loc 1 322 1 is_stmt 0 view .LVU141
 534 0000 00B5     		push	{lr}
 535              	.LCFI4:
 536              		.cfi_def_cfa_offset 4
 537              		.cfi_offset 14, -4
 538 0002 83B0     		sub	sp, sp, #12
 539              	.LCFI5:
 540              		.cfi_def_cfa_offset 16
 323:HW_Lib/AT32F435/drivers/src/i2c_application.c ****   if (hi2c->pcount > MAX_TRANSFER_CNT)
 541              		.loc 1 323 3 is_stmt 1 view .LVU142
 542              		.loc 1 323 11 is_stmt 0 view .LVU143
 543 0004 4389     		ldrh	r3, [r0, #10]
 544 0006 9BB2     		uxth	r3, r3
 545              		.loc 1 323 6 view .LVU144
 546 0008 FF2B     		cmp	r3, #255
 547 000a 0ED9     		bls	.L39
 324:HW_Lib/AT32F435/drivers/src/i2c_application.c ****   {
 325:HW_Lib/AT32F435/drivers/src/i2c_application.c ****     hi2c->psize = MAX_TRANSFER_CNT;
 548              		.loc 1 325 5 is_stmt 1 view .LVU145
 549              		.loc 1 325 17 is_stmt 0 view .LVU146
 550 000c FF23     		movs	r3, #255
 551 000e 0381     		strh	r3, [r0, #8]	@ movhi
 326:HW_Lib/AT32F435/drivers/src/i2c_application.c **** 
 327:HW_Lib/AT32F435/drivers/src/i2c_application.c ****     i2c_transmit_set(hi2c->i2cx, address, hi2c->psize, I2C_RELOAD_MODE, start);
 552              		.loc 1 327 5 is_stmt 1 view .LVU147
 553              		.loc 1 327 47 is_stmt 0 view .LVU148
 554 0010 B0F808C0 		ldrh	ip, [r0, #8]
 555              		.loc 1 327 5 view .LVU149
 556 0014 0092     		str	r2, [sp]
 557 0016 4FF08073 		mov	r3, #16777216
 558 001a 5FFA8CF2 		uxtb	r2, ip
 559              	.LVL44:
 560              		.loc 1 327 5 view .LVU150
 561 001e 0068     		ldr	r0, [r0]
 562              	.LVL45:
 563              		.loc 1 327 5 view .LVU151
 564 0020 FFF7FEFF 		bl	i2c_transmit_set
 565              	.LVL46:
 566              	.L38:
 328:HW_Lib/AT32F435/drivers/src/i2c_application.c ****   }
 329:HW_Lib/AT32F435/drivers/src/i2c_application.c ****   else
 330:HW_Lib/AT32F435/drivers/src/i2c_application.c ****   {
 331:HW_Lib/AT32F435/drivers/src/i2c_application.c ****     hi2c->psize = hi2c->pcount;
 332:HW_Lib/AT32F435/drivers/src/i2c_application.c **** 
 333:HW_Lib/AT32F435/drivers/src/i2c_application.c ****     i2c_transmit_set(hi2c->i2cx, address, hi2c->psize, I2C_AUTO_STOP_MODE, start);
 334:HW_Lib/AT32F435/drivers/src/i2c_application.c ****   }
 335:HW_Lib/AT32F435/drivers/src/i2c_application.c **** }
 567              		.loc 1 335 1 view .LVU152
 568 0024 03B0     		add	sp, sp, #12
 569              	.LCFI6:
 570              		.cfi_remember_state
 571              		.cfi_def_cfa_offset 4
 572              		@ sp needed
ARM GAS  C:\Users\8bit\AppData\Local\Temp\ccxE8K1A.s 			page 17


 573 0026 5DF804FB 		ldr	pc, [sp], #4
 574              	.LVL47:
 575              	.L39:
 576              	.LCFI7:
 577              		.cfi_restore_state
 331:HW_Lib/AT32F435/drivers/src/i2c_application.c **** 
 578              		.loc 1 331 5 is_stmt 1 view .LVU153
 331:HW_Lib/AT32F435/drivers/src/i2c_application.c **** 
 579              		.loc 1 331 23 is_stmt 0 view .LVU154
 580 002a 4389     		ldrh	r3, [r0, #10]
 581 002c 9BB2     		uxth	r3, r3
 331:HW_Lib/AT32F435/drivers/src/i2c_application.c **** 
 582              		.loc 1 331 17 view .LVU155
 583 002e 0381     		strh	r3, [r0, #8]	@ movhi
 333:HW_Lib/AT32F435/drivers/src/i2c_application.c ****   }
 584              		.loc 1 333 5 is_stmt 1 view .LVU156
 333:HW_Lib/AT32F435/drivers/src/i2c_application.c ****   }
 585              		.loc 1 333 47 is_stmt 0 view .LVU157
 586 0030 B0F808C0 		ldrh	ip, [r0, #8]
 333:HW_Lib/AT32F435/drivers/src/i2c_application.c ****   }
 587              		.loc 1 333 5 view .LVU158
 588 0034 0092     		str	r2, [sp]
 589 0036 4FF00073 		mov	r3, #33554432
 590 003a 5FFA8CF2 		uxtb	r2, ip
 591              	.LVL48:
 333:HW_Lib/AT32F435/drivers/src/i2c_application.c ****   }
 592              		.loc 1 333 5 view .LVU159
 593 003e 0068     		ldr	r0, [r0]
 594              	.LVL49:
 333:HW_Lib/AT32F435/drivers/src/i2c_application.c ****   }
 595              		.loc 1 333 5 view .LVU160
 596 0040 FFF7FEFF 		bl	i2c_transmit_set
 597              	.LVL50:
 598              		.loc 1 335 1 view .LVU161
 599 0044 EEE7     		b	.L38
 600              		.cfi_endproc
 601              	.LFE140:
 603              		.section	.text.i2c_start_transfer_dma,"ax",%progbits
 604              		.align	1
 605              		.global	i2c_start_transfer_dma
 606              		.syntax unified
 607              		.thumb
 608              		.thumb_func
 610              	i2c_start_transfer_dma:
 611              	.LVL51:
 612              	.LFB141:
 336:HW_Lib/AT32F435/drivers/src/i2c_application.c **** 
 337:HW_Lib/AT32F435/drivers/src/i2c_application.c **** /**
 338:HW_Lib/AT32F435/drivers/src/i2c_application.c ****   * @brief  start transfer in dma mode.
 339:HW_Lib/AT32F435/drivers/src/i2c_application.c ****   * @param  hi2c: the handle points to the operation information.
 340:HW_Lib/AT32F435/drivers/src/i2c_application.c ****   * @param  address: slave address.
 341:HW_Lib/AT32F435/drivers/src/i2c_application.c ****   * @param  start: config gen start condition mode.
 342:HW_Lib/AT32F435/drivers/src/i2c_application.c ****   *         parameter as following values:
 343:HW_Lib/AT32F435/drivers/src/i2c_application.c ****   *         - I2C_WITHOUT_START: transfer data without start condition.
 344:HW_Lib/AT32F435/drivers/src/i2c_application.c ****   *         - I2C_GEN_START_READ: read data and generate start.
 345:HW_Lib/AT32F435/drivers/src/i2c_application.c ****   *         - I2C_GEN_START_WRITE: send data and generate start.
 346:HW_Lib/AT32F435/drivers/src/i2c_application.c ****   * @retval i2c status.
ARM GAS  C:\Users\8bit\AppData\Local\Temp\ccxE8K1A.s 			page 18


 347:HW_Lib/AT32F435/drivers/src/i2c_application.c ****   */
 348:HW_Lib/AT32F435/drivers/src/i2c_application.c **** void i2c_start_transfer_dma(i2c_handle_type* hi2c, dma_channel_type* dma_channelx, uint16_t address
 349:HW_Lib/AT32F435/drivers/src/i2c_application.c **** {
 613              		.loc 1 349 1 is_stmt 1 view -0
 614              		.cfi_startproc
 615              		@ args = 0, pretend = 0, frame = 0
 616              		@ frame_needed = 0, uses_anonymous_args = 0
 617              		.loc 1 349 1 is_stmt 0 view .LVU163
 618 0000 70B5     		push	{r4, r5, r6, lr}
 619              	.LCFI8:
 620              		.cfi_def_cfa_offset 16
 621              		.cfi_offset 4, -16
 622              		.cfi_offset 5, -12
 623              		.cfi_offset 6, -8
 624              		.cfi_offset 14, -4
 625 0002 82B0     		sub	sp, sp, #8
 626              	.LCFI9:
 627              		.cfi_def_cfa_offset 24
 628 0004 0446     		mov	r4, r0
 629 0006 1546     		mov	r5, r2
 630 0008 1E46     		mov	r6, r3
 350:HW_Lib/AT32F435/drivers/src/i2c_application.c ****   if (hi2c->pcount > MAX_TRANSFER_CNT)
 631              		.loc 1 350 3 is_stmt 1 view .LVU164
 632              		.loc 1 350 11 is_stmt 0 view .LVU165
 633 000a 4389     		ldrh	r3, [r0, #10]
 634              	.LVL52:
 635              		.loc 1 350 11 view .LVU166
 636 000c 9BB2     		uxth	r3, r3
 637              		.loc 1 350 6 view .LVU167
 638 000e FF2B     		cmp	r3, #255
 639 0010 11D9     		bls	.L43
 351:HW_Lib/AT32F435/drivers/src/i2c_application.c ****   {
 352:HW_Lib/AT32F435/drivers/src/i2c_application.c ****     hi2c->psize = MAX_TRANSFER_CNT;
 640              		.loc 1 352 5 is_stmt 1 view .LVU168
 641              		.loc 1 352 17 is_stmt 0 view .LVU169
 642 0012 FF23     		movs	r3, #255
 643 0014 0381     		strh	r3, [r0, #8]	@ movhi
 353:HW_Lib/AT32F435/drivers/src/i2c_application.c **** 
 354:HW_Lib/AT32F435/drivers/src/i2c_application.c ****     /* config dma */
 355:HW_Lib/AT32F435/drivers/src/i2c_application.c ****     i2c_dma_config(hi2c, dma_channelx, hi2c->pbuff, hi2c->psize);
 644              		.loc 1 355 5 is_stmt 1 view .LVU170
 645 0016 0389     		ldrh	r3, [r0, #8]
 646 0018 9BB2     		uxth	r3, r3
 647 001a 4268     		ldr	r2, [r0, #4]
 648              	.LVL53:
 649              		.loc 1 355 5 is_stmt 0 view .LVU171
 650 001c FFF7FEFF 		bl	i2c_dma_config
 651              	.LVL54:
 356:HW_Lib/AT32F435/drivers/src/i2c_application.c **** 
 357:HW_Lib/AT32F435/drivers/src/i2c_application.c ****     i2c_transmit_set(hi2c->i2cx, address, hi2c->psize, I2C_RELOAD_MODE, start);
 652              		.loc 1 357 5 is_stmt 1 view .LVU172
 653              		.loc 1 357 47 is_stmt 0 view .LVU173
 654 0020 2289     		ldrh	r2, [r4, #8]
 655              		.loc 1 357 5 view .LVU174
 656 0022 0096     		str	r6, [sp]
 657 0024 4FF08073 		mov	r3, #16777216
 658 0028 D2B2     		uxtb	r2, r2
ARM GAS  C:\Users\8bit\AppData\Local\Temp\ccxE8K1A.s 			page 19


 659 002a 2946     		mov	r1, r5
 660 002c 2068     		ldr	r0, [r4]
 661 002e FFF7FEFF 		bl	i2c_transmit_set
 662              	.LVL55:
 663              	.L42:
 358:HW_Lib/AT32F435/drivers/src/i2c_application.c ****   }
 359:HW_Lib/AT32F435/drivers/src/i2c_application.c ****   else
 360:HW_Lib/AT32F435/drivers/src/i2c_application.c ****   {
 361:HW_Lib/AT32F435/drivers/src/i2c_application.c ****     hi2c->psize = hi2c->pcount;
 362:HW_Lib/AT32F435/drivers/src/i2c_application.c **** 
 363:HW_Lib/AT32F435/drivers/src/i2c_application.c ****     /* config dma */
 364:HW_Lib/AT32F435/drivers/src/i2c_application.c ****     i2c_dma_config(hi2c, dma_channelx, hi2c->pbuff, hi2c->psize);
 365:HW_Lib/AT32F435/drivers/src/i2c_application.c **** 
 366:HW_Lib/AT32F435/drivers/src/i2c_application.c ****     i2c_transmit_set(hi2c->i2cx, address, hi2c->psize, I2C_AUTO_STOP_MODE, start);
 367:HW_Lib/AT32F435/drivers/src/i2c_application.c ****   }
 368:HW_Lib/AT32F435/drivers/src/i2c_application.c **** }
 664              		.loc 1 368 1 view .LVU175
 665 0032 02B0     		add	sp, sp, #8
 666              	.LCFI10:
 667              		.cfi_remember_state
 668              		.cfi_def_cfa_offset 16
 669              		@ sp needed
 670 0034 70BD     		pop	{r4, r5, r6, pc}
 671              	.LVL56:
 672              	.L43:
 673              	.LCFI11:
 674              		.cfi_restore_state
 361:HW_Lib/AT32F435/drivers/src/i2c_application.c **** 
 675              		.loc 1 361 5 is_stmt 1 view .LVU176
 361:HW_Lib/AT32F435/drivers/src/i2c_application.c **** 
 676              		.loc 1 361 23 is_stmt 0 view .LVU177
 677 0036 4389     		ldrh	r3, [r0, #10]
 678 0038 9BB2     		uxth	r3, r3
 361:HW_Lib/AT32F435/drivers/src/i2c_application.c **** 
 679              		.loc 1 361 17 view .LVU178
 680 003a 0381     		strh	r3, [r0, #8]	@ movhi
 364:HW_Lib/AT32F435/drivers/src/i2c_application.c **** 
 681              		.loc 1 364 5 is_stmt 1 view .LVU179
 682 003c 0389     		ldrh	r3, [r0, #8]
 683 003e 9BB2     		uxth	r3, r3
 684 0040 4268     		ldr	r2, [r0, #4]
 685              	.LVL57:
 364:HW_Lib/AT32F435/drivers/src/i2c_application.c **** 
 686              		.loc 1 364 5 is_stmt 0 view .LVU180
 687 0042 FFF7FEFF 		bl	i2c_dma_config
 688              	.LVL58:
 366:HW_Lib/AT32F435/drivers/src/i2c_application.c ****   }
 689              		.loc 1 366 5 is_stmt 1 view .LVU181
 366:HW_Lib/AT32F435/drivers/src/i2c_application.c ****   }
 690              		.loc 1 366 47 is_stmt 0 view .LVU182
 691 0046 2289     		ldrh	r2, [r4, #8]
 366:HW_Lib/AT32F435/drivers/src/i2c_application.c ****   }
 692              		.loc 1 366 5 view .LVU183
 693 0048 0096     		str	r6, [sp]
 694 004a 4FF00073 		mov	r3, #33554432
 695 004e D2B2     		uxtb	r2, r2
 696 0050 2946     		mov	r1, r5
ARM GAS  C:\Users\8bit\AppData\Local\Temp\ccxE8K1A.s 			page 20


 697 0052 2068     		ldr	r0, [r4]
 698 0054 FFF7FEFF 		bl	i2c_transmit_set
 699              	.LVL59:
 700              		.loc 1 368 1 view .LVU184
 701 0058 EBE7     		b	.L42
 702              		.cfi_endproc
 703              	.LFE141:
 705              		.section	.text.i2c_master_transmit,"ax",%progbits
 706              		.align	1
 707              		.global	i2c_master_transmit
 708              		.syntax unified
 709              		.thumb
 710              		.thumb_func
 712              	i2c_master_transmit:
 713              	.LVL60:
 714              	.LFB142:
 369:HW_Lib/AT32F435/drivers/src/i2c_application.c **** 
 370:HW_Lib/AT32F435/drivers/src/i2c_application.c **** /**
 371:HW_Lib/AT32F435/drivers/src/i2c_application.c ****   * @brief  the master transmits data through polling mode.
 372:HW_Lib/AT32F435/drivers/src/i2c_application.c ****   * @param  hi2c: the handle points to the operation information.
 373:HW_Lib/AT32F435/drivers/src/i2c_application.c ****   * @param  address: slave address.
 374:HW_Lib/AT32F435/drivers/src/i2c_application.c ****   * @param  pdata: data buffer.
 375:HW_Lib/AT32F435/drivers/src/i2c_application.c ****   * @param  size: data size.
 376:HW_Lib/AT32F435/drivers/src/i2c_application.c ****   * @param  timeout: maximum waiting time.
 377:HW_Lib/AT32F435/drivers/src/i2c_application.c ****   * @retval i2c status.
 378:HW_Lib/AT32F435/drivers/src/i2c_application.c ****   */
 379:HW_Lib/AT32F435/drivers/src/i2c_application.c **** i2c_status_type i2c_master_transmit(i2c_handle_type* hi2c, uint16_t address, uint8_t* pdata, uint16
 380:HW_Lib/AT32F435/drivers/src/i2c_application.c **** {
 715              		.loc 1 380 1 is_stmt 1 view -0
 716              		.cfi_startproc
 717              		@ args = 4, pretend = 0, frame = 0
 718              		@ frame_needed = 0, uses_anonymous_args = 0
 719              		.loc 1 380 1 is_stmt 0 view .LVU186
 720 0000 70B5     		push	{r4, r5, r6, lr}
 721              	.LCFI12:
 722              		.cfi_def_cfa_offset 16
 723              		.cfi_offset 4, -16
 724              		.cfi_offset 5, -12
 725              		.cfi_offset 6, -8
 726              		.cfi_offset 14, -4
 727 0002 0446     		mov	r4, r0
 728 0004 0E46     		mov	r6, r1
 729 0006 049D     		ldr	r5, [sp, #16]
 381:HW_Lib/AT32F435/drivers/src/i2c_application.c ****   /* initialization parameters */
 382:HW_Lib/AT32F435/drivers/src/i2c_application.c ****   hi2c->pbuff = pdata;
 730              		.loc 1 382 3 is_stmt 1 view .LVU187
 731              		.loc 1 382 15 is_stmt 0 view .LVU188
 732 0008 4260     		str	r2, [r0, #4]
 383:HW_Lib/AT32F435/drivers/src/i2c_application.c ****   hi2c->pcount = size;
 733              		.loc 1 383 3 is_stmt 1 view .LVU189
 734              		.loc 1 383 16 is_stmt 0 view .LVU190
 735 000a 4381     		strh	r3, [r0, #10]	@ movhi
 384:HW_Lib/AT32F435/drivers/src/i2c_application.c **** 
 385:HW_Lib/AT32F435/drivers/src/i2c_application.c ****   hi2c->error_code = I2C_OK;
 736              		.loc 1 385 3 is_stmt 1 view .LVU191
 737              		.loc 1 385 20 is_stmt 0 view .LVU192
 738 000c 0022     		movs	r2, #0
ARM GAS  C:\Users\8bit\AppData\Local\Temp\ccxE8K1A.s 			page 21


 739              	.LVL61:
 740              		.loc 1 385 20 view .LVU193
 741 000e 0275     		strb	r2, [r0, #20]
 386:HW_Lib/AT32F435/drivers/src/i2c_application.c **** 
 387:HW_Lib/AT32F435/drivers/src/i2c_application.c ****   /* wait for the busy flag to be reset */
 388:HW_Lib/AT32F435/drivers/src/i2c_application.c ****   if (i2c_wait_flag(hi2c, I2C_BUSYF_FLAG, I2C_EVENT_CHECK_NONE, timeout) != I2C_OK)
 742              		.loc 1 388 3 is_stmt 1 view .LVU194
 743              		.loc 1 388 7 is_stmt 0 view .LVU195
 744 0010 2B46     		mov	r3, r5
 745              	.LVL62:
 746              		.loc 1 388 7 view .LVU196
 747 0012 4FF40041 		mov	r1, #32768
 748              	.LVL63:
 749              		.loc 1 388 7 view .LVU197
 750 0016 FFF7FEFF 		bl	i2c_wait_flag
 751              	.LVL64:
 752              		.loc 1 388 6 view .LVU198
 753 001a 10B1     		cbz	r0, .L56
 389:HW_Lib/AT32F435/drivers/src/i2c_application.c ****   {
 390:HW_Lib/AT32F435/drivers/src/i2c_application.c ****     return I2C_ERR_STEP_1;
 754              		.loc 1 390 12 view .LVU199
 755 001c 0125     		movs	r5, #1
 756              	.L47:
 391:HW_Lib/AT32F435/drivers/src/i2c_application.c ****   }
 392:HW_Lib/AT32F435/drivers/src/i2c_application.c **** 
 393:HW_Lib/AT32F435/drivers/src/i2c_application.c ****   /* start transfer */
 394:HW_Lib/AT32F435/drivers/src/i2c_application.c ****   i2c_start_transfer(hi2c, address, I2C_GEN_START_WRITE);
 395:HW_Lib/AT32F435/drivers/src/i2c_application.c **** 
 396:HW_Lib/AT32F435/drivers/src/i2c_application.c ****   while (hi2c->pcount > 0)
 397:HW_Lib/AT32F435/drivers/src/i2c_application.c ****   {
 398:HW_Lib/AT32F435/drivers/src/i2c_application.c ****     /* wait for the tdis flag to be set */
 399:HW_Lib/AT32F435/drivers/src/i2c_application.c ****     if(i2c_wait_flag(hi2c, I2C_TDIS_FLAG, I2C_EVENT_CHECK_ACKFAIL, timeout) != I2C_OK)
 400:HW_Lib/AT32F435/drivers/src/i2c_application.c ****     {
 401:HW_Lib/AT32F435/drivers/src/i2c_application.c ****       return I2C_ERR_STEP_2;
 402:HW_Lib/AT32F435/drivers/src/i2c_application.c ****     }
 403:HW_Lib/AT32F435/drivers/src/i2c_application.c **** 
 404:HW_Lib/AT32F435/drivers/src/i2c_application.c ****     /* send data */
 405:HW_Lib/AT32F435/drivers/src/i2c_application.c ****     i2c_data_send(hi2c->i2cx, *hi2c->pbuff++);
 406:HW_Lib/AT32F435/drivers/src/i2c_application.c ****     hi2c->psize--;
 407:HW_Lib/AT32F435/drivers/src/i2c_application.c ****     hi2c->pcount--;
 408:HW_Lib/AT32F435/drivers/src/i2c_application.c **** 
 409:HW_Lib/AT32F435/drivers/src/i2c_application.c ****     if ((hi2c->psize == 0) && (hi2c->pcount != 0))
 410:HW_Lib/AT32F435/drivers/src/i2c_application.c ****     {
 411:HW_Lib/AT32F435/drivers/src/i2c_application.c ****       /* wait for the tcrld flag to be set  */
 412:HW_Lib/AT32F435/drivers/src/i2c_application.c ****       if (i2c_wait_flag(hi2c, I2C_TCRLD_FLAG, I2C_EVENT_CHECK_ACKFAIL, timeout) != I2C_OK)
 413:HW_Lib/AT32F435/drivers/src/i2c_application.c ****       {
 414:HW_Lib/AT32F435/drivers/src/i2c_application.c ****         return I2C_ERR_STEP_3;
 415:HW_Lib/AT32F435/drivers/src/i2c_application.c ****       }
 416:HW_Lib/AT32F435/drivers/src/i2c_application.c **** 
 417:HW_Lib/AT32F435/drivers/src/i2c_application.c ****       /* continue transfer */
 418:HW_Lib/AT32F435/drivers/src/i2c_application.c ****       i2c_start_transfer(hi2c, address, I2C_WITHOUT_START);
 419:HW_Lib/AT32F435/drivers/src/i2c_application.c ****     }
 420:HW_Lib/AT32F435/drivers/src/i2c_application.c ****   }
 421:HW_Lib/AT32F435/drivers/src/i2c_application.c **** 
 422:HW_Lib/AT32F435/drivers/src/i2c_application.c ****   /* wait for the stop flag to be set  */
 423:HW_Lib/AT32F435/drivers/src/i2c_application.c ****   if(i2c_wait_flag(hi2c, I2C_STOPF_FLAG, I2C_EVENT_CHECK_ACKFAIL, timeout) != I2C_OK)
 424:HW_Lib/AT32F435/drivers/src/i2c_application.c ****   {
ARM GAS  C:\Users\8bit\AppData\Local\Temp\ccxE8K1A.s 			page 22


 425:HW_Lib/AT32F435/drivers/src/i2c_application.c ****     return I2C_ERR_STEP_4;
 426:HW_Lib/AT32F435/drivers/src/i2c_application.c ****   }
 427:HW_Lib/AT32F435/drivers/src/i2c_application.c **** 
 428:HW_Lib/AT32F435/drivers/src/i2c_application.c ****   /* clear stop flag */
 429:HW_Lib/AT32F435/drivers/src/i2c_application.c ****   i2c_flag_clear(hi2c->i2cx, I2C_STOPF_FLAG);
 430:HW_Lib/AT32F435/drivers/src/i2c_application.c **** 
 431:HW_Lib/AT32F435/drivers/src/i2c_application.c ****   /* reset ctrl2 register */
 432:HW_Lib/AT32F435/drivers/src/i2c_application.c ****   i2c_reset_ctrl2_register(hi2c);
 433:HW_Lib/AT32F435/drivers/src/i2c_application.c **** 
 434:HW_Lib/AT32F435/drivers/src/i2c_application.c ****   return I2C_OK;
 435:HW_Lib/AT32F435/drivers/src/i2c_application.c **** }
 757              		.loc 1 435 1 view .LVU200
 758 001e 2846     		mov	r0, r5
 759 0020 70BD     		pop	{r4, r5, r6, pc}
 760              	.LVL65:
 761              	.L56:
 394:HW_Lib/AT32F435/drivers/src/i2c_application.c **** 
 762              		.loc 1 394 3 is_stmt 1 view .LVU201
 763 0022 4FF40052 		mov	r2, #8192
 764 0026 3146     		mov	r1, r6
 765 0028 2046     		mov	r0, r4
 766 002a FFF7FEFF 		bl	i2c_start_transfer
 767              	.LVL66:
 396:HW_Lib/AT32F435/drivers/src/i2c_application.c ****   {
 768              		.loc 1 396 3 view .LVU202
 769              	.L48:
 396:HW_Lib/AT32F435/drivers/src/i2c_application.c ****   {
 770              		.loc 1 396 9 view .LVU203
 396:HW_Lib/AT32F435/drivers/src/i2c_application.c ****   {
 771              		.loc 1 396 14 is_stmt 0 view .LVU204
 772 002e 6389     		ldrh	r3, [r4, #10]
 773 0030 9BB2     		uxth	r3, r3
 396:HW_Lib/AT32F435/drivers/src/i2c_application.c ****   {
 774              		.loc 1 396 9 view .LVU205
 775 0032 002B     		cmp	r3, #0
 776 0034 2DD0     		beq	.L57
 399:HW_Lib/AT32F435/drivers/src/i2c_application.c ****     {
 777              		.loc 1 399 5 is_stmt 1 view .LVU206
 399:HW_Lib/AT32F435/drivers/src/i2c_application.c ****     {
 778              		.loc 1 399 8 is_stmt 0 view .LVU207
 779 0036 2B46     		mov	r3, r5
 780 0038 0122     		movs	r2, #1
 781 003a 0221     		movs	r1, #2
 782 003c 2046     		mov	r0, r4
 783 003e FFF7FEFF 		bl	i2c_wait_flag
 784              	.LVL67:
 399:HW_Lib/AT32F435/drivers/src/i2c_application.c ****     {
 785              		.loc 1 399 7 view .LVU208
 786 0042 0028     		cmp	r0, #0
 787 0044 35D1     		bne	.L52
 405:HW_Lib/AT32F435/drivers/src/i2c_application.c ****     hi2c->psize--;
 788              		.loc 1 405 5 is_stmt 1 view .LVU209
 405:HW_Lib/AT32F435/drivers/src/i2c_application.c ****     hi2c->psize--;
 789              		.loc 1 405 36 is_stmt 0 view .LVU210
 790 0046 6368     		ldr	r3, [r4, #4]
 405:HW_Lib/AT32F435/drivers/src/i2c_application.c ****     hi2c->psize--;
 791              		.loc 1 405 43 view .LVU211
ARM GAS  C:\Users\8bit\AppData\Local\Temp\ccxE8K1A.s 			page 23


 792 0048 5A1C     		adds	r2, r3, #1
 793 004a 6260     		str	r2, [r4, #4]
 405:HW_Lib/AT32F435/drivers/src/i2c_application.c ****     hi2c->psize--;
 794              		.loc 1 405 5 view .LVU212
 795 004c 1978     		ldrb	r1, [r3]	@ zero_extendqisi2
 796 004e 2068     		ldr	r0, [r4]
 797 0050 FFF7FEFF 		bl	i2c_data_send
 798              	.LVL68:
 406:HW_Lib/AT32F435/drivers/src/i2c_application.c ****     hi2c->pcount--;
 799              		.loc 1 406 5 is_stmt 1 view .LVU213
 406:HW_Lib/AT32F435/drivers/src/i2c_application.c ****     hi2c->pcount--;
 800              		.loc 1 406 9 is_stmt 0 view .LVU214
 801 0054 2389     		ldrh	r3, [r4, #8]
 802 0056 9BB2     		uxth	r3, r3
 406:HW_Lib/AT32F435/drivers/src/i2c_application.c ****     hi2c->pcount--;
 803              		.loc 1 406 16 view .LVU215
 804 0058 013B     		subs	r3, r3, #1
 805 005a 9BB2     		uxth	r3, r3
 806 005c 2381     		strh	r3, [r4, #8]	@ movhi
 407:HW_Lib/AT32F435/drivers/src/i2c_application.c **** 
 807              		.loc 1 407 5 is_stmt 1 view .LVU216
 407:HW_Lib/AT32F435/drivers/src/i2c_application.c **** 
 808              		.loc 1 407 9 is_stmt 0 view .LVU217
 809 005e 6389     		ldrh	r3, [r4, #10]
 810 0060 9BB2     		uxth	r3, r3
 407:HW_Lib/AT32F435/drivers/src/i2c_application.c **** 
 811              		.loc 1 407 17 view .LVU218
 812 0062 013B     		subs	r3, r3, #1
 813 0064 9BB2     		uxth	r3, r3
 814 0066 6381     		strh	r3, [r4, #10]	@ movhi
 409:HW_Lib/AT32F435/drivers/src/i2c_application.c ****     {
 815              		.loc 1 409 5 is_stmt 1 view .LVU219
 409:HW_Lib/AT32F435/drivers/src/i2c_application.c ****     {
 816              		.loc 1 409 14 is_stmt 0 view .LVU220
 817 0068 2389     		ldrh	r3, [r4, #8]
 818 006a 9BB2     		uxth	r3, r3
 409:HW_Lib/AT32F435/drivers/src/i2c_application.c ****     {
 819              		.loc 1 409 8 view .LVU221
 820 006c 002B     		cmp	r3, #0
 821 006e DED1     		bne	.L48
 409:HW_Lib/AT32F435/drivers/src/i2c_application.c ****     {
 822              		.loc 1 409 36 discriminator 1 view .LVU222
 823 0070 6389     		ldrh	r3, [r4, #10]
 824 0072 9BB2     		uxth	r3, r3
 409:HW_Lib/AT32F435/drivers/src/i2c_application.c ****     {
 825              		.loc 1 409 28 discriminator 1 view .LVU223
 826 0074 002B     		cmp	r3, #0
 827 0076 DAD0     		beq	.L48
 412:HW_Lib/AT32F435/drivers/src/i2c_application.c ****       {
 828              		.loc 1 412 7 is_stmt 1 view .LVU224
 412:HW_Lib/AT32F435/drivers/src/i2c_application.c ****       {
 829              		.loc 1 412 11 is_stmt 0 view .LVU225
 830 0078 2B46     		mov	r3, r5
 831 007a 0122     		movs	r2, #1
 832 007c 8021     		movs	r1, #128
 833 007e 2046     		mov	r0, r4
 834 0080 FFF7FEFF 		bl	i2c_wait_flag
ARM GAS  C:\Users\8bit\AppData\Local\Temp\ccxE8K1A.s 			page 24


 835              	.LVL69:
 412:HW_Lib/AT32F435/drivers/src/i2c_application.c ****       {
 836              		.loc 1 412 10 view .LVU226
 837 0084 B8B9     		cbnz	r0, .L53
 418:HW_Lib/AT32F435/drivers/src/i2c_application.c ****     }
 838              		.loc 1 418 7 is_stmt 1 view .LVU227
 839 0086 0022     		movs	r2, #0
 840 0088 3146     		mov	r1, r6
 841 008a 2046     		mov	r0, r4
 842 008c FFF7FEFF 		bl	i2c_start_transfer
 843              	.LVL70:
 844 0090 CDE7     		b	.L48
 845              	.L57:
 423:HW_Lib/AT32F435/drivers/src/i2c_application.c ****   {
 846              		.loc 1 423 3 view .LVU228
 423:HW_Lib/AT32F435/drivers/src/i2c_application.c ****   {
 847              		.loc 1 423 6 is_stmt 0 view .LVU229
 848 0092 2B46     		mov	r3, r5
 849 0094 0122     		movs	r2, #1
 850 0096 2021     		movs	r1, #32
 851 0098 2046     		mov	r0, r4
 852 009a FFF7FEFF 		bl	i2c_wait_flag
 853              	.LVL71:
 423:HW_Lib/AT32F435/drivers/src/i2c_application.c ****   {
 854              		.loc 1 423 5 view .LVU230
 855 009e 0546     		mov	r5, r0
 856 00a0 58B9     		cbnz	r0, .L54
 429:HW_Lib/AT32F435/drivers/src/i2c_application.c **** 
 857              		.loc 1 429 3 is_stmt 1 view .LVU231
 858 00a2 2021     		movs	r1, #32
 859 00a4 2068     		ldr	r0, [r4]
 860 00a6 FFF7FEFF 		bl	i2c_flag_clear
 861              	.LVL72:
 432:HW_Lib/AT32F435/drivers/src/i2c_application.c **** 
 862              		.loc 1 432 3 view .LVU232
 863 00aa 2046     		mov	r0, r4
 864 00ac FFF7FEFF 		bl	i2c_reset_ctrl2_register
 865              	.LVL73:
 434:HW_Lib/AT32F435/drivers/src/i2c_application.c **** }
 866              		.loc 1 434 3 view .LVU233
 434:HW_Lib/AT32F435/drivers/src/i2c_application.c **** }
 867              		.loc 1 434 10 is_stmt 0 view .LVU234
 868 00b0 B5E7     		b	.L47
 869              	.L52:
 401:HW_Lib/AT32F435/drivers/src/i2c_application.c ****     }
 870              		.loc 1 401 14 view .LVU235
 871 00b2 0225     		movs	r5, #2
 872 00b4 B3E7     		b	.L47
 873              	.L53:
 414:HW_Lib/AT32F435/drivers/src/i2c_application.c ****       }
 874              		.loc 1 414 16 view .LVU236
 875 00b6 0325     		movs	r5, #3
 876 00b8 B1E7     		b	.L47
 877              	.L54:
 425:HW_Lib/AT32F435/drivers/src/i2c_application.c ****   }
 878              		.loc 1 425 12 view .LVU237
 879 00ba 0425     		movs	r5, #4
ARM GAS  C:\Users\8bit\AppData\Local\Temp\ccxE8K1A.s 			page 25


 880 00bc AFE7     		b	.L47
 881              		.cfi_endproc
 882              	.LFE142:
 884              		.section	.text.i2c_slave_receive,"ax",%progbits
 885              		.align	1
 886              		.global	i2c_slave_receive
 887              		.syntax unified
 888              		.thumb
 889              		.thumb_func
 891              	i2c_slave_receive:
 892              	.LVL74:
 893              	.LFB143:
 436:HW_Lib/AT32F435/drivers/src/i2c_application.c **** 
 437:HW_Lib/AT32F435/drivers/src/i2c_application.c **** /**
 438:HW_Lib/AT32F435/drivers/src/i2c_application.c ****   * @brief  the slave receive data through polling mode.
 439:HW_Lib/AT32F435/drivers/src/i2c_application.c ****   * @param  hi2c: the handle points to the operation information.
 440:HW_Lib/AT32F435/drivers/src/i2c_application.c ****   * @param  pdata: data buffer.
 441:HW_Lib/AT32F435/drivers/src/i2c_application.c ****   * @param  size: data size.
 442:HW_Lib/AT32F435/drivers/src/i2c_application.c ****   * @param  timeout: maximum waiting time.
 443:HW_Lib/AT32F435/drivers/src/i2c_application.c ****   * @retval i2c status.
 444:HW_Lib/AT32F435/drivers/src/i2c_application.c ****   */
 445:HW_Lib/AT32F435/drivers/src/i2c_application.c **** i2c_status_type i2c_slave_receive(i2c_handle_type* hi2c, uint8_t* pdata, uint16_t size, uint32_t ti
 446:HW_Lib/AT32F435/drivers/src/i2c_application.c **** {
 894              		.loc 1 446 1 is_stmt 1 view -0
 895              		.cfi_startproc
 896              		@ args = 0, pretend = 0, frame = 0
 897              		@ frame_needed = 0, uses_anonymous_args = 0
 898              		.loc 1 446 1 is_stmt 0 view .LVU239
 899 0000 70B5     		push	{r4, r5, r6, lr}
 900              	.LCFI13:
 901              		.cfi_def_cfa_offset 16
 902              		.cfi_offset 4, -16
 903              		.cfi_offset 5, -12
 904              		.cfi_offset 6, -8
 905              		.cfi_offset 14, -4
 906 0002 0446     		mov	r4, r0
 907 0004 1D46     		mov	r5, r3
 447:HW_Lib/AT32F435/drivers/src/i2c_application.c ****   /* initialization parameters */
 448:HW_Lib/AT32F435/drivers/src/i2c_application.c ****   hi2c->pbuff = pdata;
 908              		.loc 1 448 3 is_stmt 1 view .LVU240
 909              		.loc 1 448 15 is_stmt 0 view .LVU241
 910 0006 4160     		str	r1, [r0, #4]
 449:HW_Lib/AT32F435/drivers/src/i2c_application.c ****   hi2c->pcount = size;
 911              		.loc 1 449 3 is_stmt 1 view .LVU242
 912              		.loc 1 449 16 is_stmt 0 view .LVU243
 913 0008 4281     		strh	r2, [r0, #10]	@ movhi
 450:HW_Lib/AT32F435/drivers/src/i2c_application.c **** 
 451:HW_Lib/AT32F435/drivers/src/i2c_application.c ****   hi2c->error_code = I2C_OK;
 914              		.loc 1 451 3 is_stmt 1 view .LVU244
 915              		.loc 1 451 20 is_stmt 0 view .LVU245
 916 000a 0022     		movs	r2, #0
 917              	.LVL75:
 918              		.loc 1 451 20 view .LVU246
 919 000c 0275     		strb	r2, [r0, #20]
 920              	.LVL76:
 452:HW_Lib/AT32F435/drivers/src/i2c_application.c **** 
 453:HW_Lib/AT32F435/drivers/src/i2c_application.c ****   /* wait for the busy flag to be reset */
ARM GAS  C:\Users\8bit\AppData\Local\Temp\ccxE8K1A.s 			page 26


 454:HW_Lib/AT32F435/drivers/src/i2c_application.c ****   if(i2c_wait_flag(hi2c, I2C_BUSYF_FLAG, I2C_EVENT_CHECK_NONE, timeout) != I2C_OK)
 921              		.loc 1 454 3 is_stmt 1 view .LVU247
 922              		.loc 1 454 6 is_stmt 0 view .LVU248
 923 000e 4FF40041 		mov	r1, #32768
 924              	.LVL77:
 925              		.loc 1 454 6 view .LVU249
 926 0012 FFF7FEFF 		bl	i2c_wait_flag
 927              	.LVL78:
 928              		.loc 1 454 5 view .LVU250
 929 0016 08B1     		cbz	r0, .L68
 455:HW_Lib/AT32F435/drivers/src/i2c_application.c ****   {
 456:HW_Lib/AT32F435/drivers/src/i2c_application.c ****     return I2C_ERR_STEP_1;
 930              		.loc 1 456 12 view .LVU251
 931 0018 0120     		movs	r0, #1
 932              	.LVL79:
 933              	.L59:
 457:HW_Lib/AT32F435/drivers/src/i2c_application.c ****   }
 458:HW_Lib/AT32F435/drivers/src/i2c_application.c **** 
 459:HW_Lib/AT32F435/drivers/src/i2c_application.c ****   /* enable acknowledge */
 460:HW_Lib/AT32F435/drivers/src/i2c_application.c ****   i2c_ack_enable(hi2c->i2cx, TRUE);
 461:HW_Lib/AT32F435/drivers/src/i2c_application.c **** 
 462:HW_Lib/AT32F435/drivers/src/i2c_application.c ****   /* wait for the addr flag to be set */
 463:HW_Lib/AT32F435/drivers/src/i2c_application.c ****   if (i2c_wait_flag(hi2c, I2C_ADDRF_FLAG, I2C_EVENT_CHECK_NONE, timeout) != I2C_OK)
 464:HW_Lib/AT32F435/drivers/src/i2c_application.c ****   {
 465:HW_Lib/AT32F435/drivers/src/i2c_application.c ****     return I2C_ERR_STEP_2;
 466:HW_Lib/AT32F435/drivers/src/i2c_application.c ****   }
 467:HW_Lib/AT32F435/drivers/src/i2c_application.c **** 
 468:HW_Lib/AT32F435/drivers/src/i2c_application.c ****   /* clear addr flag */
 469:HW_Lib/AT32F435/drivers/src/i2c_application.c ****   i2c_flag_clear(hi2c->i2cx, I2C_ADDRF_FLAG);
 470:HW_Lib/AT32F435/drivers/src/i2c_application.c **** 
 471:HW_Lib/AT32F435/drivers/src/i2c_application.c ****   while (hi2c->pcount > 0)
 472:HW_Lib/AT32F435/drivers/src/i2c_application.c ****   {
 473:HW_Lib/AT32F435/drivers/src/i2c_application.c ****     /* wait for the rdbf flag to be set  */
 474:HW_Lib/AT32F435/drivers/src/i2c_application.c ****     if(i2c_wait_flag(hi2c, I2C_RDBF_FLAG, I2C_EVENT_CHECK_STOP, timeout) != I2C_OK)
 475:HW_Lib/AT32F435/drivers/src/i2c_application.c ****     {
 476:HW_Lib/AT32F435/drivers/src/i2c_application.c ****       /* disable acknowledge */
 477:HW_Lib/AT32F435/drivers/src/i2c_application.c ****       i2c_ack_enable(hi2c->i2cx, FALSE);
 478:HW_Lib/AT32F435/drivers/src/i2c_application.c **** 
 479:HW_Lib/AT32F435/drivers/src/i2c_application.c ****       /* if data is received, read data */
 480:HW_Lib/AT32F435/drivers/src/i2c_application.c ****       if (i2c_flag_get(hi2c->i2cx, I2C_RDBF_FLAG) == SET)
 481:HW_Lib/AT32F435/drivers/src/i2c_application.c ****       {
 482:HW_Lib/AT32F435/drivers/src/i2c_application.c ****         /* read data */
 483:HW_Lib/AT32F435/drivers/src/i2c_application.c ****         (*hi2c->pbuff++) = i2c_data_receive(hi2c->i2cx);
 484:HW_Lib/AT32F435/drivers/src/i2c_application.c ****         hi2c->pcount--;
 485:HW_Lib/AT32F435/drivers/src/i2c_application.c ****       }
 486:HW_Lib/AT32F435/drivers/src/i2c_application.c **** 
 487:HW_Lib/AT32F435/drivers/src/i2c_application.c ****       return I2C_ERR_STEP_4;
 488:HW_Lib/AT32F435/drivers/src/i2c_application.c ****     }
 489:HW_Lib/AT32F435/drivers/src/i2c_application.c **** 
 490:HW_Lib/AT32F435/drivers/src/i2c_application.c ****     /* read data */
 491:HW_Lib/AT32F435/drivers/src/i2c_application.c ****     (*hi2c->pbuff++) = i2c_data_receive(hi2c->i2cx);
 492:HW_Lib/AT32F435/drivers/src/i2c_application.c ****     hi2c->pcount--;
 493:HW_Lib/AT32F435/drivers/src/i2c_application.c ****   }
 494:HW_Lib/AT32F435/drivers/src/i2c_application.c **** 
 495:HW_Lib/AT32F435/drivers/src/i2c_application.c ****   /* wait for the stop flag to be set */
 496:HW_Lib/AT32F435/drivers/src/i2c_application.c ****   if(i2c_wait_flag(hi2c, I2C_STOPF_FLAG, I2C_EVENT_CHECK_NONE, timeout) != I2C_OK)
 497:HW_Lib/AT32F435/drivers/src/i2c_application.c ****   {
ARM GAS  C:\Users\8bit\AppData\Local\Temp\ccxE8K1A.s 			page 27


 498:HW_Lib/AT32F435/drivers/src/i2c_application.c ****     /* disable acknowledge */
 499:HW_Lib/AT32F435/drivers/src/i2c_application.c ****     i2c_ack_enable(hi2c->i2cx, FALSE);
 500:HW_Lib/AT32F435/drivers/src/i2c_application.c **** 
 501:HW_Lib/AT32F435/drivers/src/i2c_application.c ****     return I2C_ERR_STEP_5;
 502:HW_Lib/AT32F435/drivers/src/i2c_application.c ****   }
 503:HW_Lib/AT32F435/drivers/src/i2c_application.c **** 
 504:HW_Lib/AT32F435/drivers/src/i2c_application.c ****   /* clear stop flag */
 505:HW_Lib/AT32F435/drivers/src/i2c_application.c ****   i2c_flag_clear(hi2c->i2cx, I2C_STOPF_FLAG);
 506:HW_Lib/AT32F435/drivers/src/i2c_application.c **** 
 507:HW_Lib/AT32F435/drivers/src/i2c_application.c ****   /* wait for the busy flag to be reset */
 508:HW_Lib/AT32F435/drivers/src/i2c_application.c ****   if (i2c_wait_flag(hi2c, I2C_BUSYF_FLAG, I2C_EVENT_CHECK_NONE, timeout) != I2C_OK)
 509:HW_Lib/AT32F435/drivers/src/i2c_application.c ****   {
 510:HW_Lib/AT32F435/drivers/src/i2c_application.c ****     /* disable acknowledge */
 511:HW_Lib/AT32F435/drivers/src/i2c_application.c ****     i2c_ack_enable(hi2c->i2cx, FALSE);
 512:HW_Lib/AT32F435/drivers/src/i2c_application.c **** 
 513:HW_Lib/AT32F435/drivers/src/i2c_application.c ****     return I2C_ERR_STEP_6;
 514:HW_Lib/AT32F435/drivers/src/i2c_application.c ****   }
 515:HW_Lib/AT32F435/drivers/src/i2c_application.c **** 
 516:HW_Lib/AT32F435/drivers/src/i2c_application.c ****   return I2C_OK;
 517:HW_Lib/AT32F435/drivers/src/i2c_application.c **** }
 934              		.loc 1 517 1 view .LVU252
 935 001a 70BD     		pop	{r4, r5, r6, pc}
 936              	.LVL80:
 937              	.L68:
 460:HW_Lib/AT32F435/drivers/src/i2c_application.c **** 
 938              		.loc 1 460 3 is_stmt 1 view .LVU253
 939 001c 0121     		movs	r1, #1
 940 001e 2068     		ldr	r0, [r4]
 941 0020 FFF7FEFF 		bl	i2c_ack_enable
 942              	.LVL81:
 463:HW_Lib/AT32F435/drivers/src/i2c_application.c ****   {
 943              		.loc 1 463 3 view .LVU254
 463:HW_Lib/AT32F435/drivers/src/i2c_application.c ****   {
 944              		.loc 1 463 7 is_stmt 0 view .LVU255
 945 0024 2B46     		mov	r3, r5
 946 0026 0022     		movs	r2, #0
 947 0028 0821     		movs	r1, #8
 948 002a 2046     		mov	r0, r4
 949 002c FFF7FEFF 		bl	i2c_wait_flag
 950              	.LVL82:
 463:HW_Lib/AT32F435/drivers/src/i2c_application.c ****   {
 951              		.loc 1 463 6 view .LVU256
 952 0030 0028     		cmp	r0, #0
 953 0032 53D1     		bne	.L66
 469:HW_Lib/AT32F435/drivers/src/i2c_application.c **** 
 954              		.loc 1 469 3 is_stmt 1 view .LVU257
 955 0034 0821     		movs	r1, #8
 956 0036 2068     		ldr	r0, [r4]
 957 0038 FFF7FEFF 		bl	i2c_flag_clear
 958              	.LVL83:
 471:HW_Lib/AT32F435/drivers/src/i2c_application.c ****   {
 959              		.loc 1 471 3 view .LVU258
 471:HW_Lib/AT32F435/drivers/src/i2c_application.c ****   {
 960              		.loc 1 471 9 is_stmt 0 view .LVU259
 961 003c 18E0     		b	.L60
 962              	.L70:
 483:HW_Lib/AT32F435/drivers/src/i2c_application.c ****         hi2c->pcount--;
ARM GAS  C:\Users\8bit\AppData\Local\Temp\ccxE8K1A.s 			page 28


 963              		.loc 1 483 9 is_stmt 1 view .LVU260
 483:HW_Lib/AT32F435/drivers/src/i2c_application.c ****         hi2c->pcount--;
 964              		.loc 1 483 15 is_stmt 0 view .LVU261
 965 003e 6568     		ldr	r5, [r4, #4]
 966              	.LVL84:
 483:HW_Lib/AT32F435/drivers/src/i2c_application.c ****         hi2c->pcount--;
 967              		.loc 1 483 22 view .LVU262
 968 0040 6B1C     		adds	r3, r5, #1
 969 0042 6360     		str	r3, [r4, #4]
 483:HW_Lib/AT32F435/drivers/src/i2c_application.c ****         hi2c->pcount--;
 970              		.loc 1 483 28 view .LVU263
 971 0044 2068     		ldr	r0, [r4]
 972 0046 FFF7FEFF 		bl	i2c_data_receive
 973              	.LVL85:
 483:HW_Lib/AT32F435/drivers/src/i2c_application.c ****         hi2c->pcount--;
 974              		.loc 1 483 26 view .LVU264
 975 004a 2870     		strb	r0, [r5]
 484:HW_Lib/AT32F435/drivers/src/i2c_application.c ****       }
 976              		.loc 1 484 9 is_stmt 1 view .LVU265
 484:HW_Lib/AT32F435/drivers/src/i2c_application.c ****       }
 977              		.loc 1 484 13 is_stmt 0 view .LVU266
 978 004c 6389     		ldrh	r3, [r4, #10]
 979 004e 9BB2     		uxth	r3, r3
 484:HW_Lib/AT32F435/drivers/src/i2c_application.c ****       }
 980              		.loc 1 484 21 view .LVU267
 981 0050 013B     		subs	r3, r3, #1
 982 0052 9BB2     		uxth	r3, r3
 983 0054 6381     		strh	r3, [r4, #10]	@ movhi
 984 0056 20E0     		b	.L62
 985              	.LVL86:
 986              	.L61:
 491:HW_Lib/AT32F435/drivers/src/i2c_application.c ****     hi2c->pcount--;
 987              		.loc 1 491 5 is_stmt 1 view .LVU268
 491:HW_Lib/AT32F435/drivers/src/i2c_application.c ****     hi2c->pcount--;
 988              		.loc 1 491 11 is_stmt 0 view .LVU269
 989 0058 6668     		ldr	r6, [r4, #4]
 491:HW_Lib/AT32F435/drivers/src/i2c_application.c ****     hi2c->pcount--;
 990              		.loc 1 491 18 view .LVU270
 991 005a 731C     		adds	r3, r6, #1
 992 005c 6360     		str	r3, [r4, #4]
 491:HW_Lib/AT32F435/drivers/src/i2c_application.c ****     hi2c->pcount--;
 993              		.loc 1 491 24 view .LVU271
 994 005e 2068     		ldr	r0, [r4]
 995 0060 FFF7FEFF 		bl	i2c_data_receive
 996              	.LVL87:
 491:HW_Lib/AT32F435/drivers/src/i2c_application.c ****     hi2c->pcount--;
 997              		.loc 1 491 22 view .LVU272
 998 0064 3070     		strb	r0, [r6]
 492:HW_Lib/AT32F435/drivers/src/i2c_application.c ****   }
 999              		.loc 1 492 5 is_stmt 1 view .LVU273
 492:HW_Lib/AT32F435/drivers/src/i2c_application.c ****   }
 1000              		.loc 1 492 9 is_stmt 0 view .LVU274
 1001 0066 6289     		ldrh	r2, [r4, #10]
 1002 0068 92B2     		uxth	r2, r2
 492:HW_Lib/AT32F435/drivers/src/i2c_application.c ****   }
 1003              		.loc 1 492 17 view .LVU275
 1004 006a 013A     		subs	r2, r2, #1
ARM GAS  C:\Users\8bit\AppData\Local\Temp\ccxE8K1A.s 			page 29


 1005 006c 92B2     		uxth	r2, r2
 1006 006e 6281     		strh	r2, [r4, #10]	@ movhi
 1007              	.L60:
 471:HW_Lib/AT32F435/drivers/src/i2c_application.c ****   {
 1008              		.loc 1 471 9 is_stmt 1 view .LVU276
 471:HW_Lib/AT32F435/drivers/src/i2c_application.c ****   {
 1009              		.loc 1 471 14 is_stmt 0 view .LVU277
 1010 0070 6289     		ldrh	r2, [r4, #10]
 1011 0072 92B2     		uxth	r2, r2
 471:HW_Lib/AT32F435/drivers/src/i2c_application.c ****   {
 1012              		.loc 1 471 9 view .LVU278
 1013 0074 9AB1     		cbz	r2, .L69
 474:HW_Lib/AT32F435/drivers/src/i2c_application.c ****     {
 1014              		.loc 1 474 5 is_stmt 1 view .LVU279
 474:HW_Lib/AT32F435/drivers/src/i2c_application.c ****     {
 1015              		.loc 1 474 8 is_stmt 0 view .LVU280
 1016 0076 2B46     		mov	r3, r5
 1017 0078 0222     		movs	r2, #2
 1018 007a 0421     		movs	r1, #4
 1019 007c 2046     		mov	r0, r4
 1020 007e FFF7FEFF 		bl	i2c_wait_flag
 1021              	.LVL88:
 474:HW_Lib/AT32F435/drivers/src/i2c_application.c ****     {
 1022              		.loc 1 474 7 view .LVU281
 1023 0082 0028     		cmp	r0, #0
 1024 0084 E8D0     		beq	.L61
 477:HW_Lib/AT32F435/drivers/src/i2c_application.c **** 
 1025              		.loc 1 477 7 is_stmt 1 view .LVU282
 1026 0086 0021     		movs	r1, #0
 1027 0088 2068     		ldr	r0, [r4]
 1028 008a FFF7FEFF 		bl	i2c_ack_enable
 1029              	.LVL89:
 480:HW_Lib/AT32F435/drivers/src/i2c_application.c ****       {
 1030              		.loc 1 480 7 view .LVU283
 480:HW_Lib/AT32F435/drivers/src/i2c_application.c ****       {
 1031              		.loc 1 480 11 is_stmt 0 view .LVU284
 1032 008e 0421     		movs	r1, #4
 1033 0090 2068     		ldr	r0, [r4]
 1034 0092 FFF7FEFF 		bl	i2c_flag_get
 1035              	.LVL90:
 480:HW_Lib/AT32F435/drivers/src/i2c_application.c ****       {
 1036              		.loc 1 480 10 view .LVU285
 1037 0096 0128     		cmp	r0, #1
 1038 0098 D1D0     		beq	.L70
 1039              	.LVL91:
 1040              	.L62:
 487:HW_Lib/AT32F435/drivers/src/i2c_application.c ****     }
 1041              		.loc 1 487 7 is_stmt 1 view .LVU286
 487:HW_Lib/AT32F435/drivers/src/i2c_application.c ****     }
 1042              		.loc 1 487 14 is_stmt 0 view .LVU287
 1043 009a 0420     		movs	r0, #4
 1044 009c BDE7     		b	.L59
 1045              	.LVL92:
 1046              	.L69:
 496:HW_Lib/AT32F435/drivers/src/i2c_application.c ****   {
 1047              		.loc 1 496 3 is_stmt 1 view .LVU288
 496:HW_Lib/AT32F435/drivers/src/i2c_application.c ****   {
ARM GAS  C:\Users\8bit\AppData\Local\Temp\ccxE8K1A.s 			page 30


 1048              		.loc 1 496 6 is_stmt 0 view .LVU289
 1049 009e 2B46     		mov	r3, r5
 1050 00a0 2021     		movs	r1, #32
 1051 00a2 2046     		mov	r0, r4
 1052 00a4 FFF7FEFF 		bl	i2c_wait_flag
 1053              	.LVL93:
 496:HW_Lib/AT32F435/drivers/src/i2c_application.c ****   {
 1054              		.loc 1 496 5 view .LVU290
 1055 00a8 90B9     		cbnz	r0, .L71
 505:HW_Lib/AT32F435/drivers/src/i2c_application.c **** 
 1056              		.loc 1 505 3 is_stmt 1 view .LVU291
 1057 00aa 2021     		movs	r1, #32
 1058 00ac 2068     		ldr	r0, [r4]
 1059 00ae FFF7FEFF 		bl	i2c_flag_clear
 1060              	.LVL94:
 508:HW_Lib/AT32F435/drivers/src/i2c_application.c ****   {
 1061              		.loc 1 508 3 view .LVU292
 508:HW_Lib/AT32F435/drivers/src/i2c_application.c ****   {
 1062              		.loc 1 508 7 is_stmt 0 view .LVU293
 1063 00b2 2B46     		mov	r3, r5
 1064 00b4 0022     		movs	r2, #0
 1065 00b6 4FF40041 		mov	r1, #32768
 1066 00ba 2046     		mov	r0, r4
 1067 00bc FFF7FEFF 		bl	i2c_wait_flag
 1068              	.LVL95:
 508:HW_Lib/AT32F435/drivers/src/i2c_application.c ****   {
 1069              		.loc 1 508 6 view .LVU294
 1070 00c0 0028     		cmp	r0, #0
 1071 00c2 AAD0     		beq	.L59
 511:HW_Lib/AT32F435/drivers/src/i2c_application.c **** 
 1072              		.loc 1 511 5 is_stmt 1 view .LVU295
 1073 00c4 0021     		movs	r1, #0
 1074 00c6 2068     		ldr	r0, [r4]
 1075 00c8 FFF7FEFF 		bl	i2c_ack_enable
 1076              	.LVL96:
 513:HW_Lib/AT32F435/drivers/src/i2c_application.c ****   }
 1077              		.loc 1 513 5 view .LVU296
 513:HW_Lib/AT32F435/drivers/src/i2c_application.c ****   }
 1078              		.loc 1 513 12 is_stmt 0 view .LVU297
 1079 00cc 0620     		movs	r0, #6
 1080 00ce A4E7     		b	.L59
 1081              	.L71:
 499:HW_Lib/AT32F435/drivers/src/i2c_application.c **** 
 1082              		.loc 1 499 5 is_stmt 1 view .LVU298
 1083 00d0 0021     		movs	r1, #0
 1084 00d2 2068     		ldr	r0, [r4]
 1085 00d4 FFF7FEFF 		bl	i2c_ack_enable
 1086              	.LVL97:
 501:HW_Lib/AT32F435/drivers/src/i2c_application.c ****   }
 1087              		.loc 1 501 5 view .LVU299
 501:HW_Lib/AT32F435/drivers/src/i2c_application.c ****   }
 1088              		.loc 1 501 12 is_stmt 0 view .LVU300
 1089 00d8 0520     		movs	r0, #5
 1090 00da 9EE7     		b	.L59
 1091              	.L66:
 465:HW_Lib/AT32F435/drivers/src/i2c_application.c ****   }
 1092              		.loc 1 465 12 view .LVU301
ARM GAS  C:\Users\8bit\AppData\Local\Temp\ccxE8K1A.s 			page 31


 1093 00dc 0220     		movs	r0, #2
 1094 00de 9CE7     		b	.L59
 1095              		.cfi_endproc
 1096              	.LFE143:
 1098              		.section	.text.i2c_master_receive,"ax",%progbits
 1099              		.align	1
 1100              		.global	i2c_master_receive
 1101              		.syntax unified
 1102              		.thumb
 1103              		.thumb_func
 1105              	i2c_master_receive:
 1106              	.LVL98:
 1107              	.LFB144:
 518:HW_Lib/AT32F435/drivers/src/i2c_application.c **** 
 519:HW_Lib/AT32F435/drivers/src/i2c_application.c **** /**
 520:HW_Lib/AT32F435/drivers/src/i2c_application.c ****   * @brief  the master receive data through polling mode.
 521:HW_Lib/AT32F435/drivers/src/i2c_application.c ****   * @param  hi2c: the handle points to the operation information.
 522:HW_Lib/AT32F435/drivers/src/i2c_application.c ****   * @param  address: slave address.
 523:HW_Lib/AT32F435/drivers/src/i2c_application.c ****   * @param  pdata: data buffer.
 524:HW_Lib/AT32F435/drivers/src/i2c_application.c ****   * @param  size: data size.
 525:HW_Lib/AT32F435/drivers/src/i2c_application.c ****   * @param  timeout: maximum waiting time.
 526:HW_Lib/AT32F435/drivers/src/i2c_application.c ****   * @retval i2c status.
 527:HW_Lib/AT32F435/drivers/src/i2c_application.c ****   */
 528:HW_Lib/AT32F435/drivers/src/i2c_application.c **** i2c_status_type i2c_master_receive(i2c_handle_type* hi2c, uint16_t address, uint8_t* pdata, uint16_
 529:HW_Lib/AT32F435/drivers/src/i2c_application.c **** {
 1108              		.loc 1 529 1 is_stmt 1 view -0
 1109              		.cfi_startproc
 1110              		@ args = 4, pretend = 0, frame = 0
 1111              		@ frame_needed = 0, uses_anonymous_args = 0
 1112              		.loc 1 529 1 is_stmt 0 view .LVU303
 1113 0000 F8B5     		push	{r3, r4, r5, r6, r7, lr}
 1114              	.LCFI14:
 1115              		.cfi_def_cfa_offset 24
 1116              		.cfi_offset 3, -24
 1117              		.cfi_offset 4, -20
 1118              		.cfi_offset 5, -16
 1119              		.cfi_offset 6, -12
 1120              		.cfi_offset 7, -8
 1121              		.cfi_offset 14, -4
 1122 0002 0446     		mov	r4, r0
 1123 0004 0E46     		mov	r6, r1
 1124 0006 069D     		ldr	r5, [sp, #24]
 530:HW_Lib/AT32F435/drivers/src/i2c_application.c ****   /* initialization parameters */
 531:HW_Lib/AT32F435/drivers/src/i2c_application.c ****   hi2c->pbuff = pdata;
 1125              		.loc 1 531 3 is_stmt 1 view .LVU304
 1126              		.loc 1 531 15 is_stmt 0 view .LVU305
 1127 0008 4260     		str	r2, [r0, #4]
 532:HW_Lib/AT32F435/drivers/src/i2c_application.c ****   hi2c->pcount = size;
 1128              		.loc 1 532 3 is_stmt 1 view .LVU306
 1129              		.loc 1 532 16 is_stmt 0 view .LVU307
 1130 000a 4381     		strh	r3, [r0, #10]	@ movhi
 533:HW_Lib/AT32F435/drivers/src/i2c_application.c **** 
 534:HW_Lib/AT32F435/drivers/src/i2c_application.c ****   hi2c->error_code = I2C_OK;
 1131              		.loc 1 534 3 is_stmt 1 view .LVU308
 1132              		.loc 1 534 20 is_stmt 0 view .LVU309
 1133 000c 0022     		movs	r2, #0
 1134              	.LVL99:
ARM GAS  C:\Users\8bit\AppData\Local\Temp\ccxE8K1A.s 			page 32


 1135              		.loc 1 534 20 view .LVU310
 1136 000e 0275     		strb	r2, [r0, #20]
 535:HW_Lib/AT32F435/drivers/src/i2c_application.c **** 
 536:HW_Lib/AT32F435/drivers/src/i2c_application.c ****   /* wait for the busy flag to be reset */
 537:HW_Lib/AT32F435/drivers/src/i2c_application.c ****   if (i2c_wait_flag(hi2c, I2C_BUSYF_FLAG, I2C_EVENT_CHECK_NONE, timeout) != I2C_OK)
 1137              		.loc 1 537 3 is_stmt 1 view .LVU311
 1138              		.loc 1 537 7 is_stmt 0 view .LVU312
 1139 0010 2B46     		mov	r3, r5
 1140              	.LVL100:
 1141              		.loc 1 537 7 view .LVU313
 1142 0012 4FF40041 		mov	r1, #32768
 1143              	.LVL101:
 1144              		.loc 1 537 7 view .LVU314
 1145 0016 FFF7FEFF 		bl	i2c_wait_flag
 1146              	.LVL102:
 1147              		.loc 1 537 6 view .LVU315
 1148 001a 10B1     		cbz	r0, .L82
 538:HW_Lib/AT32F435/drivers/src/i2c_application.c ****   {
 539:HW_Lib/AT32F435/drivers/src/i2c_application.c ****     return I2C_ERR_STEP_1;
 1149              		.loc 1 539 12 view .LVU316
 1150 001c 0125     		movs	r5, #1
 1151              	.L73:
 540:HW_Lib/AT32F435/drivers/src/i2c_application.c ****   }
 541:HW_Lib/AT32F435/drivers/src/i2c_application.c **** 
 542:HW_Lib/AT32F435/drivers/src/i2c_application.c ****   /* start transfer */
 543:HW_Lib/AT32F435/drivers/src/i2c_application.c ****   i2c_start_transfer(hi2c, address, I2C_GEN_START_READ);
 544:HW_Lib/AT32F435/drivers/src/i2c_application.c **** 
 545:HW_Lib/AT32F435/drivers/src/i2c_application.c ****   while (hi2c->pcount > 0)
 546:HW_Lib/AT32F435/drivers/src/i2c_application.c ****   {
 547:HW_Lib/AT32F435/drivers/src/i2c_application.c ****     /* wait for the rdbf flag to be set  */
 548:HW_Lib/AT32F435/drivers/src/i2c_application.c ****     if(i2c_wait_flag(hi2c, I2C_RDBF_FLAG, I2C_EVENT_CHECK_ACKFAIL, timeout) != I2C_OK)
 549:HW_Lib/AT32F435/drivers/src/i2c_application.c ****     {
 550:HW_Lib/AT32F435/drivers/src/i2c_application.c ****       return I2C_ERR_STEP_2;
 551:HW_Lib/AT32F435/drivers/src/i2c_application.c ****     }
 552:HW_Lib/AT32F435/drivers/src/i2c_application.c **** 
 553:HW_Lib/AT32F435/drivers/src/i2c_application.c ****     /* read data */
 554:HW_Lib/AT32F435/drivers/src/i2c_application.c ****     (*hi2c->pbuff++) = i2c_data_receive(hi2c->i2cx);
 555:HW_Lib/AT32F435/drivers/src/i2c_application.c ****     hi2c->pcount--;
 556:HW_Lib/AT32F435/drivers/src/i2c_application.c ****     hi2c->psize--;
 557:HW_Lib/AT32F435/drivers/src/i2c_application.c **** 
 558:HW_Lib/AT32F435/drivers/src/i2c_application.c ****     if ((hi2c->psize == 0) && (hi2c->pcount != 0))
 559:HW_Lib/AT32F435/drivers/src/i2c_application.c ****     {
 560:HW_Lib/AT32F435/drivers/src/i2c_application.c ****       /* wait for the tcrld flag to be set  */
 561:HW_Lib/AT32F435/drivers/src/i2c_application.c ****       if (i2c_wait_flag(hi2c, I2C_TCRLD_FLAG, I2C_EVENT_CHECK_NONE, timeout) != I2C_OK)
 562:HW_Lib/AT32F435/drivers/src/i2c_application.c ****       {
 563:HW_Lib/AT32F435/drivers/src/i2c_application.c ****         return I2C_ERR_STEP_3;
 564:HW_Lib/AT32F435/drivers/src/i2c_application.c ****       }
 565:HW_Lib/AT32F435/drivers/src/i2c_application.c **** 
 566:HW_Lib/AT32F435/drivers/src/i2c_application.c ****       /* continue transfer */
 567:HW_Lib/AT32F435/drivers/src/i2c_application.c ****       i2c_start_transfer(hi2c, address, I2C_WITHOUT_START);
 568:HW_Lib/AT32F435/drivers/src/i2c_application.c ****     }
 569:HW_Lib/AT32F435/drivers/src/i2c_application.c ****   }
 570:HW_Lib/AT32F435/drivers/src/i2c_application.c **** 
 571:HW_Lib/AT32F435/drivers/src/i2c_application.c ****   /* wait for the stop flag to be set  */
 572:HW_Lib/AT32F435/drivers/src/i2c_application.c ****   if(i2c_wait_flag(hi2c, I2C_STOPF_FLAG, I2C_EVENT_CHECK_ACKFAIL, timeout) != I2C_OK)
 573:HW_Lib/AT32F435/drivers/src/i2c_application.c ****   {
 574:HW_Lib/AT32F435/drivers/src/i2c_application.c ****     return I2C_ERR_STEP_4;
ARM GAS  C:\Users\8bit\AppData\Local\Temp\ccxE8K1A.s 			page 33


 575:HW_Lib/AT32F435/drivers/src/i2c_application.c ****   }
 576:HW_Lib/AT32F435/drivers/src/i2c_application.c **** 
 577:HW_Lib/AT32F435/drivers/src/i2c_application.c ****   /* clear stop flag */
 578:HW_Lib/AT32F435/drivers/src/i2c_application.c ****   i2c_flag_clear(hi2c->i2cx, I2C_STOPF_FLAG);
 579:HW_Lib/AT32F435/drivers/src/i2c_application.c **** 
 580:HW_Lib/AT32F435/drivers/src/i2c_application.c ****   /* reset ctrl2 register */
 581:HW_Lib/AT32F435/drivers/src/i2c_application.c ****   i2c_reset_ctrl2_register(hi2c);
 582:HW_Lib/AT32F435/drivers/src/i2c_application.c **** 
 583:HW_Lib/AT32F435/drivers/src/i2c_application.c ****   return I2C_OK;
 584:HW_Lib/AT32F435/drivers/src/i2c_application.c **** }
 1152              		.loc 1 584 1 view .LVU317
 1153 001e 2846     		mov	r0, r5
 1154 0020 F8BD     		pop	{r3, r4, r5, r6, r7, pc}
 1155              	.LVL103:
 1156              	.L82:
 543:HW_Lib/AT32F435/drivers/src/i2c_application.c **** 
 1157              		.loc 1 543 3 is_stmt 1 view .LVU318
 1158 0022 4FF41052 		mov	r2, #9216
 1159 0026 3146     		mov	r1, r6
 1160 0028 2046     		mov	r0, r4
 1161 002a FFF7FEFF 		bl	i2c_start_transfer
 1162              	.LVL104:
 545:HW_Lib/AT32F435/drivers/src/i2c_application.c ****   {
 1163              		.loc 1 545 3 view .LVU319
 1164              	.L74:
 545:HW_Lib/AT32F435/drivers/src/i2c_application.c ****   {
 1165              		.loc 1 545 9 view .LVU320
 545:HW_Lib/AT32F435/drivers/src/i2c_application.c ****   {
 1166              		.loc 1 545 14 is_stmt 0 view .LVU321
 1167 002e 6389     		ldrh	r3, [r4, #10]
 1168 0030 9BB2     		uxth	r3, r3
 545:HW_Lib/AT32F435/drivers/src/i2c_application.c ****   {
 1169              		.loc 1 545 9 view .LVU322
 1170 0032 002B     		cmp	r3, #0
 1171 0034 2DD0     		beq	.L83
 548:HW_Lib/AT32F435/drivers/src/i2c_application.c ****     {
 1172              		.loc 1 548 5 is_stmt 1 view .LVU323
 548:HW_Lib/AT32F435/drivers/src/i2c_application.c ****     {
 1173              		.loc 1 548 8 is_stmt 0 view .LVU324
 1174 0036 2B46     		mov	r3, r5
 1175 0038 0122     		movs	r2, #1
 1176 003a 0421     		movs	r1, #4
 1177 003c 2046     		mov	r0, r4
 1178 003e FFF7FEFF 		bl	i2c_wait_flag
 1179              	.LVL105:
 548:HW_Lib/AT32F435/drivers/src/i2c_application.c ****     {
 1180              		.loc 1 548 7 view .LVU325
 1181 0042 0028     		cmp	r0, #0
 1182 0044 35D1     		bne	.L78
 554:HW_Lib/AT32F435/drivers/src/i2c_application.c ****     hi2c->pcount--;
 1183              		.loc 1 554 5 is_stmt 1 view .LVU326
 554:HW_Lib/AT32F435/drivers/src/i2c_application.c ****     hi2c->pcount--;
 1184              		.loc 1 554 11 is_stmt 0 view .LVU327
 1185 0046 6768     		ldr	r7, [r4, #4]
 554:HW_Lib/AT32F435/drivers/src/i2c_application.c ****     hi2c->pcount--;
 1186              		.loc 1 554 18 view .LVU328
 1187 0048 7B1C     		adds	r3, r7, #1
ARM GAS  C:\Users\8bit\AppData\Local\Temp\ccxE8K1A.s 			page 34


 1188 004a 6360     		str	r3, [r4, #4]
 554:HW_Lib/AT32F435/drivers/src/i2c_application.c ****     hi2c->pcount--;
 1189              		.loc 1 554 24 view .LVU329
 1190 004c 2068     		ldr	r0, [r4]
 1191 004e FFF7FEFF 		bl	i2c_data_receive
 1192              	.LVL106:
 554:HW_Lib/AT32F435/drivers/src/i2c_application.c ****     hi2c->pcount--;
 1193              		.loc 1 554 22 view .LVU330
 1194 0052 3870     		strb	r0, [r7]
 555:HW_Lib/AT32F435/drivers/src/i2c_application.c ****     hi2c->psize--;
 1195              		.loc 1 555 5 is_stmt 1 view .LVU331
 555:HW_Lib/AT32F435/drivers/src/i2c_application.c ****     hi2c->psize--;
 1196              		.loc 1 555 9 is_stmt 0 view .LVU332
 1197 0054 6389     		ldrh	r3, [r4, #10]
 1198 0056 9BB2     		uxth	r3, r3
 555:HW_Lib/AT32F435/drivers/src/i2c_application.c ****     hi2c->psize--;
 1199              		.loc 1 555 17 view .LVU333
 1200 0058 013B     		subs	r3, r3, #1
 1201 005a 9BB2     		uxth	r3, r3
 1202 005c 6381     		strh	r3, [r4, #10]	@ movhi
 556:HW_Lib/AT32F435/drivers/src/i2c_application.c **** 
 1203              		.loc 1 556 5 is_stmt 1 view .LVU334
 556:HW_Lib/AT32F435/drivers/src/i2c_application.c **** 
 1204              		.loc 1 556 9 is_stmt 0 view .LVU335
 1205 005e 2389     		ldrh	r3, [r4, #8]
 1206 0060 9BB2     		uxth	r3, r3
 556:HW_Lib/AT32F435/drivers/src/i2c_application.c **** 
 1207              		.loc 1 556 16 view .LVU336
 1208 0062 013B     		subs	r3, r3, #1
 1209 0064 9BB2     		uxth	r3, r3
 1210 0066 2381     		strh	r3, [r4, #8]	@ movhi
 558:HW_Lib/AT32F435/drivers/src/i2c_application.c ****     {
 1211              		.loc 1 558 5 is_stmt 1 view .LVU337
 558:HW_Lib/AT32F435/drivers/src/i2c_application.c ****     {
 1212              		.loc 1 558 14 is_stmt 0 view .LVU338
 1213 0068 2389     		ldrh	r3, [r4, #8]
 1214 006a 9BB2     		uxth	r3, r3
 558:HW_Lib/AT32F435/drivers/src/i2c_application.c ****     {
 1215              		.loc 1 558 8 view .LVU339
 1216 006c 002B     		cmp	r3, #0
 1217 006e DED1     		bne	.L74
 558:HW_Lib/AT32F435/drivers/src/i2c_application.c ****     {
 1218              		.loc 1 558 36 discriminator 1 view .LVU340
 1219 0070 6389     		ldrh	r3, [r4, #10]
 1220 0072 9BB2     		uxth	r3, r3
 558:HW_Lib/AT32F435/drivers/src/i2c_application.c ****     {
 1221              		.loc 1 558 28 discriminator 1 view .LVU341
 1222 0074 002B     		cmp	r3, #0
 1223 0076 DAD0     		beq	.L74
 561:HW_Lib/AT32F435/drivers/src/i2c_application.c ****       {
 1224              		.loc 1 561 7 is_stmt 1 view .LVU342
 561:HW_Lib/AT32F435/drivers/src/i2c_application.c ****       {
 1225              		.loc 1 561 11 is_stmt 0 view .LVU343
 1226 0078 2B46     		mov	r3, r5
 1227 007a 0022     		movs	r2, #0
 1228 007c 8021     		movs	r1, #128
 1229 007e 2046     		mov	r0, r4
ARM GAS  C:\Users\8bit\AppData\Local\Temp\ccxE8K1A.s 			page 35


 1230 0080 FFF7FEFF 		bl	i2c_wait_flag
 1231              	.LVL107:
 561:HW_Lib/AT32F435/drivers/src/i2c_application.c ****       {
 1232              		.loc 1 561 10 view .LVU344
 1233 0084 B8B9     		cbnz	r0, .L79
 567:HW_Lib/AT32F435/drivers/src/i2c_application.c ****     }
 1234              		.loc 1 567 7 is_stmt 1 view .LVU345
 1235 0086 0022     		movs	r2, #0
 1236 0088 3146     		mov	r1, r6
 1237 008a 2046     		mov	r0, r4
 1238 008c FFF7FEFF 		bl	i2c_start_transfer
 1239              	.LVL108:
 1240 0090 CDE7     		b	.L74
 1241              	.L83:
 572:HW_Lib/AT32F435/drivers/src/i2c_application.c ****   {
 1242              		.loc 1 572 3 view .LVU346
 572:HW_Lib/AT32F435/drivers/src/i2c_application.c ****   {
 1243              		.loc 1 572 6 is_stmt 0 view .LVU347
 1244 0092 2B46     		mov	r3, r5
 1245 0094 0122     		movs	r2, #1
 1246 0096 2021     		movs	r1, #32
 1247 0098 2046     		mov	r0, r4
 1248 009a FFF7FEFF 		bl	i2c_wait_flag
 1249              	.LVL109:
 572:HW_Lib/AT32F435/drivers/src/i2c_application.c ****   {
 1250              		.loc 1 572 5 view .LVU348
 1251 009e 0546     		mov	r5, r0
 1252 00a0 58B9     		cbnz	r0, .L80
 578:HW_Lib/AT32F435/drivers/src/i2c_application.c **** 
 1253              		.loc 1 578 3 is_stmt 1 view .LVU349
 1254 00a2 2021     		movs	r1, #32
 1255 00a4 2068     		ldr	r0, [r4]
 1256 00a6 FFF7FEFF 		bl	i2c_flag_clear
 1257              	.LVL110:
 581:HW_Lib/AT32F435/drivers/src/i2c_application.c **** 
 1258              		.loc 1 581 3 view .LVU350
 1259 00aa 2046     		mov	r0, r4
 1260 00ac FFF7FEFF 		bl	i2c_reset_ctrl2_register
 1261              	.LVL111:
 583:HW_Lib/AT32F435/drivers/src/i2c_application.c **** }
 1262              		.loc 1 583 3 view .LVU351
 583:HW_Lib/AT32F435/drivers/src/i2c_application.c **** }
 1263              		.loc 1 583 10 is_stmt 0 view .LVU352
 1264 00b0 B5E7     		b	.L73
 1265              	.L78:
 550:HW_Lib/AT32F435/drivers/src/i2c_application.c ****     }
 1266              		.loc 1 550 14 view .LVU353
 1267 00b2 0225     		movs	r5, #2
 1268 00b4 B3E7     		b	.L73
 1269              	.L79:
 563:HW_Lib/AT32F435/drivers/src/i2c_application.c ****       }
 1270              		.loc 1 563 16 view .LVU354
 1271 00b6 0325     		movs	r5, #3
 1272 00b8 B1E7     		b	.L73
 1273              	.L80:
 574:HW_Lib/AT32F435/drivers/src/i2c_application.c ****   }
 1274              		.loc 1 574 12 view .LVU355
ARM GAS  C:\Users\8bit\AppData\Local\Temp\ccxE8K1A.s 			page 36


 1275 00ba 0425     		movs	r5, #4
 1276 00bc AFE7     		b	.L73
 1277              		.cfi_endproc
 1278              	.LFE144:
 1280              		.section	.text.i2c_slave_transmit,"ax",%progbits
 1281              		.align	1
 1282              		.global	i2c_slave_transmit
 1283              		.syntax unified
 1284              		.thumb
 1285              		.thumb_func
 1287              	i2c_slave_transmit:
 1288              	.LVL112:
 1289              	.LFB145:
 585:HW_Lib/AT32F435/drivers/src/i2c_application.c **** 
 586:HW_Lib/AT32F435/drivers/src/i2c_application.c **** /**
 587:HW_Lib/AT32F435/drivers/src/i2c_application.c ****   * @brief  the slave transmits data through polling mode.
 588:HW_Lib/AT32F435/drivers/src/i2c_application.c ****   * @param  hi2c: the handle points to the operation information.
 589:HW_Lib/AT32F435/drivers/src/i2c_application.c ****   * @param  pdata: data buffer.
 590:HW_Lib/AT32F435/drivers/src/i2c_application.c ****   * @param  size: data size.
 591:HW_Lib/AT32F435/drivers/src/i2c_application.c ****   * @param  timeout: maximum waiting time.
 592:HW_Lib/AT32F435/drivers/src/i2c_application.c ****   * @retval i2c status.
 593:HW_Lib/AT32F435/drivers/src/i2c_application.c ****   */
 594:HW_Lib/AT32F435/drivers/src/i2c_application.c **** i2c_status_type i2c_slave_transmit(i2c_handle_type* hi2c, uint8_t* pdata, uint16_t size, uint32_t t
 595:HW_Lib/AT32F435/drivers/src/i2c_application.c **** {
 1290              		.loc 1 595 1 is_stmt 1 view -0
 1291              		.cfi_startproc
 1292              		@ args = 0, pretend = 0, frame = 0
 1293              		@ frame_needed = 0, uses_anonymous_args = 0
 1294              		.loc 1 595 1 is_stmt 0 view .LVU357
 1295 0000 38B5     		push	{r3, r4, r5, lr}
 1296              	.LCFI15:
 1297              		.cfi_def_cfa_offset 16
 1298              		.cfi_offset 3, -16
 1299              		.cfi_offset 4, -12
 1300              		.cfi_offset 5, -8
 1301              		.cfi_offset 14, -4
 1302 0002 0446     		mov	r4, r0
 1303 0004 1D46     		mov	r5, r3
 596:HW_Lib/AT32F435/drivers/src/i2c_application.c ****   /* initialization parameters */
 597:HW_Lib/AT32F435/drivers/src/i2c_application.c ****   hi2c->pbuff = pdata;
 1304              		.loc 1 597 3 is_stmt 1 view .LVU358
 1305              		.loc 1 597 15 is_stmt 0 view .LVU359
 1306 0006 4160     		str	r1, [r0, #4]
 598:HW_Lib/AT32F435/drivers/src/i2c_application.c ****   hi2c->pcount = size;
 1307              		.loc 1 598 3 is_stmt 1 view .LVU360
 1308              		.loc 1 598 16 is_stmt 0 view .LVU361
 1309 0008 4281     		strh	r2, [r0, #10]	@ movhi
 599:HW_Lib/AT32F435/drivers/src/i2c_application.c **** 
 600:HW_Lib/AT32F435/drivers/src/i2c_application.c ****   hi2c->error_code = I2C_OK;
 1310              		.loc 1 600 3 is_stmt 1 view .LVU362
 1311              		.loc 1 600 20 is_stmt 0 view .LVU363
 1312 000a 0022     		movs	r2, #0
 1313              	.LVL113:
 1314              		.loc 1 600 20 view .LVU364
 1315 000c 0275     		strb	r2, [r0, #20]
 1316              	.LVL114:
 601:HW_Lib/AT32F435/drivers/src/i2c_application.c **** 
ARM GAS  C:\Users\8bit\AppData\Local\Temp\ccxE8K1A.s 			page 37


 602:HW_Lib/AT32F435/drivers/src/i2c_application.c ****   /* wait for the busy flag to be reset */
 603:HW_Lib/AT32F435/drivers/src/i2c_application.c ****   if(i2c_wait_flag(hi2c, I2C_BUSYF_FLAG, I2C_EVENT_CHECK_NONE, timeout) != I2C_OK)
 1317              		.loc 1 603 3 is_stmt 1 view .LVU365
 1318              		.loc 1 603 6 is_stmt 0 view .LVU366
 1319 000e 4FF40041 		mov	r1, #32768
 1320              	.LVL115:
 1321              		.loc 1 603 6 view .LVU367
 1322 0012 FFF7FEFF 		bl	i2c_wait_flag
 1323              	.LVL116:
 1324              		.loc 1 603 5 view .LVU368
 1325 0016 10B1     		cbz	r0, .L97
 604:HW_Lib/AT32F435/drivers/src/i2c_application.c ****   {
 605:HW_Lib/AT32F435/drivers/src/i2c_application.c ****     return I2C_ERR_STEP_1;
 1326              		.loc 1 605 12 view .LVU369
 1327 0018 0125     		movs	r5, #1
 1328              	.LVL117:
 1329              	.L85:
 606:HW_Lib/AT32F435/drivers/src/i2c_application.c ****   }
 607:HW_Lib/AT32F435/drivers/src/i2c_application.c **** 
 608:HW_Lib/AT32F435/drivers/src/i2c_application.c ****   /* enable acknowledge */
 609:HW_Lib/AT32F435/drivers/src/i2c_application.c ****   i2c_ack_enable(hi2c->i2cx, TRUE);
 610:HW_Lib/AT32F435/drivers/src/i2c_application.c **** 
 611:HW_Lib/AT32F435/drivers/src/i2c_application.c ****   /* wait for the addr flag to be set */
 612:HW_Lib/AT32F435/drivers/src/i2c_application.c ****   if (i2c_wait_flag(hi2c, I2C_ADDRF_FLAG, I2C_EVENT_CHECK_NONE, timeout) != I2C_OK)
 613:HW_Lib/AT32F435/drivers/src/i2c_application.c ****   {
 614:HW_Lib/AT32F435/drivers/src/i2c_application.c ****     /* disable acknowledge */
 615:HW_Lib/AT32F435/drivers/src/i2c_application.c ****     i2c_ack_enable(hi2c->i2cx, FALSE);
 616:HW_Lib/AT32F435/drivers/src/i2c_application.c ****     return I2C_ERR_STEP_2;
 617:HW_Lib/AT32F435/drivers/src/i2c_application.c ****   }
 618:HW_Lib/AT32F435/drivers/src/i2c_application.c **** 
 619:HW_Lib/AT32F435/drivers/src/i2c_application.c ****   /* clear addr flag */
 620:HW_Lib/AT32F435/drivers/src/i2c_application.c ****   i2c_flag_clear(hi2c->i2cx, I2C_ADDRF_FLAG);
 621:HW_Lib/AT32F435/drivers/src/i2c_application.c **** 
 622:HW_Lib/AT32F435/drivers/src/i2c_application.c ****   /* if 10-bit address mode is used */
 623:HW_Lib/AT32F435/drivers/src/i2c_application.c ****   if (hi2c->i2cx->ctrl2_bit.addr10 != RESET)
 624:HW_Lib/AT32F435/drivers/src/i2c_application.c ****   {
 625:HW_Lib/AT32F435/drivers/src/i2c_application.c ****     /* wait for the addr flag to be set */
 626:HW_Lib/AT32F435/drivers/src/i2c_application.c ****     if (i2c_wait_flag(hi2c, I2C_ADDRF_FLAG, I2C_EVENT_CHECK_NONE, timeout) != I2C_OK)
 627:HW_Lib/AT32F435/drivers/src/i2c_application.c ****     {
 628:HW_Lib/AT32F435/drivers/src/i2c_application.c ****       /* disable acknowledge */
 629:HW_Lib/AT32F435/drivers/src/i2c_application.c ****       i2c_ack_enable(hi2c->i2cx, FALSE);
 630:HW_Lib/AT32F435/drivers/src/i2c_application.c **** 
 631:HW_Lib/AT32F435/drivers/src/i2c_application.c ****       return I2C_ERR_STEP_3;
 632:HW_Lib/AT32F435/drivers/src/i2c_application.c ****     }
 633:HW_Lib/AT32F435/drivers/src/i2c_application.c **** 
 634:HW_Lib/AT32F435/drivers/src/i2c_application.c ****     /* clear addr flag */
 635:HW_Lib/AT32F435/drivers/src/i2c_application.c ****     i2c_flag_clear(hi2c->i2cx, I2C_ADDRF_FLAG);
 636:HW_Lib/AT32F435/drivers/src/i2c_application.c ****   }
 637:HW_Lib/AT32F435/drivers/src/i2c_application.c **** 
 638:HW_Lib/AT32F435/drivers/src/i2c_application.c ****   while (hi2c->pcount > 0)
 639:HW_Lib/AT32F435/drivers/src/i2c_application.c ****   {
 640:HW_Lib/AT32F435/drivers/src/i2c_application.c ****     /* wait for the tdis flag to be set */
 641:HW_Lib/AT32F435/drivers/src/i2c_application.c ****     if(i2c_wait_flag(hi2c, I2C_TDIS_FLAG, I2C_EVENT_CHECK_ACKFAIL, timeout) != I2C_OK)
 642:HW_Lib/AT32F435/drivers/src/i2c_application.c ****     {
 643:HW_Lib/AT32F435/drivers/src/i2c_application.c ****       /* disable acknowledge */
 644:HW_Lib/AT32F435/drivers/src/i2c_application.c ****       i2c_ack_enable(hi2c->i2cx, FALSE);
 645:HW_Lib/AT32F435/drivers/src/i2c_application.c **** 
ARM GAS  C:\Users\8bit\AppData\Local\Temp\ccxE8K1A.s 			page 38


 646:HW_Lib/AT32F435/drivers/src/i2c_application.c ****       return I2C_ERR_STEP_5;
 647:HW_Lib/AT32F435/drivers/src/i2c_application.c ****     }
 648:HW_Lib/AT32F435/drivers/src/i2c_application.c **** 
 649:HW_Lib/AT32F435/drivers/src/i2c_application.c ****     /* send data */
 650:HW_Lib/AT32F435/drivers/src/i2c_application.c ****     i2c_data_send(hi2c->i2cx, *hi2c->pbuff++);
 651:HW_Lib/AT32F435/drivers/src/i2c_application.c ****     hi2c->pcount--;
 652:HW_Lib/AT32F435/drivers/src/i2c_application.c ****   }
 653:HW_Lib/AT32F435/drivers/src/i2c_application.c **** 
 654:HW_Lib/AT32F435/drivers/src/i2c_application.c ****   /* wait for the ackfail flag to be set */
 655:HW_Lib/AT32F435/drivers/src/i2c_application.c ****   if(i2c_wait_flag(hi2c, I2C_ACKFAIL_FLAG, I2C_EVENT_CHECK_NONE, timeout) != I2C_OK)
 656:HW_Lib/AT32F435/drivers/src/i2c_application.c ****   {
 657:HW_Lib/AT32F435/drivers/src/i2c_application.c ****     return I2C_ERR_STEP_6;
 658:HW_Lib/AT32F435/drivers/src/i2c_application.c ****   }
 659:HW_Lib/AT32F435/drivers/src/i2c_application.c **** 
 660:HW_Lib/AT32F435/drivers/src/i2c_application.c ****   /* clear ack fail flag */
 661:HW_Lib/AT32F435/drivers/src/i2c_application.c ****   i2c_flag_clear(hi2c->i2cx, I2C_ACKFAIL_FLAG);
 662:HW_Lib/AT32F435/drivers/src/i2c_application.c **** 
 663:HW_Lib/AT32F435/drivers/src/i2c_application.c ****   /* wait for the stop flag to be set */
 664:HW_Lib/AT32F435/drivers/src/i2c_application.c ****   if(i2c_wait_flag(hi2c, I2C_STOPF_FLAG, I2C_EVENT_CHECK_NONE, timeout) != I2C_OK)
 665:HW_Lib/AT32F435/drivers/src/i2c_application.c ****   {
 666:HW_Lib/AT32F435/drivers/src/i2c_application.c ****     /* disable acknowledge */
 667:HW_Lib/AT32F435/drivers/src/i2c_application.c ****     i2c_ack_enable(hi2c->i2cx, FALSE);
 668:HW_Lib/AT32F435/drivers/src/i2c_application.c **** 
 669:HW_Lib/AT32F435/drivers/src/i2c_application.c ****     return I2C_ERR_STEP_7;
 670:HW_Lib/AT32F435/drivers/src/i2c_application.c ****   }
 671:HW_Lib/AT32F435/drivers/src/i2c_application.c **** 
 672:HW_Lib/AT32F435/drivers/src/i2c_application.c ****   /* clear stop flag */
 673:HW_Lib/AT32F435/drivers/src/i2c_application.c ****   i2c_flag_clear(hi2c->i2cx, I2C_STOPF_FLAG);
 674:HW_Lib/AT32F435/drivers/src/i2c_application.c **** 
 675:HW_Lib/AT32F435/drivers/src/i2c_application.c ****   /* wait for the busy flag to be reset */
 676:HW_Lib/AT32F435/drivers/src/i2c_application.c ****   if (i2c_wait_flag(hi2c, I2C_BUSYF_FLAG, I2C_EVENT_CHECK_NONE, timeout) != I2C_OK)
 677:HW_Lib/AT32F435/drivers/src/i2c_application.c ****   {
 678:HW_Lib/AT32F435/drivers/src/i2c_application.c ****     /* disable acknowledge */
 679:HW_Lib/AT32F435/drivers/src/i2c_application.c ****     i2c_ack_enable(hi2c->i2cx, FALSE);
 680:HW_Lib/AT32F435/drivers/src/i2c_application.c **** 
 681:HW_Lib/AT32F435/drivers/src/i2c_application.c ****     return I2C_ERR_STEP_8;
 682:HW_Lib/AT32F435/drivers/src/i2c_application.c ****   }
 683:HW_Lib/AT32F435/drivers/src/i2c_application.c **** 
 684:HW_Lib/AT32F435/drivers/src/i2c_application.c ****   /* refresh tx dt register */
 685:HW_Lib/AT32F435/drivers/src/i2c_application.c ****   i2c_refresh_txdt_register(hi2c);
 686:HW_Lib/AT32F435/drivers/src/i2c_application.c **** 
 687:HW_Lib/AT32F435/drivers/src/i2c_application.c ****   return I2C_OK;
 688:HW_Lib/AT32F435/drivers/src/i2c_application.c **** }
 1330              		.loc 1 688 1 view .LVU370
 1331 001a 2846     		mov	r0, r5
 1332 001c 38BD     		pop	{r3, r4, r5, pc}
 1333              	.LVL118:
 1334              	.L97:
 609:HW_Lib/AT32F435/drivers/src/i2c_application.c **** 
 1335              		.loc 1 609 3 is_stmt 1 view .LVU371
 1336 001e 0121     		movs	r1, #1
 1337 0020 2068     		ldr	r0, [r4]
 1338 0022 FFF7FEFF 		bl	i2c_ack_enable
 1339              	.LVL119:
 612:HW_Lib/AT32F435/drivers/src/i2c_application.c ****   {
 1340              		.loc 1 612 3 view .LVU372
 612:HW_Lib/AT32F435/drivers/src/i2c_application.c ****   {
ARM GAS  C:\Users\8bit\AppData\Local\Temp\ccxE8K1A.s 			page 39


 1341              		.loc 1 612 7 is_stmt 0 view .LVU373
 1342 0026 2B46     		mov	r3, r5
 1343 0028 0022     		movs	r2, #0
 1344 002a 0821     		movs	r1, #8
 1345 002c 2046     		mov	r0, r4
 1346 002e FFF7FEFF 		bl	i2c_wait_flag
 1347              	.LVL120:
 612:HW_Lib/AT32F435/drivers/src/i2c_application.c ****   {
 1348              		.loc 1 612 6 view .LVU374
 1349 0032 F8B9     		cbnz	r0, .L98
 620:HW_Lib/AT32F435/drivers/src/i2c_application.c **** 
 1350              		.loc 1 620 3 is_stmt 1 view .LVU375
 1351 0034 0821     		movs	r1, #8
 1352 0036 2068     		ldr	r0, [r4]
 1353 0038 FFF7FEFF 		bl	i2c_flag_clear
 1354              	.LVL121:
 623:HW_Lib/AT32F435/drivers/src/i2c_application.c ****   {
 1355              		.loc 1 623 3 view .LVU376
 623:HW_Lib/AT32F435/drivers/src/i2c_application.c ****   {
 1356              		.loc 1 623 11 is_stmt 0 view .LVU377
 1357 003c 2368     		ldr	r3, [r4]
 623:HW_Lib/AT32F435/drivers/src/i2c_application.c ****   {
 1358              		.loc 1 623 28 view .LVU378
 1359 003e 5B68     		ldr	r3, [r3, #4]
 623:HW_Lib/AT32F435/drivers/src/i2c_application.c ****   {
 1360              		.loc 1 623 6 view .LVU379
 1361 0040 13F4006F 		tst	r3, #2048
 1362 0044 1CD1     		bne	.L99
 1363              	.L89:
 638:HW_Lib/AT32F435/drivers/src/i2c_application.c ****   {
 1364              		.loc 1 638 9 is_stmt 1 view .LVU380
 638:HW_Lib/AT32F435/drivers/src/i2c_application.c ****   {
 1365              		.loc 1 638 14 is_stmt 0 view .LVU381
 1366 0046 6289     		ldrh	r2, [r4, #10]
 1367 0048 92B2     		uxth	r2, r2
 638:HW_Lib/AT32F435/drivers/src/i2c_application.c ****   {
 1368              		.loc 1 638 9 view .LVU382
 1369 004a 8AB3     		cbz	r2, .L100
 641:HW_Lib/AT32F435/drivers/src/i2c_application.c ****     {
 1370              		.loc 1 641 5 is_stmt 1 view .LVU383
 641:HW_Lib/AT32F435/drivers/src/i2c_application.c ****     {
 1371              		.loc 1 641 8 is_stmt 0 view .LVU384
 1372 004c 2B46     		mov	r3, r5
 1373 004e 0122     		movs	r2, #1
 1374 0050 0221     		movs	r1, #2
 1375 0052 2046     		mov	r0, r4
 1376 0054 FFF7FEFF 		bl	i2c_wait_flag
 1377              	.LVL122:
 641:HW_Lib/AT32F435/drivers/src/i2c_application.c ****     {
 1378              		.loc 1 641 7 view .LVU385
 1379 0058 20BB     		cbnz	r0, .L101
 650:HW_Lib/AT32F435/drivers/src/i2c_application.c ****     hi2c->pcount--;
 1380              		.loc 1 650 5 is_stmt 1 view .LVU386
 650:HW_Lib/AT32F435/drivers/src/i2c_application.c ****     hi2c->pcount--;
 1381              		.loc 1 650 36 is_stmt 0 view .LVU387
 1382 005a 6368     		ldr	r3, [r4, #4]
 650:HW_Lib/AT32F435/drivers/src/i2c_application.c ****     hi2c->pcount--;
ARM GAS  C:\Users\8bit\AppData\Local\Temp\ccxE8K1A.s 			page 40


 1383              		.loc 1 650 43 view .LVU388
 1384 005c 5A1C     		adds	r2, r3, #1
 1385 005e 6260     		str	r2, [r4, #4]
 650:HW_Lib/AT32F435/drivers/src/i2c_application.c ****     hi2c->pcount--;
 1386              		.loc 1 650 5 view .LVU389
 1387 0060 1978     		ldrb	r1, [r3]	@ zero_extendqisi2
 1388 0062 2068     		ldr	r0, [r4]
 1389 0064 FFF7FEFF 		bl	i2c_data_send
 1390              	.LVL123:
 651:HW_Lib/AT32F435/drivers/src/i2c_application.c ****   }
 1391              		.loc 1 651 5 is_stmt 1 view .LVU390
 651:HW_Lib/AT32F435/drivers/src/i2c_application.c ****   }
 1392              		.loc 1 651 9 is_stmt 0 view .LVU391
 1393 0068 6289     		ldrh	r2, [r4, #10]
 1394 006a 92B2     		uxth	r2, r2
 651:HW_Lib/AT32F435/drivers/src/i2c_application.c ****   }
 1395              		.loc 1 651 17 view .LVU392
 1396 006c 013A     		subs	r2, r2, #1
 1397 006e 92B2     		uxth	r2, r2
 1398 0070 6281     		strh	r2, [r4, #10]	@ movhi
 1399 0072 E8E7     		b	.L89
 1400              	.L98:
 615:HW_Lib/AT32F435/drivers/src/i2c_application.c ****     return I2C_ERR_STEP_2;
 1401              		.loc 1 615 5 is_stmt 1 view .LVU393
 1402 0074 0021     		movs	r1, #0
 1403 0076 2068     		ldr	r0, [r4]
 1404 0078 FFF7FEFF 		bl	i2c_ack_enable
 1405              	.LVL124:
 616:HW_Lib/AT32F435/drivers/src/i2c_application.c ****   }
 1406              		.loc 1 616 5 view .LVU394
 616:HW_Lib/AT32F435/drivers/src/i2c_application.c ****   }
 1407              		.loc 1 616 12 is_stmt 0 view .LVU395
 1408 007c 0225     		movs	r5, #2
 1409              	.LVL125:
 616:HW_Lib/AT32F435/drivers/src/i2c_application.c ****   }
 1410              		.loc 1 616 12 view .LVU396
 1411 007e CCE7     		b	.L85
 1412              	.LVL126:
 1413              	.L99:
 626:HW_Lib/AT32F435/drivers/src/i2c_application.c ****     {
 1414              		.loc 1 626 5 is_stmt 1 view .LVU397
 626:HW_Lib/AT32F435/drivers/src/i2c_application.c ****     {
 1415              		.loc 1 626 9 is_stmt 0 view .LVU398
 1416 0080 2B46     		mov	r3, r5
 1417 0082 0022     		movs	r2, #0
 1418 0084 0821     		movs	r1, #8
 1419 0086 2046     		mov	r0, r4
 1420 0088 FFF7FEFF 		bl	i2c_wait_flag
 1421              	.LVL127:
 626:HW_Lib/AT32F435/drivers/src/i2c_application.c ****     {
 1422              		.loc 1 626 8 view .LVU399
 1423 008c 20B9     		cbnz	r0, .L102
 635:HW_Lib/AT32F435/drivers/src/i2c_application.c ****   }
 1424              		.loc 1 635 5 is_stmt 1 view .LVU400
 1425 008e 0821     		movs	r1, #8
 1426 0090 2068     		ldr	r0, [r4]
 1427 0092 FFF7FEFF 		bl	i2c_flag_clear
ARM GAS  C:\Users\8bit\AppData\Local\Temp\ccxE8K1A.s 			page 41


 1428              	.LVL128:
 1429 0096 D6E7     		b	.L89
 1430              	.L102:
 629:HW_Lib/AT32F435/drivers/src/i2c_application.c **** 
 1431              		.loc 1 629 7 view .LVU401
 1432 0098 0021     		movs	r1, #0
 1433 009a 2068     		ldr	r0, [r4]
 1434 009c FFF7FEFF 		bl	i2c_ack_enable
 1435              	.LVL129:
 631:HW_Lib/AT32F435/drivers/src/i2c_application.c ****     }
 1436              		.loc 1 631 7 view .LVU402
 631:HW_Lib/AT32F435/drivers/src/i2c_application.c ****     }
 1437              		.loc 1 631 14 is_stmt 0 view .LVU403
 1438 00a0 0325     		movs	r5, #3
 1439              	.LVL130:
 631:HW_Lib/AT32F435/drivers/src/i2c_application.c ****     }
 1440              		.loc 1 631 14 view .LVU404
 1441 00a2 BAE7     		b	.L85
 1442              	.LVL131:
 1443              	.L101:
 644:HW_Lib/AT32F435/drivers/src/i2c_application.c **** 
 1444              		.loc 1 644 7 is_stmt 1 view .LVU405
 1445 00a4 0021     		movs	r1, #0
 1446 00a6 2068     		ldr	r0, [r4]
 1447 00a8 FFF7FEFF 		bl	i2c_ack_enable
 1448              	.LVL132:
 646:HW_Lib/AT32F435/drivers/src/i2c_application.c ****     }
 1449              		.loc 1 646 7 view .LVU406
 646:HW_Lib/AT32F435/drivers/src/i2c_application.c ****     }
 1450              		.loc 1 646 14 is_stmt 0 view .LVU407
 1451 00ac 0525     		movs	r5, #5
 1452              	.LVL133:
 646:HW_Lib/AT32F435/drivers/src/i2c_application.c ****     }
 1453              		.loc 1 646 14 view .LVU408
 1454 00ae B4E7     		b	.L85
 1455              	.LVL134:
 1456              	.L100:
 655:HW_Lib/AT32F435/drivers/src/i2c_application.c ****   {
 1457              		.loc 1 655 3 is_stmt 1 view .LVU409
 655:HW_Lib/AT32F435/drivers/src/i2c_application.c ****   {
 1458              		.loc 1 655 6 is_stmt 0 view .LVU410
 1459 00b0 2B46     		mov	r3, r5
 1460 00b2 1021     		movs	r1, #16
 1461 00b4 2046     		mov	r0, r4
 1462 00b6 FFF7FEFF 		bl	i2c_wait_flag
 1463              	.LVL135:
 655:HW_Lib/AT32F435/drivers/src/i2c_application.c ****   {
 1464              		.loc 1 655 5 view .LVU411
 1465 00ba 38BB     		cbnz	r0, .L95
 661:HW_Lib/AT32F435/drivers/src/i2c_application.c **** 
 1466              		.loc 1 661 3 is_stmt 1 view .LVU412
 1467 00bc 1021     		movs	r1, #16
 1468 00be 2068     		ldr	r0, [r4]
 1469 00c0 FFF7FEFF 		bl	i2c_flag_clear
 1470              	.LVL136:
 664:HW_Lib/AT32F435/drivers/src/i2c_application.c ****   {
 1471              		.loc 1 664 3 view .LVU413
ARM GAS  C:\Users\8bit\AppData\Local\Temp\ccxE8K1A.s 			page 42


 664:HW_Lib/AT32F435/drivers/src/i2c_application.c ****   {
 1472              		.loc 1 664 6 is_stmt 0 view .LVU414
 1473 00c4 2B46     		mov	r3, r5
 1474 00c6 0022     		movs	r2, #0
 1475 00c8 2021     		movs	r1, #32
 1476 00ca 2046     		mov	r0, r4
 1477 00cc FFF7FEFF 		bl	i2c_wait_flag
 1478              	.LVL137:
 664:HW_Lib/AT32F435/drivers/src/i2c_application.c ****   {
 1479              		.loc 1 664 5 view .LVU415
 1480 00d0 80B9     		cbnz	r0, .L103
 673:HW_Lib/AT32F435/drivers/src/i2c_application.c **** 
 1481              		.loc 1 673 3 is_stmt 1 view .LVU416
 1482 00d2 2021     		movs	r1, #32
 1483 00d4 2068     		ldr	r0, [r4]
 1484 00d6 FFF7FEFF 		bl	i2c_flag_clear
 1485              	.LVL138:
 676:HW_Lib/AT32F435/drivers/src/i2c_application.c ****   {
 1486              		.loc 1 676 3 view .LVU417
 676:HW_Lib/AT32F435/drivers/src/i2c_application.c ****   {
 1487              		.loc 1 676 7 is_stmt 0 view .LVU418
 1488 00da 2B46     		mov	r3, r5
 1489 00dc 0022     		movs	r2, #0
 1490 00de 4FF40041 		mov	r1, #32768
 1491 00e2 2046     		mov	r0, r4
 1492 00e4 FFF7FEFF 		bl	i2c_wait_flag
 1493              	.LVL139:
 676:HW_Lib/AT32F435/drivers/src/i2c_application.c ****   {
 1494              		.loc 1 676 6 view .LVU419
 1495 00e8 0546     		mov	r5, r0
 1496              	.LVL140:
 676:HW_Lib/AT32F435/drivers/src/i2c_application.c ****   {
 1497              		.loc 1 676 6 view .LVU420
 1498 00ea 48B9     		cbnz	r0, .L104
 685:HW_Lib/AT32F435/drivers/src/i2c_application.c **** 
 1499              		.loc 1 685 3 is_stmt 1 view .LVU421
 1500 00ec 2046     		mov	r0, r4
 1501 00ee FFF7FEFF 		bl	i2c_refresh_txdt_register
 1502              	.LVL141:
 687:HW_Lib/AT32F435/drivers/src/i2c_application.c **** }
 1503              		.loc 1 687 3 view .LVU422
 687:HW_Lib/AT32F435/drivers/src/i2c_application.c **** }
 1504              		.loc 1 687 10 is_stmt 0 view .LVU423
 1505 00f2 92E7     		b	.L85
 1506              	.LVL142:
 1507              	.L103:
 667:HW_Lib/AT32F435/drivers/src/i2c_application.c **** 
 1508              		.loc 1 667 5 is_stmt 1 view .LVU424
 1509 00f4 0021     		movs	r1, #0
 1510 00f6 2068     		ldr	r0, [r4]
 1511 00f8 FFF7FEFF 		bl	i2c_ack_enable
 1512              	.LVL143:
 669:HW_Lib/AT32F435/drivers/src/i2c_application.c ****   }
 1513              		.loc 1 669 5 view .LVU425
 669:HW_Lib/AT32F435/drivers/src/i2c_application.c ****   }
 1514              		.loc 1 669 12 is_stmt 0 view .LVU426
 1515 00fc 0725     		movs	r5, #7
ARM GAS  C:\Users\8bit\AppData\Local\Temp\ccxE8K1A.s 			page 43


 1516              	.LVL144:
 669:HW_Lib/AT32F435/drivers/src/i2c_application.c ****   }
 1517              		.loc 1 669 12 view .LVU427
 1518 00fe 8CE7     		b	.L85
 1519              	.L104:
 679:HW_Lib/AT32F435/drivers/src/i2c_application.c **** 
 1520              		.loc 1 679 5 is_stmt 1 view .LVU428
 1521 0100 0021     		movs	r1, #0
 1522 0102 2068     		ldr	r0, [r4]
 1523 0104 FFF7FEFF 		bl	i2c_ack_enable
 1524              	.LVL145:
 681:HW_Lib/AT32F435/drivers/src/i2c_application.c ****   }
 1525              		.loc 1 681 5 view .LVU429
 681:HW_Lib/AT32F435/drivers/src/i2c_application.c ****   }
 1526              		.loc 1 681 12 is_stmt 0 view .LVU430
 1527 0108 0825     		movs	r5, #8
 1528 010a 86E7     		b	.L85
 1529              	.LVL146:
 1530              	.L95:
 657:HW_Lib/AT32F435/drivers/src/i2c_application.c ****   }
 1531              		.loc 1 657 12 view .LVU431
 1532 010c 0625     		movs	r5, #6
 1533              	.LVL147:
 657:HW_Lib/AT32F435/drivers/src/i2c_application.c ****   }
 1534              		.loc 1 657 12 view .LVU432
 1535 010e 84E7     		b	.L85
 1536              		.cfi_endproc
 1537              	.LFE145:
 1539              		.section	.text.i2c_master_transmit_int,"ax",%progbits
 1540              		.align	1
 1541              		.global	i2c_master_transmit_int
 1542              		.syntax unified
 1543              		.thumb
 1544              		.thumb_func
 1546              	i2c_master_transmit_int:
 1547              	.LVL148:
 1548              	.LFB146:
 689:HW_Lib/AT32F435/drivers/src/i2c_application.c **** 
 690:HW_Lib/AT32F435/drivers/src/i2c_application.c **** /**
 691:HW_Lib/AT32F435/drivers/src/i2c_application.c ****   * @brief  the master transmits data through interrupt mode.
 692:HW_Lib/AT32F435/drivers/src/i2c_application.c ****   * @param  hi2c: the handle points to the operation information.
 693:HW_Lib/AT32F435/drivers/src/i2c_application.c ****   * @param  address: slave address.
 694:HW_Lib/AT32F435/drivers/src/i2c_application.c ****   * @param  pdata: data buffer.
 695:HW_Lib/AT32F435/drivers/src/i2c_application.c ****   * @param  size: data size.
 696:HW_Lib/AT32F435/drivers/src/i2c_application.c ****   * @param  timeout: maximum waiting time.
 697:HW_Lib/AT32F435/drivers/src/i2c_application.c ****   * @retval i2c status.
 698:HW_Lib/AT32F435/drivers/src/i2c_application.c ****   */
 699:HW_Lib/AT32F435/drivers/src/i2c_application.c **** i2c_status_type i2c_master_transmit_int(i2c_handle_type* hi2c, uint16_t address, uint8_t* pdata, ui
 700:HW_Lib/AT32F435/drivers/src/i2c_application.c **** {
 1549              		.loc 1 700 1 is_stmt 1 view -0
 1550              		.cfi_startproc
 1551              		@ args = 4, pretend = 0, frame = 0
 1552              		@ frame_needed = 0, uses_anonymous_args = 0
 1553              		.loc 1 700 1 is_stmt 0 view .LVU434
 1554 0000 70B5     		push	{r4, r5, r6, lr}
 1555              	.LCFI16:
 1556              		.cfi_def_cfa_offset 16
ARM GAS  C:\Users\8bit\AppData\Local\Temp\ccxE8K1A.s 			page 44


 1557              		.cfi_offset 4, -16
 1558              		.cfi_offset 5, -12
 1559              		.cfi_offset 6, -8
 1560              		.cfi_offset 14, -4
 1561 0002 0446     		mov	r4, r0
 1562 0004 0D46     		mov	r5, r1
 1563 0006 1146     		mov	r1, r2
 1564              	.LVL149:
 701:HW_Lib/AT32F435/drivers/src/i2c_application.c ****   /* initialization parameters */
 702:HW_Lib/AT32F435/drivers/src/i2c_application.c ****   hi2c->mode   = I2C_INT_MA_TX;
 1565              		.loc 1 702 3 is_stmt 1 view .LVU435
 1566              		.loc 1 702 16 is_stmt 0 view .LVU436
 1567 0008 0022     		movs	r2, #0
 1568              	.LVL150:
 1569              		.loc 1 702 16 view .LVU437
 1570 000a C260     		str	r2, [r0, #12]
 703:HW_Lib/AT32F435/drivers/src/i2c_application.c ****   hi2c->status = I2C_START;
 1571              		.loc 1 703 3 is_stmt 1 view .LVU438
 1572              		.loc 1 703 16 is_stmt 0 view .LVU439
 1573 000c 0261     		str	r2, [r0, #16]
 704:HW_Lib/AT32F435/drivers/src/i2c_application.c **** 
 705:HW_Lib/AT32F435/drivers/src/i2c_application.c ****   hi2c->pbuff  = pdata;
 1574              		.loc 1 705 3 is_stmt 1 view .LVU440
 1575              		.loc 1 705 16 is_stmt 0 view .LVU441
 1576 000e 4160     		str	r1, [r0, #4]
 706:HW_Lib/AT32F435/drivers/src/i2c_application.c ****   hi2c->pcount = size;
 1577              		.loc 1 706 3 is_stmt 1 view .LVU442
 1578              		.loc 1 706 16 is_stmt 0 view .LVU443
 1579 0010 4381     		strh	r3, [r0, #10]	@ movhi
 707:HW_Lib/AT32F435/drivers/src/i2c_application.c **** 
 708:HW_Lib/AT32F435/drivers/src/i2c_application.c ****   hi2c->error_code = I2C_OK;
 1580              		.loc 1 708 3 is_stmt 1 view .LVU444
 1581              		.loc 1 708 20 is_stmt 0 view .LVU445
 1582 0012 0275     		strb	r2, [r0, #20]
 709:HW_Lib/AT32F435/drivers/src/i2c_application.c **** 
 710:HW_Lib/AT32F435/drivers/src/i2c_application.c ****   /* wait for the busy flag to be reset */
 711:HW_Lib/AT32F435/drivers/src/i2c_application.c ****   if (i2c_wait_flag(hi2c, I2C_BUSYF_FLAG, I2C_EVENT_CHECK_NONE, timeout) != I2C_OK)
 1583              		.loc 1 711 3 is_stmt 1 view .LVU446
 1584              		.loc 1 711 7 is_stmt 0 view .LVU447
 1585 0014 049B     		ldr	r3, [sp, #16]
 1586              	.LVL151:
 1587              		.loc 1 711 7 view .LVU448
 1588 0016 4FF40041 		mov	r1, #32768
 1589              	.LVL152:
 1590              		.loc 1 711 7 view .LVU449
 1591 001a FFF7FEFF 		bl	i2c_wait_flag
 1592              	.LVL153:
 1593              		.loc 1 711 6 view .LVU450
 1594 001e 10B1     		cbz	r0, .L109
 712:HW_Lib/AT32F435/drivers/src/i2c_application.c ****   {
 713:HW_Lib/AT32F435/drivers/src/i2c_application.c ****     return I2C_ERR_STEP_1;
 1595              		.loc 1 713 12 view .LVU451
 1596 0020 0126     		movs	r6, #1
 1597              	.L106:
 714:HW_Lib/AT32F435/drivers/src/i2c_application.c ****   }
 715:HW_Lib/AT32F435/drivers/src/i2c_application.c **** 
 716:HW_Lib/AT32F435/drivers/src/i2c_application.c ****   /* start transfer */
ARM GAS  C:\Users\8bit\AppData\Local\Temp\ccxE8K1A.s 			page 45


 717:HW_Lib/AT32F435/drivers/src/i2c_application.c ****   i2c_start_transfer(hi2c, address, I2C_GEN_START_WRITE);
 718:HW_Lib/AT32F435/drivers/src/i2c_application.c **** 
 719:HW_Lib/AT32F435/drivers/src/i2c_application.c ****   /* enable interrupt */
 720:HW_Lib/AT32F435/drivers/src/i2c_application.c ****   i2c_interrupt_enable(hi2c->i2cx, I2C_ERR_INT | I2C_TDC_INT | I2C_STOP_INT | I2C_ACKFIAL_INT | I2C
 721:HW_Lib/AT32F435/drivers/src/i2c_application.c **** 
 722:HW_Lib/AT32F435/drivers/src/i2c_application.c ****   return I2C_OK;
 723:HW_Lib/AT32F435/drivers/src/i2c_application.c **** }
 1598              		.loc 1 723 1 view .LVU452
 1599 0022 3046     		mov	r0, r6
 1600 0024 70BD     		pop	{r4, r5, r6, pc}
 1601              	.LVL154:
 1602              	.L109:
 1603              		.loc 1 723 1 view .LVU453
 1604 0026 0646     		mov	r6, r0
 717:HW_Lib/AT32F435/drivers/src/i2c_application.c **** 
 1605              		.loc 1 717 3 is_stmt 1 view .LVU454
 1606 0028 4FF40052 		mov	r2, #8192
 1607 002c 2946     		mov	r1, r5
 1608 002e 2046     		mov	r0, r4
 1609 0030 FFF7FEFF 		bl	i2c_start_transfer
 1610              	.LVL155:
 720:HW_Lib/AT32F435/drivers/src/i2c_application.c **** 
 1611              		.loc 1 720 3 view .LVU455
 1612 0034 0122     		movs	r2, #1
 1613 0036 F221     		movs	r1, #242
 1614 0038 2068     		ldr	r0, [r4]
 1615 003a FFF7FEFF 		bl	i2c_interrupt_enable
 1616              	.LVL156:
 722:HW_Lib/AT32F435/drivers/src/i2c_application.c **** }
 1617              		.loc 1 722 3 view .LVU456
 722:HW_Lib/AT32F435/drivers/src/i2c_application.c **** }
 1618              		.loc 1 722 10 is_stmt 0 view .LVU457
 1619 003e F0E7     		b	.L106
 1620              		.cfi_endproc
 1621              	.LFE146:
 1623              		.section	.text.i2c_slave_receive_int,"ax",%progbits
 1624              		.align	1
 1625              		.global	i2c_slave_receive_int
 1626              		.syntax unified
 1627              		.thumb
 1628              		.thumb_func
 1630              	i2c_slave_receive_int:
 1631              	.LVL157:
 1632              	.LFB147:
 724:HW_Lib/AT32F435/drivers/src/i2c_application.c **** 
 725:HW_Lib/AT32F435/drivers/src/i2c_application.c **** /**
 726:HW_Lib/AT32F435/drivers/src/i2c_application.c ****   * @brief  the slave receive data through interrupt mode.
 727:HW_Lib/AT32F435/drivers/src/i2c_application.c ****   * @param  hi2c: the handle points to the operation information.
 728:HW_Lib/AT32F435/drivers/src/i2c_application.c ****   * @param  pdata: data buffer.
 729:HW_Lib/AT32F435/drivers/src/i2c_application.c ****   * @param  size: data size.
 730:HW_Lib/AT32F435/drivers/src/i2c_application.c ****   * @param  timeout: maximum waiting time.
 731:HW_Lib/AT32F435/drivers/src/i2c_application.c ****   * @retval i2c status.
 732:HW_Lib/AT32F435/drivers/src/i2c_application.c ****   */
 733:HW_Lib/AT32F435/drivers/src/i2c_application.c **** i2c_status_type i2c_slave_receive_int(i2c_handle_type* hi2c, uint8_t* pdata, uint16_t size, uint32_
 734:HW_Lib/AT32F435/drivers/src/i2c_application.c **** {
 1633              		.loc 1 734 1 is_stmt 1 view -0
 1634              		.cfi_startproc
ARM GAS  C:\Users\8bit\AppData\Local\Temp\ccxE8K1A.s 			page 46


 1635              		@ args = 0, pretend = 0, frame = 0
 1636              		@ frame_needed = 0, uses_anonymous_args = 0
 1637              		.loc 1 734 1 is_stmt 0 view .LVU459
 1638 0000 38B5     		push	{r3, r4, r5, lr}
 1639              	.LCFI17:
 1640              		.cfi_def_cfa_offset 16
 1641              		.cfi_offset 3, -16
 1642              		.cfi_offset 4, -12
 1643              		.cfi_offset 5, -8
 1644              		.cfi_offset 14, -4
 1645 0002 0446     		mov	r4, r0
 1646 0004 9446     		mov	ip, r2
 735:HW_Lib/AT32F435/drivers/src/i2c_application.c ****   /* initialization parameters */
 736:HW_Lib/AT32F435/drivers/src/i2c_application.c ****   hi2c->mode   = I2C_INT_SLA_RX;
 1647              		.loc 1 736 3 is_stmt 1 view .LVU460
 1648              		.loc 1 736 16 is_stmt 0 view .LVU461
 1649 0006 0322     		movs	r2, #3
 1650              	.LVL158:
 1651              		.loc 1 736 16 view .LVU462
 1652 0008 C260     		str	r2, [r0, #12]
 737:HW_Lib/AT32F435/drivers/src/i2c_application.c ****   hi2c->status = I2C_START;
 1653              		.loc 1 737 3 is_stmt 1 view .LVU463
 1654              		.loc 1 737 16 is_stmt 0 view .LVU464
 1655 000a 0022     		movs	r2, #0
 1656 000c 0261     		str	r2, [r0, #16]
 738:HW_Lib/AT32F435/drivers/src/i2c_application.c **** 
 739:HW_Lib/AT32F435/drivers/src/i2c_application.c ****   hi2c->pbuff  = pdata;
 1657              		.loc 1 739 3 is_stmt 1 view .LVU465
 1658              		.loc 1 739 16 is_stmt 0 view .LVU466
 1659 000e 4160     		str	r1, [r0, #4]
 740:HW_Lib/AT32F435/drivers/src/i2c_application.c ****   hi2c->pcount = size;
 1660              		.loc 1 740 3 is_stmt 1 view .LVU467
 1661              		.loc 1 740 16 is_stmt 0 view .LVU468
 1662 0010 A0F80AC0 		strh	ip, [r0, #10]	@ movhi
 741:HW_Lib/AT32F435/drivers/src/i2c_application.c **** 
 742:HW_Lib/AT32F435/drivers/src/i2c_application.c ****   hi2c->error_code = I2C_OK;
 1663              		.loc 1 742 3 is_stmt 1 view .LVU469
 1664              		.loc 1 742 20 is_stmt 0 view .LVU470
 1665 0014 0275     		strb	r2, [r0, #20]
 743:HW_Lib/AT32F435/drivers/src/i2c_application.c **** 
 744:HW_Lib/AT32F435/drivers/src/i2c_application.c ****   /* wait for the busy flag to be reset */
 745:HW_Lib/AT32F435/drivers/src/i2c_application.c ****   if (i2c_wait_flag(hi2c, I2C_BUSYF_FLAG, I2C_EVENT_CHECK_NONE, timeout) != I2C_OK)
 1666              		.loc 1 745 3 is_stmt 1 view .LVU471
 1667              		.loc 1 745 7 is_stmt 0 view .LVU472
 1668 0016 4FF40041 		mov	r1, #32768
 1669              	.LVL159:
 1670              		.loc 1 745 7 view .LVU473
 1671 001a FFF7FEFF 		bl	i2c_wait_flag
 1672              	.LVL160:
 1673              		.loc 1 745 6 view .LVU474
 1674 001e 10B1     		cbz	r0, .L114
 746:HW_Lib/AT32F435/drivers/src/i2c_application.c ****   {
 747:HW_Lib/AT32F435/drivers/src/i2c_application.c ****     return I2C_ERR_STEP_1;
 1675              		.loc 1 747 12 view .LVU475
 1676 0020 0125     		movs	r5, #1
 1677              	.L111:
 748:HW_Lib/AT32F435/drivers/src/i2c_application.c ****   }
ARM GAS  C:\Users\8bit\AppData\Local\Temp\ccxE8K1A.s 			page 47


 749:HW_Lib/AT32F435/drivers/src/i2c_application.c **** 
 750:HW_Lib/AT32F435/drivers/src/i2c_application.c ****   /* enable acknowledge */
 751:HW_Lib/AT32F435/drivers/src/i2c_application.c ****   i2c_ack_enable(hi2c->i2cx, TRUE);
 752:HW_Lib/AT32F435/drivers/src/i2c_application.c **** 
 753:HW_Lib/AT32F435/drivers/src/i2c_application.c ****   /* enable interrupt */
 754:HW_Lib/AT32F435/drivers/src/i2c_application.c ****   i2c_interrupt_enable(hi2c->i2cx, I2C_ERR_INT | I2C_TDC_INT | I2C_STOP_INT | I2C_ACKFIAL_INT | I2C
 755:HW_Lib/AT32F435/drivers/src/i2c_application.c **** 
 756:HW_Lib/AT32F435/drivers/src/i2c_application.c ****   return I2C_OK;
 757:HW_Lib/AT32F435/drivers/src/i2c_application.c **** }
 1678              		.loc 1 757 1 view .LVU476
 1679 0022 2846     		mov	r0, r5
 1680 0024 38BD     		pop	{r3, r4, r5, pc}
 1681              	.LVL161:
 1682              	.L114:
 1683              		.loc 1 757 1 view .LVU477
 1684 0026 0546     		mov	r5, r0
 751:HW_Lib/AT32F435/drivers/src/i2c_application.c **** 
 1685              		.loc 1 751 3 is_stmt 1 view .LVU478
 1686 0028 0121     		movs	r1, #1
 1687 002a 2068     		ldr	r0, [r4]
 1688 002c FFF7FEFF 		bl	i2c_ack_enable
 1689              	.LVL162:
 754:HW_Lib/AT32F435/drivers/src/i2c_application.c **** 
 1690              		.loc 1 754 3 view .LVU479
 1691 0030 0122     		movs	r2, #1
 1692 0032 FC21     		movs	r1, #252
 1693 0034 2068     		ldr	r0, [r4]
 1694 0036 FFF7FEFF 		bl	i2c_interrupt_enable
 1695              	.LVL163:
 756:HW_Lib/AT32F435/drivers/src/i2c_application.c **** }
 1696              		.loc 1 756 3 view .LVU480
 756:HW_Lib/AT32F435/drivers/src/i2c_application.c **** }
 1697              		.loc 1 756 10 is_stmt 0 view .LVU481
 1698 003a F2E7     		b	.L111
 1699              		.cfi_endproc
 1700              	.LFE147:
 1702              		.section	.text.i2c_master_receive_int,"ax",%progbits
 1703              		.align	1
 1704              		.global	i2c_master_receive_int
 1705              		.syntax unified
 1706              		.thumb
 1707              		.thumb_func
 1709              	i2c_master_receive_int:
 1710              	.LVL164:
 1711              	.LFB148:
 758:HW_Lib/AT32F435/drivers/src/i2c_application.c **** 
 759:HW_Lib/AT32F435/drivers/src/i2c_application.c **** /**
 760:HW_Lib/AT32F435/drivers/src/i2c_application.c ****   * @brief  the master receive data through interrupt mode.
 761:HW_Lib/AT32F435/drivers/src/i2c_application.c ****   * @param  hi2c: the handle points to the operation information.
 762:HW_Lib/AT32F435/drivers/src/i2c_application.c ****   * @param  address: slave address.
 763:HW_Lib/AT32F435/drivers/src/i2c_application.c ****   * @param  pdata: data buffer.
 764:HW_Lib/AT32F435/drivers/src/i2c_application.c ****   * @param  size: data size.
 765:HW_Lib/AT32F435/drivers/src/i2c_application.c ****   * @param  timeout: maximum waiting time.
 766:HW_Lib/AT32F435/drivers/src/i2c_application.c ****   * @retval i2c status.
 767:HW_Lib/AT32F435/drivers/src/i2c_application.c ****   */
 768:HW_Lib/AT32F435/drivers/src/i2c_application.c **** i2c_status_type i2c_master_receive_int(i2c_handle_type* hi2c, uint16_t address, uint8_t* pdata, uin
 769:HW_Lib/AT32F435/drivers/src/i2c_application.c **** {
ARM GAS  C:\Users\8bit\AppData\Local\Temp\ccxE8K1A.s 			page 48


 1712              		.loc 1 769 1 is_stmt 1 view -0
 1713              		.cfi_startproc
 1714              		@ args = 4, pretend = 0, frame = 0
 1715              		@ frame_needed = 0, uses_anonymous_args = 0
 1716              		.loc 1 769 1 is_stmt 0 view .LVU483
 1717 0000 70B5     		push	{r4, r5, r6, lr}
 1718              	.LCFI18:
 1719              		.cfi_def_cfa_offset 16
 1720              		.cfi_offset 4, -16
 1721              		.cfi_offset 5, -12
 1722              		.cfi_offset 6, -8
 1723              		.cfi_offset 14, -4
 1724 0002 0446     		mov	r4, r0
 1725 0004 0D46     		mov	r5, r1
 1726 0006 1146     		mov	r1, r2
 1727              	.LVL165:
 770:HW_Lib/AT32F435/drivers/src/i2c_application.c ****   /* initialization parameters */
 771:HW_Lib/AT32F435/drivers/src/i2c_application.c ****   hi2c->mode   = I2C_INT_MA_RX;
 1728              		.loc 1 771 3 is_stmt 1 view .LVU484
 1729              		.loc 1 771 16 is_stmt 0 view .LVU485
 1730 0008 0122     		movs	r2, #1
 1731              	.LVL166:
 1732              		.loc 1 771 16 view .LVU486
 1733 000a C260     		str	r2, [r0, #12]
 772:HW_Lib/AT32F435/drivers/src/i2c_application.c ****   hi2c->status = I2C_START;
 1734              		.loc 1 772 3 is_stmt 1 view .LVU487
 1735              		.loc 1 772 16 is_stmt 0 view .LVU488
 1736 000c 0022     		movs	r2, #0
 1737 000e 0261     		str	r2, [r0, #16]
 773:HW_Lib/AT32F435/drivers/src/i2c_application.c **** 
 774:HW_Lib/AT32F435/drivers/src/i2c_application.c ****   hi2c->pbuff  = pdata;
 1738              		.loc 1 774 3 is_stmt 1 view .LVU489
 1739              		.loc 1 774 16 is_stmt 0 view .LVU490
 1740 0010 4160     		str	r1, [r0, #4]
 775:HW_Lib/AT32F435/drivers/src/i2c_application.c ****   hi2c->pcount = size;
 1741              		.loc 1 775 3 is_stmt 1 view .LVU491
 1742              		.loc 1 775 16 is_stmt 0 view .LVU492
 1743 0012 4381     		strh	r3, [r0, #10]	@ movhi
 776:HW_Lib/AT32F435/drivers/src/i2c_application.c **** 
 777:HW_Lib/AT32F435/drivers/src/i2c_application.c ****   hi2c->error_code = I2C_OK;
 1744              		.loc 1 777 3 is_stmt 1 view .LVU493
 1745              		.loc 1 777 20 is_stmt 0 view .LVU494
 1746 0014 0275     		strb	r2, [r0, #20]
 778:HW_Lib/AT32F435/drivers/src/i2c_application.c **** 
 779:HW_Lib/AT32F435/drivers/src/i2c_application.c ****   /* wait for the busy flag to be reset */
 780:HW_Lib/AT32F435/drivers/src/i2c_application.c ****   if (i2c_wait_flag(hi2c, I2C_BUSYF_FLAG, I2C_EVENT_CHECK_NONE, timeout) != I2C_OK)
 1747              		.loc 1 780 3 is_stmt 1 view .LVU495
 1748              		.loc 1 780 7 is_stmt 0 view .LVU496
 1749 0016 049B     		ldr	r3, [sp, #16]
 1750              	.LVL167:
 1751              		.loc 1 780 7 view .LVU497
 1752 0018 4FF40041 		mov	r1, #32768
 1753              	.LVL168:
 1754              		.loc 1 780 7 view .LVU498
 1755 001c FFF7FEFF 		bl	i2c_wait_flag
 1756              	.LVL169:
 1757              		.loc 1 780 6 view .LVU499
ARM GAS  C:\Users\8bit\AppData\Local\Temp\ccxE8K1A.s 			page 49


 1758 0020 10B1     		cbz	r0, .L119
 781:HW_Lib/AT32F435/drivers/src/i2c_application.c ****   {
 782:HW_Lib/AT32F435/drivers/src/i2c_application.c ****     return I2C_ERR_STEP_1;
 1759              		.loc 1 782 12 view .LVU500
 1760 0022 0126     		movs	r6, #1
 1761              	.L116:
 783:HW_Lib/AT32F435/drivers/src/i2c_application.c ****   }
 784:HW_Lib/AT32F435/drivers/src/i2c_application.c **** 
 785:HW_Lib/AT32F435/drivers/src/i2c_application.c ****   /* start transfer */
 786:HW_Lib/AT32F435/drivers/src/i2c_application.c ****   i2c_start_transfer(hi2c, address, I2C_GEN_START_READ);
 787:HW_Lib/AT32F435/drivers/src/i2c_application.c **** 
 788:HW_Lib/AT32F435/drivers/src/i2c_application.c ****   /* enable interrupt */
 789:HW_Lib/AT32F435/drivers/src/i2c_application.c ****   i2c_interrupt_enable(hi2c->i2cx, I2C_ERR_INT | I2C_TDC_INT | I2C_STOP_INT | I2C_ACKFIAL_INT | I2C
 790:HW_Lib/AT32F435/drivers/src/i2c_application.c **** 
 791:HW_Lib/AT32F435/drivers/src/i2c_application.c ****   return I2C_OK;
 792:HW_Lib/AT32F435/drivers/src/i2c_application.c **** }
 1762              		.loc 1 792 1 view .LVU501
 1763 0024 3046     		mov	r0, r6
 1764 0026 70BD     		pop	{r4, r5, r6, pc}
 1765              	.LVL170:
 1766              	.L119:
 1767              		.loc 1 792 1 view .LVU502
 1768 0028 0646     		mov	r6, r0
 786:HW_Lib/AT32F435/drivers/src/i2c_application.c **** 
 1769              		.loc 1 786 3 is_stmt 1 view .LVU503
 1770 002a 4FF41052 		mov	r2, #9216
 1771 002e 2946     		mov	r1, r5
 1772 0030 2046     		mov	r0, r4
 1773 0032 FFF7FEFF 		bl	i2c_start_transfer
 1774              	.LVL171:
 789:HW_Lib/AT32F435/drivers/src/i2c_application.c **** 
 1775              		.loc 1 789 3 view .LVU504
 1776 0036 0122     		movs	r2, #1
 1777 0038 F421     		movs	r1, #244
 1778 003a 2068     		ldr	r0, [r4]
 1779 003c FFF7FEFF 		bl	i2c_interrupt_enable
 1780              	.LVL172:
 791:HW_Lib/AT32F435/drivers/src/i2c_application.c **** }
 1781              		.loc 1 791 3 view .LVU505
 791:HW_Lib/AT32F435/drivers/src/i2c_application.c **** }
 1782              		.loc 1 791 10 is_stmt 0 view .LVU506
 1783 0040 F0E7     		b	.L116
 1784              		.cfi_endproc
 1785              	.LFE148:
 1787              		.section	.text.i2c_slave_transmit_int,"ax",%progbits
 1788              		.align	1
 1789              		.global	i2c_slave_transmit_int
 1790              		.syntax unified
 1791              		.thumb
 1792              		.thumb_func
 1794              	i2c_slave_transmit_int:
 1795              	.LVL173:
 1796              	.LFB149:
 793:HW_Lib/AT32F435/drivers/src/i2c_application.c **** 
 794:HW_Lib/AT32F435/drivers/src/i2c_application.c **** /**
 795:HW_Lib/AT32F435/drivers/src/i2c_application.c ****   * @brief  the slave transmits data through interrupt mode.
 796:HW_Lib/AT32F435/drivers/src/i2c_application.c ****   * @param  hi2c: the handle points to the operation information.
ARM GAS  C:\Users\8bit\AppData\Local\Temp\ccxE8K1A.s 			page 50


 797:HW_Lib/AT32F435/drivers/src/i2c_application.c ****   * @param  pdata: data buffer.
 798:HW_Lib/AT32F435/drivers/src/i2c_application.c ****   * @param  size: data size.
 799:HW_Lib/AT32F435/drivers/src/i2c_application.c ****   * @param  timeout: maximum waiting time.
 800:HW_Lib/AT32F435/drivers/src/i2c_application.c ****   * @retval i2c status.
 801:HW_Lib/AT32F435/drivers/src/i2c_application.c ****   */
 802:HW_Lib/AT32F435/drivers/src/i2c_application.c **** i2c_status_type i2c_slave_transmit_int(i2c_handle_type* hi2c, uint8_t* pdata, uint16_t size, uint32
 803:HW_Lib/AT32F435/drivers/src/i2c_application.c **** {
 1797              		.loc 1 803 1 is_stmt 1 view -0
 1798              		.cfi_startproc
 1799              		@ args = 0, pretend = 0, frame = 0
 1800              		@ frame_needed = 0, uses_anonymous_args = 0
 1801              		.loc 1 803 1 is_stmt 0 view .LVU508
 1802 0000 38B5     		push	{r3, r4, r5, lr}
 1803              	.LCFI19:
 1804              		.cfi_def_cfa_offset 16
 1805              		.cfi_offset 3, -16
 1806              		.cfi_offset 4, -12
 1807              		.cfi_offset 5, -8
 1808              		.cfi_offset 14, -4
 1809 0002 0446     		mov	r4, r0
 1810 0004 9446     		mov	ip, r2
 804:HW_Lib/AT32F435/drivers/src/i2c_application.c ****   /* initialization parameters */
 805:HW_Lib/AT32F435/drivers/src/i2c_application.c ****   hi2c->mode   = I2C_INT_SLA_TX;
 1811              		.loc 1 805 3 is_stmt 1 view .LVU509
 1812              		.loc 1 805 16 is_stmt 0 view .LVU510
 1813 0006 0222     		movs	r2, #2
 1814              	.LVL174:
 1815              		.loc 1 805 16 view .LVU511
 1816 0008 C260     		str	r2, [r0, #12]
 806:HW_Lib/AT32F435/drivers/src/i2c_application.c ****   hi2c->status = I2C_START;
 1817              		.loc 1 806 3 is_stmt 1 view .LVU512
 1818              		.loc 1 806 16 is_stmt 0 view .LVU513
 1819 000a 0022     		movs	r2, #0
 1820 000c 0261     		str	r2, [r0, #16]
 807:HW_Lib/AT32F435/drivers/src/i2c_application.c **** 
 808:HW_Lib/AT32F435/drivers/src/i2c_application.c ****   hi2c->pbuff  = pdata;
 1821              		.loc 1 808 3 is_stmt 1 view .LVU514
 1822              		.loc 1 808 16 is_stmt 0 view .LVU515
 1823 000e 4160     		str	r1, [r0, #4]
 809:HW_Lib/AT32F435/drivers/src/i2c_application.c ****   hi2c->pcount = size;
 1824              		.loc 1 809 3 is_stmt 1 view .LVU516
 1825              		.loc 1 809 16 is_stmt 0 view .LVU517
 1826 0010 A0F80AC0 		strh	ip, [r0, #10]	@ movhi
 810:HW_Lib/AT32F435/drivers/src/i2c_application.c **** 
 811:HW_Lib/AT32F435/drivers/src/i2c_application.c ****   hi2c->error_code = I2C_OK;
 1827              		.loc 1 811 3 is_stmt 1 view .LVU518
 1828              		.loc 1 811 20 is_stmt 0 view .LVU519
 1829 0014 0275     		strb	r2, [r0, #20]
 812:HW_Lib/AT32F435/drivers/src/i2c_application.c **** 
 813:HW_Lib/AT32F435/drivers/src/i2c_application.c ****   /* wait for the busy flag to be reset */
 814:HW_Lib/AT32F435/drivers/src/i2c_application.c ****   if (i2c_wait_flag(hi2c, I2C_BUSYF_FLAG, I2C_EVENT_CHECK_NONE, timeout) != I2C_OK)
 1830              		.loc 1 814 3 is_stmt 1 view .LVU520
 1831              		.loc 1 814 7 is_stmt 0 view .LVU521
 1832 0016 4FF40041 		mov	r1, #32768
 1833              	.LVL175:
 1834              		.loc 1 814 7 view .LVU522
 1835 001a FFF7FEFF 		bl	i2c_wait_flag
ARM GAS  C:\Users\8bit\AppData\Local\Temp\ccxE8K1A.s 			page 51


 1836              	.LVL176:
 1837              		.loc 1 814 6 view .LVU523
 1838 001e 10B1     		cbz	r0, .L124
 815:HW_Lib/AT32F435/drivers/src/i2c_application.c ****   {
 816:HW_Lib/AT32F435/drivers/src/i2c_application.c ****     return I2C_ERR_STEP_1;
 1839              		.loc 1 816 12 view .LVU524
 1840 0020 0125     		movs	r5, #1
 1841              	.L121:
 817:HW_Lib/AT32F435/drivers/src/i2c_application.c ****   }
 818:HW_Lib/AT32F435/drivers/src/i2c_application.c **** 
 819:HW_Lib/AT32F435/drivers/src/i2c_application.c ****   /* enable acknowledge */
 820:HW_Lib/AT32F435/drivers/src/i2c_application.c ****   i2c_ack_enable(hi2c->i2cx, TRUE);
 821:HW_Lib/AT32F435/drivers/src/i2c_application.c **** 
 822:HW_Lib/AT32F435/drivers/src/i2c_application.c ****   /* enable interrupt */
 823:HW_Lib/AT32F435/drivers/src/i2c_application.c ****   i2c_interrupt_enable(hi2c->i2cx, I2C_ERR_INT | I2C_TDC_INT | I2C_STOP_INT | I2C_ACKFIAL_INT | I2C
 824:HW_Lib/AT32F435/drivers/src/i2c_application.c **** 
 825:HW_Lib/AT32F435/drivers/src/i2c_application.c ****   i2c_refresh_txdt_register(hi2c);
 826:HW_Lib/AT32F435/drivers/src/i2c_application.c **** 
 827:HW_Lib/AT32F435/drivers/src/i2c_application.c ****   return I2C_OK;
 828:HW_Lib/AT32F435/drivers/src/i2c_application.c **** }
 1842              		.loc 1 828 1 view .LVU525
 1843 0022 2846     		mov	r0, r5
 1844 0024 38BD     		pop	{r3, r4, r5, pc}
 1845              	.LVL177:
 1846              	.L124:
 1847              		.loc 1 828 1 view .LVU526
 1848 0026 0546     		mov	r5, r0
 820:HW_Lib/AT32F435/drivers/src/i2c_application.c **** 
 1849              		.loc 1 820 3 is_stmt 1 view .LVU527
 1850 0028 0121     		movs	r1, #1
 1851 002a 2068     		ldr	r0, [r4]
 1852 002c FFF7FEFF 		bl	i2c_ack_enable
 1853              	.LVL178:
 823:HW_Lib/AT32F435/drivers/src/i2c_application.c **** 
 1854              		.loc 1 823 3 view .LVU528
 1855 0030 0122     		movs	r2, #1
 1856 0032 FA21     		movs	r1, #250
 1857 0034 2068     		ldr	r0, [r4]
 1858 0036 FFF7FEFF 		bl	i2c_interrupt_enable
 1859              	.LVL179:
 825:HW_Lib/AT32F435/drivers/src/i2c_application.c **** 
 1860              		.loc 1 825 3 view .LVU529
 1861 003a 2046     		mov	r0, r4
 1862 003c FFF7FEFF 		bl	i2c_refresh_txdt_register
 1863              	.LVL180:
 827:HW_Lib/AT32F435/drivers/src/i2c_application.c **** }
 1864              		.loc 1 827 3 view .LVU530
 827:HW_Lib/AT32F435/drivers/src/i2c_application.c **** }
 1865              		.loc 1 827 10 is_stmt 0 view .LVU531
 1866 0040 EFE7     		b	.L121
 1867              		.cfi_endproc
 1868              	.LFE149:
 1870              		.section	.text.i2c_master_transmit_dma,"ax",%progbits
 1871              		.align	1
 1872              		.global	i2c_master_transmit_dma
 1873              		.syntax unified
 1874              		.thumb
ARM GAS  C:\Users\8bit\AppData\Local\Temp\ccxE8K1A.s 			page 52


 1875              		.thumb_func
 1877              	i2c_master_transmit_dma:
 1878              	.LVL181:
 1879              	.LFB150:
 829:HW_Lib/AT32F435/drivers/src/i2c_application.c **** 
 830:HW_Lib/AT32F435/drivers/src/i2c_application.c **** /**
 831:HW_Lib/AT32F435/drivers/src/i2c_application.c ****   * @brief  the master transmits data through dma mode.
 832:HW_Lib/AT32F435/drivers/src/i2c_application.c ****   * @param  hi2c: the handle points to the operation information.
 833:HW_Lib/AT32F435/drivers/src/i2c_application.c ****   * @param  address: slave address.
 834:HW_Lib/AT32F435/drivers/src/i2c_application.c ****   * @param  pdata: data buffer.
 835:HW_Lib/AT32F435/drivers/src/i2c_application.c ****   * @param  size: data size.
 836:HW_Lib/AT32F435/drivers/src/i2c_application.c ****   * @param  timeout: maximum waiting time.
 837:HW_Lib/AT32F435/drivers/src/i2c_application.c ****   * @retval i2c status.
 838:HW_Lib/AT32F435/drivers/src/i2c_application.c ****   */
 839:HW_Lib/AT32F435/drivers/src/i2c_application.c **** i2c_status_type i2c_master_transmit_dma(i2c_handle_type* hi2c, uint16_t address, uint8_t* pdata, ui
 840:HW_Lib/AT32F435/drivers/src/i2c_application.c **** {
 1880              		.loc 1 840 1 is_stmt 1 view -0
 1881              		.cfi_startproc
 1882              		@ args = 4, pretend = 0, frame = 0
 1883              		@ frame_needed = 0, uses_anonymous_args = 0
 1884              		.loc 1 840 1 is_stmt 0 view .LVU533
 1885 0000 70B5     		push	{r4, r5, r6, lr}
 1886              	.LCFI20:
 1887              		.cfi_def_cfa_offset 16
 1888              		.cfi_offset 4, -16
 1889              		.cfi_offset 5, -12
 1890              		.cfi_offset 6, -8
 1891              		.cfi_offset 14, -4
 1892 0002 0446     		mov	r4, r0
 1893 0004 0E46     		mov	r6, r1
 841:HW_Lib/AT32F435/drivers/src/i2c_application.c ****   /* initialization parameters */
 842:HW_Lib/AT32F435/drivers/src/i2c_application.c ****   hi2c->mode   = I2C_DMA_MA_TX;
 1894              		.loc 1 842 3 is_stmt 1 view .LVU534
 1895              		.loc 1 842 16 is_stmt 0 view .LVU535
 1896 0006 0421     		movs	r1, #4
 1897              	.LVL182:
 1898              		.loc 1 842 16 view .LVU536
 1899 0008 C160     		str	r1, [r0, #12]
 843:HW_Lib/AT32F435/drivers/src/i2c_application.c ****   hi2c->status = I2C_START;
 1900              		.loc 1 843 3 is_stmt 1 view .LVU537
 1901              		.loc 1 843 16 is_stmt 0 view .LVU538
 1902 000a 0025     		movs	r5, #0
 1903 000c 0561     		str	r5, [r0, #16]
 844:HW_Lib/AT32F435/drivers/src/i2c_application.c **** 
 845:HW_Lib/AT32F435/drivers/src/i2c_application.c ****   hi2c->pbuff  = pdata;
 1904              		.loc 1 845 3 is_stmt 1 view .LVU539
 1905              		.loc 1 845 16 is_stmt 0 view .LVU540
 1906 000e 4260     		str	r2, [r0, #4]
 846:HW_Lib/AT32F435/drivers/src/i2c_application.c ****   hi2c->pcount = size;
 1907              		.loc 1 846 3 is_stmt 1 view .LVU541
 1908              		.loc 1 846 16 is_stmt 0 view .LVU542
 1909 0010 4381     		strh	r3, [r0, #10]	@ movhi
 847:HW_Lib/AT32F435/drivers/src/i2c_application.c **** 
 848:HW_Lib/AT32F435/drivers/src/i2c_application.c ****   hi2c->error_code = I2C_OK;
 1910              		.loc 1 848 3 is_stmt 1 view .LVU543
 1911              		.loc 1 848 20 is_stmt 0 view .LVU544
 1912 0012 0575     		strb	r5, [r0, #20]
ARM GAS  C:\Users\8bit\AppData\Local\Temp\ccxE8K1A.s 			page 53


 849:HW_Lib/AT32F435/drivers/src/i2c_application.c **** 
 850:HW_Lib/AT32F435/drivers/src/i2c_application.c ****   /* wait for the busy flag to be reset */
 851:HW_Lib/AT32F435/drivers/src/i2c_application.c ****   if(i2c_wait_flag(hi2c, I2C_BUSYF_FLAG, I2C_EVENT_CHECK_NONE, timeout) != I2C_OK)
 1913              		.loc 1 851 3 is_stmt 1 view .LVU545
 1914              		.loc 1 851 6 is_stmt 0 view .LVU546
 1915 0014 049B     		ldr	r3, [sp, #16]
 1916              	.LVL183:
 1917              		.loc 1 851 6 view .LVU547
 1918 0016 2A46     		mov	r2, r5
 1919              	.LVL184:
 1920              		.loc 1 851 6 view .LVU548
 1921 0018 4FF40041 		mov	r1, #32768
 1922 001c FFF7FEFF 		bl	i2c_wait_flag
 1923              	.LVL185:
 1924              		.loc 1 851 5 view .LVU549
 1925 0020 10B1     		cbz	r0, .L129
 852:HW_Lib/AT32F435/drivers/src/i2c_application.c ****   {
 853:HW_Lib/AT32F435/drivers/src/i2c_application.c ****     return I2C_ERR_STEP_1;
 1926              		.loc 1 853 12 view .LVU550
 1927 0022 0125     		movs	r5, #1
 1928              	.L126:
 854:HW_Lib/AT32F435/drivers/src/i2c_application.c ****   }
 855:HW_Lib/AT32F435/drivers/src/i2c_application.c **** 
 856:HW_Lib/AT32F435/drivers/src/i2c_application.c ****   /* disable dma request */
 857:HW_Lib/AT32F435/drivers/src/i2c_application.c ****   i2c_dma_enable(hi2c->i2cx, I2C_DMA_REQUEST_TX, FALSE);
 858:HW_Lib/AT32F435/drivers/src/i2c_application.c **** 
 859:HW_Lib/AT32F435/drivers/src/i2c_application.c ****   /* start transfer */
 860:HW_Lib/AT32F435/drivers/src/i2c_application.c ****   i2c_start_transfer_dma(hi2c, hi2c->dma_tx_channel, address, I2C_GEN_START_WRITE);
 861:HW_Lib/AT32F435/drivers/src/i2c_application.c **** 
 862:HW_Lib/AT32F435/drivers/src/i2c_application.c ****   /* enable i2c interrupt */
 863:HW_Lib/AT32F435/drivers/src/i2c_application.c ****   i2c_interrupt_enable(hi2c->i2cx, I2C_ERR_INT | I2C_ACKFIAL_INT, TRUE);
 864:HW_Lib/AT32F435/drivers/src/i2c_application.c **** 
 865:HW_Lib/AT32F435/drivers/src/i2c_application.c ****   /* enable dma request */
 866:HW_Lib/AT32F435/drivers/src/i2c_application.c ****   i2c_dma_enable(hi2c->i2cx, I2C_DMA_REQUEST_TX, TRUE);
 867:HW_Lib/AT32F435/drivers/src/i2c_application.c **** 
 868:HW_Lib/AT32F435/drivers/src/i2c_application.c ****   return I2C_OK;
 869:HW_Lib/AT32F435/drivers/src/i2c_application.c **** }
 1929              		.loc 1 869 1 view .LVU551
 1930 0024 2846     		mov	r0, r5
 1931 0026 70BD     		pop	{r4, r5, r6, pc}
 1932              	.LVL186:
 1933              	.L129:
 1934              		.loc 1 869 1 view .LVU552
 1935 0028 0546     		mov	r5, r0
 857:HW_Lib/AT32F435/drivers/src/i2c_application.c **** 
 1936              		.loc 1 857 3 is_stmt 1 view .LVU553
 1937 002a 0022     		movs	r2, #0
 1938 002c 1146     		mov	r1, r2
 1939 002e 2068     		ldr	r0, [r4]
 1940 0030 FFF7FEFF 		bl	i2c_dma_enable
 1941              	.LVL187:
 860:HW_Lib/AT32F435/drivers/src/i2c_application.c **** 
 1942              		.loc 1 860 3 view .LVU554
 1943 0034 4FF40053 		mov	r3, #8192
 1944 0038 3246     		mov	r2, r6
 1945 003a A169     		ldr	r1, [r4, #24]
 1946 003c 2046     		mov	r0, r4
ARM GAS  C:\Users\8bit\AppData\Local\Temp\ccxE8K1A.s 			page 54


 1947 003e FFF7FEFF 		bl	i2c_start_transfer_dma
 1948              	.LVL188:
 863:HW_Lib/AT32F435/drivers/src/i2c_application.c **** 
 1949              		.loc 1 863 3 view .LVU555
 1950 0042 0122     		movs	r2, #1
 1951 0044 9021     		movs	r1, #144
 1952 0046 2068     		ldr	r0, [r4]
 1953 0048 FFF7FEFF 		bl	i2c_interrupt_enable
 1954              	.LVL189:
 866:HW_Lib/AT32F435/drivers/src/i2c_application.c **** 
 1955              		.loc 1 866 3 view .LVU556
 1956 004c 0122     		movs	r2, #1
 1957 004e 0021     		movs	r1, #0
 1958 0050 2068     		ldr	r0, [r4]
 1959 0052 FFF7FEFF 		bl	i2c_dma_enable
 1960              	.LVL190:
 868:HW_Lib/AT32F435/drivers/src/i2c_application.c **** }
 1961              		.loc 1 868 3 view .LVU557
 868:HW_Lib/AT32F435/drivers/src/i2c_application.c **** }
 1962              		.loc 1 868 10 is_stmt 0 view .LVU558
 1963 0056 E5E7     		b	.L126
 1964              		.cfi_endproc
 1965              	.LFE150:
 1967              		.section	.text.i2c_slave_receive_dma,"ax",%progbits
 1968              		.align	1
 1969              		.global	i2c_slave_receive_dma
 1970              		.syntax unified
 1971              		.thumb
 1972              		.thumb_func
 1974              	i2c_slave_receive_dma:
 1975              	.LVL191:
 1976              	.LFB151:
 870:HW_Lib/AT32F435/drivers/src/i2c_application.c **** 
 871:HW_Lib/AT32F435/drivers/src/i2c_application.c **** /**
 872:HW_Lib/AT32F435/drivers/src/i2c_application.c ****   * @brief  the slave receive data through dma mode.
 873:HW_Lib/AT32F435/drivers/src/i2c_application.c ****   * @param  hi2c: the handle points to the operation information.
 874:HW_Lib/AT32F435/drivers/src/i2c_application.c ****   * @param  pdata: data buffer.
 875:HW_Lib/AT32F435/drivers/src/i2c_application.c ****   * @param  size: data size.
 876:HW_Lib/AT32F435/drivers/src/i2c_application.c ****   * @param  timeout: maximum waiting time.
 877:HW_Lib/AT32F435/drivers/src/i2c_application.c ****   * @retval i2c status.
 878:HW_Lib/AT32F435/drivers/src/i2c_application.c ****   */
 879:HW_Lib/AT32F435/drivers/src/i2c_application.c **** i2c_status_type i2c_slave_receive_dma(i2c_handle_type* hi2c, uint8_t* pdata, uint16_t size, uint32_
 880:HW_Lib/AT32F435/drivers/src/i2c_application.c **** {
 1977              		.loc 1 880 1 is_stmt 1 view -0
 1978              		.cfi_startproc
 1979              		@ args = 0, pretend = 0, frame = 0
 1980              		@ frame_needed = 0, uses_anonymous_args = 0
 1981              		.loc 1 880 1 is_stmt 0 view .LVU560
 1982 0000 70B5     		push	{r4, r5, r6, lr}
 1983              	.LCFI21:
 1984              		.cfi_def_cfa_offset 16
 1985              		.cfi_offset 4, -16
 1986              		.cfi_offset 5, -12
 1987              		.cfi_offset 6, -8
 1988              		.cfi_offset 14, -4
 1989 0002 0446     		mov	r4, r0
 1990 0004 1546     		mov	r5, r2
ARM GAS  C:\Users\8bit\AppData\Local\Temp\ccxE8K1A.s 			page 55


 881:HW_Lib/AT32F435/drivers/src/i2c_application.c ****   /* initialization parameters */
 882:HW_Lib/AT32F435/drivers/src/i2c_application.c ****   hi2c->mode   = I2C_DMA_SLA_RX;
 1991              		.loc 1 882 3 is_stmt 1 view .LVU561
 1992              		.loc 1 882 16 is_stmt 0 view .LVU562
 1993 0006 0722     		movs	r2, #7
 1994              	.LVL192:
 1995              		.loc 1 882 16 view .LVU563
 1996 0008 C260     		str	r2, [r0, #12]
 883:HW_Lib/AT32F435/drivers/src/i2c_application.c ****   hi2c->status = I2C_START;
 1997              		.loc 1 883 3 is_stmt 1 view .LVU564
 1998              		.loc 1 883 16 is_stmt 0 view .LVU565
 1999 000a 0022     		movs	r2, #0
 2000 000c 0261     		str	r2, [r0, #16]
 884:HW_Lib/AT32F435/drivers/src/i2c_application.c **** 
 885:HW_Lib/AT32F435/drivers/src/i2c_application.c ****   hi2c->pbuff  = pdata;
 2001              		.loc 1 885 3 is_stmt 1 view .LVU566
 2002              		.loc 1 885 16 is_stmt 0 view .LVU567
 2003 000e 4160     		str	r1, [r0, #4]
 886:HW_Lib/AT32F435/drivers/src/i2c_application.c ****   hi2c->pcount = size;
 2004              		.loc 1 886 3 is_stmt 1 view .LVU568
 2005              		.loc 1 886 16 is_stmt 0 view .LVU569
 2006 0010 4581     		strh	r5, [r0, #10]	@ movhi
 887:HW_Lib/AT32F435/drivers/src/i2c_application.c **** 
 888:HW_Lib/AT32F435/drivers/src/i2c_application.c ****   hi2c->error_code = I2C_OK;
 2007              		.loc 1 888 3 is_stmt 1 view .LVU570
 2008              		.loc 1 888 20 is_stmt 0 view .LVU571
 2009 0012 0275     		strb	r2, [r0, #20]
 889:HW_Lib/AT32F435/drivers/src/i2c_application.c **** 
 890:HW_Lib/AT32F435/drivers/src/i2c_application.c ****   /* wait for the busy flag to be reset */
 891:HW_Lib/AT32F435/drivers/src/i2c_application.c ****   if(i2c_wait_flag(hi2c, I2C_BUSYF_FLAG, I2C_EVENT_CHECK_NONE, timeout) != I2C_OK)
 2010              		.loc 1 891 3 is_stmt 1 view .LVU572
 2011              		.loc 1 891 6 is_stmt 0 view .LVU573
 2012 0014 4FF40041 		mov	r1, #32768
 2013              	.LVL193:
 2014              		.loc 1 891 6 view .LVU574
 2015 0018 FFF7FEFF 		bl	i2c_wait_flag
 2016              	.LVL194:
 2017              		.loc 1 891 5 view .LVU575
 2018 001c 10B1     		cbz	r0, .L134
 892:HW_Lib/AT32F435/drivers/src/i2c_application.c ****   {
 893:HW_Lib/AT32F435/drivers/src/i2c_application.c ****     return I2C_ERR_STEP_1;
 2019              		.loc 1 893 12 view .LVU576
 2020 001e 0126     		movs	r6, #1
 2021              	.L131:
 894:HW_Lib/AT32F435/drivers/src/i2c_application.c ****   }
 895:HW_Lib/AT32F435/drivers/src/i2c_application.c **** 
 896:HW_Lib/AT32F435/drivers/src/i2c_application.c ****   /* disable dma request */
 897:HW_Lib/AT32F435/drivers/src/i2c_application.c ****   i2c_dma_enable(hi2c->i2cx, I2C_DMA_REQUEST_RX, FALSE);
 898:HW_Lib/AT32F435/drivers/src/i2c_application.c **** 
 899:HW_Lib/AT32F435/drivers/src/i2c_application.c ****   /* config dma */
 900:HW_Lib/AT32F435/drivers/src/i2c_application.c ****   i2c_dma_config(hi2c, hi2c->dma_rx_channel, hi2c->pbuff, size);
 901:HW_Lib/AT32F435/drivers/src/i2c_application.c **** 
 902:HW_Lib/AT32F435/drivers/src/i2c_application.c ****   /* enable acknowledge */
 903:HW_Lib/AT32F435/drivers/src/i2c_application.c ****   i2c_ack_enable(hi2c->i2cx, TRUE);
 904:HW_Lib/AT32F435/drivers/src/i2c_application.c **** 
 905:HW_Lib/AT32F435/drivers/src/i2c_application.c ****   /* enable i2c interrupt */
 906:HW_Lib/AT32F435/drivers/src/i2c_application.c ****   i2c_interrupt_enable(hi2c->i2cx, I2C_ADDR_INT | I2C_STOP_INT | I2C_ACKFIAL_INT | I2C_ERR_INT, TRU
ARM GAS  C:\Users\8bit\AppData\Local\Temp\ccxE8K1A.s 			page 56


 907:HW_Lib/AT32F435/drivers/src/i2c_application.c **** 
 908:HW_Lib/AT32F435/drivers/src/i2c_application.c ****   /* enable dma request */
 909:HW_Lib/AT32F435/drivers/src/i2c_application.c ****   i2c_dma_enable(hi2c->i2cx, I2C_DMA_REQUEST_RX, TRUE);
 910:HW_Lib/AT32F435/drivers/src/i2c_application.c **** 
 911:HW_Lib/AT32F435/drivers/src/i2c_application.c ****   return I2C_OK;
 912:HW_Lib/AT32F435/drivers/src/i2c_application.c **** }
 2022              		.loc 1 912 1 view .LVU577
 2023 0020 3046     		mov	r0, r6
 2024 0022 70BD     		pop	{r4, r5, r6, pc}
 2025              	.LVL195:
 2026              	.L134:
 2027              		.loc 1 912 1 view .LVU578
 2028 0024 0646     		mov	r6, r0
 897:HW_Lib/AT32F435/drivers/src/i2c_application.c **** 
 2029              		.loc 1 897 3 is_stmt 1 view .LVU579
 2030 0026 0022     		movs	r2, #0
 2031 0028 0121     		movs	r1, #1
 2032 002a 2068     		ldr	r0, [r4]
 2033 002c FFF7FEFF 		bl	i2c_dma_enable
 2034              	.LVL196:
 900:HW_Lib/AT32F435/drivers/src/i2c_application.c **** 
 2035              		.loc 1 900 3 view .LVU580
 2036 0030 2B46     		mov	r3, r5
 2037 0032 6268     		ldr	r2, [r4, #4]
 2038 0034 E169     		ldr	r1, [r4, #28]
 2039 0036 2046     		mov	r0, r4
 2040 0038 FFF7FEFF 		bl	i2c_dma_config
 2041              	.LVL197:
 903:HW_Lib/AT32F435/drivers/src/i2c_application.c **** 
 2042              		.loc 1 903 3 view .LVU581
 2043 003c 0121     		movs	r1, #1
 2044 003e 2068     		ldr	r0, [r4]
 2045 0040 FFF7FEFF 		bl	i2c_ack_enable
 2046              	.LVL198:
 906:HW_Lib/AT32F435/drivers/src/i2c_application.c **** 
 2047              		.loc 1 906 3 view .LVU582
 2048 0044 0122     		movs	r2, #1
 2049 0046 B821     		movs	r1, #184
 2050 0048 2068     		ldr	r0, [r4]
 2051 004a FFF7FEFF 		bl	i2c_interrupt_enable
 2052              	.LVL199:
 909:HW_Lib/AT32F435/drivers/src/i2c_application.c **** 
 2053              		.loc 1 909 3 view .LVU583
 2054 004e 0122     		movs	r2, #1
 2055 0050 1146     		mov	r1, r2
 2056 0052 2068     		ldr	r0, [r4]
 2057 0054 FFF7FEFF 		bl	i2c_dma_enable
 2058              	.LVL200:
 911:HW_Lib/AT32F435/drivers/src/i2c_application.c **** }
 2059              		.loc 1 911 3 view .LVU584
 911:HW_Lib/AT32F435/drivers/src/i2c_application.c **** }
 2060              		.loc 1 911 10 is_stmt 0 view .LVU585
 2061 0058 E2E7     		b	.L131
 2062              		.cfi_endproc
 2063              	.LFE151:
 2065              		.section	.text.i2c_master_receive_dma,"ax",%progbits
 2066              		.align	1
ARM GAS  C:\Users\8bit\AppData\Local\Temp\ccxE8K1A.s 			page 57


 2067              		.global	i2c_master_receive_dma
 2068              		.syntax unified
 2069              		.thumb
 2070              		.thumb_func
 2072              	i2c_master_receive_dma:
 2073              	.LVL201:
 2074              	.LFB152:
 913:HW_Lib/AT32F435/drivers/src/i2c_application.c **** 
 914:HW_Lib/AT32F435/drivers/src/i2c_application.c **** /**
 915:HW_Lib/AT32F435/drivers/src/i2c_application.c ****   * @brief  the master receive data through dma mode.
 916:HW_Lib/AT32F435/drivers/src/i2c_application.c ****   * @param  hi2c: the handle points to the operation information.
 917:HW_Lib/AT32F435/drivers/src/i2c_application.c ****   * @param  address: slave address.
 918:HW_Lib/AT32F435/drivers/src/i2c_application.c ****   * @param  pdata: data buffer.
 919:HW_Lib/AT32F435/drivers/src/i2c_application.c ****   * @param  size: data size.
 920:HW_Lib/AT32F435/drivers/src/i2c_application.c ****   * @param  timeout: maximum waiting time.
 921:HW_Lib/AT32F435/drivers/src/i2c_application.c ****   * @retval i2c status.
 922:HW_Lib/AT32F435/drivers/src/i2c_application.c ****   */
 923:HW_Lib/AT32F435/drivers/src/i2c_application.c **** i2c_status_type i2c_master_receive_dma(i2c_handle_type* hi2c, uint16_t address, uint8_t* pdata, uin
 924:HW_Lib/AT32F435/drivers/src/i2c_application.c **** {
 2075              		.loc 1 924 1 is_stmt 1 view -0
 2076              		.cfi_startproc
 2077              		@ args = 4, pretend = 0, frame = 0
 2078              		@ frame_needed = 0, uses_anonymous_args = 0
 2079              		.loc 1 924 1 is_stmt 0 view .LVU587
 2080 0000 70B5     		push	{r4, r5, r6, lr}
 2081              	.LCFI22:
 2082              		.cfi_def_cfa_offset 16
 2083              		.cfi_offset 4, -16
 2084              		.cfi_offset 5, -12
 2085              		.cfi_offset 6, -8
 2086              		.cfi_offset 14, -4
 2087 0002 0446     		mov	r4, r0
 2088 0004 0E46     		mov	r6, r1
 925:HW_Lib/AT32F435/drivers/src/i2c_application.c ****   /* initialization parameters */
 926:HW_Lib/AT32F435/drivers/src/i2c_application.c ****   hi2c->mode   = I2C_DMA_MA_RX;
 2089              		.loc 1 926 3 is_stmt 1 view .LVU588
 2090              		.loc 1 926 16 is_stmt 0 view .LVU589
 2091 0006 0521     		movs	r1, #5
 2092              	.LVL202:
 2093              		.loc 1 926 16 view .LVU590
 2094 0008 C160     		str	r1, [r0, #12]
 927:HW_Lib/AT32F435/drivers/src/i2c_application.c ****   hi2c->status = I2C_START;
 2095              		.loc 1 927 3 is_stmt 1 view .LVU591
 2096              		.loc 1 927 16 is_stmt 0 view .LVU592
 2097 000a 0025     		movs	r5, #0
 2098 000c 0561     		str	r5, [r0, #16]
 928:HW_Lib/AT32F435/drivers/src/i2c_application.c **** 
 929:HW_Lib/AT32F435/drivers/src/i2c_application.c ****   hi2c->pbuff  = pdata;
 2099              		.loc 1 929 3 is_stmt 1 view .LVU593
 2100              		.loc 1 929 16 is_stmt 0 view .LVU594
 2101 000e 4260     		str	r2, [r0, #4]
 930:HW_Lib/AT32F435/drivers/src/i2c_application.c ****   hi2c->pcount = size;
 2102              		.loc 1 930 3 is_stmt 1 view .LVU595
 2103              		.loc 1 930 16 is_stmt 0 view .LVU596
 2104 0010 4381     		strh	r3, [r0, #10]	@ movhi
 931:HW_Lib/AT32F435/drivers/src/i2c_application.c **** 
 932:HW_Lib/AT32F435/drivers/src/i2c_application.c ****   hi2c->error_code = I2C_OK;
ARM GAS  C:\Users\8bit\AppData\Local\Temp\ccxE8K1A.s 			page 58


 2105              		.loc 1 932 3 is_stmt 1 view .LVU597
 2106              		.loc 1 932 20 is_stmt 0 view .LVU598
 2107 0012 0575     		strb	r5, [r0, #20]
 933:HW_Lib/AT32F435/drivers/src/i2c_application.c **** 
 934:HW_Lib/AT32F435/drivers/src/i2c_application.c ****   /* wait for the busy flag to be reset */
 935:HW_Lib/AT32F435/drivers/src/i2c_application.c ****   if(i2c_wait_flag(hi2c, I2C_BUSYF_FLAG, I2C_EVENT_CHECK_NONE, timeout) != I2C_OK)
 2108              		.loc 1 935 3 is_stmt 1 view .LVU599
 2109              		.loc 1 935 6 is_stmt 0 view .LVU600
 2110 0014 049B     		ldr	r3, [sp, #16]
 2111              	.LVL203:
 2112              		.loc 1 935 6 view .LVU601
 2113 0016 2A46     		mov	r2, r5
 2114              	.LVL204:
 2115              		.loc 1 935 6 view .LVU602
 2116 0018 4FF40041 		mov	r1, #32768
 2117 001c FFF7FEFF 		bl	i2c_wait_flag
 2118              	.LVL205:
 2119              		.loc 1 935 5 view .LVU603
 2120 0020 10B1     		cbz	r0, .L139
 936:HW_Lib/AT32F435/drivers/src/i2c_application.c ****   {
 937:HW_Lib/AT32F435/drivers/src/i2c_application.c ****     return I2C_ERR_STEP_1;
 2121              		.loc 1 937 12 view .LVU604
 2122 0022 0125     		movs	r5, #1
 2123              	.L136:
 938:HW_Lib/AT32F435/drivers/src/i2c_application.c ****   }
 939:HW_Lib/AT32F435/drivers/src/i2c_application.c **** 
 940:HW_Lib/AT32F435/drivers/src/i2c_application.c ****   /* disable dma request */
 941:HW_Lib/AT32F435/drivers/src/i2c_application.c ****   i2c_dma_enable(hi2c->i2cx, I2C_DMA_REQUEST_RX, FALSE);
 942:HW_Lib/AT32F435/drivers/src/i2c_application.c **** 
 943:HW_Lib/AT32F435/drivers/src/i2c_application.c ****   /* start transfer */
 944:HW_Lib/AT32F435/drivers/src/i2c_application.c ****   i2c_start_transfer_dma(hi2c, hi2c->dma_rx_channel, address, I2C_GEN_START_READ);
 945:HW_Lib/AT32F435/drivers/src/i2c_application.c **** 
 946:HW_Lib/AT32F435/drivers/src/i2c_application.c ****   /* enable i2c interrupt */
 947:HW_Lib/AT32F435/drivers/src/i2c_application.c ****   i2c_interrupt_enable(hi2c->i2cx, I2C_ERR_INT | I2C_ACKFIAL_INT, TRUE);
 948:HW_Lib/AT32F435/drivers/src/i2c_application.c **** 
 949:HW_Lib/AT32F435/drivers/src/i2c_application.c ****   /* enable dma request */
 950:HW_Lib/AT32F435/drivers/src/i2c_application.c ****   i2c_dma_enable(hi2c->i2cx, I2C_DMA_REQUEST_RX, TRUE);
 951:HW_Lib/AT32F435/drivers/src/i2c_application.c **** 
 952:HW_Lib/AT32F435/drivers/src/i2c_application.c ****   return I2C_OK;
 953:HW_Lib/AT32F435/drivers/src/i2c_application.c **** }
 2124              		.loc 1 953 1 view .LVU605
 2125 0024 2846     		mov	r0, r5
 2126 0026 70BD     		pop	{r4, r5, r6, pc}
 2127              	.LVL206:
 2128              	.L139:
 2129              		.loc 1 953 1 view .LVU606
 2130 0028 0546     		mov	r5, r0
 941:HW_Lib/AT32F435/drivers/src/i2c_application.c **** 
 2131              		.loc 1 941 3 is_stmt 1 view .LVU607
 2132 002a 0022     		movs	r2, #0
 2133 002c 0121     		movs	r1, #1
 2134 002e 2068     		ldr	r0, [r4]
 2135 0030 FFF7FEFF 		bl	i2c_dma_enable
 2136              	.LVL207:
 944:HW_Lib/AT32F435/drivers/src/i2c_application.c **** 
 2137              		.loc 1 944 3 view .LVU608
 2138 0034 4FF41053 		mov	r3, #9216
ARM GAS  C:\Users\8bit\AppData\Local\Temp\ccxE8K1A.s 			page 59


 2139 0038 3246     		mov	r2, r6
 2140 003a E169     		ldr	r1, [r4, #28]
 2141 003c 2046     		mov	r0, r4
 2142 003e FFF7FEFF 		bl	i2c_start_transfer_dma
 2143              	.LVL208:
 947:HW_Lib/AT32F435/drivers/src/i2c_application.c **** 
 2144              		.loc 1 947 3 view .LVU609
 2145 0042 0122     		movs	r2, #1
 2146 0044 9021     		movs	r1, #144
 2147 0046 2068     		ldr	r0, [r4]
 2148 0048 FFF7FEFF 		bl	i2c_interrupt_enable
 2149              	.LVL209:
 950:HW_Lib/AT32F435/drivers/src/i2c_application.c **** 
 2150              		.loc 1 950 3 view .LVU610
 2151 004c 0122     		movs	r2, #1
 2152 004e 1146     		mov	r1, r2
 2153 0050 2068     		ldr	r0, [r4]
 2154 0052 FFF7FEFF 		bl	i2c_dma_enable
 2155              	.LVL210:
 952:HW_Lib/AT32F435/drivers/src/i2c_application.c **** }
 2156              		.loc 1 952 3 view .LVU611
 952:HW_Lib/AT32F435/drivers/src/i2c_application.c **** }
 2157              		.loc 1 952 10 is_stmt 0 view .LVU612
 2158 0056 E5E7     		b	.L136
 2159              		.cfi_endproc
 2160              	.LFE152:
 2162              		.section	.text.i2c_slave_transmit_dma,"ax",%progbits
 2163              		.align	1
 2164              		.global	i2c_slave_transmit_dma
 2165              		.syntax unified
 2166              		.thumb
 2167              		.thumb_func
 2169              	i2c_slave_transmit_dma:
 2170              	.LVL211:
 2171              	.LFB153:
 954:HW_Lib/AT32F435/drivers/src/i2c_application.c **** 
 955:HW_Lib/AT32F435/drivers/src/i2c_application.c **** /**
 956:HW_Lib/AT32F435/drivers/src/i2c_application.c ****   * @brief  the slave transmits data through dma mode.
 957:HW_Lib/AT32F435/drivers/src/i2c_application.c ****   * @param  hi2c: the handle points to the operation information.
 958:HW_Lib/AT32F435/drivers/src/i2c_application.c ****   * @param  pdata: data buffer.
 959:HW_Lib/AT32F435/drivers/src/i2c_application.c ****   * @param  size: data size.
 960:HW_Lib/AT32F435/drivers/src/i2c_application.c ****   * @param  timeout: maximum waiting time.
 961:HW_Lib/AT32F435/drivers/src/i2c_application.c ****   * @retval i2c status.
 962:HW_Lib/AT32F435/drivers/src/i2c_application.c ****   */
 963:HW_Lib/AT32F435/drivers/src/i2c_application.c **** i2c_status_type i2c_slave_transmit_dma(i2c_handle_type* hi2c, uint8_t* pdata, uint16_t size, uint32
 964:HW_Lib/AT32F435/drivers/src/i2c_application.c **** {
 2172              		.loc 1 964 1 is_stmt 1 view -0
 2173              		.cfi_startproc
 2174              		@ args = 0, pretend = 0, frame = 0
 2175              		@ frame_needed = 0, uses_anonymous_args = 0
 2176              		.loc 1 964 1 is_stmt 0 view .LVU614
 2177 0000 70B5     		push	{r4, r5, r6, lr}
 2178              	.LCFI23:
 2179              		.cfi_def_cfa_offset 16
 2180              		.cfi_offset 4, -16
 2181              		.cfi_offset 5, -12
 2182              		.cfi_offset 6, -8
ARM GAS  C:\Users\8bit\AppData\Local\Temp\ccxE8K1A.s 			page 60


 2183              		.cfi_offset 14, -4
 2184 0002 0446     		mov	r4, r0
 2185 0004 1546     		mov	r5, r2
 965:HW_Lib/AT32F435/drivers/src/i2c_application.c ****   /* initialization parameters */
 966:HW_Lib/AT32F435/drivers/src/i2c_application.c ****   hi2c->mode   = I2C_DMA_SLA_TX;
 2186              		.loc 1 966 3 is_stmt 1 view .LVU615
 2187              		.loc 1 966 16 is_stmt 0 view .LVU616
 2188 0006 0622     		movs	r2, #6
 2189              	.LVL212:
 2190              		.loc 1 966 16 view .LVU617
 2191 0008 C260     		str	r2, [r0, #12]
 967:HW_Lib/AT32F435/drivers/src/i2c_application.c ****   hi2c->status = I2C_START;
 2192              		.loc 1 967 3 is_stmt 1 view .LVU618
 2193              		.loc 1 967 16 is_stmt 0 view .LVU619
 2194 000a 0022     		movs	r2, #0
 2195 000c 0261     		str	r2, [r0, #16]
 968:HW_Lib/AT32F435/drivers/src/i2c_application.c **** 
 969:HW_Lib/AT32F435/drivers/src/i2c_application.c ****   hi2c->pbuff  = pdata;
 2196              		.loc 1 969 3 is_stmt 1 view .LVU620
 2197              		.loc 1 969 16 is_stmt 0 view .LVU621
 2198 000e 4160     		str	r1, [r0, #4]
 970:HW_Lib/AT32F435/drivers/src/i2c_application.c ****   hi2c->pcount = size;
 2199              		.loc 1 970 3 is_stmt 1 view .LVU622
 2200              		.loc 1 970 16 is_stmt 0 view .LVU623
 2201 0010 4581     		strh	r5, [r0, #10]	@ movhi
 971:HW_Lib/AT32F435/drivers/src/i2c_application.c **** 
 972:HW_Lib/AT32F435/drivers/src/i2c_application.c ****   hi2c->error_code = I2C_OK;
 2202              		.loc 1 972 3 is_stmt 1 view .LVU624
 2203              		.loc 1 972 20 is_stmt 0 view .LVU625
 2204 0012 0275     		strb	r2, [r0, #20]
 973:HW_Lib/AT32F435/drivers/src/i2c_application.c **** 
 974:HW_Lib/AT32F435/drivers/src/i2c_application.c ****   /* wait for the busy flag to be reset */
 975:HW_Lib/AT32F435/drivers/src/i2c_application.c ****   if(i2c_wait_flag(hi2c, I2C_BUSYF_FLAG, I2C_EVENT_CHECK_NONE, timeout) != I2C_OK)
 2205              		.loc 1 975 3 is_stmt 1 view .LVU626
 2206              		.loc 1 975 6 is_stmt 0 view .LVU627
 2207 0014 4FF40041 		mov	r1, #32768
 2208              	.LVL213:
 2209              		.loc 1 975 6 view .LVU628
 2210 0018 FFF7FEFF 		bl	i2c_wait_flag
 2211              	.LVL214:
 2212              		.loc 1 975 5 view .LVU629
 2213 001c 10B1     		cbz	r0, .L144
 976:HW_Lib/AT32F435/drivers/src/i2c_application.c ****   {
 977:HW_Lib/AT32F435/drivers/src/i2c_application.c ****     return I2C_ERR_STEP_1;
 2214              		.loc 1 977 12 view .LVU630
 2215 001e 0126     		movs	r6, #1
 2216              	.L141:
 978:HW_Lib/AT32F435/drivers/src/i2c_application.c ****   }
 979:HW_Lib/AT32F435/drivers/src/i2c_application.c **** 
 980:HW_Lib/AT32F435/drivers/src/i2c_application.c ****   /* disable dma request */
 981:HW_Lib/AT32F435/drivers/src/i2c_application.c ****   i2c_dma_enable(hi2c->i2cx, I2C_DMA_REQUEST_TX, FALSE);
 982:HW_Lib/AT32F435/drivers/src/i2c_application.c **** 
 983:HW_Lib/AT32F435/drivers/src/i2c_application.c ****   /* config dma */
 984:HW_Lib/AT32F435/drivers/src/i2c_application.c ****   i2c_dma_config(hi2c, hi2c->dma_tx_channel, hi2c->pbuff, size);
 985:HW_Lib/AT32F435/drivers/src/i2c_application.c **** 
 986:HW_Lib/AT32F435/drivers/src/i2c_application.c ****   /* enable acknowledge */
 987:HW_Lib/AT32F435/drivers/src/i2c_application.c ****   i2c_ack_enable(hi2c->i2cx, TRUE);
ARM GAS  C:\Users\8bit\AppData\Local\Temp\ccxE8K1A.s 			page 61


 988:HW_Lib/AT32F435/drivers/src/i2c_application.c **** 
 989:HW_Lib/AT32F435/drivers/src/i2c_application.c ****   /* enable i2c interrupt */
 990:HW_Lib/AT32F435/drivers/src/i2c_application.c ****   i2c_interrupt_enable(hi2c->i2cx, I2C_ADDR_INT | I2C_STOP_INT | I2C_ACKFIAL_INT | I2C_ERR_INT, TRU
 991:HW_Lib/AT32F435/drivers/src/i2c_application.c **** 
 992:HW_Lib/AT32F435/drivers/src/i2c_application.c ****   /* enable dma request */
 993:HW_Lib/AT32F435/drivers/src/i2c_application.c ****   i2c_dma_enable(hi2c->i2cx, I2C_DMA_REQUEST_TX, TRUE);
 994:HW_Lib/AT32F435/drivers/src/i2c_application.c **** 
 995:HW_Lib/AT32F435/drivers/src/i2c_application.c ****   return I2C_OK;
 996:HW_Lib/AT32F435/drivers/src/i2c_application.c **** }
 2217              		.loc 1 996 1 view .LVU631
 2218 0020 3046     		mov	r0, r6
 2219 0022 70BD     		pop	{r4, r5, r6, pc}
 2220              	.LVL215:
 2221              	.L144:
 2222              		.loc 1 996 1 view .LVU632
 2223 0024 0646     		mov	r6, r0
 981:HW_Lib/AT32F435/drivers/src/i2c_application.c **** 
 2224              		.loc 1 981 3 is_stmt 1 view .LVU633
 2225 0026 0022     		movs	r2, #0
 2226 0028 1146     		mov	r1, r2
 2227 002a 2068     		ldr	r0, [r4]
 2228 002c FFF7FEFF 		bl	i2c_dma_enable
 2229              	.LVL216:
 984:HW_Lib/AT32F435/drivers/src/i2c_application.c **** 
 2230              		.loc 1 984 3 view .LVU634
 2231 0030 2B46     		mov	r3, r5
 2232 0032 6268     		ldr	r2, [r4, #4]
 2233 0034 A169     		ldr	r1, [r4, #24]
 2234 0036 2046     		mov	r0, r4
 2235 0038 FFF7FEFF 		bl	i2c_dma_config
 2236              	.LVL217:
 987:HW_Lib/AT32F435/drivers/src/i2c_application.c **** 
 2237              		.loc 1 987 3 view .LVU635
 2238 003c 0121     		movs	r1, #1
 2239 003e 2068     		ldr	r0, [r4]
 2240 0040 FFF7FEFF 		bl	i2c_ack_enable
 2241              	.LVL218:
 990:HW_Lib/AT32F435/drivers/src/i2c_application.c **** 
 2242              		.loc 1 990 3 view .LVU636
 2243 0044 0122     		movs	r2, #1
 2244 0046 B821     		movs	r1, #184
 2245 0048 2068     		ldr	r0, [r4]
 2246 004a FFF7FEFF 		bl	i2c_interrupt_enable
 2247              	.LVL219:
 993:HW_Lib/AT32F435/drivers/src/i2c_application.c **** 
 2248              		.loc 1 993 3 view .LVU637
 2249 004e 0122     		movs	r2, #1
 2250 0050 0021     		movs	r1, #0
 2251 0052 2068     		ldr	r0, [r4]
 2252 0054 FFF7FEFF 		bl	i2c_dma_enable
 2253              	.LVL220:
 995:HW_Lib/AT32F435/drivers/src/i2c_application.c **** }
 2254              		.loc 1 995 3 view .LVU638
 995:HW_Lib/AT32F435/drivers/src/i2c_application.c **** }
 2255              		.loc 1 995 10 is_stmt 0 view .LVU639
 2256 0058 E2E7     		b	.L141
 2257              		.cfi_endproc
ARM GAS  C:\Users\8bit\AppData\Local\Temp\ccxE8K1A.s 			page 62


 2258              	.LFE153:
 2260              		.section	.text.i2c_memory_address_send,"ax",%progbits
 2261              		.align	1
 2262              		.global	i2c_memory_address_send
 2263              		.syntax unified
 2264              		.thumb
 2265              		.thumb_func
 2267              	i2c_memory_address_send:
 2268              	.LVL221:
 2269              	.LFB154:
 997:HW_Lib/AT32F435/drivers/src/i2c_application.c **** 
 998:HW_Lib/AT32F435/drivers/src/i2c_application.c **** /**
 999:HW_Lib/AT32F435/drivers/src/i2c_application.c ****   * @brief  send memory address.
1000:HW_Lib/AT32F435/drivers/src/i2c_application.c ****   * @param  hi2c: the handle points to the operation information.
1001:HW_Lib/AT32F435/drivers/src/i2c_application.c ****   * @param  mem_address_width: memory address width.
1002:HW_Lib/AT32F435/drivers/src/i2c_application.c ****   *         this parameter can be one of the following values:
1003:HW_Lib/AT32F435/drivers/src/i2c_application.c ****   *         - I2C_MEM_ADDR_WIDIH_8:  memory address is 8 bit 
1004:HW_Lib/AT32F435/drivers/src/i2c_application.c ****   *         - I2C_MEM_ADDR_WIDIH_16:  memory address is 16 bit 
1005:HW_Lib/AT32F435/drivers/src/i2c_application.c ****   * @param  address: memory device address.
1006:HW_Lib/AT32F435/drivers/src/i2c_application.c ****   * @param  mem_address: memory address.
1007:HW_Lib/AT32F435/drivers/src/i2c_application.c ****   * @param  timeout: maximum waiting time.
1008:HW_Lib/AT32F435/drivers/src/i2c_application.c ****   * @retval i2c status.
1009:HW_Lib/AT32F435/drivers/src/i2c_application.c ****   */
1010:HW_Lib/AT32F435/drivers/src/i2c_application.c **** i2c_status_type i2c_memory_address_send(i2c_handle_type* hi2c, i2c_mem_address_width_type mem_addre
1011:HW_Lib/AT32F435/drivers/src/i2c_application.c **** {
 2270              		.loc 1 1011 1 is_stmt 1 view -0
 2271              		.cfi_startproc
 2272              		@ args = 0, pretend = 0, frame = 0
 2273              		@ frame_needed = 0, uses_anonymous_args = 0
 2274              		.loc 1 1011 1 is_stmt 0 view .LVU641
 2275 0000 70B5     		push	{r4, r5, r6, lr}
 2276              	.LCFI24:
 2277              		.cfi_def_cfa_offset 16
 2278              		.cfi_offset 4, -16
 2279              		.cfi_offset 5, -12
 2280              		.cfi_offset 6, -8
 2281              		.cfi_offset 14, -4
 2282 0002 0446     		mov	r4, r0
 2283 0004 1546     		mov	r5, r2
1012:HW_Lib/AT32F435/drivers/src/i2c_application.c ****   i2c_status_type err_code;
 2284              		.loc 1 1012 3 is_stmt 1 view .LVU642
1013:HW_Lib/AT32F435/drivers/src/i2c_application.c ****   
1014:HW_Lib/AT32F435/drivers/src/i2c_application.c ****   if(mem_address_width == I2C_MEM_ADDR_WIDIH_8)
 2285              		.loc 1 1014 3 view .LVU643
 2286              		.loc 1 1014 5 is_stmt 0 view .LVU644
 2287 0006 0129     		cmp	r1, #1
 2288 0008 11D0     		beq	.L149
 2289 000a 1E46     		mov	r6, r3
1015:HW_Lib/AT32F435/drivers/src/i2c_application.c ****   {
1016:HW_Lib/AT32F435/drivers/src/i2c_application.c ****     /* send memory address */
1017:HW_Lib/AT32F435/drivers/src/i2c_application.c ****     i2c_data_send(hi2c->i2cx, mem_address & 0xFF);
1018:HW_Lib/AT32F435/drivers/src/i2c_application.c ****   }
1019:HW_Lib/AT32F435/drivers/src/i2c_application.c ****   else
1020:HW_Lib/AT32F435/drivers/src/i2c_application.c ****   {
1021:HW_Lib/AT32F435/drivers/src/i2c_application.c ****     /* send memory address */
1022:HW_Lib/AT32F435/drivers/src/i2c_application.c ****     i2c_data_send(hi2c->i2cx, (mem_address >> 8) & 0xFF);  
 2290              		.loc 1 1022 5 is_stmt 1 view .LVU645
ARM GAS  C:\Users\8bit\AppData\Local\Temp\ccxE8K1A.s 			page 63


 2291 000c 110A     		lsrs	r1, r2, #8
 2292              	.LVL222:
 2293              		.loc 1 1022 5 is_stmt 0 view .LVU646
 2294 000e 0068     		ldr	r0, [r0]
 2295              	.LVL223:
 2296              		.loc 1 1022 5 view .LVU647
 2297 0010 FFF7FEFF 		bl	i2c_data_send
 2298              	.LVL224:
1023:HW_Lib/AT32F435/drivers/src/i2c_application.c ****     
1024:HW_Lib/AT32F435/drivers/src/i2c_application.c ****     /* wait for the tdis flag to be set */
1025:HW_Lib/AT32F435/drivers/src/i2c_application.c ****     err_code = i2c_wait_flag(hi2c, I2C_TDIS_FLAG, I2C_EVENT_CHECK_ACKFAIL, timeout);
 2299              		.loc 1 1025 5 is_stmt 1 view .LVU648
 2300              		.loc 1 1025 16 is_stmt 0 view .LVU649
 2301 0014 3346     		mov	r3, r6
 2302 0016 0122     		movs	r2, #1
 2303 0018 0221     		movs	r1, #2
 2304 001a 2046     		mov	r0, r4
 2305 001c FFF7FEFF 		bl	i2c_wait_flag
 2306              	.LVL225:
1026:HW_Lib/AT32F435/drivers/src/i2c_application.c ****     
1027:HW_Lib/AT32F435/drivers/src/i2c_application.c ****     if(err_code != I2C_OK)
 2307              		.loc 1 1027 5 is_stmt 1 view .LVU650
 2308              		.loc 1 1027 7 is_stmt 0 view .LVU651
 2309 0020 0646     		mov	r6, r0
 2310              	.LVL226:
 2311              		.loc 1 1027 7 view .LVU652
 2312 0022 48B9     		cbnz	r0, .L147
1028:HW_Lib/AT32F435/drivers/src/i2c_application.c ****     {
1029:HW_Lib/AT32F435/drivers/src/i2c_application.c ****       return err_code;
1030:HW_Lib/AT32F435/drivers/src/i2c_application.c ****     }
1031:HW_Lib/AT32F435/drivers/src/i2c_application.c ****     
1032:HW_Lib/AT32F435/drivers/src/i2c_application.c ****     /* send memory address */
1033:HW_Lib/AT32F435/drivers/src/i2c_application.c ****     i2c_data_send(hi2c->i2cx, mem_address & 0xFF);  
 2313              		.loc 1 1033 5 is_stmt 1 view .LVU653
 2314 0024 E9B2     		uxtb	r1, r5
 2315 0026 2068     		ldr	r0, [r4]
 2316              	.LVL227:
 2317              		.loc 1 1033 5 is_stmt 0 view .LVU654
 2318 0028 FFF7FEFF 		bl	i2c_data_send
 2319              	.LVL228:
 2320 002c 04E0     		b	.L147
 2321              	.LVL229:
 2322              	.L149:
1017:HW_Lib/AT32F435/drivers/src/i2c_application.c ****   }
 2323              		.loc 1 1017 5 is_stmt 1 view .LVU655
 2324 002e D1B2     		uxtb	r1, r2
 2325              	.LVL230:
1017:HW_Lib/AT32F435/drivers/src/i2c_application.c ****   }
 2326              		.loc 1 1017 5 is_stmt 0 view .LVU656
 2327 0030 0068     		ldr	r0, [r0]
 2328              	.LVL231:
1017:HW_Lib/AT32F435/drivers/src/i2c_application.c ****   }
 2329              		.loc 1 1017 5 view .LVU657
 2330 0032 FFF7FEFF 		bl	i2c_data_send
 2331              	.LVL232:
1034:HW_Lib/AT32F435/drivers/src/i2c_application.c ****   }
1035:HW_Lib/AT32F435/drivers/src/i2c_application.c ****   
ARM GAS  C:\Users\8bit\AppData\Local\Temp\ccxE8K1A.s 			page 64


1036:HW_Lib/AT32F435/drivers/src/i2c_application.c ****   return I2C_OK;
 2332              		.loc 1 1036 10 view .LVU658
 2333 0036 0026     		movs	r6, #0
 2334              	.L147:
1037:HW_Lib/AT32F435/drivers/src/i2c_application.c **** }
 2335              		.loc 1 1037 1 view .LVU659
 2336 0038 3046     		mov	r0, r6
 2337 003a 70BD     		pop	{r4, r5, r6, pc}
 2338              		.loc 1 1037 1 view .LVU660
 2339              		.cfi_endproc
 2340              	.LFE154:
 2342              		.section	.text.i2c_memory_write,"ax",%progbits
 2343              		.align	1
 2344              		.global	i2c_memory_write
 2345              		.syntax unified
 2346              		.thumb
 2347              		.thumb_func
 2349              	i2c_memory_write:
 2350              	.LVL233:
 2351              	.LFB155:
1038:HW_Lib/AT32F435/drivers/src/i2c_application.c **** 
1039:HW_Lib/AT32F435/drivers/src/i2c_application.c **** /**
1040:HW_Lib/AT32F435/drivers/src/i2c_application.c ****   * @brief  write data to the memory device through polling mode.
1041:HW_Lib/AT32F435/drivers/src/i2c_application.c ****   * @param  hi2c: the handle points to the operation information.
1042:HW_Lib/AT32F435/drivers/src/i2c_application.c ****   * @param  mem_address_width: memory address width.
1043:HW_Lib/AT32F435/drivers/src/i2c_application.c ****   *         this parameter can be one of the following values:
1044:HW_Lib/AT32F435/drivers/src/i2c_application.c ****   *         - I2C_MEM_ADDR_WIDIH_8:  memory address is 8 bit 
1045:HW_Lib/AT32F435/drivers/src/i2c_application.c ****   *         - I2C_MEM_ADDR_WIDIH_16:  memory address is 16 bit 
1046:HW_Lib/AT32F435/drivers/src/i2c_application.c ****   * @param  address: memory device address.
1047:HW_Lib/AT32F435/drivers/src/i2c_application.c ****   * @param  mem_address: memory address.
1048:HW_Lib/AT32F435/drivers/src/i2c_application.c ****   * @param  pdata: data buffer.
1049:HW_Lib/AT32F435/drivers/src/i2c_application.c ****   * @param  size: data size.
1050:HW_Lib/AT32F435/drivers/src/i2c_application.c ****   * @param  timeout: maximum waiting time.
1051:HW_Lib/AT32F435/drivers/src/i2c_application.c ****   * @retval i2c status.
1052:HW_Lib/AT32F435/drivers/src/i2c_application.c ****   */
1053:HW_Lib/AT32F435/drivers/src/i2c_application.c **** i2c_status_type i2c_memory_write(i2c_handle_type* hi2c, i2c_mem_address_width_type mem_address_widt
1054:HW_Lib/AT32F435/drivers/src/i2c_application.c **** {
 2352              		.loc 1 1054 1 is_stmt 1 view -0
 2353              		.cfi_startproc
 2354              		@ args = 12, pretend = 0, frame = 0
 2355              		@ frame_needed = 0, uses_anonymous_args = 0
 2356              		.loc 1 1054 1 is_stmt 0 view .LVU662
 2357 0000 2DE9F843 		push	{r3, r4, r5, r6, r7, r8, r9, lr}
 2358              	.LCFI25:
 2359              		.cfi_def_cfa_offset 32
 2360              		.cfi_offset 3, -32
 2361              		.cfi_offset 4, -28
 2362              		.cfi_offset 5, -24
 2363              		.cfi_offset 6, -20
 2364              		.cfi_offset 7, -16
 2365              		.cfi_offset 8, -12
 2366              		.cfi_offset 9, -8
 2367              		.cfi_offset 14, -4
 2368 0004 0446     		mov	r4, r0
 2369 0006 0F46     		mov	r7, r1
 2370 0008 1646     		mov	r6, r2
 2371 000a 9846     		mov	r8, r3
ARM GAS  C:\Users\8bit\AppData\Local\Temp\ccxE8K1A.s 			page 65


 2372 000c 0A9D     		ldr	r5, [sp, #40]
1055:HW_Lib/AT32F435/drivers/src/i2c_application.c ****   /* initialization parameters */
1056:HW_Lib/AT32F435/drivers/src/i2c_application.c ****   hi2c->pbuff = pdata;
 2373              		.loc 1 1056 3 is_stmt 1 view .LVU663
 2374              		.loc 1 1056 15 is_stmt 0 view .LVU664
 2375 000e 089B     		ldr	r3, [sp, #32]
 2376              	.LVL234:
 2377              		.loc 1 1056 15 view .LVU665
 2378 0010 4360     		str	r3, [r0, #4]
1057:HW_Lib/AT32F435/drivers/src/i2c_application.c ****   hi2c->pcount = size + mem_address_width;
 2379              		.loc 1 1057 3 is_stmt 1 view .LVU666
 2380              		.loc 1 1057 23 is_stmt 0 view .LVU667
 2381 0012 1FFA81F9 		uxth	r9, r1
 2382 0016 BDF824C0 		ldrh	ip, [sp, #36]
 2383 001a 8C44     		add	ip, ip, r1
 2384 001c 1FFA8CFC 		uxth	ip, ip
 2385              		.loc 1 1057 16 view .LVU668
 2386 0020 A0F80AC0 		strh	ip, [r0, #10]	@ movhi
1058:HW_Lib/AT32F435/drivers/src/i2c_application.c **** 
1059:HW_Lib/AT32F435/drivers/src/i2c_application.c ****   hi2c->error_code = I2C_OK;
 2387              		.loc 1 1059 3 is_stmt 1 view .LVU669
 2388              		.loc 1 1059 20 is_stmt 0 view .LVU670
 2389 0024 0022     		movs	r2, #0
 2390              	.LVL235:
 2391              		.loc 1 1059 20 view .LVU671
 2392 0026 0275     		strb	r2, [r0, #20]
1060:HW_Lib/AT32F435/drivers/src/i2c_application.c **** 
1061:HW_Lib/AT32F435/drivers/src/i2c_application.c ****   /* wait for the busy flag to be reset */
1062:HW_Lib/AT32F435/drivers/src/i2c_application.c ****   if (i2c_wait_flag(hi2c, I2C_BUSYF_FLAG, I2C_EVENT_CHECK_NONE, timeout) != I2C_OK)
 2393              		.loc 1 1062 3 is_stmt 1 view .LVU672
 2394              		.loc 1 1062 7 is_stmt 0 view .LVU673
 2395 0028 2B46     		mov	r3, r5
 2396 002a 4FF40041 		mov	r1, #32768
 2397              	.LVL236:
 2398              		.loc 1 1062 7 view .LVU674
 2399 002e FFF7FEFF 		bl	i2c_wait_flag
 2400              	.LVL237:
 2401              		.loc 1 1062 6 view .LVU675
 2402 0032 18B1     		cbz	r0, .L162
1063:HW_Lib/AT32F435/drivers/src/i2c_application.c ****   {
1064:HW_Lib/AT32F435/drivers/src/i2c_application.c ****     return I2C_ERR_STEP_1;
 2403              		.loc 1 1064 12 view .LVU676
 2404 0034 0125     		movs	r5, #1
 2405              	.L151:
1065:HW_Lib/AT32F435/drivers/src/i2c_application.c ****   }
1066:HW_Lib/AT32F435/drivers/src/i2c_application.c **** 
1067:HW_Lib/AT32F435/drivers/src/i2c_application.c ****   /* start transfer */
1068:HW_Lib/AT32F435/drivers/src/i2c_application.c ****   i2c_start_transfer(hi2c, address, I2C_GEN_START_WRITE);
1069:HW_Lib/AT32F435/drivers/src/i2c_application.c **** 
1070:HW_Lib/AT32F435/drivers/src/i2c_application.c ****   /* wait for the tdis flag to be set */
1071:HW_Lib/AT32F435/drivers/src/i2c_application.c ****   if(i2c_wait_flag(hi2c, I2C_TDIS_FLAG, I2C_EVENT_CHECK_ACKFAIL, timeout) != I2C_OK)
1072:HW_Lib/AT32F435/drivers/src/i2c_application.c ****   {
1073:HW_Lib/AT32F435/drivers/src/i2c_application.c ****     return I2C_ERR_STEP_2;
1074:HW_Lib/AT32F435/drivers/src/i2c_application.c ****   }
1075:HW_Lib/AT32F435/drivers/src/i2c_application.c **** 
1076:HW_Lib/AT32F435/drivers/src/i2c_application.c ****   /* send memory address */
1077:HW_Lib/AT32F435/drivers/src/i2c_application.c ****   if(i2c_memory_address_send(hi2c, mem_address_width, mem_address, timeout) != I2C_OK)
ARM GAS  C:\Users\8bit\AppData\Local\Temp\ccxE8K1A.s 			page 66


1078:HW_Lib/AT32F435/drivers/src/i2c_application.c ****   {
1079:HW_Lib/AT32F435/drivers/src/i2c_application.c ****     return I2C_ERR_STEP_3;
1080:HW_Lib/AT32F435/drivers/src/i2c_application.c ****   }
1081:HW_Lib/AT32F435/drivers/src/i2c_application.c **** 
1082:HW_Lib/AT32F435/drivers/src/i2c_application.c ****   hi2c->psize -= mem_address_width;
1083:HW_Lib/AT32F435/drivers/src/i2c_application.c ****   hi2c->pcount -= mem_address_width;
1084:HW_Lib/AT32F435/drivers/src/i2c_application.c **** 
1085:HW_Lib/AT32F435/drivers/src/i2c_application.c ****   while (hi2c->pcount > 0)
1086:HW_Lib/AT32F435/drivers/src/i2c_application.c ****   {
1087:HW_Lib/AT32F435/drivers/src/i2c_application.c ****     /* wait for the tdis flag to be set */
1088:HW_Lib/AT32F435/drivers/src/i2c_application.c ****     if(i2c_wait_flag(hi2c, I2C_TDIS_FLAG, I2C_EVENT_CHECK_ACKFAIL, timeout) != I2C_OK)
1089:HW_Lib/AT32F435/drivers/src/i2c_application.c ****     {
1090:HW_Lib/AT32F435/drivers/src/i2c_application.c ****       return I2C_ERR_STEP_4;
1091:HW_Lib/AT32F435/drivers/src/i2c_application.c ****     }
1092:HW_Lib/AT32F435/drivers/src/i2c_application.c **** 
1093:HW_Lib/AT32F435/drivers/src/i2c_application.c ****     /* send data */
1094:HW_Lib/AT32F435/drivers/src/i2c_application.c ****     i2c_data_send(hi2c->i2cx, *hi2c->pbuff++);
1095:HW_Lib/AT32F435/drivers/src/i2c_application.c ****     hi2c->psize--;
1096:HW_Lib/AT32F435/drivers/src/i2c_application.c ****     hi2c->pcount--;
1097:HW_Lib/AT32F435/drivers/src/i2c_application.c **** 
1098:HW_Lib/AT32F435/drivers/src/i2c_application.c ****     if ((hi2c->psize == 0) && (hi2c->pcount != 0))
1099:HW_Lib/AT32F435/drivers/src/i2c_application.c ****     {
1100:HW_Lib/AT32F435/drivers/src/i2c_application.c ****       /* wait for the tcrld flag to be set  */
1101:HW_Lib/AT32F435/drivers/src/i2c_application.c ****       if (i2c_wait_flag(hi2c, I2C_TCRLD_FLAG, I2C_EVENT_CHECK_ACKFAIL, timeout) != I2C_OK)
1102:HW_Lib/AT32F435/drivers/src/i2c_application.c ****       {
1103:HW_Lib/AT32F435/drivers/src/i2c_application.c ****         return I2C_ERR_STEP_5;
1104:HW_Lib/AT32F435/drivers/src/i2c_application.c ****       }
1105:HW_Lib/AT32F435/drivers/src/i2c_application.c **** 
1106:HW_Lib/AT32F435/drivers/src/i2c_application.c ****       /* continue transfer */
1107:HW_Lib/AT32F435/drivers/src/i2c_application.c ****       i2c_start_transfer(hi2c, address, I2C_WITHOUT_START);
1108:HW_Lib/AT32F435/drivers/src/i2c_application.c ****     }
1109:HW_Lib/AT32F435/drivers/src/i2c_application.c ****   }
1110:HW_Lib/AT32F435/drivers/src/i2c_application.c **** 
1111:HW_Lib/AT32F435/drivers/src/i2c_application.c ****   /* wait for the stop flag to be set  */
1112:HW_Lib/AT32F435/drivers/src/i2c_application.c ****   if(i2c_wait_flag(hi2c, I2C_STOPF_FLAG, I2C_EVENT_CHECK_ACKFAIL, timeout) != I2C_OK)
1113:HW_Lib/AT32F435/drivers/src/i2c_application.c ****   {
1114:HW_Lib/AT32F435/drivers/src/i2c_application.c ****     return I2C_ERR_STEP_6;
1115:HW_Lib/AT32F435/drivers/src/i2c_application.c ****   }
1116:HW_Lib/AT32F435/drivers/src/i2c_application.c **** 
1117:HW_Lib/AT32F435/drivers/src/i2c_application.c ****   /* clear stop flag */
1118:HW_Lib/AT32F435/drivers/src/i2c_application.c ****   i2c_flag_clear(hi2c->i2cx, I2C_STOPF_FLAG);
1119:HW_Lib/AT32F435/drivers/src/i2c_application.c **** 
1120:HW_Lib/AT32F435/drivers/src/i2c_application.c ****   /* reset ctrl2 register */
1121:HW_Lib/AT32F435/drivers/src/i2c_application.c ****   i2c_reset_ctrl2_register(hi2c);
1122:HW_Lib/AT32F435/drivers/src/i2c_application.c **** 
1123:HW_Lib/AT32F435/drivers/src/i2c_application.c ****   return I2C_OK;
1124:HW_Lib/AT32F435/drivers/src/i2c_application.c **** }
 2406              		.loc 1 1124 1 view .LVU677
 2407 0036 2846     		mov	r0, r5
 2408 0038 BDE8F883 		pop	{r3, r4, r5, r6, r7, r8, r9, pc}
 2409              	.LVL238:
 2410              	.L162:
1068:HW_Lib/AT32F435/drivers/src/i2c_application.c **** 
 2411              		.loc 1 1068 3 is_stmt 1 view .LVU678
 2412 003c 4FF40052 		mov	r2, #8192
 2413 0040 3146     		mov	r1, r6
 2414 0042 2046     		mov	r0, r4
ARM GAS  C:\Users\8bit\AppData\Local\Temp\ccxE8K1A.s 			page 67


 2415 0044 FFF7FEFF 		bl	i2c_start_transfer
 2416              	.LVL239:
1071:HW_Lib/AT32F435/drivers/src/i2c_application.c ****   {
 2417              		.loc 1 1071 3 view .LVU679
1071:HW_Lib/AT32F435/drivers/src/i2c_application.c ****   {
 2418              		.loc 1 1071 6 is_stmt 0 view .LVU680
 2419 0048 2B46     		mov	r3, r5
 2420 004a 0122     		movs	r2, #1
 2421 004c 0221     		movs	r1, #2
 2422 004e 2046     		mov	r0, r4
 2423 0050 FFF7FEFF 		bl	i2c_wait_flag
 2424              	.LVL240:
1071:HW_Lib/AT32F435/drivers/src/i2c_application.c ****   {
 2425              		.loc 1 1071 5 view .LVU681
 2426 0054 0028     		cmp	r0, #0
 2427 0056 57D1     		bne	.L156
1077:HW_Lib/AT32F435/drivers/src/i2c_application.c ****   {
 2428              		.loc 1 1077 3 is_stmt 1 view .LVU682
1077:HW_Lib/AT32F435/drivers/src/i2c_application.c ****   {
 2429              		.loc 1 1077 6 is_stmt 0 view .LVU683
 2430 0058 2B46     		mov	r3, r5
 2431 005a 4246     		mov	r2, r8
 2432 005c 3946     		mov	r1, r7
 2433 005e 2046     		mov	r0, r4
 2434 0060 FFF7FEFF 		bl	i2c_memory_address_send
 2435              	.LVL241:
1077:HW_Lib/AT32F435/drivers/src/i2c_application.c ****   {
 2436              		.loc 1 1077 5 view .LVU684
 2437 0064 0028     		cmp	r0, #0
 2438 0066 51D1     		bne	.L157
1082:HW_Lib/AT32F435/drivers/src/i2c_application.c ****   hi2c->pcount -= mem_address_width;
 2439              		.loc 1 1082 3 is_stmt 1 view .LVU685
1082:HW_Lib/AT32F435/drivers/src/i2c_application.c ****   hi2c->pcount -= mem_address_width;
 2440              		.loc 1 1082 15 is_stmt 0 view .LVU686
 2441 0068 2389     		ldrh	r3, [r4, #8]
 2442 006a 9BB2     		uxth	r3, r3
 2443 006c A3EB0903 		sub	r3, r3, r9
 2444 0070 9BB2     		uxth	r3, r3
 2445 0072 2381     		strh	r3, [r4, #8]	@ movhi
1083:HW_Lib/AT32F435/drivers/src/i2c_application.c **** 
 2446              		.loc 1 1083 3 is_stmt 1 view .LVU687
1083:HW_Lib/AT32F435/drivers/src/i2c_application.c **** 
 2447              		.loc 1 1083 16 is_stmt 0 view .LVU688
 2448 0074 6389     		ldrh	r3, [r4, #10]
 2449 0076 9BB2     		uxth	r3, r3
 2450 0078 A3EB0909 		sub	r9, r3, r9
 2451 007c 1FFA89F9 		uxth	r9, r9
 2452 0080 A4F80A90 		strh	r9, [r4, #10]	@ movhi
1085:HW_Lib/AT32F435/drivers/src/i2c_application.c ****   {
 2453              		.loc 1 1085 3 is_stmt 1 view .LVU689
 2454              	.L152:
1085:HW_Lib/AT32F435/drivers/src/i2c_application.c ****   {
 2455              		.loc 1 1085 9 view .LVU690
1085:HW_Lib/AT32F435/drivers/src/i2c_application.c ****   {
 2456              		.loc 1 1085 14 is_stmt 0 view .LVU691
 2457 0084 6389     		ldrh	r3, [r4, #10]
 2458 0086 9BB2     		uxth	r3, r3
ARM GAS  C:\Users\8bit\AppData\Local\Temp\ccxE8K1A.s 			page 68


1085:HW_Lib/AT32F435/drivers/src/i2c_application.c ****   {
 2459              		.loc 1 1085 9 view .LVU692
 2460 0088 002B     		cmp	r3, #0
 2461 008a 2DD0     		beq	.L163
1088:HW_Lib/AT32F435/drivers/src/i2c_application.c ****     {
 2462              		.loc 1 1088 5 is_stmt 1 view .LVU693
1088:HW_Lib/AT32F435/drivers/src/i2c_application.c ****     {
 2463              		.loc 1 1088 8 is_stmt 0 view .LVU694
 2464 008c 2B46     		mov	r3, r5
 2465 008e 0122     		movs	r2, #1
 2466 0090 0221     		movs	r1, #2
 2467 0092 2046     		mov	r0, r4
 2468 0094 FFF7FEFF 		bl	i2c_wait_flag
 2469              	.LVL242:
1088:HW_Lib/AT32F435/drivers/src/i2c_application.c ****     {
 2470              		.loc 1 1088 7 view .LVU695
 2471 0098 0028     		cmp	r0, #0
 2472 009a 39D1     		bne	.L158
1094:HW_Lib/AT32F435/drivers/src/i2c_application.c ****     hi2c->psize--;
 2473              		.loc 1 1094 5 is_stmt 1 view .LVU696
1094:HW_Lib/AT32F435/drivers/src/i2c_application.c ****     hi2c->psize--;
 2474              		.loc 1 1094 36 is_stmt 0 view .LVU697
 2475 009c 6368     		ldr	r3, [r4, #4]
1094:HW_Lib/AT32F435/drivers/src/i2c_application.c ****     hi2c->psize--;
 2476              		.loc 1 1094 43 view .LVU698
 2477 009e 5A1C     		adds	r2, r3, #1
 2478 00a0 6260     		str	r2, [r4, #4]
1094:HW_Lib/AT32F435/drivers/src/i2c_application.c ****     hi2c->psize--;
 2479              		.loc 1 1094 5 view .LVU699
 2480 00a2 1978     		ldrb	r1, [r3]	@ zero_extendqisi2
 2481 00a4 2068     		ldr	r0, [r4]
 2482 00a6 FFF7FEFF 		bl	i2c_data_send
 2483              	.LVL243:
1095:HW_Lib/AT32F435/drivers/src/i2c_application.c ****     hi2c->pcount--;
 2484              		.loc 1 1095 5 is_stmt 1 view .LVU700
1095:HW_Lib/AT32F435/drivers/src/i2c_application.c ****     hi2c->pcount--;
 2485              		.loc 1 1095 9 is_stmt 0 view .LVU701
 2486 00aa 2389     		ldrh	r3, [r4, #8]
 2487 00ac 9BB2     		uxth	r3, r3
1095:HW_Lib/AT32F435/drivers/src/i2c_application.c ****     hi2c->pcount--;
 2488              		.loc 1 1095 16 view .LVU702
 2489 00ae 013B     		subs	r3, r3, #1
 2490 00b0 9BB2     		uxth	r3, r3
 2491 00b2 2381     		strh	r3, [r4, #8]	@ movhi
1096:HW_Lib/AT32F435/drivers/src/i2c_application.c **** 
 2492              		.loc 1 1096 5 is_stmt 1 view .LVU703
1096:HW_Lib/AT32F435/drivers/src/i2c_application.c **** 
 2493              		.loc 1 1096 9 is_stmt 0 view .LVU704
 2494 00b4 6389     		ldrh	r3, [r4, #10]
 2495 00b6 9BB2     		uxth	r3, r3
1096:HW_Lib/AT32F435/drivers/src/i2c_application.c **** 
 2496              		.loc 1 1096 17 view .LVU705
 2497 00b8 013B     		subs	r3, r3, #1
 2498 00ba 9BB2     		uxth	r3, r3
 2499 00bc 6381     		strh	r3, [r4, #10]	@ movhi
1098:HW_Lib/AT32F435/drivers/src/i2c_application.c ****     {
 2500              		.loc 1 1098 5 is_stmt 1 view .LVU706
ARM GAS  C:\Users\8bit\AppData\Local\Temp\ccxE8K1A.s 			page 69


1098:HW_Lib/AT32F435/drivers/src/i2c_application.c ****     {
 2501              		.loc 1 1098 14 is_stmt 0 view .LVU707
 2502 00be 2389     		ldrh	r3, [r4, #8]
 2503 00c0 9BB2     		uxth	r3, r3
1098:HW_Lib/AT32F435/drivers/src/i2c_application.c ****     {
 2504              		.loc 1 1098 8 view .LVU708
 2505 00c2 002B     		cmp	r3, #0
 2506 00c4 DED1     		bne	.L152
1098:HW_Lib/AT32F435/drivers/src/i2c_application.c ****     {
 2507              		.loc 1 1098 36 discriminator 1 view .LVU709
 2508 00c6 6389     		ldrh	r3, [r4, #10]
 2509 00c8 9BB2     		uxth	r3, r3
1098:HW_Lib/AT32F435/drivers/src/i2c_application.c ****     {
 2510              		.loc 1 1098 28 discriminator 1 view .LVU710
 2511 00ca 002B     		cmp	r3, #0
 2512 00cc DAD0     		beq	.L152
1101:HW_Lib/AT32F435/drivers/src/i2c_application.c ****       {
 2513              		.loc 1 1101 7 is_stmt 1 view .LVU711
1101:HW_Lib/AT32F435/drivers/src/i2c_application.c ****       {
 2514              		.loc 1 1101 11 is_stmt 0 view .LVU712
 2515 00ce 2B46     		mov	r3, r5
 2516 00d0 0122     		movs	r2, #1
 2517 00d2 8021     		movs	r1, #128
 2518 00d4 2046     		mov	r0, r4
 2519 00d6 FFF7FEFF 		bl	i2c_wait_flag
 2520              	.LVL244:
1101:HW_Lib/AT32F435/drivers/src/i2c_application.c ****       {
 2521              		.loc 1 1101 10 view .LVU713
 2522 00da D8B9     		cbnz	r0, .L159
1107:HW_Lib/AT32F435/drivers/src/i2c_application.c ****     }
 2523              		.loc 1 1107 7 is_stmt 1 view .LVU714
 2524 00dc 0022     		movs	r2, #0
 2525 00de 3146     		mov	r1, r6
 2526 00e0 2046     		mov	r0, r4
 2527 00e2 FFF7FEFF 		bl	i2c_start_transfer
 2528              	.LVL245:
 2529 00e6 CDE7     		b	.L152
 2530              	.L163:
1112:HW_Lib/AT32F435/drivers/src/i2c_application.c ****   {
 2531              		.loc 1 1112 3 view .LVU715
1112:HW_Lib/AT32F435/drivers/src/i2c_application.c ****   {
 2532              		.loc 1 1112 6 is_stmt 0 view .LVU716
 2533 00e8 2B46     		mov	r3, r5
 2534 00ea 0122     		movs	r2, #1
 2535 00ec 2021     		movs	r1, #32
 2536 00ee 2046     		mov	r0, r4
 2537 00f0 FFF7FEFF 		bl	i2c_wait_flag
 2538              	.LVL246:
1112:HW_Lib/AT32F435/drivers/src/i2c_application.c ****   {
 2539              		.loc 1 1112 5 view .LVU717
 2540 00f4 0546     		mov	r5, r0
 2541 00f6 78B9     		cbnz	r0, .L160
1118:HW_Lib/AT32F435/drivers/src/i2c_application.c **** 
 2542              		.loc 1 1118 3 is_stmt 1 view .LVU718
 2543 00f8 2021     		movs	r1, #32
 2544 00fa 2068     		ldr	r0, [r4]
 2545 00fc FFF7FEFF 		bl	i2c_flag_clear
ARM GAS  C:\Users\8bit\AppData\Local\Temp\ccxE8K1A.s 			page 70


 2546              	.LVL247:
1121:HW_Lib/AT32F435/drivers/src/i2c_application.c **** 
 2547              		.loc 1 1121 3 view .LVU719
 2548 0100 2046     		mov	r0, r4
 2549 0102 FFF7FEFF 		bl	i2c_reset_ctrl2_register
 2550              	.LVL248:
1123:HW_Lib/AT32F435/drivers/src/i2c_application.c **** }
 2551              		.loc 1 1123 3 view .LVU720
1123:HW_Lib/AT32F435/drivers/src/i2c_application.c **** }
 2552              		.loc 1 1123 10 is_stmt 0 view .LVU721
 2553 0106 96E7     		b	.L151
 2554              	.L156:
1073:HW_Lib/AT32F435/drivers/src/i2c_application.c ****   }
 2555              		.loc 1 1073 12 view .LVU722
 2556 0108 0225     		movs	r5, #2
 2557 010a 94E7     		b	.L151
 2558              	.L157:
1079:HW_Lib/AT32F435/drivers/src/i2c_application.c ****   }
 2559              		.loc 1 1079 12 view .LVU723
 2560 010c 0325     		movs	r5, #3
 2561 010e 92E7     		b	.L151
 2562              	.L158:
1090:HW_Lib/AT32F435/drivers/src/i2c_application.c ****     }
 2563              		.loc 1 1090 14 view .LVU724
 2564 0110 0425     		movs	r5, #4
 2565 0112 90E7     		b	.L151
 2566              	.L159:
1103:HW_Lib/AT32F435/drivers/src/i2c_application.c ****       }
 2567              		.loc 1 1103 16 view .LVU725
 2568 0114 0525     		movs	r5, #5
 2569 0116 8EE7     		b	.L151
 2570              	.L160:
1114:HW_Lib/AT32F435/drivers/src/i2c_application.c ****   }
 2571              		.loc 1 1114 12 view .LVU726
 2572 0118 0625     		movs	r5, #6
 2573 011a 8CE7     		b	.L151
 2574              		.cfi_endproc
 2575              	.LFE155:
 2577              		.section	.text.i2c_memory_read,"ax",%progbits
 2578              		.align	1
 2579              		.global	i2c_memory_read
 2580              		.syntax unified
 2581              		.thumb
 2582              		.thumb_func
 2584              	i2c_memory_read:
 2585              	.LVL249:
 2586              	.LFB156:
1125:HW_Lib/AT32F435/drivers/src/i2c_application.c **** 
1126:HW_Lib/AT32F435/drivers/src/i2c_application.c **** /**
1127:HW_Lib/AT32F435/drivers/src/i2c_application.c ****   * @brief  read data from memory device through polling mode.
1128:HW_Lib/AT32F435/drivers/src/i2c_application.c ****   * @param  hi2c: the handle points to the operation information.
1129:HW_Lib/AT32F435/drivers/src/i2c_application.c ****   * @param  mem_address_width: memory address width.
1130:HW_Lib/AT32F435/drivers/src/i2c_application.c ****   *         this parameter can be one of the following values:
1131:HW_Lib/AT32F435/drivers/src/i2c_application.c ****   *         - I2C_MEM_ADDR_WIDIH_8:  memory address is 8 bit 
1132:HW_Lib/AT32F435/drivers/src/i2c_application.c ****   *         - I2C_MEM_ADDR_WIDIH_16:  memory address is 16 bit 
1133:HW_Lib/AT32F435/drivers/src/i2c_application.c ****   * @param  address: memory device address.
1134:HW_Lib/AT32F435/drivers/src/i2c_application.c ****   * @param  mem_address: memory address.
ARM GAS  C:\Users\8bit\AppData\Local\Temp\ccxE8K1A.s 			page 71


1135:HW_Lib/AT32F435/drivers/src/i2c_application.c ****   * @param  pdata: data buffer.
1136:HW_Lib/AT32F435/drivers/src/i2c_application.c ****   * @param  size: data size.
1137:HW_Lib/AT32F435/drivers/src/i2c_application.c ****   * @param  timeout: maximum waiting time.
1138:HW_Lib/AT32F435/drivers/src/i2c_application.c ****   * @retval i2c status.
1139:HW_Lib/AT32F435/drivers/src/i2c_application.c ****   */
1140:HW_Lib/AT32F435/drivers/src/i2c_application.c **** i2c_status_type i2c_memory_read(i2c_handle_type* hi2c, i2c_mem_address_width_type mem_address_width
1141:HW_Lib/AT32F435/drivers/src/i2c_application.c **** {
 2587              		.loc 1 1141 1 is_stmt 1 view -0
 2588              		.cfi_startproc
 2589              		@ args = 12, pretend = 0, frame = 0
 2590              		@ frame_needed = 0, uses_anonymous_args = 0
 2591              		.loc 1 1141 1 is_stmt 0 view .LVU728
 2592 0000 2DE9F041 		push	{r4, r5, r6, r7, r8, lr}
 2593              	.LCFI26:
 2594              		.cfi_def_cfa_offset 24
 2595              		.cfi_offset 4, -24
 2596              		.cfi_offset 5, -20
 2597              		.cfi_offset 6, -16
 2598              		.cfi_offset 7, -12
 2599              		.cfi_offset 8, -8
 2600              		.cfi_offset 14, -4
 2601 0004 82B0     		sub	sp, sp, #8
 2602              	.LCFI27:
 2603              		.cfi_def_cfa_offset 32
 2604 0006 0446     		mov	r4, r0
 2605 0008 0F46     		mov	r7, r1
 2606 000a 1646     		mov	r6, r2
 2607 000c 9846     		mov	r8, r3
 2608 000e 0A9D     		ldr	r5, [sp, #40]
1142:HW_Lib/AT32F435/drivers/src/i2c_application.c ****   /* initialization parameters */
1143:HW_Lib/AT32F435/drivers/src/i2c_application.c ****   hi2c->pbuff = pdata;
 2609              		.loc 1 1143 3 is_stmt 1 view .LVU729
 2610              		.loc 1 1143 15 is_stmt 0 view .LVU730
 2611 0010 089B     		ldr	r3, [sp, #32]
 2612              	.LVL250:
 2613              		.loc 1 1143 15 view .LVU731
 2614 0012 4360     		str	r3, [r0, #4]
1144:HW_Lib/AT32F435/drivers/src/i2c_application.c ****   hi2c->pcount = size;
 2615              		.loc 1 1144 3 is_stmt 1 view .LVU732
 2616              		.loc 1 1144 16 is_stmt 0 view .LVU733
 2617 0014 BDF82430 		ldrh	r3, [sp, #36]
 2618 0018 4381     		strh	r3, [r0, #10]	@ movhi
1145:HW_Lib/AT32F435/drivers/src/i2c_application.c **** 
1146:HW_Lib/AT32F435/drivers/src/i2c_application.c ****   hi2c->error_code = I2C_OK;
 2619              		.loc 1 1146 3 is_stmt 1 view .LVU734
 2620              		.loc 1 1146 20 is_stmt 0 view .LVU735
 2621 001a 0022     		movs	r2, #0
 2622              	.LVL251:
 2623              		.loc 1 1146 20 view .LVU736
 2624 001c 0275     		strb	r2, [r0, #20]
1147:HW_Lib/AT32F435/drivers/src/i2c_application.c **** 
1148:HW_Lib/AT32F435/drivers/src/i2c_application.c ****   /* wait for the busy flag to be reset */
1149:HW_Lib/AT32F435/drivers/src/i2c_application.c ****   if(i2c_wait_flag(hi2c, I2C_BUSYF_FLAG, I2C_EVENT_CHECK_NONE, timeout) != I2C_OK)
 2625              		.loc 1 1149 3 is_stmt 1 view .LVU737
 2626              		.loc 1 1149 6 is_stmt 0 view .LVU738
 2627 001e 2B46     		mov	r3, r5
 2628 0020 4FF40041 		mov	r1, #32768
ARM GAS  C:\Users\8bit\AppData\Local\Temp\ccxE8K1A.s 			page 72


 2629              	.LVL252:
 2630              		.loc 1 1149 6 view .LVU739
 2631 0024 FFF7FEFF 		bl	i2c_wait_flag
 2632              	.LVL253:
 2633              		.loc 1 1149 5 view .LVU740
 2634 0028 20B1     		cbz	r0, .L177
1150:HW_Lib/AT32F435/drivers/src/i2c_application.c ****   {
1151:HW_Lib/AT32F435/drivers/src/i2c_application.c ****     return I2C_ERR_STEP_1;
 2635              		.loc 1 1151 12 view .LVU741
 2636 002a 0125     		movs	r5, #1
 2637              	.L165:
1152:HW_Lib/AT32F435/drivers/src/i2c_application.c ****   }
1153:HW_Lib/AT32F435/drivers/src/i2c_application.c **** 
1154:HW_Lib/AT32F435/drivers/src/i2c_application.c ****   /* start transfer */
1155:HW_Lib/AT32F435/drivers/src/i2c_application.c ****   i2c_transmit_set(hi2c->i2cx, address, mem_address_width, I2C_SOFT_STOP_MODE, I2C_GEN_START_WRITE)
1156:HW_Lib/AT32F435/drivers/src/i2c_application.c **** 
1157:HW_Lib/AT32F435/drivers/src/i2c_application.c ****   /* wait for the tdis flag to be set */
1158:HW_Lib/AT32F435/drivers/src/i2c_application.c ****   if(i2c_wait_flag(hi2c, I2C_TDIS_FLAG, I2C_EVENT_CHECK_ACKFAIL, timeout) != I2C_OK)
1159:HW_Lib/AT32F435/drivers/src/i2c_application.c ****   {
1160:HW_Lib/AT32F435/drivers/src/i2c_application.c ****     return I2C_ERR_STEP_2;
1161:HW_Lib/AT32F435/drivers/src/i2c_application.c ****   }
1162:HW_Lib/AT32F435/drivers/src/i2c_application.c **** 
1163:HW_Lib/AT32F435/drivers/src/i2c_application.c ****   /* send memory address */
1164:HW_Lib/AT32F435/drivers/src/i2c_application.c ****   if(i2c_memory_address_send(hi2c, mem_address_width, mem_address, timeout) != I2C_OK)
1165:HW_Lib/AT32F435/drivers/src/i2c_application.c ****   {
1166:HW_Lib/AT32F435/drivers/src/i2c_application.c ****     return I2C_ERR_STEP_3;
1167:HW_Lib/AT32F435/drivers/src/i2c_application.c ****   }
1168:HW_Lib/AT32F435/drivers/src/i2c_application.c **** 
1169:HW_Lib/AT32F435/drivers/src/i2c_application.c ****   /* wait for the tdc flag to be set */
1170:HW_Lib/AT32F435/drivers/src/i2c_application.c ****   if (i2c_wait_flag(hi2c, I2C_TDC_FLAG, I2C_EVENT_CHECK_NONE, timeout) != I2C_OK)
1171:HW_Lib/AT32F435/drivers/src/i2c_application.c ****   {
1172:HW_Lib/AT32F435/drivers/src/i2c_application.c ****     return I2C_ERR_STEP_4;
1173:HW_Lib/AT32F435/drivers/src/i2c_application.c ****   }
1174:HW_Lib/AT32F435/drivers/src/i2c_application.c **** 
1175:HW_Lib/AT32F435/drivers/src/i2c_application.c ****   /* start transfer */
1176:HW_Lib/AT32F435/drivers/src/i2c_application.c ****   i2c_start_transfer(hi2c, address, I2C_GEN_START_READ);
1177:HW_Lib/AT32F435/drivers/src/i2c_application.c **** 
1178:HW_Lib/AT32F435/drivers/src/i2c_application.c ****   while (hi2c->pcount > 0)
1179:HW_Lib/AT32F435/drivers/src/i2c_application.c ****   {
1180:HW_Lib/AT32F435/drivers/src/i2c_application.c ****     /* wait for the rdbf flag to be set  */
1181:HW_Lib/AT32F435/drivers/src/i2c_application.c ****     if (i2c_wait_flag(hi2c, I2C_RDBF_FLAG, I2C_EVENT_CHECK_ACKFAIL, timeout) != I2C_OK)
1182:HW_Lib/AT32F435/drivers/src/i2c_application.c ****     {
1183:HW_Lib/AT32F435/drivers/src/i2c_application.c ****       return I2C_ERR_STEP_5;
1184:HW_Lib/AT32F435/drivers/src/i2c_application.c ****     }
1185:HW_Lib/AT32F435/drivers/src/i2c_application.c **** 
1186:HW_Lib/AT32F435/drivers/src/i2c_application.c ****     /* read data */
1187:HW_Lib/AT32F435/drivers/src/i2c_application.c ****     (*hi2c->pbuff++) = i2c_data_receive(hi2c->i2cx);
1188:HW_Lib/AT32F435/drivers/src/i2c_application.c ****     hi2c->pcount--;
1189:HW_Lib/AT32F435/drivers/src/i2c_application.c ****     hi2c->psize--;
1190:HW_Lib/AT32F435/drivers/src/i2c_application.c **** 
1191:HW_Lib/AT32F435/drivers/src/i2c_application.c ****     if ((hi2c->psize == 0) && (hi2c->pcount != 0))
1192:HW_Lib/AT32F435/drivers/src/i2c_application.c ****     {
1193:HW_Lib/AT32F435/drivers/src/i2c_application.c ****       /* wait for the tcrld flag to be set  */
1194:HW_Lib/AT32F435/drivers/src/i2c_application.c ****       if (i2c_wait_flag(hi2c, I2C_TCRLD_FLAG, I2C_EVENT_CHECK_NONE, timeout) != I2C_OK)
1195:HW_Lib/AT32F435/drivers/src/i2c_application.c ****       {
1196:HW_Lib/AT32F435/drivers/src/i2c_application.c ****         return I2C_ERR_STEP_6;
1197:HW_Lib/AT32F435/drivers/src/i2c_application.c ****       }
ARM GAS  C:\Users\8bit\AppData\Local\Temp\ccxE8K1A.s 			page 73


1198:HW_Lib/AT32F435/drivers/src/i2c_application.c **** 
1199:HW_Lib/AT32F435/drivers/src/i2c_application.c ****       /* continue transfer */
1200:HW_Lib/AT32F435/drivers/src/i2c_application.c ****       i2c_start_transfer(hi2c, address, I2C_WITHOUT_START);
1201:HW_Lib/AT32F435/drivers/src/i2c_application.c ****     }
1202:HW_Lib/AT32F435/drivers/src/i2c_application.c ****   }
1203:HW_Lib/AT32F435/drivers/src/i2c_application.c **** 
1204:HW_Lib/AT32F435/drivers/src/i2c_application.c ****   /* wait for the stop flag to be set  */
1205:HW_Lib/AT32F435/drivers/src/i2c_application.c ****   if (i2c_wait_flag(hi2c, I2C_STOPF_FLAG, I2C_EVENT_CHECK_ACKFAIL, timeout) != I2C_OK)
1206:HW_Lib/AT32F435/drivers/src/i2c_application.c ****   {
1207:HW_Lib/AT32F435/drivers/src/i2c_application.c ****     return I2C_ERR_STEP_7;
1208:HW_Lib/AT32F435/drivers/src/i2c_application.c ****   }
1209:HW_Lib/AT32F435/drivers/src/i2c_application.c **** 
1210:HW_Lib/AT32F435/drivers/src/i2c_application.c ****   /* clear stop flag */
1211:HW_Lib/AT32F435/drivers/src/i2c_application.c ****   i2c_flag_clear(hi2c->i2cx, I2C_STOPF_FLAG);
1212:HW_Lib/AT32F435/drivers/src/i2c_application.c **** 
1213:HW_Lib/AT32F435/drivers/src/i2c_application.c ****   /* reset ctrl2 register */
1214:HW_Lib/AT32F435/drivers/src/i2c_application.c ****   i2c_reset_ctrl2_register(hi2c);
1215:HW_Lib/AT32F435/drivers/src/i2c_application.c **** 
1216:HW_Lib/AT32F435/drivers/src/i2c_application.c ****   return I2C_OK;
1217:HW_Lib/AT32F435/drivers/src/i2c_application.c **** }
 2638              		.loc 1 1217 1 view .LVU742
 2639 002c 2846     		mov	r0, r5
 2640 002e 02B0     		add	sp, sp, #8
 2641              	.LCFI28:
 2642              		.cfi_remember_state
 2643              		.cfi_def_cfa_offset 24
 2644              		@ sp needed
 2645 0030 BDE8F081 		pop	{r4, r5, r6, r7, r8, pc}
 2646              	.LVL254:
 2647              	.L177:
 2648              	.LCFI29:
 2649              		.cfi_restore_state
1155:HW_Lib/AT32F435/drivers/src/i2c_application.c **** 
 2650              		.loc 1 1155 3 is_stmt 1 view .LVU743
 2651 0034 4FF40053 		mov	r3, #8192
 2652 0038 0093     		str	r3, [sp]
 2653 003a 0023     		movs	r3, #0
 2654 003c 3A46     		mov	r2, r7
 2655 003e 3146     		mov	r1, r6
 2656 0040 2068     		ldr	r0, [r4]
 2657 0042 FFF7FEFF 		bl	i2c_transmit_set
 2658              	.LVL255:
1158:HW_Lib/AT32F435/drivers/src/i2c_application.c ****   {
 2659              		.loc 1 1158 3 view .LVU744
1158:HW_Lib/AT32F435/drivers/src/i2c_application.c ****   {
 2660              		.loc 1 1158 6 is_stmt 0 view .LVU745
 2661 0046 2B46     		mov	r3, r5
 2662 0048 0122     		movs	r2, #1
 2663 004a 0221     		movs	r1, #2
 2664 004c 2046     		mov	r0, r4
 2665 004e FFF7FEFF 		bl	i2c_wait_flag
 2666              	.LVL256:
1158:HW_Lib/AT32F435/drivers/src/i2c_application.c ****   {
 2667              		.loc 1 1158 5 view .LVU746
 2668 0052 0028     		cmp	r0, #0
 2669 0054 57D1     		bne	.L170
1164:HW_Lib/AT32F435/drivers/src/i2c_application.c ****   {
ARM GAS  C:\Users\8bit\AppData\Local\Temp\ccxE8K1A.s 			page 74


 2670              		.loc 1 1164 3 is_stmt 1 view .LVU747
1164:HW_Lib/AT32F435/drivers/src/i2c_application.c ****   {
 2671              		.loc 1 1164 6 is_stmt 0 view .LVU748
 2672 0056 2B46     		mov	r3, r5
 2673 0058 4246     		mov	r2, r8
 2674 005a 3946     		mov	r1, r7
 2675 005c 2046     		mov	r0, r4
 2676 005e FFF7FEFF 		bl	i2c_memory_address_send
 2677              	.LVL257:
1164:HW_Lib/AT32F435/drivers/src/i2c_application.c ****   {
 2678              		.loc 1 1164 5 view .LVU749
 2679 0062 0028     		cmp	r0, #0
 2680 0064 51D1     		bne	.L171
1170:HW_Lib/AT32F435/drivers/src/i2c_application.c ****   {
 2681              		.loc 1 1170 3 is_stmt 1 view .LVU750
1170:HW_Lib/AT32F435/drivers/src/i2c_application.c ****   {
 2682              		.loc 1 1170 7 is_stmt 0 view .LVU751
 2683 0066 2B46     		mov	r3, r5
 2684 0068 0022     		movs	r2, #0
 2685 006a 4021     		movs	r1, #64
 2686 006c 2046     		mov	r0, r4
 2687 006e FFF7FEFF 		bl	i2c_wait_flag
 2688              	.LVL258:
1170:HW_Lib/AT32F435/drivers/src/i2c_application.c ****   {
 2689              		.loc 1 1170 6 view .LVU752
 2690 0072 0028     		cmp	r0, #0
 2691 0074 4BD1     		bne	.L172
1176:HW_Lib/AT32F435/drivers/src/i2c_application.c **** 
 2692              		.loc 1 1176 3 is_stmt 1 view .LVU753
 2693 0076 4FF41052 		mov	r2, #9216
 2694 007a 3146     		mov	r1, r6
 2695 007c 2046     		mov	r0, r4
 2696 007e FFF7FEFF 		bl	i2c_start_transfer
 2697              	.LVL259:
1178:HW_Lib/AT32F435/drivers/src/i2c_application.c ****   {
 2698              		.loc 1 1178 3 view .LVU754
 2699              	.L166:
1178:HW_Lib/AT32F435/drivers/src/i2c_application.c ****   {
 2700              		.loc 1 1178 9 view .LVU755
1178:HW_Lib/AT32F435/drivers/src/i2c_application.c ****   {
 2701              		.loc 1 1178 14 is_stmt 0 view .LVU756
 2702 0082 6389     		ldrh	r3, [r4, #10]
 2703 0084 9BB2     		uxth	r3, r3
1178:HW_Lib/AT32F435/drivers/src/i2c_application.c ****   {
 2704              		.loc 1 1178 9 view .LVU757
 2705 0086 002B     		cmp	r3, #0
 2706 0088 2DD0     		beq	.L178
1181:HW_Lib/AT32F435/drivers/src/i2c_application.c ****     {
 2707              		.loc 1 1181 5 is_stmt 1 view .LVU758
1181:HW_Lib/AT32F435/drivers/src/i2c_application.c ****     {
 2708              		.loc 1 1181 9 is_stmt 0 view .LVU759
 2709 008a 2B46     		mov	r3, r5
 2710 008c 0122     		movs	r2, #1
 2711 008e 0421     		movs	r1, #4
 2712 0090 2046     		mov	r0, r4
 2713 0092 FFF7FEFF 		bl	i2c_wait_flag
 2714              	.LVL260:
ARM GAS  C:\Users\8bit\AppData\Local\Temp\ccxE8K1A.s 			page 75


1181:HW_Lib/AT32F435/drivers/src/i2c_application.c ****     {
 2715              		.loc 1 1181 8 view .LVU760
 2716 0096 0028     		cmp	r0, #0
 2717 0098 3BD1     		bne	.L173
1187:HW_Lib/AT32F435/drivers/src/i2c_application.c ****     hi2c->pcount--;
 2718              		.loc 1 1187 5 is_stmt 1 view .LVU761
1187:HW_Lib/AT32F435/drivers/src/i2c_application.c ****     hi2c->pcount--;
 2719              		.loc 1 1187 11 is_stmt 0 view .LVU762
 2720 009a 6768     		ldr	r7, [r4, #4]
1187:HW_Lib/AT32F435/drivers/src/i2c_application.c ****     hi2c->pcount--;
 2721              		.loc 1 1187 18 view .LVU763
 2722 009c 7B1C     		adds	r3, r7, #1
 2723 009e 6360     		str	r3, [r4, #4]
1187:HW_Lib/AT32F435/drivers/src/i2c_application.c ****     hi2c->pcount--;
 2724              		.loc 1 1187 24 view .LVU764
 2725 00a0 2068     		ldr	r0, [r4]
 2726 00a2 FFF7FEFF 		bl	i2c_data_receive
 2727              	.LVL261:
1187:HW_Lib/AT32F435/drivers/src/i2c_application.c ****     hi2c->pcount--;
 2728              		.loc 1 1187 22 view .LVU765
 2729 00a6 3870     		strb	r0, [r7]
1188:HW_Lib/AT32F435/drivers/src/i2c_application.c ****     hi2c->psize--;
 2730              		.loc 1 1188 5 is_stmt 1 view .LVU766
1188:HW_Lib/AT32F435/drivers/src/i2c_application.c ****     hi2c->psize--;
 2731              		.loc 1 1188 9 is_stmt 0 view .LVU767
 2732 00a8 6389     		ldrh	r3, [r4, #10]
 2733 00aa 9BB2     		uxth	r3, r3
1188:HW_Lib/AT32F435/drivers/src/i2c_application.c ****     hi2c->psize--;
 2734              		.loc 1 1188 17 view .LVU768
 2735 00ac 013B     		subs	r3, r3, #1
 2736 00ae 9BB2     		uxth	r3, r3
 2737 00b0 6381     		strh	r3, [r4, #10]	@ movhi
1189:HW_Lib/AT32F435/drivers/src/i2c_application.c **** 
 2738              		.loc 1 1189 5 is_stmt 1 view .LVU769
1189:HW_Lib/AT32F435/drivers/src/i2c_application.c **** 
 2739              		.loc 1 1189 9 is_stmt 0 view .LVU770
 2740 00b2 2389     		ldrh	r3, [r4, #8]
 2741 00b4 9BB2     		uxth	r3, r3
1189:HW_Lib/AT32F435/drivers/src/i2c_application.c **** 
 2742              		.loc 1 1189 16 view .LVU771
 2743 00b6 013B     		subs	r3, r3, #1
 2744 00b8 9BB2     		uxth	r3, r3
 2745 00ba 2381     		strh	r3, [r4, #8]	@ movhi
1191:HW_Lib/AT32F435/drivers/src/i2c_application.c ****     {
 2746              		.loc 1 1191 5 is_stmt 1 view .LVU772
1191:HW_Lib/AT32F435/drivers/src/i2c_application.c ****     {
 2747              		.loc 1 1191 14 is_stmt 0 view .LVU773
 2748 00bc 2389     		ldrh	r3, [r4, #8]
 2749 00be 9BB2     		uxth	r3, r3
1191:HW_Lib/AT32F435/drivers/src/i2c_application.c ****     {
 2750              		.loc 1 1191 8 view .LVU774
 2751 00c0 002B     		cmp	r3, #0
 2752 00c2 DED1     		bne	.L166
1191:HW_Lib/AT32F435/drivers/src/i2c_application.c ****     {
 2753              		.loc 1 1191 36 discriminator 1 view .LVU775
 2754 00c4 6389     		ldrh	r3, [r4, #10]
 2755 00c6 9BB2     		uxth	r3, r3
ARM GAS  C:\Users\8bit\AppData\Local\Temp\ccxE8K1A.s 			page 76


1191:HW_Lib/AT32F435/drivers/src/i2c_application.c ****     {
 2756              		.loc 1 1191 28 discriminator 1 view .LVU776
 2757 00c8 002B     		cmp	r3, #0
 2758 00ca DAD0     		beq	.L166
1194:HW_Lib/AT32F435/drivers/src/i2c_application.c ****       {
 2759              		.loc 1 1194 7 is_stmt 1 view .LVU777
1194:HW_Lib/AT32F435/drivers/src/i2c_application.c ****       {
 2760              		.loc 1 1194 11 is_stmt 0 view .LVU778
 2761 00cc 2B46     		mov	r3, r5
 2762 00ce 0022     		movs	r2, #0
 2763 00d0 8021     		movs	r1, #128
 2764 00d2 2046     		mov	r0, r4
 2765 00d4 FFF7FEFF 		bl	i2c_wait_flag
 2766              	.LVL262:
1194:HW_Lib/AT32F435/drivers/src/i2c_application.c ****       {
 2767              		.loc 1 1194 10 view .LVU779
 2768 00d8 E8B9     		cbnz	r0, .L174
1200:HW_Lib/AT32F435/drivers/src/i2c_application.c ****     }
 2769              		.loc 1 1200 7 is_stmt 1 view .LVU780
 2770 00da 0022     		movs	r2, #0
 2771 00dc 3146     		mov	r1, r6
 2772 00de 2046     		mov	r0, r4
 2773 00e0 FFF7FEFF 		bl	i2c_start_transfer
 2774              	.LVL263:
 2775 00e4 CDE7     		b	.L166
 2776              	.L178:
1205:HW_Lib/AT32F435/drivers/src/i2c_application.c ****   {
 2777              		.loc 1 1205 3 view .LVU781
1205:HW_Lib/AT32F435/drivers/src/i2c_application.c ****   {
 2778              		.loc 1 1205 7 is_stmt 0 view .LVU782
 2779 00e6 2B46     		mov	r3, r5
 2780 00e8 0122     		movs	r2, #1
 2781 00ea 2021     		movs	r1, #32
 2782 00ec 2046     		mov	r0, r4
 2783 00ee FFF7FEFF 		bl	i2c_wait_flag
 2784              	.LVL264:
1205:HW_Lib/AT32F435/drivers/src/i2c_application.c ****   {
 2785              		.loc 1 1205 6 view .LVU783
 2786 00f2 0546     		mov	r5, r0
 2787 00f4 88B9     		cbnz	r0, .L175
1211:HW_Lib/AT32F435/drivers/src/i2c_application.c **** 
 2788              		.loc 1 1211 3 is_stmt 1 view .LVU784
 2789 00f6 2021     		movs	r1, #32
 2790 00f8 2068     		ldr	r0, [r4]
 2791 00fa FFF7FEFF 		bl	i2c_flag_clear
 2792              	.LVL265:
1214:HW_Lib/AT32F435/drivers/src/i2c_application.c **** 
 2793              		.loc 1 1214 3 view .LVU785
 2794 00fe 2046     		mov	r0, r4
 2795 0100 FFF7FEFF 		bl	i2c_reset_ctrl2_register
 2796              	.LVL266:
1216:HW_Lib/AT32F435/drivers/src/i2c_application.c **** }
 2797              		.loc 1 1216 3 view .LVU786
1216:HW_Lib/AT32F435/drivers/src/i2c_application.c **** }
 2798              		.loc 1 1216 10 is_stmt 0 view .LVU787
 2799 0104 92E7     		b	.L165
 2800              	.L170:
ARM GAS  C:\Users\8bit\AppData\Local\Temp\ccxE8K1A.s 			page 77


1160:HW_Lib/AT32F435/drivers/src/i2c_application.c ****   }
 2801              		.loc 1 1160 12 view .LVU788
 2802 0106 0225     		movs	r5, #2
 2803 0108 90E7     		b	.L165
 2804              	.L171:
1166:HW_Lib/AT32F435/drivers/src/i2c_application.c ****   }
 2805              		.loc 1 1166 12 view .LVU789
 2806 010a 0325     		movs	r5, #3
 2807 010c 8EE7     		b	.L165
 2808              	.L172:
1172:HW_Lib/AT32F435/drivers/src/i2c_application.c ****   }
 2809              		.loc 1 1172 12 view .LVU790
 2810 010e 0425     		movs	r5, #4
 2811 0110 8CE7     		b	.L165
 2812              	.L173:
1183:HW_Lib/AT32F435/drivers/src/i2c_application.c ****     }
 2813              		.loc 1 1183 14 view .LVU791
 2814 0112 0525     		movs	r5, #5
 2815 0114 8AE7     		b	.L165
 2816              	.L174:
1196:HW_Lib/AT32F435/drivers/src/i2c_application.c ****       }
 2817              		.loc 1 1196 16 view .LVU792
 2818 0116 0625     		movs	r5, #6
 2819 0118 88E7     		b	.L165
 2820              	.L175:
1207:HW_Lib/AT32F435/drivers/src/i2c_application.c ****   }
 2821              		.loc 1 1207 12 view .LVU793
 2822 011a 0725     		movs	r5, #7
 2823 011c 86E7     		b	.L165
 2824              		.cfi_endproc
 2825              	.LFE156:
 2827              		.section	.text.i2c_memory_write_int,"ax",%progbits
 2828              		.align	1
 2829              		.global	i2c_memory_write_int
 2830              		.syntax unified
 2831              		.thumb
 2832              		.thumb_func
 2834              	i2c_memory_write_int:
 2835              	.LVL267:
 2836              	.LFB157:
1218:HW_Lib/AT32F435/drivers/src/i2c_application.c **** 
1219:HW_Lib/AT32F435/drivers/src/i2c_application.c **** /**
1220:HW_Lib/AT32F435/drivers/src/i2c_application.c ****   * @brief  write data to the memory device through interrupt mode.
1221:HW_Lib/AT32F435/drivers/src/i2c_application.c ****   * @param  hi2c: the handle points to the operation information.
1222:HW_Lib/AT32F435/drivers/src/i2c_application.c ****   * @param  mem_address_width: memory address width.
1223:HW_Lib/AT32F435/drivers/src/i2c_application.c ****   *         this parameter can be one of the following values:
1224:HW_Lib/AT32F435/drivers/src/i2c_application.c ****   *         - I2C_MEM_ADDR_WIDIH_8:  memory address is 8 bit 
1225:HW_Lib/AT32F435/drivers/src/i2c_application.c ****   *         - I2C_MEM_ADDR_WIDIH_16:  memory address is 16 bit 
1226:HW_Lib/AT32F435/drivers/src/i2c_application.c ****   * @param  address: memory device address.
1227:HW_Lib/AT32F435/drivers/src/i2c_application.c ****   * @param  mem_address: memory address.
1228:HW_Lib/AT32F435/drivers/src/i2c_application.c ****   * @param  pdata: data buffer.
1229:HW_Lib/AT32F435/drivers/src/i2c_application.c ****   * @param  size: data size.
1230:HW_Lib/AT32F435/drivers/src/i2c_application.c ****   * @param  timeout: maximum waiting time.
1231:HW_Lib/AT32F435/drivers/src/i2c_application.c ****   * @retval i2c status.
1232:HW_Lib/AT32F435/drivers/src/i2c_application.c ****   */
1233:HW_Lib/AT32F435/drivers/src/i2c_application.c **** i2c_status_type i2c_memory_write_int(i2c_handle_type* hi2c, i2c_mem_address_width_type mem_address_
1234:HW_Lib/AT32F435/drivers/src/i2c_application.c **** {
ARM GAS  C:\Users\8bit\AppData\Local\Temp\ccxE8K1A.s 			page 78


 2837              		.loc 1 1234 1 is_stmt 1 view -0
 2838              		.cfi_startproc
 2839              		@ args = 12, pretend = 0, frame = 0
 2840              		@ frame_needed = 0, uses_anonymous_args = 0
 2841              		.loc 1 1234 1 is_stmt 0 view .LVU795
 2842 0000 2DE9F041 		push	{r4, r5, r6, r7, r8, lr}
 2843              	.LCFI30:
 2844              		.cfi_def_cfa_offset 24
 2845              		.cfi_offset 4, -24
 2846              		.cfi_offset 5, -20
 2847              		.cfi_offset 6, -16
 2848              		.cfi_offset 7, -12
 2849              		.cfi_offset 8, -8
 2850              		.cfi_offset 14, -4
 2851 0004 0446     		mov	r4, r0
 2852 0006 0D46     		mov	r5, r1
 2853 0008 1646     		mov	r6, r2
 2854 000a 1F46     		mov	r7, r3
 2855 000c DDF82080 		ldr	r8, [sp, #32]
1235:HW_Lib/AT32F435/drivers/src/i2c_application.c ****   /* initialization parameters */
1236:HW_Lib/AT32F435/drivers/src/i2c_application.c ****   hi2c->mode   = I2C_INT_MA_TX;
 2856              		.loc 1 1236 3 is_stmt 1 view .LVU796
 2857              		.loc 1 1236 16 is_stmt 0 view .LVU797
 2858 0010 0022     		movs	r2, #0
 2859              	.LVL268:
 2860              		.loc 1 1236 16 view .LVU798
 2861 0012 C260     		str	r2, [r0, #12]
1237:HW_Lib/AT32F435/drivers/src/i2c_application.c ****   hi2c->status = I2C_START;
 2862              		.loc 1 1237 3 is_stmt 1 view .LVU799
 2863              		.loc 1 1237 16 is_stmt 0 view .LVU800
 2864 0014 0261     		str	r2, [r0, #16]
1238:HW_Lib/AT32F435/drivers/src/i2c_application.c **** 
1239:HW_Lib/AT32F435/drivers/src/i2c_application.c ****   hi2c->pbuff  = pdata;
 2865              		.loc 1 1239 3 is_stmt 1 view .LVU801
 2866              		.loc 1 1239 16 is_stmt 0 view .LVU802
 2867 0016 069B     		ldr	r3, [sp, #24]
 2868              	.LVL269:
 2869              		.loc 1 1239 16 view .LVU803
 2870 0018 4360     		str	r3, [r0, #4]
1240:HW_Lib/AT32F435/drivers/src/i2c_application.c ****   hi2c->pcount = size + mem_address_width;
 2871              		.loc 1 1240 3 is_stmt 1 view .LVU804
 2872              		.loc 1 1240 23 is_stmt 0 view .LVU805
 2873 001a BDF81CC0 		ldrh	ip, [sp, #28]
 2874 001e 8C44     		add	ip, ip, r1
 2875 0020 1FFA8CFC 		uxth	ip, ip
 2876              		.loc 1 1240 16 view .LVU806
 2877 0024 A0F80AC0 		strh	ip, [r0, #10]	@ movhi
1241:HW_Lib/AT32F435/drivers/src/i2c_application.c **** 
1242:HW_Lib/AT32F435/drivers/src/i2c_application.c ****   hi2c->error_code = I2C_OK;
 2878              		.loc 1 1242 3 is_stmt 1 view .LVU807
 2879              		.loc 1 1242 20 is_stmt 0 view .LVU808
 2880 0028 0275     		strb	r2, [r0, #20]
1243:HW_Lib/AT32F435/drivers/src/i2c_application.c **** 
1244:HW_Lib/AT32F435/drivers/src/i2c_application.c ****   /* wait for the busy flag to be reset */
1245:HW_Lib/AT32F435/drivers/src/i2c_application.c ****   if (i2c_wait_flag(hi2c, I2C_BUSYF_FLAG, I2C_EVENT_CHECK_NONE, timeout) != I2C_OK)
