ARM GAS  C:\Users\HUAV\AppData\Local\Temp\ccEuZLvS.s 			page 1


   1              		.cpu cortex-m7
   2              		.arch armv7e-m
   3              		.fpu fpv5-d16
   4              		.eabi_attribute 28, 1
   5              		.eabi_attribute 20, 1
   6              		.eabi_attribute 21, 1
   7              		.eabi_attribute 23, 3
   8              		.eabi_attribute 24, 1
   9              		.eabi_attribute 25, 1
  10              		.eabi_attribute 26, 1
  11              		.eabi_attribute 30, 1
  12              		.eabi_attribute 34, 1
  13              		.eabi_attribute 18, 4
  14              		.file	"linked_list.c"
  15              		.text
  16              	.Ltext0:
  17              		.cfi_sections	.debug_frame
  18              		.section	.text.Item_SwapLRData,"ax",%progbits
  19              		.align	1
  20              		.syntax unified
  21              		.thumb
  22              		.thumb_func
  24              	Item_SwapLRData:
  25              	.LVL0:
  26              	.LFB1:
  27              		.file 1 "DataStructure/linked_list.c"
   1:DataStructure/linked_list.c **** #include "linked_list.h"
   2:DataStructure/linked_list.c **** #include <string.h>
   3:DataStructure/linked_list.c **** 
   4:DataStructure/linked_list.c **** void List_Init(list_obj *list, item_obj *first_item, list_arrangement_mode mode, item_compare_callb
   5:DataStructure/linked_list.c **** {
   6:DataStructure/linked_list.c ****     // if ((first_item != NULL) && (first_item->data != NULL))
   7:DataStructure/linked_list.c ****     // {
   8:DataStructure/linked_list.c ****     list->data = first_item->data;
   9:DataStructure/linked_list.c ****     list->nxt = first_item->nxt;
  10:DataStructure/linked_list.c **** 
  11:DataStructure/linked_list.c ****     first_item->compare_callback = callback;
  12:DataStructure/linked_list.c ****     first_item->mode = mode;
  13:DataStructure/linked_list.c ****     // }
  14:DataStructure/linked_list.c ****     // else
  15:DataStructure/linked_list.c ****     //     list->nxt = NULL;
  16:DataStructure/linked_list.c **** 
  17:DataStructure/linked_list.c ****     list->mode = mode;
  18:DataStructure/linked_list.c ****     list->compare_callback = callback;
  19:DataStructure/linked_list.c **** 
  20:DataStructure/linked_list.c ****     list->prv = NULL;
  21:DataStructure/linked_list.c **** }
  22:DataStructure/linked_list.c **** 
  23:DataStructure/linked_list.c **** static void Item_SwapLRData(item_obj *item_L, item_obj *item_R)
  24:DataStructure/linked_list.c **** {
  28              		.loc 1 24 1 view -0
  29              		.cfi_startproc
  30              		@ args = 0, pretend = 0, frame = 0
  31              		@ frame_needed = 0, uses_anonymous_args = 0
  32              		@ link register save eliminated.
  25:DataStructure/linked_list.c ****     void *data_tmp;
  33              		.loc 1 25 5 view .LVU1
ARM GAS  C:\Users\HUAV\AppData\Local\Temp\ccEuZLvS.s 			page 2


  26:DataStructure/linked_list.c **** 
  27:DataStructure/linked_list.c ****     data_tmp = item_L->data;
  34              		.loc 1 27 5 view .LVU2
  35              		.loc 1 27 14 is_stmt 0 view .LVU3
  36 0000 0369     		ldr	r3, [r0, #16]
  37              	.LVL1:
  28:DataStructure/linked_list.c ****     item_L->data = item_R->data;
  38              		.loc 1 28 5 is_stmt 1 view .LVU4
  39              		.loc 1 28 26 is_stmt 0 view .LVU5
  40 0002 0A69     		ldr	r2, [r1, #16]
  41              		.loc 1 28 18 view .LVU6
  42 0004 0261     		str	r2, [r0, #16]
  29:DataStructure/linked_list.c ****     item_R->data = data_tmp;
  43              		.loc 1 29 5 is_stmt 1 view .LVU7
  44              		.loc 1 29 18 is_stmt 0 view .LVU8
  45 0006 0B61     		str	r3, [r1, #16]
  30:DataStructure/linked_list.c **** }
  46              		.loc 1 30 1 view .LVU9
  47 0008 7047     		bx	lr
  48              		.cfi_endproc
  49              	.LFE1:
  51              		.section	.text.List_Init,"ax",%progbits
  52              		.align	1
  53              		.global	List_Init
  54              		.syntax unified
  55              		.thumb
  56              		.thumb_func
  58              	List_Init:
  59              	.LVL2:
  60              	.LFB0:
   5:DataStructure/linked_list.c ****     // if ((first_item != NULL) && (first_item->data != NULL))
  61              		.loc 1 5 1 is_stmt 1 view -0
  62              		.cfi_startproc
  63              		@ args = 0, pretend = 0, frame = 0
  64              		@ frame_needed = 0, uses_anonymous_args = 0
  65              		@ link register save eliminated.
   5:DataStructure/linked_list.c ****     // if ((first_item != NULL) && (first_item->data != NULL))
  66              		.loc 1 5 1 is_stmt 0 view .LVU11
  67 0000 10B4     		push	{r4}
  68              	.LCFI0:
  69              		.cfi_def_cfa_offset 4
  70              		.cfi_offset 4, -4
   8:DataStructure/linked_list.c ****     list->nxt = first_item->nxt;
  71              		.loc 1 8 5 is_stmt 1 view .LVU12
   8:DataStructure/linked_list.c ****     list->nxt = first_item->nxt;
  72              		.loc 1 8 16 is_stmt 0 view .LVU13
  73 0002 0C69     		ldr	r4, [r1, #16]
  74 0004 0461     		str	r4, [r0, #16]
   9:DataStructure/linked_list.c **** 
  75              		.loc 1 9 5 is_stmt 1 view .LVU14
   9:DataStructure/linked_list.c **** 
  76              		.loc 1 9 15 is_stmt 0 view .LVU15
  77 0006 CC68     		ldr	r4, [r1, #12]
  78 0008 C460     		str	r4, [r0, #12]
  11:DataStructure/linked_list.c ****     first_item->mode = mode;
  79              		.loc 1 11 5 is_stmt 1 view .LVU16
  11:DataStructure/linked_list.c ****     first_item->mode = mode;
ARM GAS  C:\Users\HUAV\AppData\Local\Temp\ccEuZLvS.s 			page 3


  80              		.loc 1 11 34 is_stmt 0 view .LVU17
  81 000a 4B60     		str	r3, [r1, #4]
  12:DataStructure/linked_list.c ****     // }
  82              		.loc 1 12 5 is_stmt 1 view .LVU18
  12:DataStructure/linked_list.c ****     // }
  83              		.loc 1 12 22 is_stmt 0 view .LVU19
  84 000c 0A70     		strb	r2, [r1]
  17:DataStructure/linked_list.c ****     list->compare_callback = callback;
  85              		.loc 1 17 5 is_stmt 1 view .LVU20
  17:DataStructure/linked_list.c ****     list->compare_callback = callback;
  86              		.loc 1 17 16 is_stmt 0 view .LVU21
  87 000e 0270     		strb	r2, [r0]
  18:DataStructure/linked_list.c **** 
  88              		.loc 1 18 5 is_stmt 1 view .LVU22
  18:DataStructure/linked_list.c **** 
  89              		.loc 1 18 28 is_stmt 0 view .LVU23
  90 0010 4360     		str	r3, [r0, #4]
  20:DataStructure/linked_list.c **** }
  91              		.loc 1 20 5 is_stmt 1 view .LVU24
  20:DataStructure/linked_list.c **** }
  92              		.loc 1 20 15 is_stmt 0 view .LVU25
  93 0012 0023     		movs	r3, #0
  94              	.LVL3:
  20:DataStructure/linked_list.c **** }
  95              		.loc 1 20 15 view .LVU26
  96 0014 8360     		str	r3, [r0, #8]
  21:DataStructure/linked_list.c **** 
  97              		.loc 1 21 1 view .LVU27
  98 0016 5DF8044B 		ldr	r4, [sp], #4
  99              	.LCFI1:
 100              		.cfi_restore 4
 101              		.cfi_def_cfa_offset 0
 102 001a 7047     		bx	lr
 103              		.cfi_endproc
 104              	.LFE0:
 106              		.section	.text.List_CheckAt,"ax",%progbits
 107              		.align	1
 108              		.global	List_CheckAt
 109              		.syntax unified
 110              		.thumb
 111              		.thumb_func
 113              	List_CheckAt:
 114              	.LVL4:
 115              	.LFB3:
  31:DataStructure/linked_list.c **** 
  32:DataStructure/linked_list.c **** static void List_ItemSwapLRItem(item_obj *item)
  33:DataStructure/linked_list.c **** {
  34:DataStructure/linked_list.c ****     item_obj *item_tmp = NULL;
  35:DataStructure/linked_list.c **** 
  36:DataStructure/linked_list.c ****     if (item != NULL)
  37:DataStructure/linked_list.c ****     {
  38:DataStructure/linked_list.c ****         item_tmp = item->prv;
  39:DataStructure/linked_list.c **** 
  40:DataStructure/linked_list.c ****         item->prv = item->nxt;
  41:DataStructure/linked_list.c ****         item->nxt = item_tmp;
  42:DataStructure/linked_list.c ****     }
  43:DataStructure/linked_list.c **** }
ARM GAS  C:\Users\HUAV\AppData\Local\Temp\ccEuZLvS.s 			page 4


  44:DataStructure/linked_list.c **** 
  45:DataStructure/linked_list.c **** // minimun check pos is 1
  46:DataStructure/linked_list.c **** item_obj *List_CheckAt(list_obj *list, uint16_t layer)
  47:DataStructure/linked_list.c **** {
 116              		.loc 1 47 1 is_stmt 1 view -0
 117              		.cfi_startproc
 118              		@ args = 0, pretend = 0, frame = 0
 119              		@ frame_needed = 0, uses_anonymous_args = 0
  48:DataStructure/linked_list.c ****     item_obj *item_tmp = NULL;
 120              		.loc 1 48 5 view .LVU29
  49:DataStructure/linked_list.c **** 
  50:DataStructure/linked_list.c ****     if (layer == 1)
 121              		.loc 1 50 5 view .LVU30
 122              		.loc 1 50 8 is_stmt 0 view .LVU31
 123 0000 0129     		cmp	r1, #1
 124 0002 07D0     		beq	.L9
  51:DataStructure/linked_list.c ****     {
  52:DataStructure/linked_list.c ****         return list;
  53:DataStructure/linked_list.c ****     }
  54:DataStructure/linked_list.c **** 
  55:DataStructure/linked_list.c ****     if (layer < MINIMUN_SEARCH_POS)
 125              		.loc 1 55 5 is_stmt 1 view .LVU32
 126              		.loc 1 55 8 is_stmt 0 view .LVU33
 127 0004 21B1     		cbz	r1, .L7
  47:DataStructure/linked_list.c ****     item_obj *item_tmp = NULL;
 128              		.loc 1 47 1 view .LVU34
 129 0006 08B5     		push	{r3, lr}
 130              	.LCFI2:
 131              		.cfi_def_cfa_offset 8
 132              		.cfi_offset 3, -8
 133              		.cfi_offset 14, -4
  56:DataStructure/linked_list.c ****     {
  57:DataStructure/linked_list.c ****         return NULL;
  58:DataStructure/linked_list.c ****     }
  59:DataStructure/linked_list.c ****     else
  60:DataStructure/linked_list.c ****     {
  61:DataStructure/linked_list.c ****         item_tmp = (item_obj *)List_CheckAt(list->nxt, layer--);
 134              		.loc 1 61 9 is_stmt 1 view .LVU35
 135              	.LVL5:
 136              		.loc 1 61 20 is_stmt 0 view .LVU36
 137 0008 C068     		ldr	r0, [r0, #12]
 138              	.LVL6:
 139              		.loc 1 61 20 view .LVU37
 140 000a FFF7FEFF 		bl	List_CheckAt
 141              	.LVL7:
  62:DataStructure/linked_list.c ****     }
  63:DataStructure/linked_list.c **** 
  64:DataStructure/linked_list.c ****     return item_tmp;
 142              		.loc 1 64 5 is_stmt 1 view .LVU38
  65:DataStructure/linked_list.c **** }
 143              		.loc 1 65 1 is_stmt 0 view .LVU39
 144 000e 08BD     		pop	{r3, pc}
 145              	.LVL8:
 146              	.L7:
 147              	.LCFI3:
 148              		.cfi_def_cfa_offset 0
 149              		.cfi_restore 3
ARM GAS  C:\Users\HUAV\AppData\Local\Temp\ccEuZLvS.s 			page 5


 150              		.cfi_restore 14
  57:DataStructure/linked_list.c ****     }
 151              		.loc 1 57 16 view .LVU40
 152 0010 0020     		movs	r0, #0
 153              	.LVL9:
  57:DataStructure/linked_list.c ****     }
 154              		.loc 1 57 16 view .LVU41
 155 0012 7047     		bx	lr
 156              	.LVL10:
 157              	.L9:
 158              		.loc 1 65 1 view .LVU42
 159 0014 7047     		bx	lr
 160              		.cfi_endproc
 161              	.LFE3:
 163              		.section	.text.List_Chk_FirstItem,"ax",%progbits
 164              		.align	1
 165              		.global	List_Chk_FirstItem
 166              		.syntax unified
 167              		.thumb
 168              		.thumb_func
 170              	List_Chk_FirstItem:
 171              	.LVL11:
 172              	.LFB4:
  66:DataStructure/linked_list.c **** 
  67:DataStructure/linked_list.c **** item_obj *List_Chk_FirstItem(list_obj *list)
  68:DataStructure/linked_list.c **** {
 173              		.loc 1 68 1 is_stmt 1 view -0
 174              		.cfi_startproc
 175              		@ args = 0, pretend = 0, frame = 0
 176              		@ frame_needed = 0, uses_anonymous_args = 0
 177              		.loc 1 68 1 is_stmt 0 view .LVU44
 178 0000 08B5     		push	{r3, lr}
 179              	.LCFI4:
 180              		.cfi_def_cfa_offset 8
 181              		.cfi_offset 3, -8
 182              		.cfi_offset 14, -4
  69:DataStructure/linked_list.c ****     if (list != NULL)
 183              		.loc 1 69 5 is_stmt 1 view .LVU45
 184              		.loc 1 69 8 is_stmt 0 view .LVU46
 185 0002 0346     		mov	r3, r0
 186 0004 20B1     		cbz	r0, .L13
  70:DataStructure/linked_list.c ****     {
  71:DataStructure/linked_list.c ****         if (list->prv == NULL)
 187              		.loc 1 71 9 is_stmt 1 view .LVU47
 188              		.loc 1 71 17 is_stmt 0 view .LVU48
 189 0006 8068     		ldr	r0, [r0, #8]
 190              	.LVL12:
 191              		.loc 1 71 12 view .LVU49
 192 0008 10B1     		cbz	r0, .L13
  72:DataStructure/linked_list.c ****         {
  73:DataStructure/linked_list.c ****             return list;
  74:DataStructure/linked_list.c ****         }
  75:DataStructure/linked_list.c ****         else
  76:DataStructure/linked_list.c ****             return List_Chk_FirstItem(list->prv);
 193              		.loc 1 76 13 is_stmt 1 view .LVU50
 194              		.loc 1 76 20 is_stmt 0 view .LVU51
 195 000a FFF7FEFF 		bl	List_Chk_FirstItem
ARM GAS  C:\Users\HUAV\AppData\Local\Temp\ccEuZLvS.s 			page 6


 196              	.LVL13:
 197              		.loc 1 76 20 view .LVU52
 198 000e 0346     		mov	r3, r0
 199              	.L13:
  77:DataStructure/linked_list.c ****     }
  78:DataStructure/linked_list.c **** 
  79:DataStructure/linked_list.c ****     return NULL;
  80:DataStructure/linked_list.c **** }
 200              		.loc 1 80 1 view .LVU53
 201 0010 1846     		mov	r0, r3
 202 0012 08BD     		pop	{r3, pc}
 203              		.cfi_endproc
 204              	.LFE4:
 206              		.section	.text.List_Chk_LastItem,"ax",%progbits
 207              		.align	1
 208              		.global	List_Chk_LastItem
 209              		.syntax unified
 210              		.thumb
 211              		.thumb_func
 213              	List_Chk_LastItem:
 214              	.LVL14:
 215              	.LFB5:
  81:DataStructure/linked_list.c **** 
  82:DataStructure/linked_list.c **** item_obj *List_Chk_LastItem(list_obj *list)
  83:DataStructure/linked_list.c **** {
 216              		.loc 1 83 1 is_stmt 1 view -0
 217              		.cfi_startproc
 218              		@ args = 0, pretend = 0, frame = 0
 219              		@ frame_needed = 0, uses_anonymous_args = 0
 220              		.loc 1 83 1 is_stmt 0 view .LVU55
 221 0000 08B5     		push	{r3, lr}
 222              	.LCFI5:
 223              		.cfi_def_cfa_offset 8
 224              		.cfi_offset 3, -8
 225              		.cfi_offset 14, -4
  84:DataStructure/linked_list.c ****     if (list != NULL)
 226              		.loc 1 84 5 is_stmt 1 view .LVU56
 227              		.loc 1 84 8 is_stmt 0 view .LVU57
 228 0002 0346     		mov	r3, r0
 229 0004 20B1     		cbz	r0, .L16
  85:DataStructure/linked_list.c ****     {
  86:DataStructure/linked_list.c ****         if (list->nxt == NULL)
 230              		.loc 1 86 9 is_stmt 1 view .LVU58
 231              		.loc 1 86 17 is_stmt 0 view .LVU59
 232 0006 C068     		ldr	r0, [r0, #12]
 233              	.LVL15:
 234              		.loc 1 86 12 view .LVU60
 235 0008 10B1     		cbz	r0, .L16
  87:DataStructure/linked_list.c ****         {
  88:DataStructure/linked_list.c ****             return list;
  89:DataStructure/linked_list.c ****         }
  90:DataStructure/linked_list.c ****         else
  91:DataStructure/linked_list.c ****             return List_Chk_LastItem(list->nxt);
 236              		.loc 1 91 13 is_stmt 1 view .LVU61
 237              		.loc 1 91 20 is_stmt 0 view .LVU62
 238 000a FFF7FEFF 		bl	List_Chk_LastItem
 239              	.LVL16:
ARM GAS  C:\Users\HUAV\AppData\Local\Temp\ccEuZLvS.s 			page 7


 240              		.loc 1 91 20 view .LVU63
 241 000e 0346     		mov	r3, r0
 242              	.L16:
  92:DataStructure/linked_list.c ****     }
  93:DataStructure/linked_list.c **** 
  94:DataStructure/linked_list.c ****     return NULL;
  95:DataStructure/linked_list.c **** }
 243              		.loc 1 95 1 view .LVU64
 244 0010 1846     		mov	r0, r3
 245 0012 08BD     		pop	{r3, pc}
 246              		.cfi_endproc
 247              	.LFE5:
 249              		.section	.text.List_ItemClear,"ax",%progbits
 250              		.align	1
 251              		.global	List_ItemClear
 252              		.syntax unified
 253              		.thumb
 254              		.thumb_func
 256              	List_ItemClear:
 257              	.LVL17:
 258              	.LFB6:
  96:DataStructure/linked_list.c **** 
  97:DataStructure/linked_list.c **** list_error_code List_ItemClear(item_obj *item)
  98:DataStructure/linked_list.c **** {
 259              		.loc 1 98 1 is_stmt 1 view -0
 260              		.cfi_startproc
 261              		@ args = 0, pretend = 0, frame = 0
 262              		@ frame_needed = 0, uses_anonymous_args = 0
 263              		@ link register save eliminated.
  99:DataStructure/linked_list.c ****     if (item != NULL)
 264              		.loc 1 99 5 view .LVU66
 265              		.loc 1 99 8 is_stmt 0 view .LVU67
 266 0000 0346     		mov	r3, r0
 267 0002 20B1     		cbz	r0, .L20
 100:DataStructure/linked_list.c ****     {
 101:DataStructure/linked_list.c ****         item->data = NULL;
 268              		.loc 1 101 9 is_stmt 1 view .LVU68
 269              		.loc 1 101 20 is_stmt 0 view .LVU69
 270 0004 0020     		movs	r0, #0
 271              	.LVL18:
 272              		.loc 1 101 20 view .LVU70
 273 0006 1861     		str	r0, [r3, #16]
 102:DataStructure/linked_list.c ****         item->prv = NULL;
 274              		.loc 1 102 9 is_stmt 1 view .LVU71
 275              		.loc 1 102 19 is_stmt 0 view .LVU72
 276 0008 9860     		str	r0, [r3, #8]
 103:DataStructure/linked_list.c ****         item->nxt = NULL;
 277              		.loc 1 103 9 is_stmt 1 view .LVU73
 278              		.loc 1 103 19 is_stmt 0 view .LVU74
 279 000a D860     		str	r0, [r3, #12]
 104:DataStructure/linked_list.c **** 
 105:DataStructure/linked_list.c ****         return list_no_error;
 280              		.loc 1 105 9 is_stmt 1 view .LVU75
 281              		.loc 1 105 16 is_stmt 0 view .LVU76
 282 000c 7047     		bx	lr
 283              	.LVL19:
 284              	.L20:
ARM GAS  C:\Users\HUAV\AppData\Local\Temp\ccEuZLvS.s 			page 8


 106:DataStructure/linked_list.c ****     }
 107:DataStructure/linked_list.c **** 
 108:DataStructure/linked_list.c ****     return list_obj_error;
 285              		.loc 1 108 12 view .LVU77
 286 000e 6FF00100 		mvn	r0, #1
 287              	.LVL20:
 109:DataStructure/linked_list.c **** }
 288              		.loc 1 109 1 view .LVU78
 289 0012 7047     		bx	lr
 290              		.cfi_endproc
 291              	.LFE6:
 293              		.section	.text.List_ItemInit,"ax",%progbits
 294              		.align	1
 295              		.global	List_ItemInit
 296              		.syntax unified
 297              		.thumb
 298              		.thumb_func
 300              	List_ItemInit:
 301              	.LVL21:
 302              	.LFB7:
 110:DataStructure/linked_list.c **** 
 111:DataStructure/linked_list.c **** void List_ItemInit(item_obj *obj, void *arg)
 112:DataStructure/linked_list.c **** {
 303              		.loc 1 112 1 is_stmt 1 view -0
 304              		.cfi_startproc
 305              		@ args = 0, pretend = 0, frame = 0
 306              		@ frame_needed = 0, uses_anonymous_args = 0
 307              		.loc 1 112 1 is_stmt 0 view .LVU80
 308 0000 38B5     		push	{r3, r4, r5, lr}
 309              	.LCFI6:
 310              		.cfi_def_cfa_offset 16
 311              		.cfi_offset 3, -16
 312              		.cfi_offset 4, -12
 313              		.cfi_offset 5, -8
 314              		.cfi_offset 14, -4
 315 0002 0446     		mov	r4, r0
 316 0004 0D46     		mov	r5, r1
 113:DataStructure/linked_list.c ****     if (List_ItemClear(obj) == list_no_error)
 317              		.loc 1 113 5 is_stmt 1 view .LVU81
 318              		.loc 1 113 9 is_stmt 0 view .LVU82
 319 0006 FFF7FEFF 		bl	List_ItemClear
 320              	.LVL22:
 321              		.loc 1 113 8 view .LVU83
 322 000a 00B9     		cbnz	r0, .L21
 114:DataStructure/linked_list.c ****     {
 115:DataStructure/linked_list.c ****         obj->data = arg;
 323              		.loc 1 115 9 is_stmt 1 view .LVU84
 324              		.loc 1 115 19 is_stmt 0 view .LVU85
 325 000c 2561     		str	r5, [r4, #16]
 326              	.L21:
 116:DataStructure/linked_list.c ****     }
 117:DataStructure/linked_list.c **** }
 327              		.loc 1 117 1 view .LVU86
 328 000e 38BD     		pop	{r3, r4, r5, pc}
 329              		.loc 1 117 1 view .LVU87
 330              		.cfi_endproc
 331              	.LFE7:
ARM GAS  C:\Users\HUAV\AppData\Local\Temp\ccEuZLvS.s 			page 9


 333              		.section	.text.List_InsertToPrv,"ax",%progbits
 334              		.align	1
 335              		.global	List_InsertToPrv
 336              		.syntax unified
 337              		.thumb
 338              		.thumb_func
 340              	List_InsertToPrv:
 341              	.LVL23:
 342              	.LFB8:
 118:DataStructure/linked_list.c **** 
 119:DataStructure/linked_list.c **** void List_InsertToPrv(list_obj *list, item_obj *item)
 120:DataStructure/linked_list.c **** {
 343              		.loc 1 120 1 is_stmt 1 view -0
 344              		.cfi_startproc
 345              		@ args = 0, pretend = 0, frame = 0
 346              		@ frame_needed = 0, uses_anonymous_args = 0
 347              		.loc 1 120 1 is_stmt 0 view .LVU89
 348 0000 08B5     		push	{r3, lr}
 349              	.LCFI7:
 350              		.cfi_def_cfa_offset 8
 351              		.cfi_offset 3, -8
 352              		.cfi_offset 14, -4
 121:DataStructure/linked_list.c ****     if (list->nxt != NULL)
 353              		.loc 1 121 5 is_stmt 1 view .LVU90
 354              		.loc 1 121 13 is_stmt 0 view .LVU91
 355 0002 C368     		ldr	r3, [r0, #12]
 356              		.loc 1 121 8 view .LVU92
 357 0004 1BB1     		cbz	r3, .L25
 122:DataStructure/linked_list.c ****     {
 123:DataStructure/linked_list.c ****         List_InsertToPrv(list->prv, item);
 358              		.loc 1 123 9 is_stmt 1 view .LVU93
 359 0006 8068     		ldr	r0, [r0, #8]
 360              	.LVL24:
 361              		.loc 1 123 9 is_stmt 0 view .LVU94
 362 0008 FFF7FEFF 		bl	List_InsertToPrv
 363              	.LVL25:
 364              	.L24:
 124:DataStructure/linked_list.c ****     }
 125:DataStructure/linked_list.c ****     else
 126:DataStructure/linked_list.c ****     {
 127:DataStructure/linked_list.c ****         list->prv = item;
 128:DataStructure/linked_list.c ****         item->nxt = list;
 129:DataStructure/linked_list.c ****     }
 130:DataStructure/linked_list.c **** }
 365              		.loc 1 130 1 view .LVU95
 366 000c 08BD     		pop	{r3, pc}
 367              	.LVL26:
 368              	.L25:
 127:DataStructure/linked_list.c ****         item->nxt = list;
 369              		.loc 1 127 9 is_stmt 1 view .LVU96
 127:DataStructure/linked_list.c ****         item->nxt = list;
 370              		.loc 1 127 19 is_stmt 0 view .LVU97
 371 000e 8160     		str	r1, [r0, #8]
 128:DataStructure/linked_list.c ****     }
 372              		.loc 1 128 9 is_stmt 1 view .LVU98
 128:DataStructure/linked_list.c ****     }
 373              		.loc 1 128 19 is_stmt 0 view .LVU99
ARM GAS  C:\Users\HUAV\AppData\Local\Temp\ccEuZLvS.s 			page 10


 374 0010 C860     		str	r0, [r1, #12]
 375              		.loc 1 130 1 view .LVU100
 376 0012 FBE7     		b	.L24
 377              		.cfi_endproc
 378              	.LFE8:
 380              		.section	.text.List_InsertByOrder,"ax",%progbits
 381              		.align	1
 382              		.global	List_InsertByOrder
 383              		.syntax unified
 384              		.thumb
 385              		.thumb_func
 387              	List_InsertByOrder:
 388              	.LVL27:
 389              	.LFB9:
 131:DataStructure/linked_list.c **** 
 132:DataStructure/linked_list.c **** void List_InsertByOrder(list_obj *list, item_obj *item)
 133:DataStructure/linked_list.c **** {
 390              		.loc 1 133 1 is_stmt 1 view -0
 391              		.cfi_startproc
 392              		@ args = 0, pretend = 0, frame = 0
 393              		@ frame_needed = 0, uses_anonymous_args = 0
 394              		.loc 1 133 1 is_stmt 0 view .LVU102
 395 0000 08B5     		push	{r3, lr}
 396              	.LCFI8:
 397              		.cfi_def_cfa_offset 8
 398              		.cfi_offset 3, -8
 399              		.cfi_offset 14, -4
 400 0002 0346     		mov	r3, r0
 134:DataStructure/linked_list.c ****     if (list->nxt != NULL)
 401              		.loc 1 134 5 is_stmt 1 view .LVU103
 402              		.loc 1 134 13 is_stmt 0 view .LVU104
 403 0004 C068     		ldr	r0, [r0, #12]
 404              	.LVL28:
 405              		.loc 1 134 8 view .LVU105
 406 0006 10B1     		cbz	r0, .L29
 135:DataStructure/linked_list.c ****     {
 136:DataStructure/linked_list.c ****         List_InsertByOrder(list->nxt, item);
 407              		.loc 1 136 9 is_stmt 1 view .LVU106
 408 0008 FFF7FEFF 		bl	List_InsertByOrder
 409              	.LVL29:
 410              	.L28:
 137:DataStructure/linked_list.c ****     }
 138:DataStructure/linked_list.c ****     else
 139:DataStructure/linked_list.c ****     {
 140:DataStructure/linked_list.c ****         list->nxt = item;
 141:DataStructure/linked_list.c ****         item->prv = list;
 142:DataStructure/linked_list.c ****     }
 143:DataStructure/linked_list.c **** }
 411              		.loc 1 143 1 is_stmt 0 view .LVU107
 412 000c 08BD     		pop	{r3, pc}
 413              	.LVL30:
 414              	.L29:
 140:DataStructure/linked_list.c ****         item->prv = list;
 415              		.loc 1 140 9 is_stmt 1 view .LVU108
 140:DataStructure/linked_list.c ****         item->prv = list;
 416              		.loc 1 140 19 is_stmt 0 view .LVU109
 417 000e D960     		str	r1, [r3, #12]
ARM GAS  C:\Users\HUAV\AppData\Local\Temp\ccEuZLvS.s 			page 11


 141:DataStructure/linked_list.c ****     }
 418              		.loc 1 141 9 is_stmt 1 view .LVU110
 141:DataStructure/linked_list.c ****     }
 419              		.loc 1 141 19 is_stmt 0 view .LVU111
 420 0010 8B60     		str	r3, [r1, #8]
 421              		.loc 1 143 1 view .LVU112
 422 0012 FBE7     		b	.L28
 423              		.cfi_endproc
 424              	.LFE9:
 426              		.section	.text.List_InsertByCondition,"ax",%progbits
 427              		.align	1
 428              		.global	List_InsertByCondition
 429              		.syntax unified
 430              		.thumb
 431              		.thumb_func
 433              	List_InsertByCondition:
 434              	.LVL31:
 435              	.LFB10:
 144:DataStructure/linked_list.c **** 
 145:DataStructure/linked_list.c **** void List_InsertByCondition(list_obj *list, item_obj *item)
 146:DataStructure/linked_list.c **** {
 436              		.loc 1 146 1 is_stmt 1 view -0
 437              		.cfi_startproc
 438              		@ args = 0, pretend = 0, frame = 0
 439              		@ frame_needed = 0, uses_anonymous_args = 0
 440              		.loc 1 146 1 is_stmt 0 view .LVU114
 441 0000 38B5     		push	{r3, r4, r5, lr}
 442              	.LCFI9:
 443              		.cfi_def_cfa_offset 16
 444              		.cfi_offset 3, -16
 445              		.cfi_offset 4, -12
 446              		.cfi_offset 5, -8
 447              		.cfi_offset 14, -4
 147:DataStructure/linked_list.c ****     if ((list->compare_callback != NULL) && (list->data != NULL) && (item->data != NULL))
 448              		.loc 1 147 5 is_stmt 1 view .LVU115
 449              		.loc 1 147 14 is_stmt 0 view .LVU116
 450 0002 4368     		ldr	r3, [r0, #4]
 451              		.loc 1 147 8 view .LVU117
 452 0004 7BB1     		cbz	r3, .L32
 453 0006 0446     		mov	r4, r0
 454 0008 0D46     		mov	r5, r1
 455              		.loc 1 147 50 discriminator 1 view .LVU118
 456 000a 0069     		ldr	r0, [r0, #16]
 457              	.LVL32:
 458              		.loc 1 147 42 discriminator 1 view .LVU119
 459 000c 58B1     		cbz	r0, .L32
 460              		.loc 1 147 74 discriminator 2 view .LVU120
 461 000e 0969     		ldr	r1, [r1, #16]
 462              	.LVL33:
 463              		.loc 1 147 66 discriminator 2 view .LVU121
 464 0010 49B1     		cbz	r1, .L32
 465              	.LBB2:
 148:DataStructure/linked_list.c ****     {
 149:DataStructure/linked_list.c ****         volatile void *cmp_out = list->compare_callback(list->data, item->data);
 466              		.loc 1 149 9 is_stmt 1 view .LVU122
 467              		.loc 1 149 34 is_stmt 0 view .LVU123
 468 0012 9847     		blx	r3
ARM GAS  C:\Users\HUAV\AppData\Local\Temp\ccEuZLvS.s 			page 12


 469              	.LVL34:
 150:DataStructure/linked_list.c **** 
 151:DataStructure/linked_list.c ****         if (cmp_out == NULL)
 470              		.loc 1 151 9 is_stmt 1 view .LVU124
 471              		.loc 1 151 12 is_stmt 0 view .LVU125
 472 0014 38B1     		cbz	r0, .L32
 152:DataStructure/linked_list.c ****         {
 153:DataStructure/linked_list.c ****             return;
 154:DataStructure/linked_list.c ****         }
 155:DataStructure/linked_list.c **** 
 156:DataStructure/linked_list.c ****         if (cmp_out == item->data)
 473              		.loc 1 156 9 is_stmt 1 view .LVU126
 474              		.loc 1 156 28 is_stmt 0 view .LVU127
 475 0016 2A69     		ldr	r2, [r5, #16]
 476              		.loc 1 156 12 view .LVU128
 477 0018 8242     		cmp	r2, r0
 478 001a 05D0     		beq	.L37
 479              	.LVL35:
 480              	.L34:
 481              		.loc 1 156 12 view .LVU129
 482              	.LBE2:
 157:DataStructure/linked_list.c ****         {
 158:DataStructure/linked_list.c ****             Item_SwapLRData(list, item);
 159:DataStructure/linked_list.c ****         }
 160:DataStructure/linked_list.c ****     }
 161:DataStructure/linked_list.c ****     else
 162:DataStructure/linked_list.c ****         return;
 163:DataStructure/linked_list.c **** 
 164:DataStructure/linked_list.c ****     if (list->nxt != NULL)
 483              		.loc 1 164 5 is_stmt 1 view .LVU130
 484              		.loc 1 164 13 is_stmt 0 view .LVU131
 485 001c E068     		ldr	r0, [r4, #12]
 486              		.loc 1 164 8 view .LVU132
 487 001e 40B1     		cbz	r0, .L35
 165:DataStructure/linked_list.c ****     {
 166:DataStructure/linked_list.c ****         List_InsertByCondition(list->nxt, item);
 488              		.loc 1 166 9 is_stmt 1 view .LVU133
 489 0020 2946     		mov	r1, r5
 490 0022 FFF7FEFF 		bl	List_InsertByCondition
 491              	.LVL36:
 492              	.L32:
 167:DataStructure/linked_list.c ****     }
 168:DataStructure/linked_list.c ****     else
 169:DataStructure/linked_list.c ****     {
 170:DataStructure/linked_list.c ****         list->nxt = item;
 171:DataStructure/linked_list.c ****         item->prv = list;
 172:DataStructure/linked_list.c ****         item->nxt = NULL;
 173:DataStructure/linked_list.c ****     }
 174:DataStructure/linked_list.c **** }
 493              		.loc 1 174 1 is_stmt 0 view .LVU134
 494 0026 38BD     		pop	{r3, r4, r5, pc}
 495              	.LVL37:
 496              	.L37:
 497              	.LBB3:
 158:DataStructure/linked_list.c ****         }
 498              		.loc 1 158 13 is_stmt 1 view .LVU135
 499 0028 2946     		mov	r1, r5
ARM GAS  C:\Users\HUAV\AppData\Local\Temp\ccEuZLvS.s 			page 13


 500 002a 2046     		mov	r0, r4
 501              	.LVL38:
 158:DataStructure/linked_list.c ****         }
 502              		.loc 1 158 13 is_stmt 0 view .LVU136
 503 002c FFF7FEFF 		bl	Item_SwapLRData
 504              	.LVL39:
 505 0030 F4E7     		b	.L34
 506              	.L35:
 158:DataStructure/linked_list.c ****         }
 507              		.loc 1 158 13 view .LVU137
 508              	.LBE3:
 170:DataStructure/linked_list.c ****         item->prv = list;
 509              		.loc 1 170 9 is_stmt 1 view .LVU138
 170:DataStructure/linked_list.c ****         item->prv = list;
 510              		.loc 1 170 19 is_stmt 0 view .LVU139
 511 0032 E560     		str	r5, [r4, #12]
 171:DataStructure/linked_list.c ****         item->nxt = NULL;
 512              		.loc 1 171 9 is_stmt 1 view .LVU140
 171:DataStructure/linked_list.c ****         item->nxt = NULL;
 513              		.loc 1 171 19 is_stmt 0 view .LVU141
 514 0034 AC60     		str	r4, [r5, #8]
 172:DataStructure/linked_list.c ****     }
 515              		.loc 1 172 9 is_stmt 1 view .LVU142
 172:DataStructure/linked_list.c ****     }
 516              		.loc 1 172 19 is_stmt 0 view .LVU143
 517 0036 0023     		movs	r3, #0
 518 0038 EB60     		str	r3, [r5, #12]
 519 003a F4E7     		b	.L32
 520              		.cfi_endproc
 521              	.LFE10:
 523              		.section	.text.List_Insert_Item,"ax",%progbits
 524              		.align	1
 525              		.global	List_Insert_Item
 526              		.syntax unified
 527              		.thumb
 528              		.thumb_func
 530              	List_Insert_Item:
 531              	.LVL40:
 532              	.LFB11:
 175:DataStructure/linked_list.c **** 
 176:DataStructure/linked_list.c **** void List_Insert_Item(list_obj *list, item_obj *item)
 177:DataStructure/linked_list.c **** {
 533              		.loc 1 177 1 is_stmt 1 view -0
 534              		.cfi_startproc
 535              		@ args = 0, pretend = 0, frame = 0
 536              		@ frame_needed = 0, uses_anonymous_args = 0
 178:DataStructure/linked_list.c ****     if ((list != NULL) && (item != NULL))
 537              		.loc 1 178 5 view .LVU145
 538              		.loc 1 178 8 is_stmt 0 view .LVU146
 539 0000 0028     		cmp	r0, #0
 540 0002 18BF     		it	ne
 541 0004 0029     		cmpne	r1, #0
 542 0006 13D0     		beq	.L43
 177:DataStructure/linked_list.c ****     if ((list != NULL) && (item != NULL))
 543              		.loc 1 177 1 view .LVU147
 544 0008 08B5     		push	{r3, lr}
 545              	.LCFI10:
ARM GAS  C:\Users\HUAV\AppData\Local\Temp\ccEuZLvS.s 			page 14


 546              		.cfi_def_cfa_offset 8
 547              		.cfi_offset 3, -8
 548              		.cfi_offset 14, -4
 179:DataStructure/linked_list.c ****     {
 180:DataStructure/linked_list.c ****         item->compare_callback = list->compare_callback;
 549              		.loc 1 180 9 is_stmt 1 view .LVU148
 550              		.loc 1 180 38 is_stmt 0 view .LVU149
 551 000a 4368     		ldr	r3, [r0, #4]
 552              		.loc 1 180 32 view .LVU150
 553 000c 4B60     		str	r3, [r1, #4]
 181:DataStructure/linked_list.c ****         item->mode = list->mode;
 554              		.loc 1 181 9 is_stmt 1 view .LVU151
 555              		.loc 1 181 26 is_stmt 0 view .LVU152
 556 000e 0378     		ldrb	r3, [r0]	@ zero_extendqisi2
 557              		.loc 1 181 20 view .LVU153
 558 0010 0B70     		strb	r3, [r1]
 182:DataStructure/linked_list.c **** 
 183:DataStructure/linked_list.c ****         switch (list->mode)
 559              		.loc 1 183 9 is_stmt 1 view .LVU154
 560 0012 012B     		cmp	r3, #1
 561 0014 06D0     		beq	.L40
 562 0016 022B     		cmp	r3, #2
 563 0018 07D0     		beq	.L41
 564 001a 03B1     		cbz	r3, .L46
 565              	.LVL41:
 566              	.L38:
 184:DataStructure/linked_list.c ****         {
 185:DataStructure/linked_list.c ****         case to_front:
 186:DataStructure/linked_list.c ****             List_InsertToPrv(list, item);
 187:DataStructure/linked_list.c ****             break;
 188:DataStructure/linked_list.c **** 
 189:DataStructure/linked_list.c ****         case by_order:
 190:DataStructure/linked_list.c ****             List_InsertByOrder(list, item);
 191:DataStructure/linked_list.c ****             break;
 192:DataStructure/linked_list.c **** 
 193:DataStructure/linked_list.c ****         case by_condition:
 194:DataStructure/linked_list.c ****             List_InsertByCondition(list, item);
 195:DataStructure/linked_list.c ****             break;
 196:DataStructure/linked_list.c **** 
 197:DataStructure/linked_list.c ****         default:
 198:DataStructure/linked_list.c ****             return;
 199:DataStructure/linked_list.c ****             break;
 200:DataStructure/linked_list.c ****         }
 201:DataStructure/linked_list.c ****     }
 202:DataStructure/linked_list.c ****     else if ((list == NULL) && (item != NULL))
 203:DataStructure/linked_list.c ****     {
 204:DataStructure/linked_list.c ****         list = item;
 205:DataStructure/linked_list.c ****     }
 206:DataStructure/linked_list.c **** }
 567              		.loc 1 206 1 is_stmt 0 view .LVU155
 568 001c 08BD     		pop	{r3, pc}
 569              	.LVL42:
 570              	.L46:
 186:DataStructure/linked_list.c ****             break;
 571              		.loc 1 186 13 is_stmt 1 view .LVU156
 572 001e FFF7FEFF 		bl	List_InsertToPrv
 573              	.LVL43:
ARM GAS  C:\Users\HUAV\AppData\Local\Temp\ccEuZLvS.s 			page 15


 187:DataStructure/linked_list.c **** 
 574              		.loc 1 187 13 view .LVU157
 575 0022 FBE7     		b	.L38
 576              	.LVL44:
 577              	.L40:
 190:DataStructure/linked_list.c ****             break;
 578              		.loc 1 190 13 view .LVU158
 579 0024 FFF7FEFF 		bl	List_InsertByOrder
 580              	.LVL45:
 191:DataStructure/linked_list.c **** 
 581              		.loc 1 191 13 view .LVU159
 582 0028 F8E7     		b	.L38
 583              	.LVL46:
 584              	.L41:
 194:DataStructure/linked_list.c ****             break;
 585              		.loc 1 194 13 view .LVU160
 586 002a FFF7FEFF 		bl	List_InsertByCondition
 587              	.LVL47:
 195:DataStructure/linked_list.c **** 
 588              		.loc 1 195 13 view .LVU161
 195:DataStructure/linked_list.c **** 
 589              		.loc 1 195 13 is_stmt 0 view .LVU162
 590 002e F5E7     		b	.L38
 591              	.LVL48:
 592              	.L43:
 593              	.LCFI11:
 594              		.cfi_def_cfa_offset 0
 595              		.cfi_restore 3
 596              		.cfi_restore 14
 195:DataStructure/linked_list.c **** 
 597              		.loc 1 195 13 view .LVU163
 598 0030 7047     		bx	lr
 599              		.cfi_endproc
 600              	.LFE11:
 602              		.section	.text.List_traverse,"ax",%progbits
 603              		.align	1
 604              		.global	List_traverse
 605              		.syntax unified
 606              		.thumb
 607              		.thumb_func
 609              	List_traverse:
 610              	.LVL49:
 611              	.LFB13:
 207:DataStructure/linked_list.c **** 
 208:DataStructure/linked_list.c **** list_error_code List_traverse_HaltByCondition(list_obj *list, list_traverse_callback callback, void
 209:DataStructure/linked_list.c **** {
 210:DataStructure/linked_list.c ****     if (list != NULL)
 211:DataStructure/linked_list.c ****     {
 212:DataStructure/linked_list.c ****         if ((callback != NULL) && (cb_serial == pre_callback))
 213:DataStructure/linked_list.c ****         {
 214:DataStructure/linked_list.c ****             if (condition == callback(list, list->data, arg))
 215:DataStructure/linked_list.c ****                 return list_no_error;
 216:DataStructure/linked_list.c ****         }
 217:DataStructure/linked_list.c **** 
 218:DataStructure/linked_list.c ****         if (list->nxt != NULL)
 219:DataStructure/linked_list.c ****         {
 220:DataStructure/linked_list.c ****             List_traverse(list->nxt, callback, arg, cb_serial);
ARM GAS  C:\Users\HUAV\AppData\Local\Temp\ccEuZLvS.s 			page 16


 221:DataStructure/linked_list.c ****         }
 222:DataStructure/linked_list.c **** 
 223:DataStructure/linked_list.c ****         if ((callback != NULL) && (cb_serial == sub_callback))
 224:DataStructure/linked_list.c ****         {
 225:DataStructure/linked_list.c ****             if (condition == callback(list, list->data, arg))
 226:DataStructure/linked_list.c ****                 return list_no_error;
 227:DataStructure/linked_list.c ****         }
 228:DataStructure/linked_list.c ****     }
 229:DataStructure/linked_list.c ****     else
 230:DataStructure/linked_list.c ****         return list_obj_error;
 231:DataStructure/linked_list.c **** 
 232:DataStructure/linked_list.c ****     return list_no_error;
 233:DataStructure/linked_list.c **** }
 234:DataStructure/linked_list.c **** 
 235:DataStructure/linked_list.c **** list_error_code List_traverse(list_obj *list, list_traverse_callback callback, void *arg, listtrv_c
 236:DataStructure/linked_list.c **** {
 612              		.loc 1 236 1 is_stmt 1 view -0
 613              		.cfi_startproc
 614              		@ args = 0, pretend = 0, frame = 0
 615              		@ frame_needed = 0, uses_anonymous_args = 0
 237:DataStructure/linked_list.c ****     if (list != NULL)
 616              		.loc 1 237 5 view .LVU165
 617              		.loc 1 237 8 is_stmt 0 view .LVU166
 618 0000 28B3     		cbz	r0, .L51
 236:DataStructure/linked_list.c ****     if (list != NULL)
 619              		.loc 1 236 1 view .LVU167
 620 0002 2DE9F041 		push	{r4, r5, r6, r7, r8, lr}
 621              	.LCFI12:
 622              		.cfi_def_cfa_offset 24
 623              		.cfi_offset 4, -24
 624              		.cfi_offset 5, -20
 625              		.cfi_offset 6, -16
 626              		.cfi_offset 7, -12
 627              		.cfi_offset 8, -8
 628              		.cfi_offset 14, -4
 629 0006 0D46     		mov	r5, r1
 630 0008 1746     		mov	r7, r2
 631 000a 1C46     		mov	r4, r3
 632 000c 8046     		mov	r8, r0
 238:DataStructure/linked_list.c ****     {
 239:DataStructure/linked_list.c ****         if ((callback != NULL) && (cb_serial == pre_callback))
 633              		.loc 1 239 9 is_stmt 1 view .LVU168
 634              		.loc 1 239 23 is_stmt 0 view .LVU169
 635 000e 0E1E     		subs	r6, r1, #0
 636 0010 18BF     		it	ne
 637 0012 0126     		movne	r6, #1
 638              		.loc 1 239 32 view .LVU170
 639 0014 002B     		cmp	r3, #0
 640 0016 14BF     		ite	ne
 641 0018 0023     		movne	r3, #0
 642 001a 06F00103 		andeq	r3, r6, #1
 643              	.LVL50:
 644              		.loc 1 239 12 view .LVU171
 645 001e 0BB1     		cbz	r3, .L49
 240:DataStructure/linked_list.c ****         {
 241:DataStructure/linked_list.c ****             callback(list, list->data, arg);
 646              		.loc 1 241 13 is_stmt 1 view .LVU172
ARM GAS  C:\Users\HUAV\AppData\Local\Temp\ccEuZLvS.s 			page 17


 647 0020 0169     		ldr	r1, [r0, #16]
 648              	.LVL51:
 649              		.loc 1 241 13 is_stmt 0 view .LVU173
 650 0022 A847     		blx	r5
 651              	.LVL52:
 652              	.L49:
 242:DataStructure/linked_list.c ****         }
 243:DataStructure/linked_list.c **** 
 244:DataStructure/linked_list.c ****         if (list->nxt != NULL)
 653              		.loc 1 244 9 is_stmt 1 view .LVU174
 654              		.loc 1 244 17 is_stmt 0 view .LVU175
 655 0024 D8F80C00 		ldr	r0, [r8, #12]
 656              		.loc 1 244 12 view .LVU176
 657 0028 20B1     		cbz	r0, .L50
 245:DataStructure/linked_list.c ****         {
 246:DataStructure/linked_list.c ****             List_traverse(list->nxt, callback, arg, cb_serial);
 658              		.loc 1 246 13 is_stmt 1 view .LVU177
 659 002a 2346     		mov	r3, r4
 660 002c 3A46     		mov	r2, r7
 661 002e 2946     		mov	r1, r5
 662 0030 FFF7FEFF 		bl	List_traverse
 663              	.LVL53:
 664              	.L50:
 247:DataStructure/linked_list.c ****         }
 248:DataStructure/linked_list.c **** 
 249:DataStructure/linked_list.c ****         if ((callback != NULL) && (cb_serial == sub_callback))
 665              		.loc 1 249 9 view .LVU178
 666              		.loc 1 249 32 is_stmt 0 view .LVU179
 667 0034 012C     		cmp	r4, #1
 668 0036 14BF     		ite	ne
 669 0038 0026     		movne	r6, #0
 670 003a 06F00106 		andeq	r6, r6, #1
 671              		.loc 1 249 12 view .LVU180
 672 003e 4EB1     		cbz	r6, .L52
 250:DataStructure/linked_list.c ****         {
 251:DataStructure/linked_list.c ****             callback(list, list->data, arg);
 673              		.loc 1 251 13 is_stmt 1 view .LVU181
 674 0040 3A46     		mov	r2, r7
 675 0042 D8F81010 		ldr	r1, [r8, #16]
 676 0046 4046     		mov	r0, r8
 677 0048 A847     		blx	r5
 678              	.LVL54:
 252:DataStructure/linked_list.c ****         }
 253:DataStructure/linked_list.c ****     }
 254:DataStructure/linked_list.c ****     else
 255:DataStructure/linked_list.c ****         return list_obj_error;
 256:DataStructure/linked_list.c **** 
 257:DataStructure/linked_list.c ****     return list_no_error;
 679              		.loc 1 257 12 is_stmt 0 view .LVU182
 680 004a 0020     		movs	r0, #0
 681 004c 03E0     		b	.L48
 682              	.LVL55:
 683              	.L51:
 684              	.LCFI13:
 685              		.cfi_def_cfa_offset 0
 686              		.cfi_restore 4
 687              		.cfi_restore 5
ARM GAS  C:\Users\HUAV\AppData\Local\Temp\ccEuZLvS.s 			page 18


 688              		.cfi_restore 6
 689              		.cfi_restore 7
 690              		.cfi_restore 8
 691              		.cfi_restore 14
 255:DataStructure/linked_list.c **** 
 692              		.loc 1 255 16 view .LVU183
 693 004e 6FF00100 		mvn	r0, #1
 694              	.LVL56:
 258:DataStructure/linked_list.c **** }
 695              		.loc 1 258 1 view .LVU184
 696 0052 7047     		bx	lr
 697              	.LVL57:
 698              	.L52:
 699              	.LCFI14:
 700              		.cfi_def_cfa_offset 24
 701              		.cfi_offset 4, -24
 702              		.cfi_offset 5, -20
 703              		.cfi_offset 6, -16
 704              		.cfi_offset 7, -12
 705              		.cfi_offset 8, -8
 706              		.cfi_offset 14, -4
 257:DataStructure/linked_list.c **** }
 707              		.loc 1 257 12 view .LVU185
 708 0054 0020     		movs	r0, #0
 709              	.L48:
 710              		.loc 1 258 1 view .LVU186
 711 0056 BDE8F081 		pop	{r4, r5, r6, r7, r8, pc}
 712              		.loc 1 258 1 view .LVU187
 713              		.cfi_endproc
 714              	.LFE13:
 716              		.section	.text.List_traverse_HaltByCondition,"ax",%progbits
 717              		.align	1
 718              		.global	List_traverse_HaltByCondition
 719              		.syntax unified
 720              		.thumb
 721              		.thumb_func
 723              	List_traverse_HaltByCondition:
 724              	.LVL58:
 725              	.LFB12:
 209:DataStructure/linked_list.c ****     if (list != NULL)
 726              		.loc 1 209 1 is_stmt 1 view -0
 727              		.cfi_startproc
 728              		@ args = 4, pretend = 0, frame = 0
 729              		@ frame_needed = 0, uses_anonymous_args = 0
 210:DataStructure/linked_list.c ****     {
 730              		.loc 1 210 5 view .LVU189
 210:DataStructure/linked_list.c ****     {
 731              		.loc 1 210 8 is_stmt 0 view .LVU190
 732 0000 48B3     		cbz	r0, .L61
 209:DataStructure/linked_list.c ****     if (list != NULL)
 733              		.loc 1 209 1 view .LVU191
 734 0002 2DE9F041 		push	{r4, r5, r6, r7, r8, lr}
 735              	.LCFI15:
 736              		.cfi_def_cfa_offset 24
 737              		.cfi_offset 4, -24
 738              		.cfi_offset 5, -20
 739              		.cfi_offset 6, -16
ARM GAS  C:\Users\HUAV\AppData\Local\Temp\ccEuZLvS.s 			page 19


 740              		.cfi_offset 7, -12
 741              		.cfi_offset 8, -8
 742              		.cfi_offset 14, -4
 743 0006 0C46     		mov	r4, r1
 744 0008 1746     		mov	r7, r2
 745 000a 1D46     		mov	r5, r3
 746 000c 8046     		mov	r8, r0
 212:DataStructure/linked_list.c ****         {
 747              		.loc 1 212 9 is_stmt 1 view .LVU192
 212:DataStructure/linked_list.c ****         {
 748              		.loc 1 212 23 is_stmt 0 view .LVU193
 749 000e 0E1E     		subs	r6, r1, #0
 750 0010 18BF     		it	ne
 751 0012 0126     		movne	r6, #1
 212:DataStructure/linked_list.c ****         {
 752              		.loc 1 212 32 view .LVU194
 753 0014 002B     		cmp	r3, #0
 754 0016 14BF     		ite	ne
 755 0018 0023     		movne	r3, #0
 756 001a 06F00103 		andeq	r3, r6, #1
 757              	.LVL59:
 212:DataStructure/linked_list.c ****         {
 758              		.loc 1 212 12 view .LVU195
 759 001e 23B1     		cbz	r3, .L59
 214:DataStructure/linked_list.c ****                 return list_no_error;
 760              		.loc 1 214 13 is_stmt 1 view .LVU196
 214:DataStructure/linked_list.c ****                 return list_no_error;
 761              		.loc 1 214 30 is_stmt 0 view .LVU197
 762 0020 0169     		ldr	r1, [r0, #16]
 763              	.LVL60:
 214:DataStructure/linked_list.c ****                 return list_no_error;
 764              		.loc 1 214 30 view .LVU198
 765 0022 A047     		blx	r4
 766              	.LVL61:
 214:DataStructure/linked_list.c ****                 return list_no_error;
 767              		.loc 1 214 16 view .LVU199
 768 0024 069B     		ldr	r3, [sp, #24]
 769 0026 9842     		cmp	r0, r3
 770 0028 18D0     		beq	.L62
 771              	.L59:
 218:DataStructure/linked_list.c ****         {
 772              		.loc 1 218 9 is_stmt 1 view .LVU200
 218:DataStructure/linked_list.c ****         {
 773              		.loc 1 218 17 is_stmt 0 view .LVU201
 774 002a D8F80C00 		ldr	r0, [r8, #12]
 218:DataStructure/linked_list.c ****         {
 775              		.loc 1 218 12 view .LVU202
 776 002e 20B1     		cbz	r0, .L60
 220:DataStructure/linked_list.c ****         }
 777              		.loc 1 220 13 is_stmt 1 view .LVU203
 778 0030 2B46     		mov	r3, r5
 779 0032 3A46     		mov	r2, r7
 780 0034 2146     		mov	r1, r4
 781 0036 FFF7FEFF 		bl	List_traverse
 782              	.LVL62:
 783              	.L60:
 223:DataStructure/linked_list.c ****         {
ARM GAS  C:\Users\HUAV\AppData\Local\Temp\ccEuZLvS.s 			page 20


 784              		.loc 1 223 9 view .LVU204
 223:DataStructure/linked_list.c ****         {
 785              		.loc 1 223 32 is_stmt 0 view .LVU205
 786 003a 012D     		cmp	r5, #1
 787 003c 14BF     		ite	ne
 788 003e 0026     		movne	r6, #0
 789 0040 06F00106 		andeq	r6, r6, #1
 223:DataStructure/linked_list.c ****         {
 790              		.loc 1 223 12 view .LVU206
 791 0044 66B1     		cbz	r6, .L63
 225:DataStructure/linked_list.c ****                 return list_no_error;
 792              		.loc 1 225 13 is_stmt 1 view .LVU207
 225:DataStructure/linked_list.c ****                 return list_no_error;
 793              		.loc 1 225 30 is_stmt 0 view .LVU208
 794 0046 3A46     		mov	r2, r7
 795 0048 D8F81010 		ldr	r1, [r8, #16]
 796 004c 4046     		mov	r0, r8
 797 004e A047     		blx	r4
 798              	.LVL63:
 232:DataStructure/linked_list.c **** }
 799              		.loc 1 232 12 view .LVU209
 800 0050 0020     		movs	r0, #0
 801              	.L58:
 233:DataStructure/linked_list.c **** 
 802              		.loc 1 233 1 view .LVU210
 803 0052 BDE8F081 		pop	{r4, r5, r6, r7, r8, pc}
 804              	.LVL64:
 805              	.L61:
 806              	.LCFI16:
 807              		.cfi_def_cfa_offset 0
 808              		.cfi_restore 4
 809              		.cfi_restore 5
 810              		.cfi_restore 6
 811              		.cfi_restore 7
 812              		.cfi_restore 8
 813              		.cfi_restore 14
 230:DataStructure/linked_list.c **** 
 814              		.loc 1 230 16 view .LVU211
 815 0056 6FF00100 		mvn	r0, #1
 816              	.LVL65:
 233:DataStructure/linked_list.c **** 
 817              		.loc 1 233 1 view .LVU212
 818 005a 7047     		bx	lr
 819              	.LVL66:
 820              	.L62:
 821              	.LCFI17:
 822              		.cfi_def_cfa_offset 24
 823              		.cfi_offset 4, -24
 824              		.cfi_offset 5, -20
 825              		.cfi_offset 6, -16
 826              		.cfi_offset 7, -12
 827              		.cfi_offset 8, -8
 828              		.cfi_offset 14, -4
 215:DataStructure/linked_list.c ****         }
 829              		.loc 1 215 24 view .LVU213
 830 005c 0020     		movs	r0, #0
 831 005e F8E7     		b	.L58
ARM GAS  C:\Users\HUAV\AppData\Local\Temp\ccEuZLvS.s 			page 21


 832              	.L63:
 232:DataStructure/linked_list.c **** }
 833              		.loc 1 232 12 view .LVU214
 834 0060 0020     		movs	r0, #0
 835 0062 F6E7     		b	.L58
 836              		.cfi_endproc
 837              	.LFE12:
 839              		.section	.text.List_DecBelowID,"ax",%progbits
 840              		.align	1
 841              		.global	List_DecBelowID
 842              		.syntax unified
 843              		.thumb
 844              		.thumb_func
 846              	List_DecBelowID:
 847              	.LVL67:
 848              	.LFB14:
 259:DataStructure/linked_list.c **** 
 260:DataStructure/linked_list.c **** list_error_code List_DecBelowID(item_obj *obj)
 261:DataStructure/linked_list.c **** {
 849              		.loc 1 261 1 is_stmt 1 view -0
 850              		.cfi_startproc
 851              		@ args = 0, pretend = 0, frame = 0
 852              		@ frame_needed = 0, uses_anonymous_args = 0
 262:DataStructure/linked_list.c ****     if (obj != NULL)
 853              		.loc 1 262 5 view .LVU216
 854              		.loc 1 262 8 is_stmt 0 view .LVU217
 855 0000 28B1     		cbz	r0, .L70
 261:DataStructure/linked_list.c ****     if (obj != NULL)
 856              		.loc 1 261 1 view .LVU218
 857 0002 08B5     		push	{r3, lr}
 858              	.LCFI18:
 859              		.cfi_def_cfa_offset 8
 860              		.cfi_offset 3, -8
 861              		.cfi_offset 14, -4
 263:DataStructure/linked_list.c ****     {
 264:DataStructure/linked_list.c ****         List_DecBelowID(obj->nxt);
 862              		.loc 1 264 9 is_stmt 1 view .LVU219
 863 0004 C068     		ldr	r0, [r0, #12]
 864              	.LVL68:
 865              		.loc 1 264 9 is_stmt 0 view .LVU220
 866 0006 FFF7FEFF 		bl	List_DecBelowID
 867              	.LVL69:
 265:DataStructure/linked_list.c **** 
 266:DataStructure/linked_list.c ****         return item_no_error;
 868              		.loc 1 266 9 is_stmt 1 view .LVU221
 869              		.loc 1 266 16 is_stmt 0 view .LVU222
 870 000a 0020     		movs	r0, #0
 267:DataStructure/linked_list.c ****     }
 268:DataStructure/linked_list.c **** 
 269:DataStructure/linked_list.c ****     return item_obj_error;
 270:DataStructure/linked_list.c **** }
 871              		.loc 1 270 1 view .LVU223
 872 000c 08BD     		pop	{r3, pc}
 873              	.LVL70:
 874              	.L70:
 875              	.LCFI19:
 876              		.cfi_def_cfa_offset 0
ARM GAS  C:\Users\HUAV\AppData\Local\Temp\ccEuZLvS.s 			page 22


 877              		.cfi_restore 3
 878              		.cfi_restore 14
 269:DataStructure/linked_list.c **** }
 879              		.loc 1 269 12 view .LVU224
 880 000e 4FF0FF30 		mov	r0, #-1
 881              	.LVL71:
 882              		.loc 1 270 1 view .LVU225
 883 0012 7047     		bx	lr
 884              		.cfi_endproc
 885              	.LFE14:
 887              		.section	.text.List_Delete_Item,"ax",%progbits
 888              		.align	1
 889              		.global	List_Delete_Item
 890              		.syntax unified
 891              		.thumb
 892              		.thumb_func
 894              	List_Delete_Item:
 895              	.LVL72:
 896              	.LFB15:
 271:DataStructure/linked_list.c **** 
 272:DataStructure/linked_list.c **** list_error_code List_Delete_Item(item_obj *item, item_datareset_callback callback)
 273:DataStructure/linked_list.c **** {
 897              		.loc 1 273 1 is_stmt 1 view -0
 898              		.cfi_startproc
 899              		@ args = 0, pretend = 0, frame = 0
 900              		@ frame_needed = 0, uses_anonymous_args = 0
 274:DataStructure/linked_list.c ****     volatile static uint8_t test = 0;
 901              		.loc 1 274 5 view .LVU227
 275:DataStructure/linked_list.c **** 
 276:DataStructure/linked_list.c ****     if (item != NULL)
 902              		.loc 1 276 5 view .LVU228
 903              		.loc 1 276 8 is_stmt 0 view .LVU229
 904 0000 10B3     		cbz	r0, .L82
 273:DataStructure/linked_list.c ****     volatile static uint8_t test = 0;
 905              		.loc 1 273 1 view .LVU230
 906 0002 10B5     		push	{r4, lr}
 907              	.LCFI20:
 908              		.cfi_def_cfa_offset 8
 909              		.cfi_offset 4, -8
 910              		.cfi_offset 14, -4
 911 0004 0446     		mov	r4, r0
 277:DataStructure/linked_list.c ****     {
 278:DataStructure/linked_list.c ****         if (callback != NULL)
 912              		.loc 1 278 9 is_stmt 1 view .LVU231
 913              		.loc 1 278 12 is_stmt 0 view .LVU232
 914 0006 01B1     		cbz	r1, .L77
 279:DataStructure/linked_list.c ****         {
 280:DataStructure/linked_list.c ****             callback(item);
 915              		.loc 1 280 13 is_stmt 1 view .LVU233
 916 0008 8847     		blx	r1
 917              	.LVL73:
 918              	.L77:
 281:DataStructure/linked_list.c ****         }
 282:DataStructure/linked_list.c **** 
 283:DataStructure/linked_list.c ****         if ((item->prv != NULL) && (item->nxt != NULL))
 919              		.loc 1 283 9 view .LVU234
 920              		.loc 1 283 18 is_stmt 0 view .LVU235
ARM GAS  C:\Users\HUAV\AppData\Local\Temp\ccEuZLvS.s 			page 23


 921 000a A368     		ldr	r3, [r4, #8]
 922              		.loc 1 283 12 view .LVU236
 923 000c 4BB1     		cbz	r3, .L78
 924              		.loc 1 283 41 discriminator 1 view .LVU237
 925 000e E268     		ldr	r2, [r4, #12]
 926              		.loc 1 283 33 discriminator 1 view .LVU238
 927 0010 3AB1     		cbz	r2, .L78
 284:DataStructure/linked_list.c ****         {
 285:DataStructure/linked_list.c ****             item->prv->nxt = item->nxt;
 928              		.loc 1 285 13 is_stmt 1 view .LVU239
 929              		.loc 1 285 28 is_stmt 0 view .LVU240
 930 0012 DA60     		str	r2, [r3, #12]
 286:DataStructure/linked_list.c ****             item->nxt->prv = item->prv;
 931              		.loc 1 286 13 is_stmt 1 view .LVU241
 932              		.loc 1 286 34 is_stmt 0 view .LVU242
 933 0014 A368     		ldr	r3, [r4, #8]
 934              		.loc 1 286 28 view .LVU243
 935 0016 9360     		str	r3, [r2, #8]
 287:DataStructure/linked_list.c ****             item->prv = NULL;
 936              		.loc 1 287 13 is_stmt 1 view .LVU244
 937              		.loc 1 287 23 is_stmt 0 view .LVU245
 938 0018 0023     		movs	r3, #0
 939 001a A360     		str	r3, [r4, #8]
 288:DataStructure/linked_list.c ****             item->nxt = NULL;
 940              		.loc 1 288 13 is_stmt 1 view .LVU246
 941              		.loc 1 288 23 is_stmt 0 view .LVU247
 942 001c E360     		str	r3, [r4, #12]
 943              	.LVL74:
 944              	.L79:
 289:DataStructure/linked_list.c ****         }
 290:DataStructure/linked_list.c ****         else if ((item->prv != NULL) && (item->nxt == NULL))
 291:DataStructure/linked_list.c ****         {
 292:DataStructure/linked_list.c ****             item->prv->nxt = NULL;
 293:DataStructure/linked_list.c ****             item->prv = NULL;
 294:DataStructure/linked_list.c ****             item->nxt = NULL;
 295:DataStructure/linked_list.c ****         }
 296:DataStructure/linked_list.c ****         else if ((item->prv == NULL) && (item->nxt != NULL))
 297:DataStructure/linked_list.c ****         {
 298:DataStructure/linked_list.c ****             item = item->nxt;
 299:DataStructure/linked_list.c ****         }
 300:DataStructure/linked_list.c ****         else if ((item->prv == NULL) && (item->nxt == NULL))
 301:DataStructure/linked_list.c ****         {
 302:DataStructure/linked_list.c ****             item->data = NULL;
 303:DataStructure/linked_list.c ****             item = NULL;
 304:DataStructure/linked_list.c ****         }
 305:DataStructure/linked_list.c **** 
 306:DataStructure/linked_list.c ****         return list_no_error;
 945              		.loc 1 306 9 is_stmt 1 view .LVU248
 946              		.loc 1 306 16 is_stmt 0 view .LVU249
 947 001e 0020     		movs	r0, #0
 307:DataStructure/linked_list.c ****     }
 308:DataStructure/linked_list.c **** 
 309:DataStructure/linked_list.c ****     return list_obj_error;
 310:DataStructure/linked_list.c **** }
 948              		.loc 1 310 1 view .LVU250
 949 0020 10BD     		pop	{r4, pc}
 950              	.LVL75:
ARM GAS  C:\Users\HUAV\AppData\Local\Temp\ccEuZLvS.s 			page 24


 951              	.L78:
 290:DataStructure/linked_list.c ****         {
 952              		.loc 1 290 14 is_stmt 1 view .LVU251
 290:DataStructure/linked_list.c ****         {
 953              		.loc 1 290 17 is_stmt 0 view .LVU252
 954 0022 0BB1     		cbz	r3, .L80
 290:DataStructure/linked_list.c ****         {
 955              		.loc 1 290 46 discriminator 1 view .LVU253
 956 0024 E268     		ldr	r2, [r4, #12]
 290:DataStructure/linked_list.c ****         {
 957              		.loc 1 290 38 discriminator 1 view .LVU254
 958 0026 3AB1     		cbz	r2, .L87
 959              	.L80:
 296:DataStructure/linked_list.c ****         {
 960              		.loc 1 296 14 is_stmt 1 view .LVU255
 296:DataStructure/linked_list.c ****         {
 961              		.loc 1 296 17 is_stmt 0 view .LVU256
 962 0028 53B1     		cbz	r3, .L88
 963              	.L81:
 300:DataStructure/linked_list.c ****         {
 964              		.loc 1 300 14 is_stmt 1 view .LVU257
 300:DataStructure/linked_list.c ****         {
 965              		.loc 1 300 17 is_stmt 0 view .LVU258
 966 002a 002B     		cmp	r3, #0
 967 002c F7D1     		bne	.L79
 300:DataStructure/linked_list.c ****         {
 968              		.loc 1 300 46 discriminator 1 view .LVU259
 969 002e E368     		ldr	r3, [r4, #12]
 300:DataStructure/linked_list.c ****         {
 970              		.loc 1 300 38 discriminator 1 view .LVU260
 971 0030 002B     		cmp	r3, #0
 972 0032 F4D1     		bne	.L79
 302:DataStructure/linked_list.c ****             item = NULL;
 973              		.loc 1 302 13 is_stmt 1 view .LVU261
 302:DataStructure/linked_list.c ****             item = NULL;
 974              		.loc 1 302 24 is_stmt 0 view .LVU262
 975 0034 2361     		str	r3, [r4, #16]
 303:DataStructure/linked_list.c ****         }
 976              		.loc 1 303 13 is_stmt 1 view .LVU263
 977              	.LVL76:
 303:DataStructure/linked_list.c ****         }
 978              		.loc 1 303 13 is_stmt 0 view .LVU264
 979 0036 F2E7     		b	.L79
 980              	.LVL77:
 981              	.L87:
 292:DataStructure/linked_list.c ****             item->prv = NULL;
 982              		.loc 1 292 13 is_stmt 1 view .LVU265
 292:DataStructure/linked_list.c ****             item->prv = NULL;
 983              		.loc 1 292 28 is_stmt 0 view .LVU266
 984 0038 DA60     		str	r2, [r3, #12]
 293:DataStructure/linked_list.c ****             item->nxt = NULL;
 985              		.loc 1 293 13 is_stmt 1 view .LVU267
 293:DataStructure/linked_list.c ****             item->nxt = NULL;
 986              		.loc 1 293 23 is_stmt 0 view .LVU268
 987 003a A260     		str	r2, [r4, #8]
 294:DataStructure/linked_list.c ****         }
 988              		.loc 1 294 13 is_stmt 1 view .LVU269
ARM GAS  C:\Users\HUAV\AppData\Local\Temp\ccEuZLvS.s 			page 25


 294:DataStructure/linked_list.c ****         }
 989              		.loc 1 294 23 is_stmt 0 view .LVU270
 990 003c E260     		str	r2, [r4, #12]
 991 003e EEE7     		b	.L79
 992              	.L88:
 296:DataStructure/linked_list.c ****         {
 993              		.loc 1 296 46 discriminator 1 view .LVU271
 994 0040 E268     		ldr	r2, [r4, #12]
 296:DataStructure/linked_list.c ****         {
 995              		.loc 1 296 38 discriminator 1 view .LVU272
 996 0042 002A     		cmp	r2, #0
 997 0044 EBD1     		bne	.L79
 998 0046 F0E7     		b	.L81
 999              	.LVL78:
 1000              	.L82:
 1001              	.LCFI21:
 1002              		.cfi_def_cfa_offset 0
 1003              		.cfi_restore 4
 1004              		.cfi_restore 14
 309:DataStructure/linked_list.c **** }
 1005              		.loc 1 309 12 view .LVU273
 1006 0048 6FF00100 		mvn	r0, #1
 1007              	.LVL79:
 1008              		.loc 1 310 1 view .LVU274
 1009 004c 7047     		bx	lr
 1010              		.cfi_endproc
 1011              	.LFE15:
 1013              		.section	.text.List_PopFirst,"ax",%progbits
 1014              		.align	1
 1015              		.global	List_PopFirst
 1016              		.syntax unified
 1017              		.thumb
 1018              		.thumb_func
 1020              	List_PopFirst:
 1021              	.LVL80:
 1022              	.LFB16:
 311:DataStructure/linked_list.c **** 
 312:DataStructure/linked_list.c **** item_obj *List_PopFirst(list_obj *list)
 313:DataStructure/linked_list.c **** {
 1023              		.loc 1 313 1 is_stmt 1 view -0
 1024              		.cfi_startproc
 1025              		@ args = 0, pretend = 0, frame = 0
 1026              		@ frame_needed = 0, uses_anonymous_args = 0
 1027              		.loc 1 313 1 is_stmt 0 view .LVU276
 1028 0000 08B5     		push	{r3, lr}
 1029              	.LCFI22:
 1030              		.cfi_def_cfa_offset 8
 1031              		.cfi_offset 3, -8
 1032              		.cfi_offset 14, -4
 314:DataStructure/linked_list.c ****     item_obj *item_tmp = NULL;
 1033              		.loc 1 314 5 is_stmt 1 view .LVU277
 1034              	.LVL81:
 315:DataStructure/linked_list.c **** 
 316:DataStructure/linked_list.c ****     if (list != NULL)
 1035              		.loc 1 316 5 view .LVU278
 1036              		.loc 1 316 8 is_stmt 0 view .LVU279
 1037 0002 0346     		mov	r3, r0
ARM GAS  C:\Users\HUAV\AppData\Local\Temp\ccEuZLvS.s 			page 26


 1038 0004 28B1     		cbz	r0, .L89
 317:DataStructure/linked_list.c ****     {
 318:DataStructure/linked_list.c ****         if (list->prv != NULL)
 1039              		.loc 1 318 9 is_stmt 1 view .LVU280
 1040              		.loc 1 318 17 is_stmt 0 view .LVU281
 1041 0006 8068     		ldr	r0, [r0, #8]
 1042              	.LVL82:
 1043              		.loc 1 318 12 view .LVU282
 1044 0008 20B9     		cbnz	r0, .L94
 319:DataStructure/linked_list.c ****         {
 320:DataStructure/linked_list.c ****             List_PopFirst(list->prv);
 321:DataStructure/linked_list.c ****         }
 322:DataStructure/linked_list.c ****         else
 323:DataStructure/linked_list.c ****         {
 324:DataStructure/linked_list.c ****             item_tmp = list;
 1045              		.loc 1 324 13 is_stmt 1 view .LVU283
 1046              	.LVL83:
 325:DataStructure/linked_list.c ****             item_tmp->nxt = NULL;
 1047              		.loc 1 325 13 view .LVU284
 1048              		.loc 1 325 27 is_stmt 0 view .LVU285
 1049 000a 0022     		movs	r2, #0
 1050 000c DA60     		str	r2, [r3, #12]
 326:DataStructure/linked_list.c **** 
 327:DataStructure/linked_list.c ****             list = list->nxt;
 1051              		.loc 1 327 13 is_stmt 1 view .LVU286
 1052              	.LVL84:
 328:DataStructure/linked_list.c ****             list->prv = NULL;
 1053              		.loc 1 328 13 view .LVU287
 1054              		.loc 1 328 23 is_stmt 0 view .LVU288
 1055 000e 9260     		str	r2, [r2, #8]
 324:DataStructure/linked_list.c ****             item_tmp->nxt = NULL;
 1056              		.loc 1 324 22 view .LVU289
 1057 0010 1846     		mov	r0, r3
 1058              	.LVL85:
 1059              	.L89:
 329:DataStructure/linked_list.c ****         }
 330:DataStructure/linked_list.c ****     }
 331:DataStructure/linked_list.c **** 
 332:DataStructure/linked_list.c ****     return item_tmp;
 333:DataStructure/linked_list.c **** }
 1060              		.loc 1 333 1 view .LVU290
 1061 0012 08BD     		pop	{r3, pc}
 1062              	.LVL86:
 1063              	.L94:
 320:DataStructure/linked_list.c ****         }
 1064              		.loc 1 320 13 is_stmt 1 view .LVU291
 1065 0014 FFF7FEFF 		bl	List_PopFirst
 1066              	.LVL87:
 314:DataStructure/linked_list.c **** 
 1067              		.loc 1 314 15 is_stmt 0 view .LVU292
 1068 0018 0020     		movs	r0, #0
 1069 001a FAE7     		b	.L89
 1070              		.cfi_endproc
 1071              	.LFE16:
 1073              		.section	.text.List_GetFront_Len,"ax",%progbits
 1074              		.align	1
 1075              		.global	List_GetFront_Len
ARM GAS  C:\Users\HUAV\AppData\Local\Temp\ccEuZLvS.s 			page 27


 1076              		.syntax unified
 1077              		.thumb
 1078              		.thumb_func
 1080              	List_GetFront_Len:
 1081              	.LVL88:
 1082              	.LFB17:
 334:DataStructure/linked_list.c **** 
 335:DataStructure/linked_list.c **** int16_t List_GetFront_Len(item_obj *list)
 336:DataStructure/linked_list.c **** {
 1083              		.loc 1 336 1 is_stmt 1 view -0
 1084              		.cfi_startproc
 1085              		@ args = 0, pretend = 0, frame = 0
 1086              		@ frame_needed = 0, uses_anonymous_args = 0
 337:DataStructure/linked_list.c ****     int16_t fnt_len = 0;
 1087              		.loc 1 337 5 view .LVU294
 338:DataStructure/linked_list.c **** 
 339:DataStructure/linked_list.c ****     if (list != NULL)
 1088              		.loc 1 339 5 view .LVU295
 1089              		.loc 1 339 8 is_stmt 0 view .LVU296
 1090 0000 38B1     		cbz	r0, .L97
 336:DataStructure/linked_list.c ****     int16_t fnt_len = 0;
 1091              		.loc 1 336 1 view .LVU297
 1092 0002 08B5     		push	{r3, lr}
 1093              	.LCFI23:
 1094              		.cfi_def_cfa_offset 8
 1095              		.cfi_offset 3, -8
 1096              		.cfi_offset 14, -4
 340:DataStructure/linked_list.c ****     {
 341:DataStructure/linked_list.c ****         if (list->prv == NULL)
 1097              		.loc 1 341 9 is_stmt 1 view .LVU298
 1098              		.loc 1 341 17 is_stmt 0 view .LVU299
 1099 0004 8068     		ldr	r0, [r0, #8]
 1100              	.LVL89:
 1101              		.loc 1 341 12 view .LVU300
 1102 0006 38B1     		cbz	r0, .L98
 342:DataStructure/linked_list.c ****         {
 343:DataStructure/linked_list.c ****             return 0;
 344:DataStructure/linked_list.c ****         }
 345:DataStructure/linked_list.c ****         else
 346:DataStructure/linked_list.c ****         {
 347:DataStructure/linked_list.c ****             fnt_len = List_GetFront_Len(list->prv);
 1103              		.loc 1 347 13 is_stmt 1 view .LVU301
 1104              		.loc 1 347 23 is_stmt 0 view .LVU302
 1105 0008 FFF7FEFF 		bl	List_GetFront_Len
 1106              	.LVL90:
 348:DataStructure/linked_list.c ****             fnt_len++;
 1107              		.loc 1 348 13 is_stmt 1 view .LVU303
 1108              		.loc 1 348 20 is_stmt 0 view .LVU304
 1109 000c 0130     		adds	r0, r0, #1
 1110              	.LVL91:
 1111              		.loc 1 348 20 view .LVU305
 1112 000e 00B2     		sxth	r0, r0
 1113              	.LVL92:
 349:DataStructure/linked_list.c ****         }
 350:DataStructure/linked_list.c ****     }
 351:DataStructure/linked_list.c ****     else
 352:DataStructure/linked_list.c ****         return list_obj_error;
ARM GAS  C:\Users\HUAV\AppData\Local\Temp\ccEuZLvS.s 			page 28


 353:DataStructure/linked_list.c **** 
 354:DataStructure/linked_list.c ****     return fnt_len;
 1114              		.loc 1 354 5 is_stmt 1 view .LVU306
 1115              	.L96:
 355:DataStructure/linked_list.c **** }
 1116              		.loc 1 355 1 is_stmt 0 view .LVU307
 1117 0010 08BD     		pop	{r3, pc}
 1118              	.LVL93:
 1119              	.L97:
 1120              	.LCFI24:
 1121              		.cfi_def_cfa_offset 0
 1122              		.cfi_restore 3
 1123              		.cfi_restore 14
 352:DataStructure/linked_list.c **** 
 1124              		.loc 1 352 16 view .LVU308
 1125 0012 6FF00100 		mvn	r0, #1
 1126              	.LVL94:
 1127              		.loc 1 355 1 view .LVU309
 1128 0016 7047     		bx	lr
 1129              	.L98:
 1130              	.LCFI25:
 1131              		.cfi_def_cfa_offset 8
 1132              		.cfi_offset 3, -8
 1133              		.cfi_offset 14, -4
 343:DataStructure/linked_list.c ****         }
 1134              		.loc 1 343 20 view .LVU310
 1135 0018 0020     		movs	r0, #0
 1136 001a F9E7     		b	.L96
 1137              		.cfi_endproc
 1138              	.LFE17:
 1140              		.section	.text.List_GetBack_Len,"ax",%progbits
 1141              		.align	1
 1142              		.global	List_GetBack_Len
 1143              		.syntax unified
 1144              		.thumb
 1145              		.thumb_func
 1147              	List_GetBack_Len:
 1148              	.LVL95:
 1149              	.LFB18:
 356:DataStructure/linked_list.c **** 
 357:DataStructure/linked_list.c **** int16_t List_GetBack_Len(item_obj *list)
 358:DataStructure/linked_list.c **** {
 1150              		.loc 1 358 1 is_stmt 1 view -0
 1151              		.cfi_startproc
 1152              		@ args = 0, pretend = 0, frame = 0
 1153              		@ frame_needed = 0, uses_anonymous_args = 0
 359:DataStructure/linked_list.c ****     uint16_t bck_len = 0;
 1154              		.loc 1 359 5 view .LVU312
 360:DataStructure/linked_list.c **** 
 361:DataStructure/linked_list.c ****     if (list != NULL)
 1155              		.loc 1 361 5 view .LVU313
 1156              		.loc 1 361 8 is_stmt 0 view .LVU314
 1157 0000 40B1     		cbz	r0, .L105
 358:DataStructure/linked_list.c ****     uint16_t bck_len = 0;
 1158              		.loc 1 358 1 view .LVU315
 1159 0002 08B5     		push	{r3, lr}
 1160              	.LCFI26:
ARM GAS  C:\Users\HUAV\AppData\Local\Temp\ccEuZLvS.s 			page 29


 1161              		.cfi_def_cfa_offset 8
 1162              		.cfi_offset 3, -8
 1163              		.cfi_offset 14, -4
 362:DataStructure/linked_list.c ****     {
 363:DataStructure/linked_list.c ****         if (list->nxt == NULL)
 1164              		.loc 1 363 9 is_stmt 1 view .LVU316
 1165              		.loc 1 363 17 is_stmt 0 view .LVU317
 1166 0004 C068     		ldr	r0, [r0, #12]
 1167              	.LVL96:
 1168              		.loc 1 363 12 view .LVU318
 1169 0006 40B1     		cbz	r0, .L106
 364:DataStructure/linked_list.c ****         {
 365:DataStructure/linked_list.c ****             return 0;
 366:DataStructure/linked_list.c ****         }
 367:DataStructure/linked_list.c ****         else
 368:DataStructure/linked_list.c ****         {
 369:DataStructure/linked_list.c ****             bck_len = List_GetBack_Len(list->nxt);
 1170              		.loc 1 369 13 is_stmt 1 view .LVU319
 1171              		.loc 1 369 23 is_stmt 0 view .LVU320
 1172 0008 FFF7FEFF 		bl	List_GetBack_Len
 1173              	.LVL97:
 1174              		.loc 1 369 21 view .LVU321
 1175 000c 80B2     		uxth	r0, r0
 1176              	.LVL98:
 370:DataStructure/linked_list.c ****             bck_len++;
 1177              		.loc 1 370 13 is_stmt 1 view .LVU322
 1178              		.loc 1 370 20 is_stmt 0 view .LVU323
 1179 000e 0130     		adds	r0, r0, #1
 1180              	.LVL99:
 371:DataStructure/linked_list.c ****         }
 372:DataStructure/linked_list.c ****     }
 373:DataStructure/linked_list.c ****     else
 374:DataStructure/linked_list.c ****         return list_obj_error;
 375:DataStructure/linked_list.c **** 
 376:DataStructure/linked_list.c ****     return bck_len;
 1181              		.loc 1 376 5 is_stmt 1 view .LVU324
 1182              		.loc 1 376 12 is_stmt 0 view .LVU325
 1183 0010 00B2     		sxth	r0, r0
 1184              	.LVL100:
 1185              	.L104:
 377:DataStructure/linked_list.c **** }
 1186              		.loc 1 377 1 view .LVU326
 1187 0012 08BD     		pop	{r3, pc}
 1188              	.LVL101:
 1189              	.L105:
 1190              	.LCFI27:
 1191              		.cfi_def_cfa_offset 0
 1192              		.cfi_restore 3
 1193              		.cfi_restore 14
 374:DataStructure/linked_list.c **** 
 1194              		.loc 1 374 16 view .LVU327
 1195 0014 6FF00100 		mvn	r0, #1
 1196              	.LVL102:
 1197              		.loc 1 377 1 view .LVU328
 1198 0018 7047     		bx	lr
 1199              	.L106:
 1200              	.LCFI28:
ARM GAS  C:\Users\HUAV\AppData\Local\Temp\ccEuZLvS.s 			page 30


 1201              		.cfi_def_cfa_offset 8
 1202              		.cfi_offset 3, -8
 1203              		.cfi_offset 14, -4
 365:DataStructure/linked_list.c ****         }
 1204              		.loc 1 365 20 view .LVU329
 1205 001a 0020     		movs	r0, #0
 1206 001c F9E7     		b	.L104
 1207              		.cfi_endproc
 1208              	.LFE18:
 1210              		.section	.text.List_GetLen,"ax",%progbits
 1211              		.align	1
 1212              		.global	List_GetLen
 1213              		.syntax unified
 1214              		.thumb
 1215              		.thumb_func
 1217              	List_GetLen:
 1218              	.LVL103:
 1219              	.LFB19:
 378:DataStructure/linked_list.c **** 
 379:DataStructure/linked_list.c **** int16_t List_GetLen(list_obj *list)
 380:DataStructure/linked_list.c **** {
 1220              		.loc 1 380 1 is_stmt 1 view -0
 1221              		.cfi_startproc
 1222              		@ args = 0, pretend = 0, frame = 0
 1223              		@ frame_needed = 0, uses_anonymous_args = 0
 381:DataStructure/linked_list.c ****     uint16_t len = 0;
 1224              		.loc 1 381 5 view .LVU331
 382:DataStructure/linked_list.c **** 
 383:DataStructure/linked_list.c ****     if (list != NULL)
 1225              		.loc 1 383 5 view .LVU332
 1226              		.loc 1 383 8 is_stmt 0 view .LVU333
 1227 0000 58B1     		cbz	r0, .L113
 380:DataStructure/linked_list.c ****     uint16_t len = 0;
 1228              		.loc 1 380 1 view .LVU334
 1229 0002 38B5     		push	{r3, r4, r5, lr}
 1230              	.LCFI29:
 1231              		.cfi_def_cfa_offset 16
 1232              		.cfi_offset 3, -16
 1233              		.cfi_offset 4, -12
 1234              		.cfi_offset 5, -8
 1235              		.cfi_offset 14, -4
 1236 0004 0546     		mov	r5, r0
 384:DataStructure/linked_list.c ****     {
 385:DataStructure/linked_list.c ****         len = List_GetFront_Len(list);
 1237              		.loc 1 385 9 is_stmt 1 view .LVU335
 1238              		.loc 1 385 15 is_stmt 0 view .LVU336
 1239 0006 FFF7FEFF 		bl	List_GetFront_Len
 1240              	.LVL104:
 1241              		.loc 1 385 13 view .LVU337
 1242 000a 84B2     		uxth	r4, r0
 1243              	.LVL105:
 386:DataStructure/linked_list.c ****         len += List_GetBack_Len(list);
 1244              		.loc 1 386 9 is_stmt 1 view .LVU338
 1245              		.loc 1 386 16 is_stmt 0 view .LVU339
 1246 000c 2846     		mov	r0, r5
 1247 000e FFF7FEFF 		bl	List_GetBack_Len
 1248              	.LVL106:
ARM GAS  C:\Users\HUAV\AppData\Local\Temp\ccEuZLvS.s 			page 31


 1249              		.loc 1 386 13 view .LVU340
 1250 0012 14FA80F0 		uxtah	r0, r4, r0
 1251              	.LVL107:
 387:DataStructure/linked_list.c ****     }
 388:DataStructure/linked_list.c ****     else
 389:DataStructure/linked_list.c ****         return list_obj_error;
 390:DataStructure/linked_list.c **** 
 391:DataStructure/linked_list.c ****     return len;
 1252              		.loc 1 391 5 is_stmt 1 view .LVU341
 1253              		.loc 1 391 12 is_stmt 0 view .LVU342
 1254 0016 00B2     		sxth	r0, r0
 392:DataStructure/linked_list.c **** }
 1255              		.loc 1 392 1 view .LVU343
 1256 0018 38BD     		pop	{r3, r4, r5, pc}
 1257              	.LVL108:
 1258              	.L113:
 1259              	.LCFI30:
 1260              		.cfi_def_cfa_offset 0
 1261              		.cfi_restore 3
 1262              		.cfi_restore 4
 1263              		.cfi_restore 5
 1264              		.cfi_restore 14
 389:DataStructure/linked_list.c **** 
 1265              		.loc 1 389 16 view .LVU344
 1266 001a 6FF00100 		mvn	r0, #1
 1267              	.LVL109:
 1268              		.loc 1 392 1 view .LVU345
 1269 001e 7047     		bx	lr
 1270              		.cfi_endproc
 1271              	.LFE19:
 1273              		.section	.bss.test.0,"aw",%nobits
 1276              	test.0:
 1277 0000 00       		.space	1
 1278              		.text
 1279              	.Letext0:
 1280              		.file 2 "c:\\program files (x86)\\gnu arm embedded toolchain\\10 2021.10\\arm-none-eabi\\include\\
 1281              		.file 3 "c:\\program files (x86)\\gnu arm embedded toolchain\\10 2021.10\\arm-none-eabi\\include\\
 1282              		.file 4 "DataStructure/linked_list.h"
ARM GAS  C:\Users\HUAV\AppData\Local\Temp\ccEuZLvS.s 			page 32

