ARM GAS  /var/folders/lx/hc4sn_b53233_zkc9xbbl97r0000gp/T//cc8dulPh.s 			page 1


   1              		.cpu cortex-m7
   2              		.eabi_attribute 28, 1
   3              		.eabi_attribute 20, 1
   4              		.eabi_attribute 21, 1
   5              		.eabi_attribute 23, 3
   6              		.eabi_attribute 24, 1
   7              		.eabi_attribute 25, 1
   8              		.eabi_attribute 26, 1
   9              		.eabi_attribute 30, 1
  10              		.eabi_attribute 34, 1
  11              		.eabi_attribute 18, 4
  12              		.file	"linked_list.c"
  13              		.text
  14              	.Ltext0:
  15              		.cfi_sections	.debug_frame
  16              		.section	.text.Item_SwapLRData,"ax",%progbits
  17              		.align	1
  18              		.arch armv7e-m
  19              		.syntax unified
  20              		.thumb
  21              		.thumb_func
  22              		.fpu fpv5-d16
  24              	Item_SwapLRData:
  25              	.LVL0:
  26              	.LFB1:
  27              		.file 1 "DataStructure/linked_list.c"
   1:DataStructure/linked_list.c **** #include "linked_list.h"
   2:DataStructure/linked_list.c **** #include <string.h>
   3:DataStructure/linked_list.c **** 
   4:DataStructure/linked_list.c **** void List_Init(list_obj *list, item_obj *first_item, list_arrangement_mode mode, item_compare_callb
   5:DataStructure/linked_list.c **** {
   6:DataStructure/linked_list.c ****     // if ((first_item != NULL) && (first_item->data != NULL))
   7:DataStructure/linked_list.c ****     // {
   8:DataStructure/linked_list.c ****     list->data = first_item->data;
   9:DataStructure/linked_list.c ****     list->nxt = first_item->nxt;
  10:DataStructure/linked_list.c **** 
  11:DataStructure/linked_list.c ****     first_item->compare_callback = callback;
  12:DataStructure/linked_list.c ****     first_item->mode = mode;
  13:DataStructure/linked_list.c ****     // }
  14:DataStructure/linked_list.c ****     // else
  15:DataStructure/linked_list.c ****     //     list->nxt = NULL;
  16:DataStructure/linked_list.c **** 
  17:DataStructure/linked_list.c ****     list->mode = mode;
  18:DataStructure/linked_list.c ****     list->compare_callback = callback;
  19:DataStructure/linked_list.c **** 
  20:DataStructure/linked_list.c ****     list->prv = NULL;
  21:DataStructure/linked_list.c **** }
  22:DataStructure/linked_list.c **** 
  23:DataStructure/linked_list.c **** static void Item_SwapLRData(item_obj *item_L, item_obj *item_R)
  24:DataStructure/linked_list.c **** {
  28              		.loc 1 24 1 view -0
  29              		.cfi_startproc
  30              		@ args = 0, pretend = 0, frame = 0
  31              		@ frame_needed = 0, uses_anonymous_args = 0
  32              		@ link register save eliminated.
  25:DataStructure/linked_list.c ****     void *data_tmp;
  33              		.loc 1 25 5 view .LVU1
ARM GAS  /var/folders/lx/hc4sn_b53233_zkc9xbbl97r0000gp/T//cc8dulPh.s 			page 2


  26:DataStructure/linked_list.c **** 
  27:DataStructure/linked_list.c ****     data_tmp = item_L->data;
  34              		.loc 1 27 5 view .LVU2
  35              		.loc 1 27 14 is_stmt 0 view .LVU3
  36 0000 0369     		ldr	r3, [r0, #16]
  37              	.LVL1:
  28:DataStructure/linked_list.c ****     item_L->data = item_R->data;
  38              		.loc 1 28 5 is_stmt 1 view .LVU4
  39              		.loc 1 28 26 is_stmt 0 view .LVU5
  40 0002 0A69     		ldr	r2, [r1, #16]
  41              		.loc 1 28 18 view .LVU6
  42 0004 0261     		str	r2, [r0, #16]
  29:DataStructure/linked_list.c ****     item_R->data = data_tmp;
  43              		.loc 1 29 5 is_stmt 1 view .LVU7
  44              		.loc 1 29 18 is_stmt 0 view .LVU8
  45 0006 0B61     		str	r3, [r1, #16]
  30:DataStructure/linked_list.c **** }
  46              		.loc 1 30 1 view .LVU9
  47 0008 7047     		bx	lr
  48              		.cfi_endproc
  49              	.LFE1:
  51              		.section	.text.List_Init,"ax",%progbits
  52              		.align	1
  53              		.global	List_Init
  54              		.syntax unified
  55              		.thumb
  56              		.thumb_func
  57              		.fpu fpv5-d16
  59              	List_Init:
  60              	.LVL2:
  61              	.LFB0:
   5:DataStructure/linked_list.c ****     // if ((first_item != NULL) && (first_item->data != NULL))
  62              		.loc 1 5 1 is_stmt 1 view -0
  63              		.cfi_startproc
  64              		@ args = 0, pretend = 0, frame = 0
  65              		@ frame_needed = 0, uses_anonymous_args = 0
  66              		@ link register save eliminated.
   5:DataStructure/linked_list.c ****     // if ((first_item != NULL) && (first_item->data != NULL))
  67              		.loc 1 5 1 is_stmt 0 view .LVU11
  68 0000 10B4     		push	{r4}
  69              	.LCFI0:
  70              		.cfi_def_cfa_offset 4
  71              		.cfi_offset 4, -4
   8:DataStructure/linked_list.c ****     list->nxt = first_item->nxt;
  72              		.loc 1 8 5 is_stmt 1 view .LVU12
   8:DataStructure/linked_list.c ****     list->nxt = first_item->nxt;
  73              		.loc 1 8 16 is_stmt 0 view .LVU13
  74 0002 0C69     		ldr	r4, [r1, #16]
  75 0004 0461     		str	r4, [r0, #16]
   9:DataStructure/linked_list.c **** 
  76              		.loc 1 9 5 is_stmt 1 view .LVU14
   9:DataStructure/linked_list.c **** 
  77              		.loc 1 9 15 is_stmt 0 view .LVU15
  78 0006 CC68     		ldr	r4, [r1, #12]
  79 0008 C460     		str	r4, [r0, #12]
  11:DataStructure/linked_list.c ****     first_item->mode = mode;
  80              		.loc 1 11 5 is_stmt 1 view .LVU16
ARM GAS  /var/folders/lx/hc4sn_b53233_zkc9xbbl97r0000gp/T//cc8dulPh.s 			page 3


  11:DataStructure/linked_list.c ****     first_item->mode = mode;
  81              		.loc 1 11 34 is_stmt 0 view .LVU17
  82 000a 4B60     		str	r3, [r1, #4]
  12:DataStructure/linked_list.c ****     // }
  83              		.loc 1 12 5 is_stmt 1 view .LVU18
  12:DataStructure/linked_list.c ****     // }
  84              		.loc 1 12 22 is_stmt 0 view .LVU19
  85 000c 0A70     		strb	r2, [r1]
  17:DataStructure/linked_list.c ****     list->compare_callback = callback;
  86              		.loc 1 17 5 is_stmt 1 view .LVU20
  17:DataStructure/linked_list.c ****     list->compare_callback = callback;
  87              		.loc 1 17 16 is_stmt 0 view .LVU21
  88 000e 0270     		strb	r2, [r0]
  18:DataStructure/linked_list.c **** 
  89              		.loc 1 18 5 is_stmt 1 view .LVU22
  18:DataStructure/linked_list.c **** 
  90              		.loc 1 18 28 is_stmt 0 view .LVU23
  91 0010 4360     		str	r3, [r0, #4]
  20:DataStructure/linked_list.c **** }
  92              		.loc 1 20 5 is_stmt 1 view .LVU24
  20:DataStructure/linked_list.c **** }
  93              		.loc 1 20 15 is_stmt 0 view .LVU25
  94 0012 0023     		movs	r3, #0
  95              	.LVL3:
  20:DataStructure/linked_list.c **** }
  96              		.loc 1 20 15 view .LVU26
  97 0014 8360     		str	r3, [r0, #8]
  21:DataStructure/linked_list.c **** 
  98              		.loc 1 21 1 view .LVU27
  99 0016 5DF8044B 		ldr	r4, [sp], #4
 100              	.LCFI1:
 101              		.cfi_restore 4
 102              		.cfi_def_cfa_offset 0
 103 001a 7047     		bx	lr
 104              		.cfi_endproc
 105              	.LFE0:
 107              		.section	.text.List_CheckAt,"ax",%progbits
 108              		.align	1
 109              		.global	List_CheckAt
 110              		.syntax unified
 111              		.thumb
 112              		.thumb_func
 113              		.fpu fpv5-d16
 115              	List_CheckAt:
 116              	.LVL4:
 117              	.LFB3:
  31:DataStructure/linked_list.c **** 
  32:DataStructure/linked_list.c **** static void List_ItemSwapLRItem(item_obj *item)
  33:DataStructure/linked_list.c **** {
  34:DataStructure/linked_list.c ****     item_obj *item_tmp = NULL;
  35:DataStructure/linked_list.c **** 
  36:DataStructure/linked_list.c ****     if (item != NULL)
  37:DataStructure/linked_list.c ****     {
  38:DataStructure/linked_list.c ****         item_tmp = item->prv;
  39:DataStructure/linked_list.c **** 
  40:DataStructure/linked_list.c ****         item->prv = item->nxt;
  41:DataStructure/linked_list.c ****         item->nxt = item_tmp;
ARM GAS  /var/folders/lx/hc4sn_b53233_zkc9xbbl97r0000gp/T//cc8dulPh.s 			page 4


  42:DataStructure/linked_list.c ****     }
  43:DataStructure/linked_list.c **** }
  44:DataStructure/linked_list.c **** 
  45:DataStructure/linked_list.c **** // minimun check pos is 1
  46:DataStructure/linked_list.c **** item_obj *List_CheckAt(list_obj *list, uint16_t layer)
  47:DataStructure/linked_list.c **** {
 118              		.loc 1 47 1 is_stmt 1 view -0
 119              		.cfi_startproc
 120              		@ args = 0, pretend = 0, frame = 0
 121              		@ frame_needed = 0, uses_anonymous_args = 0
  48:DataStructure/linked_list.c ****     item_obj *item_tmp = NULL;
 122              		.loc 1 48 5 view .LVU29
  49:DataStructure/linked_list.c **** 
  50:DataStructure/linked_list.c ****     if (layer == 1)
 123              		.loc 1 50 5 view .LVU30
 124              		.loc 1 50 8 is_stmt 0 view .LVU31
 125 0000 0129     		cmp	r1, #1
 126 0002 07D0     		beq	.L9
  51:DataStructure/linked_list.c ****     {
  52:DataStructure/linked_list.c ****         return list;
  53:DataStructure/linked_list.c ****     }
  54:DataStructure/linked_list.c **** 
  55:DataStructure/linked_list.c ****     if (layer < MINIMUN_SEARCH_POS)
 127              		.loc 1 55 5 is_stmt 1 view .LVU32
 128              		.loc 1 55 8 is_stmt 0 view .LVU33
 129 0004 21B1     		cbz	r1, .L7
  47:DataStructure/linked_list.c ****     item_obj *item_tmp = NULL;
 130              		.loc 1 47 1 view .LVU34
 131 0006 08B5     		push	{r3, lr}
 132              	.LCFI2:
 133              		.cfi_def_cfa_offset 8
 134              		.cfi_offset 3, -8
 135              		.cfi_offset 14, -4
  56:DataStructure/linked_list.c ****     {
  57:DataStructure/linked_list.c ****         return NULL;
  58:DataStructure/linked_list.c ****     }
  59:DataStructure/linked_list.c ****     else
  60:DataStructure/linked_list.c ****     {
  61:DataStructure/linked_list.c ****         item_tmp = (item_obj *)List_CheckAt(list->nxt, layer--);
 136              		.loc 1 61 9 is_stmt 1 view .LVU35
 137              	.LVL5:
 138              		.loc 1 61 20 is_stmt 0 view .LVU36
 139 0008 C068     		ldr	r0, [r0, #12]
 140              	.LVL6:
 141              		.loc 1 61 20 view .LVU37
 142 000a FFF7FEFF 		bl	List_CheckAt
 143              	.LVL7:
  62:DataStructure/linked_list.c ****     }
  63:DataStructure/linked_list.c **** 
  64:DataStructure/linked_list.c ****     return item_tmp;
 144              		.loc 1 64 5 is_stmt 1 view .LVU38
  65:DataStructure/linked_list.c **** }
 145              		.loc 1 65 1 is_stmt 0 view .LVU39
 146 000e 08BD     		pop	{r3, pc}
 147              	.LVL8:
 148              	.L7:
 149              	.LCFI3:
ARM GAS  /var/folders/lx/hc4sn_b53233_zkc9xbbl97r0000gp/T//cc8dulPh.s 			page 5


 150              		.cfi_def_cfa_offset 0
 151              		.cfi_restore 3
 152              		.cfi_restore 14
  57:DataStructure/linked_list.c ****     }
 153              		.loc 1 57 16 view .LVU40
 154 0010 0020     		movs	r0, #0
 155              	.LVL9:
  57:DataStructure/linked_list.c ****     }
 156              		.loc 1 57 16 view .LVU41
 157 0012 7047     		bx	lr
 158              	.LVL10:
 159              	.L9:
 160              		.loc 1 65 1 view .LVU42
 161 0014 7047     		bx	lr
 162              		.cfi_endproc
 163              	.LFE3:
 165              		.section	.text.List_Chk_FirstItem,"ax",%progbits
 166              		.align	1
 167              		.global	List_Chk_FirstItem
 168              		.syntax unified
 169              		.thumb
 170              		.thumb_func
 171              		.fpu fpv5-d16
 173              	List_Chk_FirstItem:
 174              	.LVL11:
 175              	.LFB4:
  66:DataStructure/linked_list.c **** 
  67:DataStructure/linked_list.c **** item_obj *List_Chk_FirstItem(list_obj *list)
  68:DataStructure/linked_list.c **** {
 176              		.loc 1 68 1 is_stmt 1 view -0
 177              		.cfi_startproc
 178              		@ args = 0, pretend = 0, frame = 0
 179              		@ frame_needed = 0, uses_anonymous_args = 0
 180              		.loc 1 68 1 is_stmt 0 view .LVU44
 181 0000 08B5     		push	{r3, lr}
 182              	.LCFI4:
 183              		.cfi_def_cfa_offset 8
 184              		.cfi_offset 3, -8
 185              		.cfi_offset 14, -4
  69:DataStructure/linked_list.c ****     if (list != NULL)
 186              		.loc 1 69 5 is_stmt 1 view .LVU45
 187              		.loc 1 69 8 is_stmt 0 view .LVU46
 188 0002 0346     		mov	r3, r0
 189 0004 20B1     		cbz	r0, .L13
  70:DataStructure/linked_list.c ****     {
  71:DataStructure/linked_list.c ****         if (list->prv == NULL)
 190              		.loc 1 71 9 is_stmt 1 view .LVU47
 191              		.loc 1 71 17 is_stmt 0 view .LVU48
 192 0006 8068     		ldr	r0, [r0, #8]
 193              	.LVL12:
 194              		.loc 1 71 12 view .LVU49
 195 0008 10B1     		cbz	r0, .L13
  72:DataStructure/linked_list.c ****         {
  73:DataStructure/linked_list.c ****             return list;
  74:DataStructure/linked_list.c ****         }
  75:DataStructure/linked_list.c ****         else
  76:DataStructure/linked_list.c ****             return List_Chk_FirstItem(list->prv);
ARM GAS  /var/folders/lx/hc4sn_b53233_zkc9xbbl97r0000gp/T//cc8dulPh.s 			page 6


 196              		.loc 1 76 13 is_stmt 1 view .LVU50
 197              		.loc 1 76 20 is_stmt 0 view .LVU51
 198 000a FFF7FEFF 		bl	List_Chk_FirstItem
 199              	.LVL13:
 200              		.loc 1 76 20 view .LVU52
 201 000e 0346     		mov	r3, r0
 202              	.L13:
  77:DataStructure/linked_list.c ****     }
  78:DataStructure/linked_list.c **** 
  79:DataStructure/linked_list.c ****     return NULL;
  80:DataStructure/linked_list.c **** }
 203              		.loc 1 80 1 view .LVU53
 204 0010 1846     		mov	r0, r3
 205 0012 08BD     		pop	{r3, pc}
 206              		.cfi_endproc
 207              	.LFE4:
 209              		.section	.text.List_Chk_LastItem,"ax",%progbits
 210              		.align	1
 211              		.global	List_Chk_LastItem
 212              		.syntax unified
 213              		.thumb
 214              		.thumb_func
 215              		.fpu fpv5-d16
 217              	List_Chk_LastItem:
 218              	.LVL14:
 219              	.LFB5:
  81:DataStructure/linked_list.c **** 
  82:DataStructure/linked_list.c **** item_obj *List_Chk_LastItem(list_obj *list)
  83:DataStructure/linked_list.c **** {
 220              		.loc 1 83 1 is_stmt 1 view -0
 221              		.cfi_startproc
 222              		@ args = 0, pretend = 0, frame = 0
 223              		@ frame_needed = 0, uses_anonymous_args = 0
 224              		.loc 1 83 1 is_stmt 0 view .LVU55
 225 0000 08B5     		push	{r3, lr}
 226              	.LCFI5:
 227              		.cfi_def_cfa_offset 8
 228              		.cfi_offset 3, -8
 229              		.cfi_offset 14, -4
  84:DataStructure/linked_list.c ****     if (list != NULL)
 230              		.loc 1 84 5 is_stmt 1 view .LVU56
 231              		.loc 1 84 8 is_stmt 0 view .LVU57
 232 0002 0346     		mov	r3, r0
 233 0004 20B1     		cbz	r0, .L16
  85:DataStructure/linked_list.c ****     {
  86:DataStructure/linked_list.c ****         if (list->nxt == NULL)
 234              		.loc 1 86 9 is_stmt 1 view .LVU58
 235              		.loc 1 86 17 is_stmt 0 view .LVU59
 236 0006 C068     		ldr	r0, [r0, #12]
 237              	.LVL15:
 238              		.loc 1 86 12 view .LVU60
 239 0008 10B1     		cbz	r0, .L16
  87:DataStructure/linked_list.c ****         {
  88:DataStructure/linked_list.c ****             return list;
  89:DataStructure/linked_list.c ****         }
  90:DataStructure/linked_list.c ****         else
  91:DataStructure/linked_list.c ****             return List_Chk_LastItem(list->nxt);
ARM GAS  /var/folders/lx/hc4sn_b53233_zkc9xbbl97r0000gp/T//cc8dulPh.s 			page 7


 240              		.loc 1 91 13 is_stmt 1 view .LVU61
 241              		.loc 1 91 20 is_stmt 0 view .LVU62
 242 000a FFF7FEFF 		bl	List_Chk_LastItem
 243              	.LVL16:
 244              		.loc 1 91 20 view .LVU63
 245 000e 0346     		mov	r3, r0
 246              	.L16:
  92:DataStructure/linked_list.c ****     }
  93:DataStructure/linked_list.c **** 
  94:DataStructure/linked_list.c ****     return NULL;
  95:DataStructure/linked_list.c **** }
 247              		.loc 1 95 1 view .LVU64
 248 0010 1846     		mov	r0, r3
 249 0012 08BD     		pop	{r3, pc}
 250              		.cfi_endproc
 251              	.LFE5:
 253              		.section	.text.List_ItemClear,"ax",%progbits
 254              		.align	1
 255              		.global	List_ItemClear
 256              		.syntax unified
 257              		.thumb
 258              		.thumb_func
 259              		.fpu fpv5-d16
 261              	List_ItemClear:
 262              	.LVL17:
 263              	.LFB6:
  96:DataStructure/linked_list.c **** 
  97:DataStructure/linked_list.c **** list_error_code List_ItemClear(item_obj *item)
  98:DataStructure/linked_list.c **** {
 264              		.loc 1 98 1 is_stmt 1 view -0
 265              		.cfi_startproc
 266              		@ args = 0, pretend = 0, frame = 0
 267              		@ frame_needed = 0, uses_anonymous_args = 0
 268              		@ link register save eliminated.
  99:DataStructure/linked_list.c ****     if (item != NULL)
 269              		.loc 1 99 5 view .LVU66
 270              		.loc 1 99 8 is_stmt 0 view .LVU67
 271 0000 0346     		mov	r3, r0
 272 0002 20B1     		cbz	r0, .L20
 100:DataStructure/linked_list.c ****     {
 101:DataStructure/linked_list.c ****         item->data = NULL;
 273              		.loc 1 101 9 is_stmt 1 view .LVU68
 274              		.loc 1 101 20 is_stmt 0 view .LVU69
 275 0004 0020     		movs	r0, #0
 276              	.LVL18:
 277              		.loc 1 101 20 view .LVU70
 278 0006 1861     		str	r0, [r3, #16]
 102:DataStructure/linked_list.c ****         item->prv = NULL;
 279              		.loc 1 102 9 is_stmt 1 view .LVU71
 280              		.loc 1 102 19 is_stmt 0 view .LVU72
 281 0008 9860     		str	r0, [r3, #8]
 103:DataStructure/linked_list.c ****         item->nxt = NULL;
 282              		.loc 1 103 9 is_stmt 1 view .LVU73
 283              		.loc 1 103 19 is_stmt 0 view .LVU74
 284 000a D860     		str	r0, [r3, #12]
 104:DataStructure/linked_list.c **** 
 105:DataStructure/linked_list.c ****         return list_no_error;
ARM GAS  /var/folders/lx/hc4sn_b53233_zkc9xbbl97r0000gp/T//cc8dulPh.s 			page 8


 285              		.loc 1 105 9 is_stmt 1 view .LVU75
 286              		.loc 1 105 16 is_stmt 0 view .LVU76
 287 000c 7047     		bx	lr
 288              	.LVL19:
 289              	.L20:
 106:DataStructure/linked_list.c ****     }
 107:DataStructure/linked_list.c **** 
 108:DataStructure/linked_list.c ****     return list_obj_error;
 290              		.loc 1 108 12 view .LVU77
 291 000e 6FF00100 		mvn	r0, #1
 292              	.LVL20:
 109:DataStructure/linked_list.c **** }
 293              		.loc 1 109 1 view .LVU78
 294 0012 7047     		bx	lr
 295              		.cfi_endproc
 296              	.LFE6:
 298              		.section	.text.List_ItemInit,"ax",%progbits
 299              		.align	1
 300              		.global	List_ItemInit
 301              		.syntax unified
 302              		.thumb
 303              		.thumb_func
 304              		.fpu fpv5-d16
 306              	List_ItemInit:
 307              	.LVL21:
 308              	.LFB7:
 110:DataStructure/linked_list.c **** 
 111:DataStructure/linked_list.c **** void List_ItemInit(item_obj *obj, void *arg)
 112:DataStructure/linked_list.c **** {
 309              		.loc 1 112 1 is_stmt 1 view -0
 310              		.cfi_startproc
 311              		@ args = 0, pretend = 0, frame = 0
 312              		@ frame_needed = 0, uses_anonymous_args = 0
 313              		.loc 1 112 1 is_stmt 0 view .LVU80
 314 0000 38B5     		push	{r3, r4, r5, lr}
 315              	.LCFI6:
 316              		.cfi_def_cfa_offset 16
 317              		.cfi_offset 3, -16
 318              		.cfi_offset 4, -12
 319              		.cfi_offset 5, -8
 320              		.cfi_offset 14, -4
 321 0002 0446     		mov	r4, r0
 322 0004 0D46     		mov	r5, r1
 113:DataStructure/linked_list.c ****     if (List_ItemClear(obj) == list_no_error)
 323              		.loc 1 113 5 is_stmt 1 view .LVU81
 324              		.loc 1 113 9 is_stmt 0 view .LVU82
 325 0006 FFF7FEFF 		bl	List_ItemClear
 326              	.LVL22:
 327              		.loc 1 113 8 view .LVU83
 328 000a 00B9     		cbnz	r0, .L21
 114:DataStructure/linked_list.c ****     {
 115:DataStructure/linked_list.c ****         obj->data = arg;
 329              		.loc 1 115 9 is_stmt 1 view .LVU84
 330              		.loc 1 115 19 is_stmt 0 view .LVU85
 331 000c 2561     		str	r5, [r4, #16]
 332              	.L21:
 116:DataStructure/linked_list.c ****     }
ARM GAS  /var/folders/lx/hc4sn_b53233_zkc9xbbl97r0000gp/T//cc8dulPh.s 			page 9


 117:DataStructure/linked_list.c **** }
 333              		.loc 1 117 1 view .LVU86
 334 000e 38BD     		pop	{r3, r4, r5, pc}
 335              		.loc 1 117 1 view .LVU87
 336              		.cfi_endproc
 337              	.LFE7:
 339              		.section	.text.List_InsertToPrv,"ax",%progbits
 340              		.align	1
 341              		.global	List_InsertToPrv
 342              		.syntax unified
 343              		.thumb
 344              		.thumb_func
 345              		.fpu fpv5-d16
 347              	List_InsertToPrv:
 348              	.LVL23:
 349              	.LFB8:
 118:DataStructure/linked_list.c **** 
 119:DataStructure/linked_list.c **** void List_InsertToPrv(list_obj *list, item_obj *item)
 120:DataStructure/linked_list.c **** {
 350              		.loc 1 120 1 is_stmt 1 view -0
 351              		.cfi_startproc
 352              		@ args = 0, pretend = 0, frame = 0
 353              		@ frame_needed = 0, uses_anonymous_args = 0
 354              		.loc 1 120 1 is_stmt 0 view .LVU89
 355 0000 08B5     		push	{r3, lr}
 356              	.LCFI7:
 357              		.cfi_def_cfa_offset 8
 358              		.cfi_offset 3, -8
 359              		.cfi_offset 14, -4
 121:DataStructure/linked_list.c ****     if (list->nxt != NULL)
 360              		.loc 1 121 5 is_stmt 1 view .LVU90
 361              		.loc 1 121 13 is_stmt 0 view .LVU91
 362 0002 C368     		ldr	r3, [r0, #12]
 363              		.loc 1 121 8 view .LVU92
 364 0004 1BB1     		cbz	r3, .L25
 122:DataStructure/linked_list.c ****     {
 123:DataStructure/linked_list.c ****         List_InsertToPrv(list->prv, item);
 365              		.loc 1 123 9 is_stmt 1 view .LVU93
 366 0006 8068     		ldr	r0, [r0, #8]
 367              	.LVL24:
 368              		.loc 1 123 9 is_stmt 0 view .LVU94
 369 0008 FFF7FEFF 		bl	List_InsertToPrv
 370              	.LVL25:
 371              	.L24:
 124:DataStructure/linked_list.c ****     }
 125:DataStructure/linked_list.c ****     else
 126:DataStructure/linked_list.c ****     {
 127:DataStructure/linked_list.c ****         list->prv = item;
 128:DataStructure/linked_list.c ****         item->nxt = list;
 129:DataStructure/linked_list.c ****     }
 130:DataStructure/linked_list.c **** }
 372              		.loc 1 130 1 view .LVU95
 373 000c 08BD     		pop	{r3, pc}
 374              	.LVL26:
 375              	.L25:
 127:DataStructure/linked_list.c ****         item->nxt = list;
 376              		.loc 1 127 9 is_stmt 1 view .LVU96
ARM GAS  /var/folders/lx/hc4sn_b53233_zkc9xbbl97r0000gp/T//cc8dulPh.s 			page 10


 127:DataStructure/linked_list.c ****         item->nxt = list;
 377              		.loc 1 127 19 is_stmt 0 view .LVU97
 378 000e 8160     		str	r1, [r0, #8]
 128:DataStructure/linked_list.c ****     }
 379              		.loc 1 128 9 is_stmt 1 view .LVU98
 128:DataStructure/linked_list.c ****     }
 380              		.loc 1 128 19 is_stmt 0 view .LVU99
 381 0010 C860     		str	r0, [r1, #12]
 382              		.loc 1 130 1 view .LVU100
 383 0012 FBE7     		b	.L24
 384              		.cfi_endproc
 385              	.LFE8:
 387              		.section	.text.List_InsertByOrder,"ax",%progbits
 388              		.align	1
 389              		.global	List_InsertByOrder
 390              		.syntax unified
 391              		.thumb
 392              		.thumb_func
 393              		.fpu fpv5-d16
 395              	List_InsertByOrder:
 396              	.LVL27:
 397              	.LFB9:
 131:DataStructure/linked_list.c **** 
 132:DataStructure/linked_list.c **** void List_InsertByOrder(list_obj *list, item_obj *item)
 133:DataStructure/linked_list.c **** {
 398              		.loc 1 133 1 is_stmt 1 view -0
 399              		.cfi_startproc
 400              		@ args = 0, pretend = 0, frame = 0
 401              		@ frame_needed = 0, uses_anonymous_args = 0
 402              		.loc 1 133 1 is_stmt 0 view .LVU102
 403 0000 08B5     		push	{r3, lr}
 404              	.LCFI8:
 405              		.cfi_def_cfa_offset 8
 406              		.cfi_offset 3, -8
 407              		.cfi_offset 14, -4
 408 0002 0346     		mov	r3, r0
 134:DataStructure/linked_list.c ****     if (list->nxt != NULL)
 409              		.loc 1 134 5 is_stmt 1 view .LVU103
 410              		.loc 1 134 13 is_stmt 0 view .LVU104
 411 0004 C068     		ldr	r0, [r0, #12]
 412              	.LVL28:
 413              		.loc 1 134 8 view .LVU105
 414 0006 10B1     		cbz	r0, .L29
 135:DataStructure/linked_list.c ****     {
 136:DataStructure/linked_list.c ****         List_InsertByOrder(list->nxt, item);
 415              		.loc 1 136 9 is_stmt 1 view .LVU106
 416 0008 FFF7FEFF 		bl	List_InsertByOrder
 417              	.LVL29:
 418              	.L28:
 137:DataStructure/linked_list.c ****     }
 138:DataStructure/linked_list.c ****     else
 139:DataStructure/linked_list.c ****     {
 140:DataStructure/linked_list.c ****         list->nxt = item;
 141:DataStructure/linked_list.c ****         item->prv = list;
 142:DataStructure/linked_list.c ****     }
 143:DataStructure/linked_list.c **** }
 419              		.loc 1 143 1 is_stmt 0 view .LVU107
ARM GAS  /var/folders/lx/hc4sn_b53233_zkc9xbbl97r0000gp/T//cc8dulPh.s 			page 11


 420 000c 08BD     		pop	{r3, pc}
 421              	.LVL30:
 422              	.L29:
 140:DataStructure/linked_list.c ****         item->prv = list;
 423              		.loc 1 140 9 is_stmt 1 view .LVU108
 140:DataStructure/linked_list.c ****         item->prv = list;
 424              		.loc 1 140 19 is_stmt 0 view .LVU109
 425 000e D960     		str	r1, [r3, #12]
 141:DataStructure/linked_list.c ****     }
 426              		.loc 1 141 9 is_stmt 1 view .LVU110
 141:DataStructure/linked_list.c ****     }
 427              		.loc 1 141 19 is_stmt 0 view .LVU111
 428 0010 8B60     		str	r3, [r1, #8]
 429              		.loc 1 143 1 view .LVU112
 430 0012 FBE7     		b	.L28
 431              		.cfi_endproc
 432              	.LFE9:
 434              		.section	.text.List_InsertByCondition,"ax",%progbits
 435              		.align	1
 436              		.global	List_InsertByCondition
 437              		.syntax unified
 438              		.thumb
 439              		.thumb_func
 440              		.fpu fpv5-d16
 442              	List_InsertByCondition:
 443              	.LVL31:
 444              	.LFB10:
 144:DataStructure/linked_list.c **** 
 145:DataStructure/linked_list.c **** void List_InsertByCondition(list_obj *list, item_obj *item)
 146:DataStructure/linked_list.c **** {
 445              		.loc 1 146 1 is_stmt 1 view -0
 446              		.cfi_startproc
 447              		@ args = 0, pretend = 0, frame = 0
 448              		@ frame_needed = 0, uses_anonymous_args = 0
 449              		.loc 1 146 1 is_stmt 0 view .LVU114
 450 0000 38B5     		push	{r3, r4, r5, lr}
 451              	.LCFI9:
 452              		.cfi_def_cfa_offset 16
 453              		.cfi_offset 3, -16
 454              		.cfi_offset 4, -12
 455              		.cfi_offset 5, -8
 456              		.cfi_offset 14, -4
 147:DataStructure/linked_list.c ****     if ((list->compare_callback != NULL) && (list->data != NULL) && (item->data != NULL))
 457              		.loc 1 147 5 is_stmt 1 view .LVU115
 458              		.loc 1 147 14 is_stmt 0 view .LVU116
 459 0002 4368     		ldr	r3, [r0, #4]
 460              		.loc 1 147 8 view .LVU117
 461 0004 7BB1     		cbz	r3, .L32
 462 0006 0446     		mov	r4, r0
 463 0008 0D46     		mov	r5, r1
 464              		.loc 1 147 50 discriminator 1 view .LVU118
 465 000a 0069     		ldr	r0, [r0, #16]
 466              	.LVL32:
 467              		.loc 1 147 42 discriminator 1 view .LVU119
 468 000c 58B1     		cbz	r0, .L32
 469              		.loc 1 147 74 discriminator 2 view .LVU120
 470 000e 0969     		ldr	r1, [r1, #16]
ARM GAS  /var/folders/lx/hc4sn_b53233_zkc9xbbl97r0000gp/T//cc8dulPh.s 			page 12


 471              	.LVL33:
 472              		.loc 1 147 66 discriminator 2 view .LVU121
 473 0010 49B1     		cbz	r1, .L32
 474              	.LBB2:
 148:DataStructure/linked_list.c ****     {
 149:DataStructure/linked_list.c ****         volatile void *cmp_out = list->compare_callback(list->data, item->data);
 475              		.loc 1 149 9 is_stmt 1 view .LVU122
 476              		.loc 1 149 34 is_stmt 0 view .LVU123
 477 0012 9847     		blx	r3
 478              	.LVL34:
 150:DataStructure/linked_list.c **** 
 151:DataStructure/linked_list.c ****         if (cmp_out == NULL)
 479              		.loc 1 151 9 is_stmt 1 view .LVU124
 480              		.loc 1 151 12 is_stmt 0 view .LVU125
 481 0014 38B1     		cbz	r0, .L32
 152:DataStructure/linked_list.c ****         {
 153:DataStructure/linked_list.c ****             return;
 154:DataStructure/linked_list.c ****         }
 155:DataStructure/linked_list.c **** 
 156:DataStructure/linked_list.c ****         if (cmp_out == item->data)
 482              		.loc 1 156 9 is_stmt 1 view .LVU126
 483              		.loc 1 156 28 is_stmt 0 view .LVU127
 484 0016 2A69     		ldr	r2, [r5, #16]
 485              		.loc 1 156 12 view .LVU128
 486 0018 8242     		cmp	r2, r0
 487 001a 05D0     		beq	.L37
 488              	.LVL35:
 489              	.L34:
 490              		.loc 1 156 12 view .LVU129
 491              	.LBE2:
 157:DataStructure/linked_list.c ****         {
 158:DataStructure/linked_list.c ****             Item_SwapLRData(list, item);
 159:DataStructure/linked_list.c ****         }
 160:DataStructure/linked_list.c ****     }
 161:DataStructure/linked_list.c ****     else
 162:DataStructure/linked_list.c ****         return;
 163:DataStructure/linked_list.c **** 
 164:DataStructure/linked_list.c ****     if (list->nxt != NULL)
 492              		.loc 1 164 5 is_stmt 1 view .LVU130
 493              		.loc 1 164 13 is_stmt 0 view .LVU131
 494 001c E068     		ldr	r0, [r4, #12]
 495              		.loc 1 164 8 view .LVU132
 496 001e 40B1     		cbz	r0, .L35
 165:DataStructure/linked_list.c ****     {
 166:DataStructure/linked_list.c ****         List_InsertByCondition(list->nxt, item);
 497              		.loc 1 166 9 is_stmt 1 view .LVU133
 498 0020 2946     		mov	r1, r5
 499 0022 FFF7FEFF 		bl	List_InsertByCondition
 500              	.LVL36:
 501              	.L32:
 167:DataStructure/linked_list.c ****     }
 168:DataStructure/linked_list.c ****     else
 169:DataStructure/linked_list.c ****     {
 170:DataStructure/linked_list.c ****         list->nxt = item;
 171:DataStructure/linked_list.c ****         item->prv = list;
 172:DataStructure/linked_list.c ****         item->nxt = NULL;
 173:DataStructure/linked_list.c ****     }
ARM GAS  /var/folders/lx/hc4sn_b53233_zkc9xbbl97r0000gp/T//cc8dulPh.s 			page 13


 174:DataStructure/linked_list.c **** }
 502              		.loc 1 174 1 is_stmt 0 view .LVU134
 503 0026 38BD     		pop	{r3, r4, r5, pc}
 504              	.LVL37:
 505              	.L37:
 506              	.LBB3:
 158:DataStructure/linked_list.c ****         }
 507              		.loc 1 158 13 is_stmt 1 view .LVU135
 508 0028 2946     		mov	r1, r5
 509 002a 2046     		mov	r0, r4
 510              	.LVL38:
 158:DataStructure/linked_list.c ****         }
 511              		.loc 1 158 13 is_stmt 0 view .LVU136
 512 002c FFF7FEFF 		bl	Item_SwapLRData
 513              	.LVL39:
 514 0030 F4E7     		b	.L34
 515              	.L35:
 158:DataStructure/linked_list.c ****         }
 516              		.loc 1 158 13 view .LVU137
 517              	.LBE3:
 170:DataStructure/linked_list.c ****         item->prv = list;
 518              		.loc 1 170 9 is_stmt 1 view .LVU138
 170:DataStructure/linked_list.c ****         item->prv = list;
 519              		.loc 1 170 19 is_stmt 0 view .LVU139
 520 0032 E560     		str	r5, [r4, #12]
 171:DataStructure/linked_list.c ****         item->nxt = NULL;
 521              		.loc 1 171 9 is_stmt 1 view .LVU140
 171:DataStructure/linked_list.c ****         item->nxt = NULL;
 522              		.loc 1 171 19 is_stmt 0 view .LVU141
 523 0034 AC60     		str	r4, [r5, #8]
 172:DataStructure/linked_list.c ****     }
 524              		.loc 1 172 9 is_stmt 1 view .LVU142
 172:DataStructure/linked_list.c ****     }
 525              		.loc 1 172 19 is_stmt 0 view .LVU143
 526 0036 0023     		movs	r3, #0
 527 0038 EB60     		str	r3, [r5, #12]
 528 003a F4E7     		b	.L32
 529              		.cfi_endproc
 530              	.LFE10:
 532              		.section	.text.List_Insert_Item,"ax",%progbits
 533              		.align	1
 534              		.global	List_Insert_Item
 535              		.syntax unified
 536              		.thumb
 537              		.thumb_func
 538              		.fpu fpv5-d16
 540              	List_Insert_Item:
 541              	.LVL40:
 542              	.LFB11:
 175:DataStructure/linked_list.c **** 
 176:DataStructure/linked_list.c **** void List_Insert_Item(list_obj *list, item_obj *item)
 177:DataStructure/linked_list.c **** {
 543              		.loc 1 177 1 is_stmt 1 view -0
 544              		.cfi_startproc
 545              		@ args = 0, pretend = 0, frame = 0
 546              		@ frame_needed = 0, uses_anonymous_args = 0
 178:DataStructure/linked_list.c ****     if ((list != NULL) && (item != NULL))
ARM GAS  /var/folders/lx/hc4sn_b53233_zkc9xbbl97r0000gp/T//cc8dulPh.s 			page 14


 547              		.loc 1 178 5 view .LVU145
 548              		.loc 1 178 8 is_stmt 0 view .LVU146
 549 0000 0028     		cmp	r0, #0
 550 0002 18BF     		it	ne
 551 0004 0029     		cmpne	r1, #0
 552 0006 13D0     		beq	.L43
 177:DataStructure/linked_list.c ****     if ((list != NULL) && (item != NULL))
 553              		.loc 1 177 1 view .LVU147
 554 0008 08B5     		push	{r3, lr}
 555              	.LCFI10:
 556              		.cfi_def_cfa_offset 8
 557              		.cfi_offset 3, -8
 558              		.cfi_offset 14, -4
 179:DataStructure/linked_list.c ****     {
 180:DataStructure/linked_list.c ****         item->compare_callback = list->compare_callback;
 559              		.loc 1 180 9 is_stmt 1 view .LVU148
 560              		.loc 1 180 38 is_stmt 0 view .LVU149
 561 000a 4368     		ldr	r3, [r0, #4]
 562              		.loc 1 180 32 view .LVU150
 563 000c 4B60     		str	r3, [r1, #4]
 181:DataStructure/linked_list.c ****         item->mode = list->mode;
 564              		.loc 1 181 9 is_stmt 1 view .LVU151
 565              		.loc 1 181 26 is_stmt 0 view .LVU152
 566 000e 0378     		ldrb	r3, [r0]	@ zero_extendqisi2
 567              		.loc 1 181 20 view .LVU153
 568 0010 0B70     		strb	r3, [r1]
 182:DataStructure/linked_list.c **** 
 183:DataStructure/linked_list.c ****         switch (list->mode)
 569              		.loc 1 183 9 is_stmt 1 view .LVU154
 570 0012 012B     		cmp	r3, #1
 571 0014 06D0     		beq	.L40
 572 0016 022B     		cmp	r3, #2
 573 0018 07D0     		beq	.L41
 574 001a 03B1     		cbz	r3, .L46
 575              	.LVL41:
 576              	.L38:
 184:DataStructure/linked_list.c ****         {
 185:DataStructure/linked_list.c ****         case to_front:
 186:DataStructure/linked_list.c ****             List_InsertToPrv(list, item);
 187:DataStructure/linked_list.c ****             break;
 188:DataStructure/linked_list.c **** 
 189:DataStructure/linked_list.c ****         case by_order:
 190:DataStructure/linked_list.c ****             List_InsertByOrder(list, item);
 191:DataStructure/linked_list.c ****             break;
 192:DataStructure/linked_list.c **** 
 193:DataStructure/linked_list.c ****         case by_condition:
 194:DataStructure/linked_list.c ****             List_InsertByCondition(list, item);
 195:DataStructure/linked_list.c ****             break;
 196:DataStructure/linked_list.c **** 
 197:DataStructure/linked_list.c ****         default:
 198:DataStructure/linked_list.c ****             return;
 199:DataStructure/linked_list.c ****             break;
 200:DataStructure/linked_list.c ****         }
 201:DataStructure/linked_list.c ****     }
 202:DataStructure/linked_list.c ****     else if ((list == NULL) && (item != NULL))
 203:DataStructure/linked_list.c ****     {
 204:DataStructure/linked_list.c ****         list = item;
ARM GAS  /var/folders/lx/hc4sn_b53233_zkc9xbbl97r0000gp/T//cc8dulPh.s 			page 15


 205:DataStructure/linked_list.c ****     }
 206:DataStructure/linked_list.c **** }
 577              		.loc 1 206 1 is_stmt 0 view .LVU155
 578 001c 08BD     		pop	{r3, pc}
 579              	.LVL42:
 580              	.L46:
 186:DataStructure/linked_list.c ****             break;
 581              		.loc 1 186 13 is_stmt 1 view .LVU156
 582 001e FFF7FEFF 		bl	List_InsertToPrv
 583              	.LVL43:
 187:DataStructure/linked_list.c **** 
 584              		.loc 1 187 13 view .LVU157
 585 0022 FBE7     		b	.L38
 586              	.LVL44:
 587              	.L40:
 190:DataStructure/linked_list.c ****             break;
 588              		.loc 1 190 13 view .LVU158
 589 0024 FFF7FEFF 		bl	List_InsertByOrder
 590              	.LVL45:
 191:DataStructure/linked_list.c **** 
 591              		.loc 1 191 13 view .LVU159
 592 0028 F8E7     		b	.L38
 593              	.LVL46:
 594              	.L41:
 194:DataStructure/linked_list.c ****             break;
 595              		.loc 1 194 13 view .LVU160
 596 002a FFF7FEFF 		bl	List_InsertByCondition
 597              	.LVL47:
 195:DataStructure/linked_list.c **** 
 598              		.loc 1 195 13 view .LVU161
 195:DataStructure/linked_list.c **** 
 599              		.loc 1 195 13 is_stmt 0 view .LVU162
 600 002e F5E7     		b	.L38
 601              	.LVL48:
 602              	.L43:
 603              	.LCFI11:
 604              		.cfi_def_cfa_offset 0
 605              		.cfi_restore 3
 606              		.cfi_restore 14
 195:DataStructure/linked_list.c **** 
 607              		.loc 1 195 13 view .LVU163
 608 0030 7047     		bx	lr
 609              		.cfi_endproc
 610              	.LFE11:
 612              		.section	.text.List_traverse,"ax",%progbits
 613              		.align	1
 614              		.global	List_traverse
 615              		.syntax unified
 616              		.thumb
 617              		.thumb_func
 618              		.fpu fpv5-d16
 620              	List_traverse:
 621              	.LVL49:
 622              	.LFB13:
 207:DataStructure/linked_list.c **** 
 208:DataStructure/linked_list.c **** list_error_code List_traverse_HaltByCondition(list_obj *list, list_traverse_callback callback, void
 209:DataStructure/linked_list.c **** {
ARM GAS  /var/folders/lx/hc4sn_b53233_zkc9xbbl97r0000gp/T//cc8dulPh.s 			page 16


 210:DataStructure/linked_list.c ****     if (list != NULL)
 211:DataStructure/linked_list.c ****     {
 212:DataStructure/linked_list.c ****         if ((callback != NULL) && (cb_serial == pre_callback))
 213:DataStructure/linked_list.c ****         {
 214:DataStructure/linked_list.c ****             if (condition == callback(list, list->data, arg))
 215:DataStructure/linked_list.c ****                 return list_no_error;
 216:DataStructure/linked_list.c ****         }
 217:DataStructure/linked_list.c **** 
 218:DataStructure/linked_list.c ****         if (list->nxt != NULL)
 219:DataStructure/linked_list.c ****         {
 220:DataStructure/linked_list.c ****             List_traverse(list->nxt, callback, arg, cb_serial);
 221:DataStructure/linked_list.c ****         }
 222:DataStructure/linked_list.c **** 
 223:DataStructure/linked_list.c ****         if ((callback != NULL) && (cb_serial == sub_callback))
 224:DataStructure/linked_list.c ****         {
 225:DataStructure/linked_list.c ****             if (condition == callback(list, list->data, arg))
 226:DataStructure/linked_list.c ****                 return list_no_error;
 227:DataStructure/linked_list.c ****         }
 228:DataStructure/linked_list.c ****     }
 229:DataStructure/linked_list.c ****     else
 230:DataStructure/linked_list.c ****         return list_obj_error;
 231:DataStructure/linked_list.c **** 
 232:DataStructure/linked_list.c ****     return list_no_error;
 233:DataStructure/linked_list.c **** }
 234:DataStructure/linked_list.c **** 
 235:DataStructure/linked_list.c **** list_error_code List_traverse(list_obj *list, list_traverse_callback callback, void *arg, listtrv_c
 236:DataStructure/linked_list.c **** {
 623              		.loc 1 236 1 is_stmt 1 view -0
 624              		.cfi_startproc
 625              		@ args = 0, pretend = 0, frame = 0
 626              		@ frame_needed = 0, uses_anonymous_args = 0
 237:DataStructure/linked_list.c ****     if (list != NULL)
 627              		.loc 1 237 5 view .LVU165
 628              		.loc 1 237 8 is_stmt 0 view .LVU166
 629 0000 28B3     		cbz	r0, .L51
 236:DataStructure/linked_list.c ****     if (list != NULL)
 630              		.loc 1 236 1 view .LVU167
 631 0002 2DE9F041 		push	{r4, r5, r6, r7, r8, lr}
 632              	.LCFI12:
 633              		.cfi_def_cfa_offset 24
 634              		.cfi_offset 4, -24
 635              		.cfi_offset 5, -20
 636              		.cfi_offset 6, -16
 637              		.cfi_offset 7, -12
 638              		.cfi_offset 8, -8
 639              		.cfi_offset 14, -4
 640 0006 0D46     		mov	r5, r1
 641 0008 1746     		mov	r7, r2
 642 000a 1C46     		mov	r4, r3
 643 000c 8046     		mov	r8, r0
 238:DataStructure/linked_list.c ****     {
 239:DataStructure/linked_list.c ****         if ((callback != NULL) && (cb_serial == pre_callback))
 644              		.loc 1 239 9 is_stmt 1 view .LVU168
 645              		.loc 1 239 23 is_stmt 0 view .LVU169
 646 000e 0E1E     		subs	r6, r1, #0
 647 0010 18BF     		it	ne
 648 0012 0126     		movne	r6, #1
ARM GAS  /var/folders/lx/hc4sn_b53233_zkc9xbbl97r0000gp/T//cc8dulPh.s 			page 17


 649              		.loc 1 239 32 view .LVU170
 650 0014 002B     		cmp	r3, #0
 651 0016 14BF     		ite	ne
 652 0018 0023     		movne	r3, #0
 653 001a 06F00103 		andeq	r3, r6, #1
 654              	.LVL50:
 655              		.loc 1 239 12 view .LVU171
 656 001e 0BB1     		cbz	r3, .L49
 240:DataStructure/linked_list.c ****         {
 241:DataStructure/linked_list.c ****             callback(list, list->data, arg);
 657              		.loc 1 241 13 is_stmt 1 view .LVU172
 658 0020 0169     		ldr	r1, [r0, #16]
 659              	.LVL51:
 660              		.loc 1 241 13 is_stmt 0 view .LVU173
 661 0022 A847     		blx	r5
 662              	.LVL52:
 663              	.L49:
 242:DataStructure/linked_list.c ****         }
 243:DataStructure/linked_list.c **** 
 244:DataStructure/linked_list.c ****         if (list->nxt != NULL)
 664              		.loc 1 244 9 is_stmt 1 view .LVU174
 665              		.loc 1 244 17 is_stmt 0 view .LVU175
 666 0024 D8F80C00 		ldr	r0, [r8, #12]
 667              		.loc 1 244 12 view .LVU176
 668 0028 20B1     		cbz	r0, .L50
 245:DataStructure/linked_list.c ****         {
 246:DataStructure/linked_list.c ****             List_traverse(list->nxt, callback, arg, cb_serial);
 669              		.loc 1 246 13 is_stmt 1 view .LVU177
 670 002a 2346     		mov	r3, r4
 671 002c 3A46     		mov	r2, r7
 672 002e 2946     		mov	r1, r5
 673 0030 FFF7FEFF 		bl	List_traverse
 674              	.LVL53:
 675              	.L50:
 247:DataStructure/linked_list.c ****         }
 248:DataStructure/linked_list.c **** 
 249:DataStructure/linked_list.c ****         if ((callback != NULL) && (cb_serial == sub_callback))
 676              		.loc 1 249 9 view .LVU178
 677              		.loc 1 249 32 is_stmt 0 view .LVU179
 678 0034 012C     		cmp	r4, #1
 679 0036 14BF     		ite	ne
 680 0038 0026     		movne	r6, #0
 681 003a 06F00106 		andeq	r6, r6, #1
 682              		.loc 1 249 12 view .LVU180
 683 003e 4EB1     		cbz	r6, .L52
 250:DataStructure/linked_list.c ****         {
 251:DataStructure/linked_list.c ****             callback(list, list->data, arg);
 684              		.loc 1 251 13 is_stmt 1 view .LVU181
 685 0040 3A46     		mov	r2, r7
 686 0042 D8F81010 		ldr	r1, [r8, #16]
 687 0046 4046     		mov	r0, r8
 688 0048 A847     		blx	r5
 689              	.LVL54:
 252:DataStructure/linked_list.c ****         }
 253:DataStructure/linked_list.c ****     }
 254:DataStructure/linked_list.c ****     else
 255:DataStructure/linked_list.c ****         return list_obj_error;
ARM GAS  /var/folders/lx/hc4sn_b53233_zkc9xbbl97r0000gp/T//cc8dulPh.s 			page 18


 256:DataStructure/linked_list.c **** 
 257:DataStructure/linked_list.c ****     return list_no_error;
 690              		.loc 1 257 12 is_stmt 0 view .LVU182
 691 004a 0020     		movs	r0, #0
 692 004c 03E0     		b	.L48
 693              	.LVL55:
 694              	.L51:
 695              	.LCFI13:
 696              		.cfi_def_cfa_offset 0
 697              		.cfi_restore 4
 698              		.cfi_restore 5
 699              		.cfi_restore 6
 700              		.cfi_restore 7
 701              		.cfi_restore 8
 702              		.cfi_restore 14
 255:DataStructure/linked_list.c **** 
 703              		.loc 1 255 16 view .LVU183
 704 004e 6FF00100 		mvn	r0, #1
 705              	.LVL56:
 258:DataStructure/linked_list.c **** }
 706              		.loc 1 258 1 view .LVU184
 707 0052 7047     		bx	lr
 708              	.LVL57:
 709              	.L52:
 710              	.LCFI14:
 711              		.cfi_def_cfa_offset 24
 712              		.cfi_offset 4, -24
 713              		.cfi_offset 5, -20
 714              		.cfi_offset 6, -16
 715              		.cfi_offset 7, -12
 716              		.cfi_offset 8, -8
 717              		.cfi_offset 14, -4
 257:DataStructure/linked_list.c **** }
 718              		.loc 1 257 12 view .LVU185
 719 0054 0020     		movs	r0, #0
 720              	.L48:
 721              		.loc 1 258 1 view .LVU186
 722 0056 BDE8F081 		pop	{r4, r5, r6, r7, r8, pc}
 723              		.loc 1 258 1 view .LVU187
 724              		.cfi_endproc
 725              	.LFE13:
 727              		.section	.text.List_traverse_HaltByCondition,"ax",%progbits
 728              		.align	1
 729              		.global	List_traverse_HaltByCondition
 730              		.syntax unified
 731              		.thumb
 732              		.thumb_func
 733              		.fpu fpv5-d16
 735              	List_traverse_HaltByCondition:
 736              	.LVL58:
 737              	.LFB12:
 209:DataStructure/linked_list.c ****     if (list != NULL)
 738              		.loc 1 209 1 is_stmt 1 view -0
 739              		.cfi_startproc
 740              		@ args = 4, pretend = 0, frame = 0
 741              		@ frame_needed = 0, uses_anonymous_args = 0
 210:DataStructure/linked_list.c ****     {
ARM GAS  /var/folders/lx/hc4sn_b53233_zkc9xbbl97r0000gp/T//cc8dulPh.s 			page 19


 742              		.loc 1 210 5 view .LVU189
 210:DataStructure/linked_list.c ****     {
 743              		.loc 1 210 8 is_stmt 0 view .LVU190
 744 0000 48B3     		cbz	r0, .L61
 209:DataStructure/linked_list.c ****     if (list != NULL)
 745              		.loc 1 209 1 view .LVU191
 746 0002 2DE9F041 		push	{r4, r5, r6, r7, r8, lr}
 747              	.LCFI15:
 748              		.cfi_def_cfa_offset 24
 749              		.cfi_offset 4, -24
 750              		.cfi_offset 5, -20
 751              		.cfi_offset 6, -16
 752              		.cfi_offset 7, -12
 753              		.cfi_offset 8, -8
 754              		.cfi_offset 14, -4
 755 0006 0C46     		mov	r4, r1
 756 0008 1746     		mov	r7, r2
 757 000a 1D46     		mov	r5, r3
 758 000c 8046     		mov	r8, r0
 212:DataStructure/linked_list.c ****         {
 759              		.loc 1 212 9 is_stmt 1 view .LVU192
 212:DataStructure/linked_list.c ****         {
 760              		.loc 1 212 23 is_stmt 0 view .LVU193
 761 000e 0E1E     		subs	r6, r1, #0
 762 0010 18BF     		it	ne
 763 0012 0126     		movne	r6, #1
 212:DataStructure/linked_list.c ****         {
 764              		.loc 1 212 32 view .LVU194
 765 0014 002B     		cmp	r3, #0
 766 0016 14BF     		ite	ne
 767 0018 0023     		movne	r3, #0
 768 001a 06F00103 		andeq	r3, r6, #1
 769              	.LVL59:
 212:DataStructure/linked_list.c ****         {
 770              		.loc 1 212 12 view .LVU195
 771 001e 23B1     		cbz	r3, .L59
 214:DataStructure/linked_list.c ****                 return list_no_error;
 772              		.loc 1 214 13 is_stmt 1 view .LVU196
 214:DataStructure/linked_list.c ****                 return list_no_error;
 773              		.loc 1 214 30 is_stmt 0 view .LVU197
 774 0020 0169     		ldr	r1, [r0, #16]
 775              	.LVL60:
 214:DataStructure/linked_list.c ****                 return list_no_error;
 776              		.loc 1 214 30 view .LVU198
 777 0022 A047     		blx	r4
 778              	.LVL61:
 214:DataStructure/linked_list.c ****                 return list_no_error;
 779              		.loc 1 214 16 view .LVU199
 780 0024 069B     		ldr	r3, [sp, #24]
 781 0026 9842     		cmp	r0, r3
 782 0028 18D0     		beq	.L62
 783              	.L59:
 218:DataStructure/linked_list.c ****         {
 784              		.loc 1 218 9 is_stmt 1 view .LVU200
 218:DataStructure/linked_list.c ****         {
 785              		.loc 1 218 17 is_stmt 0 view .LVU201
 786 002a D8F80C00 		ldr	r0, [r8, #12]
ARM GAS  /var/folders/lx/hc4sn_b53233_zkc9xbbl97r0000gp/T//cc8dulPh.s 			page 20


 218:DataStructure/linked_list.c ****         {
 787              		.loc 1 218 12 view .LVU202
 788 002e 20B1     		cbz	r0, .L60
 220:DataStructure/linked_list.c ****         }
 789              		.loc 1 220 13 is_stmt 1 view .LVU203
 790 0030 2B46     		mov	r3, r5
 791 0032 3A46     		mov	r2, r7
 792 0034 2146     		mov	r1, r4
 793 0036 FFF7FEFF 		bl	List_traverse
 794              	.LVL62:
 795              	.L60:
 223:DataStructure/linked_list.c ****         {
 796              		.loc 1 223 9 view .LVU204
 223:DataStructure/linked_list.c ****         {
 797              		.loc 1 223 32 is_stmt 0 view .LVU205
 798 003a 012D     		cmp	r5, #1
 799 003c 14BF     		ite	ne
 800 003e 0026     		movne	r6, #0
 801 0040 06F00106 		andeq	r6, r6, #1
 223:DataStructure/linked_list.c ****         {
 802              		.loc 1 223 12 view .LVU206
 803 0044 66B1     		cbz	r6, .L63
 225:DataStructure/linked_list.c ****                 return list_no_error;
 804              		.loc 1 225 13 is_stmt 1 view .LVU207
 225:DataStructure/linked_list.c ****                 return list_no_error;
 805              		.loc 1 225 30 is_stmt 0 view .LVU208
 806 0046 3A46     		mov	r2, r7
 807 0048 D8F81010 		ldr	r1, [r8, #16]
 808 004c 4046     		mov	r0, r8
 809 004e A047     		blx	r4
 810              	.LVL63:
 232:DataStructure/linked_list.c **** }
 811              		.loc 1 232 12 view .LVU209
 812 0050 0020     		movs	r0, #0
 813              	.L58:
 233:DataStructure/linked_list.c **** 
 814              		.loc 1 233 1 view .LVU210
 815 0052 BDE8F081 		pop	{r4, r5, r6, r7, r8, pc}
 816              	.LVL64:
 817              	.L61:
 818              	.LCFI16:
 819              		.cfi_def_cfa_offset 0
 820              		.cfi_restore 4
 821              		.cfi_restore 5
 822              		.cfi_restore 6
 823              		.cfi_restore 7
 824              		.cfi_restore 8
 825              		.cfi_restore 14
 230:DataStructure/linked_list.c **** 
 826              		.loc 1 230 16 view .LVU211
 827 0056 6FF00100 		mvn	r0, #1
 828              	.LVL65:
 233:DataStructure/linked_list.c **** 
 829              		.loc 1 233 1 view .LVU212
 830 005a 7047     		bx	lr
 831              	.LVL66:
 832              	.L62:
ARM GAS  /var/folders/lx/hc4sn_b53233_zkc9xbbl97r0000gp/T//cc8dulPh.s 			page 21


 833              	.LCFI17:
 834              		.cfi_def_cfa_offset 24
 835              		.cfi_offset 4, -24
 836              		.cfi_offset 5, -20
 837              		.cfi_offset 6, -16
 838              		.cfi_offset 7, -12
 839              		.cfi_offset 8, -8
 840              		.cfi_offset 14, -4
 215:DataStructure/linked_list.c ****         }
 841              		.loc 1 215 24 view .LVU213
 842 005c 0020     		movs	r0, #0
 843 005e F8E7     		b	.L58
 844              	.L63:
 232:DataStructure/linked_list.c **** }
 845              		.loc 1 232 12 view .LVU214
 846 0060 0020     		movs	r0, #0
 847 0062 F6E7     		b	.L58
 848              		.cfi_endproc
 849              	.LFE12:
 851              		.section	.text.List_DecBelowID,"ax",%progbits
 852              		.align	1
 853              		.global	List_DecBelowID
 854              		.syntax unified
 855              		.thumb
 856              		.thumb_func
 857              		.fpu fpv5-d16
 859              	List_DecBelowID:
 860              	.LVL67:
 861              	.LFB14:
 259:DataStructure/linked_list.c **** 
 260:DataStructure/linked_list.c **** list_error_code List_DecBelowID(item_obj *obj)
 261:DataStructure/linked_list.c **** {
 862              		.loc 1 261 1 is_stmt 1 view -0
 863              		.cfi_startproc
 864              		@ args = 0, pretend = 0, frame = 0
 865              		@ frame_needed = 0, uses_anonymous_args = 0
 262:DataStructure/linked_list.c ****     if (obj != NULL)
 866              		.loc 1 262 5 view .LVU216
 867              		.loc 1 262 8 is_stmt 0 view .LVU217
 868 0000 28B1     		cbz	r0, .L70
 261:DataStructure/linked_list.c ****     if (obj != NULL)
 869              		.loc 1 261 1 view .LVU218
 870 0002 08B5     		push	{r3, lr}
 871              	.LCFI18:
 872              		.cfi_def_cfa_offset 8
 873              		.cfi_offset 3, -8
 874              		.cfi_offset 14, -4
 263:DataStructure/linked_list.c ****     {
 264:DataStructure/linked_list.c ****         List_DecBelowID(obj->nxt);
 875              		.loc 1 264 9 is_stmt 1 view .LVU219
 876 0004 C068     		ldr	r0, [r0, #12]
 877              	.LVL68:
 878              		.loc 1 264 9 is_stmt 0 view .LVU220
 879 0006 FFF7FEFF 		bl	List_DecBelowID
 880              	.LVL69:
 265:DataStructure/linked_list.c **** 
 266:DataStructure/linked_list.c ****         return item_no_error;
ARM GAS  /var/folders/lx/hc4sn_b53233_zkc9xbbl97r0000gp/T//cc8dulPh.s 			page 22


 881              		.loc 1 266 9 is_stmt 1 view .LVU221
 882              		.loc 1 266 16 is_stmt 0 view .LVU222
 883 000a 0020     		movs	r0, #0
 267:DataStructure/linked_list.c ****     }
 268:DataStructure/linked_list.c **** 
 269:DataStructure/linked_list.c ****     return item_obj_error;
 270:DataStructure/linked_list.c **** }
 884              		.loc 1 270 1 view .LVU223
 885 000c 08BD     		pop	{r3, pc}
 886              	.LVL70:
 887              	.L70:
 888              	.LCFI19:
 889              		.cfi_def_cfa_offset 0
 890              		.cfi_restore 3
 891              		.cfi_restore 14
 269:DataStructure/linked_list.c **** }
 892              		.loc 1 269 12 view .LVU224
 893 000e 4FF0FF30 		mov	r0, #-1
 894              	.LVL71:
 895              		.loc 1 270 1 view .LVU225
 896 0012 7047     		bx	lr
 897              		.cfi_endproc
 898              	.LFE14:
 900              		.section	.text.List_Delete_Item,"ax",%progbits
 901              		.align	1
 902              		.global	List_Delete_Item
 903              		.syntax unified
 904              		.thumb
 905              		.thumb_func
 906              		.fpu fpv5-d16
 908              	List_Delete_Item:
 909              	.LVL72:
 910              	.LFB15:
 271:DataStructure/linked_list.c **** 
 272:DataStructure/linked_list.c **** list_error_code List_Delete_Item(item_obj *item, item_datareset_callback callback)
 273:DataStructure/linked_list.c **** {
 911              		.loc 1 273 1 is_stmt 1 view -0
 912              		.cfi_startproc
 913              		@ args = 0, pretend = 0, frame = 0
 914              		@ frame_needed = 0, uses_anonymous_args = 0
 274:DataStructure/linked_list.c ****     volatile static uint8_t test = 0;
 915              		.loc 1 274 5 view .LVU227
 275:DataStructure/linked_list.c **** 
 276:DataStructure/linked_list.c ****     if (item != NULL)
 916              		.loc 1 276 5 view .LVU228
 917              		.loc 1 276 8 is_stmt 0 view .LVU229
 918 0000 10B3     		cbz	r0, .L82
 273:DataStructure/linked_list.c ****     volatile static uint8_t test = 0;
 919              		.loc 1 273 1 view .LVU230
 920 0002 10B5     		push	{r4, lr}
 921              	.LCFI20:
 922              		.cfi_def_cfa_offset 8
 923              		.cfi_offset 4, -8
 924              		.cfi_offset 14, -4
 925 0004 0446     		mov	r4, r0
 277:DataStructure/linked_list.c ****     {
 278:DataStructure/linked_list.c ****         if (callback != NULL)
ARM GAS  /var/folders/lx/hc4sn_b53233_zkc9xbbl97r0000gp/T//cc8dulPh.s 			page 23


 926              		.loc 1 278 9 is_stmt 1 view .LVU231
 927              		.loc 1 278 12 is_stmt 0 view .LVU232
 928 0006 01B1     		cbz	r1, .L77
 279:DataStructure/linked_list.c ****         {
 280:DataStructure/linked_list.c ****             callback(item);
 929              		.loc 1 280 13 is_stmt 1 view .LVU233
 930 0008 8847     		blx	r1
 931              	.LVL73:
 932              	.L77:
 281:DataStructure/linked_list.c ****         }
 282:DataStructure/linked_list.c **** 
 283:DataStructure/linked_list.c ****         if ((item->prv != NULL) && (item->nxt != NULL))
 933              		.loc 1 283 9 view .LVU234
 934              		.loc 1 283 18 is_stmt 0 view .LVU235
 935 000a A368     		ldr	r3, [r4, #8]
 936              		.loc 1 283 12 view .LVU236
 937 000c 4BB1     		cbz	r3, .L78
 938              		.loc 1 283 41 discriminator 1 view .LVU237
 939 000e E268     		ldr	r2, [r4, #12]
 940              		.loc 1 283 33 discriminator 1 view .LVU238
 941 0010 3AB1     		cbz	r2, .L78
 284:DataStructure/linked_list.c ****         {
 285:DataStructure/linked_list.c ****             item->prv->nxt = item->nxt;
 942              		.loc 1 285 13 is_stmt 1 view .LVU239
 943              		.loc 1 285 28 is_stmt 0 view .LVU240
 944 0012 DA60     		str	r2, [r3, #12]
 286:DataStructure/linked_list.c ****             item->nxt->prv = item->prv;
 945              		.loc 1 286 13 is_stmt 1 view .LVU241
 946              		.loc 1 286 34 is_stmt 0 view .LVU242
 947 0014 A368     		ldr	r3, [r4, #8]
 948              		.loc 1 286 28 view .LVU243
 949 0016 9360     		str	r3, [r2, #8]
 287:DataStructure/linked_list.c ****             item->prv = NULL;
 950              		.loc 1 287 13 is_stmt 1 view .LVU244
 951              		.loc 1 287 23 is_stmt 0 view .LVU245
 952 0018 0023     		movs	r3, #0
 953 001a A360     		str	r3, [r4, #8]
 288:DataStructure/linked_list.c ****             item->nxt = NULL;
 954              		.loc 1 288 13 is_stmt 1 view .LVU246
 955              		.loc 1 288 23 is_stmt 0 view .LVU247
 956 001c E360     		str	r3, [r4, #12]
 957              	.LVL74:
 958              	.L79:
 289:DataStructure/linked_list.c ****         }
 290:DataStructure/linked_list.c ****         else if ((item->prv != NULL) && (item->nxt == NULL))
 291:DataStructure/linked_list.c ****         {
 292:DataStructure/linked_list.c ****             item->prv->nxt = NULL;
 293:DataStructure/linked_list.c ****             item->prv = NULL;
 294:DataStructure/linked_list.c ****             item->nxt = NULL;
 295:DataStructure/linked_list.c ****         }
 296:DataStructure/linked_list.c ****         else if ((item->prv == NULL) && (item->nxt != NULL))
 297:DataStructure/linked_list.c ****         {
 298:DataStructure/linked_list.c ****             item = item->nxt;
 299:DataStructure/linked_list.c ****         }
 300:DataStructure/linked_list.c ****         else if ((item->prv == NULL) && (item->nxt == NULL))
 301:DataStructure/linked_list.c ****         {
 302:DataStructure/linked_list.c ****             item->data = NULL;
ARM GAS  /var/folders/lx/hc4sn_b53233_zkc9xbbl97r0000gp/T//cc8dulPh.s 			page 24


 303:DataStructure/linked_list.c ****             item = NULL;
 304:DataStructure/linked_list.c ****         }
 305:DataStructure/linked_list.c **** 
 306:DataStructure/linked_list.c ****         return list_no_error;
 959              		.loc 1 306 9 is_stmt 1 view .LVU248
 960              		.loc 1 306 16 is_stmt 0 view .LVU249
 961 001e 0020     		movs	r0, #0
 307:DataStructure/linked_list.c ****     }
 308:DataStructure/linked_list.c **** 
 309:DataStructure/linked_list.c ****     return list_obj_error;
 310:DataStructure/linked_list.c **** }
 962              		.loc 1 310 1 view .LVU250
 963 0020 10BD     		pop	{r4, pc}
 964              	.LVL75:
 965              	.L78:
 290:DataStructure/linked_list.c ****         {
 966              		.loc 1 290 14 is_stmt 1 view .LVU251
 290:DataStructure/linked_list.c ****         {
 967              		.loc 1 290 17 is_stmt 0 view .LVU252
 968 0022 0BB1     		cbz	r3, .L80
 290:DataStructure/linked_list.c ****         {
 969              		.loc 1 290 46 discriminator 1 view .LVU253
 970 0024 E268     		ldr	r2, [r4, #12]
 290:DataStructure/linked_list.c ****         {
 971              		.loc 1 290 38 discriminator 1 view .LVU254
 972 0026 3AB1     		cbz	r2, .L87
 973              	.L80:
 296:DataStructure/linked_list.c ****         {
 974              		.loc 1 296 14 is_stmt 1 view .LVU255
 296:DataStructure/linked_list.c ****         {
 975              		.loc 1 296 17 is_stmt 0 view .LVU256
 976 0028 53B1     		cbz	r3, .L88
 977              	.L81:
 300:DataStructure/linked_list.c ****         {
 978              		.loc 1 300 14 is_stmt 1 view .LVU257
 300:DataStructure/linked_list.c ****         {
 979              		.loc 1 300 17 is_stmt 0 view .LVU258
 980 002a 002B     		cmp	r3, #0
 981 002c F7D1     		bne	.L79
 300:DataStructure/linked_list.c ****         {
 982              		.loc 1 300 46 discriminator 1 view .LVU259
 983 002e E368     		ldr	r3, [r4, #12]
 300:DataStructure/linked_list.c ****         {
 984              		.loc 1 300 38 discriminator 1 view .LVU260
 985 0030 002B     		cmp	r3, #0
 986 0032 F4D1     		bne	.L79
 302:DataStructure/linked_list.c ****             item = NULL;
 987              		.loc 1 302 13 is_stmt 1 view .LVU261
 302:DataStructure/linked_list.c ****             item = NULL;
 988              		.loc 1 302 24 is_stmt 0 view .LVU262
 989 0034 2361     		str	r3, [r4, #16]
 303:DataStructure/linked_list.c ****         }
 990              		.loc 1 303 13 is_stmt 1 view .LVU263
 991              	.LVL76:
 303:DataStructure/linked_list.c ****         }
 992              		.loc 1 303 13 is_stmt 0 view .LVU264
 993 0036 F2E7     		b	.L79
ARM GAS  /var/folders/lx/hc4sn_b53233_zkc9xbbl97r0000gp/T//cc8dulPh.s 			page 25


 994              	.LVL77:
 995              	.L87:
 292:DataStructure/linked_list.c ****             item->prv = NULL;
 996              		.loc 1 292 13 is_stmt 1 view .LVU265
 292:DataStructure/linked_list.c ****             item->prv = NULL;
 997              		.loc 1 292 28 is_stmt 0 view .LVU266
 998 0038 DA60     		str	r2, [r3, #12]
 293:DataStructure/linked_list.c ****             item->nxt = NULL;
 999              		.loc 1 293 13 is_stmt 1 view .LVU267
 293:DataStructure/linked_list.c ****             item->nxt = NULL;
 1000              		.loc 1 293 23 is_stmt 0 view .LVU268
 1001 003a A260     		str	r2, [r4, #8]
 294:DataStructure/linked_list.c ****         }
 1002              		.loc 1 294 13 is_stmt 1 view .LVU269
 294:DataStructure/linked_list.c ****         }
 1003              		.loc 1 294 23 is_stmt 0 view .LVU270
 1004 003c E260     		str	r2, [r4, #12]
 1005 003e EEE7     		b	.L79
 1006              	.L88:
 296:DataStructure/linked_list.c ****         {
 1007              		.loc 1 296 46 discriminator 1 view .LVU271
 1008 0040 E268     		ldr	r2, [r4, #12]
 296:DataStructure/linked_list.c ****         {
 1009              		.loc 1 296 38 discriminator 1 view .LVU272
 1010 0042 002A     		cmp	r2, #0
 1011 0044 EBD1     		bne	.L79
 1012 0046 F0E7     		b	.L81
 1013              	.LVL78:
 1014              	.L82:
 1015              	.LCFI21:
 1016              		.cfi_def_cfa_offset 0
 1017              		.cfi_restore 4
 1018              		.cfi_restore 14
 309:DataStructure/linked_list.c **** }
 1019              		.loc 1 309 12 view .LVU273
 1020 0048 6FF00100 		mvn	r0, #1
 1021              	.LVL79:
 1022              		.loc 1 310 1 view .LVU274
 1023 004c 7047     		bx	lr
 1024              		.cfi_endproc
 1025              	.LFE15:
 1027              		.section	.text.List_PopFirst,"ax",%progbits
 1028              		.align	1
 1029              		.global	List_PopFirst
 1030              		.syntax unified
 1031              		.thumb
 1032              		.thumb_func
 1033              		.fpu fpv5-d16
 1035              	List_PopFirst:
 1036              	.LVL80:
 1037              	.LFB16:
 311:DataStructure/linked_list.c **** 
 312:DataStructure/linked_list.c **** item_obj *List_PopFirst(list_obj *list)
 313:DataStructure/linked_list.c **** {
 1038              		.loc 1 313 1 is_stmt 1 view -0
 1039              		.cfi_startproc
 1040              		@ args = 0, pretend = 0, frame = 0
ARM GAS  /var/folders/lx/hc4sn_b53233_zkc9xbbl97r0000gp/T//cc8dulPh.s 			page 26


 1041              		@ frame_needed = 0, uses_anonymous_args = 0
 1042              		.loc 1 313 1 is_stmt 0 view .LVU276
 1043 0000 08B5     		push	{r3, lr}
 1044              	.LCFI22:
 1045              		.cfi_def_cfa_offset 8
 1046              		.cfi_offset 3, -8
 1047              		.cfi_offset 14, -4
 314:DataStructure/linked_list.c ****     item_obj *item_tmp = NULL;
 1048              		.loc 1 314 5 is_stmt 1 view .LVU277
 1049              	.LVL81:
 315:DataStructure/linked_list.c **** 
 316:DataStructure/linked_list.c ****     if (list != NULL)
 1050              		.loc 1 316 5 view .LVU278
 1051              		.loc 1 316 8 is_stmt 0 view .LVU279
 1052 0002 0346     		mov	r3, r0
 1053 0004 28B1     		cbz	r0, .L89
 317:DataStructure/linked_list.c ****     {
 318:DataStructure/linked_list.c ****         if (list->prv != NULL)
 1054              		.loc 1 318 9 is_stmt 1 view .LVU280
 1055              		.loc 1 318 17 is_stmt 0 view .LVU281
 1056 0006 8068     		ldr	r0, [r0, #8]
 1057              	.LVL82:
 1058              		.loc 1 318 12 view .LVU282
 1059 0008 20B9     		cbnz	r0, .L94
 319:DataStructure/linked_list.c ****         {
 320:DataStructure/linked_list.c ****             List_PopFirst(list->prv);
 321:DataStructure/linked_list.c ****         }
 322:DataStructure/linked_list.c ****         else
 323:DataStructure/linked_list.c ****         {
 324:DataStructure/linked_list.c ****             item_tmp = list;
 1060              		.loc 1 324 13 is_stmt 1 view .LVU283
 1061              	.LVL83:
 325:DataStructure/linked_list.c ****             item_tmp->nxt = NULL;
 1062              		.loc 1 325 13 view .LVU284
 1063              		.loc 1 325 27 is_stmt 0 view .LVU285
 1064 000a 0022     		movs	r2, #0
 1065 000c DA60     		str	r2, [r3, #12]
 326:DataStructure/linked_list.c **** 
 327:DataStructure/linked_list.c ****             list = list->nxt;
 1066              		.loc 1 327 13 is_stmt 1 view .LVU286
 1067              	.LVL84:
 328:DataStructure/linked_list.c ****             list->prv = NULL;
 1068              		.loc 1 328 13 view .LVU287
 1069              		.loc 1 328 23 is_stmt 0 view .LVU288
 1070 000e 9260     		str	r2, [r2, #8]
 324:DataStructure/linked_list.c ****             item_tmp->nxt = NULL;
 1071              		.loc 1 324 22 view .LVU289
 1072 0010 1846     		mov	r0, r3
 1073              	.LVL85:
 1074              	.L89:
 329:DataStructure/linked_list.c ****         }
 330:DataStructure/linked_list.c ****     }
 331:DataStructure/linked_list.c **** 
 332:DataStructure/linked_list.c ****     return item_tmp;
 333:DataStructure/linked_list.c **** }
 1075              		.loc 1 333 1 view .LVU290
 1076 0012 08BD     		pop	{r3, pc}
ARM GAS  /var/folders/lx/hc4sn_b53233_zkc9xbbl97r0000gp/T//cc8dulPh.s 			page 27


 1077              	.LVL86:
 1078              	.L94:
 320:DataStructure/linked_list.c ****         }
 1079              		.loc 1 320 13 is_stmt 1 view .LVU291
 1080 0014 FFF7FEFF 		bl	List_PopFirst
 1081              	.LVL87:
 314:DataStructure/linked_list.c **** 
 1082              		.loc 1 314 15 is_stmt 0 view .LVU292
 1083 0018 0020     		movs	r0, #0
 1084 001a FAE7     		b	.L89
 1085              		.cfi_endproc
 1086              	.LFE16:
 1088              		.section	.text.List_GetFront_Len,"ax",%progbits
 1089              		.align	1
 1090              		.global	List_GetFront_Len
 1091              		.syntax unified
 1092              		.thumb
 1093              		.thumb_func
 1094              		.fpu fpv5-d16
 1096              	List_GetFront_Len:
 1097              	.LVL88:
 1098              	.LFB17:
 334:DataStructure/linked_list.c **** 
 335:DataStructure/linked_list.c **** int16_t List_GetFront_Len(item_obj *list)
 336:DataStructure/linked_list.c **** {
 1099              		.loc 1 336 1 is_stmt 1 view -0
 1100              		.cfi_startproc
 1101              		@ args = 0, pretend = 0, frame = 0
 1102              		@ frame_needed = 0, uses_anonymous_args = 0
 337:DataStructure/linked_list.c ****     int16_t fnt_len = 0;
 1103              		.loc 1 337 5 view .LVU294
 338:DataStructure/linked_list.c **** 
 339:DataStructure/linked_list.c ****     if (list != NULL)
 1104              		.loc 1 339 5 view .LVU295
 1105              		.loc 1 339 8 is_stmt 0 view .LVU296
 1106 0000 38B1     		cbz	r0, .L97
 336:DataStructure/linked_list.c ****     int16_t fnt_len = 0;
 1107              		.loc 1 336 1 view .LVU297
 1108 0002 08B5     		push	{r3, lr}
 1109              	.LCFI23:
 1110              		.cfi_def_cfa_offset 8
 1111              		.cfi_offset 3, -8
 1112              		.cfi_offset 14, -4
 340:DataStructure/linked_list.c ****     {
 341:DataStructure/linked_list.c ****         if (list->prv == NULL)
 1113              		.loc 1 341 9 is_stmt 1 view .LVU298
 1114              		.loc 1 341 17 is_stmt 0 view .LVU299
 1115 0004 8068     		ldr	r0, [r0, #8]
 1116              	.LVL89:
 1117              		.loc 1 341 12 view .LVU300
 1118 0006 38B1     		cbz	r0, .L98
 342:DataStructure/linked_list.c ****         {
 343:DataStructure/linked_list.c ****             return 0;
 344:DataStructure/linked_list.c ****         }
 345:DataStructure/linked_list.c ****         else
 346:DataStructure/linked_list.c ****         {
 347:DataStructure/linked_list.c ****             fnt_len = List_GetFront_Len(list->prv);
ARM GAS  /var/folders/lx/hc4sn_b53233_zkc9xbbl97r0000gp/T//cc8dulPh.s 			page 28


 1119              		.loc 1 347 13 is_stmt 1 view .LVU301
 1120              		.loc 1 347 23 is_stmt 0 view .LVU302
 1121 0008 FFF7FEFF 		bl	List_GetFront_Len
 1122              	.LVL90:
 348:DataStructure/linked_list.c ****             fnt_len++;
 1123              		.loc 1 348 13 is_stmt 1 view .LVU303
 1124              		.loc 1 348 20 is_stmt 0 view .LVU304
 1125 000c 0130     		adds	r0, r0, #1
 1126              	.LVL91:
 1127              		.loc 1 348 20 view .LVU305
 1128 000e 00B2     		sxth	r0, r0
 1129              	.LVL92:
 349:DataStructure/linked_list.c ****         }
 350:DataStructure/linked_list.c ****     }
 351:DataStructure/linked_list.c ****     else
 352:DataStructure/linked_list.c ****         return list_obj_error;
 353:DataStructure/linked_list.c **** 
 354:DataStructure/linked_list.c ****     return fnt_len;
 1130              		.loc 1 354 5 is_stmt 1 view .LVU306
 1131              	.L96:
 355:DataStructure/linked_list.c **** }
 1132              		.loc 1 355 1 is_stmt 0 view .LVU307
 1133 0010 08BD     		pop	{r3, pc}
 1134              	.LVL93:
 1135              	.L97:
 1136              	.LCFI24:
 1137              		.cfi_def_cfa_offset 0
 1138              		.cfi_restore 3
 1139              		.cfi_restore 14
 352:DataStructure/linked_list.c **** 
 1140              		.loc 1 352 16 view .LVU308
 1141 0012 6FF00100 		mvn	r0, #1
 1142              	.LVL94:
 1143              		.loc 1 355 1 view .LVU309
 1144 0016 7047     		bx	lr
 1145              	.L98:
 1146              	.LCFI25:
 1147              		.cfi_def_cfa_offset 8
 1148              		.cfi_offset 3, -8
 1149              		.cfi_offset 14, -4
 343:DataStructure/linked_list.c ****         }
 1150              		.loc 1 343 20 view .LVU310
 1151 0018 0020     		movs	r0, #0
 1152 001a F9E7     		b	.L96
 1153              		.cfi_endproc
 1154              	.LFE17:
 1156              		.section	.text.List_GetBack_Len,"ax",%progbits
 1157              		.align	1
 1158              		.global	List_GetBack_Len
 1159              		.syntax unified
 1160              		.thumb
 1161              		.thumb_func
 1162              		.fpu fpv5-d16
 1164              	List_GetBack_Len:
 1165              	.LVL95:
 1166              	.LFB18:
 356:DataStructure/linked_list.c **** 
ARM GAS  /var/folders/lx/hc4sn_b53233_zkc9xbbl97r0000gp/T//cc8dulPh.s 			page 29


 357:DataStructure/linked_list.c **** int16_t List_GetBack_Len(item_obj *list)
 358:DataStructure/linked_list.c **** {
 1167              		.loc 1 358 1 is_stmt 1 view -0
 1168              		.cfi_startproc
 1169              		@ args = 0, pretend = 0, frame = 0
 1170              		@ frame_needed = 0, uses_anonymous_args = 0
 359:DataStructure/linked_list.c ****     uint16_t bck_len = 0;
 1171              		.loc 1 359 5 view .LVU312
 360:DataStructure/linked_list.c **** 
 361:DataStructure/linked_list.c ****     if (list != NULL)
 1172              		.loc 1 361 5 view .LVU313
 1173              		.loc 1 361 8 is_stmt 0 view .LVU314
 1174 0000 40B1     		cbz	r0, .L105
 358:DataStructure/linked_list.c ****     uint16_t bck_len = 0;
 1175              		.loc 1 358 1 view .LVU315
 1176 0002 08B5     		push	{r3, lr}
 1177              	.LCFI26:
 1178              		.cfi_def_cfa_offset 8
 1179              		.cfi_offset 3, -8
 1180              		.cfi_offset 14, -4
 362:DataStructure/linked_list.c ****     {
 363:DataStructure/linked_list.c ****         if (list->nxt == NULL)
 1181              		.loc 1 363 9 is_stmt 1 view .LVU316
 1182              		.loc 1 363 17 is_stmt 0 view .LVU317
 1183 0004 C068     		ldr	r0, [r0, #12]
 1184              	.LVL96:
 1185              		.loc 1 363 12 view .LVU318
 1186 0006 40B1     		cbz	r0, .L106
 364:DataStructure/linked_list.c ****         {
 365:DataStructure/linked_list.c ****             return 0;
 366:DataStructure/linked_list.c ****         }
 367:DataStructure/linked_list.c ****         else
 368:DataStructure/linked_list.c ****         {
 369:DataStructure/linked_list.c ****             bck_len = List_GetBack_Len(list->nxt);
 1187              		.loc 1 369 13 is_stmt 1 view .LVU319
 1188              		.loc 1 369 23 is_stmt 0 view .LVU320
 1189 0008 FFF7FEFF 		bl	List_GetBack_Len
 1190              	.LVL97:
 1191              		.loc 1 369 21 view .LVU321
 1192 000c 80B2     		uxth	r0, r0
 1193              	.LVL98:
 370:DataStructure/linked_list.c ****             bck_len++;
 1194              		.loc 1 370 13 is_stmt 1 view .LVU322
 1195              		.loc 1 370 20 is_stmt 0 view .LVU323
 1196 000e 0130     		adds	r0, r0, #1
 1197              	.LVL99:
 371:DataStructure/linked_list.c ****         }
 372:DataStructure/linked_list.c ****     }
 373:DataStructure/linked_list.c ****     else
 374:DataStructure/linked_list.c ****         return list_obj_error;
 375:DataStructure/linked_list.c **** 
 376:DataStructure/linked_list.c ****     return bck_len;
 1198              		.loc 1 376 5 is_stmt 1 view .LVU324
 1199              		.loc 1 376 12 is_stmt 0 view .LVU325
 1200 0010 00B2     		sxth	r0, r0
 1201              	.LVL100:
 1202              	.L104:
ARM GAS  /var/folders/lx/hc4sn_b53233_zkc9xbbl97r0000gp/T//cc8dulPh.s 			page 30


 377:DataStructure/linked_list.c **** }
 1203              		.loc 1 377 1 view .LVU326
 1204 0012 08BD     		pop	{r3, pc}
 1205              	.LVL101:
 1206              	.L105:
 1207              	.LCFI27:
 1208              		.cfi_def_cfa_offset 0
 1209              		.cfi_restore 3
 1210              		.cfi_restore 14
 374:DataStructure/linked_list.c **** 
 1211              		.loc 1 374 16 view .LVU327
 1212 0014 6FF00100 		mvn	r0, #1
 1213              	.LVL102:
 1214              		.loc 1 377 1 view .LVU328
 1215 0018 7047     		bx	lr
 1216              	.L106:
 1217              	.LCFI28:
 1218              		.cfi_def_cfa_offset 8
 1219              		.cfi_offset 3, -8
 1220              		.cfi_offset 14, -4
 365:DataStructure/linked_list.c ****         }
 1221              		.loc 1 365 20 view .LVU329
 1222 001a 0020     		movs	r0, #0
 1223 001c F9E7     		b	.L104
 1224              		.cfi_endproc
 1225              	.LFE18:
 1227              		.section	.text.List_GetLen,"ax",%progbits
 1228              		.align	1
 1229              		.global	List_GetLen
 1230              		.syntax unified
 1231              		.thumb
 1232              		.thumb_func
 1233              		.fpu fpv5-d16
 1235              	List_GetLen:
 1236              	.LVL103:
 1237              	.LFB19:
 378:DataStructure/linked_list.c **** 
 379:DataStructure/linked_list.c **** int16_t List_GetLen(list_obj *list)
 380:DataStructure/linked_list.c **** {
 1238              		.loc 1 380 1 is_stmt 1 view -0
 1239              		.cfi_startproc
 1240              		@ args = 0, pretend = 0, frame = 0
 1241              		@ frame_needed = 0, uses_anonymous_args = 0
 381:DataStructure/linked_list.c ****     uint16_t len = 0;
 1242              		.loc 1 381 5 view .LVU331
 382:DataStructure/linked_list.c **** 
 383:DataStructure/linked_list.c ****     if (list != NULL)
 1243              		.loc 1 383 5 view .LVU332
 1244              		.loc 1 383 8 is_stmt 0 view .LVU333
 1245 0000 58B1     		cbz	r0, .L113
 380:DataStructure/linked_list.c ****     uint16_t len = 0;
 1246              		.loc 1 380 1 view .LVU334
 1247 0002 38B5     		push	{r3, r4, r5, lr}
 1248              	.LCFI29:
 1249              		.cfi_def_cfa_offset 16
 1250              		.cfi_offset 3, -16
 1251              		.cfi_offset 4, -12
ARM GAS  /var/folders/lx/hc4sn_b53233_zkc9xbbl97r0000gp/T//cc8dulPh.s 			page 31


 1252              		.cfi_offset 5, -8
 1253              		.cfi_offset 14, -4
 1254 0004 0546     		mov	r5, r0
 384:DataStructure/linked_list.c ****     {
 385:DataStructure/linked_list.c ****         len = List_GetFront_Len(list);
 1255              		.loc 1 385 9 is_stmt 1 view .LVU335
 1256              		.loc 1 385 15 is_stmt 0 view .LVU336
 1257 0006 FFF7FEFF 		bl	List_GetFront_Len
 1258              	.LVL104:
 1259              		.loc 1 385 13 view .LVU337
 1260 000a 84B2     		uxth	r4, r0
 1261              	.LVL105:
 386:DataStructure/linked_list.c ****         len += List_GetBack_Len(list);
 1262              		.loc 1 386 9 is_stmt 1 view .LVU338
 1263              		.loc 1 386 16 is_stmt 0 view .LVU339
 1264 000c 2846     		mov	r0, r5
 1265 000e FFF7FEFF 		bl	List_GetBack_Len
 1266              	.LVL106:
 1267              		.loc 1 386 13 view .LVU340
 1268 0012 14FA80F0 		uxtah	r0, r4, r0
 1269              	.LVL107:
 387:DataStructure/linked_list.c ****     }
 388:DataStructure/linked_list.c ****     else
 389:DataStructure/linked_list.c ****         return list_obj_error;
 390:DataStructure/linked_list.c **** 
 391:DataStructure/linked_list.c ****     return len;
 1270              		.loc 1 391 5 is_stmt 1 view .LVU341
 1271              		.loc 1 391 12 is_stmt 0 view .LVU342
 1272 0016 00B2     		sxth	r0, r0
 392:DataStructure/linked_list.c **** }
 1273              		.loc 1 392 1 view .LVU343
 1274 0018 38BD     		pop	{r3, r4, r5, pc}
 1275              	.LVL108:
 1276              	.L113:
 1277              	.LCFI30:
 1278              		.cfi_def_cfa_offset 0
 1279              		.cfi_restore 3
 1280              		.cfi_restore 4
 1281              		.cfi_restore 5
 1282              		.cfi_restore 14
 389:DataStructure/linked_list.c **** 
 1283              		.loc 1 389 16 view .LVU344
 1284 001a 6FF00100 		mvn	r0, #1
 1285              	.LVL109:
 1286              		.loc 1 392 1 view .LVU345
 1287 001e 7047     		bx	lr
 1288              		.cfi_endproc
 1289              	.LFE19:
 1291              		.section	.bss.test.0,"aw",%nobits
 1294              	test.0:
 1295 0000 00       		.space	1
 1296              		.text
 1297              	.Letext0:
 1298              		.file 2 "/usr/local/arm-none-eabi-gcc/gcc-arm-none-eabi-10-2020-q4-major/arm-none-eabi/include/mac
 1299              		.file 3 "/usr/local/arm-none-eabi-gcc/gcc-arm-none-eabi-10-2020-q4-major/arm-none-eabi/include/sys
 1300              		.file 4 "DataStructure/linked_list.h"
ARM GAS  /var/folders/lx/hc4sn_b53233_zkc9xbbl97r0000gp/T//cc8dulPh.s 			page 32


DEFINED SYMBOLS
                            *ABS*:0000000000000000 linked_list.c
/var/folders/lx/hc4sn_b53233_zkc9xbbl97r0000gp/T//cc8dulPh.s:17     .text.Item_SwapLRData:0000000000000000 $t
/var/folders/lx/hc4sn_b53233_zkc9xbbl97r0000gp/T//cc8dulPh.s:24     .text.Item_SwapLRData:0000000000000000 Item_SwapLRData
/var/folders/lx/hc4sn_b53233_zkc9xbbl97r0000gp/T//cc8dulPh.s:52     .text.List_Init:0000000000000000 $t
/var/folders/lx/hc4sn_b53233_zkc9xbbl97r0000gp/T//cc8dulPh.s:59     .text.List_Init:0000000000000000 List_Init
/var/folders/lx/hc4sn_b53233_zkc9xbbl97r0000gp/T//cc8dulPh.s:108    .text.List_CheckAt:0000000000000000 $t
/var/folders/lx/hc4sn_b53233_zkc9xbbl97r0000gp/T//cc8dulPh.s:115    .text.List_CheckAt:0000000000000000 List_CheckAt
/var/folders/lx/hc4sn_b53233_zkc9xbbl97r0000gp/T//cc8dulPh.s:166    .text.List_Chk_FirstItem:0000000000000000 $t
/var/folders/lx/hc4sn_b53233_zkc9xbbl97r0000gp/T//cc8dulPh.s:173    .text.List_Chk_FirstItem:0000000000000000 List_Chk_FirstItem
/var/folders/lx/hc4sn_b53233_zkc9xbbl97r0000gp/T//cc8dulPh.s:210    .text.List_Chk_LastItem:0000000000000000 $t
/var/folders/lx/hc4sn_b53233_zkc9xbbl97r0000gp/T//cc8dulPh.s:217    .text.List_Chk_LastItem:0000000000000000 List_Chk_LastItem
/var/folders/lx/hc4sn_b53233_zkc9xbbl97r0000gp/T//cc8dulPh.s:254    .text.List_ItemClear:0000000000000000 $t
/var/folders/lx/hc4sn_b53233_zkc9xbbl97r0000gp/T//cc8dulPh.s:261    .text.List_ItemClear:0000000000000000 List_ItemClear
/var/folders/lx/hc4sn_b53233_zkc9xbbl97r0000gp/T//cc8dulPh.s:299    .text.List_ItemInit:0000000000000000 $t
/var/folders/lx/hc4sn_b53233_zkc9xbbl97r0000gp/T//cc8dulPh.s:306    .text.List_ItemInit:0000000000000000 List_ItemInit
/var/folders/lx/hc4sn_b53233_zkc9xbbl97r0000gp/T//cc8dulPh.s:340    .text.List_InsertToPrv:0000000000000000 $t
/var/folders/lx/hc4sn_b53233_zkc9xbbl97r0000gp/T//cc8dulPh.s:347    .text.List_InsertToPrv:0000000000000000 List_InsertToPrv
/var/folders/lx/hc4sn_b53233_zkc9xbbl97r0000gp/T//cc8dulPh.s:388    .text.List_InsertByOrder:0000000000000000 $t
/var/folders/lx/hc4sn_b53233_zkc9xbbl97r0000gp/T//cc8dulPh.s:395    .text.List_InsertByOrder:0000000000000000 List_InsertByOrder
/var/folders/lx/hc4sn_b53233_zkc9xbbl97r0000gp/T//cc8dulPh.s:435    .text.List_InsertByCondition:0000000000000000 $t
/var/folders/lx/hc4sn_b53233_zkc9xbbl97r0000gp/T//cc8dulPh.s:442    .text.List_InsertByCondition:0000000000000000 List_InsertByCondition
/var/folders/lx/hc4sn_b53233_zkc9xbbl97r0000gp/T//cc8dulPh.s:533    .text.List_Insert_Item:0000000000000000 $t
/var/folders/lx/hc4sn_b53233_zkc9xbbl97r0000gp/T//cc8dulPh.s:540    .text.List_Insert_Item:0000000000000000 List_Insert_Item
/var/folders/lx/hc4sn_b53233_zkc9xbbl97r0000gp/T//cc8dulPh.s:613    .text.List_traverse:0000000000000000 $t
/var/folders/lx/hc4sn_b53233_zkc9xbbl97r0000gp/T//cc8dulPh.s:620    .text.List_traverse:0000000000000000 List_traverse
/var/folders/lx/hc4sn_b53233_zkc9xbbl97r0000gp/T//cc8dulPh.s:728    .text.List_traverse_HaltByCondition:0000000000000000 $t
/var/folders/lx/hc4sn_b53233_zkc9xbbl97r0000gp/T//cc8dulPh.s:735    .text.List_traverse_HaltByCondition:0000000000000000 List_traverse_HaltByCondition
/var/folders/lx/hc4sn_b53233_zkc9xbbl97r0000gp/T//cc8dulPh.s:852    .text.List_DecBelowID:0000000000000000 $t
/var/folders/lx/hc4sn_b53233_zkc9xbbl97r0000gp/T//cc8dulPh.s:859    .text.List_DecBelowID:0000000000000000 List_DecBelowID
/var/folders/lx/hc4sn_b53233_zkc9xbbl97r0000gp/T//cc8dulPh.s:901    .text.List_Delete_Item:0000000000000000 $t
/var/folders/lx/hc4sn_b53233_zkc9xbbl97r0000gp/T//cc8dulPh.s:908    .text.List_Delete_Item:0000000000000000 List_Delete_Item
/var/folders/lx/hc4sn_b53233_zkc9xbbl97r0000gp/T//cc8dulPh.s:1028   .text.List_PopFirst:0000000000000000 $t
/var/folders/lx/hc4sn_b53233_zkc9xbbl97r0000gp/T//cc8dulPh.s:1035   .text.List_PopFirst:0000000000000000 List_PopFirst
/var/folders/lx/hc4sn_b53233_zkc9xbbl97r0000gp/T//cc8dulPh.s:1089   .text.List_GetFront_Len:0000000000000000 $t
/var/folders/lx/hc4sn_b53233_zkc9xbbl97r0000gp/T//cc8dulPh.s:1096   .text.List_GetFront_Len:0000000000000000 List_GetFront_Len
/var/folders/lx/hc4sn_b53233_zkc9xbbl97r0000gp/T//cc8dulPh.s:1157   .text.List_GetBack_Len:0000000000000000 $t
/var/folders/lx/hc4sn_b53233_zkc9xbbl97r0000gp/T//cc8dulPh.s:1164   .text.List_GetBack_Len:0000000000000000 List_GetBack_Len
/var/folders/lx/hc4sn_b53233_zkc9xbbl97r0000gp/T//cc8dulPh.s:1228   .text.List_GetLen:0000000000000000 $t
/var/folders/lx/hc4sn_b53233_zkc9xbbl97r0000gp/T//cc8dulPh.s:1235   .text.List_GetLen:0000000000000000 List_GetLen
/var/folders/lx/hc4sn_b53233_zkc9xbbl97r0000gp/T//cc8dulPh.s:1294   .bss.test.0:0000000000000000 test.0
/var/folders/lx/hc4sn_b53233_zkc9xbbl97r0000gp/T//cc8dulPh.s:1295   .bss.test.0:0000000000000000 $d

NO UNDEFINED SYMBOLS
