ARM GAS  C:\Users\huav\AppData\Local\Temp\ccgagIxx.s 			page 1


   1              		.cpu cortex-m7
   2              		.eabi_attribute 28, 1
   3              		.eabi_attribute 20, 1
   4              		.eabi_attribute 21, 1
   5              		.eabi_attribute 23, 3
   6              		.eabi_attribute 24, 1
   7              		.eabi_attribute 25, 1
   8              		.eabi_attribute 26, 1
   9              		.eabi_attribute 30, 1
  10              		.eabi_attribute 34, 1
  11              		.eabi_attribute 18, 4
  12              		.file	"main.c"
  13              		.text
  14              	.Ltext0:
  15              		.cfi_sections	.debug_frame
  16              		.section	.text.test_pin_ctl,"ax",%progbits
  17              		.align	1
  18              		.global	test_pin_ctl
  19              		.arch armv7e-m
  20              		.syntax unified
  21              		.thumb
  22              		.thumb_func
  23              		.fpu fpv5-d16
  25              	test_pin_ctl:
  26              	.LFB147:
  27              		.file 1 "main.c"
   1:main.c        **** #include "kernel.h"
   2:main.c        **** #include "IO_Definition.h"
   3:main.c        **** #include "runtime.h"
   4:main.c        **** #include "Dev_Led.h"
   5:main.c        **** #include "system_cfg.h"
   6:main.c        **** #include "debug_util.h"
   7:main.c        **** 
   8:main.c        **** DevLedObj_TypeDef Led1 = {
   9:main.c        ****     .port = LED1_PORT,
  10:main.c        ****     .pin = LED1_PIN,
  11:main.c        ****     .default_state = true,
  12:main.c        **** };
  13:main.c        **** 
  14:main.c        **** DebugPinObj_TypeDef Debug_PC0 = {
  15:main.c        ****     .port = GPIOC,
  16:main.c        ****     .pin = GPIO_PIN_0,
  17:main.c        ****     .default_state = false,
  18:main.c        **** };
  19:main.c        **** 
  20:main.c        **** void test_pin_ctl(void)
  21:main.c        **** {
  28              		.loc 1 21 1 view -0
  29              		.cfi_startproc
  30              		@ args = 0, pretend = 0, frame = 0
  31              		@ frame_needed = 0, uses_anonymous_args = 0
  32 0000 38B5     		push	{r3, r4, r5, lr}
  33              	.LCFI0:
  34              		.cfi_def_cfa_offset 16
  35              		.cfi_offset 3, -16
  36              		.cfi_offset 4, -12
  37              		.cfi_offset 5, -8
ARM GAS  C:\Users\huav\AppData\Local\Temp\ccgagIxx.s 			page 2


  38              		.cfi_offset 14, -4
  22:main.c        ****     DebugPin.ctl(Debug_PC0, true);
  39              		.loc 1 22 5 view .LVU1
  40              		.loc 1 22 13 is_stmt 0 view .LVU2
  41 0002 064D     		ldr	r5, .L3
  42 0004 6B68     		ldr	r3, [r5, #4]
  43              		.loc 1 22 5 view .LVU3
  44 0006 064C     		ldr	r4, .L3+4
  45 0008 0122     		movs	r2, #1
  46 000a 94E80300 		ldm	r4, {r0, r1}
  47 000e 9847     		blx	r3
  48              	.LVL0:
  23:main.c        ****     DebugPin.ctl(Debug_PC0, false);
  49              		.loc 1 23 5 is_stmt 1 view .LVU4
  50              		.loc 1 23 13 is_stmt 0 view .LVU5
  51 0010 6B68     		ldr	r3, [r5, #4]
  52              		.loc 1 23 5 view .LVU6
  53 0012 0022     		movs	r2, #0
  54 0014 94E80300 		ldm	r4, {r0, r1}
  55 0018 9847     		blx	r3
  56              	.LVL1:
  24:main.c        **** }
  57              		.loc 1 24 1 view .LVU7
  58 001a 38BD     		pop	{r3, r4, r5, pc}
  59              	.L4:
  60              		.align	2
  61              	.L3:
  62 001c 00000000 		.word	DebugPin
  63 0020 00000000 		.word	.LANCHOR0
  64              		.cfi_endproc
  65              	.LFE147:
  67              		.global	__aeabi_uldivmod
  68              		.section	.tcm_code,"ax",%progbits
  69              		.align	1
  70              		.global	main
  71              		.syntax unified
  72              		.thumb
  73              		.thumb_func
  74              		.fpu fpv5-d16
  76              	main:
  77              	.LFB148:
  25:main.c        **** 
  26:main.c        **** ITCM_CODE void main(void)
  27:main.c        **** {
  78              		.loc 1 27 1 is_stmt 1 view -0
  79              		.cfi_startproc
  80              		@ args = 0, pretend = 0, frame = 16
  81              		@ frame_needed = 0, uses_anonymous_args = 0
  82 0000 30B5     		push	{r4, r5, lr}
  83              	.LCFI1:
  84              		.cfi_def_cfa_offset 12
  85              		.cfi_offset 4, -12
  86              		.cfi_offset 5, -8
  87              		.cfi_offset 14, -4
  88 0002 85B0     		sub	sp, sp, #20
  89              	.LCFI2:
  90              		.cfi_def_cfa_offset 32
ARM GAS  C:\Users\huav\AppData\Local\Temp\ccgagIxx.s 			page 3


  28:main.c        ****     volatile SYSTEM_RunTime Rt = 0;
  91              		.loc 1 28 5 view .LVU9
  92              		.loc 1 28 29 is_stmt 0 view .LVU10
  93 0004 0022     		movs	r2, #0
  94 0006 0023     		movs	r3, #0
  95 0008 CDE90223 		strd	r2, [sp, #8]
  29:main.c        ****     volatile SYSTEM_RunTime Lst_Rt = 0;
  96              		.loc 1 29 5 is_stmt 1 view .LVU11
  97              		.loc 1 29 29 is_stmt 0 view .LVU12
  98 000c CDE90023 		strd	r2, [sp]
  30:main.c        ****     bool led_state = false;
  99              		.loc 1 30 5 is_stmt 1 view .LVU13
 100              	.LVL2:
  31:main.c        **** 
  32:main.c        ****     DevLED.init(Led1);
 101              		.loc 1 32 5 view .LVU14
 102              		.loc 1 32 11 is_stmt 0 view .LVU15
 103 0010 1D4B     		ldr	r3, .L9
 104 0012 1A68     		ldr	r2, [r3]
 105              		.loc 1 32 5 view .LVU16
 106 0014 1D4B     		ldr	r3, .L9+4
 107 0016 93E80300 		ldm	r3, {r0, r1}
 108 001a 9047     		blx	r2
 109              	.LVL3:
  33:main.c        ****     DebugPin.init(Debug_PC0);
 110              		.loc 1 33 5 is_stmt 1 view .LVU17
 111              		.loc 1 33 13 is_stmt 0 view .LVU18
 112 001c 1C4B     		ldr	r3, .L9+8
 113 001e 1A68     		ldr	r2, [r3]
 114              		.loc 1 33 5 view .LVU19
 115 0020 1C4B     		ldr	r3, .L9+12
 116 0022 93E80300 		ldm	r3, {r0, r1}
 117 0026 9047     		blx	r2
 118              	.LVL4:
  34:main.c        **** 
  35:main.c        ****     Kernel_Init();
 119              		.loc 1 35 5 is_stmt 1 view .LVU20
 120 0028 FFF7FEFF 		bl	Kernel_Init
 121              	.LVL5:
  36:main.c        **** 
  37:main.c        ****     Runtime_Config(RUNTIME_TICK_FRQ_20K);
 122              		.loc 1 37 5 view .LVU21
 123 002c 44F62060 		movw	r0, #20000
 124 0030 FFF7FEFF 		bl	Runtime_Config
 125              	.LVL6:
  38:main.c        ****     Runtime_Start();
 126              		.loc 1 38 5 view .LVU22
 127 0034 FFF7FEFF 		bl	Runtime_Start
 128              	.LVL7:
  39:main.c        **** 
  40:main.c        ****     Runtime_SetCallback(RtCallback_Type_Tick, test_pin_ctl);
 129              		.loc 1 40 5 view .LVU23
 130 0038 1749     		ldr	r1, .L9+16
 131 003a 0220     		movs	r0, #2
 132 003c FFF7FEFF 		bl	Runtime_SetCallback
 133              	.LVL8:
  30:main.c        **** 
ARM GAS  C:\Users\huav\AppData\Local\Temp\ccgagIxx.s 			page 4


 134              		.loc 1 30 10 is_stmt 0 view .LVU24
 135 0040 0025     		movs	r5, #0
 136 0042 06E0     		b	.L7
 137              	.LVL9:
 138              	.L6:
  41:main.c        **** 
  42:main.c        ****     while (1)
  43:main.c        ****     {
  44:main.c        ****         Rt = Get_CurrentRunningMs();
  45:main.c        **** 
  46:main.c        ****         if ((Rt % 50 == 0) && (Lst_Rt != Rt))
  47:main.c        ****         {
  48:main.c        ****             led_state = !led_state;
  49:main.c        ****             Lst_Rt = Rt;
  50:main.c        ****         }
  51:main.c        **** 
  52:main.c        ****         DevLED.ctl(Led1, led_state);
 139              		.loc 1 52 9 is_stmt 1 view .LVU25
 140              		.loc 1 52 15 is_stmt 0 view .LVU26
 141 0044 104B     		ldr	r3, .L9
 142 0046 5C68     		ldr	r4, [r3, #4]
 143              		.loc 1 52 9 view .LVU27
 144 0048 104B     		ldr	r3, .L9+4
 145 004a 2A46     		mov	r2, r5
 146 004c 93E80300 		ldm	r3, {r0, r1}
 147 0050 A047     		blx	r4
 148              	.LVL10:
  42:main.c        ****     {
 149              		.loc 1 42 11 is_stmt 1 view .LVU28
 150              	.L7:
  42:main.c        ****     {
 151              		.loc 1 42 5 view .LVU29
  44:main.c        **** 
 152              		.loc 1 44 9 view .LVU30
  44:main.c        **** 
 153              		.loc 1 44 14 is_stmt 0 view .LVU31
 154 0052 FFF7FEFF 		bl	Get_CurrentRunningMs
 155              	.LVL11:
  44:main.c        **** 
 156              		.loc 1 44 12 view .LVU32
 157 0056 CDE90201 		strd	r0, [sp, #8]
  46:main.c        ****         {
 158              		.loc 1 46 9 is_stmt 1 view .LVU33
  46:main.c        ****         {
 159              		.loc 1 46 17 is_stmt 0 view .LVU34
 160 005a 3222     		movs	r2, #50
 161 005c 0023     		movs	r3, #0
 162 005e DDE90201 		ldrd	r0, [sp, #8]
 163 0062 FFF7FEFF 		bl	__aeabi_uldivmod
 164              	.LVL12:
  46:main.c        ****         {
 165              		.loc 1 46 12 view .LVU35
 166 0066 1343     		orrs	r3, r3, r2
 167 0068 ECD1     		bne	.L6
  46:main.c        ****         {
 168              		.loc 1 46 39 discriminator 1 view .LVU36
 169 006a DDE90001 		ldrd	r0, [sp]
ARM GAS  C:\Users\huav\AppData\Local\Temp\ccgagIxx.s 			page 5


 170 006e DDE90223 		ldrd	r2, [sp, #8]
  46:main.c        ****         {
 171              		.loc 1 46 28 discriminator 1 view .LVU37
 172 0072 9942     		cmp	r1, r3
 173 0074 08BF     		it	eq
 174 0076 9042     		cmpeq	r0, r2
 175 0078 E4D0     		beq	.L6
  48:main.c        ****             Lst_Rt = Rt;
 176              		.loc 1 48 13 is_stmt 1 view .LVU38
 177 007a 85F00105 		eor	r5, r5, #1
 178              	.LVL13:
  49:main.c        ****         }
 179              		.loc 1 49 13 view .LVU39
  49:main.c        ****         }
 180              		.loc 1 49 20 is_stmt 0 view .LVU40
 181 007e DDE90223 		ldrd	r2, [sp, #8]
 182 0082 CDE90023 		strd	r2, [sp]
 183 0086 DDE7     		b	.L6
 184              	.L10:
 185              		.align	2
 186              	.L9:
 187 0088 00000000 		.word	DevLED
 188 008c 00000000 		.word	.LANCHOR1
 189 0090 00000000 		.word	DebugPin
 190 0094 00000000 		.word	.LANCHOR0
 191 0098 00000000 		.word	test_pin_ctl
 192              		.cfi_endproc
 193              	.LFE148:
 195              		.global	Debug_PC0
 196              		.global	Led1
 197              		.section	.data.Debug_PC0,"aw"
 198              		.align	2
 199              		.set	.LANCHOR0,. + 0
 202              	Debug_PC0:
 203 0000 00080258 		.word	1476528128
 204 0004 0100     		.short	1
 205 0006 00       		.byte	0
 206              		.section	.data.Led1,"aw"
 207              		.align	2
 208              		.set	.LANCHOR1,. + 0
 211              	Led1:
 212 0000 001C0258 		.word	1476533248
 213 0004 8000     		.short	128
 214 0006 01       		.byte	1
 215 0007 00       		.space	1
 216              		.text
 217              	.Letext0:
 218              		.file 2 "c:\\program files (x86)\\gnu arm embedded toolchain\\10 2020-q4-major\\arm-none-eabi\\inc
 219              		.file 3 "c:\\program files (x86)\\gnu arm embedded toolchain\\10 2020-q4-major\\arm-none-eabi\\inc
 220              		.file 4 "HAL_Lib/CMSIS/Device/ST/STM32H7xx/Include/stm32h743xx.h"
 221              		.file 5 "System/runtime/runtime.h"
 222              		.file 6 "Device/Dev_Led.h"
 223              		.file 7 "debug/debug_util.h"
 224              		.file 8 "System/kernel/kernel.h"
ARM GAS  C:\Users\huav\AppData\Local\Temp\ccgagIxx.s 			page 6

