ARM GAS  /var/folders/lx/hc4sn_b53233_zkc9xbbl97r0000gp/T//ccyfhY7C.s 			page 1


   1              		.cpu cortex-m7
   2              		.eabi_attribute 28, 1
   3              		.eabi_attribute 20, 1
   4              		.eabi_attribute 21, 1
   5              		.eabi_attribute 23, 3
   6              		.eabi_attribute 24, 1
   7              		.eabi_attribute 25, 1
   8              		.eabi_attribute 26, 1
   9              		.eabi_attribute 30, 1
  10              		.eabi_attribute 34, 1
  11              		.eabi_attribute 18, 4
  12              		.file	"mmu.c"
  13              		.text
  14              	.Ltext0:
  15              		.cfi_sections	.debug_frame
  16              		.section	.text.MMU_Init,"ax",%progbits
  17              		.align	1
  18              		.arch armv7e-m
  19              		.syntax unified
  20              		.thumb
  21              		.thumb_func
  22              		.fpu fpv5-d16
  24              	MMU_Init:
  25              	.LFB4:
  26              		.file 1 "System/mmu/mmu.c"
   1:System/mmu/mmu.c **** /*
   2:System/mmu/mmu.c ****  * coder : 8_B!T0
   3:System/mmu/mmu.c ****  */
   4:System/mmu/mmu.c **** #include "mmu.h"
   5:System/mmu/mmu.c **** 
   6:System/mmu/mmu.c **** #pragma pack(BLOCK_ALIGMENT_SIZE)
   7:System/mmu/mmu.c **** uint8_t Mem_Buff[PHY_MEM_SIZE] __attribute__((section(".ccmram")));
   8:System/mmu/mmu.c **** #pragma pack()
   9:System/mmu/mmu.c **** 
  10:System/mmu/mmu.c **** Mem_Monitor_TypeDef Mem_Monitor;
  11:System/mmu/mmu.c **** MemBlock_TypeDef MemStart;
  12:System/mmu/mmu.c **** MemBlock_TypeDef *MemEnd;
  13:System/mmu/mmu.c **** 
  14:System/mmu/mmu.c **** static void MMU_InsertFreeBlock(MemBlock_TypeDef *pxBlockToInsert);
  15:System/mmu/mmu.c **** static void MMU_Init(void);
  16:System/mmu/mmu.c **** 
  17:System/mmu/mmu.c **** Mem_Monitor_TypeDef MMU_Get_Monitor(void)
  18:System/mmu/mmu.c **** {
  19:System/mmu/mmu.c ****     MemBlock_TypeDef *pxIterator;
  20:System/mmu/mmu.c **** 
  21:System/mmu/mmu.c ****     /* comput freeblock number */
  22:System/mmu/mmu.c ****     for (pxIterator = &MemStart; pxIterator->nxtFree != MemEnd; pxIterator = pxIterator->nxtFree)
  23:System/mmu/mmu.c ****     {
  24:System/mmu/mmu.c ****         Mem_Monitor.FreeBlock_Num++;
  25:System/mmu/mmu.c ****     }
  26:System/mmu/mmu.c **** 
  27:System/mmu/mmu.c ****     return Mem_Monitor;
  28:System/mmu/mmu.c **** }
  29:System/mmu/mmu.c **** 
  30:System/mmu/mmu.c **** static void MMU_Init(void)
  31:System/mmu/mmu.c **** {
  27              		.loc 1 31 1 view -0
ARM GAS  /var/folders/lx/hc4sn_b53233_zkc9xbbl97r0000gp/T//ccyfhY7C.s 			page 2


  28              		.cfi_startproc
  29              		@ args = 0, pretend = 0, frame = 0
  30              		@ frame_needed = 0, uses_anonymous_args = 0
  31              		@ link register save eliminated.
  32:System/mmu/mmu.c ****     MemBlock_TypeDef *FstFreeBlock_tmp = NULL;
  32              		.loc 1 32 5 view .LVU1
  33              	.LVL0:
  33:System/mmu/mmu.c **** 
  34:System/mmu/mmu.c ****     Mem_Monitor.phy_size = PHY_MEM_SIZE;
  34              		.loc 1 34 5 view .LVU2
  35              		.loc 1 34 26 is_stmt 0 view .LVU3
  36 0000 154A     		ldr	r2, .L4
  37 0002 4FF48033 		mov	r3, #65536
  38 0006 1360     		str	r3, [r2]
  35:System/mmu/mmu.c ****     Mem_Monitor.used_size = 0;
  39              		.loc 1 35 5 is_stmt 1 view .LVU4
  40              		.loc 1 35 27 is_stmt 0 view .LVU5
  41 0008 0023     		movs	r3, #0
  42 000a 5360     		str	r3, [r2, #4]
  36:System/mmu/mmu.c ****     Mem_Monitor.FreeBlock_Num = 1;
  43              		.loc 1 36 5 is_stmt 1 view .LVU6
  44              		.loc 1 36 31 is_stmt 0 view .LVU7
  45 000c 0121     		movs	r1, #1
  46 000e 9182     		strh	r1, [r2, #20]	@ movhi
  37:System/mmu/mmu.c **** 
  38:System/mmu/mmu.c ****     for (uint32_t i = 0; i < PHY_MEM_SIZE; i++)
  47              		.loc 1 38 5 is_stmt 1 view .LVU8
  48              	.LBB2:
  49              		.loc 1 38 10 view .LVU9
  50              	.LVL1:
  51              		.loc 1 38 5 is_stmt 0 view .LVU10
  52 0010 03E0     		b	.L2
  53              	.LVL2:
  54              	.L3:
  39:System/mmu/mmu.c ****     {
  40:System/mmu/mmu.c ****         Mem_Buff[i] = 0;
  55              		.loc 1 40 9 is_stmt 1 discriminator 3 view .LVU11
  56              		.loc 1 40 21 is_stmt 0 discriminator 3 view .LVU12
  57 0012 124A     		ldr	r2, .L4+4
  58 0014 0021     		movs	r1, #0
  59 0016 D154     		strb	r1, [r2, r3]
  38:System/mmu/mmu.c ****     {
  60              		.loc 1 38 44 is_stmt 1 discriminator 3 view .LVU13
  38:System/mmu/mmu.c ****     {
  61              		.loc 1 38 45 is_stmt 0 discriminator 3 view .LVU14
  62 0018 0133     		adds	r3, r3, #1
  63              	.LVL3:
  64              	.L2:
  38:System/mmu/mmu.c ****     {
  65              		.loc 1 38 26 is_stmt 1 discriminator 1 view .LVU15
  38:System/mmu/mmu.c ****     {
  66              		.loc 1 38 5 is_stmt 0 discriminator 1 view .LVU16
  67 001a B3F5803F 		cmp	r3, #65536
  68 001e F8D3     		bcc	.L3
  69              	.LBE2:
  41:System/mmu/mmu.c ****     }
  42:System/mmu/mmu.c **** 
ARM GAS  /var/folders/lx/hc4sn_b53233_zkc9xbbl97r0000gp/T//ccyfhY7C.s 			page 3


  43:System/mmu/mmu.c ****     MemStart.nxtFree = (void *)Mem_Buff;
  70              		.loc 1 43 5 is_stmt 1 view .LVU17
  71              		.loc 1 43 22 is_stmt 0 view .LVU18
  72 0020 0F49     		ldr	r1, .L4+8
  73 0022 0E4A     		ldr	r2, .L4+4
  74 0024 0A60     		str	r2, [r1]
  44:System/mmu/mmu.c ****     MemStart.size = 0;
  75              		.loc 1 44 5 is_stmt 1 view .LVU19
  76              		.loc 1 44 19 is_stmt 0 view .LVU20
  77 0026 0023     		movs	r3, #0
  78              	.LVL4:
  79              		.loc 1 44 19 view .LVU21
  80 0028 8B80     		strh	r3, [r1, #4]	@ movhi
  45:System/mmu/mmu.c **** 
  46:System/mmu/mmu.c ****     MemEnd = (void *)(&Mem_Buff[PHY_MEM_SIZE] - sizeof(MemBlock_TypeDef));
  81              		.loc 1 46 5 is_stmt 1 view .LVU22
  82              		.loc 1 46 12 is_stmt 0 view .LVU23
  83 002a 0E49     		ldr	r1, .L4+12
  84 002c 0E48     		ldr	r0, .L4+16
  85 002e 0160     		str	r1, [r0]
  47:System/mmu/mmu.c ****     MemEnd->nxtFree = NULL;
  86              		.loc 1 47 5 is_stmt 1 view .LVU24
  87              		.loc 1 47 21 is_stmt 0 view .LVU25
  88 0030 02F57040 		add	r0, r2, #61440
  89 0034 C0F8F83F 		str	r3, [r0, #4088]
  48:System/mmu/mmu.c ****     MemEnd->size = 0;
  90              		.loc 1 48 5 is_stmt 1 view .LVU26
  91              		.loc 1 48 18 is_stmt 0 view .LVU27
  92 0038 A0F8FC3F 		strh	r3, [r0, #4092]	@ movhi
  49:System/mmu/mmu.c **** 
  50:System/mmu/mmu.c ****     Mem_Monitor.total_size = (MemBlock_Addr)MemEnd - (MemBlock_Addr)MemStart.nxtFree;
  93              		.loc 1 50 5 is_stmt 1 view .LVU28
  94              		.loc 1 50 28 is_stmt 0 view .LVU29
  95 003c 064B     		ldr	r3, .L4
  96 003e 4FF6F870 		movw	r0, #65528
  97 0042 D860     		str	r0, [r3, #12]
  51:System/mmu/mmu.c **** 
  52:System/mmu/mmu.c ****     FstFreeBlock_tmp = MemStart.nxtFree;
  98              		.loc 1 52 5 is_stmt 1 view .LVU30
  99              	.LVL5:
  53:System/mmu/mmu.c ****     FstFreeBlock_tmp->nxtFree = MemEnd;
 100              		.loc 1 53 5 view .LVU31
 101              		.loc 1 53 31 is_stmt 0 view .LVU32
 102 0044 1160     		str	r1, [r2]
  54:System/mmu/mmu.c **** 
  55:System/mmu/mmu.c ****     Mem_Monitor.total_size -= sizeof(MemBlock_TypeDef);
 103              		.loc 1 55 5 is_stmt 1 view .LVU33
 104              		.loc 1 55 28 is_stmt 0 view .LVU34
 105 0046 4FF6F071 		movw	r1, #65520
 106 004a D960     		str	r1, [r3, #12]
  56:System/mmu/mmu.c ****     FstFreeBlock_tmp->size = Mem_Monitor.total_size;
 107              		.loc 1 56 5 is_stmt 1 view .LVU35
 108              		.loc 1 56 28 is_stmt 0 view .LVU36
 109 004c 9180     		strh	r1, [r2, #4]	@ movhi
  57:System/mmu/mmu.c **** 
  58:System/mmu/mmu.c ****     Mem_Monitor.remain_size = Mem_Monitor.total_size;
 110              		.loc 1 58 5 is_stmt 1 view .LVU37
ARM GAS  /var/folders/lx/hc4sn_b53233_zkc9xbbl97r0000gp/T//ccyfhY7C.s 			page 4


 111              		.loc 1 58 29 is_stmt 0 view .LVU38
 112 004e 9960     		str	r1, [r3, #8]
  59:System/mmu/mmu.c **** 
  60:System/mmu/mmu.c ****     Mem_Monitor.init = true;
 113              		.loc 1 60 5 is_stmt 1 view .LVU39
 114              		.loc 1 60 22 is_stmt 0 view .LVU40
 115 0050 0122     		movs	r2, #1
 116 0052 83F82020 		strb	r2, [r3, #32]
  61:System/mmu/mmu.c **** }
 117              		.loc 1 61 1 view .LVU41
 118 0056 7047     		bx	lr
 119              	.L5:
 120              		.align	2
 121              	.L4:
 122 0058 00000000 		.word	.LANCHOR0
 123 005c 00000000 		.word	Mem_Buff
 124 0060 00000000 		.word	.LANCHOR1
 125 0064 F8FF0000 		.word	Mem_Buff+65528
 126 0068 00000000 		.word	.LANCHOR2
 127              		.cfi_endproc
 128              	.LFE4:
 130              		.section	.text.MMU_InsertFreeBlock,"ax",%progbits
 131              		.align	1
 132              		.syntax unified
 133              		.thumb
 134              		.thumb_func
 135              		.fpu fpv5-d16
 137              	MMU_InsertFreeBlock:
 138              	.LVL6:
 139              	.LFB7:
  62:System/mmu/mmu.c **** 
  63:System/mmu/mmu.c **** void *MMU_Malloc(uint16_t size)
  64:System/mmu/mmu.c **** {
  65:System/mmu/mmu.c ****     MemBlock_TypeDef *PrvFreeBlock = NULL;
  66:System/mmu/mmu.c ****     MemBlock_TypeDef *NxtFreeBlock = NULL;
  67:System/mmu/mmu.c ****     MemBlock_TypeDef *Block_Tmp = NULL;
  68:System/mmu/mmu.c ****     void *mem_addr = NULL;
  69:System/mmu/mmu.c **** 
  70:System/mmu/mmu.c ****     __asm("cpsid i");
  71:System/mmu/mmu.c **** 
  72:System/mmu/mmu.c ****     if (!Mem_Monitor.init)
  73:System/mmu/mmu.c ****     {
  74:System/mmu/mmu.c ****         MMU_Init();
  75:System/mmu/mmu.c ****         Mem_Monitor.FreeBlock = &MemStart;
  76:System/mmu/mmu.c ****     }
  77:System/mmu/mmu.c **** 
  78:System/mmu/mmu.c ****     if (size > 0)
  79:System/mmu/mmu.c ****     {
  80:System/mmu/mmu.c ****         size += sizeof(MemBlock_TypeDef);
  81:System/mmu/mmu.c **** 
  82:System/mmu/mmu.c ****         /* aligment request byte number */
  83:System/mmu/mmu.c ****         if ((size & BLOCK_ALIGMENT_MASK) != 0x00)
  84:System/mmu/mmu.c ****         {
  85:System/mmu/mmu.c ****             /* Byte alignment required. */
  86:System/mmu/mmu.c ****             size += (BLOCK_ALIGMENT_SIZE - (size & BLOCK_ALIGMENT_MASK));
  87:System/mmu/mmu.c ****         }
  88:System/mmu/mmu.c **** 
ARM GAS  /var/folders/lx/hc4sn_b53233_zkc9xbbl97r0000gp/T//ccyfhY7C.s 			page 5


  89:System/mmu/mmu.c ****         if (size <= Mem_Monitor.remain_size)
  90:System/mmu/mmu.c ****         {
  91:System/mmu/mmu.c **** 
  92:System/mmu/mmu.c ****             PrvFreeBlock = &MemStart;
  93:System/mmu/mmu.c ****             Block_Tmp = MemStart.nxtFree;
  94:System/mmu/mmu.c **** 
  95:System/mmu/mmu.c ****             while ((Block_Tmp->size < size) && (Block_Tmp->nxtFree != NULL))
  96:System/mmu/mmu.c ****             {
  97:System/mmu/mmu.c ****                 PrvFreeBlock = Block_Tmp;
  98:System/mmu/mmu.c ****                 Block_Tmp = Block_Tmp->nxtFree;
  99:System/mmu/mmu.c ****             }
 100:System/mmu/mmu.c **** 
 101:System/mmu/mmu.c ****             if ((((uint32_t)Block_Tmp & 0xF0000000) == (uint32_t)Mem_Buff) && (Block_Tmp != MemEnd)
 102:System/mmu/mmu.c ****             {
 103:System/mmu/mmu.c ****                 Mem_Monitor.req_t++;
 104:System/mmu/mmu.c **** 
 105:System/mmu/mmu.c ****                 mem_addr = (void *)(((uint8_t *)PrvFreeBlock->nxtFree) + sizeof(MemBlock_TypeDef));
 106:System/mmu/mmu.c **** 
 107:System/mmu/mmu.c ****                 PrvFreeBlock->nxtFree = Block_Tmp->nxtFree;
 108:System/mmu/mmu.c **** 
 109:System/mmu/mmu.c ****                 if ((Block_Tmp->size - size) > MINIMUM_BLOCK_SIZE)
 110:System/mmu/mmu.c ****                 {
 111:System/mmu/mmu.c ****                     NxtFreeBlock = (void *)(((uint8_t *)Block_Tmp) + size);
 112:System/mmu/mmu.c ****                     NxtFreeBlock->size = Block_Tmp->size - size;
 113:System/mmu/mmu.c ****                     Block_Tmp->size = size;
 114:System/mmu/mmu.c **** 
 115:System/mmu/mmu.c ****                     MMU_InsertFreeBlock(NxtFreeBlock);
 116:System/mmu/mmu.c ****                 }
 117:System/mmu/mmu.c **** 
 118:System/mmu/mmu.c ****                 Mem_Monitor.remain_size -= size;
 119:System/mmu/mmu.c ****                 Mem_Monitor.used_size += size;
 120:System/mmu/mmu.c **** 
 121:System/mmu/mmu.c ****                 Block_Tmp->nxtFree = NULL;
 122:System/mmu/mmu.c ****             }
 123:System/mmu/mmu.c ****         }
 124:System/mmu/mmu.c ****     }
 125:System/mmu/mmu.c **** 
 126:System/mmu/mmu.c ****     __asm("cpsie i");
 127:System/mmu/mmu.c **** 
 128:System/mmu/mmu.c ****     return mem_addr;
 129:System/mmu/mmu.c **** }
 130:System/mmu/mmu.c **** 
 131:System/mmu/mmu.c **** void MMU_Free(void *ptr)
 132:System/mmu/mmu.c **** {
 133:System/mmu/mmu.c ****     uint8_t *puc = (uint8_t *)ptr;
 134:System/mmu/mmu.c ****     MemBlock_TypeDef *pxLink;
 135:System/mmu/mmu.c **** 
 136:System/mmu/mmu.c ****     if (ptr != NULL)
 137:System/mmu/mmu.c ****     {
 138:System/mmu/mmu.c ****         Mem_Monitor.fre_t++;
 139:System/mmu/mmu.c **** 
 140:System/mmu/mmu.c ****         /* The memory being freed will have an BlockLink_t structure immediately
 141:System/mmu/mmu.c ****         before it. */
 142:System/mmu/mmu.c ****         puc -= sizeof(MemBlock_TypeDef);
 143:System/mmu/mmu.c **** 
 144:System/mmu/mmu.c ****         /* This casting is to keep the compiler from issuing warnings. */
 145:System/mmu/mmu.c ****         pxLink = (void *)puc;
ARM GAS  /var/folders/lx/hc4sn_b53233_zkc9xbbl97r0000gp/T//ccyfhY7C.s 			page 6


 146:System/mmu/mmu.c **** 
 147:System/mmu/mmu.c ****         if (pxLink->nxtFree == NULL)
 148:System/mmu/mmu.c ****         {
 149:System/mmu/mmu.c ****             __asm("cpsid i");
 150:System/mmu/mmu.c **** 
 151:System/mmu/mmu.c ****             /* Add this block to the list of free blocks. */
 152:System/mmu/mmu.c ****             Mem_Monitor.used_size -= pxLink->size;
 153:System/mmu/mmu.c ****             Mem_Monitor.remain_size += pxLink->size;
 154:System/mmu/mmu.c **** 
 155:System/mmu/mmu.c ****             // traceFREE(pv, pxLink->size);
 156:System/mmu/mmu.c ****             MMU_InsertFreeBlock(((MemBlock_TypeDef *)pxLink));
 157:System/mmu/mmu.c **** 
 158:System/mmu/mmu.c ****             __asm("cpsie i");
 159:System/mmu/mmu.c ****         }
 160:System/mmu/mmu.c ****     }
 161:System/mmu/mmu.c **** 
 162:System/mmu/mmu.c ****     ptr = NULL;
 163:System/mmu/mmu.c **** }
 164:System/mmu/mmu.c **** 
 165:System/mmu/mmu.c **** static void MMU_InsertFreeBlock(MemBlock_TypeDef *pxBlockToInsert)
 166:System/mmu/mmu.c **** {
 140              		.loc 1 166 1 is_stmt 1 view -0
 141              		.cfi_startproc
 142              		@ args = 0, pretend = 0, frame = 0
 143              		@ frame_needed = 0, uses_anonymous_args = 0
 144              		@ link register save eliminated.
 167:System/mmu/mmu.c ****     volatile MemBlock_TypeDef *pxIterator;
 145              		.loc 1 167 5 view .LVU43
 168:System/mmu/mmu.c ****     uint8_t *puc;
 146              		.loc 1 168 5 view .LVU44
 169:System/mmu/mmu.c **** 
 170:System/mmu/mmu.c ****     /* Iterate through the list until a block is found that has a higher address
 171:System/mmu/mmu.c ****      * than the block being inserted. */
 172:System/mmu/mmu.c ****     for (pxIterator = &MemStart; pxIterator->nxtFree < pxBlockToInsert; pxIterator = pxIterator->nx
 147              		.loc 1 172 5 view .LVU45
 148              		.loc 1 172 21 is_stmt 0 view .LVU46
 149 0000 1B4B     		ldr	r3, .L22
 150              		.loc 1 172 5 view .LVU47
 151 0002 00E0     		b	.L7
 152              	.LVL7:
 153              	.L8:
 173:System/mmu/mmu.c ****     {
 174:System/mmu/mmu.c ****         /* Nothing to do here, just iterate to the right position. */
 175:System/mmu/mmu.c ****     }
 154              		.loc 1 175 5 is_stmt 1 discriminator 3 view .LVU48
 172:System/mmu/mmu.c ****     {
 155              		.loc 1 172 73 discriminator 3 view .LVU49
 172:System/mmu/mmu.c ****     {
 156              		.loc 1 172 84 is_stmt 0 discriminator 3 view .LVU50
 157 0004 1B68     		ldr	r3, [r3]
 158              	.LVL8:
 159              	.L7:
 172:System/mmu/mmu.c ****     {
 160              		.loc 1 172 34 is_stmt 1 discriminator 1 view .LVU51
 172:System/mmu/mmu.c ****     {
 161              		.loc 1 172 44 is_stmt 0 discriminator 1 view .LVU52
 162 0006 1A68     		ldr	r2, [r3]
ARM GAS  /var/folders/lx/hc4sn_b53233_zkc9xbbl97r0000gp/T//ccyfhY7C.s 			page 7


 172:System/mmu/mmu.c ****     {
 163              		.loc 1 172 5 discriminator 1 view .LVU53
 164 0008 8242     		cmp	r2, r0
 165 000a FBD3     		bcc	.L8
 176:System/mmu/mmu.c **** 
 177:System/mmu/mmu.c ****     if (pxIterator == NULL)
 166              		.loc 1 177 5 is_stmt 1 view .LVU54
 167              		.loc 1 177 8 is_stmt 0 view .LVU55
 168 000c 002B     		cmp	r3, #0
 169 000e 2DD0     		beq	.L15
 178:System/mmu/mmu.c ****         return;
 179:System/mmu/mmu.c **** 
 180:System/mmu/mmu.c ****     puc = (uint8_t *)pxIterator;
 170              		.loc 1 180 5 is_stmt 1 view .LVU56
 171              	.LVL9:
 181:System/mmu/mmu.c ****     if ((puc + pxIterator->size) == (uint8_t *)pxBlockToInsert)
 172              		.loc 1 181 5 view .LVU57
 173              		.loc 1 181 26 is_stmt 0 view .LVU58
 174 0010 9A88     		ldrh	r2, [r3, #4]
 175              		.loc 1 181 14 view .LVU59
 176 0012 13FA82F2 		uxtah	r2, r3, r2
 177              		.loc 1 181 8 view .LVU60
 178 0016 8242     		cmp	r2, r0
 179 0018 0BD0     		beq	.L20
 180              	.L10:
 182:System/mmu/mmu.c ****     {
 183:System/mmu/mmu.c ****         pxIterator->size += pxBlockToInsert->size;
 184:System/mmu/mmu.c ****         pxBlockToInsert = pxIterator;
 185:System/mmu/mmu.c ****     }
 186:System/mmu/mmu.c **** 
 187:System/mmu/mmu.c ****     /* Do the block being inserted, and the block it is being inserted before
 188:System/mmu/mmu.c ****     make a contiguous block of memory? */
 189:System/mmu/mmu.c ****     puc = (uint8_t *)pxBlockToInsert;
 181              		.loc 1 189 5 is_stmt 1 view .LVU61
 182              	.LVL10:
 190:System/mmu/mmu.c ****     if ((puc + pxBlockToInsert->size) == (uint8_t *)pxIterator->nxtFree)
 183              		.loc 1 190 5 view .LVU62
 184              		.loc 1 190 31 is_stmt 0 view .LVU63
 185 001a 8288     		ldrh	r2, [r0, #4]
 186              		.loc 1 190 14 view .LVU64
 187 001c 00EB020C 		add	ip, r0, r2
 188              		.loc 1 190 63 view .LVU65
 189 0020 1968     		ldr	r1, [r3]
 190              		.loc 1 190 8 view .LVU66
 191 0022 8C45     		cmp	ip, r1
 192 0024 0DD0     		beq	.L21
 191:System/mmu/mmu.c ****     {
 192:System/mmu/mmu.c ****         if (pxIterator->nxtFree != MemEnd)
 193:System/mmu/mmu.c ****         {
 194:System/mmu/mmu.c ****             /* Form one big block from the two blocks. */
 195:System/mmu/mmu.c ****             pxBlockToInsert->size += pxIterator->nxtFree->size;
 196:System/mmu/mmu.c ****             pxBlockToInsert->nxtFree = pxIterator->nxtFree->nxtFree;
 197:System/mmu/mmu.c ****         }
 198:System/mmu/mmu.c ****         else
 199:System/mmu/mmu.c ****         {
 200:System/mmu/mmu.c ****             pxBlockToInsert->nxtFree = MemEnd;
 201:System/mmu/mmu.c ****         }
ARM GAS  /var/folders/lx/hc4sn_b53233_zkc9xbbl97r0000gp/T//ccyfhY7C.s 			page 8


 202:System/mmu/mmu.c ****     }
 203:System/mmu/mmu.c ****     else
 204:System/mmu/mmu.c ****     {
 205:System/mmu/mmu.c ****         pxBlockToInsert->nxtFree = pxIterator->nxtFree;
 193              		.loc 1 205 9 is_stmt 1 view .LVU67
 194              		.loc 1 205 46 is_stmt 0 view .LVU68
 195 0026 1A68     		ldr	r2, [r3]
 196              		.loc 1 205 34 view .LVU69
 197 0028 0260     		str	r2, [r0]
 206:System/mmu/mmu.c ****     }
 207:System/mmu/mmu.c **** 
 208:System/mmu/mmu.c ****     if (pxIterator != pxBlockToInsert)
 198              		.loc 1 208 5 is_stmt 1 view .LVU70
 199              		.loc 1 208 8 is_stmt 0 view .LVU71
 200 002a 9842     		cmp	r0, r3
 201 002c 1ED0     		beq	.L15
 209:System/mmu/mmu.c ****     {
 210:System/mmu/mmu.c ****         pxIterator->nxtFree = pxBlockToInsert;
 202              		.loc 1 210 9 is_stmt 1 view .LVU72
 203              		.loc 1 210 29 is_stmt 0 view .LVU73
 204 002e 1860     		str	r0, [r3]
 205 0030 7047     		bx	lr
 206              	.LVL11:
 207              	.L20:
 183:System/mmu/mmu.c ****         pxBlockToInsert = pxIterator;
 208              		.loc 1 183 9 is_stmt 1 view .LVU74
 183:System/mmu/mmu.c ****         pxBlockToInsert = pxIterator;
 209              		.loc 1 183 26 is_stmt 0 view .LVU75
 210 0032 9A88     		ldrh	r2, [r3, #4]
 183:System/mmu/mmu.c ****         pxBlockToInsert = pxIterator;
 211              		.loc 1 183 44 view .LVU76
 212 0034 8188     		ldrh	r1, [r0, #4]
 183:System/mmu/mmu.c ****         pxBlockToInsert = pxIterator;
 213              		.loc 1 183 26 view .LVU77
 214 0036 11FA82F2 		uxtah	r2, r1, r2
 215 003a 92B2     		uxth	r2, r2
 216 003c 9A80     		strh	r2, [r3, #4]	@ movhi
 184:System/mmu/mmu.c ****     }
 217              		.loc 1 184 9 is_stmt 1 view .LVU78
 218              	.LVL12:
 184:System/mmu/mmu.c ****     }
 219              		.loc 1 184 25 is_stmt 0 view .LVU79
 220 003e 1846     		mov	r0, r3
 221 0040 EBE7     		b	.L10
 222              	.LVL13:
 223              	.L21:
 166:System/mmu/mmu.c ****     volatile MemBlock_TypeDef *pxIterator;
 224              		.loc 1 166 1 view .LVU80
 225 0042 10B4     		push	{r4}
 226              	.LCFI0:
 227              		.cfi_def_cfa_offset 4
 228              		.cfi_offset 4, -4
 192:System/mmu/mmu.c ****         {
 229              		.loc 1 192 9 is_stmt 1 view .LVU81
 192:System/mmu/mmu.c ****         {
 230              		.loc 1 192 23 is_stmt 0 view .LVU82
 231 0044 1C68     		ldr	r4, [r3]
ARM GAS  /var/folders/lx/hc4sn_b53233_zkc9xbbl97r0000gp/T//ccyfhY7C.s 			page 9


 192:System/mmu/mmu.c ****         {
 232              		.loc 1 192 33 view .LVU83
 233 0046 0B49     		ldr	r1, .L22+4
 234 0048 0968     		ldr	r1, [r1]
 192:System/mmu/mmu.c ****         {
 235              		.loc 1 192 12 view .LVU84
 236 004a 8C42     		cmp	r4, r1
 237 004c 0CD0     		beq	.L12
 195:System/mmu/mmu.c ****             pxBlockToInsert->nxtFree = pxIterator->nxtFree->nxtFree;
 238              		.loc 1 195 13 is_stmt 1 view .LVU85
 195:System/mmu/mmu.c ****             pxBlockToInsert->nxtFree = pxIterator->nxtFree->nxtFree;
 239              		.loc 1 195 48 is_stmt 0 view .LVU86
 240 004e 1968     		ldr	r1, [r3]
 195:System/mmu/mmu.c ****             pxBlockToInsert->nxtFree = pxIterator->nxtFree->nxtFree;
 241              		.loc 1 195 57 view .LVU87
 242 0050 8988     		ldrh	r1, [r1, #4]
 195:System/mmu/mmu.c ****             pxBlockToInsert->nxtFree = pxIterator->nxtFree->nxtFree;
 243              		.loc 1 195 35 view .LVU88
 244 0052 0A44     		add	r2, r2, r1
 245 0054 8280     		strh	r2, [r0, #4]	@ movhi
 196:System/mmu/mmu.c ****         }
 246              		.loc 1 196 13 is_stmt 1 view .LVU89
 196:System/mmu/mmu.c ****         }
 247              		.loc 1 196 50 is_stmt 0 view .LVU90
 248 0056 1A68     		ldr	r2, [r3]
 196:System/mmu/mmu.c ****         }
 249              		.loc 1 196 59 view .LVU91
 250 0058 1268     		ldr	r2, [r2]
 196:System/mmu/mmu.c ****         }
 251              		.loc 1 196 38 view .LVU92
 252 005a 0260     		str	r2, [r0]
 253              	.L13:
 208:System/mmu/mmu.c ****     {
 254              		.loc 1 208 5 is_stmt 1 view .LVU93
 208:System/mmu/mmu.c ****     {
 255              		.loc 1 208 8 is_stmt 0 view .LVU94
 256 005c 9842     		cmp	r0, r3
 257 005e 00D0     		beq	.L6
 258              		.loc 1 210 9 is_stmt 1 view .LVU95
 259              		.loc 1 210 29 is_stmt 0 view .LVU96
 260 0060 1860     		str	r0, [r3]
 261              	.L6:
 211:System/mmu/mmu.c ****     }
 212:System/mmu/mmu.c **** }
 262              		.loc 1 212 1 view .LVU97
 263 0062 5DF8044B 		ldr	r4, [sp], #4
 264              	.LCFI1:
 265              		.cfi_remember_state
 266              		.cfi_restore 4
 267              		.cfi_def_cfa_offset 0
 268 0066 7047     		bx	lr
 269              	.L12:
 270              	.LCFI2:
 271              		.cfi_restore_state
 200:System/mmu/mmu.c ****         }
 272              		.loc 1 200 13 is_stmt 1 view .LVU98
 200:System/mmu/mmu.c ****         }
ARM GAS  /var/folders/lx/hc4sn_b53233_zkc9xbbl97r0000gp/T//ccyfhY7C.s 			page 10


 273              		.loc 1 200 38 is_stmt 0 view .LVU99
 274 0068 0160     		str	r1, [r0]
 275 006a F7E7     		b	.L13
 276              	.LVL14:
 277              	.L15:
 278              	.LCFI3:
 279              		.cfi_def_cfa_offset 0
 280              		.cfi_restore 4
 200:System/mmu/mmu.c ****         }
 281              		.loc 1 200 38 view .LVU100
 282 006c 7047     		bx	lr
 283              	.L23:
 284 006e 00BF     		.align	2
 285              	.L22:
 286 0070 00000000 		.word	.LANCHOR1
 287 0074 00000000 		.word	.LANCHOR2
 288              		.cfi_endproc
 289              	.LFE7:
 291              		.section	.text.MMU_Get_Monitor,"ax",%progbits
 292              		.align	1
 293              		.global	MMU_Get_Monitor
 294              		.syntax unified
 295              		.thumb
 296              		.thumb_func
 297              		.fpu fpv5-d16
 299              	MMU_Get_Monitor:
 300              	.LVL15:
 301              	.LFB3:
  18:System/mmu/mmu.c ****     MemBlock_TypeDef *pxIterator;
 302              		.loc 1 18 1 is_stmt 1 view -0
 303              		.cfi_startproc
 304              		@ args = 0, pretend = 0, frame = 0
 305              		@ frame_needed = 0, uses_anonymous_args = 0
  18:System/mmu/mmu.c ****     MemBlock_TypeDef *pxIterator;
 306              		.loc 1 18 1 is_stmt 0 view .LVU102
 307 0000 10B5     		push	{r4, lr}
 308              	.LCFI4:
 309              		.cfi_def_cfa_offset 8
 310              		.cfi_offset 4, -8
 311              		.cfi_offset 14, -4
 312 0002 8646     		mov	lr, r0
  19:System/mmu/mmu.c **** 
 313              		.loc 1 19 5 is_stmt 1 view .LVU103
  22:System/mmu/mmu.c ****     {
 314              		.loc 1 22 5 view .LVU104
 315              	.LVL16:
  22:System/mmu/mmu.c ****     {
 316              		.loc 1 22 21 is_stmt 0 view .LVU105
 317 0004 0C4A     		ldr	r2, .L28
  22:System/mmu/mmu.c ****     {
 318              		.loc 1 22 5 view .LVU106
 319 0006 04E0     		b	.L25
 320              	.LVL17:
 321              	.L26:
  24:System/mmu/mmu.c ****     }
 322              		.loc 1 24 9 is_stmt 1 discriminator 3 view .LVU107
  24:System/mmu/mmu.c ****     }
ARM GAS  /var/folders/lx/hc4sn_b53233_zkc9xbbl97r0000gp/T//ccyfhY7C.s 			page 11


 323              		.loc 1 24 20 is_stmt 0 discriminator 3 view .LVU108
 324 0008 0C49     		ldr	r1, .L28+4
 325 000a 8B8A     		ldrh	r3, [r1, #20]
  24:System/mmu/mmu.c ****     }
 326              		.loc 1 24 34 discriminator 3 view .LVU109
 327 000c 0133     		adds	r3, r3, #1
 328 000e 8B82     		strh	r3, [r1, #20]	@ movhi
  22:System/mmu/mmu.c ****     {
 329              		.loc 1 22 65 is_stmt 1 discriminator 3 view .LVU110
  22:System/mmu/mmu.c ****     {
 330              		.loc 1 22 76 is_stmt 0 discriminator 3 view .LVU111
 331 0010 1268     		ldr	r2, [r2]
 332              	.LVL18:
 333              	.L25:
  22:System/mmu/mmu.c ****     {
 334              		.loc 1 22 34 is_stmt 1 discriminator 1 view .LVU112
  22:System/mmu/mmu.c ****     {
 335              		.loc 1 22 44 is_stmt 0 discriminator 1 view .LVU113
 336 0012 1168     		ldr	r1, [r2]
  22:System/mmu/mmu.c ****     {
 337              		.loc 1 22 54 discriminator 1 view .LVU114
 338 0014 0A4B     		ldr	r3, .L28+8
 339 0016 1B68     		ldr	r3, [r3]
  22:System/mmu/mmu.c ****     {
 340              		.loc 1 22 5 discriminator 1 view .LVU115
 341 0018 9942     		cmp	r1, r3
 342 001a F5D1     		bne	.L26
  27:System/mmu/mmu.c **** }
 343              		.loc 1 27 5 is_stmt 1 view .LVU116
  27:System/mmu/mmu.c **** }
 344              		.loc 1 27 12 is_stmt 0 view .LVU117
 345 001c F446     		mov	ip, lr
 346 001e 074C     		ldr	r4, .L28+4
 347 0020 0FCC     		ldmia	r4!, {r0, r1, r2, r3}
 348              	.LVL19:
  27:System/mmu/mmu.c **** }
 349              		.loc 1 27 12 view .LVU118
 350 0022 ACE80F00 		stmia	ip!, {r0, r1, r2, r3}
 351 0026 0FCC     		ldmia	r4!, {r0, r1, r2, r3}
 352 0028 ACE80F00 		stmia	ip!, {r0, r1, r2, r3}
 353 002c 2368     		ldr	r3, [r4]
 354 002e CCF80030 		str	r3, [ip]
  28:System/mmu/mmu.c **** 
 355              		.loc 1 28 1 view .LVU119
 356 0032 7046     		mov	r0, lr
 357 0034 10BD     		pop	{r4, pc}
 358              	.L29:
 359 0036 00BF     		.align	2
 360              	.L28:
 361 0038 00000000 		.word	.LANCHOR1
 362 003c 00000000 		.word	.LANCHOR0
 363 0040 00000000 		.word	.LANCHOR2
 364              		.cfi_endproc
 365              	.LFE3:
 367              		.section	.text.MMU_Malloc,"ax",%progbits
 368              		.align	1
 369              		.global	MMU_Malloc
ARM GAS  /var/folders/lx/hc4sn_b53233_zkc9xbbl97r0000gp/T//ccyfhY7C.s 			page 12


 370              		.syntax unified
 371              		.thumb
 372              		.thumb_func
 373              		.fpu fpv5-d16
 375              	MMU_Malloc:
 376              	.LVL20:
 377              	.LFB5:
  64:System/mmu/mmu.c ****     MemBlock_TypeDef *PrvFreeBlock = NULL;
 378              		.loc 1 64 1 is_stmt 1 view -0
 379              		.cfi_startproc
 380              		@ args = 0, pretend = 0, frame = 0
 381              		@ frame_needed = 0, uses_anonymous_args = 0
  64:System/mmu/mmu.c ****     MemBlock_TypeDef *PrvFreeBlock = NULL;
 382              		.loc 1 64 1 is_stmt 0 view .LVU121
 383 0000 70B5     		push	{r4, r5, r6, lr}
 384              	.LCFI5:
 385              		.cfi_def_cfa_offset 16
 386              		.cfi_offset 4, -16
 387              		.cfi_offset 5, -12
 388              		.cfi_offset 6, -8
 389              		.cfi_offset 14, -4
 390 0002 0446     		mov	r4, r0
  65:System/mmu/mmu.c ****     MemBlock_TypeDef *NxtFreeBlock = NULL;
 391              		.loc 1 65 5 is_stmt 1 view .LVU122
 392              	.LVL21:
  66:System/mmu/mmu.c ****     MemBlock_TypeDef *Block_Tmp = NULL;
 393              		.loc 1 66 5 view .LVU123
  67:System/mmu/mmu.c ****     void *mem_addr = NULL;
 394              		.loc 1 67 5 view .LVU124
  68:System/mmu/mmu.c **** 
 395              		.loc 1 68 5 view .LVU125
  70:System/mmu/mmu.c **** 
 396              		.loc 1 70 5 view .LVU126
 397              		.syntax unified
 398              	@ 70 "System/mmu/mmu.c" 1
 399 0004 72B6     		cpsid i
 400              	@ 0 "" 2
  72:System/mmu/mmu.c ****     {
 401              		.loc 1 72 5 view .LVU127
  72:System/mmu/mmu.c ****     {
 402              		.loc 1 72 21 is_stmt 0 view .LVU128
 403              		.thumb
 404              		.syntax unified
 405 0006 2A4B     		ldr	r3, .L45
 406 0008 93F82030 		ldrb	r3, [r3, #32]	@ zero_extendqisi2
  72:System/mmu/mmu.c ****     {
 407              		.loc 1 72 8 view .LVU129
 408 000c 93B1     		cbz	r3, .L43
 409              	.LVL22:
 410              	.L31:
  78:System/mmu/mmu.c ****     {
 411              		.loc 1 78 5 is_stmt 1 view .LVU130
  78:System/mmu/mmu.c ****     {
 412              		.loc 1 78 8 is_stmt 0 view .LVU131
 413 000e 002C     		cmp	r4, #0
 414 0010 43D0     		beq	.L37
  80:System/mmu/mmu.c **** 
ARM GAS  /var/folders/lx/hc4sn_b53233_zkc9xbbl97r0000gp/T//ccyfhY7C.s 			page 13


 415              		.loc 1 80 9 is_stmt 1 view .LVU132
  80:System/mmu/mmu.c **** 
 416              		.loc 1 80 14 is_stmt 0 view .LVU133
 417 0012 0834     		adds	r4, r4, #8
 418 0014 A2B2     		uxth	r2, r4
 419              	.LVL23:
  83:System/mmu/mmu.c ****         {
 420              		.loc 1 83 9 is_stmt 1 view .LVU134
  83:System/mmu/mmu.c ****         {
 421              		.loc 1 83 12 is_stmt 0 view .LVU135
 422 0016 14F0030F 		tst	r4, #3
 423 001a 03D0     		beq	.L33
  86:System/mmu/mmu.c ****         }
 424              		.loc 1 86 13 is_stmt 1 view .LVU136
  86:System/mmu/mmu.c ****         }
 425              		.loc 1 86 18 is_stmt 0 view .LVU137
 426 001c 22F00302 		bic	r2, r2, #3
 427              	.LVL24:
  86:System/mmu/mmu.c ****         }
 428              		.loc 1 86 18 view .LVU138
 429 0020 0432     		adds	r2, r2, #4
 430 0022 92B2     		uxth	r2, r2
 431              	.LVL25:
 432              	.L33:
  89:System/mmu/mmu.c ****         {
 433              		.loc 1 89 9 is_stmt 1 view .LVU139
  89:System/mmu/mmu.c ****         {
 434              		.loc 1 89 18 is_stmt 0 view .LVU140
 435 0024 1546     		mov	r5, r2
  89:System/mmu/mmu.c ****         {
 436              		.loc 1 89 32 view .LVU141
 437 0026 224B     		ldr	r3, .L45
 438 0028 9B68     		ldr	r3, [r3, #8]
  89:System/mmu/mmu.c ****         {
 439              		.loc 1 89 12 view .LVU142
 440 002a 9A42     		cmp	r2, r3
 441 002c 39D8     		bhi	.L38
  92:System/mmu/mmu.c ****             Block_Tmp = MemStart.nxtFree;
 442              		.loc 1 92 13 is_stmt 1 view .LVU143
 443              	.LVL26:
  93:System/mmu/mmu.c **** 
 444              		.loc 1 93 13 view .LVU144
  93:System/mmu/mmu.c **** 
 445              		.loc 1 93 23 is_stmt 0 view .LVU145
 446 002e 2149     		ldr	r1, .L45+4
 447 0030 0C68     		ldr	r4, [r1]
 448              	.LVL27:
  95:System/mmu/mmu.c ****             {
 449              		.loc 1 95 13 is_stmt 1 view .LVU146
  95:System/mmu/mmu.c ****             {
 450              		.loc 1 95 19 is_stmt 0 view .LVU147
 451 0032 07E0     		b	.L35
 452              	.LVL28:
 453              	.L43:
  74:System/mmu/mmu.c ****         Mem_Monitor.FreeBlock = &MemStart;
 454              		.loc 1 74 9 is_stmt 1 view .LVU148
 455 0034 FFF7FEFF 		bl	MMU_Init
ARM GAS  /var/folders/lx/hc4sn_b53233_zkc9xbbl97r0000gp/T//ccyfhY7C.s 			page 14


 456              	.LVL29:
  75:System/mmu/mmu.c ****     }
 457              		.loc 1 75 9 view .LVU149
  75:System/mmu/mmu.c ****     }
 458              		.loc 1 75 31 is_stmt 0 view .LVU150
 459 0038 1D4B     		ldr	r3, .L45
 460 003a 1E4A     		ldr	r2, .L45+4
 461 003c 1A61     		str	r2, [r3, #16]
 462 003e E6E7     		b	.L31
 463              	.LVL30:
 464              	.L39:
  97:System/mmu/mmu.c ****                 Block_Tmp = Block_Tmp->nxtFree;
 465              		.loc 1 97 30 view .LVU151
 466 0040 2146     		mov	r1, r4
 467              	.LVL31:
  98:System/mmu/mmu.c ****             }
 468              		.loc 1 98 27 view .LVU152
 469 0042 1C46     		mov	r4, r3
 470              	.LVL32:
 471              	.L35:
  95:System/mmu/mmu.c ****             {
 472              		.loc 1 95 19 is_stmt 1 view .LVU153
  95:System/mmu/mmu.c ****             {
 473              		.loc 1 95 30 is_stmt 0 view .LVU154
 474 0044 A388     		ldrh	r3, [r4, #4]
  95:System/mmu/mmu.c ****             {
 475              		.loc 1 95 19 view .LVU155
 476 0046 9342     		cmp	r3, r2
 477 0048 02D2     		bcs	.L34
  95:System/mmu/mmu.c ****             {
 478              		.loc 1 95 58 discriminator 1 view .LVU156
 479 004a 2368     		ldr	r3, [r4]
  95:System/mmu/mmu.c ****             {
 480              		.loc 1 95 45 discriminator 1 view .LVU157
 481 004c 002B     		cmp	r3, #0
 482 004e F7D1     		bne	.L39
 483              	.L34:
 101:System/mmu/mmu.c ****             {
 484              		.loc 1 101 13 is_stmt 1 view .LVU158
 101:System/mmu/mmu.c ****             {
 485              		.loc 1 101 39 is_stmt 0 view .LVU159
 486 0050 04F07040 		and	r0, r4, #-268435456
 101:System/mmu/mmu.c ****             {
 487              		.loc 1 101 56 view .LVU160
 488 0054 184B     		ldr	r3, .L45+8
 101:System/mmu/mmu.c ****             {
 489              		.loc 1 101 16 view .LVU161
 490 0056 9842     		cmp	r0, r3
 491 0058 25D1     		bne	.L40
 101:System/mmu/mmu.c ****             {
 492              		.loc 1 101 90 discriminator 1 view .LVU162
 493 005a 184B     		ldr	r3, .L45+12
 494 005c 1B68     		ldr	r3, [r3]
 101:System/mmu/mmu.c ****             {
 495              		.loc 1 101 76 discriminator 1 view .LVU163
 496 005e A342     		cmp	r3, r4
 497 0060 23D0     		beq	.L41
ARM GAS  /var/folders/lx/hc4sn_b53233_zkc9xbbl97r0000gp/T//ccyfhY7C.s 			page 15


 103:System/mmu/mmu.c **** 
 498              		.loc 1 103 17 is_stmt 1 view .LVU164
 103:System/mmu/mmu.c **** 
 499              		.loc 1 103 28 is_stmt 0 view .LVU165
 500 0062 1348     		ldr	r0, .L45
 501 0064 8369     		ldr	r3, [r0, #24]
 103:System/mmu/mmu.c **** 
 502              		.loc 1 103 34 view .LVU166
 503 0066 0133     		adds	r3, r3, #1
 504 0068 8361     		str	r3, [r0, #24]
 105:System/mmu/mmu.c **** 
 505              		.loc 1 105 17 is_stmt 1 view .LVU167
 105:System/mmu/mmu.c **** 
 506              		.loc 1 105 61 is_stmt 0 view .LVU168
 507 006a 0E68     		ldr	r6, [r1]
 105:System/mmu/mmu.c **** 
 508              		.loc 1 105 26 view .LVU169
 509 006c 0836     		adds	r6, r6, #8
 510              	.LVL33:
 107:System/mmu/mmu.c **** 
 511              		.loc 1 107 17 is_stmt 1 view .LVU170
 107:System/mmu/mmu.c **** 
 512              		.loc 1 107 50 is_stmt 0 view .LVU171
 513 006e 2368     		ldr	r3, [r4]
 107:System/mmu/mmu.c **** 
 514              		.loc 1 107 39 view .LVU172
 515 0070 0B60     		str	r3, [r1]
 109:System/mmu/mmu.c ****                 {
 516              		.loc 1 109 17 is_stmt 1 view .LVU173
 109:System/mmu/mmu.c ****                 {
 517              		.loc 1 109 31 is_stmt 0 view .LVU174
 518 0072 A388     		ldrh	r3, [r4, #4]
 109:System/mmu/mmu.c ****                 {
 519              		.loc 1 109 38 view .LVU175
 520 0074 991A     		subs	r1, r3, r2
 521              	.LVL34:
 109:System/mmu/mmu.c ****                 {
 522              		.loc 1 109 20 view .LVU176
 523 0076 0829     		cmp	r1, #8
 524 0078 09DC     		bgt	.L44
 525              	.LVL35:
 526              	.L36:
 118:System/mmu/mmu.c ****                 Mem_Monitor.used_size += size;
 527              		.loc 1 118 17 is_stmt 1 view .LVU177
 118:System/mmu/mmu.c ****                 Mem_Monitor.used_size += size;
 528              		.loc 1 118 41 is_stmt 0 view .LVU178
 529 007a 0D4B     		ldr	r3, .L45
 530 007c 9A68     		ldr	r2, [r3, #8]
 531 007e 521B     		subs	r2, r2, r5
 532 0080 9A60     		str	r2, [r3, #8]
 119:System/mmu/mmu.c **** 
 533              		.loc 1 119 17 is_stmt 1 view .LVU179
 119:System/mmu/mmu.c **** 
 534              		.loc 1 119 39 is_stmt 0 view .LVU180
 535 0082 5A68     		ldr	r2, [r3, #4]
 536 0084 2A44     		add	r2, r2, r5
 537 0086 5A60     		str	r2, [r3, #4]
ARM GAS  /var/folders/lx/hc4sn_b53233_zkc9xbbl97r0000gp/T//ccyfhY7C.s 			page 16


 121:System/mmu/mmu.c ****             }
 538              		.loc 1 121 17 is_stmt 1 view .LVU181
 121:System/mmu/mmu.c ****             }
 539              		.loc 1 121 36 is_stmt 0 view .LVU182
 540 0088 0023     		movs	r3, #0
 541 008a 2360     		str	r3, [r4]
 542 008c 06E0     		b	.L32
 543              	.LVL36:
 544              	.L44:
 111:System/mmu/mmu.c ****                     NxtFreeBlock->size = Block_Tmp->size - size;
 545              		.loc 1 111 21 is_stmt 1 view .LVU183
 111:System/mmu/mmu.c ****                     NxtFreeBlock->size = Block_Tmp->size - size;
 546              		.loc 1 111 34 is_stmt 0 view .LVU184
 547 008e 6019     		adds	r0, r4, r5
 548              	.LVL37:
 112:System/mmu/mmu.c ****                     Block_Tmp->size = size;
 549              		.loc 1 112 21 is_stmt 1 view .LVU185
 112:System/mmu/mmu.c ****                     Block_Tmp->size = size;
 550              		.loc 1 112 40 is_stmt 0 view .LVU186
 551 0090 8180     		strh	r1, [r0, #4]	@ movhi
 113:System/mmu/mmu.c **** 
 552              		.loc 1 113 21 is_stmt 1 view .LVU187
 113:System/mmu/mmu.c **** 
 553              		.loc 1 113 37 is_stmt 0 view .LVU188
 554 0092 A280     		strh	r2, [r4, #4]	@ movhi
 115:System/mmu/mmu.c ****                 }
 555              		.loc 1 115 21 is_stmt 1 view .LVU189
 556 0094 FFF7FEFF 		bl	MMU_InsertFreeBlock
 557              	.LVL38:
 115:System/mmu/mmu.c ****                 }
 558              		.loc 1 115 21 is_stmt 0 view .LVU190
 559 0098 EFE7     		b	.L36
 560              	.LVL39:
 561              	.L37:
  68:System/mmu/mmu.c **** 
 562              		.loc 1 68 11 view .LVU191
 563 009a 0026     		movs	r6, #0
 564              	.LVL40:
 565              	.L32:
 126:System/mmu/mmu.c **** 
 566              		.loc 1 126 5 is_stmt 1 view .LVU192
 567              		.syntax unified
 568              	@ 126 "System/mmu/mmu.c" 1
 569 009c 62B6     		cpsie i
 570              	@ 0 "" 2
 128:System/mmu/mmu.c **** }
 571              		.loc 1 128 5 view .LVU193
 129:System/mmu/mmu.c **** 
 572              		.loc 1 129 1 is_stmt 0 view .LVU194
 573              		.thumb
 574              		.syntax unified
 575 009e 3046     		mov	r0, r6
 576 00a0 70BD     		pop	{r4, r5, r6, pc}
 577              	.LVL41:
 578              	.L38:
  68:System/mmu/mmu.c **** 
 579              		.loc 1 68 11 view .LVU195
ARM GAS  /var/folders/lx/hc4sn_b53233_zkc9xbbl97r0000gp/T//ccyfhY7C.s 			page 17


 580 00a2 0026     		movs	r6, #0
 581 00a4 FAE7     		b	.L32
 582              	.LVL42:
 583              	.L40:
  68:System/mmu/mmu.c **** 
 584              		.loc 1 68 11 view .LVU196
 585 00a6 0026     		movs	r6, #0
 586 00a8 F8E7     		b	.L32
 587              	.L41:
 588 00aa 0026     		movs	r6, #0
 589 00ac F6E7     		b	.L32
 590              	.L46:
 591 00ae 00BF     		.align	2
 592              	.L45:
 593 00b0 00000000 		.word	.LANCHOR0
 594 00b4 00000000 		.word	.LANCHOR1
 595 00b8 00000000 		.word	Mem_Buff
 596 00bc 00000000 		.word	.LANCHOR2
 597              		.cfi_endproc
 598              	.LFE5:
 600              		.section	.text.MMU_Free,"ax",%progbits
 601              		.align	1
 602              		.global	MMU_Free
 603              		.syntax unified
 604              		.thumb
 605              		.thumb_func
 606              		.fpu fpv5-d16
 608              	MMU_Free:
 609              	.LVL43:
 610              	.LFB6:
 132:System/mmu/mmu.c ****     uint8_t *puc = (uint8_t *)ptr;
 611              		.loc 1 132 1 is_stmt 1 view -0
 612              		.cfi_startproc
 613              		@ args = 0, pretend = 0, frame = 0
 614              		@ frame_needed = 0, uses_anonymous_args = 0
 133:System/mmu/mmu.c ****     MemBlock_TypeDef *pxLink;
 615              		.loc 1 133 5 view .LVU198
 134:System/mmu/mmu.c **** 
 616              		.loc 1 134 5 view .LVU199
 136:System/mmu/mmu.c ****     {
 617              		.loc 1 136 5 view .LVU200
 136:System/mmu/mmu.c ****     {
 618              		.loc 1 136 8 is_stmt 0 view .LVU201
 619 0000 D8B1     		cbz	r0, .L50
 132:System/mmu/mmu.c ****     uint8_t *puc = (uint8_t *)ptr;
 620              		.loc 1 132 1 view .LVU202
 621 0002 08B5     		push	{r3, lr}
 622              	.LCFI6:
 623              		.cfi_def_cfa_offset 8
 624              		.cfi_offset 3, -8
 625              		.cfi_offset 14, -4
 626 0004 0246     		mov	r2, r0
 138:System/mmu/mmu.c **** 
 627              		.loc 1 138 9 is_stmt 1 view .LVU203
 138:System/mmu/mmu.c **** 
 628              		.loc 1 138 20 is_stmt 0 view .LVU204
 629 0006 0D49     		ldr	r1, .L54
ARM GAS  /var/folders/lx/hc4sn_b53233_zkc9xbbl97r0000gp/T//ccyfhY7C.s 			page 18


 630 0008 CB69     		ldr	r3, [r1, #28]
 138:System/mmu/mmu.c **** 
 631              		.loc 1 138 26 view .LVU205
 632 000a 0133     		adds	r3, r3, #1
 633 000c CB61     		str	r3, [r1, #28]
 142:System/mmu/mmu.c **** 
 634              		.loc 1 142 9 is_stmt 1 view .LVU206
 142:System/mmu/mmu.c **** 
 635              		.loc 1 142 13 is_stmt 0 view .LVU207
 636 000e 0838     		subs	r0, r0, #8
 637              	.LVL44:
 145:System/mmu/mmu.c **** 
 638              		.loc 1 145 9 is_stmt 1 view .LVU208
 147:System/mmu/mmu.c ****         {
 639              		.loc 1 147 9 view .LVU209
 147:System/mmu/mmu.c ****         {
 640              		.loc 1 147 19 is_stmt 0 view .LVU210
 641 0010 52F8083C 		ldr	r3, [r2, #-8]
 147:System/mmu/mmu.c ****         {
 642              		.loc 1 147 12 view .LVU211
 643 0014 03B1     		cbz	r3, .L53
 644              	.LVL45:
 645              	.L47:
 163:System/mmu/mmu.c **** 
 646              		.loc 1 163 1 view .LVU212
 647 0016 08BD     		pop	{r3, pc}
 648              	.LVL46:
 649              	.L53:
 149:System/mmu/mmu.c **** 
 650              		.loc 1 149 13 is_stmt 1 view .LVU213
 651              		.syntax unified
 652              	@ 149 "System/mmu/mmu.c" 1
 653 0018 72B6     		cpsid i
 654              	@ 0 "" 2
 152:System/mmu/mmu.c ****             Mem_Monitor.remain_size += pxLink->size;
 655              		.loc 1 152 13 view .LVU214
 152:System/mmu/mmu.c ****             Mem_Monitor.remain_size += pxLink->size;
 656              		.loc 1 152 44 is_stmt 0 view .LVU215
 657              		.thumb
 658              		.syntax unified
 659 001a 32F804CC 		ldrh	ip, [r2, #-4]
 152:System/mmu/mmu.c ****             Mem_Monitor.remain_size += pxLink->size;
 660              		.loc 1 152 35 view .LVU216
 661 001e 0B46     		mov	r3, r1
 662 0020 4968     		ldr	r1, [r1, #4]
 663 0022 A1EB0C01 		sub	r1, r1, ip
 664 0026 5960     		str	r1, [r3, #4]
 153:System/mmu/mmu.c **** 
 665              		.loc 1 153 13 is_stmt 1 view .LVU217
 153:System/mmu/mmu.c **** 
 666              		.loc 1 153 46 is_stmt 0 view .LVU218
 667 0028 32F8041C 		ldrh	r1, [r2, #-4]
 153:System/mmu/mmu.c **** 
 668              		.loc 1 153 37 view .LVU219
 669 002c 9A68     		ldr	r2, [r3, #8]
 670              	.LVL47:
 153:System/mmu/mmu.c **** 
ARM GAS  /var/folders/lx/hc4sn_b53233_zkc9xbbl97r0000gp/T//ccyfhY7C.s 			page 19


 671              		.loc 1 153 37 view .LVU220
 672 002e 0A44     		add	r2, r2, r1
 673 0030 9A60     		str	r2, [r3, #8]
 156:System/mmu/mmu.c **** 
 674              		.loc 1 156 13 is_stmt 1 view .LVU221
 675 0032 FFF7FEFF 		bl	MMU_InsertFreeBlock
 676              	.LVL48:
 158:System/mmu/mmu.c ****         }
 677              		.loc 1 158 13 view .LVU222
 678              		.syntax unified
 679              	@ 158 "System/mmu/mmu.c" 1
 680 0036 62B6     		cpsie i
 681              	@ 0 "" 2
 162:System/mmu/mmu.c **** }
 682              		.loc 1 162 5 view .LVU223
 683              	.LVL49:
 163:System/mmu/mmu.c **** 
 684              		.loc 1 163 1 is_stmt 0 view .LVU224
 685              		.thumb
 686              		.syntax unified
 687 0038 EDE7     		b	.L47
 688              	.LVL50:
 689              	.L50:
 690              	.LCFI7:
 691              		.cfi_def_cfa_offset 0
 692              		.cfi_restore 3
 693              		.cfi_restore 14
 163:System/mmu/mmu.c **** 
 694              		.loc 1 163 1 view .LVU225
 695 003a 7047     		bx	lr
 696              	.L55:
 697              		.align	2
 698              	.L54:
 699 003c 00000000 		.word	.LANCHOR0
 700              		.cfi_endproc
 701              	.LFE6:
 703              		.global	MemEnd
 704              		.global	MemStart
 705              		.global	Mem_Monitor
 706              		.global	Mem_Buff
 707              		.section	.bss.MemEnd,"aw",%nobits
 708              		.align	2
 709              		.set	.LANCHOR2,. + 0
 712              	MemEnd:
 713 0000 00000000 		.space	4
 714              		.section	.bss.MemStart,"aw",%nobits
 715              		.align	2
 716              		.set	.LANCHOR1,. + 0
 719              	MemStart:
 720 0000 00000000 		.space	8
 720      00000000 
 721              		.section	.bss.Mem_Monitor,"aw",%nobits
 722              		.align	2
 723              		.set	.LANCHOR0,. + 0
 726              	Mem_Monitor:
 727 0000 00000000 		.space	36
 727      00000000 
ARM GAS  /var/folders/lx/hc4sn_b53233_zkc9xbbl97r0000gp/T//ccyfhY7C.s 			page 20


 727      00000000 
 727      00000000 
 727      00000000 
 728              		.section	.ccmram,"aw"
 729              		.align	2
 732              	Mem_Buff:
 733 0000 00000000 		.space	65536
 733      00000000 
 733      00000000 
 733      00000000 
 733      00000000 
 734              		.text
 735              	.Letext0:
 736              		.file 2 "/usr/local/arm-none-eabi-gcc/gcc-arm-none-eabi-10-2020-q4-major/arm-none-eabi/include/mac
 737              		.file 3 "/usr/local/arm-none-eabi-gcc/gcc-arm-none-eabi-10-2020-q4-major/arm-none-eabi/include/sys
 738              		.file 4 "System/mmu/mmu.h"
ARM GAS  /var/folders/lx/hc4sn_b53233_zkc9xbbl97r0000gp/T//ccyfhY7C.s 			page 21

