ARM GAS  /var/folders/lx/hc4sn_b53233_zkc9xbbl97r0000gp/T//ccuWtJ5E.s 			page 1


   1              		.cpu cortex-m7
   2              		.eabi_attribute 28, 1
   3              		.eabi_attribute 20, 1
   4              		.eabi_attribute 21, 1
   5              		.eabi_attribute 23, 3
   6              		.eabi_attribute 24, 1
   7              		.eabi_attribute 25, 1
   8              		.eabi_attribute 26, 1
   9              		.eabi_attribute 30, 1
  10              		.eabi_attribute 34, 1
  11              		.eabi_attribute 18, 4
  12              		.file	"queue.c"
  13              		.text
  14              	.Ltext0:
  15              		.cfi_sections	.debug_frame
  16              		.section	.text.Queue_UpdateState,"ax",%progbits
  17              		.align	1
  18              		.arch armv7e-m
  19              		.syntax unified
  20              		.thumb
  21              		.thumb_func
  22              		.fpu fpv5-d16
  24              	Queue_UpdateState:
  25              	.LVL0:
  26              	.LFB5:
  27              		.file 1 "DataStructure/queue.c"
   1:DataStructure/queue.c **** #include "queue.h"
   2:DataStructure/queue.c **** #include <stdio.h>
   3:DataStructure/queue.c **** #include <string.h>
   4:DataStructure/queue.c **** #include <stdlib.h>
   5:DataStructure/queue.c **** #include <stddef.h>
   6:DataStructure/queue.c **** #include <stdio.h>
   7:DataStructure/queue.c **** #include "mmu.h"
   8:DataStructure/queue.c **** 
   9:DataStructure/queue.c **** #define Queue_Mem_Malloc(x) MMU_Malloc(x)
  10:DataStructure/queue.c **** #define Queue_Mem_Free(x) MMU_Free(x)
  11:DataStructure/queue.c **** 
  12:DataStructure/queue.c **** /* internal function */
  13:DataStructure/queue.c **** static Queue_state Queue_UpdateState(QueueObj_TypeDef *obj);
  14:DataStructure/queue.c **** 
  15:DataStructure/queue.c **** /* external function */
  16:DataStructure/queue.c **** static bool Queue_Create(QueueObj_TypeDef *obj, char *name, uint16_t len);
  17:DataStructure/queue.c **** static bool Queue_Reset(QueueObj_TypeDef *obj);
  18:DataStructure/queue.c **** static Queue_state Queue_GetState(QueueObj_TypeDef obj);
  19:DataStructure/queue.c **** static Queue_state Queue_Push(QueueObj_TypeDef *obj, uint8_t *data, uint16_t size);
  20:DataStructure/queue.c **** static Queue_state Queue_Pop(QueueObj_TypeDef *obj, uint8_t *data, uint16_t size);
  21:DataStructure/queue.c **** static bool Queue_Check(QueueObj_TypeDef *obj, uint16_t index, uint8_t *data, uint16_t size);
  22:DataStructure/queue.c **** static uint16_t Queue_GetSize(QueueObj_TypeDef obj);
  23:DataStructure/queue.c **** 
  24:DataStructure/queue.c **** /* extern virable */
  25:DataStructure/queue.c **** Queue_TypeDef Queue = {
  26:DataStructure/queue.c ****     .create = Queue_Create,
  27:DataStructure/queue.c ****     .reset = Queue_Reset,
  28:DataStructure/queue.c ****     .push = Queue_Push,
  29:DataStructure/queue.c ****     .pop = Queue_Pop,
  30:DataStructure/queue.c ****     .check = Queue_Check,
  31:DataStructure/queue.c ****     .state = Queue_GetState,
ARM GAS  /var/folders/lx/hc4sn_b53233_zkc9xbbl97r0000gp/T//ccuWtJ5E.s 			page 2


  32:DataStructure/queue.c ****     .size = Queue_GetSize,
  33:DataStructure/queue.c **** };
  34:DataStructure/queue.c **** 
  35:DataStructure/queue.c **** static bool Queue_Create(QueueObj_TypeDef *obj, char *name, uint16_t len)
  36:DataStructure/queue.c **** {
  37:DataStructure/queue.c ****     if ((obj == NULL) || (len == 0))
  38:DataStructure/queue.c ****         return false;
  39:DataStructure/queue.c **** 
  40:DataStructure/queue.c ****     obj->name = name;
  41:DataStructure/queue.c ****     obj->end_pos = 0;
  42:DataStructure/queue.c ****     obj->head_pos = 0;
  43:DataStructure/queue.c ****     obj->size = 0;
  44:DataStructure/queue.c ****     obj->lenth = len;
  45:DataStructure/queue.c **** 
  46:DataStructure/queue.c ****     obj->buff = (uint8_t *)Queue_Mem_Malloc(len);
  47:DataStructure/queue.c ****     memset(obj->buff, NULL, obj->lenth);
  48:DataStructure/queue.c **** 
  49:DataStructure/queue.c ****     if (obj->buff == NULL)
  50:DataStructure/queue.c ****         return false;
  51:DataStructure/queue.c **** 
  52:DataStructure/queue.c ****     obj->state = Queue_empty;
  53:DataStructure/queue.c **** 
  54:DataStructure/queue.c ****     return true;
  55:DataStructure/queue.c **** }
  56:DataStructure/queue.c **** 
  57:DataStructure/queue.c **** static bool Queue_Reset(QueueObj_TypeDef *obj)
  58:DataStructure/queue.c **** {
  59:DataStructure/queue.c ****     if ((obj == NULL) || (obj->buff == NULL) || (obj->lenth == 0))
  60:DataStructure/queue.c ****         return false;
  61:DataStructure/queue.c **** 
  62:DataStructure/queue.c ****     obj->end_pos = 0;
  63:DataStructure/queue.c ****     obj->head_pos = 0;
  64:DataStructure/queue.c ****     obj->size = 0;
  65:DataStructure/queue.c **** 
  66:DataStructure/queue.c ****     obj->state = Queue_empty;
  67:DataStructure/queue.c ****     memset(obj->buff, NULL, obj->lenth);
  68:DataStructure/queue.c **** 
  69:DataStructure/queue.c ****     return true;
  70:DataStructure/queue.c **** }
  71:DataStructure/queue.c **** 
  72:DataStructure/queue.c **** static Queue_state Queue_UpdateState(QueueObj_TypeDef *obj)
  73:DataStructure/queue.c **** {
  28              		.loc 1 73 1 view -0
  29              		.cfi_startproc
  30              		@ args = 0, pretend = 0, frame = 0
  31              		@ frame_needed = 0, uses_anonymous_args = 0
  32              		@ link register save eliminated.
  74:DataStructure/queue.c ****     if ((obj->head_pos == obj->end_pos) || (obj->size == 0))
  33              		.loc 1 74 5 view .LVU1
  34              		.loc 1 74 13 is_stmt 0 view .LVU2
  35 0000 B0F80920 		ldrh	r2, [r0, #9]	@ unaligned
  36              		.loc 1 74 30 view .LVU3
  37 0004 B0F80B30 		ldrh	r3, [r0, #11]	@ unaligned
  38              		.loc 1 74 8 view .LVU4
  39 0008 9A42     		cmp	r2, r3
  40 000a 0DD0     		beq	.L2
  41              		.loc 1 74 48 discriminator 1 view .LVU5
ARM GAS  /var/folders/lx/hc4sn_b53233_zkc9xbbl97r0000gp/T//ccuWtJ5E.s 			page 3


  42 000c C188     		ldrh	r1, [r0, #6]	@ unaligned
  43              		.loc 1 74 41 discriminator 1 view .LVU6
  44 000e 59B1     		cbz	r1, .L2
  75:DataStructure/queue.c ****     {
  76:DataStructure/queue.c ****         obj->state = Queue_empty;
  77:DataStructure/queue.c ****         return Queue_empty;
  78:DataStructure/queue.c ****     }
  79:DataStructure/queue.c **** 
  80:DataStructure/queue.c ****     if (((obj->end_pos + 1) % obj->lenth) == obj->head_pos)
  45              		.loc 1 80 5 is_stmt 1 view .LVU7
  46              		.loc 1 80 24 is_stmt 0 view .LVU8
  47 0010 0133     		adds	r3, r3, #1
  48              		.loc 1 80 34 view .LVU9
  49 0012 8188     		ldrh	r1, [r0, #4]	@ unaligned
  50              		.loc 1 80 29 view .LVU10
  51 0014 93FBF1FC 		sdiv	ip, r3, r1
  52 0018 01FB1C33 		mls	r3, r1, ip, r3
  53              		.loc 1 80 8 view .LVU11
  54 001c 9342     		cmp	r3, r2
  55 001e 07D0     		beq	.L6
  81:DataStructure/queue.c ****     {
  82:DataStructure/queue.c ****         obj->state = Queue_full;
  83:DataStructure/queue.c ****         return Queue_full;
  84:DataStructure/queue.c ****     }
  85:DataStructure/queue.c **** 
  86:DataStructure/queue.c ****     obj->state = Queue_ok;
  56              		.loc 1 86 5 is_stmt 1 view .LVU12
  57              		.loc 1 86 16 is_stmt 0 view .LVU13
  58 0020 0023     		movs	r3, #0
  59 0022 0372     		strb	r3, [r0, #8]
  87:DataStructure/queue.c ****     return obj->state;
  60              		.loc 1 87 5 is_stmt 1 view .LVU14
  61              		.loc 1 87 15 is_stmt 0 view .LVU15
  62 0024 1846     		mov	r0, r3
  63              	.LVL1:
  88:DataStructure/queue.c **** }
  64              		.loc 1 88 1 view .LVU16
  65 0026 7047     		bx	lr
  66              	.LVL2:
  67              	.L2:
  76:DataStructure/queue.c ****         return Queue_empty;
  68              		.loc 1 76 9 is_stmt 1 view .LVU17
  76:DataStructure/queue.c ****         return Queue_empty;
  69              		.loc 1 76 20 is_stmt 0 view .LVU18
  70 0028 0323     		movs	r3, #3
  71 002a 0372     		strb	r3, [r0, #8]
  77:DataStructure/queue.c ****     }
  72              		.loc 1 77 9 is_stmt 1 view .LVU19
  77:DataStructure/queue.c ****     }
  73              		.loc 1 77 16 is_stmt 0 view .LVU20
  74 002c 1846     		mov	r0, r3
  75              	.LVL3:
  77:DataStructure/queue.c ****     }
  76              		.loc 1 77 16 view .LVU21
  77 002e 7047     		bx	lr
  78              	.LVL4:
  79              	.L6:
ARM GAS  /var/folders/lx/hc4sn_b53233_zkc9xbbl97r0000gp/T//ccuWtJ5E.s 			page 4


  82:DataStructure/queue.c ****         return Queue_full;
  80              		.loc 1 82 9 is_stmt 1 view .LVU22
  82:DataStructure/queue.c ****         return Queue_full;
  81              		.loc 1 82 20 is_stmt 0 view .LVU23
  82 0030 0423     		movs	r3, #4
  83 0032 0372     		strb	r3, [r0, #8]
  83:DataStructure/queue.c ****     }
  84              		.loc 1 83 9 is_stmt 1 view .LVU24
  83:DataStructure/queue.c ****     }
  85              		.loc 1 83 16 is_stmt 0 view .LVU25
  86 0034 1846     		mov	r0, r3
  87              	.LVL5:
  83:DataStructure/queue.c ****     }
  88              		.loc 1 83 16 view .LVU26
  89 0036 7047     		bx	lr
  90              		.cfi_endproc
  91              	.LFE5:
  93              		.section	.text.Queue_Push,"ax",%progbits
  94              		.align	1
  95              		.syntax unified
  96              		.thumb
  97              		.thumb_func
  98              		.fpu fpv5-d16
 100              	Queue_Push:
 101              	.LVL6:
 102              	.LFB6:
  89:DataStructure/queue.c **** 
  90:DataStructure/queue.c **** static Queue_state Queue_Push(QueueObj_TypeDef *obj, uint8_t *data, uint16_t size)
  91:DataStructure/queue.c **** {
 103              		.loc 1 91 1 is_stmt 1 view -0
 104              		.cfi_startproc
 105              		@ args = 0, pretend = 0, frame = 0
 106              		@ frame_needed = 0, uses_anonymous_args = 0
  92:DataStructure/queue.c ****     if ((obj == NULL) || (obj->lenth == 0))
 107              		.loc 1 92 5 view .LVU28
 108              		.loc 1 92 8 is_stmt 0 view .LVU29
 109 0000 88B3     		cbz	r0, .L12
  91:DataStructure/queue.c ****     if ((obj == NULL) || (obj->lenth == 0))
 110              		.loc 1 91 1 discriminator 1 view .LVU30
 111 0002 F8B5     		push	{r3, r4, r5, r6, r7, lr}
 112              	.LCFI0:
 113              		.cfi_def_cfa_offset 24
 114              		.cfi_offset 3, -24
 115              		.cfi_offset 4, -20
 116              		.cfi_offset 5, -16
 117              		.cfi_offset 6, -12
 118              		.cfi_offset 7, -8
 119              		.cfi_offset 14, -4
 120 0004 0F46     		mov	r7, r1
 121 0006 1646     		mov	r6, r2
 122 0008 0446     		mov	r4, r0
 123              		.loc 1 92 30 discriminator 1 view .LVU31
 124 000a 8388     		ldrh	r3, [r0, #4]	@ unaligned
 125              		.loc 1 92 23 discriminator 1 view .LVU32
 126 000c 6BB3     		cbz	r3, .L13
  93:DataStructure/queue.c ****         return Queue_obj_error;
  94:DataStructure/queue.c **** 
ARM GAS  /var/folders/lx/hc4sn_b53233_zkc9xbbl97r0000gp/T//ccuWtJ5E.s 			page 5


  95:DataStructure/queue.c ****     if ((obj->state == Queue_ok) || (obj->state == Queue_empty))
 127              		.loc 1 95 5 is_stmt 1 view .LVU33
 128              		.loc 1 95 13 is_stmt 0 view .LVU34
 129 000e 027A     		ldrb	r2, [r0, #8]	@ zero_extendqisi2
 130              	.LVL7:
 131              		.loc 1 95 8 view .LVU35
 132 0010 032A     		cmp	r2, #3
 133 0012 18BF     		it	ne
 134 0014 002A     		cmpne	r2, #0
 135 0016 24D1     		bne	.L9
  96:DataStructure/queue.c ****     {
  97:DataStructure/queue.c ****         if (size <= (obj->lenth - obj->size))
 136              		.loc 1 97 9 is_stmt 1 view .LVU36
 137              		.loc 1 97 38 is_stmt 0 view .LVU37
 138 0018 C288     		ldrh	r2, [r0, #6]	@ unaligned
 139              		.loc 1 97 33 view .LVU38
 140 001a 9B1A     		subs	r3, r3, r2
 141              		.loc 1 97 12 view .LVU39
 142 001c 9E42     		cmp	r6, r3
 143 001e 01DC     		bgt	.L19
 144              	.LBB2:
  98:DataStructure/queue.c ****         {
  99:DataStructure/queue.c ****             for (uint16_t i = 0; i < size; i++)
 145              		.loc 1 99 27 view .LVU40
 146 0020 0025     		movs	r5, #0
 147 0022 1CE0     		b	.L10
 148              	.L19:
 149              	.LBE2:
 100:DataStructure/queue.c ****             {
 101:DataStructure/queue.c ****                 obj->end_pos %= obj->lenth;
 102:DataStructure/queue.c ****                 obj->buff[obj->end_pos] = data[i];
 103:DataStructure/queue.c ****                 obj->end_pos++;
 104:DataStructure/queue.c **** 
 105:DataStructure/queue.c ****                 obj->size++;
 106:DataStructure/queue.c **** 
 107:DataStructure/queue.c ****                 Queue_UpdateState(obj);
 108:DataStructure/queue.c ****             }
 109:DataStructure/queue.c ****         }
 110:DataStructure/queue.c ****         else
 111:DataStructure/queue.c ****             return Queue_overflow_w;
 150              		.loc 1 111 20 view .LVU41
 151 0024 0120     		movs	r0, #1
 152              	.LVL8:
 153              		.loc 1 111 20 view .LVU42
 154 0026 1DE0     		b	.L8
 155              	.LVL9:
 156              	.L11:
 157              	.LBB3:
 101:DataStructure/queue.c ****                 obj->buff[obj->end_pos] = data[i];
 158              		.loc 1 101 17 is_stmt 1 discriminator 3 view .LVU43
 101:DataStructure/queue.c ****                 obj->buff[obj->end_pos] = data[i];
 159              		.loc 1 101 36 is_stmt 0 discriminator 3 view .LVU44
 160 0028 A288     		ldrh	r2, [r4, #4]	@ unaligned
 101:DataStructure/queue.c ****                 obj->buff[obj->end_pos] = data[i];
 161              		.loc 1 101 30 discriminator 3 view .LVU45
 162 002a B4F80B30 		ldrh	r3, [r4, #11]	@ unaligned
 163 002e B3FBF2F1 		udiv	r1, r3, r2
ARM GAS  /var/folders/lx/hc4sn_b53233_zkc9xbbl97r0000gp/T//ccuWtJ5E.s 			page 6


 164 0032 02FB1133 		mls	r3, r2, r1, r3
 165 0036 9AB2     		uxth	r2, r3
 166 0038 A4F80B30 		strh	r3, [r4, #11]	@ unaligned
 102:DataStructure/queue.c ****                 obj->end_pos++;
 167              		.loc 1 102 17 is_stmt 1 discriminator 3 view .LVU46
 102:DataStructure/queue.c ****                 obj->end_pos++;
 168              		.loc 1 102 20 is_stmt 0 discriminator 3 view .LVU47
 169 003c D4F80D30 		ldr	r3, [r4, #13]	@ unaligned
 102:DataStructure/queue.c ****                 obj->end_pos++;
 170              		.loc 1 102 47 discriminator 3 view .LVU48
 171 0040 795D     		ldrb	r1, [r7, r5]	@ zero_extendqisi2
 102:DataStructure/queue.c ****                 obj->end_pos++;
 172              		.loc 1 102 41 discriminator 3 view .LVU49
 173 0042 9954     		strb	r1, [r3, r2]
 103:DataStructure/queue.c **** 
 174              		.loc 1 103 17 is_stmt 1 discriminator 3 view .LVU50
 103:DataStructure/queue.c **** 
 175              		.loc 1 103 20 is_stmt 0 discriminator 3 view .LVU51
 176 0044 B4F80B30 		ldrh	r3, [r4, #11]	@ unaligned
 103:DataStructure/queue.c **** 
 177              		.loc 1 103 29 discriminator 3 view .LVU52
 178 0048 0133     		adds	r3, r3, #1
 179 004a A4F80B30 		strh	r3, [r4, #11]	@ unaligned
 105:DataStructure/queue.c **** 
 180              		.loc 1 105 17 is_stmt 1 discriminator 3 view .LVU53
 105:DataStructure/queue.c **** 
 181              		.loc 1 105 20 is_stmt 0 discriminator 3 view .LVU54
 182 004e E388     		ldrh	r3, [r4, #6]	@ unaligned
 105:DataStructure/queue.c **** 
 183              		.loc 1 105 26 discriminator 3 view .LVU55
 184 0050 0133     		adds	r3, r3, #1
 185 0052 E380     		strh	r3, [r4, #6]	@ unaligned
 107:DataStructure/queue.c ****             }
 186              		.loc 1 107 17 is_stmt 1 discriminator 3 view .LVU56
 187 0054 2046     		mov	r0, r4
 188 0056 FFF7FEFF 		bl	Queue_UpdateState
 189              	.LVL10:
  99:DataStructure/queue.c ****             {
 190              		.loc 1 99 44 discriminator 3 view .LVU57
  99:DataStructure/queue.c ****             {
 191              		.loc 1 99 45 is_stmt 0 discriminator 3 view .LVU58
 192 005a 0135     		adds	r5, r5, #1
 193              	.LVL11:
  99:DataStructure/queue.c ****             {
 194              		.loc 1 99 45 discriminator 3 view .LVU59
 195 005c ADB2     		uxth	r5, r5
 196              	.LVL12:
 197              	.L10:
  99:DataStructure/queue.c ****             {
 198              		.loc 1 99 34 is_stmt 1 discriminator 1 view .LVU60
  99:DataStructure/queue.c ****             {
 199              		.loc 1 99 13 is_stmt 0 discriminator 1 view .LVU61
 200 005e B542     		cmp	r5, r6
 201 0060 E2D3     		bcc	.L11
 202              	.LVL13:
 203              	.L9:
  99:DataStructure/queue.c ****             {
ARM GAS  /var/folders/lx/hc4sn_b53233_zkc9xbbl97r0000gp/T//ccuWtJ5E.s 			page 7


 204              		.loc 1 99 13 discriminator 1 view .LVU62
 205              	.LBE3:
 112:DataStructure/queue.c ****     }
 113:DataStructure/queue.c **** 
 114:DataStructure/queue.c ****     return obj->state;
 206              		.loc 1 114 5 is_stmt 1 view .LVU63
 207              		.loc 1 114 15 is_stmt 0 view .LVU64
 208 0062 207A     		ldrb	r0, [r4, #8]	@ zero_extendqisi2
 209              	.L8:
 115:DataStructure/queue.c **** }
 210              		.loc 1 115 1 view .LVU65
 211 0064 F8BD     		pop	{r3, r4, r5, r6, r7, pc}
 212              	.LVL14:
 213              	.L12:
 214              	.LCFI1:
 215              		.cfi_def_cfa_offset 0
 216              		.cfi_restore 3
 217              		.cfi_restore 4
 218              		.cfi_restore 5
 219              		.cfi_restore 6
 220              		.cfi_restore 7
 221              		.cfi_restore 14
  93:DataStructure/queue.c **** 
 222              		.loc 1 93 16 view .LVU66
 223 0066 0520     		movs	r0, #5
 224              	.LVL15:
 225              		.loc 1 115 1 view .LVU67
 226 0068 7047     		bx	lr
 227              	.LVL16:
 228              	.L13:
 229              	.LCFI2:
 230              		.cfi_def_cfa_offset 24
 231              		.cfi_offset 3, -24
 232              		.cfi_offset 4, -20
 233              		.cfi_offset 5, -16
 234              		.cfi_offset 6, -12
 235              		.cfi_offset 7, -8
 236              		.cfi_offset 14, -4
  93:DataStructure/queue.c **** 
 237              		.loc 1 93 16 view .LVU68
 238 006a 0520     		movs	r0, #5
 239              	.LVL17:
  93:DataStructure/queue.c **** 
 240              		.loc 1 93 16 view .LVU69
 241 006c FAE7     		b	.L8
 242              		.cfi_endproc
 243              	.LFE6:
 245              		.section	.text.Queue_Pop,"ax",%progbits
 246              		.align	1
 247              		.syntax unified
 248              		.thumb
 249              		.thumb_func
 250              		.fpu fpv5-d16
 252              	Queue_Pop:
 253              	.LVL18:
 254              	.LFB7:
 116:DataStructure/queue.c **** 
ARM GAS  /var/folders/lx/hc4sn_b53233_zkc9xbbl97r0000gp/T//ccuWtJ5E.s 			page 8


 117:DataStructure/queue.c **** static Queue_state Queue_Pop(QueueObj_TypeDef *obj, uint8_t *data, uint16_t size)
 118:DataStructure/queue.c **** {
 255              		.loc 1 118 1 is_stmt 1 view -0
 256              		.cfi_startproc
 257              		@ args = 0, pretend = 0, frame = 0
 258              		@ frame_needed = 0, uses_anonymous_args = 0
 119:DataStructure/queue.c ****     if ((obj == NULL) || (obj->lenth == 0))
 259              		.loc 1 119 5 view .LVU71
 260              		.loc 1 119 8 is_stmt 0 view .LVU72
 261 0000 B0B3     		cbz	r0, .L25
 118:DataStructure/queue.c ****     if ((obj == NULL) || (obj->lenth == 0))
 262              		.loc 1 118 1 discriminator 1 view .LVU73
 263 0002 F8B5     		push	{r3, r4, r5, r6, r7, lr}
 264              	.LCFI3:
 265              		.cfi_def_cfa_offset 24
 266              		.cfi_offset 3, -24
 267              		.cfi_offset 4, -20
 268              		.cfi_offset 5, -16
 269              		.cfi_offset 6, -12
 270              		.cfi_offset 7, -8
 271              		.cfi_offset 14, -4
 272 0004 0F46     		mov	r7, r1
 273 0006 1646     		mov	r6, r2
 274 0008 0446     		mov	r4, r0
 275              		.loc 1 119 30 discriminator 1 view .LVU74
 276 000a 8388     		ldrh	r3, [r0, #4]	@ unaligned
 277              		.loc 1 119 23 discriminator 1 view .LVU75
 278 000c 93B3     		cbz	r3, .L26
 120:DataStructure/queue.c ****         return Queue_obj_error;
 121:DataStructure/queue.c **** 
 122:DataStructure/queue.c ****     if ((obj->state == Queue_ok) || (obj->state == Queue_full))
 279              		.loc 1 122 5 is_stmt 1 view .LVU76
 280              		.loc 1 122 13 is_stmt 0 view .LVU77
 281 000e 037A     		ldrb	r3, [r0, #8]	@ zero_extendqisi2
 282              		.loc 1 122 8 view .LVU78
 283 0010 042B     		cmp	r3, #4
 284 0012 18BF     		it	ne
 285 0014 002B     		cmpne	r3, #0
 286 0016 29D1     		bne	.L22
 123:DataStructure/queue.c ****     {
 124:DataStructure/queue.c ****         if (size <= obj->size)
 287              		.loc 1 124 9 is_stmt 1 view .LVU79
 288              		.loc 1 124 24 is_stmt 0 view .LVU80
 289 0018 C388     		ldrh	r3, [r0, #6]	@ unaligned
 290              		.loc 1 124 12 view .LVU81
 291 001a 9342     		cmp	r3, r2
 292 001c 01D3     		bcc	.L32
 293              	.LBB4:
 125:DataStructure/queue.c ****         {
 126:DataStructure/queue.c ****             for (uint16_t i = 0; i < size; i++)
 294              		.loc 1 126 27 view .LVU82
 295 001e 0025     		movs	r5, #0
 296 0020 22E0     		b	.L23
 297              	.L32:
 298              	.LBE4:
 127:DataStructure/queue.c ****             {
 128:DataStructure/queue.c ****                 obj->head_pos %= obj->lenth;
ARM GAS  /var/folders/lx/hc4sn_b53233_zkc9xbbl97r0000gp/T//ccuWtJ5E.s 			page 9


 129:DataStructure/queue.c ****                 data[i] = obj->buff[obj->head_pos];
 130:DataStructure/queue.c ****                 obj->buff[obj->head_pos] = NULL;
 131:DataStructure/queue.c ****                 obj->head_pos++;
 132:DataStructure/queue.c **** 
 133:DataStructure/queue.c ****                 obj->size--;
 134:DataStructure/queue.c **** 
 135:DataStructure/queue.c ****                 Queue_UpdateState(obj);
 136:DataStructure/queue.c ****             }
 137:DataStructure/queue.c ****         }
 138:DataStructure/queue.c ****         else
 139:DataStructure/queue.c ****             return Queue_overflow_r;
 299              		.loc 1 139 20 view .LVU83
 300 0022 0220     		movs	r0, #2
 301              	.LVL19:
 302              		.loc 1 139 20 view .LVU84
 303 0024 23E0     		b	.L21
 304              	.LVL20:
 305              	.L24:
 306              	.LBB5:
 128:DataStructure/queue.c ****                 data[i] = obj->buff[obj->head_pos];
 307              		.loc 1 128 17 is_stmt 1 discriminator 3 view .LVU85
 128:DataStructure/queue.c ****                 data[i] = obj->buff[obj->head_pos];
 308              		.loc 1 128 37 is_stmt 0 discriminator 3 view .LVU86
 309 0026 A288     		ldrh	r2, [r4, #4]	@ unaligned
 128:DataStructure/queue.c ****                 data[i] = obj->buff[obj->head_pos];
 310              		.loc 1 128 31 discriminator 3 view .LVU87
 311 0028 B4F80930 		ldrh	r3, [r4, #9]	@ unaligned
 312 002c B3FBF2F1 		udiv	r1, r3, r2
 313 0030 02FB1133 		mls	r3, r2, r1, r3
 314 0034 9AB2     		uxth	r2, r3
 315 0036 A4F80930 		strh	r3, [r4, #9]	@ unaligned
 129:DataStructure/queue.c ****                 obj->buff[obj->head_pos] = NULL;
 316              		.loc 1 129 17 is_stmt 1 discriminator 3 view .LVU88
 129:DataStructure/queue.c ****                 obj->buff[obj->head_pos] = NULL;
 317              		.loc 1 129 30 is_stmt 0 discriminator 3 view .LVU89
 318 003a D4F80D30 		ldr	r3, [r4, #13]	@ unaligned
 129:DataStructure/queue.c ****                 obj->buff[obj->head_pos] = NULL;
 319              		.loc 1 129 36 discriminator 3 view .LVU90
 320 003e 9B5C     		ldrb	r3, [r3, r2]	@ zero_extendqisi2
 129:DataStructure/queue.c ****                 obj->buff[obj->head_pos] = NULL;
 321              		.loc 1 129 25 discriminator 3 view .LVU91
 322 0040 7B55     		strb	r3, [r7, r5]
 130:DataStructure/queue.c ****                 obj->head_pos++;
 323              		.loc 1 130 17 is_stmt 1 discriminator 3 view .LVU92
 130:DataStructure/queue.c ****                 obj->head_pos++;
 324              		.loc 1 130 20 is_stmt 0 discriminator 3 view .LVU93
 325 0042 D4F80D20 		ldr	r2, [r4, #13]	@ unaligned
 130:DataStructure/queue.c ****                 obj->head_pos++;
 326              		.loc 1 130 30 discriminator 3 view .LVU94
 327 0046 B4F80930 		ldrh	r3, [r4, #9]	@ unaligned
 130:DataStructure/queue.c ****                 obj->head_pos++;
 328              		.loc 1 130 42 discriminator 3 view .LVU95
 329 004a 0021     		movs	r1, #0
 330 004c D154     		strb	r1, [r2, r3]
 131:DataStructure/queue.c **** 
 331              		.loc 1 131 17 is_stmt 1 discriminator 3 view .LVU96
 131:DataStructure/queue.c **** 
ARM GAS  /var/folders/lx/hc4sn_b53233_zkc9xbbl97r0000gp/T//ccuWtJ5E.s 			page 10


 332              		.loc 1 131 20 is_stmt 0 discriminator 3 view .LVU97
 333 004e B4F80930 		ldrh	r3, [r4, #9]	@ unaligned
 131:DataStructure/queue.c **** 
 334              		.loc 1 131 30 discriminator 3 view .LVU98
 335 0052 0133     		adds	r3, r3, #1
 336 0054 A4F80930 		strh	r3, [r4, #9]	@ unaligned
 133:DataStructure/queue.c **** 
 337              		.loc 1 133 17 is_stmt 1 discriminator 3 view .LVU99
 133:DataStructure/queue.c **** 
 338              		.loc 1 133 20 is_stmt 0 discriminator 3 view .LVU100
 339 0058 E388     		ldrh	r3, [r4, #6]	@ unaligned
 133:DataStructure/queue.c **** 
 340              		.loc 1 133 26 discriminator 3 view .LVU101
 341 005a 013B     		subs	r3, r3, #1
 342 005c E380     		strh	r3, [r4, #6]	@ unaligned
 135:DataStructure/queue.c ****             }
 343              		.loc 1 135 17 is_stmt 1 discriminator 3 view .LVU102
 344 005e 2046     		mov	r0, r4
 345 0060 FFF7FEFF 		bl	Queue_UpdateState
 346              	.LVL21:
 126:DataStructure/queue.c ****             {
 347              		.loc 1 126 44 discriminator 3 view .LVU103
 126:DataStructure/queue.c ****             {
 348              		.loc 1 126 45 is_stmt 0 discriminator 3 view .LVU104
 349 0064 0135     		adds	r5, r5, #1
 350              	.LVL22:
 126:DataStructure/queue.c ****             {
 351              		.loc 1 126 45 discriminator 3 view .LVU105
 352 0066 ADB2     		uxth	r5, r5
 353              	.LVL23:
 354              	.L23:
 126:DataStructure/queue.c ****             {
 355              		.loc 1 126 34 is_stmt 1 discriminator 1 view .LVU106
 126:DataStructure/queue.c ****             {
 356              		.loc 1 126 13 is_stmt 0 discriminator 1 view .LVU107
 357 0068 B542     		cmp	r5, r6
 358 006a DCD3     		bcc	.L24
 359              	.LVL24:
 360              	.L22:
 126:DataStructure/queue.c ****             {
 361              		.loc 1 126 13 discriminator 1 view .LVU108
 362              	.LBE5:
 140:DataStructure/queue.c ****     }
 141:DataStructure/queue.c **** 
 142:DataStructure/queue.c ****     return obj->state;
 363              		.loc 1 142 5 is_stmt 1 view .LVU109
 364              		.loc 1 142 15 is_stmt 0 view .LVU110
 365 006c 207A     		ldrb	r0, [r4, #8]	@ zero_extendqisi2
 366              	.L21:
 143:DataStructure/queue.c **** }
 367              		.loc 1 143 1 view .LVU111
 368 006e F8BD     		pop	{r3, r4, r5, r6, r7, pc}
 369              	.LVL25:
 370              	.L25:
 371              	.LCFI4:
 372              		.cfi_def_cfa_offset 0
 373              		.cfi_restore 3
ARM GAS  /var/folders/lx/hc4sn_b53233_zkc9xbbl97r0000gp/T//ccuWtJ5E.s 			page 11


 374              		.cfi_restore 4
 375              		.cfi_restore 5
 376              		.cfi_restore 6
 377              		.cfi_restore 7
 378              		.cfi_restore 14
 120:DataStructure/queue.c **** 
 379              		.loc 1 120 16 view .LVU112
 380 0070 0520     		movs	r0, #5
 381              	.LVL26:
 382              		.loc 1 143 1 view .LVU113
 383 0072 7047     		bx	lr
 384              	.LVL27:
 385              	.L26:
 386              	.LCFI5:
 387              		.cfi_def_cfa_offset 24
 388              		.cfi_offset 3, -24
 389              		.cfi_offset 4, -20
 390              		.cfi_offset 5, -16
 391              		.cfi_offset 6, -12
 392              		.cfi_offset 7, -8
 393              		.cfi_offset 14, -4
 120:DataStructure/queue.c **** 
 394              		.loc 1 120 16 view .LVU114
 395 0074 0520     		movs	r0, #5
 396              	.LVL28:
 120:DataStructure/queue.c **** 
 397              		.loc 1 120 16 view .LVU115
 398 0076 FAE7     		b	.L21
 399              		.cfi_endproc
 400              	.LFE7:
 402              		.section	.text.Queue_Check,"ax",%progbits
 403              		.align	1
 404              		.syntax unified
 405              		.thumb
 406              		.thumb_func
 407              		.fpu fpv5-d16
 409              	Queue_Check:
 410              	.LVL29:
 411              	.LFB8:
 144:DataStructure/queue.c **** 
 145:DataStructure/queue.c **** static bool Queue_Check(QueueObj_TypeDef *obj, uint16_t index, uint8_t *data, uint16_t size)
 146:DataStructure/queue.c **** {
 412              		.loc 1 146 1 is_stmt 1 view -0
 413              		.cfi_startproc
 414              		@ args = 0, pretend = 0, frame = 0
 415              		@ frame_needed = 0, uses_anonymous_args = 0
 147:DataStructure/queue.c ****     if (obj == NULL || (size == 0) || (data == NULL))
 416              		.loc 1 147 5 view .LVU117
 417              		.loc 1 147 13 is_stmt 0 view .LVU118
 418 0000 8446     		mov	ip, r0
 419              		.loc 1 147 8 view .LVU119
 420 0002 002B     		cmp	r3, #0
 421 0004 18BF     		it	ne
 422 0006 0028     		cmpne	r0, #0
 423 0008 0CBF     		ite	eq
 424 000a 0120     		moveq	r0, #1
 425              	.LVL30:
ARM GAS  /var/folders/lx/hc4sn_b53233_zkc9xbbl97r0000gp/T//ccuWtJ5E.s 			page 12


 426              		.loc 1 147 8 view .LVU120
 427 000c 0020     		movne	r0, #0
 428 000e 19D0     		beq	.L37
 146:DataStructure/queue.c ****     if (obj == NULL || (size == 0) || (data == NULL))
 429              		.loc 1 146 1 discriminator 1 view .LVU121
 430 0010 70B5     		push	{r4, r5, r6, lr}
 431              	.LCFI6:
 432              		.cfi_def_cfa_offset 16
 433              		.cfi_offset 4, -16
 434              		.cfi_offset 5, -12
 435              		.cfi_offset 6, -8
 436              		.cfi_offset 14, -4
 437 0012 1D46     		mov	r5, r3
 438              		.loc 1 147 36 discriminator 1 view .LVU122
 439 0014 AAB1     		cbz	r2, .L34
 440              	.LBB6:
 148:DataStructure/queue.c ****         return false;
 149:DataStructure/queue.c **** 
 150:DataStructure/queue.c ****     for (uint8_t i = 0; i < size; i++)
 441              		.loc 1 150 18 view .LVU123
 442 0016 0020     		movs	r0, #0
 443 0018 0FE0     		b	.L35
 444              	.LVL31:
 445              	.L36:
 151:DataStructure/queue.c ****     {
 152:DataStructure/queue.c ****         data[i] = obj->buff[(obj->head_pos + index + i) % obj->lenth];
 446              		.loc 1 152 9 is_stmt 1 discriminator 3 view .LVU124
 447              		.loc 1 152 22 is_stmt 0 discriminator 3 view .LVU125
 448 001a DCF80D40 		ldr	r4, [ip, #13]	@ unaligned
 449              		.loc 1 152 33 discriminator 3 view .LVU126
 450 001e BCF80930 		ldrh	r3, [ip, #9]	@ unaligned
 451              		.loc 1 152 44 discriminator 3 view .LVU127
 452 0022 0B44     		add	r3, r3, r1
 453              		.loc 1 152 52 discriminator 3 view .LVU128
 454 0024 0344     		add	r3, r3, r0
 455              		.loc 1 152 62 discriminator 3 view .LVU129
 456 0026 BCF804E0 		ldrh	lr, [ip, #4]	@ unaligned
 457              		.loc 1 152 57 discriminator 3 view .LVU130
 458 002a 93FBFEF6 		sdiv	r6, r3, lr
 459 002e 0EFB1633 		mls	r3, lr, r6, r3
 460              		.loc 1 152 28 discriminator 3 view .LVU131
 461 0032 E35C     		ldrb	r3, [r4, r3]	@ zero_extendqisi2
 462              		.loc 1 152 17 discriminator 3 view .LVU132
 463 0034 1354     		strb	r3, [r2, r0]
 150:DataStructure/queue.c ****     {
 464              		.loc 1 150 35 is_stmt 1 discriminator 3 view .LVU133
 150:DataStructure/queue.c ****     {
 465              		.loc 1 150 36 is_stmt 0 discriminator 3 view .LVU134
 466 0036 0130     		adds	r0, r0, #1
 467              	.LVL32:
 150:DataStructure/queue.c ****     {
 468              		.loc 1 150 36 discriminator 3 view .LVU135
 469 0038 C0B2     		uxtb	r0, r0
 470              	.LVL33:
 471              	.L35:
 150:DataStructure/queue.c ****     {
 472              		.loc 1 150 25 is_stmt 1 discriminator 1 view .LVU136
ARM GAS  /var/folders/lx/hc4sn_b53233_zkc9xbbl97r0000gp/T//ccuWtJ5E.s 			page 13


 150:DataStructure/queue.c ****     {
 473              		.loc 1 150 27 is_stmt 0 discriminator 1 view .LVU137
 474 003a 83B2     		uxth	r3, r0
 150:DataStructure/queue.c ****     {
 475              		.loc 1 150 5 discriminator 1 view .LVU138
 476 003c AB42     		cmp	r3, r5
 477 003e ECD3     		bcc	.L36
 478              	.LBE6:
 153:DataStructure/queue.c ****     }
 154:DataStructure/queue.c **** 
 155:DataStructure/queue.c ****     return true;
 479              		.loc 1 155 12 view .LVU139
 480 0040 0120     		movs	r0, #1
 481              	.LVL34:
 482              	.L34:
 156:DataStructure/queue.c **** }
 483              		.loc 1 156 1 view .LVU140
 484 0042 70BD     		pop	{r4, r5, r6, pc}
 485              	.LVL35:
 486              	.L37:
 487              	.LCFI7:
 488              		.cfi_def_cfa_offset 0
 489              		.cfi_restore 4
 490              		.cfi_restore 5
 491              		.cfi_restore 6
 492              		.cfi_restore 14
 148:DataStructure/queue.c **** 
 493              		.loc 1 148 16 view .LVU141
 494 0044 0020     		movs	r0, #0
 495              		.loc 1 156 1 view .LVU142
 496 0046 7047     		bx	lr
 497              		.cfi_endproc
 498              	.LFE8:
 500              		.section	.text.Queue_GetState,"ax",%progbits
 501              		.align	1
 502              		.syntax unified
 503              		.thumb
 504              		.thumb_func
 505              		.fpu fpv5-d16
 507              	Queue_GetState:
 508              	.LFB9:
 157:DataStructure/queue.c **** 
 158:DataStructure/queue.c **** static Queue_state Queue_GetState(QueueObj_TypeDef obj)
 159:DataStructure/queue.c **** {
 509              		.loc 1 159 1 is_stmt 1 view -0
 510              		.cfi_startproc
 511              		@ args = 20, pretend = 16, frame = 0
 512              		@ frame_needed = 0, uses_anonymous_args = 0
 513              		@ link register save eliminated.
 514 0000 84B0     		sub	sp, sp, #16
 515              	.LCFI8:
 516              		.cfi_def_cfa_offset 16
 517 0002 8DE80F00 		stm	sp, {r0, r1, r2, r3}
 160:DataStructure/queue.c ****     return obj.state;
 518              		.loc 1 160 5 view .LVU144
 161:DataStructure/queue.c **** }
 519              		.loc 1 161 1 is_stmt 0 view .LVU145
ARM GAS  /var/folders/lx/hc4sn_b53233_zkc9xbbl97r0000gp/T//ccuWtJ5E.s 			page 14


 520 0006 9DF80800 		ldrb	r0, [sp, #8]	@ zero_extendqisi2
 521 000a 04B0     		add	sp, sp, #16
 522              	.LCFI9:
 523              		.cfi_def_cfa_offset 0
 524 000c 7047     		bx	lr
 525              		.cfi_endproc
 526              	.LFE9:
 528              		.section	.text.Queue_GetSize,"ax",%progbits
 529              		.align	1
 530              		.syntax unified
 531              		.thumb
 532              		.thumb_func
 533              		.fpu fpv5-d16
 535              	Queue_GetSize:
 536              	.LFB10:
 162:DataStructure/queue.c **** 
 163:DataStructure/queue.c **** static uint16_t Queue_GetSize(QueueObj_TypeDef obj)
 164:DataStructure/queue.c **** {
 537              		.loc 1 164 1 is_stmt 1 view -0
 538              		.cfi_startproc
 539              		@ args = 20, pretend = 16, frame = 0
 540              		@ frame_needed = 0, uses_anonymous_args = 0
 541              		@ link register save eliminated.
 542 0000 84B0     		sub	sp, sp, #16
 543              	.LCFI10:
 544              		.cfi_def_cfa_offset 16
 545 0002 8DE80F00 		stm	sp, {r0, r1, r2, r3}
 165:DataStructure/queue.c ****     return obj.size;
 546              		.loc 1 165 5 view .LVU147
 166:DataStructure/queue.c **** }
 547              		.loc 1 166 1 is_stmt 0 view .LVU148
 548 0006 BDF80600 		ldrh	r0, [sp, #6]
 549 000a 04B0     		add	sp, sp, #16
 550              	.LCFI11:
 551              		.cfi_def_cfa_offset 0
 552 000c 7047     		bx	lr
 553              		.cfi_endproc
 554              	.LFE10:
 556              		.section	.text.Queue_Reset,"ax",%progbits
 557              		.align	1
 558              		.syntax unified
 559              		.thumb
 560              		.thumb_func
 561              		.fpu fpv5-d16
 563              	Queue_Reset:
 564              	.LVL36:
 565              	.LFB4:
  58:DataStructure/queue.c ****     if ((obj == NULL) || (obj->buff == NULL) || (obj->lenth == 0))
 566              		.loc 1 58 1 is_stmt 1 view -0
 567              		.cfi_startproc
 568              		@ args = 0, pretend = 0, frame = 0
 569              		@ frame_needed = 0, uses_anonymous_args = 0
  59:DataStructure/queue.c ****         return false;
 570              		.loc 1 59 5 view .LVU150
  59:DataStructure/queue.c ****         return false;
 571              		.loc 1 59 8 is_stmt 0 view .LVU151
 572 0000 B8B1     		cbz	r0, .L48
ARM GAS  /var/folders/lx/hc4sn_b53233_zkc9xbbl97r0000gp/T//ccuWtJ5E.s 			page 15


  58:DataStructure/queue.c ****     if ((obj == NULL) || (obj->buff == NULL) || (obj->lenth == 0))
 573              		.loc 1 58 1 discriminator 1 view .LVU152
 574 0002 08B5     		push	{r3, lr}
 575              	.LCFI12:
 576              		.cfi_def_cfa_offset 8
 577              		.cfi_offset 3, -8
 578              		.cfi_offset 14, -4
 579 0004 0346     		mov	r3, r0
  59:DataStructure/queue.c ****         return false;
 580              		.loc 1 59 30 discriminator 1 view .LVU153
 581 0006 D0F80D00 		ldr	r0, [r0, #13]	@ unaligned
 582              	.LVL37:
  59:DataStructure/queue.c ****         return false;
 583              		.loc 1 59 23 discriminator 1 view .LVU154
 584 000a A0B1     		cbz	r0, .L49
  59:DataStructure/queue.c ****         return false;
 585              		.loc 1 59 53 discriminator 2 view .LVU155
 586 000c 9A88     		ldrh	r2, [r3, #4]	@ unaligned
  59:DataStructure/queue.c ****         return false;
 587              		.loc 1 59 46 discriminator 2 view .LVU156
 588 000e 0AB9     		cbnz	r2, .L55
  60:DataStructure/queue.c **** 
 589              		.loc 1 60 16 view .LVU157
 590 0010 0020     		movs	r0, #0
 591              	.LVL38:
 592              	.L47:
  70:DataStructure/queue.c **** 
 593              		.loc 1 70 1 view .LVU158
 594 0012 08BD     		pop	{r3, pc}
 595              	.LVL39:
 596              	.L55:
  62:DataStructure/queue.c ****     obj->head_pos = 0;
 597              		.loc 1 62 5 is_stmt 1 view .LVU159
  62:DataStructure/queue.c ****     obj->head_pos = 0;
 598              		.loc 1 62 18 is_stmt 0 view .LVU160
 599 0014 0021     		movs	r1, #0
 600 0016 D972     		strb	r1, [r3, #11]
 601 0018 1973     		strb	r1, [r3, #12]
  63:DataStructure/queue.c ****     obj->size = 0;
 602              		.loc 1 63 5 is_stmt 1 view .LVU161
  63:DataStructure/queue.c ****     obj->size = 0;
 603              		.loc 1 63 19 is_stmt 0 view .LVU162
 604 001a 5972     		strb	r1, [r3, #9]
 605 001c 9972     		strb	r1, [r3, #10]
  64:DataStructure/queue.c **** 
 606              		.loc 1 64 5 is_stmt 1 view .LVU163
  64:DataStructure/queue.c **** 
 607              		.loc 1 64 15 is_stmt 0 view .LVU164
 608 001e 9971     		strb	r1, [r3, #6]
 609 0020 D971     		strb	r1, [r3, #7]
  66:DataStructure/queue.c ****     memset(obj->buff, NULL, obj->lenth);
 610              		.loc 1 66 5 is_stmt 1 view .LVU165
  66:DataStructure/queue.c ****     memset(obj->buff, NULL, obj->lenth);
 611              		.loc 1 66 16 is_stmt 0 view .LVU166
 612 0022 4FF0030C 		mov	ip, #3
 613 0026 83F808C0 		strb	ip, [r3, #8]
  67:DataStructure/queue.c **** 
ARM GAS  /var/folders/lx/hc4sn_b53233_zkc9xbbl97r0000gp/T//ccuWtJ5E.s 			page 16


 614              		.loc 1 67 5 is_stmt 1 view .LVU167
 615 002a FFF7FEFF 		bl	memset
 616              	.LVL40:
  69:DataStructure/queue.c **** }
 617              		.loc 1 69 5 view .LVU168
  69:DataStructure/queue.c **** }
 618              		.loc 1 69 12 is_stmt 0 view .LVU169
 619 002e 0120     		movs	r0, #1
 620 0030 EFE7     		b	.L47
 621              	.LVL41:
 622              	.L48:
 623              	.LCFI13:
 624              		.cfi_def_cfa_offset 0
 625              		.cfi_restore 3
 626              		.cfi_restore 14
  60:DataStructure/queue.c **** 
 627              		.loc 1 60 16 view .LVU170
 628 0032 0020     		movs	r0, #0
 629              	.LVL42:
  70:DataStructure/queue.c **** 
 630              		.loc 1 70 1 view .LVU171
 631 0034 7047     		bx	lr
 632              	.LVL43:
 633              	.L49:
 634              	.LCFI14:
 635              		.cfi_def_cfa_offset 8
 636              		.cfi_offset 3, -8
 637              		.cfi_offset 14, -4
  60:DataStructure/queue.c **** 
 638              		.loc 1 60 16 view .LVU172
 639 0036 0020     		movs	r0, #0
 640 0038 EBE7     		b	.L47
 641              		.cfi_endproc
 642              	.LFE4:
 644              		.section	.text.Queue_Create,"ax",%progbits
 645              		.align	1
 646              		.syntax unified
 647              		.thumb
 648              		.thumb_func
 649              		.fpu fpv5-d16
 651              	Queue_Create:
 652              	.LVL44:
 653              	.LFB3:
  36:DataStructure/queue.c ****     if ((obj == NULL) || (len == 0))
 654              		.loc 1 36 1 is_stmt 1 view -0
 655              		.cfi_startproc
 656              		@ args = 0, pretend = 0, frame = 0
 657              		@ frame_needed = 0, uses_anonymous_args = 0
  36:DataStructure/queue.c ****     if ((obj == NULL) || (len == 0))
 658              		.loc 1 36 1 is_stmt 0 view .LVU174
 659 0000 70B5     		push	{r4, r5, r6, lr}
 660              	.LCFI15:
 661              		.cfi_def_cfa_offset 16
 662              		.cfi_offset 4, -16
 663              		.cfi_offset 5, -12
 664              		.cfi_offset 6, -8
 665              		.cfi_offset 14, -4
ARM GAS  /var/folders/lx/hc4sn_b53233_zkc9xbbl97r0000gp/T//ccuWtJ5E.s 			page 17


  37:DataStructure/queue.c ****         return false;
 666              		.loc 1 37 5 is_stmt 1 view .LVU175
  37:DataStructure/queue.c ****         return false;
 667              		.loc 1 37 8 is_stmt 0 view .LVU176
 668 0002 002A     		cmp	r2, #0
 669 0004 18BF     		it	ne
 670 0006 0028     		cmpne	r0, #0
 671 0008 0CBF     		ite	eq
 672 000a 0124     		moveq	r4, #1
 673 000c 0024     		movne	r4, #0
 674 000e 02D1     		bne	.L60
  38:DataStructure/queue.c **** 
 675              		.loc 1 38 16 view .LVU177
 676 0010 0024     		movs	r4, #0
 677              	.LVL45:
 678              	.L57:
  55:DataStructure/queue.c **** 
 679              		.loc 1 55 1 view .LVU178
 680 0012 2046     		mov	r0, r4
 681 0014 70BD     		pop	{r4, r5, r6, pc}
 682              	.LVL46:
 683              	.L60:
  55:DataStructure/queue.c **** 
 684              		.loc 1 55 1 view .LVU179
 685 0016 0546     		mov	r5, r0
  40:DataStructure/queue.c ****     obj->end_pos = 0;
 686              		.loc 1 40 5 is_stmt 1 view .LVU180
  40:DataStructure/queue.c ****     obj->end_pos = 0;
 687              		.loc 1 40 15 is_stmt 0 view .LVU181
 688 0018 0160     		str	r1, [r0]	@ unaligned
  41:DataStructure/queue.c ****     obj->head_pos = 0;
 689              		.loc 1 41 5 is_stmt 1 view .LVU182
  41:DataStructure/queue.c ****     obj->head_pos = 0;
 690              		.loc 1 41 18 is_stmt 0 view .LVU183
 691 001a 0026     		movs	r6, #0
 692 001c C672     		strb	r6, [r0, #11]
 693 001e 0673     		strb	r6, [r0, #12]
  42:DataStructure/queue.c ****     obj->size = 0;
 694              		.loc 1 42 5 is_stmt 1 view .LVU184
  42:DataStructure/queue.c ****     obj->size = 0;
 695              		.loc 1 42 19 is_stmt 0 view .LVU185
 696 0020 4672     		strb	r6, [r0, #9]
 697 0022 8672     		strb	r6, [r0, #10]
  43:DataStructure/queue.c ****     obj->lenth = len;
 698              		.loc 1 43 5 is_stmt 1 view .LVU186
  43:DataStructure/queue.c ****     obj->lenth = len;
 699              		.loc 1 43 15 is_stmt 0 view .LVU187
 700 0024 8671     		strb	r6, [r0, #6]
 701 0026 C671     		strb	r6, [r0, #7]
  44:DataStructure/queue.c **** 
 702              		.loc 1 44 5 is_stmt 1 view .LVU188
  44:DataStructure/queue.c **** 
 703              		.loc 1 44 16 is_stmt 0 view .LVU189
 704 0028 8280     		strh	r2, [r0, #4]	@ unaligned
  46:DataStructure/queue.c ****     memset(obj->buff, NULL, obj->lenth);
 705              		.loc 1 46 5 is_stmt 1 view .LVU190
  46:DataStructure/queue.c ****     memset(obj->buff, NULL, obj->lenth);
ARM GAS  /var/folders/lx/hc4sn_b53233_zkc9xbbl97r0000gp/T//ccuWtJ5E.s 			page 18


 706              		.loc 1 46 28 is_stmt 0 view .LVU191
 707 002a 1046     		mov	r0, r2
 708              	.LVL47:
  46:DataStructure/queue.c ****     memset(obj->buff, NULL, obj->lenth);
 709              		.loc 1 46 28 view .LVU192
 710 002c FFF7FEFF 		bl	MMU_Malloc
 711              	.LVL48:
  46:DataStructure/queue.c ****     memset(obj->buff, NULL, obj->lenth);
 712              		.loc 1 46 15 view .LVU193
 713 0030 C5F80D00 		str	r0, [r5, #13]	@ unaligned
  47:DataStructure/queue.c **** 
 714              		.loc 1 47 5 is_stmt 1 view .LVU194
 715 0034 AA88     		ldrh	r2, [r5, #4]	@ unaligned
 716 0036 3146     		mov	r1, r6
 717 0038 FFF7FEFF 		bl	memset
 718              	.LVL49:
  49:DataStructure/queue.c ****         return false;
 719              		.loc 1 49 5 view .LVU195
  49:DataStructure/queue.c ****         return false;
 720              		.loc 1 49 12 is_stmt 0 view .LVU196
 721 003c D5F80D30 		ldr	r3, [r5, #13]	@ unaligned
  49:DataStructure/queue.c ****         return false;
 722              		.loc 1 49 8 view .LVU197
 723 0040 002B     		cmp	r3, #0
 724 0042 E6D0     		beq	.L57
  52:DataStructure/queue.c **** 
 725              		.loc 1 52 5 is_stmt 1 view .LVU198
  52:DataStructure/queue.c **** 
 726              		.loc 1 52 16 is_stmt 0 view .LVU199
 727 0044 0323     		movs	r3, #3
 728 0046 2B72     		strb	r3, [r5, #8]
  54:DataStructure/queue.c **** }
 729              		.loc 1 54 5 is_stmt 1 view .LVU200
  54:DataStructure/queue.c **** }
 730              		.loc 1 54 12 is_stmt 0 view .LVU201
 731 0048 0124     		movs	r4, #1
 732 004a E2E7     		b	.L57
 733              		.cfi_endproc
 734              	.LFE3:
 736              		.global	Queue
 737              		.section	.data.Queue,"aw"
 738              		.align	2
 741              	Queue:
 742 0000 00000000 		.word	Queue_GetSize
 743 0004 00000000 		.word	Queue_Create
 744 0008 00000000 		.word	Queue_Reset
 745 000c 00000000 		.word	Queue_Check
 746 0010 00000000 		.word	Queue_Push
 747 0014 00000000 		.word	Queue_Pop
 748 0018 00000000 		.word	Queue_GetState
 749              		.text
 750              	.Letext0:
 751              		.file 2 "/usr/local/arm-none-eabi-gcc/gcc-arm-none-eabi-10-2020-q4-major/arm-none-eabi/include/mac
 752              		.file 3 "/usr/local/arm-none-eabi-gcc/gcc-arm-none-eabi-10-2020-q4-major/arm-none-eabi/include/sys
 753              		.file 4 "DataStructure/queue.h"
 754              		.file 5 "<built-in>"
 755              		.file 6 "System/mmu/mmu.h"
ARM GAS  /var/folders/lx/hc4sn_b53233_zkc9xbbl97r0000gp/T//ccuWtJ5E.s 			page 19


ARM GAS  /var/folders/lx/hc4sn_b53233_zkc9xbbl97r0000gp/T//ccuWtJ5E.s 			page 20


DEFINED SYMBOLS
                            *ABS*:0000000000000000 queue.c
/var/folders/lx/hc4sn_b53233_zkc9xbbl97r0000gp/T//ccuWtJ5E.s:17     .text.Queue_UpdateState:0000000000000000 $t
/var/folders/lx/hc4sn_b53233_zkc9xbbl97r0000gp/T//ccuWtJ5E.s:24     .text.Queue_UpdateState:0000000000000000 Queue_UpdateState
/var/folders/lx/hc4sn_b53233_zkc9xbbl97r0000gp/T//ccuWtJ5E.s:94     .text.Queue_Push:0000000000000000 $t
/var/folders/lx/hc4sn_b53233_zkc9xbbl97r0000gp/T//ccuWtJ5E.s:100    .text.Queue_Push:0000000000000000 Queue_Push
/var/folders/lx/hc4sn_b53233_zkc9xbbl97r0000gp/T//ccuWtJ5E.s:246    .text.Queue_Pop:0000000000000000 $t
/var/folders/lx/hc4sn_b53233_zkc9xbbl97r0000gp/T//ccuWtJ5E.s:252    .text.Queue_Pop:0000000000000000 Queue_Pop
/var/folders/lx/hc4sn_b53233_zkc9xbbl97r0000gp/T//ccuWtJ5E.s:403    .text.Queue_Check:0000000000000000 $t
/var/folders/lx/hc4sn_b53233_zkc9xbbl97r0000gp/T//ccuWtJ5E.s:409    .text.Queue_Check:0000000000000000 Queue_Check
/var/folders/lx/hc4sn_b53233_zkc9xbbl97r0000gp/T//ccuWtJ5E.s:501    .text.Queue_GetState:0000000000000000 $t
/var/folders/lx/hc4sn_b53233_zkc9xbbl97r0000gp/T//ccuWtJ5E.s:507    .text.Queue_GetState:0000000000000000 Queue_GetState
/var/folders/lx/hc4sn_b53233_zkc9xbbl97r0000gp/T//ccuWtJ5E.s:529    .text.Queue_GetSize:0000000000000000 $t
/var/folders/lx/hc4sn_b53233_zkc9xbbl97r0000gp/T//ccuWtJ5E.s:535    .text.Queue_GetSize:0000000000000000 Queue_GetSize
/var/folders/lx/hc4sn_b53233_zkc9xbbl97r0000gp/T//ccuWtJ5E.s:557    .text.Queue_Reset:0000000000000000 $t
/var/folders/lx/hc4sn_b53233_zkc9xbbl97r0000gp/T//ccuWtJ5E.s:563    .text.Queue_Reset:0000000000000000 Queue_Reset
/var/folders/lx/hc4sn_b53233_zkc9xbbl97r0000gp/T//ccuWtJ5E.s:645    .text.Queue_Create:0000000000000000 $t
/var/folders/lx/hc4sn_b53233_zkc9xbbl97r0000gp/T//ccuWtJ5E.s:651    .text.Queue_Create:0000000000000000 Queue_Create
/var/folders/lx/hc4sn_b53233_zkc9xbbl97r0000gp/T//ccuWtJ5E.s:741    .data.Queue:0000000000000000 Queue
/var/folders/lx/hc4sn_b53233_zkc9xbbl97r0000gp/T//ccuWtJ5E.s:738    .data.Queue:0000000000000000 $d

UNDEFINED SYMBOLS
memset
MMU_Malloc
