ARM GAS  /var/folders/lx/hc4sn_b53233_zkc9xbbl97r0000gp/T//ccNoczxI.s 			page 1


   1              		.cpu cortex-m7
   2              		.eabi_attribute 28, 1
   3              		.eabi_attribute 20, 1
   4              		.eabi_attribute 21, 1
   5              		.eabi_attribute 23, 3
   6              		.eabi_attribute 24, 1
   7              		.eabi_attribute 25, 1
   8              		.eabi_attribute 26, 1
   9              		.eabi_attribute 30, 1
  10              		.eabi_attribute 34, 1
  11              		.eabi_attribute 18, 4
  12              		.file	"scheduler.c"
  13              		.text
  14              	.Ltext0:
  15              		.cfi_sections	.debug_frame
  16              		.section	.text.Os_Clr_TaskReady,"ax",%progbits
  17              		.align	1
  18              		.arch armv7e-m
  19              		.syntax unified
  20              		.thumb
  21              		.thumb_func
  22              		.fpu fpv5-d16
  24              	Os_Clr_TaskReady:
  25              	.LVL0:
  26              	.LFB349:
  27              		.file 1 "System/scheduler/scheduler.c"
   1:System/scheduler/scheduler.c **** #include "scheduler.h"
   2:System/scheduler/scheduler.c **** #include "kernel.h"
   3:System/scheduler/scheduler.c **** #include "runtime.h"
   4:System/scheduler/scheduler.c **** #include "linked_list.h"
   5:System/scheduler/scheduler.c **** #include "mmu.h"
   6:System/scheduler/scheduler.c **** 
   7:System/scheduler/scheduler.c **** // coder: 8_B!T0
   8:System/scheduler/scheduler.c **** // bref:
   9:System/scheduler/scheduler.c **** // estabishment a task running system with priority calling functional
  10:System/scheduler/scheduler.c **** // alway calling the highest priority function in all function under the ready table
  11:System/scheduler/scheduler.c **** // reference to ucos (version earler than v8.6)
  12:System/scheduler/scheduler.c **** 
  13:System/scheduler/scheduler.c **** /*
  14:System/scheduler/scheduler.c **** *******************************   TASK Handle    *******************************
  15:System/scheduler/scheduler.c **** 
  16:System/scheduler/scheduler.c ****              task0   task1   task2   task3   task4   task5   task6   task7
  17:System/scheduler/scheduler.c **** group0     |_______|_______|_______|_______|_______|_______|_______|_______|
  18:System/scheduler/scheduler.c **** group1     |_______|_______|_______|_______|_______|_______|_______|_______|
  19:System/scheduler/scheduler.c **** group2     |_______|_______|_______|_______|_______|_______|_______|_______|
  20:System/scheduler/scheduler.c **** group3     |_______|_______|_______|_______|_______|_______|_______|_______|
  21:System/scheduler/scheduler.c **** group4     |_______|_______|_______|_______|_______|_______|_______|_______|
  22:System/scheduler/scheduler.c **** group5     |_______|_______|_______|_______|_______|_______|_______|_______|
  23:System/scheduler/scheduler.c **** group6     |_______|_______|_______|_______|_______|_______|_______|_______|
  24:System/scheduler/scheduler.c **** group7     |_______|_______|_______|_______|_______|_______|_______|_______|
  25:System/scheduler/scheduler.c **** 
  26:System/scheduler/scheduler.c **** */
  27:System/scheduler/scheduler.c **** 
  28:System/scheduler/scheduler.c **** #define GET_TASKGROUP_PRIORITY(x) x >> 3
  29:System/scheduler/scheduler.c **** #define GET_TASKINGROUP_PRIORITY(y) y & 0X07
  30:System/scheduler/scheduler.c **** 
  31:System/scheduler/scheduler.c **** /* internal variable */
ARM GAS  /var/folders/lx/hc4sn_b53233_zkc9xbbl97r0000gp/T//ccNoczxI.s 			page 2


  32:System/scheduler/scheduler.c **** static const uint8_t Task_Priority_List[256] =
  33:System/scheduler/scheduler.c ****     {0, 0, 1, 0, 2, 0, 1, 0, 3, 0, 1, 0, 2, 0, 1, 0,  // 0x00 ~ 0x0F
  34:System/scheduler/scheduler.c ****      4, 0, 1, 0, 2, 0, 1, 0, 3, 0, 1, 0, 2, 0, 1, 0,  // 0x10 ~ 0x1F
  35:System/scheduler/scheduler.c ****      5, 0, 1, 0, 2, 0, 1, 0, 3, 0, 1, 0, 2, 0, 1, 0,  // 0x20 ~ 0x2F
  36:System/scheduler/scheduler.c ****      4, 0, 1, 0, 2, 0, 1, 0, 3, 0, 1, 0, 2, 0, 1, 0,  // 0x30 ~ 0x3F
  37:System/scheduler/scheduler.c ****      6, 0, 1, 0, 2, 0, 1, 0, 3, 0, 1, 0, 2, 0, 1, 0,  // 0x40 ~ 0x4F
  38:System/scheduler/scheduler.c ****      4, 0, 1, 0, 2, 0, 1, 0, 3, 0, 1, 0, 2, 0, 1, 0,  // 0x50 ~ 0x5F
  39:System/scheduler/scheduler.c ****      5, 0, 1, 0, 2, 0, 1, 0, 3, 0, 1, 0, 2, 0, 1, 0,  // 0x60 ~ 0x6F
  40:System/scheduler/scheduler.c ****      4, 0, 1, 0, 2, 0, 1, 0, 3, 0, 1, 0, 2, 0, 1, 0,  // 0x70 ~ 0x7F
  41:System/scheduler/scheduler.c ****      7, 0, 1, 0, 2, 0, 1, 0, 3, 0, 1, 0, 2, 0, 1, 0,  // 0x80 ~ 0x8F
  42:System/scheduler/scheduler.c ****      4, 0, 1, 0, 2, 0, 1, 0, 3, 0, 1, 0, 2, 0, 1, 0,  // 0x90 ~ 0x9F
  43:System/scheduler/scheduler.c ****      5, 0, 1, 0, 2, 0, 1, 0, 3, 0, 1, 0, 2, 0, 1, 0,  // 0xA0 ~ 0xAF
  44:System/scheduler/scheduler.c ****      4, 0, 1, 0, 2, 0, 1, 0, 3, 0, 1, 0, 2, 0, 1, 0,  // 0xB0 ~ 0xBF
  45:System/scheduler/scheduler.c ****      6, 0, 1, 0, 2, 0, 1, 0, 3, 0, 1, 0, 2, 0, 1, 0,  // 0xC0 ~ 0xCF
  46:System/scheduler/scheduler.c ****      4, 0, 1, 0, 2, 0, 1, 0, 3, 0, 1, 0, 2, 0, 1, 0,  // 0xD0 ~ 0xDF
  47:System/scheduler/scheduler.c ****      5, 0, 1, 0, 2, 0, 1, 0, 3, 0, 1, 0, 2, 0, 1, 0,  // 0xE0 ~ 0xEF
  48:System/scheduler/scheduler.c ****      4, 0, 1, 0, 2, 0, 1, 0, 3, 0, 1, 0, 2, 0, 1, 0}; // 0xF0 ~ 0xFF
  49:System/scheduler/scheduler.c **** 
  50:System/scheduler/scheduler.c **** static Task *TaskPtr_Map[Task_Group_Sum][Task_Priority_Sum];
  51:System/scheduler/scheduler.c **** static volatile Task *CurRunTsk_Ptr = NULL;
  52:System/scheduler/scheduler.c **** static volatile Task *NxtRunTsk_Ptr = NULL;
  53:System/scheduler/scheduler.c **** volatile TaskStack_ControlBlock CurTsk_TCB;
  54:System/scheduler/scheduler.c **** volatile TaskStack_ControlBlock NxtTsk_TCB;
  55:System/scheduler/scheduler.c **** static bool traverse_start = false;
  56:System/scheduler/scheduler.c **** 
  57:System/scheduler/scheduler.c **** static volatile TaskMap_TypeDef TskHdl_RdyMap = {.Grp = 0, .TskInGrp[0] = 0, .TskInGrp[1] = 0, .Tsk
  58:System/scheduler/scheduler.c **** static volatile TaskMap_TypeDef TskHdl_PndMap = {.Grp = 0, .TskInGrp[0] = 0, .TskInGrp[1] = 0, .Tsk
  59:System/scheduler/scheduler.c **** static volatile TaskMap_TypeDef TskHdl_BlkMap = {.Grp = 0, .TskInGrp[0] = 0, .TskInGrp[1] = 0, .Tsk
  60:System/scheduler/scheduler.c **** 
  61:System/scheduler/scheduler.c **** static Task_Create_RegList_s TskCrt_RegList = {.num = 0, .list = {.prv = NULL, .nxt = NULL, .data =
  62:System/scheduler/scheduler.c **** 
  63:System/scheduler/scheduler.c **** static volatile Scheduler_State_List scheduler_state = Scheduler_Initial;
  64:System/scheduler/scheduler.c **** 
  65:System/scheduler/scheduler.c **** /* internal function */
  66:System/scheduler/scheduler.c **** static void Os_ResetTask_Data(Task *task);
  67:System/scheduler/scheduler.c **** static void Os_Set_TaskReady(Task *tsk);
  68:System/scheduler/scheduler.c **** static void Os_Clr_TaskReady(Task *tsk);
  69:System/scheduler/scheduler.c **** static void Os_SchedulerRun(void);
  70:System/scheduler/scheduler.c **** static void Os_TaskExit(void);
  71:System/scheduler/scheduler.c **** static Task *Os_TaskPri_Compare(const Task *tsk_l, const Task *tsk_r);
  72:System/scheduler/scheduler.c **** static void Os_TaskCaller(void);
  73:System/scheduler/scheduler.c **** static void Os_SwitchTaskStack(void);
  74:System/scheduler/scheduler.c **** static Task *Os_Get_HighestRank_PndTask(void);
  75:System/scheduler/scheduler.c **** static Task *Os_Get_HighestRank_RdyTask(void);
  76:System/scheduler/scheduler.c **** 
  77:System/scheduler/scheduler.c **** // first need to know is linux support AT&T formate ASM code
  78:System/scheduler/scheduler.c **** __attribute__((naked)) static void Os_SetPendSVPro(void)
  79:System/scheduler/scheduler.c **** {
  80:System/scheduler/scheduler.c ****     // set PSP to 0 to initial context switch call
  81:System/scheduler/scheduler.c ****     __ASM("MOVS     R0, #0");
  82:System/scheduler/scheduler.c ****     __ASM("MSR      PSP, R0");
  83:System/scheduler/scheduler.c **** 
  84:System/scheduler/scheduler.c ****     // initial MSP to Task_OS_ExpStkBase
  85:System/scheduler/scheduler.c ****     __ASM("LDR      R0, =Task_OS_ExpStkBase");
  86:System/scheduler/scheduler.c ****     __ASM("LDR      R1, [R0]");
  87:System/scheduler/scheduler.c ****     __ASM("MSR      MSP, R1");
  88:System/scheduler/scheduler.c **** 
ARM GAS  /var/folders/lx/hc4sn_b53233_zkc9xbbl97r0000gp/T//ccNoczxI.s 			page 3


  89:System/scheduler/scheduler.c ****     __ASM("BX       LR");
  90:System/scheduler/scheduler.c **** }
  91:System/scheduler/scheduler.c **** 
  92:System/scheduler/scheduler.c **** static uint32_t Os_EnterCritical(void)
  93:System/scheduler/scheduler.c **** {
  94:System/scheduler/scheduler.c ****     /* Set BASEPRI to the max syscall priority to effect a critical
  95:System/scheduler/scheduler.c ****     section. */
  96:System/scheduler/scheduler.c ****     uint32_t ulOriginalBASEPRI, ulNewBASEPRI;
  97:System/scheduler/scheduler.c **** 
  98:System/scheduler/scheduler.c ****     __asm volatile(
  99:System/scheduler/scheduler.c ****         "	mrs %0, basepri											\n"
 100:System/scheduler/scheduler.c ****         "	mov %1, %2												\n"
 101:System/scheduler/scheduler.c ****         "	msr basepri, %1											\n"
 102:System/scheduler/scheduler.c ****         "	isb														\n"
 103:System/scheduler/scheduler.c ****         "	dsb														\n"
 104:System/scheduler/scheduler.c ****         : "=r"(ulOriginalBASEPRI), "=r"(ulNewBASEPRI)
 105:System/scheduler/scheduler.c ****         : "i"(80)
 106:System/scheduler/scheduler.c ****         : "memory");
 107:System/scheduler/scheduler.c **** 
 108:System/scheduler/scheduler.c ****     /* This return will not be reached but is necessary to prevent compiler
 109:System/scheduler/scheduler.c ****     warnings. */
 110:System/scheduler/scheduler.c ****     return ulOriginalBASEPRI;
 111:System/scheduler/scheduler.c **** }
 112:System/scheduler/scheduler.c **** 
 113:System/scheduler/scheduler.c **** __attribute__((nake)) static void Os_SetBASEPRI(uint32_t ulBASEPRI)
 114:System/scheduler/scheduler.c **** {
 115:System/scheduler/scheduler.c ****     __ASM("	msr basepri, %0	" ::"r"(ulBASEPRI)
 116:System/scheduler/scheduler.c ****           : "memory");
 117:System/scheduler/scheduler.c **** }
 118:System/scheduler/scheduler.c **** 
 119:System/scheduler/scheduler.c **** __attribute__((naked)) static void Os_ExitCritical(void)
 120:System/scheduler/scheduler.c **** {
 121:System/scheduler/scheduler.c ****     /* Barrier instructions are not used as this function is only used to
 122:System/scheduler/scheduler.c ****     lower the BASEPRI value. */
 123:System/scheduler/scheduler.c ****     __ASM("	msr basepri, %0	" ::"r"(0)
 124:System/scheduler/scheduler.c ****           : "memory");
 125:System/scheduler/scheduler.c **** }
 126:System/scheduler/scheduler.c **** 
 127:System/scheduler/scheduler.c **** __attribute__((naked)) void Os_LoadFirstTask(void)
 128:System/scheduler/scheduler.c **** {
 129:System/scheduler/scheduler.c ****     __ASM("LDR	  R3, =CurTsk_TCB");
 130:System/scheduler/scheduler.c ****     __ASM("LDR    R1, [R3]");
 131:System/scheduler/scheduler.c ****     __ASM("LDR    R0, [R1]");
 132:System/scheduler/scheduler.c **** 
 133:System/scheduler/scheduler.c ****     __ASM("LDMIA  R0!, {R4-R11, R14}");
 134:System/scheduler/scheduler.c **** 
 135:System/scheduler/scheduler.c ****     /******************************  FPU SECTION  *********************************/
 136:System/scheduler/scheduler.c ****     __ASM("TST      R14, #0x10");
 137:System/scheduler/scheduler.c ****     __ASM("IT       EQ");
 138:System/scheduler/scheduler.c ****     __ASM("VLDMIAEQ R0!, {s16-s31}");
 139:System/scheduler/scheduler.c ****     /******************************  FPU SECTION  *********************************/
 140:System/scheduler/scheduler.c **** 
 141:System/scheduler/scheduler.c ****     __ASM("MSR    PSP, R0");
 142:System/scheduler/scheduler.c ****     __ASM("ISB");
 143:System/scheduler/scheduler.c ****     //__ASM("MOV    R0, #240");
 144:System/scheduler/scheduler.c ****     //__ASM("MSR	  BASEPRI, R0");
 145:System/scheduler/scheduler.c ****     __ASM("BX     R14");
ARM GAS  /var/folders/lx/hc4sn_b53233_zkc9xbbl97r0000gp/T//ccNoczxI.s 			page 4


 146:System/scheduler/scheduler.c ****     __ASM(".ALIGN 4");
 147:System/scheduler/scheduler.c **** }
 148:System/scheduler/scheduler.c **** 
 149:System/scheduler/scheduler.c **** __attribute__((naked)) void Os_SwitchContext(void)
 150:System/scheduler/scheduler.c **** {
 151:System/scheduler/scheduler.c ****     __ASM("MRS      R0, PSP");
 152:System/scheduler/scheduler.c ****     __ASM("ISB");
 153:System/scheduler/scheduler.c **** 
 154:System/scheduler/scheduler.c ****     __ASM("LDR      R3, CurrentTCBConst_Tmp");
 155:System/scheduler/scheduler.c ****     __ASM("LDR      R2, [R3]");
 156:System/scheduler/scheduler.c **** 
 157:System/scheduler/scheduler.c ****     /******************************  FPU SECTION  *********************************/
 158:System/scheduler/scheduler.c ****     __ASM("TST      R14, #0x10");
 159:System/scheduler/scheduler.c ****     __ASM("IT       EQ");
 160:System/scheduler/scheduler.c ****     __ASM("VSTMDBEQ R0!, {s16-s31}");
 161:System/scheduler/scheduler.c ****     /******************************  FPU SECTION  *********************************/
 162:System/scheduler/scheduler.c **** 
 163:System/scheduler/scheduler.c ****     __ASM("STMDB    R0!, {R4-R11, R14}");
 164:System/scheduler/scheduler.c ****     __ASM("STR      R0, [R2]");
 165:System/scheduler/scheduler.c **** 
 166:System/scheduler/scheduler.c ****     __ASM("STMDB    SP!, {R0, R3}");
 167:System/scheduler/scheduler.c ****     __ASM("MOV      R0, %0" ::"i"(0x50));
 168:System/scheduler/scheduler.c ****     __ASM("MSR      BASEPRI, R0");
 169:System/scheduler/scheduler.c **** 
 170:System/scheduler/scheduler.c ****     __ASM("DSB");
 171:System/scheduler/scheduler.c ****     __ASM("ISB");
 172:System/scheduler/scheduler.c **** 
 173:System/scheduler/scheduler.c ****     __ASM("BL       Os_SwitchTaskStack");
 174:System/scheduler/scheduler.c **** 
 175:System/scheduler/scheduler.c ****     __ASM("MOV      R0, #0");
 176:System/scheduler/scheduler.c ****     __ASM("MSR      BASEPRI, R0");
 177:System/scheduler/scheduler.c ****     __ASM("LDMIA    SP!, {R0, R3}");
 178:System/scheduler/scheduler.c **** 
 179:System/scheduler/scheduler.c ****     __ASM("LDR      R1, [R3]");
 180:System/scheduler/scheduler.c ****     __ASM("LDR      R0, [R1]");
 181:System/scheduler/scheduler.c **** 
 182:System/scheduler/scheduler.c ****     __ASM("LDMIA    R0!, {R4-R11, R14}");
 183:System/scheduler/scheduler.c **** 
 184:System/scheduler/scheduler.c ****     /******************************  FPU SECTION  *********************************/
 185:System/scheduler/scheduler.c ****     __ASM("TST      R14, #0x10");
 186:System/scheduler/scheduler.c ****     __ASM("IT       EQ");
 187:System/scheduler/scheduler.c ****     __ASM("VLDMIAEQ R0!, {s16-s31}");
 188:System/scheduler/scheduler.c ****     /******************************  FPU SECTION  *********************************/
 189:System/scheduler/scheduler.c **** 
 190:System/scheduler/scheduler.c ****     __ASM("MSR      PSP,R0");
 191:System/scheduler/scheduler.c ****     __ASM("ISB");
 192:System/scheduler/scheduler.c ****     //__ASM("MOV      R0, #240");
 193:System/scheduler/scheduler.c ****     //__ASM("MSR	    BASEPRI, R0");
 194:System/scheduler/scheduler.c ****     __ASM("BX       R14");
 195:System/scheduler/scheduler.c **** 
 196:System/scheduler/scheduler.c ****     __ASM("CurrentTCBConst_Tmp: .word CurTsk_TCB");
 197:System/scheduler/scheduler.c ****     __ASM(".ALIGN 4");
 198:System/scheduler/scheduler.c **** }
 199:System/scheduler/scheduler.c **** 
 200:System/scheduler/scheduler.c **** static void Os_SwitchTaskStack(void)
 201:System/scheduler/scheduler.c **** {
 202:System/scheduler/scheduler.c ****     CurTsk_TCB = NxtTsk_TCB;
ARM GAS  /var/folders/lx/hc4sn_b53233_zkc9xbbl97r0000gp/T//ccNoczxI.s 			page 5


 203:System/scheduler/scheduler.c **** }
 204:System/scheduler/scheduler.c **** 
 205:System/scheduler/scheduler.c **** static void Os_Set_TaskStk(Task *tsk)
 206:System/scheduler/scheduler.c **** {
 207:System/scheduler/scheduler.c ****     uint32_t *Tsk_Ptr_tmp = NULL;
 208:System/scheduler/scheduler.c **** 
 209:System/scheduler/scheduler.c ****     memset(tsk->TCB.Stack, NULL, tsk->Stack_Depth * sizeof(uint32_t));
 210:System/scheduler/scheduler.c **** 
 211:System/scheduler/scheduler.c ****     Tsk_Ptr_tmp = &tsk->TCB.Stack + (tsk->Stack_Depth - (uint32_t)1);
 212:System/scheduler/scheduler.c ****     Tsk_Ptr_tmp = (uint32_t *)((uint32_t)(Tsk_Ptr_tmp)&0XFFFFFFF8ul);
 213:System/scheduler/scheduler.c **** 
 214:System/scheduler/scheduler.c ****     Tsk_Ptr_tmp--;
 215:System/scheduler/scheduler.c ****     *Tsk_Ptr_tmp = 0x01000000uL; /* xPSR */
 216:System/scheduler/scheduler.c **** 
 217:System/scheduler/scheduler.c ****     Tsk_Ptr_tmp--;
 218:System/scheduler/scheduler.c ****     *Tsk_Ptr_tmp = ((uint32_t)Os_TaskCaller) & 0xfffffffeUL; /* PC */
 219:System/scheduler/scheduler.c **** 
 220:System/scheduler/scheduler.c ****     Tsk_Ptr_tmp--;
 221:System/scheduler/scheduler.c ****     *Tsk_Ptr_tmp = (uint32_t)Os_TaskExit; /* LR */
 222:System/scheduler/scheduler.c **** 
 223:System/scheduler/scheduler.c ****     /* Save code space by skipping register initialisation. */
 224:System/scheduler/scheduler.c ****     Tsk_Ptr_tmp -= 5;              /* R12, R3, R2 and R1. */
 225:System/scheduler/scheduler.c ****     *Tsk_Ptr_tmp = (uint32_t)NULL; /* R0 */
 226:System/scheduler/scheduler.c **** 
 227:System/scheduler/scheduler.c ****     /* A save method is being used that requires each task to maintain its
 228:System/scheduler/scheduler.c ****         own exec return value. */
 229:System/scheduler/scheduler.c ****     Tsk_Ptr_tmp--;
 230:System/scheduler/scheduler.c ****     *Tsk_Ptr_tmp = 0xfffffffd;
 231:System/scheduler/scheduler.c **** 
 232:System/scheduler/scheduler.c ****     Tsk_Ptr_tmp -= 8; /* R11, R10, R9, R8, R7, R6, R5 and R4. */
 233:System/scheduler/scheduler.c **** 
 234:System/scheduler/scheduler.c ****     // set task stack top pointer
 235:System/scheduler/scheduler.c ****     tsk->TCB.Top_Stk_Ptr = Tsk_Ptr_tmp; //&Tsk_Ptr_tmp
 236:System/scheduler/scheduler.c **** }
 237:System/scheduler/scheduler.c **** 
 238:System/scheduler/scheduler.c **** void Os_Init(uint32_t TickFRQ)
 239:System/scheduler/scheduler.c **** {
 240:System/scheduler/scheduler.c ****     // we disable irq in Kernel_Init() we need enable irq when Os start triggerd
 241:System/scheduler/scheduler.c ****     while (!Kernel_Init())
 242:System/scheduler/scheduler.c ****         ;
 243:System/scheduler/scheduler.c **** 
 244:System/scheduler/scheduler.c ****     Runtime_Config(TickFRQ);
 245:System/scheduler/scheduler.c **** 
 246:System/scheduler/scheduler.c ****     for (uint8_t g = Task_Group_0; g < Task_Group_Sum; g++)
 247:System/scheduler/scheduler.c ****     {
 248:System/scheduler/scheduler.c ****         for (uint8_t t = Task_Priority_0; t < Task_Priority_Sum; t++)
 249:System/scheduler/scheduler.c ****         {
 250:System/scheduler/scheduler.c ****             /* clear each data in task map ptr */
 251:System/scheduler/scheduler.c ****             Os_ResetTask_Data(&TaskPtr_Map[g][t]);
 252:System/scheduler/scheduler.c **** 
 253:System/scheduler/scheduler.c ****             /* clear stack depth and stack memory and stack top pointer */
 254:System/scheduler/scheduler.c ****             TaskPtr_Map[g][t]->Stack_Depth = 0;
 255:System/scheduler/scheduler.c ****             TaskPtr_Map[g][t]->TCB.Stack = NULL;
 256:System/scheduler/scheduler.c ****             TaskPtr_Map[g][t]->TCB.Top_Stk_Ptr = NULL;
 257:System/scheduler/scheduler.c **** 
 258:System/scheduler/scheduler.c ****             TaskPtr_Map[g][t] = NULL;
 259:System/scheduler/scheduler.c ****         }
ARM GAS  /var/folders/lx/hc4sn_b53233_zkc9xbbl97r0000gp/T//ccNoczxI.s 			page 6


 260:System/scheduler/scheduler.c ****     }
 261:System/scheduler/scheduler.c **** 
 262:System/scheduler/scheduler.c ****     TskCrt_RegList.num = 0;
 263:System/scheduler/scheduler.c ****     TskCrt_RegList.list.data = NULL;
 264:System/scheduler/scheduler.c ****     TskCrt_RegList.list.nxt = NULL;
 265:System/scheduler/scheduler.c ****     TskCrt_RegList.list.prv = NULL;
 266:System/scheduler/scheduler.c **** 
 267:System/scheduler/scheduler.c ****     ReSet_Task_Data(CurRunTsk_Ptr);
 268:System/scheduler/scheduler.c ****     ReSet_Task_Data(NxtRunTsk_Ptr);
 269:System/scheduler/scheduler.c **** 
 270:System/scheduler/scheduler.c ****     scheduler_state = Scheduler_ready;
 271:System/scheduler/scheduler.c **** }
 272:System/scheduler/scheduler.c **** 
 273:System/scheduler/scheduler.c **** void Os_Start(void)
 274:System/scheduler/scheduler.c **** {
 275:System/scheduler/scheduler.c ****     Runtime_Start();
 276:System/scheduler/scheduler.c **** 
 277:System/scheduler/scheduler.c ****     NxtRunTsk_Ptr = Task_Get_HighestRank_RdyTask();
 278:System/scheduler/scheduler.c **** 
 279:System/scheduler/scheduler.c ****     if (NxtRunTsk_Ptr != NULL)
 280:System/scheduler/scheduler.c ****     {
 281:System/scheduler/scheduler.c ****         NxtTsk_TCB.Top_Stk_Ptr = &NxtRunTsk_Ptr->TCB.Top_Stk_Ptr;
 282:System/scheduler/scheduler.c ****         NxtTsk_TCB.Stack = NxtRunTsk_Ptr->TCB.Stack;
 283:System/scheduler/scheduler.c **** 
 284:System/scheduler/scheduler.c ****         CurTsk_TCB = NxtTsk_TCB;
 285:System/scheduler/scheduler.c ****     }
 286:System/scheduler/scheduler.c **** 
 287:System/scheduler/scheduler.c ****     // enable irq
 288:System/scheduler/scheduler.c ****     Kernel_EnableIRQ();
 289:System/scheduler/scheduler.c **** 
 290:System/scheduler/scheduler.c ****     // trigger SVC make Os into SYSmode then set first task stack in SVC handler
 291:System/scheduler/scheduler.c **** 
 292:System/scheduler/scheduler.c ****     // DrvTimer.ctl(DrvTimer_Counter_SetState, (uint32_t)&SysTimerObj, ENABLE);
 293:System/scheduler/scheduler.c ****     Kernel_SetPendSV();
 294:System/scheduler/scheduler.c **** 
 295:System/scheduler/scheduler.c ****     // enable all irq
 296:System/scheduler/scheduler.c **** 
 297:System/scheduler/scheduler.c ****     Kernel_TriggerPendSV();
 298:System/scheduler/scheduler.c **** 
 299:System/scheduler/scheduler.c ****     while (true)
 300:System/scheduler/scheduler.c ****     {
 301:System/scheduler/scheduler.c ****     }
 302:System/scheduler/scheduler.c **** }
 303:System/scheduler/scheduler.c **** 
 304:System/scheduler/scheduler.c **** Task_Handle Os_CreateTask(const char *name, uint32_t frq, Task_Group group, Task_Priority priority,
 305:System/scheduler/scheduler.c **** {
 306:System/scheduler/scheduler.c ****     Task_Handle handle;
 307:System/scheduler/scheduler.c ****     uint16_t task_name_len = strlen(name);
 308:System/scheduler/scheduler.c ****     uint32_t *Tsk_Ptr_tmp = NULL;
 309:System/scheduler/scheduler.c **** 
 310:System/scheduler/scheduler.c ****     // already have task in current group and priority in task pointer matrix
 311:System/scheduler/scheduler.c ****     if (TaskPtr_Map[group][priority] != NULL)
 312:System/scheduler/scheduler.c ****         return NULL;
 313:System/scheduler/scheduler.c **** 
 314:System/scheduler/scheduler.c ****     // request a memory space for Task_Ptr contain
 315:System/scheduler/scheduler.c ****     TaskPtr_Map[group][priority] = (Task *)MMU_Malloc(sizeof(Task));
 316:System/scheduler/scheduler.c **** 
ARM GAS  /var/folders/lx/hc4sn_b53233_zkc9xbbl97r0000gp/T//ccNoczxI.s 			page 7


 317:System/scheduler/scheduler.c ****     // record Task_Ptr poiner`s address
 318:System/scheduler/scheduler.c ****     handle = *&TaskPtr_Map[group][priority];
 319:System/scheduler/scheduler.c **** 
 320:System/scheduler/scheduler.c ****     TaskPtr_Map[group][priority]->Task_name = name;
 321:System/scheduler/scheduler.c **** 
 322:System/scheduler/scheduler.c ****     TaskPtr_Map[group][priority]->exec_frq = frq;
 323:System/scheduler/scheduler.c ****     TaskPtr_Map[group][priority]->exec_interval_us = RUNTIEM_MAX_TICK_FRQ / frq;
 324:System/scheduler/scheduler.c ****     TaskPtr_Map[group][priority]->Exec_Func = func;
 325:System/scheduler/scheduler.c **** 
 326:System/scheduler/scheduler.c ****     TaskPtr_Map[group][priority]->priority = (group << 3) | priority;
 327:System/scheduler/scheduler.c **** 
 328:System/scheduler/scheduler.c ****     // init delay tag
 329:System/scheduler/scheduler.c ****     TaskPtr_Map[group][priority]->delay_info.on_delay = false;
 330:System/scheduler/scheduler.c ****     TaskPtr_Map[group][priority]->delay_info.tsk_hdl = handle;
 331:System/scheduler/scheduler.c ****     TaskPtr_Map[group][priority]->delay_info.time_unit = 0;
 332:System/scheduler/scheduler.c **** 
 333:System/scheduler/scheduler.c ****     // request memory space for task stack
 334:System/scheduler/scheduler.c ****     TaskPtr_Map[group][priority]->Stack_Depth = StackDepth;
 335:System/scheduler/scheduler.c ****     TaskPtr_Map[group][priority]->TCB.Stack = (uint32_t *)MMU_Malloc(StackDepth * sizeof(uint32_t))
 336:System/scheduler/scheduler.c **** 
 337:System/scheduler/scheduler.c ****     if (TaskPtr_Map[group][priority]->TCB.Stack != NULL)
 338:System/scheduler/scheduler.c ****     {
 339:System/scheduler/scheduler.c ****         Os_Set_TaskStk(TaskPtr_Map[group][priority]);
 340:System/scheduler/scheduler.c ****     }
 341:System/scheduler/scheduler.c ****     else
 342:System/scheduler/scheduler.c ****         return NULL;
 343:System/scheduler/scheduler.c **** 
 344:System/scheduler/scheduler.c ****     // reset single loop running us
 345:System/scheduler/scheduler.c ****     TaskPtr_Map[group][priority]->TskFuncUing_US = 0;
 346:System/scheduler/scheduler.c **** 
 347:System/scheduler/scheduler.c ****     // reset task cpu occupy data
 348:System/scheduler/scheduler.c ****     TaskPtr_Map[group][priority]->Exec_status.cpu_opy = 0;
 349:System/scheduler/scheduler.c ****     TaskPtr_Map[group][priority]->Exec_status.Running_Time = 0;
 350:System/scheduler/scheduler.c **** 
 351:System/scheduler/scheduler.c ****     // set current group flag to ready
 352:System/scheduler/scheduler.c ****     TskHdl_RdyMap.Grp.Flg |= 1 << GET_TASKGROUP_PRIORITY(TaskPtr_Map[group][priority]->priority);
 353:System/scheduler/scheduler.c ****     // set current task under this group flag to ready
 354:System/scheduler/scheduler.c ****     TskHdl_RdyMap.TskInGrp[GET_TASKGROUP_PRIORITY(TaskPtr_Map[group][priority]->priority)].Flg |= 1
 355:System/scheduler/scheduler.c **** 
 356:System/scheduler/scheduler.c ****     TaskPtr_Map[group][priority]->Exec_status.detect_exec_frq = 0;
 357:System/scheduler/scheduler.c **** 
 358:System/scheduler/scheduler.c ****     RuntimeObj_Reset(&(TaskPtr_Map[group][priority]->Exec_status.Exec_Time));
 359:System/scheduler/scheduler.c ****     RuntimeObj_Reset(&(TaskPtr_Map[group][priority]->Exec_status.Start_Time));
 360:System/scheduler/scheduler.c **** 
 361:System/scheduler/scheduler.c ****     TaskPtr_Map[group][priority]->Exec_status.Exec_cnt = 0;
 362:System/scheduler/scheduler.c ****     TaskPtr_Map[group][priority]->Exec_status.error_code = NOERROR;
 363:System/scheduler/scheduler.c **** 
 364:System/scheduler/scheduler.c ****     Task_SetReady(TaskPtr_Map[group][priority]);
 365:System/scheduler/scheduler.c **** 
 366:System/scheduler/scheduler.c ****     TaskPtr_Map[group][priority]->item_ptr = (item_obj *)MMU_Malloc(sizeof(item_obj));
 367:System/scheduler/scheduler.c ****     if (TaskPtr_Map[group][priority]->item_ptr == NULL)
 368:System/scheduler/scheduler.c ****         return NULL;
 369:System/scheduler/scheduler.c **** 
 370:System/scheduler/scheduler.c ****     List_ItemInit(TaskPtr_Map[group][priority]->item_ptr, TaskPtr_Map[group][priority]);
 371:System/scheduler/scheduler.c ****     if (TskCrt_RegList.num == 0)
 372:System/scheduler/scheduler.c ****     {
 373:System/scheduler/scheduler.c ****         List_Init(&TskCrt_RegList.list, TaskPtr_Map[group][priority]->item_ptr, by_condition, Os_Ta
ARM GAS  /var/folders/lx/hc4sn_b53233_zkc9xbbl97r0000gp/T//ccNoczxI.s 			page 8


 374:System/scheduler/scheduler.c ****     }
 375:System/scheduler/scheduler.c ****     else
 376:System/scheduler/scheduler.c ****     {
 377:System/scheduler/scheduler.c ****         List_Insert_Item(&TskCrt_RegList.list, TaskPtr_Map[group][priority]->item_ptr);
 378:System/scheduler/scheduler.c ****     }
 379:System/scheduler/scheduler.c **** 
 380:System/scheduler/scheduler.c ****     List_ItemInit(&TaskPtr_Map[group][priority]->delay_item, &TaskPtr_Map[group][priority]->delay_i
 381:System/scheduler/scheduler.c **** 
 382:System/scheduler/scheduler.c ****     TskCrt_RegList.num++;
 383:System/scheduler/scheduler.c **** 
 384:System/scheduler/scheduler.c ****     return handle;
 385:System/scheduler/scheduler.c **** }
 386:System/scheduler/scheduler.c **** 
 387:System/scheduler/scheduler.c **** static void Os_ResetTask_Data(Task *task)
 388:System/scheduler/scheduler.c **** {
 389:System/scheduler/scheduler.c ****     task->priority = 0;
 390:System/scheduler/scheduler.c ****     task->Task_name = NULL;
 391:System/scheduler/scheduler.c ****     task->exec_frq = 0;
 392:System/scheduler/scheduler.c ****     task->exec_interval_us = 0;
 393:System/scheduler/scheduler.c ****     task->Exec_Func = NULL;
 394:System/scheduler/scheduler.c **** 
 395:System/scheduler/scheduler.c ****     task->Exec_status.detect_exec_frq = 0;
 396:System/scheduler/scheduler.c ****     task->Exec_status.Exec_cnt = 0;
 397:System/scheduler/scheduler.c ****     task->Exec_status.cpu_opy = 0;
 398:System/scheduler/scheduler.c ****     task->Exec_status.Running_Time = 0;
 399:System/scheduler/scheduler.c **** 
 400:System/scheduler/scheduler.c ****     task->delay_info.on_delay = false;
 401:System/scheduler/scheduler.c ****     task->delay_info.tsk_hdl = 0;
 402:System/scheduler/scheduler.c ****     task->delay_info.time_unit = 0;
 403:System/scheduler/scheduler.c **** 
 404:System/scheduler/scheduler.c ****     List_ItemInit(&task->delay_item, &task->delay_info);
 405:System/scheduler/scheduler.c **** 
 406:System/scheduler/scheduler.c ****     RuntimeObj_Reset(&(task->Exec_status.Exec_Time));
 407:System/scheduler/scheduler.c **** 
 408:System/scheduler/scheduler.c ****     task->State = Task_Init;
 409:System/scheduler/scheduler.c **** }
 410:System/scheduler/scheduler.c **** 
 411:System/scheduler/scheduler.c **** static void Os_Set_TaskReady(Task *tsk)
 412:System/scheduler/scheduler.c **** {
 413:System/scheduler/scheduler.c ****     uint8_t grp_id = GET_TASKGROUP_PRIORITY(tsk->priority);
 414:System/scheduler/scheduler.c ****     uint8_t tsk_id = GET_TASKINGROUP_PRIORITY(tsk->priority);
 415:System/scheduler/scheduler.c **** 
 416:System/scheduler/scheduler.c ****     // set current group flag to ready
 417:System/scheduler/scheduler.c ****     TskHdl_RdyMap.Grp.Flg |= 1 << grp_id;
 418:System/scheduler/scheduler.c ****     // set current task under this group flag to ready
 419:System/scheduler/scheduler.c ****     TskHdl_RdyMap.TskInGrp[grp_id].Flg |= 1 << tsk_id;
 420:System/scheduler/scheduler.c **** 
 421:System/scheduler/scheduler.c ****     tsk->State = Task_Ready;
 422:System/scheduler/scheduler.c **** }
 423:System/scheduler/scheduler.c **** 
 424:System/scheduler/scheduler.c **** static void Os_Clr_TaskReady(Task *tsk)
 425:System/scheduler/scheduler.c **** {
  28              		.loc 1 425 1 view -0
  29              		.cfi_startproc
  30              		@ args = 0, pretend = 0, frame = 0
  31              		@ frame_needed = 0, uses_anonymous_args = 0
 426:System/scheduler/scheduler.c ****     uint8_t grp_id = GET_TASKGROUP_PRIORITY(tsk->priority);
ARM GAS  /var/folders/lx/hc4sn_b53233_zkc9xbbl97r0000gp/T//ccNoczxI.s 			page 9


  32              		.loc 1 426 5 view .LVU1
  33              		.loc 1 426 22 is_stmt 0 view .LVU2
  34 0000 4078     		ldrb	r0, [r0, #1]	@ zero_extendqisi2
  35              	.LVL1:
 427:System/scheduler/scheduler.c ****     uint8_t tsk_id = GET_TASKINGROUP_PRIORITY(tsk->priority);
  36              		.loc 1 427 5 is_stmt 1 view .LVU3
  37              		.loc 1 427 13 is_stmt 0 view .LVU4
  38 0002 00F0070C 		and	ip, r0, #7
  39              	.LVL2:
 428:System/scheduler/scheduler.c **** 
 429:System/scheduler/scheduler.c ****     TskHdl_RdyMap.TskInGrp[grp_id].Flg &= ~(1 << tsk_id);
  40              		.loc 1 429 5 is_stmt 1 view .LVU5
  41              		.loc 1 429 40 is_stmt 0 view .LVU6
  42 0006 0D4B     		ldr	r3, .L7
  43 0008 03EBD003 		add	r3, r3, r0, lsr #3
  44 000c 5A78     		ldrb	r2, [r3, #1]	@ zero_extendqisi2
  45              		.loc 1 429 47 view .LVU7
  46 000e 0121     		movs	r1, #1
  47 0010 01FA0CF1 		lsl	r1, r1, ip
  48              		.loc 1 429 40 view .LVU8
  49 0014 22EA0102 		bic	r2, r2, r1
  50 0018 5A70     		strb	r2, [r3, #1]
 430:System/scheduler/scheduler.c ****     if (TskHdl_RdyMap.TskInGrp[grp_id].Flg == 0)
  51              		.loc 1 430 5 is_stmt 1 view .LVU9
  52              		.loc 1 430 39 is_stmt 0 view .LVU10
  53 001a 5978     		ldrb	r1, [r3, #1]	@ zero_extendqisi2
  54              		.loc 1 430 8 view .LVU11
  55 001c 61B9     		cbnz	r1, .L4
 425:System/scheduler/scheduler.c ****     uint8_t grp_id = GET_TASKGROUP_PRIORITY(tsk->priority);
  56              		.loc 1 425 1 view .LVU12
  57 001e 00B5     		push	{lr}
  58              	.LCFI0:
  59              		.cfi_def_cfa_offset 4
  60              		.cfi_offset 14, -4
  61 0020 4FEAD00E 		lsr	lr, r0, #3
 431:System/scheduler/scheduler.c ****     {
 432:System/scheduler/scheduler.c ****         TskHdl_RdyMap.Grp.Flg &= ~(1 << grp_id);
  62              		.loc 1 432 9 is_stmt 1 view .LVU13
  63              		.loc 1 432 31 is_stmt 0 view .LVU14
  64 0024 0549     		ldr	r1, .L7
  65 0026 0B78     		ldrb	r3, [r1]	@ zero_extendqisi2
  66              		.loc 1 432 38 view .LVU15
  67 0028 0122     		movs	r2, #1
  68 002a 02FA0EF2 		lsl	r2, r2, lr
  69              		.loc 1 432 31 view .LVU16
  70 002e 23EA0203 		bic	r3, r3, r2
  71 0032 0B70     		strb	r3, [r1]
 433:System/scheduler/scheduler.c ****     }
 434:System/scheduler/scheduler.c **** }
  72              		.loc 1 434 1 view .LVU17
  73 0034 5DF804FB 		ldr	pc, [sp], #4
  74              	.L4:
  75              	.LCFI1:
  76              		.cfi_def_cfa_offset 0
  77              		.cfi_restore 14
  78 0038 7047     		bx	lr
  79              	.L8:
ARM GAS  /var/folders/lx/hc4sn_b53233_zkc9xbbl97r0000gp/T//ccNoczxI.s 			page 10


  80 003a 00BF     		.align	2
  81              	.L7:
  82 003c 00000000 		.word	.LANCHOR0
  83              		.cfi_endproc
  84              	.LFE349:
  86              		.section	.text.Os_TaskExit,"ax",%progbits
  87              		.align	1
  88              		.syntax unified
  89              		.thumb
  90              		.thumb_func
  91              		.fpu fpv5-d16
  93              	Os_TaskExit:
  94              	.LFB351:
 435:System/scheduler/scheduler.c **** 
 436:System/scheduler/scheduler.c **** static void Os_SchedulerRun(void)
 437:System/scheduler/scheduler.c **** {
 438:System/scheduler/scheduler.c **** }
 439:System/scheduler/scheduler.c **** 
 440:System/scheduler/scheduler.c **** /*
 441:System/scheduler/scheduler.c ****  * task caller will not exit
 442:System/scheduler/scheduler.c ****  * if Os run into this func is sort of error happened
 443:System/scheduler/scheduler.c ****  */
 444:System/scheduler/scheduler.c **** static void Os_TaskExit(void)
 445:System/scheduler/scheduler.c **** {
  95              		.loc 1 445 1 is_stmt 1 view -0
  96              		.cfi_startproc
  97              		@ Volatile: function does not return.
  98              		@ args = 0, pretend = 0, frame = 0
  99              		@ frame_needed = 0, uses_anonymous_args = 0
 100              		@ link register save eliminated.
 101              	.L10:
 446:System/scheduler/scheduler.c ****     while (true)
 102              		.loc 1 446 5 discriminator 1 view .LVU19
 447:System/scheduler/scheduler.c ****     {
 448:System/scheduler/scheduler.c ****     }
 103              		.loc 1 448 5 discriminator 1 view .LVU20
 446:System/scheduler/scheduler.c ****     while (true)
 104              		.loc 1 446 11 discriminator 1 view .LVU21
 105 0000 FEE7     		b	.L10
 106              		.cfi_endproc
 107              	.LFE351:
 109              		.section	.text.Os_TaskPri_Compare,"ax",%progbits
 110              		.align	1
 111              		.syntax unified
 112              		.thumb
 113              		.thumb_func
 114              		.fpu fpv5-d16
 116              	Os_TaskPri_Compare:
 117              	.LVL3:
 118              	.LFB354:
 449:System/scheduler/scheduler.c **** }
 450:System/scheduler/scheduler.c **** 
 451:System/scheduler/scheduler.c **** static Task *Os_Get_HighestRank_RdyTask(void)
 452:System/scheduler/scheduler.c **** {
 453:System/scheduler/scheduler.c ****     uint8_t grp_id = 0;
 454:System/scheduler/scheduler.c ****     uint8_t tsk_id = 0;
 455:System/scheduler/scheduler.c **** 
ARM GAS  /var/folders/lx/hc4sn_b53233_zkc9xbbl97r0000gp/T//ccNoczxI.s 			page 11


 456:System/scheduler/scheduler.c ****     if (TskHdl_RdyMap.Grp.Flg)
 457:System/scheduler/scheduler.c ****     {
 458:System/scheduler/scheduler.c ****         // find group
 459:System/scheduler/scheduler.c ****         grp_id = TaskPtr_Map[TskHdl_RdyMap.Grp.Flg];
 460:System/scheduler/scheduler.c ****         // find task in group
 461:System/scheduler/scheduler.c ****         tsk_id = TaskPtr_Map[TskHdl_RdyMap.TskInGrp[grp_id].Flg];
 462:System/scheduler/scheduler.c ****     }
 463:System/scheduler/scheduler.c ****     else
 464:System/scheduler/scheduler.c ****         return NULL;
 465:System/scheduler/scheduler.c **** 
 466:System/scheduler/scheduler.c ****     if (TaskPtr_Map[grp_id][tsk_id] != NULL)
 467:System/scheduler/scheduler.c ****     {
 468:System/scheduler/scheduler.c ****         return TaskPtr_Map[grp_id][tsk_id];
 469:System/scheduler/scheduler.c ****     }
 470:System/scheduler/scheduler.c ****     else
 471:System/scheduler/scheduler.c ****     {
 472:System/scheduler/scheduler.c ****         TskHdl_RdyMap.Grp.Flg &= ~(1 << grp_id);
 473:System/scheduler/scheduler.c ****         TskHdl_RdyMap.TskInGrp[grp_id].Flg &= ~(1 << tsk_id);
 474:System/scheduler/scheduler.c ****         return NULL;
 475:System/scheduler/scheduler.c ****     }
 476:System/scheduler/scheduler.c **** }
 477:System/scheduler/scheduler.c **** 
 478:System/scheduler/scheduler.c **** static Task *Os_Get_HighestRank_PndTask(void)
 479:System/scheduler/scheduler.c **** {
 480:System/scheduler/scheduler.c ****     uint8_t grp_id;
 481:System/scheduler/scheduler.c ****     uint8_t tsk_id;
 482:System/scheduler/scheduler.c **** 
 483:System/scheduler/scheduler.c ****     if (TskHdl_PndMap.Grp.Flg)
 484:System/scheduler/scheduler.c ****     {
 485:System/scheduler/scheduler.c ****         // find group
 486:System/scheduler/scheduler.c ****         grp_id = TaskPtr_Map[TskHdl_PndMap.Grp.Flg];
 487:System/scheduler/scheduler.c ****         // find task in group
 488:System/scheduler/scheduler.c ****         tsk_id = TaskPtr_Map[TskHdl_PndMap.TskInGrp[grp_id].Flg];
 489:System/scheduler/scheduler.c ****     }
 490:System/scheduler/scheduler.c ****     else
 491:System/scheduler/scheduler.c ****         return NULL;
 492:System/scheduler/scheduler.c **** 
 493:System/scheduler/scheduler.c ****     if (TaskPtr_Map[grp_id][tsk_id] != NULL)
 494:System/scheduler/scheduler.c ****     {
 495:System/scheduler/scheduler.c ****         return TaskPtr_Map[grp_id][tsk_id];
 496:System/scheduler/scheduler.c ****     }
 497:System/scheduler/scheduler.c ****     else
 498:System/scheduler/scheduler.c ****     {
 499:System/scheduler/scheduler.c ****         TskHdl_PndMap.Grp.Flg &= ~(1 << grp_id);
 500:System/scheduler/scheduler.c ****         TskHdl_PndMap.TskInGrp[grp_id].Flg &= ~(1 << tsk_id);
 501:System/scheduler/scheduler.c ****         return NULL;
 502:System/scheduler/scheduler.c ****     }
 503:System/scheduler/scheduler.c **** }
 504:System/scheduler/scheduler.c **** 
 505:System/scheduler/scheduler.c **** // return high priority task pointer
 506:System/scheduler/scheduler.c **** static Task *Os_TaskPri_Compare(const Task *tsk_l, const Task *tsk_r)
 507:System/scheduler/scheduler.c **** {
 119              		.loc 1 507 1 view -0
 120              		.cfi_startproc
 121              		@ args = 0, pretend = 0, frame = 0
 122              		@ frame_needed = 0, uses_anonymous_args = 0
 508:System/scheduler/scheduler.c ****     if ((tsk_l == NULL) && (tsk_r == NULL))
ARM GAS  /var/folders/lx/hc4sn_b53233_zkc9xbbl97r0000gp/T//ccNoczxI.s 			page 12


 123              		.loc 1 508 5 view .LVU23
 124              		.loc 1 508 16 is_stmt 0 view .LVU24
 125 0000 0246     		mov	r2, r0
 126 0002 B0FA80F3 		clz	r3, r0
 127 0006 5B09     		lsrs	r3, r3, #5
 128              		.loc 1 508 35 view .LVU25
 129 0008 0846     		mov	r0, r1
 130              	.LVL4:
 131              		.loc 1 508 35 view .LVU26
 132 000a B1FA81F1 		clz	r1, r1
 133              	.LVL5:
 134              		.loc 1 508 35 view .LVU27
 135 000e 4909     		lsrs	r1, r1, #5
 136              		.loc 1 508 8 view .LVU28
 137 0010 0B42     		tst	r3, r1
 138 0012 27D1     		bne	.L14
 509:System/scheduler/scheduler.c ****     {
 510:System/scheduler/scheduler.c ****         return NULL;
 511:System/scheduler/scheduler.c ****     }
 512:System/scheduler/scheduler.c **** 
 513:System/scheduler/scheduler.c ****     if ((tsk_l == NULL) && (tsk_r != NULL))
 139              		.loc 1 513 5 is_stmt 1 view .LVU29
 140              		.loc 1 513 25 is_stmt 0 view .LVU30
 141 0014 0028     		cmp	r0, #0
 142 0016 0CBF     		ite	eq
 143 0018 0023     		moveq	r3, #0
 144 001a 03F00103 		andne	r3, r3, #1
 145              		.loc 1 513 8 view .LVU31
 146 001e 53BB     		cbnz	r3, .L22
 514:System/scheduler/scheduler.c ****     {
 515:System/scheduler/scheduler.c ****         return tsk_r;
 516:System/scheduler/scheduler.c ****     }
 517:System/scheduler/scheduler.c **** 
 518:System/scheduler/scheduler.c ****     if ((tsk_l != NULL) && (tsk_r == NULL))
 147              		.loc 1 518 5 is_stmt 1 view .LVU32
 148              		.loc 1 518 25 is_stmt 0 view .LVU33
 149 0020 002A     		cmp	r2, #0
 150 0022 0CBF     		ite	eq
 151 0024 0021     		moveq	r1, #0
 152 0026 01F00101 		andne	r1, r1, #1
 153              		.loc 1 518 8 view .LVU34
 154 002a E9B9     		cbnz	r1, .L16
 507:System/scheduler/scheduler.c ****     if ((tsk_l == NULL) && (tsk_r == NULL))
 155              		.loc 1 507 1 view .LVU35
 156 002c 00B5     		push	{lr}
 157              	.LCFI2:
 158              		.cfi_def_cfa_offset 4
 159              		.cfi_offset 14, -4
 519:System/scheduler/scheduler.c ****     {
 520:System/scheduler/scheduler.c ****         return tsk_l;
 521:System/scheduler/scheduler.c ****     }
 522:System/scheduler/scheduler.c **** 
 523:System/scheduler/scheduler.c ****     if (GET_TASKGROUP_PRIORITY(tsk_l->priority) < GET_TASKGROUP_PRIORITY(tsk_r->priority))
 160              		.loc 1 523 5 is_stmt 1 view .LVU36
 161              		.loc 1 523 9 is_stmt 0 view .LVU37
 162 002e 5378     		ldrb	r3, [r2, #1]	@ zero_extendqisi2
 163              		.loc 1 523 49 view .LVU38
ARM GAS  /var/folders/lx/hc4sn_b53233_zkc9xbbl97r0000gp/T//ccNoczxI.s 			page 13


 164 0030 4FEAD30E 		lsr	lr, r3, #3
 165              		.loc 1 523 51 view .LVU39
 166 0034 90F801C0 		ldrb	ip, [r0, #1]	@ zero_extendqisi2
 167              		.loc 1 523 49 view .LVU40
 168 0038 4FEADC01 		lsr	r1, ip, #3
 169              		.loc 1 523 8 view .LVU41
 170 003c B1EBD30F 		cmp	r1, r3, lsr #3
 171 0040 14D8     		bhi	.L17
 524:System/scheduler/scheduler.c ****     {
 525:System/scheduler/scheduler.c ****         return tsk_l;
 526:System/scheduler/scheduler.c ****     }
 527:System/scheduler/scheduler.c ****     else if (GET_TASKGROUP_PRIORITY(tsk_l->priority) > GET_TASKGROUP_PRIORITY(tsk_r->priority))
 172              		.loc 1 527 10 is_stmt 1 view .LVU42
 173              		.loc 1 527 13 is_stmt 0 view .LVU43
 174 0042 8E45     		cmp	lr, r1
 175 0044 13D8     		bhi	.L11
 528:System/scheduler/scheduler.c ****     {
 529:System/scheduler/scheduler.c ****         return tsk_r;
 530:System/scheduler/scheduler.c ****     }
 531:System/scheduler/scheduler.c ****     else if (GET_TASKGROUP_PRIORITY(tsk_l->priority) == GET_TASKGROUP_PRIORITY(tsk_r->priority))
 176              		.loc 1 531 10 is_stmt 1 view .LVU44
 177              		.loc 1 531 13 is_stmt 0 view .LVU45
 178 0046 12D1     		bne	.L11
 532:System/scheduler/scheduler.c ****     {
 533:System/scheduler/scheduler.c ****         if (GET_TASKINGROUP_PRIORITY(tsk_l->priority) < GET_TASKINGROUP_PRIORITY(tsk_r->priority))
 179              		.loc 1 533 9 is_stmt 1 view .LVU46
 180              		.loc 1 533 57 is_stmt 0 view .LVU47
 181 0048 BCF1070F 		cmp	ip, #7
 182 004c 94BF     		ite	ls
 183 004e 0021     		movls	r1, #0
 184 0050 03F00101 		andhi	r1, r3, #1
 185              		.loc 1 533 12 view .LVU48
 186 0054 69B9     		cbnz	r1, .L19
 534:System/scheduler/scheduler.c ****         {
 535:System/scheduler/scheduler.c ****             return tsk_l;
 536:System/scheduler/scheduler.c ****         }
 537:System/scheduler/scheduler.c ****         else if (GET_TASKINGROUP_PRIORITY(tsk_l->priority) > GET_TASKINGROUP_PRIORITY(tsk_r->priori
 187              		.loc 1 537 14 is_stmt 1 view .LVU49
 188              		.loc 1 537 62 is_stmt 0 view .LVU50
 189 0056 BCF1060F 		cmp	ip, #6
 190 005a 8CBF     		ite	hi
 191 005c 0023     		movhi	r3, #0
 192 005e 03F00103 		andls	r3, r3, #1
 193 0062 04E0     		b	.L11
 194              	.L14:
 195              	.LCFI3:
 196              		.cfi_def_cfa_offset 0
 197              		.cfi_restore 14
 510:System/scheduler/scheduler.c ****     }
 198              		.loc 1 510 16 view .LVU51
 199 0064 0020     		movs	r0, #0
 200              	.LVL6:
 510:System/scheduler/scheduler.c ****     }
 201              		.loc 1 510 16 view .LVU52
 202 0066 7047     		bx	lr
 203              	.LVL7:
 204              	.L16:
ARM GAS  /var/folders/lx/hc4sn_b53233_zkc9xbbl97r0000gp/T//ccNoczxI.s 			page 14


 520:System/scheduler/scheduler.c ****     }
 205              		.loc 1 520 16 view .LVU53
 206 0068 1046     		mov	r0, r2
 207              	.LVL8:
 520:System/scheduler/scheduler.c ****     }
 208              		.loc 1 520 16 view .LVU54
 209 006a 7047     		bx	lr
 210              	.LVL9:
 211              	.L17:
 212              	.LCFI4:
 213              		.cfi_def_cfa_offset 4
 214              		.cfi_offset 14, -4
 525:System/scheduler/scheduler.c ****     }
 215              		.loc 1 525 16 view .LVU55
 216 006c 1046     		mov	r0, r2
 217              	.LVL10:
 218              	.L11:
 538:System/scheduler/scheduler.c ****         {
 539:System/scheduler/scheduler.c ****             return tsk_r;
 540:System/scheduler/scheduler.c ****         }
 541:System/scheduler/scheduler.c ****     }
 542:System/scheduler/scheduler.c **** }
 219              		.loc 1 542 1 view .LVU56
 220 006e 5DF804FB 		ldr	pc, [sp], #4
 221              	.LVL11:
 222              	.L19:
 535:System/scheduler/scheduler.c ****         }
 223              		.loc 1 535 20 view .LVU57
 224 0072 1046     		mov	r0, r2
 225              	.LVL12:
 535:System/scheduler/scheduler.c ****         }
 226              		.loc 1 535 20 view .LVU58
 227 0074 FBE7     		b	.L11
 228              	.LVL13:
 229              	.L22:
 230              	.LCFI5:
 231              		.cfi_def_cfa_offset 0
 232              		.cfi_restore 14
 233              		.loc 1 542 1 view .LVU59
 234 0076 7047     		bx	lr
 235              		.cfi_endproc
 236              	.LFE354:
 238              		.section	.text.Os_ResetTask_Data,"ax",%progbits
 239              		.align	1
 240              		.syntax unified
 241              		.thumb
 242              		.thumb_func
 243              		.fpu fpv5-d16
 245              	Os_ResetTask_Data:
 246              	.LVL14:
 247              	.LFB347:
 388:System/scheduler/scheduler.c ****     task->priority = 0;
 248              		.loc 1 388 1 is_stmt 1 view -0
 249              		.cfi_startproc
 250              		@ args = 0, pretend = 0, frame = 0
 251              		@ frame_needed = 0, uses_anonymous_args = 0
 388:System/scheduler/scheduler.c ****     task->priority = 0;
ARM GAS  /var/folders/lx/hc4sn_b53233_zkc9xbbl97r0000gp/T//ccNoczxI.s 			page 15


 252              		.loc 1 388 1 is_stmt 0 view .LVU61
 253 0000 38B5     		push	{r3, r4, r5, lr}
 254              	.LCFI6:
 255              		.cfi_def_cfa_offset 16
 256              		.cfi_offset 3, -16
 257              		.cfi_offset 4, -12
 258              		.cfi_offset 5, -8
 259              		.cfi_offset 14, -4
 260 0002 0446     		mov	r4, r0
 389:System/scheduler/scheduler.c ****     task->Task_name = NULL;
 261              		.loc 1 389 5 is_stmt 1 view .LVU62
 389:System/scheduler/scheduler.c ****     task->Task_name = NULL;
 262              		.loc 1 389 20 is_stmt 0 view .LVU63
 263 0004 0025     		movs	r5, #0
 264 0006 4570     		strb	r5, [r0, #1]
 390:System/scheduler/scheduler.c ****     task->exec_frq = 0;
 265              		.loc 1 390 5 is_stmt 1 view .LVU64
 390:System/scheduler/scheduler.c ****     task->exec_frq = 0;
 266              		.loc 1 390 21 is_stmt 0 view .LVU65
 267 0008 4560     		str	r5, [r0, #4]
 391:System/scheduler/scheduler.c ****     task->exec_interval_us = 0;
 268              		.loc 1 391 5 is_stmt 1 view .LVU66
 391:System/scheduler/scheduler.c ****     task->exec_interval_us = 0;
 269              		.loc 1 391 20 is_stmt 0 view .LVU67
 270 000a 8560     		str	r5, [r0, #8]
 392:System/scheduler/scheduler.c ****     task->Exec_Func = NULL;
 271              		.loc 1 392 5 is_stmt 1 view .LVU68
 392:System/scheduler/scheduler.c ****     task->Exec_Func = NULL;
 272              		.loc 1 392 28 is_stmt 0 view .LVU69
 273 000c 8581     		strh	r5, [r0, #12]	@ movhi
 393:System/scheduler/scheduler.c **** 
 274              		.loc 1 393 5 is_stmt 1 view .LVU70
 393:System/scheduler/scheduler.c **** 
 275              		.loc 1 393 21 is_stmt 0 view .LVU71
 276 000e 0561     		str	r5, [r0, #16]
 395:System/scheduler/scheduler.c ****     task->Exec_status.Exec_cnt = 0;
 277              		.loc 1 395 5 is_stmt 1 view .LVU72
 395:System/scheduler/scheduler.c ****     task->Exec_status.Exec_cnt = 0;
 278              		.loc 1 395 39 is_stmt 0 view .LVU73
 279 0010 4562     		str	r5, [r0, #36]
 396:System/scheduler/scheduler.c ****     task->Exec_status.cpu_opy = 0;
 280              		.loc 1 396 5 is_stmt 1 view .LVU74
 396:System/scheduler/scheduler.c ****     task->Exec_status.cpu_opy = 0;
 281              		.loc 1 396 32 is_stmt 0 view .LVU75
 282 0012 8562     		str	r5, [r0, #40]
 397:System/scheduler/scheduler.c ****     task->Exec_status.Running_Time = 0;
 283              		.loc 1 397 5 is_stmt 1 view .LVU76
 397:System/scheduler/scheduler.c ****     task->Exec_status.Running_Time = 0;
 284              		.loc 1 397 31 is_stmt 0 view .LVU77
 285 0014 0023     		movs	r3, #0
 286 0016 8363     		str	r3, [r0, #56]	@ float
 398:System/scheduler/scheduler.c **** 
 287              		.loc 1 398 5 is_stmt 1 view .LVU78
 398:System/scheduler/scheduler.c **** 
 288              		.loc 1 398 36 is_stmt 0 view .LVU79
 289 0018 0563     		str	r5, [r0, #48]
 290 001a 4563     		str	r5, [r0, #52]
ARM GAS  /var/folders/lx/hc4sn_b53233_zkc9xbbl97r0000gp/T//ccNoczxI.s 			page 16


 400:System/scheduler/scheduler.c ****     task->delay_info.tsk_hdl = 0;
 291              		.loc 1 400 5 is_stmt 1 view .LVU80
 400:System/scheduler/scheduler.c ****     task->delay_info.tsk_hdl = 0;
 292              		.loc 1 400 31 is_stmt 0 view .LVU81
 293 001c 80F84C50 		strb	r5, [r0, #76]
 401:System/scheduler/scheduler.c ****     task->delay_info.time_unit = 0;
 294              		.loc 1 401 5 is_stmt 1 view .LVU82
 401:System/scheduler/scheduler.c ****     task->delay_info.time_unit = 0;
 295              		.loc 1 401 30 is_stmt 0 view .LVU83
 296 0020 0565     		str	r5, [r0, #80]
 402:System/scheduler/scheduler.c **** 
 297              		.loc 1 402 5 is_stmt 1 view .LVU84
 402:System/scheduler/scheduler.c **** 
 298              		.loc 1 402 32 is_stmt 0 view .LVU85
 299 0022 4565     		str	r5, [r0, #84]
 404:System/scheduler/scheduler.c **** 
 300              		.loc 1 404 5 is_stmt 1 view .LVU86
 301 0024 00F14C01 		add	r1, r0, #76
 302 0028 6430     		adds	r0, r0, #100
 303              	.LVL15:
 404:System/scheduler/scheduler.c **** 
 304              		.loc 1 404 5 is_stmt 0 view .LVU87
 305 002a FFF7FEFF 		bl	List_ItemInit
 306              	.LVL16:
 406:System/scheduler/scheduler.c **** 
 307              		.loc 1 406 5 is_stmt 1 view .LVU88
 308 002e 04F11400 		add	r0, r4, #20
 309 0032 FFF7FEFF 		bl	RuntimeObj_Reset
 310              	.LVL17:
 408:System/scheduler/scheduler.c **** }
 311              		.loc 1 408 5 view .LVU89
 408:System/scheduler/scheduler.c **** }
 312              		.loc 1 408 17 is_stmt 0 view .LVU90
 313 0036 2570     		strb	r5, [r4]
 409:System/scheduler/scheduler.c **** 
 314              		.loc 1 409 1 view .LVU91
 315 0038 38BD     		pop	{r3, r4, r5, pc}
 409:System/scheduler/scheduler.c **** 
 316              		.loc 1 409 1 view .LVU92
 317              		.cfi_endproc
 318              	.LFE347:
 320              		.section	.text.Os_Set_TaskStk,"ax",%progbits
 321              		.align	1
 322              		.syntax unified
 323              		.thumb
 324              		.thumb_func
 325              		.fpu fpv5-d16
 327              	Os_Set_TaskStk:
 328              	.LVL18:
 329              	.LFB343:
 206:System/scheduler/scheduler.c ****     uint32_t *Tsk_Ptr_tmp = NULL;
 330              		.loc 1 206 1 is_stmt 1 view -0
 331              		.cfi_startproc
 332              		@ args = 0, pretend = 0, frame = 0
 333              		@ frame_needed = 0, uses_anonymous_args = 0
 206:System/scheduler/scheduler.c ****     uint32_t *Tsk_Ptr_tmp = NULL;
 334              		.loc 1 206 1 is_stmt 0 view .LVU94
ARM GAS  /var/folders/lx/hc4sn_b53233_zkc9xbbl97r0000gp/T//ccNoczxI.s 			page 17


 335 0000 10B5     		push	{r4, lr}
 336              	.LCFI7:
 337              		.cfi_def_cfa_offset 8
 338              		.cfi_offset 4, -8
 339              		.cfi_offset 14, -4
 340 0002 0446     		mov	r4, r0
 207:System/scheduler/scheduler.c **** 
 341              		.loc 1 207 5 is_stmt 1 view .LVU95
 342              	.LVL19:
 209:System/scheduler/scheduler.c **** 
 343              		.loc 1 209 5 view .LVU96
 209:System/scheduler/scheduler.c **** 
 344              		.loc 1 209 37 is_stmt 0 view .LVU97
 345 0004 C26B     		ldr	r2, [r0, #60]
 209:System/scheduler/scheduler.c **** 
 346              		.loc 1 209 5 view .LVU98
 347 0006 9200     		lsls	r2, r2, #2
 348 0008 0021     		movs	r1, #0
 349 000a 406C     		ldr	r0, [r0, #68]
 350              	.LVL20:
 209:System/scheduler/scheduler.c **** 
 351              		.loc 1 209 5 view .LVU99
 352 000c FFF7FEFF 		bl	memset
 353              	.LVL21:
 211:System/scheduler/scheduler.c ****     Tsk_Ptr_tmp = (uint32_t *)((uint32_t)(Tsk_Ptr_tmp)&0XFFFFFFF8ul);
 354              		.loc 1 211 5 is_stmt 1 view .LVU100
 211:System/scheduler/scheduler.c ****     Tsk_Ptr_tmp = (uint32_t *)((uint32_t)(Tsk_Ptr_tmp)&0XFFFFFFF8ul);
 355              		.loc 1 211 19 is_stmt 0 view .LVU101
 356 0010 04F14403 		add	r3, r4, #68
 211:System/scheduler/scheduler.c ****     Tsk_Ptr_tmp = (uint32_t *)((uint32_t)(Tsk_Ptr_tmp)&0XFFFFFFF8ul);
 357              		.loc 1 211 41 view .LVU102
 358 0014 E16B     		ldr	r1, [r4, #60]
 211:System/scheduler/scheduler.c ****     Tsk_Ptr_tmp = (uint32_t *)((uint32_t)(Tsk_Ptr_tmp)&0XFFFFFFF8ul);
 359              		.loc 1 211 35 view .LVU103
 360 0016 6FF04042 		mvn	r2, #-1073741824
 361 001a 0A44     		add	r2, r2, r1
 211:System/scheduler/scheduler.c ****     Tsk_Ptr_tmp = (uint32_t *)((uint32_t)(Tsk_Ptr_tmp)&0XFFFFFFF8ul);
 362              		.loc 1 211 17 view .LVU104
 363 001c 03EB8203 		add	r3, r3, r2, lsl #2
 364              	.LVL22:
 212:System/scheduler/scheduler.c **** 
 365              		.loc 1 212 5 is_stmt 1 view .LVU105
 212:System/scheduler/scheduler.c **** 
 366              		.loc 1 212 55 is_stmt 0 view .LVU106
 367 0020 23F00703 		bic	r3, r3, #7
 368              	.LVL23:
 214:System/scheduler/scheduler.c ****     *Tsk_Ptr_tmp = 0x01000000uL; /* xPSR */
 369              		.loc 1 214 5 is_stmt 1 view .LVU107
 215:System/scheduler/scheduler.c **** 
 370              		.loc 1 215 5 view .LVU108
 215:System/scheduler/scheduler.c **** 
 371              		.loc 1 215 18 is_stmt 0 view .LVU109
 372 0024 4FF08072 		mov	r2, #16777216
 373 0028 43F8042C 		str	r2, [r3, #-4]
 217:System/scheduler/scheduler.c ****     *Tsk_Ptr_tmp = ((uint32_t)Os_TaskCaller) & 0xfffffffeUL; /* PC */
 374              		.loc 1 217 5 is_stmt 1 view .LVU110
 375              	.LVL24:
ARM GAS  /var/folders/lx/hc4sn_b53233_zkc9xbbl97r0000gp/T//ccNoczxI.s 			page 18


 218:System/scheduler/scheduler.c **** 
 376              		.loc 1 218 5 view .LVU111
 218:System/scheduler/scheduler.c **** 
 377              		.loc 1 218 21 is_stmt 0 view .LVU112
 378 002c 084A     		ldr	r2, .L29
 218:System/scheduler/scheduler.c **** 
 379              		.loc 1 218 46 view .LVU113
 380 002e 22F00102 		bic	r2, r2, #1
 218:System/scheduler/scheduler.c **** 
 381              		.loc 1 218 18 view .LVU114
 382 0032 43F8082C 		str	r2, [r3, #-8]
 220:System/scheduler/scheduler.c ****     *Tsk_Ptr_tmp = (uint32_t)Os_TaskExit; /* LR */
 383              		.loc 1 220 5 is_stmt 1 view .LVU115
 384              	.LVL25:
 221:System/scheduler/scheduler.c **** 
 385              		.loc 1 221 5 view .LVU116
 221:System/scheduler/scheduler.c **** 
 386              		.loc 1 221 20 is_stmt 0 view .LVU117
 387 0036 074A     		ldr	r2, .L29+4
 221:System/scheduler/scheduler.c **** 
 388              		.loc 1 221 18 view .LVU118
 389 0038 43F80C2C 		str	r2, [r3, #-12]
 224:System/scheduler/scheduler.c ****     *Tsk_Ptr_tmp = (uint32_t)NULL; /* R0 */
 390              		.loc 1 224 5 is_stmt 1 view .LVU119
 391              	.LVL26:
 225:System/scheduler/scheduler.c **** 
 392              		.loc 1 225 5 view .LVU120
 225:System/scheduler/scheduler.c **** 
 393              		.loc 1 225 18 is_stmt 0 view .LVU121
 394 003c 0022     		movs	r2, #0
 395 003e 43F8202C 		str	r2, [r3, #-32]
 229:System/scheduler/scheduler.c ****     *Tsk_Ptr_tmp = 0xfffffffd;
 396              		.loc 1 229 5 is_stmt 1 view .LVU122
 397              	.LVL27:
 230:System/scheduler/scheduler.c **** 
 398              		.loc 1 230 5 view .LVU123
 230:System/scheduler/scheduler.c **** 
 399              		.loc 1 230 18 is_stmt 0 view .LVU124
 400 0042 6FF00202 		mvn	r2, #2
 401 0046 43F8242C 		str	r2, [r3, #-36]
 232:System/scheduler/scheduler.c **** 
 402              		.loc 1 232 5 is_stmt 1 view .LVU125
 232:System/scheduler/scheduler.c **** 
 403              		.loc 1 232 17 is_stmt 0 view .LVU126
 404 004a 443B     		subs	r3, r3, #68
 405              	.LVL28:
 235:System/scheduler/scheduler.c **** }
 406              		.loc 1 235 5 is_stmt 1 view .LVU127
 235:System/scheduler/scheduler.c **** }
 407              		.loc 1 235 26 is_stmt 0 view .LVU128
 408 004c 2364     		str	r3, [r4, #64]
 236:System/scheduler/scheduler.c **** 
 409              		.loc 1 236 1 view .LVU129
 410 004e 10BD     		pop	{r4, pc}
 411              	.LVL29:
 412              	.L30:
 236:System/scheduler/scheduler.c **** 
ARM GAS  /var/folders/lx/hc4sn_b53233_zkc9xbbl97r0000gp/T//ccNoczxI.s 			page 19


 413              		.loc 1 236 1 view .LVU130
 414              		.align	2
 415              	.L29:
 416 0050 00000000 		.word	Os_TaskCaller
 417 0054 00000000 		.word	Os_TaskExit
 418              		.cfi_endproc
 419              	.LFE343:
 421              		.global	__aeabi_ul2f
 422              		.section	.text.Os_TaskExec,"ax",%progbits
 423              		.align	1
 424              		.syntax unified
 425              		.thumb
 426              		.thumb_func
 427              		.fpu fpv5-d16
 429              	Os_TaskExec:
 430              	.LVL30:
 431              	.LFB355:
 543:System/scheduler/scheduler.c **** 
 544:System/scheduler/scheduler.c **** static void Os_TaskExec(Task *tsk_ptr)
 545:System/scheduler/scheduler.c **** {
 432              		.loc 1 545 1 is_stmt 1 view -0
 433              		.cfi_startproc
 434              		@ args = 0, pretend = 0, frame = 8
 435              		@ frame_needed = 0, uses_anonymous_args = 0
 436              		.loc 1 545 1 is_stmt 0 view .LVU132
 437 0000 70B5     		push	{r4, r5, r6, lr}
 438              	.LCFI8:
 439              		.cfi_def_cfa_offset 16
 440              		.cfi_offset 4, -16
 441              		.cfi_offset 5, -12
 442              		.cfi_offset 6, -8
 443              		.cfi_offset 14, -4
 444 0002 2DED028B 		vpush.64	{d8}
 445              	.LCFI9:
 446              		.cfi_def_cfa_offset 24
 447              		.cfi_offset 80, -24
 448              		.cfi_offset 81, -20
 449 0006 82B0     		sub	sp, sp, #8
 450              	.LCFI10:
 451              		.cfi_def_cfa_offset 32
 546:System/scheduler/scheduler.c ****     SYSTEM_RunTime time_diff;
 452              		.loc 1 546 5 is_stmt 1 view .LVU133
 547:System/scheduler/scheduler.c ****     RuntimeObj_Reset(&time_diff);
 453              		.loc 1 547 5 view .LVU134
 454 0008 6846     		mov	r0, sp
 455              	.LVL31:
 456              		.loc 1 547 5 is_stmt 0 view .LVU135
 457 000a FFF7FEFF 		bl	RuntimeObj_Reset
 458              	.LVL32:
 548:System/scheduler/scheduler.c **** 
 549:System/scheduler/scheduler.c ****     tsk_ptr = NxtRunTsk_Ptr;
 459              		.loc 1 549 5 is_stmt 1 view .LVU136
 460              		.loc 1 549 13 is_stmt 0 view .LVU137
 461 000e 354B     		ldr	r3, .L42
 462 0010 1C68     		ldr	r4, [r3]
 463              	.LVL33:
 550:System/scheduler/scheduler.c **** 
ARM GAS  /var/folders/lx/hc4sn_b53233_zkc9xbbl97r0000gp/T//ccNoczxI.s 			page 20


 551:System/scheduler/scheduler.c ****     if (tsk_ptr->State == Task_Ready)
 464              		.loc 1 551 5 is_stmt 1 view .LVU138
 465              		.loc 1 551 16 is_stmt 0 view .LVU139
 466 0012 2378     		ldrb	r3, [r4]	@ zero_extendqisi2
 467              		.loc 1 551 8 view .LVU140
 468 0014 012B     		cmp	r3, #1
 469 0016 03D0     		beq	.L39
 470              	.L31:
 552:System/scheduler/scheduler.c ****     {
 553:System/scheduler/scheduler.c ****         tsk_ptr->TskFuncUing_US = 0;
 554:System/scheduler/scheduler.c **** 
 555:System/scheduler/scheduler.c ****         // when task function execute finish reset ready flag of current task in group
 556:System/scheduler/scheduler.c ****         // code down below
 557:System/scheduler/scheduler.c ****         Os_Clr_TaskReady(tsk_ptr);
 558:System/scheduler/scheduler.c **** 
 559:System/scheduler/scheduler.c ****         // set current running task
 560:System/scheduler/scheduler.c ****         CurRunTsk_Ptr = tsk_ptr;
 561:System/scheduler/scheduler.c **** 
 562:System/scheduler/scheduler.c ****         if (tsk_ptr->Exec_status.Exec_cnt == 0)
 563:System/scheduler/scheduler.c ****         {
 564:System/scheduler/scheduler.c ****             tsk_ptr->Exec_status.Start_Time = Get_CurrentRunningUs();
 565:System/scheduler/scheduler.c ****             tsk_ptr->Exec_status.Exec_Time = tsk_ptr->Exec_status.Start_Time;
 566:System/scheduler/scheduler.c ****         }
 567:System/scheduler/scheduler.c **** 
 568:System/scheduler/scheduler.c ****         if (tsk_ptr->Exec_Func != NULL)
 569:System/scheduler/scheduler.c ****         {
 570:System/scheduler/scheduler.c ****             tsk_ptr->State = Task_Running;
 571:System/scheduler/scheduler.c **** 
 572:System/scheduler/scheduler.c ****             // execute task funtion
 573:System/scheduler/scheduler.c ****             tsk_ptr->Exec_Func(*&tsk_ptr);
 574:System/scheduler/scheduler.c ****         }
 575:System/scheduler/scheduler.c ****         else
 576:System/scheduler/scheduler.c ****         {
 577:System/scheduler/scheduler.c ****             tsk_ptr->State = Task_Stop;
 578:System/scheduler/scheduler.c ****             return;
 579:System/scheduler/scheduler.c ****         }
 580:System/scheduler/scheduler.c **** 
 581:System/scheduler/scheduler.c ****         // record task running times
 582:System/scheduler/scheduler.c ****         tsk_ptr->Exec_status.Exec_cnt++;
 583:System/scheduler/scheduler.c **** 
 584:System/scheduler/scheduler.c ****         // get task total execute time unit in us
 585:System/scheduler/scheduler.c ****         tsk_ptr->Exec_status.Running_Time += tsk_ptr->TskFuncUing_US;
 586:System/scheduler/scheduler.c ****         time_diff = Get_TimeDifference_Between(tsk_ptr->Exec_status.Start_Time, tsk_ptr->Exec_statu
 587:System/scheduler/scheduler.c **** 
 588:System/scheduler/scheduler.c ****         tsk_ptr->Exec_status.cpu_opy = tsk_ptr->Exec_status.Running_Time / (float)time_diff;
 589:System/scheduler/scheduler.c ****         tsk_ptr->Exec_status.cpu_opy *= 100;
 590:System/scheduler/scheduler.c **** 
 591:System/scheduler/scheduler.c ****         tsk_ptr->Exec_status.Exec_Time = Get_TargetRunTime(tsk_ptr->exec_interval_us);
 592:System/scheduler/scheduler.c **** 
 593:System/scheduler/scheduler.c ****         // get task execute frequence
 594:System/scheduler/scheduler.c ****         if (tsk_ptr->Exec_status.Exec_cnt)
 595:System/scheduler/scheduler.c ****         {
 596:System/scheduler/scheduler.c ****             tsk_ptr->Exec_status.detect_exec_frq = (uint32_t)(tsk_ptr->Exec_status.Exec_cnt / (floa
 597:System/scheduler/scheduler.c ****         }
 598:System/scheduler/scheduler.c **** 
 599:System/scheduler/scheduler.c ****         tsk_ptr->State = Task_Stop;
 600:System/scheduler/scheduler.c ****     }
ARM GAS  /var/folders/lx/hc4sn_b53233_zkc9xbbl97r0000gp/T//ccNoczxI.s 			page 21


 601:System/scheduler/scheduler.c **** }
 471              		.loc 1 601 1 view .LVU141
 472 0018 02B0     		add	sp, sp, #8
 473              	.LCFI11:
 474              		.cfi_remember_state
 475              		.cfi_def_cfa_offset 24
 476              		@ sp needed
 477 001a BDEC028B 		vldm	sp!, {d8}
 478              	.LCFI12:
 479              		.cfi_restore 80
 480              		.cfi_restore 81
 481              		.cfi_def_cfa_offset 16
 482 001e 70BD     		pop	{r4, r5, r6, pc}
 483              	.LVL34:
 484              	.L39:
 485              	.LCFI13:
 486              		.cfi_restore_state
 553:System/scheduler/scheduler.c **** 
 487              		.loc 1 553 9 is_stmt 1 view .LVU142
 553:System/scheduler/scheduler.c **** 
 488              		.loc 1 553 33 is_stmt 0 view .LVU143
 489 0020 0023     		movs	r3, #0
 490 0022 A364     		str	r3, [r4, #72]
 557:System/scheduler/scheduler.c **** 
 491              		.loc 1 557 9 is_stmt 1 view .LVU144
 492 0024 2046     		mov	r0, r4
 493 0026 FFF7FEFF 		bl	Os_Clr_TaskReady
 494              	.LVL35:
 560:System/scheduler/scheduler.c **** 
 495              		.loc 1 560 9 view .LVU145
 560:System/scheduler/scheduler.c **** 
 496              		.loc 1 560 23 is_stmt 0 view .LVU146
 497 002a 2F4B     		ldr	r3, .L42+4
 498 002c 1C60     		str	r4, [r3]
 562:System/scheduler/scheduler.c ****         {
 499              		.loc 1 562 9 is_stmt 1 view .LVU147
 562:System/scheduler/scheduler.c ****         {
 500              		.loc 1 562 33 is_stmt 0 view .LVU148
 501 002e A36A     		ldr	r3, [r4, #40]
 562:System/scheduler/scheduler.c ****         {
 502              		.loc 1 562 12 view .LVU149
 503 0030 002B     		cmp	r3, #0
 504 0032 3BD0     		beq	.L40
 505              	.L33:
 568:System/scheduler/scheduler.c ****         {
 506              		.loc 1 568 9 is_stmt 1 view .LVU150
 568:System/scheduler/scheduler.c ****         {
 507              		.loc 1 568 20 is_stmt 0 view .LVU151
 508 0034 2369     		ldr	r3, [r4, #16]
 568:System/scheduler/scheduler.c ****         {
 509              		.loc 1 568 12 view .LVU152
 510 0036 002B     		cmp	r3, #0
 511 0038 3FD0     		beq	.L34
 570:System/scheduler/scheduler.c **** 
 512              		.loc 1 570 13 is_stmt 1 view .LVU153
 570:System/scheduler/scheduler.c **** 
 513              		.loc 1 570 28 is_stmt 0 view .LVU154
ARM GAS  /var/folders/lx/hc4sn_b53233_zkc9xbbl97r0000gp/T//ccNoczxI.s 			page 22


 514 003a 0222     		movs	r2, #2
 515 003c 2270     		strb	r2, [r4]
 573:System/scheduler/scheduler.c ****         }
 516              		.loc 1 573 13 is_stmt 1 view .LVU155
 517 003e 2046     		mov	r0, r4
 518 0040 9847     		blx	r3
 519              	.LVL36:
 582:System/scheduler/scheduler.c **** 
 520              		.loc 1 582 9 view .LVU156
 582:System/scheduler/scheduler.c **** 
 521              		.loc 1 582 29 is_stmt 0 view .LVU157
 522 0042 A36A     		ldr	r3, [r4, #40]
 582:System/scheduler/scheduler.c **** 
 523              		.loc 1 582 38 view .LVU158
 524 0044 0133     		adds	r3, r3, #1
 525 0046 A362     		str	r3, [r4, #40]
 585:System/scheduler/scheduler.c ****         time_diff = Get_TimeDifference_Between(tsk_ptr->Exec_status.Start_Time, tsk_ptr->Exec_statu
 526              		.loc 1 585 9 is_stmt 1 view .LVU159
 585:System/scheduler/scheduler.c ****         time_diff = Get_TimeDifference_Between(tsk_ptr->Exec_status.Start_Time, tsk_ptr->Exec_statu
 527              		.loc 1 585 53 is_stmt 0 view .LVU160
 528 0048 A16C     		ldr	r1, [r4, #72]
 585:System/scheduler/scheduler.c ****         time_diff = Get_TimeDifference_Between(tsk_ptr->Exec_status.Start_Time, tsk_ptr->Exec_statu
 529              		.loc 1 585 43 view .LVU161
 530 004a 236B     		ldr	r3, [r4, #48]
 531 004c 626B     		ldr	r2, [r4, #52]
 532 004e 5B18     		adds	r3, r3, r1
 533 0050 42F10002 		adc	r2, r2, #0
 534 0054 2363     		str	r3, [r4, #48]
 535 0056 6263     		str	r2, [r4, #52]
 586:System/scheduler/scheduler.c **** 
 536              		.loc 1 586 9 is_stmt 1 view .LVU162
 586:System/scheduler/scheduler.c **** 
 537              		.loc 1 586 21 is_stmt 0 view .LVU163
 538 0058 6269     		ldr	r2, [r4, #20]
 539 005a A369     		ldr	r3, [r4, #24]
 540 005c E069     		ldr	r0, [r4, #28]
 541 005e 216A     		ldr	r1, [r4, #32]
 542 0060 FFF7FEFF 		bl	Get_TimeDifference_Between
 543              	.LVL37:
 544 0064 0246     		mov	r2, r0
 545 0066 0B46     		mov	r3, r1
 586:System/scheduler/scheduler.c **** 
 546              		.loc 1 586 19 view .LVU164
 547 0068 CDE90023 		strd	r2, [sp]
 588:System/scheduler/scheduler.c ****         tsk_ptr->Exec_status.cpu_opy *= 100;
 548              		.loc 1 588 9 is_stmt 1 view .LVU165
 588:System/scheduler/scheduler.c ****         tsk_ptr->Exec_status.cpu_opy *= 100;
 549              		.loc 1 588 60 is_stmt 0 view .LVU166
 550 006c 266B     		ldr	r6, [r4, #48]
 551 006e 656B     		ldr	r5, [r4, #52]
 588:System/scheduler/scheduler.c ****         tsk_ptr->Exec_status.cpu_opy *= 100;
 552              		.loc 1 588 76 view .LVU167
 553 0070 FFF7FEFF 		bl	__aeabi_ul2f
 554              	.LVL38:
 555 0074 08EE100A 		vmov	s16, r0
 588:System/scheduler/scheduler.c ****         tsk_ptr->Exec_status.cpu_opy *= 100;
 556              		.loc 1 588 74 view .LVU168
ARM GAS  /var/folders/lx/hc4sn_b53233_zkc9xbbl97r0000gp/T//ccNoczxI.s 			page 23


 557 0078 3046     		mov	r0, r6
 558 007a 2946     		mov	r1, r5
 559 007c FFF7FEFF 		bl	__aeabi_ul2f
 560              	.LVL39:
 561 0080 07EE100A 		vmov	s14, r0
 562 0084 C7EE087A 		vdiv.f32	s15, s14, s16
 588:System/scheduler/scheduler.c ****         tsk_ptr->Exec_status.cpu_opy *= 100;
 563              		.loc 1 588 38 view .LVU169
 564 0088 C4ED0E7A 		vstr.32	s15, [r4, #56]
 589:System/scheduler/scheduler.c **** 
 565              		.loc 1 589 9 is_stmt 1 view .LVU170
 589:System/scheduler/scheduler.c **** 
 566              		.loc 1 589 38 is_stmt 0 view .LVU171
 567 008c 9FED177A 		vldr.32	s14, .L42+8
 568 0090 67EE877A 		vmul.f32	s15, s15, s14
 569 0094 C4ED0E7A 		vstr.32	s15, [r4, #56]
 591:System/scheduler/scheduler.c **** 
 570              		.loc 1 591 9 is_stmt 1 view .LVU172
 591:System/scheduler/scheduler.c **** 
 571              		.loc 1 591 42 is_stmt 0 view .LVU173
 572 0098 A089     		ldrh	r0, [r4, #12]
 573 009a FFF7FEFF 		bl	Get_TargetRunTime
 574              	.LVL40:
 591:System/scheduler/scheduler.c **** 
 575              		.loc 1 591 40 view .LVU174
 576 009e 6061     		str	r0, [r4, #20]
 577 00a0 A161     		str	r1, [r4, #24]
 594:System/scheduler/scheduler.c ****         {
 578              		.loc 1 594 9 is_stmt 1 view .LVU175
 594:System/scheduler/scheduler.c ****         {
 579              		.loc 1 594 33 is_stmt 0 view .LVU176
 580 00a2 A56A     		ldr	r5, [r4, #40]
 594:System/scheduler/scheduler.c ****         {
 581              		.loc 1 594 12 view .LVU177
 582 00a4 65B9     		cbnz	r5, .L41
 583              	.L36:
 599:System/scheduler/scheduler.c ****     }
 584              		.loc 1 599 9 is_stmt 1 view .LVU178
 599:System/scheduler/scheduler.c ****     }
 585              		.loc 1 599 24 is_stmt 0 view .LVU179
 586 00a6 0323     		movs	r3, #3
 587 00a8 2370     		strb	r3, [r4]
 588 00aa B5E7     		b	.L31
 589              	.L40:
 564:System/scheduler/scheduler.c ****             tsk_ptr->Exec_status.Exec_Time = tsk_ptr->Exec_status.Start_Time;
 590              		.loc 1 564 13 is_stmt 1 view .LVU180
 564:System/scheduler/scheduler.c ****             tsk_ptr->Exec_status.Exec_Time = tsk_ptr->Exec_status.Start_Time;
 591              		.loc 1 564 47 is_stmt 0 view .LVU181
 592 00ac FFF7FEFF 		bl	Get_CurrentRunningUs
 593              	.LVL41:
 564:System/scheduler/scheduler.c ****             tsk_ptr->Exec_status.Exec_Time = tsk_ptr->Exec_status.Start_Time;
 594              		.loc 1 564 45 view .LVU182
 595 00b0 E061     		str	r0, [r4, #28]
 596 00b2 2162     		str	r1, [r4, #32]
 565:System/scheduler/scheduler.c ****         }
 597              		.loc 1 565 13 is_stmt 1 view .LVU183
 565:System/scheduler/scheduler.c ****         }
ARM GAS  /var/folders/lx/hc4sn_b53233_zkc9xbbl97r0000gp/T//ccNoczxI.s 			page 24


 598              		.loc 1 565 44 is_stmt 0 view .LVU184
 599 00b4 6061     		str	r0, [r4, #20]
 600 00b6 A161     		str	r1, [r4, #24]
 601 00b8 BCE7     		b	.L33
 602              	.L34:
 577:System/scheduler/scheduler.c ****             return;
 603              		.loc 1 577 13 is_stmt 1 view .LVU185
 577:System/scheduler/scheduler.c ****             return;
 604              		.loc 1 577 28 is_stmt 0 view .LVU186
 605 00ba 0323     		movs	r3, #3
 606 00bc 2370     		strb	r3, [r4]
 578:System/scheduler/scheduler.c ****         }
 607              		.loc 1 578 13 is_stmt 1 view .LVU187
 608 00be ABE7     		b	.L31
 609              	.L41:
 596:System/scheduler/scheduler.c ****         }
 610              		.loc 1 596 13 view .LVU188
 596:System/scheduler/scheduler.c ****         }
 611              		.loc 1 596 103 is_stmt 0 view .LVU189
 612 00c0 FFF7FEFF 		bl	Get_CurrentRunningS
 613              	.LVL42:
 596:System/scheduler/scheduler.c ****         }
 614              		.loc 1 596 95 view .LVU190
 615 00c4 FFF7FEFF 		bl	__aeabi_ul2f
 616              	.LVL43:
 617 00c8 06EE900A 		vmov	s13, r0
 596:System/scheduler/scheduler.c ****         }
 618              		.loc 1 596 93 view .LVU191
 619 00cc 07EE905A 		vmov	s15, r5	@ int
 620 00d0 F8EE677A 		vcvt.f32.u32	s15, s15
 621 00d4 87EEA67A 		vdiv.f32	s14, s15, s13
 596:System/scheduler/scheduler.c ****         }
 622              		.loc 1 596 52 view .LVU192
 623 00d8 BCEEC77A 		vcvt.u32.f32	s14, s14
 596:System/scheduler/scheduler.c ****         }
 624              		.loc 1 596 50 view .LVU193
 625 00dc 84ED097A 		vstr.32	s14, [r4, #36]	@ int
 626 00e0 E1E7     		b	.L36
 627              	.L43:
 628 00e2 00BF     		.align	2
 629              	.L42:
 630 00e4 00000000 		.word	.LANCHOR1
 631 00e8 00000000 		.word	.LANCHOR2
 632 00ec 0000C842 		.word	1120403456
 633              		.cfi_endproc
 634              	.LFE355:
 636              		.section	.text.Os_TaskCaller,"ax",%progbits
 637              		.align	1
 638              		.syntax unified
 639              		.thumb
 640              		.thumb_func
 641              		.fpu fpv5-d16
 643              	Os_TaskCaller:
 644              	.LFB356:
 602:System/scheduler/scheduler.c **** 
 603:System/scheduler/scheduler.c **** static void Os_TaskCaller(void)
 604:System/scheduler/scheduler.c **** {
ARM GAS  /var/folders/lx/hc4sn_b53233_zkc9xbbl97r0000gp/T//ccNoczxI.s 			page 25


 645              		.loc 1 604 1 is_stmt 1 view -0
 646              		.cfi_startproc
 647              		@ Volatile: function does not return.
 648              		@ args = 0, pretend = 0, frame = 0
 649              		@ frame_needed = 0, uses_anonymous_args = 0
 650 0000 08B5     		push	{r3, lr}
 651              	.LCFI14:
 652              		.cfi_def_cfa_offset 8
 653              		.cfi_offset 3, -8
 654              		.cfi_offset 14, -4
 655 0002 04E0     		b	.L45
 656              	.L48:
 605:System/scheduler/scheduler.c ****     // if any task in any group is under ready state
 606:System/scheduler/scheduler.c ****     while (true)
 607:System/scheduler/scheduler.c ****     {
 608:System/scheduler/scheduler.c ****         if (CurRunTsk_Ptr != NULL)
 609:System/scheduler/scheduler.c ****         {
 610:System/scheduler/scheduler.c ****             // execute task function in function matrix
 611:System/scheduler/scheduler.c ****             Os_TaskExec(CurRunTsk_Ptr);
 657              		.loc 1 611 13 view .LVU195
 658 0004 FFF7FEFF 		bl	Os_TaskExec
 659              	.LVL44:
 612:System/scheduler/scheduler.c **** 
 613:System/scheduler/scheduler.c ****             // erase currnet runnint task pointer
 614:System/scheduler/scheduler.c ****             CurRunTsk_Ptr = NULL;
 660              		.loc 1 614 13 view .LVU196
 661              		.loc 1 614 27 is_stmt 0 view .LVU197
 662 0008 034B     		ldr	r3, .L49
 663 000a 0022     		movs	r2, #0
 664 000c 1A60     		str	r2, [r3]
 665              	.L45:
 606:System/scheduler/scheduler.c ****     {
 666              		.loc 1 606 5 is_stmt 1 view .LVU198
 608:System/scheduler/scheduler.c ****         {
 667              		.loc 1 608 9 view .LVU199
 608:System/scheduler/scheduler.c ****         {
 668              		.loc 1 608 27 is_stmt 0 view .LVU200
 669 000e 024B     		ldr	r3, .L49
 670 0010 1868     		ldr	r0, [r3]
 608:System/scheduler/scheduler.c ****         {
 671              		.loc 1 608 12 view .LVU201
 672 0012 0028     		cmp	r0, #0
 673 0014 F6D1     		bne	.L48
 674 0016 FAE7     		b	.L45
 675              	.L50:
 676              		.align	2
 677              	.L49:
 678 0018 00000000 		.word	.LANCHOR2
 679              		.cfi_endproc
 680              	.LFE356:
 682              		.section	.text.Os_LoadFirstTask,"ax",%progbits
 683              		.align	1
 684              		.global	Os_LoadFirstTask
 685              		.syntax unified
 686              		.thumb
 687              		.thumb_func
 688              		.fpu fpv5-d16
ARM GAS  /var/folders/lx/hc4sn_b53233_zkc9xbbl97r0000gp/T//ccNoczxI.s 			page 26


 690              	Os_LoadFirstTask:
 691              	.LFB340:
 128:System/scheduler/scheduler.c ****     __ASM("LDR	  R3, =CurTsk_TCB");
 692              		.loc 1 128 1 is_stmt 1 view -0
 693              		.cfi_startproc
 694              		@ Naked Function: prologue and epilogue provided by programmer.
 695              		@ args = 0, pretend = 0, frame = 0
 696              		@ frame_needed = 0, uses_anonymous_args = 0
 129:System/scheduler/scheduler.c ****     __ASM("LDR    R1, [R3]");
 697              		.loc 1 129 5 view .LVU203
 698              		.syntax unified
 699              	@ 129 "System/scheduler/scheduler.c" 1
 700 0000 074B     		LDR	  R3, =CurTsk_TCB
 701              	@ 0 "" 2
 130:System/scheduler/scheduler.c ****     __ASM("LDR    R0, [R1]");
 702              		.loc 1 130 5 view .LVU204
 703              	@ 130 "System/scheduler/scheduler.c" 1
 704 0002 1968     		LDR    R1, [R3]
 705              	@ 0 "" 2
 131:System/scheduler/scheduler.c **** 
 706              		.loc 1 131 5 view .LVU205
 707              	@ 131 "System/scheduler/scheduler.c" 1
 708 0004 0868     		LDR    R0, [R1]
 709              	@ 0 "" 2
 133:System/scheduler/scheduler.c **** 
 710              		.loc 1 133 5 view .LVU206
 711              	@ 133 "System/scheduler/scheduler.c" 1
 712 0006 B0E8F04F 		LDMIA  R0!, {R4-R11, R14}
 713              	@ 0 "" 2
 136:System/scheduler/scheduler.c ****     __ASM("IT       EQ");
 714              		.loc 1 136 5 view .LVU207
 715              	@ 136 "System/scheduler/scheduler.c" 1
 716 000a 1EF0100F 		TST      R14, #0x10
 717              	@ 0 "" 2
 137:System/scheduler/scheduler.c ****     __ASM("VLDMIAEQ R0!, {s16-s31}");
 718              		.loc 1 137 5 view .LVU208
 719              	@ 137 "System/scheduler/scheduler.c" 1
 720 000e 08BF     		IT       EQ
 721              	@ 0 "" 2
 138:System/scheduler/scheduler.c ****     /******************************  FPU SECTION  *********************************/
 722              		.loc 1 138 5 view .LVU209
 723              	@ 138 "System/scheduler/scheduler.c" 1
 724 0010 B0EC108A 		VLDMIAEQ R0!, {s16-s31}
 725              	@ 0 "" 2
 141:System/scheduler/scheduler.c ****     __ASM("ISB");
 726              		.loc 1 141 5 view .LVU210
 727              	@ 141 "System/scheduler/scheduler.c" 1
 728 0014 80F30988 		MSR    PSP, R0
 729              	@ 0 "" 2
 142:System/scheduler/scheduler.c ****     //__ASM("MOV    R0, #240");
 730              		.loc 1 142 5 view .LVU211
 731              	@ 142 "System/scheduler/scheduler.c" 1
 732 0018 BFF36F8F 		ISB
 733              	@ 0 "" 2
 145:System/scheduler/scheduler.c ****     __ASM(".ALIGN 4");
 734              		.loc 1 145 5 view .LVU212
 735              	@ 145 "System/scheduler/scheduler.c" 1
ARM GAS  /var/folders/lx/hc4sn_b53233_zkc9xbbl97r0000gp/T//ccNoczxI.s 			page 27


 736 001c 7047     		BX     R14
 737              	@ 0 "" 2
 146:System/scheduler/scheduler.c **** }
 738              		.loc 1 146 5 view .LVU213
 739              	@ 146 "System/scheduler/scheduler.c" 1
 740 001e 00BF     		.ALIGN 4
 741              	@ 0 "" 2
 147:System/scheduler/scheduler.c **** 
 742              		.loc 1 147 1 is_stmt 0 view .LVU214
 743              		.thumb
 744              		.syntax unified
 745              		.cfi_endproc
 746              	.LFE340:
 748              		.section	.text.Os_SwitchContext,"ax",%progbits
 749              		.align	1
 750              		.global	Os_SwitchContext
 751              		.syntax unified
 752              		.thumb
 753              		.thumb_func
 754              		.fpu fpv5-d16
 756              	Os_SwitchContext:
 757              	.LFB341:
 150:System/scheduler/scheduler.c ****     __ASM("MRS      R0, PSP");
 758              		.loc 1 150 1 is_stmt 1 view -0
 759              		.cfi_startproc
 760              		@ Naked Function: prologue and epilogue provided by programmer.
 761              		@ args = 0, pretend = 0, frame = 0
 762              		@ frame_needed = 0, uses_anonymous_args = 0
 151:System/scheduler/scheduler.c ****     __ASM("ISB");
 763              		.loc 1 151 5 view .LVU216
 764              		.syntax unified
 765              	@ 151 "System/scheduler/scheduler.c" 1
 766 0000 EFF30980 		MRS      R0, PSP
 767              	@ 0 "" 2
 152:System/scheduler/scheduler.c **** 
 768              		.loc 1 152 5 view .LVU217
 769              	@ 152 "System/scheduler/scheduler.c" 1
 770 0004 BFF36F8F 		ISB
 771              	@ 0 "" 2
 154:System/scheduler/scheduler.c ****     __ASM("LDR      R2, [R3]");
 772              		.loc 1 154 5 view .LVU218
 773              	@ 154 "System/scheduler/scheduler.c" 1
 774 0008 DFF85030 		LDR      R3, CurrentTCBConst_Tmp
 775              	@ 0 "" 2
 155:System/scheduler/scheduler.c **** 
 776              		.loc 1 155 5 view .LVU219
 777              	@ 155 "System/scheduler/scheduler.c" 1
 778 000c 1A68     		LDR      R2, [R3]
 779              	@ 0 "" 2
 158:System/scheduler/scheduler.c ****     __ASM("IT       EQ");
 780              		.loc 1 158 5 view .LVU220
 781              	@ 158 "System/scheduler/scheduler.c" 1
 782 000e 1EF0100F 		TST      R14, #0x10
 783              	@ 0 "" 2
 159:System/scheduler/scheduler.c ****     __ASM("VSTMDBEQ R0!, {s16-s31}");
 784              		.loc 1 159 5 view .LVU221
 785              	@ 159 "System/scheduler/scheduler.c" 1
ARM GAS  /var/folders/lx/hc4sn_b53233_zkc9xbbl97r0000gp/T//ccNoczxI.s 			page 28


 786 0012 08BF     		IT       EQ
 787              	@ 0 "" 2
 160:System/scheduler/scheduler.c ****     /******************************  FPU SECTION  *********************************/
 788              		.loc 1 160 5 view .LVU222
 789              	@ 160 "System/scheduler/scheduler.c" 1
 790 0014 20ED108A 		VSTMDBEQ R0!, {s16-s31}
 791              	@ 0 "" 2
 163:System/scheduler/scheduler.c ****     __ASM("STR      R0, [R2]");
 792              		.loc 1 163 5 view .LVU223
 793              	@ 163 "System/scheduler/scheduler.c" 1
 794 0018 20E9F04F 		STMDB    R0!, {R4-R11, R14}
 795              	@ 0 "" 2
 164:System/scheduler/scheduler.c **** 
 796              		.loc 1 164 5 view .LVU224
 797              	@ 164 "System/scheduler/scheduler.c" 1
 798 001c 1060     		STR      R0, [R2]
 799              	@ 0 "" 2
 166:System/scheduler/scheduler.c ****     __ASM("MOV      R0, %0" ::"i"(0x50));
 800              		.loc 1 166 5 view .LVU225
 801              	@ 166 "System/scheduler/scheduler.c" 1
 802 001e 2DE90900 		STMDB    SP!, {R0, R3}
 803              	@ 0 "" 2
 167:System/scheduler/scheduler.c ****     __ASM("MSR      BASEPRI, R0");
 804              		.loc 1 167 5 view .LVU226
 805              	@ 167 "System/scheduler/scheduler.c" 1
 806 0022 4FF05000 		MOV      R0, #80
 807              	@ 0 "" 2
 168:System/scheduler/scheduler.c **** 
 808              		.loc 1 168 5 view .LVU227
 809              	@ 168 "System/scheduler/scheduler.c" 1
 810 0026 80F31188 		MSR      BASEPRI, R0
 811              	@ 0 "" 2
 170:System/scheduler/scheduler.c ****     __ASM("ISB");
 812              		.loc 1 170 5 view .LVU228
 813              	@ 170 "System/scheduler/scheduler.c" 1
 814 002a BFF34F8F 		DSB
 815              	@ 0 "" 2
 171:System/scheduler/scheduler.c **** 
 816              		.loc 1 171 5 view .LVU229
 817              	@ 171 "System/scheduler/scheduler.c" 1
 818 002e BFF36F8F 		ISB
 819              	@ 0 "" 2
 173:System/scheduler/scheduler.c **** 
 820              		.loc 1 173 5 view .LVU230
 821              	@ 173 "System/scheduler/scheduler.c" 1
 822 0032 FFF7FEFF 		BL       Os_SwitchTaskStack
 823              	@ 0 "" 2
 175:System/scheduler/scheduler.c ****     __ASM("MSR      BASEPRI, R0");
 824              		.loc 1 175 5 view .LVU231
 825              	@ 175 "System/scheduler/scheduler.c" 1
 826 0036 4FF00000 		MOV      R0, #0
 827              	@ 0 "" 2
 176:System/scheduler/scheduler.c ****     __ASM("LDMIA    SP!, {R0, R3}");
 828              		.loc 1 176 5 view .LVU232
 829              	@ 176 "System/scheduler/scheduler.c" 1
 830 003a 80F31188 		MSR      BASEPRI, R0
 831              	@ 0 "" 2
ARM GAS  /var/folders/lx/hc4sn_b53233_zkc9xbbl97r0000gp/T//ccNoczxI.s 			page 29


 177:System/scheduler/scheduler.c **** 
 832              		.loc 1 177 5 view .LVU233
 833              	@ 177 "System/scheduler/scheduler.c" 1
 834 003e 09BC     		LDMIA    SP!, {R0, R3}
 835              	@ 0 "" 2
 179:System/scheduler/scheduler.c ****     __ASM("LDR      R0, [R1]");
 836              		.loc 1 179 5 view .LVU234
 837              	@ 179 "System/scheduler/scheduler.c" 1
 838 0040 1968     		LDR      R1, [R3]
 839              	@ 0 "" 2
 180:System/scheduler/scheduler.c **** 
 840              		.loc 1 180 5 view .LVU235
 841              	@ 180 "System/scheduler/scheduler.c" 1
 842 0042 0868     		LDR      R0, [R1]
 843              	@ 0 "" 2
 182:System/scheduler/scheduler.c **** 
 844              		.loc 1 182 5 view .LVU236
 845              	@ 182 "System/scheduler/scheduler.c" 1
 846 0044 B0E8F04F 		LDMIA    R0!, {R4-R11, R14}
 847              	@ 0 "" 2
 185:System/scheduler/scheduler.c ****     __ASM("IT       EQ");
 848              		.loc 1 185 5 view .LVU237
 849              	@ 185 "System/scheduler/scheduler.c" 1
 850 0048 1EF0100F 		TST      R14, #0x10
 851              	@ 0 "" 2
 186:System/scheduler/scheduler.c ****     __ASM("VLDMIAEQ R0!, {s16-s31}");
 852              		.loc 1 186 5 view .LVU238
 853              	@ 186 "System/scheduler/scheduler.c" 1
 854 004c 08BF     		IT       EQ
 855              	@ 0 "" 2
 187:System/scheduler/scheduler.c ****     /******************************  FPU SECTION  *********************************/
 856              		.loc 1 187 5 view .LVU239
 857              	@ 187 "System/scheduler/scheduler.c" 1
 858 004e B0EC108A 		VLDMIAEQ R0!, {s16-s31}
 859              	@ 0 "" 2
 190:System/scheduler/scheduler.c ****     __ASM("ISB");
 860              		.loc 1 190 5 view .LVU240
 861              	@ 190 "System/scheduler/scheduler.c" 1
 862 0052 80F30988 		MSR      PSP,R0
 863              	@ 0 "" 2
 191:System/scheduler/scheduler.c ****     //__ASM("MOV      R0, #240");
 864              		.loc 1 191 5 view .LVU241
 865              	@ 191 "System/scheduler/scheduler.c" 1
 866 0056 BFF36F8F 		ISB
 867              	@ 0 "" 2
 194:System/scheduler/scheduler.c **** 
 868              		.loc 1 194 5 view .LVU242
 869              	@ 194 "System/scheduler/scheduler.c" 1
 870 005a 7047     		BX       R14
 871              	@ 0 "" 2
 196:System/scheduler/scheduler.c ****     __ASM(".ALIGN 4");
 872              		.loc 1 196 5 view .LVU243
 873              	@ 196 "System/scheduler/scheduler.c" 1
 874 005c 00000000 		CurrentTCBConst_Tmp: .word CurTsk_TCB
 875              	@ 0 "" 2
 197:System/scheduler/scheduler.c **** }
 876              		.loc 1 197 5 view .LVU244
ARM GAS  /var/folders/lx/hc4sn_b53233_zkc9xbbl97r0000gp/T//ccNoczxI.s 			page 30


 877              	@ 197 "System/scheduler/scheduler.c" 1
 878              		.ALIGN 4
 879              	@ 0 "" 2
 198:System/scheduler/scheduler.c **** 
 880              		.loc 1 198 1 is_stmt 0 view .LVU245
 881              		.thumb
 882              		.syntax unified
 883              		.cfi_endproc
 884              	.LFE341:
 886              		.section	.text.Os_Init,"ax",%progbits
 887              		.align	1
 888              		.global	Os_Init
 889              		.syntax unified
 890              		.thumb
 891              		.thumb_func
 892              		.fpu fpv5-d16
 894              	Os_Init:
 895              	.LVL45:
 896              	.LFB344:
 239:System/scheduler/scheduler.c ****     // we disable irq in Kernel_Init() we need enable irq when Os start triggerd
 897              		.loc 1 239 1 is_stmt 1 view -0
 898              		.cfi_startproc
 899              		@ args = 0, pretend = 0, frame = 0
 900              		@ frame_needed = 0, uses_anonymous_args = 0
 239:System/scheduler/scheduler.c ****     // we disable irq in Kernel_Init() we need enable irq when Os start triggerd
 901              		.loc 1 239 1 is_stmt 0 view .LVU247
 902 0000 F8B5     		push	{r3, r4, r5, r6, r7, lr}
 903              	.LCFI15:
 904              		.cfi_def_cfa_offset 24
 905              		.cfi_offset 3, -24
 906              		.cfi_offset 4, -20
 907              		.cfi_offset 5, -16
 908              		.cfi_offset 6, -12
 909              		.cfi_offset 7, -8
 910              		.cfi_offset 14, -4
 911 0002 0446     		mov	r4, r0
 241:System/scheduler/scheduler.c ****         ;
 912              		.loc 1 241 5 is_stmt 1 view .LVU248
 913              	.LVL46:
 914              	.L54:
 242:System/scheduler/scheduler.c **** 
 915              		.loc 1 242 9 discriminator 1 view .LVU249
 241:System/scheduler/scheduler.c ****         ;
 916              		.loc 1 241 11 discriminator 1 view .LVU250
 241:System/scheduler/scheduler.c ****         ;
 917              		.loc 1 241 13 is_stmt 0 discriminator 1 view .LVU251
 918 0004 FFF7FEFF 		bl	Kernel_Init
 919              	.LVL47:
 241:System/scheduler/scheduler.c ****         ;
 920              		.loc 1 241 11 discriminator 1 view .LVU252
 921 0008 0028     		cmp	r0, #0
 922 000a FBD0     		beq	.L54
 244:System/scheduler/scheduler.c **** 
 923              		.loc 1 244 5 is_stmt 1 view .LVU253
 924 000c 2046     		mov	r0, r4
 925 000e FFF7FEFF 		bl	Runtime_Config
 926              	.LVL48:
ARM GAS  /var/folders/lx/hc4sn_b53233_zkc9xbbl97r0000gp/T//ccNoczxI.s 			page 31


 246:System/scheduler/scheduler.c ****     {
 927              		.loc 1 246 5 view .LVU254
 928              	.LBB2:
 246:System/scheduler/scheduler.c ****     {
 929              		.loc 1 246 10 view .LVU255
 246:System/scheduler/scheduler.c ****     {
 930              		.loc 1 246 18 is_stmt 0 view .LVU256
 931 0012 0027     		movs	r7, #0
 246:System/scheduler/scheduler.c ****     {
 932              		.loc 1 246 5 view .LVU257
 933 0014 18E0     		b	.L55
 934              	.LVL49:
 935              	.L56:
 936              	.LBB3:
 251:System/scheduler/scheduler.c **** 
 937              		.loc 1 251 13 is_stmt 1 discriminator 3 view .LVU258
 251:System/scheduler/scheduler.c **** 
 938              		.loc 1 251 31 is_stmt 0 discriminator 3 view .LVU259
 939 0016 174D     		ldr	r5, .L61
 940 0018 04EBC706 		add	r6, r4, r7, lsl #3
 251:System/scheduler/scheduler.c **** 
 941              		.loc 1 251 13 discriminator 3 view .LVU260
 942 001c 05EB8600 		add	r0, r5, r6, lsl #2
 943 0020 FFF7FEFF 		bl	Os_ResetTask_Data
 944              	.LVL50:
 254:System/scheduler/scheduler.c ****             TaskPtr_Map[g][t]->TCB.Stack = NULL;
 945              		.loc 1 254 13 is_stmt 1 discriminator 3 view .LVU261
 254:System/scheduler/scheduler.c ****             TaskPtr_Map[g][t]->TCB.Stack = NULL;
 946              		.loc 1 254 27 is_stmt 0 discriminator 3 view .LVU262
 947 0024 55F82620 		ldr	r2, [r5, r6, lsl #2]
 254:System/scheduler/scheduler.c ****             TaskPtr_Map[g][t]->TCB.Stack = NULL;
 948              		.loc 1 254 44 discriminator 3 view .LVU263
 949 0028 0023     		movs	r3, #0
 950 002a D363     		str	r3, [r2, #60]
 255:System/scheduler/scheduler.c ****             TaskPtr_Map[g][t]->TCB.Top_Stk_Ptr = NULL;
 951              		.loc 1 255 13 is_stmt 1 discriminator 3 view .LVU264
 255:System/scheduler/scheduler.c ****             TaskPtr_Map[g][t]->TCB.Top_Stk_Ptr = NULL;
 952              		.loc 1 255 27 is_stmt 0 discriminator 3 view .LVU265
 953 002c 55F82620 		ldr	r2, [r5, r6, lsl #2]
 255:System/scheduler/scheduler.c ****             TaskPtr_Map[g][t]->TCB.Top_Stk_Ptr = NULL;
 954              		.loc 1 255 42 discriminator 3 view .LVU266
 955 0030 5364     		str	r3, [r2, #68]
 256:System/scheduler/scheduler.c **** 
 956              		.loc 1 256 13 is_stmt 1 discriminator 3 view .LVU267
 256:System/scheduler/scheduler.c **** 
 957              		.loc 1 256 27 is_stmt 0 discriminator 3 view .LVU268
 958 0032 55F82620 		ldr	r2, [r5, r6, lsl #2]
 256:System/scheduler/scheduler.c **** 
 959              		.loc 1 256 48 discriminator 3 view .LVU269
 960 0036 1364     		str	r3, [r2, #64]
 258:System/scheduler/scheduler.c ****         }
 961              		.loc 1 258 13 is_stmt 1 discriminator 3 view .LVU270
 258:System/scheduler/scheduler.c ****         }
 962              		.loc 1 258 31 is_stmt 0 discriminator 3 view .LVU271
 963 0038 45F82630 		str	r3, [r5, r6, lsl #2]
 248:System/scheduler/scheduler.c ****         {
 964              		.loc 1 248 66 is_stmt 1 discriminator 3 view .LVU272
ARM GAS  /var/folders/lx/hc4sn_b53233_zkc9xbbl97r0000gp/T//ccNoczxI.s 			page 32


 248:System/scheduler/scheduler.c ****         {
 965              		.loc 1 248 67 is_stmt 0 discriminator 3 view .LVU273
 966 003c 0134     		adds	r4, r4, #1
 967              	.LVL51:
 248:System/scheduler/scheduler.c ****         {
 968              		.loc 1 248 67 discriminator 3 view .LVU274
 969 003e E4B2     		uxtb	r4, r4
 970              	.LVL52:
 971              	.L57:
 248:System/scheduler/scheduler.c ****         {
 972              		.loc 1 248 43 is_stmt 1 discriminator 1 view .LVU275
 248:System/scheduler/scheduler.c ****         {
 973              		.loc 1 248 9 is_stmt 0 discriminator 1 view .LVU276
 974 0040 072C     		cmp	r4, #7
 975 0042 E8D9     		bls	.L56
 976              	.LBE3:
 246:System/scheduler/scheduler.c ****     {
 977              		.loc 1 246 56 is_stmt 1 discriminator 2 view .LVU277
 246:System/scheduler/scheduler.c ****     {
 978              		.loc 1 246 57 is_stmt 0 discriminator 2 view .LVU278
 979 0044 0137     		adds	r7, r7, #1
 980              	.LVL53:
 246:System/scheduler/scheduler.c ****     {
 981              		.loc 1 246 57 discriminator 2 view .LVU279
 982 0046 FFB2     		uxtb	r7, r7
 983              	.LVL54:
 984              	.L55:
 246:System/scheduler/scheduler.c ****     {
 985              		.loc 1 246 36 is_stmt 1 discriminator 1 view .LVU280
 246:System/scheduler/scheduler.c ****     {
 986              		.loc 1 246 5 is_stmt 0 discriminator 1 view .LVU281
 987 0048 072F     		cmp	r7, #7
 988 004a 01D8     		bhi	.L60
 989              	.LBB4:
 248:System/scheduler/scheduler.c ****         {
 990              		.loc 1 248 22 view .LVU282
 991 004c 0024     		movs	r4, #0
 992 004e F7E7     		b	.L57
 993              	.L60:
 994              	.LBE4:
 995              	.LBE2:
 262:System/scheduler/scheduler.c ****     TskCrt_RegList.list.data = NULL;
 996              		.loc 1 262 5 is_stmt 1 view .LVU283
 262:System/scheduler/scheduler.c ****     TskCrt_RegList.list.data = NULL;
 997              		.loc 1 262 24 is_stmt 0 view .LVU284
 998 0050 094B     		ldr	r3, .L61+4
 999 0052 0022     		movs	r2, #0
 1000 0054 1A70     		strb	r2, [r3]
 263:System/scheduler/scheduler.c ****     TskCrt_RegList.list.nxt = NULL;
 1001              		.loc 1 263 5 is_stmt 1 view .LVU285
 263:System/scheduler/scheduler.c ****     TskCrt_RegList.list.nxt = NULL;
 1002              		.loc 1 263 30 is_stmt 0 view .LVU286
 1003 0056 5A61     		str	r2, [r3, #20]
 264:System/scheduler/scheduler.c ****     TskCrt_RegList.list.prv = NULL;
 1004              		.loc 1 264 5 is_stmt 1 view .LVU287
 264:System/scheduler/scheduler.c ****     TskCrt_RegList.list.prv = NULL;
 1005              		.loc 1 264 29 is_stmt 0 view .LVU288
ARM GAS  /var/folders/lx/hc4sn_b53233_zkc9xbbl97r0000gp/T//ccNoczxI.s 			page 33


 1006 0058 1A61     		str	r2, [r3, #16]
 265:System/scheduler/scheduler.c **** 
 1007              		.loc 1 265 5 is_stmt 1 view .LVU289
 265:System/scheduler/scheduler.c **** 
 1008              		.loc 1 265 29 is_stmt 0 view .LVU290
 1009 005a DA60     		str	r2, [r3, #12]
 267:System/scheduler/scheduler.c ****     ReSet_Task_Data(NxtRunTsk_Ptr);
 1010              		.loc 1 267 5 is_stmt 1 view .LVU291
 1011 005c 074B     		ldr	r3, .L61+8
 1012 005e 1868     		ldr	r0, [r3]
 1013 0060 FFF7FEFF 		bl	ReSet_Task_Data
 1014              	.LVL55:
 268:System/scheduler/scheduler.c **** 
 1015              		.loc 1 268 5 view .LVU292
 1016 0064 064B     		ldr	r3, .L61+12
 1017 0066 1868     		ldr	r0, [r3]
 1018 0068 FFF7FEFF 		bl	ReSet_Task_Data
 1019              	.LVL56:
 270:System/scheduler/scheduler.c **** }
 1020              		.loc 1 270 5 view .LVU293
 270:System/scheduler/scheduler.c **** }
 1021              		.loc 1 270 21 is_stmt 0 view .LVU294
 1022 006c 054B     		ldr	r3, .L61+16
 1023 006e 0122     		movs	r2, #1
 1024 0070 1A70     		strb	r2, [r3]
 271:System/scheduler/scheduler.c **** 
 1025              		.loc 1 271 1 view .LVU295
 1026 0072 F8BD     		pop	{r3, r4, r5, r6, r7, pc}
 1027              	.LVL57:
 1028              	.L62:
 271:System/scheduler/scheduler.c **** 
 1029              		.loc 1 271 1 view .LVU296
 1030              		.align	2
 1031              	.L61:
 1032 0074 00000000 		.word	.LANCHOR3
 1033 0078 00000000 		.word	.LANCHOR4
 1034 007c 00000000 		.word	.LANCHOR2
 1035 0080 00000000 		.word	.LANCHOR1
 1036 0084 00000000 		.word	.LANCHOR5
 1037              		.cfi_endproc
 1038              	.LFE344:
 1040              		.section	.text.Os_Start,"ax",%progbits
 1041              		.align	1
 1042              		.global	Os_Start
 1043              		.syntax unified
 1044              		.thumb
 1045              		.thumb_func
 1046              		.fpu fpv5-d16
 1048              	Os_Start:
 1049              	.LFB345:
 274:System/scheduler/scheduler.c ****     Runtime_Start();
 1050              		.loc 1 274 1 is_stmt 1 view -0
 1051              		.cfi_startproc
 1052              		@ Volatile: function does not return.
 1053              		@ args = 0, pretend = 0, frame = 0
 1054              		@ frame_needed = 0, uses_anonymous_args = 0
 1055 0000 08B5     		push	{r3, lr}
ARM GAS  /var/folders/lx/hc4sn_b53233_zkc9xbbl97r0000gp/T//ccNoczxI.s 			page 34


 1056              	.LCFI16:
 1057              		.cfi_def_cfa_offset 8
 1058              		.cfi_offset 3, -8
 1059              		.cfi_offset 14, -4
 275:System/scheduler/scheduler.c **** 
 1060              		.loc 1 275 5 view .LVU298
 1061 0002 FFF7FEFF 		bl	Runtime_Start
 1062              	.LVL58:
 277:System/scheduler/scheduler.c **** 
 1063              		.loc 1 277 5 view .LVU299
 277:System/scheduler/scheduler.c **** 
 1064              		.loc 1 277 21 is_stmt 0 view .LVU300
 1065 0006 FFF7FEFF 		bl	Task_Get_HighestRank_RdyTask
 1066              	.LVL59:
 277:System/scheduler/scheduler.c **** 
 1067              		.loc 1 277 19 view .LVU301
 1068 000a 0A4B     		ldr	r3, .L67
 1069 000c 1860     		str	r0, [r3]
 279:System/scheduler/scheduler.c ****     {
 1070              		.loc 1 279 5 is_stmt 1 view .LVU302
 279:System/scheduler/scheduler.c ****     {
 1071              		.loc 1 279 8 is_stmt 0 view .LVU303
 1072 000e 50B1     		cbz	r0, .L64
 281:System/scheduler/scheduler.c ****         NxtTsk_TCB.Stack = NxtRunTsk_Ptr->TCB.Stack;
 1073              		.loc 1 281 9 is_stmt 1 view .LVU304
 281:System/scheduler/scheduler.c ****         NxtTsk_TCB.Stack = NxtRunTsk_Ptr->TCB.Stack;
 1074              		.loc 1 281 34 is_stmt 0 view .LVU305
 1075 0010 00F14002 		add	r2, r0, #64
 281:System/scheduler/scheduler.c ****         NxtTsk_TCB.Stack = NxtRunTsk_Ptr->TCB.Stack;
 1076              		.loc 1 281 32 view .LVU306
 1077 0014 084B     		ldr	r3, .L67+4
 1078 0016 1A60     		str	r2, [r3]
 282:System/scheduler/scheduler.c **** 
 1079              		.loc 1 282 9 is_stmt 1 view .LVU307
 282:System/scheduler/scheduler.c **** 
 1080              		.loc 1 282 46 is_stmt 0 view .LVU308
 1081 0018 426C     		ldr	r2, [r0, #68]
 282:System/scheduler/scheduler.c **** 
 1082              		.loc 1 282 26 view .LVU309
 1083 001a 5A60     		str	r2, [r3, #4]
 284:System/scheduler/scheduler.c ****     }
 1084              		.loc 1 284 9 is_stmt 1 view .LVU310
 284:System/scheduler/scheduler.c ****     }
 1085              		.loc 1 284 20 is_stmt 0 view .LVU311
 1086 001c 074A     		ldr	r2, .L67+8
 1087 001e 93E80300 		ldm	r3, {r0, r1}
 1088 0022 82E80300 		stm	r2, {r0, r1}
 1089              	.L64:
 288:System/scheduler/scheduler.c **** 
 1090              		.loc 1 288 5 is_stmt 1 view .LVU312
 1091              		.syntax unified
 1092              	@ 288 "System/scheduler/scheduler.c" 1
 1093 0026 62B6     		cpsie i
 1094              	@ 0 "" 2
 293:System/scheduler/scheduler.c **** 
 1095              		.loc 1 293 5 view .LVU313
 1096              		.thumb
ARM GAS  /var/folders/lx/hc4sn_b53233_zkc9xbbl97r0000gp/T//ccNoczxI.s 			page 35


 1097              		.syntax unified
 1098 0028 FFF7FEFF 		bl	Kernel_SetPendSV
 1099              	.LVL60:
 297:System/scheduler/scheduler.c **** 
 1100              		.loc 1 297 5 view .LVU314
 1101 002c FFF7FEFF 		bl	Kernel_TriggerPendSV
 1102              	.LVL61:
 1103              	.L65:
 299:System/scheduler/scheduler.c ****     {
 1104              		.loc 1 299 5 discriminator 1 view .LVU315
 301:System/scheduler/scheduler.c **** }
 1105              		.loc 1 301 5 discriminator 1 view .LVU316
 299:System/scheduler/scheduler.c ****     {
 1106              		.loc 1 299 11 discriminator 1 view .LVU317
 1107 0030 FEE7     		b	.L65
 1108              	.L68:
 1109 0032 00BF     		.align	2
 1110              	.L67:
 1111 0034 00000000 		.word	.LANCHOR1
 1112 0038 00000000 		.word	.LANCHOR6
 1113 003c 00000000 		.word	.LANCHOR7
 1114              		.cfi_endproc
 1115              	.LFE345:
 1117              		.section	.text.Os_CreateTask,"ax",%progbits
 1118              		.align	1
 1119              		.global	Os_CreateTask
 1120              		.syntax unified
 1121              		.thumb
 1122              		.thumb_func
 1123              		.fpu fpv5-d16
 1125              	Os_CreateTask:
 1126              	.LVL62:
 1127              	.LFB346:
 305:System/scheduler/scheduler.c ****     Task_Handle handle;
 1128              		.loc 1 305 1 view -0
 1129              		.cfi_startproc
 1130              		@ args = 8, pretend = 0, frame = 0
 1131              		@ frame_needed = 0, uses_anonymous_args = 0
 305:System/scheduler/scheduler.c ****     Task_Handle handle;
 1132              		.loc 1 305 1 is_stmt 0 view .LVU319
 1133 0000 2DE9F047 		push	{r4, r5, r6, r7, r8, r9, r10, lr}
 1134              	.LCFI17:
 1135              		.cfi_def_cfa_offset 32
 1136              		.cfi_offset 4, -32
 1137              		.cfi_offset 5, -28
 1138              		.cfi_offset 6, -24
 1139              		.cfi_offset 7, -20
 1140              		.cfi_offset 8, -16
 1141              		.cfi_offset 9, -12
 1142              		.cfi_offset 10, -8
 1143              		.cfi_offset 14, -4
 1144 0004 1646     		mov	r6, r2
 1145 0006 1C46     		mov	r4, r3
 306:System/scheduler/scheduler.c ****     uint16_t task_name_len = strlen(name);
 1146              		.loc 1 306 5 is_stmt 1 view .LVU320
 307:System/scheduler/scheduler.c ****     uint32_t *Tsk_Ptr_tmp = NULL;
 1147              		.loc 1 307 5 view .LVU321
ARM GAS  /var/folders/lx/hc4sn_b53233_zkc9xbbl97r0000gp/T//ccNoczxI.s 			page 36


 308:System/scheduler/scheduler.c **** 
 1148              		.loc 1 308 5 view .LVU322
 1149              	.LVL63:
 311:System/scheduler/scheduler.c ****         return NULL;
 1150              		.loc 1 311 5 view .LVU323
 311:System/scheduler/scheduler.c ****         return NULL;
 1151              		.loc 1 311 27 is_stmt 0 view .LVU324
 1152 0008 03EBC202 		add	r2, r3, r2, lsl #3
 1153              	.LVL64:
 311:System/scheduler/scheduler.c ****         return NULL;
 1154              		.loc 1 311 27 view .LVU325
 1155 000c 5D4B     		ldr	r3, .L78
 1156              	.LVL65:
 311:System/scheduler/scheduler.c ****         return NULL;
 1157              		.loc 1 311 27 view .LVU326
 1158 000e 53F82230 		ldr	r3, [r3, r2, lsl #2]
 311:System/scheduler/scheduler.c ****         return NULL;
 1159              		.loc 1 311 8 view .LVU327
 1160 0012 23B1     		cbz	r3, .L77
 312:System/scheduler/scheduler.c **** 
 1161              		.loc 1 312 16 view .LVU328
 1162 0014 4FF0000A 		mov	r10, #0
 1163              	.LVL66:
 1164              	.L69:
 385:System/scheduler/scheduler.c **** 
 1165              		.loc 1 385 1 view .LVU329
 1166 0018 5046     		mov	r0, r10
 1167 001a BDE8F087 		pop	{r4, r5, r6, r7, r8, r9, r10, pc}
 1168              	.LVL67:
 1169              	.L77:
 385:System/scheduler/scheduler.c **** 
 1170              		.loc 1 385 1 view .LVU330
 1171 001e 8146     		mov	r9, r0
 1172 0020 0D46     		mov	r5, r1
 315:System/scheduler/scheduler.c **** 
 1173              		.loc 1 315 5 is_stmt 1 view .LVU331
 315:System/scheduler/scheduler.c **** 
 1174              		.loc 1 315 44 is_stmt 0 view .LVU332
 1175 0022 7820     		movs	r0, #120
 1176              	.LVL68:
 315:System/scheduler/scheduler.c **** 
 1177              		.loc 1 315 44 view .LVU333
 1178 0024 FFF7FEFF 		bl	MMU_Malloc
 1179              	.LVL69:
 315:System/scheduler/scheduler.c **** 
 1180              		.loc 1 315 34 view .LVU334
 1181 0028 564F     		ldr	r7, .L78
 1182 002a 04EBC608 		add	r8, r4, r6, lsl #3
 1183 002e 47F82800 		str	r0, [r7, r8, lsl #2]
 318:System/scheduler/scheduler.c **** 
 1184              		.loc 1 318 5 is_stmt 1 view .LVU335
 318:System/scheduler/scheduler.c **** 
 1185              		.loc 1 318 12 is_stmt 0 view .LVU336
 1186 0032 8246     		mov	r10, r0
 1187              	.LVL70:
 320:System/scheduler/scheduler.c **** 
 1188              		.loc 1 320 5 is_stmt 1 view .LVU337
ARM GAS  /var/folders/lx/hc4sn_b53233_zkc9xbbl97r0000gp/T//ccNoczxI.s 			page 37


 320:System/scheduler/scheduler.c **** 
 1189              		.loc 1 320 45 is_stmt 0 view .LVU338
 1190 0034 C0F80490 		str	r9, [r0, #4]
 322:System/scheduler/scheduler.c ****     TaskPtr_Map[group][priority]->exec_interval_us = RUNTIEM_MAX_TICK_FRQ / frq;
 1191              		.loc 1 322 5 is_stmt 1 view .LVU339
 322:System/scheduler/scheduler.c ****     TaskPtr_Map[group][priority]->exec_interval_us = RUNTIEM_MAX_TICK_FRQ / frq;
 1192              		.loc 1 322 23 is_stmt 0 view .LVU340
 1193 0038 57F82830 		ldr	r3, [r7, r8, lsl #2]
 322:System/scheduler/scheduler.c ****     TaskPtr_Map[group][priority]->exec_interval_us = RUNTIEM_MAX_TICK_FRQ / frq;
 1194              		.loc 1 322 44 view .LVU341
 1195 003c 9D60     		str	r5, [r3, #8]
 323:System/scheduler/scheduler.c ****     TaskPtr_Map[group][priority]->Exec_Func = func;
 1196              		.loc 1 323 5 is_stmt 1 view .LVU342
 323:System/scheduler/scheduler.c ****     TaskPtr_Map[group][priority]->Exec_Func = func;
 1197              		.loc 1 323 75 is_stmt 0 view .LVU343
 1198 003e 49F64041 		movw	r1, #40000
 1199 0042 B1FBF5F5 		udiv	r5, r1, r5
 1200              	.LVL71:
 323:System/scheduler/scheduler.c ****     TaskPtr_Map[group][priority]->Exec_Func = func;
 1201              		.loc 1 323 23 view .LVU344
 1202 0046 57F82830 		ldr	r3, [r7, r8, lsl #2]
 1203              	.LVL72:
 323:System/scheduler/scheduler.c ****     TaskPtr_Map[group][priority]->Exec_Func = func;
 1204              		.loc 1 323 52 view .LVU345
 1205 004a 9D81     		strh	r5, [r3, #12]	@ movhi
 324:System/scheduler/scheduler.c **** 
 1206              		.loc 1 324 5 is_stmt 1 view .LVU346
 324:System/scheduler/scheduler.c **** 
 1207              		.loc 1 324 23 is_stmt 0 view .LVU347
 1208 004c 57F82830 		ldr	r3, [r7, r8, lsl #2]
 324:System/scheduler/scheduler.c **** 
 1209              		.loc 1 324 45 view .LVU348
 1210 0050 089A     		ldr	r2, [sp, #32]
 1211 0052 1A61     		str	r2, [r3, #16]
 326:System/scheduler/scheduler.c **** 
 1212              		.loc 1 326 5 is_stmt 1 view .LVU349
 326:System/scheduler/scheduler.c **** 
 1213              		.loc 1 326 23 is_stmt 0 view .LVU350
 1214 0054 57F82830 		ldr	r3, [r7, r8, lsl #2]
 326:System/scheduler/scheduler.c **** 
 1215              		.loc 1 326 59 view .LVU351
 1216 0058 44EAC602 		orr	r2, r4, r6, lsl #3
 326:System/scheduler/scheduler.c **** 
 1217              		.loc 1 326 44 view .LVU352
 1218 005c 5A70     		strb	r2, [r3, #1]
 329:System/scheduler/scheduler.c ****     TaskPtr_Map[group][priority]->delay_info.tsk_hdl = handle;
 1219              		.loc 1 329 5 is_stmt 1 view .LVU353
 329:System/scheduler/scheduler.c ****     TaskPtr_Map[group][priority]->delay_info.tsk_hdl = handle;
 1220              		.loc 1 329 23 is_stmt 0 view .LVU354
 1221 005e 57F82820 		ldr	r2, [r7, r8, lsl #2]
 329:System/scheduler/scheduler.c ****     TaskPtr_Map[group][priority]->delay_info.tsk_hdl = handle;
 1222              		.loc 1 329 55 view .LVU355
 1223 0062 0023     		movs	r3, #0
 1224 0064 82F84C30 		strb	r3, [r2, #76]
 330:System/scheduler/scheduler.c ****     TaskPtr_Map[group][priority]->delay_info.time_unit = 0;
 1225              		.loc 1 330 5 is_stmt 1 view .LVU356
 330:System/scheduler/scheduler.c ****     TaskPtr_Map[group][priority]->delay_info.time_unit = 0;
ARM GAS  /var/folders/lx/hc4sn_b53233_zkc9xbbl97r0000gp/T//ccNoczxI.s 			page 38


 1226              		.loc 1 330 23 is_stmt 0 view .LVU357
 1227 0068 57F82820 		ldr	r2, [r7, r8, lsl #2]
 330:System/scheduler/scheduler.c ****     TaskPtr_Map[group][priority]->delay_info.time_unit = 0;
 1228              		.loc 1 330 54 view .LVU358
 1229 006c 1065     		str	r0, [r2, #80]
 331:System/scheduler/scheduler.c **** 
 1230              		.loc 1 331 5 is_stmt 1 view .LVU359
 331:System/scheduler/scheduler.c **** 
 1231              		.loc 1 331 23 is_stmt 0 view .LVU360
 1232 006e 57F82820 		ldr	r2, [r7, r8, lsl #2]
 331:System/scheduler/scheduler.c **** 
 1233              		.loc 1 331 56 view .LVU361
 1234 0072 5365     		str	r3, [r2, #84]
 334:System/scheduler/scheduler.c ****     TaskPtr_Map[group][priority]->TCB.Stack = (uint32_t *)MMU_Malloc(StackDepth * sizeof(uint32_t))
 1235              		.loc 1 334 5 is_stmt 1 view .LVU362
 334:System/scheduler/scheduler.c ****     TaskPtr_Map[group][priority]->TCB.Stack = (uint32_t *)MMU_Malloc(StackDepth * sizeof(uint32_t))
 1236              		.loc 1 334 23 is_stmt 0 view .LVU363
 1237 0074 57F82830 		ldr	r3, [r7, r8, lsl #2]
 334:System/scheduler/scheduler.c ****     TaskPtr_Map[group][priority]->TCB.Stack = (uint32_t *)MMU_Malloc(StackDepth * sizeof(uint32_t))
 1238              		.loc 1 334 47 view .LVU364
 1239 0078 099A     		ldr	r2, [sp, #36]
 1240 007a DA63     		str	r2, [r3, #60]
 335:System/scheduler/scheduler.c **** 
 1241              		.loc 1 335 5 is_stmt 1 view .LVU365
 335:System/scheduler/scheduler.c **** 
 1242              		.loc 1 335 23 is_stmt 0 view .LVU366
 1243 007c 57F82850 		ldr	r5, [r7, r8, lsl #2]
 335:System/scheduler/scheduler.c **** 
 1244              		.loc 1 335 59 view .LVU367
 1245 0080 9000     		lsls	r0, r2, #2
 1246              	.LVL73:
 335:System/scheduler/scheduler.c **** 
 1247              		.loc 1 335 59 view .LVU368
 1248 0082 80B2     		uxth	r0, r0
 1249 0084 FFF7FEFF 		bl	MMU_Malloc
 1250              	.LVL74:
 335:System/scheduler/scheduler.c **** 
 1251              		.loc 1 335 45 view .LVU369
 1252 0088 6864     		str	r0, [r5, #68]
 337:System/scheduler/scheduler.c ****     {
 1253              		.loc 1 337 5 is_stmt 1 view .LVU370
 337:System/scheduler/scheduler.c ****     {
 1254              		.loc 1 337 27 is_stmt 0 view .LVU371
 1255 008a 57F82800 		ldr	r0, [r7, r8, lsl #2]
 337:System/scheduler/scheduler.c ****     {
 1256              		.loc 1 337 42 view .LVU372
 1257 008e 436C     		ldr	r3, [r0, #68]
 337:System/scheduler/scheduler.c ****     {
 1258              		.loc 1 337 8 view .LVU373
 1259 0090 002B     		cmp	r3, #0
 1260 0092 70D0     		beq	.L74
 339:System/scheduler/scheduler.c ****     }
 1261              		.loc 1 339 9 is_stmt 1 view .LVU374
 1262 0094 FFF7FEFF 		bl	Os_Set_TaskStk
 1263              	.LVL75:
 345:System/scheduler/scheduler.c **** 
 1264              		.loc 1 345 5 view .LVU375
ARM GAS  /var/folders/lx/hc4sn_b53233_zkc9xbbl97r0000gp/T//ccNoczxI.s 			page 39


 345:System/scheduler/scheduler.c **** 
 1265              		.loc 1 345 23 is_stmt 0 view .LVU376
 1266 0098 3D46     		mov	r5, r7
 1267 009a 4746     		mov	r7, r8
 1268 009c 55F82830 		ldr	r3, [r5, r8, lsl #2]
 345:System/scheduler/scheduler.c **** 
 1269              		.loc 1 345 50 view .LVU377
 1270 00a0 4FF00008 		mov	r8, #0
 1271 00a4 C3F84880 		str	r8, [r3, #72]
 348:System/scheduler/scheduler.c ****     TaskPtr_Map[group][priority]->Exec_status.Running_Time = 0;
 1272              		.loc 1 348 5 is_stmt 1 view .LVU378
 348:System/scheduler/scheduler.c ****     TaskPtr_Map[group][priority]->Exec_status.Running_Time = 0;
 1273              		.loc 1 348 23 is_stmt 0 view .LVU379
 1274 00a8 55F82730 		ldr	r3, [r5, r7, lsl #2]
 348:System/scheduler/scheduler.c ****     TaskPtr_Map[group][priority]->Exec_status.Running_Time = 0;
 1275              		.loc 1 348 55 view .LVU380
 1276 00ac 0022     		movs	r2, #0
 1277 00ae 9A63     		str	r2, [r3, #56]	@ float
 349:System/scheduler/scheduler.c **** 
 1278              		.loc 1 349 5 is_stmt 1 view .LVU381
 349:System/scheduler/scheduler.c **** 
 1279              		.loc 1 349 23 is_stmt 0 view .LVU382
 1280 00b0 55F82730 		ldr	r3, [r5, r7, lsl #2]
 349:System/scheduler/scheduler.c **** 
 1281              		.loc 1 349 60 view .LVU383
 1282 00b4 C3F83080 		str	r8, [r3, #48]
 1283 00b8 C3F83480 		str	r8, [r3, #52]
 352:System/scheduler/scheduler.c ****     // set current task under this group flag to ready
 1284              		.loc 1 352 5 is_stmt 1 view .LVU384
 352:System/scheduler/scheduler.c ****     // set current task under this group flag to ready
 1285              		.loc 1 352 27 is_stmt 0 view .LVU385
 1286 00bc 324B     		ldr	r3, .L78+4
 1287 00be 1978     		ldrb	r1, [r3]	@ zero_extendqisi2
 352:System/scheduler/scheduler.c ****     // set current task under this group flag to ready
 1288              		.loc 1 352 35 view .LVU386
 1289 00c0 55F82700 		ldr	r0, [r5, r7, lsl #2]
 1290 00c4 90F801C0 		ldrb	ip, [r0, #1]	@ zero_extendqisi2
 352:System/scheduler/scheduler.c ****     // set current task under this group flag to ready
 1291              		.loc 1 352 32 view .LVU387
 1292 00c8 0122     		movs	r2, #1
 1293 00ca 02FA0CF2 		lsl	r2, r2, ip
 352:System/scheduler/scheduler.c ****     // set current task under this group flag to ready
 1294              		.loc 1 352 27 view .LVU388
 1295 00ce 41EAE201 		orr	r1, r1, r2, asr #3
 1296 00d2 C9B2     		uxtb	r1, r1
 1297 00d4 1970     		strb	r1, [r3]
 354:System/scheduler/scheduler.c **** 
 1298              		.loc 1 354 5 is_stmt 1 view .LVU389
 354:System/scheduler/scheduler.c **** 
 1299              		.loc 1 354 96 is_stmt 0 view .LVU390
 1300 00d6 03EBDC03 		add	r3, r3, ip, lsr #3
 1301 00da 5978     		ldrb	r1, [r3, #1]	@ zero_extendqisi2
 354:System/scheduler/scheduler.c **** 
 1302              		.loc 1 354 104 view .LVU391
 1303 00dc 02F00702 		and	r2, r2, #7
 354:System/scheduler/scheduler.c **** 
 1304              		.loc 1 354 96 view .LVU392
ARM GAS  /var/folders/lx/hc4sn_b53233_zkc9xbbl97r0000gp/T//ccNoczxI.s 			page 40


 1305 00e0 0A43     		orrs	r2, r2, r1
 1306 00e2 5A70     		strb	r2, [r3, #1]
 356:System/scheduler/scheduler.c **** 
 1307              		.loc 1 356 5 is_stmt 1 view .LVU393
 356:System/scheduler/scheduler.c **** 
 1308              		.loc 1 356 63 is_stmt 0 view .LVU394
 1309 00e4 C0F82480 		str	r8, [r0, #36]
 358:System/scheduler/scheduler.c ****     RuntimeObj_Reset(&(TaskPtr_Map[group][priority]->Exec_status.Start_Time));
 1310              		.loc 1 358 5 is_stmt 1 view .LVU395
 358:System/scheduler/scheduler.c ****     RuntimeObj_Reset(&(TaskPtr_Map[group][priority]->Exec_status.Start_Time));
 1311              		.loc 1 358 42 is_stmt 0 view .LVU396
 1312 00e8 55F82700 		ldr	r0, [r5, r7, lsl #2]
 358:System/scheduler/scheduler.c ****     RuntimeObj_Reset(&(TaskPtr_Map[group][priority]->Exec_status.Start_Time));
 1313              		.loc 1 358 5 view .LVU397
 1314 00ec 1430     		adds	r0, r0, #20
 1315 00ee FFF7FEFF 		bl	RuntimeObj_Reset
 1316              	.LVL76:
 359:System/scheduler/scheduler.c **** 
 1317              		.loc 1 359 5 is_stmt 1 view .LVU398
 359:System/scheduler/scheduler.c **** 
 1318              		.loc 1 359 42 is_stmt 0 view .LVU399
 1319 00f2 55F82700 		ldr	r0, [r5, r7, lsl #2]
 359:System/scheduler/scheduler.c **** 
 1320              		.loc 1 359 5 view .LVU400
 1321 00f6 1C30     		adds	r0, r0, #28
 1322 00f8 FFF7FEFF 		bl	RuntimeObj_Reset
 1323              	.LVL77:
 361:System/scheduler/scheduler.c ****     TaskPtr_Map[group][priority]->Exec_status.error_code = NOERROR;
 1324              		.loc 1 361 5 is_stmt 1 view .LVU401
 361:System/scheduler/scheduler.c ****     TaskPtr_Map[group][priority]->Exec_status.error_code = NOERROR;
 1325              		.loc 1 361 23 is_stmt 0 view .LVU402
 1326 00fc 55F82730 		ldr	r3, [r5, r7, lsl #2]
 361:System/scheduler/scheduler.c ****     TaskPtr_Map[group][priority]->Exec_status.error_code = NOERROR;
 1327              		.loc 1 361 56 view .LVU403
 1328 0100 C3F82880 		str	r8, [r3, #40]
 362:System/scheduler/scheduler.c **** 
 1329              		.loc 1 362 5 is_stmt 1 view .LVU404
 362:System/scheduler/scheduler.c **** 
 1330              		.loc 1 362 23 is_stmt 0 view .LVU405
 1331 0104 55F82730 		ldr	r3, [r5, r7, lsl #2]
 362:System/scheduler/scheduler.c **** 
 1332              		.loc 1 362 58 view .LVU406
 1333 0108 83F82C80 		strb	r8, [r3, #44]
 364:System/scheduler/scheduler.c **** 
 1334              		.loc 1 364 5 is_stmt 1 view .LVU407
 1335 010c 55F82700 		ldr	r0, [r5, r7, lsl #2]
 1336 0110 FFF7FEFF 		bl	Task_SetReady
 1337              	.LVL78:
 366:System/scheduler/scheduler.c ****     if (TaskPtr_Map[group][priority]->item_ptr == NULL)
 1338              		.loc 1 366 5 view .LVU408
 366:System/scheduler/scheduler.c ****     if (TaskPtr_Map[group][priority]->item_ptr == NULL)
 1339              		.loc 1 366 23 is_stmt 0 view .LVU409
 1340 0114 55F82780 		ldr	r8, [r5, r7, lsl #2]
 366:System/scheduler/scheduler.c ****     if (TaskPtr_Map[group][priority]->item_ptr == NULL)
 1341              		.loc 1 366 58 view .LVU410
 1342 0118 1420     		movs	r0, #20
 1343 011a FFF7FEFF 		bl	MMU_Malloc
ARM GAS  /var/folders/lx/hc4sn_b53233_zkc9xbbl97r0000gp/T//ccNoczxI.s 			page 41


 1344              	.LVL79:
 366:System/scheduler/scheduler.c ****     if (TaskPtr_Map[group][priority]->item_ptr == NULL)
 1345              		.loc 1 366 44 view .LVU411
 1346 011e C8F86000 		str	r0, [r8, #96]
 367:System/scheduler/scheduler.c ****         return NULL;
 1347              		.loc 1 367 5 is_stmt 1 view .LVU412
 367:System/scheduler/scheduler.c ****         return NULL;
 1348              		.loc 1 367 27 is_stmt 0 view .LVU413
 1349 0122 55F82710 		ldr	r1, [r5, r7, lsl #2]
 367:System/scheduler/scheduler.c ****         return NULL;
 1350              		.loc 1 367 37 view .LVU414
 1351 0126 086E     		ldr	r0, [r1, #96]
 367:System/scheduler/scheduler.c ****         return NULL;
 1352              		.loc 1 367 8 view .LVU415
 1353 0128 40B3     		cbz	r0, .L75
 370:System/scheduler/scheduler.c ****     if (TskCrt_RegList.num == 0)
 1354              		.loc 1 370 5 is_stmt 1 view .LVU416
 1355 012a FFF7FEFF 		bl	List_ItemInit
 1356              	.LVL80:
 371:System/scheduler/scheduler.c ****     {
 1357              		.loc 1 371 5 view .LVU417
 371:System/scheduler/scheduler.c ****     {
 1358              		.loc 1 371 23 is_stmt 0 view .LVU418
 1359 012e 174B     		ldr	r3, .L78+8
 1360 0130 1B78     		ldrb	r3, [r3]	@ zero_extendqisi2
 371:System/scheduler/scheduler.c ****     {
 1361              		.loc 1 371 8 view .LVU419
 1362 0132 B3B9     		cbnz	r3, .L71
 373:System/scheduler/scheduler.c ****     }
 1363              		.loc 1 373 9 is_stmt 1 view .LVU420
 373:System/scheduler/scheduler.c ****     }
 1364              		.loc 1 373 59 is_stmt 0 view .LVU421
 1365 0134 55F82710 		ldr	r1, [r5, r7, lsl #2]
 373:System/scheduler/scheduler.c ****     }
 1366              		.loc 1 373 9 view .LVU422
 1367 0138 154B     		ldr	r3, .L78+12
 1368 013a 0222     		movs	r2, #2
 1369 013c 096E     		ldr	r1, [r1, #96]
 1370 013e 1548     		ldr	r0, .L78+16
 1371 0140 FFF7FEFF 		bl	List_Init
 1372              	.LVL81:
 1373              	.L72:
 380:System/scheduler/scheduler.c **** 
 1374              		.loc 1 380 5 is_stmt 1 view .LVU423
 380:System/scheduler/scheduler.c **** 
 1375              		.loc 1 380 38 is_stmt 0 view .LVU424
 1376 0144 04EBC604 		add	r4, r4, r6, lsl #3
 1377 0148 0E4B     		ldr	r3, .L78
 1378 014a 53F82400 		ldr	r0, [r3, r4, lsl #2]
 380:System/scheduler/scheduler.c **** 
 1379              		.loc 1 380 5 view .LVU425
 1380 014e 00F14C01 		add	r1, r0, #76
 1381 0152 6430     		adds	r0, r0, #100
 1382 0154 FFF7FEFF 		bl	List_ItemInit
 1383              	.LVL82:
 382:System/scheduler/scheduler.c **** 
 1384              		.loc 1 382 5 is_stmt 1 view .LVU426
ARM GAS  /var/folders/lx/hc4sn_b53233_zkc9xbbl97r0000gp/T//ccNoczxI.s 			page 42


 382:System/scheduler/scheduler.c **** 
 1385              		.loc 1 382 19 is_stmt 0 view .LVU427
 1386 0158 0C4A     		ldr	r2, .L78+8
 1387 015a 1378     		ldrb	r3, [r2]	@ zero_extendqisi2
 382:System/scheduler/scheduler.c **** 
 1388              		.loc 1 382 23 view .LVU428
 1389 015c 0133     		adds	r3, r3, #1
 1390 015e 1370     		strb	r3, [r2]
 384:System/scheduler/scheduler.c **** }
 1391              		.loc 1 384 5 is_stmt 1 view .LVU429
 384:System/scheduler/scheduler.c **** }
 1392              		.loc 1 384 12 is_stmt 0 view .LVU430
 1393 0160 5AE7     		b	.L69
 1394              	.L71:
 377:System/scheduler/scheduler.c ****     }
 1395              		.loc 1 377 9 is_stmt 1 view .LVU431
 377:System/scheduler/scheduler.c ****     }
 1396              		.loc 1 377 66 is_stmt 0 view .LVU432
 1397 0162 04EBC603 		add	r3, r4, r6, lsl #3
 1398 0166 074A     		ldr	r2, .L78
 1399 0168 52F82330 		ldr	r3, [r2, r3, lsl #2]
 377:System/scheduler/scheduler.c ****     }
 1400              		.loc 1 377 9 view .LVU433
 1401 016c 196E     		ldr	r1, [r3, #96]
 1402 016e 0948     		ldr	r0, .L78+16
 1403 0170 FFF7FEFF 		bl	List_Insert_Item
 1404              	.LVL83:
 1405 0174 E6E7     		b	.L72
 1406              	.L74:
 342:System/scheduler/scheduler.c **** 
 1407              		.loc 1 342 16 view .LVU434
 1408 0176 4FF0000A 		mov	r10, #0
 1409              	.LVL84:
 342:System/scheduler/scheduler.c **** 
 1410              		.loc 1 342 16 view .LVU435
 1411 017a 4DE7     		b	.L69
 1412              	.LVL85:
 1413              	.L75:
 368:System/scheduler/scheduler.c **** 
 1414              		.loc 1 368 16 view .LVU436
 1415 017c 4FF0000A 		mov	r10, #0
 1416              	.LVL86:
 368:System/scheduler/scheduler.c **** 
 1417              		.loc 1 368 16 view .LVU437
 1418 0180 4AE7     		b	.L69
 1419              	.L79:
 1420 0182 00BF     		.align	2
 1421              	.L78:
 1422 0184 00000000 		.word	.LANCHOR3
 1423 0188 00000000 		.word	.LANCHOR0
 1424 018c 00000000 		.word	.LANCHOR4
 1425 0190 00000000 		.word	Os_TaskPri_Compare
 1426 0194 04000000 		.word	.LANCHOR4+4
 1427              		.cfi_endproc
 1428              	.LFE346:
 1430              		.global	NxtTsk_TCB
 1431              		.global	CurTsk_TCB
ARM GAS  /var/folders/lx/hc4sn_b53233_zkc9xbbl97r0000gp/T//ccNoczxI.s 			page 43


 1432              		.section	.bss.CurRunTsk_Ptr,"aw",%nobits
 1433              		.align	2
 1434              		.set	.LANCHOR2,. + 0
 1437              	CurRunTsk_Ptr:
 1438 0000 00000000 		.space	4
 1439              		.section	.bss.CurTsk_TCB,"aw",%nobits
 1440              		.align	2
 1441              		.set	.LANCHOR7,. + 0
 1444              	CurTsk_TCB:
 1445 0000 00000000 		.space	8
 1445      00000000 
 1446              		.section	.bss.NxtRunTsk_Ptr,"aw",%nobits
 1447              		.align	2
 1448              		.set	.LANCHOR1,. + 0
 1451              	NxtRunTsk_Ptr:
 1452 0000 00000000 		.space	4
 1453              		.section	.bss.NxtTsk_TCB,"aw",%nobits
 1454              		.align	2
 1455              		.set	.LANCHOR6,. + 0
 1458              	NxtTsk_TCB:
 1459 0000 00000000 		.space	8
 1459      00000000 
 1460              		.section	.bss.TaskPtr_Map,"aw",%nobits
 1461              		.align	2
 1462              		.set	.LANCHOR3,. + 0
 1465              	TaskPtr_Map:
 1466 0000 00000000 		.space	256
 1466      00000000 
 1466      00000000 
 1466      00000000 
 1466      00000000 
 1467              		.section	.bss.TskCrt_RegList,"aw",%nobits
 1468              		.align	2
 1469              		.set	.LANCHOR4,. + 0
 1472              	TskCrt_RegList:
 1473 0000 00000000 		.space	24
 1473      00000000 
 1473      00000000 
 1473      00000000 
 1473      00000000 
 1474              		.section	.bss.TskHdl_BlkMap,"aw",%nobits
 1475              		.align	2
 1478              	TskHdl_BlkMap:
 1479 0000 00000000 		.space	9
 1479      00000000 
 1479      00
 1480              		.section	.bss.TskHdl_PndMap,"aw",%nobits
 1481              		.align	2
 1484              	TskHdl_PndMap:
 1485 0000 00000000 		.space	9
 1485      00000000 
 1485      00
 1486              		.section	.bss.TskHdl_RdyMap,"aw",%nobits
 1487              		.align	2
 1488              		.set	.LANCHOR0,. + 0
 1491              	TskHdl_RdyMap:
 1492 0000 00000000 		.space	9
ARM GAS  /var/folders/lx/hc4sn_b53233_zkc9xbbl97r0000gp/T//ccNoczxI.s 			page 44


 1492      00000000 
 1492      00
 1493              		.section	.bss.scheduler_state,"aw",%nobits
 1494              		.set	.LANCHOR5,. + 0
 1497              	scheduler_state:
 1498 0000 00       		.space	1
 1499              		.text
 1500              	.Letext0:
 1501              		.file 2 "/usr/local/arm-none-eabi-gcc/gcc-arm-none-eabi-10-2020-q4-major/arm-none-eabi/include/mac
 1502              		.file 3 "/usr/local/arm-none-eabi-gcc/gcc-arm-none-eabi-10-2020-q4-major/arm-none-eabi/include/sys
 1503              		.file 4 "System/runtime/runtime.h"
 1504              		.file 5 "DataStructure/linked_list.h"
 1505              		.file 6 "System/scheduler/scheduler.h"
 1506              		.file 7 "System/mmu/mmu.h"
 1507              		.file 8 "System/kernel/kernel.h"
 1508              		.file 9 "<built-in>"
ARM GAS  /var/folders/lx/hc4sn_b53233_zkc9xbbl97r0000gp/T//ccNoczxI.s 			page 45


DEFINED SYMBOLS
                            *ABS*:0000000000000000 scheduler.c
/var/folders/lx/hc4sn_b53233_zkc9xbbl97r0000gp/T//ccNoczxI.s:17     .text.Os_Clr_TaskReady:0000000000000000 $t
/var/folders/lx/hc4sn_b53233_zkc9xbbl97r0000gp/T//ccNoczxI.s:24     .text.Os_Clr_TaskReady:0000000000000000 Os_Clr_TaskReady
/var/folders/lx/hc4sn_b53233_zkc9xbbl97r0000gp/T//ccNoczxI.s:82     .text.Os_Clr_TaskReady:000000000000003c $d
/var/folders/lx/hc4sn_b53233_zkc9xbbl97r0000gp/T//ccNoczxI.s:87     .text.Os_TaskExit:0000000000000000 $t
/var/folders/lx/hc4sn_b53233_zkc9xbbl97r0000gp/T//ccNoczxI.s:93     .text.Os_TaskExit:0000000000000000 Os_TaskExit
/var/folders/lx/hc4sn_b53233_zkc9xbbl97r0000gp/T//ccNoczxI.s:110    .text.Os_TaskPri_Compare:0000000000000000 $t
/var/folders/lx/hc4sn_b53233_zkc9xbbl97r0000gp/T//ccNoczxI.s:116    .text.Os_TaskPri_Compare:0000000000000000 Os_TaskPri_Compare
/var/folders/lx/hc4sn_b53233_zkc9xbbl97r0000gp/T//ccNoczxI.s:239    .text.Os_ResetTask_Data:0000000000000000 $t
/var/folders/lx/hc4sn_b53233_zkc9xbbl97r0000gp/T//ccNoczxI.s:245    .text.Os_ResetTask_Data:0000000000000000 Os_ResetTask_Data
/var/folders/lx/hc4sn_b53233_zkc9xbbl97r0000gp/T//ccNoczxI.s:321    .text.Os_Set_TaskStk:0000000000000000 $t
/var/folders/lx/hc4sn_b53233_zkc9xbbl97r0000gp/T//ccNoczxI.s:327    .text.Os_Set_TaskStk:0000000000000000 Os_Set_TaskStk
/var/folders/lx/hc4sn_b53233_zkc9xbbl97r0000gp/T//ccNoczxI.s:416    .text.Os_Set_TaskStk:0000000000000050 $d
/var/folders/lx/hc4sn_b53233_zkc9xbbl97r0000gp/T//ccNoczxI.s:643    .text.Os_TaskCaller:0000000000000000 Os_TaskCaller
/var/folders/lx/hc4sn_b53233_zkc9xbbl97r0000gp/T//ccNoczxI.s:423    .text.Os_TaskExec:0000000000000000 $t
/var/folders/lx/hc4sn_b53233_zkc9xbbl97r0000gp/T//ccNoczxI.s:429    .text.Os_TaskExec:0000000000000000 Os_TaskExec
/var/folders/lx/hc4sn_b53233_zkc9xbbl97r0000gp/T//ccNoczxI.s:630    .text.Os_TaskExec:00000000000000e4 $d
/var/folders/lx/hc4sn_b53233_zkc9xbbl97r0000gp/T//ccNoczxI.s:637    .text.Os_TaskCaller:0000000000000000 $t
/var/folders/lx/hc4sn_b53233_zkc9xbbl97r0000gp/T//ccNoczxI.s:678    .text.Os_TaskCaller:0000000000000018 $d
/var/folders/lx/hc4sn_b53233_zkc9xbbl97r0000gp/T//ccNoczxI.s:683    .text.Os_LoadFirstTask:0000000000000000 $t
/var/folders/lx/hc4sn_b53233_zkc9xbbl97r0000gp/T//ccNoczxI.s:690    .text.Os_LoadFirstTask:0000000000000000 Os_LoadFirstTask
/var/folders/lx/hc4sn_b53233_zkc9xbbl97r0000gp/T//ccNoczxI.s:1444   .bss.CurTsk_TCB:0000000000000000 CurTsk_TCB
/var/folders/lx/hc4sn_b53233_zkc9xbbl97r0000gp/T//ccNoczxI.s:749    .text.Os_SwitchContext:0000000000000000 $t
/var/folders/lx/hc4sn_b53233_zkc9xbbl97r0000gp/T//ccNoczxI.s:756    .text.Os_SwitchContext:0000000000000000 Os_SwitchContext
/var/folders/lx/hc4sn_b53233_zkc9xbbl97r0000gp/T//ccNoczxI.s:874    .text.Os_SwitchContext:000000000000005c CurrentTCBConst_Tmp
/var/folders/lx/hc4sn_b53233_zkc9xbbl97r0000gp/T//ccNoczxI.s:874    .text.Os_SwitchContext:000000000000005c $d
/var/folders/lx/hc4sn_b53233_zkc9xbbl97r0000gp/T//ccNoczxI.s:887    .text.Os_Init:0000000000000000 $t
/var/folders/lx/hc4sn_b53233_zkc9xbbl97r0000gp/T//ccNoczxI.s:894    .text.Os_Init:0000000000000000 Os_Init
/var/folders/lx/hc4sn_b53233_zkc9xbbl97r0000gp/T//ccNoczxI.s:1032   .text.Os_Init:0000000000000074 $d
/var/folders/lx/hc4sn_b53233_zkc9xbbl97r0000gp/T//ccNoczxI.s:1041   .text.Os_Start:0000000000000000 $t
/var/folders/lx/hc4sn_b53233_zkc9xbbl97r0000gp/T//ccNoczxI.s:1048   .text.Os_Start:0000000000000000 Os_Start
/var/folders/lx/hc4sn_b53233_zkc9xbbl97r0000gp/T//ccNoczxI.s:1111   .text.Os_Start:0000000000000034 $d
/var/folders/lx/hc4sn_b53233_zkc9xbbl97r0000gp/T//ccNoczxI.s:1118   .text.Os_CreateTask:0000000000000000 $t
/var/folders/lx/hc4sn_b53233_zkc9xbbl97r0000gp/T//ccNoczxI.s:1125   .text.Os_CreateTask:0000000000000000 Os_CreateTask
/var/folders/lx/hc4sn_b53233_zkc9xbbl97r0000gp/T//ccNoczxI.s:1422   .text.Os_CreateTask:0000000000000184 $d
/var/folders/lx/hc4sn_b53233_zkc9xbbl97r0000gp/T//ccNoczxI.s:1458   .bss.NxtTsk_TCB:0000000000000000 NxtTsk_TCB
/var/folders/lx/hc4sn_b53233_zkc9xbbl97r0000gp/T//ccNoczxI.s:1433   .bss.CurRunTsk_Ptr:0000000000000000 $d
/var/folders/lx/hc4sn_b53233_zkc9xbbl97r0000gp/T//ccNoczxI.s:1437   .bss.CurRunTsk_Ptr:0000000000000000 CurRunTsk_Ptr
/var/folders/lx/hc4sn_b53233_zkc9xbbl97r0000gp/T//ccNoczxI.s:1440   .bss.CurTsk_TCB:0000000000000000 $d
/var/folders/lx/hc4sn_b53233_zkc9xbbl97r0000gp/T//ccNoczxI.s:1447   .bss.NxtRunTsk_Ptr:0000000000000000 $d
/var/folders/lx/hc4sn_b53233_zkc9xbbl97r0000gp/T//ccNoczxI.s:1451   .bss.NxtRunTsk_Ptr:0000000000000000 NxtRunTsk_Ptr
/var/folders/lx/hc4sn_b53233_zkc9xbbl97r0000gp/T//ccNoczxI.s:1454   .bss.NxtTsk_TCB:0000000000000000 $d
/var/folders/lx/hc4sn_b53233_zkc9xbbl97r0000gp/T//ccNoczxI.s:1461   .bss.TaskPtr_Map:0000000000000000 $d
/var/folders/lx/hc4sn_b53233_zkc9xbbl97r0000gp/T//ccNoczxI.s:1465   .bss.TaskPtr_Map:0000000000000000 TaskPtr_Map
/var/folders/lx/hc4sn_b53233_zkc9xbbl97r0000gp/T//ccNoczxI.s:1468   .bss.TskCrt_RegList:0000000000000000 $d
/var/folders/lx/hc4sn_b53233_zkc9xbbl97r0000gp/T//ccNoczxI.s:1472   .bss.TskCrt_RegList:0000000000000000 TskCrt_RegList
/var/folders/lx/hc4sn_b53233_zkc9xbbl97r0000gp/T//ccNoczxI.s:1475   .bss.TskHdl_BlkMap:0000000000000000 $d
/var/folders/lx/hc4sn_b53233_zkc9xbbl97r0000gp/T//ccNoczxI.s:1478   .bss.TskHdl_BlkMap:0000000000000000 TskHdl_BlkMap
/var/folders/lx/hc4sn_b53233_zkc9xbbl97r0000gp/T//ccNoczxI.s:1481   .bss.TskHdl_PndMap:0000000000000000 $d
/var/folders/lx/hc4sn_b53233_zkc9xbbl97r0000gp/T//ccNoczxI.s:1484   .bss.TskHdl_PndMap:0000000000000000 TskHdl_PndMap
/var/folders/lx/hc4sn_b53233_zkc9xbbl97r0000gp/T//ccNoczxI.s:1487   .bss.TskHdl_RdyMap:0000000000000000 $d
/var/folders/lx/hc4sn_b53233_zkc9xbbl97r0000gp/T//ccNoczxI.s:1491   .bss.TskHdl_RdyMap:0000000000000000 TskHdl_RdyMap
/var/folders/lx/hc4sn_b53233_zkc9xbbl97r0000gp/T//ccNoczxI.s:1497   .bss.scheduler_state:0000000000000000 scheduler_state
/var/folders/lx/hc4sn_b53233_zkc9xbbl97r0000gp/T//ccNoczxI.s:1498   .bss.scheduler_state:0000000000000000 $d
/var/folders/lx/hc4sn_b53233_zkc9xbbl97r0000gp/T//ccNoczxI.s:5542   .text.Os_LoadFirstTask:0000000000000020 $d

ARM GAS  /var/folders/lx/hc4sn_b53233_zkc9xbbl97r0000gp/T//ccNoczxI.s 			page 46


UNDEFINED SYMBOLS
List_ItemInit
RuntimeObj_Reset
memset
__aeabi_ul2f
Get_TimeDifference_Between
Get_TargetRunTime
Get_CurrentRunningUs
Get_CurrentRunningS
Os_SwitchTaskStack
Kernel_Init
Runtime_Config
ReSet_Task_Data
Runtime_Start
Task_Get_HighestRank_RdyTask
Kernel_SetPendSV
Kernel_TriggerPendSV
MMU_Malloc
Task_SetReady
List_Init
List_Insert_Item
