ARM GAS  C:\Users\HUAV\AppData\Local\Temp\ccLbKHgN.s 			page 1


   1              		.cpu cortex-m7
   2              		.arch armv7e-m
   3              		.fpu fpv5-d16
   4              		.eabi_attribute 28, 1
   5              		.eabi_attribute 20, 1
   6              		.eabi_attribute 21, 1
   7              		.eabi_attribute 23, 3
   8              		.eabi_attribute 24, 1
   9              		.eabi_attribute 25, 1
  10              		.eabi_attribute 26, 1
  11              		.eabi_attribute 30, 1
  12              		.eabi_attribute 34, 1
  13              		.eabi_attribute 18, 4
  14              		.file	"scheduler.c"
  15              		.text
  16              	.Ltext0:
  17              		.cfi_sections	.debug_frame
  18              		.section	.text.Os_Set_TaskReady,"ax",%progbits
  19              		.align	1
  20              		.syntax unified
  21              		.thumb
  22              		.thumb_func
  24              	Os_Set_TaskReady:
  25              	.LVL0:
  26              	.LFB158:
  27              		.file 1 "System/scheduler/scheduler.c"
   1:System/scheduler/scheduler.c **** #include "scheduler.h"
   2:System/scheduler/scheduler.c **** #include "kernel.h"
   3:System/scheduler/scheduler.c **** #include "runtime.h"
   4:System/scheduler/scheduler.c **** #include "linked_list.h"
   5:System/scheduler/scheduler.c **** #include "mmu.h"
   6:System/scheduler/scheduler.c **** 
   7:System/scheduler/scheduler.c **** // coder: 8_B!T0
   8:System/scheduler/scheduler.c **** // bref:
   9:System/scheduler/scheduler.c **** // estabishment a task running system with priority calling functional
  10:System/scheduler/scheduler.c **** // alway calling the highest priority function in all function under the ready table
  11:System/scheduler/scheduler.c **** 
  12:System/scheduler/scheduler.c **** /*
  13:System/scheduler/scheduler.c **** *******************************   TASK Handle    *******************************
  14:System/scheduler/scheduler.c **** 
  15:System/scheduler/scheduler.c ****              task0   task1   task2   task3   task4   task5   task6   task7
  16:System/scheduler/scheduler.c **** group0     |_______|_______|_______|_______|_______|_______|_______|_______|
  17:System/scheduler/scheduler.c **** group1     |_______|_______|_______|_______|_______|_______|_______|_______|
  18:System/scheduler/scheduler.c **** group2     |_______|_______|_______|_______|_______|_______|_______|_______|
  19:System/scheduler/scheduler.c **** group3     |_______|_______|_______|_______|_______|_______|_______|_______|
  20:System/scheduler/scheduler.c **** group4     |_______|_______|_______|_______|_______|_______|_______|_______|
  21:System/scheduler/scheduler.c **** group5     |_______|_______|_______|_______|_______|_______|_______|_______|
  22:System/scheduler/scheduler.c **** group6     |_______|_______|_______|_______|_______|_______|_______|_______|
  23:System/scheduler/scheduler.c **** group7     |_______|_______|_______|_______|_______|_______|_______|_______|
  24:System/scheduler/scheduler.c **** 
  25:System/scheduler/scheduler.c **** */
  26:System/scheduler/scheduler.c **** 
  27:System/scheduler/scheduler.c **** #define GET_TASKGROUP_PRIORITY(x) x >> 3
  28:System/scheduler/scheduler.c **** #define GET_TASKINGROUP_PRIORITY(y) y & 0X07
  29:System/scheduler/scheduler.c **** #define IS_IDLETASK(x) x & 0x80
  30:System/scheduler/scheduler.c **** #define IDLE_TASK_STACK 256
  31:System/scheduler/scheduler.c **** #define IDLE_TASK_PRIORITY 0x80
ARM GAS  C:\Users\HUAV\AppData\Local\Temp\ccLbKHgN.s 			page 2


  32:System/scheduler/scheduler.c **** 
  33:System/scheduler/scheduler.c **** /* internal variable */
  34:System/scheduler/scheduler.c **** static const uint8_t Task_Priority_List[256] =
  35:System/scheduler/scheduler.c ****     {0, 0, 1, 0, 2, 0, 1, 0, 3, 0, 1, 0, 2, 0, 1, 0,  // 0x00 ~ 0x0F
  36:System/scheduler/scheduler.c ****      4, 0, 1, 0, 2, 0, 1, 0, 3, 0, 1, 0, 2, 0, 1, 0,  // 0x10 ~ 0x1F
  37:System/scheduler/scheduler.c ****      5, 0, 1, 0, 2, 0, 1, 0, 3, 0, 1, 0, 2, 0, 1, 0,  // 0x20 ~ 0x2F
  38:System/scheduler/scheduler.c ****      4, 0, 1, 0, 2, 0, 1, 0, 3, 0, 1, 0, 2, 0, 1, 0,  // 0x30 ~ 0x3F
  39:System/scheduler/scheduler.c ****      6, 0, 1, 0, 2, 0, 1, 0, 3, 0, 1, 0, 2, 0, 1, 0,  // 0x40 ~ 0x4F
  40:System/scheduler/scheduler.c ****      4, 0, 1, 0, 2, 0, 1, 0, 3, 0, 1, 0, 2, 0, 1, 0,  // 0x50 ~ 0x5F
  41:System/scheduler/scheduler.c ****      5, 0, 1, 0, 2, 0, 1, 0, 3, 0, 1, 0, 2, 0, 1, 0,  // 0x60 ~ 0x6F
  42:System/scheduler/scheduler.c ****      4, 0, 1, 0, 2, 0, 1, 0, 3, 0, 1, 0, 2, 0, 1, 0,  // 0x70 ~ 0x7F
  43:System/scheduler/scheduler.c ****      7, 0, 1, 0, 2, 0, 1, 0, 3, 0, 1, 0, 2, 0, 1, 0,  // 0x80 ~ 0x8F
  44:System/scheduler/scheduler.c ****      4, 0, 1, 0, 2, 0, 1, 0, 3, 0, 1, 0, 2, 0, 1, 0,  // 0x90 ~ 0x9F
  45:System/scheduler/scheduler.c ****      5, 0, 1, 0, 2, 0, 1, 0, 3, 0, 1, 0, 2, 0, 1, 0,  // 0xA0 ~ 0xAF
  46:System/scheduler/scheduler.c ****      4, 0, 1, 0, 2, 0, 1, 0, 3, 0, 1, 0, 2, 0, 1, 0,  // 0xB0 ~ 0xBF
  47:System/scheduler/scheduler.c ****      6, 0, 1, 0, 2, 0, 1, 0, 3, 0, 1, 0, 2, 0, 1, 0,  // 0xC0 ~ 0xCF
  48:System/scheduler/scheduler.c ****      4, 0, 1, 0, 2, 0, 1, 0, 3, 0, 1, 0, 2, 0, 1, 0,  // 0xD0 ~ 0xDF
  49:System/scheduler/scheduler.c ****      5, 0, 1, 0, 2, 0, 1, 0, 3, 0, 1, 0, 2, 0, 1, 0,  // 0xE0 ~ 0xEF
  50:System/scheduler/scheduler.c ****      4, 0, 1, 0, 2, 0, 1, 0, 3, 0, 1, 0, 2, 0, 1, 0}; // 0xF0 ~ 0xFF
  51:System/scheduler/scheduler.c **** 
  52:System/scheduler/scheduler.c **** static volatile Task *CurRunTsk_Ptr = NULL;
  53:System/scheduler/scheduler.c **** static volatile Task *NxtRunTsk_Ptr = NULL;
  54:System/scheduler/scheduler.c **** static volatile TaskStack_ControlBlock CurTsk_TCB;
  55:System/scheduler/scheduler.c **** static volatile TaskStack_ControlBlock NxtTsk_TCB;
  56:System/scheduler/scheduler.c **** 
  57:System/scheduler/scheduler.c **** static volatile TaskMap_TypeDef TskHdl_RdyMap = {.Grp = 0, .TskInGrp[0] = 0, .TskInGrp[1] = 0, .Tsk
  58:System/scheduler/scheduler.c **** static volatile TaskMap_TypeDef TskHdl_PndMap = {.Grp = 0, .TskInGrp[0] = 0, .TskInGrp[1] = 0, .Tsk
  59:System/scheduler/scheduler.c **** static volatile TaskMap_TypeDef TskHdl_BlkMap = {.Grp = 0, .TskInGrp[0] = 0, .TskInGrp[1] = 0, .Tsk
  60:System/scheduler/scheduler.c **** 
  61:System/scheduler/scheduler.c **** static volatile Task_List_s TskCrt_RegList = {.num = 0, .list = {.prv = NULL, .nxt = NULL, .data = 
  62:System/scheduler/scheduler.c **** static volatile Task_List_s TskRdy_RegList = {.num = 0, .list = {.prv = NULL, .nxt = NULL, .data = 
  63:System/scheduler/scheduler.c **** 
  64:System/scheduler/scheduler.c **** static volatile Scheduler_State_List scheduler_state = Scheduler_Initial;
  65:System/scheduler/scheduler.c **** 
  66:System/scheduler/scheduler.c **** static Task *TaskPtr_Map[Task_Group_Sum][Task_Priority_Sum];
  67:System/scheduler/scheduler.c **** static Task *Idle_Task;
  68:System/scheduler/scheduler.c **** 
  69:System/scheduler/scheduler.c **** /* internal function */
  70:System/scheduler/scheduler.c **** static void Os_ResetTask_Data(Task *task);
  71:System/scheduler/scheduler.c **** static void Os_Set_TaskReady(Task *tsk);
  72:System/scheduler/scheduler.c **** static void Os_Clr_TaskReady(Task *tsk);
  73:System/scheduler/scheduler.c **** static void Os_SchedulerRun(SYSTEM_RunTime Rt);
  74:System/scheduler/scheduler.c **** static void Os_TaskExit(void);
  75:System/scheduler/scheduler.c **** static Task *Os_TaskPri_Compare(const Task *tsk_l, const Task *tsk_r);
  76:System/scheduler/scheduler.c **** static int Os_TaskCrtList_TraverseCallback(item_obj *item, void *data, void *arg);
  77:System/scheduler/scheduler.c **** static void Os_TaskCaller(void);
  78:System/scheduler/scheduler.c **** static Task *Os_Get_HighestRank_PndTask(void);
  79:System/scheduler/scheduler.c **** static Task *Os_Get_HighestRank_RdyTask(void);
  80:System/scheduler/scheduler.c **** static bool Os_CreateIdle(void);
  81:System/scheduler/scheduler.c **** static void Os_Idle(void);
  82:System/scheduler/scheduler.c **** void Os_SwitchTaskStack(void);
  83:System/scheduler/scheduler.c **** 
  84:System/scheduler/scheduler.c **** __attribute__((naked)) void Os_LoadFirstTask(void)
  85:System/scheduler/scheduler.c **** {
  86:System/scheduler/scheduler.c ****     __ASM("LDR	  R3, =CurTsk_TCB");
  87:System/scheduler/scheduler.c ****     __ASM("LDR    R1, [R3]");
  88:System/scheduler/scheduler.c ****     __ASM("LDR    R0, [R1]");
ARM GAS  C:\Users\HUAV\AppData\Local\Temp\ccLbKHgN.s 			page 3


  89:System/scheduler/scheduler.c **** 
  90:System/scheduler/scheduler.c ****     __ASM("LDMIA  R0!, {R4-R11, R14}");
  91:System/scheduler/scheduler.c **** 
  92:System/scheduler/scheduler.c ****     /******************************  FPU SECTION  *********************************/
  93:System/scheduler/scheduler.c ****     __ASM("TST      R14, #0x10");
  94:System/scheduler/scheduler.c ****     __ASM("IT       EQ");
  95:System/scheduler/scheduler.c ****     __ASM("VLDMIAEQ R0!, {s16-s31}");
  96:System/scheduler/scheduler.c ****     /******************************  FPU SECTION  *********************************/
  97:System/scheduler/scheduler.c **** 
  98:System/scheduler/scheduler.c ****     __ASM("MSR    PSP, R0");
  99:System/scheduler/scheduler.c ****     __ASM("ISB");
 100:System/scheduler/scheduler.c ****     __ASM("BX     R14");
 101:System/scheduler/scheduler.c ****     __ASM(".ALIGN 4");
 102:System/scheduler/scheduler.c **** }
 103:System/scheduler/scheduler.c **** 
 104:System/scheduler/scheduler.c **** __attribute__((naked)) void Os_SwitchContext(void)
 105:System/scheduler/scheduler.c **** {
 106:System/scheduler/scheduler.c ****     __ASM("MRS      R0, PSP");
 107:System/scheduler/scheduler.c ****     __ASM("ISB");
 108:System/scheduler/scheduler.c **** 
 109:System/scheduler/scheduler.c ****     __ASM("LDR      R3, CurrentTCBConst_Tmp");
 110:System/scheduler/scheduler.c ****     __ASM("LDR      R2, [R3]");
 111:System/scheduler/scheduler.c **** 
 112:System/scheduler/scheduler.c ****     /******************************  FPU SECTION  *********************************/
 113:System/scheduler/scheduler.c ****     __ASM("TST      R14, #0x10");
 114:System/scheduler/scheduler.c ****     __ASM("IT       EQ");
 115:System/scheduler/scheduler.c ****     __ASM("VSTMDBEQ R0!, {s16-s31}");
 116:System/scheduler/scheduler.c ****     /******************************  FPU SECTION  *********************************/
 117:System/scheduler/scheduler.c **** 
 118:System/scheduler/scheduler.c ****     __ASM("STMDB    R0!, {R4-R11, R14}");
 119:System/scheduler/scheduler.c ****     __ASM("STR      R0, [R2]");
 120:System/scheduler/scheduler.c **** 
 121:System/scheduler/scheduler.c ****     __ASM("STMDB    SP!, {R0, R3}");
 122:System/scheduler/scheduler.c ****     __ASM("MOV      R0, %0" ::"i"(SYSCALL_INTERRUPT_PRIORITY));
 123:System/scheduler/scheduler.c ****     __ASM("MSR      BASEPRI, R0");
 124:System/scheduler/scheduler.c **** 
 125:System/scheduler/scheduler.c ****     __ASM("DSB");
 126:System/scheduler/scheduler.c ****     __ASM("ISB");
 127:System/scheduler/scheduler.c **** 
 128:System/scheduler/scheduler.c ****     __ASM("BL       Os_SwitchTaskStack");
 129:System/scheduler/scheduler.c **** 
 130:System/scheduler/scheduler.c ****     __ASM("MOV      R0, #0");
 131:System/scheduler/scheduler.c ****     __ASM("MSR      BASEPRI, R0");
 132:System/scheduler/scheduler.c ****     __ASM("LDMIA    SP!, {R0, R3}");
 133:System/scheduler/scheduler.c **** 
 134:System/scheduler/scheduler.c ****     __ASM("LDR      R1, [R3]");
 135:System/scheduler/scheduler.c ****     __ASM("LDR      R0, [R1]");
 136:System/scheduler/scheduler.c **** 
 137:System/scheduler/scheduler.c ****     __ASM("LDMIA    R0!, {R4-R11, R14}");
 138:System/scheduler/scheduler.c **** 
 139:System/scheduler/scheduler.c ****     /******************************  FPU SECTION  *********************************/
 140:System/scheduler/scheduler.c ****     __ASM("TST      R14, #0x10");
 141:System/scheduler/scheduler.c ****     __ASM("IT       EQ");
 142:System/scheduler/scheduler.c ****     __ASM("VLDMIAEQ R0!, {s16-s31}");
 143:System/scheduler/scheduler.c ****     /******************************  FPU SECTION  *********************************/
 144:System/scheduler/scheduler.c **** 
 145:System/scheduler/scheduler.c ****     __ASM("MSR      PSP,R0");
ARM GAS  C:\Users\HUAV\AppData\Local\Temp\ccLbKHgN.s 			page 4


 146:System/scheduler/scheduler.c ****     __ASM("ISB");
 147:System/scheduler/scheduler.c ****     __ASM("BX       R14");
 148:System/scheduler/scheduler.c **** 
 149:System/scheduler/scheduler.c ****     __ASM("CurrentTCBConst_Tmp: .word CurTsk_TCB");
 150:System/scheduler/scheduler.c ****     __ASM(".ALIGN 4");
 151:System/scheduler/scheduler.c **** }
 152:System/scheduler/scheduler.c **** 
 153:System/scheduler/scheduler.c **** void Os_SwitchTaskStack(void)
 154:System/scheduler/scheduler.c **** {
 155:System/scheduler/scheduler.c ****     CurTsk_TCB = NxtTsk_TCB;
 156:System/scheduler/scheduler.c ****     CurRunTsk_Ptr = NxtRunTsk_Ptr;
 157:System/scheduler/scheduler.c **** }
 158:System/scheduler/scheduler.c **** 
 159:System/scheduler/scheduler.c **** static void Os_Set_TaskStk(Task *tsk)
 160:System/scheduler/scheduler.c **** {
 161:System/scheduler/scheduler.c ****     uint32_t *Tsk_Ptr_tmp = NULL;
 162:System/scheduler/scheduler.c **** 
 163:System/scheduler/scheduler.c ****     memset(tsk->TCB.Stack, NULL, tsk->Stack_Depth * sizeof(uint32_t));
 164:System/scheduler/scheduler.c **** 
 165:System/scheduler/scheduler.c ****     Tsk_Ptr_tmp = &tsk->TCB.Stack + (tsk->Stack_Depth - (uint32_t)1);
 166:System/scheduler/scheduler.c ****     Tsk_Ptr_tmp = (uint32_t *)((uint32_t)(Tsk_Ptr_tmp)&0XFFFFFFF8ul);
 167:System/scheduler/scheduler.c **** 
 168:System/scheduler/scheduler.c ****     Tsk_Ptr_tmp--;
 169:System/scheduler/scheduler.c ****     *Tsk_Ptr_tmp = 0x01000000uL; /* xPSR */
 170:System/scheduler/scheduler.c **** 
 171:System/scheduler/scheduler.c ****     Tsk_Ptr_tmp--;
 172:System/scheduler/scheduler.c ****     *Tsk_Ptr_tmp = ((uint32_t)Os_TaskCaller) & 0xfffffffeUL; /* PC */
 173:System/scheduler/scheduler.c **** 
 174:System/scheduler/scheduler.c ****     Tsk_Ptr_tmp--;
 175:System/scheduler/scheduler.c ****     *Tsk_Ptr_tmp = (uint32_t)Os_TaskExit; /* LR */
 176:System/scheduler/scheduler.c **** 
 177:System/scheduler/scheduler.c ****     /* Save code space by skipping register initialisation. */
 178:System/scheduler/scheduler.c ****     Tsk_Ptr_tmp -= 5;              /* R12, R3, R2 and R1. */
 179:System/scheduler/scheduler.c ****     *Tsk_Ptr_tmp = (uint32_t)NULL; /* R0 */
 180:System/scheduler/scheduler.c **** 
 181:System/scheduler/scheduler.c ****     /* A save method is being used that requires each task to maintain its
 182:System/scheduler/scheduler.c ****         own exec return value. */
 183:System/scheduler/scheduler.c ****     Tsk_Ptr_tmp--;
 184:System/scheduler/scheduler.c ****     *Tsk_Ptr_tmp = 0xfffffffd;
 185:System/scheduler/scheduler.c **** 
 186:System/scheduler/scheduler.c ****     Tsk_Ptr_tmp -= 8; /* R11, R10, R9, R8, R7, R6, R5 and R4. */
 187:System/scheduler/scheduler.c **** 
 188:System/scheduler/scheduler.c ****     // set task stack top pointer
 189:System/scheduler/scheduler.c ****     tsk->TCB.Top_Stk_Ptr = Tsk_Ptr_tmp; //&Tsk_Ptr_tmp
 190:System/scheduler/scheduler.c **** }
 191:System/scheduler/scheduler.c **** 
 192:System/scheduler/scheduler.c **** void Os_Init(uint32_t TickFRQ)
 193:System/scheduler/scheduler.c **** {
 194:System/scheduler/scheduler.c ****     while (!Kernel_Init())
 195:System/scheduler/scheduler.c ****         ;
 196:System/scheduler/scheduler.c **** 
 197:System/scheduler/scheduler.c ****     for (uint8_t g = Task_Group_0; g < Task_Group_Sum; g++)
 198:System/scheduler/scheduler.c ****     {
 199:System/scheduler/scheduler.c ****         for (uint8_t t = Task_Priority_0; t < Task_Priority_Sum; t++)
 200:System/scheduler/scheduler.c ****         {
 201:System/scheduler/scheduler.c ****             /* clear each data in task map ptr */
 202:System/scheduler/scheduler.c ****             Os_ResetTask_Data(&TaskPtr_Map[g][t]);
ARM GAS  C:\Users\HUAV\AppData\Local\Temp\ccLbKHgN.s 			page 5


 203:System/scheduler/scheduler.c **** 
 204:System/scheduler/scheduler.c ****             /* clear stack depth and stack memory and stack top pointer */
 205:System/scheduler/scheduler.c ****             TaskPtr_Map[g][t]->Stack_Depth = 0;
 206:System/scheduler/scheduler.c ****             TaskPtr_Map[g][t]->TCB.Stack = NULL;
 207:System/scheduler/scheduler.c ****             TaskPtr_Map[g][t]->TCB.Top_Stk_Ptr = NULL;
 208:System/scheduler/scheduler.c **** 
 209:System/scheduler/scheduler.c ****             TaskPtr_Map[g][t] = NULL;
 210:System/scheduler/scheduler.c ****         }
 211:System/scheduler/scheduler.c ****     }
 212:System/scheduler/scheduler.c **** 
 213:System/scheduler/scheduler.c ****     TskCrt_RegList.num = 0;
 214:System/scheduler/scheduler.c ****     TskCrt_RegList.list.data = NULL;
 215:System/scheduler/scheduler.c ****     TskCrt_RegList.list.nxt = NULL;
 216:System/scheduler/scheduler.c ****     TskCrt_RegList.list.prv = NULL;
 217:System/scheduler/scheduler.c **** 
 218:System/scheduler/scheduler.c ****     Os_ResetTask_Data(CurRunTsk_Ptr);
 219:System/scheduler/scheduler.c ****     Os_ResetTask_Data(NxtRunTsk_Ptr);
 220:System/scheduler/scheduler.c **** 
 221:System/scheduler/scheduler.c ****     Runtime_Config(TickFRQ);
 222:System/scheduler/scheduler.c **** 
 223:System/scheduler/scheduler.c ****     scheduler_state = Scheduler_ready;
 224:System/scheduler/scheduler.c **** }
 225:System/scheduler/scheduler.c **** 
 226:System/scheduler/scheduler.c **** Scheduler_State_List Os_State(void)
 227:System/scheduler/scheduler.c **** {
 228:System/scheduler/scheduler.c ****     return scheduler_state;
 229:System/scheduler/scheduler.c **** }
 230:System/scheduler/scheduler.c **** 
 231:System/scheduler/scheduler.c **** void Os_Start(void)
 232:System/scheduler/scheduler.c **** {
 233:System/scheduler/scheduler.c ****     NxtRunTsk_Ptr = Os_Get_HighestRank_RdyTask();
 234:System/scheduler/scheduler.c **** 
 235:System/scheduler/scheduler.c ****     if (NxtRunTsk_Ptr != NULL)
 236:System/scheduler/scheduler.c ****     {
 237:System/scheduler/scheduler.c ****         NxtTsk_TCB.Top_Stk_Ptr = &NxtRunTsk_Ptr->TCB.Top_Stk_Ptr;
 238:System/scheduler/scheduler.c ****         NxtTsk_TCB.Stack = NxtRunTsk_Ptr->TCB.Stack;
 239:System/scheduler/scheduler.c **** 
 240:System/scheduler/scheduler.c ****         CurTsk_TCB = NxtTsk_TCB;
 241:System/scheduler/scheduler.c ****     }
 242:System/scheduler/scheduler.c **** 
 243:System/scheduler/scheduler.c ****     scheduler_state = Scheduler_Start;
 244:System/scheduler/scheduler.c **** 
 245:System/scheduler/scheduler.c ****     /* before start we need create a idle task */
 246:System/scheduler/scheduler.c ****     Os_CreateIdle();
 247:System/scheduler/scheduler.c **** 
 248:System/scheduler/scheduler.c ****     // DrvTimer.ctl(DrvTimer_Counter_SetState, (uint32_t)&SysTimerObj, ENABLE);
 249:System/scheduler/scheduler.c ****     Kernel_EnablePendSV();
 250:System/scheduler/scheduler.c ****     Runtime_SetCallback(RtCallback_Type_Tick, Os_SchedulerRun);
 251:System/scheduler/scheduler.c **** 
 252:System/scheduler/scheduler.c ****     // trigger SVC Handler
 253:System/scheduler/scheduler.c ****     Kernel_LoadProcess();
 254:System/scheduler/scheduler.c **** }
 255:System/scheduler/scheduler.c **** 
 256:System/scheduler/scheduler.c **** static void Os_Idle(void)
 257:System/scheduler/scheduler.c **** {
 258:System/scheduler/scheduler.c ****     volatile SYSTEM_RunTime Rt = 0;
 259:System/scheduler/scheduler.c ****     static volatile uint64_t idle_cnt = 0;
ARM GAS  C:\Users\HUAV\AppData\Local\Temp\ccLbKHgN.s 			page 6


 260:System/scheduler/scheduler.c **** 
 261:System/scheduler/scheduler.c ****     Idle_Task->State = Task_Ready;
 262:System/scheduler/scheduler.c **** 
 263:System/scheduler/scheduler.c ****     if (Rt != Get_CurrentRunningUs())
 264:System/scheduler/scheduler.c ****     {
 265:System/scheduler/scheduler.c ****         Rt = Get_CurrentRunningUs();
 266:System/scheduler/scheduler.c ****         idle_cnt++;
 267:System/scheduler/scheduler.c ****     }
 268:System/scheduler/scheduler.c **** }
 269:System/scheduler/scheduler.c **** 
 270:System/scheduler/scheduler.c **** static bool Os_CreateIdle(void)
 271:System/scheduler/scheduler.c **** {
 272:System/scheduler/scheduler.c ****     /* for idle task we don`t need priority or other state */
 273:System/scheduler/scheduler.c ****     Idle_Task = (Task *)MMU_Malloc(sizeof(Task));
 274:System/scheduler/scheduler.c **** 
 275:System/scheduler/scheduler.c ****     if (Idle_Task == NULL)
 276:System/scheduler/scheduler.c ****         return false;
 277:System/scheduler/scheduler.c **** 
 278:System/scheduler/scheduler.c ****     Idle_Task->Task_name = "Idle";
 279:System/scheduler/scheduler.c ****     Idle_Task->priority = IDLE_TASK_PRIORITY;
 280:System/scheduler/scheduler.c ****     Idle_Task->Exec_Func = Os_Idle;
 281:System/scheduler/scheduler.c **** 
 282:System/scheduler/scheduler.c ****     Idle_Task->Stack_Depth = IDLE_TASK_STACK;
 283:System/scheduler/scheduler.c ****     Idle_Task->TCB.Stack = (uint32_t *)MMU_Malloc(IDLE_TASK_STACK * sizeof(uint32_t));
 284:System/scheduler/scheduler.c **** 
 285:System/scheduler/scheduler.c ****     if (Idle_Task->TCB.Stack != NULL)
 286:System/scheduler/scheduler.c ****     {
 287:System/scheduler/scheduler.c ****         Os_Set_TaskStk(Idle_Task);
 288:System/scheduler/scheduler.c ****     }
 289:System/scheduler/scheduler.c ****     else
 290:System/scheduler/scheduler.c ****         return false;
 291:System/scheduler/scheduler.c **** 
 292:System/scheduler/scheduler.c ****     return true;
 293:System/scheduler/scheduler.c **** }
 294:System/scheduler/scheduler.c **** 
 295:System/scheduler/scheduler.c **** Task_Handle Os_CreateTask(const char *name, uint32_t frq, Task_Group group, Task_Priority priority,
 296:System/scheduler/scheduler.c **** {
 297:System/scheduler/scheduler.c ****     Task_Handle handle;
 298:System/scheduler/scheduler.c ****     uint16_t task_name_len = strlen(name);
 299:System/scheduler/scheduler.c ****     uint32_t *Tsk_Ptr_tmp = NULL;
 300:System/scheduler/scheduler.c **** 
 301:System/scheduler/scheduler.c ****     // already have task in current group and priority in task pointer matrix
 302:System/scheduler/scheduler.c ****     if (TaskPtr_Map[group][priority] != NULL)
 303:System/scheduler/scheduler.c ****         return NULL;
 304:System/scheduler/scheduler.c **** 
 305:System/scheduler/scheduler.c ****     // request a memory space for Task_Ptr contain
 306:System/scheduler/scheduler.c ****     TaskPtr_Map[group][priority] = (Task *)MMU_Malloc(sizeof(Task));
 307:System/scheduler/scheduler.c **** 
 308:System/scheduler/scheduler.c ****     if (TaskPtr_Map[group][priority] == NULL)
 309:System/scheduler/scheduler.c ****         return NULL;
 310:System/scheduler/scheduler.c **** 
 311:System/scheduler/scheduler.c ****     // record Task_Ptr poiner`s address
 312:System/scheduler/scheduler.c ****     handle = *&TaskPtr_Map[group][priority];
 313:System/scheduler/scheduler.c **** 
 314:System/scheduler/scheduler.c ****     TaskPtr_Map[group][priority]->Task_name = name;
 315:System/scheduler/scheduler.c **** 
 316:System/scheduler/scheduler.c ****     TaskPtr_Map[group][priority]->exec_frq = frq;
ARM GAS  C:\Users\HUAV\AppData\Local\Temp\ccLbKHgN.s 			page 7


 317:System/scheduler/scheduler.c ****     TaskPtr_Map[group][priority]->exec_interval_us = SCHEDULER_TIMEBASE / frq;
 318:System/scheduler/scheduler.c ****     TaskPtr_Map[group][priority]->Exec_Func = func;
 319:System/scheduler/scheduler.c **** 
 320:System/scheduler/scheduler.c ****     TaskPtr_Map[group][priority]->priority = (group << 3) | priority;
 321:System/scheduler/scheduler.c **** 
 322:System/scheduler/scheduler.c ****     // request memory space for task stack
 323:System/scheduler/scheduler.c ****     TaskPtr_Map[group][priority]->Stack_Depth = StackDepth;
 324:System/scheduler/scheduler.c ****     TaskPtr_Map[group][priority]->TCB.Stack = (uint32_t *)MMU_Malloc(StackDepth * sizeof(uint32_t))
 325:System/scheduler/scheduler.c **** 
 326:System/scheduler/scheduler.c ****     if (TaskPtr_Map[group][priority]->TCB.Stack != NULL)
 327:System/scheduler/scheduler.c ****     {
 328:System/scheduler/scheduler.c ****         Os_Set_TaskStk(TaskPtr_Map[group][priority]);
 329:System/scheduler/scheduler.c ****     }
 330:System/scheduler/scheduler.c ****     else
 331:System/scheduler/scheduler.c ****         return NULL;
 332:System/scheduler/scheduler.c **** 
 333:System/scheduler/scheduler.c ****     // reset single loop running us
 334:System/scheduler/scheduler.c ****     TaskPtr_Map[group][priority]->TskFuncUing_US = 0;
 335:System/scheduler/scheduler.c **** 
 336:System/scheduler/scheduler.c ****     // reset task cpu occupy data
 337:System/scheduler/scheduler.c ****     TaskPtr_Map[group][priority]->Exec_status.cpu_opy = 0;
 338:System/scheduler/scheduler.c ****     TaskPtr_Map[group][priority]->Exec_status.Running_Time = 0;
 339:System/scheduler/scheduler.c **** 
 340:System/scheduler/scheduler.c ****     // set current group flag to ready
 341:System/scheduler/scheduler.c ****     TskHdl_RdyMap.Grp.Flg |= 1 << GET_TASKGROUP_PRIORITY(TaskPtr_Map[group][priority]->priority);
 342:System/scheduler/scheduler.c ****     // set current task under this group flag to ready
 343:System/scheduler/scheduler.c ****     TskHdl_RdyMap.TskInGrp[GET_TASKGROUP_PRIORITY(TaskPtr_Map[group][priority]->priority)].Flg |= 1
 344:System/scheduler/scheduler.c **** 
 345:System/scheduler/scheduler.c ****     TaskPtr_Map[group][priority]->Exec_status.detect_exec_frq = 0;
 346:System/scheduler/scheduler.c **** 
 347:System/scheduler/scheduler.c ****     RuntimeObj_Reset(&(TaskPtr_Map[group][priority]->Exec_status.Exec_Time));
 348:System/scheduler/scheduler.c ****     RuntimeObj_Reset(&(TaskPtr_Map[group][priority]->Exec_status.Start_Time));
 349:System/scheduler/scheduler.c **** 
 350:System/scheduler/scheduler.c ****     TaskPtr_Map[group][priority]->Exec_status.Exec_cnt = 0;
 351:System/scheduler/scheduler.c ****     TaskPtr_Map[group][priority]->Exec_status.error_code = NOERROR;
 352:System/scheduler/scheduler.c **** 
 353:System/scheduler/scheduler.c ****     Os_Set_TaskReady(TaskPtr_Map[group][priority]);
 354:System/scheduler/scheduler.c **** 
 355:System/scheduler/scheduler.c ****     TaskPtr_Map[group][priority]->item_ptr = (item_obj *)MMU_Malloc(sizeof(item_obj));
 356:System/scheduler/scheduler.c ****     if (TaskPtr_Map[group][priority]->item_ptr == NULL)
 357:System/scheduler/scheduler.c ****         return NULL;
 358:System/scheduler/scheduler.c **** 
 359:System/scheduler/scheduler.c ****     List_ItemInit(TaskPtr_Map[group][priority]->item_ptr, TaskPtr_Map[group][priority]);
 360:System/scheduler/scheduler.c ****     if (TskCrt_RegList.num == 0)
 361:System/scheduler/scheduler.c ****     {
 362:System/scheduler/scheduler.c ****         List_Init(&TskCrt_RegList.list, TaskPtr_Map[group][priority]->item_ptr, by_condition, Os_Ta
 363:System/scheduler/scheduler.c ****     }
 364:System/scheduler/scheduler.c ****     else
 365:System/scheduler/scheduler.c ****     {
 366:System/scheduler/scheduler.c ****         List_Insert_Item(&TskCrt_RegList.list, TaskPtr_Map[group][priority]->item_ptr);
 367:System/scheduler/scheduler.c ****     }
 368:System/scheduler/scheduler.c **** 
 369:System/scheduler/scheduler.c ****     TskCrt_RegList.num++;
 370:System/scheduler/scheduler.c **** 
 371:System/scheduler/scheduler.c ****     return handle;
 372:System/scheduler/scheduler.c **** }
 373:System/scheduler/scheduler.c **** 
ARM GAS  C:\Users\HUAV\AppData\Local\Temp\ccLbKHgN.s 			page 8


 374:System/scheduler/scheduler.c **** static void Os_ResetTask_Data(Task *task)
 375:System/scheduler/scheduler.c **** {
 376:System/scheduler/scheduler.c ****     task->priority = 0;
 377:System/scheduler/scheduler.c ****     task->Task_name = NULL;
 378:System/scheduler/scheduler.c ****     task->exec_frq = 0;
 379:System/scheduler/scheduler.c ****     task->exec_interval_us = 0;
 380:System/scheduler/scheduler.c ****     task->Exec_Func = NULL;
 381:System/scheduler/scheduler.c **** 
 382:System/scheduler/scheduler.c ****     task->Exec_status.detect_exec_frq = 0;
 383:System/scheduler/scheduler.c ****     task->Exec_status.Exec_cnt = 0;
 384:System/scheduler/scheduler.c ****     task->Exec_status.cpu_opy = 0;
 385:System/scheduler/scheduler.c ****     task->Exec_status.Running_Time = 0;
 386:System/scheduler/scheduler.c **** 
 387:System/scheduler/scheduler.c ****     RuntimeObj_Reset(&(task->Exec_status.Exec_Time));
 388:System/scheduler/scheduler.c **** 
 389:System/scheduler/scheduler.c ****     task->State = Task_Init;
 390:System/scheduler/scheduler.c **** }
 391:System/scheduler/scheduler.c **** 
 392:System/scheduler/scheduler.c **** static void Os_Set_TaskReady(Task *tsk)
 393:System/scheduler/scheduler.c **** {
  28              		.loc 1 393 1 view -0
  29              		.cfi_startproc
  30              		@ args = 0, pretend = 0, frame = 0
  31              		@ frame_needed = 0, uses_anonymous_args = 0
  32              		.loc 1 393 1 is_stmt 0 view .LVU1
  33 0000 10B5     		push	{r4, lr}
  34              	.LCFI0:
  35              		.cfi_def_cfa_offset 8
  36              		.cfi_offset 4, -8
  37              		.cfi_offset 14, -4
 394:System/scheduler/scheduler.c ****     uint8_t grp_id = GET_TASKGROUP_PRIORITY(tsk->priority);
  38              		.loc 1 394 5 is_stmt 1 view .LVU2
  39              		.loc 1 394 22 is_stmt 0 view .LVU3
  40 0002 4278     		ldrb	r2, [r0, #1]	@ zero_extendqisi2
  41              		.loc 1 394 13 view .LVU4
  42 0004 4FEAD20E 		lsr	lr, r2, #3
  43              	.LVL1:
 395:System/scheduler/scheduler.c ****     uint8_t tsk_id = GET_TASKINGROUP_PRIORITY(tsk->priority);
  44              		.loc 1 395 5 is_stmt 1 view .LVU5
  45              		.loc 1 395 13 is_stmt 0 view .LVU6
  46 0008 02F00702 		and	r2, r2, #7
  47              	.LVL2:
 396:System/scheduler/scheduler.c **** 
 397:System/scheduler/scheduler.c ****     // set current group flag to ready
 398:System/scheduler/scheduler.c ****     TskHdl_RdyMap.Grp.Flg |= 1 << grp_id;
  48              		.loc 1 398 5 is_stmt 1 view .LVU7
  49              		.loc 1 398 27 is_stmt 0 view .LVU8
  50 000c 094B     		ldr	r3, .L3
  51 000e 1978     		ldrb	r1, [r3]	@ zero_extendqisi2
  52              		.loc 1 398 32 view .LVU9
  53 0010 4FF0010C 		mov	ip, #1
  54 0014 0CFA0EF4 		lsl	r4, ip, lr
  55              		.loc 1 398 27 view .LVU10
  56 0018 2143     		orrs	r1, r1, r4
  57 001a C9B2     		uxtb	r1, r1
  58 001c 1970     		strb	r1, [r3]
 399:System/scheduler/scheduler.c ****     // set current task under this group flag to ready
ARM GAS  C:\Users\HUAV\AppData\Local\Temp\ccLbKHgN.s 			page 9


 400:System/scheduler/scheduler.c ****     TskHdl_RdyMap.TskInGrp[grp_id].Flg |= 1 << tsk_id;
  59              		.loc 1 400 5 is_stmt 1 view .LVU11
  60              		.loc 1 400 40 is_stmt 0 view .LVU12
  61 001e 7344     		add	r3, r3, lr
  62 0020 5978     		ldrb	r1, [r3, #1]	@ zero_extendqisi2
  63              		.loc 1 400 45 view .LVU13
  64 0022 0CFA02F2 		lsl	r2, ip, r2
  65              	.LVL3:
  66              		.loc 1 400 40 view .LVU14
  67 0026 0A43     		orrs	r2, r2, r1
  68 0028 D2B2     		uxtb	r2, r2
  69 002a 5A70     		strb	r2, [r3, #1]
  70              	.LVL4:
 401:System/scheduler/scheduler.c **** 
 402:System/scheduler/scheduler.c ****     tsk->State = Task_Ready;
  71              		.loc 1 402 5 is_stmt 1 view .LVU15
  72              		.loc 1 402 16 is_stmt 0 view .LVU16
  73 002c 80F800C0 		strb	ip, [r0]
 403:System/scheduler/scheduler.c **** }
  74              		.loc 1 403 1 view .LVU17
  75 0030 10BD     		pop	{r4, pc}
  76              	.L4:
  77 0032 00BF     		.align	2
  78              	.L3:
  79 0034 00000000 		.word	.LANCHOR0
  80              		.cfi_endproc
  81              	.LFE158:
  83              		.section	.text.Os_Set_TaskBlock,"ax",%progbits
  84              		.align	1
  85              		.syntax unified
  86              		.thumb
  87              		.thumb_func
  89              	Os_Set_TaskBlock:
  90              	.LVL5:
  91              	.LFB160:
 404:System/scheduler/scheduler.c **** 
 405:System/scheduler/scheduler.c **** void Os_Set_TaskPending(Task *tsk)
 406:System/scheduler/scheduler.c **** {
 407:System/scheduler/scheduler.c ****     uint8_t grp_id = GET_TASKGROUP_PRIORITY(tsk->priority);
 408:System/scheduler/scheduler.c ****     uint8_t tsk_id = GET_TASKINGROUP_PRIORITY(tsk->priority);
 409:System/scheduler/scheduler.c **** 
 410:System/scheduler/scheduler.c ****     // set current group pending
 411:System/scheduler/scheduler.c ****     TskHdl_PndMap.Grp.Flg |= 1 << grp_id;
 412:System/scheduler/scheduler.c ****     // set current task under this group flag to ready
 413:System/scheduler/scheduler.c ****     TskHdl_PndMap.TskInGrp[grp_id].Flg |= 1 << tsk_id;
 414:System/scheduler/scheduler.c **** 
 415:System/scheduler/scheduler.c ****     // set task state
 416:System/scheduler/scheduler.c ****     tsk->State = Task_Pending;
 417:System/scheduler/scheduler.c **** }
 418:System/scheduler/scheduler.c **** 
 419:System/scheduler/scheduler.c **** static void Os_Set_TaskBlock(Task *tsk, TASK_STATE state)
 420:System/scheduler/scheduler.c **** {
  92              		.loc 1 420 1 is_stmt 1 view -0
  93              		.cfi_startproc
  94              		@ args = 0, pretend = 0, frame = 0
  95              		@ frame_needed = 0, uses_anonymous_args = 0
  96              		.loc 1 420 1 is_stmt 0 view .LVU19
ARM GAS  C:\Users\HUAV\AppData\Local\Temp\ccLbKHgN.s 			page 10


  97 0000 30B5     		push	{r4, r5, lr}
  98              	.LCFI1:
  99              		.cfi_def_cfa_offset 12
 100              		.cfi_offset 4, -12
 101              		.cfi_offset 5, -8
 102              		.cfi_offset 14, -4
 421:System/scheduler/scheduler.c ****     uint8_t grp_id = GET_TASKGROUP_PRIORITY(tsk->priority);
 103              		.loc 1 421 5 is_stmt 1 view .LVU20
 104              		.loc 1 421 22 is_stmt 0 view .LVU21
 105 0002 90F801E0 		ldrb	lr, [r0, #1]	@ zero_extendqisi2
 106              		.loc 1 421 13 view .LVU22
 107 0006 4FEADE02 		lsr	r2, lr, #3
 108              	.LVL6:
 422:System/scheduler/scheduler.c ****     uint8_t tsk_id = GET_TASKINGROUP_PRIORITY(tsk->priority);
 109              		.loc 1 422 5 is_stmt 1 view .LVU23
 110              		.loc 1 422 13 is_stmt 0 view .LVU24
 111 000a 0EF00704 		and	r4, lr, #7
 112              	.LVL7:
 423:System/scheduler/scheduler.c **** 
 424:System/scheduler/scheduler.c ****     // set current group pending
 425:System/scheduler/scheduler.c ****     TskHdl_BlkMap.Grp.Flg |= 1 << grp_id;
 113              		.loc 1 425 5 is_stmt 1 view .LVU25
 114              		.loc 1 425 27 is_stmt 0 view .LVU26
 115 000e 0B4B     		ldr	r3, .L7
 116 0010 93F800C0 		ldrb	ip, [r3]	@ zero_extendqisi2
 117              		.loc 1 425 32 view .LVU27
 118 0014 4FF0010E 		mov	lr, #1
 119 0018 0EFA02F5 		lsl	r5, lr, r2
 120              		.loc 1 425 27 view .LVU28
 121 001c 4CEA050C 		orr	ip, ip, r5
 122 0020 5FFA8CFC 		uxtb	ip, ip
 123 0024 83F800C0 		strb	ip, [r3]
 426:System/scheduler/scheduler.c ****     // set current task under this group flag to ready
 427:System/scheduler/scheduler.c ****     TskHdl_BlkMap.TskInGrp[grp_id].Flg |= 1 << tsk_id;
 124              		.loc 1 427 5 is_stmt 1 view .LVU29
 125              		.loc 1 427 40 is_stmt 0 view .LVU30
 126 0028 1344     		add	r3, r3, r2
 127 002a 5A78     		ldrb	r2, [r3, #1]	@ zero_extendqisi2
 128              	.LVL8:
 129              		.loc 1 427 45 view .LVU31
 130 002c 0EFA04FE 		lsl	lr, lr, r4
 131              		.loc 1 427 40 view .LVU32
 132 0030 42EA0E02 		orr	r2, r2, lr
 133 0034 D2B2     		uxtb	r2, r2
 134 0036 5A70     		strb	r2, [r3, #1]
 135              	.LVL9:
 428:System/scheduler/scheduler.c **** 
 429:System/scheduler/scheduler.c ****     // set task state
 430:System/scheduler/scheduler.c ****     tsk->State = state;
 136              		.loc 1 430 5 is_stmt 1 view .LVU33
 137              		.loc 1 430 16 is_stmt 0 view .LVU34
 138 0038 0170     		strb	r1, [r0]
 431:System/scheduler/scheduler.c **** }
 139              		.loc 1 431 1 view .LVU35
 140 003a 30BD     		pop	{r4, r5, pc}
 141              	.LVL10:
 142              	.L8:
ARM GAS  C:\Users\HUAV\AppData\Local\Temp\ccLbKHgN.s 			page 11


 143              		.loc 1 431 1 view .LVU36
 144              		.align	2
 145              	.L7:
 146 003c 00000000 		.word	.LANCHOR1
 147              		.cfi_endproc
 148              	.LFE160:
 150              		.section	.text.Os_Clr_TaskReady,"ax",%progbits
 151              		.align	1
 152              		.syntax unified
 153              		.thumb
 154              		.thumb_func
 156              	Os_Clr_TaskReady:
 157              	.LVL11:
 158              	.LFB161:
 432:System/scheduler/scheduler.c **** 
 433:System/scheduler/scheduler.c **** static void Os_Clr_TaskReady(Task *tsk)
 434:System/scheduler/scheduler.c **** {
 159              		.loc 1 434 1 is_stmt 1 view -0
 160              		.cfi_startproc
 161              		@ args = 0, pretend = 0, frame = 0
 162              		@ frame_needed = 0, uses_anonymous_args = 0
 435:System/scheduler/scheduler.c ****     uint8_t grp_id = GET_TASKGROUP_PRIORITY(tsk->priority);
 163              		.loc 1 435 5 view .LVU38
 164              		.loc 1 435 22 is_stmt 0 view .LVU39
 165 0000 4078     		ldrb	r0, [r0, #1]	@ zero_extendqisi2
 166              	.LVL12:
 436:System/scheduler/scheduler.c ****     uint8_t tsk_id = GET_TASKINGROUP_PRIORITY(tsk->priority);
 167              		.loc 1 436 5 is_stmt 1 view .LVU40
 168              		.loc 1 436 13 is_stmt 0 view .LVU41
 169 0002 00F0070C 		and	ip, r0, #7
 170              	.LVL13:
 437:System/scheduler/scheduler.c **** 
 438:System/scheduler/scheduler.c ****     TskHdl_RdyMap.TskInGrp[grp_id].Flg &= ~(1 << tsk_id);
 171              		.loc 1 438 5 is_stmt 1 view .LVU42
 172              		.loc 1 438 40 is_stmt 0 view .LVU43
 173 0006 0D4B     		ldr	r3, .L15
 174 0008 03EBD003 		add	r3, r3, r0, lsr #3
 175 000c 5A78     		ldrb	r2, [r3, #1]	@ zero_extendqisi2
 176              		.loc 1 438 47 view .LVU44
 177 000e 0121     		movs	r1, #1
 178 0010 01FA0CF1 		lsl	r1, r1, ip
 179              		.loc 1 438 40 view .LVU45
 180 0014 22EA0102 		bic	r2, r2, r1
 181 0018 5A70     		strb	r2, [r3, #1]
 439:System/scheduler/scheduler.c ****     if (TskHdl_RdyMap.TskInGrp[grp_id].Flg == 0)
 182              		.loc 1 439 5 is_stmt 1 view .LVU46
 183              		.loc 1 439 39 is_stmt 0 view .LVU47
 184 001a 5978     		ldrb	r1, [r3, #1]	@ zero_extendqisi2
 185              		.loc 1 439 8 view .LVU48
 186 001c 61B9     		cbnz	r1, .L12
 434:System/scheduler/scheduler.c ****     uint8_t grp_id = GET_TASKGROUP_PRIORITY(tsk->priority);
 187              		.loc 1 434 1 view .LVU49
 188 001e 00B5     		push	{lr}
 189              	.LCFI2:
 190              		.cfi_def_cfa_offset 4
 191              		.cfi_offset 14, -4
 192 0020 4FEAD00E 		lsr	lr, r0, #3
ARM GAS  C:\Users\HUAV\AppData\Local\Temp\ccLbKHgN.s 			page 12


 440:System/scheduler/scheduler.c ****     {
 441:System/scheduler/scheduler.c ****         TskHdl_RdyMap.Grp.Flg &= ~(1 << grp_id);
 193              		.loc 1 441 9 is_stmt 1 view .LVU50
 194              		.loc 1 441 31 is_stmt 0 view .LVU51
 195 0024 0549     		ldr	r1, .L15
 196 0026 0B78     		ldrb	r3, [r1]	@ zero_extendqisi2
 197              		.loc 1 441 38 view .LVU52
 198 0028 0122     		movs	r2, #1
 199 002a 02FA0EF2 		lsl	r2, r2, lr
 200              		.loc 1 441 31 view .LVU53
 201 002e 23EA0203 		bic	r3, r3, r2
 202 0032 0B70     		strb	r3, [r1]
 442:System/scheduler/scheduler.c ****     }
 443:System/scheduler/scheduler.c **** }
 203              		.loc 1 443 1 view .LVU54
 204 0034 5DF804FB 		ldr	pc, [sp], #4
 205              	.L12:
 206              	.LCFI3:
 207              		.cfi_def_cfa_offset 0
 208              		.cfi_restore 14
 209 0038 7047     		bx	lr
 210              	.L16:
 211 003a 00BF     		.align	2
 212              	.L15:
 213 003c 00000000 		.word	.LANCHOR0
 214              		.cfi_endproc
 215              	.LFE161:
 217              		.section	.text.Os_Clr_TaskPending,"ax",%progbits
 218              		.align	1
 219              		.syntax unified
 220              		.thumb
 221              		.thumb_func
 223              	Os_Clr_TaskPending:
 224              	.LVL14:
 225              	.LFB162:
 444:System/scheduler/scheduler.c **** 
 445:System/scheduler/scheduler.c **** static void Os_Clr_TaskPending(Task *tsk)
 446:System/scheduler/scheduler.c **** {
 226              		.loc 1 446 1 is_stmt 1 view -0
 227              		.cfi_startproc
 228              		@ args = 0, pretend = 0, frame = 0
 229              		@ frame_needed = 0, uses_anonymous_args = 0
 447:System/scheduler/scheduler.c ****     uint8_t grp_id = GET_TASKGROUP_PRIORITY(tsk->priority);
 230              		.loc 1 447 5 view .LVU56
 231              		.loc 1 447 22 is_stmt 0 view .LVU57
 232 0000 4078     		ldrb	r0, [r0, #1]	@ zero_extendqisi2
 233              	.LVL15:
 448:System/scheduler/scheduler.c ****     uint8_t tsk_id = GET_TASKINGROUP_PRIORITY(tsk->priority);
 234              		.loc 1 448 5 is_stmt 1 view .LVU58
 235              		.loc 1 448 13 is_stmt 0 view .LVU59
 236 0002 00F0070C 		and	ip, r0, #7
 237              	.LVL16:
 449:System/scheduler/scheduler.c **** 
 450:System/scheduler/scheduler.c ****     TskHdl_PndMap.TskInGrp[grp_id].Flg &= ~(1 << tsk_id);
 238              		.loc 1 450 5 is_stmt 1 view .LVU60
 239              		.loc 1 450 40 is_stmt 0 view .LVU61
 240 0006 0D4B     		ldr	r3, .L23
ARM GAS  C:\Users\HUAV\AppData\Local\Temp\ccLbKHgN.s 			page 13


 241 0008 03EBD003 		add	r3, r3, r0, lsr #3
 242 000c 5A78     		ldrb	r2, [r3, #1]	@ zero_extendqisi2
 243              		.loc 1 450 47 view .LVU62
 244 000e 0121     		movs	r1, #1
 245 0010 01FA0CF1 		lsl	r1, r1, ip
 246              		.loc 1 450 40 view .LVU63
 247 0014 22EA0102 		bic	r2, r2, r1
 248 0018 5A70     		strb	r2, [r3, #1]
 451:System/scheduler/scheduler.c ****     if (TskHdl_PndMap.TskInGrp[grp_id].Flg == 0)
 249              		.loc 1 451 5 is_stmt 1 view .LVU64
 250              		.loc 1 451 39 is_stmt 0 view .LVU65
 251 001a 5978     		ldrb	r1, [r3, #1]	@ zero_extendqisi2
 252              		.loc 1 451 8 view .LVU66
 253 001c 61B9     		cbnz	r1, .L20
 446:System/scheduler/scheduler.c ****     uint8_t grp_id = GET_TASKGROUP_PRIORITY(tsk->priority);
 254              		.loc 1 446 1 view .LVU67
 255 001e 00B5     		push	{lr}
 256              	.LCFI4:
 257              		.cfi_def_cfa_offset 4
 258              		.cfi_offset 14, -4
 259 0020 4FEAD00E 		lsr	lr, r0, #3
 452:System/scheduler/scheduler.c ****     {
 453:System/scheduler/scheduler.c ****         TskHdl_PndMap.Grp.Flg &= ~(1 << grp_id);
 260              		.loc 1 453 9 is_stmt 1 view .LVU68
 261              		.loc 1 453 31 is_stmt 0 view .LVU69
 262 0024 0549     		ldr	r1, .L23
 263 0026 0B78     		ldrb	r3, [r1]	@ zero_extendqisi2
 264              		.loc 1 453 38 view .LVU70
 265 0028 0122     		movs	r2, #1
 266 002a 02FA0EF2 		lsl	r2, r2, lr
 267              		.loc 1 453 31 view .LVU71
 268 002e 23EA0203 		bic	r3, r3, r2
 269 0032 0B70     		strb	r3, [r1]
 454:System/scheduler/scheduler.c ****     }
 455:System/scheduler/scheduler.c **** }
 270              		.loc 1 455 1 view .LVU72
 271 0034 5DF804FB 		ldr	pc, [sp], #4
 272              	.L20:
 273              	.LCFI5:
 274              		.cfi_def_cfa_offset 0
 275              		.cfi_restore 14
 276 0038 7047     		bx	lr
 277              	.L24:
 278 003a 00BF     		.align	2
 279              	.L23:
 280 003c 00000000 		.word	.LANCHOR2
 281              		.cfi_endproc
 282              	.LFE162:
 284              		.section	.text.Os_TaskExit,"ax",%progbits
 285              		.align	1
 286              		.syntax unified
 287              		.thumb
 288              		.thumb_func
 290              	Os_TaskExit:
 291              	.LFB166:
 456:System/scheduler/scheduler.c **** 
 457:System/scheduler/scheduler.c **** static void Os_Clr_TaskBlock(Task *tsk)
ARM GAS  C:\Users\HUAV\AppData\Local\Temp\ccLbKHgN.s 			page 14


 458:System/scheduler/scheduler.c **** {
 459:System/scheduler/scheduler.c ****     uint8_t grp_id = GET_TASKGROUP_PRIORITY(tsk->priority);
 460:System/scheduler/scheduler.c ****     uint8_t tsk_id = GET_TASKINGROUP_PRIORITY(tsk->priority);
 461:System/scheduler/scheduler.c **** 
 462:System/scheduler/scheduler.c ****     TskHdl_BlkMap.TskInGrp[grp_id].Flg &= ~(1 << tsk_id);
 463:System/scheduler/scheduler.c ****     if (TskHdl_BlkMap.TskInGrp[grp_id].Flg == 0)
 464:System/scheduler/scheduler.c ****     {
 465:System/scheduler/scheduler.c ****         TskHdl_BlkMap.Grp.Flg &= ~(1 << grp_id);
 466:System/scheduler/scheduler.c ****     }
 467:System/scheduler/scheduler.c **** }
 468:System/scheduler/scheduler.c **** 
 469:System/scheduler/scheduler.c **** static void Os_SchedulerRun(SYSTEM_RunTime Rt)
 470:System/scheduler/scheduler.c **** {
 471:System/scheduler/scheduler.c ****     SYSTEM_RunTime CurRt_US = Rt;
 472:System/scheduler/scheduler.c ****     Task *TskPtr_Tmp = NULL;
 473:System/scheduler/scheduler.c **** 
 474:System/scheduler/scheduler.c ****     if (TskCrt_RegList.num)
 475:System/scheduler/scheduler.c ****     {
 476:System/scheduler/scheduler.c ****         /* check task state ready or not */
 477:System/scheduler/scheduler.c ****         List_traverse(&TskCrt_RegList.list, Os_TaskCrtList_TraverseCallback, &CurRt_US, pre_callbac
 478:System/scheduler/scheduler.c ****     }
 479:System/scheduler/scheduler.c **** 
 480:System/scheduler/scheduler.c ****     TskPtr_Tmp = Os_TaskPri_Compare(Os_TaskPri_Compare(Os_Get_HighestRank_RdyTask(), Os_Get_Highest
 481:System/scheduler/scheduler.c **** 
 482:System/scheduler/scheduler.c ****     if (TskPtr_Tmp != CurRunTsk_Ptr)
 483:System/scheduler/scheduler.c ****     {
 484:System/scheduler/scheduler.c ****         if (TskPtr_Tmp != NULL)
 485:System/scheduler/scheduler.c ****         {
 486:System/scheduler/scheduler.c ****             if (TskPtr_Tmp->State == Task_Pending)
 487:System/scheduler/scheduler.c ****             {
 488:System/scheduler/scheduler.c ****                 /* got problem after priority preemption */
 489:System/scheduler/scheduler.c **** 
 490:System/scheduler/scheduler.c ****                 Os_Clr_TaskPending(TskPtr_Tmp);
 491:System/scheduler/scheduler.c ****                 Os_Set_TaskReady(TskPtr_Tmp);
 492:System/scheduler/scheduler.c ****             }
 493:System/scheduler/scheduler.c **** 
 494:System/scheduler/scheduler.c ****             if ((CurRunTsk_Ptr != NULL) && (CurRunTsk_Ptr != Idle_Task) && (CurRunTsk_Ptr->State ==
 495:System/scheduler/scheduler.c ****             {
 496:System/scheduler/scheduler.c ****                 /* set current task in pending list */
 497:System/scheduler/scheduler.c ****                 Os_Set_TaskPending(CurRunTsk_Ptr);
 498:System/scheduler/scheduler.c ****             }
 499:System/scheduler/scheduler.c **** 
 500:System/scheduler/scheduler.c ****             if ((TskPtr_Tmp->State != Task_DelayBlock) && (TskPtr_Tmp->State != Task_SignalBlock))
 501:System/scheduler/scheduler.c ****             {
 502:System/scheduler/scheduler.c ****                 NxtRunTsk_Ptr = TskPtr_Tmp;
 503:System/scheduler/scheduler.c **** 
 504:System/scheduler/scheduler.c ****                 NxtTsk_TCB.Top_Stk_Ptr = &NxtRunTsk_Ptr->TCB.Top_Stk_Ptr;
 505:System/scheduler/scheduler.c ****                 NxtTsk_TCB.Stack = NxtRunTsk_Ptr->TCB.Stack;
 506:System/scheduler/scheduler.c **** 
 507:System/scheduler/scheduler.c ****                 /* trigger pendsv to switch task */
 508:System/scheduler/scheduler.c ****                 Kernel_TriggerPendSV();
 509:System/scheduler/scheduler.c ****             }
 510:System/scheduler/scheduler.c ****         }
 511:System/scheduler/scheduler.c ****     }
 512:System/scheduler/scheduler.c ****     else
 513:System/scheduler/scheduler.c ****     {
 514:System/scheduler/scheduler.c ****         if (((TskPtr_Tmp == NULL) &&
ARM GAS  C:\Users\HUAV\AppData\Local\Temp\ccLbKHgN.s 			page 15


 515:System/scheduler/scheduler.c ****              (CurRunTsk_Ptr == NULL)) ||
 516:System/scheduler/scheduler.c ****             (TskPtr_Tmp->State == Task_DelayBlock) ||
 517:System/scheduler/scheduler.c ****             (TskPtr_Tmp->State == Task_SignalBlock))
 518:System/scheduler/scheduler.c ****         {
 519:System/scheduler/scheduler.c ****             Idle_Task->State = Task_Ready;
 520:System/scheduler/scheduler.c **** 
 521:System/scheduler/scheduler.c ****             NxtRunTsk_Ptr = Idle_Task;
 522:System/scheduler/scheduler.c **** 
 523:System/scheduler/scheduler.c ****             NxtTsk_TCB.Top_Stk_Ptr = &Idle_Task->TCB.Top_Stk_Ptr;
 524:System/scheduler/scheduler.c ****             NxtTsk_TCB.Stack = Idle_Task->TCB.Stack;
 525:System/scheduler/scheduler.c **** 
 526:System/scheduler/scheduler.c ****             /* trigger pendsv to switch task */
 527:System/scheduler/scheduler.c ****             Kernel_TriggerPendSV();
 528:System/scheduler/scheduler.c ****         }
 529:System/scheduler/scheduler.c ****     }
 530:System/scheduler/scheduler.c **** }
 531:System/scheduler/scheduler.c **** 
 532:System/scheduler/scheduler.c **** /* still got bug down below */
 533:System/scheduler/scheduler.c **** void Os_TaskDelay_Ms(Task_Handle hdl, uint32_t Ms)
 534:System/scheduler/scheduler.c **** {
 535:System/scheduler/scheduler.c ****     Task *NxtTsk_Tmp = NULL;
 536:System/scheduler/scheduler.c **** 
 537:System/scheduler/scheduler.c ****     SYSTEM_RunTime delay_tick_base = (Ms * REAL_1MS);
 538:System/scheduler/scheduler.c **** 
 539:System/scheduler/scheduler.c ****     /* set task next ready time */
 540:System/scheduler/scheduler.c ****     TaskHandlerToObj(hdl)->Exec_status.Exec_Time += delay_tick_base;
 541:System/scheduler/scheduler.c **** 
 542:System/scheduler/scheduler.c ****     /* clear from ready list */
 543:System/scheduler/scheduler.c ****     Os_Clr_TaskReady(TaskHandlerToObj(hdl));
 544:System/scheduler/scheduler.c ****     Os_Set_TaskBlock(TaskHandlerToObj(hdl), Task_DelayBlock);
 545:System/scheduler/scheduler.c **** 
 546:System/scheduler/scheduler.c ****     NxtTsk_Tmp = Os_Get_HighestRank_RdyTask();
 547:System/scheduler/scheduler.c **** 
 548:System/scheduler/scheduler.c ****     if (NxtTsk_Tmp == NULL)
 549:System/scheduler/scheduler.c ****     {
 550:System/scheduler/scheduler.c ****         NxtRunTsk_Ptr = Idle_Task;
 551:System/scheduler/scheduler.c ****         Idle_Task->State = Task_Ready;
 552:System/scheduler/scheduler.c **** 
 553:System/scheduler/scheduler.c ****         NxtTsk_TCB.Top_Stk_Ptr = &Idle_Task->TCB.Top_Stk_Ptr;
 554:System/scheduler/scheduler.c ****         NxtTsk_TCB.Stack = Idle_Task->TCB.Stack;
 555:System/scheduler/scheduler.c ****     }
 556:System/scheduler/scheduler.c ****     else
 557:System/scheduler/scheduler.c ****     {
 558:System/scheduler/scheduler.c ****         NxtRunTsk_Ptr = NxtTsk_Tmp;
 559:System/scheduler/scheduler.c **** 
 560:System/scheduler/scheduler.c ****         NxtTsk_TCB.Top_Stk_Ptr = &NxtTsk_Tmp->TCB.Top_Stk_Ptr;
 561:System/scheduler/scheduler.c ****         NxtTsk_TCB.Stack = NxtTsk_Tmp->TCB.Stack;
 562:System/scheduler/scheduler.c ****     }
 563:System/scheduler/scheduler.c **** 
 564:System/scheduler/scheduler.c ****     /* trigger pendsv to switch task */
 565:System/scheduler/scheduler.c ****     /* do not anticipate scheduler been triggerd when it happend  */
 566:System/scheduler/scheduler.c ****     Kernel_TriggerPendSV();
 567:System/scheduler/scheduler.c **** }
 568:System/scheduler/scheduler.c **** 
 569:System/scheduler/scheduler.c **** /*
 570:System/scheduler/scheduler.c ****  * task caller will not exit
 571:System/scheduler/scheduler.c ****  * if Os run into this func is sort of error happened
ARM GAS  C:\Users\HUAV\AppData\Local\Temp\ccLbKHgN.s 			page 16


 572:System/scheduler/scheduler.c ****  */
 573:System/scheduler/scheduler.c **** static void Os_TaskExit(void)
 574:System/scheduler/scheduler.c **** {
 292              		.loc 1 574 1 is_stmt 1 view -0
 293              		.cfi_startproc
 294              		@ Volatile: function does not return.
 295              		@ args = 0, pretend = 0, frame = 0
 296              		@ frame_needed = 0, uses_anonymous_args = 0
 297              		@ link register save eliminated.
 298              	.L26:
 575:System/scheduler/scheduler.c ****     while (true)
 299              		.loc 1 575 5 discriminator 1 view .LVU74
 576:System/scheduler/scheduler.c ****     {
 577:System/scheduler/scheduler.c ****     }
 300              		.loc 1 577 5 discriminator 1 view .LVU75
 575:System/scheduler/scheduler.c ****     while (true)
 301              		.loc 1 575 11 discriminator 1 view .LVU76
 302 0000 FEE7     		b	.L26
 303              		.cfi_endproc
 304              	.LFE166:
 306              		.section	.text.Os_Get_HighestRank_RdyTask,"ax",%progbits
 307              		.align	1
 308              		.syntax unified
 309              		.thumb
 310              		.thumb_func
 312              	Os_Get_HighestRank_RdyTask:
 313              	.LFB167:
 578:System/scheduler/scheduler.c **** }
 579:System/scheduler/scheduler.c **** 
 580:System/scheduler/scheduler.c **** static Task *Os_Get_HighestRank_RdyTask(void)
 581:System/scheduler/scheduler.c **** {
 314              		.loc 1 581 1 view -0
 315              		.cfi_startproc
 316              		@ args = 0, pretend = 0, frame = 0
 317              		@ frame_needed = 0, uses_anonymous_args = 0
 582:System/scheduler/scheduler.c ****     uint8_t grp_id = 0;
 318              		.loc 1 582 5 view .LVU78
 319              	.LVL17:
 583:System/scheduler/scheduler.c ****     uint8_t tsk_id = 0;
 320              		.loc 1 583 5 view .LVU79
 584:System/scheduler/scheduler.c **** 
 585:System/scheduler/scheduler.c ****     if (TskHdl_RdyMap.Grp.Flg)
 321              		.loc 1 585 5 view .LVU80
 322              		.loc 1 585 26 is_stmt 0 view .LVU81
 323 0000 144B     		ldr	r3, .L35
 324 0002 1B78     		ldrb	r3, [r3]	@ zero_extendqisi2
 325              		.loc 1 585 8 view .LVU82
 326 0004 1BB3     		cbz	r3, .L29
 586:System/scheduler/scheduler.c ****     {
 587:System/scheduler/scheduler.c ****         // find group
 588:System/scheduler/scheduler.c ****         grp_id = Task_Priority_List[TskHdl_RdyMap.Grp.Flg];
 327              		.loc 1 588 9 is_stmt 1 view .LVU83
 328              		.loc 1 588 54 is_stmt 0 view .LVU84
 329 0006 134B     		ldr	r3, .L35
 330 0008 1A78     		ldrb	r2, [r3]	@ zero_extendqisi2
 331 000a D2B2     		uxtb	r2, r2
 332              		.loc 1 588 16 view .LVU85
ARM GAS  C:\Users\HUAV\AppData\Local\Temp\ccLbKHgN.s 			page 17


 333 000c 1249     		ldr	r1, .L35+4
 334 000e 8A5C     		ldrb	r2, [r1, r2]	@ zero_extendqisi2
 335              	.LVL18:
 589:System/scheduler/scheduler.c ****         // find task in group
 590:System/scheduler/scheduler.c ****         tsk_id = Task_Priority_List[TskHdl_RdyMap.TskInGrp[grp_id].Flg];
 336              		.loc 1 590 9 is_stmt 1 view .LVU86
 337              		.loc 1 590 67 is_stmt 0 view .LVU87
 338 0010 1344     		add	r3, r3, r2
 339 0012 5B78     		ldrb	r3, [r3, #1]	@ zero_extendqisi2
 340 0014 DBB2     		uxtb	r3, r3
 341              		.loc 1 590 16 view .LVU88
 342 0016 CB5C     		ldrb	r3, [r1, r3]	@ zero_extendqisi2
 343              	.LVL19:
 591:System/scheduler/scheduler.c ****     }
 592:System/scheduler/scheduler.c ****     else
 593:System/scheduler/scheduler.c ****         return NULL;
 594:System/scheduler/scheduler.c **** 
 595:System/scheduler/scheduler.c ****     if (TaskPtr_Map[grp_id][tsk_id] != NULL)
 344              		.loc 1 595 5 is_stmt 1 view .LVU89
 345              		.loc 1 595 28 is_stmt 0 view .LVU90
 346 0018 03EBC200 		add	r0, r3, r2, lsl #3
 347 001c 0F49     		ldr	r1, .L35+8
 348 001e 51F82000 		ldr	r0, [r1, r0, lsl #2]
 349              		.loc 1 595 8 view .LVU91
 350 0022 00B1     		cbz	r0, .L34
 596:System/scheduler/scheduler.c ****     {
 597:System/scheduler/scheduler.c ****         return TaskPtr_Map[grp_id][tsk_id];
 598:System/scheduler/scheduler.c ****     }
 599:System/scheduler/scheduler.c ****     else
 600:System/scheduler/scheduler.c ****     {
 601:System/scheduler/scheduler.c ****         TskHdl_RdyMap.Grp.Flg &= ~(1 << grp_id);
 602:System/scheduler/scheduler.c ****         TskHdl_RdyMap.TskInGrp[grp_id].Flg &= ~(1 << tsk_id);
 603:System/scheduler/scheduler.c ****         return NULL;
 604:System/scheduler/scheduler.c ****     }
 605:System/scheduler/scheduler.c **** }
 351              		.loc 1 605 1 view .LVU92
 352 0024 7047     		bx	lr
 353              	.L34:
 581:System/scheduler/scheduler.c ****     uint8_t grp_id = 0;
 354              		.loc 1 581 1 view .LVU93
 355 0026 10B5     		push	{r4, lr}
 356              	.LCFI6:
 357              		.cfi_def_cfa_offset 8
 358              		.cfi_offset 4, -8
 359              		.cfi_offset 14, -4
 601:System/scheduler/scheduler.c ****         TskHdl_RdyMap.TskInGrp[grp_id].Flg &= ~(1 << tsk_id);
 360              		.loc 1 601 9 is_stmt 1 view .LVU94
 601:System/scheduler/scheduler.c ****         TskHdl_RdyMap.TskInGrp[grp_id].Flg &= ~(1 << tsk_id);
 361              		.loc 1 601 31 is_stmt 0 view .LVU95
 362 0028 0A49     		ldr	r1, .L35
 363 002a 91F800E0 		ldrb	lr, [r1]	@ zero_extendqisi2
 601:System/scheduler/scheduler.c ****         TskHdl_RdyMap.TskInGrp[grp_id].Flg &= ~(1 << tsk_id);
 364              		.loc 1 601 38 view .LVU96
 365 002e 4FF0010C 		mov	ip, #1
 366 0032 0CFA02F4 		lsl	r4, ip, r2
 601:System/scheduler/scheduler.c ****         TskHdl_RdyMap.TskInGrp[grp_id].Flg &= ~(1 << tsk_id);
 367              		.loc 1 601 31 view .LVU97
ARM GAS  C:\Users\HUAV\AppData\Local\Temp\ccLbKHgN.s 			page 18


 368 0036 2EEA040E 		bic	lr, lr, r4
 369 003a 81F800E0 		strb	lr, [r1]
 602:System/scheduler/scheduler.c ****         return NULL;
 370              		.loc 1 602 9 is_stmt 1 view .LVU98
 602:System/scheduler/scheduler.c ****         return NULL;
 371              		.loc 1 602 44 is_stmt 0 view .LVU99
 372 003e 0A44     		add	r2, r2, r1
 373 0040 5178     		ldrb	r1, [r2, #1]	@ zero_extendqisi2
 602:System/scheduler/scheduler.c ****         return NULL;
 374              		.loc 1 602 51 view .LVU100
 375 0042 0CFA03F3 		lsl	r3, ip, r3
 602:System/scheduler/scheduler.c ****         return NULL;
 376              		.loc 1 602 44 view .LVU101
 377 0046 21EA0303 		bic	r3, r1, r3
 378 004a 5370     		strb	r3, [r2, #1]
 603:System/scheduler/scheduler.c ****     }
 379              		.loc 1 603 9 is_stmt 1 view .LVU102
 380              		.loc 1 605 1 is_stmt 0 view .LVU103
 381 004c 10BD     		pop	{r4, pc}
 382              	.LVL20:
 383              	.L29:
 384              	.LCFI7:
 385              		.cfi_def_cfa_offset 0
 386              		.cfi_restore 4
 387              		.cfi_restore 14
 593:System/scheduler/scheduler.c **** 
 388              		.loc 1 593 16 view .LVU104
 389 004e 0020     		movs	r0, #0
 390 0050 7047     		bx	lr
 391              	.L36:
 392 0052 00BF     		.align	2
 393              	.L35:
 394 0054 00000000 		.word	.LANCHOR0
 395 0058 00000000 		.word	.LANCHOR3
 396 005c 00000000 		.word	.LANCHOR4
 397              		.cfi_endproc
 398              	.LFE167:
 400              		.section	.text.Os_Get_HighestRank_PndTask,"ax",%progbits
 401              		.align	1
 402              		.syntax unified
 403              		.thumb
 404              		.thumb_func
 406              	Os_Get_HighestRank_PndTask:
 407              	.LFB168:
 606:System/scheduler/scheduler.c **** 
 607:System/scheduler/scheduler.c **** static Task *Os_Get_HighestRank_PndTask(void)
 608:System/scheduler/scheduler.c **** {
 408              		.loc 1 608 1 is_stmt 1 view -0
 409              		.cfi_startproc
 410              		@ args = 0, pretend = 0, frame = 0
 411              		@ frame_needed = 0, uses_anonymous_args = 0
 609:System/scheduler/scheduler.c ****     uint8_t grp_id;
 412              		.loc 1 609 5 view .LVU106
 610:System/scheduler/scheduler.c ****     uint8_t tsk_id;
 413              		.loc 1 610 5 view .LVU107
 611:System/scheduler/scheduler.c **** 
 612:System/scheduler/scheduler.c ****     if (TskHdl_PndMap.Grp.Flg)
ARM GAS  C:\Users\HUAV\AppData\Local\Temp\ccLbKHgN.s 			page 19


 414              		.loc 1 612 5 view .LVU108
 415              		.loc 1 612 26 is_stmt 0 view .LVU109
 416 0000 144B     		ldr	r3, .L45
 417 0002 1B78     		ldrb	r3, [r3]	@ zero_extendqisi2
 418              		.loc 1 612 8 view .LVU110
 419 0004 1BB3     		cbz	r3, .L39
 613:System/scheduler/scheduler.c ****     {
 614:System/scheduler/scheduler.c ****         // find group
 615:System/scheduler/scheduler.c ****         grp_id = Task_Priority_List[TskHdl_PndMap.Grp.Flg];
 420              		.loc 1 615 9 is_stmt 1 view .LVU111
 421              		.loc 1 615 54 is_stmt 0 view .LVU112
 422 0006 134B     		ldr	r3, .L45
 423 0008 1A78     		ldrb	r2, [r3]	@ zero_extendqisi2
 424 000a D2B2     		uxtb	r2, r2
 425              		.loc 1 615 16 view .LVU113
 426 000c 1249     		ldr	r1, .L45+4
 427 000e 8A5C     		ldrb	r2, [r1, r2]	@ zero_extendqisi2
 616:System/scheduler/scheduler.c ****         // find task in group
 617:System/scheduler/scheduler.c ****         tsk_id = Task_Priority_List[TskHdl_PndMap.TskInGrp[grp_id].Flg];
 428              		.loc 1 617 9 is_stmt 1 view .LVU114
 429              		.loc 1 617 67 is_stmt 0 view .LVU115
 430 0010 1344     		add	r3, r3, r2
 431 0012 5B78     		ldrb	r3, [r3, #1]	@ zero_extendqisi2
 432 0014 DBB2     		uxtb	r3, r3
 433              		.loc 1 617 16 view .LVU116
 434 0016 CB5C     		ldrb	r3, [r1, r3]	@ zero_extendqisi2
 618:System/scheduler/scheduler.c ****     }
 619:System/scheduler/scheduler.c ****     else
 620:System/scheduler/scheduler.c ****         return NULL;
 621:System/scheduler/scheduler.c **** 
 622:System/scheduler/scheduler.c ****     if (TaskPtr_Map[grp_id][tsk_id] != NULL)
 435              		.loc 1 622 5 is_stmt 1 view .LVU117
 436              		.loc 1 622 28 is_stmt 0 view .LVU118
 437 0018 03EBC200 		add	r0, r3, r2, lsl #3
 438 001c 0F49     		ldr	r1, .L45+8
 439 001e 51F82000 		ldr	r0, [r1, r0, lsl #2]
 440              		.loc 1 622 8 view .LVU119
 441 0022 00B1     		cbz	r0, .L44
 623:System/scheduler/scheduler.c ****     {
 624:System/scheduler/scheduler.c ****         return TaskPtr_Map[grp_id][tsk_id];
 625:System/scheduler/scheduler.c ****     }
 626:System/scheduler/scheduler.c ****     else
 627:System/scheduler/scheduler.c ****     {
 628:System/scheduler/scheduler.c ****         TskHdl_PndMap.Grp.Flg &= ~(1 << grp_id);
 629:System/scheduler/scheduler.c ****         TskHdl_PndMap.TskInGrp[grp_id].Flg &= ~(1 << tsk_id);
 630:System/scheduler/scheduler.c ****         return NULL;
 631:System/scheduler/scheduler.c ****     }
 632:System/scheduler/scheduler.c **** }
 442              		.loc 1 632 1 view .LVU120
 443 0024 7047     		bx	lr
 444              	.L44:
 608:System/scheduler/scheduler.c ****     uint8_t grp_id;
 445              		.loc 1 608 1 view .LVU121
 446 0026 10B5     		push	{r4, lr}
 447              	.LCFI8:
 448              		.cfi_def_cfa_offset 8
 449              		.cfi_offset 4, -8
ARM GAS  C:\Users\HUAV\AppData\Local\Temp\ccLbKHgN.s 			page 20


 450              		.cfi_offset 14, -4
 628:System/scheduler/scheduler.c ****         TskHdl_PndMap.TskInGrp[grp_id].Flg &= ~(1 << tsk_id);
 451              		.loc 1 628 9 is_stmt 1 view .LVU122
 628:System/scheduler/scheduler.c ****         TskHdl_PndMap.TskInGrp[grp_id].Flg &= ~(1 << tsk_id);
 452              		.loc 1 628 31 is_stmt 0 view .LVU123
 453 0028 0A49     		ldr	r1, .L45
 454 002a 91F800E0 		ldrb	lr, [r1]	@ zero_extendqisi2
 628:System/scheduler/scheduler.c ****         TskHdl_PndMap.TskInGrp[grp_id].Flg &= ~(1 << tsk_id);
 455              		.loc 1 628 38 view .LVU124
 456 002e 4FF0010C 		mov	ip, #1
 457 0032 0CFA02F4 		lsl	r4, ip, r2
 628:System/scheduler/scheduler.c ****         TskHdl_PndMap.TskInGrp[grp_id].Flg &= ~(1 << tsk_id);
 458              		.loc 1 628 31 view .LVU125
 459 0036 2EEA040E 		bic	lr, lr, r4
 460 003a 81F800E0 		strb	lr, [r1]
 629:System/scheduler/scheduler.c ****         return NULL;
 461              		.loc 1 629 9 is_stmt 1 view .LVU126
 629:System/scheduler/scheduler.c ****         return NULL;
 462              		.loc 1 629 44 is_stmt 0 view .LVU127
 463 003e 0A44     		add	r2, r2, r1
 464 0040 5178     		ldrb	r1, [r2, #1]	@ zero_extendqisi2
 629:System/scheduler/scheduler.c ****         return NULL;
 465              		.loc 1 629 51 view .LVU128
 466 0042 0CFA03F3 		lsl	r3, ip, r3
 629:System/scheduler/scheduler.c ****         return NULL;
 467              		.loc 1 629 44 view .LVU129
 468 0046 21EA0303 		bic	r3, r1, r3
 469 004a 5370     		strb	r3, [r2, #1]
 630:System/scheduler/scheduler.c ****     }
 470              		.loc 1 630 9 is_stmt 1 view .LVU130
 471              		.loc 1 632 1 is_stmt 0 view .LVU131
 472 004c 10BD     		pop	{r4, pc}
 473              	.L39:
 474              	.LCFI9:
 475              		.cfi_def_cfa_offset 0
 476              		.cfi_restore 4
 477              		.cfi_restore 14
 620:System/scheduler/scheduler.c **** 
 478              		.loc 1 620 16 view .LVU132
 479 004e 0020     		movs	r0, #0
 480 0050 7047     		bx	lr
 481              	.L46:
 482 0052 00BF     		.align	2
 483              	.L45:
 484 0054 00000000 		.word	.LANCHOR2
 485 0058 00000000 		.word	.LANCHOR3
 486 005c 00000000 		.word	.LANCHOR4
 487              		.cfi_endproc
 488              	.LFE168:
 490              		.section	.text.Os_TaskPri_Compare,"ax",%progbits
 491              		.align	1
 492              		.syntax unified
 493              		.thumb
 494              		.thumb_func
 496              	Os_TaskPri_Compare:
 497              	.LVL21:
 498              	.LFB169:
ARM GAS  C:\Users\HUAV\AppData\Local\Temp\ccLbKHgN.s 			page 21


 633:System/scheduler/scheduler.c **** 
 634:System/scheduler/scheduler.c **** // return high priority task pointer
 635:System/scheduler/scheduler.c **** static Task *Os_TaskPri_Compare(const Task *tsk_l, const Task *tsk_r)
 636:System/scheduler/scheduler.c **** {
 499              		.loc 1 636 1 is_stmt 1 view -0
 500              		.cfi_startproc
 501              		@ args = 0, pretend = 0, frame = 8
 502              		@ frame_needed = 0, uses_anonymous_args = 0
 503              		@ link register save eliminated.
 504              		.loc 1 636 1 is_stmt 0 view .LVU134
 505 0000 82B0     		sub	sp, sp, #8
 506              	.LCFI10:
 507              		.cfi_def_cfa_offset 8
 508 0002 0246     		mov	r2, r0
 637:System/scheduler/scheduler.c ****     volatile uint8_t grp_l = GET_TASKGROUP_PRIORITY(tsk_l->priority);
 509              		.loc 1 637 5 is_stmt 1 view .LVU135
 510              		.loc 1 637 30 is_stmt 0 view .LVU136
 511 0004 4078     		ldrb	r0, [r0, #1]	@ zero_extendqisi2
 512              	.LVL22:
 513              		.loc 1 637 22 view .LVU137
 514 0006 C308     		lsrs	r3, r0, #3
 515 0008 8DF80730 		strb	r3, [sp, #7]
 638:System/scheduler/scheduler.c ****     volatile uint8_t grp_r = GET_TASKGROUP_PRIORITY(tsk_r->priority);
 516              		.loc 1 638 5 is_stmt 1 view .LVU138
 517              		.loc 1 638 30 is_stmt 0 view .LVU139
 518 000c 4B78     		ldrb	r3, [r1, #1]	@ zero_extendqisi2
 519              		.loc 1 638 22 view .LVU140
 520 000e 4FEAD30C 		lsr	ip, r3, #3
 521 0012 8DF806C0 		strb	ip, [sp, #6]
 639:System/scheduler/scheduler.c ****     volatile uint8_t pri_l = GET_TASKINGROUP_PRIORITY(tsk_l->priority);
 522              		.loc 1 639 5 is_stmt 1 view .LVU141
 523              		.loc 1 639 30 is_stmt 0 view .LVU142
 524 0016 00F00700 		and	r0, r0, #7
 525              		.loc 1 639 22 view .LVU143
 526 001a 8DF80500 		strb	r0, [sp, #5]
 640:System/scheduler/scheduler.c ****     volatile uint8_t pri_r = GET_TASKINGROUP_PRIORITY(tsk_r->priority);
 527              		.loc 1 640 5 is_stmt 1 view .LVU144
 528              		.loc 1 640 30 is_stmt 0 view .LVU145
 529 001e 03F00703 		and	r3, r3, #7
 530              		.loc 1 640 22 view .LVU146
 531 0022 8DF80430 		strb	r3, [sp, #4]
 641:System/scheduler/scheduler.c **** 
 642:System/scheduler/scheduler.c ****     if ((tsk_l == NULL) && (tsk_r == NULL))
 532              		.loc 1 642 5 is_stmt 1 view .LVU147
 533              		.loc 1 642 16 is_stmt 0 view .LVU148
 534 0026 B2FA82F3 		clz	r3, r2
 535 002a 5B09     		lsrs	r3, r3, #5
 536              		.loc 1 642 35 view .LVU149
 537 002c B1FA81F0 		clz	r0, r1
 538 0030 4009     		lsrs	r0, r0, #5
 539              		.loc 1 642 8 view .LVU150
 540 0032 0342     		tst	r3, r0
 541 0034 7DD1     		bne	.L56
 643:System/scheduler/scheduler.c ****     {
 644:System/scheduler/scheduler.c ****         return NULL;
 645:System/scheduler/scheduler.c ****     }
 646:System/scheduler/scheduler.c **** 
ARM GAS  C:\Users\HUAV\AppData\Local\Temp\ccLbKHgN.s 			page 22


 647:System/scheduler/scheduler.c ****     if ((tsk_l == NULL) && (tsk_r != NULL))
 542              		.loc 1 647 5 is_stmt 1 view .LVU151
 543              		.loc 1 647 25 is_stmt 0 view .LVU152
 544 0036 0029     		cmp	r1, #0
 545 0038 0CBF     		ite	eq
 546 003a 0023     		moveq	r3, #0
 547 003c 03F00103 		andne	r3, r3, #1
 548              		.loc 1 647 8 view .LVU153
 549 0040 33B1     		cbz	r3, .L49
 648:System/scheduler/scheduler.c ****     {
 649:System/scheduler/scheduler.c ****         if ((tsk_r->State != Task_DelayBlock) && (tsk_r->State != Task_SignalBlock))
 550              		.loc 1 649 9 is_stmt 1 view .LVU154
 551              		.loc 1 649 19 is_stmt 0 view .LVU155
 552 0042 0B78     		ldrb	r3, [r1]	@ zero_extendqisi2
 553              		.loc 1 649 47 view .LVU156
 554 0044 043B     		subs	r3, r3, #4
 555 0046 DBB2     		uxtb	r3, r3
 556              		.loc 1 649 12 view .LVU157
 557 0048 012B     		cmp	r3, #1
 558 004a 75D9     		bls	.L57
 650:System/scheduler/scheduler.c ****         {
 651:System/scheduler/scheduler.c ****             return tsk_r;
 559              		.loc 1 651 20 view .LVU158
 560 004c 0846     		mov	r0, r1
 561 004e 71E0     		b	.L47
 562              	.L49:
 652:System/scheduler/scheduler.c ****         }
 653:System/scheduler/scheduler.c ****         else
 654:System/scheduler/scheduler.c ****             return NULL;
 655:System/scheduler/scheduler.c ****     }
 656:System/scheduler/scheduler.c **** 
 657:System/scheduler/scheduler.c ****     if ((tsk_l != NULL) && (tsk_r == NULL))
 563              		.loc 1 657 5 is_stmt 1 view .LVU159
 564              		.loc 1 657 25 is_stmt 0 view .LVU160
 565 0050 002A     		cmp	r2, #0
 566 0052 0CBF     		ite	eq
 567 0054 0020     		moveq	r0, #0
 568 0056 00F00100 		andne	r0, r0, #1
 569              		.loc 1 657 8 view .LVU161
 570 005a 30B1     		cbz	r0, .L50
 658:System/scheduler/scheduler.c ****     {
 659:System/scheduler/scheduler.c ****         if ((tsk_l->State != Task_DelayBlock) && (tsk_l->State != Task_SignalBlock))
 571              		.loc 1 659 9 is_stmt 1 view .LVU162
 572              		.loc 1 659 19 is_stmt 0 view .LVU163
 573 005c 1378     		ldrb	r3, [r2]	@ zero_extendqisi2
 574              		.loc 1 659 47 view .LVU164
 575 005e 043B     		subs	r3, r3, #4
 576 0060 DBB2     		uxtb	r3, r3
 577              		.loc 1 659 12 view .LVU165
 578 0062 012B     		cmp	r3, #1
 579 0064 6AD9     		bls	.L58
 660:System/scheduler/scheduler.c ****         {
 661:System/scheduler/scheduler.c ****             return tsk_l;
 580              		.loc 1 661 20 view .LVU166
 581 0066 1046     		mov	r0, r2
 582 0068 64E0     		b	.L47
 583              	.L50:
ARM GAS  C:\Users\HUAV\AppData\Local\Temp\ccLbKHgN.s 			page 23


 662:System/scheduler/scheduler.c ****         }
 663:System/scheduler/scheduler.c ****         else
 664:System/scheduler/scheduler.c ****             return NULL;
 665:System/scheduler/scheduler.c ****     }
 666:System/scheduler/scheduler.c **** 
 667:System/scheduler/scheduler.c ****     if (grp_l < grp_r)
 584              		.loc 1 667 5 is_stmt 1 view .LVU167
 585              		.loc 1 667 15 is_stmt 0 view .LVU168
 586 006a 9DF80700 		ldrb	r0, [sp, #7]	@ zero_extendqisi2
 587 006e C0B2     		uxtb	r0, r0
 588 0070 9DF80630 		ldrb	r3, [sp, #6]	@ zero_extendqisi2
 589 0074 DBB2     		uxtb	r3, r3
 590              		.loc 1 667 8 view .LVU169
 591 0076 9842     		cmp	r0, r3
 592 0078 0BD2     		bcs	.L51
 668:System/scheduler/scheduler.c ****     {
 669:System/scheduler/scheduler.c ****         if ((tsk_l->State != Task_DelayBlock) && (tsk_l->State != Task_SignalBlock))
 593              		.loc 1 669 9 is_stmt 1 view .LVU170
 594              		.loc 1 669 19 is_stmt 0 view .LVU171
 595 007a 1378     		ldrb	r3, [r2]	@ zero_extendqisi2
 596              		.loc 1 669 47 view .LVU172
 597 007c 043B     		subs	r3, r3, #4
 598 007e DBB2     		uxtb	r3, r3
 599              		.loc 1 669 12 view .LVU173
 600 0080 012B     		cmp	r3, #1
 601 0082 5DD8     		bhi	.L59
 670:System/scheduler/scheduler.c ****         {
 671:System/scheduler/scheduler.c ****             return tsk_l;
 672:System/scheduler/scheduler.c ****         }
 673:System/scheduler/scheduler.c **** 
 674:System/scheduler/scheduler.c ****         if ((tsk_r->State != Task_DelayBlock) && (tsk_r->State != Task_SignalBlock))
 602              		.loc 1 674 9 is_stmt 1 view .LVU174
 603              		.loc 1 674 19 is_stmt 0 view .LVU175
 604 0084 0B78     		ldrb	r3, [r1]	@ zero_extendqisi2
 605              		.loc 1 674 47 view .LVU176
 606 0086 043B     		subs	r3, r3, #4
 607 0088 DBB2     		uxtb	r3, r3
 608              		.loc 1 674 12 view .LVU177
 609 008a 012B     		cmp	r3, #1
 610 008c 5AD9     		bls	.L60
 675:System/scheduler/scheduler.c ****         {
 676:System/scheduler/scheduler.c ****             return tsk_r;
 611              		.loc 1 676 20 view .LVU178
 612 008e 0846     		mov	r0, r1
 613 0090 50E0     		b	.L47
 614              	.L51:
 677:System/scheduler/scheduler.c ****         }
 678:System/scheduler/scheduler.c **** 
 679:System/scheduler/scheduler.c ****         return NULL;
 680:System/scheduler/scheduler.c ****     }
 681:System/scheduler/scheduler.c ****     else if (grp_l > grp_r)
 615              		.loc 1 681 10 is_stmt 1 view .LVU179
 616              		.loc 1 681 20 is_stmt 0 view .LVU180
 617 0092 9DF80700 		ldrb	r0, [sp, #7]	@ zero_extendqisi2
 618 0096 C0B2     		uxtb	r0, r0
 619 0098 9DF80630 		ldrb	r3, [sp, #6]	@ zero_extendqisi2
 620 009c DBB2     		uxtb	r3, r3
ARM GAS  C:\Users\HUAV\AppData\Local\Temp\ccLbKHgN.s 			page 24


 621              		.loc 1 681 13 view .LVU181
 622 009e 9842     		cmp	r0, r3
 623 00a0 0BD9     		bls	.L52
 682:System/scheduler/scheduler.c ****     {
 683:System/scheduler/scheduler.c ****         if ((tsk_r->State != Task_DelayBlock) && (tsk_r->State != Task_SignalBlock))
 624              		.loc 1 683 9 is_stmt 1 view .LVU182
 625              		.loc 1 683 19 is_stmt 0 view .LVU183
 626 00a2 0B78     		ldrb	r3, [r1]	@ zero_extendqisi2
 627              		.loc 1 683 47 view .LVU184
 628 00a4 043B     		subs	r3, r3, #4
 629 00a6 DBB2     		uxtb	r3, r3
 630              		.loc 1 683 12 view .LVU185
 631 00a8 012B     		cmp	r3, #1
 632 00aa 4DD8     		bhi	.L61
 684:System/scheduler/scheduler.c ****         {
 685:System/scheduler/scheduler.c ****             return tsk_r;
 686:System/scheduler/scheduler.c ****         }
 687:System/scheduler/scheduler.c **** 
 688:System/scheduler/scheduler.c ****         if ((tsk_l->State != Task_DelayBlock) && (tsk_l->State != Task_SignalBlock))
 633              		.loc 1 688 9 is_stmt 1 view .LVU186
 634              		.loc 1 688 19 is_stmt 0 view .LVU187
 635 00ac 1378     		ldrb	r3, [r2]	@ zero_extendqisi2
 636              		.loc 1 688 47 view .LVU188
 637 00ae 043B     		subs	r3, r3, #4
 638 00b0 DBB2     		uxtb	r3, r3
 639              		.loc 1 688 12 view .LVU189
 640 00b2 012B     		cmp	r3, #1
 641 00b4 4AD9     		bls	.L62
 689:System/scheduler/scheduler.c ****         {
 690:System/scheduler/scheduler.c ****             return tsk_l;
 642              		.loc 1 690 20 view .LVU190
 643 00b6 1046     		mov	r0, r2
 644 00b8 3CE0     		b	.L47
 645              	.L52:
 691:System/scheduler/scheduler.c ****         }
 692:System/scheduler/scheduler.c **** 
 693:System/scheduler/scheduler.c ****         return NULL;
 694:System/scheduler/scheduler.c ****     }
 695:System/scheduler/scheduler.c ****     else if (grp_l == grp_r)
 646              		.loc 1 695 10 is_stmt 1 view .LVU191
 647              		.loc 1 695 20 is_stmt 0 view .LVU192
 648 00ba 9DF80700 		ldrb	r0, [sp, #7]	@ zero_extendqisi2
 649 00be C0B2     		uxtb	r0, r0
 650 00c0 9DF80630 		ldrb	r3, [sp, #6]	@ zero_extendqisi2
 651 00c4 DBB2     		uxtb	r3, r3
 652              		.loc 1 695 13 view .LVU193
 653 00c6 9842     		cmp	r0, r3
 654 00c8 34D1     		bne	.L47
 696:System/scheduler/scheduler.c ****     {
 697:System/scheduler/scheduler.c ****         if (pri_l < pri_r)
 655              		.loc 1 697 9 is_stmt 1 view .LVU194
 656              		.loc 1 697 19 is_stmt 0 view .LVU195
 657 00ca 9DF80500 		ldrb	r0, [sp, #5]	@ zero_extendqisi2
 658 00ce C0B2     		uxtb	r0, r0
 659 00d0 9DF80430 		ldrb	r3, [sp, #4]	@ zero_extendqisi2
 660 00d4 DBB2     		uxtb	r3, r3
 661              		.loc 1 697 12 view .LVU196
ARM GAS  C:\Users\HUAV\AppData\Local\Temp\ccLbKHgN.s 			page 25


 662 00d6 9842     		cmp	r0, r3
 663 00d8 0BD2     		bcs	.L54
 698:System/scheduler/scheduler.c ****         {
 699:System/scheduler/scheduler.c ****             if ((tsk_l->State != Task_DelayBlock) && (tsk_l->State != Task_SignalBlock))
 664              		.loc 1 699 13 is_stmt 1 view .LVU197
 665              		.loc 1 699 23 is_stmt 0 view .LVU198
 666 00da 1378     		ldrb	r3, [r2]	@ zero_extendqisi2
 667              		.loc 1 699 51 view .LVU199
 668 00dc 043B     		subs	r3, r3, #4
 669 00de DBB2     		uxtb	r3, r3
 670              		.loc 1 699 16 view .LVU200
 671 00e0 012B     		cmp	r3, #1
 672 00e2 35D8     		bhi	.L63
 700:System/scheduler/scheduler.c ****             {
 701:System/scheduler/scheduler.c ****                 return tsk_l;
 702:System/scheduler/scheduler.c ****             }
 703:System/scheduler/scheduler.c **** 
 704:System/scheduler/scheduler.c ****             if ((tsk_r->State != Task_DelayBlock) && (tsk_r->State != Task_SignalBlock))
 673              		.loc 1 704 13 is_stmt 1 view .LVU201
 674              		.loc 1 704 23 is_stmt 0 view .LVU202
 675 00e4 0B78     		ldrb	r3, [r1]	@ zero_extendqisi2
 676              		.loc 1 704 51 view .LVU203
 677 00e6 043B     		subs	r3, r3, #4
 678 00e8 DBB2     		uxtb	r3, r3
 679              		.loc 1 704 16 view .LVU204
 680 00ea 012B     		cmp	r3, #1
 681 00ec 32D9     		bls	.L64
 705:System/scheduler/scheduler.c ****             {
 706:System/scheduler/scheduler.c ****                 return tsk_r;
 682              		.loc 1 706 24 view .LVU205
 683 00ee 0846     		mov	r0, r1
 684 00f0 20E0     		b	.L47
 685              	.L54:
 707:System/scheduler/scheduler.c ****             }
 708:System/scheduler/scheduler.c **** 
 709:System/scheduler/scheduler.c ****             return NULL;
 710:System/scheduler/scheduler.c ****         }
 711:System/scheduler/scheduler.c ****         else if (pri_l > pri_r)
 686              		.loc 1 711 14 is_stmt 1 view .LVU206
 687              		.loc 1 711 24 is_stmt 0 view .LVU207
 688 00f2 9DF80500 		ldrb	r0, [sp, #5]	@ zero_extendqisi2
 689 00f6 C0B2     		uxtb	r0, r0
 690 00f8 9DF80430 		ldrb	r3, [sp, #4]	@ zero_extendqisi2
 691 00fc DBB2     		uxtb	r3, r3
 692              		.loc 1 711 17 view .LVU208
 693 00fe 9842     		cmp	r0, r3
 694 0100 0BD9     		bls	.L55
 712:System/scheduler/scheduler.c ****         {
 713:System/scheduler/scheduler.c ****             if ((tsk_r->State != Task_DelayBlock) && (tsk_r->State != Task_SignalBlock))
 695              		.loc 1 713 13 is_stmt 1 view .LVU209
 696              		.loc 1 713 23 is_stmt 0 view .LVU210
 697 0102 0B78     		ldrb	r3, [r1]	@ zero_extendqisi2
 698              		.loc 1 713 51 view .LVU211
 699 0104 043B     		subs	r3, r3, #4
 700 0106 DBB2     		uxtb	r3, r3
 701              		.loc 1 713 16 view .LVU212
 702 0108 012B     		cmp	r3, #1
ARM GAS  C:\Users\HUAV\AppData\Local\Temp\ccLbKHgN.s 			page 26


 703 010a 25D8     		bhi	.L65
 714:System/scheduler/scheduler.c ****             {
 715:System/scheduler/scheduler.c ****                 return tsk_r;
 716:System/scheduler/scheduler.c ****             }
 717:System/scheduler/scheduler.c **** 
 718:System/scheduler/scheduler.c ****             if ((tsk_l->State != Task_DelayBlock) && (tsk_l->State != Task_SignalBlock))
 704              		.loc 1 718 13 is_stmt 1 view .LVU213
 705              		.loc 1 718 23 is_stmt 0 view .LVU214
 706 010c 1378     		ldrb	r3, [r2]	@ zero_extendqisi2
 707              		.loc 1 718 51 view .LVU215
 708 010e 043B     		subs	r3, r3, #4
 709 0110 DBB2     		uxtb	r3, r3
 710              		.loc 1 718 16 view .LVU216
 711 0112 012B     		cmp	r3, #1
 712 0114 22D9     		bls	.L66
 719:System/scheduler/scheduler.c ****             {
 720:System/scheduler/scheduler.c ****                 return tsk_l;
 713              		.loc 1 720 24 view .LVU217
 714 0116 1046     		mov	r0, r2
 715 0118 0CE0     		b	.L47
 716              	.L55:
 721:System/scheduler/scheduler.c ****             }
 722:System/scheduler/scheduler.c **** 
 723:System/scheduler/scheduler.c ****             return NULL;
 724:System/scheduler/scheduler.c ****         }
 725:System/scheduler/scheduler.c ****         else
 726:System/scheduler/scheduler.c ****         {
 727:System/scheduler/scheduler.c ****             if ((tsk_r->State != Task_DelayBlock) && (tsk_r->State != Task_SignalBlock))
 717              		.loc 1 727 13 is_stmt 1 view .LVU218
 718              		.loc 1 727 23 is_stmt 0 view .LVU219
 719 011a 0B78     		ldrb	r3, [r1]	@ zero_extendqisi2
 720              		.loc 1 727 51 view .LVU220
 721 011c 043B     		subs	r3, r3, #4
 722 011e DBB2     		uxtb	r3, r3
 723              		.loc 1 727 16 view .LVU221
 724 0120 012B     		cmp	r3, #1
 725 0122 1DD8     		bhi	.L67
 728:System/scheduler/scheduler.c ****             {
 729:System/scheduler/scheduler.c ****                 return tsk_r;
 730:System/scheduler/scheduler.c ****             }
 731:System/scheduler/scheduler.c **** 
 732:System/scheduler/scheduler.c ****             if ((tsk_l->State != Task_DelayBlock) && (tsk_l->State != Task_SignalBlock))
 726              		.loc 1 732 13 is_stmt 1 view .LVU222
 727              		.loc 1 732 23 is_stmt 0 view .LVU223
 728 0124 1378     		ldrb	r3, [r2]	@ zero_extendqisi2
 729              		.loc 1 732 51 view .LVU224
 730 0126 043B     		subs	r3, r3, #4
 731 0128 DBB2     		uxtb	r3, r3
 732              		.loc 1 732 16 view .LVU225
 733 012a 012B     		cmp	r3, #1
 734 012c 1AD9     		bls	.L68
 733:System/scheduler/scheduler.c ****             {
 734:System/scheduler/scheduler.c ****                 return tsk_l;
 735              		.loc 1 734 24 view .LVU226
 736 012e 1046     		mov	r0, r2
 737 0130 00E0     		b	.L47
 738              	.L56:
ARM GAS  C:\Users\HUAV\AppData\Local\Temp\ccLbKHgN.s 			page 27


 644:System/scheduler/scheduler.c ****     }
 739              		.loc 1 644 16 view .LVU227
 740 0132 0020     		movs	r0, #0
 741              	.L47:
 735:System/scheduler/scheduler.c ****             }
 736:System/scheduler/scheduler.c **** 
 737:System/scheduler/scheduler.c ****             return NULL;
 738:System/scheduler/scheduler.c ****         }
 739:System/scheduler/scheduler.c ****     }
 740:System/scheduler/scheduler.c **** }
 742              		.loc 1 740 1 view .LVU228
 743 0134 02B0     		add	sp, sp, #8
 744              	.LCFI11:
 745              		.cfi_remember_state
 746              		.cfi_def_cfa_offset 0
 747              		@ sp needed
 748 0136 7047     		bx	lr
 749              	.L57:
 750              	.LCFI12:
 751              		.cfi_restore_state
 654:System/scheduler/scheduler.c ****     }
 752              		.loc 1 654 20 view .LVU229
 753 0138 0020     		movs	r0, #0
 754 013a FBE7     		b	.L47
 755              	.L58:
 664:System/scheduler/scheduler.c ****     }
 756              		.loc 1 664 20 view .LVU230
 757 013c 0020     		movs	r0, #0
 758 013e F9E7     		b	.L47
 759              	.L59:
 671:System/scheduler/scheduler.c ****         }
 760              		.loc 1 671 20 view .LVU231
 761 0140 1046     		mov	r0, r2
 762 0142 F7E7     		b	.L47
 763              	.L60:
 679:System/scheduler/scheduler.c ****     }
 764              		.loc 1 679 16 view .LVU232
 765 0144 0020     		movs	r0, #0
 766 0146 F5E7     		b	.L47
 767              	.L61:
 685:System/scheduler/scheduler.c ****         }
 768              		.loc 1 685 20 view .LVU233
 769 0148 0846     		mov	r0, r1
 770 014a F3E7     		b	.L47
 771              	.L62:
 693:System/scheduler/scheduler.c ****     }
 772              		.loc 1 693 16 view .LVU234
 773 014c 0020     		movs	r0, #0
 774 014e F1E7     		b	.L47
 775              	.L63:
 701:System/scheduler/scheduler.c ****             }
 776              		.loc 1 701 24 view .LVU235
 777 0150 1046     		mov	r0, r2
 778 0152 EFE7     		b	.L47
 779              	.L64:
 709:System/scheduler/scheduler.c ****         }
 780              		.loc 1 709 20 view .LVU236
ARM GAS  C:\Users\HUAV\AppData\Local\Temp\ccLbKHgN.s 			page 28


 781 0154 0020     		movs	r0, #0
 782 0156 EDE7     		b	.L47
 783              	.L65:
 715:System/scheduler/scheduler.c ****             }
 784              		.loc 1 715 24 view .LVU237
 785 0158 0846     		mov	r0, r1
 786 015a EBE7     		b	.L47
 787              	.L66:
 723:System/scheduler/scheduler.c ****         }
 788              		.loc 1 723 20 view .LVU238
 789 015c 0020     		movs	r0, #0
 790 015e E9E7     		b	.L47
 791              	.L67:
 729:System/scheduler/scheduler.c ****             }
 792              		.loc 1 729 24 view .LVU239
 793 0160 0846     		mov	r0, r1
 794 0162 E7E7     		b	.L47
 795              	.L68:
 737:System/scheduler/scheduler.c ****         }
 796              		.loc 1 737 20 view .LVU240
 797 0164 0020     		movs	r0, #0
 798 0166 E5E7     		b	.L47
 799              		.cfi_endproc
 800              	.LFE169:
 802              		.section	.text.Os_ResetTask_Data,"ax",%progbits
 803              		.align	1
 804              		.syntax unified
 805              		.thumb
 806              		.thumb_func
 808              	Os_ResetTask_Data:
 809              	.LVL23:
 810              	.LFB157:
 375:System/scheduler/scheduler.c ****     task->priority = 0;
 811              		.loc 1 375 1 is_stmt 1 view -0
 812              		.cfi_startproc
 813              		@ args = 0, pretend = 0, frame = 0
 814              		@ frame_needed = 0, uses_anonymous_args = 0
 375:System/scheduler/scheduler.c ****     task->priority = 0;
 815              		.loc 1 375 1 is_stmt 0 view .LVU242
 816 0000 38B5     		push	{r3, r4, r5, lr}
 817              	.LCFI13:
 818              		.cfi_def_cfa_offset 16
 819              		.cfi_offset 3, -16
 820              		.cfi_offset 4, -12
 821              		.cfi_offset 5, -8
 822              		.cfi_offset 14, -4
 823 0002 0446     		mov	r4, r0
 376:System/scheduler/scheduler.c ****     task->Task_name = NULL;
 824              		.loc 1 376 5 is_stmt 1 view .LVU243
 376:System/scheduler/scheduler.c ****     task->Task_name = NULL;
 825              		.loc 1 376 20 is_stmt 0 view .LVU244
 826 0004 0025     		movs	r5, #0
 827 0006 4570     		strb	r5, [r0, #1]
 377:System/scheduler/scheduler.c ****     task->exec_frq = 0;
 828              		.loc 1 377 5 is_stmt 1 view .LVU245
 377:System/scheduler/scheduler.c ****     task->exec_frq = 0;
 829              		.loc 1 377 21 is_stmt 0 view .LVU246
ARM GAS  C:\Users\HUAV\AppData\Local\Temp\ccLbKHgN.s 			page 29


 830 0008 4560     		str	r5, [r0, #4]
 378:System/scheduler/scheduler.c ****     task->exec_interval_us = 0;
 831              		.loc 1 378 5 is_stmt 1 view .LVU247
 378:System/scheduler/scheduler.c ****     task->exec_interval_us = 0;
 832              		.loc 1 378 20 is_stmt 0 view .LVU248
 833 000a 8560     		str	r5, [r0, #8]
 379:System/scheduler/scheduler.c ****     task->Exec_Func = NULL;
 834              		.loc 1 379 5 is_stmt 1 view .LVU249
 379:System/scheduler/scheduler.c ****     task->Exec_Func = NULL;
 835              		.loc 1 379 28 is_stmt 0 view .LVU250
 836 000c 8581     		strh	r5, [r0, #12]	@ movhi
 380:System/scheduler/scheduler.c **** 
 837              		.loc 1 380 5 is_stmt 1 view .LVU251
 380:System/scheduler/scheduler.c **** 
 838              		.loc 1 380 21 is_stmt 0 view .LVU252
 839 000e 0561     		str	r5, [r0, #16]
 382:System/scheduler/scheduler.c ****     task->Exec_status.Exec_cnt = 0;
 840              		.loc 1 382 5 is_stmt 1 view .LVU253
 382:System/scheduler/scheduler.c ****     task->Exec_status.Exec_cnt = 0;
 841              		.loc 1 382 39 is_stmt 0 view .LVU254
 842 0010 4562     		str	r5, [r0, #36]
 383:System/scheduler/scheduler.c ****     task->Exec_status.cpu_opy = 0;
 843              		.loc 1 383 5 is_stmt 1 view .LVU255
 383:System/scheduler/scheduler.c ****     task->Exec_status.cpu_opy = 0;
 844              		.loc 1 383 32 is_stmt 0 view .LVU256
 845 0012 8562     		str	r5, [r0, #40]
 384:System/scheduler/scheduler.c ****     task->Exec_status.Running_Time = 0;
 846              		.loc 1 384 5 is_stmt 1 view .LVU257
 384:System/scheduler/scheduler.c ****     task->Exec_status.Running_Time = 0;
 847              		.loc 1 384 31 is_stmt 0 view .LVU258
 848 0014 0023     		movs	r3, #0
 849 0016 8363     		str	r3, [r0, #56]	@ float
 385:System/scheduler/scheduler.c **** 
 850              		.loc 1 385 5 is_stmt 1 view .LVU259
 385:System/scheduler/scheduler.c **** 
 851              		.loc 1 385 36 is_stmt 0 view .LVU260
 852 0018 0563     		str	r5, [r0, #48]
 853 001a 4563     		str	r5, [r0, #52]
 387:System/scheduler/scheduler.c **** 
 854              		.loc 1 387 5 is_stmt 1 view .LVU261
 855 001c 1430     		adds	r0, r0, #20
 856              	.LVL24:
 387:System/scheduler/scheduler.c **** 
 857              		.loc 1 387 5 is_stmt 0 view .LVU262
 858 001e FFF7FEFF 		bl	RuntimeObj_Reset
 859              	.LVL25:
 389:System/scheduler/scheduler.c **** }
 860              		.loc 1 389 5 is_stmt 1 view .LVU263
 389:System/scheduler/scheduler.c **** }
 861              		.loc 1 389 17 is_stmt 0 view .LVU264
 862 0022 2570     		strb	r5, [r4]
 390:System/scheduler/scheduler.c **** 
 863              		.loc 1 390 1 view .LVU265
 864 0024 38BD     		pop	{r3, r4, r5, pc}
 390:System/scheduler/scheduler.c **** 
 865              		.loc 1 390 1 view .LVU266
 866              		.cfi_endproc
ARM GAS  C:\Users\HUAV\AppData\Local\Temp\ccLbKHgN.s 			page 30


 867              	.LFE157:
 869              		.section	.text.Os_TaskCrtList_TraverseCallback,"ax",%progbits
 870              		.align	1
 871              		.syntax unified
 872              		.thumb
 873              		.thumb_func
 875              	Os_TaskCrtList_TraverseCallback:
 876              	.LVL26:
 877              	.LFB172:
 741:System/scheduler/scheduler.c **** 
 742:System/scheduler/scheduler.c **** static void Os_TaskExec(Task *tsk_ptr)
 743:System/scheduler/scheduler.c **** {
 744:System/scheduler/scheduler.c ****     SYSTEM_RunTime time_diff;
 745:System/scheduler/scheduler.c ****     RuntimeObj_Reset(&time_diff);
 746:System/scheduler/scheduler.c **** 
 747:System/scheduler/scheduler.c ****     if (tsk_ptr->State == Task_Ready)
 748:System/scheduler/scheduler.c ****     {
 749:System/scheduler/scheduler.c ****         tsk_ptr->TskFuncUing_US = 0;
 750:System/scheduler/scheduler.c **** 
 751:System/scheduler/scheduler.c ****         // when task function execute finish reset ready flag of current task in group
 752:System/scheduler/scheduler.c ****         // code down below
 753:System/scheduler/scheduler.c ****         Os_Clr_TaskReady(tsk_ptr);
 754:System/scheduler/scheduler.c **** 
 755:System/scheduler/scheduler.c ****         // set current running task
 756:System/scheduler/scheduler.c ****         CurRunTsk_Ptr = tsk_ptr;
 757:System/scheduler/scheduler.c **** 
 758:System/scheduler/scheduler.c ****         if ((tsk_ptr->Exec_status.Exec_cnt == 0) && (tsk_ptr != Idle_Task))
 759:System/scheduler/scheduler.c ****         {
 760:System/scheduler/scheduler.c ****             tsk_ptr->Exec_status.Start_Time = Get_CurrentRunningUs();
 761:System/scheduler/scheduler.c ****             tsk_ptr->Exec_status.Exec_Time = tsk_ptr->Exec_status.Start_Time;
 762:System/scheduler/scheduler.c ****         }
 763:System/scheduler/scheduler.c **** 
 764:System/scheduler/scheduler.c ****         if (tsk_ptr->Exec_Func != NULL)
 765:System/scheduler/scheduler.c ****         {
 766:System/scheduler/scheduler.c ****             tsk_ptr->State = Task_Running;
 767:System/scheduler/scheduler.c **** 
 768:System/scheduler/scheduler.c ****             // execute task funtion
 769:System/scheduler/scheduler.c ****             tsk_ptr->Exec_Func(*&tsk_ptr);
 770:System/scheduler/scheduler.c ****         }
 771:System/scheduler/scheduler.c ****         else
 772:System/scheduler/scheduler.c ****         {
 773:System/scheduler/scheduler.c ****             tsk_ptr->State = Task_Stop;
 774:System/scheduler/scheduler.c ****             return;
 775:System/scheduler/scheduler.c ****         }
 776:System/scheduler/scheduler.c **** 
 777:System/scheduler/scheduler.c ****         if (tsk_ptr == Idle_Task)
 778:System/scheduler/scheduler.c ****             return;
 779:System/scheduler/scheduler.c **** 
 780:System/scheduler/scheduler.c ****         // record task running times
 781:System/scheduler/scheduler.c ****         tsk_ptr->Exec_status.Exec_cnt++;
 782:System/scheduler/scheduler.c **** 
 783:System/scheduler/scheduler.c ****         // get task total execute time unit in us
 784:System/scheduler/scheduler.c ****         tsk_ptr->Exec_status.Running_Time += tsk_ptr->TskFuncUing_US;
 785:System/scheduler/scheduler.c ****         time_diff = Get_TimeDifference_Between(tsk_ptr->Exec_status.Start_Time, tsk_ptr->Exec_statu
 786:System/scheduler/scheduler.c ****         tsk_ptr->Exec_status.Exec_Time = Get_TargetRunTime(tsk_ptr->exec_interval_us);
 787:System/scheduler/scheduler.c **** 
 788:System/scheduler/scheduler.c ****         tsk_ptr->Exec_status.cpu_opy = tsk_ptr->Exec_status.Running_Time / (float)time_diff;
ARM GAS  C:\Users\HUAV\AppData\Local\Temp\ccLbKHgN.s 			page 31


 789:System/scheduler/scheduler.c ****         tsk_ptr->Exec_status.cpu_opy *= 100;
 790:System/scheduler/scheduler.c **** 
 791:System/scheduler/scheduler.c ****         // get task execute frequence
 792:System/scheduler/scheduler.c ****         if (tsk_ptr->Exec_status.Exec_cnt)
 793:System/scheduler/scheduler.c ****         {
 794:System/scheduler/scheduler.c ****             tsk_ptr->Exec_status.detect_exec_frq = (uint32_t)(tsk_ptr->Exec_status.Exec_cnt / (floa
 795:System/scheduler/scheduler.c ****         }
 796:System/scheduler/scheduler.c **** 
 797:System/scheduler/scheduler.c ****         tsk_ptr->State = Task_Stop;
 798:System/scheduler/scheduler.c ****     }
 799:System/scheduler/scheduler.c **** }
 800:System/scheduler/scheduler.c **** 
 801:System/scheduler/scheduler.c **** static void Os_TaskCaller(void)
 802:System/scheduler/scheduler.c **** {
 803:System/scheduler/scheduler.c ****     // if any task in any group is under ready state
 804:System/scheduler/scheduler.c ****     while (true)
 805:System/scheduler/scheduler.c ****     {
 806:System/scheduler/scheduler.c ****         if (NxtRunTsk_Ptr != NULL)
 807:System/scheduler/scheduler.c ****         {
 808:System/scheduler/scheduler.c ****             // execute task function in function matrix
 809:System/scheduler/scheduler.c ****             Os_TaskExec(NxtRunTsk_Ptr);
 810:System/scheduler/scheduler.c **** 
 811:System/scheduler/scheduler.c ****             // erase currnet runnint task pointer
 812:System/scheduler/scheduler.c ****             if (CurRunTsk_Ptr != Idle_Task)
 813:System/scheduler/scheduler.c ****             {
 814:System/scheduler/scheduler.c ****                 CurRunTsk_Ptr = NULL;
 815:System/scheduler/scheduler.c ****             }
 816:System/scheduler/scheduler.c **** 
 817:System/scheduler/scheduler.c ****             // get net task
 818:System/scheduler/scheduler.c ****             Os_SchedulerRun(Get_CurrentRunningUs());
 819:System/scheduler/scheduler.c ****         }
 820:System/scheduler/scheduler.c ****     }
 821:System/scheduler/scheduler.c **** }
 822:System/scheduler/scheduler.c **** 
 823:System/scheduler/scheduler.c **** static int Os_TaskCrtList_TraverseCallback(item_obj *item, void *data, void *arg)
 824:System/scheduler/scheduler.c **** {
 878              		.loc 1 824 1 is_stmt 1 view -0
 879              		.cfi_startproc
 880              		@ args = 0, pretend = 0, frame = 0
 881              		@ frame_needed = 0, uses_anonymous_args = 0
 825:System/scheduler/scheduler.c ****     if (data != NULL)
 882              		.loc 1 825 5 view .LVU268
 883              		.loc 1 825 8 is_stmt 0 view .LVU269
 884 0000 C9B1     		cbz	r1, .L76
 824:System/scheduler/scheduler.c ****     if (data != NULL)
 885              		.loc 1 824 1 view .LVU270
 886 0002 10B5     		push	{r4, lr}
 887              	.LCFI14:
 888              		.cfi_def_cfa_offset 8
 889              		.cfi_offset 4, -8
 890              		.cfi_offset 14, -4
 891 0004 0C46     		mov	r4, r1
 826:System/scheduler/scheduler.c ****     {
 827:System/scheduler/scheduler.c ****         // get current highest priority task handler AKA NxtRunTsk_Ptr
 828:System/scheduler/scheduler.c ****         if ((scheduler_state == Scheduler_Start) &&
 892              		.loc 1 828 9 is_stmt 1 view .LVU271
 893              		.loc 1 828 30 is_stmt 0 view .LVU272
ARM GAS  C:\Users\HUAV\AppData\Local\Temp\ccLbKHgN.s 			page 32


 894 0006 0D4B     		ldr	r3, .L80
 895 0008 1B78     		ldrb	r3, [r3]	@ zero_extendqisi2
 896 000a DBB2     		uxtb	r3, r3
 897              		.loc 1 828 12 view .LVU273
 898 000c 022B     		cmp	r3, #2
 899 000e 01D0     		beq	.L79
 900              	.LVL27:
 901              	.L73:
 829:System/scheduler/scheduler.c ****             ((((Task *)data)->State == Task_Ready) ||
 830:System/scheduler/scheduler.c ****              (((Task *)data)->State == Task_Stop) ||
 831:System/scheduler/scheduler.c ****              (((Task *)data)->State == Task_DelayBlock)) &&
 832:System/scheduler/scheduler.c ****             (RuntimeObj_CompareWithCurrent(((Task *)data)->Exec_status.Exec_Time)))
 833:System/scheduler/scheduler.c ****         {
 834:System/scheduler/scheduler.c ****             Os_Set_TaskReady((Task *)data);
 835:System/scheduler/scheduler.c ****         }
 836:System/scheduler/scheduler.c ****     }
 837:System/scheduler/scheduler.c **** 
 838:System/scheduler/scheduler.c ****     return 0;
 902              		.loc 1 838 5 is_stmt 1 view .LVU274
 839:System/scheduler/scheduler.c **** }
 903              		.loc 1 839 1 is_stmt 0 view .LVU275
 904 0010 0020     		movs	r0, #0
 905 0012 10BD     		pop	{r4, pc}
 906              	.LVL28:
 907              	.L79:
 829:System/scheduler/scheduler.c ****             ((((Task *)data)->State == Task_Ready) ||
 908              		.loc 1 829 29 discriminator 1 view .LVU276
 909 0014 0B78     		ldrb	r3, [r1]	@ zero_extendqisi2
 828:System/scheduler/scheduler.c ****             ((((Task *)data)->State == Task_Ready) ||
 910              		.loc 1 828 50 discriminator 1 view .LVU277
 911 0016 032B     		cmp	r3, #3
 912 0018 18BF     		it	ne
 913 001a 012B     		cmpne	r3, #1
 914 001c 01D0     		beq	.L74
 830:System/scheduler/scheduler.c ****              (((Task *)data)->State == Task_DelayBlock)) &&
 915              		.loc 1 830 51 view .LVU278
 916 001e 052B     		cmp	r3, #5
 917 0020 F6D1     		bne	.L73
 918              	.L74:
 832:System/scheduler/scheduler.c ****         {
 919              		.loc 1 832 14 view .LVU279
 920 0022 6069     		ldr	r0, [r4, #20]
 921              	.LVL29:
 832:System/scheduler/scheduler.c ****         {
 922              		.loc 1 832 14 view .LVU280
 923 0024 A169     		ldr	r1, [r4, #24]
 924              	.LVL30:
 832:System/scheduler/scheduler.c ****         {
 925              		.loc 1 832 14 view .LVU281
 926 0026 FFF7FEFF 		bl	RuntimeObj_CompareWithCurrent
 927              	.LVL31:
 831:System/scheduler/scheduler.c ****             (RuntimeObj_CompareWithCurrent(((Task *)data)->Exec_status.Exec_Time)))
 928              		.loc 1 831 58 view .LVU282
 929 002a 0028     		cmp	r0, #0
 930 002c F0D0     		beq	.L73
 834:System/scheduler/scheduler.c ****         }
 931              		.loc 1 834 13 is_stmt 1 view .LVU283
ARM GAS  C:\Users\HUAV\AppData\Local\Temp\ccLbKHgN.s 			page 33


 932 002e 2046     		mov	r0, r4
 933 0030 FFF7FEFF 		bl	Os_Set_TaskReady
 934              	.LVL32:
 935 0034 ECE7     		b	.L73
 936              	.LVL33:
 937              	.L76:
 938              	.LCFI15:
 939              		.cfi_def_cfa_offset 0
 940              		.cfi_restore 4
 941              		.cfi_restore 14
 838:System/scheduler/scheduler.c **** }
 942              		.loc 1 838 5 view .LVU284
 943              		.loc 1 839 1 is_stmt 0 view .LVU285
 944 0036 0020     		movs	r0, #0
 945              	.LVL34:
 946              		.loc 1 839 1 view .LVU286
 947 0038 7047     		bx	lr
 948              	.L81:
 949 003a 00BF     		.align	2
 950              	.L80:
 951 003c 00000000 		.word	.LANCHOR5
 952              		.cfi_endproc
 953              	.LFE172:
 955              		.section	.text.Os_Idle,"ax",%progbits
 956              		.align	1
 957              		.syntax unified
 958              		.thumb
 959              		.thumb_func
 961              	Os_Idle:
 962              	.LFB154:
 257:System/scheduler/scheduler.c ****     volatile SYSTEM_RunTime Rt = 0;
 963              		.loc 1 257 1 is_stmt 1 view -0
 964              		.cfi_startproc
 965              		@ args = 0, pretend = 0, frame = 8
 966              		@ frame_needed = 0, uses_anonymous_args = 0
 967 0000 10B5     		push	{r4, lr}
 968              	.LCFI16:
 969              		.cfi_def_cfa_offset 8
 970              		.cfi_offset 4, -8
 971              		.cfi_offset 14, -4
 972 0002 82B0     		sub	sp, sp, #8
 973              	.LCFI17:
 974              		.cfi_def_cfa_offset 16
 258:System/scheduler/scheduler.c ****     static volatile uint64_t idle_cnt = 0;
 975              		.loc 1 258 5 view .LVU288
 258:System/scheduler/scheduler.c ****     static volatile uint64_t idle_cnt = 0;
 976              		.loc 1 258 29 is_stmt 0 view .LVU289
 977 0004 0022     		movs	r2, #0
 978 0006 0023     		movs	r3, #0
 979 0008 CDE90023 		strd	r2, [sp]
 259:System/scheduler/scheduler.c **** 
 980              		.loc 1 259 5 is_stmt 1 view .LVU290
 261:System/scheduler/scheduler.c **** 
 981              		.loc 1 261 5 view .LVU291
 261:System/scheduler/scheduler.c **** 
 982              		.loc 1 261 14 is_stmt 0 view .LVU292
 983 000c 0D4B     		ldr	r3, .L86
ARM GAS  C:\Users\HUAV\AppData\Local\Temp\ccLbKHgN.s 			page 34


 984 000e 1B68     		ldr	r3, [r3]
 261:System/scheduler/scheduler.c **** 
 985              		.loc 1 261 22 view .LVU293
 986 0010 0122     		movs	r2, #1
 987 0012 1A70     		strb	r2, [r3]
 263:System/scheduler/scheduler.c ****     {
 988              		.loc 1 263 5 is_stmt 1 view .LVU294
 263:System/scheduler/scheduler.c ****     {
 989              		.loc 1 263 15 is_stmt 0 view .LVU295
 990 0014 FFF7FEFF 		bl	Get_CurrentRunningUs
 991              	.LVL35:
 263:System/scheduler/scheduler.c ****     {
 992              		.loc 1 263 12 view .LVU296
 993 0018 DDE90023 		ldrd	r2, [sp]
 263:System/scheduler/scheduler.c ****     {
 994              		.loc 1 263 8 view .LVU297
 995 001c 9942     		cmp	r1, r3
 996 001e 08BF     		it	eq
 997 0020 9042     		cmpeq	r0, r2
 998 0022 01D1     		bne	.L85
 999              	.L82:
 268:System/scheduler/scheduler.c **** 
 1000              		.loc 1 268 1 view .LVU298
 1001 0024 02B0     		add	sp, sp, #8
 1002              	.LCFI18:
 1003              		.cfi_remember_state
 1004              		.cfi_def_cfa_offset 8
 1005              		@ sp needed
 1006 0026 10BD     		pop	{r4, pc}
 1007              	.L85:
 1008              	.LCFI19:
 1009              		.cfi_restore_state
 265:System/scheduler/scheduler.c ****         idle_cnt++;
 1010              		.loc 1 265 9 is_stmt 1 view .LVU299
 265:System/scheduler/scheduler.c ****         idle_cnt++;
 1011              		.loc 1 265 14 is_stmt 0 view .LVU300
 1012 0028 FFF7FEFF 		bl	Get_CurrentRunningUs
 1013              	.LVL36:
 265:System/scheduler/scheduler.c ****         idle_cnt++;
 1014              		.loc 1 265 12 view .LVU301
 1015 002c CDE90001 		strd	r0, [sp]
 266:System/scheduler/scheduler.c ****     }
 1016              		.loc 1 266 9 is_stmt 1 view .LVU302
 266:System/scheduler/scheduler.c ****     }
 1017              		.loc 1 266 17 is_stmt 0 view .LVU303
 1018 0030 054C     		ldr	r4, .L86+4
 1019 0032 D4E90023 		ldrd	r2, [r4]
 1020 0036 501C     		adds	r0, r2, #1
 1021 0038 43F10001 		adc	r1, r3, #0
 1022 003c C4E90001 		strd	r0, [r4]
 268:System/scheduler/scheduler.c **** 
 1023              		.loc 1 268 1 view .LVU304
 1024 0040 F0E7     		b	.L82
 1025              	.L87:
 1026 0042 00BF     		.align	2
 1027              	.L86:
 1028 0044 00000000 		.word	.LANCHOR6
ARM GAS  C:\Users\HUAV\AppData\Local\Temp\ccLbKHgN.s 			page 35


 1029 0048 00000000 		.word	.LANCHOR7
 1030              		.cfi_endproc
 1031              	.LFE154:
 1033              		.section	.text.Os_Set_TaskStk,"ax",%progbits
 1034              		.align	1
 1035              		.syntax unified
 1036              		.thumb
 1037              		.thumb_func
 1039              	Os_Set_TaskStk:
 1040              	.LVL37:
 1041              	.LFB150:
 160:System/scheduler/scheduler.c ****     uint32_t *Tsk_Ptr_tmp = NULL;
 1042              		.loc 1 160 1 is_stmt 1 view -0
 1043              		.cfi_startproc
 1044              		@ args = 0, pretend = 0, frame = 0
 1045              		@ frame_needed = 0, uses_anonymous_args = 0
 160:System/scheduler/scheduler.c ****     uint32_t *Tsk_Ptr_tmp = NULL;
 1046              		.loc 1 160 1 is_stmt 0 view .LVU306
 1047 0000 10B5     		push	{r4, lr}
 1048              	.LCFI20:
 1049              		.cfi_def_cfa_offset 8
 1050              		.cfi_offset 4, -8
 1051              		.cfi_offset 14, -4
 1052 0002 0446     		mov	r4, r0
 161:System/scheduler/scheduler.c **** 
 1053              		.loc 1 161 5 is_stmt 1 view .LVU307
 1054              	.LVL38:
 163:System/scheduler/scheduler.c **** 
 1055              		.loc 1 163 5 view .LVU308
 163:System/scheduler/scheduler.c **** 
 1056              		.loc 1 163 37 is_stmt 0 view .LVU309
 1057 0004 C26B     		ldr	r2, [r0, #60]
 163:System/scheduler/scheduler.c **** 
 1058              		.loc 1 163 5 view .LVU310
 1059 0006 9200     		lsls	r2, r2, #2
 1060 0008 0021     		movs	r1, #0
 1061 000a 406C     		ldr	r0, [r0, #68]
 1062              	.LVL39:
 163:System/scheduler/scheduler.c **** 
 1063              		.loc 1 163 5 view .LVU311
 1064 000c FFF7FEFF 		bl	memset
 1065              	.LVL40:
 165:System/scheduler/scheduler.c ****     Tsk_Ptr_tmp = (uint32_t *)((uint32_t)(Tsk_Ptr_tmp)&0XFFFFFFF8ul);
 1066              		.loc 1 165 5 is_stmt 1 view .LVU312
 165:System/scheduler/scheduler.c ****     Tsk_Ptr_tmp = (uint32_t *)((uint32_t)(Tsk_Ptr_tmp)&0XFFFFFFF8ul);
 1067              		.loc 1 165 19 is_stmt 0 view .LVU313
 1068 0010 04F14403 		add	r3, r4, #68
 165:System/scheduler/scheduler.c ****     Tsk_Ptr_tmp = (uint32_t *)((uint32_t)(Tsk_Ptr_tmp)&0XFFFFFFF8ul);
 1069              		.loc 1 165 41 view .LVU314
 1070 0014 E16B     		ldr	r1, [r4, #60]
 165:System/scheduler/scheduler.c ****     Tsk_Ptr_tmp = (uint32_t *)((uint32_t)(Tsk_Ptr_tmp)&0XFFFFFFF8ul);
 1071              		.loc 1 165 35 view .LVU315
 1072 0016 6FF04042 		mvn	r2, #-1073741824
 1073 001a 0A44     		add	r2, r2, r1
 165:System/scheduler/scheduler.c ****     Tsk_Ptr_tmp = (uint32_t *)((uint32_t)(Tsk_Ptr_tmp)&0XFFFFFFF8ul);
 1074              		.loc 1 165 17 view .LVU316
 1075 001c 03EB8203 		add	r3, r3, r2, lsl #2
ARM GAS  C:\Users\HUAV\AppData\Local\Temp\ccLbKHgN.s 			page 36


 1076              	.LVL41:
 166:System/scheduler/scheduler.c **** 
 1077              		.loc 1 166 5 is_stmt 1 view .LVU317
 166:System/scheduler/scheduler.c **** 
 1078              		.loc 1 166 55 is_stmt 0 view .LVU318
 1079 0020 23F00703 		bic	r3, r3, #7
 1080              	.LVL42:
 168:System/scheduler/scheduler.c ****     *Tsk_Ptr_tmp = 0x01000000uL; /* xPSR */
 1081              		.loc 1 168 5 is_stmt 1 view .LVU319
 169:System/scheduler/scheduler.c **** 
 1082              		.loc 1 169 5 view .LVU320
 169:System/scheduler/scheduler.c **** 
 1083              		.loc 1 169 18 is_stmt 0 view .LVU321
 1084 0024 4FF08072 		mov	r2, #16777216
 1085 0028 43F8042C 		str	r2, [r3, #-4]
 171:System/scheduler/scheduler.c ****     *Tsk_Ptr_tmp = ((uint32_t)Os_TaskCaller) & 0xfffffffeUL; /* PC */
 1086              		.loc 1 171 5 is_stmt 1 view .LVU322
 1087              	.LVL43:
 172:System/scheduler/scheduler.c **** 
 1088              		.loc 1 172 5 view .LVU323
 172:System/scheduler/scheduler.c **** 
 1089              		.loc 1 172 21 is_stmt 0 view .LVU324
 1090 002c 084A     		ldr	r2, .L90
 172:System/scheduler/scheduler.c **** 
 1091              		.loc 1 172 46 view .LVU325
 1092 002e 22F00102 		bic	r2, r2, #1
 172:System/scheduler/scheduler.c **** 
 1093              		.loc 1 172 18 view .LVU326
 1094 0032 43F8082C 		str	r2, [r3, #-8]
 174:System/scheduler/scheduler.c ****     *Tsk_Ptr_tmp = (uint32_t)Os_TaskExit; /* LR */
 1095              		.loc 1 174 5 is_stmt 1 view .LVU327
 1096              	.LVL44:
 175:System/scheduler/scheduler.c **** 
 1097              		.loc 1 175 5 view .LVU328
 175:System/scheduler/scheduler.c **** 
 1098              		.loc 1 175 20 is_stmt 0 view .LVU329
 1099 0036 074A     		ldr	r2, .L90+4
 175:System/scheduler/scheduler.c **** 
 1100              		.loc 1 175 18 view .LVU330
 1101 0038 43F80C2C 		str	r2, [r3, #-12]
 178:System/scheduler/scheduler.c ****     *Tsk_Ptr_tmp = (uint32_t)NULL; /* R0 */
 1102              		.loc 1 178 5 is_stmt 1 view .LVU331
 1103              	.LVL45:
 179:System/scheduler/scheduler.c **** 
 1104              		.loc 1 179 5 view .LVU332
 179:System/scheduler/scheduler.c **** 
 1105              		.loc 1 179 18 is_stmt 0 view .LVU333
 1106 003c 0022     		movs	r2, #0
 1107 003e 43F8202C 		str	r2, [r3, #-32]
 183:System/scheduler/scheduler.c ****     *Tsk_Ptr_tmp = 0xfffffffd;
 1108              		.loc 1 183 5 is_stmt 1 view .LVU334
 1109              	.LVL46:
 184:System/scheduler/scheduler.c **** 
 1110              		.loc 1 184 5 view .LVU335
 184:System/scheduler/scheduler.c **** 
 1111              		.loc 1 184 18 is_stmt 0 view .LVU336
 1112 0042 6FF00202 		mvn	r2, #2
ARM GAS  C:\Users\HUAV\AppData\Local\Temp\ccLbKHgN.s 			page 37


 1113 0046 43F8242C 		str	r2, [r3, #-36]
 186:System/scheduler/scheduler.c **** 
 1114              		.loc 1 186 5 is_stmt 1 view .LVU337
 186:System/scheduler/scheduler.c **** 
 1115              		.loc 1 186 17 is_stmt 0 view .LVU338
 1116 004a 443B     		subs	r3, r3, #68
 1117              	.LVL47:
 189:System/scheduler/scheduler.c **** }
 1118              		.loc 1 189 5 is_stmt 1 view .LVU339
 189:System/scheduler/scheduler.c **** }
 1119              		.loc 1 189 26 is_stmt 0 view .LVU340
 1120 004c 2364     		str	r3, [r4, #64]
 190:System/scheduler/scheduler.c **** 
 1121              		.loc 1 190 1 view .LVU341
 1122 004e 10BD     		pop	{r4, pc}
 1123              	.LVL48:
 1124              	.L91:
 190:System/scheduler/scheduler.c **** 
 1125              		.loc 1 190 1 view .LVU342
 1126              		.align	2
 1127              	.L90:
 1128 0050 00000000 		.word	Os_TaskCaller
 1129 0054 00000000 		.word	Os_TaskExit
 1130              		.cfi_endproc
 1131              	.LFE150:
 1133              		.section	.rodata.Os_CreateIdle.str1.4,"aMS",%progbits,1
 1134              		.align	2
 1135              	.LC0:
 1136 0000 49646C65 		.ascii	"Idle\000"
 1136      00
 1137              		.section	.text.Os_CreateIdle,"ax",%progbits
 1138              		.align	1
 1139              		.syntax unified
 1140              		.thumb
 1141              		.thumb_func
 1143              	Os_CreateIdle:
 1144              	.LFB155:
 271:System/scheduler/scheduler.c ****     /* for idle task we don`t need priority or other state */
 1145              		.loc 1 271 1 is_stmt 1 view -0
 1146              		.cfi_startproc
 1147              		@ args = 0, pretend = 0, frame = 0
 1148              		@ frame_needed = 0, uses_anonymous_args = 0
 1149 0000 10B5     		push	{r4, lr}
 1150              	.LCFI21:
 1151              		.cfi_def_cfa_offset 8
 1152              		.cfi_offset 4, -8
 1153              		.cfi_offset 14, -4
 273:System/scheduler/scheduler.c **** 
 1154              		.loc 1 273 5 view .LVU344
 273:System/scheduler/scheduler.c **** 
 1155              		.loc 1 273 25 is_stmt 0 view .LVU345
 1156 0002 5020     		movs	r0, #80
 1157 0004 FFF7FEFF 		bl	MMU_Malloc
 1158              	.LVL49:
 273:System/scheduler/scheduler.c **** 
 1159              		.loc 1 273 15 view .LVU346
 1160 0008 0E4B     		ldr	r3, .L97
ARM GAS  C:\Users\HUAV\AppData\Local\Temp\ccLbKHgN.s 			page 38


 1161 000a 1860     		str	r0, [r3]
 275:System/scheduler/scheduler.c ****         return false;
 1162              		.loc 1 275 5 is_stmt 1 view .LVU347
 275:System/scheduler/scheduler.c ****         return false;
 1163              		.loc 1 275 8 is_stmt 0 view .LVU348
 1164 000c B0B1     		cbz	r0, .L94
 1165 000e 0446     		mov	r4, r0
 278:System/scheduler/scheduler.c ****     Idle_Task->priority = IDLE_TASK_PRIORITY;
 1166              		.loc 1 278 5 is_stmt 1 view .LVU349
 278:System/scheduler/scheduler.c ****     Idle_Task->priority = IDLE_TASK_PRIORITY;
 1167              		.loc 1 278 26 is_stmt 0 view .LVU350
 1168 0010 0D4B     		ldr	r3, .L97+4
 1169 0012 4360     		str	r3, [r0, #4]
 279:System/scheduler/scheduler.c ****     Idle_Task->Exec_Func = Os_Idle;
 1170              		.loc 1 279 5 is_stmt 1 view .LVU351
 279:System/scheduler/scheduler.c ****     Idle_Task->Exec_Func = Os_Idle;
 1171              		.loc 1 279 25 is_stmt 0 view .LVU352
 1172 0014 8023     		movs	r3, #128
 1173 0016 4370     		strb	r3, [r0, #1]
 280:System/scheduler/scheduler.c **** 
 1174              		.loc 1 280 5 is_stmt 1 view .LVU353
 280:System/scheduler/scheduler.c **** 
 1175              		.loc 1 280 26 is_stmt 0 view .LVU354
 1176 0018 0C4B     		ldr	r3, .L97+8
 1177 001a 0361     		str	r3, [r0, #16]
 282:System/scheduler/scheduler.c ****     Idle_Task->TCB.Stack = (uint32_t *)MMU_Malloc(IDLE_TASK_STACK * sizeof(uint32_t));
 1178              		.loc 1 282 5 is_stmt 1 view .LVU355
 282:System/scheduler/scheduler.c ****     Idle_Task->TCB.Stack = (uint32_t *)MMU_Malloc(IDLE_TASK_STACK * sizeof(uint32_t));
 1179              		.loc 1 282 28 is_stmt 0 view .LVU356
 1180 001c 4FF48073 		mov	r3, #256
 1181 0020 C363     		str	r3, [r0, #60]
 283:System/scheduler/scheduler.c **** 
 1182              		.loc 1 283 5 is_stmt 1 view .LVU357
 283:System/scheduler/scheduler.c **** 
 1183              		.loc 1 283 40 is_stmt 0 view .LVU358
 1184 0022 4FF48060 		mov	r0, #1024
 1185 0026 FFF7FEFF 		bl	MMU_Malloc
 1186              	.LVL50:
 283:System/scheduler/scheduler.c **** 
 1187              		.loc 1 283 26 view .LVU359
 1188 002a 6064     		str	r0, [r4, #68]
 285:System/scheduler/scheduler.c ****     {
 1189              		.loc 1 285 5 is_stmt 1 view .LVU360
 285:System/scheduler/scheduler.c ****     {
 1190              		.loc 1 285 18 is_stmt 0 view .LVU361
 1191 002c 054B     		ldr	r3, .L97
 1192 002e 1868     		ldr	r0, [r3]
 285:System/scheduler/scheduler.c ****     {
 1193              		.loc 1 285 23 view .LVU362
 1194 0030 436C     		ldr	r3, [r0, #68]
 285:System/scheduler/scheduler.c ****     {
 1195              		.loc 1 285 8 view .LVU363
 1196 0032 2BB1     		cbz	r3, .L95
 287:System/scheduler/scheduler.c ****     }
 1197              		.loc 1 287 9 is_stmt 1 view .LVU364
 1198 0034 FFF7FEFF 		bl	Os_Set_TaskStk
 1199              	.LVL51:
ARM GAS  C:\Users\HUAV\AppData\Local\Temp\ccLbKHgN.s 			page 39


 292:System/scheduler/scheduler.c **** }
 1200              		.loc 1 292 5 view .LVU365
 292:System/scheduler/scheduler.c **** }
 1201              		.loc 1 292 12 is_stmt 0 view .LVU366
 1202 0038 0120     		movs	r0, #1
 1203              	.L93:
 293:System/scheduler/scheduler.c **** 
 1204              		.loc 1 293 1 view .LVU367
 1205 003a 10BD     		pop	{r4, pc}
 1206              	.L94:
 276:System/scheduler/scheduler.c **** 
 1207              		.loc 1 276 16 view .LVU368
 1208 003c 0020     		movs	r0, #0
 1209 003e FCE7     		b	.L93
 1210              	.L95:
 290:System/scheduler/scheduler.c **** 
 1211              		.loc 1 290 16 view .LVU369
 1212 0040 0020     		movs	r0, #0
 1213 0042 FAE7     		b	.L93
 1214              	.L98:
 1215              		.align	2
 1216              	.L97:
 1217 0044 00000000 		.word	.LANCHOR6
 1218 0048 00000000 		.word	.LC0
 1219 004c 00000000 		.word	Os_Idle
 1220              		.cfi_endproc
 1221              	.LFE155:
 1223              		.global	__aeabi_ul2f
 1224              		.section	.text.Os_TaskExec,"ax",%progbits
 1225              		.align	1
 1226              		.syntax unified
 1227              		.thumb
 1228              		.thumb_func
 1230              	Os_TaskExec:
 1231              	.LVL52:
 1232              	.LFB170:
 743:System/scheduler/scheduler.c ****     SYSTEM_RunTime time_diff;
 1233              		.loc 1 743 1 is_stmt 1 view -0
 1234              		.cfi_startproc
 1235              		@ args = 0, pretend = 0, frame = 8
 1236              		@ frame_needed = 0, uses_anonymous_args = 0
 743:System/scheduler/scheduler.c ****     SYSTEM_RunTime time_diff;
 1237              		.loc 1 743 1 is_stmt 0 view .LVU371
 1238 0000 70B5     		push	{r4, r5, r6, lr}
 1239              	.LCFI22:
 1240              		.cfi_def_cfa_offset 16
 1241              		.cfi_offset 4, -16
 1242              		.cfi_offset 5, -12
 1243              		.cfi_offset 6, -8
 1244              		.cfi_offset 14, -4
 1245 0002 2DED028B 		vpush.64	{d8}
 1246              	.LCFI23:
 1247              		.cfi_def_cfa_offset 24
 1248              		.cfi_offset 80, -24
 1249              		.cfi_offset 81, -20
 1250 0006 82B0     		sub	sp, sp, #8
 1251              	.LCFI24:
ARM GAS  C:\Users\HUAV\AppData\Local\Temp\ccLbKHgN.s 			page 40


 1252              		.cfi_def_cfa_offset 32
 1253 0008 0446     		mov	r4, r0
 744:System/scheduler/scheduler.c ****     RuntimeObj_Reset(&time_diff);
 1254              		.loc 1 744 5 is_stmt 1 view .LVU372
 745:System/scheduler/scheduler.c **** 
 1255              		.loc 1 745 5 view .LVU373
 1256 000a 6846     		mov	r0, sp
 1257              	.LVL53:
 745:System/scheduler/scheduler.c **** 
 1258              		.loc 1 745 5 is_stmt 0 view .LVU374
 1259 000c FFF7FEFF 		bl	RuntimeObj_Reset
 1260              	.LVL54:
 747:System/scheduler/scheduler.c ****     {
 1261              		.loc 1 747 5 is_stmt 1 view .LVU375
 747:System/scheduler/scheduler.c ****     {
 1262              		.loc 1 747 16 is_stmt 0 view .LVU376
 1263 0010 2378     		ldrb	r3, [r4]	@ zero_extendqisi2
 747:System/scheduler/scheduler.c ****     {
 1264              		.loc 1 747 8 view .LVU377
 1265 0012 012B     		cmp	r3, #1
 1266 0014 03D0     		beq	.L109
 1267              	.L99:
 799:System/scheduler/scheduler.c **** 
 1268              		.loc 1 799 1 view .LVU378
 1269 0016 02B0     		add	sp, sp, #8
 1270              	.LCFI25:
 1271              		.cfi_remember_state
 1272              		.cfi_def_cfa_offset 24
 1273              		@ sp needed
 1274 0018 BDEC028B 		vldm	sp!, {d8}
 1275              	.LCFI26:
 1276              		.cfi_restore 80
 1277              		.cfi_restore 81
 1278              		.cfi_def_cfa_offset 16
 1279 001c 70BD     		pop	{r4, r5, r6, pc}
 1280              	.LVL55:
 1281              	.L109:
 1282              	.LCFI27:
 1283              		.cfi_restore_state
 749:System/scheduler/scheduler.c **** 
 1284              		.loc 1 749 9 is_stmt 1 view .LVU379
 749:System/scheduler/scheduler.c **** 
 1285              		.loc 1 749 33 is_stmt 0 view .LVU380
 1286 001e 0023     		movs	r3, #0
 1287 0020 A364     		str	r3, [r4, #72]
 753:System/scheduler/scheduler.c **** 
 1288              		.loc 1 753 9 is_stmt 1 view .LVU381
 1289 0022 2046     		mov	r0, r4
 1290 0024 FFF7FEFF 		bl	Os_Clr_TaskReady
 1291              	.LVL56:
 756:System/scheduler/scheduler.c **** 
 1292              		.loc 1 756 9 view .LVU382
 756:System/scheduler/scheduler.c **** 
 1293              		.loc 1 756 23 is_stmt 0 view .LVU383
 1294 0028 304B     		ldr	r3, .L111
 1295 002a 1C60     		str	r4, [r3]
 758:System/scheduler/scheduler.c ****         {
ARM GAS  C:\Users\HUAV\AppData\Local\Temp\ccLbKHgN.s 			page 41


 1296              		.loc 1 758 9 is_stmt 1 view .LVU384
 758:System/scheduler/scheduler.c ****         {
 1297              		.loc 1 758 34 is_stmt 0 view .LVU385
 1298 002c A36A     		ldr	r3, [r4, #40]
 758:System/scheduler/scheduler.c ****         {
 1299              		.loc 1 758 12 view .LVU386
 1300 002e 4BB9     		cbnz	r3, .L101
 758:System/scheduler/scheduler.c ****         {
 1301              		.loc 1 758 62 discriminator 1 view .LVU387
 1302 0030 2F4B     		ldr	r3, .L111+4
 1303 0032 1B68     		ldr	r3, [r3]
 758:System/scheduler/scheduler.c ****         {
 1304              		.loc 1 758 50 discriminator 1 view .LVU388
 1305 0034 A342     		cmp	r3, r4
 1306 0036 05D0     		beq	.L101
 760:System/scheduler/scheduler.c ****             tsk_ptr->Exec_status.Exec_Time = tsk_ptr->Exec_status.Start_Time;
 1307              		.loc 1 760 13 is_stmt 1 view .LVU389
 760:System/scheduler/scheduler.c ****             tsk_ptr->Exec_status.Exec_Time = tsk_ptr->Exec_status.Start_Time;
 1308              		.loc 1 760 47 is_stmt 0 view .LVU390
 1309 0038 FFF7FEFF 		bl	Get_CurrentRunningUs
 1310              	.LVL57:
 760:System/scheduler/scheduler.c ****             tsk_ptr->Exec_status.Exec_Time = tsk_ptr->Exec_status.Start_Time;
 1311              		.loc 1 760 45 view .LVU391
 1312 003c E061     		str	r0, [r4, #28]
 1313 003e 2162     		str	r1, [r4, #32]
 761:System/scheduler/scheduler.c ****         }
 1314              		.loc 1 761 13 is_stmt 1 view .LVU392
 761:System/scheduler/scheduler.c ****         }
 1315              		.loc 1 761 44 is_stmt 0 view .LVU393
 1316 0040 6061     		str	r0, [r4, #20]
 1317 0042 A161     		str	r1, [r4, #24]
 1318              	.L101:
 764:System/scheduler/scheduler.c ****         {
 1319              		.loc 1 764 9 is_stmt 1 view .LVU394
 764:System/scheduler/scheduler.c ****         {
 1320              		.loc 1 764 20 is_stmt 0 view .LVU395
 1321 0044 2369     		ldr	r3, [r4, #16]
 764:System/scheduler/scheduler.c ****         {
 1322              		.loc 1 764 12 view .LVU396
 1323 0046 002B     		cmp	r3, #0
 1324 0048 3CD0     		beq	.L102
 766:System/scheduler/scheduler.c **** 
 1325              		.loc 1 766 13 is_stmt 1 view .LVU397
 766:System/scheduler/scheduler.c **** 
 1326              		.loc 1 766 28 is_stmt 0 view .LVU398
 1327 004a 0222     		movs	r2, #2
 1328 004c 2270     		strb	r2, [r4]
 769:System/scheduler/scheduler.c ****         }
 1329              		.loc 1 769 13 is_stmt 1 view .LVU399
 1330 004e 2046     		mov	r0, r4
 1331 0050 9847     		blx	r3
 1332              	.LVL58:
 777:System/scheduler/scheduler.c ****             return;
 1333              		.loc 1 777 9 view .LVU400
 777:System/scheduler/scheduler.c ****             return;
 1334              		.loc 1 777 21 is_stmt 0 view .LVU401
 1335 0052 274B     		ldr	r3, .L111+4
ARM GAS  C:\Users\HUAV\AppData\Local\Temp\ccLbKHgN.s 			page 42


 1336 0054 1B68     		ldr	r3, [r3]
 777:System/scheduler/scheduler.c ****             return;
 1337              		.loc 1 777 12 view .LVU402
 1338 0056 A342     		cmp	r3, r4
 1339 0058 DDD0     		beq	.L99
 781:System/scheduler/scheduler.c **** 
 1340              		.loc 1 781 9 is_stmt 1 view .LVU403
 781:System/scheduler/scheduler.c **** 
 1341              		.loc 1 781 29 is_stmt 0 view .LVU404
 1342 005a A36A     		ldr	r3, [r4, #40]
 781:System/scheduler/scheduler.c **** 
 1343              		.loc 1 781 38 view .LVU405
 1344 005c 0133     		adds	r3, r3, #1
 1345 005e A362     		str	r3, [r4, #40]
 784:System/scheduler/scheduler.c ****         time_diff = Get_TimeDifference_Between(tsk_ptr->Exec_status.Start_Time, tsk_ptr->Exec_statu
 1346              		.loc 1 784 9 is_stmt 1 view .LVU406
 784:System/scheduler/scheduler.c ****         time_diff = Get_TimeDifference_Between(tsk_ptr->Exec_status.Start_Time, tsk_ptr->Exec_statu
 1347              		.loc 1 784 53 is_stmt 0 view .LVU407
 1348 0060 A16C     		ldr	r1, [r4, #72]
 784:System/scheduler/scheduler.c ****         time_diff = Get_TimeDifference_Between(tsk_ptr->Exec_status.Start_Time, tsk_ptr->Exec_statu
 1349              		.loc 1 784 43 view .LVU408
 1350 0062 236B     		ldr	r3, [r4, #48]
 1351 0064 626B     		ldr	r2, [r4, #52]
 1352 0066 5B18     		adds	r3, r3, r1
 1353 0068 42F10002 		adc	r2, r2, #0
 1354 006c 2363     		str	r3, [r4, #48]
 1355 006e 6263     		str	r2, [r4, #52]
 785:System/scheduler/scheduler.c ****         tsk_ptr->Exec_status.Exec_Time = Get_TargetRunTime(tsk_ptr->exec_interval_us);
 1356              		.loc 1 785 9 is_stmt 1 view .LVU409
 785:System/scheduler/scheduler.c ****         tsk_ptr->Exec_status.Exec_Time = Get_TargetRunTime(tsk_ptr->exec_interval_us);
 1357              		.loc 1 785 21 is_stmt 0 view .LVU410
 1358 0070 6269     		ldr	r2, [r4, #20]
 1359 0072 A369     		ldr	r3, [r4, #24]
 1360 0074 E069     		ldr	r0, [r4, #28]
 1361 0076 216A     		ldr	r1, [r4, #32]
 1362 0078 FFF7FEFF 		bl	Get_TimeDifference_Between
 1363              	.LVL59:
 785:System/scheduler/scheduler.c ****         tsk_ptr->Exec_status.Exec_Time = Get_TargetRunTime(tsk_ptr->exec_interval_us);
 1364              		.loc 1 785 19 view .LVU411
 1365 007c CDE90001 		strd	r0, [sp]
 786:System/scheduler/scheduler.c **** 
 1366              		.loc 1 786 9 is_stmt 1 view .LVU412
 786:System/scheduler/scheduler.c **** 
 1367              		.loc 1 786 42 is_stmt 0 view .LVU413
 1368 0080 A089     		ldrh	r0, [r4, #12]
 1369 0082 FFF7FEFF 		bl	Get_TargetRunTime
 1370              	.LVL60:
 786:System/scheduler/scheduler.c **** 
 1371              		.loc 1 786 40 view .LVU414
 1372 0086 6061     		str	r0, [r4, #20]
 1373 0088 A161     		str	r1, [r4, #24]
 788:System/scheduler/scheduler.c ****         tsk_ptr->Exec_status.cpu_opy *= 100;
 1374              		.loc 1 788 9 is_stmt 1 view .LVU415
 788:System/scheduler/scheduler.c ****         tsk_ptr->Exec_status.cpu_opy *= 100;
 1375              		.loc 1 788 60 is_stmt 0 view .LVU416
 1376 008a 266B     		ldr	r6, [r4, #48]
 1377 008c 656B     		ldr	r5, [r4, #52]
ARM GAS  C:\Users\HUAV\AppData\Local\Temp\ccLbKHgN.s 			page 43


 788:System/scheduler/scheduler.c ****         tsk_ptr->Exec_status.cpu_opy *= 100;
 1378              		.loc 1 788 76 view .LVU417
 1379 008e DDE90001 		ldrd	r0, [sp]
 1380 0092 FFF7FEFF 		bl	__aeabi_ul2f
 1381              	.LVL61:
 1382 0096 08EE100A 		vmov	s16, r0
 788:System/scheduler/scheduler.c ****         tsk_ptr->Exec_status.cpu_opy *= 100;
 1383              		.loc 1 788 74 view .LVU418
 1384 009a 3046     		mov	r0, r6
 1385 009c 2946     		mov	r1, r5
 1386 009e FFF7FEFF 		bl	__aeabi_ul2f
 1387              	.LVL62:
 1388 00a2 07EE100A 		vmov	s14, r0
 1389 00a6 C7EE087A 		vdiv.f32	s15, s14, s16
 788:System/scheduler/scheduler.c ****         tsk_ptr->Exec_status.cpu_opy *= 100;
 1390              		.loc 1 788 38 view .LVU419
 1391 00aa C4ED0E7A 		vstr.32	s15, [r4, #56]
 789:System/scheduler/scheduler.c **** 
 1392              		.loc 1 789 9 is_stmt 1 view .LVU420
 789:System/scheduler/scheduler.c **** 
 1393              		.loc 1 789 38 is_stmt 0 view .LVU421
 1394 00ae 9FED117A 		vldr.32	s14, .L111+8
 1395 00b2 67EE877A 		vmul.f32	s15, s15, s14
 1396 00b6 C4ED0E7A 		vstr.32	s15, [r4, #56]
 792:System/scheduler/scheduler.c ****         {
 1397              		.loc 1 792 9 is_stmt 1 view .LVU422
 792:System/scheduler/scheduler.c ****         {
 1398              		.loc 1 792 33 is_stmt 0 view .LVU423
 1399 00ba A56A     		ldr	r5, [r4, #40]
 792:System/scheduler/scheduler.c ****         {
 1400              		.loc 1 792 12 view .LVU424
 1401 00bc 2DB9     		cbnz	r5, .L110
 1402              	.L105:
 797:System/scheduler/scheduler.c ****     }
 1403              		.loc 1 797 9 is_stmt 1 view .LVU425
 797:System/scheduler/scheduler.c ****     }
 1404              		.loc 1 797 24 is_stmt 0 view .LVU426
 1405 00be 0323     		movs	r3, #3
 1406 00c0 2370     		strb	r3, [r4]
 1407 00c2 A8E7     		b	.L99
 1408              	.L102:
 773:System/scheduler/scheduler.c ****             return;
 1409              		.loc 1 773 13 is_stmt 1 view .LVU427
 773:System/scheduler/scheduler.c ****             return;
 1410              		.loc 1 773 28 is_stmt 0 view .LVU428
 1411 00c4 0323     		movs	r3, #3
 1412 00c6 2370     		strb	r3, [r4]
 774:System/scheduler/scheduler.c ****         }
 1413              		.loc 1 774 13 is_stmt 1 view .LVU429
 1414 00c8 A5E7     		b	.L99
 1415              	.L110:
 794:System/scheduler/scheduler.c ****         }
 1416              		.loc 1 794 13 view .LVU430
 794:System/scheduler/scheduler.c ****         }
 1417              		.loc 1 794 103 is_stmt 0 view .LVU431
 1418 00ca FFF7FEFF 		bl	Get_CurrentRunningS
 1419              	.LVL63:
ARM GAS  C:\Users\HUAV\AppData\Local\Temp\ccLbKHgN.s 			page 44


 794:System/scheduler/scheduler.c ****         }
 1420              		.loc 1 794 95 view .LVU432
 1421 00ce FFF7FEFF 		bl	__aeabi_ul2f
 1422              	.LVL64:
 1423 00d2 06EE900A 		vmov	s13, r0
 794:System/scheduler/scheduler.c ****         }
 1424              		.loc 1 794 93 view .LVU433
 1425 00d6 07EE905A 		vmov	s15, r5	@ int
 1426 00da F8EE677A 		vcvt.f32.u32	s15, s15
 1427 00de 87EEA67A 		vdiv.f32	s14, s15, s13
 794:System/scheduler/scheduler.c ****         }
 1428              		.loc 1 794 52 view .LVU434
 1429 00e2 BCEEC77A 		vcvt.u32.f32	s14, s14
 794:System/scheduler/scheduler.c ****         }
 1430              		.loc 1 794 50 view .LVU435
 1431 00e6 84ED097A 		vstr.32	s14, [r4, #36]	@ int
 1432 00ea E8E7     		b	.L105
 1433              	.L112:
 1434              		.align	2
 1435              	.L111:
 1436 00ec 00000000 		.word	.LANCHOR8
 1437 00f0 00000000 		.word	.LANCHOR6
 1438 00f4 0000C842 		.word	1120403456
 1439              		.cfi_endproc
 1440              	.LFE170:
 1442              		.section	.text.Os_LoadFirstTask,"ax",%progbits
 1443              		.align	1
 1444              		.global	Os_LoadFirstTask
 1445              		.syntax unified
 1446              		.thumb
 1447              		.thumb_func
 1449              	Os_LoadFirstTask:
 1450              	.LFB147:
  85:System/scheduler/scheduler.c ****     __ASM("LDR	  R3, =CurTsk_TCB");
 1451              		.loc 1 85 1 is_stmt 1 view -0
 1452              		.cfi_startproc
 1453              		@ Naked Function: prologue and epilogue provided by programmer.
 1454              		@ args = 0, pretend = 0, frame = 0
 1455              		@ frame_needed = 0, uses_anonymous_args = 0
  86:System/scheduler/scheduler.c ****     __ASM("LDR    R1, [R3]");
 1456              		.loc 1 86 5 view .LVU437
 1457              		.syntax unified
 1458              	@ 86 "System/scheduler/scheduler.c" 1
 1459 0000 074B     		LDR	  R3, =CurTsk_TCB
 1460              	@ 0 "" 2
  87:System/scheduler/scheduler.c ****     __ASM("LDR    R0, [R1]");
 1461              		.loc 1 87 5 view .LVU438
 1462              	@ 87 "System/scheduler/scheduler.c" 1
 1463 0002 1968     		LDR    R1, [R3]
 1464              	@ 0 "" 2
  88:System/scheduler/scheduler.c **** 
 1465              		.loc 1 88 5 view .LVU439
 1466              	@ 88 "System/scheduler/scheduler.c" 1
 1467 0004 0868     		LDR    R0, [R1]
 1468              	@ 0 "" 2
  90:System/scheduler/scheduler.c **** 
 1469              		.loc 1 90 5 view .LVU440
ARM GAS  C:\Users\HUAV\AppData\Local\Temp\ccLbKHgN.s 			page 45


 1470              	@ 90 "System/scheduler/scheduler.c" 1
 1471 0006 B0E8F04F 		LDMIA  R0!, {R4-R11, R14}
 1472              	@ 0 "" 2
  93:System/scheduler/scheduler.c ****     __ASM("IT       EQ");
 1473              		.loc 1 93 5 view .LVU441
 1474              	@ 93 "System/scheduler/scheduler.c" 1
 1475 000a 1EF0100F 		TST      R14, #0x10
 1476              	@ 0 "" 2
  94:System/scheduler/scheduler.c ****     __ASM("VLDMIAEQ R0!, {s16-s31}");
 1477              		.loc 1 94 5 view .LVU442
 1478              	@ 94 "System/scheduler/scheduler.c" 1
 1479 000e 08BF     		IT       EQ
 1480              	@ 0 "" 2
  95:System/scheduler/scheduler.c ****     /******************************  FPU SECTION  *********************************/
 1481              		.loc 1 95 5 view .LVU443
 1482              	@ 95 "System/scheduler/scheduler.c" 1
 1483 0010 B0EC108A 		VLDMIAEQ R0!, {s16-s31}
 1484              	@ 0 "" 2
  98:System/scheduler/scheduler.c ****     __ASM("ISB");
 1485              		.loc 1 98 5 view .LVU444
 1486              	@ 98 "System/scheduler/scheduler.c" 1
 1487 0014 80F30988 		MSR    PSP, R0
 1488              	@ 0 "" 2
  99:System/scheduler/scheduler.c ****     __ASM("BX     R14");
 1489              		.loc 1 99 5 view .LVU445
 1490              	@ 99 "System/scheduler/scheduler.c" 1
 1491 0018 BFF36F8F 		ISB
 1492              	@ 0 "" 2
 100:System/scheduler/scheduler.c ****     __ASM(".ALIGN 4");
 1493              		.loc 1 100 5 view .LVU446
 1494              	@ 100 "System/scheduler/scheduler.c" 1
 1495 001c 7047     		BX     R14
 1496              	@ 0 "" 2
 101:System/scheduler/scheduler.c **** }
 1497              		.loc 1 101 5 view .LVU447
 1498              	@ 101 "System/scheduler/scheduler.c" 1
 1499 001e 00BF     		.ALIGN 4
 1500              	@ 0 "" 2
 102:System/scheduler/scheduler.c **** 
 1501              		.loc 1 102 1 is_stmt 0 view .LVU448
 1502              		.thumb
 1503              		.syntax unified
 1504              		.cfi_endproc
 1505              	.LFE147:
 1507              		.section	.text.Os_SwitchContext,"ax",%progbits
 1508              		.align	1
 1509              		.global	Os_SwitchContext
 1510              		.syntax unified
 1511              		.thumb
 1512              		.thumb_func
 1514              	Os_SwitchContext:
 1515              	.LFB148:
 105:System/scheduler/scheduler.c ****     __ASM("MRS      R0, PSP");
 1516              		.loc 1 105 1 is_stmt 1 view -0
 1517              		.cfi_startproc
 1518              		@ Naked Function: prologue and epilogue provided by programmer.
 1519              		@ args = 0, pretend = 0, frame = 0
ARM GAS  C:\Users\HUAV\AppData\Local\Temp\ccLbKHgN.s 			page 46


 1520              		@ frame_needed = 0, uses_anonymous_args = 0
 106:System/scheduler/scheduler.c ****     __ASM("ISB");
 1521              		.loc 1 106 5 view .LVU450
 1522              		.syntax unified
 1523              	@ 106 "System/scheduler/scheduler.c" 1
 1524 0000 EFF30980 		MRS      R0, PSP
 1525              	@ 0 "" 2
 107:System/scheduler/scheduler.c **** 
 1526              		.loc 1 107 5 view .LVU451
 1527              	@ 107 "System/scheduler/scheduler.c" 1
 1528 0004 BFF36F8F 		ISB
 1529              	@ 0 "" 2
 109:System/scheduler/scheduler.c ****     __ASM("LDR      R2, [R3]");
 1530              		.loc 1 109 5 view .LVU452
 1531              	@ 109 "System/scheduler/scheduler.c" 1
 1532 0008 DFF85030 		LDR      R3, CurrentTCBConst_Tmp
 1533              	@ 0 "" 2
 110:System/scheduler/scheduler.c **** 
 1534              		.loc 1 110 5 view .LVU453
 1535              	@ 110 "System/scheduler/scheduler.c" 1
 1536 000c 1A68     		LDR      R2, [R3]
 1537              	@ 0 "" 2
 113:System/scheduler/scheduler.c ****     __ASM("IT       EQ");
 1538              		.loc 1 113 5 view .LVU454
 1539              	@ 113 "System/scheduler/scheduler.c" 1
 1540 000e 1EF0100F 		TST      R14, #0x10
 1541              	@ 0 "" 2
 114:System/scheduler/scheduler.c ****     __ASM("VSTMDBEQ R0!, {s16-s31}");
 1542              		.loc 1 114 5 view .LVU455
 1543              	@ 114 "System/scheduler/scheduler.c" 1
 1544 0012 08BF     		IT       EQ
 1545              	@ 0 "" 2
 115:System/scheduler/scheduler.c ****     /******************************  FPU SECTION  *********************************/
 1546              		.loc 1 115 5 view .LVU456
 1547              	@ 115 "System/scheduler/scheduler.c" 1
 1548 0014 20ED108A 		VSTMDBEQ R0!, {s16-s31}
 1549              	@ 0 "" 2
 118:System/scheduler/scheduler.c ****     __ASM("STR      R0, [R2]");
 1550              		.loc 1 118 5 view .LVU457
 1551              	@ 118 "System/scheduler/scheduler.c" 1
 1552 0018 20E9F04F 		STMDB    R0!, {R4-R11, R14}
 1553              	@ 0 "" 2
 119:System/scheduler/scheduler.c **** 
 1554              		.loc 1 119 5 view .LVU458
 1555              	@ 119 "System/scheduler/scheduler.c" 1
 1556 001c 1060     		STR      R0, [R2]
 1557              	@ 0 "" 2
 121:System/scheduler/scheduler.c ****     __ASM("MOV      R0, %0" ::"i"(SYSCALL_INTERRUPT_PRIORITY));
 1558              		.loc 1 121 5 view .LVU459
 1559              	@ 121 "System/scheduler/scheduler.c" 1
 1560 001e 2DE90900 		STMDB    SP!, {R0, R3}
 1561              	@ 0 "" 2
 122:System/scheduler/scheduler.c ****     __ASM("MSR      BASEPRI, R0");
 1562              		.loc 1 122 5 view .LVU460
 1563              	@ 122 "System/scheduler/scheduler.c" 1
 1564 0022 4FF03000 		MOV      R0, #48
 1565              	@ 0 "" 2
ARM GAS  C:\Users\HUAV\AppData\Local\Temp\ccLbKHgN.s 			page 47


 123:System/scheduler/scheduler.c **** 
 1566              		.loc 1 123 5 view .LVU461
 1567              	@ 123 "System/scheduler/scheduler.c" 1
 1568 0026 80F31188 		MSR      BASEPRI, R0
 1569              	@ 0 "" 2
 125:System/scheduler/scheduler.c ****     __ASM("ISB");
 1570              		.loc 1 125 5 view .LVU462
 1571              	@ 125 "System/scheduler/scheduler.c" 1
 1572 002a BFF34F8F 		DSB
 1573              	@ 0 "" 2
 126:System/scheduler/scheduler.c **** 
 1574              		.loc 1 126 5 view .LVU463
 1575              	@ 126 "System/scheduler/scheduler.c" 1
 1576 002e BFF36F8F 		ISB
 1577              	@ 0 "" 2
 128:System/scheduler/scheduler.c **** 
 1578              		.loc 1 128 5 view .LVU464
 1579              	@ 128 "System/scheduler/scheduler.c" 1
 1580 0032 FFF7FEFF 		BL       Os_SwitchTaskStack
 1581              	@ 0 "" 2
 130:System/scheduler/scheduler.c ****     __ASM("MSR      BASEPRI, R0");
 1582              		.loc 1 130 5 view .LVU465
 1583              	@ 130 "System/scheduler/scheduler.c" 1
 1584 0036 4FF00000 		MOV      R0, #0
 1585              	@ 0 "" 2
 131:System/scheduler/scheduler.c ****     __ASM("LDMIA    SP!, {R0, R3}");
 1586              		.loc 1 131 5 view .LVU466
 1587              	@ 131 "System/scheduler/scheduler.c" 1
 1588 003a 80F31188 		MSR      BASEPRI, R0
 1589              	@ 0 "" 2
 132:System/scheduler/scheduler.c **** 
 1590              		.loc 1 132 5 view .LVU467
 1591              	@ 132 "System/scheduler/scheduler.c" 1
 1592 003e 09BC     		LDMIA    SP!, {R0, R3}
 1593              	@ 0 "" 2
 134:System/scheduler/scheduler.c ****     __ASM("LDR      R0, [R1]");
 1594              		.loc 1 134 5 view .LVU468
 1595              	@ 134 "System/scheduler/scheduler.c" 1
 1596 0040 1968     		LDR      R1, [R3]
 1597              	@ 0 "" 2
 135:System/scheduler/scheduler.c **** 
 1598              		.loc 1 135 5 view .LVU469
 1599              	@ 135 "System/scheduler/scheduler.c" 1
 1600 0042 0868     		LDR      R0, [R1]
 1601              	@ 0 "" 2
 137:System/scheduler/scheduler.c **** 
 1602              		.loc 1 137 5 view .LVU470
 1603              	@ 137 "System/scheduler/scheduler.c" 1
 1604 0044 B0E8F04F 		LDMIA    R0!, {R4-R11, R14}
 1605              	@ 0 "" 2
 140:System/scheduler/scheduler.c ****     __ASM("IT       EQ");
 1606              		.loc 1 140 5 view .LVU471
 1607              	@ 140 "System/scheduler/scheduler.c" 1
 1608 0048 1EF0100F 		TST      R14, #0x10
 1609              	@ 0 "" 2
 141:System/scheduler/scheduler.c ****     __ASM("VLDMIAEQ R0!, {s16-s31}");
 1610              		.loc 1 141 5 view .LVU472
ARM GAS  C:\Users\HUAV\AppData\Local\Temp\ccLbKHgN.s 			page 48


 1611              	@ 141 "System/scheduler/scheduler.c" 1
 1612 004c 08BF     		IT       EQ
 1613              	@ 0 "" 2
 142:System/scheduler/scheduler.c ****     /******************************  FPU SECTION  *********************************/
 1614              		.loc 1 142 5 view .LVU473
 1615              	@ 142 "System/scheduler/scheduler.c" 1
 1616 004e B0EC108A 		VLDMIAEQ R0!, {s16-s31}
 1617              	@ 0 "" 2
 145:System/scheduler/scheduler.c ****     __ASM("ISB");
 1618              		.loc 1 145 5 view .LVU474
 1619              	@ 145 "System/scheduler/scheduler.c" 1
 1620 0052 80F30988 		MSR      PSP,R0
 1621              	@ 0 "" 2
 146:System/scheduler/scheduler.c ****     __ASM("BX       R14");
 1622              		.loc 1 146 5 view .LVU475
 1623              	@ 146 "System/scheduler/scheduler.c" 1
 1624 0056 BFF36F8F 		ISB
 1625              	@ 0 "" 2
 147:System/scheduler/scheduler.c **** 
 1626              		.loc 1 147 5 view .LVU476
 1627              	@ 147 "System/scheduler/scheduler.c" 1
 1628 005a 7047     		BX       R14
 1629              	@ 0 "" 2
 149:System/scheduler/scheduler.c ****     __ASM(".ALIGN 4");
 1630              		.loc 1 149 5 view .LVU477
 1631              	@ 149 "System/scheduler/scheduler.c" 1
 1632 005c 00000000 		CurrentTCBConst_Tmp: .word CurTsk_TCB
 1633              	@ 0 "" 2
 150:System/scheduler/scheduler.c **** }
 1634              		.loc 1 150 5 view .LVU478
 1635              	@ 150 "System/scheduler/scheduler.c" 1
 1636              		.ALIGN 4
 1637              	@ 0 "" 2
 151:System/scheduler/scheduler.c **** 
 1638              		.loc 1 151 1 is_stmt 0 view .LVU479
 1639              		.thumb
 1640              		.syntax unified
 1641              		.cfi_endproc
 1642              	.LFE148:
 1644              		.section	.text.Os_SwitchTaskStack,"ax",%progbits
 1645              		.align	1
 1646              		.global	Os_SwitchTaskStack
 1647              		.syntax unified
 1648              		.thumb
 1649              		.thumb_func
 1651              	Os_SwitchTaskStack:
 1652              	.LFB149:
 154:System/scheduler/scheduler.c ****     CurTsk_TCB = NxtTsk_TCB;
 1653              		.loc 1 154 1 is_stmt 1 view -0
 1654              		.cfi_startproc
 1655              		@ args = 0, pretend = 0, frame = 0
 1656              		@ frame_needed = 0, uses_anonymous_args = 0
 1657              		@ link register save eliminated.
 155:System/scheduler/scheduler.c ****     CurRunTsk_Ptr = NxtRunTsk_Ptr;
 1658              		.loc 1 155 5 view .LVU481
 155:System/scheduler/scheduler.c ****     CurRunTsk_Ptr = NxtRunTsk_Ptr;
 1659              		.loc 1 155 16 is_stmt 0 view .LVU482
ARM GAS  C:\Users\HUAV\AppData\Local\Temp\ccLbKHgN.s 			page 49


 1660 0000 054B     		ldr	r3, .L116
 1661 0002 064A     		ldr	r2, .L116+4
 1662 0004 92E80300 		ldm	r2, {r0, r1}
 1663 0008 83E80300 		stm	r3, {r0, r1}
 156:System/scheduler/scheduler.c **** }
 1664              		.loc 1 156 5 is_stmt 1 view .LVU483
 156:System/scheduler/scheduler.c **** }
 1665              		.loc 1 156 19 is_stmt 0 view .LVU484
 1666 000c 044B     		ldr	r3, .L116+8
 1667 000e 1A68     		ldr	r2, [r3]
 1668 0010 044B     		ldr	r3, .L116+12
 1669 0012 1A60     		str	r2, [r3]
 157:System/scheduler/scheduler.c **** 
 1670              		.loc 1 157 1 view .LVU485
 1671 0014 7047     		bx	lr
 1672              	.L117:
 1673 0016 00BF     		.align	2
 1674              	.L116:
 1675 0018 00000000 		.word	.LANCHOR9
 1676 001c 00000000 		.word	.LANCHOR10
 1677 0020 00000000 		.word	.LANCHOR11
 1678 0024 00000000 		.word	.LANCHOR8
 1679              		.cfi_endproc
 1680              	.LFE149:
 1682              		.section	.text.Os_Init,"ax",%progbits
 1683              		.align	1
 1684              		.global	Os_Init
 1685              		.syntax unified
 1686              		.thumb
 1687              		.thumb_func
 1689              	Os_Init:
 1690              	.LVL65:
 1691              	.LFB151:
 193:System/scheduler/scheduler.c ****     while (!Kernel_Init())
 1692              		.loc 1 193 1 is_stmt 1 view -0
 1693              		.cfi_startproc
 1694              		@ args = 0, pretend = 0, frame = 0
 1695              		@ frame_needed = 0, uses_anonymous_args = 0
 193:System/scheduler/scheduler.c ****     while (!Kernel_Init())
 1696              		.loc 1 193 1 is_stmt 0 view .LVU487
 1697 0000 2DE9F041 		push	{r4, r5, r6, r7, r8, lr}
 1698              	.LCFI28:
 1699              		.cfi_def_cfa_offset 24
 1700              		.cfi_offset 4, -24
 1701              		.cfi_offset 5, -20
 1702              		.cfi_offset 6, -16
 1703              		.cfi_offset 7, -12
 1704              		.cfi_offset 8, -8
 1705              		.cfi_offset 14, -4
 1706 0004 8046     		mov	r8, r0
 194:System/scheduler/scheduler.c ****         ;
 1707              		.loc 1 194 5 is_stmt 1 view .LVU488
 1708              	.LVL66:
 1709              	.L120:
 195:System/scheduler/scheduler.c **** 
 1710              		.loc 1 195 9 discriminator 1 view .LVU489
 194:System/scheduler/scheduler.c ****         ;
ARM GAS  C:\Users\HUAV\AppData\Local\Temp\ccLbKHgN.s 			page 50


 1711              		.loc 1 194 11 discriminator 1 view .LVU490
 194:System/scheduler/scheduler.c ****         ;
 1712              		.loc 1 194 13 is_stmt 0 discriminator 1 view .LVU491
 1713 0006 FFF7FEFF 		bl	Kernel_Init
 1714              	.LVL67:
 194:System/scheduler/scheduler.c ****         ;
 1715              		.loc 1 194 11 discriminator 1 view .LVU492
 1716 000a 0028     		cmp	r0, #0
 1717 000c FBD0     		beq	.L120
 1718              	.LBB2:
 197:System/scheduler/scheduler.c ****     {
 1719              		.loc 1 197 18 view .LVU493
 1720 000e 0027     		movs	r7, #0
 1721 0010 18E0     		b	.L119
 1722              	.LVL68:
 1723              	.L121:
 1724              	.LBB3:
 202:System/scheduler/scheduler.c **** 
 1725              		.loc 1 202 13 is_stmt 1 discriminator 3 view .LVU494
 202:System/scheduler/scheduler.c **** 
 1726              		.loc 1 202 31 is_stmt 0 discriminator 3 view .LVU495
 1727 0012 194D     		ldr	r5, .L127
 1728 0014 04EBC706 		add	r6, r4, r7, lsl #3
 202:System/scheduler/scheduler.c **** 
 1729              		.loc 1 202 13 discriminator 3 view .LVU496
 1730 0018 05EB8600 		add	r0, r5, r6, lsl #2
 1731 001c FFF7FEFF 		bl	Os_ResetTask_Data
 1732              	.LVL69:
 205:System/scheduler/scheduler.c ****             TaskPtr_Map[g][t]->TCB.Stack = NULL;
 1733              		.loc 1 205 13 is_stmt 1 discriminator 3 view .LVU497
 205:System/scheduler/scheduler.c ****             TaskPtr_Map[g][t]->TCB.Stack = NULL;
 1734              		.loc 1 205 27 is_stmt 0 discriminator 3 view .LVU498
 1735 0020 55F82620 		ldr	r2, [r5, r6, lsl #2]
 205:System/scheduler/scheduler.c ****             TaskPtr_Map[g][t]->TCB.Stack = NULL;
 1736              		.loc 1 205 44 discriminator 3 view .LVU499
 1737 0024 0023     		movs	r3, #0
 1738 0026 D363     		str	r3, [r2, #60]
 206:System/scheduler/scheduler.c ****             TaskPtr_Map[g][t]->TCB.Top_Stk_Ptr = NULL;
 1739              		.loc 1 206 13 is_stmt 1 discriminator 3 view .LVU500
 206:System/scheduler/scheduler.c ****             TaskPtr_Map[g][t]->TCB.Top_Stk_Ptr = NULL;
 1740              		.loc 1 206 27 is_stmt 0 discriminator 3 view .LVU501
 1741 0028 55F82620 		ldr	r2, [r5, r6, lsl #2]
 206:System/scheduler/scheduler.c ****             TaskPtr_Map[g][t]->TCB.Top_Stk_Ptr = NULL;
 1742              		.loc 1 206 42 discriminator 3 view .LVU502
 1743 002c 5364     		str	r3, [r2, #68]
 207:System/scheduler/scheduler.c **** 
 1744              		.loc 1 207 13 is_stmt 1 discriminator 3 view .LVU503
 207:System/scheduler/scheduler.c **** 
 1745              		.loc 1 207 27 is_stmt 0 discriminator 3 view .LVU504
 1746 002e 55F82620 		ldr	r2, [r5, r6, lsl #2]
 207:System/scheduler/scheduler.c **** 
 1747              		.loc 1 207 48 discriminator 3 view .LVU505
 1748 0032 1364     		str	r3, [r2, #64]
 209:System/scheduler/scheduler.c ****         }
 1749              		.loc 1 209 13 is_stmt 1 discriminator 3 view .LVU506
 209:System/scheduler/scheduler.c ****         }
 1750              		.loc 1 209 31 is_stmt 0 discriminator 3 view .LVU507
ARM GAS  C:\Users\HUAV\AppData\Local\Temp\ccLbKHgN.s 			page 51


 1751 0034 45F82630 		str	r3, [r5, r6, lsl #2]
 199:System/scheduler/scheduler.c ****         {
 1752              		.loc 1 199 66 is_stmt 1 discriminator 3 view .LVU508
 199:System/scheduler/scheduler.c ****         {
 1753              		.loc 1 199 67 is_stmt 0 discriminator 3 view .LVU509
 1754 0038 0134     		adds	r4, r4, #1
 1755              	.LVL70:
 199:System/scheduler/scheduler.c ****         {
 1756              		.loc 1 199 67 discriminator 3 view .LVU510
 1757 003a E4B2     		uxtb	r4, r4
 1758              	.LVL71:
 1759              	.L122:
 199:System/scheduler/scheduler.c ****         {
 1760              		.loc 1 199 43 is_stmt 1 discriminator 1 view .LVU511
 199:System/scheduler/scheduler.c ****         {
 1761              		.loc 1 199 9 is_stmt 0 discriminator 1 view .LVU512
 1762 003c 072C     		cmp	r4, #7
 1763 003e E8D9     		bls	.L121
 1764              	.LBE3:
 197:System/scheduler/scheduler.c ****     {
 1765              		.loc 1 197 56 is_stmt 1 discriminator 2 view .LVU513
 197:System/scheduler/scheduler.c ****     {
 1766              		.loc 1 197 57 is_stmt 0 discriminator 2 view .LVU514
 1767 0040 0137     		adds	r7, r7, #1
 1768              	.LVL72:
 197:System/scheduler/scheduler.c ****     {
 1769              		.loc 1 197 57 discriminator 2 view .LVU515
 1770 0042 FFB2     		uxtb	r7, r7
 1771              	.LVL73:
 1772              	.L119:
 197:System/scheduler/scheduler.c ****     {
 1773              		.loc 1 197 36 is_stmt 1 discriminator 1 view .LVU516
 197:System/scheduler/scheduler.c ****     {
 1774              		.loc 1 197 5 is_stmt 0 discriminator 1 view .LVU517
 1775 0044 072F     		cmp	r7, #7
 1776 0046 01D8     		bhi	.L126
 1777              	.LBB4:
 199:System/scheduler/scheduler.c ****         {
 1778              		.loc 1 199 22 view .LVU518
 1779 0048 0024     		movs	r4, #0
 1780 004a F7E7     		b	.L122
 1781              	.L126:
 1782              	.LBE4:
 1783              	.LBE2:
 213:System/scheduler/scheduler.c ****     TskCrt_RegList.list.data = NULL;
 1784              		.loc 1 213 5 is_stmt 1 view .LVU519
 213:System/scheduler/scheduler.c ****     TskCrt_RegList.list.data = NULL;
 1785              		.loc 1 213 24 is_stmt 0 view .LVU520
 1786 004c 0B4B     		ldr	r3, .L127+4
 1787 004e 0022     		movs	r2, #0
 1788 0050 1A70     		strb	r2, [r3]
 214:System/scheduler/scheduler.c ****     TskCrt_RegList.list.nxt = NULL;
 1789              		.loc 1 214 5 is_stmt 1 view .LVU521
 214:System/scheduler/scheduler.c ****     TskCrt_RegList.list.nxt = NULL;
 1790              		.loc 1 214 30 is_stmt 0 view .LVU522
 1791 0052 5A61     		str	r2, [r3, #20]
 215:System/scheduler/scheduler.c ****     TskCrt_RegList.list.prv = NULL;
ARM GAS  C:\Users\HUAV\AppData\Local\Temp\ccLbKHgN.s 			page 52


 1792              		.loc 1 215 5 is_stmt 1 view .LVU523
 215:System/scheduler/scheduler.c ****     TskCrt_RegList.list.prv = NULL;
 1793              		.loc 1 215 29 is_stmt 0 view .LVU524
 1794 0054 1A61     		str	r2, [r3, #16]
 216:System/scheduler/scheduler.c **** 
 1795              		.loc 1 216 5 is_stmt 1 view .LVU525
 216:System/scheduler/scheduler.c **** 
 1796              		.loc 1 216 29 is_stmt 0 view .LVU526
 1797 0056 DA60     		str	r2, [r3, #12]
 218:System/scheduler/scheduler.c ****     Os_ResetTask_Data(NxtRunTsk_Ptr);
 1798              		.loc 1 218 5 is_stmt 1 view .LVU527
 1799 0058 094B     		ldr	r3, .L127+8
 1800 005a 1868     		ldr	r0, [r3]
 1801 005c FFF7FEFF 		bl	Os_ResetTask_Data
 1802              	.LVL74:
 219:System/scheduler/scheduler.c **** 
 1803              		.loc 1 219 5 view .LVU528
 1804 0060 084B     		ldr	r3, .L127+12
 1805 0062 1868     		ldr	r0, [r3]
 1806 0064 FFF7FEFF 		bl	Os_ResetTask_Data
 1807              	.LVL75:
 221:System/scheduler/scheduler.c **** 
 1808              		.loc 1 221 5 view .LVU529
 1809 0068 4046     		mov	r0, r8
 1810 006a FFF7FEFF 		bl	Runtime_Config
 1811              	.LVL76:
 223:System/scheduler/scheduler.c **** }
 1812              		.loc 1 223 5 view .LVU530
 223:System/scheduler/scheduler.c **** }
 1813              		.loc 1 223 21 is_stmt 0 view .LVU531
 1814 006e 064B     		ldr	r3, .L127+16
 1815 0070 0122     		movs	r2, #1
 1816 0072 1A70     		strb	r2, [r3]
 224:System/scheduler/scheduler.c **** 
 1817              		.loc 1 224 1 view .LVU532
 1818 0074 BDE8F081 		pop	{r4, r5, r6, r7, r8, pc}
 1819              	.LVL77:
 1820              	.L128:
 224:System/scheduler/scheduler.c **** 
 1821              		.loc 1 224 1 view .LVU533
 1822              		.align	2
 1823              	.L127:
 1824 0078 00000000 		.word	.LANCHOR4
 1825 007c 00000000 		.word	.LANCHOR12
 1826 0080 00000000 		.word	.LANCHOR8
 1827 0084 00000000 		.word	.LANCHOR11
 1828 0088 00000000 		.word	.LANCHOR5
 1829              		.cfi_endproc
 1830              	.LFE151:
 1832              		.section	.text.Os_State,"ax",%progbits
 1833              		.align	1
 1834              		.global	Os_State
 1835              		.syntax unified
 1836              		.thumb
 1837              		.thumb_func
 1839              	Os_State:
 1840              	.LFB152:
ARM GAS  C:\Users\HUAV\AppData\Local\Temp\ccLbKHgN.s 			page 53


 227:System/scheduler/scheduler.c ****     return scheduler_state;
 1841              		.loc 1 227 1 is_stmt 1 view -0
 1842              		.cfi_startproc
 1843              		@ args = 0, pretend = 0, frame = 0
 1844              		@ frame_needed = 0, uses_anonymous_args = 0
 1845              		@ link register save eliminated.
 228:System/scheduler/scheduler.c **** }
 1846              		.loc 1 228 5 view .LVU535
 228:System/scheduler/scheduler.c **** }
 1847              		.loc 1 228 12 is_stmt 0 view .LVU536
 1848 0000 014B     		ldr	r3, .L130
 1849 0002 1878     		ldrb	r0, [r3]	@ zero_extendqisi2
 229:System/scheduler/scheduler.c **** 
 1850              		.loc 1 229 1 view .LVU537
 1851 0004 7047     		bx	lr
 1852              	.L131:
 1853 0006 00BF     		.align	2
 1854              	.L130:
 1855 0008 00000000 		.word	.LANCHOR5
 1856              		.cfi_endproc
 1857              	.LFE152:
 1859              		.section	.text.Os_Start,"ax",%progbits
 1860              		.align	1
 1861              		.global	Os_Start
 1862              		.syntax unified
 1863              		.thumb
 1864              		.thumb_func
 1866              	Os_Start:
 1867              	.LFB153:
 232:System/scheduler/scheduler.c ****     NxtRunTsk_Ptr = Os_Get_HighestRank_RdyTask();
 1868              		.loc 1 232 1 is_stmt 1 view -0
 1869              		.cfi_startproc
 1870              		@ args = 0, pretend = 0, frame = 0
 1871              		@ frame_needed = 0, uses_anonymous_args = 0
 1872 0000 10B5     		push	{r4, lr}
 1873              	.LCFI29:
 1874              		.cfi_def_cfa_offset 8
 1875              		.cfi_offset 4, -8
 1876              		.cfi_offset 14, -4
 233:System/scheduler/scheduler.c **** 
 1877              		.loc 1 233 5 view .LVU539
 233:System/scheduler/scheduler.c **** 
 1878              		.loc 1 233 21 is_stmt 0 view .LVU540
 1879 0002 FFF7FEFF 		bl	Os_Get_HighestRank_RdyTask
 1880              	.LVL78:
 233:System/scheduler/scheduler.c **** 
 1881              		.loc 1 233 19 view .LVU541
 1882 0006 0E4B     		ldr	r3, .L135
 1883 0008 1860     		str	r0, [r3]
 235:System/scheduler/scheduler.c ****     {
 1884              		.loc 1 235 5 is_stmt 1 view .LVU542
 235:System/scheduler/scheduler.c ****     {
 1885              		.loc 1 235 8 is_stmt 0 view .LVU543
 1886 000a 50B1     		cbz	r0, .L133
 237:System/scheduler/scheduler.c ****         NxtTsk_TCB.Stack = NxtRunTsk_Ptr->TCB.Stack;
 1887              		.loc 1 237 9 is_stmt 1 view .LVU544
 237:System/scheduler/scheduler.c ****         NxtTsk_TCB.Stack = NxtRunTsk_Ptr->TCB.Stack;
ARM GAS  C:\Users\HUAV\AppData\Local\Temp\ccLbKHgN.s 			page 54


 1888              		.loc 1 237 34 is_stmt 0 view .LVU545
 1889 000c 00F14002 		add	r2, r0, #64
 237:System/scheduler/scheduler.c ****         NxtTsk_TCB.Stack = NxtRunTsk_Ptr->TCB.Stack;
 1890              		.loc 1 237 32 view .LVU546
 1891 0010 0C4B     		ldr	r3, .L135+4
 1892 0012 1A60     		str	r2, [r3]
 238:System/scheduler/scheduler.c **** 
 1893              		.loc 1 238 9 is_stmt 1 view .LVU547
 238:System/scheduler/scheduler.c **** 
 1894              		.loc 1 238 46 is_stmt 0 view .LVU548
 1895 0014 426C     		ldr	r2, [r0, #68]
 238:System/scheduler/scheduler.c **** 
 1896              		.loc 1 238 26 view .LVU549
 1897 0016 5A60     		str	r2, [r3, #4]
 240:System/scheduler/scheduler.c ****     }
 1898              		.loc 1 240 9 is_stmt 1 view .LVU550
 240:System/scheduler/scheduler.c ****     }
 1899              		.loc 1 240 20 is_stmt 0 view .LVU551
 1900 0018 0B4A     		ldr	r2, .L135+8
 1901 001a 93E80300 		ldm	r3, {r0, r1}
 1902 001e 82E80300 		stm	r2, {r0, r1}
 1903              	.L133:
 243:System/scheduler/scheduler.c **** 
 1904              		.loc 1 243 5 is_stmt 1 view .LVU552
 243:System/scheduler/scheduler.c **** 
 1905              		.loc 1 243 21 is_stmt 0 view .LVU553
 1906 0022 0224     		movs	r4, #2
 1907 0024 094B     		ldr	r3, .L135+12
 1908 0026 1C70     		strb	r4, [r3]
 246:System/scheduler/scheduler.c **** 
 1909              		.loc 1 246 5 is_stmt 1 view .LVU554
 1910 0028 FFF7FEFF 		bl	Os_CreateIdle
 1911              	.LVL79:
 249:System/scheduler/scheduler.c ****     Runtime_SetCallback(RtCallback_Type_Tick, Os_SchedulerRun);
 1912              		.loc 1 249 5 view .LVU555
 1913 002c FFF7FEFF 		bl	Kernel_EnablePendSV
 1914              	.LVL80:
 250:System/scheduler/scheduler.c **** 
 1915              		.loc 1 250 5 view .LVU556
 1916 0030 0749     		ldr	r1, .L135+16
 1917 0032 2046     		mov	r0, r4
 1918 0034 FFF7FEFF 		bl	Runtime_SetCallback
 1919              	.LVL81:
 253:System/scheduler/scheduler.c **** }
 1920              		.loc 1 253 5 view .LVU557
 1921 0038 FFF7FEFF 		bl	Kernel_LoadProcess
 1922              	.LVL82:
 254:System/scheduler/scheduler.c **** 
 1923              		.loc 1 254 1 is_stmt 0 view .LVU558
 1924 003c 10BD     		pop	{r4, pc}
 1925              	.L136:
 1926 003e 00BF     		.align	2
 1927              	.L135:
 1928 0040 00000000 		.word	.LANCHOR11
 1929 0044 00000000 		.word	.LANCHOR10
 1930 0048 00000000 		.word	.LANCHOR9
 1931 004c 00000000 		.word	.LANCHOR5
ARM GAS  C:\Users\HUAV\AppData\Local\Temp\ccLbKHgN.s 			page 55


 1932 0050 00000000 		.word	Os_SchedulerRun
 1933              		.cfi_endproc
 1934              	.LFE153:
 1936              		.section	.text.Os_CreateTask,"ax",%progbits
 1937              		.align	1
 1938              		.global	Os_CreateTask
 1939              		.syntax unified
 1940              		.thumb
 1941              		.thumb_func
 1943              	Os_CreateTask:
 1944              	.LVL83:
 1945              	.LFB156:
 296:System/scheduler/scheduler.c ****     Task_Handle handle;
 1946              		.loc 1 296 1 is_stmt 1 view -0
 1947              		.cfi_startproc
 1948              		@ args = 8, pretend = 0, frame = 0
 1949              		@ frame_needed = 0, uses_anonymous_args = 0
 296:System/scheduler/scheduler.c ****     Task_Handle handle;
 1950              		.loc 1 296 1 is_stmt 0 view .LVU560
 1951 0000 2DE9F843 		push	{r3, r4, r5, r6, r7, r8, r9, lr}
 1952              	.LCFI30:
 1953              		.cfi_def_cfa_offset 32
 1954              		.cfi_offset 3, -32
 1955              		.cfi_offset 4, -28
 1956              		.cfi_offset 5, -24
 1957              		.cfi_offset 6, -20
 1958              		.cfi_offset 7, -16
 1959              		.cfi_offset 8, -12
 1960              		.cfi_offset 9, -8
 1961              		.cfi_offset 14, -4
 1962 0004 1746     		mov	r7, r2
 1963 0006 1C46     		mov	r4, r3
 297:System/scheduler/scheduler.c ****     uint16_t task_name_len = strlen(name);
 1964              		.loc 1 297 5 is_stmt 1 view .LVU561
 298:System/scheduler/scheduler.c ****     uint32_t *Tsk_Ptr_tmp = NULL;
 1965              		.loc 1 298 5 view .LVU562
 299:System/scheduler/scheduler.c **** 
 1966              		.loc 1 299 5 view .LVU563
 1967              	.LVL84:
 302:System/scheduler/scheduler.c ****         return NULL;
 1968              		.loc 1 302 5 view .LVU564
 302:System/scheduler/scheduler.c ****         return NULL;
 1969              		.loc 1 302 27 is_stmt 0 view .LVU565
 1970 0008 03EBC202 		add	r2, r3, r2, lsl #3
 1971              	.LVL85:
 302:System/scheduler/scheduler.c ****         return NULL;
 1972              		.loc 1 302 27 view .LVU566
 1973 000c 564B     		ldr	r3, .L147
 1974              	.LVL86:
 302:System/scheduler/scheduler.c ****         return NULL;
 1975              		.loc 1 302 27 view .LVU567
 1976 000e 53F82230 		ldr	r3, [r3, r2, lsl #2]
 302:System/scheduler/scheduler.c ****         return NULL;
 1977              		.loc 1 302 8 view .LVU568
 1978 0012 23B1     		cbz	r3, .L146
 303:System/scheduler/scheduler.c **** 
 1979              		.loc 1 303 16 view .LVU569
ARM GAS  C:\Users\HUAV\AppData\Local\Temp\ccLbKHgN.s 			page 56


 1980 0014 4FF00008 		mov	r8, #0
 1981              	.LVL87:
 1982              	.L137:
 372:System/scheduler/scheduler.c **** 
 1983              		.loc 1 372 1 view .LVU570
 1984 0018 4046     		mov	r0, r8
 1985 001a BDE8F883 		pop	{r3, r4, r5, r6, r7, r8, r9, pc}
 1986              	.LVL88:
 1987              	.L146:
 372:System/scheduler/scheduler.c **** 
 1988              		.loc 1 372 1 view .LVU571
 1989 001e 0646     		mov	r6, r0
 1990 0020 0D46     		mov	r5, r1
 306:System/scheduler/scheduler.c **** 
 1991              		.loc 1 306 5 is_stmt 1 view .LVU572
 306:System/scheduler/scheduler.c **** 
 1992              		.loc 1 306 44 is_stmt 0 view .LVU573
 1993 0022 5020     		movs	r0, #80
 1994              	.LVL89:
 306:System/scheduler/scheduler.c **** 
 1995              		.loc 1 306 44 view .LVU574
 1996 0024 FFF7FEFF 		bl	MMU_Malloc
 1997              	.LVL90:
 306:System/scheduler/scheduler.c **** 
 1998              		.loc 1 306 34 view .LVU575
 1999 0028 04EBC703 		add	r3, r4, r7, lsl #3
 2000 002c 4E4A     		ldr	r2, .L147
 2001 002e 42F82300 		str	r0, [r2, r3, lsl #2]
 308:System/scheduler/scheduler.c ****         return NULL;
 2002              		.loc 1 308 5 is_stmt 1 view .LVU576
 308:System/scheduler/scheduler.c ****         return NULL;
 2003              		.loc 1 308 8 is_stmt 0 view .LVU577
 2004 0032 0028     		cmp	r0, #0
 2005 0034 00F08E80 		beq	.L142
 312:System/scheduler/scheduler.c **** 
 2006              		.loc 1 312 5 is_stmt 1 view .LVU578
 312:System/scheduler/scheduler.c **** 
 2007              		.loc 1 312 12 is_stmt 0 view .LVU579
 2008 0038 8046     		mov	r8, r0
 2009              	.LVL91:
 314:System/scheduler/scheduler.c **** 
 2010              		.loc 1 314 5 is_stmt 1 view .LVU580
 314:System/scheduler/scheduler.c **** 
 2011              		.loc 1 314 45 is_stmt 0 view .LVU581
 2012 003a 4660     		str	r6, [r0, #4]
 316:System/scheduler/scheduler.c ****     TaskPtr_Map[group][priority]->exec_interval_us = SCHEDULER_TIMEBASE / frq;
 2013              		.loc 1 316 5 is_stmt 1 view .LVU582
 316:System/scheduler/scheduler.c ****     TaskPtr_Map[group][priority]->exec_interval_us = SCHEDULER_TIMEBASE / frq;
 2014              		.loc 1 316 23 is_stmt 0 view .LVU583
 2015 003c 1646     		mov	r6, r2
 2016              	.LVL92:
 316:System/scheduler/scheduler.c ****     TaskPtr_Map[group][priority]->exec_interval_us = SCHEDULER_TIMEBASE / frq;
 2017              		.loc 1 316 23 view .LVU584
 2018 003e 9946     		mov	r9, r3
 2019 0040 52F82330 		ldr	r3, [r2, r3, lsl #2]
 316:System/scheduler/scheduler.c ****     TaskPtr_Map[group][priority]->exec_interval_us = SCHEDULER_TIMEBASE / frq;
 2020              		.loc 1 316 44 view .LVU585
ARM GAS  C:\Users\HUAV\AppData\Local\Temp\ccLbKHgN.s 			page 57


 2021 0044 9D60     		str	r5, [r3, #8]
 2022              	.LVL93:
 317:System/scheduler/scheduler.c ****     TaskPtr_Map[group][priority]->Exec_Func = func;
 2023              		.loc 1 317 5 is_stmt 1 view .LVU586
 317:System/scheduler/scheduler.c ****     TaskPtr_Map[group][priority]->Exec_Func = func;
 2024              		.loc 1 317 73 is_stmt 0 view .LVU587
 2025 0046 4949     		ldr	r1, .L147+4
 2026 0048 B1FBF5F5 		udiv	r5, r1, r5
 2027              	.LVL94:
 317:System/scheduler/scheduler.c ****     TaskPtr_Map[group][priority]->Exec_Func = func;
 2028              		.loc 1 317 23 view .LVU588
 2029 004c 52F82930 		ldr	r3, [r2, r9, lsl #2]
 2030              	.LVL95:
 317:System/scheduler/scheduler.c ****     TaskPtr_Map[group][priority]->Exec_Func = func;
 2031              		.loc 1 317 52 view .LVU589
 2032 0050 9D81     		strh	r5, [r3, #12]	@ movhi
 318:System/scheduler/scheduler.c **** 
 2033              		.loc 1 318 5 is_stmt 1 view .LVU590
 318:System/scheduler/scheduler.c **** 
 2034              		.loc 1 318 23 is_stmt 0 view .LVU591
 2035 0052 52F82930 		ldr	r3, [r2, r9, lsl #2]
 318:System/scheduler/scheduler.c **** 
 2036              		.loc 1 318 45 view .LVU592
 2037 0056 089A     		ldr	r2, [sp, #32]
 2038 0058 1A61     		str	r2, [r3, #16]
 320:System/scheduler/scheduler.c **** 
 2039              		.loc 1 320 5 is_stmt 1 view .LVU593
 320:System/scheduler/scheduler.c **** 
 2040              		.loc 1 320 23 is_stmt 0 view .LVU594
 2041 005a 56F82930 		ldr	r3, [r6, r9, lsl #2]
 320:System/scheduler/scheduler.c **** 
 2042              		.loc 1 320 59 view .LVU595
 2043 005e 44EAC702 		orr	r2, r4, r7, lsl #3
 320:System/scheduler/scheduler.c **** 
 2044              		.loc 1 320 44 view .LVU596
 2045 0062 5A70     		strb	r2, [r3, #1]
 323:System/scheduler/scheduler.c ****     TaskPtr_Map[group][priority]->TCB.Stack = (uint32_t *)MMU_Malloc(StackDepth * sizeof(uint32_t))
 2046              		.loc 1 323 5 is_stmt 1 view .LVU597
 323:System/scheduler/scheduler.c ****     TaskPtr_Map[group][priority]->TCB.Stack = (uint32_t *)MMU_Malloc(StackDepth * sizeof(uint32_t))
 2047              		.loc 1 323 23 is_stmt 0 view .LVU598
 2048 0064 56F82930 		ldr	r3, [r6, r9, lsl #2]
 323:System/scheduler/scheduler.c ****     TaskPtr_Map[group][priority]->TCB.Stack = (uint32_t *)MMU_Malloc(StackDepth * sizeof(uint32_t))
 2049              		.loc 1 323 47 view .LVU599
 2050 0068 099A     		ldr	r2, [sp, #36]
 2051 006a DA63     		str	r2, [r3, #60]
 324:System/scheduler/scheduler.c **** 
 2052              		.loc 1 324 5 is_stmt 1 view .LVU600
 324:System/scheduler/scheduler.c **** 
 2053              		.loc 1 324 23 is_stmt 0 view .LVU601
 2054 006c 56F82950 		ldr	r5, [r6, r9, lsl #2]
 324:System/scheduler/scheduler.c **** 
 2055              		.loc 1 324 59 view .LVU602
 2056 0070 9000     		lsls	r0, r2, #2
 2057              	.LVL96:
 324:System/scheduler/scheduler.c **** 
 2058              		.loc 1 324 59 view .LVU603
 2059 0072 80B2     		uxth	r0, r0
ARM GAS  C:\Users\HUAV\AppData\Local\Temp\ccLbKHgN.s 			page 58


 2060 0074 FFF7FEFF 		bl	MMU_Malloc
 2061              	.LVL97:
 324:System/scheduler/scheduler.c **** 
 2062              		.loc 1 324 45 view .LVU604
 2063 0078 6864     		str	r0, [r5, #68]
 326:System/scheduler/scheduler.c ****     {
 2064              		.loc 1 326 5 is_stmt 1 view .LVU605
 326:System/scheduler/scheduler.c ****     {
 2065              		.loc 1 326 27 is_stmt 0 view .LVU606
 2066 007a 56F82900 		ldr	r0, [r6, r9, lsl #2]
 326:System/scheduler/scheduler.c ****     {
 2067              		.loc 1 326 42 view .LVU607
 2068 007e 436C     		ldr	r3, [r0, #68]
 326:System/scheduler/scheduler.c ****     {
 2069              		.loc 1 326 8 view .LVU608
 2070 0080 002B     		cmp	r3, #0
 2071 0082 6AD0     		beq	.L143
 328:System/scheduler/scheduler.c ****     }
 2072              		.loc 1 328 9 is_stmt 1 view .LVU609
 2073 0084 FFF7FEFF 		bl	Os_Set_TaskStk
 2074              	.LVL98:
 334:System/scheduler/scheduler.c **** 
 2075              		.loc 1 334 5 view .LVU610
 334:System/scheduler/scheduler.c **** 
 2076              		.loc 1 334 23 is_stmt 0 view .LVU611
 2077 0088 3546     		mov	r5, r6
 2078 008a 4E46     		mov	r6, r9
 2079 008c 55F82930 		ldr	r3, [r5, r9, lsl #2]
 334:System/scheduler/scheduler.c **** 
 2080              		.loc 1 334 50 view .LVU612
 2081 0090 4FF00009 		mov	r9, #0
 2082 0094 C3F84890 		str	r9, [r3, #72]
 337:System/scheduler/scheduler.c ****     TaskPtr_Map[group][priority]->Exec_status.Running_Time = 0;
 2083              		.loc 1 337 5 is_stmt 1 view .LVU613
 337:System/scheduler/scheduler.c ****     TaskPtr_Map[group][priority]->Exec_status.Running_Time = 0;
 2084              		.loc 1 337 23 is_stmt 0 view .LVU614
 2085 0098 55F82630 		ldr	r3, [r5, r6, lsl #2]
 337:System/scheduler/scheduler.c ****     TaskPtr_Map[group][priority]->Exec_status.Running_Time = 0;
 2086              		.loc 1 337 55 view .LVU615
 2087 009c 0022     		movs	r2, #0
 2088 009e 9A63     		str	r2, [r3, #56]	@ float
 338:System/scheduler/scheduler.c **** 
 2089              		.loc 1 338 5 is_stmt 1 view .LVU616
 338:System/scheduler/scheduler.c **** 
 2090              		.loc 1 338 23 is_stmt 0 view .LVU617
 2091 00a0 55F82630 		ldr	r3, [r5, r6, lsl #2]
 338:System/scheduler/scheduler.c **** 
 2092              		.loc 1 338 60 view .LVU618
 2093 00a4 C3F83090 		str	r9, [r3, #48]
 2094 00a8 C3F83490 		str	r9, [r3, #52]
 341:System/scheduler/scheduler.c ****     // set current task under this group flag to ready
 2095              		.loc 1 341 5 is_stmt 1 view .LVU619
 341:System/scheduler/scheduler.c ****     // set current task under this group flag to ready
 2096              		.loc 1 341 27 is_stmt 0 view .LVU620
 2097 00ac 304B     		ldr	r3, .L147+8
 2098 00ae 1978     		ldrb	r1, [r3]	@ zero_extendqisi2
 341:System/scheduler/scheduler.c ****     // set current task under this group flag to ready
ARM GAS  C:\Users\HUAV\AppData\Local\Temp\ccLbKHgN.s 			page 59


 2099              		.loc 1 341 35 view .LVU621
 2100 00b0 55F82600 		ldr	r0, [r5, r6, lsl #2]
 2101 00b4 90F801C0 		ldrb	ip, [r0, #1]	@ zero_extendqisi2
 341:System/scheduler/scheduler.c ****     // set current task under this group flag to ready
 2102              		.loc 1 341 32 view .LVU622
 2103 00b8 0122     		movs	r2, #1
 2104 00ba 02FA0CF2 		lsl	r2, r2, ip
 341:System/scheduler/scheduler.c ****     // set current task under this group flag to ready
 2105              		.loc 1 341 27 view .LVU623
 2106 00be 41EAE201 		orr	r1, r1, r2, asr #3
 2107 00c2 C9B2     		uxtb	r1, r1
 2108 00c4 1970     		strb	r1, [r3]
 343:System/scheduler/scheduler.c **** 
 2109              		.loc 1 343 5 is_stmt 1 view .LVU624
 343:System/scheduler/scheduler.c **** 
 2110              		.loc 1 343 96 is_stmt 0 view .LVU625
 2111 00c6 03EBDC03 		add	r3, r3, ip, lsr #3
 2112 00ca 5978     		ldrb	r1, [r3, #1]	@ zero_extendqisi2
 343:System/scheduler/scheduler.c **** 
 2113              		.loc 1 343 104 view .LVU626
 2114 00cc 02F00702 		and	r2, r2, #7
 343:System/scheduler/scheduler.c **** 
 2115              		.loc 1 343 96 view .LVU627
 2116 00d0 0A43     		orrs	r2, r2, r1
 2117 00d2 5A70     		strb	r2, [r3, #1]
 345:System/scheduler/scheduler.c **** 
 2118              		.loc 1 345 5 is_stmt 1 view .LVU628
 345:System/scheduler/scheduler.c **** 
 2119              		.loc 1 345 63 is_stmt 0 view .LVU629
 2120 00d4 C0F82490 		str	r9, [r0, #36]
 347:System/scheduler/scheduler.c ****     RuntimeObj_Reset(&(TaskPtr_Map[group][priority]->Exec_status.Start_Time));
 2121              		.loc 1 347 5 is_stmt 1 view .LVU630
 347:System/scheduler/scheduler.c ****     RuntimeObj_Reset(&(TaskPtr_Map[group][priority]->Exec_status.Start_Time));
 2122              		.loc 1 347 42 is_stmt 0 view .LVU631
 2123 00d8 55F82600 		ldr	r0, [r5, r6, lsl #2]
 347:System/scheduler/scheduler.c ****     RuntimeObj_Reset(&(TaskPtr_Map[group][priority]->Exec_status.Start_Time));
 2124              		.loc 1 347 5 view .LVU632
 2125 00dc 1430     		adds	r0, r0, #20
 2126 00de FFF7FEFF 		bl	RuntimeObj_Reset
 2127              	.LVL99:
 348:System/scheduler/scheduler.c **** 
 2128              		.loc 1 348 5 is_stmt 1 view .LVU633
 348:System/scheduler/scheduler.c **** 
 2129              		.loc 1 348 42 is_stmt 0 view .LVU634
 2130 00e2 55F82600 		ldr	r0, [r5, r6, lsl #2]
 348:System/scheduler/scheduler.c **** 
 2131              		.loc 1 348 5 view .LVU635
 2132 00e6 1C30     		adds	r0, r0, #28
 2133 00e8 FFF7FEFF 		bl	RuntimeObj_Reset
 2134              	.LVL100:
 350:System/scheduler/scheduler.c ****     TaskPtr_Map[group][priority]->Exec_status.error_code = NOERROR;
 2135              		.loc 1 350 5 is_stmt 1 view .LVU636
 350:System/scheduler/scheduler.c ****     TaskPtr_Map[group][priority]->Exec_status.error_code = NOERROR;
 2136              		.loc 1 350 23 is_stmt 0 view .LVU637
 2137 00ec 55F82630 		ldr	r3, [r5, r6, lsl #2]
 350:System/scheduler/scheduler.c ****     TaskPtr_Map[group][priority]->Exec_status.error_code = NOERROR;
 2138              		.loc 1 350 56 view .LVU638
ARM GAS  C:\Users\HUAV\AppData\Local\Temp\ccLbKHgN.s 			page 60


 2139 00f0 C3F82890 		str	r9, [r3, #40]
 351:System/scheduler/scheduler.c **** 
 2140              		.loc 1 351 5 is_stmt 1 view .LVU639
 351:System/scheduler/scheduler.c **** 
 2141              		.loc 1 351 23 is_stmt 0 view .LVU640
 2142 00f4 55F82630 		ldr	r3, [r5, r6, lsl #2]
 351:System/scheduler/scheduler.c **** 
 2143              		.loc 1 351 58 view .LVU641
 2144 00f8 83F82C90 		strb	r9, [r3, #44]
 353:System/scheduler/scheduler.c **** 
 2145              		.loc 1 353 5 is_stmt 1 view .LVU642
 2146 00fc 55F82600 		ldr	r0, [r5, r6, lsl #2]
 2147 0100 FFF7FEFF 		bl	Os_Set_TaskReady
 2148              	.LVL101:
 355:System/scheduler/scheduler.c ****     if (TaskPtr_Map[group][priority]->item_ptr == NULL)
 2149              		.loc 1 355 5 view .LVU643
 355:System/scheduler/scheduler.c ****     if (TaskPtr_Map[group][priority]->item_ptr == NULL)
 2150              		.loc 1 355 23 is_stmt 0 view .LVU644
 2151 0104 55F82690 		ldr	r9, [r5, r6, lsl #2]
 355:System/scheduler/scheduler.c ****     if (TaskPtr_Map[group][priority]->item_ptr == NULL)
 2152              		.loc 1 355 58 view .LVU645
 2153 0108 1420     		movs	r0, #20
 2154 010a FFF7FEFF 		bl	MMU_Malloc
 2155              	.LVL102:
 355:System/scheduler/scheduler.c ****     if (TaskPtr_Map[group][priority]->item_ptr == NULL)
 2156              		.loc 1 355 44 view .LVU646
 2157 010e C9F84C00 		str	r0, [r9, #76]
 356:System/scheduler/scheduler.c ****         return NULL;
 2158              		.loc 1 356 5 is_stmt 1 view .LVU647
 356:System/scheduler/scheduler.c ****         return NULL;
 2159              		.loc 1 356 27 is_stmt 0 view .LVU648
 2160 0112 55F82610 		ldr	r1, [r5, r6, lsl #2]
 356:System/scheduler/scheduler.c ****         return NULL;
 2161              		.loc 1 356 37 view .LVU649
 2162 0116 C86C     		ldr	r0, [r1, #76]
 356:System/scheduler/scheduler.c ****         return NULL;
 2163              		.loc 1 356 8 view .LVU650
 2164 0118 10B3     		cbz	r0, .L144
 359:System/scheduler/scheduler.c ****     if (TskCrt_RegList.num == 0)
 2165              		.loc 1 359 5 is_stmt 1 view .LVU651
 2166 011a FFF7FEFF 		bl	List_ItemInit
 2167              	.LVL103:
 360:System/scheduler/scheduler.c ****     {
 2168              		.loc 1 360 5 view .LVU652
 360:System/scheduler/scheduler.c ****     {
 2169              		.loc 1 360 23 is_stmt 0 view .LVU653
 2170 011e 154B     		ldr	r3, .L147+12
 2171 0120 1B78     		ldrb	r3, [r3]	@ zero_extendqisi2
 360:System/scheduler/scheduler.c ****     {
 2172              		.loc 1 360 8 view .LVU654
 2173 0122 6BB9     		cbnz	r3, .L139
 362:System/scheduler/scheduler.c ****     }
 2174              		.loc 1 362 9 is_stmt 1 view .LVU655
 362:System/scheduler/scheduler.c ****     }
 2175              		.loc 1 362 59 is_stmt 0 view .LVU656
 2176 0124 55F82610 		ldr	r1, [r5, r6, lsl #2]
 362:System/scheduler/scheduler.c ****     }
ARM GAS  C:\Users\HUAV\AppData\Local\Temp\ccLbKHgN.s 			page 61


 2177              		.loc 1 362 9 view .LVU657
 2178 0128 134B     		ldr	r3, .L147+16
 2179 012a 0222     		movs	r2, #2
 2180 012c C96C     		ldr	r1, [r1, #76]
 2181 012e 1348     		ldr	r0, .L147+20
 2182 0130 FFF7FEFF 		bl	List_Init
 2183              	.LVL104:
 2184              	.L140:
 369:System/scheduler/scheduler.c **** 
 2185              		.loc 1 369 5 is_stmt 1 view .LVU658
 369:System/scheduler/scheduler.c **** 
 2186              		.loc 1 369 19 is_stmt 0 view .LVU659
 2187 0134 0F4A     		ldr	r2, .L147+12
 2188 0136 1378     		ldrb	r3, [r2]	@ zero_extendqisi2
 369:System/scheduler/scheduler.c **** 
 2189              		.loc 1 369 23 view .LVU660
 2190 0138 0133     		adds	r3, r3, #1
 2191 013a DBB2     		uxtb	r3, r3
 2192 013c 1370     		strb	r3, [r2]
 371:System/scheduler/scheduler.c **** }
 2193              		.loc 1 371 5 is_stmt 1 view .LVU661
 371:System/scheduler/scheduler.c **** }
 2194              		.loc 1 371 12 is_stmt 0 view .LVU662
 2195 013e 6BE7     		b	.L137
 2196              	.L139:
 366:System/scheduler/scheduler.c ****     }
 2197              		.loc 1 366 9 is_stmt 1 view .LVU663
 366:System/scheduler/scheduler.c ****     }
 2198              		.loc 1 366 66 is_stmt 0 view .LVU664
 2199 0140 04EBC704 		add	r4, r4, r7, lsl #3
 2200 0144 084B     		ldr	r3, .L147
 2201 0146 53F82430 		ldr	r3, [r3, r4, lsl #2]
 366:System/scheduler/scheduler.c ****     }
 2202              		.loc 1 366 9 view .LVU665
 2203 014a D96C     		ldr	r1, [r3, #76]
 2204 014c 0B48     		ldr	r0, .L147+20
 2205 014e FFF7FEFF 		bl	List_Insert_Item
 2206              	.LVL105:
 2207 0152 EFE7     		b	.L140
 2208              	.LVL106:
 2209              	.L142:
 309:System/scheduler/scheduler.c **** 
 2210              		.loc 1 309 16 view .LVU666
 2211 0154 4FF00008 		mov	r8, #0
 2212 0158 5EE7     		b	.L137
 2213              	.LVL107:
 2214              	.L143:
 331:System/scheduler/scheduler.c **** 
 2215              		.loc 1 331 16 view .LVU667
 2216 015a 4FF00008 		mov	r8, #0
 2217              	.LVL108:
 331:System/scheduler/scheduler.c **** 
 2218              		.loc 1 331 16 view .LVU668
 2219 015e 5BE7     		b	.L137
 2220              	.LVL109:
 2221              	.L144:
 357:System/scheduler/scheduler.c **** 
ARM GAS  C:\Users\HUAV\AppData\Local\Temp\ccLbKHgN.s 			page 62


 2222              		.loc 1 357 16 view .LVU669
 2223 0160 4FF00008 		mov	r8, #0
 2224              	.LVL110:
 357:System/scheduler/scheduler.c **** 
 2225              		.loc 1 357 16 view .LVU670
 2226 0164 58E7     		b	.L137
 2227              	.L148:
 2228 0166 00BF     		.align	2
 2229              	.L147:
 2230 0168 00000000 		.word	.LANCHOR4
 2231 016c 40420F00 		.word	1000000
 2232 0170 00000000 		.word	.LANCHOR0
 2233 0174 00000000 		.word	.LANCHOR12
 2234 0178 00000000 		.word	Os_TaskPri_Compare
 2235 017c 04000000 		.word	.LANCHOR12+4
 2236              		.cfi_endproc
 2237              	.LFE156:
 2239              		.section	.text.Os_Set_TaskPending,"ax",%progbits
 2240              		.align	1
 2241              		.global	Os_Set_TaskPending
 2242              		.syntax unified
 2243              		.thumb
 2244              		.thumb_func
 2246              	Os_Set_TaskPending:
 2247              	.LVL111:
 2248              	.LFB159:
 406:System/scheduler/scheduler.c ****     uint8_t grp_id = GET_TASKGROUP_PRIORITY(tsk->priority);
 2249              		.loc 1 406 1 is_stmt 1 view -0
 2250              		.cfi_startproc
 2251              		@ args = 0, pretend = 0, frame = 0
 2252              		@ frame_needed = 0, uses_anonymous_args = 0
 406:System/scheduler/scheduler.c ****     uint8_t grp_id = GET_TASKGROUP_PRIORITY(tsk->priority);
 2253              		.loc 1 406 1 is_stmt 0 view .LVU672
 2254 0000 10B5     		push	{r4, lr}
 2255              	.LCFI31:
 2256              		.cfi_def_cfa_offset 8
 2257              		.cfi_offset 4, -8
 2258              		.cfi_offset 14, -4
 407:System/scheduler/scheduler.c ****     uint8_t tsk_id = GET_TASKINGROUP_PRIORITY(tsk->priority);
 2259              		.loc 1 407 5 is_stmt 1 view .LVU673
 407:System/scheduler/scheduler.c ****     uint8_t tsk_id = GET_TASKINGROUP_PRIORITY(tsk->priority);
 2260              		.loc 1 407 22 is_stmt 0 view .LVU674
 2261 0002 90F801C0 		ldrb	ip, [r0, #1]	@ zero_extendqisi2
 407:System/scheduler/scheduler.c ****     uint8_t tsk_id = GET_TASKINGROUP_PRIORITY(tsk->priority);
 2262              		.loc 1 407 13 view .LVU675
 2263 0006 4FEADC02 		lsr	r2, ip, #3
 2264              	.LVL112:
 408:System/scheduler/scheduler.c **** 
 2265              		.loc 1 408 5 is_stmt 1 view .LVU676
 408:System/scheduler/scheduler.c **** 
 2266              		.loc 1 408 13 is_stmt 0 view .LVU677
 2267 000a 0CF0070E 		and	lr, ip, #7
 2268              	.LVL113:
 411:System/scheduler/scheduler.c ****     // set current task under this group flag to ready
 2269              		.loc 1 411 5 is_stmt 1 view .LVU678
 411:System/scheduler/scheduler.c ****     // set current task under this group flag to ready
 2270              		.loc 1 411 27 is_stmt 0 view .LVU679
ARM GAS  C:\Users\HUAV\AppData\Local\Temp\ccLbKHgN.s 			page 63


 2271 000e 0A4B     		ldr	r3, .L151
 2272 0010 1978     		ldrb	r1, [r3]	@ zero_extendqisi2
 411:System/scheduler/scheduler.c ****     // set current task under this group flag to ready
 2273              		.loc 1 411 32 view .LVU680
 2274 0012 4FF0010C 		mov	ip, #1
 2275 0016 0CFA02F4 		lsl	r4, ip, r2
 411:System/scheduler/scheduler.c ****     // set current task under this group flag to ready
 2276              		.loc 1 411 27 view .LVU681
 2277 001a 2143     		orrs	r1, r1, r4
 2278 001c C9B2     		uxtb	r1, r1
 2279 001e 1970     		strb	r1, [r3]
 413:System/scheduler/scheduler.c **** 
 2280              		.loc 1 413 5 is_stmt 1 view .LVU682
 413:System/scheduler/scheduler.c **** 
 2281              		.loc 1 413 40 is_stmt 0 view .LVU683
 2282 0020 1344     		add	r3, r3, r2
 2283 0022 5A78     		ldrb	r2, [r3, #1]	@ zero_extendqisi2
 2284              	.LVL114:
 413:System/scheduler/scheduler.c **** 
 2285              		.loc 1 413 45 view .LVU684
 2286 0024 0CFA0EFC 		lsl	ip, ip, lr
 413:System/scheduler/scheduler.c **** 
 2287              		.loc 1 413 40 view .LVU685
 2288 0028 42EA0C02 		orr	r2, r2, ip
 2289 002c D2B2     		uxtb	r2, r2
 2290 002e 5A70     		strb	r2, [r3, #1]
 2291              	.LVL115:
 416:System/scheduler/scheduler.c **** }
 2292              		.loc 1 416 5 is_stmt 1 view .LVU686
 416:System/scheduler/scheduler.c **** }
 2293              		.loc 1 416 16 is_stmt 0 view .LVU687
 2294 0030 0623     		movs	r3, #6
 2295 0032 0370     		strb	r3, [r0]
 417:System/scheduler/scheduler.c **** 
 2296              		.loc 1 417 1 view .LVU688
 2297 0034 10BD     		pop	{r4, pc}
 2298              	.L152:
 2299 0036 00BF     		.align	2
 2300              	.L151:
 2301 0038 00000000 		.word	.LANCHOR2
 2302              		.cfi_endproc
 2303              	.LFE159:
 2305              		.section	.text.Os_SchedulerRun,"ax",%progbits
 2306              		.align	1
 2307              		.syntax unified
 2308              		.thumb
 2309              		.thumb_func
 2311              	Os_SchedulerRun:
 2312              	.LVL116:
 2313              	.LFB164:
 470:System/scheduler/scheduler.c ****     SYSTEM_RunTime CurRt_US = Rt;
 2314              		.loc 1 470 1 is_stmt 1 view -0
 2315              		.cfi_startproc
 2316              		@ args = 0, pretend = 0, frame = 8
 2317              		@ frame_needed = 0, uses_anonymous_args = 0
 470:System/scheduler/scheduler.c ****     SYSTEM_RunTime CurRt_US = Rt;
 2318              		.loc 1 470 1 is_stmt 0 view .LVU690
ARM GAS  C:\Users\HUAV\AppData\Local\Temp\ccLbKHgN.s 			page 64


 2319 0000 30B5     		push	{r4, r5, lr}
 2320              	.LCFI32:
 2321              		.cfi_def_cfa_offset 12
 2322              		.cfi_offset 4, -12
 2323              		.cfi_offset 5, -8
 2324              		.cfi_offset 14, -4
 2325 0002 83B0     		sub	sp, sp, #12
 2326              	.LCFI33:
 2327              		.cfi_def_cfa_offset 24
 471:System/scheduler/scheduler.c ****     Task *TskPtr_Tmp = NULL;
 2328              		.loc 1 471 5 is_stmt 1 view .LVU691
 471:System/scheduler/scheduler.c ****     Task *TskPtr_Tmp = NULL;
 2329              		.loc 1 471 20 is_stmt 0 view .LVU692
 2330 0004 CDE90001 		strd	r0, [sp]
 472:System/scheduler/scheduler.c **** 
 2331              		.loc 1 472 5 is_stmt 1 view .LVU693
 2332              	.LVL117:
 474:System/scheduler/scheduler.c ****     {
 2333              		.loc 1 474 5 view .LVU694
 474:System/scheduler/scheduler.c ****     {
 2334              		.loc 1 474 23 is_stmt 0 view .LVU695
 2335 0008 2E4B     		ldr	r3, .L167
 2336 000a 1B78     		ldrb	r3, [r3]	@ zero_extendqisi2
 474:System/scheduler/scheduler.c ****     {
 2337              		.loc 1 474 8 view .LVU696
 2338 000c 33BB     		cbnz	r3, .L162
 2339              	.LVL118:
 2340              	.L154:
 480:System/scheduler/scheduler.c **** 
 2341              		.loc 1 480 5 is_stmt 1 view .LVU697
 480:System/scheduler/scheduler.c **** 
 2342              		.loc 1 480 56 is_stmt 0 view .LVU698
 2343 000e FFF7FEFF 		bl	Os_Get_HighestRank_RdyTask
 2344              	.LVL119:
 2345 0012 0446     		mov	r4, r0
 480:System/scheduler/scheduler.c **** 
 2346              		.loc 1 480 86 view .LVU699
 2347 0014 FFF7FEFF 		bl	Os_Get_HighestRank_PndTask
 2348              	.LVL120:
 2349 0018 0146     		mov	r1, r0
 480:System/scheduler/scheduler.c **** 
 2350              		.loc 1 480 37 view .LVU700
 2351 001a 2046     		mov	r0, r4
 2352 001c FFF7FEFF 		bl	Os_TaskPri_Compare
 2353              	.LVL121:
 480:System/scheduler/scheduler.c **** 
 2354              		.loc 1 480 18 view .LVU701
 2355 0020 294D     		ldr	r5, .L167+4
 2356 0022 2968     		ldr	r1, [r5]
 2357 0024 FFF7FEFF 		bl	Os_TaskPri_Compare
 2358              	.LVL122:
 2359 0028 0446     		mov	r4, r0
 2360              	.LVL123:
 482:System/scheduler/scheduler.c ****     {
 2361              		.loc 1 482 5 is_stmt 1 view .LVU702
 482:System/scheduler/scheduler.c ****     {
 2362              		.loc 1 482 20 is_stmt 0 view .LVU703
ARM GAS  C:\Users\HUAV\AppData\Local\Temp\ccLbKHgN.s 			page 65


 2363 002a 2B68     		ldr	r3, [r5]
 482:System/scheduler/scheduler.c ****     {
 2364              		.loc 1 482 8 view .LVU704
 2365 002c 8342     		cmp	r3, r0
 2366 002e 30D0     		beq	.L155
 484:System/scheduler/scheduler.c ****         {
 2367              		.loc 1 484 9 is_stmt 1 view .LVU705
 484:System/scheduler/scheduler.c ****         {
 2368              		.loc 1 484 12 is_stmt 0 view .LVU706
 2369 0030 90B1     		cbz	r0, .L153
 486:System/scheduler/scheduler.c ****             {
 2370              		.loc 1 486 13 is_stmt 1 view .LVU707
 486:System/scheduler/scheduler.c ****             {
 2371              		.loc 1 486 27 is_stmt 0 view .LVU708
 2372 0032 0378     		ldrb	r3, [r0]	@ zero_extendqisi2
 486:System/scheduler/scheduler.c ****             {
 2373              		.loc 1 486 16 view .LVU709
 2374 0034 062B     		cmp	r3, #6
 2375 0036 18D0     		beq	.L163
 2376              	.LVL124:
 2377              	.L157:
 494:System/scheduler/scheduler.c ****             {
 2378              		.loc 1 494 13 is_stmt 1 view .LVU710
 494:System/scheduler/scheduler.c ****             {
 2379              		.loc 1 494 32 is_stmt 0 view .LVU711
 2380 0038 234B     		ldr	r3, .L167+4
 2381 003a 1868     		ldr	r0, [r3]
 494:System/scheduler/scheduler.c ****             {
 2382              		.loc 1 494 16 view .LVU712
 2383 003c 38B1     		cbz	r0, .L158
 494:System/scheduler/scheduler.c ****             {
 2384              		.loc 1 494 59 discriminator 1 view .LVU713
 2385 003e 234B     		ldr	r3, .L167+8
 2386 0040 1B68     		ldr	r3, [r3]
 494:System/scheduler/scheduler.c ****             {
 2387              		.loc 1 494 41 discriminator 1 view .LVU714
 2388 0042 9842     		cmp	r0, r3
 2389 0044 03D0     		beq	.L158
 494:System/scheduler/scheduler.c ****             {
 2390              		.loc 1 494 90 discriminator 2 view .LVU715
 2391 0046 0378     		ldrb	r3, [r0]	@ zero_extendqisi2
 2392 0048 DBB2     		uxtb	r3, r3
 494:System/scheduler/scheduler.c ****             {
 2393              		.loc 1 494 73 discriminator 2 view .LVU716
 2394 004a 022B     		cmp	r3, #2
 2395 004c 13D0     		beq	.L164
 2396              	.L158:
 500:System/scheduler/scheduler.c ****             {
 2397              		.loc 1 500 13 is_stmt 1 view .LVU717
 500:System/scheduler/scheduler.c ****             {
 2398              		.loc 1 500 28 is_stmt 0 view .LVU718
 2399 004e 2378     		ldrb	r3, [r4]	@ zero_extendqisi2
 500:System/scheduler/scheduler.c ****             {
 2400              		.loc 1 500 56 view .LVU719
 2401 0050 043B     		subs	r3, r3, #4
 2402 0052 DBB2     		uxtb	r3, r3
 500:System/scheduler/scheduler.c ****             {
ARM GAS  C:\Users\HUAV\AppData\Local\Temp\ccLbKHgN.s 			page 66


 2403              		.loc 1 500 16 view .LVU720
 2404 0054 012B     		cmp	r3, #1
 2405 0056 11D8     		bhi	.L165
 2406              	.L153:
 530:System/scheduler/scheduler.c **** 
 2407              		.loc 1 530 1 view .LVU721
 2408 0058 03B0     		add	sp, sp, #12
 2409              	.LCFI34:
 2410              		.cfi_remember_state
 2411              		.cfi_def_cfa_offset 12
 2412              		@ sp needed
 2413 005a 30BD     		pop	{r4, r5, pc}
 2414              	.LVL125:
 2415              	.L162:
 2416              	.LCFI35:
 2417              		.cfi_restore_state
 477:System/scheduler/scheduler.c ****     }
 2418              		.loc 1 477 9 is_stmt 1 view .LVU722
 2419 005c 0023     		movs	r3, #0
 2420 005e 6A46     		mov	r2, sp
 2421 0060 1B49     		ldr	r1, .L167+12
 2422 0062 1C48     		ldr	r0, .L167+16
 2423              	.LVL126:
 477:System/scheduler/scheduler.c ****     }
 2424              		.loc 1 477 9 is_stmt 0 view .LVU723
 2425 0064 FFF7FEFF 		bl	List_traverse
 2426              	.LVL127:
 477:System/scheduler/scheduler.c ****     }
 2427              		.loc 1 477 9 view .LVU724
 2428 0068 D1E7     		b	.L154
 2429              	.LVL128:
 2430              	.L163:
 490:System/scheduler/scheduler.c ****                 Os_Set_TaskReady(TskPtr_Tmp);
 2431              		.loc 1 490 17 is_stmt 1 view .LVU725
 2432 006a FFF7FEFF 		bl	Os_Clr_TaskPending
 2433              	.LVL129:
 491:System/scheduler/scheduler.c ****             }
 2434              		.loc 1 491 17 view .LVU726
 2435 006e 2046     		mov	r0, r4
 2436 0070 FFF7FEFF 		bl	Os_Set_TaskReady
 2437              	.LVL130:
 2438 0074 E0E7     		b	.L157
 2439              	.L164:
 497:System/scheduler/scheduler.c ****             }
 2440              		.loc 1 497 17 view .LVU727
 2441 0076 FFF7FEFF 		bl	Os_Set_TaskPending
 2442              	.LVL131:
 2443 007a E8E7     		b	.L158
 2444              	.L165:
 502:System/scheduler/scheduler.c **** 
 2445              		.loc 1 502 17 view .LVU728
 502:System/scheduler/scheduler.c **** 
 2446              		.loc 1 502 31 is_stmt 0 view .LVU729
 2447 007c 164B     		ldr	r3, .L167+20
 2448 007e 1C60     		str	r4, [r3]
 504:System/scheduler/scheduler.c ****                 NxtTsk_TCB.Stack = NxtRunTsk_Ptr->TCB.Stack;
 2449              		.loc 1 504 17 is_stmt 1 view .LVU730
ARM GAS  C:\Users\HUAV\AppData\Local\Temp\ccLbKHgN.s 			page 67


 504:System/scheduler/scheduler.c ****                 NxtTsk_TCB.Stack = NxtRunTsk_Ptr->TCB.Stack;
 2450              		.loc 1 504 42 is_stmt 0 view .LVU731
 2451 0080 04F14002 		add	r2, r4, #64
 504:System/scheduler/scheduler.c ****                 NxtTsk_TCB.Stack = NxtRunTsk_Ptr->TCB.Stack;
 2452              		.loc 1 504 40 view .LVU732
 2453 0084 154B     		ldr	r3, .L167+24
 2454 0086 1A60     		str	r2, [r3]
 505:System/scheduler/scheduler.c **** 
 2455              		.loc 1 505 17 is_stmt 1 view .LVU733
 505:System/scheduler/scheduler.c **** 
 2456              		.loc 1 505 54 is_stmt 0 view .LVU734
 2457 0088 626C     		ldr	r2, [r4, #68]
 505:System/scheduler/scheduler.c **** 
 2458              		.loc 1 505 34 view .LVU735
 2459 008a 5A60     		str	r2, [r3, #4]
 508:System/scheduler/scheduler.c ****             }
 2460              		.loc 1 508 17 is_stmt 1 view .LVU736
 2461 008c FFF7FEFF 		bl	Kernel_TriggerPendSV
 2462              	.LVL132:
 2463 0090 E2E7     		b	.L153
 2464              	.LVL133:
 2465              	.L155:
 514:System/scheduler/scheduler.c ****              (CurRunTsk_Ptr == NULL)) ||
 2466              		.loc 1 514 9 view .LVU737
 514:System/scheduler/scheduler.c ****              (CurRunTsk_Ptr == NULL)) ||
 2467              		.loc 1 514 12 is_stmt 0 view .LVU738
 2468 0092 98B1     		cbz	r0, .L166
 2469              	.L159:
 516:System/scheduler/scheduler.c ****             (TskPtr_Tmp->State == Task_SignalBlock))
 2470              		.loc 1 516 24 view .LVU739
 2471 0094 2378     		ldrb	r3, [r4]	@ zero_extendqisi2
 515:System/scheduler/scheduler.c ****             (TskPtr_Tmp->State == Task_DelayBlock) ||
 2472              		.loc 1 515 39 view .LVU740
 2473 0096 052B     		cmp	r3, #5
 2474 0098 01D0     		beq	.L160
 516:System/scheduler/scheduler.c ****             (TskPtr_Tmp->State == Task_SignalBlock))
 2475              		.loc 1 516 52 view .LVU741
 2476 009a 042B     		cmp	r3, #4
 2477 009c DCD1     		bne	.L153
 2478              	.L160:
 519:System/scheduler/scheduler.c **** 
 2479              		.loc 1 519 13 is_stmt 1 view .LVU742
 519:System/scheduler/scheduler.c **** 
 2480              		.loc 1 519 22 is_stmt 0 view .LVU743
 2481 009e 0B4B     		ldr	r3, .L167+8
 2482 00a0 1B68     		ldr	r3, [r3]
 519:System/scheduler/scheduler.c **** 
 2483              		.loc 1 519 30 view .LVU744
 2484 00a2 0122     		movs	r2, #1
 2485 00a4 1A70     		strb	r2, [r3]
 521:System/scheduler/scheduler.c **** 
 2486              		.loc 1 521 13 is_stmt 1 view .LVU745
 521:System/scheduler/scheduler.c **** 
 2487              		.loc 1 521 27 is_stmt 0 view .LVU746
 2488 00a6 0C4A     		ldr	r2, .L167+20
 2489 00a8 1360     		str	r3, [r2]
 523:System/scheduler/scheduler.c ****             NxtTsk_TCB.Stack = Idle_Task->TCB.Stack;
ARM GAS  C:\Users\HUAV\AppData\Local\Temp\ccLbKHgN.s 			page 68


 2490              		.loc 1 523 13 is_stmt 1 view .LVU747
 523:System/scheduler/scheduler.c ****             NxtTsk_TCB.Stack = Idle_Task->TCB.Stack;
 2491              		.loc 1 523 38 is_stmt 0 view .LVU748
 2492 00aa 03F14001 		add	r1, r3, #64
 523:System/scheduler/scheduler.c ****             NxtTsk_TCB.Stack = Idle_Task->TCB.Stack;
 2493              		.loc 1 523 36 view .LVU749
 2494 00ae 0B4A     		ldr	r2, .L167+24
 2495 00b0 1160     		str	r1, [r2]
 524:System/scheduler/scheduler.c **** 
 2496              		.loc 1 524 13 is_stmt 1 view .LVU750
 524:System/scheduler/scheduler.c **** 
 2497              		.loc 1 524 46 is_stmt 0 view .LVU751
 2498 00b2 5B6C     		ldr	r3, [r3, #68]
 524:System/scheduler/scheduler.c **** 
 2499              		.loc 1 524 30 view .LVU752
 2500 00b4 5360     		str	r3, [r2, #4]
 527:System/scheduler/scheduler.c ****         }
 2501              		.loc 1 527 13 is_stmt 1 view .LVU753
 2502 00b6 FFF7FEFF 		bl	Kernel_TriggerPendSV
 2503              	.LVL134:
 530:System/scheduler/scheduler.c **** 
 2504              		.loc 1 530 1 is_stmt 0 view .LVU754
 2505 00ba CDE7     		b	.L153
 2506              	.LVL135:
 2507              	.L166:
 514:System/scheduler/scheduler.c ****              (CurRunTsk_Ptr == NULL)) ||
 2508              		.loc 1 514 35 discriminator 1 view .LVU755
 2509 00bc 002B     		cmp	r3, #0
 2510 00be E9D1     		bne	.L159
 2511 00c0 EDE7     		b	.L160
 2512              	.L168:
 2513 00c2 00BF     		.align	2
 2514              	.L167:
 2515 00c4 00000000 		.word	.LANCHOR12
 2516 00c8 00000000 		.word	.LANCHOR8
 2517 00cc 00000000 		.word	.LANCHOR6
 2518 00d0 00000000 		.word	Os_TaskCrtList_TraverseCallback
 2519 00d4 04000000 		.word	.LANCHOR12+4
 2520 00d8 00000000 		.word	.LANCHOR11
 2521 00dc 00000000 		.word	.LANCHOR10
 2522              		.cfi_endproc
 2523              	.LFE164:
 2525              		.section	.text.Os_TaskCaller,"ax",%progbits
 2526              		.align	1
 2527              		.syntax unified
 2528              		.thumb
 2529              		.thumb_func
 2531              	Os_TaskCaller:
 2532              	.LFB171:
 802:System/scheduler/scheduler.c ****     // if any task in any group is under ready state
 2533              		.loc 1 802 1 is_stmt 1 view -0
 2534              		.cfi_startproc
 2535              		@ Volatile: function does not return.
 2536              		@ args = 0, pretend = 0, frame = 0
 2537              		@ frame_needed = 0, uses_anonymous_args = 0
 2538 0000 08B5     		push	{r3, lr}
 2539              	.LCFI36:
ARM GAS  C:\Users\HUAV\AppData\Local\Temp\ccLbKHgN.s 			page 69


 2540              		.cfi_def_cfa_offset 8
 2541              		.cfi_offset 3, -8
 2542              		.cfi_offset 14, -4
 2543 0002 03E0     		b	.L170
 2544              	.L171:
 818:System/scheduler/scheduler.c ****         }
 2545              		.loc 1 818 13 view .LVU757
 2546 0004 FFF7FEFF 		bl	Get_CurrentRunningUs
 2547              	.LVL136:
 2548 0008 FFF7FEFF 		bl	Os_SchedulerRun
 2549              	.LVL137:
 2550              	.L170:
 804:System/scheduler/scheduler.c ****     {
 2551              		.loc 1 804 5 view .LVU758
 806:System/scheduler/scheduler.c ****         {
 2552              		.loc 1 806 9 view .LVU759
 806:System/scheduler/scheduler.c ****         {
 2553              		.loc 1 806 27 is_stmt 0 view .LVU760
 2554 000c 074B     		ldr	r3, .L174
 2555 000e 1868     		ldr	r0, [r3]
 806:System/scheduler/scheduler.c ****         {
 2556              		.loc 1 806 12 view .LVU761
 2557 0010 0028     		cmp	r0, #0
 2558 0012 FBD0     		beq	.L170
 809:System/scheduler/scheduler.c **** 
 2559              		.loc 1 809 13 is_stmt 1 view .LVU762
 2560 0014 FFF7FEFF 		bl	Os_TaskExec
 2561              	.LVL138:
 812:System/scheduler/scheduler.c ****             {
 2562              		.loc 1 812 13 view .LVU763
 812:System/scheduler/scheduler.c ****             {
 2563              		.loc 1 812 31 is_stmt 0 view .LVU764
 2564 0018 054B     		ldr	r3, .L174+4
 2565 001a 1A68     		ldr	r2, [r3]
 2566 001c 054B     		ldr	r3, .L174+8
 2567 001e 1B68     		ldr	r3, [r3]
 812:System/scheduler/scheduler.c ****             {
 2568              		.loc 1 812 16 view .LVU765
 2569 0020 9A42     		cmp	r2, r3
 2570 0022 EFD0     		beq	.L171
 814:System/scheduler/scheduler.c ****             }
 2571              		.loc 1 814 17 is_stmt 1 view .LVU766
 814:System/scheduler/scheduler.c ****             }
 2572              		.loc 1 814 31 is_stmt 0 view .LVU767
 2573 0024 024B     		ldr	r3, .L174+4
 2574 0026 0022     		movs	r2, #0
 2575 0028 1A60     		str	r2, [r3]
 2576 002a EBE7     		b	.L171
 2577              	.L175:
 2578              		.align	2
 2579              	.L174:
 2580 002c 00000000 		.word	.LANCHOR11
 2581 0030 00000000 		.word	.LANCHOR8
 2582 0034 00000000 		.word	.LANCHOR6
 2583              		.cfi_endproc
 2584              	.LFE171:
 2586              		.section	.text.Os_TaskDelay_Ms,"ax",%progbits
ARM GAS  C:\Users\HUAV\AppData\Local\Temp\ccLbKHgN.s 			page 70


 2587              		.align	1
 2588              		.global	Os_TaskDelay_Ms
 2589              		.syntax unified
 2590              		.thumb
 2591              		.thumb_func
 2593              	Os_TaskDelay_Ms:
 2594              	.LVL139:
 2595              	.LFB165:
 534:System/scheduler/scheduler.c ****     Task *NxtTsk_Tmp = NULL;
 2596              		.loc 1 534 1 is_stmt 1 view -0
 2597              		.cfi_startproc
 2598              		@ args = 0, pretend = 0, frame = 0
 2599              		@ frame_needed = 0, uses_anonymous_args = 0
 534:System/scheduler/scheduler.c ****     Task *NxtTsk_Tmp = NULL;
 2600              		.loc 1 534 1 is_stmt 0 view .LVU769
 2601 0000 10B5     		push	{r4, lr}
 2602              	.LCFI37:
 2603              		.cfi_def_cfa_offset 8
 2604              		.cfi_offset 4, -8
 2605              		.cfi_offset 14, -4
 2606 0002 0446     		mov	r4, r0
 535:System/scheduler/scheduler.c **** 
 2607              		.loc 1 535 5 is_stmt 1 view .LVU770
 2608              	.LVL140:
 537:System/scheduler/scheduler.c **** 
 2609              		.loc 1 537 5 view .LVU771
 537:System/scheduler/scheduler.c **** 
 2610              		.loc 1 537 44 is_stmt 0 view .LVU772
 2611 0004 4FF47A73 		mov	r3, #1000
 2612 0008 03FB01F1 		mul	r1, r3, r1
 2613              	.LVL141:
 540:System/scheduler/scheduler.c **** 
 2614              		.loc 1 540 5 is_stmt 1 view .LVU773
 540:System/scheduler/scheduler.c **** 
 2615              		.loc 1 540 50 is_stmt 0 view .LVU774
 2616 000c 4369     		ldr	r3, [r0, #20]
 2617 000e 8269     		ldr	r2, [r0, #24]
 2618 0010 5B18     		adds	r3, r3, r1
 2619 0012 42F10002 		adc	r2, r2, #0
 2620 0016 4361     		str	r3, [r0, #20]
 2621 0018 8261     		str	r2, [r0, #24]
 543:System/scheduler/scheduler.c ****     Os_Set_TaskBlock(TaskHandlerToObj(hdl), Task_DelayBlock);
 2622              		.loc 1 543 5 is_stmt 1 view .LVU775
 2623 001a FFF7FEFF 		bl	Os_Clr_TaskReady
 2624              	.LVL142:
 544:System/scheduler/scheduler.c **** 
 2625              		.loc 1 544 5 view .LVU776
 2626 001e 0521     		movs	r1, #5
 2627 0020 2046     		mov	r0, r4
 2628 0022 FFF7FEFF 		bl	Os_Set_TaskBlock
 2629              	.LVL143:
 546:System/scheduler/scheduler.c **** 
 2630              		.loc 1 546 5 view .LVU777
 546:System/scheduler/scheduler.c **** 
 2631              		.loc 1 546 18 is_stmt 0 view .LVU778
 2632 0026 FFF7FEFF 		bl	Os_Get_HighestRank_RdyTask
 2633              	.LVL144:
ARM GAS  C:\Users\HUAV\AppData\Local\Temp\ccLbKHgN.s 			page 71


 548:System/scheduler/scheduler.c ****     {
 2634              		.loc 1 548 5 is_stmt 1 view .LVU779
 548:System/scheduler/scheduler.c ****     {
 2635              		.loc 1 548 8 is_stmt 0 view .LVU780
 2636 002a 50B1     		cbz	r0, .L180
 558:System/scheduler/scheduler.c **** 
 2637              		.loc 1 558 9 is_stmt 1 view .LVU781
 558:System/scheduler/scheduler.c **** 
 2638              		.loc 1 558 23 is_stmt 0 view .LVU782
 2639 002c 0B4A     		ldr	r2, .L181
 2640 002e 1060     		str	r0, [r2]
 560:System/scheduler/scheduler.c ****         NxtTsk_TCB.Stack = NxtTsk_Tmp->TCB.Stack;
 2641              		.loc 1 560 9 is_stmt 1 view .LVU783
 560:System/scheduler/scheduler.c ****         NxtTsk_TCB.Stack = NxtTsk_Tmp->TCB.Stack;
 2642              		.loc 1 560 34 is_stmt 0 view .LVU784
 2643 0030 00F14001 		add	r1, r0, #64
 560:System/scheduler/scheduler.c ****         NxtTsk_TCB.Stack = NxtTsk_Tmp->TCB.Stack;
 2644              		.loc 1 560 32 view .LVU785
 2645 0034 0A4A     		ldr	r2, .L181+4
 2646 0036 1160     		str	r1, [r2]
 561:System/scheduler/scheduler.c ****     }
 2647              		.loc 1 561 9 is_stmt 1 view .LVU786
 561:System/scheduler/scheduler.c ****     }
 2648              		.loc 1 561 43 is_stmt 0 view .LVU787
 2649 0038 436C     		ldr	r3, [r0, #68]
 561:System/scheduler/scheduler.c ****     }
 2650              		.loc 1 561 26 view .LVU788
 2651 003a 5360     		str	r3, [r2, #4]
 2652              	.L178:
 566:System/scheduler/scheduler.c **** }
 2653              		.loc 1 566 5 is_stmt 1 view .LVU789
 2654 003c FFF7FEFF 		bl	Kernel_TriggerPendSV
 2655              	.LVL145:
 567:System/scheduler/scheduler.c **** 
 2656              		.loc 1 567 1 is_stmt 0 view .LVU790
 2657 0040 10BD     		pop	{r4, pc}
 2658              	.LVL146:
 2659              	.L180:
 550:System/scheduler/scheduler.c ****         Idle_Task->State = Task_Ready;
 2660              		.loc 1 550 9 is_stmt 1 view .LVU791
 550:System/scheduler/scheduler.c ****         Idle_Task->State = Task_Ready;
 2661              		.loc 1 550 23 is_stmt 0 view .LVU792
 2662 0042 084B     		ldr	r3, .L181+8
 2663 0044 1B68     		ldr	r3, [r3]
 2664 0046 054A     		ldr	r2, .L181
 2665 0048 1360     		str	r3, [r2]
 551:System/scheduler/scheduler.c **** 
 2666              		.loc 1 551 9 is_stmt 1 view .LVU793
 551:System/scheduler/scheduler.c **** 
 2667              		.loc 1 551 26 is_stmt 0 view .LVU794
 2668 004a 1A46     		mov	r2, r3
 2669 004c 0121     		movs	r1, #1
 2670 004e 02F8401B 		strb	r1, [r2], #64
 553:System/scheduler/scheduler.c ****         NxtTsk_TCB.Stack = Idle_Task->TCB.Stack;
 2671              		.loc 1 553 9 is_stmt 1 view .LVU795
 553:System/scheduler/scheduler.c ****         NxtTsk_TCB.Stack = Idle_Task->TCB.Stack;
 2672              		.loc 1 553 32 is_stmt 0 view .LVU796
ARM GAS  C:\Users\HUAV\AppData\Local\Temp\ccLbKHgN.s 			page 72


 2673 0052 0349     		ldr	r1, .L181+4
 2674 0054 0A60     		str	r2, [r1]
 554:System/scheduler/scheduler.c ****     }
 2675              		.loc 1 554 9 is_stmt 1 view .LVU797
 554:System/scheduler/scheduler.c ****     }
 2676              		.loc 1 554 42 is_stmt 0 view .LVU798
 2677 0056 5B6C     		ldr	r3, [r3, #68]
 554:System/scheduler/scheduler.c ****     }
 2678              		.loc 1 554 26 view .LVU799
 2679 0058 4B60     		str	r3, [r1, #4]
 2680 005a EFE7     		b	.L178
 2681              	.L182:
 2682              		.align	2
 2683              	.L181:
 2684 005c 00000000 		.word	.LANCHOR11
 2685 0060 00000000 		.word	.LANCHOR10
 2686 0064 00000000 		.word	.LANCHOR6
 2687              		.cfi_endproc
 2688              	.LFE165:
 2690              		.section	.bss.CurRunTsk_Ptr,"aw",%nobits
 2691              		.align	2
 2692              		.set	.LANCHOR8,. + 0
 2695              	CurRunTsk_Ptr:
 2696 0000 00000000 		.space	4
 2697              		.section	.bss.CurTsk_TCB,"aw",%nobits
 2698              		.align	2
 2699              		.set	.LANCHOR9,. + 0
 2702              	CurTsk_TCB:
 2703 0000 00000000 		.space	8
 2703      00000000 
 2704              		.section	.bss.Idle_Task,"aw",%nobits
 2705              		.align	2
 2706              		.set	.LANCHOR6,. + 0
 2709              	Idle_Task:
 2710 0000 00000000 		.space	4
 2711              		.section	.bss.NxtRunTsk_Ptr,"aw",%nobits
 2712              		.align	2
 2713              		.set	.LANCHOR11,. + 0
 2716              	NxtRunTsk_Ptr:
 2717 0000 00000000 		.space	4
 2718              		.section	.bss.NxtTsk_TCB,"aw",%nobits
 2719              		.align	2
 2720              		.set	.LANCHOR10,. + 0
 2723              	NxtTsk_TCB:
 2724 0000 00000000 		.space	8
 2724      00000000 
 2725              		.section	.bss.TaskPtr_Map,"aw",%nobits
 2726              		.align	2
 2727              		.set	.LANCHOR4,. + 0
 2730              	TaskPtr_Map:
 2731 0000 00000000 		.space	256
 2731      00000000 
 2731      00000000 
 2731      00000000 
 2731      00000000 
 2732              		.section	.bss.TskCrt_RegList,"aw",%nobits
 2733              		.align	2
ARM GAS  C:\Users\HUAV\AppData\Local\Temp\ccLbKHgN.s 			page 73


 2734              		.set	.LANCHOR12,. + 0
 2737              	TskCrt_RegList:
 2738 0000 00000000 		.space	24
 2738      00000000 
 2738      00000000 
 2738      00000000 
 2738      00000000 
 2739              		.section	.bss.TskHdl_BlkMap,"aw",%nobits
 2740              		.align	2
 2741              		.set	.LANCHOR1,. + 0
 2744              	TskHdl_BlkMap:
 2745 0000 00000000 		.space	9
 2745      00000000 
 2745      00
 2746              		.section	.bss.TskHdl_PndMap,"aw",%nobits
 2747              		.align	2
 2748              		.set	.LANCHOR2,. + 0
 2751              	TskHdl_PndMap:
 2752 0000 00000000 		.space	9
 2752      00000000 
 2752      00
 2753              		.section	.bss.TskHdl_RdyMap,"aw",%nobits
 2754              		.align	2
 2755              		.set	.LANCHOR0,. + 0
 2758              	TskHdl_RdyMap:
 2759 0000 00000000 		.space	9
 2759      00000000 
 2759      00
 2760              		.section	.bss.TskRdy_RegList,"aw",%nobits
 2761              		.align	2
 2764              	TskRdy_RegList:
 2765 0000 00000000 		.space	24
 2765      00000000 
 2765      00000000 
 2765      00000000 
 2765      00000000 
 2766              		.section	.bss.idle_cnt.0,"aw",%nobits
 2767              		.align	3
 2768              		.set	.LANCHOR7,. + 0
 2771              	idle_cnt.0:
 2772 0000 00000000 		.space	8
 2772      00000000 
 2773              		.section	.bss.scheduler_state,"aw",%nobits
 2774              		.set	.LANCHOR5,. + 0
 2777              	scheduler_state:
 2778 0000 00       		.space	1
 2779              		.section	.rodata.Task_Priority_List,"a"
 2780              		.align	2
 2781              		.set	.LANCHOR3,. + 0
 2784              	Task_Priority_List:
 2785 0000 00000100 		.ascii	"\000\000\001\000\002\000\001\000\003\000\001\000\002"
 2785      02000100 
 2785      03000100 
 2785      02
 2786 000d 00010004 		.ascii	"\000\001\000\004\000\001\000\002\000\001\000\003\000"
 2786      00010002 
 2786      00010003 
ARM GAS  C:\Users\HUAV\AppData\Local\Temp\ccLbKHgN.s 			page 74


 2786      00
 2787 001a 01000200 		.ascii	"\001\000\002\000\001\000\005\000\001\000\002\000\001"
 2787      01000500 
 2787      01000200 
 2787      01
 2788 0027 00030001 		.ascii	"\000\003\000\001\000\002\000\001\000\004\000\001\000"
 2788      00020001 
 2788      00040001 
 2788      00
 2789 0034 02000100 		.ascii	"\002\000\001\000\003\000\001\000\002\000\001\000\006"
 2789      03000100 
 2789      02000100 
 2789      06
 2790 0041 00010002 		.ascii	"\000\001\000\002\000\001\000\003\000\001\000\002\000"
 2790      00010003 
 2790      00010002 
 2790      00
 2791 004e 01000400 		.ascii	"\001\000\004\000\001\000\002\000\001\000\003\000\001"
 2791      01000200 
 2791      01000300 
 2791      01
 2792 005b 00020001 		.ascii	"\000\002\000\001\000\005\000\001\000\002\000\001\000"
 2792      00050001 
 2792      00020001 
 2792      00
 2793 0068 03000100 		.ascii	"\003\000\001\000\002\000\001\000\004\000\001\000\002"
 2793      02000100 
 2793      04000100 
 2793      02
 2794 0075 00010003 		.ascii	"\000\001\000\003\000\001\000\002\000\001\000\007\000"
 2794      00010002 
 2794      00010007 
 2794      00
 2795 0082 01000200 		.ascii	"\001\000\002\000\001\000\003\000\001\000\002\000\001"
 2795      01000300 
 2795      01000200 
 2795      01
 2796 008f 00040001 		.ascii	"\000\004\000\001\000\002\000\001\000\003\000\001\000"
 2796      00020001 
 2796      00030001 
 2796      00
 2797 009c 02000100 		.ascii	"\002\000\001\000\005\000\001\000\002\000\001\000\003"
 2797      05000100 
 2797      02000100 
 2797      03
 2798 00a9 00010002 		.ascii	"\000\001\000\002\000\001\000\004\000\001\000\002\000"
 2798      00010004 
 2798      00010002 
 2798      00
 2799 00b6 01000300 		.ascii	"\001\000\003\000\001\000\002\000\001\000\006\000\001"
 2799      01000200 
 2799      01000600 
 2799      01
 2800 00c3 00020001 		.ascii	"\000\002\000\001\000\003\000\001\000\002\000\001\000"
 2800      00030001 
 2800      00020001 
 2800      00
ARM GAS  C:\Users\HUAV\AppData\Local\Temp\ccLbKHgN.s 			page 75


 2801 00d0 04000100 		.ascii	"\004\000\001\000\002\000\001\000\003\000\001\000\002"
 2801      02000100 
 2801      03000100 
 2801      02
 2802 00dd 00010005 		.ascii	"\000\001\000\005\000\001\000\002\000\001\000\003\000"
 2802      00010002 
 2802      00010003 
 2802      00
 2803 00ea 01000200 		.ascii	"\001\000\002\000\001\000\004\000\001\000\002\000\001"
 2803      01000400 
 2803      01000200 
 2803      01
 2804 00f7 00030001 		.ascii	"\000\003\000\001\000\002\000\001\000"
 2804      00020001 
 2804      00
 2805              		.text
 2806              	.Letext0:
 2807              		.file 2 "c:\\program files (x86)\\gnu arm embedded toolchain\\10 2021.10\\arm-none-eabi\\include\\
 2808              		.file 3 "c:\\program files (x86)\\gnu arm embedded toolchain\\10 2021.10\\arm-none-eabi\\include\\
 2809              		.file 4 "System/runtime/runtime.h"
 2810              		.file 5 "DataStructure/linked_list.h"
 2811              		.file 6 "System/scheduler/scheduler.h"
 2812              		.file 7 "System/kernel/kernel.h"
 2813              		.file 8 "System/mmu/mmu.h"
 2814              		.file 9 "<built-in>"
ARM GAS  C:\Users\HUAV\AppData\Local\Temp\ccLbKHgN.s 			page 76

