ARM GAS  /var/folders/lx/hc4sn_b53233_zkc9xbbl97r0000gp/T//ccAkWgSN.s 			page 1


   1              		.cpu cortex-m7
   2              		.eabi_attribute 28, 1
   3              		.eabi_attribute 20, 1
   4              		.eabi_attribute 21, 1
   5              		.eabi_attribute 23, 3
   6              		.eabi_attribute 24, 1
   7              		.eabi_attribute 25, 1
   8              		.eabi_attribute 26, 1
   9              		.eabi_attribute 30, 1
  10              		.eabi_attribute 34, 1
  11              		.eabi_attribute 18, 4
  12              		.file	"scheduler.c"
  13              		.text
  14              	.Ltext0:
  15              		.cfi_sections	.debug_frame
  16              		.section	.text.Os_Idle_List_TraverseCallback,"ax",%progbits
  17              		.align	1
  18              		.arch armv7e-m
  19              		.syntax unified
  20              		.thumb
  21              		.thumb_func
  22              		.fpu fpv5-d16
  24              	Os_Idle_List_TraverseCallback:
  25              	.LVL0:
  26              	.LFB154:
  27              		.file 1 "System/scheduler/scheduler.c"
   1:System/scheduler/scheduler.c **** #include "scheduler.h"
   2:System/scheduler/scheduler.c **** #include "kernel.h"
   3:System/scheduler/scheduler.c **** #include "runtime.h"
   4:System/scheduler/scheduler.c **** #include "linked_list.h"
   5:System/scheduler/scheduler.c **** #include "mmu.h"
   6:System/scheduler/scheduler.c **** 
   7:System/scheduler/scheduler.c **** // coder: 8_B!T0
   8:System/scheduler/scheduler.c **** // bref:
   9:System/scheduler/scheduler.c **** // estabishment a task running system with priority calling functional
  10:System/scheduler/scheduler.c **** // alway calling the highest priority function in all function under the ready table
  11:System/scheduler/scheduler.c **** 
  12:System/scheduler/scheduler.c **** /*
  13:System/scheduler/scheduler.c **** *******************************   TASK Handle    *******************************
  14:System/scheduler/scheduler.c **** 
  15:System/scheduler/scheduler.c ****              task0   task1   task2   task3   task4   task5   task6   task7
  16:System/scheduler/scheduler.c **** group0     |_______|_______|_______|_______|_______|_______|_______|_______|
  17:System/scheduler/scheduler.c **** group1     |_______|_______|_______|_______|_______|_______|_______|_______|
  18:System/scheduler/scheduler.c **** group2     |_______|_______|_______|_______|_______|_______|_______|_______|
  19:System/scheduler/scheduler.c **** group3     |_______|_______|_______|_______|_______|_______|_______|_______|
  20:System/scheduler/scheduler.c **** group4     |_______|_______|_______|_______|_______|_______|_______|_______|
  21:System/scheduler/scheduler.c **** group5     |_______|_______|_______|_______|_______|_______|_______|_______|
  22:System/scheduler/scheduler.c **** group6     |_______|_______|_______|_______|_______|_______|_______|_______|
  23:System/scheduler/scheduler.c **** group7     |_______|_______|_______|_______|_______|_______|_______|_______|
  24:System/scheduler/scheduler.c **** 
  25:System/scheduler/scheduler.c **** */
  26:System/scheduler/scheduler.c **** 
  27:System/scheduler/scheduler.c **** #define GET_TASKGROUP_PRIORITY(x) x >> 3
  28:System/scheduler/scheduler.c **** #define GET_TASKINGROUP_PRIORITY(y) y & 0X07
  29:System/scheduler/scheduler.c **** #define IS_IDLETASK(x) x & 0x80
  30:System/scheduler/scheduler.c **** #define IDLE_TASK_STACK 1024
  31:System/scheduler/scheduler.c **** #define IDLE_TASK_PRIORITY 0x80
ARM GAS  /var/folders/lx/hc4sn_b53233_zkc9xbbl97r0000gp/T//ccAkWgSN.s 			page 2


  32:System/scheduler/scheduler.c **** 
  33:System/scheduler/scheduler.c **** /* internal variable */
  34:System/scheduler/scheduler.c **** static const uint8_t Task_Priority_List[256] =
  35:System/scheduler/scheduler.c ****     {0, 0, 1, 0, 2, 0, 1, 0, 3, 0, 1, 0, 2, 0, 1, 0,  // 0x00 ~ 0x0F
  36:System/scheduler/scheduler.c ****      4, 0, 1, 0, 2, 0, 1, 0, 3, 0, 1, 0, 2, 0, 1, 0,  // 0x10 ~ 0x1F
  37:System/scheduler/scheduler.c ****      5, 0, 1, 0, 2, 0, 1, 0, 3, 0, 1, 0, 2, 0, 1, 0,  // 0x20 ~ 0x2F
  38:System/scheduler/scheduler.c ****      4, 0, 1, 0, 2, 0, 1, 0, 3, 0, 1, 0, 2, 0, 1, 0,  // 0x30 ~ 0x3F
  39:System/scheduler/scheduler.c ****      6, 0, 1, 0, 2, 0, 1, 0, 3, 0, 1, 0, 2, 0, 1, 0,  // 0x40 ~ 0x4F
  40:System/scheduler/scheduler.c ****      4, 0, 1, 0, 2, 0, 1, 0, 3, 0, 1, 0, 2, 0, 1, 0,  // 0x50 ~ 0x5F
  41:System/scheduler/scheduler.c ****      5, 0, 1, 0, 2, 0, 1, 0, 3, 0, 1, 0, 2, 0, 1, 0,  // 0x60 ~ 0x6F
  42:System/scheduler/scheduler.c ****      4, 0, 1, 0, 2, 0, 1, 0, 3, 0, 1, 0, 2, 0, 1, 0,  // 0x70 ~ 0x7F
  43:System/scheduler/scheduler.c ****      7, 0, 1, 0, 2, 0, 1, 0, 3, 0, 1, 0, 2, 0, 1, 0,  // 0x80 ~ 0x8F
  44:System/scheduler/scheduler.c ****      4, 0, 1, 0, 2, 0, 1, 0, 3, 0, 1, 0, 2, 0, 1, 0,  // 0x90 ~ 0x9F
  45:System/scheduler/scheduler.c ****      5, 0, 1, 0, 2, 0, 1, 0, 3, 0, 1, 0, 2, 0, 1, 0,  // 0xA0 ~ 0xAF
  46:System/scheduler/scheduler.c ****      4, 0, 1, 0, 2, 0, 1, 0, 3, 0, 1, 0, 2, 0, 1, 0,  // 0xB0 ~ 0xBF
  47:System/scheduler/scheduler.c ****      6, 0, 1, 0, 2, 0, 1, 0, 3, 0, 1, 0, 2, 0, 1, 0,  // 0xC0 ~ 0xCF
  48:System/scheduler/scheduler.c ****      4, 0, 1, 0, 2, 0, 1, 0, 3, 0, 1, 0, 2, 0, 1, 0,  // 0xD0 ~ 0xDF
  49:System/scheduler/scheduler.c ****      5, 0, 1, 0, 2, 0, 1, 0, 3, 0, 1, 0, 2, 0, 1, 0,  // 0xE0 ~ 0xEF
  50:System/scheduler/scheduler.c ****      4, 0, 1, 0, 2, 0, 1, 0, 3, 0, 1, 0, 2, 0, 1, 0}; // 0xF0 ~ 0xFF
  51:System/scheduler/scheduler.c **** 
  52:System/scheduler/scheduler.c **** static volatile Task *CurRunTsk_Ptr = NULL;
  53:System/scheduler/scheduler.c **** static volatile Task *NxtRunTsk_Ptr = NULL;
  54:System/scheduler/scheduler.c **** static volatile TaskStack_ControlBlock CurTsk_TCB;
  55:System/scheduler/scheduler.c **** static volatile TaskStack_ControlBlock NxtTsk_TCB;
  56:System/scheduler/scheduler.c **** 
  57:System/scheduler/scheduler.c **** static volatile TaskMap_TypeDef TskHdl_RdyMap = {.Grp = 0, .TskInGrp[0] = 0, .TskInGrp[1] = 0, .Tsk
  58:System/scheduler/scheduler.c **** static volatile TaskMap_TypeDef TskHdl_PndMap = {.Grp = 0, .TskInGrp[0] = 0, .TskInGrp[1] = 0, .Tsk
  59:System/scheduler/scheduler.c **** static volatile TaskMap_TypeDef TskHdl_BlkMap = {.Grp = 0, .TskInGrp[0] = 0, .TskInGrp[1] = 0, .Tsk
  60:System/scheduler/scheduler.c **** 
  61:System/scheduler/scheduler.c **** static volatile Task_List_s TskCrt_RegList = {.num = 0, .list = {.prv = NULL, .nxt = NULL, .data = 
  62:System/scheduler/scheduler.c **** static volatile Task_List_s TskRdy_RegList = {.num = 0, .list = {.prv = NULL, .nxt = NULL, .data = 
  63:System/scheduler/scheduler.c **** 
  64:System/scheduler/scheduler.c **** static volatile Scheduler_State_List scheduler_state = Scheduler_Initial;
  65:System/scheduler/scheduler.c **** 
  66:System/scheduler/scheduler.c **** static Task *TaskPtr_Map[Task_Group_Sum][Task_Priority_Sum];
  67:System/scheduler/scheduler.c **** static Task *Idle_Task;
  68:System/scheduler/scheduler.c **** static Idle_Callback_List_s Idle_List;
  69:System/scheduler/scheduler.c **** 
  70:System/scheduler/scheduler.c **** /* internal function */
  71:System/scheduler/scheduler.c **** static void Os_ResetTask_Data(Task *task);
  72:System/scheduler/scheduler.c **** static void Os_Set_TaskReady(Task *tsk);
  73:System/scheduler/scheduler.c **** static void Os_Clr_TaskReady(Task *tsk);
  74:System/scheduler/scheduler.c **** static void Os_SchedulerRun(SYSTEM_RunTime Rt);
  75:System/scheduler/scheduler.c **** static void Os_TaskExit(void);
  76:System/scheduler/scheduler.c **** static Task *Os_TaskPri_Compare(const Task *tsk_l, const Task *tsk_r);
  77:System/scheduler/scheduler.c **** static int Os_TaskCrtList_TraverseCallback(item_obj *item, void *data, void *arg);
  78:System/scheduler/scheduler.c **** static void Os_TaskCaller(void);
  79:System/scheduler/scheduler.c **** static Task *Os_Get_HighestRank_PndTask(void);
  80:System/scheduler/scheduler.c **** static Task *Os_Get_HighestRank_RdyTask(void);
  81:System/scheduler/scheduler.c **** static bool Os_CreateIdle(void);
  82:System/scheduler/scheduler.c **** static void Os_Idle(void);
  83:System/scheduler/scheduler.c **** void Os_SwitchTaskStack(void);
  84:System/scheduler/scheduler.c **** 
  85:System/scheduler/scheduler.c **** __attribute__((naked)) void Os_LoadFirstTask(void)
  86:System/scheduler/scheduler.c **** {
  87:System/scheduler/scheduler.c ****     __ASM("LDR	  R3, =CurTsk_TCB");
  88:System/scheduler/scheduler.c ****     __ASM("LDR    R1, [R3]");
ARM GAS  /var/folders/lx/hc4sn_b53233_zkc9xbbl97r0000gp/T//ccAkWgSN.s 			page 3


  89:System/scheduler/scheduler.c ****     __ASM("LDR    R0, [R1]");
  90:System/scheduler/scheduler.c **** 
  91:System/scheduler/scheduler.c ****     __ASM("LDMIA  R0!, {R4-R11, R14}");
  92:System/scheduler/scheduler.c **** 
  93:System/scheduler/scheduler.c ****     /******************************  FPU SECTION  *********************************/
  94:System/scheduler/scheduler.c ****     __ASM("TST      R14, #0x10");
  95:System/scheduler/scheduler.c ****     __ASM("IT       EQ");
  96:System/scheduler/scheduler.c ****     __ASM("VLDMIAEQ R0!, {s16-s31}");
  97:System/scheduler/scheduler.c ****     /******************************  FPU SECTION  *********************************/
  98:System/scheduler/scheduler.c **** 
  99:System/scheduler/scheduler.c ****     __ASM("MSR    PSP, R0");
 100:System/scheduler/scheduler.c ****     __ASM("ISB");
 101:System/scheduler/scheduler.c ****     __ASM("BX     R14");
 102:System/scheduler/scheduler.c ****     __ASM(".ALIGN 4");
 103:System/scheduler/scheduler.c **** }
 104:System/scheduler/scheduler.c **** 
 105:System/scheduler/scheduler.c **** __attribute__((naked)) void Os_SwitchContext(void)
 106:System/scheduler/scheduler.c **** {
 107:System/scheduler/scheduler.c ****     __ASM("MRS      R0, PSP");
 108:System/scheduler/scheduler.c ****     __ASM("ISB");
 109:System/scheduler/scheduler.c **** 
 110:System/scheduler/scheduler.c ****     __ASM("LDR      R3, CurrentTCBConst_Tmp");
 111:System/scheduler/scheduler.c ****     __ASM("LDR      R2, [R3]");
 112:System/scheduler/scheduler.c **** 
 113:System/scheduler/scheduler.c ****     /******************************  FPU SECTION  *********************************/
 114:System/scheduler/scheduler.c ****     __ASM("TST      R14, #0x10");
 115:System/scheduler/scheduler.c ****     __ASM("IT       EQ");
 116:System/scheduler/scheduler.c ****     __ASM("VSTMDBEQ R0!, {s16-s31}");
 117:System/scheduler/scheduler.c ****     /******************************  FPU SECTION  *********************************/
 118:System/scheduler/scheduler.c **** 
 119:System/scheduler/scheduler.c ****     __ASM("STMDB    R0!, {R4-R11, R14}");
 120:System/scheduler/scheduler.c ****     __ASM("STR      R0, [R2]");
 121:System/scheduler/scheduler.c **** 
 122:System/scheduler/scheduler.c ****     __ASM("STMDB    SP!, {R0, R3}");
 123:System/scheduler/scheduler.c ****     __ASM("MOV      R0, %0" ::"i"(SYSCALL_INTERRUPT_PRIORITY));
 124:System/scheduler/scheduler.c ****     __ASM("MSR      BASEPRI, R0");
 125:System/scheduler/scheduler.c **** 
 126:System/scheduler/scheduler.c ****     __ASM("DSB");
 127:System/scheduler/scheduler.c ****     __ASM("ISB");
 128:System/scheduler/scheduler.c **** 
 129:System/scheduler/scheduler.c ****     __ASM("BL       Os_SwitchTaskStack");
 130:System/scheduler/scheduler.c **** 
 131:System/scheduler/scheduler.c ****     __ASM("MOV      R0, #0");
 132:System/scheduler/scheduler.c ****     __ASM("MSR      BASEPRI, R0");
 133:System/scheduler/scheduler.c ****     __ASM("LDMIA    SP!, {R0, R3}");
 134:System/scheduler/scheduler.c **** 
 135:System/scheduler/scheduler.c ****     __ASM("LDR      R1, [R3]");
 136:System/scheduler/scheduler.c ****     __ASM("LDR      R0, [R1]");
 137:System/scheduler/scheduler.c **** 
 138:System/scheduler/scheduler.c ****     __ASM("LDMIA    R0!, {R4-R11, R14}");
 139:System/scheduler/scheduler.c **** 
 140:System/scheduler/scheduler.c ****     /******************************  FPU SECTION  *********************************/
 141:System/scheduler/scheduler.c ****     __ASM("TST      R14, #0x10");
 142:System/scheduler/scheduler.c ****     __ASM("IT       EQ");
 143:System/scheduler/scheduler.c ****     __ASM("VLDMIAEQ R0!, {s16-s31}");
 144:System/scheduler/scheduler.c ****     /******************************  FPU SECTION  *********************************/
 145:System/scheduler/scheduler.c **** 
ARM GAS  /var/folders/lx/hc4sn_b53233_zkc9xbbl97r0000gp/T//ccAkWgSN.s 			page 4


 146:System/scheduler/scheduler.c ****     __ASM("MSR      PSP,R0");
 147:System/scheduler/scheduler.c ****     __ASM("ISB");
 148:System/scheduler/scheduler.c ****     __ASM("BX       R14");
 149:System/scheduler/scheduler.c **** 
 150:System/scheduler/scheduler.c ****     __ASM("CurrentTCBConst_Tmp: .word CurTsk_TCB");
 151:System/scheduler/scheduler.c ****     __ASM(".ALIGN 4");
 152:System/scheduler/scheduler.c **** }
 153:System/scheduler/scheduler.c **** 
 154:System/scheduler/scheduler.c **** void Os_SwitchTaskStack(void)
 155:System/scheduler/scheduler.c **** {
 156:System/scheduler/scheduler.c ****     CurTsk_TCB = NxtTsk_TCB;
 157:System/scheduler/scheduler.c ****     CurRunTsk_Ptr = NxtRunTsk_Ptr;
 158:System/scheduler/scheduler.c **** }
 159:System/scheduler/scheduler.c **** 
 160:System/scheduler/scheduler.c **** static void Os_Set_TaskStk(Task *tsk)
 161:System/scheduler/scheduler.c **** {
 162:System/scheduler/scheduler.c ****     uint32_t *Tsk_Ptr_tmp = NULL;
 163:System/scheduler/scheduler.c **** 
 164:System/scheduler/scheduler.c ****     memset(tsk->TCB.Stack, NULL, tsk->Stack_Depth * sizeof(uint32_t));
 165:System/scheduler/scheduler.c **** 
 166:System/scheduler/scheduler.c ****     Tsk_Ptr_tmp = &tsk->TCB.Stack + (tsk->Stack_Depth - (uint32_t)1);
 167:System/scheduler/scheduler.c ****     Tsk_Ptr_tmp = (uint32_t *)((uint32_t)(Tsk_Ptr_tmp)&0XFFFFFFF8ul);
 168:System/scheduler/scheduler.c **** 
 169:System/scheduler/scheduler.c ****     Tsk_Ptr_tmp--;
 170:System/scheduler/scheduler.c ****     *Tsk_Ptr_tmp = 0x01000000uL; /* xPSR */
 171:System/scheduler/scheduler.c **** 
 172:System/scheduler/scheduler.c ****     Tsk_Ptr_tmp--;
 173:System/scheduler/scheduler.c ****     *Tsk_Ptr_tmp = ((uint32_t)Os_TaskCaller) & 0xfffffffeUL; /* PC */
 174:System/scheduler/scheduler.c **** 
 175:System/scheduler/scheduler.c ****     Tsk_Ptr_tmp--;
 176:System/scheduler/scheduler.c ****     *Tsk_Ptr_tmp = (uint32_t)Os_TaskExit; /* LR */
 177:System/scheduler/scheduler.c **** 
 178:System/scheduler/scheduler.c ****     /* Save code space by skipping register initialisation. */
 179:System/scheduler/scheduler.c ****     Tsk_Ptr_tmp -= 5;              /* R12, R3, R2 and R1. */
 180:System/scheduler/scheduler.c ****     *Tsk_Ptr_tmp = (uint32_t)NULL; /* R0 */
 181:System/scheduler/scheduler.c **** 
 182:System/scheduler/scheduler.c ****     /* A save method is being used that requires each task to maintain its
 183:System/scheduler/scheduler.c ****         own exec return value. */
 184:System/scheduler/scheduler.c ****     Tsk_Ptr_tmp--;
 185:System/scheduler/scheduler.c ****     *Tsk_Ptr_tmp = 0xfffffffd;
 186:System/scheduler/scheduler.c **** 
 187:System/scheduler/scheduler.c ****     Tsk_Ptr_tmp -= 8; /* R11, R10, R9, R8, R7, R6, R5 and R4. */
 188:System/scheduler/scheduler.c **** 
 189:System/scheduler/scheduler.c ****     // set task stack top pointer
 190:System/scheduler/scheduler.c ****     tsk->TCB.Top_Stk_Ptr = Tsk_Ptr_tmp; //&Tsk_Ptr_tmp
 191:System/scheduler/scheduler.c **** }
 192:System/scheduler/scheduler.c **** 
 193:System/scheduler/scheduler.c **** void Os_Init(uint32_t TickFRQ)
 194:System/scheduler/scheduler.c **** {
 195:System/scheduler/scheduler.c ****     while (!Kernel_Init())
 196:System/scheduler/scheduler.c ****         ;
 197:System/scheduler/scheduler.c **** 
 198:System/scheduler/scheduler.c ****     for (uint8_t g = Task_Group_0; g < Task_Group_Sum; g++)
 199:System/scheduler/scheduler.c ****     {
 200:System/scheduler/scheduler.c ****         for (uint8_t t = Task_Priority_0; t < Task_Priority_Sum; t++)
 201:System/scheduler/scheduler.c ****         {
 202:System/scheduler/scheduler.c ****             /* clear each data in task map ptr */
ARM GAS  /var/folders/lx/hc4sn_b53233_zkc9xbbl97r0000gp/T//ccAkWgSN.s 			page 5


 203:System/scheduler/scheduler.c ****             Os_ResetTask_Data(&TaskPtr_Map[g][t]);
 204:System/scheduler/scheduler.c **** 
 205:System/scheduler/scheduler.c ****             /* clear stack depth and stack memory and stack top pointer */
 206:System/scheduler/scheduler.c ****             TaskPtr_Map[g][t]->Stack_Depth = 0;
 207:System/scheduler/scheduler.c ****             TaskPtr_Map[g][t]->TCB.Stack = NULL;
 208:System/scheduler/scheduler.c ****             TaskPtr_Map[g][t]->TCB.Top_Stk_Ptr = NULL;
 209:System/scheduler/scheduler.c **** 
 210:System/scheduler/scheduler.c ****             TaskPtr_Map[g][t] = NULL;
 211:System/scheduler/scheduler.c ****         }
 212:System/scheduler/scheduler.c ****     }
 213:System/scheduler/scheduler.c **** 
 214:System/scheduler/scheduler.c ****     TskCrt_RegList.num = 0;
 215:System/scheduler/scheduler.c ****     TskCrt_RegList.list.data = NULL;
 216:System/scheduler/scheduler.c ****     TskCrt_RegList.list.nxt = NULL;
 217:System/scheduler/scheduler.c ****     TskCrt_RegList.list.prv = NULL;
 218:System/scheduler/scheduler.c **** 
 219:System/scheduler/scheduler.c ****     Os_ResetTask_Data(CurRunTsk_Ptr);
 220:System/scheduler/scheduler.c ****     Os_ResetTask_Data(NxtRunTsk_Ptr);
 221:System/scheduler/scheduler.c **** 
 222:System/scheduler/scheduler.c ****     Runtime_Config(TickFRQ);
 223:System/scheduler/scheduler.c **** 
 224:System/scheduler/scheduler.c ****     scheduler_state = Scheduler_ready;
 225:System/scheduler/scheduler.c **** }
 226:System/scheduler/scheduler.c **** 
 227:System/scheduler/scheduler.c **** Scheduler_State_List Os_State(void)
 228:System/scheduler/scheduler.c **** {
 229:System/scheduler/scheduler.c ****     return scheduler_state;
 230:System/scheduler/scheduler.c **** }
 231:System/scheduler/scheduler.c **** 
 232:System/scheduler/scheduler.c **** void Os_Start(void)
 233:System/scheduler/scheduler.c **** {
 234:System/scheduler/scheduler.c ****     NxtRunTsk_Ptr = Os_Get_HighestRank_RdyTask();
 235:System/scheduler/scheduler.c **** 
 236:System/scheduler/scheduler.c ****     if (NxtRunTsk_Ptr != NULL)
 237:System/scheduler/scheduler.c ****     {
 238:System/scheduler/scheduler.c ****         NxtTsk_TCB.Top_Stk_Ptr = &NxtRunTsk_Ptr->TCB.Top_Stk_Ptr;
 239:System/scheduler/scheduler.c ****         NxtTsk_TCB.Stack = NxtRunTsk_Ptr->TCB.Stack;
 240:System/scheduler/scheduler.c **** 
 241:System/scheduler/scheduler.c ****         CurTsk_TCB = NxtTsk_TCB;
 242:System/scheduler/scheduler.c ****     }
 243:System/scheduler/scheduler.c **** 
 244:System/scheduler/scheduler.c ****     scheduler_state = Scheduler_Start;
 245:System/scheduler/scheduler.c **** 
 246:System/scheduler/scheduler.c ****     /* before start we need create a idle task */
 247:System/scheduler/scheduler.c ****     Os_CreateIdle();
 248:System/scheduler/scheduler.c **** 
 249:System/scheduler/scheduler.c ****     // DrvTimer.ctl(DrvTimer_Counter_SetState, (uint32_t)&SysTimerObj, ENABLE);
 250:System/scheduler/scheduler.c ****     Kernel_EnablePendSV();
 251:System/scheduler/scheduler.c ****     Runtime_SetCallback(RtCallback_Type_Tick, Os_SchedulerRun);
 252:System/scheduler/scheduler.c **** 
 253:System/scheduler/scheduler.c ****     // trigger SVC Handler
 254:System/scheduler/scheduler.c ****     Kernel_LoadProcess();
 255:System/scheduler/scheduler.c **** }
 256:System/scheduler/scheduler.c **** 
 257:System/scheduler/scheduler.c **** static void Os_Idle_List_TraverseCallback(item_obj *item, void *ptr_1, void *ptr_2)
 258:System/scheduler/scheduler.c **** {
  28              		.loc 1 258 1 view -0
ARM GAS  /var/folders/lx/hc4sn_b53233_zkc9xbbl97r0000gp/T//ccAkWgSN.s 			page 6


  29              		.cfi_startproc
  30              		@ args = 0, pretend = 0, frame = 0
  31              		@ frame_needed = 0, uses_anonymous_args = 0
 259:System/scheduler/scheduler.c ****     Os_IdleObj_TypeDef *idle_obj = NULL;
  32              		.loc 1 259 5 view .LVU1
 260:System/scheduler/scheduler.c ****     if ((item == NULL) || (ptr_1 == NULL))
  33              		.loc 1 260 5 view .LVU2
  34              		.loc 1 260 8 is_stmt 0 view .LVU3
  35 0000 0029     		cmp	r1, #0
  36 0002 18BF     		it	ne
  37 0004 0028     		cmpne	r0, #0
  38 0006 0DD0     		beq	.L4
 258:System/scheduler/scheduler.c ****     Os_IdleObj_TypeDef *idle_obj = NULL;
  39              		.loc 1 258 1 view .LVU4
  40 0008 10B5     		push	{r4, lr}
  41              	.LCFI0:
  42              		.cfi_def_cfa_offset 8
  43              		.cfi_offset 4, -8
  44              		.cfi_offset 14, -4
  45 000a 0C46     		mov	r4, r1
 261:System/scheduler/scheduler.c ****         return;
 262:System/scheduler/scheduler.c **** 
 263:System/scheduler/scheduler.c ****     idle_obj = ((Os_IdleObj_TypeDef *)ptr_1);
  46              		.loc 1 263 5 is_stmt 1 view .LVU5
  47              	.LVL1:
 264:System/scheduler/scheduler.c **** 
 265:System/scheduler/scheduler.c ****     idle_obj->callback(idle_obj->stream.ptr, idle_obj->stream.size);
  48              		.loc 1 265 5 view .LVU6
  49              		.loc 1 265 13 is_stmt 0 view .LVU7
  50 000c 8B68     		ldr	r3, [r1, #8]
  51              		.loc 1 265 5 view .LVU8
  52 000e 8988     		ldrh	r1, [r1, #4]
  53              	.LVL2:
  54              		.loc 1 265 5 view .LVU9
  55 0010 2068     		ldr	r0, [r4]
  56              	.LVL3:
  57              		.loc 1 265 5 view .LVU10
  58 0012 9847     		blx	r3
  59              	.LVL4:
 266:System/scheduler/scheduler.c ****     idle_obj->exe_cnt++;
  60              		.loc 1 266 5 is_stmt 1 view .LVU11
  61              		.loc 1 266 13 is_stmt 0 view .LVU12
  62 0014 E368     		ldr	r3, [r4, #12]
  63 0016 2269     		ldr	r2, [r4, #16]
  64              		.loc 1 266 22 view .LVU13
  65 0018 0133     		adds	r3, r3, #1
  66 001a 42F10002 		adc	r2, r2, #0
  67 001e E360     		str	r3, [r4, #12]
  68 0020 2261     		str	r2, [r4, #16]
 267:System/scheduler/scheduler.c **** }
  69              		.loc 1 267 1 view .LVU14
  70 0022 10BD     		pop	{r4, pc}
  71              	.LVL5:
  72              	.L4:
  73              	.LCFI1:
  74              		.cfi_def_cfa_offset 0
  75              		.cfi_restore 4
ARM GAS  /var/folders/lx/hc4sn_b53233_zkc9xbbl97r0000gp/T//ccAkWgSN.s 			page 7


  76              		.cfi_restore 14
  77              		.loc 1 267 1 view .LVU15
  78 0024 7047     		bx	lr
  79              		.cfi_endproc
  80              	.LFE154:
  82              		.section	.text.Os_Set_TaskReady,"ax",%progbits
  83              		.align	1
  84              		.syntax unified
  85              		.thumb
  86              		.thumb_func
  87              		.fpu fpv5-d16
  89              	Os_Set_TaskReady:
  90              	.LVL6:
  91              	.LFB161:
 268:System/scheduler/scheduler.c **** 
 269:System/scheduler/scheduler.c **** static void Os_Idle(void)
 270:System/scheduler/scheduler.c **** {
 271:System/scheduler/scheduler.c ****     volatile SYSTEM_RunTime Rt = 0;
 272:System/scheduler/scheduler.c ****     static volatile uint64_t idle_cnt = 0;
 273:System/scheduler/scheduler.c **** 
 274:System/scheduler/scheduler.c ****     Idle_Task->State = Task_Ready;
 275:System/scheduler/scheduler.c **** 
 276:System/scheduler/scheduler.c ****     if (Idle_List.num != 0)
 277:System/scheduler/scheduler.c ****     {
 278:System/scheduler/scheduler.c ****         if (Rt != Get_CurrentRunningUs())
 279:System/scheduler/scheduler.c ****         {
 280:System/scheduler/scheduler.c ****             Rt = Get_CurrentRunningUs();
 281:System/scheduler/scheduler.c ****             idle_cnt++;
 282:System/scheduler/scheduler.c ****         }
 283:System/scheduler/scheduler.c ****     }
 284:System/scheduler/scheduler.c ****     else
 285:System/scheduler/scheduler.c ****     {
 286:System/scheduler/scheduler.c ****         List_traverse(&Idle_List.list, Os_Idle_List_TraverseCallback, NULL, pre_callback);
 287:System/scheduler/scheduler.c ****     }
 288:System/scheduler/scheduler.c **** }
 289:System/scheduler/scheduler.c **** 
 290:System/scheduler/scheduler.c **** bool Os_Regist_IdleObj(Os_IdleObj_TypeDef *obj, Os_Idle_DataStream_TypeDef stream, Idle_Callback_Fu
 291:System/scheduler/scheduler.c **** {
 292:System/scheduler/scheduler.c ****     if (obj == NULL)
 293:System/scheduler/scheduler.c ****         return false;
 294:System/scheduler/scheduler.c **** 
 295:System/scheduler/scheduler.c ****     obj->stream = stream;
 296:System/scheduler/scheduler.c ****     obj->callback = idle_cb;
 297:System/scheduler/scheduler.c **** 
 298:System/scheduler/scheduler.c ****     List_ItemInit(&obj->idle_item, obj);
 299:System/scheduler/scheduler.c **** 
 300:System/scheduler/scheduler.c ****     if (Idle_List.num == 0)
 301:System/scheduler/scheduler.c ****         List_Init(&Idle_List.list, &(obj->idle_item), by_order, NULL);
 302:System/scheduler/scheduler.c **** 
 303:System/scheduler/scheduler.c ****     List_Insert_Item(&Idle_List.list, &(obj->idle_item));
 304:System/scheduler/scheduler.c **** 
 305:System/scheduler/scheduler.c ****     return true;
 306:System/scheduler/scheduler.c **** }
 307:System/scheduler/scheduler.c **** 
 308:System/scheduler/scheduler.c **** bool Os_Unregist_IdleObj(Os_IdleObj_TypeDef *obj)
 309:System/scheduler/scheduler.c **** {
 310:System/scheduler/scheduler.c ****     if (Idle_List.num)
ARM GAS  /var/folders/lx/hc4sn_b53233_zkc9xbbl97r0000gp/T//ccAkWgSN.s 			page 8


 311:System/scheduler/scheduler.c ****     {
 312:System/scheduler/scheduler.c ****         List_Delete_Item(&(obj->idle_item), NULL);
 313:System/scheduler/scheduler.c ****         Idle_List.num--;
 314:System/scheduler/scheduler.c ****     }
 315:System/scheduler/scheduler.c **** }
 316:System/scheduler/scheduler.c **** 
 317:System/scheduler/scheduler.c **** static bool Os_CreateIdle(void)
 318:System/scheduler/scheduler.c **** {
 319:System/scheduler/scheduler.c ****     /* for idle task we don`t need priority or other state */
 320:System/scheduler/scheduler.c ****     Idle_Task = (Task *)MMU_Malloc(sizeof(Task));
 321:System/scheduler/scheduler.c **** 
 322:System/scheduler/scheduler.c ****     if (Idle_Task == NULL)
 323:System/scheduler/scheduler.c ****         return false;
 324:System/scheduler/scheduler.c **** 
 325:System/scheduler/scheduler.c ****     Idle_Task->Task_name = "Idle";
 326:System/scheduler/scheduler.c ****     Idle_Task->priority = IDLE_TASK_PRIORITY;
 327:System/scheduler/scheduler.c ****     Idle_Task->Exec_Func = Os_Idle;
 328:System/scheduler/scheduler.c **** 
 329:System/scheduler/scheduler.c ****     Idle_Task->Stack_Depth = IDLE_TASK_STACK;
 330:System/scheduler/scheduler.c ****     Idle_Task->TCB.Stack = (uint32_t *)MMU_Malloc(IDLE_TASK_STACK * sizeof(uint32_t));
 331:System/scheduler/scheduler.c **** 
 332:System/scheduler/scheduler.c ****     if (Idle_Task->TCB.Stack != NULL)
 333:System/scheduler/scheduler.c ****     {
 334:System/scheduler/scheduler.c ****         Os_Set_TaskStk(Idle_Task);
 335:System/scheduler/scheduler.c ****     }
 336:System/scheduler/scheduler.c ****     else
 337:System/scheduler/scheduler.c ****         return false;
 338:System/scheduler/scheduler.c **** 
 339:System/scheduler/scheduler.c ****     Idle_List.num = 0;
 340:System/scheduler/scheduler.c **** 
 341:System/scheduler/scheduler.c ****     return true;
 342:System/scheduler/scheduler.c **** }
 343:System/scheduler/scheduler.c **** 
 344:System/scheduler/scheduler.c **** Task_Handle Os_CreateTask(const char *name, uint32_t frq, Task_Group group, Task_Priority priority,
 345:System/scheduler/scheduler.c **** {
 346:System/scheduler/scheduler.c ****     Task_Handle handle;
 347:System/scheduler/scheduler.c ****     uint16_t task_name_len = strlen(name);
 348:System/scheduler/scheduler.c ****     uint32_t *Tsk_Ptr_tmp = NULL;
 349:System/scheduler/scheduler.c **** 
 350:System/scheduler/scheduler.c ****     // already have task in current group and priority in task pointer matrix
 351:System/scheduler/scheduler.c ****     if (TaskPtr_Map[group][priority] != NULL)
 352:System/scheduler/scheduler.c ****         return NULL;
 353:System/scheduler/scheduler.c **** 
 354:System/scheduler/scheduler.c ****     // request a memory space for Task_Ptr contain
 355:System/scheduler/scheduler.c ****     TaskPtr_Map[group][priority] = (Task *)MMU_Malloc(sizeof(Task));
 356:System/scheduler/scheduler.c **** 
 357:System/scheduler/scheduler.c ****     if (TaskPtr_Map[group][priority] == NULL)
 358:System/scheduler/scheduler.c ****         return NULL;
 359:System/scheduler/scheduler.c **** 
 360:System/scheduler/scheduler.c ****     // record Task_Ptr poiner`s address
 361:System/scheduler/scheduler.c ****     handle = *&TaskPtr_Map[group][priority];
 362:System/scheduler/scheduler.c **** 
 363:System/scheduler/scheduler.c ****     TaskPtr_Map[group][priority]->Task_name = name;
 364:System/scheduler/scheduler.c **** 
 365:System/scheduler/scheduler.c ****     TaskPtr_Map[group][priority]->exec_frq = frq;
 366:System/scheduler/scheduler.c ****     TaskPtr_Map[group][priority]->exec_interval_us = SCHEDULER_TIMEBASE / frq;
 367:System/scheduler/scheduler.c ****     TaskPtr_Map[group][priority]->Exec_Func = func;
ARM GAS  /var/folders/lx/hc4sn_b53233_zkc9xbbl97r0000gp/T//ccAkWgSN.s 			page 9


 368:System/scheduler/scheduler.c **** 
 369:System/scheduler/scheduler.c ****     TaskPtr_Map[group][priority]->priority = (group << 3) | priority;
 370:System/scheduler/scheduler.c **** 
 371:System/scheduler/scheduler.c ****     // request memory space for task stack
 372:System/scheduler/scheduler.c ****     TaskPtr_Map[group][priority]->Stack_Depth = StackDepth;
 373:System/scheduler/scheduler.c ****     TaskPtr_Map[group][priority]->TCB.Stack = (uint32_t *)MMU_Malloc(StackDepth * sizeof(uint32_t))
 374:System/scheduler/scheduler.c **** 
 375:System/scheduler/scheduler.c ****     if (TaskPtr_Map[group][priority]->TCB.Stack != NULL)
 376:System/scheduler/scheduler.c ****     {
 377:System/scheduler/scheduler.c ****         Os_Set_TaskStk(TaskPtr_Map[group][priority]);
 378:System/scheduler/scheduler.c ****     }
 379:System/scheduler/scheduler.c ****     else
 380:System/scheduler/scheduler.c ****         return NULL;
 381:System/scheduler/scheduler.c **** 
 382:System/scheduler/scheduler.c ****     // reset single loop running us
 383:System/scheduler/scheduler.c ****     TaskPtr_Map[group][priority]->TskFuncUing_US = 0;
 384:System/scheduler/scheduler.c **** 
 385:System/scheduler/scheduler.c ****     // reset task cpu occupy data
 386:System/scheduler/scheduler.c ****     TaskPtr_Map[group][priority]->Exec_status.cpu_opy = 0;
 387:System/scheduler/scheduler.c ****     TaskPtr_Map[group][priority]->Exec_status.Running_Time = 0;
 388:System/scheduler/scheduler.c **** 
 389:System/scheduler/scheduler.c ****     // set current group flag to ready
 390:System/scheduler/scheduler.c ****     TskHdl_RdyMap.Grp.Flg |= 1 << GET_TASKGROUP_PRIORITY(TaskPtr_Map[group][priority]->priority);
 391:System/scheduler/scheduler.c ****     // set current task under this group flag to ready
 392:System/scheduler/scheduler.c ****     TskHdl_RdyMap.TskInGrp[GET_TASKGROUP_PRIORITY(TaskPtr_Map[group][priority]->priority)].Flg |= 1
 393:System/scheduler/scheduler.c **** 
 394:System/scheduler/scheduler.c ****     TaskPtr_Map[group][priority]->Exec_status.detect_exec_frq = 0;
 395:System/scheduler/scheduler.c **** 
 396:System/scheduler/scheduler.c ****     RuntimeObj_Reset(&(TaskPtr_Map[group][priority]->Exec_status.Exec_Time));
 397:System/scheduler/scheduler.c ****     RuntimeObj_Reset(&(TaskPtr_Map[group][priority]->Exec_status.Start_Time));
 398:System/scheduler/scheduler.c **** 
 399:System/scheduler/scheduler.c ****     TaskPtr_Map[group][priority]->Exec_status.Exec_cnt = 0;
 400:System/scheduler/scheduler.c ****     TaskPtr_Map[group][priority]->Exec_status.error_code = NOERROR;
 401:System/scheduler/scheduler.c **** 
 402:System/scheduler/scheduler.c ****     Os_Set_TaskReady(TaskPtr_Map[group][priority]);
 403:System/scheduler/scheduler.c **** 
 404:System/scheduler/scheduler.c ****     TaskPtr_Map[group][priority]->item_ptr = (item_obj *)MMU_Malloc(sizeof(item_obj));
 405:System/scheduler/scheduler.c ****     if (TaskPtr_Map[group][priority]->item_ptr == NULL)
 406:System/scheduler/scheduler.c ****         return NULL;
 407:System/scheduler/scheduler.c **** 
 408:System/scheduler/scheduler.c ****     List_ItemInit(TaskPtr_Map[group][priority]->item_ptr, TaskPtr_Map[group][priority]);
 409:System/scheduler/scheduler.c ****     if (TskCrt_RegList.num == 0)
 410:System/scheduler/scheduler.c ****     {
 411:System/scheduler/scheduler.c ****         List_Init(&TskCrt_RegList.list, TaskPtr_Map[group][priority]->item_ptr, by_condition, Os_Ta
 412:System/scheduler/scheduler.c ****     }
 413:System/scheduler/scheduler.c ****     else
 414:System/scheduler/scheduler.c ****     {
 415:System/scheduler/scheduler.c ****         List_Insert_Item(&TskCrt_RegList.list, TaskPtr_Map[group][priority]->item_ptr);
 416:System/scheduler/scheduler.c ****     }
 417:System/scheduler/scheduler.c **** 
 418:System/scheduler/scheduler.c ****     TskCrt_RegList.num++;
 419:System/scheduler/scheduler.c **** 
 420:System/scheduler/scheduler.c ****     return handle;
 421:System/scheduler/scheduler.c **** }
 422:System/scheduler/scheduler.c **** 
 423:System/scheduler/scheduler.c **** static void Os_ResetTask_Data(Task *task)
 424:System/scheduler/scheduler.c **** {
ARM GAS  /var/folders/lx/hc4sn_b53233_zkc9xbbl97r0000gp/T//ccAkWgSN.s 			page 10


 425:System/scheduler/scheduler.c ****     task->priority = 0;
 426:System/scheduler/scheduler.c ****     task->Task_name = NULL;
 427:System/scheduler/scheduler.c ****     task->exec_frq = 0;
 428:System/scheduler/scheduler.c ****     task->exec_interval_us = 0;
 429:System/scheduler/scheduler.c ****     task->Exec_Func = NULL;
 430:System/scheduler/scheduler.c **** 
 431:System/scheduler/scheduler.c ****     task->Exec_status.detect_exec_frq = 0;
 432:System/scheduler/scheduler.c ****     task->Exec_status.Exec_cnt = 0;
 433:System/scheduler/scheduler.c ****     task->Exec_status.cpu_opy = 0;
 434:System/scheduler/scheduler.c ****     task->Exec_status.Running_Time = 0;
 435:System/scheduler/scheduler.c **** 
 436:System/scheduler/scheduler.c ****     RuntimeObj_Reset(&(task->Exec_status.Exec_Time));
 437:System/scheduler/scheduler.c **** 
 438:System/scheduler/scheduler.c ****     task->State = Task_Init;
 439:System/scheduler/scheduler.c **** }
 440:System/scheduler/scheduler.c **** 
 441:System/scheduler/scheduler.c **** static void Os_Set_TaskReady(Task *tsk)
 442:System/scheduler/scheduler.c **** {
  92              		.loc 1 442 1 is_stmt 1 view -0
  93              		.cfi_startproc
  94              		@ args = 0, pretend = 0, frame = 0
  95              		@ frame_needed = 0, uses_anonymous_args = 0
  96              		.loc 1 442 1 is_stmt 0 view .LVU17
  97 0000 10B5     		push	{r4, lr}
  98              	.LCFI2:
  99              		.cfi_def_cfa_offset 8
 100              		.cfi_offset 4, -8
 101              		.cfi_offset 14, -4
 443:System/scheduler/scheduler.c ****     uint8_t grp_id = GET_TASKGROUP_PRIORITY(tsk->priority);
 102              		.loc 1 443 5 is_stmt 1 view .LVU18
 103              		.loc 1 443 22 is_stmt 0 view .LVU19
 104 0002 4278     		ldrb	r2, [r0, #1]	@ zero_extendqisi2
 105              		.loc 1 443 13 view .LVU20
 106 0004 4FEAD20E 		lsr	lr, r2, #3
 107              	.LVL7:
 444:System/scheduler/scheduler.c ****     uint8_t tsk_id = GET_TASKINGROUP_PRIORITY(tsk->priority);
 108              		.loc 1 444 5 is_stmt 1 view .LVU21
 109              		.loc 1 444 13 is_stmt 0 view .LVU22
 110 0008 02F00702 		and	r2, r2, #7
 111              	.LVL8:
 445:System/scheduler/scheduler.c **** 
 446:System/scheduler/scheduler.c ****     // set current group flag to ready
 447:System/scheduler/scheduler.c ****     TskHdl_RdyMap.Grp.Flg |= 1 << grp_id;
 112              		.loc 1 447 5 is_stmt 1 view .LVU23
 113              		.loc 1 447 27 is_stmt 0 view .LVU24
 114 000c 094B     		ldr	r3, .L9
 115 000e 1978     		ldrb	r1, [r3]	@ zero_extendqisi2
 116              		.loc 1 447 32 view .LVU25
 117 0010 4FF0010C 		mov	ip, #1
 118 0014 0CFA0EF4 		lsl	r4, ip, lr
 119              		.loc 1 447 27 view .LVU26
 120 0018 2143     		orrs	r1, r1, r4
 121 001a C9B2     		uxtb	r1, r1
 122 001c 1970     		strb	r1, [r3]
 448:System/scheduler/scheduler.c ****     // set current task under this group flag to ready
 449:System/scheduler/scheduler.c ****     TskHdl_RdyMap.TskInGrp[grp_id].Flg |= 1 << tsk_id;
 123              		.loc 1 449 5 is_stmt 1 view .LVU27
ARM GAS  /var/folders/lx/hc4sn_b53233_zkc9xbbl97r0000gp/T//ccAkWgSN.s 			page 11


 124              		.loc 1 449 40 is_stmt 0 view .LVU28
 125 001e 7344     		add	r3, r3, lr
 126 0020 5978     		ldrb	r1, [r3, #1]	@ zero_extendqisi2
 127              		.loc 1 449 45 view .LVU29
 128 0022 0CFA02F2 		lsl	r2, ip, r2
 129              	.LVL9:
 130              		.loc 1 449 40 view .LVU30
 131 0026 0A43     		orrs	r2, r2, r1
 132 0028 D2B2     		uxtb	r2, r2
 133 002a 5A70     		strb	r2, [r3, #1]
 134              	.LVL10:
 450:System/scheduler/scheduler.c **** 
 451:System/scheduler/scheduler.c ****     tsk->State = Task_Ready;
 135              		.loc 1 451 5 is_stmt 1 view .LVU31
 136              		.loc 1 451 16 is_stmt 0 view .LVU32
 137 002c 80F800C0 		strb	ip, [r0]
 452:System/scheduler/scheduler.c **** }
 138              		.loc 1 452 1 view .LVU33
 139 0030 10BD     		pop	{r4, pc}
 140              	.L10:
 141 0032 00BF     		.align	2
 142              	.L9:
 143 0034 00000000 		.word	.LANCHOR0
 144              		.cfi_endproc
 145              	.LFE161:
 147              		.section	.text.Os_Set_TaskBlock,"ax",%progbits
 148              		.align	1
 149              		.syntax unified
 150              		.thumb
 151              		.thumb_func
 152              		.fpu fpv5-d16
 154              	Os_Set_TaskBlock:
 155              	.LVL11:
 156              	.LFB163:
 453:System/scheduler/scheduler.c **** 
 454:System/scheduler/scheduler.c **** void Os_Set_TaskPending(Task *tsk)
 455:System/scheduler/scheduler.c **** {
 456:System/scheduler/scheduler.c ****     uint8_t grp_id = GET_TASKGROUP_PRIORITY(tsk->priority);
 457:System/scheduler/scheduler.c ****     uint8_t tsk_id = GET_TASKINGROUP_PRIORITY(tsk->priority);
 458:System/scheduler/scheduler.c **** 
 459:System/scheduler/scheduler.c ****     // set current group pending
 460:System/scheduler/scheduler.c ****     TskHdl_PndMap.Grp.Flg |= 1 << grp_id;
 461:System/scheduler/scheduler.c ****     // set current task under this group flag to ready
 462:System/scheduler/scheduler.c ****     TskHdl_PndMap.TskInGrp[grp_id].Flg |= 1 << tsk_id;
 463:System/scheduler/scheduler.c **** 
 464:System/scheduler/scheduler.c ****     // set task state
 465:System/scheduler/scheduler.c ****     tsk->State = Task_Pending;
 466:System/scheduler/scheduler.c **** }
 467:System/scheduler/scheduler.c **** 
 468:System/scheduler/scheduler.c **** static void Os_Set_TaskBlock(Task *tsk, TASK_STATE state)
 469:System/scheduler/scheduler.c **** {
 157              		.loc 1 469 1 is_stmt 1 view -0
 158              		.cfi_startproc
 159              		@ args = 0, pretend = 0, frame = 0
 160              		@ frame_needed = 0, uses_anonymous_args = 0
 161              		.loc 1 469 1 is_stmt 0 view .LVU35
 162 0000 30B5     		push	{r4, r5, lr}
ARM GAS  /var/folders/lx/hc4sn_b53233_zkc9xbbl97r0000gp/T//ccAkWgSN.s 			page 12


 163              	.LCFI3:
 164              		.cfi_def_cfa_offset 12
 165              		.cfi_offset 4, -12
 166              		.cfi_offset 5, -8
 167              		.cfi_offset 14, -4
 470:System/scheduler/scheduler.c ****     uint8_t grp_id = GET_TASKGROUP_PRIORITY(tsk->priority);
 168              		.loc 1 470 5 is_stmt 1 view .LVU36
 169              		.loc 1 470 22 is_stmt 0 view .LVU37
 170 0002 90F801E0 		ldrb	lr, [r0, #1]	@ zero_extendqisi2
 171              		.loc 1 470 13 view .LVU38
 172 0006 4FEADE02 		lsr	r2, lr, #3
 173              	.LVL12:
 471:System/scheduler/scheduler.c ****     uint8_t tsk_id = GET_TASKINGROUP_PRIORITY(tsk->priority);
 174              		.loc 1 471 5 is_stmt 1 view .LVU39
 175              		.loc 1 471 13 is_stmt 0 view .LVU40
 176 000a 0EF00704 		and	r4, lr, #7
 177              	.LVL13:
 472:System/scheduler/scheduler.c **** 
 473:System/scheduler/scheduler.c ****     // set current group pending
 474:System/scheduler/scheduler.c ****     TskHdl_BlkMap.Grp.Flg |= 1 << grp_id;
 178              		.loc 1 474 5 is_stmt 1 view .LVU41
 179              		.loc 1 474 27 is_stmt 0 view .LVU42
 180 000e 0B4B     		ldr	r3, .L13
 181 0010 93F800C0 		ldrb	ip, [r3]	@ zero_extendqisi2
 182              		.loc 1 474 32 view .LVU43
 183 0014 4FF0010E 		mov	lr, #1
 184 0018 0EFA02F5 		lsl	r5, lr, r2
 185              		.loc 1 474 27 view .LVU44
 186 001c 4CEA050C 		orr	ip, ip, r5
 187 0020 5FFA8CFC 		uxtb	ip, ip
 188 0024 83F800C0 		strb	ip, [r3]
 475:System/scheduler/scheduler.c ****     // set current task under this group flag to ready
 476:System/scheduler/scheduler.c ****     TskHdl_BlkMap.TskInGrp[grp_id].Flg |= 1 << tsk_id;
 189              		.loc 1 476 5 is_stmt 1 view .LVU45
 190              		.loc 1 476 40 is_stmt 0 view .LVU46
 191 0028 1344     		add	r3, r3, r2
 192 002a 5A78     		ldrb	r2, [r3, #1]	@ zero_extendqisi2
 193              	.LVL14:
 194              		.loc 1 476 45 view .LVU47
 195 002c 0EFA04FE 		lsl	lr, lr, r4
 196              		.loc 1 476 40 view .LVU48
 197 0030 42EA0E02 		orr	r2, r2, lr
 198 0034 D2B2     		uxtb	r2, r2
 199 0036 5A70     		strb	r2, [r3, #1]
 200              	.LVL15:
 477:System/scheduler/scheduler.c **** 
 478:System/scheduler/scheduler.c ****     // set task state
 479:System/scheduler/scheduler.c ****     tsk->State = state;
 201              		.loc 1 479 5 is_stmt 1 view .LVU49
 202              		.loc 1 479 16 is_stmt 0 view .LVU50
 203 0038 0170     		strb	r1, [r0]
 480:System/scheduler/scheduler.c **** }
 204              		.loc 1 480 1 view .LVU51
 205 003a 30BD     		pop	{r4, r5, pc}
 206              	.LVL16:
 207              	.L14:
 208              		.loc 1 480 1 view .LVU52
ARM GAS  /var/folders/lx/hc4sn_b53233_zkc9xbbl97r0000gp/T//ccAkWgSN.s 			page 13


 209              		.align	2
 210              	.L13:
 211 003c 00000000 		.word	.LANCHOR1
 212              		.cfi_endproc
 213              	.LFE163:
 215              		.section	.text.Os_Clr_TaskReady,"ax",%progbits
 216              		.align	1
 217              		.syntax unified
 218              		.thumb
 219              		.thumb_func
 220              		.fpu fpv5-d16
 222              	Os_Clr_TaskReady:
 223              	.LVL17:
 224              	.LFB164:
 481:System/scheduler/scheduler.c **** 
 482:System/scheduler/scheduler.c **** static void Os_Clr_TaskReady(Task *tsk)
 483:System/scheduler/scheduler.c **** {
 225              		.loc 1 483 1 is_stmt 1 view -0
 226              		.cfi_startproc
 227              		@ args = 0, pretend = 0, frame = 0
 228              		@ frame_needed = 0, uses_anonymous_args = 0
 484:System/scheduler/scheduler.c ****     uint8_t grp_id = GET_TASKGROUP_PRIORITY(tsk->priority);
 229              		.loc 1 484 5 view .LVU54
 230              		.loc 1 484 22 is_stmt 0 view .LVU55
 231 0000 4078     		ldrb	r0, [r0, #1]	@ zero_extendqisi2
 232              	.LVL18:
 485:System/scheduler/scheduler.c ****     uint8_t tsk_id = GET_TASKINGROUP_PRIORITY(tsk->priority);
 233              		.loc 1 485 5 is_stmt 1 view .LVU56
 234              		.loc 1 485 13 is_stmt 0 view .LVU57
 235 0002 00F0070C 		and	ip, r0, #7
 236              	.LVL19:
 486:System/scheduler/scheduler.c **** 
 487:System/scheduler/scheduler.c ****     TskHdl_RdyMap.TskInGrp[grp_id].Flg &= ~(1 << tsk_id);
 237              		.loc 1 487 5 is_stmt 1 view .LVU58
 238              		.loc 1 487 40 is_stmt 0 view .LVU59
 239 0006 0D4B     		ldr	r3, .L21
 240 0008 03EBD003 		add	r3, r3, r0, lsr #3
 241 000c 5A78     		ldrb	r2, [r3, #1]	@ zero_extendqisi2
 242              		.loc 1 487 47 view .LVU60
 243 000e 0121     		movs	r1, #1
 244 0010 01FA0CF1 		lsl	r1, r1, ip
 245              		.loc 1 487 40 view .LVU61
 246 0014 22EA0102 		bic	r2, r2, r1
 247 0018 5A70     		strb	r2, [r3, #1]
 488:System/scheduler/scheduler.c ****     if (TskHdl_RdyMap.TskInGrp[grp_id].Flg == 0)
 248              		.loc 1 488 5 is_stmt 1 view .LVU62
 249              		.loc 1 488 39 is_stmt 0 view .LVU63
 250 001a 5978     		ldrb	r1, [r3, #1]	@ zero_extendqisi2
 251              		.loc 1 488 8 view .LVU64
 252 001c 61B9     		cbnz	r1, .L18
 483:System/scheduler/scheduler.c ****     uint8_t grp_id = GET_TASKGROUP_PRIORITY(tsk->priority);
 253              		.loc 1 483 1 view .LVU65
 254 001e 00B5     		push	{lr}
 255              	.LCFI4:
 256              		.cfi_def_cfa_offset 4
 257              		.cfi_offset 14, -4
 258 0020 4FEAD00E 		lsr	lr, r0, #3
ARM GAS  /var/folders/lx/hc4sn_b53233_zkc9xbbl97r0000gp/T//ccAkWgSN.s 			page 14


 489:System/scheduler/scheduler.c ****     {
 490:System/scheduler/scheduler.c ****         TskHdl_RdyMap.Grp.Flg &= ~(1 << grp_id);
 259              		.loc 1 490 9 is_stmt 1 view .LVU66
 260              		.loc 1 490 31 is_stmt 0 view .LVU67
 261 0024 0549     		ldr	r1, .L21
 262 0026 0B78     		ldrb	r3, [r1]	@ zero_extendqisi2
 263              		.loc 1 490 38 view .LVU68
 264 0028 0122     		movs	r2, #1
 265 002a 02FA0EF2 		lsl	r2, r2, lr
 266              		.loc 1 490 31 view .LVU69
 267 002e 23EA0203 		bic	r3, r3, r2
 268 0032 0B70     		strb	r3, [r1]
 491:System/scheduler/scheduler.c ****     }
 492:System/scheduler/scheduler.c **** }
 269              		.loc 1 492 1 view .LVU70
 270 0034 5DF804FB 		ldr	pc, [sp], #4
 271              	.L18:
 272              	.LCFI5:
 273              		.cfi_def_cfa_offset 0
 274              		.cfi_restore 14
 275 0038 7047     		bx	lr
 276              	.L22:
 277 003a 00BF     		.align	2
 278              	.L21:
 279 003c 00000000 		.word	.LANCHOR0
 280              		.cfi_endproc
 281              	.LFE164:
 283              		.section	.text.Os_Clr_TaskPending,"ax",%progbits
 284              		.align	1
 285              		.syntax unified
 286              		.thumb
 287              		.thumb_func
 288              		.fpu fpv5-d16
 290              	Os_Clr_TaskPending:
 291              	.LVL20:
 292              	.LFB165:
 493:System/scheduler/scheduler.c **** 
 494:System/scheduler/scheduler.c **** static void Os_Clr_TaskPending(Task *tsk)
 495:System/scheduler/scheduler.c **** {
 293              		.loc 1 495 1 is_stmt 1 view -0
 294              		.cfi_startproc
 295              		@ args = 0, pretend = 0, frame = 0
 296              		@ frame_needed = 0, uses_anonymous_args = 0
 496:System/scheduler/scheduler.c ****     uint8_t grp_id = GET_TASKGROUP_PRIORITY(tsk->priority);
 297              		.loc 1 496 5 view .LVU72
 298              		.loc 1 496 22 is_stmt 0 view .LVU73
 299 0000 4078     		ldrb	r0, [r0, #1]	@ zero_extendqisi2
 300              	.LVL21:
 497:System/scheduler/scheduler.c ****     uint8_t tsk_id = GET_TASKINGROUP_PRIORITY(tsk->priority);
 301              		.loc 1 497 5 is_stmt 1 view .LVU74
 302              		.loc 1 497 13 is_stmt 0 view .LVU75
 303 0002 00F0070C 		and	ip, r0, #7
 304              	.LVL22:
 498:System/scheduler/scheduler.c **** 
 499:System/scheduler/scheduler.c ****     TskHdl_PndMap.TskInGrp[grp_id].Flg &= ~(1 << tsk_id);
 305              		.loc 1 499 5 is_stmt 1 view .LVU76
 306              		.loc 1 499 40 is_stmt 0 view .LVU77
ARM GAS  /var/folders/lx/hc4sn_b53233_zkc9xbbl97r0000gp/T//ccAkWgSN.s 			page 15


 307 0006 0D4B     		ldr	r3, .L29
 308 0008 03EBD003 		add	r3, r3, r0, lsr #3
 309 000c 5A78     		ldrb	r2, [r3, #1]	@ zero_extendqisi2
 310              		.loc 1 499 47 view .LVU78
 311 000e 0121     		movs	r1, #1
 312 0010 01FA0CF1 		lsl	r1, r1, ip
 313              		.loc 1 499 40 view .LVU79
 314 0014 22EA0102 		bic	r2, r2, r1
 315 0018 5A70     		strb	r2, [r3, #1]
 500:System/scheduler/scheduler.c ****     if (TskHdl_PndMap.TskInGrp[grp_id].Flg == 0)
 316              		.loc 1 500 5 is_stmt 1 view .LVU80
 317              		.loc 1 500 39 is_stmt 0 view .LVU81
 318 001a 5978     		ldrb	r1, [r3, #1]	@ zero_extendqisi2
 319              		.loc 1 500 8 view .LVU82
 320 001c 61B9     		cbnz	r1, .L26
 495:System/scheduler/scheduler.c ****     uint8_t grp_id = GET_TASKGROUP_PRIORITY(tsk->priority);
 321              		.loc 1 495 1 view .LVU83
 322 001e 00B5     		push	{lr}
 323              	.LCFI6:
 324              		.cfi_def_cfa_offset 4
 325              		.cfi_offset 14, -4
 326 0020 4FEAD00E 		lsr	lr, r0, #3
 501:System/scheduler/scheduler.c ****     {
 502:System/scheduler/scheduler.c ****         TskHdl_PndMap.Grp.Flg &= ~(1 << grp_id);
 327              		.loc 1 502 9 is_stmt 1 view .LVU84
 328              		.loc 1 502 31 is_stmt 0 view .LVU85
 329 0024 0549     		ldr	r1, .L29
 330 0026 0B78     		ldrb	r3, [r1]	@ zero_extendqisi2
 331              		.loc 1 502 38 view .LVU86
 332 0028 0122     		movs	r2, #1
 333 002a 02FA0EF2 		lsl	r2, r2, lr
 334              		.loc 1 502 31 view .LVU87
 335 002e 23EA0203 		bic	r3, r3, r2
 336 0032 0B70     		strb	r3, [r1]
 503:System/scheduler/scheduler.c ****     }
 504:System/scheduler/scheduler.c **** }
 337              		.loc 1 504 1 view .LVU88
 338 0034 5DF804FB 		ldr	pc, [sp], #4
 339              	.L26:
 340              	.LCFI7:
 341              		.cfi_def_cfa_offset 0
 342              		.cfi_restore 14
 343 0038 7047     		bx	lr
 344              	.L30:
 345 003a 00BF     		.align	2
 346              	.L29:
 347 003c 00000000 		.word	.LANCHOR2
 348              		.cfi_endproc
 349              	.LFE165:
 351              		.section	.text.Os_TaskExit,"ax",%progbits
 352              		.align	1
 353              		.syntax unified
 354              		.thumb
 355              		.thumb_func
 356              		.fpu fpv5-d16
 358              	Os_TaskExit:
 359              	.LFB169:
ARM GAS  /var/folders/lx/hc4sn_b53233_zkc9xbbl97r0000gp/T//ccAkWgSN.s 			page 16


 505:System/scheduler/scheduler.c **** 
 506:System/scheduler/scheduler.c **** static void Os_Clr_TaskBlock(Task *tsk)
 507:System/scheduler/scheduler.c **** {
 508:System/scheduler/scheduler.c ****     uint8_t grp_id = GET_TASKGROUP_PRIORITY(tsk->priority);
 509:System/scheduler/scheduler.c ****     uint8_t tsk_id = GET_TASKINGROUP_PRIORITY(tsk->priority);
 510:System/scheduler/scheduler.c **** 
 511:System/scheduler/scheduler.c ****     TskHdl_BlkMap.TskInGrp[grp_id].Flg &= ~(1 << tsk_id);
 512:System/scheduler/scheduler.c ****     if (TskHdl_BlkMap.TskInGrp[grp_id].Flg == 0)
 513:System/scheduler/scheduler.c ****     {
 514:System/scheduler/scheduler.c ****         TskHdl_BlkMap.Grp.Flg &= ~(1 << grp_id);
 515:System/scheduler/scheduler.c ****     }
 516:System/scheduler/scheduler.c **** }
 517:System/scheduler/scheduler.c **** 
 518:System/scheduler/scheduler.c **** static void Os_SchedulerRun(SYSTEM_RunTime Rt)
 519:System/scheduler/scheduler.c **** {
 520:System/scheduler/scheduler.c ****     SYSTEM_RunTime CurRt_US = Rt;
 521:System/scheduler/scheduler.c ****     Task *TskPtr_Tmp = NULL;
 522:System/scheduler/scheduler.c **** 
 523:System/scheduler/scheduler.c ****     if (TskCrt_RegList.num)
 524:System/scheduler/scheduler.c ****     {
 525:System/scheduler/scheduler.c ****         /* check task state ready or not */
 526:System/scheduler/scheduler.c ****         List_traverse(&TskCrt_RegList.list, Os_TaskCrtList_TraverseCallback, &CurRt_US, pre_callbac
 527:System/scheduler/scheduler.c ****     }
 528:System/scheduler/scheduler.c **** 
 529:System/scheduler/scheduler.c ****     TskPtr_Tmp = Os_TaskPri_Compare(Os_TaskPri_Compare(Os_Get_HighestRank_RdyTask(), Os_Get_Highest
 530:System/scheduler/scheduler.c **** 
 531:System/scheduler/scheduler.c ****     if (TskPtr_Tmp != CurRunTsk_Ptr)
 532:System/scheduler/scheduler.c ****     {
 533:System/scheduler/scheduler.c ****         if (TskPtr_Tmp != NULL)
 534:System/scheduler/scheduler.c ****         {
 535:System/scheduler/scheduler.c ****             if (TskPtr_Tmp->State == Task_Pending)
 536:System/scheduler/scheduler.c ****             {
 537:System/scheduler/scheduler.c ****                 /* got problem after priority preemption */
 538:System/scheduler/scheduler.c **** 
 539:System/scheduler/scheduler.c ****                 Os_Clr_TaskPending(TskPtr_Tmp);
 540:System/scheduler/scheduler.c ****                 Os_Set_TaskReady(TskPtr_Tmp);
 541:System/scheduler/scheduler.c ****             }
 542:System/scheduler/scheduler.c **** 
 543:System/scheduler/scheduler.c ****             if ((CurRunTsk_Ptr != NULL) && (CurRunTsk_Ptr != Idle_Task) && (CurRunTsk_Ptr->State ==
 544:System/scheduler/scheduler.c ****             {
 545:System/scheduler/scheduler.c ****                 /* set current task in pending list */
 546:System/scheduler/scheduler.c ****                 Os_Set_TaskPending(CurRunTsk_Ptr);
 547:System/scheduler/scheduler.c ****             }
 548:System/scheduler/scheduler.c **** 
 549:System/scheduler/scheduler.c ****             if ((TskPtr_Tmp->State != Task_DelayBlock) && (TskPtr_Tmp->State != Task_SignalBlock))
 550:System/scheduler/scheduler.c ****             {
 551:System/scheduler/scheduler.c ****                 NxtRunTsk_Ptr = TskPtr_Tmp;
 552:System/scheduler/scheduler.c **** 
 553:System/scheduler/scheduler.c ****                 NxtTsk_TCB.Top_Stk_Ptr = &NxtRunTsk_Ptr->TCB.Top_Stk_Ptr;
 554:System/scheduler/scheduler.c ****                 NxtTsk_TCB.Stack = NxtRunTsk_Ptr->TCB.Stack;
 555:System/scheduler/scheduler.c **** 
 556:System/scheduler/scheduler.c ****                 /* trigger pendsv to switch task */
 557:System/scheduler/scheduler.c ****                 Kernel_TriggerPendSV();
 558:System/scheduler/scheduler.c ****             }
 559:System/scheduler/scheduler.c ****         }
 560:System/scheduler/scheduler.c ****     }
 561:System/scheduler/scheduler.c ****     else
ARM GAS  /var/folders/lx/hc4sn_b53233_zkc9xbbl97r0000gp/T//ccAkWgSN.s 			page 17


 562:System/scheduler/scheduler.c ****     {
 563:System/scheduler/scheduler.c ****         if (((TskPtr_Tmp == NULL) &&
 564:System/scheduler/scheduler.c ****              (CurRunTsk_Ptr == NULL)) ||
 565:System/scheduler/scheduler.c ****             (TskPtr_Tmp->State == Task_DelayBlock) ||
 566:System/scheduler/scheduler.c ****             (TskPtr_Tmp->State == Task_SignalBlock))
 567:System/scheduler/scheduler.c ****         {
 568:System/scheduler/scheduler.c ****             Idle_Task->State = Task_Ready;
 569:System/scheduler/scheduler.c **** 
 570:System/scheduler/scheduler.c ****             NxtRunTsk_Ptr = Idle_Task;
 571:System/scheduler/scheduler.c **** 
 572:System/scheduler/scheduler.c ****             NxtTsk_TCB.Top_Stk_Ptr = &Idle_Task->TCB.Top_Stk_Ptr;
 573:System/scheduler/scheduler.c ****             NxtTsk_TCB.Stack = Idle_Task->TCB.Stack;
 574:System/scheduler/scheduler.c **** 
 575:System/scheduler/scheduler.c ****             /* trigger pendsv to switch task */
 576:System/scheduler/scheduler.c ****             Kernel_TriggerPendSV();
 577:System/scheduler/scheduler.c ****         }
 578:System/scheduler/scheduler.c ****     }
 579:System/scheduler/scheduler.c **** }
 580:System/scheduler/scheduler.c **** 
 581:System/scheduler/scheduler.c **** /* still got bug down below */
 582:System/scheduler/scheduler.c **** void Os_TaskDelay_Ms(Task_Handle hdl, uint32_t Ms)
 583:System/scheduler/scheduler.c **** {
 584:System/scheduler/scheduler.c ****     Task *NxtTsk_Tmp = NULL;
 585:System/scheduler/scheduler.c **** 
 586:System/scheduler/scheduler.c ****     SYSTEM_RunTime delay_tick_base = (Ms * REAL_1MS);
 587:System/scheduler/scheduler.c **** 
 588:System/scheduler/scheduler.c ****     /* set task next ready time */
 589:System/scheduler/scheduler.c ****     TaskHandlerToObj(hdl)->Exec_status.Exec_Time += delay_tick_base;
 590:System/scheduler/scheduler.c **** 
 591:System/scheduler/scheduler.c ****     /* clear from ready list */
 592:System/scheduler/scheduler.c ****     Os_Clr_TaskReady(TaskHandlerToObj(hdl));
 593:System/scheduler/scheduler.c ****     Os_Set_TaskBlock(TaskHandlerToObj(hdl), Task_DelayBlock);
 594:System/scheduler/scheduler.c **** 
 595:System/scheduler/scheduler.c ****     NxtTsk_Tmp = Os_Get_HighestRank_RdyTask();
 596:System/scheduler/scheduler.c **** 
 597:System/scheduler/scheduler.c ****     if (NxtTsk_Tmp == NULL)
 598:System/scheduler/scheduler.c ****     {
 599:System/scheduler/scheduler.c ****         NxtRunTsk_Ptr = Idle_Task;
 600:System/scheduler/scheduler.c ****         Idle_Task->State = Task_Ready;
 601:System/scheduler/scheduler.c **** 
 602:System/scheduler/scheduler.c ****         NxtTsk_TCB.Top_Stk_Ptr = &Idle_Task->TCB.Top_Stk_Ptr;
 603:System/scheduler/scheduler.c ****         NxtTsk_TCB.Stack = Idle_Task->TCB.Stack;
 604:System/scheduler/scheduler.c ****     }
 605:System/scheduler/scheduler.c ****     else
 606:System/scheduler/scheduler.c ****     {
 607:System/scheduler/scheduler.c ****         NxtRunTsk_Ptr = NxtTsk_Tmp;
 608:System/scheduler/scheduler.c **** 
 609:System/scheduler/scheduler.c ****         NxtTsk_TCB.Top_Stk_Ptr = &NxtTsk_Tmp->TCB.Top_Stk_Ptr;
 610:System/scheduler/scheduler.c ****         NxtTsk_TCB.Stack = NxtTsk_Tmp->TCB.Stack;
 611:System/scheduler/scheduler.c ****     }
 612:System/scheduler/scheduler.c **** 
 613:System/scheduler/scheduler.c ****     /* trigger pendsv to switch task */
 614:System/scheduler/scheduler.c ****     /* do not anticipate scheduler been triggerd when it happend  */
 615:System/scheduler/scheduler.c ****     Kernel_TriggerPendSV();
 616:System/scheduler/scheduler.c **** }
 617:System/scheduler/scheduler.c **** 
 618:System/scheduler/scheduler.c **** /*
ARM GAS  /var/folders/lx/hc4sn_b53233_zkc9xbbl97r0000gp/T//ccAkWgSN.s 			page 18


 619:System/scheduler/scheduler.c ****  * task caller will not exit
 620:System/scheduler/scheduler.c ****  * if Os run into this func is sort of error happened
 621:System/scheduler/scheduler.c ****  */
 622:System/scheduler/scheduler.c **** static void Os_TaskExit(void)
 623:System/scheduler/scheduler.c **** {
 360              		.loc 1 623 1 is_stmt 1 view -0
 361              		.cfi_startproc
 362              		@ Volatile: function does not return.
 363              		@ args = 0, pretend = 0, frame = 0
 364              		@ frame_needed = 0, uses_anonymous_args = 0
 365              		@ link register save eliminated.
 366              	.L32:
 624:System/scheduler/scheduler.c ****     while (true)
 367              		.loc 1 624 5 discriminator 1 view .LVU90
 625:System/scheduler/scheduler.c ****     {
 626:System/scheduler/scheduler.c ****     }
 368              		.loc 1 626 5 discriminator 1 view .LVU91
 624:System/scheduler/scheduler.c ****     while (true)
 369              		.loc 1 624 11 discriminator 1 view .LVU92
 370 0000 FEE7     		b	.L32
 371              		.cfi_endproc
 372              	.LFE169:
 374              		.section	.text.Os_Get_HighestRank_RdyTask,"ax",%progbits
 375              		.align	1
 376              		.syntax unified
 377              		.thumb
 378              		.thumb_func
 379              		.fpu fpv5-d16
 381              	Os_Get_HighestRank_RdyTask:
 382              	.LFB170:
 627:System/scheduler/scheduler.c **** }
 628:System/scheduler/scheduler.c **** 
 629:System/scheduler/scheduler.c **** static Task *Os_Get_HighestRank_RdyTask(void)
 630:System/scheduler/scheduler.c **** {
 383              		.loc 1 630 1 view -0
 384              		.cfi_startproc
 385              		@ args = 0, pretend = 0, frame = 0
 386              		@ frame_needed = 0, uses_anonymous_args = 0
 631:System/scheduler/scheduler.c ****     uint8_t grp_id = 0;
 387              		.loc 1 631 5 view .LVU94
 388              	.LVL23:
 632:System/scheduler/scheduler.c ****     uint8_t tsk_id = 0;
 389              		.loc 1 632 5 view .LVU95
 633:System/scheduler/scheduler.c **** 
 634:System/scheduler/scheduler.c ****     if (TskHdl_RdyMap.Grp.Flg)
 390              		.loc 1 634 5 view .LVU96
 391              		.loc 1 634 26 is_stmt 0 view .LVU97
 392 0000 144B     		ldr	r3, .L41
 393 0002 1B78     		ldrb	r3, [r3]	@ zero_extendqisi2
 394              		.loc 1 634 8 view .LVU98
 395 0004 1BB3     		cbz	r3, .L35
 635:System/scheduler/scheduler.c ****     {
 636:System/scheduler/scheduler.c ****         // find group
 637:System/scheduler/scheduler.c ****         grp_id = Task_Priority_List[TskHdl_RdyMap.Grp.Flg];
 396              		.loc 1 637 9 is_stmt 1 view .LVU99
 397              		.loc 1 637 54 is_stmt 0 view .LVU100
 398 0006 134B     		ldr	r3, .L41
ARM GAS  /var/folders/lx/hc4sn_b53233_zkc9xbbl97r0000gp/T//ccAkWgSN.s 			page 19


 399 0008 1A78     		ldrb	r2, [r3]	@ zero_extendqisi2
 400 000a D2B2     		uxtb	r2, r2
 401              		.loc 1 637 16 view .LVU101
 402 000c 1249     		ldr	r1, .L41+4
 403 000e 8A5C     		ldrb	r2, [r1, r2]	@ zero_extendqisi2
 404              	.LVL24:
 638:System/scheduler/scheduler.c ****         // find task in group
 639:System/scheduler/scheduler.c ****         tsk_id = Task_Priority_List[TskHdl_RdyMap.TskInGrp[grp_id].Flg];
 405              		.loc 1 639 9 is_stmt 1 view .LVU102
 406              		.loc 1 639 67 is_stmt 0 view .LVU103
 407 0010 1344     		add	r3, r3, r2
 408 0012 5B78     		ldrb	r3, [r3, #1]	@ zero_extendqisi2
 409 0014 DBB2     		uxtb	r3, r3
 410              		.loc 1 639 16 view .LVU104
 411 0016 CB5C     		ldrb	r3, [r1, r3]	@ zero_extendqisi2
 412              	.LVL25:
 640:System/scheduler/scheduler.c ****     }
 641:System/scheduler/scheduler.c ****     else
 642:System/scheduler/scheduler.c ****         return NULL;
 643:System/scheduler/scheduler.c **** 
 644:System/scheduler/scheduler.c ****     if (TaskPtr_Map[grp_id][tsk_id] != NULL)
 413              		.loc 1 644 5 is_stmt 1 view .LVU105
 414              		.loc 1 644 28 is_stmt 0 view .LVU106
 415 0018 03EBC200 		add	r0, r3, r2, lsl #3
 416 001c 0F49     		ldr	r1, .L41+8
 417 001e 51F82000 		ldr	r0, [r1, r0, lsl #2]
 418              		.loc 1 644 8 view .LVU107
 419 0022 00B1     		cbz	r0, .L40
 645:System/scheduler/scheduler.c ****     {
 646:System/scheduler/scheduler.c ****         return TaskPtr_Map[grp_id][tsk_id];
 647:System/scheduler/scheduler.c ****     }
 648:System/scheduler/scheduler.c ****     else
 649:System/scheduler/scheduler.c ****     {
 650:System/scheduler/scheduler.c ****         TskHdl_RdyMap.Grp.Flg &= ~(1 << grp_id);
 651:System/scheduler/scheduler.c ****         TskHdl_RdyMap.TskInGrp[grp_id].Flg &= ~(1 << tsk_id);
 652:System/scheduler/scheduler.c ****         return NULL;
 653:System/scheduler/scheduler.c ****     }
 654:System/scheduler/scheduler.c **** }
 420              		.loc 1 654 1 view .LVU108
 421 0024 7047     		bx	lr
 422              	.L40:
 630:System/scheduler/scheduler.c ****     uint8_t grp_id = 0;
 423              		.loc 1 630 1 view .LVU109
 424 0026 10B5     		push	{r4, lr}
 425              	.LCFI8:
 426              		.cfi_def_cfa_offset 8
 427              		.cfi_offset 4, -8
 428              		.cfi_offset 14, -4
 650:System/scheduler/scheduler.c ****         TskHdl_RdyMap.TskInGrp[grp_id].Flg &= ~(1 << tsk_id);
 429              		.loc 1 650 9 is_stmt 1 view .LVU110
 650:System/scheduler/scheduler.c ****         TskHdl_RdyMap.TskInGrp[grp_id].Flg &= ~(1 << tsk_id);
 430              		.loc 1 650 31 is_stmt 0 view .LVU111
 431 0028 0A49     		ldr	r1, .L41
 432 002a 91F800E0 		ldrb	lr, [r1]	@ zero_extendqisi2
 650:System/scheduler/scheduler.c ****         TskHdl_RdyMap.TskInGrp[grp_id].Flg &= ~(1 << tsk_id);
 433              		.loc 1 650 38 view .LVU112
 434 002e 4FF0010C 		mov	ip, #1
ARM GAS  /var/folders/lx/hc4sn_b53233_zkc9xbbl97r0000gp/T//ccAkWgSN.s 			page 20


 435 0032 0CFA02F4 		lsl	r4, ip, r2
 650:System/scheduler/scheduler.c ****         TskHdl_RdyMap.TskInGrp[grp_id].Flg &= ~(1 << tsk_id);
 436              		.loc 1 650 31 view .LVU113
 437 0036 2EEA040E 		bic	lr, lr, r4
 438 003a 81F800E0 		strb	lr, [r1]
 651:System/scheduler/scheduler.c ****         return NULL;
 439              		.loc 1 651 9 is_stmt 1 view .LVU114
 651:System/scheduler/scheduler.c ****         return NULL;
 440              		.loc 1 651 44 is_stmt 0 view .LVU115
 441 003e 0A44     		add	r2, r2, r1
 442 0040 5178     		ldrb	r1, [r2, #1]	@ zero_extendqisi2
 651:System/scheduler/scheduler.c ****         return NULL;
 443              		.loc 1 651 51 view .LVU116
 444 0042 0CFA03F3 		lsl	r3, ip, r3
 651:System/scheduler/scheduler.c ****         return NULL;
 445              		.loc 1 651 44 view .LVU117
 446 0046 21EA0303 		bic	r3, r1, r3
 447 004a 5370     		strb	r3, [r2, #1]
 652:System/scheduler/scheduler.c ****     }
 448              		.loc 1 652 9 is_stmt 1 view .LVU118
 449              		.loc 1 654 1 is_stmt 0 view .LVU119
 450 004c 10BD     		pop	{r4, pc}
 451              	.LVL26:
 452              	.L35:
 453              	.LCFI9:
 454              		.cfi_def_cfa_offset 0
 455              		.cfi_restore 4
 456              		.cfi_restore 14
 642:System/scheduler/scheduler.c **** 
 457              		.loc 1 642 16 view .LVU120
 458 004e 0020     		movs	r0, #0
 459 0050 7047     		bx	lr
 460              	.L42:
 461 0052 00BF     		.align	2
 462              	.L41:
 463 0054 00000000 		.word	.LANCHOR0
 464 0058 00000000 		.word	.LANCHOR3
 465 005c 00000000 		.word	.LANCHOR4
 466              		.cfi_endproc
 467              	.LFE170:
 469              		.section	.text.Os_Get_HighestRank_PndTask,"ax",%progbits
 470              		.align	1
 471              		.syntax unified
 472              		.thumb
 473              		.thumb_func
 474              		.fpu fpv5-d16
 476              	Os_Get_HighestRank_PndTask:
 477              	.LFB171:
 655:System/scheduler/scheduler.c **** 
 656:System/scheduler/scheduler.c **** static Task *Os_Get_HighestRank_PndTask(void)
 657:System/scheduler/scheduler.c **** {
 478              		.loc 1 657 1 is_stmt 1 view -0
 479              		.cfi_startproc
 480              		@ args = 0, pretend = 0, frame = 0
 481              		@ frame_needed = 0, uses_anonymous_args = 0
 658:System/scheduler/scheduler.c ****     uint8_t grp_id;
 482              		.loc 1 658 5 view .LVU122
ARM GAS  /var/folders/lx/hc4sn_b53233_zkc9xbbl97r0000gp/T//ccAkWgSN.s 			page 21


 659:System/scheduler/scheduler.c ****     uint8_t tsk_id;
 483              		.loc 1 659 5 view .LVU123
 660:System/scheduler/scheduler.c **** 
 661:System/scheduler/scheduler.c ****     if (TskHdl_PndMap.Grp.Flg)
 484              		.loc 1 661 5 view .LVU124
 485              		.loc 1 661 26 is_stmt 0 view .LVU125
 486 0000 144B     		ldr	r3, .L51
 487 0002 1B78     		ldrb	r3, [r3]	@ zero_extendqisi2
 488              		.loc 1 661 8 view .LVU126
 489 0004 1BB3     		cbz	r3, .L45
 662:System/scheduler/scheduler.c ****     {
 663:System/scheduler/scheduler.c ****         // find group
 664:System/scheduler/scheduler.c ****         grp_id = Task_Priority_List[TskHdl_PndMap.Grp.Flg];
 490              		.loc 1 664 9 is_stmt 1 view .LVU127
 491              		.loc 1 664 54 is_stmt 0 view .LVU128
 492 0006 134B     		ldr	r3, .L51
 493 0008 1A78     		ldrb	r2, [r3]	@ zero_extendqisi2
 494 000a D2B2     		uxtb	r2, r2
 495              		.loc 1 664 16 view .LVU129
 496 000c 1249     		ldr	r1, .L51+4
 497 000e 8A5C     		ldrb	r2, [r1, r2]	@ zero_extendqisi2
 665:System/scheduler/scheduler.c ****         // find task in group
 666:System/scheduler/scheduler.c ****         tsk_id = Task_Priority_List[TskHdl_PndMap.TskInGrp[grp_id].Flg];
 498              		.loc 1 666 9 is_stmt 1 view .LVU130
 499              		.loc 1 666 67 is_stmt 0 view .LVU131
 500 0010 1344     		add	r3, r3, r2
 501 0012 5B78     		ldrb	r3, [r3, #1]	@ zero_extendqisi2
 502 0014 DBB2     		uxtb	r3, r3
 503              		.loc 1 666 16 view .LVU132
 504 0016 CB5C     		ldrb	r3, [r1, r3]	@ zero_extendqisi2
 667:System/scheduler/scheduler.c ****     }
 668:System/scheduler/scheduler.c ****     else
 669:System/scheduler/scheduler.c ****         return NULL;
 670:System/scheduler/scheduler.c **** 
 671:System/scheduler/scheduler.c ****     if (TaskPtr_Map[grp_id][tsk_id] != NULL)
 505              		.loc 1 671 5 is_stmt 1 view .LVU133
 506              		.loc 1 671 28 is_stmt 0 view .LVU134
 507 0018 03EBC200 		add	r0, r3, r2, lsl #3
 508 001c 0F49     		ldr	r1, .L51+8
 509 001e 51F82000 		ldr	r0, [r1, r0, lsl #2]
 510              		.loc 1 671 8 view .LVU135
 511 0022 00B1     		cbz	r0, .L50
 672:System/scheduler/scheduler.c ****     {
 673:System/scheduler/scheduler.c ****         return TaskPtr_Map[grp_id][tsk_id];
 674:System/scheduler/scheduler.c ****     }
 675:System/scheduler/scheduler.c ****     else
 676:System/scheduler/scheduler.c ****     {
 677:System/scheduler/scheduler.c ****         TskHdl_PndMap.Grp.Flg &= ~(1 << grp_id);
 678:System/scheduler/scheduler.c ****         TskHdl_PndMap.TskInGrp[grp_id].Flg &= ~(1 << tsk_id);
 679:System/scheduler/scheduler.c ****         return NULL;
 680:System/scheduler/scheduler.c ****     }
 681:System/scheduler/scheduler.c **** }
 512              		.loc 1 681 1 view .LVU136
 513 0024 7047     		bx	lr
 514              	.L50:
 657:System/scheduler/scheduler.c ****     uint8_t grp_id;
 515              		.loc 1 657 1 view .LVU137
ARM GAS  /var/folders/lx/hc4sn_b53233_zkc9xbbl97r0000gp/T//ccAkWgSN.s 			page 22


 516 0026 10B5     		push	{r4, lr}
 517              	.LCFI10:
 518              		.cfi_def_cfa_offset 8
 519              		.cfi_offset 4, -8
 520              		.cfi_offset 14, -4
 677:System/scheduler/scheduler.c ****         TskHdl_PndMap.TskInGrp[grp_id].Flg &= ~(1 << tsk_id);
 521              		.loc 1 677 9 is_stmt 1 view .LVU138
 677:System/scheduler/scheduler.c ****         TskHdl_PndMap.TskInGrp[grp_id].Flg &= ~(1 << tsk_id);
 522              		.loc 1 677 31 is_stmt 0 view .LVU139
 523 0028 0A49     		ldr	r1, .L51
 524 002a 91F800E0 		ldrb	lr, [r1]	@ zero_extendqisi2
 677:System/scheduler/scheduler.c ****         TskHdl_PndMap.TskInGrp[grp_id].Flg &= ~(1 << tsk_id);
 525              		.loc 1 677 38 view .LVU140
 526 002e 4FF0010C 		mov	ip, #1
 527 0032 0CFA02F4 		lsl	r4, ip, r2
 677:System/scheduler/scheduler.c ****         TskHdl_PndMap.TskInGrp[grp_id].Flg &= ~(1 << tsk_id);
 528              		.loc 1 677 31 view .LVU141
 529 0036 2EEA040E 		bic	lr, lr, r4
 530 003a 81F800E0 		strb	lr, [r1]
 678:System/scheduler/scheduler.c ****         return NULL;
 531              		.loc 1 678 9 is_stmt 1 view .LVU142
 678:System/scheduler/scheduler.c ****         return NULL;
 532              		.loc 1 678 44 is_stmt 0 view .LVU143
 533 003e 0A44     		add	r2, r2, r1
 534 0040 5178     		ldrb	r1, [r2, #1]	@ zero_extendqisi2
 678:System/scheduler/scheduler.c ****         return NULL;
 535              		.loc 1 678 51 view .LVU144
 536 0042 0CFA03F3 		lsl	r3, ip, r3
 678:System/scheduler/scheduler.c ****         return NULL;
 537              		.loc 1 678 44 view .LVU145
 538 0046 21EA0303 		bic	r3, r1, r3
 539 004a 5370     		strb	r3, [r2, #1]
 679:System/scheduler/scheduler.c ****     }
 540              		.loc 1 679 9 is_stmt 1 view .LVU146
 541              		.loc 1 681 1 is_stmt 0 view .LVU147
 542 004c 10BD     		pop	{r4, pc}
 543              	.L45:
 544              	.LCFI11:
 545              		.cfi_def_cfa_offset 0
 546              		.cfi_restore 4
 547              		.cfi_restore 14
 669:System/scheduler/scheduler.c **** 
 548              		.loc 1 669 16 view .LVU148
 549 004e 0020     		movs	r0, #0
 550 0050 7047     		bx	lr
 551              	.L52:
 552 0052 00BF     		.align	2
 553              	.L51:
 554 0054 00000000 		.word	.LANCHOR2
 555 0058 00000000 		.word	.LANCHOR3
 556 005c 00000000 		.word	.LANCHOR4
 557              		.cfi_endproc
 558              	.LFE171:
 560              		.section	.text.Os_TaskPri_Compare,"ax",%progbits
 561              		.align	1
 562              		.syntax unified
 563              		.thumb
ARM GAS  /var/folders/lx/hc4sn_b53233_zkc9xbbl97r0000gp/T//ccAkWgSN.s 			page 23


 564              		.thumb_func
 565              		.fpu fpv5-d16
 567              	Os_TaskPri_Compare:
 568              	.LVL27:
 569              	.LFB172:
 682:System/scheduler/scheduler.c **** 
 683:System/scheduler/scheduler.c **** // return high priority task pointer
 684:System/scheduler/scheduler.c **** static Task *Os_TaskPri_Compare(const Task *tsk_l, const Task *tsk_r)
 685:System/scheduler/scheduler.c **** {
 570              		.loc 1 685 1 is_stmt 1 view -0
 571              		.cfi_startproc
 572              		@ args = 0, pretend = 0, frame = 8
 573              		@ frame_needed = 0, uses_anonymous_args = 0
 574              		@ link register save eliminated.
 575              		.loc 1 685 1 is_stmt 0 view .LVU150
 576 0000 82B0     		sub	sp, sp, #8
 577              	.LCFI12:
 578              		.cfi_def_cfa_offset 8
 579 0002 0246     		mov	r2, r0
 686:System/scheduler/scheduler.c ****     volatile uint8_t grp_l = GET_TASKGROUP_PRIORITY(tsk_l->priority);
 580              		.loc 1 686 5 is_stmt 1 view .LVU151
 581              		.loc 1 686 30 is_stmt 0 view .LVU152
 582 0004 4078     		ldrb	r0, [r0, #1]	@ zero_extendqisi2
 583              	.LVL28:
 584              		.loc 1 686 22 view .LVU153
 585 0006 C308     		lsrs	r3, r0, #3
 586 0008 8DF80730 		strb	r3, [sp, #7]
 687:System/scheduler/scheduler.c ****     volatile uint8_t grp_r = GET_TASKGROUP_PRIORITY(tsk_r->priority);
 587              		.loc 1 687 5 is_stmt 1 view .LVU154
 588              		.loc 1 687 30 is_stmt 0 view .LVU155
 589 000c 4B78     		ldrb	r3, [r1, #1]	@ zero_extendqisi2
 590              		.loc 1 687 22 view .LVU156
 591 000e 4FEAD30C 		lsr	ip, r3, #3
 592 0012 8DF806C0 		strb	ip, [sp, #6]
 688:System/scheduler/scheduler.c ****     volatile uint8_t pri_l = GET_TASKINGROUP_PRIORITY(tsk_l->priority);
 593              		.loc 1 688 5 is_stmt 1 view .LVU157
 594              		.loc 1 688 30 is_stmt 0 view .LVU158
 595 0016 00F00700 		and	r0, r0, #7
 596              		.loc 1 688 22 view .LVU159
 597 001a 8DF80500 		strb	r0, [sp, #5]
 689:System/scheduler/scheduler.c ****     volatile uint8_t pri_r = GET_TASKINGROUP_PRIORITY(tsk_r->priority);
 598              		.loc 1 689 5 is_stmt 1 view .LVU160
 599              		.loc 1 689 30 is_stmt 0 view .LVU161
 600 001e 03F00703 		and	r3, r3, #7
 601              		.loc 1 689 22 view .LVU162
 602 0022 8DF80430 		strb	r3, [sp, #4]
 690:System/scheduler/scheduler.c **** 
 691:System/scheduler/scheduler.c ****     if ((tsk_l == NULL) && (tsk_r == NULL))
 603              		.loc 1 691 5 is_stmt 1 view .LVU163
 604              		.loc 1 691 16 is_stmt 0 view .LVU164
 605 0026 B2FA82F3 		clz	r3, r2
 606 002a 5B09     		lsrs	r3, r3, #5
 607              		.loc 1 691 35 view .LVU165
 608 002c B1FA81F0 		clz	r0, r1
 609 0030 4009     		lsrs	r0, r0, #5
 610              		.loc 1 691 8 view .LVU166
 611 0032 0342     		tst	r3, r0
ARM GAS  /var/folders/lx/hc4sn_b53233_zkc9xbbl97r0000gp/T//ccAkWgSN.s 			page 24


 612 0034 7DD1     		bne	.L62
 692:System/scheduler/scheduler.c ****     {
 693:System/scheduler/scheduler.c ****         return NULL;
 694:System/scheduler/scheduler.c ****     }
 695:System/scheduler/scheduler.c **** 
 696:System/scheduler/scheduler.c ****     if ((tsk_l == NULL) && (tsk_r != NULL))
 613              		.loc 1 696 5 is_stmt 1 view .LVU167
 614              		.loc 1 696 25 is_stmt 0 view .LVU168
 615 0036 0029     		cmp	r1, #0
 616 0038 0CBF     		ite	eq
 617 003a 0023     		moveq	r3, #0
 618 003c 03F00103 		andne	r3, r3, #1
 619              		.loc 1 696 8 view .LVU169
 620 0040 33B1     		cbz	r3, .L55
 697:System/scheduler/scheduler.c ****     {
 698:System/scheduler/scheduler.c ****         if ((tsk_r->State != Task_DelayBlock) && (tsk_r->State != Task_SignalBlock))
 621              		.loc 1 698 9 is_stmt 1 view .LVU170
 622              		.loc 1 698 19 is_stmt 0 view .LVU171
 623 0042 0B78     		ldrb	r3, [r1]	@ zero_extendqisi2
 624              		.loc 1 698 47 view .LVU172
 625 0044 043B     		subs	r3, r3, #4
 626 0046 DBB2     		uxtb	r3, r3
 627              		.loc 1 698 12 view .LVU173
 628 0048 012B     		cmp	r3, #1
 629 004a 75D9     		bls	.L63
 699:System/scheduler/scheduler.c ****         {
 700:System/scheduler/scheduler.c ****             return tsk_r;
 630              		.loc 1 700 20 view .LVU174
 631 004c 0846     		mov	r0, r1
 632 004e 71E0     		b	.L53
 633              	.L55:
 701:System/scheduler/scheduler.c ****         }
 702:System/scheduler/scheduler.c ****         else
 703:System/scheduler/scheduler.c ****             return NULL;
 704:System/scheduler/scheduler.c ****     }
 705:System/scheduler/scheduler.c **** 
 706:System/scheduler/scheduler.c ****     if ((tsk_l != NULL) && (tsk_r == NULL))
 634              		.loc 1 706 5 is_stmt 1 view .LVU175
 635              		.loc 1 706 25 is_stmt 0 view .LVU176
 636 0050 002A     		cmp	r2, #0
 637 0052 0CBF     		ite	eq
 638 0054 0020     		moveq	r0, #0
 639 0056 00F00100 		andne	r0, r0, #1
 640              		.loc 1 706 8 view .LVU177
 641 005a 30B1     		cbz	r0, .L56
 707:System/scheduler/scheduler.c ****     {
 708:System/scheduler/scheduler.c ****         if ((tsk_l->State != Task_DelayBlock) && (tsk_l->State != Task_SignalBlock))
 642              		.loc 1 708 9 is_stmt 1 view .LVU178
 643              		.loc 1 708 19 is_stmt 0 view .LVU179
 644 005c 1378     		ldrb	r3, [r2]	@ zero_extendqisi2
 645              		.loc 1 708 47 view .LVU180
 646 005e 043B     		subs	r3, r3, #4
 647 0060 DBB2     		uxtb	r3, r3
 648              		.loc 1 708 12 view .LVU181
 649 0062 012B     		cmp	r3, #1
 650 0064 6AD9     		bls	.L64
 709:System/scheduler/scheduler.c ****         {
ARM GAS  /var/folders/lx/hc4sn_b53233_zkc9xbbl97r0000gp/T//ccAkWgSN.s 			page 25


 710:System/scheduler/scheduler.c ****             return tsk_l;
 651              		.loc 1 710 20 view .LVU182
 652 0066 1046     		mov	r0, r2
 653 0068 64E0     		b	.L53
 654              	.L56:
 711:System/scheduler/scheduler.c ****         }
 712:System/scheduler/scheduler.c ****         else
 713:System/scheduler/scheduler.c ****             return NULL;
 714:System/scheduler/scheduler.c ****     }
 715:System/scheduler/scheduler.c **** 
 716:System/scheduler/scheduler.c ****     if (grp_l < grp_r)
 655              		.loc 1 716 5 is_stmt 1 view .LVU183
 656              		.loc 1 716 15 is_stmt 0 view .LVU184
 657 006a 9DF80700 		ldrb	r0, [sp, #7]	@ zero_extendqisi2
 658 006e C0B2     		uxtb	r0, r0
 659 0070 9DF80630 		ldrb	r3, [sp, #6]	@ zero_extendqisi2
 660 0074 DBB2     		uxtb	r3, r3
 661              		.loc 1 716 8 view .LVU185
 662 0076 9842     		cmp	r0, r3
 663 0078 0BD2     		bcs	.L57
 717:System/scheduler/scheduler.c ****     {
 718:System/scheduler/scheduler.c ****         if ((tsk_l->State != Task_DelayBlock) && (tsk_l->State != Task_SignalBlock))
 664              		.loc 1 718 9 is_stmt 1 view .LVU186
 665              		.loc 1 718 19 is_stmt 0 view .LVU187
 666 007a 1378     		ldrb	r3, [r2]	@ zero_extendqisi2
 667              		.loc 1 718 47 view .LVU188
 668 007c 043B     		subs	r3, r3, #4
 669 007e DBB2     		uxtb	r3, r3
 670              		.loc 1 718 12 view .LVU189
 671 0080 012B     		cmp	r3, #1
 672 0082 5DD8     		bhi	.L65
 719:System/scheduler/scheduler.c ****         {
 720:System/scheduler/scheduler.c ****             return tsk_l;
 721:System/scheduler/scheduler.c ****         }
 722:System/scheduler/scheduler.c **** 
 723:System/scheduler/scheduler.c ****         if ((tsk_r->State != Task_DelayBlock) && (tsk_r->State != Task_SignalBlock))
 673              		.loc 1 723 9 is_stmt 1 view .LVU190
 674              		.loc 1 723 19 is_stmt 0 view .LVU191
 675 0084 0B78     		ldrb	r3, [r1]	@ zero_extendqisi2
 676              		.loc 1 723 47 view .LVU192
 677 0086 043B     		subs	r3, r3, #4
 678 0088 DBB2     		uxtb	r3, r3
 679              		.loc 1 723 12 view .LVU193
 680 008a 012B     		cmp	r3, #1
 681 008c 5AD9     		bls	.L66
 724:System/scheduler/scheduler.c ****         {
 725:System/scheduler/scheduler.c ****             return tsk_r;
 682              		.loc 1 725 20 view .LVU194
 683 008e 0846     		mov	r0, r1
 684 0090 50E0     		b	.L53
 685              	.L57:
 726:System/scheduler/scheduler.c ****         }
 727:System/scheduler/scheduler.c **** 
 728:System/scheduler/scheduler.c ****         return NULL;
 729:System/scheduler/scheduler.c ****     }
 730:System/scheduler/scheduler.c ****     else if (grp_l > grp_r)
 686              		.loc 1 730 10 is_stmt 1 view .LVU195
ARM GAS  /var/folders/lx/hc4sn_b53233_zkc9xbbl97r0000gp/T//ccAkWgSN.s 			page 26


 687              		.loc 1 730 20 is_stmt 0 view .LVU196
 688 0092 9DF80700 		ldrb	r0, [sp, #7]	@ zero_extendqisi2
 689 0096 C0B2     		uxtb	r0, r0
 690 0098 9DF80630 		ldrb	r3, [sp, #6]	@ zero_extendqisi2
 691 009c DBB2     		uxtb	r3, r3
 692              		.loc 1 730 13 view .LVU197
 693 009e 9842     		cmp	r0, r3
 694 00a0 0BD9     		bls	.L58
 731:System/scheduler/scheduler.c ****     {
 732:System/scheduler/scheduler.c ****         if ((tsk_r->State != Task_DelayBlock) && (tsk_r->State != Task_SignalBlock))
 695              		.loc 1 732 9 is_stmt 1 view .LVU198
 696              		.loc 1 732 19 is_stmt 0 view .LVU199
 697 00a2 0B78     		ldrb	r3, [r1]	@ zero_extendqisi2
 698              		.loc 1 732 47 view .LVU200
 699 00a4 043B     		subs	r3, r3, #4
 700 00a6 DBB2     		uxtb	r3, r3
 701              		.loc 1 732 12 view .LVU201
 702 00a8 012B     		cmp	r3, #1
 703 00aa 4DD8     		bhi	.L67
 733:System/scheduler/scheduler.c ****         {
 734:System/scheduler/scheduler.c ****             return tsk_r;
 735:System/scheduler/scheduler.c ****         }
 736:System/scheduler/scheduler.c **** 
 737:System/scheduler/scheduler.c ****         if ((tsk_l->State != Task_DelayBlock) && (tsk_l->State != Task_SignalBlock))
 704              		.loc 1 737 9 is_stmt 1 view .LVU202
 705              		.loc 1 737 19 is_stmt 0 view .LVU203
 706 00ac 1378     		ldrb	r3, [r2]	@ zero_extendqisi2
 707              		.loc 1 737 47 view .LVU204
 708 00ae 043B     		subs	r3, r3, #4
 709 00b0 DBB2     		uxtb	r3, r3
 710              		.loc 1 737 12 view .LVU205
 711 00b2 012B     		cmp	r3, #1
 712 00b4 4AD9     		bls	.L68
 738:System/scheduler/scheduler.c ****         {
 739:System/scheduler/scheduler.c ****             return tsk_l;
 713              		.loc 1 739 20 view .LVU206
 714 00b6 1046     		mov	r0, r2
 715 00b8 3CE0     		b	.L53
 716              	.L58:
 740:System/scheduler/scheduler.c ****         }
 741:System/scheduler/scheduler.c **** 
 742:System/scheduler/scheduler.c ****         return NULL;
 743:System/scheduler/scheduler.c ****     }
 744:System/scheduler/scheduler.c ****     else if (grp_l == grp_r)
 717              		.loc 1 744 10 is_stmt 1 view .LVU207
 718              		.loc 1 744 20 is_stmt 0 view .LVU208
 719 00ba 9DF80700 		ldrb	r0, [sp, #7]	@ zero_extendqisi2
 720 00be C0B2     		uxtb	r0, r0
 721 00c0 9DF80630 		ldrb	r3, [sp, #6]	@ zero_extendqisi2
 722 00c4 DBB2     		uxtb	r3, r3
 723              		.loc 1 744 13 view .LVU209
 724 00c6 9842     		cmp	r0, r3
 725 00c8 34D1     		bne	.L53
 745:System/scheduler/scheduler.c ****     {
 746:System/scheduler/scheduler.c ****         if (pri_l < pri_r)
 726              		.loc 1 746 9 is_stmt 1 view .LVU210
 727              		.loc 1 746 19 is_stmt 0 view .LVU211
ARM GAS  /var/folders/lx/hc4sn_b53233_zkc9xbbl97r0000gp/T//ccAkWgSN.s 			page 27


 728 00ca 9DF80500 		ldrb	r0, [sp, #5]	@ zero_extendqisi2
 729 00ce C0B2     		uxtb	r0, r0
 730 00d0 9DF80430 		ldrb	r3, [sp, #4]	@ zero_extendqisi2
 731 00d4 DBB2     		uxtb	r3, r3
 732              		.loc 1 746 12 view .LVU212
 733 00d6 9842     		cmp	r0, r3
 734 00d8 0BD2     		bcs	.L60
 747:System/scheduler/scheduler.c ****         {
 748:System/scheduler/scheduler.c ****             if ((tsk_l->State != Task_DelayBlock) && (tsk_l->State != Task_SignalBlock))
 735              		.loc 1 748 13 is_stmt 1 view .LVU213
 736              		.loc 1 748 23 is_stmt 0 view .LVU214
 737 00da 1378     		ldrb	r3, [r2]	@ zero_extendqisi2
 738              		.loc 1 748 51 view .LVU215
 739 00dc 043B     		subs	r3, r3, #4
 740 00de DBB2     		uxtb	r3, r3
 741              		.loc 1 748 16 view .LVU216
 742 00e0 012B     		cmp	r3, #1
 743 00e2 35D8     		bhi	.L69
 749:System/scheduler/scheduler.c ****             {
 750:System/scheduler/scheduler.c ****                 return tsk_l;
 751:System/scheduler/scheduler.c ****             }
 752:System/scheduler/scheduler.c **** 
 753:System/scheduler/scheduler.c ****             if ((tsk_r->State != Task_DelayBlock) && (tsk_r->State != Task_SignalBlock))
 744              		.loc 1 753 13 is_stmt 1 view .LVU217
 745              		.loc 1 753 23 is_stmt 0 view .LVU218
 746 00e4 0B78     		ldrb	r3, [r1]	@ zero_extendqisi2
 747              		.loc 1 753 51 view .LVU219
 748 00e6 043B     		subs	r3, r3, #4
 749 00e8 DBB2     		uxtb	r3, r3
 750              		.loc 1 753 16 view .LVU220
 751 00ea 012B     		cmp	r3, #1
 752 00ec 32D9     		bls	.L70
 754:System/scheduler/scheduler.c ****             {
 755:System/scheduler/scheduler.c ****                 return tsk_r;
 753              		.loc 1 755 24 view .LVU221
 754 00ee 0846     		mov	r0, r1
 755 00f0 20E0     		b	.L53
 756              	.L60:
 756:System/scheduler/scheduler.c ****             }
 757:System/scheduler/scheduler.c **** 
 758:System/scheduler/scheduler.c ****             return NULL;
 759:System/scheduler/scheduler.c ****         }
 760:System/scheduler/scheduler.c ****         else if (pri_l > pri_r)
 757              		.loc 1 760 14 is_stmt 1 view .LVU222
 758              		.loc 1 760 24 is_stmt 0 view .LVU223
 759 00f2 9DF80500 		ldrb	r0, [sp, #5]	@ zero_extendqisi2
 760 00f6 C0B2     		uxtb	r0, r0
 761 00f8 9DF80430 		ldrb	r3, [sp, #4]	@ zero_extendqisi2
 762 00fc DBB2     		uxtb	r3, r3
 763              		.loc 1 760 17 view .LVU224
 764 00fe 9842     		cmp	r0, r3
 765 0100 0BD9     		bls	.L61
 761:System/scheduler/scheduler.c ****         {
 762:System/scheduler/scheduler.c ****             if ((tsk_r->State != Task_DelayBlock) && (tsk_r->State != Task_SignalBlock))
 766              		.loc 1 762 13 is_stmt 1 view .LVU225
 767              		.loc 1 762 23 is_stmt 0 view .LVU226
 768 0102 0B78     		ldrb	r3, [r1]	@ zero_extendqisi2
ARM GAS  /var/folders/lx/hc4sn_b53233_zkc9xbbl97r0000gp/T//ccAkWgSN.s 			page 28


 769              		.loc 1 762 51 view .LVU227
 770 0104 043B     		subs	r3, r3, #4
 771 0106 DBB2     		uxtb	r3, r3
 772              		.loc 1 762 16 view .LVU228
 773 0108 012B     		cmp	r3, #1
 774 010a 25D8     		bhi	.L71
 763:System/scheduler/scheduler.c ****             {
 764:System/scheduler/scheduler.c ****                 return tsk_r;
 765:System/scheduler/scheduler.c ****             }
 766:System/scheduler/scheduler.c **** 
 767:System/scheduler/scheduler.c ****             if ((tsk_l->State != Task_DelayBlock) && (tsk_l->State != Task_SignalBlock))
 775              		.loc 1 767 13 is_stmt 1 view .LVU229
 776              		.loc 1 767 23 is_stmt 0 view .LVU230
 777 010c 1378     		ldrb	r3, [r2]	@ zero_extendqisi2
 778              		.loc 1 767 51 view .LVU231
 779 010e 043B     		subs	r3, r3, #4
 780 0110 DBB2     		uxtb	r3, r3
 781              		.loc 1 767 16 view .LVU232
 782 0112 012B     		cmp	r3, #1
 783 0114 22D9     		bls	.L72
 768:System/scheduler/scheduler.c ****             {
 769:System/scheduler/scheduler.c ****                 return tsk_l;
 784              		.loc 1 769 24 view .LVU233
 785 0116 1046     		mov	r0, r2
 786 0118 0CE0     		b	.L53
 787              	.L61:
 770:System/scheduler/scheduler.c ****             }
 771:System/scheduler/scheduler.c **** 
 772:System/scheduler/scheduler.c ****             return NULL;
 773:System/scheduler/scheduler.c ****         }
 774:System/scheduler/scheduler.c ****         else
 775:System/scheduler/scheduler.c ****         {
 776:System/scheduler/scheduler.c ****             if ((tsk_r->State != Task_DelayBlock) && (tsk_r->State != Task_SignalBlock))
 788              		.loc 1 776 13 is_stmt 1 view .LVU234
 789              		.loc 1 776 23 is_stmt 0 view .LVU235
 790 011a 0B78     		ldrb	r3, [r1]	@ zero_extendqisi2
 791              		.loc 1 776 51 view .LVU236
 792 011c 043B     		subs	r3, r3, #4
 793 011e DBB2     		uxtb	r3, r3
 794              		.loc 1 776 16 view .LVU237
 795 0120 012B     		cmp	r3, #1
 796 0122 1DD8     		bhi	.L73
 777:System/scheduler/scheduler.c ****             {
 778:System/scheduler/scheduler.c ****                 return tsk_r;
 779:System/scheduler/scheduler.c ****             }
 780:System/scheduler/scheduler.c **** 
 781:System/scheduler/scheduler.c ****             if ((tsk_l->State != Task_DelayBlock) && (tsk_l->State != Task_SignalBlock))
 797              		.loc 1 781 13 is_stmt 1 view .LVU238
 798              		.loc 1 781 23 is_stmt 0 view .LVU239
 799 0124 1378     		ldrb	r3, [r2]	@ zero_extendqisi2
 800              		.loc 1 781 51 view .LVU240
 801 0126 043B     		subs	r3, r3, #4
 802 0128 DBB2     		uxtb	r3, r3
 803              		.loc 1 781 16 view .LVU241
 804 012a 012B     		cmp	r3, #1
 805 012c 1AD9     		bls	.L74
 782:System/scheduler/scheduler.c ****             {
ARM GAS  /var/folders/lx/hc4sn_b53233_zkc9xbbl97r0000gp/T//ccAkWgSN.s 			page 29


 783:System/scheduler/scheduler.c ****                 return tsk_l;
 806              		.loc 1 783 24 view .LVU242
 807 012e 1046     		mov	r0, r2
 808 0130 00E0     		b	.L53
 809              	.L62:
 693:System/scheduler/scheduler.c ****     }
 810              		.loc 1 693 16 view .LVU243
 811 0132 0020     		movs	r0, #0
 812              	.L53:
 784:System/scheduler/scheduler.c ****             }
 785:System/scheduler/scheduler.c **** 
 786:System/scheduler/scheduler.c ****             return NULL;
 787:System/scheduler/scheduler.c ****         }
 788:System/scheduler/scheduler.c ****     }
 789:System/scheduler/scheduler.c **** }
 813              		.loc 1 789 1 view .LVU244
 814 0134 02B0     		add	sp, sp, #8
 815              	.LCFI13:
 816              		.cfi_remember_state
 817              		.cfi_def_cfa_offset 0
 818              		@ sp needed
 819 0136 7047     		bx	lr
 820              	.L63:
 821              	.LCFI14:
 822              		.cfi_restore_state
 703:System/scheduler/scheduler.c ****     }
 823              		.loc 1 703 20 view .LVU245
 824 0138 0020     		movs	r0, #0
 825 013a FBE7     		b	.L53
 826              	.L64:
 713:System/scheduler/scheduler.c ****     }
 827              		.loc 1 713 20 view .LVU246
 828 013c 0020     		movs	r0, #0
 829 013e F9E7     		b	.L53
 830              	.L65:
 720:System/scheduler/scheduler.c ****         }
 831              		.loc 1 720 20 view .LVU247
 832 0140 1046     		mov	r0, r2
 833 0142 F7E7     		b	.L53
 834              	.L66:
 728:System/scheduler/scheduler.c ****     }
 835              		.loc 1 728 16 view .LVU248
 836 0144 0020     		movs	r0, #0
 837 0146 F5E7     		b	.L53
 838              	.L67:
 734:System/scheduler/scheduler.c ****         }
 839              		.loc 1 734 20 view .LVU249
 840 0148 0846     		mov	r0, r1
 841 014a F3E7     		b	.L53
 842              	.L68:
 742:System/scheduler/scheduler.c ****     }
 843              		.loc 1 742 16 view .LVU250
 844 014c 0020     		movs	r0, #0
 845 014e F1E7     		b	.L53
 846              	.L69:
 750:System/scheduler/scheduler.c ****             }
 847              		.loc 1 750 24 view .LVU251
ARM GAS  /var/folders/lx/hc4sn_b53233_zkc9xbbl97r0000gp/T//ccAkWgSN.s 			page 30


 848 0150 1046     		mov	r0, r2
 849 0152 EFE7     		b	.L53
 850              	.L70:
 758:System/scheduler/scheduler.c ****         }
 851              		.loc 1 758 20 view .LVU252
 852 0154 0020     		movs	r0, #0
 853 0156 EDE7     		b	.L53
 854              	.L71:
 764:System/scheduler/scheduler.c ****             }
 855              		.loc 1 764 24 view .LVU253
 856 0158 0846     		mov	r0, r1
 857 015a EBE7     		b	.L53
 858              	.L72:
 772:System/scheduler/scheduler.c ****         }
 859              		.loc 1 772 20 view .LVU254
 860 015c 0020     		movs	r0, #0
 861 015e E9E7     		b	.L53
 862              	.L73:
 778:System/scheduler/scheduler.c ****             }
 863              		.loc 1 778 24 view .LVU255
 864 0160 0846     		mov	r0, r1
 865 0162 E7E7     		b	.L53
 866              	.L74:
 786:System/scheduler/scheduler.c ****         }
 867              		.loc 1 786 20 view .LVU256
 868 0164 0020     		movs	r0, #0
 869 0166 E5E7     		b	.L53
 870              		.cfi_endproc
 871              	.LFE172:
 873              		.section	.text.Os_ResetTask_Data,"ax",%progbits
 874              		.align	1
 875              		.syntax unified
 876              		.thumb
 877              		.thumb_func
 878              		.fpu fpv5-d16
 880              	Os_ResetTask_Data:
 881              	.LVL29:
 882              	.LFB160:
 424:System/scheduler/scheduler.c ****     task->priority = 0;
 883              		.loc 1 424 1 is_stmt 1 view -0
 884              		.cfi_startproc
 885              		@ args = 0, pretend = 0, frame = 0
 886              		@ frame_needed = 0, uses_anonymous_args = 0
 424:System/scheduler/scheduler.c ****     task->priority = 0;
 887              		.loc 1 424 1 is_stmt 0 view .LVU258
 888 0000 38B5     		push	{r3, r4, r5, lr}
 889              	.LCFI15:
 890              		.cfi_def_cfa_offset 16
 891              		.cfi_offset 3, -16
 892              		.cfi_offset 4, -12
 893              		.cfi_offset 5, -8
 894              		.cfi_offset 14, -4
 895 0002 0446     		mov	r4, r0
 425:System/scheduler/scheduler.c ****     task->Task_name = NULL;
 896              		.loc 1 425 5 is_stmt 1 view .LVU259
 425:System/scheduler/scheduler.c ****     task->Task_name = NULL;
 897              		.loc 1 425 20 is_stmt 0 view .LVU260
ARM GAS  /var/folders/lx/hc4sn_b53233_zkc9xbbl97r0000gp/T//ccAkWgSN.s 			page 31


 898 0004 0025     		movs	r5, #0
 899 0006 4570     		strb	r5, [r0, #1]
 426:System/scheduler/scheduler.c ****     task->exec_frq = 0;
 900              		.loc 1 426 5 is_stmt 1 view .LVU261
 426:System/scheduler/scheduler.c ****     task->exec_frq = 0;
 901              		.loc 1 426 21 is_stmt 0 view .LVU262
 902 0008 4560     		str	r5, [r0, #4]
 427:System/scheduler/scheduler.c ****     task->exec_interval_us = 0;
 903              		.loc 1 427 5 is_stmt 1 view .LVU263
 427:System/scheduler/scheduler.c ****     task->exec_interval_us = 0;
 904              		.loc 1 427 20 is_stmt 0 view .LVU264
 905 000a 8560     		str	r5, [r0, #8]
 428:System/scheduler/scheduler.c ****     task->Exec_Func = NULL;
 906              		.loc 1 428 5 is_stmt 1 view .LVU265
 428:System/scheduler/scheduler.c ****     task->Exec_Func = NULL;
 907              		.loc 1 428 28 is_stmt 0 view .LVU266
 908 000c 8581     		strh	r5, [r0, #12]	@ movhi
 429:System/scheduler/scheduler.c **** 
 909              		.loc 1 429 5 is_stmt 1 view .LVU267
 429:System/scheduler/scheduler.c **** 
 910              		.loc 1 429 21 is_stmt 0 view .LVU268
 911 000e 0561     		str	r5, [r0, #16]
 431:System/scheduler/scheduler.c ****     task->Exec_status.Exec_cnt = 0;
 912              		.loc 1 431 5 is_stmt 1 view .LVU269
 431:System/scheduler/scheduler.c ****     task->Exec_status.Exec_cnt = 0;
 913              		.loc 1 431 39 is_stmt 0 view .LVU270
 914 0010 4562     		str	r5, [r0, #36]
 432:System/scheduler/scheduler.c ****     task->Exec_status.cpu_opy = 0;
 915              		.loc 1 432 5 is_stmt 1 view .LVU271
 432:System/scheduler/scheduler.c ****     task->Exec_status.cpu_opy = 0;
 916              		.loc 1 432 32 is_stmt 0 view .LVU272
 917 0012 8562     		str	r5, [r0, #40]
 433:System/scheduler/scheduler.c ****     task->Exec_status.Running_Time = 0;
 918              		.loc 1 433 5 is_stmt 1 view .LVU273
 433:System/scheduler/scheduler.c ****     task->Exec_status.Running_Time = 0;
 919              		.loc 1 433 31 is_stmt 0 view .LVU274
 920 0014 0023     		movs	r3, #0
 921 0016 8363     		str	r3, [r0, #56]	@ float
 434:System/scheduler/scheduler.c **** 
 922              		.loc 1 434 5 is_stmt 1 view .LVU275
 434:System/scheduler/scheduler.c **** 
 923              		.loc 1 434 36 is_stmt 0 view .LVU276
 924 0018 0563     		str	r5, [r0, #48]
 925 001a 4563     		str	r5, [r0, #52]
 436:System/scheduler/scheduler.c **** 
 926              		.loc 1 436 5 is_stmt 1 view .LVU277
 927 001c 1430     		adds	r0, r0, #20
 928              	.LVL30:
 436:System/scheduler/scheduler.c **** 
 929              		.loc 1 436 5 is_stmt 0 view .LVU278
 930 001e FFF7FEFF 		bl	RuntimeObj_Reset
 931              	.LVL31:
 438:System/scheduler/scheduler.c **** }
 932              		.loc 1 438 5 is_stmt 1 view .LVU279
 438:System/scheduler/scheduler.c **** }
 933              		.loc 1 438 17 is_stmt 0 view .LVU280
 934 0022 2570     		strb	r5, [r4]
ARM GAS  /var/folders/lx/hc4sn_b53233_zkc9xbbl97r0000gp/T//ccAkWgSN.s 			page 32


 439:System/scheduler/scheduler.c **** 
 935              		.loc 1 439 1 view .LVU281
 936 0024 38BD     		pop	{r3, r4, r5, pc}
 439:System/scheduler/scheduler.c **** 
 937              		.loc 1 439 1 view .LVU282
 938              		.cfi_endproc
 939              	.LFE160:
 941              		.section	.text.Os_TaskCrtList_TraverseCallback,"ax",%progbits
 942              		.align	1
 943              		.syntax unified
 944              		.thumb
 945              		.thumb_func
 946              		.fpu fpv5-d16
 948              	Os_TaskCrtList_TraverseCallback:
 949              	.LVL32:
 950              	.LFB175:
 790:System/scheduler/scheduler.c **** 
 791:System/scheduler/scheduler.c **** static void Os_TaskExec(Task *tsk_ptr)
 792:System/scheduler/scheduler.c **** {
 793:System/scheduler/scheduler.c ****     volatile SYSTEM_RunTime time_diff;
 794:System/scheduler/scheduler.c ****     volatile int64_t interval;
 795:System/scheduler/scheduler.c ****     volatile SYSTEM_RunTime func_cast;
 796:System/scheduler/scheduler.c ****     RuntimeObj_Reset(&time_diff);
 797:System/scheduler/scheduler.c **** 
 798:System/scheduler/scheduler.c ****     if (tsk_ptr->State == Task_Ready)
 799:System/scheduler/scheduler.c ****     {
 800:System/scheduler/scheduler.c ****         tsk_ptr->TskFuncUing_US = 0;
 801:System/scheduler/scheduler.c **** 
 802:System/scheduler/scheduler.c ****         // when task function execute finish reset ready flag of current task in group
 803:System/scheduler/scheduler.c ****         // code down below
 804:System/scheduler/scheduler.c ****         Os_Clr_TaskReady(tsk_ptr);
 805:System/scheduler/scheduler.c **** 
 806:System/scheduler/scheduler.c ****         // set current running task
 807:System/scheduler/scheduler.c ****         CurRunTsk_Ptr = tsk_ptr;
 808:System/scheduler/scheduler.c **** 
 809:System/scheduler/scheduler.c ****         if ((tsk_ptr->Exec_status.Exec_cnt == 0) && (tsk_ptr != Idle_Task))
 810:System/scheduler/scheduler.c ****         {
 811:System/scheduler/scheduler.c ****             tsk_ptr->Exec_status.Start_Time = Get_CurrentRunningUs();
 812:System/scheduler/scheduler.c ****             tsk_ptr->Exec_status.Exec_Time = tsk_ptr->Exec_status.Start_Time;
 813:System/scheduler/scheduler.c ****         }
 814:System/scheduler/scheduler.c **** 
 815:System/scheduler/scheduler.c ****         if (tsk_ptr->Exec_Func != NULL)
 816:System/scheduler/scheduler.c ****         {
 817:System/scheduler/scheduler.c ****             interval = tsk_ptr->exec_interval_us;
 818:System/scheduler/scheduler.c **** 
 819:System/scheduler/scheduler.c ****             tsk_ptr->State = Task_Running;
 820:System/scheduler/scheduler.c **** 
 821:System/scheduler/scheduler.c ****             func_cast = Get_CurrentRunningUs();
 822:System/scheduler/scheduler.c ****             // execute task funtion
 823:System/scheduler/scheduler.c ****             tsk_ptr->Exec_Func(*&tsk_ptr);
 824:System/scheduler/scheduler.c ****             func_cast = Get_CurrentRunningUs() - func_cast;
 825:System/scheduler/scheduler.c **** 
 826:System/scheduler/scheduler.c ****             interval -= func_cast;
 827:System/scheduler/scheduler.c **** 
 828:System/scheduler/scheduler.c ****             if (interval <= 0)
 829:System/scheduler/scheduler.c ****             {
 830:System/scheduler/scheduler.c ****                 interval = tsk_ptr->exec_interval_us;
ARM GAS  /var/folders/lx/hc4sn_b53233_zkc9xbbl97r0000gp/T//ccAkWgSN.s 			page 33


 831:System/scheduler/scheduler.c ****             }
 832:System/scheduler/scheduler.c ****         }
 833:System/scheduler/scheduler.c ****         else
 834:System/scheduler/scheduler.c ****         {
 835:System/scheduler/scheduler.c ****             tsk_ptr->State = Task_Stop;
 836:System/scheduler/scheduler.c ****             return;
 837:System/scheduler/scheduler.c ****         }
 838:System/scheduler/scheduler.c **** 
 839:System/scheduler/scheduler.c ****         if (tsk_ptr == Idle_Task)
 840:System/scheduler/scheduler.c ****             return;
 841:System/scheduler/scheduler.c **** 
 842:System/scheduler/scheduler.c ****         // record task running times
 843:System/scheduler/scheduler.c ****         tsk_ptr->Exec_status.Exec_cnt++;
 844:System/scheduler/scheduler.c **** 
 845:System/scheduler/scheduler.c ****         // get task total execute time unit in us
 846:System/scheduler/scheduler.c ****         tsk_ptr->Exec_status.Running_Time += tsk_ptr->TskFuncUing_US;
 847:System/scheduler/scheduler.c ****         time_diff = Get_TimeDifference_Between(tsk_ptr->Exec_status.Start_Time, tsk_ptr->Exec_statu
 848:System/scheduler/scheduler.c ****         // tsk_ptr->Exec_status.Exec_Time = Get_TargetRunTime(tsk_ptr->exec_interval_us);
 849:System/scheduler/scheduler.c ****         tsk_ptr->Exec_status.Exec_Time = Get_TargetRunTime(interval);
 850:System/scheduler/scheduler.c **** 
 851:System/scheduler/scheduler.c ****         tsk_ptr->Exec_status.cpu_opy = tsk_ptr->Exec_status.Running_Time / (float)time_diff;
 852:System/scheduler/scheduler.c ****         tsk_ptr->Exec_status.cpu_opy *= 100;
 853:System/scheduler/scheduler.c **** 
 854:System/scheduler/scheduler.c ****         // get task execute frequence
 855:System/scheduler/scheduler.c ****         if (tsk_ptr->Exec_status.Exec_cnt)
 856:System/scheduler/scheduler.c ****         {
 857:System/scheduler/scheduler.c ****             tsk_ptr->Exec_status.detect_exec_frq = (uint32_t)(tsk_ptr->Exec_status.Exec_cnt / (floa
 858:System/scheduler/scheduler.c ****         }
 859:System/scheduler/scheduler.c **** 
 860:System/scheduler/scheduler.c ****         __DSB();
 861:System/scheduler/scheduler.c **** 
 862:System/scheduler/scheduler.c ****         tsk_ptr->State = Task_Stop;
 863:System/scheduler/scheduler.c ****     }
 864:System/scheduler/scheduler.c **** }
 865:System/scheduler/scheduler.c **** 
 866:System/scheduler/scheduler.c **** static void Os_TaskCaller(void)
 867:System/scheduler/scheduler.c **** {
 868:System/scheduler/scheduler.c ****     // if any task in any group is under ready state
 869:System/scheduler/scheduler.c ****     while (true)
 870:System/scheduler/scheduler.c ****     {
 871:System/scheduler/scheduler.c ****         if (NxtRunTsk_Ptr != NULL)
 872:System/scheduler/scheduler.c ****         {
 873:System/scheduler/scheduler.c ****             // execute task function in function matrix
 874:System/scheduler/scheduler.c ****             Os_TaskExec(NxtRunTsk_Ptr);
 875:System/scheduler/scheduler.c **** 
 876:System/scheduler/scheduler.c ****             // erase currnet runnint task pointer
 877:System/scheduler/scheduler.c ****             if (CurRunTsk_Ptr != Idle_Task)
 878:System/scheduler/scheduler.c ****             {
 879:System/scheduler/scheduler.c ****                 CurRunTsk_Ptr = NULL;
 880:System/scheduler/scheduler.c ****             }
 881:System/scheduler/scheduler.c **** 
 882:System/scheduler/scheduler.c ****             // get net task
 883:System/scheduler/scheduler.c ****             Os_SchedulerRun(Get_CurrentRunningUs());
 884:System/scheduler/scheduler.c ****         }
 885:System/scheduler/scheduler.c ****     }
 886:System/scheduler/scheduler.c **** }
 887:System/scheduler/scheduler.c **** 
ARM GAS  /var/folders/lx/hc4sn_b53233_zkc9xbbl97r0000gp/T//ccAkWgSN.s 			page 34


 888:System/scheduler/scheduler.c **** static int Os_TaskCrtList_TraverseCallback(item_obj *item, void *data, void *arg)
 889:System/scheduler/scheduler.c **** {
 951              		.loc 1 889 1 is_stmt 1 view -0
 952              		.cfi_startproc
 953              		@ args = 0, pretend = 0, frame = 0
 954              		@ frame_needed = 0, uses_anonymous_args = 0
 890:System/scheduler/scheduler.c ****     if (data != NULL)
 955              		.loc 1 890 5 view .LVU284
 956              		.loc 1 890 8 is_stmt 0 view .LVU285
 957 0000 C9B1     		cbz	r1, .L82
 889:System/scheduler/scheduler.c ****     if (data != NULL)
 958              		.loc 1 889 1 view .LVU286
 959 0002 10B5     		push	{r4, lr}
 960              	.LCFI16:
 961              		.cfi_def_cfa_offset 8
 962              		.cfi_offset 4, -8
 963              		.cfi_offset 14, -4
 964 0004 0C46     		mov	r4, r1
 891:System/scheduler/scheduler.c ****     {
 892:System/scheduler/scheduler.c ****         // get current highest priority task handler AKA NxtRunTsk_Ptr
 893:System/scheduler/scheduler.c ****         if ((scheduler_state == Scheduler_Start) &&
 965              		.loc 1 893 9 is_stmt 1 view .LVU287
 966              		.loc 1 893 30 is_stmt 0 view .LVU288
 967 0006 0D4B     		ldr	r3, .L86
 968 0008 1B78     		ldrb	r3, [r3]	@ zero_extendqisi2
 969 000a DBB2     		uxtb	r3, r3
 970              		.loc 1 893 12 view .LVU289
 971 000c 022B     		cmp	r3, #2
 972 000e 01D0     		beq	.L85
 973              	.LVL33:
 974              	.L79:
 894:System/scheduler/scheduler.c ****             ((((Task *)data)->State == Task_Ready) ||
 895:System/scheduler/scheduler.c ****              (((Task *)data)->State == Task_Stop) ||
 896:System/scheduler/scheduler.c ****              (((Task *)data)->State == Task_DelayBlock)) &&
 897:System/scheduler/scheduler.c ****             (RuntimeObj_CompareWithCurrent(((Task *)data)->Exec_status.Exec_Time)))
 898:System/scheduler/scheduler.c ****         {
 899:System/scheduler/scheduler.c ****             Os_Set_TaskReady((Task *)data);
 900:System/scheduler/scheduler.c ****         }
 901:System/scheduler/scheduler.c ****     }
 902:System/scheduler/scheduler.c **** 
 903:System/scheduler/scheduler.c ****     return 0;
 975              		.loc 1 903 5 is_stmt 1 view .LVU290
 904:System/scheduler/scheduler.c **** }
 976              		.loc 1 904 1 is_stmt 0 view .LVU291
 977 0010 0020     		movs	r0, #0
 978 0012 10BD     		pop	{r4, pc}
 979              	.LVL34:
 980              	.L85:
 894:System/scheduler/scheduler.c ****             ((((Task *)data)->State == Task_Ready) ||
 981              		.loc 1 894 29 discriminator 1 view .LVU292
 982 0014 0B78     		ldrb	r3, [r1]	@ zero_extendqisi2
 893:System/scheduler/scheduler.c ****             ((((Task *)data)->State == Task_Ready) ||
 983              		.loc 1 893 50 discriminator 1 view .LVU293
 984 0016 032B     		cmp	r3, #3
 985 0018 18BF     		it	ne
 986 001a 012B     		cmpne	r3, #1
 987 001c 01D0     		beq	.L80
ARM GAS  /var/folders/lx/hc4sn_b53233_zkc9xbbl97r0000gp/T//ccAkWgSN.s 			page 35


 895:System/scheduler/scheduler.c ****              (((Task *)data)->State == Task_DelayBlock)) &&
 988              		.loc 1 895 51 view .LVU294
 989 001e 052B     		cmp	r3, #5
 990 0020 F6D1     		bne	.L79
 991              	.L80:
 897:System/scheduler/scheduler.c ****         {
 992              		.loc 1 897 14 view .LVU295
 993 0022 6069     		ldr	r0, [r4, #20]
 994              	.LVL35:
 897:System/scheduler/scheduler.c ****         {
 995              		.loc 1 897 14 view .LVU296
 996 0024 A169     		ldr	r1, [r4, #24]
 997              	.LVL36:
 897:System/scheduler/scheduler.c ****         {
 998              		.loc 1 897 14 view .LVU297
 999 0026 FFF7FEFF 		bl	RuntimeObj_CompareWithCurrent
 1000              	.LVL37:
 896:System/scheduler/scheduler.c ****             (RuntimeObj_CompareWithCurrent(((Task *)data)->Exec_status.Exec_Time)))
 1001              		.loc 1 896 58 view .LVU298
 1002 002a 0028     		cmp	r0, #0
 1003 002c F0D0     		beq	.L79
 899:System/scheduler/scheduler.c ****         }
 1004              		.loc 1 899 13 is_stmt 1 view .LVU299
 1005 002e 2046     		mov	r0, r4
 1006 0030 FFF7FEFF 		bl	Os_Set_TaskReady
 1007              	.LVL38:
 1008 0034 ECE7     		b	.L79
 1009              	.LVL39:
 1010              	.L82:
 1011              	.LCFI17:
 1012              		.cfi_def_cfa_offset 0
 1013              		.cfi_restore 4
 1014              		.cfi_restore 14
 903:System/scheduler/scheduler.c **** }
 1015              		.loc 1 903 5 view .LVU300
 1016              		.loc 1 904 1 is_stmt 0 view .LVU301
 1017 0036 0020     		movs	r0, #0
 1018              	.LVL40:
 1019              		.loc 1 904 1 view .LVU302
 1020 0038 7047     		bx	lr
 1021              	.L87:
 1022 003a 00BF     		.align	2
 1023              	.L86:
 1024 003c 00000000 		.word	.LANCHOR5
 1025              		.cfi_endproc
 1026              	.LFE175:
 1028              		.section	.text.Os_Idle,"ax",%progbits
 1029              		.align	1
 1030              		.syntax unified
 1031              		.thumb
 1032              		.thumb_func
 1033              		.fpu fpv5-d16
 1035              	Os_Idle:
 1036              	.LFB155:
 270:System/scheduler/scheduler.c ****     volatile SYSTEM_RunTime Rt = 0;
 1037              		.loc 1 270 1 is_stmt 1 view -0
 1038              		.cfi_startproc
ARM GAS  /var/folders/lx/hc4sn_b53233_zkc9xbbl97r0000gp/T//ccAkWgSN.s 			page 36


 1039              		@ args = 0, pretend = 0, frame = 8
 1040              		@ frame_needed = 0, uses_anonymous_args = 0
 1041 0000 10B5     		push	{r4, lr}
 1042              	.LCFI18:
 1043              		.cfi_def_cfa_offset 8
 1044              		.cfi_offset 4, -8
 1045              		.cfi_offset 14, -4
 1046 0002 82B0     		sub	sp, sp, #8
 1047              	.LCFI19:
 1048              		.cfi_def_cfa_offset 16
 271:System/scheduler/scheduler.c ****     static volatile uint64_t idle_cnt = 0;
 1049              		.loc 1 271 5 view .LVU304
 271:System/scheduler/scheduler.c ****     static volatile uint64_t idle_cnt = 0;
 1050              		.loc 1 271 29 is_stmt 0 view .LVU305
 1051 0004 0022     		movs	r2, #0
 1052 0006 0023     		movs	r3, #0
 1053 0008 CDE90023 		strd	r2, [sp]
 272:System/scheduler/scheduler.c **** 
 1054              		.loc 1 272 5 is_stmt 1 view .LVU306
 274:System/scheduler/scheduler.c **** 
 1055              		.loc 1 274 5 view .LVU307
 274:System/scheduler/scheduler.c **** 
 1056              		.loc 1 274 14 is_stmt 0 view .LVU308
 1057 000c 114B     		ldr	r3, .L92
 1058 000e 1B68     		ldr	r3, [r3]
 274:System/scheduler/scheduler.c **** 
 1059              		.loc 1 274 22 view .LVU309
 1060 0010 0122     		movs	r2, #1
 1061 0012 1A70     		strb	r2, [r3]
 276:System/scheduler/scheduler.c ****     {
 1062              		.loc 1 276 5 is_stmt 1 view .LVU310
 276:System/scheduler/scheduler.c ****     {
 1063              		.loc 1 276 18 is_stmt 0 view .LVU311
 1064 0014 104B     		ldr	r3, .L92+4
 1065 0016 1B78     		ldrb	r3, [r3]	@ zero_extendqisi2
 276:System/scheduler/scheduler.c ****     {
 1066              		.loc 1 276 8 view .LVU312
 1067 0018 A3B1     		cbz	r3, .L89
 278:System/scheduler/scheduler.c ****         {
 1068              		.loc 1 278 9 is_stmt 1 view .LVU313
 278:System/scheduler/scheduler.c ****         {
 1069              		.loc 1 278 19 is_stmt 0 view .LVU314
 1070 001a FFF7FEFF 		bl	Get_CurrentRunningUs
 1071              	.LVL41:
 278:System/scheduler/scheduler.c ****         {
 1072              		.loc 1 278 16 view .LVU315
 1073 001e DDE90023 		ldrd	r2, [sp]
 278:System/scheduler/scheduler.c ****         {
 1074              		.loc 1 278 12 view .LVU316
 1075 0022 9942     		cmp	r1, r3
 1076 0024 08BF     		it	eq
 1077 0026 9042     		cmpeq	r0, r2
 1078 0028 12D0     		beq	.L88
 280:System/scheduler/scheduler.c ****             idle_cnt++;
 1079              		.loc 1 280 13 is_stmt 1 view .LVU317
 280:System/scheduler/scheduler.c ****             idle_cnt++;
 1080              		.loc 1 280 18 is_stmt 0 view .LVU318
ARM GAS  /var/folders/lx/hc4sn_b53233_zkc9xbbl97r0000gp/T//ccAkWgSN.s 			page 37


 1081 002a FFF7FEFF 		bl	Get_CurrentRunningUs
 1082              	.LVL42:
 280:System/scheduler/scheduler.c ****             idle_cnt++;
 1083              		.loc 1 280 16 view .LVU319
 1084 002e CDE90001 		strd	r0, [sp]
 281:System/scheduler/scheduler.c ****         }
 1085              		.loc 1 281 13 is_stmt 1 view .LVU320
 281:System/scheduler/scheduler.c ****         }
 1086              		.loc 1 281 21 is_stmt 0 view .LVU321
 1087 0032 0A4C     		ldr	r4, .L92+8
 1088 0034 D4E90023 		ldrd	r2, [r4]
 1089 0038 501C     		adds	r0, r2, #1
 1090 003a 43F10001 		adc	r1, r3, #0
 1091 003e C4E90001 		strd	r0, [r4]
 1092 0042 05E0     		b	.L88
 1093              	.L89:
 286:System/scheduler/scheduler.c ****     }
 1094              		.loc 1 286 9 is_stmt 1 view .LVU322
 1095 0044 0023     		movs	r3, #0
 1096 0046 1A46     		mov	r2, r3
 1097 0048 0549     		ldr	r1, .L92+12
 1098 004a 0648     		ldr	r0, .L92+16
 1099 004c FFF7FEFF 		bl	List_traverse
 1100              	.LVL43:
 1101              	.L88:
 288:System/scheduler/scheduler.c **** 
 1102              		.loc 1 288 1 is_stmt 0 view .LVU323
 1103 0050 02B0     		add	sp, sp, #8
 1104              	.LCFI20:
 1105              		.cfi_def_cfa_offset 8
 1106              		@ sp needed
 1107 0052 10BD     		pop	{r4, pc}
 1108              	.L93:
 1109              		.align	2
 1110              	.L92:
 1111 0054 00000000 		.word	.LANCHOR6
 1112 0058 00000000 		.word	.LANCHOR7
 1113 005c 00000000 		.word	.LANCHOR8
 1114 0060 00000000 		.word	Os_Idle_List_TraverseCallback
 1115 0064 04000000 		.word	.LANCHOR7+4
 1116              		.cfi_endproc
 1117              	.LFE155:
 1119              		.section	.text.Os_Set_TaskStk,"ax",%progbits
 1120              		.align	1
 1121              		.syntax unified
 1122              		.thumb
 1123              		.thumb_func
 1124              		.fpu fpv5-d16
 1126              	Os_Set_TaskStk:
 1127              	.LVL44:
 1128              	.LFB150:
 161:System/scheduler/scheduler.c ****     uint32_t *Tsk_Ptr_tmp = NULL;
 1129              		.loc 1 161 1 is_stmt 1 view -0
 1130              		.cfi_startproc
 1131              		@ args = 0, pretend = 0, frame = 0
 1132              		@ frame_needed = 0, uses_anonymous_args = 0
 161:System/scheduler/scheduler.c ****     uint32_t *Tsk_Ptr_tmp = NULL;
ARM GAS  /var/folders/lx/hc4sn_b53233_zkc9xbbl97r0000gp/T//ccAkWgSN.s 			page 38


 1133              		.loc 1 161 1 is_stmt 0 view .LVU325
 1134 0000 10B5     		push	{r4, lr}
 1135              	.LCFI21:
 1136              		.cfi_def_cfa_offset 8
 1137              		.cfi_offset 4, -8
 1138              		.cfi_offset 14, -4
 1139 0002 0446     		mov	r4, r0
 162:System/scheduler/scheduler.c **** 
 1140              		.loc 1 162 5 is_stmt 1 view .LVU326
 1141              	.LVL45:
 164:System/scheduler/scheduler.c **** 
 1142              		.loc 1 164 5 view .LVU327
 164:System/scheduler/scheduler.c **** 
 1143              		.loc 1 164 37 is_stmt 0 view .LVU328
 1144 0004 C26B     		ldr	r2, [r0, #60]
 164:System/scheduler/scheduler.c **** 
 1145              		.loc 1 164 5 view .LVU329
 1146 0006 9200     		lsls	r2, r2, #2
 1147 0008 0021     		movs	r1, #0
 1148 000a 406C     		ldr	r0, [r0, #68]
 1149              	.LVL46:
 164:System/scheduler/scheduler.c **** 
 1150              		.loc 1 164 5 view .LVU330
 1151 000c FFF7FEFF 		bl	memset
 1152              	.LVL47:
 166:System/scheduler/scheduler.c ****     Tsk_Ptr_tmp = (uint32_t *)((uint32_t)(Tsk_Ptr_tmp)&0XFFFFFFF8ul);
 1153              		.loc 1 166 5 is_stmt 1 view .LVU331
 166:System/scheduler/scheduler.c ****     Tsk_Ptr_tmp = (uint32_t *)((uint32_t)(Tsk_Ptr_tmp)&0XFFFFFFF8ul);
 1154              		.loc 1 166 19 is_stmt 0 view .LVU332
 1155 0010 04F14403 		add	r3, r4, #68
 166:System/scheduler/scheduler.c ****     Tsk_Ptr_tmp = (uint32_t *)((uint32_t)(Tsk_Ptr_tmp)&0XFFFFFFF8ul);
 1156              		.loc 1 166 41 view .LVU333
 1157 0014 E16B     		ldr	r1, [r4, #60]
 166:System/scheduler/scheduler.c ****     Tsk_Ptr_tmp = (uint32_t *)((uint32_t)(Tsk_Ptr_tmp)&0XFFFFFFF8ul);
 1158              		.loc 1 166 35 view .LVU334
 1159 0016 6FF04042 		mvn	r2, #-1073741824
 1160 001a 0A44     		add	r2, r2, r1
 166:System/scheduler/scheduler.c ****     Tsk_Ptr_tmp = (uint32_t *)((uint32_t)(Tsk_Ptr_tmp)&0XFFFFFFF8ul);
 1161              		.loc 1 166 17 view .LVU335
 1162 001c 03EB8203 		add	r3, r3, r2, lsl #2
 1163              	.LVL48:
 167:System/scheduler/scheduler.c **** 
 1164              		.loc 1 167 5 is_stmt 1 view .LVU336
 167:System/scheduler/scheduler.c **** 
 1165              		.loc 1 167 55 is_stmt 0 view .LVU337
 1166 0020 23F00703 		bic	r3, r3, #7
 1167              	.LVL49:
 169:System/scheduler/scheduler.c ****     *Tsk_Ptr_tmp = 0x01000000uL; /* xPSR */
 1168              		.loc 1 169 5 is_stmt 1 view .LVU338
 170:System/scheduler/scheduler.c **** 
 1169              		.loc 1 170 5 view .LVU339
 170:System/scheduler/scheduler.c **** 
 1170              		.loc 1 170 18 is_stmt 0 view .LVU340
 1171 0024 4FF08072 		mov	r2, #16777216
 1172 0028 43F8042C 		str	r2, [r3, #-4]
 172:System/scheduler/scheduler.c ****     *Tsk_Ptr_tmp = ((uint32_t)Os_TaskCaller) & 0xfffffffeUL; /* PC */
 1173              		.loc 1 172 5 is_stmt 1 view .LVU341
ARM GAS  /var/folders/lx/hc4sn_b53233_zkc9xbbl97r0000gp/T//ccAkWgSN.s 			page 39


 1174              	.LVL50:
 173:System/scheduler/scheduler.c **** 
 1175              		.loc 1 173 5 view .LVU342
 173:System/scheduler/scheduler.c **** 
 1176              		.loc 1 173 21 is_stmt 0 view .LVU343
 1177 002c 084A     		ldr	r2, .L96
 173:System/scheduler/scheduler.c **** 
 1178              		.loc 1 173 46 view .LVU344
 1179 002e 22F00102 		bic	r2, r2, #1
 173:System/scheduler/scheduler.c **** 
 1180              		.loc 1 173 18 view .LVU345
 1181 0032 43F8082C 		str	r2, [r3, #-8]
 175:System/scheduler/scheduler.c ****     *Tsk_Ptr_tmp = (uint32_t)Os_TaskExit; /* LR */
 1182              		.loc 1 175 5 is_stmt 1 view .LVU346
 1183              	.LVL51:
 176:System/scheduler/scheduler.c **** 
 1184              		.loc 1 176 5 view .LVU347
 176:System/scheduler/scheduler.c **** 
 1185              		.loc 1 176 20 is_stmt 0 view .LVU348
 1186 0036 074A     		ldr	r2, .L96+4
 176:System/scheduler/scheduler.c **** 
 1187              		.loc 1 176 18 view .LVU349
 1188 0038 43F80C2C 		str	r2, [r3, #-12]
 179:System/scheduler/scheduler.c ****     *Tsk_Ptr_tmp = (uint32_t)NULL; /* R0 */
 1189              		.loc 1 179 5 is_stmt 1 view .LVU350
 1190              	.LVL52:
 180:System/scheduler/scheduler.c **** 
 1191              		.loc 1 180 5 view .LVU351
 180:System/scheduler/scheduler.c **** 
 1192              		.loc 1 180 18 is_stmt 0 view .LVU352
 1193 003c 0022     		movs	r2, #0
 1194 003e 43F8202C 		str	r2, [r3, #-32]
 184:System/scheduler/scheduler.c ****     *Tsk_Ptr_tmp = 0xfffffffd;
 1195              		.loc 1 184 5 is_stmt 1 view .LVU353
 1196              	.LVL53:
 185:System/scheduler/scheduler.c **** 
 1197              		.loc 1 185 5 view .LVU354
 185:System/scheduler/scheduler.c **** 
 1198              		.loc 1 185 18 is_stmt 0 view .LVU355
 1199 0042 6FF00202 		mvn	r2, #2
 1200 0046 43F8242C 		str	r2, [r3, #-36]
 187:System/scheduler/scheduler.c **** 
 1201              		.loc 1 187 5 is_stmt 1 view .LVU356
 187:System/scheduler/scheduler.c **** 
 1202              		.loc 1 187 17 is_stmt 0 view .LVU357
 1203 004a 443B     		subs	r3, r3, #68
 1204              	.LVL54:
 190:System/scheduler/scheduler.c **** }
 1205              		.loc 1 190 5 is_stmt 1 view .LVU358
 190:System/scheduler/scheduler.c **** }
 1206              		.loc 1 190 26 is_stmt 0 view .LVU359
 1207 004c 2364     		str	r3, [r4, #64]
 191:System/scheduler/scheduler.c **** 
 1208              		.loc 1 191 1 view .LVU360
 1209 004e 10BD     		pop	{r4, pc}
 1210              	.LVL55:
 1211              	.L97:
ARM GAS  /var/folders/lx/hc4sn_b53233_zkc9xbbl97r0000gp/T//ccAkWgSN.s 			page 40


 191:System/scheduler/scheduler.c **** 
 1212              		.loc 1 191 1 view .LVU361
 1213              		.align	2
 1214              	.L96:
 1215 0050 00000000 		.word	Os_TaskCaller
 1216 0054 00000000 		.word	Os_TaskExit
 1217              		.cfi_endproc
 1218              	.LFE150:
 1220              		.section	.rodata.Os_CreateIdle.str1.4,"aMS",%progbits,1
 1221              		.align	2
 1222              	.LC0:
 1223 0000 49646C65 		.ascii	"Idle\000"
 1223      00
 1224              		.section	.text.Os_CreateIdle,"ax",%progbits
 1225              		.align	1
 1226              		.syntax unified
 1227              		.thumb
 1228              		.thumb_func
 1229              		.fpu fpv5-d16
 1231              	Os_CreateIdle:
 1232              	.LFB158:
 318:System/scheduler/scheduler.c ****     /* for idle task we don`t need priority or other state */
 1233              		.loc 1 318 1 is_stmt 1 view -0
 1234              		.cfi_startproc
 1235              		@ args = 0, pretend = 0, frame = 0
 1236              		@ frame_needed = 0, uses_anonymous_args = 0
 1237 0000 10B5     		push	{r4, lr}
 1238              	.LCFI22:
 1239              		.cfi_def_cfa_offset 8
 1240              		.cfi_offset 4, -8
 1241              		.cfi_offset 14, -4
 320:System/scheduler/scheduler.c **** 
 1242              		.loc 1 320 5 view .LVU363
 320:System/scheduler/scheduler.c **** 
 1243              		.loc 1 320 25 is_stmt 0 view .LVU364
 1244 0002 5020     		movs	r0, #80
 1245 0004 FFF7FEFF 		bl	MMU_Malloc
 1246              	.LVL56:
 320:System/scheduler/scheduler.c **** 
 1247              		.loc 1 320 15 view .LVU365
 1248 0008 104B     		ldr	r3, .L103
 1249 000a 1860     		str	r0, [r3]
 322:System/scheduler/scheduler.c ****         return false;
 1250              		.loc 1 322 5 is_stmt 1 view .LVU366
 322:System/scheduler/scheduler.c ****         return false;
 1251              		.loc 1 322 8 is_stmt 0 view .LVU367
 1252 000c C8B1     		cbz	r0, .L100
 1253 000e 0446     		mov	r4, r0
 325:System/scheduler/scheduler.c ****     Idle_Task->priority = IDLE_TASK_PRIORITY;
 1254              		.loc 1 325 5 is_stmt 1 view .LVU368
 325:System/scheduler/scheduler.c ****     Idle_Task->priority = IDLE_TASK_PRIORITY;
 1255              		.loc 1 325 26 is_stmt 0 view .LVU369
 1256 0010 0F4B     		ldr	r3, .L103+4
 1257 0012 4360     		str	r3, [r0, #4]
 326:System/scheduler/scheduler.c ****     Idle_Task->Exec_Func = Os_Idle;
 1258              		.loc 1 326 5 is_stmt 1 view .LVU370
 326:System/scheduler/scheduler.c ****     Idle_Task->Exec_Func = Os_Idle;
ARM GAS  /var/folders/lx/hc4sn_b53233_zkc9xbbl97r0000gp/T//ccAkWgSN.s 			page 41


 1259              		.loc 1 326 25 is_stmt 0 view .LVU371
 1260 0014 8023     		movs	r3, #128
 1261 0016 4370     		strb	r3, [r0, #1]
 327:System/scheduler/scheduler.c **** 
 1262              		.loc 1 327 5 is_stmt 1 view .LVU372
 327:System/scheduler/scheduler.c **** 
 1263              		.loc 1 327 26 is_stmt 0 view .LVU373
 1264 0018 0E4B     		ldr	r3, .L103+8
 1265 001a 0361     		str	r3, [r0, #16]
 329:System/scheduler/scheduler.c ****     Idle_Task->TCB.Stack = (uint32_t *)MMU_Malloc(IDLE_TASK_STACK * sizeof(uint32_t));
 1266              		.loc 1 329 5 is_stmt 1 view .LVU374
 329:System/scheduler/scheduler.c ****     Idle_Task->TCB.Stack = (uint32_t *)MMU_Malloc(IDLE_TASK_STACK * sizeof(uint32_t));
 1267              		.loc 1 329 28 is_stmt 0 view .LVU375
 1268 001c 4FF48063 		mov	r3, #1024
 1269 0020 C363     		str	r3, [r0, #60]
 330:System/scheduler/scheduler.c **** 
 1270              		.loc 1 330 5 is_stmt 1 view .LVU376
 330:System/scheduler/scheduler.c **** 
 1271              		.loc 1 330 40 is_stmt 0 view .LVU377
 1272 0022 4FF48050 		mov	r0, #4096
 1273 0026 FFF7FEFF 		bl	MMU_Malloc
 1274              	.LVL57:
 330:System/scheduler/scheduler.c **** 
 1275              		.loc 1 330 26 view .LVU378
 1276 002a 6064     		str	r0, [r4, #68]
 332:System/scheduler/scheduler.c ****     {
 1277              		.loc 1 332 5 is_stmt 1 view .LVU379
 332:System/scheduler/scheduler.c ****     {
 1278              		.loc 1 332 18 is_stmt 0 view .LVU380
 1279 002c 074B     		ldr	r3, .L103
 1280 002e 1868     		ldr	r0, [r3]
 332:System/scheduler/scheduler.c ****     {
 1281              		.loc 1 332 23 view .LVU381
 1282 0030 436C     		ldr	r3, [r0, #68]
 332:System/scheduler/scheduler.c ****     {
 1283              		.loc 1 332 8 view .LVU382
 1284 0032 43B1     		cbz	r3, .L101
 334:System/scheduler/scheduler.c ****     }
 1285              		.loc 1 334 9 is_stmt 1 view .LVU383
 1286 0034 FFF7FEFF 		bl	Os_Set_TaskStk
 1287              	.LVL58:
 339:System/scheduler/scheduler.c **** 
 1288              		.loc 1 339 5 view .LVU384
 339:System/scheduler/scheduler.c **** 
 1289              		.loc 1 339 19 is_stmt 0 view .LVU385
 1290 0038 074B     		ldr	r3, .L103+12
 1291 003a 0022     		movs	r2, #0
 1292 003c 1A70     		strb	r2, [r3]
 341:System/scheduler/scheduler.c **** }
 1293              		.loc 1 341 5 is_stmt 1 view .LVU386
 341:System/scheduler/scheduler.c **** }
 1294              		.loc 1 341 12 is_stmt 0 view .LVU387
 1295 003e 0120     		movs	r0, #1
 1296              	.L99:
 342:System/scheduler/scheduler.c **** 
 1297              		.loc 1 342 1 view .LVU388
 1298 0040 10BD     		pop	{r4, pc}
ARM GAS  /var/folders/lx/hc4sn_b53233_zkc9xbbl97r0000gp/T//ccAkWgSN.s 			page 42


 1299              	.L100:
 323:System/scheduler/scheduler.c **** 
 1300              		.loc 1 323 16 view .LVU389
 1301 0042 0020     		movs	r0, #0
 1302 0044 FCE7     		b	.L99
 1303              	.L101:
 337:System/scheduler/scheduler.c **** 
 1304              		.loc 1 337 16 view .LVU390
 1305 0046 0020     		movs	r0, #0
 1306 0048 FAE7     		b	.L99
 1307              	.L104:
 1308 004a 00BF     		.align	2
 1309              	.L103:
 1310 004c 00000000 		.word	.LANCHOR6
 1311 0050 00000000 		.word	.LC0
 1312 0054 00000000 		.word	Os_Idle
 1313 0058 00000000 		.word	.LANCHOR7
 1314              		.cfi_endproc
 1315              	.LFE158:
 1317              		.global	__aeabi_ul2f
 1318              		.section	.text.Os_TaskExec,"ax",%progbits
 1319              		.align	1
 1320              		.syntax unified
 1321              		.thumb
 1322              		.thumb_func
 1323              		.fpu fpv5-d16
 1325              	Os_TaskExec:
 1326              	.LVL59:
 1327              	.LFB173:
 792:System/scheduler/scheduler.c ****     volatile SYSTEM_RunTime time_diff;
 1328              		.loc 1 792 1 is_stmt 1 view -0
 1329              		.cfi_startproc
 1330              		@ args = 0, pretend = 0, frame = 24
 1331              		@ frame_needed = 0, uses_anonymous_args = 0
 792:System/scheduler/scheduler.c ****     volatile SYSTEM_RunTime time_diff;
 1332              		.loc 1 792 1 is_stmt 0 view .LVU392
 1333 0000 D0B5     		push	{r4, r6, r7, lr}
 1334              	.LCFI23:
 1335              		.cfi_def_cfa_offset 16
 1336              		.cfi_offset 4, -16
 1337              		.cfi_offset 6, -12
 1338              		.cfi_offset 7, -8
 1339              		.cfi_offset 14, -4
 1340 0002 2DED028B 		vpush.64	{d8}
 1341              	.LCFI24:
 1342              		.cfi_def_cfa_offset 24
 1343              		.cfi_offset 80, -24
 1344              		.cfi_offset 81, -20
 1345 0006 86B0     		sub	sp, sp, #24
 1346              	.LCFI25:
 1347              		.cfi_def_cfa_offset 48
 1348 0008 0446     		mov	r4, r0
 793:System/scheduler/scheduler.c ****     volatile int64_t interval;
 1349              		.loc 1 793 5 is_stmt 1 view .LVU393
 794:System/scheduler/scheduler.c ****     volatile SYSTEM_RunTime func_cast;
 1350              		.loc 1 794 5 view .LVU394
 795:System/scheduler/scheduler.c ****     RuntimeObj_Reset(&time_diff);
ARM GAS  /var/folders/lx/hc4sn_b53233_zkc9xbbl97r0000gp/T//ccAkWgSN.s 			page 43


 1351              		.loc 1 795 5 view .LVU395
 796:System/scheduler/scheduler.c **** 
 1352              		.loc 1 796 5 view .LVU396
 1353 000a 04A8     		add	r0, sp, #16
 1354              	.LVL60:
 796:System/scheduler/scheduler.c **** 
 1355              		.loc 1 796 5 is_stmt 0 view .LVU397
 1356 000c FFF7FEFF 		bl	RuntimeObj_Reset
 1357              	.LVL61:
 798:System/scheduler/scheduler.c ****     {
 1358              		.loc 1 798 5 is_stmt 1 view .LVU398
 798:System/scheduler/scheduler.c ****     {
 1359              		.loc 1 798 16 is_stmt 0 view .LVU399
 1360 0010 2378     		ldrb	r3, [r4]	@ zero_extendqisi2
 798:System/scheduler/scheduler.c ****     {
 1361              		.loc 1 798 8 view .LVU400
 1362 0012 012B     		cmp	r3, #1
 1363 0014 03D0     		beq	.L112
 1364              	.L105:
 864:System/scheduler/scheduler.c **** 
 1365              		.loc 1 864 1 view .LVU401
 1366 0016 06B0     		add	sp, sp, #24
 1367              	.LCFI26:
 1368              		.cfi_remember_state
 1369              		.cfi_def_cfa_offset 24
 1370              		@ sp needed
 1371 0018 BDEC028B 		vldm	sp!, {d8}
 1372              	.LCFI27:
 1373              		.cfi_restore 80
 1374              		.cfi_restore 81
 1375              		.cfi_def_cfa_offset 16
 1376 001c D0BD     		pop	{r4, r6, r7, pc}
 1377              	.LVL62:
 1378              	.L112:
 1379              	.LCFI28:
 1380              		.cfi_restore_state
 800:System/scheduler/scheduler.c **** 
 1381              		.loc 1 800 9 is_stmt 1 view .LVU402
 800:System/scheduler/scheduler.c **** 
 1382              		.loc 1 800 33 is_stmt 0 view .LVU403
 1383 001e 0023     		movs	r3, #0
 1384 0020 A364     		str	r3, [r4, #72]
 804:System/scheduler/scheduler.c **** 
 1385              		.loc 1 804 9 is_stmt 1 view .LVU404
 1386 0022 2046     		mov	r0, r4
 1387 0024 FFF7FEFF 		bl	Os_Clr_TaskReady
 1388              	.LVL63:
 807:System/scheduler/scheduler.c **** 
 1389              		.loc 1 807 9 view .LVU405
 807:System/scheduler/scheduler.c **** 
 1390              		.loc 1 807 23 is_stmt 0 view .LVU406
 1391 0028 454B     		ldr	r3, .L115
 1392 002a 1C60     		str	r4, [r3]
 809:System/scheduler/scheduler.c ****         {
 1393              		.loc 1 809 9 is_stmt 1 view .LVU407
 809:System/scheduler/scheduler.c ****         {
 1394              		.loc 1 809 34 is_stmt 0 view .LVU408
ARM GAS  /var/folders/lx/hc4sn_b53233_zkc9xbbl97r0000gp/T//ccAkWgSN.s 			page 44


 1395 002c A36A     		ldr	r3, [r4, #40]
 809:System/scheduler/scheduler.c ****         {
 1396              		.loc 1 809 12 view .LVU409
 1397 002e 4BB9     		cbnz	r3, .L107
 809:System/scheduler/scheduler.c ****         {
 1398              		.loc 1 809 62 discriminator 1 view .LVU410
 1399 0030 444B     		ldr	r3, .L115+4
 1400 0032 1B68     		ldr	r3, [r3]
 809:System/scheduler/scheduler.c ****         {
 1401              		.loc 1 809 50 discriminator 1 view .LVU411
 1402 0034 A342     		cmp	r3, r4
 1403 0036 05D0     		beq	.L107
 811:System/scheduler/scheduler.c ****             tsk_ptr->Exec_status.Exec_Time = tsk_ptr->Exec_status.Start_Time;
 1404              		.loc 1 811 13 is_stmt 1 view .LVU412
 811:System/scheduler/scheduler.c ****             tsk_ptr->Exec_status.Exec_Time = tsk_ptr->Exec_status.Start_Time;
 1405              		.loc 1 811 47 is_stmt 0 view .LVU413
 1406 0038 FFF7FEFF 		bl	Get_CurrentRunningUs
 1407              	.LVL64:
 811:System/scheduler/scheduler.c ****             tsk_ptr->Exec_status.Exec_Time = tsk_ptr->Exec_status.Start_Time;
 1408              		.loc 1 811 45 view .LVU414
 1409 003c E061     		str	r0, [r4, #28]
 1410 003e 2162     		str	r1, [r4, #32]
 812:System/scheduler/scheduler.c ****         }
 1411              		.loc 1 812 13 is_stmt 1 view .LVU415
 812:System/scheduler/scheduler.c ****         }
 1412              		.loc 1 812 44 is_stmt 0 view .LVU416
 1413 0040 6061     		str	r0, [r4, #20]
 1414 0042 A161     		str	r1, [r4, #24]
 1415              	.L107:
 815:System/scheduler/scheduler.c ****         {
 1416              		.loc 1 815 9 is_stmt 1 view .LVU417
 815:System/scheduler/scheduler.c ****         {
 1417              		.loc 1 815 20 is_stmt 0 view .LVU418
 1418 0044 2369     		ldr	r3, [r4, #16]
 815:System/scheduler/scheduler.c ****         {
 1419              		.loc 1 815 12 view .LVU419
 1420 0046 002B     		cmp	r3, #0
 1421 0048 66D0     		beq	.L108
 817:System/scheduler/scheduler.c **** 
 1422              		.loc 1 817 13 is_stmt 1 view .LVU420
 817:System/scheduler/scheduler.c **** 
 1423              		.loc 1 817 31 is_stmt 0 view .LVU421
 1424 004a A289     		ldrh	r2, [r4, #12]
 1425 004c 0023     		movs	r3, #0
 817:System/scheduler/scheduler.c **** 
 1426              		.loc 1 817 22 view .LVU422
 1427 004e CDE90223 		strd	r2, [sp, #8]
 819:System/scheduler/scheduler.c **** 
 1428              		.loc 1 819 13 is_stmt 1 view .LVU423
 819:System/scheduler/scheduler.c **** 
 1429              		.loc 1 819 28 is_stmt 0 view .LVU424
 1430 0052 0223     		movs	r3, #2
 1431 0054 2370     		strb	r3, [r4]
 821:System/scheduler/scheduler.c ****             // execute task funtion
 1432              		.loc 1 821 13 is_stmt 1 view .LVU425
 821:System/scheduler/scheduler.c ****             // execute task funtion
 1433              		.loc 1 821 25 is_stmt 0 view .LVU426
ARM GAS  /var/folders/lx/hc4sn_b53233_zkc9xbbl97r0000gp/T//ccAkWgSN.s 			page 45


 1434 0056 FFF7FEFF 		bl	Get_CurrentRunningUs
 1435              	.LVL65:
 821:System/scheduler/scheduler.c ****             // execute task funtion
 1436              		.loc 1 821 23 view .LVU427
 1437 005a CDE90001 		strd	r0, [sp]
 823:System/scheduler/scheduler.c ****             func_cast = Get_CurrentRunningUs() - func_cast;
 1438              		.loc 1 823 13 is_stmt 1 view .LVU428
 823:System/scheduler/scheduler.c ****             func_cast = Get_CurrentRunningUs() - func_cast;
 1439              		.loc 1 823 20 is_stmt 0 view .LVU429
 1440 005e 2369     		ldr	r3, [r4, #16]
 823:System/scheduler/scheduler.c ****             func_cast = Get_CurrentRunningUs() - func_cast;
 1441              		.loc 1 823 13 view .LVU430
 1442 0060 2046     		mov	r0, r4
 1443 0062 9847     		blx	r3
 1444              	.LVL66:
 824:System/scheduler/scheduler.c **** 
 1445              		.loc 1 824 13 is_stmt 1 view .LVU431
 824:System/scheduler/scheduler.c **** 
 1446              		.loc 1 824 25 is_stmt 0 view .LVU432
 1447 0064 FFF7FEFF 		bl	Get_CurrentRunningUs
 1448              	.LVL67:
 824:System/scheduler/scheduler.c **** 
 1449              		.loc 1 824 48 view .LVU433
 1450 0068 DDE90067 		ldrd	r6, [sp]
 1451 006c 821B     		subs	r2, r0, r6
 1452 006e 61EB0703 		sbc	r3, r1, r7
 824:System/scheduler/scheduler.c **** 
 1453              		.loc 1 824 23 view .LVU434
 1454 0072 CDE90023 		strd	r2, [sp]
 826:System/scheduler/scheduler.c **** 
 1455              		.loc 1 826 13 is_stmt 1 view .LVU435
 1456 0076 DDE90001 		ldrd	r0, [sp]
 826:System/scheduler/scheduler.c **** 
 1457              		.loc 1 826 22 is_stmt 0 view .LVU436
 1458 007a DDE90267 		ldrd	r6, [sp, #8]
 1459 007e 321A     		subs	r2, r6, r0
 1460 0080 67EB0103 		sbc	r3, r7, r1
 1461 0084 CDE90223 		strd	r2, [sp, #8]
 828:System/scheduler/scheduler.c ****             {
 1462              		.loc 1 828 13 is_stmt 1 view .LVU437
 828:System/scheduler/scheduler.c ****             {
 1463              		.loc 1 828 26 is_stmt 0 view .LVU438
 1464 0088 DDE90223 		ldrd	r2, [sp, #8]
 828:System/scheduler/scheduler.c ****             {
 1465              		.loc 1 828 16 view .LVU439
 1466 008c 012A     		cmp	r2, #1
 1467 008e 73F10003 		sbcs	r3, r3, #0
 1468 0092 3CDB     		blt	.L113
 1469              	.L109:
 839:System/scheduler/scheduler.c ****             return;
 1470              		.loc 1 839 9 is_stmt 1 view .LVU440
 839:System/scheduler/scheduler.c ****             return;
 1471              		.loc 1 839 21 is_stmt 0 view .LVU441
 1472 0094 2B4B     		ldr	r3, .L115+4
 1473 0096 1B68     		ldr	r3, [r3]
 839:System/scheduler/scheduler.c ****             return;
 1474              		.loc 1 839 12 view .LVU442
ARM GAS  /var/folders/lx/hc4sn_b53233_zkc9xbbl97r0000gp/T//ccAkWgSN.s 			page 46


 1475 0098 A342     		cmp	r3, r4
 1476 009a BCD0     		beq	.L105
 843:System/scheduler/scheduler.c **** 
 1477              		.loc 1 843 9 is_stmt 1 view .LVU443
 843:System/scheduler/scheduler.c **** 
 1478              		.loc 1 843 29 is_stmt 0 view .LVU444
 1479 009c A36A     		ldr	r3, [r4, #40]
 843:System/scheduler/scheduler.c **** 
 1480              		.loc 1 843 38 view .LVU445
 1481 009e 0133     		adds	r3, r3, #1
 1482 00a0 A362     		str	r3, [r4, #40]
 846:System/scheduler/scheduler.c ****         time_diff = Get_TimeDifference_Between(tsk_ptr->Exec_status.Start_Time, tsk_ptr->Exec_statu
 1483              		.loc 1 846 9 is_stmt 1 view .LVU446
 846:System/scheduler/scheduler.c ****         time_diff = Get_TimeDifference_Between(tsk_ptr->Exec_status.Start_Time, tsk_ptr->Exec_statu
 1484              		.loc 1 846 53 is_stmt 0 view .LVU447
 1485 00a2 A16C     		ldr	r1, [r4, #72]
 846:System/scheduler/scheduler.c ****         time_diff = Get_TimeDifference_Between(tsk_ptr->Exec_status.Start_Time, tsk_ptr->Exec_statu
 1486              		.loc 1 846 43 view .LVU448
 1487 00a4 236B     		ldr	r3, [r4, #48]
 1488 00a6 626B     		ldr	r2, [r4, #52]
 1489 00a8 5B18     		adds	r3, r3, r1
 1490 00aa 42F10002 		adc	r2, r2, #0
 1491 00ae 2363     		str	r3, [r4, #48]
 1492 00b0 6263     		str	r2, [r4, #52]
 847:System/scheduler/scheduler.c ****         // tsk_ptr->Exec_status.Exec_Time = Get_TargetRunTime(tsk_ptr->exec_interval_us);
 1493              		.loc 1 847 9 is_stmt 1 view .LVU449
 847:System/scheduler/scheduler.c ****         // tsk_ptr->Exec_status.Exec_Time = Get_TargetRunTime(tsk_ptr->exec_interval_us);
 1494              		.loc 1 847 21 is_stmt 0 view .LVU450
 1495 00b2 6269     		ldr	r2, [r4, #20]
 1496 00b4 A369     		ldr	r3, [r4, #24]
 1497 00b6 E069     		ldr	r0, [r4, #28]
 1498 00b8 216A     		ldr	r1, [r4, #32]
 1499 00ba FFF7FEFF 		bl	Get_TimeDifference_Between
 1500              	.LVL68:
 847:System/scheduler/scheduler.c ****         // tsk_ptr->Exec_status.Exec_Time = Get_TargetRunTime(tsk_ptr->exec_interval_us);
 1501              		.loc 1 847 19 view .LVU451
 1502 00be CDE90401 		strd	r0, [sp, #16]
 849:System/scheduler/scheduler.c **** 
 1503              		.loc 1 849 9 is_stmt 1 view .LVU452
 849:System/scheduler/scheduler.c **** 
 1504              		.loc 1 849 42 is_stmt 0 view .LVU453
 1505 00c2 DDE90201 		ldrd	r0, [sp, #8]
 1506 00c6 80B2     		uxth	r0, r0
 1507 00c8 FFF7FEFF 		bl	Get_TargetRunTime
 1508              	.LVL69:
 849:System/scheduler/scheduler.c **** 
 1509              		.loc 1 849 40 view .LVU454
 1510 00cc 6061     		str	r0, [r4, #20]
 1511 00ce A161     		str	r1, [r4, #24]
 851:System/scheduler/scheduler.c ****         tsk_ptr->Exec_status.cpu_opy *= 100;
 1512              		.loc 1 851 9 is_stmt 1 view .LVU455
 851:System/scheduler/scheduler.c ****         tsk_ptr->Exec_status.cpu_opy *= 100;
 1513              		.loc 1 851 60 is_stmt 0 view .LVU456
 1514 00d0 276B     		ldr	r7, [r4, #48]
 1515 00d2 666B     		ldr	r6, [r4, #52]
 851:System/scheduler/scheduler.c ****         tsk_ptr->Exec_status.cpu_opy *= 100;
 1516              		.loc 1 851 76 view .LVU457
ARM GAS  /var/folders/lx/hc4sn_b53233_zkc9xbbl97r0000gp/T//ccAkWgSN.s 			page 47


 1517 00d4 DDE90401 		ldrd	r0, [sp, #16]
 1518 00d8 FFF7FEFF 		bl	__aeabi_ul2f
 1519              	.LVL70:
 1520 00dc 08EE100A 		vmov	s16, r0
 851:System/scheduler/scheduler.c ****         tsk_ptr->Exec_status.cpu_opy *= 100;
 1521              		.loc 1 851 74 view .LVU458
 1522 00e0 3846     		mov	r0, r7
 1523 00e2 3146     		mov	r1, r6
 1524 00e4 FFF7FEFF 		bl	__aeabi_ul2f
 1525              	.LVL71:
 1526 00e8 07EE100A 		vmov	s14, r0
 1527 00ec C7EE087A 		vdiv.f32	s15, s14, s16
 851:System/scheduler/scheduler.c ****         tsk_ptr->Exec_status.cpu_opy *= 100;
 1528              		.loc 1 851 38 view .LVU459
 1529 00f0 C4ED0E7A 		vstr.32	s15, [r4, #56]
 852:System/scheduler/scheduler.c **** 
 1530              		.loc 1 852 9 is_stmt 1 view .LVU460
 852:System/scheduler/scheduler.c **** 
 1531              		.loc 1 852 38 is_stmt 0 view .LVU461
 1532 00f4 9FED147A 		vldr.32	s14, .L115+8
 1533 00f8 67EE877A 		vmul.f32	s15, s15, s14
 1534 00fc C4ED0E7A 		vstr.32	s15, [r4, #56]
 855:System/scheduler/scheduler.c ****         {
 1535              		.loc 1 855 9 is_stmt 1 view .LVU462
 855:System/scheduler/scheduler.c ****         {
 1536              		.loc 1 855 33 is_stmt 0 view .LVU463
 1537 0100 A66A     		ldr	r6, [r4, #40]
 855:System/scheduler/scheduler.c ****         {
 1538              		.loc 1 855 12 view .LVU464
 1539 0102 66B9     		cbnz	r6, .L114
 1540              	.L110:
 860:System/scheduler/scheduler.c **** 
 1541              		.loc 1 860 9 is_stmt 1 view .LVU465
 1542              	.LBB4:
 1543              	.LBI4:
 1544              		.file 2 "HAL_Lib/CMSIS/Core/Include/cmsis_gcc.h"
   1:HAL_Lib/CMSIS/Core/Include/cmsis_gcc.h **** /**************************************************************************//**
   2:HAL_Lib/CMSIS/Core/Include/cmsis_gcc.h ****  * @file     cmsis_gcc.h
   3:HAL_Lib/CMSIS/Core/Include/cmsis_gcc.h ****  * @brief    CMSIS compiler GCC header file
   4:HAL_Lib/CMSIS/Core/Include/cmsis_gcc.h ****  * @version  V5.2.0
   5:HAL_Lib/CMSIS/Core/Include/cmsis_gcc.h ****  * @date     08. May 2019
   6:HAL_Lib/CMSIS/Core/Include/cmsis_gcc.h ****  ******************************************************************************/
   7:HAL_Lib/CMSIS/Core/Include/cmsis_gcc.h **** /*
   8:HAL_Lib/CMSIS/Core/Include/cmsis_gcc.h ****  * Copyright (c) 2009-2019 Arm Limited. All rights reserved.
   9:HAL_Lib/CMSIS/Core/Include/cmsis_gcc.h ****  *
  10:HAL_Lib/CMSIS/Core/Include/cmsis_gcc.h ****  * SPDX-License-Identifier: Apache-2.0
  11:HAL_Lib/CMSIS/Core/Include/cmsis_gcc.h ****  *
  12:HAL_Lib/CMSIS/Core/Include/cmsis_gcc.h ****  * Licensed under the Apache License, Version 2.0 (the License); you may
  13:HAL_Lib/CMSIS/Core/Include/cmsis_gcc.h ****  * not use this file except in compliance with the License.
  14:HAL_Lib/CMSIS/Core/Include/cmsis_gcc.h ****  * You may obtain a copy of the License at
  15:HAL_Lib/CMSIS/Core/Include/cmsis_gcc.h ****  *
  16:HAL_Lib/CMSIS/Core/Include/cmsis_gcc.h ****  * www.apache.org/licenses/LICENSE-2.0
  17:HAL_Lib/CMSIS/Core/Include/cmsis_gcc.h ****  *
  18:HAL_Lib/CMSIS/Core/Include/cmsis_gcc.h ****  * Unless required by applicable law or agreed to in writing, software
  19:HAL_Lib/CMSIS/Core/Include/cmsis_gcc.h ****  * distributed under the License is distributed on an AS IS BASIS, WITHOUT
  20:HAL_Lib/CMSIS/Core/Include/cmsis_gcc.h ****  * WARRANTIES OR CONDITIONS OF ANY KIND, either express or implied.
  21:HAL_Lib/CMSIS/Core/Include/cmsis_gcc.h ****  * See the License for the specific language governing permissions and
ARM GAS  /var/folders/lx/hc4sn_b53233_zkc9xbbl97r0000gp/T//ccAkWgSN.s 			page 48


  22:HAL_Lib/CMSIS/Core/Include/cmsis_gcc.h ****  * limitations under the License.
  23:HAL_Lib/CMSIS/Core/Include/cmsis_gcc.h ****  */
  24:HAL_Lib/CMSIS/Core/Include/cmsis_gcc.h **** 
  25:HAL_Lib/CMSIS/Core/Include/cmsis_gcc.h **** #ifndef __CMSIS_GCC_H
  26:HAL_Lib/CMSIS/Core/Include/cmsis_gcc.h **** #define __CMSIS_GCC_H
  27:HAL_Lib/CMSIS/Core/Include/cmsis_gcc.h **** 
  28:HAL_Lib/CMSIS/Core/Include/cmsis_gcc.h **** /* ignore some GCC warnings */
  29:HAL_Lib/CMSIS/Core/Include/cmsis_gcc.h **** #pragma GCC diagnostic push
  30:HAL_Lib/CMSIS/Core/Include/cmsis_gcc.h **** #pragma GCC diagnostic ignored "-Wsign-conversion"
  31:HAL_Lib/CMSIS/Core/Include/cmsis_gcc.h **** #pragma GCC diagnostic ignored "-Wconversion"
  32:HAL_Lib/CMSIS/Core/Include/cmsis_gcc.h **** #pragma GCC diagnostic ignored "-Wunused-parameter"
  33:HAL_Lib/CMSIS/Core/Include/cmsis_gcc.h **** 
  34:HAL_Lib/CMSIS/Core/Include/cmsis_gcc.h **** /* Fallback for __has_builtin */
  35:HAL_Lib/CMSIS/Core/Include/cmsis_gcc.h **** #ifndef __has_builtin
  36:HAL_Lib/CMSIS/Core/Include/cmsis_gcc.h ****   #define __has_builtin(x) (0)
  37:HAL_Lib/CMSIS/Core/Include/cmsis_gcc.h **** #endif
  38:HAL_Lib/CMSIS/Core/Include/cmsis_gcc.h **** 
  39:HAL_Lib/CMSIS/Core/Include/cmsis_gcc.h **** /* CMSIS compiler specific defines */
  40:HAL_Lib/CMSIS/Core/Include/cmsis_gcc.h **** #ifndef   __ASM
  41:HAL_Lib/CMSIS/Core/Include/cmsis_gcc.h ****   #define __ASM                                  __asm
  42:HAL_Lib/CMSIS/Core/Include/cmsis_gcc.h **** #endif
  43:HAL_Lib/CMSIS/Core/Include/cmsis_gcc.h **** #ifndef   __INLINE
  44:HAL_Lib/CMSIS/Core/Include/cmsis_gcc.h ****   #define __INLINE                               inline
  45:HAL_Lib/CMSIS/Core/Include/cmsis_gcc.h **** #endif
  46:HAL_Lib/CMSIS/Core/Include/cmsis_gcc.h **** #ifndef   __STATIC_INLINE
  47:HAL_Lib/CMSIS/Core/Include/cmsis_gcc.h ****   #define __STATIC_INLINE                        static inline
  48:HAL_Lib/CMSIS/Core/Include/cmsis_gcc.h **** #endif
  49:HAL_Lib/CMSIS/Core/Include/cmsis_gcc.h **** #ifndef   __STATIC_FORCEINLINE                 
  50:HAL_Lib/CMSIS/Core/Include/cmsis_gcc.h ****   #define __STATIC_FORCEINLINE                   __attribute__((always_inline)) static inline
  51:HAL_Lib/CMSIS/Core/Include/cmsis_gcc.h **** #endif                                           
  52:HAL_Lib/CMSIS/Core/Include/cmsis_gcc.h **** #ifndef   __NO_RETURN
  53:HAL_Lib/CMSIS/Core/Include/cmsis_gcc.h ****   #define __NO_RETURN                            __attribute__((__noreturn__))
  54:HAL_Lib/CMSIS/Core/Include/cmsis_gcc.h **** #endif
  55:HAL_Lib/CMSIS/Core/Include/cmsis_gcc.h **** #ifndef   __USED
  56:HAL_Lib/CMSIS/Core/Include/cmsis_gcc.h ****   #define __USED                                 __attribute__((used))
  57:HAL_Lib/CMSIS/Core/Include/cmsis_gcc.h **** #endif
  58:HAL_Lib/CMSIS/Core/Include/cmsis_gcc.h **** #ifndef   __WEAK
  59:HAL_Lib/CMSIS/Core/Include/cmsis_gcc.h ****   #define __WEAK                                 __attribute__((weak))
  60:HAL_Lib/CMSIS/Core/Include/cmsis_gcc.h **** #endif
  61:HAL_Lib/CMSIS/Core/Include/cmsis_gcc.h **** #ifndef   __PACKED
  62:HAL_Lib/CMSIS/Core/Include/cmsis_gcc.h ****   #define __PACKED                               __attribute__((packed, aligned(1)))
  63:HAL_Lib/CMSIS/Core/Include/cmsis_gcc.h **** #endif
  64:HAL_Lib/CMSIS/Core/Include/cmsis_gcc.h **** #ifndef   __PACKED_STRUCT
  65:HAL_Lib/CMSIS/Core/Include/cmsis_gcc.h ****   #define __PACKED_STRUCT                        struct __attribute__((packed, aligned(1)))
  66:HAL_Lib/CMSIS/Core/Include/cmsis_gcc.h **** #endif
  67:HAL_Lib/CMSIS/Core/Include/cmsis_gcc.h **** #ifndef   __PACKED_UNION
  68:HAL_Lib/CMSIS/Core/Include/cmsis_gcc.h ****   #define __PACKED_UNION                         union __attribute__((packed, aligned(1)))
  69:HAL_Lib/CMSIS/Core/Include/cmsis_gcc.h **** #endif
  70:HAL_Lib/CMSIS/Core/Include/cmsis_gcc.h **** #ifndef   __UNALIGNED_UINT32        /* deprecated */
  71:HAL_Lib/CMSIS/Core/Include/cmsis_gcc.h ****   #pragma GCC diagnostic push
  72:HAL_Lib/CMSIS/Core/Include/cmsis_gcc.h ****   #pragma GCC diagnostic ignored "-Wpacked"
  73:HAL_Lib/CMSIS/Core/Include/cmsis_gcc.h ****   #pragma GCC diagnostic ignored "-Wattributes"
  74:HAL_Lib/CMSIS/Core/Include/cmsis_gcc.h ****   struct __attribute__((packed)) T_UINT32 { uint32_t v; };
  75:HAL_Lib/CMSIS/Core/Include/cmsis_gcc.h ****   #pragma GCC diagnostic pop
  76:HAL_Lib/CMSIS/Core/Include/cmsis_gcc.h ****   #define __UNALIGNED_UINT32(x)                  (((struct T_UINT32 *)(x))->v)
  77:HAL_Lib/CMSIS/Core/Include/cmsis_gcc.h **** #endif
  78:HAL_Lib/CMSIS/Core/Include/cmsis_gcc.h **** #ifndef   __UNALIGNED_UINT16_WRITE
ARM GAS  /var/folders/lx/hc4sn_b53233_zkc9xbbl97r0000gp/T//ccAkWgSN.s 			page 49


  79:HAL_Lib/CMSIS/Core/Include/cmsis_gcc.h ****   #pragma GCC diagnostic push
  80:HAL_Lib/CMSIS/Core/Include/cmsis_gcc.h ****   #pragma GCC diagnostic ignored "-Wpacked"
  81:HAL_Lib/CMSIS/Core/Include/cmsis_gcc.h ****   #pragma GCC diagnostic ignored "-Wattributes"
  82:HAL_Lib/CMSIS/Core/Include/cmsis_gcc.h ****   __PACKED_STRUCT T_UINT16_WRITE { uint16_t v; };
  83:HAL_Lib/CMSIS/Core/Include/cmsis_gcc.h ****   #pragma GCC diagnostic pop
  84:HAL_Lib/CMSIS/Core/Include/cmsis_gcc.h ****   #define __UNALIGNED_UINT16_WRITE(addr, val)    (void)((((struct T_UINT16_WRITE *)(void *)(addr))-
  85:HAL_Lib/CMSIS/Core/Include/cmsis_gcc.h **** #endif
  86:HAL_Lib/CMSIS/Core/Include/cmsis_gcc.h **** #ifndef   __UNALIGNED_UINT16_READ
  87:HAL_Lib/CMSIS/Core/Include/cmsis_gcc.h ****   #pragma GCC diagnostic push
  88:HAL_Lib/CMSIS/Core/Include/cmsis_gcc.h ****   #pragma GCC diagnostic ignored "-Wpacked"
  89:HAL_Lib/CMSIS/Core/Include/cmsis_gcc.h ****   #pragma GCC diagnostic ignored "-Wattributes"
  90:HAL_Lib/CMSIS/Core/Include/cmsis_gcc.h ****   __PACKED_STRUCT T_UINT16_READ { uint16_t v; };
  91:HAL_Lib/CMSIS/Core/Include/cmsis_gcc.h ****   #pragma GCC diagnostic pop
  92:HAL_Lib/CMSIS/Core/Include/cmsis_gcc.h ****   #define __UNALIGNED_UINT16_READ(addr)          (((const struct T_UINT16_READ *)(const void *)(add
  93:HAL_Lib/CMSIS/Core/Include/cmsis_gcc.h **** #endif
  94:HAL_Lib/CMSIS/Core/Include/cmsis_gcc.h **** #ifndef   __UNALIGNED_UINT32_WRITE
  95:HAL_Lib/CMSIS/Core/Include/cmsis_gcc.h ****   #pragma GCC diagnostic push
  96:HAL_Lib/CMSIS/Core/Include/cmsis_gcc.h ****   #pragma GCC diagnostic ignored "-Wpacked"
  97:HAL_Lib/CMSIS/Core/Include/cmsis_gcc.h ****   #pragma GCC diagnostic ignored "-Wattributes"
  98:HAL_Lib/CMSIS/Core/Include/cmsis_gcc.h ****   __PACKED_STRUCT T_UINT32_WRITE { uint32_t v; };
  99:HAL_Lib/CMSIS/Core/Include/cmsis_gcc.h ****   #pragma GCC diagnostic pop
 100:HAL_Lib/CMSIS/Core/Include/cmsis_gcc.h ****   #define __UNALIGNED_UINT32_WRITE(addr, val)    (void)((((struct T_UINT32_WRITE *)(void *)(addr))-
 101:HAL_Lib/CMSIS/Core/Include/cmsis_gcc.h **** #endif
 102:HAL_Lib/CMSIS/Core/Include/cmsis_gcc.h **** #ifndef   __UNALIGNED_UINT32_READ
 103:HAL_Lib/CMSIS/Core/Include/cmsis_gcc.h ****   #pragma GCC diagnostic push
 104:HAL_Lib/CMSIS/Core/Include/cmsis_gcc.h ****   #pragma GCC diagnostic ignored "-Wpacked"
 105:HAL_Lib/CMSIS/Core/Include/cmsis_gcc.h ****   #pragma GCC diagnostic ignored "-Wattributes"
 106:HAL_Lib/CMSIS/Core/Include/cmsis_gcc.h ****   __PACKED_STRUCT T_UINT32_READ { uint32_t v; };
 107:HAL_Lib/CMSIS/Core/Include/cmsis_gcc.h ****   #pragma GCC diagnostic pop
 108:HAL_Lib/CMSIS/Core/Include/cmsis_gcc.h ****   #define __UNALIGNED_UINT32_READ(addr)          (((const struct T_UINT32_READ *)(const void *)(add
 109:HAL_Lib/CMSIS/Core/Include/cmsis_gcc.h **** #endif
 110:HAL_Lib/CMSIS/Core/Include/cmsis_gcc.h **** #ifndef   __ALIGNED
 111:HAL_Lib/CMSIS/Core/Include/cmsis_gcc.h ****   #define __ALIGNED(x)                           __attribute__((aligned(x)))
 112:HAL_Lib/CMSIS/Core/Include/cmsis_gcc.h **** #endif
 113:HAL_Lib/CMSIS/Core/Include/cmsis_gcc.h **** #ifndef   __RESTRICT
 114:HAL_Lib/CMSIS/Core/Include/cmsis_gcc.h ****   #define __RESTRICT                             __restrict
 115:HAL_Lib/CMSIS/Core/Include/cmsis_gcc.h **** #endif
 116:HAL_Lib/CMSIS/Core/Include/cmsis_gcc.h **** #ifndef   __COMPILER_BARRIER
 117:HAL_Lib/CMSIS/Core/Include/cmsis_gcc.h ****   #define __COMPILER_BARRIER()                   __ASM volatile("":::"memory")
 118:HAL_Lib/CMSIS/Core/Include/cmsis_gcc.h **** #endif
 119:HAL_Lib/CMSIS/Core/Include/cmsis_gcc.h **** 
 120:HAL_Lib/CMSIS/Core/Include/cmsis_gcc.h **** /* #########################  Startup and Lowlevel Init  ######################## */
 121:HAL_Lib/CMSIS/Core/Include/cmsis_gcc.h **** 
 122:HAL_Lib/CMSIS/Core/Include/cmsis_gcc.h **** #ifndef __PROGRAM_START
 123:HAL_Lib/CMSIS/Core/Include/cmsis_gcc.h **** 
 124:HAL_Lib/CMSIS/Core/Include/cmsis_gcc.h **** /**
 125:HAL_Lib/CMSIS/Core/Include/cmsis_gcc.h ****   \brief   Initializes data and bss sections
 126:HAL_Lib/CMSIS/Core/Include/cmsis_gcc.h ****   \details This default implementations initialized all data and additional bss
 127:HAL_Lib/CMSIS/Core/Include/cmsis_gcc.h ****            sections relying on .copy.table and .zero.table specified properly
 128:HAL_Lib/CMSIS/Core/Include/cmsis_gcc.h ****            in the used linker script.
 129:HAL_Lib/CMSIS/Core/Include/cmsis_gcc.h ****   
 130:HAL_Lib/CMSIS/Core/Include/cmsis_gcc.h ****  */
 131:HAL_Lib/CMSIS/Core/Include/cmsis_gcc.h **** __STATIC_FORCEINLINE __NO_RETURN void __cmsis_start(void)
 132:HAL_Lib/CMSIS/Core/Include/cmsis_gcc.h **** {
 133:HAL_Lib/CMSIS/Core/Include/cmsis_gcc.h ****   extern void _start(void) __NO_RETURN;
 134:HAL_Lib/CMSIS/Core/Include/cmsis_gcc.h ****   
 135:HAL_Lib/CMSIS/Core/Include/cmsis_gcc.h ****   typedef struct {
ARM GAS  /var/folders/lx/hc4sn_b53233_zkc9xbbl97r0000gp/T//ccAkWgSN.s 			page 50


 136:HAL_Lib/CMSIS/Core/Include/cmsis_gcc.h ****     uint32_t const* src;
 137:HAL_Lib/CMSIS/Core/Include/cmsis_gcc.h ****     uint32_t* dest;
 138:HAL_Lib/CMSIS/Core/Include/cmsis_gcc.h ****     uint32_t  wlen;
 139:HAL_Lib/CMSIS/Core/Include/cmsis_gcc.h ****   } __copy_table_t;
 140:HAL_Lib/CMSIS/Core/Include/cmsis_gcc.h ****   
 141:HAL_Lib/CMSIS/Core/Include/cmsis_gcc.h ****   typedef struct {
 142:HAL_Lib/CMSIS/Core/Include/cmsis_gcc.h ****     uint32_t* dest;
 143:HAL_Lib/CMSIS/Core/Include/cmsis_gcc.h ****     uint32_t  wlen;
 144:HAL_Lib/CMSIS/Core/Include/cmsis_gcc.h ****   } __zero_table_t;
 145:HAL_Lib/CMSIS/Core/Include/cmsis_gcc.h ****   
 146:HAL_Lib/CMSIS/Core/Include/cmsis_gcc.h ****   extern const __copy_table_t __copy_table_start__;
 147:HAL_Lib/CMSIS/Core/Include/cmsis_gcc.h ****   extern const __copy_table_t __copy_table_end__;
 148:HAL_Lib/CMSIS/Core/Include/cmsis_gcc.h ****   extern const __zero_table_t __zero_table_start__;
 149:HAL_Lib/CMSIS/Core/Include/cmsis_gcc.h ****   extern const __zero_table_t __zero_table_end__;
 150:HAL_Lib/CMSIS/Core/Include/cmsis_gcc.h **** 
 151:HAL_Lib/CMSIS/Core/Include/cmsis_gcc.h ****   for (__copy_table_t const* pTable = &__copy_table_start__; pTable < &__copy_table_end__; ++pTable
 152:HAL_Lib/CMSIS/Core/Include/cmsis_gcc.h ****     for(uint32_t i=0u; i<pTable->wlen; ++i) {
 153:HAL_Lib/CMSIS/Core/Include/cmsis_gcc.h ****       pTable->dest[i] = pTable->src[i];
 154:HAL_Lib/CMSIS/Core/Include/cmsis_gcc.h ****     }
 155:HAL_Lib/CMSIS/Core/Include/cmsis_gcc.h ****   }
 156:HAL_Lib/CMSIS/Core/Include/cmsis_gcc.h ****  
 157:HAL_Lib/CMSIS/Core/Include/cmsis_gcc.h ****   for (__zero_table_t const* pTable = &__zero_table_start__; pTable < &__zero_table_end__; ++pTable
 158:HAL_Lib/CMSIS/Core/Include/cmsis_gcc.h ****     for(uint32_t i=0u; i<pTable->wlen; ++i) {
 159:HAL_Lib/CMSIS/Core/Include/cmsis_gcc.h ****       pTable->dest[i] = 0u;
 160:HAL_Lib/CMSIS/Core/Include/cmsis_gcc.h ****     }
 161:HAL_Lib/CMSIS/Core/Include/cmsis_gcc.h ****   }
 162:HAL_Lib/CMSIS/Core/Include/cmsis_gcc.h ****  
 163:HAL_Lib/CMSIS/Core/Include/cmsis_gcc.h ****   _start();
 164:HAL_Lib/CMSIS/Core/Include/cmsis_gcc.h **** }
 165:HAL_Lib/CMSIS/Core/Include/cmsis_gcc.h ****   
 166:HAL_Lib/CMSIS/Core/Include/cmsis_gcc.h **** #define __PROGRAM_START           __cmsis_start
 167:HAL_Lib/CMSIS/Core/Include/cmsis_gcc.h **** #endif
 168:HAL_Lib/CMSIS/Core/Include/cmsis_gcc.h **** 
 169:HAL_Lib/CMSIS/Core/Include/cmsis_gcc.h **** #ifndef __INITIAL_SP
 170:HAL_Lib/CMSIS/Core/Include/cmsis_gcc.h **** #define __INITIAL_SP              __StackTop
 171:HAL_Lib/CMSIS/Core/Include/cmsis_gcc.h **** #endif
 172:HAL_Lib/CMSIS/Core/Include/cmsis_gcc.h **** 
 173:HAL_Lib/CMSIS/Core/Include/cmsis_gcc.h **** #ifndef __STACK_LIMIT
 174:HAL_Lib/CMSIS/Core/Include/cmsis_gcc.h **** #define __STACK_LIMIT             __StackLimit
 175:HAL_Lib/CMSIS/Core/Include/cmsis_gcc.h **** #endif
 176:HAL_Lib/CMSIS/Core/Include/cmsis_gcc.h **** 
 177:HAL_Lib/CMSIS/Core/Include/cmsis_gcc.h **** #ifndef __VECTOR_TABLE
 178:HAL_Lib/CMSIS/Core/Include/cmsis_gcc.h **** #define __VECTOR_TABLE            __Vectors
 179:HAL_Lib/CMSIS/Core/Include/cmsis_gcc.h **** #endif
 180:HAL_Lib/CMSIS/Core/Include/cmsis_gcc.h **** 
 181:HAL_Lib/CMSIS/Core/Include/cmsis_gcc.h **** #ifndef __VECTOR_TABLE_ATTRIBUTE
 182:HAL_Lib/CMSIS/Core/Include/cmsis_gcc.h **** #define __VECTOR_TABLE_ATTRIBUTE  __attribute((used, section(".vectors")))
 183:HAL_Lib/CMSIS/Core/Include/cmsis_gcc.h **** #endif
 184:HAL_Lib/CMSIS/Core/Include/cmsis_gcc.h **** 
 185:HAL_Lib/CMSIS/Core/Include/cmsis_gcc.h **** /* ###########################  Core Function Access  ########################### */
 186:HAL_Lib/CMSIS/Core/Include/cmsis_gcc.h **** /** \ingroup  CMSIS_Core_FunctionInterface
 187:HAL_Lib/CMSIS/Core/Include/cmsis_gcc.h ****     \defgroup CMSIS_Core_RegAccFunctions CMSIS Core Register Access Functions
 188:HAL_Lib/CMSIS/Core/Include/cmsis_gcc.h ****   @{
 189:HAL_Lib/CMSIS/Core/Include/cmsis_gcc.h ****  */
 190:HAL_Lib/CMSIS/Core/Include/cmsis_gcc.h **** 
 191:HAL_Lib/CMSIS/Core/Include/cmsis_gcc.h **** /**
 192:HAL_Lib/CMSIS/Core/Include/cmsis_gcc.h ****   \brief   Enable IRQ Interrupts
ARM GAS  /var/folders/lx/hc4sn_b53233_zkc9xbbl97r0000gp/T//ccAkWgSN.s 			page 51


 193:HAL_Lib/CMSIS/Core/Include/cmsis_gcc.h ****   \details Enables IRQ interrupts by clearing the I-bit in the CPSR.
 194:HAL_Lib/CMSIS/Core/Include/cmsis_gcc.h ****            Can only be executed in Privileged modes.
 195:HAL_Lib/CMSIS/Core/Include/cmsis_gcc.h ****  */
 196:HAL_Lib/CMSIS/Core/Include/cmsis_gcc.h **** __STATIC_FORCEINLINE void __enable_irq(void)
 197:HAL_Lib/CMSIS/Core/Include/cmsis_gcc.h **** {
 198:HAL_Lib/CMSIS/Core/Include/cmsis_gcc.h ****   __ASM volatile ("cpsie i" : : : "memory");
 199:HAL_Lib/CMSIS/Core/Include/cmsis_gcc.h **** }
 200:HAL_Lib/CMSIS/Core/Include/cmsis_gcc.h **** 
 201:HAL_Lib/CMSIS/Core/Include/cmsis_gcc.h **** 
 202:HAL_Lib/CMSIS/Core/Include/cmsis_gcc.h **** /**
 203:HAL_Lib/CMSIS/Core/Include/cmsis_gcc.h ****   \brief   Disable IRQ Interrupts
 204:HAL_Lib/CMSIS/Core/Include/cmsis_gcc.h ****   \details Disables IRQ interrupts by setting the I-bit in the CPSR.
 205:HAL_Lib/CMSIS/Core/Include/cmsis_gcc.h ****            Can only be executed in Privileged modes.
 206:HAL_Lib/CMSIS/Core/Include/cmsis_gcc.h ****  */
 207:HAL_Lib/CMSIS/Core/Include/cmsis_gcc.h **** __STATIC_FORCEINLINE void __disable_irq(void)
 208:HAL_Lib/CMSIS/Core/Include/cmsis_gcc.h **** {
 209:HAL_Lib/CMSIS/Core/Include/cmsis_gcc.h ****   __ASM volatile ("cpsid i" : : : "memory");
 210:HAL_Lib/CMSIS/Core/Include/cmsis_gcc.h **** }
 211:HAL_Lib/CMSIS/Core/Include/cmsis_gcc.h **** 
 212:HAL_Lib/CMSIS/Core/Include/cmsis_gcc.h **** 
 213:HAL_Lib/CMSIS/Core/Include/cmsis_gcc.h **** /**
 214:HAL_Lib/CMSIS/Core/Include/cmsis_gcc.h ****   \brief   Get Control Register
 215:HAL_Lib/CMSIS/Core/Include/cmsis_gcc.h ****   \details Returns the content of the Control Register.
 216:HAL_Lib/CMSIS/Core/Include/cmsis_gcc.h ****   \return               Control Register value
 217:HAL_Lib/CMSIS/Core/Include/cmsis_gcc.h ****  */
 218:HAL_Lib/CMSIS/Core/Include/cmsis_gcc.h **** __STATIC_FORCEINLINE uint32_t __get_CONTROL(void)
 219:HAL_Lib/CMSIS/Core/Include/cmsis_gcc.h **** {
 220:HAL_Lib/CMSIS/Core/Include/cmsis_gcc.h ****   uint32_t result;
 221:HAL_Lib/CMSIS/Core/Include/cmsis_gcc.h **** 
 222:HAL_Lib/CMSIS/Core/Include/cmsis_gcc.h ****   __ASM volatile ("MRS %0, control" : "=r" (result) );
 223:HAL_Lib/CMSIS/Core/Include/cmsis_gcc.h ****   return(result);
 224:HAL_Lib/CMSIS/Core/Include/cmsis_gcc.h **** }
 225:HAL_Lib/CMSIS/Core/Include/cmsis_gcc.h **** 
 226:HAL_Lib/CMSIS/Core/Include/cmsis_gcc.h **** 
 227:HAL_Lib/CMSIS/Core/Include/cmsis_gcc.h **** #if (defined (__ARM_FEATURE_CMSE ) && (__ARM_FEATURE_CMSE == 3))
 228:HAL_Lib/CMSIS/Core/Include/cmsis_gcc.h **** /**
 229:HAL_Lib/CMSIS/Core/Include/cmsis_gcc.h ****   \brief   Get Control Register (non-secure)
 230:HAL_Lib/CMSIS/Core/Include/cmsis_gcc.h ****   \details Returns the content of the non-secure Control Register when in secure mode.
 231:HAL_Lib/CMSIS/Core/Include/cmsis_gcc.h ****   \return               non-secure Control Register value
 232:HAL_Lib/CMSIS/Core/Include/cmsis_gcc.h ****  */
 233:HAL_Lib/CMSIS/Core/Include/cmsis_gcc.h **** __STATIC_FORCEINLINE uint32_t __TZ_get_CONTROL_NS(void)
 234:HAL_Lib/CMSIS/Core/Include/cmsis_gcc.h **** {
 235:HAL_Lib/CMSIS/Core/Include/cmsis_gcc.h ****   uint32_t result;
 236:HAL_Lib/CMSIS/Core/Include/cmsis_gcc.h **** 
 237:HAL_Lib/CMSIS/Core/Include/cmsis_gcc.h ****   __ASM volatile ("MRS %0, control_ns" : "=r" (result) );
 238:HAL_Lib/CMSIS/Core/Include/cmsis_gcc.h ****   return(result);
 239:HAL_Lib/CMSIS/Core/Include/cmsis_gcc.h **** }
 240:HAL_Lib/CMSIS/Core/Include/cmsis_gcc.h **** #endif
 241:HAL_Lib/CMSIS/Core/Include/cmsis_gcc.h **** 
 242:HAL_Lib/CMSIS/Core/Include/cmsis_gcc.h **** 
 243:HAL_Lib/CMSIS/Core/Include/cmsis_gcc.h **** /**
 244:HAL_Lib/CMSIS/Core/Include/cmsis_gcc.h ****   \brief   Set Control Register
 245:HAL_Lib/CMSIS/Core/Include/cmsis_gcc.h ****   \details Writes the given value to the Control Register.
 246:HAL_Lib/CMSIS/Core/Include/cmsis_gcc.h ****   \param [in]    control  Control Register value to set
 247:HAL_Lib/CMSIS/Core/Include/cmsis_gcc.h ****  */
 248:HAL_Lib/CMSIS/Core/Include/cmsis_gcc.h **** __STATIC_FORCEINLINE void __set_CONTROL(uint32_t control)
 249:HAL_Lib/CMSIS/Core/Include/cmsis_gcc.h **** {
ARM GAS  /var/folders/lx/hc4sn_b53233_zkc9xbbl97r0000gp/T//ccAkWgSN.s 			page 52


 250:HAL_Lib/CMSIS/Core/Include/cmsis_gcc.h ****   __ASM volatile ("MSR control, %0" : : "r" (control) : "memory");
 251:HAL_Lib/CMSIS/Core/Include/cmsis_gcc.h **** }
 252:HAL_Lib/CMSIS/Core/Include/cmsis_gcc.h **** 
 253:HAL_Lib/CMSIS/Core/Include/cmsis_gcc.h **** 
 254:HAL_Lib/CMSIS/Core/Include/cmsis_gcc.h **** #if (defined (__ARM_FEATURE_CMSE ) && (__ARM_FEATURE_CMSE == 3))
 255:HAL_Lib/CMSIS/Core/Include/cmsis_gcc.h **** /**
 256:HAL_Lib/CMSIS/Core/Include/cmsis_gcc.h ****   \brief   Set Control Register (non-secure)
 257:HAL_Lib/CMSIS/Core/Include/cmsis_gcc.h ****   \details Writes the given value to the non-secure Control Register when in secure state.
 258:HAL_Lib/CMSIS/Core/Include/cmsis_gcc.h ****   \param [in]    control  Control Register value to set
 259:HAL_Lib/CMSIS/Core/Include/cmsis_gcc.h ****  */
 260:HAL_Lib/CMSIS/Core/Include/cmsis_gcc.h **** __STATIC_FORCEINLINE void __TZ_set_CONTROL_NS(uint32_t control)
 261:HAL_Lib/CMSIS/Core/Include/cmsis_gcc.h **** {
 262:HAL_Lib/CMSIS/Core/Include/cmsis_gcc.h ****   __ASM volatile ("MSR control_ns, %0" : : "r" (control) : "memory");
 263:HAL_Lib/CMSIS/Core/Include/cmsis_gcc.h **** }
 264:HAL_Lib/CMSIS/Core/Include/cmsis_gcc.h **** #endif
 265:HAL_Lib/CMSIS/Core/Include/cmsis_gcc.h **** 
 266:HAL_Lib/CMSIS/Core/Include/cmsis_gcc.h **** 
 267:HAL_Lib/CMSIS/Core/Include/cmsis_gcc.h **** /**
 268:HAL_Lib/CMSIS/Core/Include/cmsis_gcc.h ****   \brief   Get IPSR Register
 269:HAL_Lib/CMSIS/Core/Include/cmsis_gcc.h ****   \details Returns the content of the IPSR Register.
 270:HAL_Lib/CMSIS/Core/Include/cmsis_gcc.h ****   \return               IPSR Register value
 271:HAL_Lib/CMSIS/Core/Include/cmsis_gcc.h ****  */
 272:HAL_Lib/CMSIS/Core/Include/cmsis_gcc.h **** __STATIC_FORCEINLINE uint32_t __get_IPSR(void)
 273:HAL_Lib/CMSIS/Core/Include/cmsis_gcc.h **** {
 274:HAL_Lib/CMSIS/Core/Include/cmsis_gcc.h ****   uint32_t result;
 275:HAL_Lib/CMSIS/Core/Include/cmsis_gcc.h **** 
 276:HAL_Lib/CMSIS/Core/Include/cmsis_gcc.h ****   __ASM volatile ("MRS %0, ipsr" : "=r" (result) );
 277:HAL_Lib/CMSIS/Core/Include/cmsis_gcc.h ****   return(result);
 278:HAL_Lib/CMSIS/Core/Include/cmsis_gcc.h **** }
 279:HAL_Lib/CMSIS/Core/Include/cmsis_gcc.h **** 
 280:HAL_Lib/CMSIS/Core/Include/cmsis_gcc.h **** 
 281:HAL_Lib/CMSIS/Core/Include/cmsis_gcc.h **** /**
 282:HAL_Lib/CMSIS/Core/Include/cmsis_gcc.h ****   \brief   Get APSR Register
 283:HAL_Lib/CMSIS/Core/Include/cmsis_gcc.h ****   \details Returns the content of the APSR Register.
 284:HAL_Lib/CMSIS/Core/Include/cmsis_gcc.h ****   \return               APSR Register value
 285:HAL_Lib/CMSIS/Core/Include/cmsis_gcc.h ****  */
 286:HAL_Lib/CMSIS/Core/Include/cmsis_gcc.h **** __STATIC_FORCEINLINE uint32_t __get_APSR(void)
 287:HAL_Lib/CMSIS/Core/Include/cmsis_gcc.h **** {
 288:HAL_Lib/CMSIS/Core/Include/cmsis_gcc.h ****   uint32_t result;
 289:HAL_Lib/CMSIS/Core/Include/cmsis_gcc.h **** 
 290:HAL_Lib/CMSIS/Core/Include/cmsis_gcc.h ****   __ASM volatile ("MRS %0, apsr" : "=r" (result) );
 291:HAL_Lib/CMSIS/Core/Include/cmsis_gcc.h ****   return(result);
 292:HAL_Lib/CMSIS/Core/Include/cmsis_gcc.h **** }
 293:HAL_Lib/CMSIS/Core/Include/cmsis_gcc.h **** 
 294:HAL_Lib/CMSIS/Core/Include/cmsis_gcc.h **** 
 295:HAL_Lib/CMSIS/Core/Include/cmsis_gcc.h **** /**
 296:HAL_Lib/CMSIS/Core/Include/cmsis_gcc.h ****   \brief   Get xPSR Register
 297:HAL_Lib/CMSIS/Core/Include/cmsis_gcc.h ****   \details Returns the content of the xPSR Register.
 298:HAL_Lib/CMSIS/Core/Include/cmsis_gcc.h ****   \return               xPSR Register value
 299:HAL_Lib/CMSIS/Core/Include/cmsis_gcc.h ****  */
 300:HAL_Lib/CMSIS/Core/Include/cmsis_gcc.h **** __STATIC_FORCEINLINE uint32_t __get_xPSR(void)
 301:HAL_Lib/CMSIS/Core/Include/cmsis_gcc.h **** {
 302:HAL_Lib/CMSIS/Core/Include/cmsis_gcc.h ****   uint32_t result;
 303:HAL_Lib/CMSIS/Core/Include/cmsis_gcc.h **** 
 304:HAL_Lib/CMSIS/Core/Include/cmsis_gcc.h ****   __ASM volatile ("MRS %0, xpsr" : "=r" (result) );
 305:HAL_Lib/CMSIS/Core/Include/cmsis_gcc.h ****   return(result);
 306:HAL_Lib/CMSIS/Core/Include/cmsis_gcc.h **** }
ARM GAS  /var/folders/lx/hc4sn_b53233_zkc9xbbl97r0000gp/T//ccAkWgSN.s 			page 53


 307:HAL_Lib/CMSIS/Core/Include/cmsis_gcc.h **** 
 308:HAL_Lib/CMSIS/Core/Include/cmsis_gcc.h **** 
 309:HAL_Lib/CMSIS/Core/Include/cmsis_gcc.h **** /**
 310:HAL_Lib/CMSIS/Core/Include/cmsis_gcc.h ****   \brief   Get Process Stack Pointer
 311:HAL_Lib/CMSIS/Core/Include/cmsis_gcc.h ****   \details Returns the current value of the Process Stack Pointer (PSP).
 312:HAL_Lib/CMSIS/Core/Include/cmsis_gcc.h ****   \return               PSP Register value
 313:HAL_Lib/CMSIS/Core/Include/cmsis_gcc.h ****  */
 314:HAL_Lib/CMSIS/Core/Include/cmsis_gcc.h **** __STATIC_FORCEINLINE uint32_t __get_PSP(void)
 315:HAL_Lib/CMSIS/Core/Include/cmsis_gcc.h **** {
 316:HAL_Lib/CMSIS/Core/Include/cmsis_gcc.h ****   uint32_t result;
 317:HAL_Lib/CMSIS/Core/Include/cmsis_gcc.h **** 
 318:HAL_Lib/CMSIS/Core/Include/cmsis_gcc.h ****   __ASM volatile ("MRS %0, psp"  : "=r" (result) );
 319:HAL_Lib/CMSIS/Core/Include/cmsis_gcc.h ****   return(result);
 320:HAL_Lib/CMSIS/Core/Include/cmsis_gcc.h **** }
 321:HAL_Lib/CMSIS/Core/Include/cmsis_gcc.h **** 
 322:HAL_Lib/CMSIS/Core/Include/cmsis_gcc.h **** 
 323:HAL_Lib/CMSIS/Core/Include/cmsis_gcc.h **** #if (defined (__ARM_FEATURE_CMSE ) && (__ARM_FEATURE_CMSE == 3))
 324:HAL_Lib/CMSIS/Core/Include/cmsis_gcc.h **** /**
 325:HAL_Lib/CMSIS/Core/Include/cmsis_gcc.h ****   \brief   Get Process Stack Pointer (non-secure)
 326:HAL_Lib/CMSIS/Core/Include/cmsis_gcc.h ****   \details Returns the current value of the non-secure Process Stack Pointer (PSP) when in secure s
 327:HAL_Lib/CMSIS/Core/Include/cmsis_gcc.h ****   \return               PSP Register value
 328:HAL_Lib/CMSIS/Core/Include/cmsis_gcc.h ****  */
 329:HAL_Lib/CMSIS/Core/Include/cmsis_gcc.h **** __STATIC_FORCEINLINE uint32_t __TZ_get_PSP_NS(void)
 330:HAL_Lib/CMSIS/Core/Include/cmsis_gcc.h **** {
 331:HAL_Lib/CMSIS/Core/Include/cmsis_gcc.h ****   uint32_t result;
 332:HAL_Lib/CMSIS/Core/Include/cmsis_gcc.h **** 
 333:HAL_Lib/CMSIS/Core/Include/cmsis_gcc.h ****   __ASM volatile ("MRS %0, psp_ns"  : "=r" (result) );
 334:HAL_Lib/CMSIS/Core/Include/cmsis_gcc.h ****   return(result);
 335:HAL_Lib/CMSIS/Core/Include/cmsis_gcc.h **** }
 336:HAL_Lib/CMSIS/Core/Include/cmsis_gcc.h **** #endif
 337:HAL_Lib/CMSIS/Core/Include/cmsis_gcc.h **** 
 338:HAL_Lib/CMSIS/Core/Include/cmsis_gcc.h **** 
 339:HAL_Lib/CMSIS/Core/Include/cmsis_gcc.h **** /**
 340:HAL_Lib/CMSIS/Core/Include/cmsis_gcc.h ****   \brief   Set Process Stack Pointer
 341:HAL_Lib/CMSIS/Core/Include/cmsis_gcc.h ****   \details Assigns the given value to the Process Stack Pointer (PSP).
 342:HAL_Lib/CMSIS/Core/Include/cmsis_gcc.h ****   \param [in]    topOfProcStack  Process Stack Pointer value to set
 343:HAL_Lib/CMSIS/Core/Include/cmsis_gcc.h ****  */
 344:HAL_Lib/CMSIS/Core/Include/cmsis_gcc.h **** __STATIC_FORCEINLINE void __set_PSP(uint32_t topOfProcStack)
 345:HAL_Lib/CMSIS/Core/Include/cmsis_gcc.h **** {
 346:HAL_Lib/CMSIS/Core/Include/cmsis_gcc.h ****   __ASM volatile ("MSR psp, %0" : : "r" (topOfProcStack) : );
 347:HAL_Lib/CMSIS/Core/Include/cmsis_gcc.h **** }
 348:HAL_Lib/CMSIS/Core/Include/cmsis_gcc.h **** 
 349:HAL_Lib/CMSIS/Core/Include/cmsis_gcc.h **** 
 350:HAL_Lib/CMSIS/Core/Include/cmsis_gcc.h **** #if (defined (__ARM_FEATURE_CMSE ) && (__ARM_FEATURE_CMSE == 3))
 351:HAL_Lib/CMSIS/Core/Include/cmsis_gcc.h **** /**
 352:HAL_Lib/CMSIS/Core/Include/cmsis_gcc.h ****   \brief   Set Process Stack Pointer (non-secure)
 353:HAL_Lib/CMSIS/Core/Include/cmsis_gcc.h ****   \details Assigns the given value to the non-secure Process Stack Pointer (PSP) when in secure sta
 354:HAL_Lib/CMSIS/Core/Include/cmsis_gcc.h ****   \param [in]    topOfProcStack  Process Stack Pointer value to set
 355:HAL_Lib/CMSIS/Core/Include/cmsis_gcc.h ****  */
 356:HAL_Lib/CMSIS/Core/Include/cmsis_gcc.h **** __STATIC_FORCEINLINE void __TZ_set_PSP_NS(uint32_t topOfProcStack)
 357:HAL_Lib/CMSIS/Core/Include/cmsis_gcc.h **** {
 358:HAL_Lib/CMSIS/Core/Include/cmsis_gcc.h ****   __ASM volatile ("MSR psp_ns, %0" : : "r" (topOfProcStack) : );
 359:HAL_Lib/CMSIS/Core/Include/cmsis_gcc.h **** }
 360:HAL_Lib/CMSIS/Core/Include/cmsis_gcc.h **** #endif
 361:HAL_Lib/CMSIS/Core/Include/cmsis_gcc.h **** 
 362:HAL_Lib/CMSIS/Core/Include/cmsis_gcc.h **** 
 363:HAL_Lib/CMSIS/Core/Include/cmsis_gcc.h **** /**
ARM GAS  /var/folders/lx/hc4sn_b53233_zkc9xbbl97r0000gp/T//ccAkWgSN.s 			page 54


 364:HAL_Lib/CMSIS/Core/Include/cmsis_gcc.h ****   \brief   Get Main Stack Pointer
 365:HAL_Lib/CMSIS/Core/Include/cmsis_gcc.h ****   \details Returns the current value of the Main Stack Pointer (MSP).
 366:HAL_Lib/CMSIS/Core/Include/cmsis_gcc.h ****   \return               MSP Register value
 367:HAL_Lib/CMSIS/Core/Include/cmsis_gcc.h ****  */
 368:HAL_Lib/CMSIS/Core/Include/cmsis_gcc.h **** __STATIC_FORCEINLINE uint32_t __get_MSP(void)
 369:HAL_Lib/CMSIS/Core/Include/cmsis_gcc.h **** {
 370:HAL_Lib/CMSIS/Core/Include/cmsis_gcc.h ****   uint32_t result;
 371:HAL_Lib/CMSIS/Core/Include/cmsis_gcc.h **** 
 372:HAL_Lib/CMSIS/Core/Include/cmsis_gcc.h ****   __ASM volatile ("MRS %0, msp" : "=r" (result) );
 373:HAL_Lib/CMSIS/Core/Include/cmsis_gcc.h ****   return(result);
 374:HAL_Lib/CMSIS/Core/Include/cmsis_gcc.h **** }
 375:HAL_Lib/CMSIS/Core/Include/cmsis_gcc.h **** 
 376:HAL_Lib/CMSIS/Core/Include/cmsis_gcc.h **** 
 377:HAL_Lib/CMSIS/Core/Include/cmsis_gcc.h **** #if (defined (__ARM_FEATURE_CMSE ) && (__ARM_FEATURE_CMSE == 3))
 378:HAL_Lib/CMSIS/Core/Include/cmsis_gcc.h **** /**
 379:HAL_Lib/CMSIS/Core/Include/cmsis_gcc.h ****   \brief   Get Main Stack Pointer (non-secure)
 380:HAL_Lib/CMSIS/Core/Include/cmsis_gcc.h ****   \details Returns the current value of the non-secure Main Stack Pointer (MSP) when in secure stat
 381:HAL_Lib/CMSIS/Core/Include/cmsis_gcc.h ****   \return               MSP Register value
 382:HAL_Lib/CMSIS/Core/Include/cmsis_gcc.h ****  */
 383:HAL_Lib/CMSIS/Core/Include/cmsis_gcc.h **** __STATIC_FORCEINLINE uint32_t __TZ_get_MSP_NS(void)
 384:HAL_Lib/CMSIS/Core/Include/cmsis_gcc.h **** {
 385:HAL_Lib/CMSIS/Core/Include/cmsis_gcc.h ****   uint32_t result;
 386:HAL_Lib/CMSIS/Core/Include/cmsis_gcc.h **** 
 387:HAL_Lib/CMSIS/Core/Include/cmsis_gcc.h ****   __ASM volatile ("MRS %0, msp_ns" : "=r" (result) );
 388:HAL_Lib/CMSIS/Core/Include/cmsis_gcc.h ****   return(result);
 389:HAL_Lib/CMSIS/Core/Include/cmsis_gcc.h **** }
 390:HAL_Lib/CMSIS/Core/Include/cmsis_gcc.h **** #endif
 391:HAL_Lib/CMSIS/Core/Include/cmsis_gcc.h **** 
 392:HAL_Lib/CMSIS/Core/Include/cmsis_gcc.h **** 
 393:HAL_Lib/CMSIS/Core/Include/cmsis_gcc.h **** /**
 394:HAL_Lib/CMSIS/Core/Include/cmsis_gcc.h ****   \brief   Set Main Stack Pointer
 395:HAL_Lib/CMSIS/Core/Include/cmsis_gcc.h ****   \details Assigns the given value to the Main Stack Pointer (MSP).
 396:HAL_Lib/CMSIS/Core/Include/cmsis_gcc.h ****   \param [in]    topOfMainStack  Main Stack Pointer value to set
 397:HAL_Lib/CMSIS/Core/Include/cmsis_gcc.h ****  */
 398:HAL_Lib/CMSIS/Core/Include/cmsis_gcc.h **** __STATIC_FORCEINLINE void __set_MSP(uint32_t topOfMainStack)
 399:HAL_Lib/CMSIS/Core/Include/cmsis_gcc.h **** {
 400:HAL_Lib/CMSIS/Core/Include/cmsis_gcc.h ****   __ASM volatile ("MSR msp, %0" : : "r" (topOfMainStack) : );
 401:HAL_Lib/CMSIS/Core/Include/cmsis_gcc.h **** }
 402:HAL_Lib/CMSIS/Core/Include/cmsis_gcc.h **** 
 403:HAL_Lib/CMSIS/Core/Include/cmsis_gcc.h **** 
 404:HAL_Lib/CMSIS/Core/Include/cmsis_gcc.h **** #if (defined (__ARM_FEATURE_CMSE ) && (__ARM_FEATURE_CMSE == 3))
 405:HAL_Lib/CMSIS/Core/Include/cmsis_gcc.h **** /**
 406:HAL_Lib/CMSIS/Core/Include/cmsis_gcc.h ****   \brief   Set Main Stack Pointer (non-secure)
 407:HAL_Lib/CMSIS/Core/Include/cmsis_gcc.h ****   \details Assigns the given value to the non-secure Main Stack Pointer (MSP) when in secure state.
 408:HAL_Lib/CMSIS/Core/Include/cmsis_gcc.h ****   \param [in]    topOfMainStack  Main Stack Pointer value to set
 409:HAL_Lib/CMSIS/Core/Include/cmsis_gcc.h ****  */
 410:HAL_Lib/CMSIS/Core/Include/cmsis_gcc.h **** __STATIC_FORCEINLINE void __TZ_set_MSP_NS(uint32_t topOfMainStack)
 411:HAL_Lib/CMSIS/Core/Include/cmsis_gcc.h **** {
 412:HAL_Lib/CMSIS/Core/Include/cmsis_gcc.h ****   __ASM volatile ("MSR msp_ns, %0" : : "r" (topOfMainStack) : );
 413:HAL_Lib/CMSIS/Core/Include/cmsis_gcc.h **** }
 414:HAL_Lib/CMSIS/Core/Include/cmsis_gcc.h **** #endif
 415:HAL_Lib/CMSIS/Core/Include/cmsis_gcc.h **** 
 416:HAL_Lib/CMSIS/Core/Include/cmsis_gcc.h **** 
 417:HAL_Lib/CMSIS/Core/Include/cmsis_gcc.h **** #if (defined (__ARM_FEATURE_CMSE ) && (__ARM_FEATURE_CMSE == 3))
 418:HAL_Lib/CMSIS/Core/Include/cmsis_gcc.h **** /**
 419:HAL_Lib/CMSIS/Core/Include/cmsis_gcc.h ****   \brief   Get Stack Pointer (non-secure)
 420:HAL_Lib/CMSIS/Core/Include/cmsis_gcc.h ****   \details Returns the current value of the non-secure Stack Pointer (SP) when in secure state.
ARM GAS  /var/folders/lx/hc4sn_b53233_zkc9xbbl97r0000gp/T//ccAkWgSN.s 			page 55


 421:HAL_Lib/CMSIS/Core/Include/cmsis_gcc.h ****   \return               SP Register value
 422:HAL_Lib/CMSIS/Core/Include/cmsis_gcc.h ****  */
 423:HAL_Lib/CMSIS/Core/Include/cmsis_gcc.h **** __STATIC_FORCEINLINE uint32_t __TZ_get_SP_NS(void)
 424:HAL_Lib/CMSIS/Core/Include/cmsis_gcc.h **** {
 425:HAL_Lib/CMSIS/Core/Include/cmsis_gcc.h ****   uint32_t result;
 426:HAL_Lib/CMSIS/Core/Include/cmsis_gcc.h **** 
 427:HAL_Lib/CMSIS/Core/Include/cmsis_gcc.h ****   __ASM volatile ("MRS %0, sp_ns" : "=r" (result) );
 428:HAL_Lib/CMSIS/Core/Include/cmsis_gcc.h ****   return(result);
 429:HAL_Lib/CMSIS/Core/Include/cmsis_gcc.h **** }
 430:HAL_Lib/CMSIS/Core/Include/cmsis_gcc.h **** 
 431:HAL_Lib/CMSIS/Core/Include/cmsis_gcc.h **** 
 432:HAL_Lib/CMSIS/Core/Include/cmsis_gcc.h **** /**
 433:HAL_Lib/CMSIS/Core/Include/cmsis_gcc.h ****   \brief   Set Stack Pointer (non-secure)
 434:HAL_Lib/CMSIS/Core/Include/cmsis_gcc.h ****   \details Assigns the given value to the non-secure Stack Pointer (SP) when in secure state.
 435:HAL_Lib/CMSIS/Core/Include/cmsis_gcc.h ****   \param [in]    topOfStack  Stack Pointer value to set
 436:HAL_Lib/CMSIS/Core/Include/cmsis_gcc.h ****  */
 437:HAL_Lib/CMSIS/Core/Include/cmsis_gcc.h **** __STATIC_FORCEINLINE void __TZ_set_SP_NS(uint32_t topOfStack)
 438:HAL_Lib/CMSIS/Core/Include/cmsis_gcc.h **** {
 439:HAL_Lib/CMSIS/Core/Include/cmsis_gcc.h ****   __ASM volatile ("MSR sp_ns, %0" : : "r" (topOfStack) : );
 440:HAL_Lib/CMSIS/Core/Include/cmsis_gcc.h **** }
 441:HAL_Lib/CMSIS/Core/Include/cmsis_gcc.h **** #endif
 442:HAL_Lib/CMSIS/Core/Include/cmsis_gcc.h **** 
 443:HAL_Lib/CMSIS/Core/Include/cmsis_gcc.h **** 
 444:HAL_Lib/CMSIS/Core/Include/cmsis_gcc.h **** /**
 445:HAL_Lib/CMSIS/Core/Include/cmsis_gcc.h ****   \brief   Get Priority Mask
 446:HAL_Lib/CMSIS/Core/Include/cmsis_gcc.h ****   \details Returns the current state of the priority mask bit from the Priority Mask Register.
 447:HAL_Lib/CMSIS/Core/Include/cmsis_gcc.h ****   \return               Priority Mask value
 448:HAL_Lib/CMSIS/Core/Include/cmsis_gcc.h ****  */
 449:HAL_Lib/CMSIS/Core/Include/cmsis_gcc.h **** __STATIC_FORCEINLINE uint32_t __get_PRIMASK(void)
 450:HAL_Lib/CMSIS/Core/Include/cmsis_gcc.h **** {
 451:HAL_Lib/CMSIS/Core/Include/cmsis_gcc.h ****   uint32_t result;
 452:HAL_Lib/CMSIS/Core/Include/cmsis_gcc.h **** 
 453:HAL_Lib/CMSIS/Core/Include/cmsis_gcc.h ****   __ASM volatile ("MRS %0, primask" : "=r" (result) :: "memory");
 454:HAL_Lib/CMSIS/Core/Include/cmsis_gcc.h ****   return(result);
 455:HAL_Lib/CMSIS/Core/Include/cmsis_gcc.h **** }
 456:HAL_Lib/CMSIS/Core/Include/cmsis_gcc.h **** 
 457:HAL_Lib/CMSIS/Core/Include/cmsis_gcc.h **** 
 458:HAL_Lib/CMSIS/Core/Include/cmsis_gcc.h **** #if (defined (__ARM_FEATURE_CMSE ) && (__ARM_FEATURE_CMSE == 3))
 459:HAL_Lib/CMSIS/Core/Include/cmsis_gcc.h **** /**
 460:HAL_Lib/CMSIS/Core/Include/cmsis_gcc.h ****   \brief   Get Priority Mask (non-secure)
 461:HAL_Lib/CMSIS/Core/Include/cmsis_gcc.h ****   \details Returns the current state of the non-secure priority mask bit from the Priority Mask Reg
 462:HAL_Lib/CMSIS/Core/Include/cmsis_gcc.h ****   \return               Priority Mask value
 463:HAL_Lib/CMSIS/Core/Include/cmsis_gcc.h ****  */
 464:HAL_Lib/CMSIS/Core/Include/cmsis_gcc.h **** __STATIC_FORCEINLINE uint32_t __TZ_get_PRIMASK_NS(void)
 465:HAL_Lib/CMSIS/Core/Include/cmsis_gcc.h **** {
 466:HAL_Lib/CMSIS/Core/Include/cmsis_gcc.h ****   uint32_t result;
 467:HAL_Lib/CMSIS/Core/Include/cmsis_gcc.h **** 
 468:HAL_Lib/CMSIS/Core/Include/cmsis_gcc.h ****   __ASM volatile ("MRS %0, primask_ns" : "=r" (result) :: "memory");
 469:HAL_Lib/CMSIS/Core/Include/cmsis_gcc.h ****   return(result);
 470:HAL_Lib/CMSIS/Core/Include/cmsis_gcc.h **** }
 471:HAL_Lib/CMSIS/Core/Include/cmsis_gcc.h **** #endif
 472:HAL_Lib/CMSIS/Core/Include/cmsis_gcc.h **** 
 473:HAL_Lib/CMSIS/Core/Include/cmsis_gcc.h **** 
 474:HAL_Lib/CMSIS/Core/Include/cmsis_gcc.h **** /**
 475:HAL_Lib/CMSIS/Core/Include/cmsis_gcc.h ****   \brief   Set Priority Mask
 476:HAL_Lib/CMSIS/Core/Include/cmsis_gcc.h ****   \details Assigns the given value to the Priority Mask Register.
 477:HAL_Lib/CMSIS/Core/Include/cmsis_gcc.h ****   \param [in]    priMask  Priority Mask
ARM GAS  /var/folders/lx/hc4sn_b53233_zkc9xbbl97r0000gp/T//ccAkWgSN.s 			page 56


 478:HAL_Lib/CMSIS/Core/Include/cmsis_gcc.h ****  */
 479:HAL_Lib/CMSIS/Core/Include/cmsis_gcc.h **** __STATIC_FORCEINLINE void __set_PRIMASK(uint32_t priMask)
 480:HAL_Lib/CMSIS/Core/Include/cmsis_gcc.h **** {
 481:HAL_Lib/CMSIS/Core/Include/cmsis_gcc.h ****   __ASM volatile ("MSR primask, %0" : : "r" (priMask) : "memory");
 482:HAL_Lib/CMSIS/Core/Include/cmsis_gcc.h **** }
 483:HAL_Lib/CMSIS/Core/Include/cmsis_gcc.h **** 
 484:HAL_Lib/CMSIS/Core/Include/cmsis_gcc.h **** 
 485:HAL_Lib/CMSIS/Core/Include/cmsis_gcc.h **** #if (defined (__ARM_FEATURE_CMSE ) && (__ARM_FEATURE_CMSE == 3))
 486:HAL_Lib/CMSIS/Core/Include/cmsis_gcc.h **** /**
 487:HAL_Lib/CMSIS/Core/Include/cmsis_gcc.h ****   \brief   Set Priority Mask (non-secure)
 488:HAL_Lib/CMSIS/Core/Include/cmsis_gcc.h ****   \details Assigns the given value to the non-secure Priority Mask Register when in secure state.
 489:HAL_Lib/CMSIS/Core/Include/cmsis_gcc.h ****   \param [in]    priMask  Priority Mask
 490:HAL_Lib/CMSIS/Core/Include/cmsis_gcc.h ****  */
 491:HAL_Lib/CMSIS/Core/Include/cmsis_gcc.h **** __STATIC_FORCEINLINE void __TZ_set_PRIMASK_NS(uint32_t priMask)
 492:HAL_Lib/CMSIS/Core/Include/cmsis_gcc.h **** {
 493:HAL_Lib/CMSIS/Core/Include/cmsis_gcc.h ****   __ASM volatile ("MSR primask_ns, %0" : : "r" (priMask) : "memory");
 494:HAL_Lib/CMSIS/Core/Include/cmsis_gcc.h **** }
 495:HAL_Lib/CMSIS/Core/Include/cmsis_gcc.h **** #endif
 496:HAL_Lib/CMSIS/Core/Include/cmsis_gcc.h **** 
 497:HAL_Lib/CMSIS/Core/Include/cmsis_gcc.h **** 
 498:HAL_Lib/CMSIS/Core/Include/cmsis_gcc.h **** #if ((defined (__ARM_ARCH_7M__      ) && (__ARM_ARCH_7M__      == 1)) || \
 499:HAL_Lib/CMSIS/Core/Include/cmsis_gcc.h ****      (defined (__ARM_ARCH_7EM__     ) && (__ARM_ARCH_7EM__     == 1)) || \
 500:HAL_Lib/CMSIS/Core/Include/cmsis_gcc.h ****      (defined (__ARM_ARCH_8M_MAIN__ ) && (__ARM_ARCH_8M_MAIN__ == 1))    )
 501:HAL_Lib/CMSIS/Core/Include/cmsis_gcc.h **** /**
 502:HAL_Lib/CMSIS/Core/Include/cmsis_gcc.h ****   \brief   Enable FIQ
 503:HAL_Lib/CMSIS/Core/Include/cmsis_gcc.h ****   \details Enables FIQ interrupts by clearing the F-bit in the CPSR.
 504:HAL_Lib/CMSIS/Core/Include/cmsis_gcc.h ****            Can only be executed in Privileged modes.
 505:HAL_Lib/CMSIS/Core/Include/cmsis_gcc.h ****  */
 506:HAL_Lib/CMSIS/Core/Include/cmsis_gcc.h **** __STATIC_FORCEINLINE void __enable_fault_irq(void)
 507:HAL_Lib/CMSIS/Core/Include/cmsis_gcc.h **** {
 508:HAL_Lib/CMSIS/Core/Include/cmsis_gcc.h ****   __ASM volatile ("cpsie f" : : : "memory");
 509:HAL_Lib/CMSIS/Core/Include/cmsis_gcc.h **** }
 510:HAL_Lib/CMSIS/Core/Include/cmsis_gcc.h **** 
 511:HAL_Lib/CMSIS/Core/Include/cmsis_gcc.h **** 
 512:HAL_Lib/CMSIS/Core/Include/cmsis_gcc.h **** /**
 513:HAL_Lib/CMSIS/Core/Include/cmsis_gcc.h ****   \brief   Disable FIQ
 514:HAL_Lib/CMSIS/Core/Include/cmsis_gcc.h ****   \details Disables FIQ interrupts by setting the F-bit in the CPSR.
 515:HAL_Lib/CMSIS/Core/Include/cmsis_gcc.h ****            Can only be executed in Privileged modes.
 516:HAL_Lib/CMSIS/Core/Include/cmsis_gcc.h ****  */
 517:HAL_Lib/CMSIS/Core/Include/cmsis_gcc.h **** __STATIC_FORCEINLINE void __disable_fault_irq(void)
 518:HAL_Lib/CMSIS/Core/Include/cmsis_gcc.h **** {
 519:HAL_Lib/CMSIS/Core/Include/cmsis_gcc.h ****   __ASM volatile ("cpsid f" : : : "memory");
 520:HAL_Lib/CMSIS/Core/Include/cmsis_gcc.h **** }
 521:HAL_Lib/CMSIS/Core/Include/cmsis_gcc.h **** 
 522:HAL_Lib/CMSIS/Core/Include/cmsis_gcc.h **** 
 523:HAL_Lib/CMSIS/Core/Include/cmsis_gcc.h **** /**
 524:HAL_Lib/CMSIS/Core/Include/cmsis_gcc.h ****   \brief   Get Base Priority
 525:HAL_Lib/CMSIS/Core/Include/cmsis_gcc.h ****   \details Returns the current value of the Base Priority register.
 526:HAL_Lib/CMSIS/Core/Include/cmsis_gcc.h ****   \return               Base Priority register value
 527:HAL_Lib/CMSIS/Core/Include/cmsis_gcc.h ****  */
 528:HAL_Lib/CMSIS/Core/Include/cmsis_gcc.h **** __STATIC_FORCEINLINE uint32_t __get_BASEPRI(void)
 529:HAL_Lib/CMSIS/Core/Include/cmsis_gcc.h **** {
 530:HAL_Lib/CMSIS/Core/Include/cmsis_gcc.h ****   uint32_t result;
 531:HAL_Lib/CMSIS/Core/Include/cmsis_gcc.h **** 
 532:HAL_Lib/CMSIS/Core/Include/cmsis_gcc.h ****   __ASM volatile ("MRS %0, basepri" : "=r" (result) );
 533:HAL_Lib/CMSIS/Core/Include/cmsis_gcc.h ****   return(result);
 534:HAL_Lib/CMSIS/Core/Include/cmsis_gcc.h **** }
ARM GAS  /var/folders/lx/hc4sn_b53233_zkc9xbbl97r0000gp/T//ccAkWgSN.s 			page 57


 535:HAL_Lib/CMSIS/Core/Include/cmsis_gcc.h **** 
 536:HAL_Lib/CMSIS/Core/Include/cmsis_gcc.h **** 
 537:HAL_Lib/CMSIS/Core/Include/cmsis_gcc.h **** #if (defined (__ARM_FEATURE_CMSE ) && (__ARM_FEATURE_CMSE == 3))
 538:HAL_Lib/CMSIS/Core/Include/cmsis_gcc.h **** /**
 539:HAL_Lib/CMSIS/Core/Include/cmsis_gcc.h ****   \brief   Get Base Priority (non-secure)
 540:HAL_Lib/CMSIS/Core/Include/cmsis_gcc.h ****   \details Returns the current value of the non-secure Base Priority register when in secure state.
 541:HAL_Lib/CMSIS/Core/Include/cmsis_gcc.h ****   \return               Base Priority register value
 542:HAL_Lib/CMSIS/Core/Include/cmsis_gcc.h ****  */
 543:HAL_Lib/CMSIS/Core/Include/cmsis_gcc.h **** __STATIC_FORCEINLINE uint32_t __TZ_get_BASEPRI_NS(void)
 544:HAL_Lib/CMSIS/Core/Include/cmsis_gcc.h **** {
 545:HAL_Lib/CMSIS/Core/Include/cmsis_gcc.h ****   uint32_t result;
 546:HAL_Lib/CMSIS/Core/Include/cmsis_gcc.h **** 
 547:HAL_Lib/CMSIS/Core/Include/cmsis_gcc.h ****   __ASM volatile ("MRS %0, basepri_ns" : "=r" (result) );
 548:HAL_Lib/CMSIS/Core/Include/cmsis_gcc.h ****   return(result);
 549:HAL_Lib/CMSIS/Core/Include/cmsis_gcc.h **** }
 550:HAL_Lib/CMSIS/Core/Include/cmsis_gcc.h **** #endif
 551:HAL_Lib/CMSIS/Core/Include/cmsis_gcc.h **** 
 552:HAL_Lib/CMSIS/Core/Include/cmsis_gcc.h **** 
 553:HAL_Lib/CMSIS/Core/Include/cmsis_gcc.h **** /**
 554:HAL_Lib/CMSIS/Core/Include/cmsis_gcc.h ****   \brief   Set Base Priority
 555:HAL_Lib/CMSIS/Core/Include/cmsis_gcc.h ****   \details Assigns the given value to the Base Priority register.
 556:HAL_Lib/CMSIS/Core/Include/cmsis_gcc.h ****   \param [in]    basePri  Base Priority value to set
 557:HAL_Lib/CMSIS/Core/Include/cmsis_gcc.h ****  */
 558:HAL_Lib/CMSIS/Core/Include/cmsis_gcc.h **** __STATIC_FORCEINLINE void __set_BASEPRI(uint32_t basePri)
 559:HAL_Lib/CMSIS/Core/Include/cmsis_gcc.h **** {
 560:HAL_Lib/CMSIS/Core/Include/cmsis_gcc.h ****   __ASM volatile ("MSR basepri, %0" : : "r" (basePri) : "memory");
 561:HAL_Lib/CMSIS/Core/Include/cmsis_gcc.h **** }
 562:HAL_Lib/CMSIS/Core/Include/cmsis_gcc.h **** 
 563:HAL_Lib/CMSIS/Core/Include/cmsis_gcc.h **** 
 564:HAL_Lib/CMSIS/Core/Include/cmsis_gcc.h **** #if (defined (__ARM_FEATURE_CMSE ) && (__ARM_FEATURE_CMSE == 3))
 565:HAL_Lib/CMSIS/Core/Include/cmsis_gcc.h **** /**
 566:HAL_Lib/CMSIS/Core/Include/cmsis_gcc.h ****   \brief   Set Base Priority (non-secure)
 567:HAL_Lib/CMSIS/Core/Include/cmsis_gcc.h ****   \details Assigns the given value to the non-secure Base Priority register when in secure state.
 568:HAL_Lib/CMSIS/Core/Include/cmsis_gcc.h ****   \param [in]    basePri  Base Priority value to set
 569:HAL_Lib/CMSIS/Core/Include/cmsis_gcc.h ****  */
 570:HAL_Lib/CMSIS/Core/Include/cmsis_gcc.h **** __STATIC_FORCEINLINE void __TZ_set_BASEPRI_NS(uint32_t basePri)
 571:HAL_Lib/CMSIS/Core/Include/cmsis_gcc.h **** {
 572:HAL_Lib/CMSIS/Core/Include/cmsis_gcc.h ****   __ASM volatile ("MSR basepri_ns, %0" : : "r" (basePri) : "memory");
 573:HAL_Lib/CMSIS/Core/Include/cmsis_gcc.h **** }
 574:HAL_Lib/CMSIS/Core/Include/cmsis_gcc.h **** #endif
 575:HAL_Lib/CMSIS/Core/Include/cmsis_gcc.h **** 
 576:HAL_Lib/CMSIS/Core/Include/cmsis_gcc.h **** 
 577:HAL_Lib/CMSIS/Core/Include/cmsis_gcc.h **** /**
 578:HAL_Lib/CMSIS/Core/Include/cmsis_gcc.h ****   \brief   Set Base Priority with condition
 579:HAL_Lib/CMSIS/Core/Include/cmsis_gcc.h ****   \details Assigns the given value to the Base Priority register only if BASEPRI masking is disable
 580:HAL_Lib/CMSIS/Core/Include/cmsis_gcc.h ****            or the new value increases the BASEPRI priority level.
 581:HAL_Lib/CMSIS/Core/Include/cmsis_gcc.h ****   \param [in]    basePri  Base Priority value to set
 582:HAL_Lib/CMSIS/Core/Include/cmsis_gcc.h ****  */
 583:HAL_Lib/CMSIS/Core/Include/cmsis_gcc.h **** __STATIC_FORCEINLINE void __set_BASEPRI_MAX(uint32_t basePri)
 584:HAL_Lib/CMSIS/Core/Include/cmsis_gcc.h **** {
 585:HAL_Lib/CMSIS/Core/Include/cmsis_gcc.h ****   __ASM volatile ("MSR basepri_max, %0" : : "r" (basePri) : "memory");
 586:HAL_Lib/CMSIS/Core/Include/cmsis_gcc.h **** }
 587:HAL_Lib/CMSIS/Core/Include/cmsis_gcc.h **** 
 588:HAL_Lib/CMSIS/Core/Include/cmsis_gcc.h **** 
 589:HAL_Lib/CMSIS/Core/Include/cmsis_gcc.h **** /**
 590:HAL_Lib/CMSIS/Core/Include/cmsis_gcc.h ****   \brief   Get Fault Mask
 591:HAL_Lib/CMSIS/Core/Include/cmsis_gcc.h ****   \details Returns the current value of the Fault Mask register.
ARM GAS  /var/folders/lx/hc4sn_b53233_zkc9xbbl97r0000gp/T//ccAkWgSN.s 			page 58


 592:HAL_Lib/CMSIS/Core/Include/cmsis_gcc.h ****   \return               Fault Mask register value
 593:HAL_Lib/CMSIS/Core/Include/cmsis_gcc.h ****  */
 594:HAL_Lib/CMSIS/Core/Include/cmsis_gcc.h **** __STATIC_FORCEINLINE uint32_t __get_FAULTMASK(void)
 595:HAL_Lib/CMSIS/Core/Include/cmsis_gcc.h **** {
 596:HAL_Lib/CMSIS/Core/Include/cmsis_gcc.h ****   uint32_t result;
 597:HAL_Lib/CMSIS/Core/Include/cmsis_gcc.h **** 
 598:HAL_Lib/CMSIS/Core/Include/cmsis_gcc.h ****   __ASM volatile ("MRS %0, faultmask" : "=r" (result) );
 599:HAL_Lib/CMSIS/Core/Include/cmsis_gcc.h ****   return(result);
 600:HAL_Lib/CMSIS/Core/Include/cmsis_gcc.h **** }
 601:HAL_Lib/CMSIS/Core/Include/cmsis_gcc.h **** 
 602:HAL_Lib/CMSIS/Core/Include/cmsis_gcc.h **** 
 603:HAL_Lib/CMSIS/Core/Include/cmsis_gcc.h **** #if (defined (__ARM_FEATURE_CMSE ) && (__ARM_FEATURE_CMSE == 3))
 604:HAL_Lib/CMSIS/Core/Include/cmsis_gcc.h **** /**
 605:HAL_Lib/CMSIS/Core/Include/cmsis_gcc.h ****   \brief   Get Fault Mask (non-secure)
 606:HAL_Lib/CMSIS/Core/Include/cmsis_gcc.h ****   \details Returns the current value of the non-secure Fault Mask register when in secure state.
 607:HAL_Lib/CMSIS/Core/Include/cmsis_gcc.h ****   \return               Fault Mask register value
 608:HAL_Lib/CMSIS/Core/Include/cmsis_gcc.h ****  */
 609:HAL_Lib/CMSIS/Core/Include/cmsis_gcc.h **** __STATIC_FORCEINLINE uint32_t __TZ_get_FAULTMASK_NS(void)
 610:HAL_Lib/CMSIS/Core/Include/cmsis_gcc.h **** {
 611:HAL_Lib/CMSIS/Core/Include/cmsis_gcc.h ****   uint32_t result;
 612:HAL_Lib/CMSIS/Core/Include/cmsis_gcc.h **** 
 613:HAL_Lib/CMSIS/Core/Include/cmsis_gcc.h ****   __ASM volatile ("MRS %0, faultmask_ns" : "=r" (result) );
 614:HAL_Lib/CMSIS/Core/Include/cmsis_gcc.h ****   return(result);
 615:HAL_Lib/CMSIS/Core/Include/cmsis_gcc.h **** }
 616:HAL_Lib/CMSIS/Core/Include/cmsis_gcc.h **** #endif
 617:HAL_Lib/CMSIS/Core/Include/cmsis_gcc.h **** 
 618:HAL_Lib/CMSIS/Core/Include/cmsis_gcc.h **** 
 619:HAL_Lib/CMSIS/Core/Include/cmsis_gcc.h **** /**
 620:HAL_Lib/CMSIS/Core/Include/cmsis_gcc.h ****   \brief   Set Fault Mask
 621:HAL_Lib/CMSIS/Core/Include/cmsis_gcc.h ****   \details Assigns the given value to the Fault Mask register.
 622:HAL_Lib/CMSIS/Core/Include/cmsis_gcc.h ****   \param [in]    faultMask  Fault Mask value to set
 623:HAL_Lib/CMSIS/Core/Include/cmsis_gcc.h ****  */
 624:HAL_Lib/CMSIS/Core/Include/cmsis_gcc.h **** __STATIC_FORCEINLINE void __set_FAULTMASK(uint32_t faultMask)
 625:HAL_Lib/CMSIS/Core/Include/cmsis_gcc.h **** {
 626:HAL_Lib/CMSIS/Core/Include/cmsis_gcc.h ****   __ASM volatile ("MSR faultmask, %0" : : "r" (faultMask) : "memory");
 627:HAL_Lib/CMSIS/Core/Include/cmsis_gcc.h **** }
 628:HAL_Lib/CMSIS/Core/Include/cmsis_gcc.h **** 
 629:HAL_Lib/CMSIS/Core/Include/cmsis_gcc.h **** 
 630:HAL_Lib/CMSIS/Core/Include/cmsis_gcc.h **** #if (defined (__ARM_FEATURE_CMSE ) && (__ARM_FEATURE_CMSE == 3))
 631:HAL_Lib/CMSIS/Core/Include/cmsis_gcc.h **** /**
 632:HAL_Lib/CMSIS/Core/Include/cmsis_gcc.h ****   \brief   Set Fault Mask (non-secure)
 633:HAL_Lib/CMSIS/Core/Include/cmsis_gcc.h ****   \details Assigns the given value to the non-secure Fault Mask register when in secure state.
 634:HAL_Lib/CMSIS/Core/Include/cmsis_gcc.h ****   \param [in]    faultMask  Fault Mask value to set
 635:HAL_Lib/CMSIS/Core/Include/cmsis_gcc.h ****  */
 636:HAL_Lib/CMSIS/Core/Include/cmsis_gcc.h **** __STATIC_FORCEINLINE void __TZ_set_FAULTMASK_NS(uint32_t faultMask)
 637:HAL_Lib/CMSIS/Core/Include/cmsis_gcc.h **** {
 638:HAL_Lib/CMSIS/Core/Include/cmsis_gcc.h ****   __ASM volatile ("MSR faultmask_ns, %0" : : "r" (faultMask) : "memory");
 639:HAL_Lib/CMSIS/Core/Include/cmsis_gcc.h **** }
 640:HAL_Lib/CMSIS/Core/Include/cmsis_gcc.h **** #endif
 641:HAL_Lib/CMSIS/Core/Include/cmsis_gcc.h **** 
 642:HAL_Lib/CMSIS/Core/Include/cmsis_gcc.h **** #endif /* ((defined (__ARM_ARCH_7M__      ) && (__ARM_ARCH_7M__      == 1)) || \
 643:HAL_Lib/CMSIS/Core/Include/cmsis_gcc.h ****            (defined (__ARM_ARCH_7EM__     ) && (__ARM_ARCH_7EM__     == 1)) || \
 644:HAL_Lib/CMSIS/Core/Include/cmsis_gcc.h ****            (defined (__ARM_ARCH_8M_MAIN__ ) && (__ARM_ARCH_8M_MAIN__ == 1))    ) */
 645:HAL_Lib/CMSIS/Core/Include/cmsis_gcc.h **** 
 646:HAL_Lib/CMSIS/Core/Include/cmsis_gcc.h **** 
 647:HAL_Lib/CMSIS/Core/Include/cmsis_gcc.h **** #if ((defined (__ARM_ARCH_8M_MAIN__ ) && (__ARM_ARCH_8M_MAIN__ == 1)) || \
 648:HAL_Lib/CMSIS/Core/Include/cmsis_gcc.h ****      (defined (__ARM_ARCH_8M_BASE__ ) && (__ARM_ARCH_8M_BASE__ == 1))    )
ARM GAS  /var/folders/lx/hc4sn_b53233_zkc9xbbl97r0000gp/T//ccAkWgSN.s 			page 59


 649:HAL_Lib/CMSIS/Core/Include/cmsis_gcc.h **** 
 650:HAL_Lib/CMSIS/Core/Include/cmsis_gcc.h **** /**
 651:HAL_Lib/CMSIS/Core/Include/cmsis_gcc.h ****   \brief   Get Process Stack Pointer Limit
 652:HAL_Lib/CMSIS/Core/Include/cmsis_gcc.h ****   Devices without ARMv8-M Main Extensions (i.e. Cortex-M23) lack the non-secure
 653:HAL_Lib/CMSIS/Core/Include/cmsis_gcc.h ****   Stack Pointer Limit register hence zero is returned always in non-secure
 654:HAL_Lib/CMSIS/Core/Include/cmsis_gcc.h ****   mode.
 655:HAL_Lib/CMSIS/Core/Include/cmsis_gcc.h ****   
 656:HAL_Lib/CMSIS/Core/Include/cmsis_gcc.h ****   \details Returns the current value of the Process Stack Pointer Limit (PSPLIM).
 657:HAL_Lib/CMSIS/Core/Include/cmsis_gcc.h ****   \return               PSPLIM Register value
 658:HAL_Lib/CMSIS/Core/Include/cmsis_gcc.h ****  */
 659:HAL_Lib/CMSIS/Core/Include/cmsis_gcc.h **** __STATIC_FORCEINLINE uint32_t __get_PSPLIM(void)
 660:HAL_Lib/CMSIS/Core/Include/cmsis_gcc.h **** {
 661:HAL_Lib/CMSIS/Core/Include/cmsis_gcc.h **** #if (!(defined (__ARM_ARCH_8M_MAIN__ ) && (__ARM_ARCH_8M_MAIN__ == 1)) && \
 662:HAL_Lib/CMSIS/Core/Include/cmsis_gcc.h ****     (!defined (__ARM_FEATURE_CMSE) || (__ARM_FEATURE_CMSE < 3)))
 663:HAL_Lib/CMSIS/Core/Include/cmsis_gcc.h ****     // without main extensions, the non-secure PSPLIM is RAZ/WI
 664:HAL_Lib/CMSIS/Core/Include/cmsis_gcc.h ****   return 0U;
 665:HAL_Lib/CMSIS/Core/Include/cmsis_gcc.h **** #else
 666:HAL_Lib/CMSIS/Core/Include/cmsis_gcc.h ****   uint32_t result;
 667:HAL_Lib/CMSIS/Core/Include/cmsis_gcc.h ****   __ASM volatile ("MRS %0, psplim"  : "=r" (result) );
 668:HAL_Lib/CMSIS/Core/Include/cmsis_gcc.h ****   return result;
 669:HAL_Lib/CMSIS/Core/Include/cmsis_gcc.h **** #endif
 670:HAL_Lib/CMSIS/Core/Include/cmsis_gcc.h **** }
 671:HAL_Lib/CMSIS/Core/Include/cmsis_gcc.h **** 
 672:HAL_Lib/CMSIS/Core/Include/cmsis_gcc.h **** #if (defined (__ARM_FEATURE_CMSE) && (__ARM_FEATURE_CMSE == 3))
 673:HAL_Lib/CMSIS/Core/Include/cmsis_gcc.h **** /**
 674:HAL_Lib/CMSIS/Core/Include/cmsis_gcc.h ****   \brief   Get Process Stack Pointer Limit (non-secure)
 675:HAL_Lib/CMSIS/Core/Include/cmsis_gcc.h ****   Devices without ARMv8-M Main Extensions (i.e. Cortex-M23) lack the non-secure
 676:HAL_Lib/CMSIS/Core/Include/cmsis_gcc.h ****   Stack Pointer Limit register hence zero is returned always.
 677:HAL_Lib/CMSIS/Core/Include/cmsis_gcc.h **** 
 678:HAL_Lib/CMSIS/Core/Include/cmsis_gcc.h ****   \details Returns the current value of the non-secure Process Stack Pointer Limit (PSPLIM) when in
 679:HAL_Lib/CMSIS/Core/Include/cmsis_gcc.h ****   \return               PSPLIM Register value
 680:HAL_Lib/CMSIS/Core/Include/cmsis_gcc.h ****  */
 681:HAL_Lib/CMSIS/Core/Include/cmsis_gcc.h **** __STATIC_FORCEINLINE uint32_t __TZ_get_PSPLIM_NS(void)
 682:HAL_Lib/CMSIS/Core/Include/cmsis_gcc.h **** {
 683:HAL_Lib/CMSIS/Core/Include/cmsis_gcc.h **** #if (!(defined (__ARM_ARCH_8M_MAIN__ ) && (__ARM_ARCH_8M_MAIN__ == 1)))
 684:HAL_Lib/CMSIS/Core/Include/cmsis_gcc.h ****   // without main extensions, the non-secure PSPLIM is RAZ/WI
 685:HAL_Lib/CMSIS/Core/Include/cmsis_gcc.h ****   return 0U;
 686:HAL_Lib/CMSIS/Core/Include/cmsis_gcc.h **** #else
 687:HAL_Lib/CMSIS/Core/Include/cmsis_gcc.h ****   uint32_t result;
 688:HAL_Lib/CMSIS/Core/Include/cmsis_gcc.h ****   __ASM volatile ("MRS %0, psplim_ns"  : "=r" (result) );
 689:HAL_Lib/CMSIS/Core/Include/cmsis_gcc.h ****   return result;
 690:HAL_Lib/CMSIS/Core/Include/cmsis_gcc.h **** #endif
 691:HAL_Lib/CMSIS/Core/Include/cmsis_gcc.h **** }
 692:HAL_Lib/CMSIS/Core/Include/cmsis_gcc.h **** #endif
 693:HAL_Lib/CMSIS/Core/Include/cmsis_gcc.h **** 
 694:HAL_Lib/CMSIS/Core/Include/cmsis_gcc.h **** 
 695:HAL_Lib/CMSIS/Core/Include/cmsis_gcc.h **** /**
 696:HAL_Lib/CMSIS/Core/Include/cmsis_gcc.h ****   \brief   Set Process Stack Pointer Limit
 697:HAL_Lib/CMSIS/Core/Include/cmsis_gcc.h ****   Devices without ARMv8-M Main Extensions (i.e. Cortex-M23) lack the non-secure
 698:HAL_Lib/CMSIS/Core/Include/cmsis_gcc.h ****   Stack Pointer Limit register hence the write is silently ignored in non-secure
 699:HAL_Lib/CMSIS/Core/Include/cmsis_gcc.h ****   mode.
 700:HAL_Lib/CMSIS/Core/Include/cmsis_gcc.h ****   
 701:HAL_Lib/CMSIS/Core/Include/cmsis_gcc.h ****   \details Assigns the given value to the Process Stack Pointer Limit (PSPLIM).
 702:HAL_Lib/CMSIS/Core/Include/cmsis_gcc.h ****   \param [in]    ProcStackPtrLimit  Process Stack Pointer Limit value to set
 703:HAL_Lib/CMSIS/Core/Include/cmsis_gcc.h ****  */
 704:HAL_Lib/CMSIS/Core/Include/cmsis_gcc.h **** __STATIC_FORCEINLINE void __set_PSPLIM(uint32_t ProcStackPtrLimit)
 705:HAL_Lib/CMSIS/Core/Include/cmsis_gcc.h **** {
ARM GAS  /var/folders/lx/hc4sn_b53233_zkc9xbbl97r0000gp/T//ccAkWgSN.s 			page 60


 706:HAL_Lib/CMSIS/Core/Include/cmsis_gcc.h **** #if (!(defined (__ARM_ARCH_8M_MAIN__ ) && (__ARM_ARCH_8M_MAIN__ == 1)) && \
 707:HAL_Lib/CMSIS/Core/Include/cmsis_gcc.h ****     (!defined (__ARM_FEATURE_CMSE) || (__ARM_FEATURE_CMSE < 3)))
 708:HAL_Lib/CMSIS/Core/Include/cmsis_gcc.h ****   // without main extensions, the non-secure PSPLIM is RAZ/WI
 709:HAL_Lib/CMSIS/Core/Include/cmsis_gcc.h ****   (void)ProcStackPtrLimit;
 710:HAL_Lib/CMSIS/Core/Include/cmsis_gcc.h **** #else
 711:HAL_Lib/CMSIS/Core/Include/cmsis_gcc.h ****   __ASM volatile ("MSR psplim, %0" : : "r" (ProcStackPtrLimit));
 712:HAL_Lib/CMSIS/Core/Include/cmsis_gcc.h **** #endif
 713:HAL_Lib/CMSIS/Core/Include/cmsis_gcc.h **** }
 714:HAL_Lib/CMSIS/Core/Include/cmsis_gcc.h **** 
 715:HAL_Lib/CMSIS/Core/Include/cmsis_gcc.h **** 
 716:HAL_Lib/CMSIS/Core/Include/cmsis_gcc.h **** #if (defined (__ARM_FEATURE_CMSE  ) && (__ARM_FEATURE_CMSE   == 3))
 717:HAL_Lib/CMSIS/Core/Include/cmsis_gcc.h **** /**
 718:HAL_Lib/CMSIS/Core/Include/cmsis_gcc.h ****   \brief   Set Process Stack Pointer (non-secure)
 719:HAL_Lib/CMSIS/Core/Include/cmsis_gcc.h ****   Devices without ARMv8-M Main Extensions (i.e. Cortex-M23) lack the non-secure
 720:HAL_Lib/CMSIS/Core/Include/cmsis_gcc.h ****   Stack Pointer Limit register hence the write is silently ignored.
 721:HAL_Lib/CMSIS/Core/Include/cmsis_gcc.h **** 
 722:HAL_Lib/CMSIS/Core/Include/cmsis_gcc.h ****   \details Assigns the given value to the non-secure Process Stack Pointer Limit (PSPLIM) when in s
 723:HAL_Lib/CMSIS/Core/Include/cmsis_gcc.h ****   \param [in]    ProcStackPtrLimit  Process Stack Pointer Limit value to set
 724:HAL_Lib/CMSIS/Core/Include/cmsis_gcc.h ****  */
 725:HAL_Lib/CMSIS/Core/Include/cmsis_gcc.h **** __STATIC_FORCEINLINE void __TZ_set_PSPLIM_NS(uint32_t ProcStackPtrLimit)
 726:HAL_Lib/CMSIS/Core/Include/cmsis_gcc.h **** {
 727:HAL_Lib/CMSIS/Core/Include/cmsis_gcc.h **** #if (!(defined (__ARM_ARCH_8M_MAIN__ ) && (__ARM_ARCH_8M_MAIN__ == 1)))
 728:HAL_Lib/CMSIS/Core/Include/cmsis_gcc.h ****   // without main extensions, the non-secure PSPLIM is RAZ/WI
 729:HAL_Lib/CMSIS/Core/Include/cmsis_gcc.h ****   (void)ProcStackPtrLimit;
 730:HAL_Lib/CMSIS/Core/Include/cmsis_gcc.h **** #else
 731:HAL_Lib/CMSIS/Core/Include/cmsis_gcc.h ****   __ASM volatile ("MSR psplim_ns, %0\n" : : "r" (ProcStackPtrLimit));
 732:HAL_Lib/CMSIS/Core/Include/cmsis_gcc.h **** #endif
 733:HAL_Lib/CMSIS/Core/Include/cmsis_gcc.h **** }
 734:HAL_Lib/CMSIS/Core/Include/cmsis_gcc.h **** #endif
 735:HAL_Lib/CMSIS/Core/Include/cmsis_gcc.h **** 
 736:HAL_Lib/CMSIS/Core/Include/cmsis_gcc.h **** 
 737:HAL_Lib/CMSIS/Core/Include/cmsis_gcc.h **** /**
 738:HAL_Lib/CMSIS/Core/Include/cmsis_gcc.h ****   \brief   Get Main Stack Pointer Limit
 739:HAL_Lib/CMSIS/Core/Include/cmsis_gcc.h ****   Devices without ARMv8-M Main Extensions (i.e. Cortex-M23) lack the non-secure
 740:HAL_Lib/CMSIS/Core/Include/cmsis_gcc.h ****   Stack Pointer Limit register hence zero is returned always in non-secure
 741:HAL_Lib/CMSIS/Core/Include/cmsis_gcc.h ****   mode.
 742:HAL_Lib/CMSIS/Core/Include/cmsis_gcc.h **** 
 743:HAL_Lib/CMSIS/Core/Include/cmsis_gcc.h ****   \details Returns the current value of the Main Stack Pointer Limit (MSPLIM).
 744:HAL_Lib/CMSIS/Core/Include/cmsis_gcc.h ****   \return               MSPLIM Register value
 745:HAL_Lib/CMSIS/Core/Include/cmsis_gcc.h ****  */
 746:HAL_Lib/CMSIS/Core/Include/cmsis_gcc.h **** __STATIC_FORCEINLINE uint32_t __get_MSPLIM(void)
 747:HAL_Lib/CMSIS/Core/Include/cmsis_gcc.h **** {
 748:HAL_Lib/CMSIS/Core/Include/cmsis_gcc.h **** #if (!(defined (__ARM_ARCH_8M_MAIN__ ) && (__ARM_ARCH_8M_MAIN__ == 1)) && \
 749:HAL_Lib/CMSIS/Core/Include/cmsis_gcc.h ****     (!defined (__ARM_FEATURE_CMSE) || (__ARM_FEATURE_CMSE < 3)))
 750:HAL_Lib/CMSIS/Core/Include/cmsis_gcc.h ****   // without main extensions, the non-secure MSPLIM is RAZ/WI
 751:HAL_Lib/CMSIS/Core/Include/cmsis_gcc.h ****   return 0U;
 752:HAL_Lib/CMSIS/Core/Include/cmsis_gcc.h **** #else
 753:HAL_Lib/CMSIS/Core/Include/cmsis_gcc.h ****   uint32_t result;
 754:HAL_Lib/CMSIS/Core/Include/cmsis_gcc.h ****   __ASM volatile ("MRS %0, msplim" : "=r" (result) );
 755:HAL_Lib/CMSIS/Core/Include/cmsis_gcc.h ****   return result;
 756:HAL_Lib/CMSIS/Core/Include/cmsis_gcc.h **** #endif
 757:HAL_Lib/CMSIS/Core/Include/cmsis_gcc.h **** }
 758:HAL_Lib/CMSIS/Core/Include/cmsis_gcc.h **** 
 759:HAL_Lib/CMSIS/Core/Include/cmsis_gcc.h **** 
 760:HAL_Lib/CMSIS/Core/Include/cmsis_gcc.h **** #if (defined (__ARM_FEATURE_CMSE  ) && (__ARM_FEATURE_CMSE   == 3))
 761:HAL_Lib/CMSIS/Core/Include/cmsis_gcc.h **** /**
 762:HAL_Lib/CMSIS/Core/Include/cmsis_gcc.h ****   \brief   Get Main Stack Pointer Limit (non-secure)
ARM GAS  /var/folders/lx/hc4sn_b53233_zkc9xbbl97r0000gp/T//ccAkWgSN.s 			page 61


 763:HAL_Lib/CMSIS/Core/Include/cmsis_gcc.h ****   Devices without ARMv8-M Main Extensions (i.e. Cortex-M23) lack the non-secure
 764:HAL_Lib/CMSIS/Core/Include/cmsis_gcc.h ****   Stack Pointer Limit register hence zero is returned always.
 765:HAL_Lib/CMSIS/Core/Include/cmsis_gcc.h **** 
 766:HAL_Lib/CMSIS/Core/Include/cmsis_gcc.h ****   \details Returns the current value of the non-secure Main Stack Pointer Limit(MSPLIM) when in sec
 767:HAL_Lib/CMSIS/Core/Include/cmsis_gcc.h ****   \return               MSPLIM Register value
 768:HAL_Lib/CMSIS/Core/Include/cmsis_gcc.h ****  */
 769:HAL_Lib/CMSIS/Core/Include/cmsis_gcc.h **** __STATIC_FORCEINLINE uint32_t __TZ_get_MSPLIM_NS(void)
 770:HAL_Lib/CMSIS/Core/Include/cmsis_gcc.h **** {
 771:HAL_Lib/CMSIS/Core/Include/cmsis_gcc.h **** #if (!(defined (__ARM_ARCH_8M_MAIN__ ) && (__ARM_ARCH_8M_MAIN__ == 1)))
 772:HAL_Lib/CMSIS/Core/Include/cmsis_gcc.h ****   // without main extensions, the non-secure MSPLIM is RAZ/WI
 773:HAL_Lib/CMSIS/Core/Include/cmsis_gcc.h ****   return 0U;
 774:HAL_Lib/CMSIS/Core/Include/cmsis_gcc.h **** #else
 775:HAL_Lib/CMSIS/Core/Include/cmsis_gcc.h ****   uint32_t result;
 776:HAL_Lib/CMSIS/Core/Include/cmsis_gcc.h ****   __ASM volatile ("MRS %0, msplim_ns" : "=r" (result) );
 777:HAL_Lib/CMSIS/Core/Include/cmsis_gcc.h ****   return result;
 778:HAL_Lib/CMSIS/Core/Include/cmsis_gcc.h **** #endif
 779:HAL_Lib/CMSIS/Core/Include/cmsis_gcc.h **** }
 780:HAL_Lib/CMSIS/Core/Include/cmsis_gcc.h **** #endif
 781:HAL_Lib/CMSIS/Core/Include/cmsis_gcc.h **** 
 782:HAL_Lib/CMSIS/Core/Include/cmsis_gcc.h **** 
 783:HAL_Lib/CMSIS/Core/Include/cmsis_gcc.h **** /**
 784:HAL_Lib/CMSIS/Core/Include/cmsis_gcc.h ****   \brief   Set Main Stack Pointer Limit
 785:HAL_Lib/CMSIS/Core/Include/cmsis_gcc.h ****   Devices without ARMv8-M Main Extensions (i.e. Cortex-M23) lack the non-secure
 786:HAL_Lib/CMSIS/Core/Include/cmsis_gcc.h ****   Stack Pointer Limit register hence the write is silently ignored in non-secure
 787:HAL_Lib/CMSIS/Core/Include/cmsis_gcc.h ****   mode.
 788:HAL_Lib/CMSIS/Core/Include/cmsis_gcc.h **** 
 789:HAL_Lib/CMSIS/Core/Include/cmsis_gcc.h ****   \details Assigns the given value to the Main Stack Pointer Limit (MSPLIM).
 790:HAL_Lib/CMSIS/Core/Include/cmsis_gcc.h ****   \param [in]    MainStackPtrLimit  Main Stack Pointer Limit value to set
 791:HAL_Lib/CMSIS/Core/Include/cmsis_gcc.h ****  */
 792:HAL_Lib/CMSIS/Core/Include/cmsis_gcc.h **** __STATIC_FORCEINLINE void __set_MSPLIM(uint32_t MainStackPtrLimit)
 793:HAL_Lib/CMSIS/Core/Include/cmsis_gcc.h **** {
 794:HAL_Lib/CMSIS/Core/Include/cmsis_gcc.h **** #if (!(defined (__ARM_ARCH_8M_MAIN__ ) && (__ARM_ARCH_8M_MAIN__ == 1)) && \
 795:HAL_Lib/CMSIS/Core/Include/cmsis_gcc.h ****     (!defined (__ARM_FEATURE_CMSE) || (__ARM_FEATURE_CMSE < 3)))
 796:HAL_Lib/CMSIS/Core/Include/cmsis_gcc.h ****   // without main extensions, the non-secure MSPLIM is RAZ/WI
 797:HAL_Lib/CMSIS/Core/Include/cmsis_gcc.h ****   (void)MainStackPtrLimit;
 798:HAL_Lib/CMSIS/Core/Include/cmsis_gcc.h **** #else
 799:HAL_Lib/CMSIS/Core/Include/cmsis_gcc.h ****   __ASM volatile ("MSR msplim, %0" : : "r" (MainStackPtrLimit));
 800:HAL_Lib/CMSIS/Core/Include/cmsis_gcc.h **** #endif
 801:HAL_Lib/CMSIS/Core/Include/cmsis_gcc.h **** }
 802:HAL_Lib/CMSIS/Core/Include/cmsis_gcc.h **** 
 803:HAL_Lib/CMSIS/Core/Include/cmsis_gcc.h **** 
 804:HAL_Lib/CMSIS/Core/Include/cmsis_gcc.h **** #if (defined (__ARM_FEATURE_CMSE  ) && (__ARM_FEATURE_CMSE   == 3))
 805:HAL_Lib/CMSIS/Core/Include/cmsis_gcc.h **** /**
 806:HAL_Lib/CMSIS/Core/Include/cmsis_gcc.h ****   \brief   Set Main Stack Pointer Limit (non-secure)
 807:HAL_Lib/CMSIS/Core/Include/cmsis_gcc.h ****   Devices without ARMv8-M Main Extensions (i.e. Cortex-M23) lack the non-secure
 808:HAL_Lib/CMSIS/Core/Include/cmsis_gcc.h ****   Stack Pointer Limit register hence the write is silently ignored.
 809:HAL_Lib/CMSIS/Core/Include/cmsis_gcc.h **** 
 810:HAL_Lib/CMSIS/Core/Include/cmsis_gcc.h ****   \details Assigns the given value to the non-secure Main Stack Pointer Limit (MSPLIM) when in secu
 811:HAL_Lib/CMSIS/Core/Include/cmsis_gcc.h ****   \param [in]    MainStackPtrLimit  Main Stack Pointer value to set
 812:HAL_Lib/CMSIS/Core/Include/cmsis_gcc.h ****  */
 813:HAL_Lib/CMSIS/Core/Include/cmsis_gcc.h **** __STATIC_FORCEINLINE void __TZ_set_MSPLIM_NS(uint32_t MainStackPtrLimit)
 814:HAL_Lib/CMSIS/Core/Include/cmsis_gcc.h **** {
 815:HAL_Lib/CMSIS/Core/Include/cmsis_gcc.h **** #if (!(defined (__ARM_ARCH_8M_MAIN__ ) && (__ARM_ARCH_8M_MAIN__ == 1)))
 816:HAL_Lib/CMSIS/Core/Include/cmsis_gcc.h ****   // without main extensions, the non-secure MSPLIM is RAZ/WI
 817:HAL_Lib/CMSIS/Core/Include/cmsis_gcc.h ****   (void)MainStackPtrLimit;
 818:HAL_Lib/CMSIS/Core/Include/cmsis_gcc.h **** #else
 819:HAL_Lib/CMSIS/Core/Include/cmsis_gcc.h ****   __ASM volatile ("MSR msplim_ns, %0" : : "r" (MainStackPtrLimit));
ARM GAS  /var/folders/lx/hc4sn_b53233_zkc9xbbl97r0000gp/T//ccAkWgSN.s 			page 62


 820:HAL_Lib/CMSIS/Core/Include/cmsis_gcc.h **** #endif
 821:HAL_Lib/CMSIS/Core/Include/cmsis_gcc.h **** }
 822:HAL_Lib/CMSIS/Core/Include/cmsis_gcc.h **** #endif
 823:HAL_Lib/CMSIS/Core/Include/cmsis_gcc.h **** 
 824:HAL_Lib/CMSIS/Core/Include/cmsis_gcc.h **** #endif /* ((defined (__ARM_ARCH_8M_MAIN__ ) && (__ARM_ARCH_8M_MAIN__ == 1)) || \
 825:HAL_Lib/CMSIS/Core/Include/cmsis_gcc.h ****            (defined (__ARM_ARCH_8M_BASE__ ) && (__ARM_ARCH_8M_BASE__ == 1))    ) */
 826:HAL_Lib/CMSIS/Core/Include/cmsis_gcc.h **** 
 827:HAL_Lib/CMSIS/Core/Include/cmsis_gcc.h **** 
 828:HAL_Lib/CMSIS/Core/Include/cmsis_gcc.h **** /**
 829:HAL_Lib/CMSIS/Core/Include/cmsis_gcc.h ****   \brief   Get FPSCR
 830:HAL_Lib/CMSIS/Core/Include/cmsis_gcc.h ****   \details Returns the current value of the Floating Point Status/Control register.
 831:HAL_Lib/CMSIS/Core/Include/cmsis_gcc.h ****   \return               Floating Point Status/Control register value
 832:HAL_Lib/CMSIS/Core/Include/cmsis_gcc.h ****  */
 833:HAL_Lib/CMSIS/Core/Include/cmsis_gcc.h **** __STATIC_FORCEINLINE uint32_t __get_FPSCR(void)
 834:HAL_Lib/CMSIS/Core/Include/cmsis_gcc.h **** {
 835:HAL_Lib/CMSIS/Core/Include/cmsis_gcc.h **** #if ((defined (__FPU_PRESENT) && (__FPU_PRESENT == 1U)) && \
 836:HAL_Lib/CMSIS/Core/Include/cmsis_gcc.h ****      (defined (__FPU_USED   ) && (__FPU_USED    == 1U))     )
 837:HAL_Lib/CMSIS/Core/Include/cmsis_gcc.h **** #if __has_builtin(__builtin_arm_get_fpscr) 
 838:HAL_Lib/CMSIS/Core/Include/cmsis_gcc.h **** // Re-enable using built-in when GCC has been fixed
 839:HAL_Lib/CMSIS/Core/Include/cmsis_gcc.h **** // || (__GNUC__ > 7) || (__GNUC__ == 7 && __GNUC_MINOR__ >= 2)
 840:HAL_Lib/CMSIS/Core/Include/cmsis_gcc.h ****   /* see https://gcc.gnu.org/ml/gcc-patches/2017-04/msg00443.html */
 841:HAL_Lib/CMSIS/Core/Include/cmsis_gcc.h ****   return __builtin_arm_get_fpscr();
 842:HAL_Lib/CMSIS/Core/Include/cmsis_gcc.h **** #else
 843:HAL_Lib/CMSIS/Core/Include/cmsis_gcc.h ****   uint32_t result;
 844:HAL_Lib/CMSIS/Core/Include/cmsis_gcc.h **** 
 845:HAL_Lib/CMSIS/Core/Include/cmsis_gcc.h ****   __ASM volatile ("VMRS %0, fpscr" : "=r" (result) );
 846:HAL_Lib/CMSIS/Core/Include/cmsis_gcc.h ****   return(result);
 847:HAL_Lib/CMSIS/Core/Include/cmsis_gcc.h **** #endif
 848:HAL_Lib/CMSIS/Core/Include/cmsis_gcc.h **** #else
 849:HAL_Lib/CMSIS/Core/Include/cmsis_gcc.h ****   return(0U);
 850:HAL_Lib/CMSIS/Core/Include/cmsis_gcc.h **** #endif
 851:HAL_Lib/CMSIS/Core/Include/cmsis_gcc.h **** }
 852:HAL_Lib/CMSIS/Core/Include/cmsis_gcc.h **** 
 853:HAL_Lib/CMSIS/Core/Include/cmsis_gcc.h **** 
 854:HAL_Lib/CMSIS/Core/Include/cmsis_gcc.h **** /**
 855:HAL_Lib/CMSIS/Core/Include/cmsis_gcc.h ****   \brief   Set FPSCR
 856:HAL_Lib/CMSIS/Core/Include/cmsis_gcc.h ****   \details Assigns the given value to the Floating Point Status/Control register.
 857:HAL_Lib/CMSIS/Core/Include/cmsis_gcc.h ****   \param [in]    fpscr  Floating Point Status/Control value to set
 858:HAL_Lib/CMSIS/Core/Include/cmsis_gcc.h ****  */
 859:HAL_Lib/CMSIS/Core/Include/cmsis_gcc.h **** __STATIC_FORCEINLINE void __set_FPSCR(uint32_t fpscr)
 860:HAL_Lib/CMSIS/Core/Include/cmsis_gcc.h **** {
 861:HAL_Lib/CMSIS/Core/Include/cmsis_gcc.h **** #if ((defined (__FPU_PRESENT) && (__FPU_PRESENT == 1U)) && \
 862:HAL_Lib/CMSIS/Core/Include/cmsis_gcc.h ****      (defined (__FPU_USED   ) && (__FPU_USED    == 1U))     )
 863:HAL_Lib/CMSIS/Core/Include/cmsis_gcc.h **** #if __has_builtin(__builtin_arm_set_fpscr)
 864:HAL_Lib/CMSIS/Core/Include/cmsis_gcc.h **** // Re-enable using built-in when GCC has been fixed
 865:HAL_Lib/CMSIS/Core/Include/cmsis_gcc.h **** // || (__GNUC__ > 7) || (__GNUC__ == 7 && __GNUC_MINOR__ >= 2)
 866:HAL_Lib/CMSIS/Core/Include/cmsis_gcc.h ****   /* see https://gcc.gnu.org/ml/gcc-patches/2017-04/msg00443.html */
 867:HAL_Lib/CMSIS/Core/Include/cmsis_gcc.h ****   __builtin_arm_set_fpscr(fpscr);
 868:HAL_Lib/CMSIS/Core/Include/cmsis_gcc.h **** #else
 869:HAL_Lib/CMSIS/Core/Include/cmsis_gcc.h ****   __ASM volatile ("VMSR fpscr, %0" : : "r" (fpscr) : "vfpcc", "memory");
 870:HAL_Lib/CMSIS/Core/Include/cmsis_gcc.h **** #endif
 871:HAL_Lib/CMSIS/Core/Include/cmsis_gcc.h **** #else
 872:HAL_Lib/CMSIS/Core/Include/cmsis_gcc.h ****   (void)fpscr;
 873:HAL_Lib/CMSIS/Core/Include/cmsis_gcc.h **** #endif
 874:HAL_Lib/CMSIS/Core/Include/cmsis_gcc.h **** }
 875:HAL_Lib/CMSIS/Core/Include/cmsis_gcc.h **** 
 876:HAL_Lib/CMSIS/Core/Include/cmsis_gcc.h **** 
ARM GAS  /var/folders/lx/hc4sn_b53233_zkc9xbbl97r0000gp/T//ccAkWgSN.s 			page 63


 877:HAL_Lib/CMSIS/Core/Include/cmsis_gcc.h **** /*@} end of CMSIS_Core_RegAccFunctions */
 878:HAL_Lib/CMSIS/Core/Include/cmsis_gcc.h **** 
 879:HAL_Lib/CMSIS/Core/Include/cmsis_gcc.h **** 
 880:HAL_Lib/CMSIS/Core/Include/cmsis_gcc.h **** /* ##########################  Core Instruction Access  ######################### */
 881:HAL_Lib/CMSIS/Core/Include/cmsis_gcc.h **** /** \defgroup CMSIS_Core_InstructionInterface CMSIS Core Instruction Interface
 882:HAL_Lib/CMSIS/Core/Include/cmsis_gcc.h ****   Access to dedicated instructions
 883:HAL_Lib/CMSIS/Core/Include/cmsis_gcc.h ****   @{
 884:HAL_Lib/CMSIS/Core/Include/cmsis_gcc.h **** */
 885:HAL_Lib/CMSIS/Core/Include/cmsis_gcc.h **** 
 886:HAL_Lib/CMSIS/Core/Include/cmsis_gcc.h **** /* Define macros for porting to both thumb1 and thumb2.
 887:HAL_Lib/CMSIS/Core/Include/cmsis_gcc.h ****  * For thumb1, use low register (r0-r7), specified by constraint "l"
 888:HAL_Lib/CMSIS/Core/Include/cmsis_gcc.h ****  * Otherwise, use general registers, specified by constraint "r" */
 889:HAL_Lib/CMSIS/Core/Include/cmsis_gcc.h **** #if defined (__thumb__) && !defined (__thumb2__)
 890:HAL_Lib/CMSIS/Core/Include/cmsis_gcc.h **** #define __CMSIS_GCC_OUT_REG(r) "=l" (r)
 891:HAL_Lib/CMSIS/Core/Include/cmsis_gcc.h **** #define __CMSIS_GCC_RW_REG(r) "+l" (r)
 892:HAL_Lib/CMSIS/Core/Include/cmsis_gcc.h **** #define __CMSIS_GCC_USE_REG(r) "l" (r)
 893:HAL_Lib/CMSIS/Core/Include/cmsis_gcc.h **** #else
 894:HAL_Lib/CMSIS/Core/Include/cmsis_gcc.h **** #define __CMSIS_GCC_OUT_REG(r) "=r" (r)
 895:HAL_Lib/CMSIS/Core/Include/cmsis_gcc.h **** #define __CMSIS_GCC_RW_REG(r) "+r" (r)
 896:HAL_Lib/CMSIS/Core/Include/cmsis_gcc.h **** #define __CMSIS_GCC_USE_REG(r) "r" (r)
 897:HAL_Lib/CMSIS/Core/Include/cmsis_gcc.h **** #endif
 898:HAL_Lib/CMSIS/Core/Include/cmsis_gcc.h **** 
 899:HAL_Lib/CMSIS/Core/Include/cmsis_gcc.h **** /**
 900:HAL_Lib/CMSIS/Core/Include/cmsis_gcc.h ****   \brief   No Operation
 901:HAL_Lib/CMSIS/Core/Include/cmsis_gcc.h ****   \details No Operation does nothing. This instruction can be used for code alignment purposes.
 902:HAL_Lib/CMSIS/Core/Include/cmsis_gcc.h ****  */
 903:HAL_Lib/CMSIS/Core/Include/cmsis_gcc.h **** #define __NOP()                             __ASM volatile ("nop")
 904:HAL_Lib/CMSIS/Core/Include/cmsis_gcc.h **** 
 905:HAL_Lib/CMSIS/Core/Include/cmsis_gcc.h **** /**
 906:HAL_Lib/CMSIS/Core/Include/cmsis_gcc.h ****   \brief   Wait For Interrupt
 907:HAL_Lib/CMSIS/Core/Include/cmsis_gcc.h ****   \details Wait For Interrupt is a hint instruction that suspends execution until one of a number o
 908:HAL_Lib/CMSIS/Core/Include/cmsis_gcc.h ****  */
 909:HAL_Lib/CMSIS/Core/Include/cmsis_gcc.h **** #define __WFI()                             __ASM volatile ("wfi")
 910:HAL_Lib/CMSIS/Core/Include/cmsis_gcc.h **** 
 911:HAL_Lib/CMSIS/Core/Include/cmsis_gcc.h **** 
 912:HAL_Lib/CMSIS/Core/Include/cmsis_gcc.h **** /**
 913:HAL_Lib/CMSIS/Core/Include/cmsis_gcc.h ****   \brief   Wait For Event
 914:HAL_Lib/CMSIS/Core/Include/cmsis_gcc.h ****   \details Wait For Event is a hint instruction that permits the processor to enter
 915:HAL_Lib/CMSIS/Core/Include/cmsis_gcc.h ****            a low-power state until one of a number of events occurs.
 916:HAL_Lib/CMSIS/Core/Include/cmsis_gcc.h ****  */
 917:HAL_Lib/CMSIS/Core/Include/cmsis_gcc.h **** #define __WFE()                             __ASM volatile ("wfe")
 918:HAL_Lib/CMSIS/Core/Include/cmsis_gcc.h **** 
 919:HAL_Lib/CMSIS/Core/Include/cmsis_gcc.h **** 
 920:HAL_Lib/CMSIS/Core/Include/cmsis_gcc.h **** /**
 921:HAL_Lib/CMSIS/Core/Include/cmsis_gcc.h ****   \brief   Send Event
 922:HAL_Lib/CMSIS/Core/Include/cmsis_gcc.h ****   \details Send Event is a hint instruction. It causes an event to be signaled to the CPU.
 923:HAL_Lib/CMSIS/Core/Include/cmsis_gcc.h ****  */
 924:HAL_Lib/CMSIS/Core/Include/cmsis_gcc.h **** #define __SEV()                             __ASM volatile ("sev")
 925:HAL_Lib/CMSIS/Core/Include/cmsis_gcc.h **** 
 926:HAL_Lib/CMSIS/Core/Include/cmsis_gcc.h **** 
 927:HAL_Lib/CMSIS/Core/Include/cmsis_gcc.h **** /**
 928:HAL_Lib/CMSIS/Core/Include/cmsis_gcc.h ****   \brief   Instruction Synchronization Barrier
 929:HAL_Lib/CMSIS/Core/Include/cmsis_gcc.h ****   \details Instruction Synchronization Barrier flushes the pipeline in the processor,
 930:HAL_Lib/CMSIS/Core/Include/cmsis_gcc.h ****            so that all instructions following the ISB are fetched from cache or memory,
 931:HAL_Lib/CMSIS/Core/Include/cmsis_gcc.h ****            after the instruction has been completed.
 932:HAL_Lib/CMSIS/Core/Include/cmsis_gcc.h ****  */
 933:HAL_Lib/CMSIS/Core/Include/cmsis_gcc.h **** __STATIC_FORCEINLINE void __ISB(void)
ARM GAS  /var/folders/lx/hc4sn_b53233_zkc9xbbl97r0000gp/T//ccAkWgSN.s 			page 64


 934:HAL_Lib/CMSIS/Core/Include/cmsis_gcc.h **** {
 935:HAL_Lib/CMSIS/Core/Include/cmsis_gcc.h ****   __ASM volatile ("isb 0xF":::"memory");
 936:HAL_Lib/CMSIS/Core/Include/cmsis_gcc.h **** }
 937:HAL_Lib/CMSIS/Core/Include/cmsis_gcc.h **** 
 938:HAL_Lib/CMSIS/Core/Include/cmsis_gcc.h **** 
 939:HAL_Lib/CMSIS/Core/Include/cmsis_gcc.h **** /**
 940:HAL_Lib/CMSIS/Core/Include/cmsis_gcc.h ****   \brief   Data Synchronization Barrier
 941:HAL_Lib/CMSIS/Core/Include/cmsis_gcc.h ****   \details Acts as a special kind of Data Memory Barrier.
 942:HAL_Lib/CMSIS/Core/Include/cmsis_gcc.h ****            It completes when all explicit memory accesses before this instruction complete.
 943:HAL_Lib/CMSIS/Core/Include/cmsis_gcc.h ****  */
 944:HAL_Lib/CMSIS/Core/Include/cmsis_gcc.h **** __STATIC_FORCEINLINE void __DSB(void)
 1545              		.loc 2 944 27 view .LVU466
 1546              	.LBB5:
 945:HAL_Lib/CMSIS/Core/Include/cmsis_gcc.h **** {
 946:HAL_Lib/CMSIS/Core/Include/cmsis_gcc.h ****   __ASM volatile ("dsb 0xF":::"memory");
 1547              		.loc 2 946 3 view .LVU467
 1548              		.syntax unified
 1549              	@ 946 "HAL_Lib/CMSIS/Core/Include/cmsis_gcc.h" 1
 1550 0104 BFF34F8F 		dsb 0xF
 1551              	@ 0 "" 2
 1552              		.thumb
 1553              		.syntax unified
 1554              	.LBE5:
 1555              	.LBE4:
 862:System/scheduler/scheduler.c ****     }
 1556              		.loc 1 862 9 view .LVU468
 862:System/scheduler/scheduler.c ****     }
 1557              		.loc 1 862 24 is_stmt 0 view .LVU469
 1558 0108 0323     		movs	r3, #3
 1559 010a 2370     		strb	r3, [r4]
 1560 010c 83E7     		b	.L105
 1561              	.L113:
 830:System/scheduler/scheduler.c ****             }
 1562              		.loc 1 830 17 is_stmt 1 view .LVU470
 830:System/scheduler/scheduler.c ****             }
 1563              		.loc 1 830 35 is_stmt 0 view .LVU471
 1564 010e A289     		ldrh	r2, [r4, #12]
 1565 0110 0023     		movs	r3, #0
 830:System/scheduler/scheduler.c ****             }
 1566              		.loc 1 830 26 view .LVU472
 1567 0112 CDE90223 		strd	r2, [sp, #8]
 1568 0116 BDE7     		b	.L109
 1569              	.L108:
 835:System/scheduler/scheduler.c ****             return;
 1570              		.loc 1 835 13 is_stmt 1 view .LVU473
 835:System/scheduler/scheduler.c ****             return;
 1571              		.loc 1 835 28 is_stmt 0 view .LVU474
 1572 0118 0323     		movs	r3, #3
 1573 011a 2370     		strb	r3, [r4]
 836:System/scheduler/scheduler.c ****         }
 1574              		.loc 1 836 13 is_stmt 1 view .LVU475
 1575 011c 7BE7     		b	.L105
 1576              	.L114:
 857:System/scheduler/scheduler.c ****         }
 1577              		.loc 1 857 13 view .LVU476
 857:System/scheduler/scheduler.c ****         }
 1578              		.loc 1 857 103 is_stmt 0 view .LVU477
ARM GAS  /var/folders/lx/hc4sn_b53233_zkc9xbbl97r0000gp/T//ccAkWgSN.s 			page 65


 1579 011e FFF7FEFF 		bl	Get_CurrentRunningS
 1580              	.LVL72:
 857:System/scheduler/scheduler.c ****         }
 1581              		.loc 1 857 95 view .LVU478
 1582 0122 FFF7FEFF 		bl	__aeabi_ul2f
 1583              	.LVL73:
 1584 0126 06EE900A 		vmov	s13, r0
 857:System/scheduler/scheduler.c ****         }
 1585              		.loc 1 857 93 view .LVU479
 1586 012a 07EE906A 		vmov	s15, r6	@ int
 1587 012e F8EE677A 		vcvt.f32.u32	s15, s15
 1588 0132 87EEA67A 		vdiv.f32	s14, s15, s13
 857:System/scheduler/scheduler.c ****         }
 1589              		.loc 1 857 52 view .LVU480
 1590 0136 BCEEC77A 		vcvt.u32.f32	s14, s14
 857:System/scheduler/scheduler.c ****         }
 1591              		.loc 1 857 50 view .LVU481
 1592 013a 84ED097A 		vstr.32	s14, [r4, #36]	@ int
 1593 013e E1E7     		b	.L110
 1594              	.L116:
 1595              		.align	2
 1596              	.L115:
 1597 0140 00000000 		.word	.LANCHOR9
 1598 0144 00000000 		.word	.LANCHOR6
 1599 0148 0000C842 		.word	1120403456
 1600              		.cfi_endproc
 1601              	.LFE173:
 1603              		.section	.text.Os_LoadFirstTask,"ax",%progbits
 1604              		.align	1
 1605              		.global	Os_LoadFirstTask
 1606              		.syntax unified
 1607              		.thumb
 1608              		.thumb_func
 1609              		.fpu fpv5-d16
 1611              	Os_LoadFirstTask:
 1612              	.LFB147:
  86:System/scheduler/scheduler.c ****     __ASM("LDR	  R3, =CurTsk_TCB");
 1613              		.loc 1 86 1 is_stmt 1 view -0
 1614              		.cfi_startproc
 1615              		@ Naked Function: prologue and epilogue provided by programmer.
 1616              		@ args = 0, pretend = 0, frame = 0
 1617              		@ frame_needed = 0, uses_anonymous_args = 0
  87:System/scheduler/scheduler.c ****     __ASM("LDR    R1, [R3]");
 1618              		.loc 1 87 5 view .LVU483
 1619              		.syntax unified
 1620              	@ 87 "System/scheduler/scheduler.c" 1
 1621 0000 074B     		LDR	  R3, =CurTsk_TCB
 1622              	@ 0 "" 2
  88:System/scheduler/scheduler.c ****     __ASM("LDR    R0, [R1]");
 1623              		.loc 1 88 5 view .LVU484
 1624              	@ 88 "System/scheduler/scheduler.c" 1
 1625 0002 1968     		LDR    R1, [R3]
 1626              	@ 0 "" 2
  89:System/scheduler/scheduler.c **** 
 1627              		.loc 1 89 5 view .LVU485
 1628              	@ 89 "System/scheduler/scheduler.c" 1
 1629 0004 0868     		LDR    R0, [R1]
ARM GAS  /var/folders/lx/hc4sn_b53233_zkc9xbbl97r0000gp/T//ccAkWgSN.s 			page 66


 1630              	@ 0 "" 2
  91:System/scheduler/scheduler.c **** 
 1631              		.loc 1 91 5 view .LVU486
 1632              	@ 91 "System/scheduler/scheduler.c" 1
 1633 0006 B0E8F04F 		LDMIA  R0!, {R4-R11, R14}
 1634              	@ 0 "" 2
  94:System/scheduler/scheduler.c ****     __ASM("IT       EQ");
 1635              		.loc 1 94 5 view .LVU487
 1636              	@ 94 "System/scheduler/scheduler.c" 1
 1637 000a 1EF0100F 		TST      R14, #0x10
 1638              	@ 0 "" 2
  95:System/scheduler/scheduler.c ****     __ASM("VLDMIAEQ R0!, {s16-s31}");
 1639              		.loc 1 95 5 view .LVU488
 1640              	@ 95 "System/scheduler/scheduler.c" 1
 1641 000e 08BF     		IT       EQ
 1642              	@ 0 "" 2
  96:System/scheduler/scheduler.c ****     /******************************  FPU SECTION  *********************************/
 1643              		.loc 1 96 5 view .LVU489
 1644              	@ 96 "System/scheduler/scheduler.c" 1
 1645 0010 B0EC108A 		VLDMIAEQ R0!, {s16-s31}
 1646              	@ 0 "" 2
  99:System/scheduler/scheduler.c ****     __ASM("ISB");
 1647              		.loc 1 99 5 view .LVU490
 1648              	@ 99 "System/scheduler/scheduler.c" 1
 1649 0014 80F30988 		MSR    PSP, R0
 1650              	@ 0 "" 2
 100:System/scheduler/scheduler.c ****     __ASM("BX     R14");
 1651              		.loc 1 100 5 view .LVU491
 1652              	@ 100 "System/scheduler/scheduler.c" 1
 1653 0018 BFF36F8F 		ISB
 1654              	@ 0 "" 2
 101:System/scheduler/scheduler.c ****     __ASM(".ALIGN 4");
 1655              		.loc 1 101 5 view .LVU492
 1656              	@ 101 "System/scheduler/scheduler.c" 1
 1657 001c 7047     		BX     R14
 1658              	@ 0 "" 2
 102:System/scheduler/scheduler.c **** }
 1659              		.loc 1 102 5 view .LVU493
 1660              	@ 102 "System/scheduler/scheduler.c" 1
 1661 001e 00BF     		.ALIGN 4
 1662              	@ 0 "" 2
 103:System/scheduler/scheduler.c **** 
 1663              		.loc 1 103 1 is_stmt 0 view .LVU494
 1664              		.thumb
 1665              		.syntax unified
 1666              		.cfi_endproc
 1667              	.LFE147:
 1669              		.section	.text.Os_SwitchContext,"ax",%progbits
 1670              		.align	1
 1671              		.global	Os_SwitchContext
 1672              		.syntax unified
 1673              		.thumb
 1674              		.thumb_func
 1675              		.fpu fpv5-d16
 1677              	Os_SwitchContext:
 1678              	.LFB148:
 106:System/scheduler/scheduler.c ****     __ASM("MRS      R0, PSP");
ARM GAS  /var/folders/lx/hc4sn_b53233_zkc9xbbl97r0000gp/T//ccAkWgSN.s 			page 67


 1679              		.loc 1 106 1 is_stmt 1 view -0
 1680              		.cfi_startproc
 1681              		@ Naked Function: prologue and epilogue provided by programmer.
 1682              		@ args = 0, pretend = 0, frame = 0
 1683              		@ frame_needed = 0, uses_anonymous_args = 0
 107:System/scheduler/scheduler.c ****     __ASM("ISB");
 1684              		.loc 1 107 5 view .LVU496
 1685              		.syntax unified
 1686              	@ 107 "System/scheduler/scheduler.c" 1
 1687 0000 EFF30980 		MRS      R0, PSP
 1688              	@ 0 "" 2
 108:System/scheduler/scheduler.c **** 
 1689              		.loc 1 108 5 view .LVU497
 1690              	@ 108 "System/scheduler/scheduler.c" 1
 1691 0004 BFF36F8F 		ISB
 1692              	@ 0 "" 2
 110:System/scheduler/scheduler.c ****     __ASM("LDR      R2, [R3]");
 1693              		.loc 1 110 5 view .LVU498
 1694              	@ 110 "System/scheduler/scheduler.c" 1
 1695 0008 DFF85030 		LDR      R3, CurrentTCBConst_Tmp
 1696              	@ 0 "" 2
 111:System/scheduler/scheduler.c **** 
 1697              		.loc 1 111 5 view .LVU499
 1698              	@ 111 "System/scheduler/scheduler.c" 1
 1699 000c 1A68     		LDR      R2, [R3]
 1700              	@ 0 "" 2
 114:System/scheduler/scheduler.c ****     __ASM("IT       EQ");
 1701              		.loc 1 114 5 view .LVU500
 1702              	@ 114 "System/scheduler/scheduler.c" 1
 1703 000e 1EF0100F 		TST      R14, #0x10
 1704              	@ 0 "" 2
 115:System/scheduler/scheduler.c ****     __ASM("VSTMDBEQ R0!, {s16-s31}");
 1705              		.loc 1 115 5 view .LVU501
 1706              	@ 115 "System/scheduler/scheduler.c" 1
 1707 0012 08BF     		IT       EQ
 1708              	@ 0 "" 2
 116:System/scheduler/scheduler.c ****     /******************************  FPU SECTION  *********************************/
 1709              		.loc 1 116 5 view .LVU502
 1710              	@ 116 "System/scheduler/scheduler.c" 1
 1711 0014 20ED108A 		VSTMDBEQ R0!, {s16-s31}
 1712              	@ 0 "" 2
 119:System/scheduler/scheduler.c ****     __ASM("STR      R0, [R2]");
 1713              		.loc 1 119 5 view .LVU503
 1714              	@ 119 "System/scheduler/scheduler.c" 1
 1715 0018 20E9F04F 		STMDB    R0!, {R4-R11, R14}
 1716              	@ 0 "" 2
 120:System/scheduler/scheduler.c **** 
 1717              		.loc 1 120 5 view .LVU504
 1718              	@ 120 "System/scheduler/scheduler.c" 1
 1719 001c 1060     		STR      R0, [R2]
 1720              	@ 0 "" 2
 122:System/scheduler/scheduler.c ****     __ASM("MOV      R0, %0" ::"i"(SYSCALL_INTERRUPT_PRIORITY));
 1721              		.loc 1 122 5 view .LVU505
 1722              	@ 122 "System/scheduler/scheduler.c" 1
 1723 001e 2DE90900 		STMDB    SP!, {R0, R3}
 1724              	@ 0 "" 2
 123:System/scheduler/scheduler.c ****     __ASM("MSR      BASEPRI, R0");
ARM GAS  /var/folders/lx/hc4sn_b53233_zkc9xbbl97r0000gp/T//ccAkWgSN.s 			page 68


 1725              		.loc 1 123 5 view .LVU506
 1726              	@ 123 "System/scheduler/scheduler.c" 1
 1727 0022 4FF03000 		MOV      R0, #48
 1728              	@ 0 "" 2
 124:System/scheduler/scheduler.c **** 
 1729              		.loc 1 124 5 view .LVU507
 1730              	@ 124 "System/scheduler/scheduler.c" 1
 1731 0026 80F31188 		MSR      BASEPRI, R0
 1732              	@ 0 "" 2
 126:System/scheduler/scheduler.c ****     __ASM("ISB");
 1733              		.loc 1 126 5 view .LVU508
 1734              	@ 126 "System/scheduler/scheduler.c" 1
 1735 002a BFF34F8F 		DSB
 1736              	@ 0 "" 2
 127:System/scheduler/scheduler.c **** 
 1737              		.loc 1 127 5 view .LVU509
 1738              	@ 127 "System/scheduler/scheduler.c" 1
 1739 002e BFF36F8F 		ISB
 1740              	@ 0 "" 2
 129:System/scheduler/scheduler.c **** 
 1741              		.loc 1 129 5 view .LVU510
 1742              	@ 129 "System/scheduler/scheduler.c" 1
 1743 0032 FFF7FEFF 		BL       Os_SwitchTaskStack
 1744              	@ 0 "" 2
 131:System/scheduler/scheduler.c ****     __ASM("MSR      BASEPRI, R0");
 1745              		.loc 1 131 5 view .LVU511
 1746              	@ 131 "System/scheduler/scheduler.c" 1
 1747 0036 4FF00000 		MOV      R0, #0
 1748              	@ 0 "" 2
 132:System/scheduler/scheduler.c ****     __ASM("LDMIA    SP!, {R0, R3}");
 1749              		.loc 1 132 5 view .LVU512
 1750              	@ 132 "System/scheduler/scheduler.c" 1
 1751 003a 80F31188 		MSR      BASEPRI, R0
 1752              	@ 0 "" 2
 133:System/scheduler/scheduler.c **** 
 1753              		.loc 1 133 5 view .LVU513
 1754              	@ 133 "System/scheduler/scheduler.c" 1
 1755 003e 09BC     		LDMIA    SP!, {R0, R3}
 1756              	@ 0 "" 2
 135:System/scheduler/scheduler.c ****     __ASM("LDR      R0, [R1]");
 1757              		.loc 1 135 5 view .LVU514
 1758              	@ 135 "System/scheduler/scheduler.c" 1
 1759 0040 1968     		LDR      R1, [R3]
 1760              	@ 0 "" 2
 136:System/scheduler/scheduler.c **** 
 1761              		.loc 1 136 5 view .LVU515
 1762              	@ 136 "System/scheduler/scheduler.c" 1
 1763 0042 0868     		LDR      R0, [R1]
 1764              	@ 0 "" 2
 138:System/scheduler/scheduler.c **** 
 1765              		.loc 1 138 5 view .LVU516
 1766              	@ 138 "System/scheduler/scheduler.c" 1
 1767 0044 B0E8F04F 		LDMIA    R0!, {R4-R11, R14}
 1768              	@ 0 "" 2
 141:System/scheduler/scheduler.c ****     __ASM("IT       EQ");
 1769              		.loc 1 141 5 view .LVU517
 1770              	@ 141 "System/scheduler/scheduler.c" 1
ARM GAS  /var/folders/lx/hc4sn_b53233_zkc9xbbl97r0000gp/T//ccAkWgSN.s 			page 69


 1771 0048 1EF0100F 		TST      R14, #0x10
 1772              	@ 0 "" 2
 142:System/scheduler/scheduler.c ****     __ASM("VLDMIAEQ R0!, {s16-s31}");
 1773              		.loc 1 142 5 view .LVU518
 1774              	@ 142 "System/scheduler/scheduler.c" 1
 1775 004c 08BF     		IT       EQ
 1776              	@ 0 "" 2
 143:System/scheduler/scheduler.c ****     /******************************  FPU SECTION  *********************************/
 1777              		.loc 1 143 5 view .LVU519
 1778              	@ 143 "System/scheduler/scheduler.c" 1
 1779 004e B0EC108A 		VLDMIAEQ R0!, {s16-s31}
 1780              	@ 0 "" 2
 146:System/scheduler/scheduler.c ****     __ASM("ISB");
 1781              		.loc 1 146 5 view .LVU520
 1782              	@ 146 "System/scheduler/scheduler.c" 1
 1783 0052 80F30988 		MSR      PSP,R0
 1784              	@ 0 "" 2
 147:System/scheduler/scheduler.c ****     __ASM("BX       R14");
 1785              		.loc 1 147 5 view .LVU521
 1786              	@ 147 "System/scheduler/scheduler.c" 1
 1787 0056 BFF36F8F 		ISB
 1788              	@ 0 "" 2
 148:System/scheduler/scheduler.c **** 
 1789              		.loc 1 148 5 view .LVU522
 1790              	@ 148 "System/scheduler/scheduler.c" 1
 1791 005a 7047     		BX       R14
 1792              	@ 0 "" 2
 150:System/scheduler/scheduler.c ****     __ASM(".ALIGN 4");
 1793              		.loc 1 150 5 view .LVU523
 1794              	@ 150 "System/scheduler/scheduler.c" 1
 1795 005c 00000000 		CurrentTCBConst_Tmp: .word CurTsk_TCB
 1796              	@ 0 "" 2
 151:System/scheduler/scheduler.c **** }
 1797              		.loc 1 151 5 view .LVU524
 1798              	@ 151 "System/scheduler/scheduler.c" 1
 1799              		.ALIGN 4
 1800              	@ 0 "" 2
 152:System/scheduler/scheduler.c **** 
 1801              		.loc 1 152 1 is_stmt 0 view .LVU525
 1802              		.thumb
 1803              		.syntax unified
 1804              		.cfi_endproc
 1805              	.LFE148:
 1807              		.section	.text.Os_SwitchTaskStack,"ax",%progbits
 1808              		.align	1
 1809              		.global	Os_SwitchTaskStack
 1810              		.syntax unified
 1811              		.thumb
 1812              		.thumb_func
 1813              		.fpu fpv5-d16
 1815              	Os_SwitchTaskStack:
 1816              	.LFB149:
 155:System/scheduler/scheduler.c ****     CurTsk_TCB = NxtTsk_TCB;
 1817              		.loc 1 155 1 is_stmt 1 view -0
 1818              		.cfi_startproc
 1819              		@ args = 0, pretend = 0, frame = 0
 1820              		@ frame_needed = 0, uses_anonymous_args = 0
ARM GAS  /var/folders/lx/hc4sn_b53233_zkc9xbbl97r0000gp/T//ccAkWgSN.s 			page 70


 1821              		@ link register save eliminated.
 156:System/scheduler/scheduler.c ****     CurRunTsk_Ptr = NxtRunTsk_Ptr;
 1822              		.loc 1 156 5 view .LVU527
 156:System/scheduler/scheduler.c ****     CurRunTsk_Ptr = NxtRunTsk_Ptr;
 1823              		.loc 1 156 16 is_stmt 0 view .LVU528
 1824 0000 054B     		ldr	r3, .L120
 1825 0002 064A     		ldr	r2, .L120+4
 1826 0004 92E80300 		ldm	r2, {r0, r1}
 1827 0008 83E80300 		stm	r3, {r0, r1}
 157:System/scheduler/scheduler.c **** }
 1828              		.loc 1 157 5 is_stmt 1 view .LVU529
 157:System/scheduler/scheduler.c **** }
 1829              		.loc 1 157 19 is_stmt 0 view .LVU530
 1830 000c 044B     		ldr	r3, .L120+8
 1831 000e 1A68     		ldr	r2, [r3]
 1832 0010 044B     		ldr	r3, .L120+12
 1833 0012 1A60     		str	r2, [r3]
 158:System/scheduler/scheduler.c **** 
 1834              		.loc 1 158 1 view .LVU531
 1835 0014 7047     		bx	lr
 1836              	.L121:
 1837 0016 00BF     		.align	2
 1838              	.L120:
 1839 0018 00000000 		.word	.LANCHOR10
 1840 001c 00000000 		.word	.LANCHOR11
 1841 0020 00000000 		.word	.LANCHOR12
 1842 0024 00000000 		.word	.LANCHOR9
 1843              		.cfi_endproc
 1844              	.LFE149:
 1846              		.section	.text.Os_Init,"ax",%progbits
 1847              		.align	1
 1848              		.global	Os_Init
 1849              		.syntax unified
 1850              		.thumb
 1851              		.thumb_func
 1852              		.fpu fpv5-d16
 1854              	Os_Init:
 1855              	.LVL74:
 1856              	.LFB151:
 194:System/scheduler/scheduler.c ****     while (!Kernel_Init())
 1857              		.loc 1 194 1 is_stmt 1 view -0
 1858              		.cfi_startproc
 1859              		@ args = 0, pretend = 0, frame = 0
 1860              		@ frame_needed = 0, uses_anonymous_args = 0
 194:System/scheduler/scheduler.c ****     while (!Kernel_Init())
 1861              		.loc 1 194 1 is_stmt 0 view .LVU533
 1862 0000 2DE9F041 		push	{r4, r5, r6, r7, r8, lr}
 1863              	.LCFI29:
 1864              		.cfi_def_cfa_offset 24
 1865              		.cfi_offset 4, -24
 1866              		.cfi_offset 5, -20
 1867              		.cfi_offset 6, -16
 1868              		.cfi_offset 7, -12
 1869              		.cfi_offset 8, -8
 1870              		.cfi_offset 14, -4
 1871 0004 8046     		mov	r8, r0
 195:System/scheduler/scheduler.c ****         ;
ARM GAS  /var/folders/lx/hc4sn_b53233_zkc9xbbl97r0000gp/T//ccAkWgSN.s 			page 71


 1872              		.loc 1 195 5 is_stmt 1 view .LVU534
 1873              	.LVL75:
 1874              	.L124:
 196:System/scheduler/scheduler.c **** 
 1875              		.loc 1 196 9 discriminator 1 view .LVU535
 195:System/scheduler/scheduler.c ****         ;
 1876              		.loc 1 195 11 discriminator 1 view .LVU536
 195:System/scheduler/scheduler.c ****         ;
 1877              		.loc 1 195 13 is_stmt 0 discriminator 1 view .LVU537
 1878 0006 FFF7FEFF 		bl	Kernel_Init
 1879              	.LVL76:
 195:System/scheduler/scheduler.c ****         ;
 1880              		.loc 1 195 11 discriminator 1 view .LVU538
 1881 000a 0028     		cmp	r0, #0
 1882 000c FBD0     		beq	.L124
 1883              	.LBB6:
 198:System/scheduler/scheduler.c ****     {
 1884              		.loc 1 198 18 view .LVU539
 1885 000e 0027     		movs	r7, #0
 1886 0010 18E0     		b	.L123
 1887              	.LVL77:
 1888              	.L125:
 1889              	.LBB7:
 203:System/scheduler/scheduler.c **** 
 1890              		.loc 1 203 13 is_stmt 1 discriminator 3 view .LVU540
 203:System/scheduler/scheduler.c **** 
 1891              		.loc 1 203 31 is_stmt 0 discriminator 3 view .LVU541
 1892 0012 194D     		ldr	r5, .L131
 1893 0014 04EBC706 		add	r6, r4, r7, lsl #3
 203:System/scheduler/scheduler.c **** 
 1894              		.loc 1 203 13 discriminator 3 view .LVU542
 1895 0018 05EB8600 		add	r0, r5, r6, lsl #2
 1896 001c FFF7FEFF 		bl	Os_ResetTask_Data
 1897              	.LVL78:
 206:System/scheduler/scheduler.c ****             TaskPtr_Map[g][t]->TCB.Stack = NULL;
 1898              		.loc 1 206 13 is_stmt 1 discriminator 3 view .LVU543
 206:System/scheduler/scheduler.c ****             TaskPtr_Map[g][t]->TCB.Stack = NULL;
 1899              		.loc 1 206 27 is_stmt 0 discriminator 3 view .LVU544
 1900 0020 55F82620 		ldr	r2, [r5, r6, lsl #2]
 206:System/scheduler/scheduler.c ****             TaskPtr_Map[g][t]->TCB.Stack = NULL;
 1901              		.loc 1 206 44 discriminator 3 view .LVU545
 1902 0024 0023     		movs	r3, #0
 1903 0026 D363     		str	r3, [r2, #60]
 207:System/scheduler/scheduler.c ****             TaskPtr_Map[g][t]->TCB.Top_Stk_Ptr = NULL;
 1904              		.loc 1 207 13 is_stmt 1 discriminator 3 view .LVU546
 207:System/scheduler/scheduler.c ****             TaskPtr_Map[g][t]->TCB.Top_Stk_Ptr = NULL;
 1905              		.loc 1 207 27 is_stmt 0 discriminator 3 view .LVU547
 1906 0028 55F82620 		ldr	r2, [r5, r6, lsl #2]
 207:System/scheduler/scheduler.c ****             TaskPtr_Map[g][t]->TCB.Top_Stk_Ptr = NULL;
 1907              		.loc 1 207 42 discriminator 3 view .LVU548
 1908 002c 5364     		str	r3, [r2, #68]
 208:System/scheduler/scheduler.c **** 
 1909              		.loc 1 208 13 is_stmt 1 discriminator 3 view .LVU549
 208:System/scheduler/scheduler.c **** 
 1910              		.loc 1 208 27 is_stmt 0 discriminator 3 view .LVU550
 1911 002e 55F82620 		ldr	r2, [r5, r6, lsl #2]
 208:System/scheduler/scheduler.c **** 
ARM GAS  /var/folders/lx/hc4sn_b53233_zkc9xbbl97r0000gp/T//ccAkWgSN.s 			page 72


 1912              		.loc 1 208 48 discriminator 3 view .LVU551
 1913 0032 1364     		str	r3, [r2, #64]
 210:System/scheduler/scheduler.c ****         }
 1914              		.loc 1 210 13 is_stmt 1 discriminator 3 view .LVU552
 210:System/scheduler/scheduler.c ****         }
 1915              		.loc 1 210 31 is_stmt 0 discriminator 3 view .LVU553
 1916 0034 45F82630 		str	r3, [r5, r6, lsl #2]
 200:System/scheduler/scheduler.c ****         {
 1917              		.loc 1 200 66 is_stmt 1 discriminator 3 view .LVU554
 200:System/scheduler/scheduler.c ****         {
 1918              		.loc 1 200 67 is_stmt 0 discriminator 3 view .LVU555
 1919 0038 0134     		adds	r4, r4, #1
 1920              	.LVL79:
 200:System/scheduler/scheduler.c ****         {
 1921              		.loc 1 200 67 discriminator 3 view .LVU556
 1922 003a E4B2     		uxtb	r4, r4
 1923              	.LVL80:
 1924              	.L126:
 200:System/scheduler/scheduler.c ****         {
 1925              		.loc 1 200 43 is_stmt 1 discriminator 1 view .LVU557
 200:System/scheduler/scheduler.c ****         {
 1926              		.loc 1 200 9 is_stmt 0 discriminator 1 view .LVU558
 1927 003c 072C     		cmp	r4, #7
 1928 003e E8D9     		bls	.L125
 1929              	.LBE7:
 198:System/scheduler/scheduler.c ****     {
 1930              		.loc 1 198 56 is_stmt 1 discriminator 2 view .LVU559
 198:System/scheduler/scheduler.c ****     {
 1931              		.loc 1 198 57 is_stmt 0 discriminator 2 view .LVU560
 1932 0040 0137     		adds	r7, r7, #1
 1933              	.LVL81:
 198:System/scheduler/scheduler.c ****     {
 1934              		.loc 1 198 57 discriminator 2 view .LVU561
 1935 0042 FFB2     		uxtb	r7, r7
 1936              	.LVL82:
 1937              	.L123:
 198:System/scheduler/scheduler.c ****     {
 1938              		.loc 1 198 36 is_stmt 1 discriminator 1 view .LVU562
 198:System/scheduler/scheduler.c ****     {
 1939              		.loc 1 198 5 is_stmt 0 discriminator 1 view .LVU563
 1940 0044 072F     		cmp	r7, #7
 1941 0046 01D8     		bhi	.L130
 1942              	.LBB8:
 200:System/scheduler/scheduler.c ****         {
 1943              		.loc 1 200 22 view .LVU564
 1944 0048 0024     		movs	r4, #0
 1945 004a F7E7     		b	.L126
 1946              	.L130:
 1947              	.LBE8:
 1948              	.LBE6:
 214:System/scheduler/scheduler.c ****     TskCrt_RegList.list.data = NULL;
 1949              		.loc 1 214 5 is_stmt 1 view .LVU565
 214:System/scheduler/scheduler.c ****     TskCrt_RegList.list.data = NULL;
 1950              		.loc 1 214 24 is_stmt 0 view .LVU566
 1951 004c 0B4B     		ldr	r3, .L131+4
 1952 004e 0022     		movs	r2, #0
 1953 0050 1A70     		strb	r2, [r3]
ARM GAS  /var/folders/lx/hc4sn_b53233_zkc9xbbl97r0000gp/T//ccAkWgSN.s 			page 73


 215:System/scheduler/scheduler.c ****     TskCrt_RegList.list.nxt = NULL;
 1954              		.loc 1 215 5 is_stmt 1 view .LVU567
 215:System/scheduler/scheduler.c ****     TskCrt_RegList.list.nxt = NULL;
 1955              		.loc 1 215 30 is_stmt 0 view .LVU568
 1956 0052 5A61     		str	r2, [r3, #20]
 216:System/scheduler/scheduler.c ****     TskCrt_RegList.list.prv = NULL;
 1957              		.loc 1 216 5 is_stmt 1 view .LVU569
 216:System/scheduler/scheduler.c ****     TskCrt_RegList.list.prv = NULL;
 1958              		.loc 1 216 29 is_stmt 0 view .LVU570
 1959 0054 1A61     		str	r2, [r3, #16]
 217:System/scheduler/scheduler.c **** 
 1960              		.loc 1 217 5 is_stmt 1 view .LVU571
 217:System/scheduler/scheduler.c **** 
 1961              		.loc 1 217 29 is_stmt 0 view .LVU572
 1962 0056 DA60     		str	r2, [r3, #12]
 219:System/scheduler/scheduler.c ****     Os_ResetTask_Data(NxtRunTsk_Ptr);
 1963              		.loc 1 219 5 is_stmt 1 view .LVU573
 1964 0058 094B     		ldr	r3, .L131+8
 1965 005a 1868     		ldr	r0, [r3]
 1966 005c FFF7FEFF 		bl	Os_ResetTask_Data
 1967              	.LVL83:
 220:System/scheduler/scheduler.c **** 
 1968              		.loc 1 220 5 view .LVU574
 1969 0060 084B     		ldr	r3, .L131+12
 1970 0062 1868     		ldr	r0, [r3]
 1971 0064 FFF7FEFF 		bl	Os_ResetTask_Data
 1972              	.LVL84:
 222:System/scheduler/scheduler.c **** 
 1973              		.loc 1 222 5 view .LVU575
 1974 0068 4046     		mov	r0, r8
 1975 006a FFF7FEFF 		bl	Runtime_Config
 1976              	.LVL85:
 224:System/scheduler/scheduler.c **** }
 1977              		.loc 1 224 5 view .LVU576
 224:System/scheduler/scheduler.c **** }
 1978              		.loc 1 224 21 is_stmt 0 view .LVU577
 1979 006e 064B     		ldr	r3, .L131+16
 1980 0070 0122     		movs	r2, #1
 1981 0072 1A70     		strb	r2, [r3]
 225:System/scheduler/scheduler.c **** 
 1982              		.loc 1 225 1 view .LVU578
 1983 0074 BDE8F081 		pop	{r4, r5, r6, r7, r8, pc}
 1984              	.LVL86:
 1985              	.L132:
 225:System/scheduler/scheduler.c **** 
 1986              		.loc 1 225 1 view .LVU579
 1987              		.align	2
 1988              	.L131:
 1989 0078 00000000 		.word	.LANCHOR4
 1990 007c 00000000 		.word	.LANCHOR13
 1991 0080 00000000 		.word	.LANCHOR9
 1992 0084 00000000 		.word	.LANCHOR12
 1993 0088 00000000 		.word	.LANCHOR5
 1994              		.cfi_endproc
 1995              	.LFE151:
 1997              		.section	.text.Os_State,"ax",%progbits
 1998              		.align	1
ARM GAS  /var/folders/lx/hc4sn_b53233_zkc9xbbl97r0000gp/T//ccAkWgSN.s 			page 74


 1999              		.global	Os_State
 2000              		.syntax unified
 2001              		.thumb
 2002              		.thumb_func
 2003              		.fpu fpv5-d16
 2005              	Os_State:
 2006              	.LFB152:
 228:System/scheduler/scheduler.c ****     return scheduler_state;
 2007              		.loc 1 228 1 is_stmt 1 view -0
 2008              		.cfi_startproc
 2009              		@ args = 0, pretend = 0, frame = 0
 2010              		@ frame_needed = 0, uses_anonymous_args = 0
 2011              		@ link register save eliminated.
 229:System/scheduler/scheduler.c **** }
 2012              		.loc 1 229 5 view .LVU581
 229:System/scheduler/scheduler.c **** }
 2013              		.loc 1 229 12 is_stmt 0 view .LVU582
 2014 0000 014B     		ldr	r3, .L134
 2015 0002 1878     		ldrb	r0, [r3]	@ zero_extendqisi2
 230:System/scheduler/scheduler.c **** 
 2016              		.loc 1 230 1 view .LVU583
 2017 0004 7047     		bx	lr
 2018              	.L135:
 2019 0006 00BF     		.align	2
 2020              	.L134:
 2021 0008 00000000 		.word	.LANCHOR5
 2022              		.cfi_endproc
 2023              	.LFE152:
 2025              		.section	.text.Os_Start,"ax",%progbits
 2026              		.align	1
 2027              		.global	Os_Start
 2028              		.syntax unified
 2029              		.thumb
 2030              		.thumb_func
 2031              		.fpu fpv5-d16
 2033              	Os_Start:
 2034              	.LFB153:
 233:System/scheduler/scheduler.c ****     NxtRunTsk_Ptr = Os_Get_HighestRank_RdyTask();
 2035              		.loc 1 233 1 is_stmt 1 view -0
 2036              		.cfi_startproc
 2037              		@ args = 0, pretend = 0, frame = 0
 2038              		@ frame_needed = 0, uses_anonymous_args = 0
 2039 0000 10B5     		push	{r4, lr}
 2040              	.LCFI30:
 2041              		.cfi_def_cfa_offset 8
 2042              		.cfi_offset 4, -8
 2043              		.cfi_offset 14, -4
 234:System/scheduler/scheduler.c **** 
 2044              		.loc 1 234 5 view .LVU585
 234:System/scheduler/scheduler.c **** 
 2045              		.loc 1 234 21 is_stmt 0 view .LVU586
 2046 0002 FFF7FEFF 		bl	Os_Get_HighestRank_RdyTask
 2047              	.LVL87:
 234:System/scheduler/scheduler.c **** 
 2048              		.loc 1 234 19 view .LVU587
 2049 0006 0E4B     		ldr	r3, .L139
 2050 0008 1860     		str	r0, [r3]
ARM GAS  /var/folders/lx/hc4sn_b53233_zkc9xbbl97r0000gp/T//ccAkWgSN.s 			page 75


 236:System/scheduler/scheduler.c ****     {
 2051              		.loc 1 236 5 is_stmt 1 view .LVU588
 236:System/scheduler/scheduler.c ****     {
 2052              		.loc 1 236 8 is_stmt 0 view .LVU589
 2053 000a 50B1     		cbz	r0, .L137
 238:System/scheduler/scheduler.c ****         NxtTsk_TCB.Stack = NxtRunTsk_Ptr->TCB.Stack;
 2054              		.loc 1 238 9 is_stmt 1 view .LVU590
 238:System/scheduler/scheduler.c ****         NxtTsk_TCB.Stack = NxtRunTsk_Ptr->TCB.Stack;
 2055              		.loc 1 238 34 is_stmt 0 view .LVU591
 2056 000c 00F14002 		add	r2, r0, #64
 238:System/scheduler/scheduler.c ****         NxtTsk_TCB.Stack = NxtRunTsk_Ptr->TCB.Stack;
 2057              		.loc 1 238 32 view .LVU592
 2058 0010 0C4B     		ldr	r3, .L139+4
 2059 0012 1A60     		str	r2, [r3]
 239:System/scheduler/scheduler.c **** 
 2060              		.loc 1 239 9 is_stmt 1 view .LVU593
 239:System/scheduler/scheduler.c **** 
 2061              		.loc 1 239 46 is_stmt 0 view .LVU594
 2062 0014 426C     		ldr	r2, [r0, #68]
 239:System/scheduler/scheduler.c **** 
 2063              		.loc 1 239 26 view .LVU595
 2064 0016 5A60     		str	r2, [r3, #4]
 241:System/scheduler/scheduler.c ****     }
 2065              		.loc 1 241 9 is_stmt 1 view .LVU596
 241:System/scheduler/scheduler.c ****     }
 2066              		.loc 1 241 20 is_stmt 0 view .LVU597
 2067 0018 0B4A     		ldr	r2, .L139+8
 2068 001a 93E80300 		ldm	r3, {r0, r1}
 2069 001e 82E80300 		stm	r2, {r0, r1}
 2070              	.L137:
 244:System/scheduler/scheduler.c **** 
 2071              		.loc 1 244 5 is_stmt 1 view .LVU598
 244:System/scheduler/scheduler.c **** 
 2072              		.loc 1 244 21 is_stmt 0 view .LVU599
 2073 0022 0224     		movs	r4, #2
 2074 0024 094B     		ldr	r3, .L139+12
 2075 0026 1C70     		strb	r4, [r3]
 247:System/scheduler/scheduler.c **** 
 2076              		.loc 1 247 5 is_stmt 1 view .LVU600
 2077 0028 FFF7FEFF 		bl	Os_CreateIdle
 2078              	.LVL88:
 250:System/scheduler/scheduler.c ****     Runtime_SetCallback(RtCallback_Type_Tick, Os_SchedulerRun);
 2079              		.loc 1 250 5 view .LVU601
 2080 002c FFF7FEFF 		bl	Kernel_EnablePendSV
 2081              	.LVL89:
 251:System/scheduler/scheduler.c **** 
 2082              		.loc 1 251 5 view .LVU602
 2083 0030 0749     		ldr	r1, .L139+16
 2084 0032 2046     		mov	r0, r4
 2085 0034 FFF7FEFF 		bl	Runtime_SetCallback
 2086              	.LVL90:
 254:System/scheduler/scheduler.c **** }
 2087              		.loc 1 254 5 view .LVU603
 2088 0038 FFF7FEFF 		bl	Kernel_LoadProcess
 2089              	.LVL91:
 255:System/scheduler/scheduler.c **** 
 2090              		.loc 1 255 1 is_stmt 0 view .LVU604
ARM GAS  /var/folders/lx/hc4sn_b53233_zkc9xbbl97r0000gp/T//ccAkWgSN.s 			page 76


 2091 003c 10BD     		pop	{r4, pc}
 2092              	.L140:
 2093 003e 00BF     		.align	2
 2094              	.L139:
 2095 0040 00000000 		.word	.LANCHOR12
 2096 0044 00000000 		.word	.LANCHOR11
 2097 0048 00000000 		.word	.LANCHOR10
 2098 004c 00000000 		.word	.LANCHOR5
 2099 0050 00000000 		.word	Os_SchedulerRun
 2100              		.cfi_endproc
 2101              	.LFE153:
 2103              		.section	.text.Os_Regist_IdleObj,"ax",%progbits
 2104              		.align	1
 2105              		.global	Os_Regist_IdleObj
 2106              		.syntax unified
 2107              		.thumb
 2108              		.thumb_func
 2109              		.fpu fpv5-d16
 2111              	Os_Regist_IdleObj:
 2112              	.LVL92:
 2113              	.LFB156:
 291:System/scheduler/scheduler.c ****     if (obj == NULL)
 2114              		.loc 1 291 1 is_stmt 1 view -0
 2115              		.cfi_startproc
 2116              		@ args = 0, pretend = 0, frame = 8
 2117              		@ frame_needed = 0, uses_anonymous_args = 0
 291:System/scheduler/scheduler.c ****     if (obj == NULL)
 2118              		.loc 1 291 1 is_stmt 0 view .LVU606
 2119 0000 10B5     		push	{r4, lr}
 2120              	.LCFI31:
 2121              		.cfi_def_cfa_offset 8
 2122              		.cfi_offset 4, -8
 2123              		.cfi_offset 14, -4
 2124 0002 82B0     		sub	sp, sp, #8
 2125              	.LCFI32:
 2126              		.cfi_def_cfa_offset 16
 2127 0004 02AC     		add	r4, sp, #8
 2128 0006 04E90600 		stmdb	r4, {r1, r2}
 292:System/scheduler/scheduler.c ****         return false;
 2129              		.loc 1 292 5 is_stmt 1 view .LVU607
 292:System/scheduler/scheduler.c ****         return false;
 2130              		.loc 1 292 8 is_stmt 0 view .LVU608
 2131 000a D8B1     		cbz	r0, .L144
 2132 000c 0246     		mov	r2, r0
 295:System/scheduler/scheduler.c ****     obj->callback = idle_cb;
 2133              		.loc 1 295 5 is_stmt 1 view .LVU609
 295:System/scheduler/scheduler.c ****     obj->callback = idle_cb;
 2134              		.loc 1 295 17 is_stmt 0 view .LVU610
 2135 000e 54E90201 		ldrd	r0, r1, [r4, #-8]
 2136              	.LVL93:
 295:System/scheduler/scheduler.c ****     obj->callback = idle_cb;
 2137              		.loc 1 295 17 view .LVU611
 2138 0012 82E80300 		stm	r2, {r0, r1}
 296:System/scheduler/scheduler.c **** 
 2139              		.loc 1 296 5 is_stmt 1 view .LVU612
 296:System/scheduler/scheduler.c **** 
 2140              		.loc 1 296 19 is_stmt 0 view .LVU613
ARM GAS  /var/folders/lx/hc4sn_b53233_zkc9xbbl97r0000gp/T//ccAkWgSN.s 			page 77


 2141 0016 9360     		str	r3, [r2, #8]
 298:System/scheduler/scheduler.c **** 
 2142              		.loc 1 298 5 is_stmt 1 view .LVU614
 298:System/scheduler/scheduler.c **** 
 2143              		.loc 1 298 19 is_stmt 0 view .LVU615
 2144 0018 02F11404 		add	r4, r2, #20
 298:System/scheduler/scheduler.c **** 
 2145              		.loc 1 298 5 view .LVU616
 2146 001c 1146     		mov	r1, r2
 2147 001e 2046     		mov	r0, r4
 2148 0020 FFF7FEFF 		bl	List_ItemInit
 2149              	.LVL94:
 300:System/scheduler/scheduler.c ****         List_Init(&Idle_List.list, &(obj->idle_item), by_order, NULL);
 2150              		.loc 1 300 5 is_stmt 1 view .LVU617
 300:System/scheduler/scheduler.c ****         List_Init(&Idle_List.list, &(obj->idle_item), by_order, NULL);
 2151              		.loc 1 300 18 is_stmt 0 view .LVU618
 2152 0024 084B     		ldr	r3, .L147
 2153 0026 1B78     		ldrb	r3, [r3]	@ zero_extendqisi2
 300:System/scheduler/scheduler.c ****         List_Init(&Idle_List.list, &(obj->idle_item), by_order, NULL);
 2154              		.loc 1 300 8 view .LVU619
 2155 0028 33B1     		cbz	r3, .L146
 2156              	.L143:
 303:System/scheduler/scheduler.c **** 
 2157              		.loc 1 303 5 is_stmt 1 view .LVU620
 2158 002a 2146     		mov	r1, r4
 2159 002c 0748     		ldr	r0, .L147+4
 2160 002e FFF7FEFF 		bl	List_Insert_Item
 2161              	.LVL95:
 305:System/scheduler/scheduler.c **** }
 2162              		.loc 1 305 5 view .LVU621
 305:System/scheduler/scheduler.c **** }
 2163              		.loc 1 305 12 is_stmt 0 view .LVU622
 2164 0032 0120     		movs	r0, #1
 2165              	.LVL96:
 2166              	.L142:
 306:System/scheduler/scheduler.c **** 
 2167              		.loc 1 306 1 view .LVU623
 2168 0034 02B0     		add	sp, sp, #8
 2169              	.LCFI33:
 2170              		.cfi_remember_state
 2171              		.cfi_def_cfa_offset 8
 2172              		@ sp needed
 2173 0036 10BD     		pop	{r4, pc}
 2174              	.L146:
 2175              	.LCFI34:
 2176              		.cfi_restore_state
 301:System/scheduler/scheduler.c **** 
 2177              		.loc 1 301 9 is_stmt 1 view .LVU624
 2178 0038 0122     		movs	r2, #1
 2179 003a 2146     		mov	r1, r4
 2180 003c 0348     		ldr	r0, .L147+4
 2181 003e FFF7FEFF 		bl	List_Init
 2182              	.LVL97:
 2183 0042 F2E7     		b	.L143
 2184              	.LVL98:
 2185              	.L144:
 293:System/scheduler/scheduler.c **** 
ARM GAS  /var/folders/lx/hc4sn_b53233_zkc9xbbl97r0000gp/T//ccAkWgSN.s 			page 78


 2186              		.loc 1 293 16 is_stmt 0 view .LVU625
 2187 0044 0020     		movs	r0, #0
 2188              	.LVL99:
 293:System/scheduler/scheduler.c **** 
 2189              		.loc 1 293 16 view .LVU626
 2190 0046 F5E7     		b	.L142
 2191              	.L148:
 2192              		.align	2
 2193              	.L147:
 2194 0048 00000000 		.word	.LANCHOR7
 2195 004c 04000000 		.word	.LANCHOR7+4
 2196              		.cfi_endproc
 2197              	.LFE156:
 2199              		.section	.text.Os_Unregist_IdleObj,"ax",%progbits
 2200              		.align	1
 2201              		.global	Os_Unregist_IdleObj
 2202              		.syntax unified
 2203              		.thumb
 2204              		.thumb_func
 2205              		.fpu fpv5-d16
 2207              	Os_Unregist_IdleObj:
 2208              	.LVL100:
 2209              	.LFB157:
 309:System/scheduler/scheduler.c ****     if (Idle_List.num)
 2210              		.loc 1 309 1 is_stmt 1 view -0
 2211              		.cfi_startproc
 2212              		@ args = 0, pretend = 0, frame = 0
 2213              		@ frame_needed = 0, uses_anonymous_args = 0
 309:System/scheduler/scheduler.c ****     if (Idle_List.num)
 2214              		.loc 1 309 1 is_stmt 0 view .LVU628
 2215 0000 08B5     		push	{r3, lr}
 2216              	.LCFI35:
 2217              		.cfi_def_cfa_offset 8
 2218              		.cfi_offset 3, -8
 2219              		.cfi_offset 14, -4
 310:System/scheduler/scheduler.c ****     {
 2220              		.loc 1 310 5 is_stmt 1 view .LVU629
 310:System/scheduler/scheduler.c ****     {
 2221              		.loc 1 310 18 is_stmt 0 view .LVU630
 2222 0002 064B     		ldr	r3, .L153
 2223 0004 1B78     		ldrb	r3, [r3]	@ zero_extendqisi2
 310:System/scheduler/scheduler.c ****     {
 2224              		.loc 1 310 8 view .LVU631
 2225 0006 03B9     		cbnz	r3, .L152
 2226              	.LVL101:
 2227              	.L150:
 315:System/scheduler/scheduler.c **** 
 2228              		.loc 1 315 1 view .LVU632
 2229 0008 08BD     		pop	{r3, pc}
 2230              	.LVL102:
 2231              	.L152:
 312:System/scheduler/scheduler.c ****         Idle_List.num--;
 2232              		.loc 1 312 9 is_stmt 1 view .LVU633
 2233 000a 0021     		movs	r1, #0
 2234 000c 1430     		adds	r0, r0, #20
 2235              	.LVL103:
 312:System/scheduler/scheduler.c ****         Idle_List.num--;
ARM GAS  /var/folders/lx/hc4sn_b53233_zkc9xbbl97r0000gp/T//ccAkWgSN.s 			page 79


 2236              		.loc 1 312 9 is_stmt 0 view .LVU634
 2237 000e FFF7FEFF 		bl	List_Delete_Item
 2238              	.LVL104:
 313:System/scheduler/scheduler.c ****     }
 2239              		.loc 1 313 9 is_stmt 1 view .LVU635
 313:System/scheduler/scheduler.c ****     }
 2240              		.loc 1 313 18 is_stmt 0 view .LVU636
 2241 0012 024A     		ldr	r2, .L153
 2242 0014 1378     		ldrb	r3, [r2]	@ zero_extendqisi2
 313:System/scheduler/scheduler.c ****     }
 2243              		.loc 1 313 22 view .LVU637
 2244 0016 013B     		subs	r3, r3, #1
 2245 0018 1370     		strb	r3, [r2]
 2246 001a F5E7     		b	.L150
 2247              	.L154:
 2248              		.align	2
 2249              	.L153:
 2250 001c 00000000 		.word	.LANCHOR7
 2251              		.cfi_endproc
 2252              	.LFE157:
 2254              		.section	.text.Os_CreateTask,"ax",%progbits
 2255              		.align	1
 2256              		.global	Os_CreateTask
 2257              		.syntax unified
 2258              		.thumb
 2259              		.thumb_func
 2260              		.fpu fpv5-d16
 2262              	Os_CreateTask:
 2263              	.LVL105:
 2264              	.LFB159:
 345:System/scheduler/scheduler.c ****     Task_Handle handle;
 2265              		.loc 1 345 1 is_stmt 1 view -0
 2266              		.cfi_startproc
 2267              		@ args = 8, pretend = 0, frame = 0
 2268              		@ frame_needed = 0, uses_anonymous_args = 0
 345:System/scheduler/scheduler.c ****     Task_Handle handle;
 2269              		.loc 1 345 1 is_stmt 0 view .LVU639
 2270 0000 2DE9F843 		push	{r3, r4, r5, r6, r7, r8, r9, lr}
 2271              	.LCFI36:
 2272              		.cfi_def_cfa_offset 32
 2273              		.cfi_offset 3, -32
 2274              		.cfi_offset 4, -28
 2275              		.cfi_offset 5, -24
 2276              		.cfi_offset 6, -20
 2277              		.cfi_offset 7, -16
 2278              		.cfi_offset 8, -12
 2279              		.cfi_offset 9, -8
 2280              		.cfi_offset 14, -4
 2281 0004 1746     		mov	r7, r2
 2282 0006 1C46     		mov	r4, r3
 346:System/scheduler/scheduler.c ****     uint16_t task_name_len = strlen(name);
 2283              		.loc 1 346 5 is_stmt 1 view .LVU640
 347:System/scheduler/scheduler.c ****     uint32_t *Tsk_Ptr_tmp = NULL;
 2284              		.loc 1 347 5 view .LVU641
 348:System/scheduler/scheduler.c **** 
 2285              		.loc 1 348 5 view .LVU642
 2286              	.LVL106:
ARM GAS  /var/folders/lx/hc4sn_b53233_zkc9xbbl97r0000gp/T//ccAkWgSN.s 			page 80


 351:System/scheduler/scheduler.c ****         return NULL;
 2287              		.loc 1 351 5 view .LVU643
 351:System/scheduler/scheduler.c ****         return NULL;
 2288              		.loc 1 351 27 is_stmt 0 view .LVU644
 2289 0008 03EBC202 		add	r2, r3, r2, lsl #3
 2290              	.LVL107:
 351:System/scheduler/scheduler.c ****         return NULL;
 2291              		.loc 1 351 27 view .LVU645
 2292 000c 564B     		ldr	r3, .L165
 2293              	.LVL108:
 351:System/scheduler/scheduler.c ****         return NULL;
 2294              		.loc 1 351 27 view .LVU646
 2295 000e 53F82230 		ldr	r3, [r3, r2, lsl #2]
 351:System/scheduler/scheduler.c ****         return NULL;
 2296              		.loc 1 351 8 view .LVU647
 2297 0012 23B1     		cbz	r3, .L164
 352:System/scheduler/scheduler.c **** 
 2298              		.loc 1 352 16 view .LVU648
 2299 0014 4FF00008 		mov	r8, #0
 2300              	.LVL109:
 2301              	.L155:
 421:System/scheduler/scheduler.c **** 
 2302              		.loc 1 421 1 view .LVU649
 2303 0018 4046     		mov	r0, r8
 2304 001a BDE8F883 		pop	{r3, r4, r5, r6, r7, r8, r9, pc}
 2305              	.LVL110:
 2306              	.L164:
 421:System/scheduler/scheduler.c **** 
 2307              		.loc 1 421 1 view .LVU650
 2308 001e 0646     		mov	r6, r0
 2309 0020 0D46     		mov	r5, r1
 355:System/scheduler/scheduler.c **** 
 2310              		.loc 1 355 5 is_stmt 1 view .LVU651
 355:System/scheduler/scheduler.c **** 
 2311              		.loc 1 355 44 is_stmt 0 view .LVU652
 2312 0022 5020     		movs	r0, #80
 2313              	.LVL111:
 355:System/scheduler/scheduler.c **** 
 2314              		.loc 1 355 44 view .LVU653
 2315 0024 FFF7FEFF 		bl	MMU_Malloc
 2316              	.LVL112:
 355:System/scheduler/scheduler.c **** 
 2317              		.loc 1 355 34 view .LVU654
 2318 0028 04EBC703 		add	r3, r4, r7, lsl #3
 2319 002c 4E4A     		ldr	r2, .L165
 2320 002e 42F82300 		str	r0, [r2, r3, lsl #2]
 357:System/scheduler/scheduler.c ****         return NULL;
 2321              		.loc 1 357 5 is_stmt 1 view .LVU655
 357:System/scheduler/scheduler.c ****         return NULL;
 2322              		.loc 1 357 8 is_stmt 0 view .LVU656
 2323 0032 0028     		cmp	r0, #0
 2324 0034 00F08E80 		beq	.L160
 361:System/scheduler/scheduler.c **** 
 2325              		.loc 1 361 5 is_stmt 1 view .LVU657
 361:System/scheduler/scheduler.c **** 
 2326              		.loc 1 361 12 is_stmt 0 view .LVU658
 2327 0038 8046     		mov	r8, r0
ARM GAS  /var/folders/lx/hc4sn_b53233_zkc9xbbl97r0000gp/T//ccAkWgSN.s 			page 81


 2328              	.LVL113:
 363:System/scheduler/scheduler.c **** 
 2329              		.loc 1 363 5 is_stmt 1 view .LVU659
 363:System/scheduler/scheduler.c **** 
 2330              		.loc 1 363 45 is_stmt 0 view .LVU660
 2331 003a 4660     		str	r6, [r0, #4]
 365:System/scheduler/scheduler.c ****     TaskPtr_Map[group][priority]->exec_interval_us = SCHEDULER_TIMEBASE / frq;
 2332              		.loc 1 365 5 is_stmt 1 view .LVU661
 365:System/scheduler/scheduler.c ****     TaskPtr_Map[group][priority]->exec_interval_us = SCHEDULER_TIMEBASE / frq;
 2333              		.loc 1 365 23 is_stmt 0 view .LVU662
 2334 003c 1646     		mov	r6, r2
 2335              	.LVL114:
 365:System/scheduler/scheduler.c ****     TaskPtr_Map[group][priority]->exec_interval_us = SCHEDULER_TIMEBASE / frq;
 2336              		.loc 1 365 23 view .LVU663
 2337 003e 9946     		mov	r9, r3
 2338 0040 52F82330 		ldr	r3, [r2, r3, lsl #2]
 365:System/scheduler/scheduler.c ****     TaskPtr_Map[group][priority]->exec_interval_us = SCHEDULER_TIMEBASE / frq;
 2339              		.loc 1 365 44 view .LVU664
 2340 0044 9D60     		str	r5, [r3, #8]
 2341              	.LVL115:
 366:System/scheduler/scheduler.c ****     TaskPtr_Map[group][priority]->Exec_Func = func;
 2342              		.loc 1 366 5 is_stmt 1 view .LVU665
 366:System/scheduler/scheduler.c ****     TaskPtr_Map[group][priority]->Exec_Func = func;
 2343              		.loc 1 366 73 is_stmt 0 view .LVU666
 2344 0046 4949     		ldr	r1, .L165+4
 2345 0048 B1FBF5F5 		udiv	r5, r1, r5
 2346              	.LVL116:
 366:System/scheduler/scheduler.c ****     TaskPtr_Map[group][priority]->Exec_Func = func;
 2347              		.loc 1 366 23 view .LVU667
 2348 004c 52F82930 		ldr	r3, [r2, r9, lsl #2]
 2349              	.LVL117:
 366:System/scheduler/scheduler.c ****     TaskPtr_Map[group][priority]->Exec_Func = func;
 2350              		.loc 1 366 52 view .LVU668
 2351 0050 9D81     		strh	r5, [r3, #12]	@ movhi
 367:System/scheduler/scheduler.c **** 
 2352              		.loc 1 367 5 is_stmt 1 view .LVU669
 367:System/scheduler/scheduler.c **** 
 2353              		.loc 1 367 23 is_stmt 0 view .LVU670
 2354 0052 52F82930 		ldr	r3, [r2, r9, lsl #2]
 367:System/scheduler/scheduler.c **** 
 2355              		.loc 1 367 45 view .LVU671
 2356 0056 089A     		ldr	r2, [sp, #32]
 2357 0058 1A61     		str	r2, [r3, #16]
 369:System/scheduler/scheduler.c **** 
 2358              		.loc 1 369 5 is_stmt 1 view .LVU672
 369:System/scheduler/scheduler.c **** 
 2359              		.loc 1 369 23 is_stmt 0 view .LVU673
 2360 005a 56F82930 		ldr	r3, [r6, r9, lsl #2]
 369:System/scheduler/scheduler.c **** 
 2361              		.loc 1 369 59 view .LVU674
 2362 005e 44EAC702 		orr	r2, r4, r7, lsl #3
 369:System/scheduler/scheduler.c **** 
 2363              		.loc 1 369 44 view .LVU675
 2364 0062 5A70     		strb	r2, [r3, #1]
 372:System/scheduler/scheduler.c ****     TaskPtr_Map[group][priority]->TCB.Stack = (uint32_t *)MMU_Malloc(StackDepth * sizeof(uint32_t))
 2365              		.loc 1 372 5 is_stmt 1 view .LVU676
 372:System/scheduler/scheduler.c ****     TaskPtr_Map[group][priority]->TCB.Stack = (uint32_t *)MMU_Malloc(StackDepth * sizeof(uint32_t))
ARM GAS  /var/folders/lx/hc4sn_b53233_zkc9xbbl97r0000gp/T//ccAkWgSN.s 			page 82


 2366              		.loc 1 372 23 is_stmt 0 view .LVU677
 2367 0064 56F82930 		ldr	r3, [r6, r9, lsl #2]
 372:System/scheduler/scheduler.c ****     TaskPtr_Map[group][priority]->TCB.Stack = (uint32_t *)MMU_Malloc(StackDepth * sizeof(uint32_t))
 2368              		.loc 1 372 47 view .LVU678
 2369 0068 099A     		ldr	r2, [sp, #36]
 2370 006a DA63     		str	r2, [r3, #60]
 373:System/scheduler/scheduler.c **** 
 2371              		.loc 1 373 5 is_stmt 1 view .LVU679
 373:System/scheduler/scheduler.c **** 
 2372              		.loc 1 373 23 is_stmt 0 view .LVU680
 2373 006c 56F82950 		ldr	r5, [r6, r9, lsl #2]
 373:System/scheduler/scheduler.c **** 
 2374              		.loc 1 373 59 view .LVU681
 2375 0070 9000     		lsls	r0, r2, #2
 2376              	.LVL118:
 373:System/scheduler/scheduler.c **** 
 2377              		.loc 1 373 59 view .LVU682
 2378 0072 80B2     		uxth	r0, r0
 2379 0074 FFF7FEFF 		bl	MMU_Malloc
 2380              	.LVL119:
 373:System/scheduler/scheduler.c **** 
 2381              		.loc 1 373 45 view .LVU683
 2382 0078 6864     		str	r0, [r5, #68]
 375:System/scheduler/scheduler.c ****     {
 2383              		.loc 1 375 5 is_stmt 1 view .LVU684
 375:System/scheduler/scheduler.c ****     {
 2384              		.loc 1 375 27 is_stmt 0 view .LVU685
 2385 007a 56F82900 		ldr	r0, [r6, r9, lsl #2]
 375:System/scheduler/scheduler.c ****     {
 2386              		.loc 1 375 42 view .LVU686
 2387 007e 436C     		ldr	r3, [r0, #68]
 375:System/scheduler/scheduler.c ****     {
 2388              		.loc 1 375 8 view .LVU687
 2389 0080 002B     		cmp	r3, #0
 2390 0082 6AD0     		beq	.L161
 377:System/scheduler/scheduler.c ****     }
 2391              		.loc 1 377 9 is_stmt 1 view .LVU688
 2392 0084 FFF7FEFF 		bl	Os_Set_TaskStk
 2393              	.LVL120:
 383:System/scheduler/scheduler.c **** 
 2394              		.loc 1 383 5 view .LVU689
 383:System/scheduler/scheduler.c **** 
 2395              		.loc 1 383 23 is_stmt 0 view .LVU690
 2396 0088 3546     		mov	r5, r6
 2397 008a 4E46     		mov	r6, r9
 2398 008c 55F82930 		ldr	r3, [r5, r9, lsl #2]
 383:System/scheduler/scheduler.c **** 
 2399              		.loc 1 383 50 view .LVU691
 2400 0090 4FF00009 		mov	r9, #0
 2401 0094 C3F84890 		str	r9, [r3, #72]
 386:System/scheduler/scheduler.c ****     TaskPtr_Map[group][priority]->Exec_status.Running_Time = 0;
 2402              		.loc 1 386 5 is_stmt 1 view .LVU692
 386:System/scheduler/scheduler.c ****     TaskPtr_Map[group][priority]->Exec_status.Running_Time = 0;
 2403              		.loc 1 386 23 is_stmt 0 view .LVU693
 2404 0098 55F82630 		ldr	r3, [r5, r6, lsl #2]
 386:System/scheduler/scheduler.c ****     TaskPtr_Map[group][priority]->Exec_status.Running_Time = 0;
 2405              		.loc 1 386 55 view .LVU694
ARM GAS  /var/folders/lx/hc4sn_b53233_zkc9xbbl97r0000gp/T//ccAkWgSN.s 			page 83


 2406 009c 0022     		movs	r2, #0
 2407 009e 9A63     		str	r2, [r3, #56]	@ float
 387:System/scheduler/scheduler.c **** 
 2408              		.loc 1 387 5 is_stmt 1 view .LVU695
 387:System/scheduler/scheduler.c **** 
 2409              		.loc 1 387 23 is_stmt 0 view .LVU696
 2410 00a0 55F82630 		ldr	r3, [r5, r6, lsl #2]
 387:System/scheduler/scheduler.c **** 
 2411              		.loc 1 387 60 view .LVU697
 2412 00a4 C3F83090 		str	r9, [r3, #48]
 2413 00a8 C3F83490 		str	r9, [r3, #52]
 390:System/scheduler/scheduler.c ****     // set current task under this group flag to ready
 2414              		.loc 1 390 5 is_stmt 1 view .LVU698
 390:System/scheduler/scheduler.c ****     // set current task under this group flag to ready
 2415              		.loc 1 390 27 is_stmt 0 view .LVU699
 2416 00ac 304B     		ldr	r3, .L165+8
 2417 00ae 1978     		ldrb	r1, [r3]	@ zero_extendqisi2
 390:System/scheduler/scheduler.c ****     // set current task under this group flag to ready
 2418              		.loc 1 390 35 view .LVU700
 2419 00b0 55F82600 		ldr	r0, [r5, r6, lsl #2]
 2420 00b4 90F801C0 		ldrb	ip, [r0, #1]	@ zero_extendqisi2
 390:System/scheduler/scheduler.c ****     // set current task under this group flag to ready
 2421              		.loc 1 390 32 view .LVU701
 2422 00b8 0122     		movs	r2, #1
 2423 00ba 02FA0CF2 		lsl	r2, r2, ip
 390:System/scheduler/scheduler.c ****     // set current task under this group flag to ready
 2424              		.loc 1 390 27 view .LVU702
 2425 00be 41EAE201 		orr	r1, r1, r2, asr #3
 2426 00c2 C9B2     		uxtb	r1, r1
 2427 00c4 1970     		strb	r1, [r3]
 392:System/scheduler/scheduler.c **** 
 2428              		.loc 1 392 5 is_stmt 1 view .LVU703
 392:System/scheduler/scheduler.c **** 
 2429              		.loc 1 392 96 is_stmt 0 view .LVU704
 2430 00c6 03EBDC03 		add	r3, r3, ip, lsr #3
 2431 00ca 5978     		ldrb	r1, [r3, #1]	@ zero_extendqisi2
 392:System/scheduler/scheduler.c **** 
 2432              		.loc 1 392 104 view .LVU705
 2433 00cc 02F00702 		and	r2, r2, #7
 392:System/scheduler/scheduler.c **** 
 2434              		.loc 1 392 96 view .LVU706
 2435 00d0 0A43     		orrs	r2, r2, r1
 2436 00d2 5A70     		strb	r2, [r3, #1]
 394:System/scheduler/scheduler.c **** 
 2437              		.loc 1 394 5 is_stmt 1 view .LVU707
 394:System/scheduler/scheduler.c **** 
 2438              		.loc 1 394 63 is_stmt 0 view .LVU708
 2439 00d4 C0F82490 		str	r9, [r0, #36]
 396:System/scheduler/scheduler.c ****     RuntimeObj_Reset(&(TaskPtr_Map[group][priority]->Exec_status.Start_Time));
 2440              		.loc 1 396 5 is_stmt 1 view .LVU709
 396:System/scheduler/scheduler.c ****     RuntimeObj_Reset(&(TaskPtr_Map[group][priority]->Exec_status.Start_Time));
 2441              		.loc 1 396 42 is_stmt 0 view .LVU710
 2442 00d8 55F82600 		ldr	r0, [r5, r6, lsl #2]
 396:System/scheduler/scheduler.c ****     RuntimeObj_Reset(&(TaskPtr_Map[group][priority]->Exec_status.Start_Time));
 2443              		.loc 1 396 5 view .LVU711
 2444 00dc 1430     		adds	r0, r0, #20
 2445 00de FFF7FEFF 		bl	RuntimeObj_Reset
ARM GAS  /var/folders/lx/hc4sn_b53233_zkc9xbbl97r0000gp/T//ccAkWgSN.s 			page 84


 2446              	.LVL121:
 397:System/scheduler/scheduler.c **** 
 2447              		.loc 1 397 5 is_stmt 1 view .LVU712
 397:System/scheduler/scheduler.c **** 
 2448              		.loc 1 397 42 is_stmt 0 view .LVU713
 2449 00e2 55F82600 		ldr	r0, [r5, r6, lsl #2]
 397:System/scheduler/scheduler.c **** 
 2450              		.loc 1 397 5 view .LVU714
 2451 00e6 1C30     		adds	r0, r0, #28
 2452 00e8 FFF7FEFF 		bl	RuntimeObj_Reset
 2453              	.LVL122:
 399:System/scheduler/scheduler.c ****     TaskPtr_Map[group][priority]->Exec_status.error_code = NOERROR;
 2454              		.loc 1 399 5 is_stmt 1 view .LVU715
 399:System/scheduler/scheduler.c ****     TaskPtr_Map[group][priority]->Exec_status.error_code = NOERROR;
 2455              		.loc 1 399 23 is_stmt 0 view .LVU716
 2456 00ec 55F82630 		ldr	r3, [r5, r6, lsl #2]
 399:System/scheduler/scheduler.c ****     TaskPtr_Map[group][priority]->Exec_status.error_code = NOERROR;
 2457              		.loc 1 399 56 view .LVU717
 2458 00f0 C3F82890 		str	r9, [r3, #40]
 400:System/scheduler/scheduler.c **** 
 2459              		.loc 1 400 5 is_stmt 1 view .LVU718
 400:System/scheduler/scheduler.c **** 
 2460              		.loc 1 400 23 is_stmt 0 view .LVU719
 2461 00f4 55F82630 		ldr	r3, [r5, r6, lsl #2]
 400:System/scheduler/scheduler.c **** 
 2462              		.loc 1 400 58 view .LVU720
 2463 00f8 83F82C90 		strb	r9, [r3, #44]
 402:System/scheduler/scheduler.c **** 
 2464              		.loc 1 402 5 is_stmt 1 view .LVU721
 2465 00fc 55F82600 		ldr	r0, [r5, r6, lsl #2]
 2466 0100 FFF7FEFF 		bl	Os_Set_TaskReady
 2467              	.LVL123:
 404:System/scheduler/scheduler.c ****     if (TaskPtr_Map[group][priority]->item_ptr == NULL)
 2468              		.loc 1 404 5 view .LVU722
 404:System/scheduler/scheduler.c ****     if (TaskPtr_Map[group][priority]->item_ptr == NULL)
 2469              		.loc 1 404 23 is_stmt 0 view .LVU723
 2470 0104 55F82690 		ldr	r9, [r5, r6, lsl #2]
 404:System/scheduler/scheduler.c ****     if (TaskPtr_Map[group][priority]->item_ptr == NULL)
 2471              		.loc 1 404 58 view .LVU724
 2472 0108 1420     		movs	r0, #20
 2473 010a FFF7FEFF 		bl	MMU_Malloc
 2474              	.LVL124:
 404:System/scheduler/scheduler.c ****     if (TaskPtr_Map[group][priority]->item_ptr == NULL)
 2475              		.loc 1 404 44 view .LVU725
 2476 010e C9F84C00 		str	r0, [r9, #76]
 405:System/scheduler/scheduler.c ****         return NULL;
 2477              		.loc 1 405 5 is_stmt 1 view .LVU726
 405:System/scheduler/scheduler.c ****         return NULL;
 2478              		.loc 1 405 27 is_stmt 0 view .LVU727
 2479 0112 55F82610 		ldr	r1, [r5, r6, lsl #2]
 405:System/scheduler/scheduler.c ****         return NULL;
 2480              		.loc 1 405 37 view .LVU728
 2481 0116 C86C     		ldr	r0, [r1, #76]
 405:System/scheduler/scheduler.c ****         return NULL;
 2482              		.loc 1 405 8 view .LVU729
 2483 0118 10B3     		cbz	r0, .L162
 408:System/scheduler/scheduler.c ****     if (TskCrt_RegList.num == 0)
ARM GAS  /var/folders/lx/hc4sn_b53233_zkc9xbbl97r0000gp/T//ccAkWgSN.s 			page 85


 2484              		.loc 1 408 5 is_stmt 1 view .LVU730
 2485 011a FFF7FEFF 		bl	List_ItemInit
 2486              	.LVL125:
 409:System/scheduler/scheduler.c ****     {
 2487              		.loc 1 409 5 view .LVU731
 409:System/scheduler/scheduler.c ****     {
 2488              		.loc 1 409 23 is_stmt 0 view .LVU732
 2489 011e 154B     		ldr	r3, .L165+12
 2490 0120 1B78     		ldrb	r3, [r3]	@ zero_extendqisi2
 409:System/scheduler/scheduler.c ****     {
 2491              		.loc 1 409 8 view .LVU733
 2492 0122 6BB9     		cbnz	r3, .L157
 411:System/scheduler/scheduler.c ****     }
 2493              		.loc 1 411 9 is_stmt 1 view .LVU734
 411:System/scheduler/scheduler.c ****     }
 2494              		.loc 1 411 59 is_stmt 0 view .LVU735
 2495 0124 55F82610 		ldr	r1, [r5, r6, lsl #2]
 411:System/scheduler/scheduler.c ****     }
 2496              		.loc 1 411 9 view .LVU736
 2497 0128 134B     		ldr	r3, .L165+16
 2498 012a 0222     		movs	r2, #2
 2499 012c C96C     		ldr	r1, [r1, #76]
 2500 012e 1348     		ldr	r0, .L165+20
 2501 0130 FFF7FEFF 		bl	List_Init
 2502              	.LVL126:
 2503              	.L158:
 418:System/scheduler/scheduler.c **** 
 2504              		.loc 1 418 5 is_stmt 1 view .LVU737
 418:System/scheduler/scheduler.c **** 
 2505              		.loc 1 418 19 is_stmt 0 view .LVU738
 2506 0134 0F4A     		ldr	r2, .L165+12
 2507 0136 1378     		ldrb	r3, [r2]	@ zero_extendqisi2
 418:System/scheduler/scheduler.c **** 
 2508              		.loc 1 418 23 view .LVU739
 2509 0138 0133     		adds	r3, r3, #1
 2510 013a DBB2     		uxtb	r3, r3
 2511 013c 1370     		strb	r3, [r2]
 420:System/scheduler/scheduler.c **** }
 2512              		.loc 1 420 5 is_stmt 1 view .LVU740
 420:System/scheduler/scheduler.c **** }
 2513              		.loc 1 420 12 is_stmt 0 view .LVU741
 2514 013e 6BE7     		b	.L155
 2515              	.L157:
 415:System/scheduler/scheduler.c ****     }
 2516              		.loc 1 415 9 is_stmt 1 view .LVU742
 415:System/scheduler/scheduler.c ****     }
 2517              		.loc 1 415 66 is_stmt 0 view .LVU743
 2518 0140 04EBC704 		add	r4, r4, r7, lsl #3
 2519 0144 084B     		ldr	r3, .L165
 2520 0146 53F82430 		ldr	r3, [r3, r4, lsl #2]
 415:System/scheduler/scheduler.c ****     }
 2521              		.loc 1 415 9 view .LVU744
 2522 014a D96C     		ldr	r1, [r3, #76]
 2523 014c 0B48     		ldr	r0, .L165+20
 2524 014e FFF7FEFF 		bl	List_Insert_Item
 2525              	.LVL127:
 2526 0152 EFE7     		b	.L158
ARM GAS  /var/folders/lx/hc4sn_b53233_zkc9xbbl97r0000gp/T//ccAkWgSN.s 			page 86


 2527              	.LVL128:
 2528              	.L160:
 358:System/scheduler/scheduler.c **** 
 2529              		.loc 1 358 16 view .LVU745
 2530 0154 4FF00008 		mov	r8, #0
 2531 0158 5EE7     		b	.L155
 2532              	.LVL129:
 2533              	.L161:
 380:System/scheduler/scheduler.c **** 
 2534              		.loc 1 380 16 view .LVU746
 2535 015a 4FF00008 		mov	r8, #0
 2536              	.LVL130:
 380:System/scheduler/scheduler.c **** 
 2537              		.loc 1 380 16 view .LVU747
 2538 015e 5BE7     		b	.L155
 2539              	.LVL131:
 2540              	.L162:
 406:System/scheduler/scheduler.c **** 
 2541              		.loc 1 406 16 view .LVU748
 2542 0160 4FF00008 		mov	r8, #0
 2543              	.LVL132:
 406:System/scheduler/scheduler.c **** 
 2544              		.loc 1 406 16 view .LVU749
 2545 0164 58E7     		b	.L155
 2546              	.L166:
 2547 0166 00BF     		.align	2
 2548              	.L165:
 2549 0168 00000000 		.word	.LANCHOR4
 2550 016c 40420F00 		.word	1000000
 2551 0170 00000000 		.word	.LANCHOR0
 2552 0174 00000000 		.word	.LANCHOR13
 2553 0178 00000000 		.word	Os_TaskPri_Compare
 2554 017c 04000000 		.word	.LANCHOR13+4
 2555              		.cfi_endproc
 2556              	.LFE159:
 2558              		.section	.text.Os_Set_TaskPending,"ax",%progbits
 2559              		.align	1
 2560              		.global	Os_Set_TaskPending
 2561              		.syntax unified
 2562              		.thumb
 2563              		.thumb_func
 2564              		.fpu fpv5-d16
 2566              	Os_Set_TaskPending:
 2567              	.LVL133:
 2568              	.LFB162:
 455:System/scheduler/scheduler.c ****     uint8_t grp_id = GET_TASKGROUP_PRIORITY(tsk->priority);
 2569              		.loc 1 455 1 is_stmt 1 view -0
 2570              		.cfi_startproc
 2571              		@ args = 0, pretend = 0, frame = 0
 2572              		@ frame_needed = 0, uses_anonymous_args = 0
 455:System/scheduler/scheduler.c ****     uint8_t grp_id = GET_TASKGROUP_PRIORITY(tsk->priority);
 2573              		.loc 1 455 1 is_stmt 0 view .LVU751
 2574 0000 10B5     		push	{r4, lr}
 2575              	.LCFI37:
 2576              		.cfi_def_cfa_offset 8
 2577              		.cfi_offset 4, -8
 2578              		.cfi_offset 14, -4
ARM GAS  /var/folders/lx/hc4sn_b53233_zkc9xbbl97r0000gp/T//ccAkWgSN.s 			page 87


 456:System/scheduler/scheduler.c ****     uint8_t tsk_id = GET_TASKINGROUP_PRIORITY(tsk->priority);
 2579              		.loc 1 456 5 is_stmt 1 view .LVU752
 456:System/scheduler/scheduler.c ****     uint8_t tsk_id = GET_TASKINGROUP_PRIORITY(tsk->priority);
 2580              		.loc 1 456 22 is_stmt 0 view .LVU753
 2581 0002 90F801C0 		ldrb	ip, [r0, #1]	@ zero_extendqisi2
 456:System/scheduler/scheduler.c ****     uint8_t tsk_id = GET_TASKINGROUP_PRIORITY(tsk->priority);
 2582              		.loc 1 456 13 view .LVU754
 2583 0006 4FEADC02 		lsr	r2, ip, #3
 2584              	.LVL134:
 457:System/scheduler/scheduler.c **** 
 2585              		.loc 1 457 5 is_stmt 1 view .LVU755
 457:System/scheduler/scheduler.c **** 
 2586              		.loc 1 457 13 is_stmt 0 view .LVU756
 2587 000a 0CF0070E 		and	lr, ip, #7
 2588              	.LVL135:
 460:System/scheduler/scheduler.c ****     // set current task under this group flag to ready
 2589              		.loc 1 460 5 is_stmt 1 view .LVU757
 460:System/scheduler/scheduler.c ****     // set current task under this group flag to ready
 2590              		.loc 1 460 27 is_stmt 0 view .LVU758
 2591 000e 0A4B     		ldr	r3, .L169
 2592 0010 1978     		ldrb	r1, [r3]	@ zero_extendqisi2
 460:System/scheduler/scheduler.c ****     // set current task under this group flag to ready
 2593              		.loc 1 460 32 view .LVU759
 2594 0012 4FF0010C 		mov	ip, #1
 2595 0016 0CFA02F4 		lsl	r4, ip, r2
 460:System/scheduler/scheduler.c ****     // set current task under this group flag to ready
 2596              		.loc 1 460 27 view .LVU760
 2597 001a 2143     		orrs	r1, r1, r4
 2598 001c C9B2     		uxtb	r1, r1
 2599 001e 1970     		strb	r1, [r3]
 462:System/scheduler/scheduler.c **** 
 2600              		.loc 1 462 5 is_stmt 1 view .LVU761
 462:System/scheduler/scheduler.c **** 
 2601              		.loc 1 462 40 is_stmt 0 view .LVU762
 2602 0020 1344     		add	r3, r3, r2
 2603 0022 5A78     		ldrb	r2, [r3, #1]	@ zero_extendqisi2
 2604              	.LVL136:
 462:System/scheduler/scheduler.c **** 
 2605              		.loc 1 462 45 view .LVU763
 2606 0024 0CFA0EFC 		lsl	ip, ip, lr
 462:System/scheduler/scheduler.c **** 
 2607              		.loc 1 462 40 view .LVU764
 2608 0028 42EA0C02 		orr	r2, r2, ip
 2609 002c D2B2     		uxtb	r2, r2
 2610 002e 5A70     		strb	r2, [r3, #1]
 2611              	.LVL137:
 465:System/scheduler/scheduler.c **** }
 2612              		.loc 1 465 5 is_stmt 1 view .LVU765
 465:System/scheduler/scheduler.c **** }
 2613              		.loc 1 465 16 is_stmt 0 view .LVU766
 2614 0030 0623     		movs	r3, #6
 2615 0032 0370     		strb	r3, [r0]
 466:System/scheduler/scheduler.c **** 
 2616              		.loc 1 466 1 view .LVU767
 2617 0034 10BD     		pop	{r4, pc}
 2618              	.L170:
 2619 0036 00BF     		.align	2
ARM GAS  /var/folders/lx/hc4sn_b53233_zkc9xbbl97r0000gp/T//ccAkWgSN.s 			page 88


 2620              	.L169:
 2621 0038 00000000 		.word	.LANCHOR2
 2622              		.cfi_endproc
 2623              	.LFE162:
 2625              		.section	.text.Os_SchedulerRun,"ax",%progbits
 2626              		.align	1
 2627              		.syntax unified
 2628              		.thumb
 2629              		.thumb_func
 2630              		.fpu fpv5-d16
 2632              	Os_SchedulerRun:
 2633              	.LVL138:
 2634              	.LFB167:
 519:System/scheduler/scheduler.c ****     SYSTEM_RunTime CurRt_US = Rt;
 2635              		.loc 1 519 1 is_stmt 1 view -0
 2636              		.cfi_startproc
 2637              		@ args = 0, pretend = 0, frame = 8
 2638              		@ frame_needed = 0, uses_anonymous_args = 0
 519:System/scheduler/scheduler.c ****     SYSTEM_RunTime CurRt_US = Rt;
 2639              		.loc 1 519 1 is_stmt 0 view .LVU769
 2640 0000 30B5     		push	{r4, r5, lr}
 2641              	.LCFI38:
 2642              		.cfi_def_cfa_offset 12
 2643              		.cfi_offset 4, -12
 2644              		.cfi_offset 5, -8
 2645              		.cfi_offset 14, -4
 2646 0002 83B0     		sub	sp, sp, #12
 2647              	.LCFI39:
 2648              		.cfi_def_cfa_offset 24
 520:System/scheduler/scheduler.c ****     Task *TskPtr_Tmp = NULL;
 2649              		.loc 1 520 5 is_stmt 1 view .LVU770
 520:System/scheduler/scheduler.c ****     Task *TskPtr_Tmp = NULL;
 2650              		.loc 1 520 20 is_stmt 0 view .LVU771
 2651 0004 CDE90001 		strd	r0, [sp]
 521:System/scheduler/scheduler.c **** 
 2652              		.loc 1 521 5 is_stmt 1 view .LVU772
 2653              	.LVL139:
 523:System/scheduler/scheduler.c ****     {
 2654              		.loc 1 523 5 view .LVU773
 523:System/scheduler/scheduler.c ****     {
 2655              		.loc 1 523 23 is_stmt 0 view .LVU774
 2656 0008 2E4B     		ldr	r3, .L185
 2657 000a 1B78     		ldrb	r3, [r3]	@ zero_extendqisi2
 523:System/scheduler/scheduler.c ****     {
 2658              		.loc 1 523 8 view .LVU775
 2659 000c 33BB     		cbnz	r3, .L180
 2660              	.LVL140:
 2661              	.L172:
 529:System/scheduler/scheduler.c **** 
 2662              		.loc 1 529 5 is_stmt 1 view .LVU776
 529:System/scheduler/scheduler.c **** 
 2663              		.loc 1 529 56 is_stmt 0 view .LVU777
 2664 000e FFF7FEFF 		bl	Os_Get_HighestRank_RdyTask
 2665              	.LVL141:
 2666 0012 0446     		mov	r4, r0
 529:System/scheduler/scheduler.c **** 
 2667              		.loc 1 529 86 view .LVU778
ARM GAS  /var/folders/lx/hc4sn_b53233_zkc9xbbl97r0000gp/T//ccAkWgSN.s 			page 89


 2668 0014 FFF7FEFF 		bl	Os_Get_HighestRank_PndTask
 2669              	.LVL142:
 2670 0018 0146     		mov	r1, r0
 529:System/scheduler/scheduler.c **** 
 2671              		.loc 1 529 37 view .LVU779
 2672 001a 2046     		mov	r0, r4
 2673 001c FFF7FEFF 		bl	Os_TaskPri_Compare
 2674              	.LVL143:
 529:System/scheduler/scheduler.c **** 
 2675              		.loc 1 529 18 view .LVU780
 2676 0020 294D     		ldr	r5, .L185+4
 2677 0022 2968     		ldr	r1, [r5]
 2678 0024 FFF7FEFF 		bl	Os_TaskPri_Compare
 2679              	.LVL144:
 2680 0028 0446     		mov	r4, r0
 2681              	.LVL145:
 531:System/scheduler/scheduler.c ****     {
 2682              		.loc 1 531 5 is_stmt 1 view .LVU781
 531:System/scheduler/scheduler.c ****     {
 2683              		.loc 1 531 20 is_stmt 0 view .LVU782
 2684 002a 2B68     		ldr	r3, [r5]
 531:System/scheduler/scheduler.c ****     {
 2685              		.loc 1 531 8 view .LVU783
 2686 002c 8342     		cmp	r3, r0
 2687 002e 30D0     		beq	.L173
 533:System/scheduler/scheduler.c ****         {
 2688              		.loc 1 533 9 is_stmt 1 view .LVU784
 533:System/scheduler/scheduler.c ****         {
 2689              		.loc 1 533 12 is_stmt 0 view .LVU785
 2690 0030 90B1     		cbz	r0, .L171
 535:System/scheduler/scheduler.c ****             {
 2691              		.loc 1 535 13 is_stmt 1 view .LVU786
 535:System/scheduler/scheduler.c ****             {
 2692              		.loc 1 535 27 is_stmt 0 view .LVU787
 2693 0032 0378     		ldrb	r3, [r0]	@ zero_extendqisi2
 535:System/scheduler/scheduler.c ****             {
 2694              		.loc 1 535 16 view .LVU788
 2695 0034 062B     		cmp	r3, #6
 2696 0036 18D0     		beq	.L181
 2697              	.LVL146:
 2698              	.L175:
 543:System/scheduler/scheduler.c ****             {
 2699              		.loc 1 543 13 is_stmt 1 view .LVU789
 543:System/scheduler/scheduler.c ****             {
 2700              		.loc 1 543 32 is_stmt 0 view .LVU790
 2701 0038 234B     		ldr	r3, .L185+4
 2702 003a 1868     		ldr	r0, [r3]
 543:System/scheduler/scheduler.c ****             {
 2703              		.loc 1 543 16 view .LVU791
 2704 003c 38B1     		cbz	r0, .L176
 543:System/scheduler/scheduler.c ****             {
 2705              		.loc 1 543 59 discriminator 1 view .LVU792
 2706 003e 234B     		ldr	r3, .L185+8
 2707 0040 1B68     		ldr	r3, [r3]
 543:System/scheduler/scheduler.c ****             {
 2708              		.loc 1 543 41 discriminator 1 view .LVU793
 2709 0042 9842     		cmp	r0, r3
ARM GAS  /var/folders/lx/hc4sn_b53233_zkc9xbbl97r0000gp/T//ccAkWgSN.s 			page 90


 2710 0044 03D0     		beq	.L176
 543:System/scheduler/scheduler.c ****             {
 2711              		.loc 1 543 90 discriminator 2 view .LVU794
 2712 0046 0378     		ldrb	r3, [r0]	@ zero_extendqisi2
 2713 0048 DBB2     		uxtb	r3, r3
 543:System/scheduler/scheduler.c ****             {
 2714              		.loc 1 543 73 discriminator 2 view .LVU795
 2715 004a 022B     		cmp	r3, #2
 2716 004c 13D0     		beq	.L182
 2717              	.L176:
 549:System/scheduler/scheduler.c ****             {
 2718              		.loc 1 549 13 is_stmt 1 view .LVU796
 549:System/scheduler/scheduler.c ****             {
 2719              		.loc 1 549 28 is_stmt 0 view .LVU797
 2720 004e 2378     		ldrb	r3, [r4]	@ zero_extendqisi2
 549:System/scheduler/scheduler.c ****             {
 2721              		.loc 1 549 56 view .LVU798
 2722 0050 043B     		subs	r3, r3, #4
 2723 0052 DBB2     		uxtb	r3, r3
 549:System/scheduler/scheduler.c ****             {
 2724              		.loc 1 549 16 view .LVU799
 2725 0054 012B     		cmp	r3, #1
 2726 0056 11D8     		bhi	.L183
 2727              	.L171:
 579:System/scheduler/scheduler.c **** 
 2728              		.loc 1 579 1 view .LVU800
 2729 0058 03B0     		add	sp, sp, #12
 2730              	.LCFI40:
 2731              		.cfi_remember_state
 2732              		.cfi_def_cfa_offset 12
 2733              		@ sp needed
 2734 005a 30BD     		pop	{r4, r5, pc}
 2735              	.LVL147:
 2736              	.L180:
 2737              	.LCFI41:
 2738              		.cfi_restore_state
 526:System/scheduler/scheduler.c ****     }
 2739              		.loc 1 526 9 is_stmt 1 view .LVU801
 2740 005c 0023     		movs	r3, #0
 2741 005e 6A46     		mov	r2, sp
 2742 0060 1B49     		ldr	r1, .L185+12
 2743 0062 1C48     		ldr	r0, .L185+16
 2744              	.LVL148:
 526:System/scheduler/scheduler.c ****     }
 2745              		.loc 1 526 9 is_stmt 0 view .LVU802
 2746 0064 FFF7FEFF 		bl	List_traverse
 2747              	.LVL149:
 526:System/scheduler/scheduler.c ****     }
 2748              		.loc 1 526 9 view .LVU803
 2749 0068 D1E7     		b	.L172
 2750              	.LVL150:
 2751              	.L181:
 539:System/scheduler/scheduler.c ****                 Os_Set_TaskReady(TskPtr_Tmp);
 2752              		.loc 1 539 17 is_stmt 1 view .LVU804
 2753 006a FFF7FEFF 		bl	Os_Clr_TaskPending
 2754              	.LVL151:
 540:System/scheduler/scheduler.c ****             }
ARM GAS  /var/folders/lx/hc4sn_b53233_zkc9xbbl97r0000gp/T//ccAkWgSN.s 			page 91


 2755              		.loc 1 540 17 view .LVU805
 2756 006e 2046     		mov	r0, r4
 2757 0070 FFF7FEFF 		bl	Os_Set_TaskReady
 2758              	.LVL152:
 2759 0074 E0E7     		b	.L175
 2760              	.L182:
 546:System/scheduler/scheduler.c ****             }
 2761              		.loc 1 546 17 view .LVU806
 2762 0076 FFF7FEFF 		bl	Os_Set_TaskPending
 2763              	.LVL153:
 2764 007a E8E7     		b	.L176
 2765              	.L183:
 551:System/scheduler/scheduler.c **** 
 2766              		.loc 1 551 17 view .LVU807
 551:System/scheduler/scheduler.c **** 
 2767              		.loc 1 551 31 is_stmt 0 view .LVU808
 2768 007c 164B     		ldr	r3, .L185+20
 2769 007e 1C60     		str	r4, [r3]
 553:System/scheduler/scheduler.c ****                 NxtTsk_TCB.Stack = NxtRunTsk_Ptr->TCB.Stack;
 2770              		.loc 1 553 17 is_stmt 1 view .LVU809
 553:System/scheduler/scheduler.c ****                 NxtTsk_TCB.Stack = NxtRunTsk_Ptr->TCB.Stack;
 2771              		.loc 1 553 42 is_stmt 0 view .LVU810
 2772 0080 04F14002 		add	r2, r4, #64
 553:System/scheduler/scheduler.c ****                 NxtTsk_TCB.Stack = NxtRunTsk_Ptr->TCB.Stack;
 2773              		.loc 1 553 40 view .LVU811
 2774 0084 154B     		ldr	r3, .L185+24
 2775 0086 1A60     		str	r2, [r3]
 554:System/scheduler/scheduler.c **** 
 2776              		.loc 1 554 17 is_stmt 1 view .LVU812
 554:System/scheduler/scheduler.c **** 
 2777              		.loc 1 554 54 is_stmt 0 view .LVU813
 2778 0088 626C     		ldr	r2, [r4, #68]
 554:System/scheduler/scheduler.c **** 
 2779              		.loc 1 554 34 view .LVU814
 2780 008a 5A60     		str	r2, [r3, #4]
 557:System/scheduler/scheduler.c ****             }
 2781              		.loc 1 557 17 is_stmt 1 view .LVU815
 2782 008c FFF7FEFF 		bl	Kernel_TriggerPendSV
 2783              	.LVL154:
 2784 0090 E2E7     		b	.L171
 2785              	.LVL155:
 2786              	.L173:
 563:System/scheduler/scheduler.c ****              (CurRunTsk_Ptr == NULL)) ||
 2787              		.loc 1 563 9 view .LVU816
 563:System/scheduler/scheduler.c ****              (CurRunTsk_Ptr == NULL)) ||
 2788              		.loc 1 563 12 is_stmt 0 view .LVU817
 2789 0092 98B1     		cbz	r0, .L184
 2790              	.L177:
 565:System/scheduler/scheduler.c ****             (TskPtr_Tmp->State == Task_SignalBlock))
 2791              		.loc 1 565 24 view .LVU818
 2792 0094 2378     		ldrb	r3, [r4]	@ zero_extendqisi2
 564:System/scheduler/scheduler.c ****             (TskPtr_Tmp->State == Task_DelayBlock) ||
 2793              		.loc 1 564 39 view .LVU819
 2794 0096 052B     		cmp	r3, #5
 2795 0098 01D0     		beq	.L178
 565:System/scheduler/scheduler.c ****             (TskPtr_Tmp->State == Task_SignalBlock))
 2796              		.loc 1 565 52 view .LVU820
ARM GAS  /var/folders/lx/hc4sn_b53233_zkc9xbbl97r0000gp/T//ccAkWgSN.s 			page 92


 2797 009a 042B     		cmp	r3, #4
 2798 009c DCD1     		bne	.L171
 2799              	.L178:
 568:System/scheduler/scheduler.c **** 
 2800              		.loc 1 568 13 is_stmt 1 view .LVU821
 568:System/scheduler/scheduler.c **** 
 2801              		.loc 1 568 22 is_stmt 0 view .LVU822
 2802 009e 0B4B     		ldr	r3, .L185+8
 2803 00a0 1B68     		ldr	r3, [r3]
 568:System/scheduler/scheduler.c **** 
 2804              		.loc 1 568 30 view .LVU823
 2805 00a2 0122     		movs	r2, #1
 2806 00a4 1A70     		strb	r2, [r3]
 570:System/scheduler/scheduler.c **** 
 2807              		.loc 1 570 13 is_stmt 1 view .LVU824
 570:System/scheduler/scheduler.c **** 
 2808              		.loc 1 570 27 is_stmt 0 view .LVU825
 2809 00a6 0C4A     		ldr	r2, .L185+20
 2810 00a8 1360     		str	r3, [r2]
 572:System/scheduler/scheduler.c ****             NxtTsk_TCB.Stack = Idle_Task->TCB.Stack;
 2811              		.loc 1 572 13 is_stmt 1 view .LVU826
 572:System/scheduler/scheduler.c ****             NxtTsk_TCB.Stack = Idle_Task->TCB.Stack;
 2812              		.loc 1 572 38 is_stmt 0 view .LVU827
 2813 00aa 03F14001 		add	r1, r3, #64
 572:System/scheduler/scheduler.c ****             NxtTsk_TCB.Stack = Idle_Task->TCB.Stack;
 2814              		.loc 1 572 36 view .LVU828
 2815 00ae 0B4A     		ldr	r2, .L185+24
 2816 00b0 1160     		str	r1, [r2]
 573:System/scheduler/scheduler.c **** 
 2817              		.loc 1 573 13 is_stmt 1 view .LVU829
 573:System/scheduler/scheduler.c **** 
 2818              		.loc 1 573 46 is_stmt 0 view .LVU830
 2819 00b2 5B6C     		ldr	r3, [r3, #68]
 573:System/scheduler/scheduler.c **** 
 2820              		.loc 1 573 30 view .LVU831
 2821 00b4 5360     		str	r3, [r2, #4]
 576:System/scheduler/scheduler.c ****         }
 2822              		.loc 1 576 13 is_stmt 1 view .LVU832
 2823 00b6 FFF7FEFF 		bl	Kernel_TriggerPendSV
 2824              	.LVL156:
 579:System/scheduler/scheduler.c **** 
 2825              		.loc 1 579 1 is_stmt 0 view .LVU833
 2826 00ba CDE7     		b	.L171
 2827              	.LVL157:
 2828              	.L184:
 563:System/scheduler/scheduler.c ****              (CurRunTsk_Ptr == NULL)) ||
 2829              		.loc 1 563 35 discriminator 1 view .LVU834
 2830 00bc 002B     		cmp	r3, #0
 2831 00be E9D1     		bne	.L177
 2832 00c0 EDE7     		b	.L178
 2833              	.L186:
 2834 00c2 00BF     		.align	2
 2835              	.L185:
 2836 00c4 00000000 		.word	.LANCHOR13
 2837 00c8 00000000 		.word	.LANCHOR9
 2838 00cc 00000000 		.word	.LANCHOR6
 2839 00d0 00000000 		.word	Os_TaskCrtList_TraverseCallback
ARM GAS  /var/folders/lx/hc4sn_b53233_zkc9xbbl97r0000gp/T//ccAkWgSN.s 			page 93


 2840 00d4 04000000 		.word	.LANCHOR13+4
 2841 00d8 00000000 		.word	.LANCHOR12
 2842 00dc 00000000 		.word	.LANCHOR11
 2843              		.cfi_endproc
 2844              	.LFE167:
 2846              		.section	.text.Os_TaskCaller,"ax",%progbits
 2847              		.align	1
 2848              		.syntax unified
 2849              		.thumb
 2850              		.thumb_func
 2851              		.fpu fpv5-d16
 2853              	Os_TaskCaller:
 2854              	.LFB174:
 867:System/scheduler/scheduler.c ****     // if any task in any group is under ready state
 2855              		.loc 1 867 1 is_stmt 1 view -0
 2856              		.cfi_startproc
 2857              		@ Volatile: function does not return.
 2858              		@ args = 0, pretend = 0, frame = 0
 2859              		@ frame_needed = 0, uses_anonymous_args = 0
 2860 0000 08B5     		push	{r3, lr}
 2861              	.LCFI42:
 2862              		.cfi_def_cfa_offset 8
 2863              		.cfi_offset 3, -8
 2864              		.cfi_offset 14, -4
 2865 0002 03E0     		b	.L188
 2866              	.L189:
 883:System/scheduler/scheduler.c ****         }
 2867              		.loc 1 883 13 view .LVU836
 2868 0004 FFF7FEFF 		bl	Get_CurrentRunningUs
 2869              	.LVL158:
 2870 0008 FFF7FEFF 		bl	Os_SchedulerRun
 2871              	.LVL159:
 2872              	.L188:
 869:System/scheduler/scheduler.c ****     {
 2873              		.loc 1 869 5 view .LVU837
 871:System/scheduler/scheduler.c ****         {
 2874              		.loc 1 871 9 view .LVU838
 871:System/scheduler/scheduler.c ****         {
 2875              		.loc 1 871 27 is_stmt 0 view .LVU839
 2876 000c 074B     		ldr	r3, .L192
 2877 000e 1868     		ldr	r0, [r3]
 871:System/scheduler/scheduler.c ****         {
 2878              		.loc 1 871 12 view .LVU840
 2879 0010 0028     		cmp	r0, #0
 2880 0012 FBD0     		beq	.L188
 874:System/scheduler/scheduler.c **** 
 2881              		.loc 1 874 13 is_stmt 1 view .LVU841
 2882 0014 FFF7FEFF 		bl	Os_TaskExec
 2883              	.LVL160:
 877:System/scheduler/scheduler.c ****             {
 2884              		.loc 1 877 13 view .LVU842
 877:System/scheduler/scheduler.c ****             {
 2885              		.loc 1 877 31 is_stmt 0 view .LVU843
 2886 0018 054B     		ldr	r3, .L192+4
 2887 001a 1A68     		ldr	r2, [r3]
 2888 001c 054B     		ldr	r3, .L192+8
 2889 001e 1B68     		ldr	r3, [r3]
ARM GAS  /var/folders/lx/hc4sn_b53233_zkc9xbbl97r0000gp/T//ccAkWgSN.s 			page 94


 877:System/scheduler/scheduler.c ****             {
 2890              		.loc 1 877 16 view .LVU844
 2891 0020 9A42     		cmp	r2, r3
 2892 0022 EFD0     		beq	.L189
 879:System/scheduler/scheduler.c ****             }
 2893              		.loc 1 879 17 is_stmt 1 view .LVU845
 879:System/scheduler/scheduler.c ****             }
 2894              		.loc 1 879 31 is_stmt 0 view .LVU846
 2895 0024 024B     		ldr	r3, .L192+4
 2896 0026 0022     		movs	r2, #0
 2897 0028 1A60     		str	r2, [r3]
 2898 002a EBE7     		b	.L189
 2899              	.L193:
 2900              		.align	2
 2901              	.L192:
 2902 002c 00000000 		.word	.LANCHOR12
 2903 0030 00000000 		.word	.LANCHOR9
 2904 0034 00000000 		.word	.LANCHOR6
 2905              		.cfi_endproc
 2906              	.LFE174:
 2908              		.section	.text.Os_TaskDelay_Ms,"ax",%progbits
 2909              		.align	1
 2910              		.global	Os_TaskDelay_Ms
 2911              		.syntax unified
 2912              		.thumb
 2913              		.thumb_func
 2914              		.fpu fpv5-d16
 2916              	Os_TaskDelay_Ms:
 2917              	.LVL161:
 2918              	.LFB168:
 583:System/scheduler/scheduler.c ****     Task *NxtTsk_Tmp = NULL;
 2919              		.loc 1 583 1 is_stmt 1 view -0
 2920              		.cfi_startproc
 2921              		@ args = 0, pretend = 0, frame = 0
 2922              		@ frame_needed = 0, uses_anonymous_args = 0
 583:System/scheduler/scheduler.c ****     Task *NxtTsk_Tmp = NULL;
 2923              		.loc 1 583 1 is_stmt 0 view .LVU848
 2924 0000 10B5     		push	{r4, lr}
 2925              	.LCFI43:
 2926              		.cfi_def_cfa_offset 8
 2927              		.cfi_offset 4, -8
 2928              		.cfi_offset 14, -4
 2929 0002 0446     		mov	r4, r0
 584:System/scheduler/scheduler.c **** 
 2930              		.loc 1 584 5 is_stmt 1 view .LVU849
 2931              	.LVL162:
 586:System/scheduler/scheduler.c **** 
 2932              		.loc 1 586 5 view .LVU850
 586:System/scheduler/scheduler.c **** 
 2933              		.loc 1 586 44 is_stmt 0 view .LVU851
 2934 0004 4FF47A73 		mov	r3, #1000
 2935 0008 03FB01F1 		mul	r1, r3, r1
 2936              	.LVL163:
 589:System/scheduler/scheduler.c **** 
 2937              		.loc 1 589 5 is_stmt 1 view .LVU852
 589:System/scheduler/scheduler.c **** 
 2938              		.loc 1 589 50 is_stmt 0 view .LVU853
ARM GAS  /var/folders/lx/hc4sn_b53233_zkc9xbbl97r0000gp/T//ccAkWgSN.s 			page 95


 2939 000c 4369     		ldr	r3, [r0, #20]
 2940 000e 8269     		ldr	r2, [r0, #24]
 2941 0010 5B18     		adds	r3, r3, r1
 2942 0012 42F10002 		adc	r2, r2, #0
 2943 0016 4361     		str	r3, [r0, #20]
 2944 0018 8261     		str	r2, [r0, #24]
 592:System/scheduler/scheduler.c ****     Os_Set_TaskBlock(TaskHandlerToObj(hdl), Task_DelayBlock);
 2945              		.loc 1 592 5 is_stmt 1 view .LVU854
 2946 001a FFF7FEFF 		bl	Os_Clr_TaskReady
 2947              	.LVL164:
 593:System/scheduler/scheduler.c **** 
 2948              		.loc 1 593 5 view .LVU855
 2949 001e 0521     		movs	r1, #5
 2950 0020 2046     		mov	r0, r4
 2951 0022 FFF7FEFF 		bl	Os_Set_TaskBlock
 2952              	.LVL165:
 595:System/scheduler/scheduler.c **** 
 2953              		.loc 1 595 5 view .LVU856
 595:System/scheduler/scheduler.c **** 
 2954              		.loc 1 595 18 is_stmt 0 view .LVU857
 2955 0026 FFF7FEFF 		bl	Os_Get_HighestRank_RdyTask
 2956              	.LVL166:
 597:System/scheduler/scheduler.c ****     {
 2957              		.loc 1 597 5 is_stmt 1 view .LVU858
 597:System/scheduler/scheduler.c ****     {
 2958              		.loc 1 597 8 is_stmt 0 view .LVU859
 2959 002a 50B1     		cbz	r0, .L198
 607:System/scheduler/scheduler.c **** 
 2960              		.loc 1 607 9 is_stmt 1 view .LVU860
 607:System/scheduler/scheduler.c **** 
 2961              		.loc 1 607 23 is_stmt 0 view .LVU861
 2962 002c 0B4A     		ldr	r2, .L199
 2963 002e 1060     		str	r0, [r2]
 609:System/scheduler/scheduler.c ****         NxtTsk_TCB.Stack = NxtTsk_Tmp->TCB.Stack;
 2964              		.loc 1 609 9 is_stmt 1 view .LVU862
 609:System/scheduler/scheduler.c ****         NxtTsk_TCB.Stack = NxtTsk_Tmp->TCB.Stack;
 2965              		.loc 1 609 34 is_stmt 0 view .LVU863
 2966 0030 00F14001 		add	r1, r0, #64
 609:System/scheduler/scheduler.c ****         NxtTsk_TCB.Stack = NxtTsk_Tmp->TCB.Stack;
 2967              		.loc 1 609 32 view .LVU864
 2968 0034 0A4A     		ldr	r2, .L199+4
 2969 0036 1160     		str	r1, [r2]
 610:System/scheduler/scheduler.c ****     }
 2970              		.loc 1 610 9 is_stmt 1 view .LVU865
 610:System/scheduler/scheduler.c ****     }
 2971              		.loc 1 610 43 is_stmt 0 view .LVU866
 2972 0038 436C     		ldr	r3, [r0, #68]
 610:System/scheduler/scheduler.c ****     }
 2973              		.loc 1 610 26 view .LVU867
 2974 003a 5360     		str	r3, [r2, #4]
 2975              	.L196:
 615:System/scheduler/scheduler.c **** }
 2976              		.loc 1 615 5 is_stmt 1 view .LVU868
 2977 003c FFF7FEFF 		bl	Kernel_TriggerPendSV
 2978              	.LVL167:
 616:System/scheduler/scheduler.c **** 
 2979              		.loc 1 616 1 is_stmt 0 view .LVU869
ARM GAS  /var/folders/lx/hc4sn_b53233_zkc9xbbl97r0000gp/T//ccAkWgSN.s 			page 96


 2980 0040 10BD     		pop	{r4, pc}
 2981              	.LVL168:
 2982              	.L198:
 599:System/scheduler/scheduler.c ****         Idle_Task->State = Task_Ready;
 2983              		.loc 1 599 9 is_stmt 1 view .LVU870
 599:System/scheduler/scheduler.c ****         Idle_Task->State = Task_Ready;
 2984              		.loc 1 599 23 is_stmt 0 view .LVU871
 2985 0042 084B     		ldr	r3, .L199+8
 2986 0044 1B68     		ldr	r3, [r3]
 2987 0046 054A     		ldr	r2, .L199
 2988 0048 1360     		str	r3, [r2]
 600:System/scheduler/scheduler.c **** 
 2989              		.loc 1 600 9 is_stmt 1 view .LVU872
 600:System/scheduler/scheduler.c **** 
 2990              		.loc 1 600 26 is_stmt 0 view .LVU873
 2991 004a 1A46     		mov	r2, r3
 2992 004c 0121     		movs	r1, #1
 2993 004e 02F8401B 		strb	r1, [r2], #64
 602:System/scheduler/scheduler.c ****         NxtTsk_TCB.Stack = Idle_Task->TCB.Stack;
 2994              		.loc 1 602 9 is_stmt 1 view .LVU874
 602:System/scheduler/scheduler.c ****         NxtTsk_TCB.Stack = Idle_Task->TCB.Stack;
 2995              		.loc 1 602 32 is_stmt 0 view .LVU875
 2996 0052 0349     		ldr	r1, .L199+4
 2997 0054 0A60     		str	r2, [r1]
 603:System/scheduler/scheduler.c ****     }
 2998              		.loc 1 603 9 is_stmt 1 view .LVU876
 603:System/scheduler/scheduler.c ****     }
 2999              		.loc 1 603 42 is_stmt 0 view .LVU877
 3000 0056 5B6C     		ldr	r3, [r3, #68]
 603:System/scheduler/scheduler.c ****     }
 3001              		.loc 1 603 26 view .LVU878
 3002 0058 4B60     		str	r3, [r1, #4]
 3003 005a EFE7     		b	.L196
 3004              	.L200:
 3005              		.align	2
 3006              	.L199:
 3007 005c 00000000 		.word	.LANCHOR12
 3008 0060 00000000 		.word	.LANCHOR11
 3009 0064 00000000 		.word	.LANCHOR6
 3010              		.cfi_endproc
 3011              	.LFE168:
 3013              		.section	.bss.CurRunTsk_Ptr,"aw",%nobits
 3014              		.align	2
 3015              		.set	.LANCHOR9,. + 0
 3018              	CurRunTsk_Ptr:
 3019 0000 00000000 		.space	4
 3020              		.section	.bss.CurTsk_TCB,"aw",%nobits
 3021              		.align	2
 3022              		.set	.LANCHOR10,. + 0
 3025              	CurTsk_TCB:
 3026 0000 00000000 		.space	8
 3026      00000000 
 3027              		.section	.bss.Idle_List,"aw",%nobits
 3028              		.align	2
 3029              		.set	.LANCHOR7,. + 0
 3032              	Idle_List:
 3033 0000 00000000 		.space	24
ARM GAS  /var/folders/lx/hc4sn_b53233_zkc9xbbl97r0000gp/T//ccAkWgSN.s 			page 97


 3033      00000000 
 3033      00000000 
 3033      00000000 
 3033      00000000 
 3034              		.section	.bss.Idle_Task,"aw",%nobits
 3035              		.align	2
 3036              		.set	.LANCHOR6,. + 0
 3039              	Idle_Task:
 3040 0000 00000000 		.space	4
 3041              		.section	.bss.NxtRunTsk_Ptr,"aw",%nobits
 3042              		.align	2
 3043              		.set	.LANCHOR12,. + 0
 3046              	NxtRunTsk_Ptr:
 3047 0000 00000000 		.space	4
 3048              		.section	.bss.NxtTsk_TCB,"aw",%nobits
 3049              		.align	2
 3050              		.set	.LANCHOR11,. + 0
 3053              	NxtTsk_TCB:
 3054 0000 00000000 		.space	8
 3054      00000000 
 3055              		.section	.bss.TaskPtr_Map,"aw",%nobits
 3056              		.align	2
 3057              		.set	.LANCHOR4,. + 0
 3060              	TaskPtr_Map:
 3061 0000 00000000 		.space	256
 3061      00000000 
 3061      00000000 
 3061      00000000 
 3061      00000000 
 3062              		.section	.bss.TskCrt_RegList,"aw",%nobits
 3063              		.align	2
 3064              		.set	.LANCHOR13,. + 0
 3067              	TskCrt_RegList:
 3068 0000 00000000 		.space	24
 3068      00000000 
 3068      00000000 
 3068      00000000 
 3068      00000000 
 3069              		.section	.bss.TskHdl_BlkMap,"aw",%nobits
 3070              		.align	2
 3071              		.set	.LANCHOR1,. + 0
 3074              	TskHdl_BlkMap:
 3075 0000 00000000 		.space	9
 3075      00000000 
 3075      00
 3076              		.section	.bss.TskHdl_PndMap,"aw",%nobits
 3077              		.align	2
 3078              		.set	.LANCHOR2,. + 0
 3081              	TskHdl_PndMap:
 3082 0000 00000000 		.space	9
 3082      00000000 
 3082      00
 3083              		.section	.bss.TskHdl_RdyMap,"aw",%nobits
 3084              		.align	2
 3085              		.set	.LANCHOR0,. + 0
 3088              	TskHdl_RdyMap:
 3089 0000 00000000 		.space	9
ARM GAS  /var/folders/lx/hc4sn_b53233_zkc9xbbl97r0000gp/T//ccAkWgSN.s 			page 98


 3089      00000000 
 3089      00
 3090              		.section	.bss.TskRdy_RegList,"aw",%nobits
 3091              		.align	2
 3094              	TskRdy_RegList:
 3095 0000 00000000 		.space	24
 3095      00000000 
 3095      00000000 
 3095      00000000 
 3095      00000000 
 3096              		.section	.bss.idle_cnt.0,"aw",%nobits
 3097              		.align	3
 3098              		.set	.LANCHOR8,. + 0
 3101              	idle_cnt.0:
 3102 0000 00000000 		.space	8
 3102      00000000 
 3103              		.section	.bss.scheduler_state,"aw",%nobits
 3104              		.set	.LANCHOR5,. + 0
 3107              	scheduler_state:
 3108 0000 00       		.space	1
 3109              		.section	.rodata.Task_Priority_List,"a"
 3110              		.align	2
 3111              		.set	.LANCHOR3,. + 0
 3114              	Task_Priority_List:
 3115 0000 00000100 		.ascii	"\000\000\001\000\002\000\001\000\003\000\001\000\002"
 3115      02000100 
 3115      03000100 
 3115      02
 3116 000d 00010004 		.ascii	"\000\001\000\004\000\001\000\002\000\001\000\003\000"
 3116      00010002 
 3116      00010003 
 3116      00
 3117 001a 01000200 		.ascii	"\001\000\002\000\001\000\005\000\001\000\002\000\001"
 3117      01000500 
 3117      01000200 
 3117      01
 3118 0027 00030001 		.ascii	"\000\003\000\001\000\002\000\001\000\004\000\001\000"
 3118      00020001 
 3118      00040001 
 3118      00
 3119 0034 02000100 		.ascii	"\002\000\001\000\003\000\001\000\002\000\001\000\006"
 3119      03000100 
 3119      02000100 
 3119      06
 3120 0041 00010002 		.ascii	"\000\001\000\002\000\001\000\003\000\001\000\002\000"
 3120      00010003 
 3120      00010002 
 3120      00
 3121 004e 01000400 		.ascii	"\001\000\004\000\001\000\002\000\001\000\003\000\001"
 3121      01000200 
 3121      01000300 
 3121      01
 3122 005b 00020001 		.ascii	"\000\002\000\001\000\005\000\001\000\002\000\001\000"
 3122      00050001 
 3122      00020001 
 3122      00
 3123 0068 03000100 		.ascii	"\003\000\001\000\002\000\001\000\004\000\001\000\002"
ARM GAS  /var/folders/lx/hc4sn_b53233_zkc9xbbl97r0000gp/T//ccAkWgSN.s 			page 99


 3123      02000100 
 3123      04000100 
 3123      02
 3124 0075 00010003 		.ascii	"\000\001\000\003\000\001\000\002\000\001\000\007\000"
 3124      00010002 
 3124      00010007 
 3124      00
 3125 0082 01000200 		.ascii	"\001\000\002\000\001\000\003\000\001\000\002\000\001"
 3125      01000300 
 3125      01000200 
 3125      01
 3126 008f 00040001 		.ascii	"\000\004\000\001\000\002\000\001\000\003\000\001\000"
 3126      00020001 
 3126      00030001 
 3126      00
 3127 009c 02000100 		.ascii	"\002\000\001\000\005\000\001\000\002\000\001\000\003"
 3127      05000100 
 3127      02000100 
 3127      03
 3128 00a9 00010002 		.ascii	"\000\001\000\002\000\001\000\004\000\001\000\002\000"
 3128      00010004 
 3128      00010002 
 3128      00
 3129 00b6 01000300 		.ascii	"\001\000\003\000\001\000\002\000\001\000\006\000\001"
 3129      01000200 
 3129      01000600 
 3129      01
 3130 00c3 00020001 		.ascii	"\000\002\000\001\000\003\000\001\000\002\000\001\000"
 3130      00030001 
 3130      00020001 
 3130      00
 3131 00d0 04000100 		.ascii	"\004\000\001\000\002\000\001\000\003\000\001\000\002"
 3131      02000100 
 3131      03000100 
 3131      02
 3132 00dd 00010005 		.ascii	"\000\001\000\005\000\001\000\002\000\001\000\003\000"
 3132      00010002 
 3132      00010003 
 3132      00
 3133 00ea 01000200 		.ascii	"\001\000\002\000\001\000\004\000\001\000\002\000\001"
 3133      01000400 
 3133      01000200 
 3133      01
 3134 00f7 00030001 		.ascii	"\000\003\000\001\000\002\000\001\000"
 3134      00020001 
 3134      00
 3135              		.text
 3136              	.Letext0:
 3137              		.file 3 "/usr/local/arm-none-eabi-gcc/gcc-arm-none-eabi-10-2020-q4-major/arm-none-eabi/include/mac
 3138              		.file 4 "/usr/local/arm-none-eabi-gcc/gcc-arm-none-eabi-10-2020-q4-major/arm-none-eabi/include/sys
 3139              		.file 5 "System/runtime/runtime.h"
 3140              		.file 6 "DataStructure/linked_list.h"
 3141              		.file 7 "System/scheduler/scheduler.h"
 3142              		.file 8 "System/kernel/kernel.h"
 3143              		.file 9 "System/mmu/mmu.h"
 3144              		.file 10 "<built-in>"
ARM GAS  /var/folders/lx/hc4sn_b53233_zkc9xbbl97r0000gp/T//ccAkWgSN.s 			page 100


DEFINED SYMBOLS
                            *ABS*:0000000000000000 scheduler.c
/var/folders/lx/hc4sn_b53233_zkc9xbbl97r0000gp/T//ccAkWgSN.s:17     .text.Os_Idle_List_TraverseCallback:0000000000000000 $t
/var/folders/lx/hc4sn_b53233_zkc9xbbl97r0000gp/T//ccAkWgSN.s:24     .text.Os_Idle_List_TraverseCallback:0000000000000000 Os_Idle_List_TraverseCallback
/var/folders/lx/hc4sn_b53233_zkc9xbbl97r0000gp/T//ccAkWgSN.s:83     .text.Os_Set_TaskReady:0000000000000000 $t
/var/folders/lx/hc4sn_b53233_zkc9xbbl97r0000gp/T//ccAkWgSN.s:89     .text.Os_Set_TaskReady:0000000000000000 Os_Set_TaskReady
/var/folders/lx/hc4sn_b53233_zkc9xbbl97r0000gp/T//ccAkWgSN.s:143    .text.Os_Set_TaskReady:0000000000000034 $d
/var/folders/lx/hc4sn_b53233_zkc9xbbl97r0000gp/T//ccAkWgSN.s:148    .text.Os_Set_TaskBlock:0000000000000000 $t
/var/folders/lx/hc4sn_b53233_zkc9xbbl97r0000gp/T//ccAkWgSN.s:154    .text.Os_Set_TaskBlock:0000000000000000 Os_Set_TaskBlock
/var/folders/lx/hc4sn_b53233_zkc9xbbl97r0000gp/T//ccAkWgSN.s:211    .text.Os_Set_TaskBlock:000000000000003c $d
/var/folders/lx/hc4sn_b53233_zkc9xbbl97r0000gp/T//ccAkWgSN.s:216    .text.Os_Clr_TaskReady:0000000000000000 $t
/var/folders/lx/hc4sn_b53233_zkc9xbbl97r0000gp/T//ccAkWgSN.s:222    .text.Os_Clr_TaskReady:0000000000000000 Os_Clr_TaskReady
/var/folders/lx/hc4sn_b53233_zkc9xbbl97r0000gp/T//ccAkWgSN.s:279    .text.Os_Clr_TaskReady:000000000000003c $d
/var/folders/lx/hc4sn_b53233_zkc9xbbl97r0000gp/T//ccAkWgSN.s:284    .text.Os_Clr_TaskPending:0000000000000000 $t
/var/folders/lx/hc4sn_b53233_zkc9xbbl97r0000gp/T//ccAkWgSN.s:290    .text.Os_Clr_TaskPending:0000000000000000 Os_Clr_TaskPending
/var/folders/lx/hc4sn_b53233_zkc9xbbl97r0000gp/T//ccAkWgSN.s:347    .text.Os_Clr_TaskPending:000000000000003c $d
/var/folders/lx/hc4sn_b53233_zkc9xbbl97r0000gp/T//ccAkWgSN.s:352    .text.Os_TaskExit:0000000000000000 $t
/var/folders/lx/hc4sn_b53233_zkc9xbbl97r0000gp/T//ccAkWgSN.s:358    .text.Os_TaskExit:0000000000000000 Os_TaskExit
/var/folders/lx/hc4sn_b53233_zkc9xbbl97r0000gp/T//ccAkWgSN.s:375    .text.Os_Get_HighestRank_RdyTask:0000000000000000 $t
/var/folders/lx/hc4sn_b53233_zkc9xbbl97r0000gp/T//ccAkWgSN.s:381    .text.Os_Get_HighestRank_RdyTask:0000000000000000 Os_Get_HighestRank_RdyTask
/var/folders/lx/hc4sn_b53233_zkc9xbbl97r0000gp/T//ccAkWgSN.s:463    .text.Os_Get_HighestRank_RdyTask:0000000000000054 $d
/var/folders/lx/hc4sn_b53233_zkc9xbbl97r0000gp/T//ccAkWgSN.s:470    .text.Os_Get_HighestRank_PndTask:0000000000000000 $t
/var/folders/lx/hc4sn_b53233_zkc9xbbl97r0000gp/T//ccAkWgSN.s:476    .text.Os_Get_HighestRank_PndTask:0000000000000000 Os_Get_HighestRank_PndTask
/var/folders/lx/hc4sn_b53233_zkc9xbbl97r0000gp/T//ccAkWgSN.s:554    .text.Os_Get_HighestRank_PndTask:0000000000000054 $d
/var/folders/lx/hc4sn_b53233_zkc9xbbl97r0000gp/T//ccAkWgSN.s:561    .text.Os_TaskPri_Compare:0000000000000000 $t
/var/folders/lx/hc4sn_b53233_zkc9xbbl97r0000gp/T//ccAkWgSN.s:567    .text.Os_TaskPri_Compare:0000000000000000 Os_TaskPri_Compare
/var/folders/lx/hc4sn_b53233_zkc9xbbl97r0000gp/T//ccAkWgSN.s:874    .text.Os_ResetTask_Data:0000000000000000 $t
/var/folders/lx/hc4sn_b53233_zkc9xbbl97r0000gp/T//ccAkWgSN.s:880    .text.Os_ResetTask_Data:0000000000000000 Os_ResetTask_Data
/var/folders/lx/hc4sn_b53233_zkc9xbbl97r0000gp/T//ccAkWgSN.s:942    .text.Os_TaskCrtList_TraverseCallback:0000000000000000 $t
/var/folders/lx/hc4sn_b53233_zkc9xbbl97r0000gp/T//ccAkWgSN.s:948    .text.Os_TaskCrtList_TraverseCallback:0000000000000000 Os_TaskCrtList_TraverseCallback
/var/folders/lx/hc4sn_b53233_zkc9xbbl97r0000gp/T//ccAkWgSN.s:1024   .text.Os_TaskCrtList_TraverseCallback:000000000000003c $d
/var/folders/lx/hc4sn_b53233_zkc9xbbl97r0000gp/T//ccAkWgSN.s:1029   .text.Os_Idle:0000000000000000 $t
/var/folders/lx/hc4sn_b53233_zkc9xbbl97r0000gp/T//ccAkWgSN.s:1035   .text.Os_Idle:0000000000000000 Os_Idle
/var/folders/lx/hc4sn_b53233_zkc9xbbl97r0000gp/T//ccAkWgSN.s:1111   .text.Os_Idle:0000000000000054 $d
/var/folders/lx/hc4sn_b53233_zkc9xbbl97r0000gp/T//ccAkWgSN.s:1120   .text.Os_Set_TaskStk:0000000000000000 $t
/var/folders/lx/hc4sn_b53233_zkc9xbbl97r0000gp/T//ccAkWgSN.s:1126   .text.Os_Set_TaskStk:0000000000000000 Os_Set_TaskStk
/var/folders/lx/hc4sn_b53233_zkc9xbbl97r0000gp/T//ccAkWgSN.s:1215   .text.Os_Set_TaskStk:0000000000000050 $d
/var/folders/lx/hc4sn_b53233_zkc9xbbl97r0000gp/T//ccAkWgSN.s:2853   .text.Os_TaskCaller:0000000000000000 Os_TaskCaller
/var/folders/lx/hc4sn_b53233_zkc9xbbl97r0000gp/T//ccAkWgSN.s:1221   .rodata.Os_CreateIdle.str1.4:0000000000000000 $d
/var/folders/lx/hc4sn_b53233_zkc9xbbl97r0000gp/T//ccAkWgSN.s:1225   .text.Os_CreateIdle:0000000000000000 $t
/var/folders/lx/hc4sn_b53233_zkc9xbbl97r0000gp/T//ccAkWgSN.s:1231   .text.Os_CreateIdle:0000000000000000 Os_CreateIdle
/var/folders/lx/hc4sn_b53233_zkc9xbbl97r0000gp/T//ccAkWgSN.s:1310   .text.Os_CreateIdle:000000000000004c $d
/var/folders/lx/hc4sn_b53233_zkc9xbbl97r0000gp/T//ccAkWgSN.s:1319   .text.Os_TaskExec:0000000000000000 $t
/var/folders/lx/hc4sn_b53233_zkc9xbbl97r0000gp/T//ccAkWgSN.s:1325   .text.Os_TaskExec:0000000000000000 Os_TaskExec
/var/folders/lx/hc4sn_b53233_zkc9xbbl97r0000gp/T//ccAkWgSN.s:1597   .text.Os_TaskExec:0000000000000140 $d
/var/folders/lx/hc4sn_b53233_zkc9xbbl97r0000gp/T//ccAkWgSN.s:1604   .text.Os_LoadFirstTask:0000000000000000 $t
/var/folders/lx/hc4sn_b53233_zkc9xbbl97r0000gp/T//ccAkWgSN.s:1611   .text.Os_LoadFirstTask:0000000000000000 Os_LoadFirstTask
/var/folders/lx/hc4sn_b53233_zkc9xbbl97r0000gp/T//ccAkWgSN.s:3025   .bss.CurTsk_TCB:0000000000000000 CurTsk_TCB
/var/folders/lx/hc4sn_b53233_zkc9xbbl97r0000gp/T//ccAkWgSN.s:1670   .text.Os_SwitchContext:0000000000000000 $t
/var/folders/lx/hc4sn_b53233_zkc9xbbl97r0000gp/T//ccAkWgSN.s:1677   .text.Os_SwitchContext:0000000000000000 Os_SwitchContext
/var/folders/lx/hc4sn_b53233_zkc9xbbl97r0000gp/T//ccAkWgSN.s:1795   .text.Os_SwitchContext:000000000000005c CurrentTCBConst_Tmp
/var/folders/lx/hc4sn_b53233_zkc9xbbl97r0000gp/T//ccAkWgSN.s:1815   .text.Os_SwitchTaskStack:0000000000000000 Os_SwitchTaskStack
/var/folders/lx/hc4sn_b53233_zkc9xbbl97r0000gp/T//ccAkWgSN.s:1795   .text.Os_SwitchContext:000000000000005c $d
/var/folders/lx/hc4sn_b53233_zkc9xbbl97r0000gp/T//ccAkWgSN.s:1808   .text.Os_SwitchTaskStack:0000000000000000 $t
/var/folders/lx/hc4sn_b53233_zkc9xbbl97r0000gp/T//ccAkWgSN.s:1839   .text.Os_SwitchTaskStack:0000000000000018 $d
/var/folders/lx/hc4sn_b53233_zkc9xbbl97r0000gp/T//ccAkWgSN.s:1847   .text.Os_Init:0000000000000000 $t
/var/folders/lx/hc4sn_b53233_zkc9xbbl97r0000gp/T//ccAkWgSN.s:1854   .text.Os_Init:0000000000000000 Os_Init
ARM GAS  /var/folders/lx/hc4sn_b53233_zkc9xbbl97r0000gp/T//ccAkWgSN.s 			page 101


/var/folders/lx/hc4sn_b53233_zkc9xbbl97r0000gp/T//ccAkWgSN.s:1989   .text.Os_Init:0000000000000078 $d
/var/folders/lx/hc4sn_b53233_zkc9xbbl97r0000gp/T//ccAkWgSN.s:1998   .text.Os_State:0000000000000000 $t
/var/folders/lx/hc4sn_b53233_zkc9xbbl97r0000gp/T//ccAkWgSN.s:2005   .text.Os_State:0000000000000000 Os_State
/var/folders/lx/hc4sn_b53233_zkc9xbbl97r0000gp/T//ccAkWgSN.s:2021   .text.Os_State:0000000000000008 $d
/var/folders/lx/hc4sn_b53233_zkc9xbbl97r0000gp/T//ccAkWgSN.s:2026   .text.Os_Start:0000000000000000 $t
/var/folders/lx/hc4sn_b53233_zkc9xbbl97r0000gp/T//ccAkWgSN.s:2033   .text.Os_Start:0000000000000000 Os_Start
/var/folders/lx/hc4sn_b53233_zkc9xbbl97r0000gp/T//ccAkWgSN.s:2095   .text.Os_Start:0000000000000040 $d
/var/folders/lx/hc4sn_b53233_zkc9xbbl97r0000gp/T//ccAkWgSN.s:2632   .text.Os_SchedulerRun:0000000000000000 Os_SchedulerRun
/var/folders/lx/hc4sn_b53233_zkc9xbbl97r0000gp/T//ccAkWgSN.s:2104   .text.Os_Regist_IdleObj:0000000000000000 $t
/var/folders/lx/hc4sn_b53233_zkc9xbbl97r0000gp/T//ccAkWgSN.s:2111   .text.Os_Regist_IdleObj:0000000000000000 Os_Regist_IdleObj
/var/folders/lx/hc4sn_b53233_zkc9xbbl97r0000gp/T//ccAkWgSN.s:2194   .text.Os_Regist_IdleObj:0000000000000048 $d
/var/folders/lx/hc4sn_b53233_zkc9xbbl97r0000gp/T//ccAkWgSN.s:2200   .text.Os_Unregist_IdleObj:0000000000000000 $t
/var/folders/lx/hc4sn_b53233_zkc9xbbl97r0000gp/T//ccAkWgSN.s:2207   .text.Os_Unregist_IdleObj:0000000000000000 Os_Unregist_IdleObj
/var/folders/lx/hc4sn_b53233_zkc9xbbl97r0000gp/T//ccAkWgSN.s:2250   .text.Os_Unregist_IdleObj:000000000000001c $d
/var/folders/lx/hc4sn_b53233_zkc9xbbl97r0000gp/T//ccAkWgSN.s:2255   .text.Os_CreateTask:0000000000000000 $t
/var/folders/lx/hc4sn_b53233_zkc9xbbl97r0000gp/T//ccAkWgSN.s:2262   .text.Os_CreateTask:0000000000000000 Os_CreateTask
/var/folders/lx/hc4sn_b53233_zkc9xbbl97r0000gp/T//ccAkWgSN.s:2549   .text.Os_CreateTask:0000000000000168 $d
/var/folders/lx/hc4sn_b53233_zkc9xbbl97r0000gp/T//ccAkWgSN.s:2559   .text.Os_Set_TaskPending:0000000000000000 $t
/var/folders/lx/hc4sn_b53233_zkc9xbbl97r0000gp/T//ccAkWgSN.s:2566   .text.Os_Set_TaskPending:0000000000000000 Os_Set_TaskPending
/var/folders/lx/hc4sn_b53233_zkc9xbbl97r0000gp/T//ccAkWgSN.s:2621   .text.Os_Set_TaskPending:0000000000000038 $d
/var/folders/lx/hc4sn_b53233_zkc9xbbl97r0000gp/T//ccAkWgSN.s:2626   .text.Os_SchedulerRun:0000000000000000 $t
/var/folders/lx/hc4sn_b53233_zkc9xbbl97r0000gp/T//ccAkWgSN.s:2836   .text.Os_SchedulerRun:00000000000000c4 $d
/var/folders/lx/hc4sn_b53233_zkc9xbbl97r0000gp/T//ccAkWgSN.s:2847   .text.Os_TaskCaller:0000000000000000 $t
/var/folders/lx/hc4sn_b53233_zkc9xbbl97r0000gp/T//ccAkWgSN.s:2902   .text.Os_TaskCaller:000000000000002c $d
/var/folders/lx/hc4sn_b53233_zkc9xbbl97r0000gp/T//ccAkWgSN.s:2909   .text.Os_TaskDelay_Ms:0000000000000000 $t
/var/folders/lx/hc4sn_b53233_zkc9xbbl97r0000gp/T//ccAkWgSN.s:2916   .text.Os_TaskDelay_Ms:0000000000000000 Os_TaskDelay_Ms
/var/folders/lx/hc4sn_b53233_zkc9xbbl97r0000gp/T//ccAkWgSN.s:3007   .text.Os_TaskDelay_Ms:000000000000005c $d
/var/folders/lx/hc4sn_b53233_zkc9xbbl97r0000gp/T//ccAkWgSN.s:3014   .bss.CurRunTsk_Ptr:0000000000000000 $d
/var/folders/lx/hc4sn_b53233_zkc9xbbl97r0000gp/T//ccAkWgSN.s:3018   .bss.CurRunTsk_Ptr:0000000000000000 CurRunTsk_Ptr
/var/folders/lx/hc4sn_b53233_zkc9xbbl97r0000gp/T//ccAkWgSN.s:3021   .bss.CurTsk_TCB:0000000000000000 $d
/var/folders/lx/hc4sn_b53233_zkc9xbbl97r0000gp/T//ccAkWgSN.s:3028   .bss.Idle_List:0000000000000000 $d
/var/folders/lx/hc4sn_b53233_zkc9xbbl97r0000gp/T//ccAkWgSN.s:3032   .bss.Idle_List:0000000000000000 Idle_List
/var/folders/lx/hc4sn_b53233_zkc9xbbl97r0000gp/T//ccAkWgSN.s:3035   .bss.Idle_Task:0000000000000000 $d
/var/folders/lx/hc4sn_b53233_zkc9xbbl97r0000gp/T//ccAkWgSN.s:3039   .bss.Idle_Task:0000000000000000 Idle_Task
/var/folders/lx/hc4sn_b53233_zkc9xbbl97r0000gp/T//ccAkWgSN.s:3042   .bss.NxtRunTsk_Ptr:0000000000000000 $d
/var/folders/lx/hc4sn_b53233_zkc9xbbl97r0000gp/T//ccAkWgSN.s:3046   .bss.NxtRunTsk_Ptr:0000000000000000 NxtRunTsk_Ptr
/var/folders/lx/hc4sn_b53233_zkc9xbbl97r0000gp/T//ccAkWgSN.s:3049   .bss.NxtTsk_TCB:0000000000000000 $d
/var/folders/lx/hc4sn_b53233_zkc9xbbl97r0000gp/T//ccAkWgSN.s:3053   .bss.NxtTsk_TCB:0000000000000000 NxtTsk_TCB
/var/folders/lx/hc4sn_b53233_zkc9xbbl97r0000gp/T//ccAkWgSN.s:3056   .bss.TaskPtr_Map:0000000000000000 $d
/var/folders/lx/hc4sn_b53233_zkc9xbbl97r0000gp/T//ccAkWgSN.s:3060   .bss.TaskPtr_Map:0000000000000000 TaskPtr_Map
/var/folders/lx/hc4sn_b53233_zkc9xbbl97r0000gp/T//ccAkWgSN.s:3063   .bss.TskCrt_RegList:0000000000000000 $d
/var/folders/lx/hc4sn_b53233_zkc9xbbl97r0000gp/T//ccAkWgSN.s:3067   .bss.TskCrt_RegList:0000000000000000 TskCrt_RegList
/var/folders/lx/hc4sn_b53233_zkc9xbbl97r0000gp/T//ccAkWgSN.s:3070   .bss.TskHdl_BlkMap:0000000000000000 $d
/var/folders/lx/hc4sn_b53233_zkc9xbbl97r0000gp/T//ccAkWgSN.s:3074   .bss.TskHdl_BlkMap:0000000000000000 TskHdl_BlkMap
/var/folders/lx/hc4sn_b53233_zkc9xbbl97r0000gp/T//ccAkWgSN.s:3077   .bss.TskHdl_PndMap:0000000000000000 $d
/var/folders/lx/hc4sn_b53233_zkc9xbbl97r0000gp/T//ccAkWgSN.s:3081   .bss.TskHdl_PndMap:0000000000000000 TskHdl_PndMap
/var/folders/lx/hc4sn_b53233_zkc9xbbl97r0000gp/T//ccAkWgSN.s:3084   .bss.TskHdl_RdyMap:0000000000000000 $d
/var/folders/lx/hc4sn_b53233_zkc9xbbl97r0000gp/T//ccAkWgSN.s:3088   .bss.TskHdl_RdyMap:0000000000000000 TskHdl_RdyMap
/var/folders/lx/hc4sn_b53233_zkc9xbbl97r0000gp/T//ccAkWgSN.s:3091   .bss.TskRdy_RegList:0000000000000000 $d
/var/folders/lx/hc4sn_b53233_zkc9xbbl97r0000gp/T//ccAkWgSN.s:3094   .bss.TskRdy_RegList:0000000000000000 TskRdy_RegList
/var/folders/lx/hc4sn_b53233_zkc9xbbl97r0000gp/T//ccAkWgSN.s:3097   .bss.idle_cnt.0:0000000000000000 $d
/var/folders/lx/hc4sn_b53233_zkc9xbbl97r0000gp/T//ccAkWgSN.s:3101   .bss.idle_cnt.0:0000000000000000 idle_cnt.0
/var/folders/lx/hc4sn_b53233_zkc9xbbl97r0000gp/T//ccAkWgSN.s:3107   .bss.scheduler_state:0000000000000000 scheduler_state
/var/folders/lx/hc4sn_b53233_zkc9xbbl97r0000gp/T//ccAkWgSN.s:3108   .bss.scheduler_state:0000000000000000 $d
/var/folders/lx/hc4sn_b53233_zkc9xbbl97r0000gp/T//ccAkWgSN.s:3110   .rodata.Task_Priority_List:0000000000000000 $d
/var/folders/lx/hc4sn_b53233_zkc9xbbl97r0000gp/T//ccAkWgSN.s:3114   .rodata.Task_Priority_List:0000000000000000 Task_Priority_List
/var/folders/lx/hc4sn_b53233_zkc9xbbl97r0000gp/T//ccAkWgSN.s:8932   .text.Os_LoadFirstTask:0000000000000020 $d
ARM GAS  /var/folders/lx/hc4sn_b53233_zkc9xbbl97r0000gp/T//ccAkWgSN.s 			page 102



UNDEFINED SYMBOLS
RuntimeObj_Reset
RuntimeObj_CompareWithCurrent
Get_CurrentRunningUs
List_traverse
memset
MMU_Malloc
__aeabi_ul2f
Get_TimeDifference_Between
Get_TargetRunTime
Get_CurrentRunningS
Kernel_Init
Runtime_Config
Kernel_EnablePendSV
Runtime_SetCallback
Kernel_LoadProcess
List_ItemInit
List_Insert_Item
List_Init
List_Delete_Item
Kernel_TriggerPendSV
