ARM GAS  /var/folders/lx/hc4sn_b53233_zkc9xbbl97r0000gp/T//ccIYrKnn.s 			page 1


   1              		.cpu cortex-m7
   2              		.eabi_attribute 28, 1
   3              		.eabi_attribute 20, 1
   4              		.eabi_attribute 21, 1
   5              		.eabi_attribute 23, 3
   6              		.eabi_attribute 24, 1
   7              		.eabi_attribute 25, 1
   8              		.eabi_attribute 26, 1
   9              		.eabi_attribute 30, 1
  10              		.eabi_attribute 34, 1
  11              		.eabi_attribute 18, 4
  12              		.file	"shell_port.c"
  13              		.text
  14              	.Ltext0:
  15              		.cfi_sections	.debug_frame
  16              		.section	.text.Shell_Printf,"ax",%progbits
  17              		.align	1
  18              		.global	Shell_Printf
  19              		.arch armv7e-m
  20              		.syntax unified
  21              		.thumb
  22              		.thumb_func
  23              		.fpu fpv5-d16
  25              	Shell_Printf:
  26              	.LVL0:
  27              	.LFB3:
  28              		.file 1 "System/shell/shell_port.c"
   1:System/shell/shell_port.c **** #include "shell.h"
   2:System/shell/shell_port.c **** #include <stdio.h>
   3:System/shell/shell_port.c **** #include <stdarg.h>
   4:System/shell/shell_port.c **** #include "shell_port.h"
   5:System/shell/shell_port.c **** 
   6:System/shell/shell_port.c **** #define SHELL_BUFF_SIZE 512
   7:System/shell/shell_port.c **** 
   8:System/shell/shell_port.c **** static Shell shell;
   9:System/shell/shell_port.c **** static char shell_buff[SHELL_BUFF_SIZE];
  10:System/shell/shell_port.c **** 
  11:System/shell/shell_port.c **** /*can print the characters to the terminal with this function */
  12:System/shell/shell_port.c **** void Shell_Printf(const int *ch, ...)
  13:System/shell/shell_port.c **** {
  29              		.loc 1 13 1 view -0
  30              		.cfi_startproc
  31              		@ args = 4, pretend = 16, frame = 0
  32              		@ frame_needed = 0, uses_anonymous_args = 1
  33              		.loc 1 13 1 is_stmt 0 view .LVU1
  34 0000 0FB4     		push	{r0, r1, r2, r3}
  35              	.LCFI0:
  36              		.cfi_def_cfa_offset 16
  37              		.cfi_offset 0, -16
  38              		.cfi_offset 1, -12
  39              		.cfi_offset 2, -8
  40              		.cfi_offset 3, -4
  41 0002 08B5     		push	{r3, lr}
  42              	.LCFI1:
  43              		.cfi_def_cfa_offset 24
  44              		.cfi_offset 3, -24
  45              		.cfi_offset 14, -20
ARM GAS  /var/folders/lx/hc4sn_b53233_zkc9xbbl97r0000gp/T//ccIYrKnn.s 			page 2


  14:System/shell/shell_port.c **** 	shellWriteString(&shell, ch);
  46              		.loc 1 14 2 is_stmt 1 view .LVU2
  47 0004 0299     		ldr	r1, [sp, #8]
  48 0006 0348     		ldr	r0, .L3
  49 0008 FFF7FEFF 		bl	shellWriteString
  50              	.LVL1:
  15:System/shell/shell_port.c **** }
  51              		.loc 1 15 1 is_stmt 0 view .LVU3
  52 000c BDE80840 		pop	{r3, lr}
  53              	.LCFI2:
  54              		.cfi_restore 14
  55              		.cfi_restore 3
  56              		.cfi_def_cfa_offset 16
  57 0010 04B0     		add	sp, sp, #16
  58              	.LCFI3:
  59              		.cfi_restore 3
  60              		.cfi_restore 2
  61              		.cfi_restore 1
  62              		.cfi_restore 0
  63              		.cfi_def_cfa_offset 0
  64 0012 7047     		bx	lr
  65              	.L4:
  66              		.align	2
  67              	.L3:
  68 0014 00000000 		.word	.LANCHOR0
  69              		.cfi_endproc
  70              	.LFE3:
  72              		.section	.text.Shell_Init,"ax",%progbits
  73              		.align	1
  74              		.global	Shell_Init
  75              		.syntax unified
  76              		.thumb
  77              		.thumb_func
  78              		.fpu fpv5-d16
  80              	Shell_Init:
  81              	.LVL2:
  82              	.LFB5:
  16:System/shell/shell_port.c **** 
  17:System/shell/shell_port.c **** static void bt_printf(const char *fmt, ...)
  18:System/shell/shell_port.c **** {
  19:System/shell/shell_port.c **** 	va_list args;
  20:System/shell/shell_port.c **** 	static char *bt_log_buf;
  21:System/shell/shell_port.c **** 	int i = 0;
  22:System/shell/shell_port.c **** 	int x = 0;
  23:System/shell/shell_port.c **** 	va_start(args, fmt);
  24:System/shell/shell_port.c **** 
  25:System/shell/shell_port.c **** 	vsnprintf(bt_log_buf, strlen(bt_log_buf) - 1, fmt, args);
  26:System/shell/shell_port.c **** 	Shell_Printf(bt_log_buf);
  27:System/shell/shell_port.c **** 	va_end(args);
  28:System/shell/shell_port.c **** }
  29:System/shell/shell_port.c **** 
  30:System/shell/shell_port.c **** void Shell_Init(Shell_Write_Callback callback)
  31:System/shell/shell_port.c **** {
  83              		.loc 1 31 1 is_stmt 1 view -0
  84              		.cfi_startproc
  85              		@ args = 0, pretend = 0, frame = 0
  86              		@ frame_needed = 0, uses_anonymous_args = 0
ARM GAS  /var/folders/lx/hc4sn_b53233_zkc9xbbl97r0000gp/T//ccIYrKnn.s 			page 3


  87              		.loc 1 31 1 is_stmt 0 view .LVU5
  88 0000 08B5     		push	{r3, lr}
  89              	.LCFI4:
  90              		.cfi_def_cfa_offset 8
  91              		.cfi_offset 3, -8
  92              		.cfi_offset 14, -4
  32:System/shell/shell_port.c **** 	shell.write = callback;
  93              		.loc 1 32 2 is_stmt 1 view .LVU6
  94              		.loc 1 32 14 is_stmt 0 view .LVU7
  95 0002 044B     		ldr	r3, .L7
  96 0004 9866     		str	r0, [r3, #104]
  33:System/shell/shell_port.c **** 	shellInit(&shell, shell_buff, sizeof(shell_buff));
  97              		.loc 1 33 2 is_stmt 1 view .LVU8
  98 0006 4FF40072 		mov	r2, #512
  99 000a 0349     		ldr	r1, .L7+4
 100 000c 1846     		mov	r0, r3
 101              	.LVL3:
 102              		.loc 1 33 2 is_stmt 0 view .LVU9
 103 000e FFF7FEFF 		bl	shellInit
 104              	.LVL4:
  34:System/shell/shell_port.c **** }
 105              		.loc 1 34 1 view .LVU10
 106 0012 08BD     		pop	{r3, pc}
 107              	.L8:
 108              		.align	2
 109              	.L7:
 110 0014 00000000 		.word	.LANCHOR0
 111 0018 00000000 		.word	.LANCHOR1
 112              		.cfi_endproc
 113              	.LFE5:
 115              		.section	.text.Shell_GetInstence,"ax",%progbits
 116              		.align	1
 117              		.global	Shell_GetInstence
 118              		.syntax unified
 119              		.thumb
 120              		.thumb_func
 121              		.fpu fpv5-d16
 123              	Shell_GetInstence:
 124              	.LFB6:
  35:System/shell/shell_port.c **** 
  36:System/shell/shell_port.c **** Shell *Shell_GetInstence(void)
  37:System/shell/shell_port.c **** {
 125              		.loc 1 37 1 is_stmt 1 view -0
 126              		.cfi_startproc
 127              		@ args = 0, pretend = 0, frame = 0
 128              		@ frame_needed = 0, uses_anonymous_args = 0
 129              		@ link register save eliminated.
  38:System/shell/shell_port.c **** 	return &shell;
 130              		.loc 1 38 2 view .LVU12
  39:System/shell/shell_port.c **** }...
 131              		.loc 1 39 1 is_stmt 0 view .LVU13
 132 0000 0048     		ldr	r0, .L10
 133 0002 7047     		bx	lr
 134              	.L11:
 135              		.align	2
 136              	.L10:
 137 0004 00000000 		.word	.LANCHOR0
ARM GAS  /var/folders/lx/hc4sn_b53233_zkc9xbbl97r0000gp/T//ccIYrKnn.s 			page 4


 138              		.cfi_endproc
 139              	.LFE6:
 141              		.section	.bss.shell,"aw",%nobits
 142              		.align	2
 143              		.set	.LANCHOR0,. + 0
 146              	shell:
 147 0000 00000000 		.space	108
 147      00000000 
 147      00000000 
 147      00000000 
 147      00000000 
 148              		.section	.bss.shell_buff,"aw",%nobits
 149              		.align	2
 150              		.set	.LANCHOR1,. + 0
 153              	shell_buff:
 154 0000 00000000 		.space	512
 154      00000000 
 154      00000000 
 154      00000000 
 154      00000000 
 155              		.text
 156              	.Letext0:
 157              		.file 2 "/usr/local/arm-none-eabi-gcc/gcc-arm-none-eabi-10-2020-q4-major/arm-none-eabi/include/mac
 158              		.file 3 "/usr/local/arm-none-eabi-gcc/gcc-arm-none-eabi-10-2020-q4-major/arm-none-eabi/include/sys
 159              		.file 4 "System/shell/shell.h"
 160              		.file 5 "System/shell/shell_port.h"
ARM GAS  /var/folders/lx/hc4sn_b53233_zkc9xbbl97r0000gp/T//ccIYrKnn.s 			page 5

