ARM GAS  C:\Users\HUAV\AppData\Local\Temp\ccSSjzP1.s 			page 1


   1              		.cpu cortex-m7
   2              		.eabi_attribute 28, 1
   3              		.eabi_attribute 20, 1
   4              		.eabi_attribute 21, 1
   5              		.eabi_attribute 23, 3
   6              		.eabi_attribute 24, 1
   7              		.eabi_attribute 25, 1
   8              		.eabi_attribute 26, 1
   9              		.eabi_attribute 30, 1
  10              		.eabi_attribute 34, 1
  11              		.eabi_attribute 18, 4
  12              		.file	"shell.c"
  13              		.text
  14              	.Ltext0:
  15              		.cfi_sections	.debug_frame
  16              		.section	.text.shellAdd,"ax",%progbits
  17              		.align	1
  18              		.arch armv7e-m
  19              		.syntax unified
  20              		.thumb
  21              		.thumb_func
  22              		.fpu fpv5-d16
  24              	shellAdd:
  25              	.LVL0:
  26              	.LFB4:
  27              		.file 1 "System/shell/shell.c"
   1:System/shell/shell.c **** /**
   2:System/shell/shell.c ****  * @file shell.c
   3:System/shell/shell.c ****  * @author Letter (NevermindZZT@gmail.com)
   4:System/shell/shell.c ****  * @version 3.0.0
   5:System/shell/shell.c ****  * @date 2019-12-30
   6:System/shell/shell.c ****  *
   7:System/shell/shell.c ****  * @copyright (c) 2020 Letter
   8:System/shell/shell.c ****  *
   9:System/shell/shell.c ****  */
  10:System/shell/shell.c **** 
  11:System/shell/shell.c **** #include "shell.h"
  12:System/shell/shell.c **** #include "string.h"
  13:System/shell/shell.c **** #include "stdio.h"
  14:System/shell/shell.c **** #include "stdarg.h"
  15:System/shell/shell.c **** #include "shell_ext.h"
  16:System/shell/shell.c **** 
  17:System/shell/shell.c **** #if SHELL_USING_CMD_EXPORT == 1
  18:System/shell/shell.c **** /**
  19:System/shell/shell.c ****  * @brief 默认用户
  20:System/shell/shell.c ****  */
  21:System/shell/shell.c **** const char shellCmdDefaultUser[] = SHELL_DEFAULT_USER;
  22:System/shell/shell.c **** const char shellPasswordDefaultUser[] = SHELL_DEFAULT_USER_PASSWORD;
  23:System/shell/shell.c **** const char shellDesDefaultUser[] = "default user";
  24:System/shell/shell.c **** const ShellCommand shellUserDefault SECTION("shellCommand") =
  25:System/shell/shell.c ****     {
  26:System/shell/shell.c ****         .attr.value = SHELL_CMD_PERMISSION(0) | SHELL_CMD_TYPE(SHELL_TYPE_USER),
  27:System/shell/shell.c ****         .data.user.name = shellCmdDefaultUser,
  28:System/shell/shell.c ****         .data.user.password = shellPasswordDefaultUser,
  29:System/shell/shell.c ****         .data.user.desc = shellDesDefaultUser};
  30:System/shell/shell.c **** #endif
  31:System/shell/shell.c **** 
ARM GAS  C:\Users\HUAV\AppData\Local\Temp\ccSSjzP1.s 			page 2


  32:System/shell/shell.c **** #if SHELL_USING_CMD_EXPORT == 1
  33:System/shell/shell.c **** #if defined(__CC_ARM) || (defined(__ARMCC_VERSION) && __ARMCC_VERSION >= 6000000)
  34:System/shell/shell.c **** extern const unsigned int shellCommand$$Base;
  35:System/shell/shell.c **** extern const unsigned int shellCommand$$Limit;
  36:System/shell/shell.c **** #elif defined(__ICCARM__) || defined(__ICCRX__)
  37:System/shell/shell.c **** #pragma section = "shellCommand"
  38:System/shell/shell.c **** #elif defined(__GNUC__)
  39:System/shell/shell.c **** extern const unsigned int _shell_command_start;
  40:System/shell/shell.c **** extern const unsigned int _shell_command_end;
  41:System/shell/shell.c **** #endif
  42:System/shell/shell.c **** #else
  43:System/shell/shell.c **** extern const ShellCommand shellCommandList[];
  44:System/shell/shell.c **** extern const unsigned short shellCommandCount;
  45:System/shell/shell.c **** #endif
  46:System/shell/shell.c **** 
  47:System/shell/shell.c **** /**
  48:System/shell/shell.c ****  * @brief shell 常量文本索引
  49:System/shell/shell.c ****  */
  50:System/shell/shell.c **** enum
  51:System/shell/shell.c **** {
  52:System/shell/shell.c **** #if SHELL_SHOW_INFO == 1
  53:System/shell/shell.c ****     SHELL_TEXT_INFO, /**< shell信息 */
  54:System/shell/shell.c **** #endif
  55:System/shell/shell.c ****     SHELL_TEXT_CMD_TOO_LONG,                /**< 命令过长 */
  56:System/shell/shell.c ****     SHELL_TEXT_CMD_LIST,                    /**< 可执行命令列表标题 */
  57:System/shell/shell.c ****     SHELL_TEXT_VAR_LIST,                    /**< 变量列表标题 */
  58:System/shell/shell.c ****     SHELL_TEXT_USER_LIST,                   /**< 用户列表标题 */
  59:System/shell/shell.c ****     SHELL_TEXT_KEY_LIST,                    /**< 按键列表标题 */
  60:System/shell/shell.c ****     SHELL_TEXT_CMD_NOT_FOUND,               /**< 命令未找到 */
  61:System/shell/shell.c ****     SHELL_TEXT_POINT_CANNOT_MODIFY,         /**< 指针变量不允许修改 */
  62:System/shell/shell.c ****     SHELL_TEXT_VAR_READ_ONLY_CANNOT_MODIFY, /**< 只读变量不允许修改 */
  63:System/shell/shell.c ****     SHELL_TEXT_NOT_VAR,                     /**< 命令不是变量 */
  64:System/shell/shell.c ****     SHELL_TEXT_VAR_NOT_FOUND,               /**< 变量未找到 */
  65:System/shell/shell.c ****     SHELL_TEXT_HELP_HEADER,                 /**< help头 */
  66:System/shell/shell.c ****     SHELL_TEXT_PASSWORD_HINT,               /**< 密码输入提示 */
  67:System/shell/shell.c ****     SHELL_TEXT_PASSWORD_ERROR,              /**< 密码错误 */
  68:System/shell/shell.c ****     SHELL_TEXT_CLEAR_CONSOLE,               /**< 清空控制台 */
  69:System/shell/shell.c ****     SHELL_TEXT_CLEAR_LINE,                  /**< 清空当前行 */
  70:System/shell/shell.c ****     SHELL_TEXT_TYPE_CMD,                    /**< 命令类型 */
  71:System/shell/shell.c ****     SHELL_TEXT_TYPE_VAR,                    /**< 变量类型 */
  72:System/shell/shell.c ****     SHELL_TEXT_TYPE_USER,                   /**< 用户类型 */
  73:System/shell/shell.c ****     SHELL_TEXT_TYPE_KEY,                    /**< 按键类型 */
  74:System/shell/shell.c ****     SHELL_TEXT_TYPE_NONE,                   /**< 非法类型 */
  75:System/shell/shell.c **** #if SHELL_EXEC_UNDEF_FUNC == 1
  76:System/shell/shell.c ****     SHELL_TEXT_PARAM_ERROR, /**< 参数错误 */
  77:System/shell/shell.c **** #endif
  78:System/shell/shell.c **** };
  79:System/shell/shell.c **** 
  80:System/shell/shell.c **** static const char *shellText[] =
  81:System/shell/shell.c ****     {
  82:System/shell/shell.c **** #if SHELL_SHOW_INFO == 1
  83:System/shell/shell.c ****         [SHELL_TEXT_INFO] =
  84:System/shell/shell.c ****             "\r\n\r\n"
  85:System/shell/shell.c ****             "/************  BitRtos  ************\\r\n\r\n"
  86:System/shell/shell.c ****             "Team Mate:        8_B!T0\r\n"
  87:System/shell/shell.c ****             "                  WHY\r\n"
  88:System/shell/shell.c ****             "\r\n"
ARM GAS  C:\Users\HUAV\AppData\Local\Temp\ccSSjzP1.s 			page 3


  89:System/shell/shell.c ****             "Build:            "__DATE__
  90:System/shell/shell.c ****             " "__TIME__
  91:System/shell/shell.c ****             "\r\n"
  92:System/shell/shell.c ****             "Shell   Version:  " SHELL_VERSION "\r\n",
  93:System/shell/shell.c **** #endif
  94:System/shell/shell.c ****         [SHELL_TEXT_CMD_TOO_LONG] =
  95:System/shell/shell.c ****             "\r\nWarning: Command is too long\r\n",
  96:System/shell/shell.c ****         [SHELL_TEXT_CMD_LIST] =
  97:System/shell/shell.c ****             "\r\nCommand List:\r\n",
  98:System/shell/shell.c ****         [SHELL_TEXT_VAR_LIST] =
  99:System/shell/shell.c ****             "\r\nVar List:\r\n",
 100:System/shell/shell.c ****         [SHELL_TEXT_USER_LIST] =
 101:System/shell/shell.c ****             "\r\nUser List:\r\n",
 102:System/shell/shell.c ****         [SHELL_TEXT_KEY_LIST] =
 103:System/shell/shell.c ****             "\r\nKey List:\r\n",
 104:System/shell/shell.c ****         [SHELL_TEXT_CMD_NOT_FOUND] =
 105:System/shell/shell.c ****             "Command not Found\r\n",
 106:System/shell/shell.c ****         [SHELL_TEXT_POINT_CANNOT_MODIFY] =
 107:System/shell/shell.c ****             "can't set pointer\r\n",
 108:System/shell/shell.c ****         [SHELL_TEXT_VAR_READ_ONLY_CANNOT_MODIFY] =
 109:System/shell/shell.c ****             "can't set read only var\r\n",
 110:System/shell/shell.c ****         [SHELL_TEXT_NOT_VAR] =
 111:System/shell/shell.c ****             " is not a var\r\n",
 112:System/shell/shell.c ****         [SHELL_TEXT_VAR_NOT_FOUND] =
 113:System/shell/shell.c ****             "Var not Fount\r\n",
 114:System/shell/shell.c ****         [SHELL_TEXT_HELP_HEADER] =
 115:System/shell/shell.c ****             "command help of ",
 116:System/shell/shell.c ****         [SHELL_TEXT_PASSWORD_HINT] =
 117:System/shell/shell.c ****             "\r\nPlease input password:",
 118:System/shell/shell.c ****         [SHELL_TEXT_PASSWORD_ERROR] =
 119:System/shell/shell.c ****             "\r\npassword error\r\n",
 120:System/shell/shell.c ****         [SHELL_TEXT_CLEAR_CONSOLE] =
 121:System/shell/shell.c ****             "\033[2J\033[1H",
 122:System/shell/shell.c ****         [SHELL_TEXT_CLEAR_LINE] =
 123:System/shell/shell.c ****             "\033[2K\r",
 124:System/shell/shell.c ****         [SHELL_TEXT_TYPE_CMD] =
 125:System/shell/shell.c ****             "CMD \r\n",
 126:System/shell/shell.c ****         [SHELL_TEXT_TYPE_VAR] =
 127:System/shell/shell.c ****             "VAR",
 128:System/shell/shell.c ****         [SHELL_TEXT_TYPE_USER] =
 129:System/shell/shell.c ****             "USER",
 130:System/shell/shell.c ****         [SHELL_TEXT_TYPE_KEY] =
 131:System/shell/shell.c ****             "KEY",
 132:System/shell/shell.c ****         [SHELL_TEXT_TYPE_NONE] =
 133:System/shell/shell.c ****             "NONE",
 134:System/shell/shell.c **** #if SHELL_EXEC_UNDEF_FUNC == 1
 135:System/shell/shell.c ****         [SHELL_TEXT_PARAM_ERROR] =
 136:System/shell/shell.c ****             "Parameter error\r\n",
 137:System/shell/shell.c **** #endif
 138:System/shell/shell.c **** };
 139:System/shell/shell.c **** 
 140:System/shell/shell.c **** /**
 141:System/shell/shell.c ****  * @brief shell对象表
 142:System/shell/shell.c ****  */
 143:System/shell/shell.c **** static Shell *shellList[SHELL_MAX_NUMBER] = {NULL};
 144:System/shell/shell.c **** 
 145:System/shell/shell.c **** static void shellAdd(Shell *shell);
ARM GAS  C:\Users\HUAV\AppData\Local\Temp\ccSSjzP1.s 			page 4


 146:System/shell/shell.c **** static void shellWriteCommandLine(Shell *shell, unsigned char newline);
 147:System/shell/shell.c **** static void shellWriteReturnValue(Shell *shell, int value);
 148:System/shell/shell.c **** static int shellShowVar(Shell *shell, ShellCommand *command);
 149:System/shell/shell.c **** static void shellSetUser(Shell *shell, const ShellCommand *user);
 150:System/shell/shell.c **** ShellCommand *shellSeekCommand(Shell *shell,
 151:System/shell/shell.c ****                                const char *cmd,
 152:System/shell/shell.c ****                                ShellCommand *base,
 153:System/shell/shell.c ****                                unsigned short compareLength);
 154:System/shell/shell.c **** 
 155:System/shell/shell.c **** /**
 156:System/shell/shell.c ****  * @brief shell 初始化
 157:System/shell/shell.c ****  *
 158:System/shell/shell.c ****  * @param shell shell对象
 159:System/shell/shell.c ****  */
 160:System/shell/shell.c **** void shellInit(Shell *shell, char *buffer, unsigned short size)
 161:System/shell/shell.c **** {
 162:System/shell/shell.c ****     shell->parser.length = 0;
 163:System/shell/shell.c ****     shell->parser.cursor = 0;
 164:System/shell/shell.c ****     shell->history.offset = 0;
 165:System/shell/shell.c ****     shell->history.number = 0;
 166:System/shell/shell.c ****     shell->history.record = 0;
 167:System/shell/shell.c ****     shell->info.user = NULL;
 168:System/shell/shell.c ****     shell->status.isChecked = 1;
 169:System/shell/shell.c **** 
 170:System/shell/shell.c ****     shell->parser.buffer = buffer;
 171:System/shell/shell.c ****     shell->parser.bufferSize = size / (SHELL_HISTORY_MAX_NUMBER + 1);
 172:System/shell/shell.c ****     for (short i = 0; i < SHELL_HISTORY_MAX_NUMBER; i++)
 173:System/shell/shell.c ****     {
 174:System/shell/shell.c ****         shell->history.item[i] = buffer + shell->parser.bufferSize * (i + 1);
 175:System/shell/shell.c ****     }
 176:System/shell/shell.c **** 
 177:System/shell/shell.c **** #if SHELL_USING_CMD_EXPORT == 1
 178:System/shell/shell.c **** #if defined(__CC_ARM) || (defined(__ARMCC_VERSION) && __ARMCC_VERSION >= 6000000)
 179:System/shell/shell.c ****     shell->commandList.base = (ShellCommand *)(&shellCommand$$Base);
 180:System/shell/shell.c ****     shell->commandList.count = ((unsigned int)(&shellCommand$$Limit) - (unsigned int)(&shellCommand
 181:System/shell/shell.c **** 
 182:System/shell/shell.c **** #elif defined(__ICCARM__) || defined(__ICCRX__)
 183:System/shell/shell.c ****     shell->commandList.base = (ShellCommand *)(__section_begin("shellCommand"));
 184:System/shell/shell.c ****     shell->commandList.count = ((unsigned int)(__section_end("shellCommand")) - (unsigned int)(__se
 185:System/shell/shell.c **** #elif defined(__GNUC__)
 186:System/shell/shell.c ****     shell->commandList.base = (ShellCommand *)(&_shell_command_start);
 187:System/shell/shell.c ****     shell->commandList.count = ((unsigned int)(&_shell_command_end) - (unsigned int)(&_shell_comman
 188:System/shell/shell.c **** #else
 189:System/shell/shell.c **** #error not supported compiler, please use command table mode
 190:System/shell/shell.c **** #endif
 191:System/shell/shell.c **** #else
 192:System/shell/shell.c ****     shell->commandList.base = (ShellCommand *)shellCommandList;
 193:System/shell/shell.c ****     shell->commandList.count = shellCommandCount;
 194:System/shell/shell.c **** #endif
 195:System/shell/shell.c **** 
 196:System/shell/shell.c ****     shellAdd(shell);
 197:System/shell/shell.c **** 
 198:System/shell/shell.c ****     shellSetUser(shell, shellSeekCommand(shell,
 199:System/shell/shell.c ****                                          SHELL_DEFAULT_USER,
 200:System/shell/shell.c ****                                          shell->commandList.base,
 201:System/shell/shell.c ****                                          0));
 202:System/shell/shell.c ****     shellWriteCommandLine(shell, 1);
ARM GAS  C:\Users\HUAV\AppData\Local\Temp\ccSSjzP1.s 			page 5


 203:System/shell/shell.c **** }
 204:System/shell/shell.c **** 
 205:System/shell/shell.c **** /**
 206:System/shell/shell.c ****  * @brief 添加shell
 207:System/shell/shell.c ****  *
 208:System/shell/shell.c ****  * @param shell shell对象
 209:System/shell/shell.c ****  */
 210:System/shell/shell.c **** static void shellAdd(Shell *shell)
 211:System/shell/shell.c **** {
  28              		.loc 1 211 1 view -0
  29              		.cfi_startproc
  30              		@ args = 0, pretend = 0, frame = 0
  31              		@ frame_needed = 0, uses_anonymous_args = 0
  32              		@ link register save eliminated.
 212:System/shell/shell.c ****     for (short i = 0; i < SHELL_MAX_NUMBER; i++)
  33              		.loc 1 212 5 view .LVU1
  34              	.LBB2:
  35              		.loc 1 212 10 view .LVU2
  36              		.loc 1 212 16 is_stmt 0 view .LVU3
  37 0000 0023     		movs	r3, #0
  38              	.LVL1:
  39              	.L2:
  40              		.loc 1 212 23 is_stmt 1 discriminator 1 view .LVU4
  41              		.loc 1 212 5 is_stmt 0 discriminator 1 view .LVU5
  42 0002 042B     		cmp	r3, #4
  43 0004 0BDC     		bgt	.L6
 213:System/shell/shell.c ****     {
 214:System/shell/shell.c ****         if (shellList[i] == NULL)
  44              		.loc 1 214 9 is_stmt 1 view .LVU6
  45              		.loc 1 214 22 is_stmt 0 view .LVU7
  46 0006 1946     		mov	r1, r3
  47 0008 054A     		ldr	r2, .L8
  48 000a 52F82320 		ldr	r2, [r2, r3, lsl #2]
  49              		.loc 1 214 12 view .LVU8
  50 000e 12B1     		cbz	r2, .L7
 212:System/shell/shell.c ****     for (short i = 0; i < SHELL_MAX_NUMBER; i++)
  51              		.loc 1 212 45 is_stmt 1 discriminator 2 view .LVU9
 212:System/shell/shell.c ****     for (short i = 0; i < SHELL_MAX_NUMBER; i++)
  52              		.loc 1 212 46 is_stmt 0 discriminator 2 view .LVU10
  53 0010 0133     		adds	r3, r3, #1
  54              	.LVL2:
 212:System/shell/shell.c ****     for (short i = 0; i < SHELL_MAX_NUMBER; i++)
  55              		.loc 1 212 46 discriminator 2 view .LVU11
  56 0012 1BB2     		sxth	r3, r3
  57              	.LVL3:
 212:System/shell/shell.c ****     for (short i = 0; i < SHELL_MAX_NUMBER; i++)
  58              		.loc 1 212 46 discriminator 2 view .LVU12
  59 0014 F5E7     		b	.L2
  60              	.L7:
 215:System/shell/shell.c ****         {
 216:System/shell/shell.c ****             shellList[i] = shell;
  61              		.loc 1 216 13 is_stmt 1 view .LVU13
  62              		.loc 1 216 26 is_stmt 0 view .LVU14
  63 0016 024B     		ldr	r3, .L8
  64              	.LVL4:
  65              		.loc 1 216 26 view .LVU15
  66 0018 43F82100 		str	r0, [r3, r1, lsl #2]
ARM GAS  C:\Users\HUAV\AppData\Local\Temp\ccSSjzP1.s 			page 6


 217:System/shell/shell.c ****             return;
  67              		.loc 1 217 13 is_stmt 1 view .LVU16
  68 001c 7047     		bx	lr
  69              	.LVL5:
  70              	.L6:
  71              		.loc 1 217 13 is_stmt 0 view .LVU17
  72              	.LBE2:
 218:System/shell/shell.c ****         }
 219:System/shell/shell.c ****     }
 220:System/shell/shell.c **** }
  73              		.loc 1 220 1 view .LVU18
  74 001e 7047     		bx	lr
  75              	.L9:
  76              		.align	2
  77              	.L8:
  78 0020 00000000 		.word	.LANCHOR0
  79              		.cfi_endproc
  80              	.LFE4:
  82              		.section	.text.shellStringCopy,"ax",%progbits
  83              		.align	1
  84              		.syntax unified
  85              		.thumb
  86              		.thumb_func
  87              		.fpu fpv5-d16
  89              	shellStringCopy:
  90              	.LVL6:
  91              	.LFB15:
 221:System/shell/shell.c **** 
 222:System/shell/shell.c **** /**
 223:System/shell/shell.c ****  * @brief 获取当前活动shell
 224:System/shell/shell.c ****  *
 225:System/shell/shell.c ****  * @return Shell* 当前活动shell对象
 226:System/shell/shell.c ****  */
 227:System/shell/shell.c **** Shell *shellGetCurrent(void)
 228:System/shell/shell.c **** {
 229:System/shell/shell.c ****     for (short i = 0; i < SHELL_MAX_NUMBER; i++)
 230:System/shell/shell.c ****     {
 231:System/shell/shell.c ****         if (shellList[i] && shellList[i]->status.isActive)
 232:System/shell/shell.c ****         {
 233:System/shell/shell.c ****             return shellList[i];
 234:System/shell/shell.c ****         }
 235:System/shell/shell.c ****     }
 236:System/shell/shell.c ****     return NULL;
 237:System/shell/shell.c **** }
 238:System/shell/shell.c **** 
 239:System/shell/shell.c **** /**
 240:System/shell/shell.c ****  * @brief shell写字符
 241:System/shell/shell.c ****  *
 242:System/shell/shell.c ****  * @param shell shell对象
 243:System/shell/shell.c ****  * @param data 字符数据
 244:System/shell/shell.c ****  */
 245:System/shell/shell.c **** void shellWriteByte(Shell *shell, const char data)
 246:System/shell/shell.c **** {
 247:System/shell/shell.c ****     shell->write(&data, sizeof(data));
 248:System/shell/shell.c **** }
 249:System/shell/shell.c **** 
 250:System/shell/shell.c **** /**
ARM GAS  C:\Users\HUAV\AppData\Local\Temp\ccSSjzP1.s 			page 7


 251:System/shell/shell.c ****  * @brief shell 写字符串
 252:System/shell/shell.c ****  *
 253:System/shell/shell.c ****  * @param shell shell对象
 254:System/shell/shell.c ****  * @param string 字符串数据
 255:System/shell/shell.c ****  *
 256:System/shell/shell.c ****  * @return unsigned short 写入字符的数量
 257:System/shell/shell.c ****  */
 258:System/shell/shell.c **** unsigned short shellWriteString(Shell *shell, const char *string)
 259:System/shell/shell.c **** {
 260:System/shell/shell.c ****     unsigned short count = 0;
 261:System/shell/shell.c ****     SHELL_ASSERT(shell->write, return 0);
 262:System/shell/shell.c **** 
 263:System/shell/shell.c ****     shell->write(string, strlen(string));
 264:System/shell/shell.c ****     return count;
 265:System/shell/shell.c **** }
 266:System/shell/shell.c **** 
 267:System/shell/shell.c **** /**
 268:System/shell/shell.c ****  * @brief shell 写命令描述字符串
 269:System/shell/shell.c ****  *
 270:System/shell/shell.c ****  * @param shell shell对象
 271:System/shell/shell.c ****  * @param string 字符串数据
 272:System/shell/shell.c ****  *
 273:System/shell/shell.c ****  * @return unsigned short 写入字符的数量
 274:System/shell/shell.c ****  */
 275:System/shell/shell.c **** static unsigned short shellWriteCommandDesc(Shell *shell, const char *string)
 276:System/shell/shell.c **** {
 277:System/shell/shell.c ****     const char dot = '.';
 278:System/shell/shell.c ****     unsigned short count = 0;
 279:System/shell/shell.c ****     SHELL_ASSERT(shell->write, return 0);
 280:System/shell/shell.c ****     while (*string && *string != '\r' && *string != '\n' && count < 36)
 281:System/shell/shell.c ****     {
 282:System/shell/shell.c ****         shell->write(*string++, 1);
 283:System/shell/shell.c ****         count++;
 284:System/shell/shell.c ****         if (count >= 36 && *(string + 1))
 285:System/shell/shell.c ****         {
 286:System/shell/shell.c ****             shell->write(&dot, sizeof(dot));
 287:System/shell/shell.c ****             shell->write(&dot, sizeof(dot));
 288:System/shell/shell.c ****             shell->write(&dot, sizeof(dot));
 289:System/shell/shell.c ****         }
 290:System/shell/shell.c ****     }
 291:System/shell/shell.c ****     return count;
 292:System/shell/shell.c **** }
 293:System/shell/shell.c **** 
 294:System/shell/shell.c **** /**
 295:System/shell/shell.c ****  * @brief shell写命令提示符
 296:System/shell/shell.c ****  *
 297:System/shell/shell.c ****  * @param shell shell对象
 298:System/shell/shell.c ****  * @param newline 新行
 299:System/shell/shell.c ****  *
 300:System/shell/shell.c ****  */
 301:System/shell/shell.c **** static void shellWriteCommandLine(Shell *shell, unsigned char newline)
 302:System/shell/shell.c **** {
 303:System/shell/shell.c ****     if (shell->status.isChecked)
 304:System/shell/shell.c ****     {
 305:System/shell/shell.c ****         if (newline)
 306:System/shell/shell.c ****         {
 307:System/shell/shell.c ****             shellWriteString(shell, "\r\n");
ARM GAS  C:\Users\HUAV\AppData\Local\Temp\ccSSjzP1.s 			page 8


 308:System/shell/shell.c ****         }
 309:System/shell/shell.c ****         shellWriteString(shell, shell->info.user->data.user.name);
 310:System/shell/shell.c ****         shellWriteString(shell, ":");
 311:System/shell/shell.c ****         shellWriteString(shell, shell->info.path ? shell->info.path : "/");
 312:System/shell/shell.c ****         shellWriteString(shell, "$ ");
 313:System/shell/shell.c ****     }
 314:System/shell/shell.c ****     else
 315:System/shell/shell.c ****     {
 316:System/shell/shell.c ****         shellWriteString(shell, shellText[SHELL_TEXT_PASSWORD_HINT]);
 317:System/shell/shell.c ****     }
 318:System/shell/shell.c **** }
 319:System/shell/shell.c **** 
 320:System/shell/shell.c **** #if SHELL_PRINT_BUFFER > 0
 321:System/shell/shell.c **** /**
 322:System/shell/shell.c ****  * @brief shell格式化输出
 323:System/shell/shell.c ****  *
 324:System/shell/shell.c ****  * @param shell shell对象
 325:System/shell/shell.c ****  * @param fmt 格式化字符串
 326:System/shell/shell.c ****  * @param ... 参数
 327:System/shell/shell.c ****  */
 328:System/shell/shell.c **** void shellPrint(Shell *shell, char *fmt, ...)
 329:System/shell/shell.c **** {
 330:System/shell/shell.c ****     char buffer[SHELL_PRINT_BUFFER];
 331:System/shell/shell.c ****     va_list vargs;
 332:System/shell/shell.c **** 
 333:System/shell/shell.c ****     SHELL_ASSERT(shell, return );
 334:System/shell/shell.c **** 
 335:System/shell/shell.c ****     va_start(vargs, fmt);
 336:System/shell/shell.c ****     vsnprintf(buffer, SHELL_PRINT_BUFFER - 1, fmt, vargs);
 337:System/shell/shell.c ****     va_end(vargs);
 338:System/shell/shell.c **** 
 339:System/shell/shell.c ****     shellWriteString(shell, buffer);
 340:System/shell/shell.c **** }
 341:System/shell/shell.c **** #endif
 342:System/shell/shell.c **** 
 343:System/shell/shell.c **** #if SHELL_SCAN_BUFFER > 0
 344:System/shell/shell.c **** /**
 345:System/shell/shell.c ****  * @brief shell格式化输入
 346:System/shell/shell.c ****  *
 347:System/shell/shell.c ****  * @param shell shell对象
 348:System/shell/shell.c ****  * @param fmt 格式化字符串
 349:System/shell/shell.c ****  * @param ... 参数
 350:System/shell/shell.c ****  */
 351:System/shell/shell.c **** void shellScan(Shell *shell, char *fmt, ...)
 352:System/shell/shell.c **** {
 353:System/shell/shell.c ****     char buffer[SHELL_SCAN_BUFFER];
 354:System/shell/shell.c ****     va_list vargs;
 355:System/shell/shell.c ****     short index = 0;
 356:System/shell/shell.c **** 
 357:System/shell/shell.c ****     SHELL_ASSERT(shell, return );
 358:System/shell/shell.c **** 
 359:System/shell/shell.c ****     if (shell->read)
 360:System/shell/shell.c ****     {
 361:System/shell/shell.c ****         do
 362:System/shell/shell.c ****         {
 363:System/shell/shell.c ****             if (shell->read(&buffer[index]) == 0)
 364:System/shell/shell.c ****             {
ARM GAS  C:\Users\HUAV\AppData\Local\Temp\ccSSjzP1.s 			page 9


 365:System/shell/shell.c ****                 shell->write(&buffer[index], sizeof(buffer[index]));
 366:System/shell/shell.c ****                 index++;
 367:System/shell/shell.c ****             }
 368:System/shell/shell.c ****         } while (buffer[index - 1] != '\r' && buffer[index - 1] != '\n' && index < SHELL_SCAN_BUFFE
 369:System/shell/shell.c ****         shellWriteString(shell, "\r\n");
 370:System/shell/shell.c ****         buffer[index] = '\0';
 371:System/shell/shell.c ****     }
 372:System/shell/shell.c **** 
 373:System/shell/shell.c ****     va_start(vargs, fmt);
 374:System/shell/shell.c ****     vsscanf(buffer, fmt, vargs);
 375:System/shell/shell.c ****     va_end(vargs);
 376:System/shell/shell.c **** }
 377:System/shell/shell.c **** #endif
 378:System/shell/shell.c **** 
 379:System/shell/shell.c **** /**
 380:System/shell/shell.c ****  * @brief shell 检查命令权限
 381:System/shell/shell.c ****  *
 382:System/shell/shell.c ****  * @param shell shell对象
 383:System/shell/shell.c ****  * @param command ShellCommand
 384:System/shell/shell.c ****  *
 385:System/shell/shell.c ****  * @return signed char 0 当前用户具有该命令权限
 386:System/shell/shell.c ****  * @return signec char -1 当前用户不具有该命令权限
 387:System/shell/shell.c ****  */
 388:System/shell/shell.c **** signed char shellCheckPermission(Shell *shell, ShellCommand *command)
 389:System/shell/shell.c **** {
 390:System/shell/shell.c ****     return ((!command->attr.attrs.permission || command->attr.attrs.type == SHELL_TYPE_USER || (com
 391:System/shell/shell.c ****                ? 0
 392:System/shell/shell.c ****                : -1;
 393:System/shell/shell.c **** }
 394:System/shell/shell.c **** 
 395:System/shell/shell.c **** /**
 396:System/shell/shell.c ****  * @brief int转16进制字符串
 397:System/shell/shell.c ****  *
 398:System/shell/shell.c ****  * @param value 数值
 399:System/shell/shell.c ****  * @param buffer 缓冲
 400:System/shell/shell.c ****  *
 401:System/shell/shell.c ****  * @return signed char 转换后有效数据长度
 402:System/shell/shell.c ****  */
 403:System/shell/shell.c **** signed char shellToHex(unsigned int value, char *buffer)
 404:System/shell/shell.c **** {
 405:System/shell/shell.c ****     char byte;
 406:System/shell/shell.c ****     unsigned char i = 8;
 407:System/shell/shell.c ****     buffer[8] = 0;
 408:System/shell/shell.c ****     while (value)
 409:System/shell/shell.c ****     {
 410:System/shell/shell.c ****         byte = value & 0x0000000F;
 411:System/shell/shell.c ****         buffer[--i] = (byte > 9) ? (byte + 87) : (byte + 48);
 412:System/shell/shell.c ****         value >>= 4;
 413:System/shell/shell.c ****     }
 414:System/shell/shell.c ****     return 8 - i;
 415:System/shell/shell.c **** }
 416:System/shell/shell.c **** 
 417:System/shell/shell.c **** /**
 418:System/shell/shell.c ****  * @brief int转10进制字符串
 419:System/shell/shell.c ****  *
 420:System/shell/shell.c ****  * @param value 数值
 421:System/shell/shell.c ****  * @param buffer 缓冲
ARM GAS  C:\Users\HUAV\AppData\Local\Temp\ccSSjzP1.s 			page 10


 422:System/shell/shell.c ****  *
 423:System/shell/shell.c ****  * @return signed char 转换后有效数据长度
 424:System/shell/shell.c ****  */
 425:System/shell/shell.c **** signed char shellToDec(int value, char *buffer)
 426:System/shell/shell.c **** {
 427:System/shell/shell.c ****     unsigned char i = 11;
 428:System/shell/shell.c ****     int v = value;
 429:System/shell/shell.c ****     if (value < 0)
 430:System/shell/shell.c ****     {
 431:System/shell/shell.c ****         v = -value;
 432:System/shell/shell.c ****     }
 433:System/shell/shell.c ****     buffer[11] = 0;
 434:System/shell/shell.c ****     while (v)
 435:System/shell/shell.c ****     {
 436:System/shell/shell.c ****         buffer[--i] = v % 10 + 48;
 437:System/shell/shell.c ****         v /= 10;
 438:System/shell/shell.c ****     }
 439:System/shell/shell.c ****     if (value < 0)
 440:System/shell/shell.c ****     {
 441:System/shell/shell.c ****         buffer[--i] = '-';
 442:System/shell/shell.c ****     }
 443:System/shell/shell.c ****     if (value == 0)
 444:System/shell/shell.c ****     {
 445:System/shell/shell.c ****         buffer[--i] = '0';
 446:System/shell/shell.c ****     }
 447:System/shell/shell.c ****     return 11 - i;
 448:System/shell/shell.c **** }
 449:System/shell/shell.c **** 
 450:System/shell/shell.c **** /**
 451:System/shell/shell.c ****  * @brief shell字符串复制
 452:System/shell/shell.c ****  *
 453:System/shell/shell.c ****  * @param dest 目标字符串
 454:System/shell/shell.c ****  * @param src 源字符串
 455:System/shell/shell.c ****  * @return unsigned short 字符串长度
 456:System/shell/shell.c ****  */
 457:System/shell/shell.c **** static unsigned short shellStringCopy(char *dest, char *src)
 458:System/shell/shell.c **** {
  92              		.loc 1 458 1 is_stmt 1 view -0
  93              		.cfi_startproc
  94              		@ args = 0, pretend = 0, frame = 0
  95              		@ frame_needed = 0, uses_anonymous_args = 0
  96              		@ link register save eliminated.
  97              		.loc 1 458 1 is_stmt 0 view .LVU20
  98 0000 0246     		mov	r2, r0
 459:System/shell/shell.c ****     unsigned short count = 0;
  99              		.loc 1 459 5 is_stmt 1 view .LVU21
 100              	.LVL7:
 460:System/shell/shell.c ****     while (*(src + count))
 101              		.loc 1 460 5 view .LVU22
 459:System/shell/shell.c ****     unsigned short count = 0;
 102              		.loc 1 459 20 is_stmt 0 view .LVU23
 103 0002 0020     		movs	r0, #0
 104              	.LVL8:
 105              		.loc 1 460 11 view .LVU24
 106 0004 02E0     		b	.L11
 107              	.LVL9:
 108              	.L12:
ARM GAS  C:\Users\HUAV\AppData\Local\Temp\ccSSjzP1.s 			page 11


 461:System/shell/shell.c ****     {
 462:System/shell/shell.c ****         *(dest + count) = *(src + count);
 109              		.loc 1 462 9 is_stmt 1 view .LVU25
 110              		.loc 1 462 25 is_stmt 0 view .LVU26
 111 0006 1354     		strb	r3, [r2, r0]
 463:System/shell/shell.c ****         count++;
 112              		.loc 1 463 9 is_stmt 1 view .LVU27
 113              		.loc 1 463 14 is_stmt 0 view .LVU28
 114 0008 0130     		adds	r0, r0, #1
 115              	.LVL10:
 116              		.loc 1 463 14 view .LVU29
 117 000a 80B2     		uxth	r0, r0
 118              	.LVL11:
 119              	.L11:
 460:System/shell/shell.c ****     while (*(src + count))
 120              		.loc 1 460 11 is_stmt 1 view .LVU30
 460:System/shell/shell.c ****     while (*(src + count))
 121              		.loc 1 460 12 is_stmt 0 view .LVU31
 122 000c 0B5C     		ldrb	r3, [r1, r0]	@ zero_extendqisi2
 460:System/shell/shell.c ****     while (*(src + count))
 123              		.loc 1 460 11 view .LVU32
 124 000e 002B     		cmp	r3, #0
 125 0010 F9D1     		bne	.L12
 464:System/shell/shell.c ****     }
 465:System/shell/shell.c ****     *(dest + count) = 0;
 126              		.loc 1 465 5 is_stmt 1 view .LVU33
 127              		.loc 1 465 21 is_stmt 0 view .LVU34
 128 0012 1354     		strb	r3, [r2, r0]
 466:System/shell/shell.c ****     return count;
 129              		.loc 1 466 5 is_stmt 1 view .LVU35
 467:System/shell/shell.c **** }
 130              		.loc 1 467 1 is_stmt 0 view .LVU36
 131 0014 7047     		bx	lr
 132              		.cfi_endproc
 133              	.LFE15:
 135              		.section	.text.shellStringCompare,"ax",%progbits
 136              		.align	1
 137              		.syntax unified
 138              		.thumb
 139              		.thumb_func
 140              		.fpu fpv5-d16
 142              	shellStringCompare:
 143              	.LVL12:
 144              	.LFB16:
 468:System/shell/shell.c **** 
 469:System/shell/shell.c **** /**
 470:System/shell/shell.c ****  * @brief shell字符串比较
 471:System/shell/shell.c ****  *
 472:System/shell/shell.c ****  * @param dest 目标字符串
 473:System/shell/shell.c ****  * @param src 源字符串
 474:System/shell/shell.c ****  * @return unsigned short 匹配长度
 475:System/shell/shell.c ****  */
 476:System/shell/shell.c **** static unsigned short shellStringCompare(char *dest, char *src)
 477:System/shell/shell.c **** {
 145              		.loc 1 477 1 is_stmt 1 view -0
 146              		.cfi_startproc
 147              		@ args = 0, pretend = 0, frame = 0
ARM GAS  C:\Users\HUAV\AppData\Local\Temp\ccSSjzP1.s 			page 12


 148              		@ frame_needed = 0, uses_anonymous_args = 0
 149              		@ link register save eliminated.
 150              		.loc 1 477 1 is_stmt 0 view .LVU38
 151 0000 8446     		mov	ip, r0
 478:System/shell/shell.c ****     unsigned short match = 0;
 152              		.loc 1 478 5 is_stmt 1 view .LVU39
 153              	.LVL13:
 479:System/shell/shell.c ****     unsigned short i = 0;
 154              		.loc 1 479 5 view .LVU40
 480:System/shell/shell.c **** 
 481:System/shell/shell.c ****     while (*(dest + i) && *(src + i))
 155              		.loc 1 481 5 view .LVU41
 479:System/shell/shell.c ****     unsigned short i = 0;
 156              		.loc 1 479 20 is_stmt 0 view .LVU42
 157 0002 0023     		movs	r3, #0
 478:System/shell/shell.c ****     unsigned short i = 0;
 158              		.loc 1 478 20 view .LVU43
 159 0004 1846     		mov	r0, r3
 160              	.LVL14:
 161              		.loc 1 481 11 is_stmt 1 view .LVU44
 162              		.loc 1 481 12 is_stmt 0 view .LVU45
 163 0006 1CF80320 		ldrb	r2, [ip, r3]	@ zero_extendqisi2
 164              		.loc 1 481 11 view .LVU46
 165 000a 7AB1     		cbz	r2, .L22
 477:System/shell/shell.c ****     unsigned short match = 0;
 166              		.loc 1 477 1 view .LVU47
 167 000c 10B4     		push	{r4}
 168              	.LCFI0:
 169              		.cfi_def_cfa_offset 4
 170              		.cfi_offset 4, -4
 171              	.LVL15:
 172              	.L19:
 173              		.loc 1 481 27 discriminator 1 view .LVU48
 174 000e CC5C     		ldrb	r4, [r1, r3]	@ zero_extendqisi2
 175              		.loc 1 481 24 discriminator 1 view .LVU49
 176 0010 4CB1     		cbz	r4, .L15
 482:System/shell/shell.c ****     {
 483:System/shell/shell.c ****         if (*(dest + i) != *(src + i))
 177              		.loc 1 483 9 is_stmt 1 view .LVU50
 178              		.loc 1 483 12 is_stmt 0 view .LVU51
 179 0012 A242     		cmp	r2, r4
 180 0014 07D1     		bne	.L15
 484:System/shell/shell.c ****         {
 485:System/shell/shell.c ****             break;
 486:System/shell/shell.c ****         }
 487:System/shell/shell.c ****         match++;
 181              		.loc 1 487 9 is_stmt 1 view .LVU52
 182              		.loc 1 487 14 is_stmt 0 view .LVU53
 183 0016 0130     		adds	r0, r0, #1
 184 0018 80B2     		uxth	r0, r0
 185              	.LVL16:
 488:System/shell/shell.c ****         i++;
 186              		.loc 1 488 9 is_stmt 1 view .LVU54
 187              		.loc 1 488 10 is_stmt 0 view .LVU55
 188 001a 0133     		adds	r3, r3, #1
 189              	.LVL17:
 190              		.loc 1 488 10 view .LVU56
ARM GAS  C:\Users\HUAV\AppData\Local\Temp\ccSSjzP1.s 			page 13


 191 001c 9BB2     		uxth	r3, r3
 192              	.LVL18:
 481:System/shell/shell.c ****     {
 193              		.loc 1 481 11 is_stmt 1 view .LVU57
 481:System/shell/shell.c ****     {
 194              		.loc 1 481 12 is_stmt 0 view .LVU58
 195 001e 1CF80320 		ldrb	r2, [ip, r3]	@ zero_extendqisi2
 481:System/shell/shell.c ****     {
 196              		.loc 1 481 11 view .LVU59
 197 0022 002A     		cmp	r2, #0
 198 0024 F3D1     		bne	.L19
 199              	.LVL19:
 200              	.L15:
 489:System/shell/shell.c ****     }
 490:System/shell/shell.c ****     return match;
 201              		.loc 1 490 5 is_stmt 1 view .LVU60
 491:System/shell/shell.c **** }
 202              		.loc 1 491 1 is_stmt 0 view .LVU61
 203 0026 5DF8044B 		ldr	r4, [sp], #4
 204              	.LCFI1:
 205              		.cfi_restore 4
 206              		.cfi_def_cfa_offset 0
 207 002a 7047     		bx	lr
 208              	.LVL20:
 209              	.L22:
 490:System/shell/shell.c **** }
 210              		.loc 1 490 5 is_stmt 1 view .LVU62
 211              		.loc 1 491 1 is_stmt 0 view .LVU63
 212 002c 7047     		bx	lr
 213              		.cfi_endproc
 214              	.LFE16:
 216              		.section	.text.shellGetCommandDesc,"ax",%progbits
 217              		.align	1
 218              		.syntax unified
 219              		.thumb
 220              		.thumb_func
 221              		.fpu fpv5-d16
 223              	shellGetCommandDesc:
 224              	.LVL21:
 225              	.LFB18:
 492:System/shell/shell.c **** 
 493:System/shell/shell.c **** /**
 494:System/shell/shell.c ****  * @brief shell获取命令名
 495:System/shell/shell.c ****  *
 496:System/shell/shell.c ****  * @param command 命令
 497:System/shell/shell.c ****  * @return const char* 命令名
 498:System/shell/shell.c ****  */
 499:System/shell/shell.c **** static const char *shellGetCommandName(ShellCommand *command)
 500:System/shell/shell.c **** {
 501:System/shell/shell.c ****     static char buffer[9];
 502:System/shell/shell.c ****     for (unsigned char i = 0; i < 9; i++)
 503:System/shell/shell.c ****     {
 504:System/shell/shell.c ****         buffer[i] = '0';
 505:System/shell/shell.c ****     }
 506:System/shell/shell.c ****     if (command->attr.attrs.type <= SHELL_TYPE_CMD_FUNC)
 507:System/shell/shell.c ****     {
 508:System/shell/shell.c ****         return command->data.cmd.name;
ARM GAS  C:\Users\HUAV\AppData\Local\Temp\ccSSjzP1.s 			page 14


 509:System/shell/shell.c ****     }
 510:System/shell/shell.c ****     else if (command->attr.attrs.type <= SHELL_TYPE_VAR_NODE)
 511:System/shell/shell.c ****     {
 512:System/shell/shell.c ****         return command->data.var.name;
 513:System/shell/shell.c ****     }
 514:System/shell/shell.c ****     else if (command->attr.attrs.type <= SHELL_TYPE_USER)
 515:System/shell/shell.c ****     {
 516:System/shell/shell.c ****         return command->data.user.name;
 517:System/shell/shell.c ****     }
 518:System/shell/shell.c ****     else
 519:System/shell/shell.c ****     {
 520:System/shell/shell.c ****         shellToHex(command->data.key.value, buffer);
 521:System/shell/shell.c ****         return buffer;
 522:System/shell/shell.c ****     }
 523:System/shell/shell.c **** }
 524:System/shell/shell.c **** 
 525:System/shell/shell.c **** /**
 526:System/shell/shell.c ****  * @brief shell获取命令描述
 527:System/shell/shell.c ****  *
 528:System/shell/shell.c ****  * @param command 命令
 529:System/shell/shell.c ****  * @return const char* 命令描述
 530:System/shell/shell.c ****  */
 531:System/shell/shell.c **** static const char *shellGetCommandDesc(ShellCommand *command)
 532:System/shell/shell.c **** {
 226              		.loc 1 532 1 is_stmt 1 view -0
 227              		.cfi_startproc
 228              		@ args = 0, pretend = 0, frame = 0
 229              		@ frame_needed = 0, uses_anonymous_args = 0
 230              		@ link register save eliminated.
 533:System/shell/shell.c ****     if (command->attr.attrs.type <= SHELL_TYPE_CMD_FUNC)
 231              		.loc 1 533 5 view .LVU65
 232              		.loc 1 533 28 is_stmt 0 view .LVU66
 233 0000 4378     		ldrb	r3, [r0, #1]	@ zero_extendqisi2
 234 0002 03F00F03 		and	r3, r3, #15
 235              		.loc 1 533 8 view .LVU67
 236 0006 012B     		cmp	r3, #1
 237 0008 05D9     		bls	.L28
 534:System/shell/shell.c ****     {
 535:System/shell/shell.c ****         return command->data.cmd.desc;
 536:System/shell/shell.c ****     }
 537:System/shell/shell.c ****     else if (command->attr.attrs.type <= SHELL_TYPE_VAR_NODE)
 238              		.loc 1 537 10 is_stmt 1 view .LVU68
 239              		.loc 1 537 13 is_stmt 0 view .LVU69
 240 000a 072B     		cmp	r3, #7
 241 000c 05D9     		bls	.L29
 538:System/shell/shell.c ****     {
 539:System/shell/shell.c ****         return command->data.var.desc;
 540:System/shell/shell.c ****     }
 541:System/shell/shell.c ****     else if (command->attr.attrs.type <= SHELL_TYPE_USER)
 242              		.loc 1 541 10 is_stmt 1 view .LVU70
 243              		.loc 1 541 13 is_stmt 0 view .LVU71
 244 000e 082B     		cmp	r3, #8
 245 0010 05D8     		bhi	.L27
 542:System/shell/shell.c ****     {
 543:System/shell/shell.c ****         return command->data.user.desc;
 246              		.loc 1 543 9 is_stmt 1 view .LVU72
 247              		.loc 1 543 34 is_stmt 0 view .LVU73
ARM GAS  C:\Users\HUAV\AppData\Local\Temp\ccSSjzP1.s 			page 15


 248 0012 C068     		ldr	r0, [r0, #12]
 249              	.LVL22:
 250              		.loc 1 543 34 view .LVU74
 251 0014 7047     		bx	lr
 252              	.LVL23:
 253              	.L28:
 535:System/shell/shell.c ****     }
 254              		.loc 1 535 9 is_stmt 1 view .LVU75
 535:System/shell/shell.c ****     }
 255              		.loc 1 535 33 is_stmt 0 view .LVU76
 256 0016 C068     		ldr	r0, [r0, #12]
 257              	.LVL24:
 535:System/shell/shell.c ****     }
 258              		.loc 1 535 33 view .LVU77
 259 0018 7047     		bx	lr
 260              	.LVL25:
 261              	.L29:
 539:System/shell/shell.c ****     }
 262              		.loc 1 539 9 is_stmt 1 view .LVU78
 539:System/shell/shell.c ****     }
 263              		.loc 1 539 33 is_stmt 0 view .LVU79
 264 001a C068     		ldr	r0, [r0, #12]
 265              	.LVL26:
 539:System/shell/shell.c ****     }
 266              		.loc 1 539 33 view .LVU80
 267 001c 7047     		bx	lr
 268              	.LVL27:
 269              	.L27:
 544:System/shell/shell.c ****     }
 545:System/shell/shell.c ****     else
 546:System/shell/shell.c ****     {
 547:System/shell/shell.c ****         return command->data.key.desc;
 270              		.loc 1 547 9 is_stmt 1 view .LVU81
 271              		.loc 1 547 33 is_stmt 0 view .LVU82
 272 001e C068     		ldr	r0, [r0, #12]
 273              	.LVL28:
 548:System/shell/shell.c ****     }
 549:System/shell/shell.c **** }
 274              		.loc 1 549 1 view .LVU83
 275 0020 7047     		bx	lr
 276              		.cfi_endproc
 277              	.LFE18:
 279              		.section	.text.shellParserParam,"ax",%progbits
 280              		.align	1
 281              		.syntax unified
 282              		.thumb
 283              		.thumb_func
 284              		.fpu fpv5-d16
 286              	shellParserParam:
 287              	.LVL29:
 288              	.LFB29:
 550:System/shell/shell.c **** 
 551:System/shell/shell.c **** /**
 552:System/shell/shell.c ****  * @brief shell 列出命令条目
 553:System/shell/shell.c ****  *
 554:System/shell/shell.c ****  * @param shell shell对象
 555:System/shell/shell.c ****  * @param item 命令条目
ARM GAS  C:\Users\HUAV\AppData\Local\Temp\ccSSjzP1.s 			page 16


 556:System/shell/shell.c ****  */
 557:System/shell/shell.c **** void shellListItem(Shell *shell, ShellCommand *item)
 558:System/shell/shell.c **** {
 559:System/shell/shell.c ****     short spaceLength;
 560:System/shell/shell.c **** 
 561:System/shell/shell.c ****     spaceLength = 22 - shellWriteString(shell, shellGetCommandName(item));
 562:System/shell/shell.c ****     spaceLength = (spaceLength > 0) ? spaceLength : 4;
 563:System/shell/shell.c ****     do
 564:System/shell/shell.c ****     {
 565:System/shell/shell.c ****         shellWriteByte(shell, '-');
 566:System/shell/shell.c ****     } while (--spaceLength);
 567:System/shell/shell.c ****     if (item->attr.attrs.type <= SHELL_TYPE_CMD_FUNC)
 568:System/shell/shell.c ****     {
 569:System/shell/shell.c ****         shellWriteString(shell, shellText[SHELL_TEXT_TYPE_CMD]);
 570:System/shell/shell.c ****     }
 571:System/shell/shell.c ****     else if (item->attr.attrs.type <= SHELL_TYPE_VAR_NODE)
 572:System/shell/shell.c ****     {
 573:System/shell/shell.c ****         shellWriteString(shell, shellText[SHELL_TEXT_TYPE_VAR]);
 574:System/shell/shell.c ****     }
 575:System/shell/shell.c ****     else if (item->attr.attrs.type <= SHELL_TYPE_USER)
 576:System/shell/shell.c ****     {
 577:System/shell/shell.c ****         shellWriteString(shell, shellText[SHELL_TEXT_TYPE_USER]);
 578:System/shell/shell.c ****     }
 579:System/shell/shell.c ****     else if (item->attr.attrs.type <= SHELL_TYPE_KEY)
 580:System/shell/shell.c ****     {
 581:System/shell/shell.c ****         shellWriteString(shell, shellText[SHELL_TEXT_TYPE_KEY]);
 582:System/shell/shell.c ****     }
 583:System/shell/shell.c ****     else
 584:System/shell/shell.c ****     {
 585:System/shell/shell.c ****         shellWriteString(shell, shellText[SHELL_TEXT_TYPE_NONE]);
 586:System/shell/shell.c ****     }
 587:System/shell/shell.c **** #if SHELL_HELP_SHOW_PERMISSION == 1
 588:System/shell/shell.c ****     shellWriteString(shell, " ");
 589:System/shell/shell.c ****     for (signed char i = 7; i >= 0; i--)
 590:System/shell/shell.c ****     {
 591:System/shell/shell.c ****         shellWriteByte(shell, item->attr.attrs.permission & (1 << i) ? 'x' : '-');
 592:System/shell/shell.c ****     }
 593:System/shell/shell.c **** #endif
 594:System/shell/shell.c ****     // shellWriteString(shell, " ");
 595:System/shell/shell.c ****     // shellWriteCommandDesc(shell, shellGetCommandDesc(item));
 596:System/shell/shell.c ****     // shellWriteString(shell, "\r\n");
 597:System/shell/shell.c **** }
 598:System/shell/shell.c **** 
 599:System/shell/shell.c **** /**
 600:System/shell/shell.c ****  * @brief shell列出可执行命令
 601:System/shell/shell.c ****  *
 602:System/shell/shell.c ****  * @param shell shell对象
 603:System/shell/shell.c ****  */
 604:System/shell/shell.c **** void shellListCommand(Shell *shell)
 605:System/shell/shell.c **** {
 606:System/shell/shell.c ****     ShellCommand *base = (ShellCommand *)shell->commandList.base;
 607:System/shell/shell.c ****     shellWriteString(shell, shellText[SHELL_TEXT_CMD_LIST]);
 608:System/shell/shell.c ****     for (short i = 0; i < shell->commandList.count; i++)
 609:System/shell/shell.c ****     {
 610:System/shell/shell.c ****         if (base[i].attr.attrs.type <= SHELL_TYPE_CMD_FUNC && shellCheckPermission(shell, &base[i])
 611:System/shell/shell.c ****         {
 612:System/shell/shell.c ****             shellListItem(shell, &base[i]);
ARM GAS  C:\Users\HUAV\AppData\Local\Temp\ccSSjzP1.s 			page 17


 613:System/shell/shell.c ****         }
 614:System/shell/shell.c ****     }
 615:System/shell/shell.c **** }
 616:System/shell/shell.c **** 
 617:System/shell/shell.c **** /**
 618:System/shell/shell.c ****  * @brief shell列出变量
 619:System/shell/shell.c ****  *
 620:System/shell/shell.c ****  * @param shell shell对象
 621:System/shell/shell.c ****  */
 622:System/shell/shell.c **** void shellListVar(Shell *shell)
 623:System/shell/shell.c **** {
 624:System/shell/shell.c ****     ShellCommand *base = (ShellCommand *)shell->commandList.base;
 625:System/shell/shell.c ****     shellWriteString(shell, shellText[SHELL_TEXT_VAR_LIST]);
 626:System/shell/shell.c ****     for (short i = 0; i < shell->commandList.count; i++)
 627:System/shell/shell.c ****     {
 628:System/shell/shell.c ****         if (base[i].attr.attrs.type > SHELL_TYPE_CMD_FUNC && base[i].attr.attrs.type <= SHELL_TYPE_
 629:System/shell/shell.c ****         {
 630:System/shell/shell.c ****             shellListItem(shell, &base[i]);
 631:System/shell/shell.c ****         }
 632:System/shell/shell.c ****     }
 633:System/shell/shell.c **** }
 634:System/shell/shell.c **** 
 635:System/shell/shell.c **** /**
 636:System/shell/shell.c ****  * @brief shell列出用户
 637:System/shell/shell.c ****  *
 638:System/shell/shell.c ****  * @param shell shell对象
 639:System/shell/shell.c ****  */
 640:System/shell/shell.c **** void shellListUser(Shell *shell)
 641:System/shell/shell.c **** {
 642:System/shell/shell.c ****     ShellCommand *base = (ShellCommand *)shell->commandList.base;
 643:System/shell/shell.c ****     shellWriteString(shell, shellText[SHELL_TEXT_USER_LIST]);
 644:System/shell/shell.c ****     for (short i = 0; i < shell->commandList.count; i++)
 645:System/shell/shell.c ****     {
 646:System/shell/shell.c ****         if (base[i].attr.attrs.type > SHELL_TYPE_VAR_NODE && base[i].attr.attrs.type <= SHELL_TYPE_
 647:System/shell/shell.c ****         {
 648:System/shell/shell.c ****             shellListItem(shell, &base[i]);
 649:System/shell/shell.c ****         }
 650:System/shell/shell.c ****     }
 651:System/shell/shell.c **** }
 652:System/shell/shell.c **** 
 653:System/shell/shell.c **** /**
 654:System/shell/shell.c ****  * @brief shell列出按键
 655:System/shell/shell.c ****  *
 656:System/shell/shell.c ****  * @param shell shell对象
 657:System/shell/shell.c ****  */
 658:System/shell/shell.c **** void shellListKey(Shell *shell)
 659:System/shell/shell.c **** {
 660:System/shell/shell.c ****     ShellCommand *base = (ShellCommand *)shell->commandList.base;
 661:System/shell/shell.c ****     shellWriteString(shell, shellText[SHELL_TEXT_KEY_LIST]);
 662:System/shell/shell.c ****     for (short i = 0; i < shell->commandList.count; i++)
 663:System/shell/shell.c ****     {
 664:System/shell/shell.c ****         if (base[i].attr.attrs.type > SHELL_TYPE_USER && base[i].attr.attrs.type <= SHELL_TYPE_KEY 
 665:System/shell/shell.c ****         {
 666:System/shell/shell.c ****             shellListItem(shell, &base[i]);
 667:System/shell/shell.c ****         }
 668:System/shell/shell.c ****     }
 669:System/shell/shell.c **** }
ARM GAS  C:\Users\HUAV\AppData\Local\Temp\ccSSjzP1.s 			page 18


 670:System/shell/shell.c **** 
 671:System/shell/shell.c **** /**
 672:System/shell/shell.c ****  * @brief shell列出所有命令
 673:System/shell/shell.c ****  *
 674:System/shell/shell.c ****  * @param shell shell对象
 675:System/shell/shell.c ****  */
 676:System/shell/shell.c **** void shellListAll(Shell *shell)
 677:System/shell/shell.c **** {
 678:System/shell/shell.c **** #if SHELL_HELP_LIST_USER == 1
 679:System/shell/shell.c ****     shellListUser(shell);
 680:System/shell/shell.c **** #endif
 681:System/shell/shell.c ****     shellListCommand(shell);
 682:System/shell/shell.c **** #if SHELL_HELP_LIST_VAR == 1
 683:System/shell/shell.c ****     shellListVar(shell);
 684:System/shell/shell.c **** #endif
 685:System/shell/shell.c **** #if SHELL_HELP_LIST_KEY == 1
 686:System/shell/shell.c ****     shellListKey(shell);
 687:System/shell/shell.c **** #endif
 688:System/shell/shell.c **** }
 689:System/shell/shell.c **** 
 690:System/shell/shell.c **** /**
 691:System/shell/shell.c ****  * @brief shell删除命令行数据
 692:System/shell/shell.c ****  *
 693:System/shell/shell.c ****  * @param shell shell对象
 694:System/shell/shell.c ****  * @param length 删除长度
 695:System/shell/shell.c ****  */
 696:System/shell/shell.c **** void shellDeleteCommandLine(Shell *shell, unsigned char length)
 697:System/shell/shell.c **** {
 698:System/shell/shell.c ****     while (length--)
 699:System/shell/shell.c ****     {
 700:System/shell/shell.c ****         shellWriteString(shell, "\b \b");
 701:System/shell/shell.c ****     }
 702:System/shell/shell.c **** }
 703:System/shell/shell.c **** 
 704:System/shell/shell.c **** /**
 705:System/shell/shell.c ****  * @brief shell 清空命令行输入
 706:System/shell/shell.c ****  *
 707:System/shell/shell.c ****  * @param shell shell对象
 708:System/shell/shell.c ****  */
 709:System/shell/shell.c **** void shellClearCommandLine(Shell *shell)
 710:System/shell/shell.c **** {
 711:System/shell/shell.c ****     for (short i = shell->parser.length - shell->parser.cursor; i > 0; i--)
 712:System/shell/shell.c ****     {
 713:System/shell/shell.c ****         shellWriteByte(shell, ' ');
 714:System/shell/shell.c ****     }
 715:System/shell/shell.c ****     shellDeleteCommandLine(shell, shell->parser.length);
 716:System/shell/shell.c **** }
 717:System/shell/shell.c **** 
 718:System/shell/shell.c **** /**
 719:System/shell/shell.c ****  * @brief shell插入一个字符到光标位置
 720:System/shell/shell.c ****  *
 721:System/shell/shell.c ****  * @param shell shell对象
 722:System/shell/shell.c ****  * @param data 字符数据
 723:System/shell/shell.c ****  */
 724:System/shell/shell.c **** void shellInsertByte(Shell *shell, char data)
 725:System/shell/shell.c **** {
 726:System/shell/shell.c ****     /* 判断输入数据是否过长 */
ARM GAS  C:\Users\HUAV\AppData\Local\Temp\ccSSjzP1.s 			page 19


 727:System/shell/shell.c ****     if (shell->parser.length >= shell->parser.bufferSize - 1)
 728:System/shell/shell.c ****     {
 729:System/shell/shell.c ****         shellWriteString(shell, shellText[SHELL_TEXT_CMD_TOO_LONG]);
 730:System/shell/shell.c ****         shellWriteCommandLine(shell, 1);
 731:System/shell/shell.c ****         shellWriteString(shell, shell->parser.buffer);
 732:System/shell/shell.c ****         return;
 733:System/shell/shell.c ****     }
 734:System/shell/shell.c **** 
 735:System/shell/shell.c ****     /* 插入数据 */
 736:System/shell/shell.c ****     if (shell->parser.cursor == shell->parser.length)
 737:System/shell/shell.c ****     {
 738:System/shell/shell.c ****         shell->parser.buffer[shell->parser.length++] = data;
 739:System/shell/shell.c ****         shell->parser.buffer[shell->parser.length] = 0;
 740:System/shell/shell.c ****         shell->parser.cursor++;
 741:System/shell/shell.c ****         shellWriteByte(shell, data);
 742:System/shell/shell.c ****     }
 743:System/shell/shell.c ****     else if (shell->parser.cursor < shell->parser.length)
 744:System/shell/shell.c ****     {
 745:System/shell/shell.c ****         for (short i = shell->parser.length - shell->parser.cursor; i > 0; i--)
 746:System/shell/shell.c ****         {
 747:System/shell/shell.c ****             shell->parser.buffer[shell->parser.cursor + i] =
 748:System/shell/shell.c ****                 shell->parser.buffer[shell->parser.cursor + i - 1];
 749:System/shell/shell.c ****         }
 750:System/shell/shell.c ****         shell->parser.buffer[shell->parser.cursor++] = data;
 751:System/shell/shell.c ****         shell->parser.buffer[++shell->parser.length] = 0;
 752:System/shell/shell.c ****         for (short i = shell->parser.cursor - 1; i < shell->parser.length; i++)
 753:System/shell/shell.c ****         {
 754:System/shell/shell.c ****             shellWriteByte(shell, shell->parser.buffer[i]);
 755:System/shell/shell.c ****         }
 756:System/shell/shell.c ****         for (short i = shell->parser.length - shell->parser.cursor; i > 0; i--)
 757:System/shell/shell.c ****         {
 758:System/shell/shell.c ****             shellWriteByte(shell, '\b');
 759:System/shell/shell.c ****         }
 760:System/shell/shell.c ****     }
 761:System/shell/shell.c **** }
 762:System/shell/shell.c **** 
 763:System/shell/shell.c **** /**
 764:System/shell/shell.c ****  * @brief shell 删除字节
 765:System/shell/shell.c ****  *
 766:System/shell/shell.c ****  * @param shell shell对象
 767:System/shell/shell.c ****  * @param direction 删除方向 {@code 1}删除光标前字符 {@code -1}删除光标处字符
 768:System/shell/shell.c ****  */
 769:System/shell/shell.c **** void shellDeleteByte(Shell *shell, signed char direction)
 770:System/shell/shell.c **** {
 771:System/shell/shell.c ****     char offset = (direction == -1) ? 1 : 0;
 772:System/shell/shell.c **** 
 773:System/shell/shell.c ****     if ((shell->parser.cursor == 0 && direction == 1) || (shell->parser.cursor == shell->parser.len
 774:System/shell/shell.c ****     {
 775:System/shell/shell.c ****         return;
 776:System/shell/shell.c ****     }
 777:System/shell/shell.c ****     if (shell->parser.cursor == shell->parser.length && direction == 1)
 778:System/shell/shell.c ****     {
 779:System/shell/shell.c ****         shell->parser.cursor--;
 780:System/shell/shell.c ****         shell->parser.length--;
 781:System/shell/shell.c ****         shell->parser.buffer[shell->parser.length] = 0;
 782:System/shell/shell.c ****         shellDeleteCommandLine(shell, 1);
 783:System/shell/shell.c ****     }
ARM GAS  C:\Users\HUAV\AppData\Local\Temp\ccSSjzP1.s 			page 20


 784:System/shell/shell.c ****     else
 785:System/shell/shell.c ****     {
 786:System/shell/shell.c ****         for (short i = offset; i < shell->parser.length - shell->parser.cursor; i++)
 787:System/shell/shell.c ****         {
 788:System/shell/shell.c ****             shell->parser.buffer[shell->parser.cursor + i - 1] =
 789:System/shell/shell.c ****                 shell->parser.buffer[shell->parser.cursor + i];
 790:System/shell/shell.c ****         }
 791:System/shell/shell.c ****         shell->parser.length--;
 792:System/shell/shell.c ****         if (!offset)
 793:System/shell/shell.c ****         {
 794:System/shell/shell.c ****             shell->parser.cursor--;
 795:System/shell/shell.c ****             shellWriteByte(shell, '\b');
 796:System/shell/shell.c ****         }
 797:System/shell/shell.c ****         shell->parser.buffer[shell->parser.length] = 0;
 798:System/shell/shell.c ****         for (short i = shell->parser.cursor; i < shell->parser.length; i++)
 799:System/shell/shell.c ****         {
 800:System/shell/shell.c ****             shellWriteByte(shell, shell->parser.buffer[i]);
 801:System/shell/shell.c ****         }
 802:System/shell/shell.c ****         shellWriteByte(shell, ' ');
 803:System/shell/shell.c ****         for (short i = shell->parser.length - shell->parser.cursor + 1; i > 0; i--)
 804:System/shell/shell.c ****         {
 805:System/shell/shell.c ****             shellWriteByte(shell, '\b');
 806:System/shell/shell.c ****         }
 807:System/shell/shell.c ****     }
 808:System/shell/shell.c **** }
 809:System/shell/shell.c **** 
 810:System/shell/shell.c **** /**
 811:System/shell/shell.c ****  * @brief shell 解析参数
 812:System/shell/shell.c ****  *
 813:System/shell/shell.c ****  * @param shell shell对象
 814:System/shell/shell.c ****  */
 815:System/shell/shell.c **** static void shellParserParam(Shell *shell)
 816:System/shell/shell.c **** {
 289              		.loc 1 816 1 is_stmt 1 view -0
 290              		.cfi_startproc
 291              		@ args = 0, pretend = 0, frame = 0
 292              		@ frame_needed = 0, uses_anonymous_args = 0
 293              		.loc 1 816 1 is_stmt 0 view .LVU85
 294 0000 30B5     		push	{r4, r5, lr}
 295              	.LCFI2:
 296              		.cfi_def_cfa_offset 12
 297              		.cfi_offset 4, -12
 298              		.cfi_offset 5, -8
 299              		.cfi_offset 14, -4
 817:System/shell/shell.c ****     unsigned char quotes = 0;
 300              		.loc 1 817 5 is_stmt 1 view .LVU86
 301              	.LVL30:
 818:System/shell/shell.c ****     unsigned char record = 1;
 302              		.loc 1 818 5 view .LVU87
 819:System/shell/shell.c **** 
 820:System/shell/shell.c ****     for (short i = 0; i < SHELL_PARAMETER_MAX_NUMBER; i++)
 303              		.loc 1 820 5 view .LVU88
 304              	.LBB3:
 305              		.loc 1 820 10 view .LVU89
 306              		.loc 1 820 16 is_stmt 0 view .LVU90
 307 0002 0023     		movs	r3, #0
 308              		.loc 1 820 5 view .LVU91
ARM GAS  C:\Users\HUAV\AppData\Local\Temp\ccSSjzP1.s 			page 21


 309 0004 06E0     		b	.L31
 310              	.LVL31:
 311              	.L32:
 821:System/shell/shell.c ****     {
 822:System/shell/shell.c ****         shell->parser.param[i] = NULL;
 312              		.loc 1 822 9 is_stmt 1 discriminator 3 view .LVU92
 313              		.loc 1 822 32 is_stmt 0 discriminator 3 view .LVU93
 314 0006 1A1D     		adds	r2, r3, #4
 315 0008 00EB8202 		add	r2, r0, r2, lsl #2
 316 000c 0021     		movs	r1, #0
 317 000e 5160     		str	r1, [r2, #4]
 820:System/shell/shell.c ****     {
 318              		.loc 1 820 55 is_stmt 1 discriminator 3 view .LVU94
 820:System/shell/shell.c ****     {
 319              		.loc 1 820 56 is_stmt 0 discriminator 3 view .LVU95
 320 0010 0133     		adds	r3, r3, #1
 321              	.LVL32:
 820:System/shell/shell.c ****     {
 322              		.loc 1 820 56 discriminator 3 view .LVU96
 323 0012 1BB2     		sxth	r3, r3
 324              	.LVL33:
 325              	.L31:
 820:System/shell/shell.c ****     {
 326              		.loc 1 820 23 is_stmt 1 discriminator 1 view .LVU97
 820:System/shell/shell.c ****     {
 327              		.loc 1 820 5 is_stmt 0 discriminator 1 view .LVU98
 328 0014 072B     		cmp	r3, #7
 329 0016 F6DD     		ble	.L32
 330              	.LBE3:
 823:System/shell/shell.c ****     }
 824:System/shell/shell.c **** 
 825:System/shell/shell.c ****     shell->parser.paramCount = 0;
 331              		.loc 1 825 5 is_stmt 1 view .LVU99
 332              		.loc 1 825 30 is_stmt 0 view .LVU100
 333 0018 0021     		movs	r1, #0
 334 001a C186     		strh	r1, [r0, #54]	@ movhi
 826:System/shell/shell.c ****     for (unsigned short i = 0; i < shell->parser.length; i++)
 335              		.loc 1 826 5 is_stmt 1 view .LVU101
 336              	.LBB4:
 337              		.loc 1 826 10 view .LVU102
 338              	.LVL34:
 339              		.loc 1 826 25 is_stmt 0 view .LVU103
 340 001c 0B46     		mov	r3, r1
 341              	.LVL35:
 342              		.loc 1 826 25 view .LVU104
 343              	.LBE4:
 818:System/shell/shell.c **** 
 344              		.loc 1 818 19 view .LVU105
 345 001e 0125     		movs	r5, #1
 346              	.LBB5:
 347              		.loc 1 826 5 view .LVU106
 348 0020 0DE0     		b	.L33
 349              	.LVL36:
 350              	.L34:
 827:System/shell/shell.c ****     {
 828:System/shell/shell.c ****         if (quotes != 0 || (shell->parser.buffer[i] != ' ' && shell->parser.buffer[i] != 0))
 829:System/shell/shell.c ****         {
ARM GAS  C:\Users\HUAV\AppData\Local\Temp\ccSSjzP1.s 			page 22


 830:System/shell/shell.c ****             if (shell->parser.buffer[i] == '\"')
 351              		.loc 1 830 13 is_stmt 1 view .LVU107
 352              		.loc 1 830 30 is_stmt 0 view .LVU108
 353 0022 0269     		ldr	r2, [r0, #16]
 354              		.loc 1 830 37 view .LVU109
 355 0024 9E46     		mov	lr, r3
 356 0026 D418     		adds	r4, r2, r3
 357 0028 12F803C0 		ldrb	ip, [r2, r3]	@ zero_extendqisi2
 358              		.loc 1 830 16 view .LVU110
 359 002c BCF1220F 		cmp	ip, #34
 360 0030 14D0     		beq	.L42
 361              	.L36:
 831:System/shell/shell.c ****             {
 832:System/shell/shell.c ****                 quotes = quotes ? 0 : 1;
 833:System/shell/shell.c ****             }
 834:System/shell/shell.c ****             if (record == 1)
 362              		.loc 1 834 13 is_stmt 1 view .LVU111
 363              		.loc 1 834 16 is_stmt 0 view .LVU112
 364 0032 B5B9     		cbnz	r5, .L43
 365              	.LVL37:
 366              	.L37:
 835:System/shell/shell.c ****             {
 836:System/shell/shell.c ****                 if (shell->parser.paramCount < SHELL_PARAMETER_MAX_NUMBER)
 837:System/shell/shell.c ****                 {
 838:System/shell/shell.c ****                     shell->parser.param[shell->parser.paramCount++] =
 839:System/shell/shell.c ****                         &(shell->parser.buffer[i]);
 840:System/shell/shell.c ****                 }
 841:System/shell/shell.c ****                 record = 0;
 842:System/shell/shell.c ****             }
 843:System/shell/shell.c ****             if (shell->parser.buffer[i] == '\\' && shell->parser.buffer[i + 1] != 0)
 367              		.loc 1 843 13 is_stmt 1 view .LVU113
 368              		.loc 1 843 37 is_stmt 0 view .LVU114
 369 0034 2478     		ldrb	r4, [r4]	@ zero_extendqisi2
 370              		.loc 1 843 16 view .LVU115
 371 0036 5C2C     		cmp	r4, #92
 372 0038 22D0     		beq	.L44
 373              	.LVL38:
 374              	.L38:
 826:System/shell/shell.c ****     {
 375              		.loc 1 826 58 is_stmt 1 discriminator 2 view .LVU116
 826:System/shell/shell.c ****     {
 376              		.loc 1 826 59 is_stmt 0 discriminator 2 view .LVU117
 377 003a 0133     		adds	r3, r3, #1
 378              	.LVL39:
 826:System/shell/shell.c ****     {
 379              		.loc 1 826 59 discriminator 2 view .LVU118
 380 003c 9BB2     		uxth	r3, r3
 381              	.LVL40:
 382              	.L33:
 826:System/shell/shell.c ****     {
 383              		.loc 1 826 32 is_stmt 1 discriminator 1 view .LVU119
 826:System/shell/shell.c ****     {
 384              		.loc 1 826 49 is_stmt 0 discriminator 1 view .LVU120
 385 003e 8289     		ldrh	r2, [r0, #12]
 826:System/shell/shell.c ****     {
 386              		.loc 1 826 5 discriminator 1 view .LVU121
 387 0040 9A42     		cmp	r2, r3
ARM GAS  C:\Users\HUAV\AppData\Local\Temp\ccSSjzP1.s 			page 23


 388 0042 24D9     		bls	.L45
 828:System/shell/shell.c ****         {
 389              		.loc 1 828 9 is_stmt 1 view .LVU122
 828:System/shell/shell.c ****         {
 390              		.loc 1 828 12 is_stmt 0 view .LVU123
 391 0044 0029     		cmp	r1, #0
 392 0046 ECD1     		bne	.L34
 828:System/shell/shell.c ****         {
 393              		.loc 1 828 42 discriminator 1 view .LVU124
 394 0048 0469     		ldr	r4, [r0, #16]
 828:System/shell/shell.c ****         {
 395              		.loc 1 828 49 discriminator 1 view .LVU125
 396 004a E25C     		ldrb	r2, [r4, r3]	@ zero_extendqisi2
 828:System/shell/shell.c ****         {
 397              		.loc 1 828 25 discriminator 1 view .LVU126
 398 004c 202A     		cmp	r2, #32
 399 004e 18BF     		it	ne
 400 0050 002A     		cmpne	r2, #0
 401 0052 E6D1     		bne	.L34
 844:System/shell/shell.c ****             {
 845:System/shell/shell.c ****                 i++;
 846:System/shell/shell.c ****             }
 847:System/shell/shell.c ****         }
 848:System/shell/shell.c ****         else
 849:System/shell/shell.c ****         {
 850:System/shell/shell.c ****             shell->parser.buffer[i] = 0;
 402              		.loc 1 850 13 is_stmt 1 view .LVU127
 403              		.loc 1 850 37 is_stmt 0 view .LVU128
 404 0054 0022     		movs	r2, #0
 405 0056 E254     		strb	r2, [r4, r3]
 851:System/shell/shell.c ****             record = 1;
 406              		.loc 1 851 13 is_stmt 1 view .LVU129
 407              	.LVL41:
 408              		.loc 1 851 20 is_stmt 0 view .LVU130
 409 0058 0125     		movs	r5, #1
 410 005a EEE7     		b	.L38
 411              	.LVL42:
 412              	.L42:
 832:System/shell/shell.c ****             }
 413              		.loc 1 832 17 is_stmt 1 view .LVU131
 832:System/shell/shell.c ****             }
 414              		.loc 1 832 37 is_stmt 0 view .LVU132
 415 005c 81F00101 		eor	r1, r1, #1
 416              	.LVL43:
 832:System/shell/shell.c ****             }
 417              		.loc 1 832 37 view .LVU133
 418 0060 E7E7     		b	.L36
 419              	.L43:
 836:System/shell/shell.c ****                 {
 420              		.loc 1 836 17 is_stmt 1 view .LVU134
 836:System/shell/shell.c ****                 {
 421              		.loc 1 836 34 is_stmt 0 view .LVU135
 422 0062 C58E     		ldrh	r5, [r0, #54]
 423              	.LVL44:
 836:System/shell/shell.c ****                 {
 424              		.loc 1 836 20 view .LVU136
 425 0064 072D     		cmp	r5, #7
ARM GAS  C:\Users\HUAV\AppData\Local\Temp\ccSSjzP1.s 			page 24


 426 0066 09D8     		bhi	.L40
 838:System/shell/shell.c ****                         &(shell->parser.buffer[i]);
 427              		.loc 1 838 21 is_stmt 1 view .LVU137
 838:System/shell/shell.c ****                         &(shell->parser.buffer[i]);
 428              		.loc 1 838 65 is_stmt 0 view .LVU138
 429 0068 05F1010C 		add	ip, r5, #1
 430 006c A0F836C0 		strh	ip, [r0, #54]	@ movhi
 838:System/shell/shell.c ****                         &(shell->parser.buffer[i]);
 431              		.loc 1 838 69 view .LVU139
 432 0070 0435     		adds	r5, r5, #4
 433 0072 00EB8505 		add	r5, r0, r5, lsl #2
 434 0076 6C60     		str	r4, [r5, #4]
 841:System/shell/shell.c ****             }
 435              		.loc 1 841 24 view .LVU140
 436 0078 0025     		movs	r5, #0
 437 007a DBE7     		b	.L37
 438              	.L40:
 439 007c 0025     		movs	r5, #0
 440 007e D9E7     		b	.L37
 441              	.LVL45:
 442              	.L44:
 843:System/shell/shell.c ****             {
 443              		.loc 1 843 72 discriminator 1 view .LVU141
 444 0080 7244     		add	r2, r2, lr
 445 0082 5278     		ldrb	r2, [r2, #1]	@ zero_extendqisi2
 843:System/shell/shell.c ****             {
 446              		.loc 1 843 49 discriminator 1 view .LVU142
 447 0084 002A     		cmp	r2, #0
 448 0086 D8D0     		beq	.L38
 845:System/shell/shell.c ****             }
 449              		.loc 1 845 17 is_stmt 1 view .LVU143
 845:System/shell/shell.c ****             }
 450              		.loc 1 845 18 is_stmt 0 view .LVU144
 451 0088 0133     		adds	r3, r3, #1
 452              	.LVL46:
 845:System/shell/shell.c ****             }
 453              		.loc 1 845 18 view .LVU145
 454 008a 9BB2     		uxth	r3, r3
 455              	.LVL47:
 845:System/shell/shell.c ****             }
 456              		.loc 1 845 18 view .LVU146
 457 008c D5E7     		b	.L38
 458              	.L45:
 845:System/shell/shell.c ****             }
 459              		.loc 1 845 18 view .LVU147
 460              	.LBE5:
 852:System/shell/shell.c ****         }
 853:System/shell/shell.c ****     }
 854:System/shell/shell.c **** }
 461              		.loc 1 854 1 view .LVU148
 462 008e 30BD     		pop	{r4, r5, pc}
 463              		.loc 1 854 1 view .LVU149
 464              		.cfi_endproc
 465              	.LFE29:
 467              		.section	.text.shellHistoryAdd,"ax",%progbits
 468              		.align	1
 469              		.syntax unified
ARM GAS  C:\Users\HUAV\AppData\Local\Temp\ccSSjzP1.s 			page 25


 470              		.thumb
 471              		.thumb_func
 472              		.fpu fpv5-d16
 474              	shellHistoryAdd:
 475              	.LVL48:
 476              	.LFB40:
 855:System/shell/shell.c **** 
 856:System/shell/shell.c **** /**
 857:System/shell/shell.c ****  * @brief shell去除字符串参数头尾的双引号
 858:System/shell/shell.c ****  *
 859:System/shell/shell.c ****  * @param shell shell对象
 860:System/shell/shell.c ****  */
 861:System/shell/shell.c **** static void shellRemoveParamQuotes(Shell *shell)
 862:System/shell/shell.c **** {
 863:System/shell/shell.c ****     unsigned short paramLength;
 864:System/shell/shell.c ****     for (unsigned short i = 0; i < shell->parser.paramCount; i++)
 865:System/shell/shell.c ****     {
 866:System/shell/shell.c ****         if (shell->parser.param[i][0] == '\"')
 867:System/shell/shell.c ****         {
 868:System/shell/shell.c ****             shell->parser.param[i][0] = 0;
 869:System/shell/shell.c ****             shell->parser.param[i] = &shell->parser.param[i][1];
 870:System/shell/shell.c ****         }
 871:System/shell/shell.c ****         paramLength = strlen(shell->parser.param[i]);
 872:System/shell/shell.c ****         if (shell->parser.param[i][paramLength - 1] == '\"')
 873:System/shell/shell.c ****         {
 874:System/shell/shell.c ****             shell->parser.param[i][paramLength - 1] = 0;
 875:System/shell/shell.c ****         }
 876:System/shell/shell.c ****     }
 877:System/shell/shell.c **** }
 878:System/shell/shell.c **** 
 879:System/shell/shell.c **** /**
 880:System/shell/shell.c ****  * @brief shell匹配命令
 881:System/shell/shell.c ****  *
 882:System/shell/shell.c ****  * @param shell shell对象
 883:System/shell/shell.c ****  * @param cmd 命令
 884:System/shell/shell.c ****  * @param base 匹配命令表基址
 885:System/shell/shell.c ****  * @param compareLength 匹配字符串长度
 886:System/shell/shell.c ****  * @return ShellCommand* 匹配到的命令
 887:System/shell/shell.c ****  */
 888:System/shell/shell.c **** ShellCommand *shellSeekCommand(Shell *shell,
 889:System/shell/shell.c ****                                const char *cmd,
 890:System/shell/shell.c ****                                ShellCommand *base,
 891:System/shell/shell.c ****                                unsigned short compareLength)
 892:System/shell/shell.c **** {
 893:System/shell/shell.c ****     const char *name;
 894:System/shell/shell.c ****     int ret;
 895:System/shell/shell.c ****     unsigned short count = shell->commandList.count -
 896:System/shell/shell.c ****                            ((int)base - (int)shell->commandList.base) / sizeof(ShellCommand);
 897:System/shell/shell.c ****     for (unsigned short i = 0; i < count; i++)
 898:System/shell/shell.c ****     {
 899:System/shell/shell.c ****         if (base[i].attr.attrs.type == SHELL_TYPE_KEY || shellCheckPermission(shell, &base[i]) != 0
 900:System/shell/shell.c ****         {
 901:System/shell/shell.c ****             continue;
 902:System/shell/shell.c ****         }
 903:System/shell/shell.c ****         name = shellGetCommandName(&base[i]);
 904:System/shell/shell.c ****         if (!compareLength)
 905:System/shell/shell.c ****         {
ARM GAS  C:\Users\HUAV\AppData\Local\Temp\ccSSjzP1.s 			page 26


 906:System/shell/shell.c ****             ret = strcmp(cmd, name);
 907:System/shell/shell.c ****             if (strcmp(cmd, name) == 0)
 908:System/shell/shell.c ****             {
 909:System/shell/shell.c ****                 return &base[i];
 910:System/shell/shell.c ****             }
 911:System/shell/shell.c ****         }
 912:System/shell/shell.c ****         else
 913:System/shell/shell.c ****         {
 914:System/shell/shell.c ****             if (strncmp(cmd, name, compareLength) == 0)
 915:System/shell/shell.c ****             {
 916:System/shell/shell.c ****                 return &base[i];
 917:System/shell/shell.c ****             }
 918:System/shell/shell.c ****         }
 919:System/shell/shell.c ****     }
 920:System/shell/shell.c ****     return NULL;
 921:System/shell/shell.c **** }
 922:System/shell/shell.c **** 
 923:System/shell/shell.c **** /**
 924:System/shell/shell.c ****  * @brief shell 获取变量值
 925:System/shell/shell.c ****  *
 926:System/shell/shell.c ****  * @param shell shell对象
 927:System/shell/shell.c ****  * @param command 命令
 928:System/shell/shell.c ****  * @return int 变量值
 929:System/shell/shell.c ****  */
 930:System/shell/shell.c **** int shellGetVarValue(Shell *shell, ShellCommand *command)
 931:System/shell/shell.c **** {
 932:System/shell/shell.c ****     int value = 0;
 933:System/shell/shell.c ****     switch (command->attr.attrs.type)
 934:System/shell/shell.c ****     {
 935:System/shell/shell.c ****     case SHELL_TYPE_VAR_INT:
 936:System/shell/shell.c ****         value = *((int *)(command->data.var.value));
 937:System/shell/shell.c ****         break;
 938:System/shell/shell.c ****     case SHELL_TYPE_VAR_SHORT:
 939:System/shell/shell.c ****         value = *((short *)(command->data.var.value));
 940:System/shell/shell.c ****         break;
 941:System/shell/shell.c ****     case SHELL_TYPE_VAR_CHAR:
 942:System/shell/shell.c ****         value = *((char *)(command->data.var.value));
 943:System/shell/shell.c ****         break;
 944:System/shell/shell.c ****     case SHELL_TYPE_VAR_STRING:
 945:System/shell/shell.c ****     case SHELL_TYPE_VAR_POINT:
 946:System/shell/shell.c ****         value = (int)(command->data.var.value);
 947:System/shell/shell.c ****         break;
 948:System/shell/shell.c ****     case SHELL_TYPE_VAR_NODE:
 949:System/shell/shell.c ****         value = ((ShellNodeVarAttr *)command->data.var.value)->get ? ((ShellNodeVarAttr *)command->
 950:System/shell/shell.c ****                                                                          ->get(((ShellNodeVarAttr *
 951:System/shell/shell.c ****                                                                    : 0;
 952:System/shell/shell.c ****         break;
 953:System/shell/shell.c ****     default:
 954:System/shell/shell.c ****         break;
 955:System/shell/shell.c ****     }
 956:System/shell/shell.c ****     return value;
 957:System/shell/shell.c **** }
 958:System/shell/shell.c **** 
 959:System/shell/shell.c **** /**
 960:System/shell/shell.c ****  * @brief shell设置变量值
 961:System/shell/shell.c ****  *
 962:System/shell/shell.c ****  * @param shell shell对象
ARM GAS  C:\Users\HUAV\AppData\Local\Temp\ccSSjzP1.s 			page 27


 963:System/shell/shell.c ****  * @param command 命令
 964:System/shell/shell.c ****  * @param value 值
 965:System/shell/shell.c ****  * @return int 返回变量值
 966:System/shell/shell.c ****  */
 967:System/shell/shell.c **** int shellSetVarValue(Shell *shell, ShellCommand *command, int value)
 968:System/shell/shell.c **** {
 969:System/shell/shell.c ****     if (command->attr.attrs.readOnly)
 970:System/shell/shell.c ****     {
 971:System/shell/shell.c ****         shellWriteString(shell, shellText[SHELL_TEXT_VAR_READ_ONLY_CANNOT_MODIFY]);
 972:System/shell/shell.c ****     }
 973:System/shell/shell.c ****     else
 974:System/shell/shell.c ****     {
 975:System/shell/shell.c ****         switch (command->attr.attrs.type)
 976:System/shell/shell.c ****         {
 977:System/shell/shell.c ****         case SHELL_TYPE_VAR_INT:
 978:System/shell/shell.c ****             *((int *)(command->data.var.value)) = value;
 979:System/shell/shell.c ****             break;
 980:System/shell/shell.c ****         case SHELL_TYPE_VAR_SHORT:
 981:System/shell/shell.c ****             *((short *)(command->data.var.value)) = value;
 982:System/shell/shell.c ****             break;
 983:System/shell/shell.c ****         case SHELL_TYPE_VAR_CHAR:
 984:System/shell/shell.c ****             *((char *)(command->data.var.value)) = value;
 985:System/shell/shell.c ****             break;
 986:System/shell/shell.c ****         case SHELL_TYPE_VAR_STRING:
 987:System/shell/shell.c ****             shellStringCopy(((char *)(command->data.var.value)), (char *)value);
 988:System/shell/shell.c ****             break;
 989:System/shell/shell.c ****         case SHELL_TYPE_VAR_POINT:
 990:System/shell/shell.c ****             shellWriteString(shell, shellText[SHELL_TEXT_POINT_CANNOT_MODIFY]);
 991:System/shell/shell.c ****             break;
 992:System/shell/shell.c ****         case SHELL_TYPE_VAR_NODE:
 993:System/shell/shell.c ****             if (((ShellNodeVarAttr *)command->data.var.value)->set)
 994:System/shell/shell.c ****             {
 995:System/shell/shell.c ****                 if (((ShellNodeVarAttr *)command->data.var.value)->var)
 996:System/shell/shell.c ****                 {
 997:System/shell/shell.c ****                     ((ShellNodeVarAttr *)command->data.var.value)
 998:System/shell/shell.c ****                         ->set(((ShellNodeVarAttr *)command->data.var.value)->var, value);
 999:System/shell/shell.c ****                 }
1000:System/shell/shell.c ****                 else
1001:System/shell/shell.c ****                 {
1002:System/shell/shell.c ****                     ((ShellNodeVarAttr *)command->data.var.value)->set(value);
1003:System/shell/shell.c ****                 }
1004:System/shell/shell.c ****             }
1005:System/shell/shell.c ****             break;
1006:System/shell/shell.c ****         default:
1007:System/shell/shell.c ****             break;
1008:System/shell/shell.c ****         }
1009:System/shell/shell.c ****     }
1010:System/shell/shell.c ****     return shellShowVar(shell, command);
1011:System/shell/shell.c **** }
1012:System/shell/shell.c **** 
1013:System/shell/shell.c **** /**
1014:System/shell/shell.c ****  * @brief shell变量输出
1015:System/shell/shell.c ****  *
1016:System/shell/shell.c ****  * @param shell shell对象
1017:System/shell/shell.c ****  * @param command 命令
1018:System/shell/shell.c ****  * @return int 返回变量值
1019:System/shell/shell.c ****  */
ARM GAS  C:\Users\HUAV\AppData\Local\Temp\ccSSjzP1.s 			page 28


1020:System/shell/shell.c **** static int shellShowVar(Shell *shell, ShellCommand *command)
1021:System/shell/shell.c **** {
1022:System/shell/shell.c ****     char buffer[12] = "00000000000";
1023:System/shell/shell.c ****     int value = shellGetVarValue(shell, command);
1024:System/shell/shell.c **** 
1025:System/shell/shell.c ****     shellWriteString(shell, command->data.var.name);
1026:System/shell/shell.c ****     shellWriteString(shell, " = ");
1027:System/shell/shell.c **** 
1028:System/shell/shell.c ****     switch (command->attr.attrs.type)
1029:System/shell/shell.c ****     {
1030:System/shell/shell.c ****     case SHELL_TYPE_VAR_STRING:
1031:System/shell/shell.c ****         shellWriteString(shell, "\"");
1032:System/shell/shell.c ****         shellWriteString(shell, (char *)value);
1033:System/shell/shell.c ****         shellWriteString(shell, "\"");
1034:System/shell/shell.c ****         break;
1035:System/shell/shell.c ****     // case SHELL_TYPE_VAR_INT:
1036:System/shell/shell.c ****     // case SHELL_TYPE_VAR_SHORT:
1037:System/shell/shell.c ****     // case SHELL_TYPE_VAR_CHAR:
1038:System/shell/shell.c ****     // case SHELL_TYPE_VAR_POINT:
1039:System/shell/shell.c ****     default:
1040:System/shell/shell.c ****         shellWriteString(shell, &buffer[11 - shellToDec(value, buffer)]);
1041:System/shell/shell.c ****         shellWriteString(shell, ", 0x");
1042:System/shell/shell.c ****         for (short i = 0; i < 11; i++)
1043:System/shell/shell.c ****         {
1044:System/shell/shell.c ****             buffer[i] = '0';
1045:System/shell/shell.c ****         }
1046:System/shell/shell.c ****         shellToHex(value, buffer);
1047:System/shell/shell.c ****         shellWriteString(shell, buffer);
1048:System/shell/shell.c ****         break;
1049:System/shell/shell.c ****     }
1050:System/shell/shell.c **** 
1051:System/shell/shell.c ****     shellWriteString(shell, "\r\n");
1052:System/shell/shell.c ****     return value;
1053:System/shell/shell.c **** }
1054:System/shell/shell.c **** 
1055:System/shell/shell.c **** /**
1056:System/shell/shell.c ****  * @brief shell设置变量
1057:System/shell/shell.c ****  *
1058:System/shell/shell.c ****  * @param name 变量名
1059:System/shell/shell.c ****  * @param value 变量值
1060:System/shell/shell.c ****  * @return int 返回变量值
1061:System/shell/shell.c ****  */
1062:System/shell/shell.c **** int shellSetVar(char *name, int value)
1063:System/shell/shell.c **** {
1064:System/shell/shell.c ****     Shell *shell = shellGetCurrent();
1065:System/shell/shell.c ****     if (shell == NULL)
1066:System/shell/shell.c ****     {
1067:System/shell/shell.c ****         return 0;
1068:System/shell/shell.c ****     }
1069:System/shell/shell.c ****     ShellCommand *command = shellSeekCommand(shell,
1070:System/shell/shell.c ****                                              name,
1071:System/shell/shell.c ****                                              shell->commandList.base,
1072:System/shell/shell.c ****                                              0);
1073:System/shell/shell.c ****     if (!command)
1074:System/shell/shell.c ****     {
1075:System/shell/shell.c ****         shellWriteString(shell, shellText[SHELL_TEXT_VAR_NOT_FOUND]);
1076:System/shell/shell.c ****         return 0;
ARM GAS  C:\Users\HUAV\AppData\Local\Temp\ccSSjzP1.s 			page 29


1077:System/shell/shell.c ****     }
1078:System/shell/shell.c ****     if (command->attr.attrs.type < SHELL_TYPE_VAR_INT || command->attr.attrs.type > SHELL_TYPE_VAR_
1079:System/shell/shell.c ****     {
1080:System/shell/shell.c ****         shellWriteString(shell, name);
1081:System/shell/shell.c ****         shellWriteString(shell, shellText[SHELL_TEXT_NOT_VAR]);
1082:System/shell/shell.c ****         return 0;
1083:System/shell/shell.c ****     }
1084:System/shell/shell.c ****     return shellSetVarValue(shell, command, value);
1085:System/shell/shell.c **** }
1086:System/shell/shell.c **** SHELL_EXPORT_CMD(
1087:System/shell/shell.c ****     SHELL_CMD_PERMISSION(0) | SHELL_CMD_TYPE(SHELL_TYPE_CMD_FUNC) | SHELL_CMD_DISABLE_RETURN,
1088:System/shell/shell.c ****     setVar, shellSetVar, set var);
1089:System/shell/shell.c **** 
1090:System/shell/shell.c **** /**
1091:System/shell/shell.c ****  * @brief shell运行命令
1092:System/shell/shell.c ****  *
1093:System/shell/shell.c ****  * @param shell shell对象
1094:System/shell/shell.c ****  * @param command 命令
1095:System/shell/shell.c ****  *
1096:System/shell/shell.c ****  * @return unsigned int 命令返回值
1097:System/shell/shell.c ****  */
1098:System/shell/shell.c **** unsigned int shellRunCommand(Shell *shell, ShellCommand *command)
1099:System/shell/shell.c **** {
1100:System/shell/shell.c ****     int returnValue = 0;
1101:System/shell/shell.c ****     shell->status.isActive = 1;
1102:System/shell/shell.c ****     if (command->attr.attrs.type == SHELL_TYPE_CMD_MAIN)
1103:System/shell/shell.c ****     {
1104:System/shell/shell.c ****         shellRemoveParamQuotes(shell);
1105:System/shell/shell.c ****         returnValue = command->data.cmd.function(shell->parser.paramCount,
1106:System/shell/shell.c ****                                                  shell->parser.param);
1107:System/shell/shell.c ****         if (!command->attr.attrs.disableReturn)
1108:System/shell/shell.c ****         {
1109:System/shell/shell.c ****             shellWriteReturnValue(shell, returnValue);
1110:System/shell/shell.c ****         }
1111:System/shell/shell.c ****     }
1112:System/shell/shell.c ****     else if (command->attr.attrs.type == SHELL_TYPE_CMD_FUNC)
1113:System/shell/shell.c ****     {
1114:System/shell/shell.c ****         returnValue = shellExtRun(shell,
1115:System/shell/shell.c ****                                   command,
1116:System/shell/shell.c ****                                   shell->parser.paramCount,
1117:System/shell/shell.c ****                                   shell->parser.param);
1118:System/shell/shell.c ****         if (!command->attr.attrs.disableReturn)
1119:System/shell/shell.c ****         {
1120:System/shell/shell.c ****             shellWriteReturnValue(shell, returnValue);
1121:System/shell/shell.c ****         }
1122:System/shell/shell.c ****     }
1123:System/shell/shell.c ****     else if (command->attr.attrs.type >= SHELL_TYPE_VAR_INT && command->attr.attrs.type <= SHELL_TY
1124:System/shell/shell.c ****     {
1125:System/shell/shell.c ****         shellShowVar(shell, command);
1126:System/shell/shell.c ****     }
1127:System/shell/shell.c ****     else if (command->attr.attrs.type == SHELL_TYPE_USER)
1128:System/shell/shell.c ****     {
1129:System/shell/shell.c ****         shellSetUser(shell, command);
1130:System/shell/shell.c ****     }
1131:System/shell/shell.c ****     shell->status.isActive = 0;
1132:System/shell/shell.c **** 
1133:System/shell/shell.c ****     return returnValue;
ARM GAS  C:\Users\HUAV\AppData\Local\Temp\ccSSjzP1.s 			page 30


1134:System/shell/shell.c **** }
1135:System/shell/shell.c **** 
1136:System/shell/shell.c **** /**
1137:System/shell/shell.c ****  * @brief shell校验密码
1138:System/shell/shell.c ****  *
1139:System/shell/shell.c ****  * @param shell shell对象
1140:System/shell/shell.c ****  */
1141:System/shell/shell.c **** static void shellCheckPassword(Shell *shell)
1142:System/shell/shell.c **** {
1143:System/shell/shell.c ****     if (strcmp(shell->parser.buffer, shell->info.user->data.user.password) == 0)
1144:System/shell/shell.c ****     {
1145:System/shell/shell.c ****         shell->status.isChecked = 1;
1146:System/shell/shell.c **** #if SHELL_SHOW_INFO == 1
1147:System/shell/shell.c ****         shellWriteString(shell, shellText[SHELL_TEXT_INFO]);
1148:System/shell/shell.c **** #endif
1149:System/shell/shell.c ****     }
1150:System/shell/shell.c ****     else
1151:System/shell/shell.c ****     {
1152:System/shell/shell.c ****         shellWriteString(shell, shellText[SHELL_TEXT_PASSWORD_ERROR]);
1153:System/shell/shell.c ****     }
1154:System/shell/shell.c ****     shell->parser.length = 0;
1155:System/shell/shell.c ****     shell->parser.cursor = 0;
1156:System/shell/shell.c **** }
1157:System/shell/shell.c **** 
1158:System/shell/shell.c **** /**
1159:System/shell/shell.c ****  * @brief shell设置用户
1160:System/shell/shell.c ****  *
1161:System/shell/shell.c ****  * @param shell shell对象
1162:System/shell/shell.c ****  * @param user 用户
1163:System/shell/shell.c ****  */
1164:System/shell/shell.c **** static void shellSetUser(Shell *shell, const ShellCommand *user)
1165:System/shell/shell.c **** {
1166:System/shell/shell.c ****     shell->info.user = user;
1167:System/shell/shell.c ****     shell->status.isChecked =
1168:System/shell/shell.c ****         ((user->data.user.password && strlen(user->data.user.password) != 0) && (shell->parser.para
1169:System/shell/shell.c ****             ? 0
1170:System/shell/shell.c ****             : 1;
1171:System/shell/shell.c **** 
1172:System/shell/shell.c **** #if SHELL_CLS_WHEN_LOGIN == 1
1173:System/shell/shell.c ****     shellWriteString(shell, shellText[SHELL_TEXT_CLEAR_CONSOLE]);
1174:System/shell/shell.c **** #endif
1175:System/shell/shell.c **** #if SHELL_SHOW_INFO == 1
1176:System/shell/shell.c ****     if (shell->status.isChecked)
1177:System/shell/shell.c ****     {
1178:System/shell/shell.c ****         shellWriteString(shell, shellText[SHELL_TEXT_INFO]);
1179:System/shell/shell.c ****     }
1180:System/shell/shell.c **** #endif
1181:System/shell/shell.c **** }
1182:System/shell/shell.c **** 
1183:System/shell/shell.c **** /**
1184:System/shell/shell.c ****  * @brief shell写返回值
1185:System/shell/shell.c ****  *
1186:System/shell/shell.c ****  * @param shell shell对象
1187:System/shell/shell.c ****  * @param value 返回值
1188:System/shell/shell.c ****  */
1189:System/shell/shell.c **** static void shellWriteReturnValue(Shell *shell, int value)
1190:System/shell/shell.c **** {
ARM GAS  C:\Users\HUAV\AppData\Local\Temp\ccSSjzP1.s 			page 31


1191:System/shell/shell.c ****     char buffer[12] = "00000000000";
1192:System/shell/shell.c ****     shellWriteString(shell, "Return: ");
1193:System/shell/shell.c ****     shellWriteString(shell, &buffer[11 - shellToDec(value, buffer)]);
1194:System/shell/shell.c ****     shellWriteString(shell, ", 0x");
1195:System/shell/shell.c ****     for (short i = 0; i < 11; i++)
1196:System/shell/shell.c ****     {
1197:System/shell/shell.c ****         buffer[i] = '0';
1198:System/shell/shell.c ****     }
1199:System/shell/shell.c ****     shellToHex(value, buffer);
1200:System/shell/shell.c ****     shellWriteString(shell, buffer);
1201:System/shell/shell.c ****     shellWriteString(shell, "\r\n");
1202:System/shell/shell.c **** }
1203:System/shell/shell.c **** 
1204:System/shell/shell.c **** /**
1205:System/shell/shell.c ****  * @brief shell历史记录添加
1206:System/shell/shell.c ****  *
1207:System/shell/shell.c ****  * @param shell shell对象
1208:System/shell/shell.c ****  */
1209:System/shell/shell.c **** static void shellHistoryAdd(Shell *shell)
1210:System/shell/shell.c **** {
 477              		.loc 1 1210 1 is_stmt 1 view -0
 478              		.cfi_startproc
 479              		@ args = 0, pretend = 0, frame = 0
 480              		@ frame_needed = 0, uses_anonymous_args = 0
 481              		.loc 1 1210 1 is_stmt 0 view .LVU151
 482 0000 10B5     		push	{r4, lr}
 483              	.LCFI3:
 484              		.cfi_def_cfa_offset 8
 485              		.cfi_offset 4, -8
 486              		.cfi_offset 14, -4
 487 0002 0446     		mov	r4, r0
1211:System/shell/shell.c ****     shell->history.offset = 0;
 488              		.loc 1 1211 5 is_stmt 1 view .LVU152
 489              		.loc 1 1211 27 is_stmt 0 view .LVU153
 490 0004 0023     		movs	r3, #0
 491 0006 A0F85430 		strh	r3, [r0, #84]	@ movhi
1212:System/shell/shell.c ****     if (shell->history.number > 0 && strcmp(shell->history.item[(shell->history.record == 0 ? SHELL
 492              		.loc 1 1212 5 is_stmt 1 view .LVU154
 493              		.loc 1 1212 23 is_stmt 0 view .LVU155
 494 000a B0F85030 		ldrh	r3, [r0, #80]
 495              		.loc 1 1212 8 view .LVU156
 496 000e 5BB1     		cbz	r3, .L47
 497              		.loc 1 1212 80 discriminator 1 view .LVU157
 498 0010 B0F85230 		ldrh	r3, [r0, #82]
 499              		.loc 1 1212 145 discriminator 1 view .LVU158
 500 0014 53B3     		cbz	r3, .L52
 501              		.loc 1 1212 145 discriminator 2 view .LVU159
 502 0016 013B     		subs	r3, r3, #1
 503              	.L48:
 504              		.loc 1 1212 64 discriminator 5 view .LVU160
 505 0018 0E33     		adds	r3, r3, #14
 506 001a 04EB8303 		add	r3, r4, r3, lsl #2
 507              		.loc 1 1212 38 discriminator 5 view .LVU161
 508 001e 2169     		ldr	r1, [r4, #16]
 509 0020 5868     		ldr	r0, [r3, #4]
 510              	.LVL49:
 511              		.loc 1 1212 38 discriminator 5 view .LVU162
ARM GAS  C:\Users\HUAV\AppData\Local\Temp\ccSSjzP1.s 			page 32


 512 0022 FFF7FEFF 		bl	strcmp
 513              	.LVL50:
 514              		.loc 1 1212 35 discriminator 5 view .LVU163
 515 0026 00B3     		cbz	r0, .L46
 516              	.L47:
1213:System/shell/shell.c ****                                             shell->parser.buffer) == 0)
1214:System/shell/shell.c ****     {
1215:System/shell/shell.c ****         return;
1216:System/shell/shell.c ****     }
1217:System/shell/shell.c ****     if (shellStringCopy(shell->history.item[shell->history.record],
 517              		.loc 1 1217 5 is_stmt 1 view .LVU164
 518              		.loc 1 1217 59 is_stmt 0 view .LVU165
 519 0028 B4F85230 		ldrh	r3, [r4, #82]
 520              		.loc 1 1217 9 view .LVU166
 521 002c 0E33     		adds	r3, r3, #14
 522 002e 04EB8303 		add	r3, r4, r3, lsl #2
 523 0032 2169     		ldr	r1, [r4, #16]
 524 0034 5868     		ldr	r0, [r3, #4]
 525 0036 FFF7FEFF 		bl	shellStringCopy
 526              	.LVL51:
 527              		.loc 1 1217 8 view .LVU167
 528 003a 20B1     		cbz	r0, .L50
1218:System/shell/shell.c ****                         shell->parser.buffer) != 0)
1219:System/shell/shell.c ****     {
1220:System/shell/shell.c ****         shell->history.record++;
 529              		.loc 1 1220 9 is_stmt 1 view .LVU168
 530              		.loc 1 1220 23 is_stmt 0 view .LVU169
 531 003c B4F85230 		ldrh	r3, [r4, #82]
 532              		.loc 1 1220 30 view .LVU170
 533 0040 0133     		adds	r3, r3, #1
 534 0042 A4F85230 		strh	r3, [r4, #82]	@ movhi
 535              	.L50:
1221:System/shell/shell.c ****     }
1222:System/shell/shell.c ****     if (++shell->history.number > SHELL_HISTORY_MAX_NUMBER)
 536              		.loc 1 1222 5 is_stmt 1 view .LVU171
 537              		.loc 1 1222 25 is_stmt 0 view .LVU172
 538 0046 B4F85030 		ldrh	r3, [r4, #80]
 539              		.loc 1 1222 9 view .LVU173
 540 004a 0133     		adds	r3, r3, #1
 541 004c 9BB2     		uxth	r3, r3
 542              		.loc 1 1222 8 view .LVU174
 543 004e A4F85030 		strh	r3, [r4, #80]	@ movhi
 544 0052 052B     		cmp	r3, #5
 545 0054 02D9     		bls	.L51
1223:System/shell/shell.c ****     {
1224:System/shell/shell.c ****         shell->history.number = SHELL_HISTORY_MAX_NUMBER;
 546              		.loc 1 1224 9 is_stmt 1 view .LVU175
 547              		.loc 1 1224 31 is_stmt 0 view .LVU176
 548 0056 0523     		movs	r3, #5
 549 0058 A4F85030 		strh	r3, [r4, #80]	@ movhi
 550              	.L51:
1225:System/shell/shell.c ****     }
1226:System/shell/shell.c ****     if (shell->history.record >= SHELL_HISTORY_MAX_NUMBER)
 551              		.loc 1 1226 5 is_stmt 1 view .LVU177
 552              		.loc 1 1226 23 is_stmt 0 view .LVU178
 553 005c B4F85230 		ldrh	r3, [r4, #82]
 554              		.loc 1 1226 8 view .LVU179
ARM GAS  C:\Users\HUAV\AppData\Local\Temp\ccSSjzP1.s 			page 33


 555 0060 042B     		cmp	r3, #4
 556 0062 02D9     		bls	.L46
1227:System/shell/shell.c ****     {
1228:System/shell/shell.c ****         shell->history.record = 0;
 557              		.loc 1 1228 9 is_stmt 1 view .LVU180
 558              		.loc 1 1228 31 is_stmt 0 view .LVU181
 559 0064 0023     		movs	r3, #0
 560 0066 A4F85230 		strh	r3, [r4, #82]	@ movhi
 561              	.L46:
1229:System/shell/shell.c ****     }
1230:System/shell/shell.c **** }
 562              		.loc 1 1230 1 view .LVU182
 563 006a 10BD     		pop	{r4, pc}
 564              	.LVL52:
 565              	.L52:
1212:System/shell/shell.c ****                                             shell->parser.buffer) == 0)
 566              		.loc 1 1212 145 view .LVU183
 567 006c 0423     		movs	r3, #4
 568 006e D3E7     		b	.L48
 569              		.cfi_endproc
 570              	.LFE40:
 572              		.section	.text.shellRemoveParamQuotes,"ax",%progbits
 573              		.align	1
 574              		.syntax unified
 575              		.thumb
 576              		.thumb_func
 577              		.fpu fpv5-d16
 579              	shellRemoveParamQuotes:
 580              	.LVL53:
 581              	.LFB30:
 862:System/shell/shell.c ****     unsigned short paramLength;
 582              		.loc 1 862 1 is_stmt 1 view -0
 583              		.cfi_startproc
 584              		@ args = 0, pretend = 0, frame = 0
 585              		@ frame_needed = 0, uses_anonymous_args = 0
 862:System/shell/shell.c ****     unsigned short paramLength;
 586              		.loc 1 862 1 is_stmt 0 view .LVU185
 587 0000 70B5     		push	{r4, r5, r6, lr}
 588              	.LCFI4:
 589              		.cfi_def_cfa_offset 16
 590              		.cfi_offset 4, -16
 591              		.cfi_offset 5, -12
 592              		.cfi_offset 6, -8
 593              		.cfi_offset 14, -4
 594 0002 0546     		mov	r5, r0
 863:System/shell/shell.c ****     for (unsigned short i = 0; i < shell->parser.paramCount; i++)
 595              		.loc 1 863 5 is_stmt 1 view .LVU186
 864:System/shell/shell.c ****     {
 596              		.loc 1 864 5 view .LVU187
 597              	.LBB6:
 864:System/shell/shell.c ****     {
 598              		.loc 1 864 10 view .LVU188
 599              	.LVL54:
 864:System/shell/shell.c ****     {
 600              		.loc 1 864 25 is_stmt 0 view .LVU189
 601 0004 0024     		movs	r4, #0
 864:System/shell/shell.c ****     {
ARM GAS  C:\Users\HUAV\AppData\Local\Temp\ccSSjzP1.s 			page 34


 602              		.loc 1 864 5 view .LVU190
 603 0006 0AE0     		b	.L55
 604              	.LVL55:
 605              	.L61:
 868:System/shell/shell.c ****             shell->parser.param[i] = &shell->parser.param[i][1];
 606              		.loc 1 868 13 is_stmt 1 view .LVU191
 868:System/shell/shell.c ****             shell->parser.param[i] = &shell->parser.param[i][1];
 607              		.loc 1 868 39 is_stmt 0 view .LVU192
 608 0008 0021     		movs	r1, #0
 609 000a 1170     		strb	r1, [r2]
 869:System/shell/shell.c ****         }
 610              		.loc 1 869 13 is_stmt 1 view .LVU193
 869:System/shell/shell.c ****         }
 611              		.loc 1 869 58 is_stmt 0 view .LVU194
 612 000c 221D     		adds	r2, r4, #4
 613 000e 05EB8202 		add	r2, r5, r2, lsl #2
 614 0012 5168     		ldr	r1, [r2, #4]
 869:System/shell/shell.c ****         }
 615              		.loc 1 869 38 view .LVU195
 616 0014 0131     		adds	r1, r1, #1
 869:System/shell/shell.c ****         }
 617              		.loc 1 869 36 view .LVU196
 618 0016 5160     		str	r1, [r2, #4]
 619 0018 0CE0     		b	.L56
 620              	.LVL56:
 621              	.L57:
 864:System/shell/shell.c ****     {
 622              		.loc 1 864 62 is_stmt 1 discriminator 2 view .LVU197
 864:System/shell/shell.c ****     {
 623              		.loc 1 864 63 is_stmt 0 discriminator 2 view .LVU198
 624 001a 0134     		adds	r4, r4, #1
 625              	.LVL57:
 864:System/shell/shell.c ****     {
 626              		.loc 1 864 63 discriminator 2 view .LVU199
 627 001c A4B2     		uxth	r4, r4
 628              	.LVL58:
 629              	.L55:
 864:System/shell/shell.c ****     {
 630              		.loc 1 864 32 is_stmt 1 discriminator 1 view .LVU200
 864:System/shell/shell.c ****     {
 631              		.loc 1 864 49 is_stmt 0 discriminator 1 view .LVU201
 632 001e EB8E     		ldrh	r3, [r5, #54]
 864:System/shell/shell.c ****     {
 633              		.loc 1 864 5 discriminator 1 view .LVU202
 634 0020 A342     		cmp	r3, r4
 635 0022 16D9     		bls	.L60
 866:System/shell/shell.c ****         {
 636              		.loc 1 866 9 is_stmt 1 view .LVU203
 866:System/shell/shell.c ****         {
 637              		.loc 1 866 32 is_stmt 0 view .LVU204
 638 0024 2346     		mov	r3, r4
 639 0026 221D     		adds	r2, r4, #4
 640 0028 05EB8202 		add	r2, r5, r2, lsl #2
 641 002c 5268     		ldr	r2, [r2, #4]
 866:System/shell/shell.c ****         {
 642              		.loc 1 866 35 view .LVU205
 643 002e 1178     		ldrb	r1, [r2]	@ zero_extendqisi2
ARM GAS  C:\Users\HUAV\AppData\Local\Temp\ccSSjzP1.s 			page 35


 866:System/shell/shell.c ****         {
 644              		.loc 1 866 12 view .LVU206
 645 0030 2229     		cmp	r1, #34
 646 0032 E9D0     		beq	.L61
 647              	.L56:
 871:System/shell/shell.c ****         if (shell->parser.param[i][paramLength - 1] == '\"')
 648              		.loc 1 871 9 is_stmt 1 view .LVU207
 871:System/shell/shell.c ****         if (shell->parser.param[i][paramLength - 1] == '\"')
 649              		.loc 1 871 49 is_stmt 0 view .LVU208
 650 0034 0433     		adds	r3, r3, #4
 651 0036 05EB8303 		add	r3, r5, r3, lsl #2
 652 003a 5E68     		ldr	r6, [r3, #4]
 871:System/shell/shell.c ****         if (shell->parser.param[i][paramLength - 1] == '\"')
 653              		.loc 1 871 23 view .LVU209
 654 003c 3046     		mov	r0, r6
 655 003e FFF7FEFF 		bl	strlen
 656              	.LVL59:
 872:System/shell/shell.c ****         {
 657              		.loc 1 872 9 is_stmt 1 view .LVU210
 872:System/shell/shell.c ****         {
 658              		.loc 1 872 35 is_stmt 0 view .LVU211
 659 0042 83B2     		uxth	r3, r0
 660 0044 013B     		subs	r3, r3, #1
 661 0046 F25C     		ldrb	r2, [r6, r3]	@ zero_extendqisi2
 872:System/shell/shell.c ****         {
 662              		.loc 1 872 12 view .LVU212
 663 0048 222A     		cmp	r2, #34
 664 004a E6D1     		bne	.L57
 874:System/shell/shell.c ****         }
 665              		.loc 1 874 13 is_stmt 1 view .LVU213
 874:System/shell/shell.c ****         }
 666              		.loc 1 874 53 is_stmt 0 view .LVU214
 667 004c 0022     		movs	r2, #0
 668 004e F254     		strb	r2, [r6, r3]
 669 0050 E3E7     		b	.L57
 670              	.LVL60:
 671              	.L60:
 874:System/shell/shell.c ****         }
 672              		.loc 1 874 53 view .LVU215
 673              	.LBE6:
 877:System/shell/shell.c **** 
 674              		.loc 1 877 1 view .LVU216
 675 0052 70BD     		pop	{r4, r5, r6, pc}
 877:System/shell/shell.c **** 
 676              		.loc 1 877 1 view .LVU217
 677              		.cfi_endproc
 678              	.LFE30:
 680              		.section	.text.shellGetCurrent,"ax",%progbits
 681              		.align	1
 682              		.global	shellGetCurrent
 683              		.syntax unified
 684              		.thumb
 685              		.thumb_func
 686              		.fpu fpv5-d16
 688              	shellGetCurrent:
 689              	.LFB5:
 228:System/shell/shell.c ****     for (short i = 0; i < SHELL_MAX_NUMBER; i++)
ARM GAS  C:\Users\HUAV\AppData\Local\Temp\ccSSjzP1.s 			page 36


 690              		.loc 1 228 1 is_stmt 1 view -0
 691              		.cfi_startproc
 692              		@ args = 0, pretend = 0, frame = 0
 693              		@ frame_needed = 0, uses_anonymous_args = 0
 694              		@ link register save eliminated.
 229:System/shell/shell.c ****     {
 695              		.loc 1 229 5 view .LVU219
 696              	.LBB7:
 229:System/shell/shell.c ****     {
 697              		.loc 1 229 10 view .LVU220
 698              	.LVL61:
 229:System/shell/shell.c ****     {
 699              		.loc 1 229 16 is_stmt 0 view .LVU221
 700 0000 0023     		movs	r3, #0
 229:System/shell/shell.c ****     {
 701              		.loc 1 229 5 view .LVU222
 702 0002 01E0     		b	.L63
 703              	.LVL62:
 704              	.L64:
 229:System/shell/shell.c ****     {
 705              		.loc 1 229 45 is_stmt 1 discriminator 2 view .LVU223
 229:System/shell/shell.c ****     {
 706              		.loc 1 229 46 is_stmt 0 discriminator 2 view .LVU224
 707 0004 0133     		adds	r3, r3, #1
 708              	.LVL63:
 229:System/shell/shell.c ****     {
 709              		.loc 1 229 46 discriminator 2 view .LVU225
 710 0006 1BB2     		sxth	r3, r3
 711              	.LVL64:
 712              	.L63:
 229:System/shell/shell.c ****     {
 713              		.loc 1 229 23 is_stmt 1 discriminator 1 view .LVU226
 229:System/shell/shell.c ****     {
 714              		.loc 1 229 5 is_stmt 0 discriminator 1 view .LVU227
 715 0008 042B     		cmp	r3, #4
 716 000a 0ADC     		bgt	.L67
 231:System/shell/shell.c ****         {
 717              		.loc 1 231 9 is_stmt 1 view .LVU228
 231:System/shell/shell.c ****         {
 718              		.loc 1 231 22 is_stmt 0 view .LVU229
 719 000c 064A     		ldr	r2, .L68
 720 000e 52F82300 		ldr	r0, [r2, r3, lsl #2]
 231:System/shell/shell.c ****         {
 721              		.loc 1 231 12 view .LVU230
 722 0012 0028     		cmp	r0, #0
 723 0014 F6D0     		beq	.L64
 231:System/shell/shell.c ****         {
 724              		.loc 1 231 26 discriminator 1 view .LVU231
 725 0016 90F86020 		ldrb	r2, [r0, #96]	@ zero_extendqisi2
 726 001a 12F0020F 		tst	r2, #2
 727 001e F1D0     		beq	.L64
 728 0020 00E0     		b	.L62
 729              	.L67:
 730              	.LBE7:
 236:System/shell/shell.c **** }
 731              		.loc 1 236 12 view .LVU232
 732 0022 0020     		movs	r0, #0
ARM GAS  C:\Users\HUAV\AppData\Local\Temp\ccSSjzP1.s 			page 37


 733              	.L62:
 237:System/shell/shell.c **** 
 734              		.loc 1 237 1 view .LVU233
 735 0024 7047     		bx	lr
 736              	.L69:
 737 0026 00BF     		.align	2
 738              	.L68:
 739 0028 00000000 		.word	.LANCHOR0
 740              		.cfi_endproc
 741              	.LFE5:
 743              		.section	.text.shellWriteByte,"ax",%progbits
 744              		.align	1
 745              		.global	shellWriteByte
 746              		.syntax unified
 747              		.thumb
 748              		.thumb_func
 749              		.fpu fpv5-d16
 751              	shellWriteByte:
 752              	.LVL65:
 753              	.LFB6:
 246:System/shell/shell.c ****     shell->write(&data, sizeof(data));
 754              		.loc 1 246 1 is_stmt 1 view -0
 755              		.cfi_startproc
 756              		@ args = 0, pretend = 0, frame = 8
 757              		@ frame_needed = 0, uses_anonymous_args = 0
 246:System/shell/shell.c ****     shell->write(&data, sizeof(data));
 758              		.loc 1 246 1 is_stmt 0 view .LVU235
 759 0000 00B5     		push	{lr}
 760              	.LCFI5:
 761              		.cfi_def_cfa_offset 4
 762              		.cfi_offset 14, -4
 763 0002 83B0     		sub	sp, sp, #12
 764              	.LCFI6:
 765              		.cfi_def_cfa_offset 16
 766 0004 8DF80710 		strb	r1, [sp, #7]
 247:System/shell/shell.c **** }
 767              		.loc 1 247 5 is_stmt 1 view .LVU236
 247:System/shell/shell.c **** }
 768              		.loc 1 247 10 is_stmt 0 view .LVU237
 769 0008 836E     		ldr	r3, [r0, #104]
 247:System/shell/shell.c **** }
 770              		.loc 1 247 5 view .LVU238
 771 000a 0121     		movs	r1, #1
 772              	.LVL66:
 247:System/shell/shell.c **** }
 773              		.loc 1 247 5 view .LVU239
 774 000c 0DF10700 		add	r0, sp, #7
 775              	.LVL67:
 247:System/shell/shell.c **** }
 776              		.loc 1 247 5 view .LVU240
 777 0010 9847     		blx	r3
 778              	.LVL68:
 248:System/shell/shell.c **** 
 779              		.loc 1 248 1 view .LVU241
 780 0012 03B0     		add	sp, sp, #12
 781              	.LCFI7:
 782              		.cfi_def_cfa_offset 4
ARM GAS  C:\Users\HUAV\AppData\Local\Temp\ccSSjzP1.s 			page 38


 783              		@ sp needed
 784 0014 5DF804FB 		ldr	pc, [sp], #4
 785              		.cfi_endproc
 786              	.LFE6:
 788              		.section	.text.shellRight,"ax",%progbits
 789              		.align	1
 790              		.global	shellRight
 791              		.syntax unified
 792              		.thumb
 793              		.thumb_func
 794              		.fpu fpv5-d16
 796              	shellRight:
 797              	.LVL69:
 798              	.LFB46:
1231:System/shell/shell.c **** 
1232:System/shell/shell.c **** /**
1233:System/shell/shell.c ****  * @brief shell历史记录查找
1234:System/shell/shell.c ****  *
1235:System/shell/shell.c ****  * @param shell shell对象
1236:System/shell/shell.c ****  * @param dir 方向 {@code <0}往上查找 {@code >0}往下查找
1237:System/shell/shell.c ****  */
1238:System/shell/shell.c **** static void shellHistory(Shell *shell, signed char dir)
1239:System/shell/shell.c **** {
1240:System/shell/shell.c ****     if (dir > 0)
1241:System/shell/shell.c ****     {
1242:System/shell/shell.c ****         if (shell->history.offset-- <=
1243:System/shell/shell.c ****             -((shell->history.number > shell->history.record) ? shell->history.number : shell->hist
1244:System/shell/shell.c ****         {
1245:System/shell/shell.c ****             shell->history.offset = -((shell->history.number > shell->history.record)
1246:System/shell/shell.c ****                                           ? shell->history.number
1247:System/shell/shell.c ****                                           : shell->history.record);
1248:System/shell/shell.c ****         }
1249:System/shell/shell.c ****     }
1250:System/shell/shell.c ****     else if (dir < 0)
1251:System/shell/shell.c ****     {
1252:System/shell/shell.c ****         if (++shell->history.offset > 0)
1253:System/shell/shell.c ****         {
1254:System/shell/shell.c ****             shell->history.offset = 0;
1255:System/shell/shell.c ****             return;
1256:System/shell/shell.c ****         }
1257:System/shell/shell.c ****     }
1258:System/shell/shell.c ****     else
1259:System/shell/shell.c ****     {
1260:System/shell/shell.c ****         return;
1261:System/shell/shell.c ****     }
1262:System/shell/shell.c ****     shellClearCommandLine(shell);
1263:System/shell/shell.c ****     if (shell->history.offset == 0)
1264:System/shell/shell.c ****     {
1265:System/shell/shell.c ****         shell->parser.cursor = shell->parser.length = 0;
1266:System/shell/shell.c ****     }
1267:System/shell/shell.c ****     else
1268:System/shell/shell.c ****     {
1269:System/shell/shell.c ****         if ((shell->parser.length = shellStringCopy(shell->parser.buffer,
1270:System/shell/shell.c ****                                                     shell->history.item[(shell->history.record + SH
1271:System/shell/shell.c ****         {
1272:System/shell/shell.c ****             return;
1273:System/shell/shell.c ****         }
ARM GAS  C:\Users\HUAV\AppData\Local\Temp\ccSSjzP1.s 			page 39


1274:System/shell/shell.c ****         shell->parser.cursor = shell->parser.length;
1275:System/shell/shell.c ****         shellWriteString(shell, shell->parser.buffer);
1276:System/shell/shell.c ****     }
1277:System/shell/shell.c **** }
1278:System/shell/shell.c **** 
1279:System/shell/shell.c **** /**
1280:System/shell/shell.c ****  * @brief shell 常规输入
1281:System/shell/shell.c ****  *
1282:System/shell/shell.c ****  * @param shell shell 对象
1283:System/shell/shell.c ****  * @param data 输入字符
1284:System/shell/shell.c ****  */
1285:System/shell/shell.c **** void shellNormalInput(Shell *shell, char data)
1286:System/shell/shell.c **** {
1287:System/shell/shell.c ****     shell->status.tabFlag = 0;
1288:System/shell/shell.c ****     shellInsertByte(shell, data);
1289:System/shell/shell.c **** }
1290:System/shell/shell.c **** 
1291:System/shell/shell.c **** /**
1292:System/shell/shell.c ****  * @brief shell运行命令
1293:System/shell/shell.c ****  *
1294:System/shell/shell.c ****  * @param shell shell对象
1295:System/shell/shell.c ****  */
1296:System/shell/shell.c **** void shellExec(Shell *shell)
1297:System/shell/shell.c **** {
1298:System/shell/shell.c **** 
1299:System/shell/shell.c ****     if (shell->parser.length == 0)
1300:System/shell/shell.c ****     {
1301:System/shell/shell.c ****         return;
1302:System/shell/shell.c ****     }
1303:System/shell/shell.c **** 
1304:System/shell/shell.c ****     shell->parser.buffer[shell->parser.length] = 0;
1305:System/shell/shell.c **** 
1306:System/shell/shell.c ****     if (shell->status.isChecked)
1307:System/shell/shell.c ****     {
1308:System/shell/shell.c ****         shellHistoryAdd(shell);
1309:System/shell/shell.c ****         shellParserParam(shell);
1310:System/shell/shell.c ****         shell->parser.length = shell->parser.cursor = 0;
1311:System/shell/shell.c ****         if (shell->parser.paramCount == 0)
1312:System/shell/shell.c ****         {
1313:System/shell/shell.c ****             return;
1314:System/shell/shell.c ****         }
1315:System/shell/shell.c ****         shellWriteString(shell, "\r\n");
1316:System/shell/shell.c **** 
1317:System/shell/shell.c ****         ShellCommand *command = shellSeekCommand(shell,
1318:System/shell/shell.c ****                                                  shell->parser.param[0],
1319:System/shell/shell.c ****                                                  shell->commandList.base,
1320:System/shell/shell.c ****                                                  0);
1321:System/shell/shell.c ****         if (command != NULL)
1322:System/shell/shell.c ****         {
1323:System/shell/shell.c ****             shellRunCommand(shell, command);
1324:System/shell/shell.c ****         }
1325:System/shell/shell.c ****         else
1326:System/shell/shell.c ****         {
1327:System/shell/shell.c ****             shellWriteString(shell, shellText[SHELL_TEXT_CMD_NOT_FOUND]);
1328:System/shell/shell.c ****         }
1329:System/shell/shell.c ****     }
1330:System/shell/shell.c ****     else
ARM GAS  C:\Users\HUAV\AppData\Local\Temp\ccSSjzP1.s 			page 40


1331:System/shell/shell.c ****     {
1332:System/shell/shell.c ****         shellCheckPassword(shell);
1333:System/shell/shell.c ****     }
1334:System/shell/shell.c **** }
1335:System/shell/shell.c **** 
1336:System/shell/shell.c **** /**
1337:System/shell/shell.c ****  * @brief shell上方向键输入
1338:System/shell/shell.c ****  *
1339:System/shell/shell.c ****  * @param shell shell对象
1340:System/shell/shell.c ****  */
1341:System/shell/shell.c **** void shellUp(Shell *shell)
1342:System/shell/shell.c **** {
1343:System/shell/shell.c ****     shellHistory(shell, 1);
1344:System/shell/shell.c **** }
1345:System/shell/shell.c **** SHELL_EXPORT_KEY(SHELL_CMD_PERMISSION(0), 0x1B5B4100, shellUp, up);
1346:System/shell/shell.c **** 
1347:System/shell/shell.c **** /**
1348:System/shell/shell.c ****  * @brief shell下方向键输入
1349:System/shell/shell.c ****  *
1350:System/shell/shell.c ****  * @param shell shell对象
1351:System/shell/shell.c ****  */
1352:System/shell/shell.c **** void shellDown(Shell *shell)
1353:System/shell/shell.c **** {
1354:System/shell/shell.c ****     shellHistory(shell, -1);
1355:System/shell/shell.c **** }
1356:System/shell/shell.c **** SHELL_EXPORT_KEY(SHELL_CMD_PERMISSION(0), 0x1B5B4200, shellDown, down);
1357:System/shell/shell.c **** 
1358:System/shell/shell.c **** /**
1359:System/shell/shell.c ****  * @brief shell右方向键输入
1360:System/shell/shell.c ****  *
1361:System/shell/shell.c ****  * @param shell shell对象
1362:System/shell/shell.c ****  */
1363:System/shell/shell.c **** void shellRight(Shell *shell)
1364:System/shell/shell.c **** {
 799              		.loc 1 1364 1 is_stmt 1 view -0
 800              		.cfi_startproc
 801              		@ args = 0, pretend = 0, frame = 0
 802              		@ frame_needed = 0, uses_anonymous_args = 0
 803              		.loc 1 1364 1 is_stmt 0 view .LVU243
 804 0000 08B5     		push	{r3, lr}
 805              	.LCFI8:
 806              		.cfi_def_cfa_offset 8
 807              		.cfi_offset 3, -8
 808              		.cfi_offset 14, -4
1365:System/shell/shell.c ****     if (shell->parser.cursor < shell->parser.length)
 809              		.loc 1 1365 5 is_stmt 1 view .LVU244
 810              		.loc 1 1365 22 is_stmt 0 view .LVU245
 811 0002 C389     		ldrh	r3, [r0, #14]
 812              		.loc 1 1365 45 view .LVU246
 813 0004 8289     		ldrh	r2, [r0, #12]
 814              		.loc 1 1365 8 view .LVU247
 815 0006 9342     		cmp	r3, r2
 816 0008 00D3     		bcc	.L75
 817              	.LVL70:
 818              	.L72:
1366:System/shell/shell.c ****     {
1367:System/shell/shell.c ****         shellWriteByte(shell, shell->parser.buffer[shell->parser.cursor++]);
ARM GAS  C:\Users\HUAV\AppData\Local\Temp\ccSSjzP1.s 			page 41


1368:System/shell/shell.c ****     }
1369:System/shell/shell.c **** }
 819              		.loc 1 1369 1 view .LVU248
 820 000a 08BD     		pop	{r3, pc}
 821              	.LVL71:
 822              	.L75:
1367:System/shell/shell.c ****     }
 823              		.loc 1 1367 9 is_stmt 1 view .LVU249
1367:System/shell/shell.c ****     }
 824              		.loc 1 1367 44 is_stmt 0 view .LVU250
 825 000c 0269     		ldr	r2, [r0, #16]
1367:System/shell/shell.c ****     }
 826              		.loc 1 1367 72 view .LVU251
 827 000e 591C     		adds	r1, r3, #1
 828 0010 C181     		strh	r1, [r0, #14]	@ movhi
1367:System/shell/shell.c ****     }
 829              		.loc 1 1367 9 view .LVU252
 830 0012 D15C     		ldrb	r1, [r2, r3]	@ zero_extendqisi2
 831 0014 FFF7FEFF 		bl	shellWriteByte
 832              	.LVL72:
 833              		.loc 1 1369 1 view .LVU253
 834 0018 F7E7     		b	.L72
 835              		.cfi_endproc
 836              	.LFE46:
 838              		.section	.text.shellLeft,"ax",%progbits
 839              		.align	1
 840              		.global	shellLeft
 841              		.syntax unified
 842              		.thumb
 843              		.thumb_func
 844              		.fpu fpv5-d16
 846              	shellLeft:
 847              	.LVL73:
 848              	.LFB47:
1370:System/shell/shell.c **** SHELL_EXPORT_KEY(SHELL_CMD_PERMISSION(0) | SHELL_CMD_ENABLE_UNCHECKED,
1371:System/shell/shell.c ****                  0x1B5B4300, shellRight, right);
1372:System/shell/shell.c **** 
1373:System/shell/shell.c **** /**
1374:System/shell/shell.c ****  * @brief shell左方向键输入
1375:System/shell/shell.c ****  *
1376:System/shell/shell.c ****  * @param shell shell对象
1377:System/shell/shell.c ****  */
1378:System/shell/shell.c **** void shellLeft(Shell *shell)
1379:System/shell/shell.c **** {
 849              		.loc 1 1379 1 is_stmt 1 view -0
 850              		.cfi_startproc
 851              		@ args = 0, pretend = 0, frame = 0
 852              		@ frame_needed = 0, uses_anonymous_args = 0
1380:System/shell/shell.c ****     if (shell->parser.cursor > 0)
 853              		.loc 1 1380 5 view .LVU255
 854              		.loc 1 1380 22 is_stmt 0 view .LVU256
 855 0000 C389     		ldrh	r3, [r0, #14]
 856              		.loc 1 1380 8 view .LVU257
 857 0002 03B9     		cbnz	r3, .L82
 858 0004 7047     		bx	lr
 859              	.L82:
1379:System/shell/shell.c ****     if (shell->parser.cursor > 0)
ARM GAS  C:\Users\HUAV\AppData\Local\Temp\ccSSjzP1.s 			page 42


 860              		.loc 1 1379 1 view .LVU258
 861 0006 10B5     		push	{r4, lr}
 862              	.LCFI9:
 863              		.cfi_def_cfa_offset 8
 864              		.cfi_offset 4, -8
 865              		.cfi_offset 14, -4
 866 0008 0446     		mov	r4, r0
1381:System/shell/shell.c ****     {
1382:System/shell/shell.c ****         shellWriteByte(shell, '\b');
 867              		.loc 1 1382 9 is_stmt 1 view .LVU259
 868 000a 0821     		movs	r1, #8
 869 000c FFF7FEFF 		bl	shellWriteByte
 870              	.LVL74:
1383:System/shell/shell.c ****         shell->parser.cursor--;
 871              		.loc 1 1383 9 view .LVU260
 872              		.loc 1 1383 22 is_stmt 0 view .LVU261
 873 0010 E389     		ldrh	r3, [r4, #14]
 874              		.loc 1 1383 29 view .LVU262
 875 0012 013B     		subs	r3, r3, #1
 876 0014 E381     		strh	r3, [r4, #14]	@ movhi
1384:System/shell/shell.c ****     }
1385:System/shell/shell.c **** }
 877              		.loc 1 1385 1 view .LVU263
 878 0016 10BD     		pop	{r4, pc}
 879              		.loc 1 1385 1 view .LVU264
 880              		.cfi_endproc
 881              	.LFE47:
 883              		.section	.text.shellWriteString,"ax",%progbits
 884              		.align	1
 885              		.global	shellWriteString
 886              		.syntax unified
 887              		.thumb
 888              		.thumb_func
 889              		.fpu fpv5-d16
 891              	shellWriteString:
 892              	.LVL75:
 893              	.LFB7:
 259:System/shell/shell.c ****     unsigned short count = 0;
 894              		.loc 1 259 1 is_stmt 1 view -0
 895              		.cfi_startproc
 896              		@ args = 0, pretend = 0, frame = 0
 897              		@ frame_needed = 0, uses_anonymous_args = 0
 259:System/shell/shell.c ****     unsigned short count = 0;
 898              		.loc 1 259 1 is_stmt 0 view .LVU266
 899 0000 38B5     		push	{r3, r4, r5, lr}
 900              	.LCFI10:
 901              		.cfi_def_cfa_offset 16
 902              		.cfi_offset 3, -16
 903              		.cfi_offset 4, -12
 904              		.cfi_offset 5, -8
 905              		.cfi_offset 14, -4
 260:System/shell/shell.c ****     SHELL_ASSERT(shell->write, return 0);
 906              		.loc 1 260 5 is_stmt 1 view .LVU267
 907              	.LVL76:
 261:System/shell/shell.c **** 
 908              		.loc 1 261 5 view .LVU268
 909 0002 856E     		ldr	r5, [r0, #104]
ARM GAS  C:\Users\HUAV\AppData\Local\Temp\ccSSjzP1.s 			page 43


 910 0004 35B1     		cbz	r5, .L84
 911 0006 0C46     		mov	r4, r1
 261:System/shell/shell.c **** 
 912              		.loc 1 261 41 discriminator 2 view .LVU269
 263:System/shell/shell.c ****     return count;
 913              		.loc 1 263 5 discriminator 2 view .LVU270
 263:System/shell/shell.c ****     return count;
 914              		.loc 1 263 26 is_stmt 0 discriminator 2 view .LVU271
 915 0008 0846     		mov	r0, r1
 916              	.LVL77:
 263:System/shell/shell.c ****     return count;
 917              		.loc 1 263 26 discriminator 2 view .LVU272
 918 000a FFF7FEFF 		bl	strlen
 919              	.LVL78:
 263:System/shell/shell.c ****     return count;
 920              		.loc 1 263 5 discriminator 2 view .LVU273
 921 000e 81B2     		uxth	r1, r0
 922 0010 2046     		mov	r0, r4
 923 0012 A847     		blx	r5
 924              	.LVL79:
 264:System/shell/shell.c **** }
 925              		.loc 1 264 5 is_stmt 1 discriminator 2 view .LVU274
 926              	.L84:
 265:System/shell/shell.c **** 
 927              		.loc 1 265 1 is_stmt 0 view .LVU275
 928 0014 0020     		movs	r0, #0
 929 0016 38BD     		pop	{r3, r4, r5, pc}
 930              		.cfi_endproc
 931              	.LFE7:
 933              		.section	.rodata.shellSetUser.str1.4,"aMS",%progbits,1
 934              		.align	2
 935              	.LC0:
 936 0000 1B5B324A 		.ascii	"\033[2J\033[1H\000"
 936      1B5B3148 
 936      00
 937 0009 000000   		.align	2
 938              	.LC1:
 939 000c 0D0A0D0A 		.ascii	"\015\012\015\012/************  BitRtos  ***********"
 939      2F2A2A2A 
 939      2A2A2A2A 
 939      2A2A2A2A 
 939      2A202042 
 940 0033 2A5C720A 		.ascii	"*\\r\012\015\012Team Mate:        8_B!T0\015\012   "
 940      0D0A5465 
 940      616D204D 
 940      6174653A 
 940      20202020 
 941 0056 20202020 		.ascii	"               WHY\015\012\015\012Build:           "
 941      20202020 
 941      20202020 
 941      20202057 
 941      48590D0A 
 942 007d 204A756E 		.ascii	" Jun 15 2023 17:30:44\015\012Shell   Version:  3.0."
 942      20313520 
 942      32303233 
 942      2031373A 
 942      33303A34 
ARM GAS  C:\Users\HUAV\AppData\Local\Temp\ccSSjzP1.s 			page 44


 943 00aa 360D0A00 		.ascii	"6\015\012\000"
 944              		.section	.text.shellSetUser,"ax",%progbits
 945              		.align	1
 946              		.syntax unified
 947              		.thumb
 948              		.thumb_func
 949              		.fpu fpv5-d16
 951              	shellSetUser:
 952              	.LVL80:
 953              	.LFB38:
1165:System/shell/shell.c ****     shell->info.user = user;
 954              		.loc 1 1165 1 is_stmt 1 view -0
 955              		.cfi_startproc
 956              		@ args = 0, pretend = 0, frame = 0
 957              		@ frame_needed = 0, uses_anonymous_args = 0
1165:System/shell/shell.c ****     shell->info.user = user;
 958              		.loc 1 1165 1 is_stmt 0 view .LVU277
 959 0000 10B5     		push	{r4, lr}
 960              	.LCFI11:
 961              		.cfi_def_cfa_offset 8
 962              		.cfi_offset 4, -8
 963              		.cfi_offset 14, -4
 964 0002 0446     		mov	r4, r0
1166:System/shell/shell.c ****     shell->status.isChecked =
 965              		.loc 1 1166 5 is_stmt 1 view .LVU278
1166:System/shell/shell.c ****     shell->status.isChecked =
 966              		.loc 1 1166 22 is_stmt 0 view .LVU279
 967 0004 0160     		str	r1, [r0]
1167:System/shell/shell.c ****         ((user->data.user.password && strlen(user->data.user.password) != 0) && (shell->parser.para
 968              		.loc 1 1167 5 is_stmt 1 view .LVU280
1168:System/shell/shell.c ****             ? 0
 969              		.loc 1 1168 26 is_stmt 0 view .LVU281
 970 0006 8868     		ldr	r0, [r1, #8]
 971              	.LVL81:
1170:System/shell/shell.c **** 
 972              		.loc 1 1170 13 view .LVU282
 973 0008 50B1     		cbz	r0, .L89
1168:System/shell/shell.c ****             ? 0
 974              		.loc 1 1168 72 view .LVU283
 975 000a 0378     		ldrb	r3, [r0]	@ zero_extendqisi2
1168:System/shell/shell.c ****             ? 0
 976              		.loc 1 1168 36 view .LVU284
 977 000c 53B1     		cbz	r3, .L90
1168:System/shell/shell.c ****             ? 0
 978              		.loc 1 1168 95 discriminator 1 view .LVU285
 979 000e E38E     		ldrh	r3, [r4, #54]
1170:System/shell/shell.c **** 
 980              		.loc 1 1170 13 discriminator 1 view .LVU286
 981 0010 012B     		cmp	r3, #1
 982 0012 18D9     		bls	.L91
1168:System/shell/shell.c ****             ? 0
 983              		.loc 1 1168 114 view .LVU287
 984 0014 A169     		ldr	r1, [r4, #24]
 985              	.LVL82:
1168:System/shell/shell.c ****             ? 0
 986              		.loc 1 1168 114 view .LVU288
 987 0016 FFF7FEFF 		bl	strcmp
ARM GAS  C:\Users\HUAV\AppData\Local\Temp\ccSSjzP1.s 			page 45


 988              	.LVL83:
1168:System/shell/shell.c ****             ? 0
 989              		.loc 1 1168 111 view .LVU289
 990 001a B0B1     		cbz	r0, .L92
1170:System/shell/shell.c **** 
 991              		.loc 1 1170 13 view .LVU290
 992 001c 0022     		movs	r2, #0
 993 001e 02E0     		b	.L87
 994              	.LVL84:
 995              	.L89:
1170:System/shell/shell.c **** 
 996              		.loc 1 1170 13 view .LVU291
 997 0020 0122     		movs	r2, #1
 998 0022 00E0     		b	.L87
 999              	.L90:
 1000 0024 0122     		movs	r2, #1
 1001              	.LVL85:
 1002              	.L87:
1167:System/shell/shell.c ****         ((user->data.user.password && strlen(user->data.user.password) != 0) && (shell->parser.para
 1003              		.loc 1 1167 29 discriminator 4 view .LVU292
 1004 0026 94F86030 		ldrb	r3, [r4, #96]	@ zero_extendqisi2
 1005 002a 62F30003 		bfi	r3, r2, #0, #1
 1006 002e 84F86030 		strb	r3, [r4, #96]
1173:System/shell/shell.c **** #endif
 1007              		.loc 1 1173 5 is_stmt 1 discriminator 4 view .LVU293
 1008 0032 0949     		ldr	r1, .L95
 1009 0034 2046     		mov	r0, r4
 1010 0036 FFF7FEFF 		bl	shellWriteString
 1011              	.LVL86:
1176:System/shell/shell.c ****     {
 1012              		.loc 1 1176 5 discriminator 4 view .LVU294
1176:System/shell/shell.c ****     {
 1013              		.loc 1 1176 9 is_stmt 0 discriminator 4 view .LVU295
 1014 003a 94F86030 		ldrb	r3, [r4, #96]	@ zero_extendqisi2
1176:System/shell/shell.c ****     {
 1015              		.loc 1 1176 8 discriminator 4 view .LVU296
 1016 003e 13F0010F 		tst	r3, #1
 1017 0042 04D1     		bne	.L94
 1018              	.L86:
1181:System/shell/shell.c **** 
 1019              		.loc 1 1181 1 view .LVU297
 1020 0044 10BD     		pop	{r4, pc}
 1021              	.LVL87:
 1022              	.L91:
1170:System/shell/shell.c **** 
 1023              		.loc 1 1170 13 view .LVU298
 1024 0046 0022     		movs	r2, #0
 1025 0048 EDE7     		b	.L87
 1026              	.LVL88:
 1027              	.L92:
1170:System/shell/shell.c **** 
 1028              		.loc 1 1170 13 view .LVU299
 1029 004a 0122     		movs	r2, #1
 1030 004c EBE7     		b	.L87
 1031              	.L94:
1178:System/shell/shell.c ****     }
 1032              		.loc 1 1178 9 is_stmt 1 view .LVU300
ARM GAS  C:\Users\HUAV\AppData\Local\Temp\ccSSjzP1.s 			page 46


 1033 004e 0349     		ldr	r1, .L95+4
 1034 0050 2046     		mov	r0, r4
 1035 0052 FFF7FEFF 		bl	shellWriteString
 1036              	.LVL89:
1181:System/shell/shell.c **** 
 1037              		.loc 1 1181 1 is_stmt 0 view .LVU301
 1038 0056 F5E7     		b	.L86
 1039              	.L96:
 1040              		.align	2
 1041              	.L95:
 1042 0058 00000000 		.word	.LC0
 1043 005c 0C000000 		.word	.LC1
 1044              		.cfi_endproc
 1045              	.LFE38:
 1047              		.section	.rodata.shellWriteCommandLine.str1.4,"aMS",%progbits,1
 1048              		.align	2
 1049              	.LC2:
 1050 0000 2F00     		.ascii	"/\000"
 1051 0002 0000     		.align	2
 1052              	.LC3:
 1053 0004 0D0A00   		.ascii	"\015\012\000"
 1054 0007 00       		.align	2
 1055              	.LC4:
 1056 0008 3A00     		.ascii	":\000"
 1057 000a 0000     		.align	2
 1058              	.LC5:
 1059 000c 242000   		.ascii	"$ \000"
 1060 000f 00       		.align	2
 1061              	.LC6:
 1062 0010 0D0A506C 		.ascii	"\015\012Please input password:\000"
 1062      65617365 
 1062      20696E70 
 1062      75742070 
 1062      61737377 
 1063              		.section	.text.shellWriteCommandLine,"ax",%progbits
 1064              		.align	1
 1065              		.syntax unified
 1066              		.thumb
 1067              		.thumb_func
 1068              		.fpu fpv5-d16
 1070              	shellWriteCommandLine:
 1071              	.LVL90:
 1072              	.LFB9:
 302:System/shell/shell.c ****     if (shell->status.isChecked)
 1073              		.loc 1 302 1 is_stmt 1 view -0
 1074              		.cfi_startproc
 1075              		@ args = 0, pretend = 0, frame = 0
 1076              		@ frame_needed = 0, uses_anonymous_args = 0
 302:System/shell/shell.c ****     if (shell->status.isChecked)
 1077              		.loc 1 302 1 is_stmt 0 view .LVU303
 1078 0000 10B5     		push	{r4, lr}
 1079              	.LCFI12:
 1080              		.cfi_def_cfa_offset 8
 1081              		.cfi_offset 4, -8
 1082              		.cfi_offset 14, -4
 1083 0002 0446     		mov	r4, r0
 303:System/shell/shell.c ****     {
ARM GAS  C:\Users\HUAV\AppData\Local\Temp\ccSSjzP1.s 			page 47


 1084              		.loc 1 303 5 is_stmt 1 view .LVU304
 303:System/shell/shell.c ****     {
 1085              		.loc 1 303 9 is_stmt 0 view .LVU305
 1086 0004 90F86030 		ldrb	r3, [r0, #96]	@ zero_extendqisi2
 303:System/shell/shell.c ****     {
 1087              		.loc 1 303 8 view .LVU306
 1088 0008 13F0010F 		tst	r3, #1
 1089 000c 19D0     		beq	.L98
 305:System/shell/shell.c ****         {
 1090              		.loc 1 305 9 is_stmt 1 view .LVU307
 305:System/shell/shell.c ****         {
 1091              		.loc 1 305 12 is_stmt 0 view .LVU308
 1092 000e 91B9     		cbnz	r1, .L103
 1093              	.LVL91:
 1094              	.L99:
 309:System/shell/shell.c ****         shellWriteString(shell, ":");
 1095              		.loc 1 309 9 is_stmt 1 view .LVU309
 309:System/shell/shell.c ****         shellWriteString(shell, ":");
 1096              		.loc 1 309 44 is_stmt 0 view .LVU310
 1097 0010 2368     		ldr	r3, [r4]
 309:System/shell/shell.c ****         shellWriteString(shell, ":");
 1098              		.loc 1 309 9 view .LVU311
 1099 0012 5968     		ldr	r1, [r3, #4]
 1100 0014 2046     		mov	r0, r4
 1101 0016 FFF7FEFF 		bl	shellWriteString
 1102              	.LVL92:
 310:System/shell/shell.c ****         shellWriteString(shell, shell->info.path ? shell->info.path : "/");
 1103              		.loc 1 310 9 is_stmt 1 view .LVU312
 1104 001a 0C49     		ldr	r1, .L105
 1105 001c 2046     		mov	r0, r4
 1106 001e FFF7FEFF 		bl	shellWriteString
 1107              	.LVL93:
 311:System/shell/shell.c ****         shellWriteString(shell, "$ ");
 1108              		.loc 1 311 9 view .LVU313
 311:System/shell/shell.c ****         shellWriteString(shell, "$ ");
 1109              		.loc 1 311 44 is_stmt 0 view .LVU314
 1110 0022 A168     		ldr	r1, [r4, #8]
 311:System/shell/shell.c ****         shellWriteString(shell, "$ ");
 1111              		.loc 1 311 9 view .LVU315
 1112 0024 59B1     		cbz	r1, .L104
 1113              	.L100:
 311:System/shell/shell.c ****         shellWriteString(shell, "$ ");
 1114              		.loc 1 311 9 discriminator 4 view .LVU316
 1115 0026 2046     		mov	r0, r4
 1116 0028 FFF7FEFF 		bl	shellWriteString
 1117              	.LVL94:
 312:System/shell/shell.c ****     }
 1118              		.loc 1 312 9 is_stmt 1 discriminator 4 view .LVU317
 1119 002c 0849     		ldr	r1, .L105+4
 1120 002e 2046     		mov	r0, r4
 1121 0030 FFF7FEFF 		bl	shellWriteString
 1122              	.LVL95:
 1123              	.L97:
 318:System/shell/shell.c **** 
 1124              		.loc 1 318 1 is_stmt 0 view .LVU318
 1125 0034 10BD     		pop	{r4, pc}
 1126              	.LVL96:
ARM GAS  C:\Users\HUAV\AppData\Local\Temp\ccSSjzP1.s 			page 48


 1127              	.L103:
 307:System/shell/shell.c ****         }
 1128              		.loc 1 307 13 is_stmt 1 view .LVU319
 1129 0036 0749     		ldr	r1, .L105+8
 1130              	.LVL97:
 307:System/shell/shell.c ****         }
 1131              		.loc 1 307 13 is_stmt 0 view .LVU320
 1132 0038 FFF7FEFF 		bl	shellWriteString
 1133              	.LVL98:
 307:System/shell/shell.c ****         }
 1134              		.loc 1 307 13 view .LVU321
 1135 003c E8E7     		b	.L99
 1136              	.L104:
 311:System/shell/shell.c ****         shellWriteString(shell, "$ ");
 1137              		.loc 1 311 9 view .LVU322
 1138 003e 0649     		ldr	r1, .L105+12
 1139 0040 F1E7     		b	.L100
 1140              	.LVL99:
 1141              	.L98:
 316:System/shell/shell.c ****     }
 1142              		.loc 1 316 9 is_stmt 1 view .LVU323
 1143 0042 0649     		ldr	r1, .L105+16
 1144              	.LVL100:
 316:System/shell/shell.c ****     }
 1145              		.loc 1 316 9 is_stmt 0 view .LVU324
 1146 0044 FFF7FEFF 		bl	shellWriteString
 1147              	.LVL101:
 318:System/shell/shell.c **** 
 1148              		.loc 1 318 1 view .LVU325
 1149 0048 F4E7     		b	.L97
 1150              	.L106:
 1151 004a 00BF     		.align	2
 1152              	.L105:
 1153 004c 08000000 		.word	.LC4
 1154 0050 0C000000 		.word	.LC5
 1155 0054 04000000 		.word	.LC3
 1156 0058 00000000 		.word	.LC2
 1157 005c 10000000 		.word	.LC6
 1158              		.cfi_endproc
 1159              	.LFE9:
 1161              		.section	.rodata.shellCheckPassword.str1.4,"aMS",%progbits,1
 1162              		.align	2
 1163              	.LC7:
 1164 0000 0D0A7061 		.ascii	"\015\012password error\015\012\000"
 1164      7373776F 
 1164      72642065 
 1164      72726F72 
 1164      0D0A00
 1165              		.section	.text.shellCheckPassword,"ax",%progbits
 1166              		.align	1
 1167              		.syntax unified
 1168              		.thumb
 1169              		.thumb_func
 1170              		.fpu fpv5-d16
 1172              	shellCheckPassword:
 1173              	.LVL102:
 1174              	.LFB37:
ARM GAS  C:\Users\HUAV\AppData\Local\Temp\ccSSjzP1.s 			page 49


1142:System/shell/shell.c ****     if (strcmp(shell->parser.buffer, shell->info.user->data.user.password) == 0)
 1175              		.loc 1 1142 1 is_stmt 1 view -0
 1176              		.cfi_startproc
 1177              		@ args = 0, pretend = 0, frame = 0
 1178              		@ frame_needed = 0, uses_anonymous_args = 0
1142:System/shell/shell.c ****     if (strcmp(shell->parser.buffer, shell->info.user->data.user.password) == 0)
 1179              		.loc 1 1142 1 is_stmt 0 view .LVU327
 1180 0000 10B5     		push	{r4, lr}
 1181              	.LCFI13:
 1182              		.cfi_def_cfa_offset 8
 1183              		.cfi_offset 4, -8
 1184              		.cfi_offset 14, -4
 1185 0002 0446     		mov	r4, r0
1143:System/shell/shell.c ****     {
 1186              		.loc 1 1143 5 is_stmt 1 view .LVU328
1143:System/shell/shell.c ****     {
 1187              		.loc 1 1143 49 is_stmt 0 view .LVU329
 1188 0004 0368     		ldr	r3, [r0]
1143:System/shell/shell.c ****     {
 1189              		.loc 1 1143 9 view .LVU330
 1190 0006 9968     		ldr	r1, [r3, #8]
 1191 0008 0069     		ldr	r0, [r0, #16]
 1192              	.LVL103:
1143:System/shell/shell.c ****     {
 1193              		.loc 1 1143 9 view .LVU331
 1194 000a FFF7FEFF 		bl	strcmp
 1195              	.LVL104:
1143:System/shell/shell.c ****     {
 1196              		.loc 1 1143 8 view .LVU332
 1197 000e 68B9     		cbnz	r0, .L108
1145:System/shell/shell.c **** #if SHELL_SHOW_INFO == 1
 1198              		.loc 1 1145 9 is_stmt 1 view .LVU333
1145:System/shell/shell.c **** #if SHELL_SHOW_INFO == 1
 1199              		.loc 1 1145 33 is_stmt 0 view .LVU334
 1200 0010 94F86030 		ldrb	r3, [r4, #96]	@ zero_extendqisi2
 1201 0014 43F00103 		orr	r3, r3, #1
 1202 0018 84F86030 		strb	r3, [r4, #96]
1147:System/shell/shell.c **** #endif
 1203              		.loc 1 1147 9 is_stmt 1 view .LVU335
 1204 001c 0649     		ldr	r1, .L111
 1205 001e 2046     		mov	r0, r4
 1206 0020 FFF7FEFF 		bl	shellWriteString
 1207              	.LVL105:
 1208              	.L109:
1154:System/shell/shell.c ****     shell->parser.cursor = 0;
 1209              		.loc 1 1154 5 view .LVU336
1154:System/shell/shell.c ****     shell->parser.cursor = 0;
 1210              		.loc 1 1154 26 is_stmt 0 view .LVU337
 1211 0024 0023     		movs	r3, #0
 1212 0026 A381     		strh	r3, [r4, #12]	@ movhi
1155:System/shell/shell.c **** }
 1213              		.loc 1 1155 5 is_stmt 1 view .LVU338
1155:System/shell/shell.c **** }
 1214              		.loc 1 1155 26 is_stmt 0 view .LVU339
 1215 0028 E381     		strh	r3, [r4, #14]	@ movhi
1156:System/shell/shell.c **** 
 1216              		.loc 1 1156 1 view .LVU340
ARM GAS  C:\Users\HUAV\AppData\Local\Temp\ccSSjzP1.s 			page 50


 1217 002a 10BD     		pop	{r4, pc}
 1218              	.LVL106:
 1219              	.L108:
1152:System/shell/shell.c ****     }
 1220              		.loc 1 1152 9 is_stmt 1 view .LVU341
 1221 002c 0349     		ldr	r1, .L111+4
 1222 002e 2046     		mov	r0, r4
 1223 0030 FFF7FEFF 		bl	shellWriteString
 1224              	.LVL107:
 1225 0034 F6E7     		b	.L109
 1226              	.L112:
 1227 0036 00BF     		.align	2
 1228              	.L111:
 1229 0038 0C000000 		.word	.LC1
 1230 003c 00000000 		.word	.LC7
 1231              		.cfi_endproc
 1232              	.LFE37:
 1234              		.section	.text.shellClear,"ax",%progbits
 1235              		.align	1
 1236              		.global	shellClear
 1237              		.syntax unified
 1238              		.thumb
 1239              		.thumb_func
 1240              		.fpu fpv5-d16
 1242              	shellClear:
 1243              	.LFB59:
1386:System/shell/shell.c **** SHELL_EXPORT_KEY(SHELL_CMD_PERMISSION(0) | SHELL_CMD_ENABLE_UNCHECKED,
1387:System/shell/shell.c ****                  0x1B5B4400, shellLeft, left);
1388:System/shell/shell.c **** 
1389:System/shell/shell.c **** /**
1390:System/shell/shell.c ****  * @brief shell Tab按键处理
1391:System/shell/shell.c ****  *
1392:System/shell/shell.c ****  * @param shell shell对象
1393:System/shell/shell.c ****  */
1394:System/shell/shell.c **** void shellTab(Shell *shell)
1395:System/shell/shell.c **** {
1396:System/shell/shell.c ****     unsigned short maxMatch = shell->parser.bufferSize;
1397:System/shell/shell.c ****     unsigned short lastMatchIndex = 0;
1398:System/shell/shell.c ****     unsigned short matchNum = 0;
1399:System/shell/shell.c ****     unsigned short length;
1400:System/shell/shell.c **** 
1401:System/shell/shell.c ****     if (shell->parser.length == 0)
1402:System/shell/shell.c ****     {
1403:System/shell/shell.c ****         shellListAll(shell);
1404:System/shell/shell.c ****         shellWriteCommandLine(shell, 1);
1405:System/shell/shell.c ****     }
1406:System/shell/shell.c ****     else if (shell->parser.length > 0)
1407:System/shell/shell.c ****     {
1408:System/shell/shell.c ****         shell->parser.buffer[shell->parser.length] = 0;
1409:System/shell/shell.c ****         ShellCommand *base = (ShellCommand *)shell->commandList.base;
1410:System/shell/shell.c ****         for (short i = 0; i < shell->commandList.count; i++)
1411:System/shell/shell.c ****         {
1412:System/shell/shell.c ****             if (shellCheckPermission(shell, &base[i]) == 0 && shellStringCompare(shell->parser.buff
1413:System/shell/shell.c ****                                                                                  (char *)shellGetCo
1414:System/shell/shell.c ****             {
1415:System/shell/shell.c ****                 if (matchNum != 0)
1416:System/shell/shell.c ****                 {
ARM GAS  C:\Users\HUAV\AppData\Local\Temp\ccSSjzP1.s 			page 51


1417:System/shell/shell.c ****                     if (matchNum == 1)
1418:System/shell/shell.c ****                     {
1419:System/shell/shell.c ****                         shellWriteString(shell, "\r\n");
1420:System/shell/shell.c ****                     }
1421:System/shell/shell.c ****                     shellListItem(shell, &base[lastMatchIndex]);
1422:System/shell/shell.c ****                     length =
1423:System/shell/shell.c ****                         shellStringCompare((char *)shellGetCommandName(&base[lastMatchIndex]),
1424:System/shell/shell.c ****                                            (char *)shellGetCommandName(&base[i]));
1425:System/shell/shell.c ****                     maxMatch = (maxMatch > length) ? length : maxMatch;
1426:System/shell/shell.c ****                 }
1427:System/shell/shell.c ****                 lastMatchIndex = i;
1428:System/shell/shell.c ****                 matchNum++;
1429:System/shell/shell.c ****             }
1430:System/shell/shell.c ****         }
1431:System/shell/shell.c ****         if (matchNum == 0)
1432:System/shell/shell.c ****         {
1433:System/shell/shell.c ****             return;
1434:System/shell/shell.c ****         }
1435:System/shell/shell.c ****         if (matchNum == 1)
1436:System/shell/shell.c ****         {
1437:System/shell/shell.c ****             shellClearCommandLine(shell);
1438:System/shell/shell.c ****         }
1439:System/shell/shell.c ****         if (matchNum != 0)
1440:System/shell/shell.c ****         {
1441:System/shell/shell.c ****             shell->parser.length =
1442:System/shell/shell.c ****                 shellStringCopy(shell->parser.buffer,
1443:System/shell/shell.c ****                                 (char *)shellGetCommandName(&base[lastMatchIndex]));
1444:System/shell/shell.c ****         }
1445:System/shell/shell.c ****         if (matchNum > 1)
1446:System/shell/shell.c ****         {
1447:System/shell/shell.c ****             shellListItem(shell, &base[lastMatchIndex]);
1448:System/shell/shell.c ****             shellWriteCommandLine(shell, 1);
1449:System/shell/shell.c ****             shell->parser.length = maxMatch;
1450:System/shell/shell.c ****         }
1451:System/shell/shell.c ****         shell->parser.buffer[shell->parser.length] = 0;
1452:System/shell/shell.c ****         shell->parser.cursor = shell->parser.length;
1453:System/shell/shell.c ****         shellWriteString(shell, shell->parser.buffer);
1454:System/shell/shell.c ****     }
1455:System/shell/shell.c **** 
1456:System/shell/shell.c ****     if (SHELL_GET_TICK())
1457:System/shell/shell.c ****     {
1458:System/shell/shell.c ****         if (matchNum == 1 && shell->status.tabFlag && SHELL_GET_TICK() - shell->info.activeTime < S
1459:System/shell/shell.c ****         {
1460:System/shell/shell.c ****             shellClearCommandLine(shell);
1461:System/shell/shell.c ****             for (short i = shell->parser.length; i >= 0; i--)
1462:System/shell/shell.c ****             {
1463:System/shell/shell.c ****                 shell->parser.buffer[i + 5] = shell->parser.buffer[i];
1464:System/shell/shell.c ****             }
1465:System/shell/shell.c ****             shellStringCopy(shell->parser.buffer, "help");
1466:System/shell/shell.c ****             shell->parser.buffer[4] = ' ';
1467:System/shell/shell.c ****             shell->parser.length += 5;
1468:System/shell/shell.c ****             shell->parser.cursor = shell->parser.length;
1469:System/shell/shell.c ****             shellWriteString(shell, shell->parser.buffer);
1470:System/shell/shell.c ****         }
1471:System/shell/shell.c ****         else
1472:System/shell/shell.c ****         {
1473:System/shell/shell.c ****             shell->status.tabFlag = 1;
ARM GAS  C:\Users\HUAV\AppData\Local\Temp\ccSSjzP1.s 			page 52


1474:System/shell/shell.c ****         }
1475:System/shell/shell.c ****     }
1476:System/shell/shell.c **** }
1477:System/shell/shell.c **** SHELL_EXPORT_KEY(SHELL_CMD_PERMISSION(0), 0x09000000, shellTab, tab);
1478:System/shell/shell.c **** 
1479:System/shell/shell.c **** /**
1480:System/shell/shell.c ****  * @brief shell 退格
1481:System/shell/shell.c ****  *
1482:System/shell/shell.c ****  * @param shell shell对象
1483:System/shell/shell.c ****  */
1484:System/shell/shell.c **** void shellBackspace(Shell *shell)
1485:System/shell/shell.c **** {
1486:System/shell/shell.c ****     shellDeleteByte(shell, 1);
1487:System/shell/shell.c **** }
1488:System/shell/shell.c **** SHELL_EXPORT_KEY(SHELL_CMD_PERMISSION(0) | SHELL_CMD_ENABLE_UNCHECKED,
1489:System/shell/shell.c ****                  0x08000000, shellBackspace, backspace);
1490:System/shell/shell.c **** SHELL_EXPORT_KEY(SHELL_CMD_PERMISSION(0) | SHELL_CMD_ENABLE_UNCHECKED,
1491:System/shell/shell.c ****                  0x7F000000, shellBackspace, backspace);
1492:System/shell/shell.c **** 
1493:System/shell/shell.c **** /**
1494:System/shell/shell.c ****  * @brief shell 删除
1495:System/shell/shell.c ****  *
1496:System/shell/shell.c ****  * @param shell shell对象
1497:System/shell/shell.c ****  */
1498:System/shell/shell.c **** void shellDelete(Shell *shell)
1499:System/shell/shell.c **** {
1500:System/shell/shell.c ****     shellDeleteByte(shell, -1);
1501:System/shell/shell.c **** }
1502:System/shell/shell.c **** SHELL_EXPORT_KEY(SHELL_CMD_PERMISSION(0) | SHELL_CMD_ENABLE_UNCHECKED,
1503:System/shell/shell.c ****                  0x1B5B337E, shellDelete, delete);
1504:System/shell/shell.c **** 
1505:System/shell/shell.c **** /**
1506:System/shell/shell.c ****  * @brief shell 回车处理
1507:System/shell/shell.c ****  *
1508:System/shell/shell.c ****  * @param shell shell对象
1509:System/shell/shell.c ****  */
1510:System/shell/shell.c **** void shellEnter(Shell *shell)
1511:System/shell/shell.c **** {
1512:System/shell/shell.c ****     shellExec(shell);
1513:System/shell/shell.c ****     shellWriteCommandLine(shell, 1);
1514:System/shell/shell.c **** }
1515:System/shell/shell.c **** #if SHELL_ENTER_LF == 1
1516:System/shell/shell.c **** SHELL_EXPORT_KEY(SHELL_CMD_PERMISSION(0) | SHELL_CMD_ENABLE_UNCHECKED,
1517:System/shell/shell.c ****                  0x0A000000, shellEnter, enter);
1518:System/shell/shell.c **** #endif
1519:System/shell/shell.c **** #if SHELL_ENTER_CR == 1
1520:System/shell/shell.c **** SHELL_EXPORT_KEY(SHELL_CMD_PERMISSION(0) | SHELL_CMD_ENABLE_UNCHECKED,
1521:System/shell/shell.c ****                  0x0D000000, shellEnter, enter);
1522:System/shell/shell.c **** #endif
1523:System/shell/shell.c **** #if SHELL_ENTER_CRLF == 1
1524:System/shell/shell.c **** SHELL_EXPORT_KEY(SHELL_CMD_PERMISSION(0) | SHELL_CMD_ENABLE_UNCHECKED,
1525:System/shell/shell.c ****                  0x0D0A0000, shellEnter, enter);
1526:System/shell/shell.c **** #endif
1527:System/shell/shell.c **** 
1528:System/shell/shell.c **** /**
1529:System/shell/shell.c ****  * @brief shell help
1530:System/shell/shell.c ****  *
ARM GAS  C:\Users\HUAV\AppData\Local\Temp\ccSSjzP1.s 			page 53


1531:System/shell/shell.c ****  * @param argc 参数个数
1532:System/shell/shell.c ****  * @param argv 参数
1533:System/shell/shell.c ****  */
1534:System/shell/shell.c **** void shellHelp(int argc, char *argv[])
1535:System/shell/shell.c **** {
1536:System/shell/shell.c ****     Shell *shell = shellGetCurrent();
1537:System/shell/shell.c ****     SHELL_ASSERT(shell, return );
1538:System/shell/shell.c ****     if (argc == 1)
1539:System/shell/shell.c ****     {
1540:System/shell/shell.c ****         shellListAll(shell);
1541:System/shell/shell.c ****     }
1542:System/shell/shell.c ****     else if (argc > 1)
1543:System/shell/shell.c ****     {
1544:System/shell/shell.c ****         ShellCommand *command = shellSeekCommand(shell,
1545:System/shell/shell.c ****                                                  argv[1],
1546:System/shell/shell.c ****                                                  shell->commandList.base,
1547:System/shell/shell.c ****                                                  0);
1548:System/shell/shell.c ****         if (command)
1549:System/shell/shell.c ****         {
1550:System/shell/shell.c ****             shellWriteString(shell, shellText[SHELL_TEXT_HELP_HEADER]);
1551:System/shell/shell.c ****             shellWriteString(shell, shellGetCommandName(command));
1552:System/shell/shell.c ****             shellWriteString(shell, "\r\n");
1553:System/shell/shell.c ****             shellWriteString(shell, shellGetCommandDesc(command));
1554:System/shell/shell.c ****             shellWriteString(shell, "\r\n");
1555:System/shell/shell.c ****         }
1556:System/shell/shell.c ****         else
1557:System/shell/shell.c ****         {
1558:System/shell/shell.c ****             shellWriteString(shell, shellText[SHELL_TEXT_CMD_NOT_FOUND]);
1559:System/shell/shell.c ****         }
1560:System/shell/shell.c ****     }
1561:System/shell/shell.c **** }
1562:System/shell/shell.c **** SHELL_EXPORT_CMD(
1563:System/shell/shell.c ****     SHELL_CMD_PERMISSION(0) | SHELL_CMD_TYPE(SHELL_TYPE_CMD_MAIN) | SHELL_CMD_DISABLE_RETURN,
1564:System/shell/shell.c ****     help, shellHelp, show command info\r\nhelp[cmd]);
1565:System/shell/shell.c **** 
1566:System/shell/shell.c **** /**
1567:System/shell/shell.c ****  * @brief shell 输入处理
1568:System/shell/shell.c ****  *
1569:System/shell/shell.c ****  * @param shell shell对象
1570:System/shell/shell.c ****  * @param data 输入数据
1571:System/shell/shell.c ****  */
1572:System/shell/shell.c **** void shellHandler(Shell *shell, char data)
1573:System/shell/shell.c **** {
1574:System/shell/shell.c ****     SHELL_ASSERT(data, return );
1575:System/shell/shell.c **** 
1576:System/shell/shell.c **** #if SHELL_LOCK_TIMEOUT > 0
1577:System/shell/shell.c ****     if (shell->info.user->data.user.password && strlen(shell->info.user->data.user.password) != 0 &
1578:System/shell/shell.c ****     {
1579:System/shell/shell.c ****         if (SHELL_GET_TICK() - shell->info.activeTime > SHELL_LOCK_TIMEOUT)
1580:System/shell/shell.c ****         {
1581:System/shell/shell.c ****             shell->status.isChecked = 0;
1582:System/shell/shell.c ****         }
1583:System/shell/shell.c ****     }
1584:System/shell/shell.c **** #endif
1585:System/shell/shell.c **** 
1586:System/shell/shell.c ****     /* 根据记录的按键键值计算当前字节在按键键值中的偏移 */
1587:System/shell/shell.c ****     char keyByteOffset = 24;
ARM GAS  C:\Users\HUAV\AppData\Local\Temp\ccSSjzP1.s 			page 54


1588:System/shell/shell.c ****     int keyFilter = 0x00000000;
1589:System/shell/shell.c ****     if ((shell->parser.keyValue & 0x0000FF00) != 0x00000000)
1590:System/shell/shell.c ****     {
1591:System/shell/shell.c ****         keyByteOffset = 0;
1592:System/shell/shell.c ****         keyFilter = 0xFFFFFF00;
1593:System/shell/shell.c ****     }
1594:System/shell/shell.c ****     else if ((shell->parser.keyValue & 0x00FF0000) != 0x00000000)
1595:System/shell/shell.c ****     {
1596:System/shell/shell.c ****         keyByteOffset = 8;
1597:System/shell/shell.c ****         keyFilter = 0xFFFF0000;
1598:System/shell/shell.c ****     }
1599:System/shell/shell.c ****     else if ((shell->parser.keyValue & 0xFF000000) != 0x00000000)
1600:System/shell/shell.c ****     {
1601:System/shell/shell.c ****         keyByteOffset = 16;
1602:System/shell/shell.c ****         keyFilter = 0xFF000000;
1603:System/shell/shell.c ****     }
1604:System/shell/shell.c **** 
1605:System/shell/shell.c ****     /* 遍历ShellCommand列表，尝试进行按键键值匹配 */
1606:System/shell/shell.c ****     ShellCommand *base = (ShellCommand *)shell->commandList.base;
1607:System/shell/shell.c ****     for (short i = 0; i < shell->commandList.count; i++)
1608:System/shell/shell.c ****     {
1609:System/shell/shell.c ****         /* 判断是否是按键定义并验证权限 */
1610:System/shell/shell.c ****         if (base[i].attr.attrs.type == SHELL_TYPE_KEY && shellCheckPermission(shell, &(base[i])) ==
1611:System/shell/shell.c ****         {
1612:System/shell/shell.c ****             /* 对输入的字节同按键键值进行匹配 */
1613:System/shell/shell.c ****             if ((base[i].data.key.value & keyFilter) == shell->parser.keyValue && (base[i].data.key
1614:System/shell/shell.c ****             {
1615:System/shell/shell.c ****                 shell->parser.keyValue |= data << keyByteOffset;
1616:System/shell/shell.c ****                 data = 0x00;
1617:System/shell/shell.c ****                 if (keyByteOffset == 0 || (base[i].data.key.value & (0xFF << (keyByteOffset - 8))) 
1618:System/shell/shell.c ****                 {
1619:System/shell/shell.c ****                     if (base[i].data.key.function)
1620:System/shell/shell.c ****                     {
1621:System/shell/shell.c ****                         base[i].data.key.function(shell);
1622:System/shell/shell.c ****                     }
1623:System/shell/shell.c ****                     shell->parser.keyValue = 0x00000000;
1624:System/shell/shell.c ****                     break;
1625:System/shell/shell.c ****                 }
1626:System/shell/shell.c ****             }
1627:System/shell/shell.c ****         }
1628:System/shell/shell.c ****     }
1629:System/shell/shell.c **** 
1630:System/shell/shell.c ****     if (data != 0x00)
1631:System/shell/shell.c ****     {
1632:System/shell/shell.c ****         shell->parser.keyValue = 0x00000000;
1633:System/shell/shell.c ****         shellNormalInput(shell, data);
1634:System/shell/shell.c ****     }
1635:System/shell/shell.c **** 
1636:System/shell/shell.c ****     if (SHELL_GET_TICK())
1637:System/shell/shell.c ****     {
1638:System/shell/shell.c ****         shell->info.activeTime = SHELL_GET_TICK();
1639:System/shell/shell.c ****     }
1640:System/shell/shell.c **** }
1641:System/shell/shell.c **** 
1642:System/shell/shell.c **** #if SHELL_SUPPORT_END_LINE == 1
1643:System/shell/shell.c **** void shellWriteEndLine(Shell *shell, char *buffer, int len)
1644:System/shell/shell.c **** {
ARM GAS  C:\Users\HUAV\AppData\Local\Temp\ccSSjzP1.s 			page 55


1645:System/shell/shell.c ****     if (!shell->status.isActive)
1646:System/shell/shell.c ****     {
1647:System/shell/shell.c ****         shellWriteString(shell, shellText[SHELL_TEXT_CLEAR_LINE]);
1648:System/shell/shell.c ****     }
1649:System/shell/shell.c ****     while (len--)
1650:System/shell/shell.c ****     {
1651:System/shell/shell.c ****         shell->write(*buffer++);
1652:System/shell/shell.c ****     }
1653:System/shell/shell.c ****     if (!shell->status.isActive)
1654:System/shell/shell.c ****     {
1655:System/shell/shell.c ****         shellWriteCommandLine(shell, 0);
1656:System/shell/shell.c ****         if (shell->parser.length > 0)
1657:System/shell/shell.c ****         {
1658:System/shell/shell.c ****             shellWriteString(shell, shell->parser.buffer);
1659:System/shell/shell.c ****             for (short i = 0; i < shell->parser.length - shell->parser.cursor; i++)
1660:System/shell/shell.c ****             {
1661:System/shell/shell.c ****                 shell->write('\b');
1662:System/shell/shell.c ****             }
1663:System/shell/shell.c ****         }
1664:System/shell/shell.c ****     }
1665:System/shell/shell.c **** }
1666:System/shell/shell.c **** #endif /** SHELL_SUPPORT_END_LINE == 1 */
1667:System/shell/shell.c **** 
1668:System/shell/shell.c **** /**
1669:System/shell/shell.c ****  * @brief shell 任务
1670:System/shell/shell.c ****  *
1671:System/shell/shell.c ****  * @param param 参数(shell对象)
1672:System/shell/shell.c ****  *
1673:System/shell/shell.c ****  */
1674:System/shell/shell.c **** void shellTask(void *param)
1675:System/shell/shell.c **** {
1676:System/shell/shell.c ****     Shell *shell = (Shell *)param;
1677:System/shell/shell.c ****     char data;
1678:System/shell/shell.c **** #if SHELL_TASK_WHILE == 1
1679:System/shell/shell.c ****     while (1)
1680:System/shell/shell.c ****     {
1681:System/shell/shell.c **** #endif
1682:System/shell/shell.c ****         if (shell->read && shell->read(&data) == 0)
1683:System/shell/shell.c ****         {
1684:System/shell/shell.c ****             shellHandler(shell, data);
1685:System/shell/shell.c ****         }
1686:System/shell/shell.c **** #if SHELL_TASK_WHILE == 1
1687:System/shell/shell.c ****     }
1688:System/shell/shell.c **** #endif
1689:System/shell/shell.c **** }
1690:System/shell/shell.c **** 
1691:System/shell/shell.c **** /**
1692:System/shell/shell.c ****  * @brief shell 输出用户列表(shell调用)
1693:System/shell/shell.c ****  */
1694:System/shell/shell.c **** void shellUsers(void)
1695:System/shell/shell.c **** {
1696:System/shell/shell.c ****     Shell *shell = shellGetCurrent();
1697:System/shell/shell.c ****     if (shell)
1698:System/shell/shell.c ****     {
1699:System/shell/shell.c ****         shellListUser(shell);
1700:System/shell/shell.c ****     }
1701:System/shell/shell.c **** }
ARM GAS  C:\Users\HUAV\AppData\Local\Temp\ccSSjzP1.s 			page 56


1702:System/shell/shell.c **** SHELL_EXPORT_CMD(
1703:System/shell/shell.c ****     SHELL_CMD_PERMISSION(0) | SHELL_CMD_TYPE(SHELL_TYPE_CMD_FUNC) | SHELL_CMD_DISABLE_RETURN,
1704:System/shell/shell.c ****     users, shellUsers, list all user);
1705:System/shell/shell.c **** 
1706:System/shell/shell.c **** /**
1707:System/shell/shell.c ****  * @brief shell 输出命令列表(shell调用)
1708:System/shell/shell.c ****  */
1709:System/shell/shell.c **** void shellCmds(void)
1710:System/shell/shell.c **** {
1711:System/shell/shell.c ****     Shell *shell = shellGetCurrent();
1712:System/shell/shell.c ****     if (shell)
1713:System/shell/shell.c ****     {
1714:System/shell/shell.c ****         shellListCommand(shell);
1715:System/shell/shell.c ****     }
1716:System/shell/shell.c **** }
1717:System/shell/shell.c **** SHELL_EXPORT_CMD(
1718:System/shell/shell.c ****     SHELL_CMD_PERMISSION(0) | SHELL_CMD_TYPE(SHELL_TYPE_CMD_FUNC) | SHELL_CMD_DISABLE_RETURN,
1719:System/shell/shell.c ****     cmds, shellCmds, list all cmd);
1720:System/shell/shell.c **** 
1721:System/shell/shell.c **** /**
1722:System/shell/shell.c ****  * @brief shell 输出变量列表(shell调用)
1723:System/shell/shell.c ****  */
1724:System/shell/shell.c **** void shellVars(void)
1725:System/shell/shell.c **** {
1726:System/shell/shell.c ****     Shell *shell = shellGetCurrent();
1727:System/shell/shell.c ****     if (shell)
1728:System/shell/shell.c ****     {
1729:System/shell/shell.c ****         shellListVar(shell);
1730:System/shell/shell.c ****     }
1731:System/shell/shell.c **** }
1732:System/shell/shell.c **** SHELL_EXPORT_CMD(
1733:System/shell/shell.c ****     SHELL_CMD_PERMISSION(0) | SHELL_CMD_TYPE(SHELL_TYPE_CMD_FUNC) | SHELL_CMD_DISABLE_RETURN,
1734:System/shell/shell.c ****     vars, shellVars, list all var);
1735:System/shell/shell.c **** 
1736:System/shell/shell.c **** /**
1737:System/shell/shell.c ****  * @brief shell 输出按键列表(shell调用)
1738:System/shell/shell.c ****  */
1739:System/shell/shell.c **** void shellKeys(void)
1740:System/shell/shell.c **** {
1741:System/shell/shell.c ****     Shell *shell = shellGetCurrent();
1742:System/shell/shell.c ****     if (shell)
1743:System/shell/shell.c ****     {
1744:System/shell/shell.c ****         shellListKey(shell);
1745:System/shell/shell.c ****     }
1746:System/shell/shell.c **** }
1747:System/shell/shell.c **** SHELL_EXPORT_CMD(
1748:System/shell/shell.c ****     SHELL_CMD_PERMISSION(0) | SHELL_CMD_TYPE(SHELL_TYPE_CMD_FUNC) | SHELL_CMD_DISABLE_RETURN,
1749:System/shell/shell.c ****     keys, shellKeys, list all key);
1750:System/shell/shell.c **** 
1751:System/shell/shell.c **** /**
1752:System/shell/shell.c ****  * @brief shell 清空控制台(shell调用)
1753:System/shell/shell.c ****  */
1754:System/shell/shell.c **** void shellClear(void)
1755:System/shell/shell.c **** {
 1244              		.loc 1 1755 1 view -0
 1245              		.cfi_startproc
 1246              		@ args = 0, pretend = 0, frame = 0
ARM GAS  C:\Users\HUAV\AppData\Local\Temp\ccSSjzP1.s 			page 57


 1247              		@ frame_needed = 0, uses_anonymous_args = 0
 1248 0000 08B5     		push	{r3, lr}
 1249              	.LCFI14:
 1250              		.cfi_def_cfa_offset 8
 1251              		.cfi_offset 3, -8
 1252              		.cfi_offset 14, -4
1756:System/shell/shell.c ****     Shell *shell = shellGetCurrent();
 1253              		.loc 1 1756 5 view .LVU343
 1254              		.loc 1 1756 20 is_stmt 0 view .LVU344
 1255 0002 FFF7FEFF 		bl	shellGetCurrent
 1256              	.LVL108:
1757:System/shell/shell.c ****     if (shell)
 1257              		.loc 1 1757 5 is_stmt 1 view .LVU345
 1258              		.loc 1 1757 8 is_stmt 0 view .LVU346
 1259 0006 10B1     		cbz	r0, .L113
1758:System/shell/shell.c ****     {
1759:System/shell/shell.c ****         shellWriteString(shell, shellText[SHELL_TEXT_CLEAR_CONSOLE]);
 1260              		.loc 1 1759 9 is_stmt 1 view .LVU347
 1261 0008 0149     		ldr	r1, .L116
 1262 000a FFF7FEFF 		bl	shellWriteString
 1263              	.LVL109:
 1264              	.L113:
1760:System/shell/shell.c ****     }
1761:System/shell/shell.c **** }
 1265              		.loc 1 1761 1 is_stmt 0 view .LVU348
 1266 000e 08BD     		pop	{r3, pc}
 1267              	.L117:
 1268              		.align	2
 1269              	.L116:
 1270 0010 00000000 		.word	.LC0
 1271              		.cfi_endproc
 1272              	.LFE59:
 1274              		.section	.text.shellPrint,"ax",%progbits
 1275              		.align	1
 1276              		.global	shellPrint
 1277              		.syntax unified
 1278              		.thumb
 1279              		.thumb_func
 1280              		.fpu fpv5-d16
 1282              	shellPrint:
 1283              	.LVL110:
 1284              	.LFB10:
 329:System/shell/shell.c ****     char buffer[SHELL_PRINT_BUFFER];
 1285              		.loc 1 329 1 is_stmt 1 view -0
 1286              		.cfi_startproc
 1287              		@ args = 4, pretend = 12, frame = 136
 1288              		@ frame_needed = 0, uses_anonymous_args = 1
 330:System/shell/shell.c ****     va_list vargs;
 1289              		.loc 1 330 5 view .LVU350
 331:System/shell/shell.c **** 
 1290              		.loc 1 331 5 view .LVU351
 333:System/shell/shell.c **** 
 1291              		.loc 1 333 5 view .LVU352
 1292 0000 98B1     		cbz	r0, .L122
 329:System/shell/shell.c ****     char buffer[SHELL_PRINT_BUFFER];
 1293              		.loc 1 329 1 is_stmt 0 discriminator 2 view .LVU353
 1294 0002 0EB4     		push	{r1, r2, r3}
ARM GAS  C:\Users\HUAV\AppData\Local\Temp\ccSSjzP1.s 			page 58


 1295              	.LCFI15:
 1296              		.cfi_def_cfa_offset 12
 1297              		.cfi_offset 1, -12
 1298              		.cfi_offset 2, -8
 1299              		.cfi_offset 3, -4
 1300 0004 10B5     		push	{r4, lr}
 1301              	.LCFI16:
 1302              		.cfi_def_cfa_offset 20
 1303              		.cfi_offset 4, -20
 1304              		.cfi_offset 14, -16
 1305 0006 A3B0     		sub	sp, sp, #140
 1306              	.LCFI17:
 1307              		.cfi_def_cfa_offset 160
 1308 0008 0446     		mov	r4, r0
 333:System/shell/shell.c **** 
 1309              		.loc 1 333 33 is_stmt 1 discriminator 2 view .LVU354
 335:System/shell/shell.c ****     vsnprintf(buffer, SHELL_PRINT_BUFFER - 1, fmt, vargs);
 1310              		.loc 1 335 5 discriminator 2 view .LVU355
 1311 000a 26AB     		add	r3, sp, #152
 1312 000c 0193     		str	r3, [sp, #4]
 336:System/shell/shell.c ****     va_end(vargs);
 1313              		.loc 1 336 5 discriminator 2 view .LVU356
 1314 000e 259A     		ldr	r2, [sp, #148]
 1315 0010 7F21     		movs	r1, #127
 1316 0012 02A8     		add	r0, sp, #8
 1317 0014 FFF7FEFF 		bl	vsnprintf
 1318              	.LVL111:
 337:System/shell/shell.c **** 
 1319              		.loc 1 337 5 discriminator 2 view .LVU357
 339:System/shell/shell.c **** }
 1320              		.loc 1 339 5 discriminator 2 view .LVU358
 1321 0018 02A9     		add	r1, sp, #8
 1322 001a 2046     		mov	r0, r4
 1323 001c FFF7FEFF 		bl	shellWriteString
 1324              	.LVL112:
 340:System/shell/shell.c **** #endif
 1325              		.loc 1 340 1 is_stmt 0 discriminator 2 view .LVU359
 1326 0020 23B0     		add	sp, sp, #140
 1327              	.LCFI18:
 1328              		.cfi_def_cfa_offset 20
 1329              		@ sp needed
 1330 0022 BDE81040 		pop	{r4, lr}
 1331              	.LCFI19:
 1332              		.cfi_restore 14
 1333              		.cfi_restore 4
 1334              		.cfi_def_cfa_offset 12
 1335              	.LVL113:
 340:System/shell/shell.c **** #endif
 1336              		.loc 1 340 1 discriminator 2 view .LVU360
 1337 0026 03B0     		add	sp, sp, #12
 1338              	.LCFI20:
 1339              		.cfi_restore 3
 1340              		.cfi_restore 2
 1341              		.cfi_restore 1
 1342              		.cfi_def_cfa_offset 0
 1343 0028 7047     		bx	lr
 1344              	.LVL114:
ARM GAS  C:\Users\HUAV\AppData\Local\Temp\ccSSjzP1.s 			page 59


 1345              	.L122:
 340:System/shell/shell.c **** #endif
 1346              		.loc 1 340 1 discriminator 2 view .LVU361
 1347 002a 7047     		bx	lr
 1348              		.cfi_endproc
 1349              	.LFE10:
 1351              		.section	.text.shellScan,"ax",%progbits
 1352              		.align	1
 1353              		.global	shellScan
 1354              		.syntax unified
 1355              		.thumb
 1356              		.thumb_func
 1357              		.fpu fpv5-d16
 1359              	shellScan:
 1360              	.LVL115:
 1361              	.LFB11:
 352:System/shell/shell.c ****     char buffer[SHELL_SCAN_BUFFER];
 1362              		.loc 1 352 1 is_stmt 1 view -0
 1363              		.cfi_startproc
 1364              		@ args = 4, pretend = 12, frame = 8
 1365              		@ frame_needed = 0, uses_anonymous_args = 1
 353:System/shell/shell.c ****     va_list vargs;
 1366              		.loc 1 353 5 view .LVU363
 354:System/shell/shell.c ****     short index = 0;
 1367              		.loc 1 354 5 view .LVU364
 355:System/shell/shell.c **** 
 1368              		.loc 1 355 5 view .LVU365
 357:System/shell/shell.c **** 
 1369              		.loc 1 357 5 view .LVU366
 1370 0000 0028     		cmp	r0, #0
 1371 0002 35D0     		beq	.L133
 352:System/shell/shell.c ****     char buffer[SHELL_SCAN_BUFFER];
 1372              		.loc 1 352 1 is_stmt 0 discriminator 2 view .LVU367
 1373 0004 0EB4     		push	{r1, r2, r3}
 1374              	.LCFI21:
 1375              		.cfi_def_cfa_offset 12
 1376              		.cfi_offset 1, -12
 1377              		.cfi_offset 2, -8
 1378              		.cfi_offset 3, -4
 1379 0006 70B5     		push	{r4, r5, r6, lr}
 1380              	.LCFI22:
 1381              		.cfi_def_cfa_offset 28
 1382              		.cfi_offset 4, -28
 1383              		.cfi_offset 5, -24
 1384              		.cfi_offset 6, -20
 1385              		.cfi_offset 14, -16
 1386 0008 83B0     		sub	sp, sp, #12
 1387              	.LCFI23:
 1388              		.cfi_def_cfa_offset 40
 1389 000a 0646     		mov	r6, r0
 357:System/shell/shell.c **** 
 1390              		.loc 1 357 33 is_stmt 1 discriminator 2 view .LVU368
 359:System/shell/shell.c ****     {
 1391              		.loc 1 359 5 discriminator 2 view .LVU369
 359:System/shell/shell.c ****     {
 1392              		.loc 1 359 14 is_stmt 0 discriminator 2 view .LVU370
 1393 000c 436E     		ldr	r3, [r0, #100]
ARM GAS  C:\Users\HUAV\AppData\Local\Temp\ccSSjzP1.s 			page 60


 359:System/shell/shell.c ****     {
 1394              		.loc 1 359 8 discriminator 2 view .LVU371
 1395 000e 23B3     		cbz	r3, .L128
 355:System/shell/shell.c **** 
 1396              		.loc 1 355 11 view .LVU372
 1397 0010 0024     		movs	r4, #0
 1398 0012 11E0     		b	.L131
 1399              	.LVL116:
 1400              	.L136:
 365:System/shell/shell.c ****                 index++;
 1401              		.loc 1 365 17 is_stmt 1 view .LVU373
 365:System/shell/shell.c ****                 index++;
 1402              		.loc 1 365 22 is_stmt 0 view .LVU374
 1403 0014 B36E     		ldr	r3, [r6, #104]
 365:System/shell/shell.c ****                 index++;
 1404              		.loc 1 365 17 view .LVU375
 1405 0016 0121     		movs	r1, #1
 1406 0018 2846     		mov	r0, r5
 1407 001a 9847     		blx	r3
 1408              	.LVL117:
 366:System/shell/shell.c ****             }
 1409              		.loc 1 366 17 is_stmt 1 view .LVU376
 366:System/shell/shell.c ****             }
 1410              		.loc 1 366 22 is_stmt 0 view .LVU377
 1411 001c 0134     		adds	r4, r4, #1
 1412              	.LVL118:
 366:System/shell/shell.c ****             }
 1413              		.loc 1 366 22 view .LVU378
 1414 001e 24B2     		sxth	r4, r4
 1415              	.LVL119:
 1416              	.L129:
 368:System/shell/shell.c ****         shellWriteString(shell, "\r\n");
 1417              		.loc 1 368 17 is_stmt 1 view .LVU379
 368:System/shell/shell.c ****         shellWriteString(shell, "\r\n");
 1418              		.loc 1 368 31 is_stmt 0 view .LVU380
 1419 0020 2546     		mov	r5, r4
 1420 0022 631E     		subs	r3, r4, #1
 368:System/shell/shell.c ****         shellWriteString(shell, "\r\n");
 1421              		.loc 1 368 24 view .LVU381
 1422 0024 02AA     		add	r2, sp, #8
 1423 0026 1344     		add	r3, r3, r2
 1424 0028 13F8043C 		ldrb	r3, [r3, #-4]	@ zero_extendqisi2
 368:System/shell/shell.c ****         shellWriteString(shell, "\r\n");
 1425              		.loc 1 368 9 view .LVU382
 1426 002c 0D2B     		cmp	r3, #13
 1427 002e 18BF     		it	ne
 1428 0030 0A2B     		cmpne	r3, #10
 1429 0032 09D0     		beq	.L130
 368:System/shell/shell.c ****         shellWriteString(shell, "\r\n");
 1430              		.loc 1 368 73 discriminator 1 view .LVU383
 1431 0034 002C     		cmp	r4, #0
 1432 0036 07DC     		bgt	.L130
 1433              	.LVL120:
 1434              	.L131:
 361:System/shell/shell.c ****         {
 1435              		.loc 1 361 9 is_stmt 1 view .LVU384
 363:System/shell/shell.c ****             {
ARM GAS  C:\Users\HUAV\AppData\Local\Temp\ccSSjzP1.s 			page 61


 1436              		.loc 1 363 13 view .LVU385
 363:System/shell/shell.c ****             {
 1437              		.loc 1 363 22 is_stmt 0 view .LVU386
 1438 0038 736E     		ldr	r3, [r6, #100]
 363:System/shell/shell.c ****             {
 1439              		.loc 1 363 17 view .LVU387
 1440 003a 01AA     		add	r2, sp, #4
 1441 003c 1519     		adds	r5, r2, r4
 1442 003e 2846     		mov	r0, r5
 1443 0040 9847     		blx	r3
 1444              	.LVL121:
 363:System/shell/shell.c ****             {
 1445              		.loc 1 363 16 view .LVU388
 1446 0042 0028     		cmp	r0, #0
 1447 0044 ECD1     		bne	.L129
 1448 0046 E5E7     		b	.L136
 1449              	.L130:
 369:System/shell/shell.c ****         buffer[index] = '\0';
 1450              		.loc 1 369 9 is_stmt 1 view .LVU389
 1451 0048 0A49     		ldr	r1, .L137
 1452 004a 3046     		mov	r0, r6
 1453 004c FFF7FEFF 		bl	shellWriteString
 1454              	.LVL122:
 370:System/shell/shell.c ****     }
 1455              		.loc 1 370 9 view .LVU390
 370:System/shell/shell.c ****     }
 1456              		.loc 1 370 23 is_stmt 0 view .LVU391
 1457 0050 02AB     		add	r3, sp, #8
 1458 0052 1D44     		add	r5, r5, r3
 1459 0054 0023     		movs	r3, #0
 1460 0056 05F8043C 		strb	r3, [r5, #-4]
 1461              	.LVL123:
 1462              	.L128:
 373:System/shell/shell.c ****     vsscanf(buffer, fmt, vargs);
 1463              		.loc 1 373 5 is_stmt 1 view .LVU392
 1464 005a 08AA     		add	r2, sp, #32
 1465 005c 0092     		str	r2, [sp]
 374:System/shell/shell.c ****     va_end(vargs);
 1466              		.loc 1 374 5 view .LVU393
 1467 005e 0799     		ldr	r1, [sp, #28]
 1468 0060 01A8     		add	r0, sp, #4
 1469 0062 FFF7FEFF 		bl	vsscanf
 1470              	.LVL124:
 375:System/shell/shell.c **** }
 1471              		.loc 1 375 5 view .LVU394
 376:System/shell/shell.c **** #endif
 1472              		.loc 1 376 1 is_stmt 0 view .LVU395
 1473 0066 03B0     		add	sp, sp, #12
 1474              	.LCFI24:
 1475              		.cfi_def_cfa_offset 28
 1476              		@ sp needed
 1477 0068 BDE87040 		pop	{r4, r5, r6, lr}
 1478              	.LCFI25:
 1479              		.cfi_restore 14
 1480              		.cfi_restore 6
 1481              		.cfi_restore 5
 1482              		.cfi_restore 4
ARM GAS  C:\Users\HUAV\AppData\Local\Temp\ccSSjzP1.s 			page 62


 1483              		.cfi_def_cfa_offset 12
 1484              	.LVL125:
 376:System/shell/shell.c **** #endif
 1485              		.loc 1 376 1 view .LVU396
 1486 006c 03B0     		add	sp, sp, #12
 1487              	.LCFI26:
 1488              		.cfi_restore 3
 1489              		.cfi_restore 2
 1490              		.cfi_restore 1
 1491              		.cfi_def_cfa_offset 0
 1492 006e 7047     		bx	lr
 1493              	.LVL126:
 1494              	.L133:
 376:System/shell/shell.c **** #endif
 1495              		.loc 1 376 1 view .LVU397
 1496 0070 7047     		bx	lr
 1497              	.L138:
 1498 0072 00BF     		.align	2
 1499              	.L137:
 1500 0074 04000000 		.word	.LC3
 1501              		.cfi_endproc
 1502              	.LFE11:
 1504              		.section	.text.shellCheckPermission,"ax",%progbits
 1505              		.align	1
 1506              		.global	shellCheckPermission
 1507              		.syntax unified
 1508              		.thumb
 1509              		.thumb_func
 1510              		.fpu fpv5-d16
 1512              	shellCheckPermission:
 1513              	.LVL127:
 1514              	.LFB12:
 389:System/shell/shell.c ****     return ((!command->attr.attrs.permission || command->attr.attrs.type == SHELL_TYPE_USER || (com
 1515              		.loc 1 389 1 is_stmt 1 view -0
 1516              		.cfi_startproc
 1517              		@ args = 0, pretend = 0, frame = 0
 1518              		@ frame_needed = 0, uses_anonymous_args = 0
 1519              		@ link register save eliminated.
 390:System/shell/shell.c ****                ? 0
 1520              		.loc 1 390 5 view .LVU399
 390:System/shell/shell.c ****                ? 0
 1521              		.loc 1 390 34 is_stmt 0 view .LVU400
 1522 0000 0B78     		ldrb	r3, [r1]	@ zero_extendqisi2
 392:System/shell/shell.c **** }
 1523              		.loc 1 392 16 view .LVU401
 1524 0002 43B1     		cbz	r3, .L140
 390:System/shell/shell.c ****                ? 0
 1525              		.loc 1 390 74 view .LVU402
 1526 0004 4A78     		ldrb	r2, [r1, #1]	@ zero_extendqisi2
 1527 0006 02F00F02 		and	r2, r2, #15
 390:System/shell/shell.c ****                ? 0
 1528              		.loc 1 390 46 view .LVU403
 1529 000a 082A     		cmp	r2, #8
 1530 000c 03D0     		beq	.L140
 390:System/shell/shell.c ****                ? 0
 1531              		.loc 1 390 141 discriminator 2 view .LVU404
 1532 000e 0268     		ldr	r2, [r0]
ARM GAS  C:\Users\HUAV\AppData\Local\Temp\ccSSjzP1.s 			page 63


 390:System/shell/shell.c ****                ? 0
 1533              		.loc 1 390 158 discriminator 2 view .LVU405
 1534 0010 1278     		ldrb	r2, [r2]	@ zero_extendqisi2
 390:System/shell/shell.c ****                ? 0
 1535              		.loc 1 390 93 discriminator 2 view .LVU406
 1536 0012 1342     		tst	r3, r2
 1537 0014 0DD0     		beq	.L142
 1538              	.L140:
 390:System/shell/shell.c ****                ? 0
 1539              		.loc 1 390 176 discriminator 3 view .LVU407
 1540 0016 90F86030 		ldrb	r3, [r0, #96]	@ zero_extendqisi2
 390:System/shell/shell.c ****                ? 0
 1541              		.loc 1 390 172 discriminator 3 view .LVU408
 1542 001a 13F0010F 		tst	r3, #1
 1543 001e 0BD1     		bne	.L143
 390:System/shell/shell.c ****                ? 0
 1544              		.loc 1 390 200 discriminator 4 view .LVU409
 1545 0020 4B78     		ldrb	r3, [r1, #1]	@ zero_extendqisi2
 1546 0022 13F0100F 		tst	r3, #16
 1547 0026 01D0     		beq	.L145
 392:System/shell/shell.c **** }
 1548              		.loc 1 392 16 view .LVU410
 1549 0028 0020     		movs	r0, #0
 1550              	.LVL128:
 393:System/shell/shell.c **** 
 1551              		.loc 1 393 1 view .LVU411
 1552 002a 7047     		bx	lr
 1553              	.LVL129:
 1554              	.L145:
 392:System/shell/shell.c **** }
 1555              		.loc 1 392 16 view .LVU412
 1556 002c 4FF0FF30 		mov	r0, #-1
 1557              	.LVL130:
 392:System/shell/shell.c **** }
 1558              		.loc 1 392 16 view .LVU413
 1559 0030 7047     		bx	lr
 1560              	.LVL131:
 1561              	.L142:
 392:System/shell/shell.c **** }
 1562              		.loc 1 392 16 view .LVU414
 1563 0032 4FF0FF30 		mov	r0, #-1
 1564              	.LVL132:
 392:System/shell/shell.c **** }
 1565              		.loc 1 392 16 view .LVU415
 1566 0036 7047     		bx	lr
 1567              	.LVL133:
 1568              	.L143:
 392:System/shell/shell.c **** }
 1569              		.loc 1 392 16 view .LVU416
 1570 0038 0020     		movs	r0, #0
 1571              	.LVL134:
 392:System/shell/shell.c **** }
 1572              		.loc 1 392 16 view .LVU417
 1573 003a 7047     		bx	lr
 1574              		.cfi_endproc
 1575              	.LFE12:
 1577              		.section	.text.shellToHex,"ax",%progbits
ARM GAS  C:\Users\HUAV\AppData\Local\Temp\ccSSjzP1.s 			page 64


 1578              		.align	1
 1579              		.global	shellToHex
 1580              		.syntax unified
 1581              		.thumb
 1582              		.thumb_func
 1583              		.fpu fpv5-d16
 1585              	shellToHex:
 1586              	.LVL135:
 1587              	.LFB13:
 404:System/shell/shell.c ****     char byte;
 1588              		.loc 1 404 1 is_stmt 1 view -0
 1589              		.cfi_startproc
 1590              		@ args = 0, pretend = 0, frame = 0
 1591              		@ frame_needed = 0, uses_anonymous_args = 0
 1592              		@ link register save eliminated.
 405:System/shell/shell.c ****     unsigned char i = 8;
 1593              		.loc 1 405 5 view .LVU419
 406:System/shell/shell.c ****     buffer[8] = 0;
 1594              		.loc 1 406 5 view .LVU420
 407:System/shell/shell.c ****     while (value)
 1595              		.loc 1 407 5 view .LVU421
 407:System/shell/shell.c ****     while (value)
 1596              		.loc 1 407 15 is_stmt 0 view .LVU422
 1597 0000 0023     		movs	r3, #0
 1598 0002 0B72     		strb	r3, [r1, #8]
 408:System/shell/shell.c ****     {
 1599              		.loc 1 408 5 is_stmt 1 view .LVU423
 406:System/shell/shell.c ****     buffer[8] = 0;
 1600              		.loc 1 406 19 is_stmt 0 view .LVU424
 1601 0004 0823     		movs	r3, #8
 408:System/shell/shell.c ****     {
 1602              		.loc 1 408 11 view .LVU425
 1603 0006 04E0     		b	.L147
 1604              	.LVL136:
 1605              	.L148:
 411:System/shell/shell.c ****         value >>= 4;
 1606              		.loc 1 411 21 discriminator 2 view .LVU426
 1607 0008 3032     		adds	r2, r2, #48
 1608              	.LVL137:
 1609              	.L149:
 411:System/shell/shell.c ****         value >>= 4;
 1610              		.loc 1 411 21 discriminator 4 view .LVU427
 1611 000a 013B     		subs	r3, r3, #1
 1612              	.LVL138:
 411:System/shell/shell.c ****         value >>= 4;
 1613              		.loc 1 411 21 discriminator 4 view .LVU428
 1614 000c DBB2     		uxtb	r3, r3
 1615              	.LVL139:
 411:System/shell/shell.c ****         value >>= 4;
 1616              		.loc 1 411 21 discriminator 4 view .LVU429
 1617 000e CA54     		strb	r2, [r1, r3]
 412:System/shell/shell.c ****     }
 1618              		.loc 1 412 9 is_stmt 1 discriminator 4 view .LVU430
 412:System/shell/shell.c ****     }
 1619              		.loc 1 412 15 is_stmt 0 discriminator 4 view .LVU431
 1620 0010 0009     		lsrs	r0, r0, #4
 1621              	.LVL140:
ARM GAS  C:\Users\HUAV\AppData\Local\Temp\ccSSjzP1.s 			page 65


 1622              	.L147:
 408:System/shell/shell.c ****     {
 1623              		.loc 1 408 11 is_stmt 1 view .LVU432
 1624 0012 28B1     		cbz	r0, .L151
 410:System/shell/shell.c ****         buffer[--i] = (byte > 9) ? (byte + 87) : (byte + 48);
 1625              		.loc 1 410 9 view .LVU433
 410:System/shell/shell.c ****         buffer[--i] = (byte > 9) ? (byte + 87) : (byte + 48);
 1626              		.loc 1 410 14 is_stmt 0 view .LVU434
 1627 0014 00F00F02 		and	r2, r0, #15
 1628              	.LVL141:
 411:System/shell/shell.c ****         value >>= 4;
 1629              		.loc 1 411 9 is_stmt 1 view .LVU435
 411:System/shell/shell.c ****         value >>= 4;
 1630              		.loc 1 411 21 is_stmt 0 view .LVU436
 1631 0018 092A     		cmp	r2, #9
 1632 001a F5D9     		bls	.L148
 411:System/shell/shell.c ****         value >>= 4;
 1633              		.loc 1 411 21 discriminator 1 view .LVU437
 1634 001c 5732     		adds	r2, r2, #87
 1635              	.LVL142:
 411:System/shell/shell.c ****         value >>= 4;
 1636              		.loc 1 411 21 discriminator 1 view .LVU438
 1637 001e F4E7     		b	.L149
 1638              	.LVL143:
 1639              	.L151:
 414:System/shell/shell.c **** }
 1640              		.loc 1 414 5 is_stmt 1 view .LVU439
 414:System/shell/shell.c **** }
 1641              		.loc 1 414 14 is_stmt 0 view .LVU440
 1642 0020 C3F10800 		rsb	r0, r3, #8
 1643              	.LVL144:
 415:System/shell/shell.c **** 
 1644              		.loc 1 415 1 view .LVU441
 1645 0024 40B2     		sxtb	r0, r0
 1646 0026 7047     		bx	lr
 1647              		.cfi_endproc
 1648              	.LFE13:
 1650              		.section	.text.shellGetCommandName,"ax",%progbits
 1651              		.align	1
 1652              		.syntax unified
 1653              		.thumb
 1654              		.thumb_func
 1655              		.fpu fpv5-d16
 1657              	shellGetCommandName:
 1658              	.LVL145:
 1659              	.LFB17:
 500:System/shell/shell.c ****     static char buffer[9];
 1660              		.loc 1 500 1 is_stmt 1 view -0
 1661              		.cfi_startproc
 1662              		@ args = 0, pretend = 0, frame = 0
 1663              		@ frame_needed = 0, uses_anonymous_args = 0
 501:System/shell/shell.c ****     for (unsigned char i = 0; i < 9; i++)
 1664              		.loc 1 501 5 view .LVU443
 502:System/shell/shell.c ****     {
 1665              		.loc 1 502 5 view .LVU444
 1666              	.LBB8:
 502:System/shell/shell.c ****     {
ARM GAS  C:\Users\HUAV\AppData\Local\Temp\ccSSjzP1.s 			page 66


 1667              		.loc 1 502 10 view .LVU445
 502:System/shell/shell.c ****     {
 1668              		.loc 1 502 24 is_stmt 0 view .LVU446
 1669 0000 0023     		movs	r3, #0
 502:System/shell/shell.c ****     {
 1670              		.loc 1 502 5 view .LVU447
 1671 0002 04E0     		b	.L153
 1672              	.LVL146:
 1673              	.L154:
 504:System/shell/shell.c ****     }
 1674              		.loc 1 504 9 is_stmt 1 discriminator 3 view .LVU448
 504:System/shell/shell.c ****     }
 1675              		.loc 1 504 19 is_stmt 0 discriminator 3 view .LVU449
 1676 0004 0E4A     		ldr	r2, .L164
 1677 0006 3021     		movs	r1, #48
 1678 0008 D154     		strb	r1, [r2, r3]
 502:System/shell/shell.c ****     {
 1679              		.loc 1 502 38 is_stmt 1 discriminator 3 view .LVU450
 502:System/shell/shell.c ****     {
 1680              		.loc 1 502 39 is_stmt 0 discriminator 3 view .LVU451
 1681 000a 0133     		adds	r3, r3, #1
 1682              	.LVL147:
 502:System/shell/shell.c ****     {
 1683              		.loc 1 502 39 discriminator 3 view .LVU452
 1684 000c DBB2     		uxtb	r3, r3
 1685              	.LVL148:
 1686              	.L153:
 502:System/shell/shell.c ****     {
 1687              		.loc 1 502 31 is_stmt 1 discriminator 1 view .LVU453
 502:System/shell/shell.c ****     {
 1688              		.loc 1 502 5 is_stmt 0 discriminator 1 view .LVU454
 1689 000e 082B     		cmp	r3, #8
 1690 0010 F8D9     		bls	.L154
 1691              	.LBE8:
 506:System/shell/shell.c ****     {
 1692              		.loc 1 506 5 is_stmt 1 view .LVU455
 506:System/shell/shell.c ****     {
 1693              		.loc 1 506 28 is_stmt 0 view .LVU456
 1694 0012 4378     		ldrb	r3, [r0, #1]	@ zero_extendqisi2
 1695              	.LVL149:
 506:System/shell/shell.c ****     {
 1696              		.loc 1 506 28 view .LVU457
 1697 0014 03F00F03 		and	r3, r3, #15
 506:System/shell/shell.c ****     {
 1698              		.loc 1 506 8 view .LVU458
 1699 0018 012B     		cmp	r3, #1
 1700 001a 05D9     		bls	.L162
 510:System/shell/shell.c ****     {
 1701              		.loc 1 510 10 is_stmt 1 view .LVU459
 510:System/shell/shell.c ****     {
 1702              		.loc 1 510 13 is_stmt 0 view .LVU460
 1703 001c 072B     		cmp	r3, #7
 1704 001e 05D9     		bls	.L163
 514:System/shell/shell.c ****     {
 1705              		.loc 1 514 10 is_stmt 1 view .LVU461
 514:System/shell/shell.c ****     {
 1706              		.loc 1 514 13 is_stmt 0 view .LVU462
ARM GAS  C:\Users\HUAV\AppData\Local\Temp\ccSSjzP1.s 			page 67


 1707 0020 082B     		cmp	r3, #8
 1708 0022 05D8     		bhi	.L158
 516:System/shell/shell.c ****     }
 1709              		.loc 1 516 9 is_stmt 1 view .LVU463
 516:System/shell/shell.c ****     }
 1710              		.loc 1 516 34 is_stmt 0 view .LVU464
 1711 0024 4068     		ldr	r0, [r0, #4]
 1712              	.LVL150:
 523:System/shell/shell.c **** 
 1713              		.loc 1 523 1 view .LVU465
 1714 0026 7047     		bx	lr
 1715              	.LVL151:
 1716              	.L162:
 508:System/shell/shell.c ****     }
 1717              		.loc 1 508 9 is_stmt 1 view .LVU466
 508:System/shell/shell.c ****     }
 1718              		.loc 1 508 33 is_stmt 0 view .LVU467
 1719 0028 4068     		ldr	r0, [r0, #4]
 1720              	.LVL152:
 508:System/shell/shell.c ****     }
 1721              		.loc 1 508 33 view .LVU468
 1722 002a 7047     		bx	lr
 1723              	.LVL153:
 1724              	.L163:
 512:System/shell/shell.c ****     }
 1725              		.loc 1 512 9 is_stmt 1 view .LVU469
 512:System/shell/shell.c ****     }
 1726              		.loc 1 512 33 is_stmt 0 view .LVU470
 1727 002c 4068     		ldr	r0, [r0, #4]
 1728              	.LVL154:
 512:System/shell/shell.c ****     }
 1729              		.loc 1 512 33 view .LVU471
 1730 002e 7047     		bx	lr
 1731              	.LVL155:
 1732              	.L158:
 500:System/shell/shell.c ****     static char buffer[9];
 1733              		.loc 1 500 1 view .LVU472
 1734 0030 10B5     		push	{r4, lr}
 1735              	.LCFI27:
 1736              		.cfi_def_cfa_offset 8
 1737              		.cfi_offset 4, -8
 1738              		.cfi_offset 14, -4
 520:System/shell/shell.c ****         return buffer;
 1739              		.loc 1 520 9 is_stmt 1 view .LVU473
 1740 0032 034C     		ldr	r4, .L164
 1741 0034 2146     		mov	r1, r4
 1742 0036 4068     		ldr	r0, [r0, #4]
 1743              	.LVL156:
 520:System/shell/shell.c ****         return buffer;
 1744              		.loc 1 520 9 is_stmt 0 view .LVU474
 1745 0038 FFF7FEFF 		bl	shellToHex
 1746              	.LVL157:
 521:System/shell/shell.c ****     }
 1747              		.loc 1 521 9 is_stmt 1 view .LVU475
 521:System/shell/shell.c ****     }
 1748              		.loc 1 521 16 is_stmt 0 view .LVU476
 1749 003c 2046     		mov	r0, r4
ARM GAS  C:\Users\HUAV\AppData\Local\Temp\ccSSjzP1.s 			page 68


 523:System/shell/shell.c **** 
 1750              		.loc 1 523 1 view .LVU477
 1751 003e 10BD     		pop	{r4, pc}
 1752              	.L165:
 1753              		.align	2
 1754              	.L164:
 1755 0040 00000000 		.word	.LANCHOR1
 1756              		.cfi_endproc
 1757              	.LFE17:
 1759              		.section	.text.shellToDec,"ax",%progbits
 1760              		.align	1
 1761              		.global	shellToDec
 1762              		.syntax unified
 1763              		.thumb
 1764              		.thumb_func
 1765              		.fpu fpv5-d16
 1767              	shellToDec:
 1768              	.LVL158:
 1769              	.LFB14:
 426:System/shell/shell.c ****     unsigned char i = 11;
 1770              		.loc 1 426 1 is_stmt 1 view -0
 1771              		.cfi_startproc
 1772              		@ args = 0, pretend = 0, frame = 0
 1773              		@ frame_needed = 0, uses_anonymous_args = 0
 1774              		@ link register save eliminated.
 426:System/shell/shell.c ****     unsigned char i = 11;
 1775              		.loc 1 426 1 is_stmt 0 view .LVU479
 1776 0000 10B4     		push	{r4}
 1777              	.LCFI28:
 1778              		.cfi_def_cfa_offset 4
 1779              		.cfi_offset 4, -4
 427:System/shell/shell.c ****     int v = value;
 1780              		.loc 1 427 5 is_stmt 1 view .LVU480
 1781              	.LVL159:
 428:System/shell/shell.c ****     if (value < 0)
 1782              		.loc 1 428 5 view .LVU481
 429:System/shell/shell.c ****     {
 1783              		.loc 1 429 5 view .LVU482
 429:System/shell/shell.c ****     {
 1784              		.loc 1 429 8 is_stmt 0 view .LVU483
 1785 0002 041E     		subs	r4, r0, #0
 1786 0004 04DB     		blt	.L174
 428:System/shell/shell.c ****     if (value < 0)
 1787              		.loc 1 428 9 view .LVU484
 1788 0006 2246     		mov	r2, r4
 1789              	.LVL160:
 1790              	.L167:
 433:System/shell/shell.c ****     while (v)
 1791              		.loc 1 433 5 is_stmt 1 view .LVU485
 433:System/shell/shell.c ****     while (v)
 1792              		.loc 1 433 16 is_stmt 0 view .LVU486
 1793 0008 0023     		movs	r3, #0
 1794 000a CB72     		strb	r3, [r1, #11]
 434:System/shell/shell.c ****     {
 1795              		.loc 1 434 5 is_stmt 1 view .LVU487
 427:System/shell/shell.c ****     int v = value;
 1796              		.loc 1 427 19 is_stmt 0 view .LVU488
ARM GAS  C:\Users\HUAV\AppData\Local\Temp\ccSSjzP1.s 			page 69


 1797 000c 0B20     		movs	r0, #11
 1798              	.LVL161:
 434:System/shell/shell.c ****     {
 1799              		.loc 1 434 11 view .LVU489
 1800 000e 11E0     		b	.L168
 1801              	.LVL162:
 1802              	.L174:
 431:System/shell/shell.c ****     }
 1803              		.loc 1 431 9 is_stmt 1 view .LVU490
 431:System/shell/shell.c ****     }
 1804              		.loc 1 431 11 is_stmt 0 view .LVU491
 1805 0010 6242     		rsbs	r2, r4, #0
 1806              	.LVL163:
 431:System/shell/shell.c ****     }
 1807              		.loc 1 431 11 view .LVU492
 1808 0012 F9E7     		b	.L167
 1809              	.LVL164:
 1810              	.L169:
 436:System/shell/shell.c ****         v /= 10;
 1811              		.loc 1 436 9 is_stmt 1 view .LVU493
 436:System/shell/shell.c ****         v /= 10;
 1812              		.loc 1 436 25 is_stmt 0 view .LVU494
 1813 0014 114B     		ldr	r3, .L176
 1814 0016 83FB023C 		smull	r3, ip, r3, r2
 1815 001a D317     		asrs	r3, r2, #31
 1816 001c C3EBAC03 		rsb	r3, r3, ip, asr #2
 1817 0020 9C46     		mov	ip, r3
 1818 0022 03EB8303 		add	r3, r3, r3, lsl #2
 1819 0026 A2EB4303 		sub	r3, r2, r3, lsl #1
 436:System/shell/shell.c ****         v /= 10;
 1820              		.loc 1 436 21 view .LVU495
 1821 002a 0138     		subs	r0, r0, #1
 1822              	.LVL165:
 436:System/shell/shell.c ****         v /= 10;
 1823              		.loc 1 436 21 view .LVU496
 1824 002c C0B2     		uxtb	r0, r0
 1825              	.LVL166:
 436:System/shell/shell.c ****         v /= 10;
 1826              		.loc 1 436 30 view .LVU497
 1827 002e 3033     		adds	r3, r3, #48
 436:System/shell/shell.c ****         v /= 10;
 1828              		.loc 1 436 21 view .LVU498
 1829 0030 0B54     		strb	r3, [r1, r0]
 437:System/shell/shell.c ****     }
 1830              		.loc 1 437 9 is_stmt 1 view .LVU499
 437:System/shell/shell.c ****     }
 1831              		.loc 1 437 11 is_stmt 0 view .LVU500
 1832 0032 6246     		mov	r2, ip
 1833              	.LVL167:
 1834              	.L168:
 434:System/shell/shell.c ****     {
 1835              		.loc 1 434 11 is_stmt 1 view .LVU501
 1836 0034 002A     		cmp	r2, #0
 1837 0036 EDD1     		bne	.L169
 439:System/shell/shell.c ****     {
 1838              		.loc 1 439 5 view .LVU502
 439:System/shell/shell.c ****     {
ARM GAS  C:\Users\HUAV\AppData\Local\Temp\ccSSjzP1.s 			page 70


 1839              		.loc 1 439 8 is_stmt 0 view .LVU503
 1840 0038 002C     		cmp	r4, #0
 1841 003a 0ADB     		blt	.L175
 1842              	.L170:
 443:System/shell/shell.c ****     {
 1843              		.loc 1 443 5 is_stmt 1 view .LVU504
 443:System/shell/shell.c ****     {
 1844              		.loc 1 443 8 is_stmt 0 view .LVU505
 1845 003c 1CB9     		cbnz	r4, .L171
 445:System/shell/shell.c ****     }
 1846              		.loc 1 445 9 is_stmt 1 view .LVU506
 445:System/shell/shell.c ****     }
 1847              		.loc 1 445 21 is_stmt 0 view .LVU507
 1848 003e 0138     		subs	r0, r0, #1
 1849              	.LVL168:
 445:System/shell/shell.c ****     }
 1850              		.loc 1 445 21 view .LVU508
 1851 0040 C0B2     		uxtb	r0, r0
 1852              	.LVL169:
 445:System/shell/shell.c ****     }
 1853              		.loc 1 445 21 view .LVU509
 1854 0042 3023     		movs	r3, #48
 1855 0044 0B54     		strb	r3, [r1, r0]
 1856              	.L171:
 447:System/shell/shell.c **** }
 1857              		.loc 1 447 5 is_stmt 1 view .LVU510
 447:System/shell/shell.c **** }
 1858              		.loc 1 447 15 is_stmt 0 view .LVU511
 1859 0046 C0F10B00 		rsb	r0, r0, #11
 1860              	.LVL170:
 448:System/shell/shell.c **** 
 1861              		.loc 1 448 1 view .LVU512
 1862 004a 40B2     		sxtb	r0, r0
 1863 004c 5DF8044B 		ldr	r4, [sp], #4
 1864              	.LCFI29:
 1865              		.cfi_remember_state
 1866              		.cfi_restore 4
 1867              		.cfi_def_cfa_offset 0
 1868              	.LVL171:
 448:System/shell/shell.c **** 
 1869              		.loc 1 448 1 view .LVU513
 1870 0050 7047     		bx	lr
 1871              	.LVL172:
 1872              	.L175:
 1873              	.LCFI30:
 1874              		.cfi_restore_state
 441:System/shell/shell.c ****     }
 1875              		.loc 1 441 9 is_stmt 1 view .LVU514
 441:System/shell/shell.c ****     }
 1876              		.loc 1 441 21 is_stmt 0 view .LVU515
 1877 0052 0138     		subs	r0, r0, #1
 1878              	.LVL173:
 441:System/shell/shell.c ****     }
 1879              		.loc 1 441 21 view .LVU516
 1880 0054 C0B2     		uxtb	r0, r0
 1881              	.LVL174:
 441:System/shell/shell.c ****     }
ARM GAS  C:\Users\HUAV\AppData\Local\Temp\ccSSjzP1.s 			page 71


 1882              		.loc 1 441 21 view .LVU517
 1883 0056 2D23     		movs	r3, #45
 1884 0058 0B54     		strb	r3, [r1, r0]
 1885 005a EFE7     		b	.L170
 1886              	.L177:
 1887              		.align	2
 1888              	.L176:
 1889 005c 67666666 		.word	1717986919
 1890              		.cfi_endproc
 1891              	.LFE14:
 1893              		.section	.rodata.shellWriteReturnValue.str1.4,"aMS",%progbits,1
 1894              		.align	2
 1895              	.LC9:
 1896 0000 52657475 		.ascii	"Return: \000"
 1896      726E3A20 
 1896      00
 1897 0009 000000   		.align	2
 1898              	.LC10:
 1899 000c 2C203078 		.ascii	", 0x\000"
 1899      00
 1900 0011 000000   		.align	2
 1901              	.LC8:
 1902 0014 30303030 		.ascii	"00000000000\000"
 1902      30303030 
 1902      30303000 
 1903              		.section	.text.shellWriteReturnValue,"ax",%progbits
 1904              		.align	1
 1905              		.syntax unified
 1906              		.thumb
 1907              		.thumb_func
 1908              		.fpu fpv5-d16
 1910              	shellWriteReturnValue:
 1911              	.LVL175:
 1912              	.LFB39:
1190:System/shell/shell.c ****     char buffer[12] = "00000000000";
 1913              		.loc 1 1190 1 is_stmt 1 view -0
 1914              		.cfi_startproc
 1915              		@ args = 0, pretend = 0, frame = 16
 1916              		@ frame_needed = 0, uses_anonymous_args = 0
1190:System/shell/shell.c ****     char buffer[12] = "00000000000";
 1917              		.loc 1 1190 1 is_stmt 0 view .LVU519
 1918 0000 70B5     		push	{r4, r5, r6, lr}
 1919              	.LCFI31:
 1920              		.cfi_def_cfa_offset 16
 1921              		.cfi_offset 4, -16
 1922              		.cfi_offset 5, -12
 1923              		.cfi_offset 6, -8
 1924              		.cfi_offset 14, -4
 1925 0002 84B0     		sub	sp, sp, #16
 1926              	.LCFI32:
 1927              		.cfi_def_cfa_offset 32
 1928 0004 0446     		mov	r4, r0
 1929 0006 0E46     		mov	r6, r1
1191:System/shell/shell.c ****     shellWriteString(shell, "Return: ");
 1930              		.loc 1 1191 5 is_stmt 1 view .LVU520
1191:System/shell/shell.c ****     shellWriteString(shell, "Return: ");
 1931              		.loc 1 1191 10 is_stmt 0 view .LVU521
ARM GAS  C:\Users\HUAV\AppData\Local\Temp\ccSSjzP1.s 			page 72


 1932 0008 184B     		ldr	r3, .L182
 1933 000a 01AD     		add	r5, sp, #4
 1934 000c 93E80700 		ldm	r3, {r0, r1, r2}
 1935              	.LVL176:
1191:System/shell/shell.c ****     shellWriteString(shell, "Return: ");
 1936              		.loc 1 1191 10 view .LVU522
 1937 0010 85E80700 		stm	r5, {r0, r1, r2}
1192:System/shell/shell.c ****     shellWriteString(shell, &buffer[11 - shellToDec(value, buffer)]);
 1938              		.loc 1 1192 5 is_stmt 1 view .LVU523
 1939 0014 1649     		ldr	r1, .L182+4
 1940 0016 2046     		mov	r0, r4
 1941 0018 FFF7FEFF 		bl	shellWriteString
 1942              	.LVL177:
1193:System/shell/shell.c ****     shellWriteString(shell, ", 0x");
 1943              		.loc 1 1193 5 view .LVU524
1193:System/shell/shell.c ****     shellWriteString(shell, ", 0x");
 1944              		.loc 1 1193 42 is_stmt 0 view .LVU525
 1945 001c 2946     		mov	r1, r5
 1946 001e 3046     		mov	r0, r6
 1947 0020 FFF7FEFF 		bl	shellToDec
 1948              	.LVL178:
1193:System/shell/shell.c ****     shellWriteString(shell, ", 0x");
 1949              		.loc 1 1193 40 view .LVU526
 1950 0024 C0F10B01 		rsb	r1, r0, #11
1193:System/shell/shell.c ****     shellWriteString(shell, ", 0x");
 1951              		.loc 1 1193 5 view .LVU527
 1952 0028 2944     		add	r1, r1, r5
 1953 002a 2046     		mov	r0, r4
 1954 002c FFF7FEFF 		bl	shellWriteString
 1955              	.LVL179:
1194:System/shell/shell.c ****     for (short i = 0; i < 11; i++)
 1956              		.loc 1 1194 5 is_stmt 1 view .LVU528
 1957 0030 1049     		ldr	r1, .L182+8
 1958 0032 2046     		mov	r0, r4
 1959 0034 FFF7FEFF 		bl	shellWriteString
 1960              	.LVL180:
1195:System/shell/shell.c ****     {
 1961              		.loc 1 1195 5 view .LVU529
 1962              	.LBB9:
1195:System/shell/shell.c ****     {
 1963              		.loc 1 1195 10 view .LVU530
1195:System/shell/shell.c ****     {
 1964              		.loc 1 1195 16 is_stmt 0 view .LVU531
 1965 0038 0023     		movs	r3, #0
1195:System/shell/shell.c ****     {
 1966              		.loc 1 1195 5 view .LVU532
 1967 003a 07E0     		b	.L179
 1968              	.LVL181:
 1969              	.L180:
1197:System/shell/shell.c ****     }
 1970              		.loc 1 1197 9 is_stmt 1 discriminator 3 view .LVU533
1197:System/shell/shell.c ****     }
 1971              		.loc 1 1197 19 is_stmt 0 discriminator 3 view .LVU534
 1972 003c 04AA     		add	r2, sp, #16
 1973 003e 1A44     		add	r2, r2, r3
 1974 0040 4FF0300C 		mov	ip, #48
 1975 0044 02F80CCC 		strb	ip, [r2, #-12]
ARM GAS  C:\Users\HUAV\AppData\Local\Temp\ccSSjzP1.s 			page 73


1195:System/shell/shell.c ****     {
 1976              		.loc 1 1195 31 is_stmt 1 discriminator 3 view .LVU535
1195:System/shell/shell.c ****     {
 1977              		.loc 1 1195 32 is_stmt 0 discriminator 3 view .LVU536
 1978 0048 0133     		adds	r3, r3, #1
 1979              	.LVL182:
1195:System/shell/shell.c ****     {
 1980              		.loc 1 1195 32 discriminator 3 view .LVU537
 1981 004a 1BB2     		sxth	r3, r3
 1982              	.LVL183:
 1983              	.L179:
1195:System/shell/shell.c ****     {
 1984              		.loc 1 1195 23 is_stmt 1 discriminator 1 view .LVU538
1195:System/shell/shell.c ****     {
 1985              		.loc 1 1195 5 is_stmt 0 discriminator 1 view .LVU539
 1986 004c 0A2B     		cmp	r3, #10
 1987 004e F5DD     		ble	.L180
 1988              	.LBE9:
1199:System/shell/shell.c ****     shellWriteString(shell, buffer);
 1989              		.loc 1 1199 5 is_stmt 1 view .LVU540
 1990 0050 01A9     		add	r1, sp, #4
 1991 0052 3046     		mov	r0, r6
 1992 0054 FFF7FEFF 		bl	shellToHex
 1993              	.LVL184:
1200:System/shell/shell.c ****     shellWriteString(shell, "\r\n");
 1994              		.loc 1 1200 5 view .LVU541
 1995 0058 01A9     		add	r1, sp, #4
 1996 005a 2046     		mov	r0, r4
 1997 005c FFF7FEFF 		bl	shellWriteString
 1998              	.LVL185:
1201:System/shell/shell.c **** }
 1999              		.loc 1 1201 5 view .LVU542
 2000 0060 0549     		ldr	r1, .L182+12
 2001 0062 2046     		mov	r0, r4
 2002 0064 FFF7FEFF 		bl	shellWriteString
 2003              	.LVL186:
1202:System/shell/shell.c **** 
 2004              		.loc 1 1202 1 is_stmt 0 view .LVU543
 2005 0068 04B0     		add	sp, sp, #16
 2006              	.LCFI33:
 2007              		.cfi_def_cfa_offset 16
 2008              		@ sp needed
 2009 006a 70BD     		pop	{r4, r5, r6, pc}
 2010              	.LVL187:
 2011              	.L183:
1202:System/shell/shell.c **** 
 2012              		.loc 1 1202 1 view .LVU544
 2013              		.align	2
 2014              	.L182:
 2015 006c 14000000 		.word	.LC8
 2016 0070 00000000 		.word	.LC9
 2017 0074 0C000000 		.word	.LC10
 2018 0078 04000000 		.word	.LC3
 2019              		.cfi_endproc
 2020              	.LFE39:
 2022              		.section	.rodata.shellListItem.str1.4,"aMS",%progbits,1
 2023              		.align	2
ARM GAS  C:\Users\HUAV\AppData\Local\Temp\ccSSjzP1.s 			page 74


 2024              	.LC11:
 2025 0000 434D4420 		.ascii	"CMD \015\012\000"
 2025      0D0A00
 2026 0007 00       		.align	2
 2027              	.LC12:
 2028 0008 56415200 		.ascii	"VAR\000"
 2029              		.align	2
 2030              	.LC13:
 2031 000c 55534552 		.ascii	"USER\000"
 2031      00
 2032 0011 000000   		.align	2
 2033              	.LC14:
 2034 0014 4B455900 		.ascii	"KEY\000"
 2035              		.align	2
 2036              	.LC15:
 2037 0018 4E4F4E45 		.ascii	"NONE\000"
 2037      00
 2038              		.section	.text.shellListItem,"ax",%progbits
 2039              		.align	1
 2040              		.global	shellListItem
 2041              		.syntax unified
 2042              		.thumb
 2043              		.thumb_func
 2044              		.fpu fpv5-d16
 2046              	shellListItem:
 2047              	.LVL188:
 2048              	.LFB19:
 558:System/shell/shell.c ****     short spaceLength;
 2049              		.loc 1 558 1 is_stmt 1 view -0
 2050              		.cfi_startproc
 2051              		@ args = 0, pretend = 0, frame = 0
 2052              		@ frame_needed = 0, uses_anonymous_args = 0
 558:System/shell/shell.c ****     short spaceLength;
 2053              		.loc 1 558 1 is_stmt 0 view .LVU546
 2054 0000 70B5     		push	{r4, r5, r6, lr}
 2055              	.LCFI34:
 2056              		.cfi_def_cfa_offset 16
 2057              		.cfi_offset 4, -16
 2058              		.cfi_offset 5, -12
 2059              		.cfi_offset 6, -8
 2060              		.cfi_offset 14, -4
 2061 0002 0546     		mov	r5, r0
 2062 0004 0E46     		mov	r6, r1
 559:System/shell/shell.c **** 
 2063              		.loc 1 559 5 is_stmt 1 view .LVU547
 561:System/shell/shell.c ****     spaceLength = (spaceLength > 0) ? spaceLength : 4;
 2064              		.loc 1 561 5 view .LVU548
 561:System/shell/shell.c ****     spaceLength = (spaceLength > 0) ? spaceLength : 4;
 2065              		.loc 1 561 24 is_stmt 0 view .LVU549
 2066 0006 0846     		mov	r0, r1
 2067              	.LVL189:
 561:System/shell/shell.c ****     spaceLength = (spaceLength > 0) ? spaceLength : 4;
 2068              		.loc 1 561 24 view .LVU550
 2069 0008 FFF7FEFF 		bl	shellGetCommandName
 2070              	.LVL190:
 561:System/shell/shell.c ****     spaceLength = (spaceLength > 0) ? spaceLength : 4;
 2071              		.loc 1 561 24 view .LVU551
ARM GAS  C:\Users\HUAV\AppData\Local\Temp\ccSSjzP1.s 			page 75


 2072 000c 0146     		mov	r1, r0
 2073 000e 2846     		mov	r0, r5
 2074 0010 FFF7FEFF 		bl	shellWriteString
 2075              	.LVL191:
 561:System/shell/shell.c ****     spaceLength = (spaceLength > 0) ? spaceLength : 4;
 2076              		.loc 1 561 22 view .LVU552
 2077 0014 C0F11604 		rsb	r4, r0, #22
 561:System/shell/shell.c ****     spaceLength = (spaceLength > 0) ? spaceLength : 4;
 2078              		.loc 1 561 17 view .LVU553
 2079 0018 24B2     		sxth	r4, r4
 2080              	.LVL192:
 562:System/shell/shell.c ****     do
 2081              		.loc 1 562 5 is_stmt 1 view .LVU554
 562:System/shell/shell.c ****     do
 2082              		.loc 1 562 17 is_stmt 0 view .LVU555
 2083 001a 002C     		cmp	r4, #0
 2084 001c 17DD     		ble	.L194
 2085              	.LVL193:
 2086              	.L186:
 563:System/shell/shell.c ****     {
 2087              		.loc 1 563 5 is_stmt 1 discriminator 1 view .LVU556
 565:System/shell/shell.c ****     } while (--spaceLength);
 2088              		.loc 1 565 9 discriminator 1 view .LVU557
 2089 001e 2D21     		movs	r1, #45
 2090 0020 2846     		mov	r0, r5
 2091 0022 FFF7FEFF 		bl	shellWriteByte
 2092              	.LVL194:
 566:System/shell/shell.c ****     if (item->attr.attrs.type <= SHELL_TYPE_CMD_FUNC)
 2093              		.loc 1 566 13 discriminator 1 view .LVU558
 566:System/shell/shell.c ****     if (item->attr.attrs.type <= SHELL_TYPE_CMD_FUNC)
 2094              		.loc 1 566 14 is_stmt 0 discriminator 1 view .LVU559
 2095 0026 013C     		subs	r4, r4, #1
 2096              	.LVL195:
 566:System/shell/shell.c ****     if (item->attr.attrs.type <= SHELL_TYPE_CMD_FUNC)
 2097              		.loc 1 566 5 discriminator 1 view .LVU560
 2098 0028 24B2     		sxth	r4, r4
 2099              	.LVL196:
 566:System/shell/shell.c ****     if (item->attr.attrs.type <= SHELL_TYPE_CMD_FUNC)
 2100              		.loc 1 566 5 discriminator 1 view .LVU561
 2101 002a 002C     		cmp	r4, #0
 2102 002c F7D1     		bne	.L186
 567:System/shell/shell.c ****     {
 2103              		.loc 1 567 5 is_stmt 1 view .LVU562
 567:System/shell/shell.c ****     {
 2104              		.loc 1 567 25 is_stmt 0 view .LVU563
 2105 002e 7378     		ldrb	r3, [r6, #1]	@ zero_extendqisi2
 2106 0030 03F00F03 		and	r3, r3, #15
 567:System/shell/shell.c ****     {
 2107              		.loc 1 567 8 view .LVU564
 2108 0034 012B     		cmp	r3, #1
 2109 0036 0CD9     		bls	.L195
 571:System/shell/shell.c ****     {
 2110              		.loc 1 571 10 is_stmt 1 view .LVU565
 571:System/shell/shell.c ****     {
 2111              		.loc 1 571 13 is_stmt 0 view .LVU566
 2112 0038 072B     		cmp	r3, #7
 2113 003a 0FD9     		bls	.L196
ARM GAS  C:\Users\HUAV\AppData\Local\Temp\ccSSjzP1.s 			page 76


 575:System/shell/shell.c ****     {
 2114              		.loc 1 575 10 is_stmt 1 view .LVU567
 575:System/shell/shell.c ****     {
 2115              		.loc 1 575 13 is_stmt 0 view .LVU568
 2116 003c 082B     		cmp	r3, #8
 2117 003e 12D9     		bls	.L197
 579:System/shell/shell.c ****     {
 2118              		.loc 1 579 10 is_stmt 1 view .LVU569
 579:System/shell/shell.c ****     {
 2119              		.loc 1 579 13 is_stmt 0 view .LVU570
 2120 0040 092B     		cmp	r3, #9
 2121 0042 15D8     		bhi	.L191
 581:System/shell/shell.c ****     }
 2122              		.loc 1 581 9 is_stmt 1 view .LVU571
 2123 0044 0D49     		ldr	r1, .L198
 2124 0046 2846     		mov	r0, r5
 2125 0048 FFF7FEFF 		bl	shellWriteString
 2126              	.LVL197:
 2127 004c 05E0     		b	.L184
 2128              	.L194:
 562:System/shell/shell.c ****     do
 2129              		.loc 1 562 17 is_stmt 0 view .LVU572
 2130 004e 0424     		movs	r4, #4
 2131              	.LVL198:
 562:System/shell/shell.c ****     do
 2132              		.loc 1 562 17 view .LVU573
 2133 0050 E5E7     		b	.L186
 2134              	.LVL199:
 2135              	.L195:
 569:System/shell/shell.c ****     }
 2136              		.loc 1 569 9 is_stmt 1 view .LVU574
 2137 0052 0B49     		ldr	r1, .L198+4
 2138 0054 2846     		mov	r0, r5
 2139 0056 FFF7FEFF 		bl	shellWriteString
 2140              	.LVL200:
 2141              	.L184:
 597:System/shell/shell.c **** 
 2142              		.loc 1 597 1 is_stmt 0 view .LVU575
 2143 005a 70BD     		pop	{r4, r5, r6, pc}
 2144              	.LVL201:
 2145              	.L196:
 573:System/shell/shell.c ****     }
 2146              		.loc 1 573 9 is_stmt 1 view .LVU576
 2147 005c 0949     		ldr	r1, .L198+8
 2148 005e 2846     		mov	r0, r5
 2149 0060 FFF7FEFF 		bl	shellWriteString
 2150              	.LVL202:
 2151 0064 F9E7     		b	.L184
 2152              	.L197:
 577:System/shell/shell.c ****     }
 2153              		.loc 1 577 9 view .LVU577
 2154 0066 0849     		ldr	r1, .L198+12
 2155 0068 2846     		mov	r0, r5
 2156 006a FFF7FEFF 		bl	shellWriteString
 2157              	.LVL203:
 2158 006e F4E7     		b	.L184
 2159              	.L191:
ARM GAS  C:\Users\HUAV\AppData\Local\Temp\ccSSjzP1.s 			page 77


 585:System/shell/shell.c ****     }
 2160              		.loc 1 585 9 view .LVU578
 2161 0070 0649     		ldr	r1, .L198+16
 2162 0072 2846     		mov	r0, r5
 2163 0074 FFF7FEFF 		bl	shellWriteString
 2164              	.LVL204:
 597:System/shell/shell.c **** 
 2165              		.loc 1 597 1 is_stmt 0 view .LVU579
 2166 0078 EFE7     		b	.L184
 2167              	.L199:
 2168 007a 00BF     		.align	2
 2169              	.L198:
 2170 007c 14000000 		.word	.LC14
 2171 0080 00000000 		.word	.LC11
 2172 0084 08000000 		.word	.LC12
 2173 0088 0C000000 		.word	.LC13
 2174 008c 18000000 		.word	.LC15
 2175              		.cfi_endproc
 2176              	.LFE19:
 2178              		.section	.rodata.shellListCommand.str1.4,"aMS",%progbits,1
 2179              		.align	2
 2180              	.LC16:
 2181 0000 0D0A436F 		.ascii	"\015\012Command List:\015\012\000"
 2181      6D6D616E 
 2181      64204C69 
 2181      73743A0D 
 2181      0A00
 2182              		.section	.text.shellListCommand,"ax",%progbits
 2183              		.align	1
 2184              		.global	shellListCommand
 2185              		.syntax unified
 2186              		.thumb
 2187              		.thumb_func
 2188              		.fpu fpv5-d16
 2190              	shellListCommand:
 2191              	.LVL205:
 2192              	.LFB20:
 605:System/shell/shell.c ****     ShellCommand *base = (ShellCommand *)shell->commandList.base;
 2193              		.loc 1 605 1 is_stmt 1 view -0
 2194              		.cfi_startproc
 2195              		@ args = 0, pretend = 0, frame = 0
 2196              		@ frame_needed = 0, uses_anonymous_args = 0
 605:System/shell/shell.c ****     ShellCommand *base = (ShellCommand *)shell->commandList.base;
 2197              		.loc 1 605 1 is_stmt 0 view .LVU581
 2198 0000 F8B5     		push	{r3, r4, r5, r6, r7, lr}
 2199              	.LCFI35:
 2200              		.cfi_def_cfa_offset 24
 2201              		.cfi_offset 3, -24
 2202              		.cfi_offset 4, -20
 2203              		.cfi_offset 5, -16
 2204              		.cfi_offset 6, -12
 2205              		.cfi_offset 7, -8
 2206              		.cfi_offset 14, -4
 2207 0002 0646     		mov	r6, r0
 606:System/shell/shell.c ****     shellWriteString(shell, shellText[SHELL_TEXT_CMD_LIST]);
 2208              		.loc 1 606 5 is_stmt 1 view .LVU582
 606:System/shell/shell.c ****     shellWriteString(shell, shellText[SHELL_TEXT_CMD_LIST]);
ARM GAS  C:\Users\HUAV\AppData\Local\Temp\ccSSjzP1.s 			page 78


 2209              		.loc 1 606 19 is_stmt 0 view .LVU583
 2210 0004 876D     		ldr	r7, [r0, #88]
 2211              	.LVL206:
 607:System/shell/shell.c ****     for (short i = 0; i < shell->commandList.count; i++)
 2212              		.loc 1 607 5 is_stmt 1 view .LVU584
 2213 0006 0F49     		ldr	r1, .L206
 2214 0008 FFF7FEFF 		bl	shellWriteString
 2215              	.LVL207:
 608:System/shell/shell.c ****     {
 2216              		.loc 1 608 5 view .LVU585
 2217              	.LBB10:
 608:System/shell/shell.c ****     {
 2218              		.loc 1 608 10 view .LVU586
 608:System/shell/shell.c ****     {
 2219              		.loc 1 608 16 is_stmt 0 view .LVU587
 2220 000c 0024     		movs	r4, #0
 608:System/shell/shell.c ****     {
 2221              		.loc 1 608 5 view .LVU588
 2222 000e 01E0     		b	.L201
 2223              	.LVL208:
 2224              	.L202:
 608:System/shell/shell.c ****     {
 2225              		.loc 1 608 53 is_stmt 1 discriminator 2 view .LVU589
 608:System/shell/shell.c ****     {
 2226              		.loc 1 608 54 is_stmt 0 discriminator 2 view .LVU590
 2227 0010 0134     		adds	r4, r4, #1
 2228              	.LVL209:
 608:System/shell/shell.c ****     {
 2229              		.loc 1 608 54 discriminator 2 view .LVU591
 2230 0012 24B2     		sxth	r4, r4
 2231              	.LVL210:
 2232              	.L201:
 608:System/shell/shell.c ****     {
 2233              		.loc 1 608 23 is_stmt 1 discriminator 1 view .LVU592
 608:System/shell/shell.c ****     {
 2234              		.loc 1 608 45 is_stmt 0 discriminator 1 view .LVU593
 2235 0014 B6F85C30 		ldrh	r3, [r6, #92]
 608:System/shell/shell.c ****     {
 2236              		.loc 1 608 5 discriminator 1 view .LVU594
 2237 0018 9C42     		cmp	r4, r3
 2238 001a 11DA     		bge	.L205
 610:System/shell/shell.c ****         {
 2239              		.loc 1 610 9 is_stmt 1 view .LVU595
 610:System/shell/shell.c ****         {
 2240              		.loc 1 610 17 is_stmt 0 view .LVU596
 2241 001c 07EB0415 		add	r5, r7, r4, lsl #4
 610:System/shell/shell.c ****         {
 2242              		.loc 1 610 31 view .LVU597
 2243 0020 6B78     		ldrb	r3, [r5, #1]	@ zero_extendqisi2
 2244 0022 03F00F03 		and	r3, r3, #15
 610:System/shell/shell.c ****         {
 2245              		.loc 1 610 12 view .LVU598
 2246 0026 012B     		cmp	r3, #1
 2247 0028 F2D8     		bhi	.L202
 610:System/shell/shell.c ****         {
 2248              		.loc 1 610 63 discriminator 1 view .LVU599
 2249 002a 2946     		mov	r1, r5
ARM GAS  C:\Users\HUAV\AppData\Local\Temp\ccSSjzP1.s 			page 79


 2250 002c 3046     		mov	r0, r6
 2251 002e FFF7FEFF 		bl	shellCheckPermission
 2252              	.LVL211:
 610:System/shell/shell.c ****         {
 2253              		.loc 1 610 60 discriminator 1 view .LVU600
 2254 0032 0028     		cmp	r0, #0
 2255 0034 ECD1     		bne	.L202
 612:System/shell/shell.c ****         }
 2256              		.loc 1 612 13 is_stmt 1 view .LVU601
 2257 0036 2946     		mov	r1, r5
 2258 0038 3046     		mov	r0, r6
 2259 003a FFF7FEFF 		bl	shellListItem
 2260              	.LVL212:
 2261 003e E7E7     		b	.L202
 2262              	.L205:
 612:System/shell/shell.c ****         }
 2263              		.loc 1 612 13 is_stmt 0 view .LVU602
 2264              	.LBE10:
 615:System/shell/shell.c **** 
 2265              		.loc 1 615 1 view .LVU603
 2266 0040 F8BD     		pop	{r3, r4, r5, r6, r7, pc}
 2267              	.LVL213:
 2268              	.L207:
 615:System/shell/shell.c **** 
 2269              		.loc 1 615 1 view .LVU604
 2270 0042 00BF     		.align	2
 2271              	.L206:
 2272 0044 00000000 		.word	.LC16
 2273              		.cfi_endproc
 2274              	.LFE20:
 2276              		.section	.text.shellCmds,"ax",%progbits
 2277              		.align	1
 2278              		.global	shellCmds
 2279              		.syntax unified
 2280              		.thumb
 2281              		.thumb_func
 2282              		.fpu fpv5-d16
 2284              	shellCmds:
 2285              	.LFB56:
1710:System/shell/shell.c ****     Shell *shell = shellGetCurrent();
 2286              		.loc 1 1710 1 is_stmt 1 view -0
 2287              		.cfi_startproc
 2288              		@ args = 0, pretend = 0, frame = 0
 2289              		@ frame_needed = 0, uses_anonymous_args = 0
 2290 0000 08B5     		push	{r3, lr}
 2291              	.LCFI36:
 2292              		.cfi_def_cfa_offset 8
 2293              		.cfi_offset 3, -8
 2294              		.cfi_offset 14, -4
1711:System/shell/shell.c ****     if (shell)
 2295              		.loc 1 1711 5 view .LVU606
1711:System/shell/shell.c ****     if (shell)
 2296              		.loc 1 1711 20 is_stmt 0 view .LVU607
 2297 0002 FFF7FEFF 		bl	shellGetCurrent
 2298              	.LVL214:
1712:System/shell/shell.c ****     {
 2299              		.loc 1 1712 5 is_stmt 1 view .LVU608
ARM GAS  C:\Users\HUAV\AppData\Local\Temp\ccSSjzP1.s 			page 80


1712:System/shell/shell.c ****     {
 2300              		.loc 1 1712 8 is_stmt 0 view .LVU609
 2301 0006 08B1     		cbz	r0, .L208
1714:System/shell/shell.c ****     }
 2302              		.loc 1 1714 9 is_stmt 1 view .LVU610
 2303 0008 FFF7FEFF 		bl	shellListCommand
 2304              	.LVL215:
 2305              	.L208:
1716:System/shell/shell.c **** SHELL_EXPORT_CMD(
 2306              		.loc 1 1716 1 is_stmt 0 view .LVU611
 2307 000c 08BD     		pop	{r3, pc}
 2308              		.cfi_endproc
 2309              	.LFE56:
 2311              		.section	.rodata.shellListVar.str1.4,"aMS",%progbits,1
 2312              		.align	2
 2313              	.LC17:
 2314 0000 0D0A5661 		.ascii	"\015\012Var List:\015\012\000"
 2314      72204C69 
 2314      73743A0D 
 2314      0A00
 2315              		.section	.text.shellListVar,"ax",%progbits
 2316              		.align	1
 2317              		.global	shellListVar
 2318              		.syntax unified
 2319              		.thumb
 2320              		.thumb_func
 2321              		.fpu fpv5-d16
 2323              	shellListVar:
 2324              	.LVL216:
 2325              	.LFB21:
 623:System/shell/shell.c ****     ShellCommand *base = (ShellCommand *)shell->commandList.base;
 2326              		.loc 1 623 1 is_stmt 1 view -0
 2327              		.cfi_startproc
 2328              		@ args = 0, pretend = 0, frame = 0
 2329              		@ frame_needed = 0, uses_anonymous_args = 0
 623:System/shell/shell.c ****     ShellCommand *base = (ShellCommand *)shell->commandList.base;
 2330              		.loc 1 623 1 is_stmt 0 view .LVU613
 2331 0000 F8B5     		push	{r3, r4, r5, r6, r7, lr}
 2332              	.LCFI37:
 2333              		.cfi_def_cfa_offset 24
 2334              		.cfi_offset 3, -24
 2335              		.cfi_offset 4, -20
 2336              		.cfi_offset 5, -16
 2337              		.cfi_offset 6, -12
 2338              		.cfi_offset 7, -8
 2339              		.cfi_offset 14, -4
 2340 0002 0646     		mov	r6, r0
 624:System/shell/shell.c ****     shellWriteString(shell, shellText[SHELL_TEXT_VAR_LIST]);
 2341              		.loc 1 624 5 is_stmt 1 view .LVU614
 624:System/shell/shell.c ****     shellWriteString(shell, shellText[SHELL_TEXT_VAR_LIST]);
 2342              		.loc 1 624 19 is_stmt 0 view .LVU615
 2343 0004 876D     		ldr	r7, [r0, #88]
 2344              	.LVL217:
 625:System/shell/shell.c ****     for (short i = 0; i < shell->commandList.count; i++)
 2345              		.loc 1 625 5 is_stmt 1 view .LVU616
 2346 0006 1049     		ldr	r1, .L217
 2347 0008 FFF7FEFF 		bl	shellWriteString
ARM GAS  C:\Users\HUAV\AppData\Local\Temp\ccSSjzP1.s 			page 81


 2348              	.LVL218:
 626:System/shell/shell.c ****     {
 2349              		.loc 1 626 5 view .LVU617
 2350              	.LBB11:
 626:System/shell/shell.c ****     {
 2351              		.loc 1 626 10 view .LVU618
 626:System/shell/shell.c ****     {
 2352              		.loc 1 626 16 is_stmt 0 view .LVU619
 2353 000c 0024     		movs	r4, #0
 626:System/shell/shell.c ****     {
 2354              		.loc 1 626 5 view .LVU620
 2355 000e 01E0     		b	.L212
 2356              	.LVL219:
 2357              	.L213:
 626:System/shell/shell.c ****     {
 2358              		.loc 1 626 53 is_stmt 1 discriminator 2 view .LVU621
 626:System/shell/shell.c ****     {
 2359              		.loc 1 626 54 is_stmt 0 discriminator 2 view .LVU622
 2360 0010 0134     		adds	r4, r4, #1
 2361              	.LVL220:
 626:System/shell/shell.c ****     {
 2362              		.loc 1 626 54 discriminator 2 view .LVU623
 2363 0012 24B2     		sxth	r4, r4
 2364              	.LVL221:
 2365              	.L212:
 626:System/shell/shell.c ****     {
 2366              		.loc 1 626 23 is_stmt 1 discriminator 1 view .LVU624
 626:System/shell/shell.c ****     {
 2367              		.loc 1 626 45 is_stmt 0 discriminator 1 view .LVU625
 2368 0014 B6F85C30 		ldrh	r3, [r6, #92]
 626:System/shell/shell.c ****     {
 2369              		.loc 1 626 5 discriminator 1 view .LVU626
 2370 0018 9C42     		cmp	r4, r3
 2371 001a 14DA     		bge	.L216
 628:System/shell/shell.c ****         {
 2372              		.loc 1 628 9 is_stmt 1 view .LVU627
 628:System/shell/shell.c ****         {
 2373              		.loc 1 628 17 is_stmt 0 view .LVU628
 2374 001c 07EB0415 		add	r5, r7, r4, lsl #4
 628:System/shell/shell.c ****         {
 2375              		.loc 1 628 31 view .LVU629
 2376 0020 6B78     		ldrb	r3, [r5, #1]	@ zero_extendqisi2
 2377 0022 03F00F03 		and	r3, r3, #15
 628:System/shell/shell.c ****         {
 2378              		.loc 1 628 59 view .LVU630
 2379 0026 0E33     		adds	r3, r3, #14
 2380 0028 03F00F03 		and	r3, r3, #15
 628:System/shell/shell.c ****         {
 2381              		.loc 1 628 12 view .LVU631
 2382 002c 052B     		cmp	r3, #5
 2383 002e EFD8     		bhi	.L213
 628:System/shell/shell.c ****         {
 2384              		.loc 1 628 112 discriminator 1 view .LVU632
 2385 0030 2946     		mov	r1, r5
 2386 0032 3046     		mov	r0, r6
 2387 0034 FFF7FEFF 		bl	shellCheckPermission
 2388              	.LVL222:
ARM GAS  C:\Users\HUAV\AppData\Local\Temp\ccSSjzP1.s 			page 82


 628:System/shell/shell.c ****         {
 2389              		.loc 1 628 109 discriminator 1 view .LVU633
 2390 0038 0028     		cmp	r0, #0
 2391 003a E9D1     		bne	.L213
 630:System/shell/shell.c ****         }
 2392              		.loc 1 630 13 is_stmt 1 view .LVU634
 2393 003c 2946     		mov	r1, r5
 2394 003e 3046     		mov	r0, r6
 2395 0040 FFF7FEFF 		bl	shellListItem
 2396              	.LVL223:
 2397 0044 E4E7     		b	.L213
 2398              	.L216:
 630:System/shell/shell.c ****         }
 2399              		.loc 1 630 13 is_stmt 0 view .LVU635
 2400              	.LBE11:
 633:System/shell/shell.c **** 
 2401              		.loc 1 633 1 view .LVU636
 2402 0046 F8BD     		pop	{r3, r4, r5, r6, r7, pc}
 2403              	.LVL224:
 2404              	.L218:
 633:System/shell/shell.c **** 
 2405              		.loc 1 633 1 view .LVU637
 2406              		.align	2
 2407              	.L217:
 2408 0048 00000000 		.word	.LC17
 2409              		.cfi_endproc
 2410              	.LFE21:
 2412              		.section	.text.shellVars,"ax",%progbits
 2413              		.align	1
 2414              		.global	shellVars
 2415              		.syntax unified
 2416              		.thumb
 2417              		.thumb_func
 2418              		.fpu fpv5-d16
 2420              	shellVars:
 2421              	.LFB57:
1725:System/shell/shell.c ****     Shell *shell = shellGetCurrent();
 2422              		.loc 1 1725 1 is_stmt 1 view -0
 2423              		.cfi_startproc
 2424              		@ args = 0, pretend = 0, frame = 0
 2425              		@ frame_needed = 0, uses_anonymous_args = 0
 2426 0000 08B5     		push	{r3, lr}
 2427              	.LCFI38:
 2428              		.cfi_def_cfa_offset 8
 2429              		.cfi_offset 3, -8
 2430              		.cfi_offset 14, -4
1726:System/shell/shell.c ****     if (shell)
 2431              		.loc 1 1726 5 view .LVU639
1726:System/shell/shell.c ****     if (shell)
 2432              		.loc 1 1726 20 is_stmt 0 view .LVU640
 2433 0002 FFF7FEFF 		bl	shellGetCurrent
 2434              	.LVL225:
1727:System/shell/shell.c ****     {
 2435              		.loc 1 1727 5 is_stmt 1 view .LVU641
1727:System/shell/shell.c ****     {
 2436              		.loc 1 1727 8 is_stmt 0 view .LVU642
 2437 0006 08B1     		cbz	r0, .L219
ARM GAS  C:\Users\HUAV\AppData\Local\Temp\ccSSjzP1.s 			page 83


1729:System/shell/shell.c ****     }
 2438              		.loc 1 1729 9 is_stmt 1 view .LVU643
 2439 0008 FFF7FEFF 		bl	shellListVar
 2440              	.LVL226:
 2441              	.L219:
1731:System/shell/shell.c **** SHELL_EXPORT_CMD(
 2442              		.loc 1 1731 1 is_stmt 0 view .LVU644
 2443 000c 08BD     		pop	{r3, pc}
 2444              		.cfi_endproc
 2445              	.LFE57:
 2447              		.section	.rodata.shellListUser.str1.4,"aMS",%progbits,1
 2448              		.align	2
 2449              	.LC18:
 2450 0000 0D0A5573 		.ascii	"\015\012User List:\015\012\000"
 2450      6572204C 
 2450      6973743A 
 2450      0D0A00
 2451              		.section	.text.shellListUser,"ax",%progbits
 2452              		.align	1
 2453              		.global	shellListUser
 2454              		.syntax unified
 2455              		.thumb
 2456              		.thumb_func
 2457              		.fpu fpv5-d16
 2459              	shellListUser:
 2460              	.LVL227:
 2461              	.LFB22:
 641:System/shell/shell.c ****     ShellCommand *base = (ShellCommand *)shell->commandList.base;
 2462              		.loc 1 641 1 is_stmt 1 view -0
 2463              		.cfi_startproc
 2464              		@ args = 0, pretend = 0, frame = 0
 2465              		@ frame_needed = 0, uses_anonymous_args = 0
 641:System/shell/shell.c ****     ShellCommand *base = (ShellCommand *)shell->commandList.base;
 2466              		.loc 1 641 1 is_stmt 0 view .LVU646
 2467 0000 F8B5     		push	{r3, r4, r5, r6, r7, lr}
 2468              	.LCFI39:
 2469              		.cfi_def_cfa_offset 24
 2470              		.cfi_offset 3, -24
 2471              		.cfi_offset 4, -20
 2472              		.cfi_offset 5, -16
 2473              		.cfi_offset 6, -12
 2474              		.cfi_offset 7, -8
 2475              		.cfi_offset 14, -4
 2476 0002 0646     		mov	r6, r0
 642:System/shell/shell.c ****     shellWriteString(shell, shellText[SHELL_TEXT_USER_LIST]);
 2477              		.loc 1 642 5 is_stmt 1 view .LVU647
 642:System/shell/shell.c ****     shellWriteString(shell, shellText[SHELL_TEXT_USER_LIST]);
 2478              		.loc 1 642 19 is_stmt 0 view .LVU648
 2479 0004 876D     		ldr	r7, [r0, #88]
 2480              	.LVL228:
 643:System/shell/shell.c ****     for (short i = 0; i < shell->commandList.count; i++)
 2481              		.loc 1 643 5 is_stmt 1 view .LVU649
 2482 0006 0F49     		ldr	r1, .L228
 2483 0008 FFF7FEFF 		bl	shellWriteString
 2484              	.LVL229:
 644:System/shell/shell.c ****     {
 2485              		.loc 1 644 5 view .LVU650
ARM GAS  C:\Users\HUAV\AppData\Local\Temp\ccSSjzP1.s 			page 84


 2486              	.LBB12:
 644:System/shell/shell.c ****     {
 2487              		.loc 1 644 10 view .LVU651
 644:System/shell/shell.c ****     {
 2488              		.loc 1 644 16 is_stmt 0 view .LVU652
 2489 000c 0024     		movs	r4, #0
 644:System/shell/shell.c ****     {
 2490              		.loc 1 644 5 view .LVU653
 2491 000e 01E0     		b	.L223
 2492              	.LVL230:
 2493              	.L224:
 644:System/shell/shell.c ****     {
 2494              		.loc 1 644 53 is_stmt 1 discriminator 2 view .LVU654
 644:System/shell/shell.c ****     {
 2495              		.loc 1 644 54 is_stmt 0 discriminator 2 view .LVU655
 2496 0010 0134     		adds	r4, r4, #1
 2497              	.LVL231:
 644:System/shell/shell.c ****     {
 2498              		.loc 1 644 54 discriminator 2 view .LVU656
 2499 0012 24B2     		sxth	r4, r4
 2500              	.LVL232:
 2501              	.L223:
 644:System/shell/shell.c ****     {
 2502              		.loc 1 644 23 is_stmt 1 discriminator 1 view .LVU657
 644:System/shell/shell.c ****     {
 2503              		.loc 1 644 45 is_stmt 0 discriminator 1 view .LVU658
 2504 0014 B6F85C30 		ldrh	r3, [r6, #92]
 644:System/shell/shell.c ****     {
 2505              		.loc 1 644 5 discriminator 1 view .LVU659
 2506 0018 9C42     		cmp	r4, r3
 2507 001a 11DA     		bge	.L227
 646:System/shell/shell.c ****         {
 2508              		.loc 1 646 9 is_stmt 1 view .LVU660
 646:System/shell/shell.c ****         {
 2509              		.loc 1 646 17 is_stmt 0 view .LVU661
 2510 001c 07EB0415 		add	r5, r7, r4, lsl #4
 646:System/shell/shell.c ****         {
 2511              		.loc 1 646 59 view .LVU662
 2512 0020 6B78     		ldrb	r3, [r5, #1]	@ zero_extendqisi2
 2513 0022 03F00F03 		and	r3, r3, #15
 646:System/shell/shell.c ****         {
 2514              		.loc 1 646 12 view .LVU663
 2515 0026 082B     		cmp	r3, #8
 2516 0028 F2D1     		bne	.L224
 646:System/shell/shell.c ****         {
 2517              		.loc 1 646 108 discriminator 1 view .LVU664
 2518 002a 2946     		mov	r1, r5
 2519 002c 3046     		mov	r0, r6
 2520 002e FFF7FEFF 		bl	shellCheckPermission
 2521              	.LVL233:
 646:System/shell/shell.c ****         {
 2522              		.loc 1 646 105 discriminator 1 view .LVU665
 2523 0032 0028     		cmp	r0, #0
 2524 0034 ECD1     		bne	.L224
 648:System/shell/shell.c ****         }
 2525              		.loc 1 648 13 is_stmt 1 view .LVU666
 2526 0036 2946     		mov	r1, r5
ARM GAS  C:\Users\HUAV\AppData\Local\Temp\ccSSjzP1.s 			page 85


 2527 0038 3046     		mov	r0, r6
 2528 003a FFF7FEFF 		bl	shellListItem
 2529              	.LVL234:
 2530 003e E7E7     		b	.L224
 2531              	.L227:
 648:System/shell/shell.c ****         }
 2532              		.loc 1 648 13 is_stmt 0 view .LVU667
 2533              	.LBE12:
 651:System/shell/shell.c **** 
 2534              		.loc 1 651 1 view .LVU668
 2535 0040 F8BD     		pop	{r3, r4, r5, r6, r7, pc}
 2536              	.LVL235:
 2537              	.L229:
 651:System/shell/shell.c **** 
 2538              		.loc 1 651 1 view .LVU669
 2539 0042 00BF     		.align	2
 2540              	.L228:
 2541 0044 00000000 		.word	.LC18
 2542              		.cfi_endproc
 2543              	.LFE22:
 2545              		.section	.text.shellUsers,"ax",%progbits
 2546              		.align	1
 2547              		.global	shellUsers
 2548              		.syntax unified
 2549              		.thumb
 2550              		.thumb_func
 2551              		.fpu fpv5-d16
 2553              	shellUsers:
 2554              	.LFB55:
1695:System/shell/shell.c ****     Shell *shell = shellGetCurrent();
 2555              		.loc 1 1695 1 is_stmt 1 view -0
 2556              		.cfi_startproc
 2557              		@ args = 0, pretend = 0, frame = 0
 2558              		@ frame_needed = 0, uses_anonymous_args = 0
 2559 0000 08B5     		push	{r3, lr}
 2560              	.LCFI40:
 2561              		.cfi_def_cfa_offset 8
 2562              		.cfi_offset 3, -8
 2563              		.cfi_offset 14, -4
1696:System/shell/shell.c ****     if (shell)
 2564              		.loc 1 1696 5 view .LVU671
1696:System/shell/shell.c ****     if (shell)
 2565              		.loc 1 1696 20 is_stmt 0 view .LVU672
 2566 0002 FFF7FEFF 		bl	shellGetCurrent
 2567              	.LVL236:
1697:System/shell/shell.c ****     {
 2568              		.loc 1 1697 5 is_stmt 1 view .LVU673
1697:System/shell/shell.c ****     {
 2569              		.loc 1 1697 8 is_stmt 0 view .LVU674
 2570 0006 08B1     		cbz	r0, .L230
1699:System/shell/shell.c ****     }
 2571              		.loc 1 1699 9 is_stmt 1 view .LVU675
 2572 0008 FFF7FEFF 		bl	shellListUser
 2573              	.LVL237:
 2574              	.L230:
1701:System/shell/shell.c **** SHELL_EXPORT_CMD(
 2575              		.loc 1 1701 1 is_stmt 0 view .LVU676
ARM GAS  C:\Users\HUAV\AppData\Local\Temp\ccSSjzP1.s 			page 86


 2576 000c 08BD     		pop	{r3, pc}
 2577              		.cfi_endproc
 2578              	.LFE55:
 2580              		.section	.rodata.shellListKey.str1.4,"aMS",%progbits,1
 2581              		.align	2
 2582              	.LC19:
 2583 0000 0D0A4B65 		.ascii	"\015\012Key List:\015\012\000"
 2583      79204C69 
 2583      73743A0D 
 2583      0A00
 2584              		.section	.text.shellListKey,"ax",%progbits
 2585              		.align	1
 2586              		.global	shellListKey
 2587              		.syntax unified
 2588              		.thumb
 2589              		.thumb_func
 2590              		.fpu fpv5-d16
 2592              	shellListKey:
 2593              	.LVL238:
 2594              	.LFB23:
 659:System/shell/shell.c ****     ShellCommand *base = (ShellCommand *)shell->commandList.base;
 2595              		.loc 1 659 1 is_stmt 1 view -0
 2596              		.cfi_startproc
 2597              		@ args = 0, pretend = 0, frame = 0
 2598              		@ frame_needed = 0, uses_anonymous_args = 0
 659:System/shell/shell.c ****     ShellCommand *base = (ShellCommand *)shell->commandList.base;
 2599              		.loc 1 659 1 is_stmt 0 view .LVU678
 2600 0000 F8B5     		push	{r3, r4, r5, r6, r7, lr}
 2601              	.LCFI41:
 2602              		.cfi_def_cfa_offset 24
 2603              		.cfi_offset 3, -24
 2604              		.cfi_offset 4, -20
 2605              		.cfi_offset 5, -16
 2606              		.cfi_offset 6, -12
 2607              		.cfi_offset 7, -8
 2608              		.cfi_offset 14, -4
 2609 0002 0646     		mov	r6, r0
 660:System/shell/shell.c ****     shellWriteString(shell, shellText[SHELL_TEXT_KEY_LIST]);
 2610              		.loc 1 660 5 is_stmt 1 view .LVU679
 660:System/shell/shell.c ****     shellWriteString(shell, shellText[SHELL_TEXT_KEY_LIST]);
 2611              		.loc 1 660 19 is_stmt 0 view .LVU680
 2612 0004 876D     		ldr	r7, [r0, #88]
 2613              	.LVL239:
 661:System/shell/shell.c ****     for (short i = 0; i < shell->commandList.count; i++)
 2614              		.loc 1 661 5 is_stmt 1 view .LVU681
 2615 0006 0F49     		ldr	r1, .L239
 2616 0008 FFF7FEFF 		bl	shellWriteString
 2617              	.LVL240:
 662:System/shell/shell.c ****     {
 2618              		.loc 1 662 5 view .LVU682
 2619              	.LBB13:
 662:System/shell/shell.c ****     {
 2620              		.loc 1 662 10 view .LVU683
 662:System/shell/shell.c ****     {
 2621              		.loc 1 662 16 is_stmt 0 view .LVU684
 2622 000c 0024     		movs	r4, #0
 662:System/shell/shell.c ****     {
ARM GAS  C:\Users\HUAV\AppData\Local\Temp\ccSSjzP1.s 			page 87


 2623              		.loc 1 662 5 view .LVU685
 2624 000e 01E0     		b	.L234
 2625              	.LVL241:
 2626              	.L235:
 662:System/shell/shell.c ****     {
 2627              		.loc 1 662 53 is_stmt 1 discriminator 2 view .LVU686
 662:System/shell/shell.c ****     {
 2628              		.loc 1 662 54 is_stmt 0 discriminator 2 view .LVU687
 2629 0010 0134     		adds	r4, r4, #1
 2630              	.LVL242:
 662:System/shell/shell.c ****     {
 2631              		.loc 1 662 54 discriminator 2 view .LVU688
 2632 0012 24B2     		sxth	r4, r4
 2633              	.LVL243:
 2634              	.L234:
 662:System/shell/shell.c ****     {
 2635              		.loc 1 662 23 is_stmt 1 discriminator 1 view .LVU689
 662:System/shell/shell.c ****     {
 2636              		.loc 1 662 45 is_stmt 0 discriminator 1 view .LVU690
 2637 0014 B6F85C30 		ldrh	r3, [r6, #92]
 662:System/shell/shell.c ****     {
 2638              		.loc 1 662 5 discriminator 1 view .LVU691
 2639 0018 9C42     		cmp	r4, r3
 2640 001a 11DA     		bge	.L238
 664:System/shell/shell.c ****         {
 2641              		.loc 1 664 9 is_stmt 1 view .LVU692
 664:System/shell/shell.c ****         {
 2642              		.loc 1 664 17 is_stmt 0 view .LVU693
 2643 001c 07EB0415 		add	r5, r7, r4, lsl #4
 664:System/shell/shell.c ****         {
 2644              		.loc 1 664 55 view .LVU694
 2645 0020 6B78     		ldrb	r3, [r5, #1]	@ zero_extendqisi2
 2646 0022 03F00F03 		and	r3, r3, #15
 664:System/shell/shell.c ****         {
 2647              		.loc 1 664 12 view .LVU695
 2648 0026 092B     		cmp	r3, #9
 2649 0028 F2D1     		bne	.L235
 664:System/shell/shell.c ****         {
 2650              		.loc 1 664 103 discriminator 1 view .LVU696
 2651 002a 2946     		mov	r1, r5
 2652 002c 3046     		mov	r0, r6
 2653 002e FFF7FEFF 		bl	shellCheckPermission
 2654              	.LVL244:
 664:System/shell/shell.c ****         {
 2655              		.loc 1 664 100 discriminator 1 view .LVU697
 2656 0032 0028     		cmp	r0, #0
 2657 0034 ECD1     		bne	.L235
 666:System/shell/shell.c ****         }
 2658              		.loc 1 666 13 is_stmt 1 view .LVU698
 2659 0036 2946     		mov	r1, r5
 2660 0038 3046     		mov	r0, r6
 2661 003a FFF7FEFF 		bl	shellListItem
 2662              	.LVL245:
 2663 003e E7E7     		b	.L235
 2664              	.L238:
 666:System/shell/shell.c ****         }
 2665              		.loc 1 666 13 is_stmt 0 view .LVU699
ARM GAS  C:\Users\HUAV\AppData\Local\Temp\ccSSjzP1.s 			page 88


 2666              	.LBE13:
 669:System/shell/shell.c **** 
 2667              		.loc 1 669 1 view .LVU700
 2668 0040 F8BD     		pop	{r3, r4, r5, r6, r7, pc}
 2669              	.LVL246:
 2670              	.L240:
 669:System/shell/shell.c **** 
 2671              		.loc 1 669 1 view .LVU701
 2672 0042 00BF     		.align	2
 2673              	.L239:
 2674 0044 00000000 		.word	.LC19
 2675              		.cfi_endproc
 2676              	.LFE23:
 2678              		.section	.text.shellKeys,"ax",%progbits
 2679              		.align	1
 2680              		.global	shellKeys
 2681              		.syntax unified
 2682              		.thumb
 2683              		.thumb_func
 2684              		.fpu fpv5-d16
 2686              	shellKeys:
 2687              	.LFB58:
1740:System/shell/shell.c ****     Shell *shell = shellGetCurrent();
 2688              		.loc 1 1740 1 is_stmt 1 view -0
 2689              		.cfi_startproc
 2690              		@ args = 0, pretend = 0, frame = 0
 2691              		@ frame_needed = 0, uses_anonymous_args = 0
 2692 0000 08B5     		push	{r3, lr}
 2693              	.LCFI42:
 2694              		.cfi_def_cfa_offset 8
 2695              		.cfi_offset 3, -8
 2696              		.cfi_offset 14, -4
1741:System/shell/shell.c ****     if (shell)
 2697              		.loc 1 1741 5 view .LVU703
1741:System/shell/shell.c ****     if (shell)
 2698              		.loc 1 1741 20 is_stmt 0 view .LVU704
 2699 0002 FFF7FEFF 		bl	shellGetCurrent
 2700              	.LVL247:
1742:System/shell/shell.c ****     {
 2701              		.loc 1 1742 5 is_stmt 1 view .LVU705
1742:System/shell/shell.c ****     {
 2702              		.loc 1 1742 8 is_stmt 0 view .LVU706
 2703 0006 08B1     		cbz	r0, .L241
1744:System/shell/shell.c ****     }
 2704              		.loc 1 1744 9 is_stmt 1 view .LVU707
 2705 0008 FFF7FEFF 		bl	shellListKey
 2706              	.LVL248:
 2707              	.L241:
1746:System/shell/shell.c **** SHELL_EXPORT_CMD(
 2708              		.loc 1 1746 1 is_stmt 0 view .LVU708
 2709 000c 08BD     		pop	{r3, pc}
 2710              		.cfi_endproc
 2711              	.LFE58:
 2713              		.section	.text.shellListAll,"ax",%progbits
 2714              		.align	1
 2715              		.global	shellListAll
 2716              		.syntax unified
ARM GAS  C:\Users\HUAV\AppData\Local\Temp\ccSSjzP1.s 			page 89


 2717              		.thumb
 2718              		.thumb_func
 2719              		.fpu fpv5-d16
 2721              	shellListAll:
 2722              	.LVL249:
 2723              	.LFB24:
 677:System/shell/shell.c **** #if SHELL_HELP_LIST_USER == 1
 2724              		.loc 1 677 1 is_stmt 1 view -0
 2725              		.cfi_startproc
 2726              		@ args = 0, pretend = 0, frame = 0
 2727              		@ frame_needed = 0, uses_anonymous_args = 0
 677:System/shell/shell.c **** #if SHELL_HELP_LIST_USER == 1
 2728              		.loc 1 677 1 is_stmt 0 view .LVU710
 2729 0000 08B5     		push	{r3, lr}
 2730              	.LCFI43:
 2731              		.cfi_def_cfa_offset 8
 2732              		.cfi_offset 3, -8
 2733              		.cfi_offset 14, -4
 681:System/shell/shell.c **** #if SHELL_HELP_LIST_VAR == 1
 2734              		.loc 1 681 5 is_stmt 1 view .LVU711
 2735 0002 FFF7FEFF 		bl	shellListCommand
 2736              	.LVL250:
 688:System/shell/shell.c **** 
 2737              		.loc 1 688 1 is_stmt 0 view .LVU712
 2738 0006 08BD     		pop	{r3, pc}
 2739              		.cfi_endproc
 2740              	.LFE24:
 2742              		.section	.rodata.shellDeleteCommandLine.str1.4,"aMS",%progbits,1
 2743              		.align	2
 2744              	.LC20:
 2745 0000 08200800 		.ascii	"\010 \010\000"
 2746              		.section	.text.shellDeleteCommandLine,"ax",%progbits
 2747              		.align	1
 2748              		.global	shellDeleteCommandLine
 2749              		.syntax unified
 2750              		.thumb
 2751              		.thumb_func
 2752              		.fpu fpv5-d16
 2754              	shellDeleteCommandLine:
 2755              	.LVL251:
 2756              	.LFB25:
 697:System/shell/shell.c ****     while (length--)
 2757              		.loc 1 697 1 is_stmt 1 view -0
 2758              		.cfi_startproc
 2759              		@ args = 0, pretend = 0, frame = 0
 2760              		@ frame_needed = 0, uses_anonymous_args = 0
 697:System/shell/shell.c ****     while (length--)
 2761              		.loc 1 697 1 is_stmt 0 view .LVU714
 2762 0000 38B5     		push	{r3, r4, r5, lr}
 2763              	.LCFI44:
 2764              		.cfi_def_cfa_offset 16
 2765              		.cfi_offset 3, -16
 2766              		.cfi_offset 4, -12
 2767              		.cfi_offset 5, -8
 2768              		.cfi_offset 14, -4
 2769 0002 0546     		mov	r5, r0
 698:System/shell/shell.c ****     {
ARM GAS  C:\Users\HUAV\AppData\Local\Temp\ccSSjzP1.s 			page 90


 2770              		.loc 1 698 5 is_stmt 1 view .LVU715
 698:System/shell/shell.c ****     {
 2771              		.loc 1 698 11 is_stmt 0 view .LVU716
 2772 0004 04E0     		b	.L247
 2773              	.LVL252:
 2774              	.L248:
 700:System/shell/shell.c ****     }
 2775              		.loc 1 700 9 is_stmt 1 view .LVU717
 2776 0006 0549     		ldr	r1, .L250
 2777 0008 2846     		mov	r0, r5
 2778 000a FFF7FEFF 		bl	shellWriteString
 2779              	.LVL253:
 698:System/shell/shell.c ****     {
 2780              		.loc 1 698 18 is_stmt 0 view .LVU718
 2781 000e 2146     		mov	r1, r4
 2782              	.LVL254:
 2783              	.L247:
 698:System/shell/shell.c ****     {
 2784              		.loc 1 698 11 is_stmt 1 view .LVU719
 698:System/shell/shell.c ****     {
 2785              		.loc 1 698 18 is_stmt 0 view .LVU720
 2786 0010 4B1E     		subs	r3, r1, #1
 2787 0012 DCB2     		uxtb	r4, r3
 2788              	.LVL255:
 698:System/shell/shell.c ****     {
 2789              		.loc 1 698 11 view .LVU721
 2790 0014 0029     		cmp	r1, #0
 2791 0016 F6D1     		bne	.L248
 702:System/shell/shell.c **** 
 2792              		.loc 1 702 1 view .LVU722
 2793 0018 38BD     		pop	{r3, r4, r5, pc}
 2794              	.LVL256:
 2795              	.L251:
 702:System/shell/shell.c **** 
 2796              		.loc 1 702 1 view .LVU723
 2797 001a 00BF     		.align	2
 2798              	.L250:
 2799 001c 00000000 		.word	.LC20
 2800              		.cfi_endproc
 2801              	.LFE25:
 2803              		.section	.text.shellClearCommandLine,"ax",%progbits
 2804              		.align	1
 2805              		.global	shellClearCommandLine
 2806              		.syntax unified
 2807              		.thumb
 2808              		.thumb_func
 2809              		.fpu fpv5-d16
 2811              	shellClearCommandLine:
 2812              	.LVL257:
 2813              	.LFB26:
 710:System/shell/shell.c ****     for (short i = shell->parser.length - shell->parser.cursor; i > 0; i--)
 2814              		.loc 1 710 1 is_stmt 1 view -0
 2815              		.cfi_startproc
 2816              		@ args = 0, pretend = 0, frame = 0
 2817              		@ frame_needed = 0, uses_anonymous_args = 0
 710:System/shell/shell.c ****     for (short i = shell->parser.length - shell->parser.cursor; i > 0; i--)
 2818              		.loc 1 710 1 is_stmt 0 view .LVU725
ARM GAS  C:\Users\HUAV\AppData\Local\Temp\ccSSjzP1.s 			page 91


 2819 0000 38B5     		push	{r3, r4, r5, lr}
 2820              	.LCFI45:
 2821              		.cfi_def_cfa_offset 16
 2822              		.cfi_offset 3, -16
 2823              		.cfi_offset 4, -12
 2824              		.cfi_offset 5, -8
 2825              		.cfi_offset 14, -4
 2826 0002 0546     		mov	r5, r0
 711:System/shell/shell.c ****     {
 2827              		.loc 1 711 5 is_stmt 1 view .LVU726
 2828              	.LBB14:
 711:System/shell/shell.c ****     {
 2829              		.loc 1 711 10 view .LVU727
 711:System/shell/shell.c ****     {
 2830              		.loc 1 711 33 is_stmt 0 view .LVU728
 2831 0004 8489     		ldrh	r4, [r0, #12]
 711:System/shell/shell.c ****     {
 2832              		.loc 1 711 56 view .LVU729
 2833 0006 C389     		ldrh	r3, [r0, #14]
 711:System/shell/shell.c ****     {
 2834              		.loc 1 711 41 view .LVU730
 2835 0008 E41A     		subs	r4, r4, r3
 711:System/shell/shell.c ****     {
 2836              		.loc 1 711 16 view .LVU731
 2837 000a 24B2     		sxth	r4, r4
 2838              	.LVL258:
 711:System/shell/shell.c ****     {
 2839              		.loc 1 711 5 view .LVU732
 2840 000c 05E0     		b	.L253
 2841              	.LVL259:
 2842              	.L254:
 713:System/shell/shell.c ****     }
 2843              		.loc 1 713 9 is_stmt 1 discriminator 3 view .LVU733
 2844 000e 2021     		movs	r1, #32
 2845 0010 2846     		mov	r0, r5
 2846 0012 FFF7FEFF 		bl	shellWriteByte
 2847              	.LVL260:
 711:System/shell/shell.c ****     {
 2848              		.loc 1 711 72 discriminator 3 view .LVU734
 711:System/shell/shell.c ****     {
 2849              		.loc 1 711 73 is_stmt 0 discriminator 3 view .LVU735
 2850 0016 013C     		subs	r4, r4, #1
 2851              	.LVL261:
 711:System/shell/shell.c ****     {
 2852              		.loc 1 711 73 discriminator 3 view .LVU736
 2853 0018 24B2     		sxth	r4, r4
 2854              	.LVL262:
 2855              	.L253:
 711:System/shell/shell.c ****     {
 2856              		.loc 1 711 65 is_stmt 1 discriminator 1 view .LVU737
 711:System/shell/shell.c ****     {
 2857              		.loc 1 711 5 is_stmt 0 discriminator 1 view .LVU738
 2858 001a 002C     		cmp	r4, #0
 2859 001c F7DC     		bgt	.L254
 711:System/shell/shell.c ****     {
 2860              		.loc 1 711 5 discriminator 1 view .LVU739
 2861              	.LBE14:
ARM GAS  C:\Users\HUAV\AppData\Local\Temp\ccSSjzP1.s 			page 92


 715:System/shell/shell.c **** }
 2862              		.loc 1 715 5 is_stmt 1 view .LVU740
 2863 001e 297B     		ldrb	r1, [r5, #12]	@ zero_extendqisi2
 2864 0020 2846     		mov	r0, r5
 2865 0022 FFF7FEFF 		bl	shellDeleteCommandLine
 2866              	.LVL263:
 716:System/shell/shell.c **** 
 2867              		.loc 1 716 1 is_stmt 0 view .LVU741
 2868 0026 38BD     		pop	{r3, r4, r5, pc}
 716:System/shell/shell.c **** 
 2869              		.loc 1 716 1 view .LVU742
 2870              		.cfi_endproc
 2871              	.LFE26:
 2873              		.section	.text.shellHistory,"ax",%progbits
 2874              		.align	1
 2875              		.syntax unified
 2876              		.thumb
 2877              		.thumb_func
 2878              		.fpu fpv5-d16
 2880              	shellHistory:
 2881              	.LVL264:
 2882              	.LFB41:
1239:System/shell/shell.c ****     if (dir > 0)
 2883              		.loc 1 1239 1 is_stmt 1 view -0
 2884              		.cfi_startproc
 2885              		@ args = 0, pretend = 0, frame = 0
 2886              		@ frame_needed = 0, uses_anonymous_args = 0
1239:System/shell/shell.c ****     if (dir > 0)
 2887              		.loc 1 1239 1 is_stmt 0 view .LVU744
 2888 0000 10B5     		push	{r4, lr}
 2889              	.LCFI46:
 2890              		.cfi_def_cfa_offset 8
 2891              		.cfi_offset 4, -8
 2892              		.cfi_offset 14, -4
 2893 0002 0446     		mov	r4, r0
1240:System/shell/shell.c ****     {
 2894              		.loc 1 1240 5 is_stmt 1 view .LVU745
1240:System/shell/shell.c ****     {
 2895              		.loc 1 1240 8 is_stmt 0 view .LVU746
 2896 0004 0029     		cmp	r1, #0
 2897              	.LVL265:
1240:System/shell/shell.c ****     {
 2898              		.loc 1 1240 8 view .LVU747
 2899 0006 19DD     		ble	.L257
1242:System/shell/shell.c ****             -((shell->history.number > shell->history.record) ? shell->history.number : shell->hist
 2900              		.loc 1 1242 9 is_stmt 1 view .LVU748
1242:System/shell/shell.c ****             -((shell->history.number > shell->history.record) ? shell->history.number : shell->hist
 2901              		.loc 1 1242 27 is_stmt 0 view .LVU749
 2902 0008 B0F95420 		ldrsh	r2, [r0, #84]
1242:System/shell/shell.c ****             -((shell->history.number > shell->history.record) ? shell->history.number : shell->hist
 2903              		.loc 1 1242 34 view .LVU750
 2904 000c 531E     		subs	r3, r2, #1
 2905 000e A0F85430 		strh	r3, [r0, #84]	@ movhi
1243:System/shell/shell.c ****         {
 2906              		.loc 1 1243 54 view .LVU751
 2907 0012 B0F85230 		ldrh	r3, [r0, #82]
1243:System/shell/shell.c ****         {
ARM GAS  C:\Users\HUAV\AppData\Local\Temp\ccSSjzP1.s 			page 93


 2908              		.loc 1 1243 30 view .LVU752
 2909 0016 B0F85010 		ldrh	r1, [r0, #80]
1243:System/shell/shell.c ****         {
 2910              		.loc 1 1243 87 view .LVU753
 2911 001a 8B42     		cmp	r3, r1
 2912 001c 38BF     		it	cc
 2913 001e 0B46     		movcc	r3, r1
1243:System/shell/shell.c ****         {
 2914              		.loc 1 1243 13 view .LVU754
 2915 0020 5942     		rsbs	r1, r3, #0
1242:System/shell/shell.c ****             -((shell->history.number > shell->history.record) ? shell->history.number : shell->hist
 2916              		.loc 1 1242 12 view .LVU755
 2917 0022 8A42     		cmp	r2, r1
 2918 0024 01DC     		bgt	.L258
1245:System/shell/shell.c ****                                           ? shell->history.number
 2919              		.loc 1 1245 13 is_stmt 1 view .LVU756
1245:System/shell/shell.c ****                                           ? shell->history.number
 2920              		.loc 1 1245 35 is_stmt 0 view .LVU757
 2921 0026 A4F85410 		strh	r1, [r4, #84]	@ movhi
 2922              	.L258:
1262:System/shell/shell.c ****     if (shell->history.offset == 0)
 2923              		.loc 1 1262 5 is_stmt 1 view .LVU758
 2924 002a 2046     		mov	r0, r4
 2925              	.LVL266:
1262:System/shell/shell.c ****     if (shell->history.offset == 0)
 2926              		.loc 1 1262 5 is_stmt 0 view .LVU759
 2927 002c FFF7FEFF 		bl	shellClearCommandLine
 2928              	.LVL267:
1263:System/shell/shell.c ****     {
 2929              		.loc 1 1263 5 is_stmt 1 view .LVU760
1263:System/shell/shell.c ****     {
 2930              		.loc 1 1263 23 is_stmt 0 view .LVU761
 2931 0030 B4F95430 		ldrsh	r3, [r4, #84]
1263:System/shell/shell.c ****     {
 2932              		.loc 1 1263 8 view .LVU762
 2933 0034 83B9     		cbnz	r3, .L260
1265:System/shell/shell.c ****     }
 2934              		.loc 1 1265 9 is_stmt 1 view .LVU763
1265:System/shell/shell.c ****     }
 2935              		.loc 1 1265 53 is_stmt 0 view .LVU764
 2936 0036 A381     		strh	r3, [r4, #12]	@ movhi
1265:System/shell/shell.c ****     }
 2937              		.loc 1 1265 30 view .LVU765
 2938 0038 E381     		strh	r3, [r4, #14]	@ movhi
 2939              	.L256:
1277:System/shell/shell.c **** 
 2940              		.loc 1 1277 1 view .LVU766
 2941 003a 10BD     		pop	{r4, pc}
 2942              	.LVL268:
 2943              	.L257:
1250:System/shell/shell.c ****     {
 2944              		.loc 1 1250 10 is_stmt 1 view .LVU767
1250:System/shell/shell.c ****     {
 2945              		.loc 1 1250 13 is_stmt 0 view .LVU768
 2946 003c 0029     		cmp	r1, #0
 2947 003e FCDA     		bge	.L256
1252:System/shell/shell.c ****         {
ARM GAS  C:\Users\HUAV\AppData\Local\Temp\ccSSjzP1.s 			page 94


 2948              		.loc 1 1252 9 is_stmt 1 view .LVU769
1252:System/shell/shell.c ****         {
 2949              		.loc 1 1252 29 is_stmt 0 view .LVU770
 2950 0040 B0F95430 		ldrsh	r3, [r0, #84]
1252:System/shell/shell.c ****         {
 2951              		.loc 1 1252 13 view .LVU771
 2952 0044 0133     		adds	r3, r3, #1
 2953 0046 1BB2     		sxth	r3, r3
1252:System/shell/shell.c ****         {
 2954              		.loc 1 1252 12 view .LVU772
 2955 0048 A0F85430 		strh	r3, [r0, #84]	@ movhi
 2956 004c 002B     		cmp	r3, #0
 2957 004e ECDD     		ble	.L258
1254:System/shell/shell.c ****             return;
 2958              		.loc 1 1254 13 is_stmt 1 view .LVU773
1254:System/shell/shell.c ****             return;
 2959              		.loc 1 1254 35 is_stmt 0 view .LVU774
 2960 0050 0023     		movs	r3, #0
 2961 0052 A0F85430 		strh	r3, [r0, #84]	@ movhi
1255:System/shell/shell.c ****         }
 2962              		.loc 1 1255 13 is_stmt 1 view .LVU775
 2963 0056 F0E7     		b	.L256
 2964              	.LVL269:
 2965              	.L260:
1269:System/shell/shell.c ****                                                     shell->history.item[(shell->history.record + SH
 2966              		.loc 1 1269 9 view .LVU776
1270:System/shell/shell.c ****         {
 2967              		.loc 1 1270 88 is_stmt 0 view .LVU777
 2968 0058 B4F85220 		ldrh	r2, [r4, #82]
1270:System/shell/shell.c ****         {
 2969              		.loc 1 1270 96 view .LVU778
 2970 005c 0532     		adds	r2, r2, #5
1270:System/shell/shell.c ****         {
 2971              		.loc 1 1270 123 view .LVU779
 2972 005e 1A44     		add	r2, r2, r3
1270:System/shell/shell.c ****         {
 2973              		.loc 1 1270 148 view .LVU780
 2974 0060 0C49     		ldr	r1, .L262
 2975 0062 81FB0231 		smull	r3, r1, r1, r2
 2976 0066 D317     		asrs	r3, r2, #31
 2977 0068 C3EB6103 		rsb	r3, r3, r1, asr #1
 2978 006c 03EB8303 		add	r3, r3, r3, lsl #2
 2979 0070 D31A     		subs	r3, r2, r3
1269:System/shell/shell.c ****                                                     shell->history.item[(shell->history.record + SH
 2980              		.loc 1 1269 37 view .LVU781
 2981 0072 0E33     		adds	r3, r3, #14
 2982 0074 04EB8303 		add	r3, r4, r3, lsl #2
 2983 0078 5968     		ldr	r1, [r3, #4]
 2984 007a 2069     		ldr	r0, [r4, #16]
 2985 007c FFF7FEFF 		bl	shellStringCopy
 2986              	.LVL270:
1269:System/shell/shell.c ****                                                     shell->history.item[(shell->history.record + SH
 2987              		.loc 1 1269 35 view .LVU782
 2988 0080 A081     		strh	r0, [r4, #12]	@ movhi
1269:System/shell/shell.c ****                                                     shell->history.item[(shell->history.record + SH
 2989              		.loc 1 1269 12 view .LVU783
 2990 0082 0028     		cmp	r0, #0
ARM GAS  C:\Users\HUAV\AppData\Local\Temp\ccSSjzP1.s 			page 95


 2991 0084 D9D0     		beq	.L256
1274:System/shell/shell.c ****         shellWriteString(shell, shell->parser.buffer);
 2992              		.loc 1 1274 9 is_stmt 1 view .LVU784
1274:System/shell/shell.c ****         shellWriteString(shell, shell->parser.buffer);
 2993              		.loc 1 1274 30 is_stmt 0 view .LVU785
 2994 0086 E081     		strh	r0, [r4, #14]	@ movhi
1275:System/shell/shell.c ****     }
 2995              		.loc 1 1275 9 is_stmt 1 view .LVU786
 2996 0088 2169     		ldr	r1, [r4, #16]
 2997 008a 2046     		mov	r0, r4
 2998 008c FFF7FEFF 		bl	shellWriteString
 2999              	.LVL271:
 3000 0090 D3E7     		b	.L256
 3001              	.L263:
 3002 0092 00BF     		.align	2
 3003              	.L262:
 3004 0094 67666666 		.word	1717986919
 3005              		.cfi_endproc
 3006              	.LFE41:
 3008              		.section	.text.shellUp,"ax",%progbits
 3009              		.align	1
 3010              		.global	shellUp
 3011              		.syntax unified
 3012              		.thumb
 3013              		.thumb_func
 3014              		.fpu fpv5-d16
 3016              	shellUp:
 3017              	.LVL272:
 3018              	.LFB44:
1342:System/shell/shell.c ****     shellHistory(shell, 1);
 3019              		.loc 1 1342 1 view -0
 3020              		.cfi_startproc
 3021              		@ args = 0, pretend = 0, frame = 0
 3022              		@ frame_needed = 0, uses_anonymous_args = 0
1342:System/shell/shell.c ****     shellHistory(shell, 1);
 3023              		.loc 1 1342 1 is_stmt 0 view .LVU788
 3024 0000 08B5     		push	{r3, lr}
 3025              	.LCFI47:
 3026              		.cfi_def_cfa_offset 8
 3027              		.cfi_offset 3, -8
 3028              		.cfi_offset 14, -4
1343:System/shell/shell.c **** }
 3029              		.loc 1 1343 5 is_stmt 1 view .LVU789
 3030 0002 0121     		movs	r1, #1
 3031 0004 FFF7FEFF 		bl	shellHistory
 3032              	.LVL273:
1344:System/shell/shell.c **** SHELL_EXPORT_KEY(SHELL_CMD_PERMISSION(0), 0x1B5B4100, shellUp, up);
 3033              		.loc 1 1344 1 is_stmt 0 view .LVU790
 3034 0008 08BD     		pop	{r3, pc}
 3035              		.cfi_endproc
 3036              	.LFE44:
 3038              		.section	.text.shellDown,"ax",%progbits
 3039              		.align	1
 3040              		.global	shellDown
 3041              		.syntax unified
 3042              		.thumb
 3043              		.thumb_func
ARM GAS  C:\Users\HUAV\AppData\Local\Temp\ccSSjzP1.s 			page 96


 3044              		.fpu fpv5-d16
 3046              	shellDown:
 3047              	.LVL274:
 3048              	.LFB45:
1353:System/shell/shell.c ****     shellHistory(shell, -1);
 3049              		.loc 1 1353 1 is_stmt 1 view -0
 3050              		.cfi_startproc
 3051              		@ args = 0, pretend = 0, frame = 0
 3052              		@ frame_needed = 0, uses_anonymous_args = 0
1353:System/shell/shell.c ****     shellHistory(shell, -1);
 3053              		.loc 1 1353 1 is_stmt 0 view .LVU792
 3054 0000 08B5     		push	{r3, lr}
 3055              	.LCFI48:
 3056              		.cfi_def_cfa_offset 8
 3057              		.cfi_offset 3, -8
 3058              		.cfi_offset 14, -4
1354:System/shell/shell.c **** }
 3059              		.loc 1 1354 5 is_stmt 1 view .LVU793
 3060 0002 4FF0FF31 		mov	r1, #-1
 3061 0006 FFF7FEFF 		bl	shellHistory
 3062              	.LVL275:
1355:System/shell/shell.c **** SHELL_EXPORT_KEY(SHELL_CMD_PERMISSION(0), 0x1B5B4200, shellDown, down);
 3063              		.loc 1 1355 1 is_stmt 0 view .LVU794
 3064 000a 08BD     		pop	{r3, pc}
 3065              		.cfi_endproc
 3066              	.LFE45:
 3068              		.section	.text.shellTab,"ax",%progbits
 3069              		.align	1
 3070              		.global	shellTab
 3071              		.syntax unified
 3072              		.thumb
 3073              		.thumb_func
 3074              		.fpu fpv5-d16
 3076              	shellTab:
 3077              	.LVL276:
 3078              	.LFB48:
1395:System/shell/shell.c ****     unsigned short maxMatch = shell->parser.bufferSize;
 3079              		.loc 1 1395 1 is_stmt 1 view -0
 3080              		.cfi_startproc
 3081              		@ args = 0, pretend = 0, frame = 0
 3082              		@ frame_needed = 0, uses_anonymous_args = 0
1395:System/shell/shell.c ****     unsigned short maxMatch = shell->parser.bufferSize;
 3083              		.loc 1 1395 1 is_stmt 0 view .LVU796
 3084 0000 2DE9F84F 		push	{r3, r4, r5, r6, r7, r8, r9, r10, fp, lr}
 3085              	.LCFI49:
 3086              		.cfi_def_cfa_offset 40
 3087              		.cfi_offset 3, -40
 3088              		.cfi_offset 4, -36
 3089              		.cfi_offset 5, -32
 3090              		.cfi_offset 6, -28
 3091              		.cfi_offset 7, -24
 3092              		.cfi_offset 8, -20
 3093              		.cfi_offset 9, -16
 3094              		.cfi_offset 10, -12
 3095              		.cfi_offset 11, -8
 3096              		.cfi_offset 14, -4
 3097 0004 0546     		mov	r5, r0
ARM GAS  C:\Users\HUAV\AppData\Local\Temp\ccSSjzP1.s 			page 97


1396:System/shell/shell.c ****     unsigned short lastMatchIndex = 0;
 3098              		.loc 1 1396 5 is_stmt 1 view .LVU797
1396:System/shell/shell.c ****     unsigned short lastMatchIndex = 0;
 3099              		.loc 1 1396 20 is_stmt 0 view .LVU798
 3100 0006 B0F834A0 		ldrh	r10, [r0, #52]
 3101              	.LVL277:
1397:System/shell/shell.c ****     unsigned short matchNum = 0;
 3102              		.loc 1 1397 5 is_stmt 1 view .LVU799
1398:System/shell/shell.c ****     unsigned short length;
 3103              		.loc 1 1398 5 view .LVU800
1399:System/shell/shell.c **** 
 3104              		.loc 1 1399 5 view .LVU801
1401:System/shell/shell.c ****     {
 3105              		.loc 1 1401 5 view .LVU802
1401:System/shell/shell.c ****     {
 3106              		.loc 1 1401 22 is_stmt 0 view .LVU803
 3107 000a 8389     		ldrh	r3, [r0, #12]
1401:System/shell/shell.c ****     {
 3108              		.loc 1 1401 8 view .LVU804
 3109 000c 43B1     		cbz	r3, .L279
1406:System/shell/shell.c ****     {
 3110              		.loc 1 1406 10 is_stmt 1 view .LVU805
 3111              	.LBB15:
1408:System/shell/shell.c ****         ShellCommand *base = (ShellCommand *)shell->commandList.base;
 3112              		.loc 1 1408 9 view .LVU806
1408:System/shell/shell.c ****         ShellCommand *base = (ShellCommand *)shell->commandList.base;
 3113              		.loc 1 1408 22 is_stmt 0 view .LVU807
 3114 000e 0269     		ldr	r2, [r0, #16]
1408:System/shell/shell.c ****         ShellCommand *base = (ShellCommand *)shell->commandList.base;
 3115              		.loc 1 1408 52 view .LVU808
 3116 0010 4FF00008 		mov	r8, #0
 3117 0014 02F80380 		strb	r8, [r2, r3]
1409:System/shell/shell.c ****         for (short i = 0; i < shell->commandList.count; i++)
 3118              		.loc 1 1409 9 is_stmt 1 view .LVU809
1409:System/shell/shell.c ****         for (short i = 0; i < shell->commandList.count; i++)
 3119              		.loc 1 1409 23 is_stmt 0 view .LVU810
 3120 0018 876D     		ldr	r7, [r0, #88]
 3121              	.LVL278:
1410:System/shell/shell.c ****         {
 3122              		.loc 1 1410 9 is_stmt 1 view .LVU811
 3123              	.LBB16:
1410:System/shell/shell.c ****         {
 3124              		.loc 1 1410 14 view .LVU812
1410:System/shell/shell.c ****         {
 3125              		.loc 1 1410 20 is_stmt 0 view .LVU813
 3126 001a 4446     		mov	r4, r8
 3127              	.LBE16:
 3128              	.LBE15:
1398:System/shell/shell.c ****     unsigned short length;
 3129              		.loc 1 1398 20 view .LVU814
 3130 001c C146     		mov	r9, r8
 3131              	.LBB19:
 3132              	.LBB17:
1410:System/shell/shell.c ****         {
 3133              		.loc 1 1410 9 view .LVU815
 3134 001e 24E0     		b	.L271
 3135              	.LVL279:
ARM GAS  C:\Users\HUAV\AppData\Local\Temp\ccSSjzP1.s 			page 98


 3136              	.L279:
1410:System/shell/shell.c ****         {
 3137              		.loc 1 1410 9 view .LVU816
 3138              	.LBE17:
 3139              	.LBE19:
1403:System/shell/shell.c ****         shellWriteCommandLine(shell, 1);
 3140              		.loc 1 1403 9 is_stmt 1 view .LVU817
 3141 0020 FFF7FEFF 		bl	shellListAll
 3142              	.LVL280:
1404:System/shell/shell.c ****     }
 3143              		.loc 1 1404 9 view .LVU818
 3144 0024 0121     		movs	r1, #1
 3145 0026 2846     		mov	r0, r5
 3146 0028 FFF7FEFF 		bl	shellWriteCommandLine
 3147              	.LVL281:
 3148 002c 5EE0     		b	.L268
 3149              	.LVL282:
 3150              	.L274:
 3151              	.LBB20:
 3152              	.LBB18:
1421:System/shell/shell.c ****                     length =
 3153              		.loc 1 1421 21 view .LVU819
 3154 002e 07EB0818 		add	r8, r7, r8, lsl #4
 3155              	.LVL283:
1421:System/shell/shell.c ****                     length =
 3156              		.loc 1 1421 21 is_stmt 0 view .LVU820
 3157 0032 4146     		mov	r1, r8
 3158 0034 2846     		mov	r0, r5
 3159 0036 FFF7FEFF 		bl	shellListItem
 3160              	.LVL284:
1422:System/shell/shell.c ****                         shellStringCompare((char *)shellGetCommandName(&base[lastMatchIndex]),
 3161              		.loc 1 1422 21 is_stmt 1 view .LVU821
1423:System/shell/shell.c ****                                            (char *)shellGetCommandName(&base[i]));
 3162              		.loc 1 1423 52 is_stmt 0 view .LVU822
 3163 003a 4046     		mov	r0, r8
 3164 003c FFF7FEFF 		bl	shellGetCommandName
 3165              	.LVL285:
 3166 0040 8046     		mov	r8, r0
1424:System/shell/shell.c ****                     maxMatch = (maxMatch > length) ? length : maxMatch;
 3167              		.loc 1 1424 52 view .LVU823
 3168 0042 3046     		mov	r0, r6
 3169 0044 FFF7FEFF 		bl	shellGetCommandName
 3170              	.LVL286:
 3171 0048 0146     		mov	r1, r0
1423:System/shell/shell.c ****                                            (char *)shellGetCommandName(&base[i]));
 3172              		.loc 1 1423 25 view .LVU824
 3173 004a 4046     		mov	r0, r8
 3174 004c FFF7FEFF 		bl	shellStringCompare
 3175              	.LVL287:
1425:System/shell/shell.c ****                 }
 3176              		.loc 1 1425 21 is_stmt 1 view .LVU825
1425:System/shell/shell.c ****                 }
 3177              		.loc 1 1425 30 is_stmt 0 view .LVU826
 3178 0050 8245     		cmp	r10, r0
 3179 0052 28BF     		it	cs
 3180 0054 8246     		movcs	r10, r0
 3181              	.LVL288:
ARM GAS  C:\Users\HUAV\AppData\Local\Temp\ccSSjzP1.s 			page 99


1425:System/shell/shell.c ****                 }
 3182              		.loc 1 1425 30 view .LVU827
 3183 0056 1FFA8AFA 		uxth	r10, r10
 3184              	.LVL289:
 3185              	.L273:
1427:System/shell/shell.c ****                 matchNum++;
 3186              		.loc 1 1427 17 is_stmt 1 view .LVU828
1427:System/shell/shell.c ****                 matchNum++;
 3187              		.loc 1 1427 32 is_stmt 0 view .LVU829
 3188 005a 1FFA84F8 		uxth	r8, r4
 3189              	.LVL290:
1428:System/shell/shell.c ****             }
 3190              		.loc 1 1428 17 is_stmt 1 view .LVU830
1428:System/shell/shell.c ****             }
 3191              		.loc 1 1428 25 is_stmt 0 view .LVU831
 3192 005e 09F10109 		add	r9, r9, #1
 3193              	.LVL291:
1428:System/shell/shell.c ****             }
 3194              		.loc 1 1428 25 view .LVU832
 3195 0062 1FFA89F9 		uxth	r9, r9
 3196              	.LVL292:
 3197              	.L272:
1410:System/shell/shell.c ****         {
 3198              		.loc 1 1410 57 is_stmt 1 discriminator 2 view .LVU833
1410:System/shell/shell.c ****         {
 3199              		.loc 1 1410 58 is_stmt 0 discriminator 2 view .LVU834
 3200 0066 0134     		adds	r4, r4, #1
 3201              	.LVL293:
1410:System/shell/shell.c ****         {
 3202              		.loc 1 1410 58 discriminator 2 view .LVU835
 3203 0068 24B2     		sxth	r4, r4
 3204              	.LVL294:
 3205              	.L271:
1410:System/shell/shell.c ****         {
 3206              		.loc 1 1410 27 is_stmt 1 discriminator 1 view .LVU836
1410:System/shell/shell.c ****         {
 3207              		.loc 1 1410 49 is_stmt 0 discriminator 1 view .LVU837
 3208 006a B5F85C30 		ldrh	r3, [r5, #92]
1410:System/shell/shell.c ****         {
 3209              		.loc 1 1410 9 discriminator 1 view .LVU838
 3210 006e 9C42     		cmp	r4, r3
 3211 0070 1EDA     		bge	.L280
1412:System/shell/shell.c ****                                                                                  (char *)shellGetCo
 3212              		.loc 1 1412 13 is_stmt 1 view .LVU839
1412:System/shell/shell.c ****                                                                                  (char *)shellGetCo
 3213              		.loc 1 1412 17 is_stmt 0 view .LVU840
 3214 0072 07EB0416 		add	r6, r7, r4, lsl #4
 3215 0076 3146     		mov	r1, r6
 3216 0078 2846     		mov	r0, r5
 3217 007a FFF7FEFF 		bl	shellCheckPermission
 3218              	.LVL295:
1412:System/shell/shell.c ****                                                                                  (char *)shellGetCo
 3219              		.loc 1 1412 16 view .LVU841
 3220 007e 0028     		cmp	r0, #0
 3221 0080 F1D1     		bne	.L272
1412:System/shell/shell.c ****                                                                                  (char *)shellGetCo
 3222              		.loc 1 1412 63 discriminator 1 view .LVU842
ARM GAS  C:\Users\HUAV\AppData\Local\Temp\ccSSjzP1.s 			page 100


 3223 0082 D5F810B0 		ldr	fp, [r5, #16]
1413:System/shell/shell.c ****             {
 3224              		.loc 1 1413 90 discriminator 1 view .LVU843
 3225 0086 3046     		mov	r0, r6
 3226 0088 FFF7FEFF 		bl	shellGetCommandName
 3227              	.LVL296:
 3228 008c 0146     		mov	r1, r0
1412:System/shell/shell.c ****                                                                                  (char *)shellGetCo
 3229              		.loc 1 1412 63 discriminator 1 view .LVU844
 3230 008e 5846     		mov	r0, fp
 3231 0090 FFF7FEFF 		bl	shellStringCompare
 3232              	.LVL297:
1413:System/shell/shell.c ****             {
 3233              		.loc 1 1413 137 discriminator 1 view .LVU845
 3234 0094 AB89     		ldrh	r3, [r5, #12]
1412:System/shell/shell.c ****                                                                                  (char *)shellGetCo
 3235              		.loc 1 1412 60 discriminator 1 view .LVU846
 3236 0096 9842     		cmp	r0, r3
 3237 0098 E5D1     		bne	.L272
1415:System/shell/shell.c ****                 {
 3238              		.loc 1 1415 17 is_stmt 1 view .LVU847
1415:System/shell/shell.c ****                 {
 3239              		.loc 1 1415 20 is_stmt 0 view .LVU848
 3240 009a B9F1000F 		cmp	r9, #0
 3241 009e DCD0     		beq	.L273
1417:System/shell/shell.c ****                     {
 3242              		.loc 1 1417 21 is_stmt 1 view .LVU849
1417:System/shell/shell.c ****                     {
 3243              		.loc 1 1417 24 is_stmt 0 view .LVU850
 3244 00a0 B9F1010F 		cmp	r9, #1
 3245 00a4 C3D1     		bne	.L274
1419:System/shell/shell.c ****                     }
 3246              		.loc 1 1419 25 is_stmt 1 view .LVU851
 3247 00a6 1A49     		ldr	r1, .L283
 3248 00a8 2846     		mov	r0, r5
 3249 00aa FFF7FEFF 		bl	shellWriteString
 3250              	.LVL298:
 3251 00ae BEE7     		b	.L274
 3252              	.L280:
1419:System/shell/shell.c ****                     }
 3253              		.loc 1 1419 25 is_stmt 0 view .LVU852
 3254              	.LBE18:
1431:System/shell/shell.c ****         {
 3255              		.loc 1 1431 9 is_stmt 1 view .LVU853
1431:System/shell/shell.c ****         {
 3256              		.loc 1 1431 12 is_stmt 0 view .LVU854
 3257 00b0 B9F1000F 		cmp	r9, #0
 3258 00b4 1AD0     		beq	.L268
1435:System/shell/shell.c ****         {
 3259              		.loc 1 1435 9 is_stmt 1 view .LVU855
1435:System/shell/shell.c ****         {
 3260              		.loc 1 1435 12 is_stmt 0 view .LVU856
 3261 00b6 B9F1010F 		cmp	r9, #1
 3262 00ba 19D0     		beq	.L281
 3263              	.L276:
1439:System/shell/shell.c ****         {
 3264              		.loc 1 1439 9 is_stmt 1 view .LVU857
ARM GAS  C:\Users\HUAV\AppData\Local\Temp\ccSSjzP1.s 			page 101


1441:System/shell/shell.c ****                 shellStringCopy(shell->parser.buffer,
 3265              		.loc 1 1441 13 view .LVU858
1442:System/shell/shell.c ****                                 (char *)shellGetCommandName(&base[lastMatchIndex]));
 3266              		.loc 1 1442 17 is_stmt 0 view .LVU859
 3267 00bc 2C69     		ldr	r4, [r5, #16]
 3268              	.LVL299:
1443:System/shell/shell.c ****         }
 3269              		.loc 1 1443 41 view .LVU860
 3270 00be 07EB0817 		add	r7, r7, r8, lsl #4
 3271              	.LVL300:
1443:System/shell/shell.c ****         }
 3272              		.loc 1 1443 41 view .LVU861
 3273 00c2 3846     		mov	r0, r7
 3274 00c4 FFF7FEFF 		bl	shellGetCommandName
 3275              	.LVL301:
 3276 00c8 0146     		mov	r1, r0
1442:System/shell/shell.c ****                                 (char *)shellGetCommandName(&base[lastMatchIndex]));
 3277              		.loc 1 1442 17 view .LVU862
 3278 00ca 2046     		mov	r0, r4
 3279 00cc FFF7FEFF 		bl	shellStringCopy
 3280              	.LVL302:
1441:System/shell/shell.c ****                 shellStringCopy(shell->parser.buffer,
 3281              		.loc 1 1441 34 view .LVU863
 3282 00d0 A881     		strh	r0, [r5, #12]	@ movhi
1445:System/shell/shell.c ****         {
 3283              		.loc 1 1445 9 is_stmt 1 view .LVU864
1445:System/shell/shell.c ****         {
 3284              		.loc 1 1445 12 is_stmt 0 view .LVU865
 3285 00d2 B9F1010F 		cmp	r9, #1
 3286 00d6 0FD8     		bhi	.L282
 3287              	.L277:
1451:System/shell/shell.c ****         shell->parser.cursor = shell->parser.length;
 3288              		.loc 1 1451 9 is_stmt 1 view .LVU866
1451:System/shell/shell.c ****         shell->parser.cursor = shell->parser.length;
 3289              		.loc 1 1451 22 is_stmt 0 view .LVU867
 3290 00d8 2A69     		ldr	r2, [r5, #16]
1451:System/shell/shell.c ****         shell->parser.cursor = shell->parser.length;
 3291              		.loc 1 1451 43 view .LVU868
 3292 00da AB89     		ldrh	r3, [r5, #12]
1451:System/shell/shell.c ****         shell->parser.cursor = shell->parser.length;
 3293              		.loc 1 1451 52 view .LVU869
 3294 00dc 0021     		movs	r1, #0
 3295 00de D154     		strb	r1, [r2, r3]
1452:System/shell/shell.c ****         shellWriteString(shell, shell->parser.buffer);
 3296              		.loc 1 1452 9 is_stmt 1 view .LVU870
1452:System/shell/shell.c ****         shellWriteString(shell, shell->parser.buffer);
 3297              		.loc 1 1452 45 is_stmt 0 view .LVU871
 3298 00e0 AB89     		ldrh	r3, [r5, #12]
1452:System/shell/shell.c ****         shellWriteString(shell, shell->parser.buffer);
 3299              		.loc 1 1452 30 view .LVU872
 3300 00e2 EB81     		strh	r3, [r5, #14]	@ movhi
1453:System/shell/shell.c ****     }
 3301              		.loc 1 1453 9 is_stmt 1 view .LVU873
 3302 00e4 2969     		ldr	r1, [r5, #16]
 3303 00e6 2846     		mov	r0, r5
 3304 00e8 FFF7FEFF 		bl	shellWriteString
 3305              	.LVL303:
ARM GAS  C:\Users\HUAV\AppData\Local\Temp\ccSSjzP1.s 			page 102


 3306              	.L268:
1453:System/shell/shell.c ****     }
 3307              		.loc 1 1453 9 is_stmt 0 view .LVU874
 3308              	.LBE20:
1476:System/shell/shell.c **** SHELL_EXPORT_KEY(SHELL_CMD_PERMISSION(0), 0x09000000, shellTab, tab);
 3309              		.loc 1 1476 1 view .LVU875
 3310 00ec BDE8F88F 		pop	{r3, r4, r5, r6, r7, r8, r9, r10, fp, pc}
 3311              	.LVL304:
 3312              	.L281:
 3313              	.LBB21:
1437:System/shell/shell.c ****         }
 3314              		.loc 1 1437 13 is_stmt 1 view .LVU876
 3315 00f0 2846     		mov	r0, r5
 3316 00f2 FFF7FEFF 		bl	shellClearCommandLine
 3317              	.LVL305:
 3318 00f6 E1E7     		b	.L276
 3319              	.LVL306:
 3320              	.L282:
1447:System/shell/shell.c ****             shellWriteCommandLine(shell, 1);
 3321              		.loc 1 1447 13 view .LVU877
 3322 00f8 3946     		mov	r1, r7
 3323 00fa 2846     		mov	r0, r5
 3324 00fc FFF7FEFF 		bl	shellListItem
 3325              	.LVL307:
1448:System/shell/shell.c ****             shell->parser.length = maxMatch;
 3326              		.loc 1 1448 13 view .LVU878
 3327 0100 0121     		movs	r1, #1
 3328 0102 2846     		mov	r0, r5
 3329 0104 FFF7FEFF 		bl	shellWriteCommandLine
 3330              	.LVL308:
1449:System/shell/shell.c ****         }
 3331              		.loc 1 1449 13 view .LVU879
1449:System/shell/shell.c ****         }
 3332              		.loc 1 1449 34 is_stmt 0 view .LVU880
 3333 0108 A5F80CA0 		strh	r10, [r5, #12]	@ movhi
 3334 010c E4E7     		b	.L277
 3335              	.L284:
 3336 010e 00BF     		.align	2
 3337              	.L283:
 3338 0110 04000000 		.word	.LC3
 3339              	.LBE21:
 3340              		.cfi_endproc
 3341              	.LFE48:
 3343              		.section	.rodata.shellInsertByte.str1.4,"aMS",%progbits,1
 3344              		.align	2
 3345              	.LC21:
 3346 0000 0D0A5761 		.ascii	"\015\012Warning: Command is too long\015\012\000"
 3346      726E696E 
 3346      673A2043 
 3346      6F6D6D61 
 3346      6E642069 
 3347              		.section	.text.shellInsertByte,"ax",%progbits
 3348              		.align	1
 3349              		.global	shellInsertByte
 3350              		.syntax unified
 3351              		.thumb
 3352              		.thumb_func
ARM GAS  C:\Users\HUAV\AppData\Local\Temp\ccSSjzP1.s 			page 103


 3353              		.fpu fpv5-d16
 3355              	shellInsertByte:
 3356              	.LVL309:
 3357              	.LFB27:
 725:System/shell/shell.c ****     /* 判断输入数据是否过长 */
 3358              		.loc 1 725 1 is_stmt 1 view -0
 3359              		.cfi_startproc
 3360              		@ args = 0, pretend = 0, frame = 0
 3361              		@ frame_needed = 0, uses_anonymous_args = 0
 725:System/shell/shell.c ****     /* 判断输入数据是否过长 */
 3362              		.loc 1 725 1 is_stmt 0 view .LVU882
 3363 0000 70B5     		push	{r4, r5, r6, lr}
 3364              	.LCFI50:
 3365              		.cfi_def_cfa_offset 16
 3366              		.cfi_offset 4, -16
 3367              		.cfi_offset 5, -12
 3368              		.cfi_offset 6, -8
 3369              		.cfi_offset 14, -4
 3370 0002 0446     		mov	r4, r0
 727:System/shell/shell.c ****     {
 3371              		.loc 1 727 5 is_stmt 1 view .LVU883
 727:System/shell/shell.c ****     {
 3372              		.loc 1 727 22 is_stmt 0 view .LVU884
 3373 0004 8389     		ldrh	r3, [r0, #12]
 727:System/shell/shell.c ****     {
 3374              		.loc 1 727 46 view .LVU885
 3375 0006 828E     		ldrh	r2, [r0, #52]
 727:System/shell/shell.c ****     {
 3376              		.loc 1 727 58 view .LVU886
 3377 0008 013A     		subs	r2, r2, #1
 727:System/shell/shell.c ****     {
 3378              		.loc 1 727 8 view .LVU887
 3379 000a 9342     		cmp	r3, r2
 3380 000c 07DA     		bge	.L296
 736:System/shell/shell.c ****     {
 3381              		.loc 1 736 5 is_stmt 1 view .LVU888
 736:System/shell/shell.c ****     {
 3382              		.loc 1 736 22 is_stmt 0 view .LVU889
 3383 000e C289     		ldrh	r2, [r0, #14]
 736:System/shell/shell.c ****     {
 3384              		.loc 1 736 8 view .LVU890
 3385 0010 9342     		cmp	r3, r2
 3386 0012 10D0     		beq	.L297
 743:System/shell/shell.c ****     {
 3387              		.loc 1 743 10 is_stmt 1 view .LVU891
 743:System/shell/shell.c ****     {
 3388              		.loc 1 743 13 is_stmt 0 view .LVU892
 3389 0014 9342     		cmp	r3, r2
 3390 0016 4ED9     		bls	.L285
 745:System/shell/shell.c ****         {
 3391              		.loc 1 745 9 is_stmt 1 view .LVU893
 3392              	.LBB22:
 745:System/shell/shell.c ****         {
 3393              		.loc 1 745 14 view .LVU894
 745:System/shell/shell.c ****         {
 3394              		.loc 1 745 45 is_stmt 0 view .LVU895
 3395 0018 9B1A     		subs	r3, r3, r2
ARM GAS  C:\Users\HUAV\AppData\Local\Temp\ccSSjzP1.s 			page 104


 745:System/shell/shell.c ****         {
 3396              		.loc 1 745 20 view .LVU896
 3397 001a 1BB2     		sxth	r3, r3
 3398              	.LVL310:
 745:System/shell/shell.c ****         {
 3399              		.loc 1 745 9 view .LVU897
 3400 001c 23E0     		b	.L289
 3401              	.LVL311:
 3402              	.L296:
 745:System/shell/shell.c ****         {
 3403              		.loc 1 745 9 view .LVU898
 3404              	.LBE22:
 729:System/shell/shell.c ****         shellWriteCommandLine(shell, 1);
 3405              		.loc 1 729 9 is_stmt 1 view .LVU899
 3406 001e 2649     		ldr	r1, .L298
 3407              	.LVL312:
 729:System/shell/shell.c ****         shellWriteCommandLine(shell, 1);
 3408              		.loc 1 729 9 is_stmt 0 view .LVU900
 3409 0020 FFF7FEFF 		bl	shellWriteString
 3410              	.LVL313:
 730:System/shell/shell.c ****         shellWriteString(shell, shell->parser.buffer);
 3411              		.loc 1 730 9 is_stmt 1 view .LVU901
 3412 0024 0121     		movs	r1, #1
 3413 0026 2046     		mov	r0, r4
 3414 0028 FFF7FEFF 		bl	shellWriteCommandLine
 3415              	.LVL314:
 731:System/shell/shell.c ****         return;
 3416              		.loc 1 731 9 view .LVU902
 3417 002c 2169     		ldr	r1, [r4, #16]
 3418 002e 2046     		mov	r0, r4
 3419 0030 FFF7FEFF 		bl	shellWriteString
 3420              	.LVL315:
 732:System/shell/shell.c ****     }
 3421              		.loc 1 732 9 view .LVU903
 3422 0034 3FE0     		b	.L285
 3423              	.LVL316:
 3424              	.L297:
 738:System/shell/shell.c ****         shell->parser.buffer[shell->parser.length] = 0;
 3425              		.loc 1 738 9 view .LVU904
 738:System/shell/shell.c ****         shell->parser.buffer[shell->parser.length] = 0;
 3426              		.loc 1 738 22 is_stmt 0 view .LVU905
 3427 0036 0269     		ldr	r2, [r0, #16]
 738:System/shell/shell.c ****         shell->parser.buffer[shell->parser.length] = 0;
 3428              		.loc 1 738 50 view .LVU906
 3429 0038 581C     		adds	r0, r3, #1
 3430              	.LVL317:
 738:System/shell/shell.c ****         shell->parser.buffer[shell->parser.length] = 0;
 3431              		.loc 1 738 50 view .LVU907
 3432 003a A081     		strh	r0, [r4, #12]	@ movhi
 738:System/shell/shell.c ****         shell->parser.buffer[shell->parser.length] = 0;
 3433              		.loc 1 738 54 view .LVU908
 3434 003c D154     		strb	r1, [r2, r3]
 739:System/shell/shell.c ****         shell->parser.cursor++;
 3435              		.loc 1 739 9 is_stmt 1 view .LVU909
 739:System/shell/shell.c ****         shell->parser.cursor++;
 3436              		.loc 1 739 22 is_stmt 0 view .LVU910
 3437 003e 2269     		ldr	r2, [r4, #16]
ARM GAS  C:\Users\HUAV\AppData\Local\Temp\ccSSjzP1.s 			page 105


 739:System/shell/shell.c ****         shell->parser.cursor++;
 3438              		.loc 1 739 43 view .LVU911
 3439 0040 A389     		ldrh	r3, [r4, #12]
 739:System/shell/shell.c ****         shell->parser.cursor++;
 3440              		.loc 1 739 52 view .LVU912
 3441 0042 0020     		movs	r0, #0
 3442 0044 D054     		strb	r0, [r2, r3]
 740:System/shell/shell.c ****         shellWriteByte(shell, data);
 3443              		.loc 1 740 9 is_stmt 1 view .LVU913
 740:System/shell/shell.c ****         shellWriteByte(shell, data);
 3444              		.loc 1 740 22 is_stmt 0 view .LVU914
 3445 0046 E389     		ldrh	r3, [r4, #14]
 740:System/shell/shell.c ****         shellWriteByte(shell, data);
 3446              		.loc 1 740 29 view .LVU915
 3447 0048 0133     		adds	r3, r3, #1
 3448 004a E381     		strh	r3, [r4, #14]	@ movhi
 741:System/shell/shell.c ****     }
 3449              		.loc 1 741 9 is_stmt 1 view .LVU916
 3450 004c 2046     		mov	r0, r4
 3451 004e FFF7FEFF 		bl	shellWriteByte
 3452              	.LVL318:
 741:System/shell/shell.c ****     }
 3453              		.loc 1 741 9 is_stmt 0 view .LVU917
 3454 0052 30E0     		b	.L285
 3455              	.LVL319:
 3456              	.L290:
 3457              	.LBB23:
 747:System/shell/shell.c ****                 shell->parser.buffer[shell->parser.cursor + i - 1];
 3458              		.loc 1 747 13 is_stmt 1 discriminator 3 view .LVU918
 748:System/shell/shell.c ****         }
 3459              		.loc 1 748 30 is_stmt 0 discriminator 3 view .LVU919
 3460 0054 2069     		ldr	r0, [r4, #16]
 748:System/shell/shell.c ****         }
 3461              		.loc 1 748 51 discriminator 3 view .LVU920
 3462 0056 E289     		ldrh	r2, [r4, #14]
 748:System/shell/shell.c ****         }
 3463              		.loc 1 748 59 discriminator 3 view .LVU921
 3464 0058 1A44     		add	r2, r2, r3
 747:System/shell/shell.c ****                 shell->parser.buffer[shell->parser.cursor + i - 1];
 3465              		.loc 1 747 33 discriminator 3 view .LVU922
 3466 005a 8518     		adds	r5, r0, r2
 748:System/shell/shell.c ****         }
 3467              		.loc 1 748 37 discriminator 3 view .LVU923
 3468 005c 15F8015C 		ldrb	r5, [r5, #-1]	@ zero_extendqisi2
 747:System/shell/shell.c ****                 shell->parser.buffer[shell->parser.cursor + i - 1];
 3469              		.loc 1 747 60 discriminator 3 view .LVU924
 3470 0060 8554     		strb	r5, [r0, r2]
 745:System/shell/shell.c ****         {
 3471              		.loc 1 745 76 is_stmt 1 discriminator 3 view .LVU925
 745:System/shell/shell.c ****         {
 3472              		.loc 1 745 77 is_stmt 0 discriminator 3 view .LVU926
 3473 0062 013B     		subs	r3, r3, #1
 3474              	.LVL320:
 745:System/shell/shell.c ****         {
 3475              		.loc 1 745 77 discriminator 3 view .LVU927
 3476 0064 1BB2     		sxth	r3, r3
 3477              	.LVL321:
ARM GAS  C:\Users\HUAV\AppData\Local\Temp\ccSSjzP1.s 			page 106


 3478              	.L289:
 745:System/shell/shell.c ****         {
 3479              		.loc 1 745 69 is_stmt 1 discriminator 1 view .LVU928
 745:System/shell/shell.c ****         {
 3480              		.loc 1 745 9 is_stmt 0 discriminator 1 view .LVU929
 3481 0066 002B     		cmp	r3, #0
 3482 0068 F4DC     		bgt	.L290
 745:System/shell/shell.c ****         {
 3483              		.loc 1 745 9 discriminator 1 view .LVU930
 3484              	.LBE23:
 750:System/shell/shell.c ****         shell->parser.buffer[++shell->parser.length] = 0;
 3485              		.loc 1 750 9 is_stmt 1 view .LVU931
 750:System/shell/shell.c ****         shell->parser.buffer[++shell->parser.length] = 0;
 3486              		.loc 1 750 22 is_stmt 0 view .LVU932
 3487 006a 2269     		ldr	r2, [r4, #16]
 750:System/shell/shell.c ****         shell->parser.buffer[++shell->parser.length] = 0;
 3488              		.loc 1 750 43 view .LVU933
 3489 006c E389     		ldrh	r3, [r4, #14]
 3490              	.LVL322:
 750:System/shell/shell.c ****         shell->parser.buffer[++shell->parser.length] = 0;
 3491              		.loc 1 750 50 view .LVU934
 3492 006e 581C     		adds	r0, r3, #1
 3493 0070 E081     		strh	r0, [r4, #14]	@ movhi
 750:System/shell/shell.c ****         shell->parser.buffer[++shell->parser.length] = 0;
 3494              		.loc 1 750 54 view .LVU935
 3495 0072 D154     		strb	r1, [r2, r3]
 751:System/shell/shell.c ****         for (short i = shell->parser.cursor - 1; i < shell->parser.length; i++)
 3496              		.loc 1 751 9 is_stmt 1 view .LVU936
 751:System/shell/shell.c ****         for (short i = shell->parser.cursor - 1; i < shell->parser.length; i++)
 3497              		.loc 1 751 22 is_stmt 0 view .LVU937
 3498 0074 2269     		ldr	r2, [r4, #16]
 751:System/shell/shell.c ****         for (short i = shell->parser.cursor - 1; i < shell->parser.length; i++)
 3499              		.loc 1 751 45 view .LVU938
 3500 0076 A389     		ldrh	r3, [r4, #12]
 751:System/shell/shell.c ****         for (short i = shell->parser.cursor - 1; i < shell->parser.length; i++)
 3501              		.loc 1 751 30 view .LVU939
 3502 0078 0133     		adds	r3, r3, #1
 3503 007a 9BB2     		uxth	r3, r3
 751:System/shell/shell.c ****         for (short i = shell->parser.cursor - 1; i < shell->parser.length; i++)
 3504              		.loc 1 751 54 view .LVU940
 3505 007c A381     		strh	r3, [r4, #12]	@ movhi
 3506 007e 0021     		movs	r1, #0
 3507              	.LVL323:
 751:System/shell/shell.c ****         for (short i = shell->parser.cursor - 1; i < shell->parser.length; i++)
 3508              		.loc 1 751 54 view .LVU941
 3509 0080 D154     		strb	r1, [r2, r3]
 752:System/shell/shell.c ****         {
 3510              		.loc 1 752 9 is_stmt 1 view .LVU942
 3511              	.LBB24:
 752:System/shell/shell.c ****         {
 3512              		.loc 1 752 14 view .LVU943
 752:System/shell/shell.c ****         {
 3513              		.loc 1 752 37 is_stmt 0 view .LVU944
 3514 0082 E689     		ldrh	r6, [r4, #14]
 752:System/shell/shell.c ****         {
 3515              		.loc 1 752 45 view .LVU945
 3516 0084 013E     		subs	r6, r6, #1
ARM GAS  C:\Users\HUAV\AppData\Local\Temp\ccSSjzP1.s 			page 107


 752:System/shell/shell.c ****         {
 3517              		.loc 1 752 20 view .LVU946
 3518 0086 36B2     		sxth	r6, r6
 3519              	.LVL324:
 752:System/shell/shell.c ****         {
 3520              		.loc 1 752 9 view .LVU947
 3521 0088 06E0     		b	.L291
 3522              	.L292:
 754:System/shell/shell.c ****         }
 3523              		.loc 1 754 13 is_stmt 1 discriminator 3 view .LVU948
 754:System/shell/shell.c ****         }
 3524              		.loc 1 754 48 is_stmt 0 discriminator 3 view .LVU949
 3525 008a 2369     		ldr	r3, [r4, #16]
 754:System/shell/shell.c ****         }
 3526              		.loc 1 754 13 discriminator 3 view .LVU950
 3527 008c 995D     		ldrb	r1, [r3, r6]	@ zero_extendqisi2
 3528 008e 2046     		mov	r0, r4
 3529 0090 FFF7FEFF 		bl	shellWriteByte
 3530              	.LVL325:
 752:System/shell/shell.c ****         {
 3531              		.loc 1 752 76 is_stmt 1 discriminator 3 view .LVU951
 752:System/shell/shell.c ****         {
 3532              		.loc 1 752 77 is_stmt 0 discriminator 3 view .LVU952
 3533 0094 0136     		adds	r6, r6, #1
 3534              	.LVL326:
 752:System/shell/shell.c ****         {
 3535              		.loc 1 752 77 discriminator 3 view .LVU953
 3536 0096 36B2     		sxth	r6, r6
 3537              	.LVL327:
 3538              	.L291:
 752:System/shell/shell.c ****         {
 3539              		.loc 1 752 50 is_stmt 1 discriminator 1 view .LVU954
 752:System/shell/shell.c ****         {
 3540              		.loc 1 752 67 is_stmt 0 discriminator 1 view .LVU955
 3541 0098 A589     		ldrh	r5, [r4, #12]
 752:System/shell/shell.c ****         {
 3542              		.loc 1 752 9 discriminator 1 view .LVU956
 3543 009a AE42     		cmp	r6, r5
 3544 009c F5DB     		blt	.L292
 752:System/shell/shell.c ****         {
 3545              		.loc 1 752 9 discriminator 1 view .LVU957
 3546              	.LBE24:
 756:System/shell/shell.c ****         {
 3547              		.loc 1 756 9 is_stmt 1 view .LVU958
 3548              	.LBB25:
 756:System/shell/shell.c ****         {
 3549              		.loc 1 756 14 view .LVU959
 756:System/shell/shell.c ****         {
 3550              		.loc 1 756 60 is_stmt 0 view .LVU960
 3551 009e E389     		ldrh	r3, [r4, #14]
 756:System/shell/shell.c ****         {
 3552              		.loc 1 756 45 view .LVU961
 3553 00a0 ED1A     		subs	r5, r5, r3
 756:System/shell/shell.c ****         {
 3554              		.loc 1 756 20 view .LVU962
 3555 00a2 2DB2     		sxth	r5, r5
 3556              	.LVL328:
ARM GAS  C:\Users\HUAV\AppData\Local\Temp\ccSSjzP1.s 			page 108


 756:System/shell/shell.c ****         {
 3557              		.loc 1 756 9 view .LVU963
 3558 00a4 05E0     		b	.L293
 3559              	.L294:
 758:System/shell/shell.c ****         }
 3560              		.loc 1 758 13 is_stmt 1 discriminator 3 view .LVU964
 3561 00a6 0821     		movs	r1, #8
 3562 00a8 2046     		mov	r0, r4
 3563 00aa FFF7FEFF 		bl	shellWriteByte
 3564              	.LVL329:
 756:System/shell/shell.c ****         {
 3565              		.loc 1 756 76 discriminator 3 view .LVU965
 756:System/shell/shell.c ****         {
 3566              		.loc 1 756 77 is_stmt 0 discriminator 3 view .LVU966
 3567 00ae 013D     		subs	r5, r5, #1
 3568              	.LVL330:
 756:System/shell/shell.c ****         {
 3569              		.loc 1 756 77 discriminator 3 view .LVU967
 3570 00b0 2DB2     		sxth	r5, r5
 3571              	.LVL331:
 3572              	.L293:
 756:System/shell/shell.c ****         {
 3573              		.loc 1 756 69 is_stmt 1 discriminator 1 view .LVU968
 756:System/shell/shell.c ****         {
 3574              		.loc 1 756 9 is_stmt 0 discriminator 1 view .LVU969
 3575 00b2 002D     		cmp	r5, #0
 3576 00b4 F7DC     		bgt	.L294
 3577              	.LVL332:
 3578              	.L285:
 756:System/shell/shell.c ****         {
 3579              		.loc 1 756 9 discriminator 1 view .LVU970
 3580              	.LBE25:
 761:System/shell/shell.c **** 
 3581              		.loc 1 761 1 view .LVU971
 3582 00b6 70BD     		pop	{r4, r5, r6, pc}
 3583              	.LVL333:
 3584              	.L299:
 761:System/shell/shell.c **** 
 3585              		.loc 1 761 1 view .LVU972
 3586              		.align	2
 3587              	.L298:
 3588 00b8 00000000 		.word	.LC21
 3589              		.cfi_endproc
 3590              	.LFE27:
 3592              		.section	.text.shellDeleteByte,"ax",%progbits
 3593              		.align	1
 3594              		.global	shellDeleteByte
 3595              		.syntax unified
 3596              		.thumb
 3597              		.thumb_func
 3598              		.fpu fpv5-d16
 3600              	shellDeleteByte:
 3601              	.LVL334:
 3602              	.LFB28:
 770:System/shell/shell.c ****     char offset = (direction == -1) ? 1 : 0;
 3603              		.loc 1 770 1 is_stmt 1 view -0
 3604              		.cfi_startproc
ARM GAS  C:\Users\HUAV\AppData\Local\Temp\ccSSjzP1.s 			page 109


 3605              		@ args = 0, pretend = 0, frame = 0
 3606              		@ frame_needed = 0, uses_anonymous_args = 0
 770:System/shell/shell.c ****     char offset = (direction == -1) ? 1 : 0;
 3607              		.loc 1 770 1 is_stmt 0 view .LVU974
 3608 0000 38B5     		push	{r3, r4, r5, lr}
 3609              	.LCFI51:
 3610              		.cfi_def_cfa_offset 16
 3611              		.cfi_offset 3, -16
 3612              		.cfi_offset 4, -12
 3613              		.cfi_offset 5, -8
 3614              		.cfi_offset 14, -4
 3615 0002 0446     		mov	r4, r0
 771:System/shell/shell.c **** 
 3616              		.loc 1 771 5 is_stmt 1 view .LVU975
 771:System/shell/shell.c **** 
 3617              		.loc 1 771 41 is_stmt 0 view .LVU976
 3618 0004 B1F1FF3F 		cmp	r1, #-1
 3619 0008 14BF     		ite	ne
 3620 000a 0023     		movne	r3, #0
 3621 000c 0123     		moveq	r3, #1
 3622              	.LVL335:
 773:System/shell/shell.c ****     {
 3623              		.loc 1 773 5 is_stmt 1 view .LVU977
 773:System/shell/shell.c ****     {
 3624              		.loc 1 773 23 is_stmt 0 view .LVU978
 3625 000e C289     		ldrh	r2, [r0, #14]
 773:System/shell/shell.c ****     {
 3626              		.loc 1 773 8 view .LVU979
 3627 0010 0AB9     		cbnz	r2, .L301
 773:System/shell/shell.c ****     {
 3628              		.loc 1 773 36 discriminator 1 view .LVU980
 3629 0012 0129     		cmp	r1, #1
 3630 0014 55D0     		beq	.L300
 3631              	.L301:
 773:System/shell/shell.c ****     {
 3632              		.loc 1 773 96 discriminator 3 view .LVU981
 3633 0016 A089     		ldrh	r0, [r4, #12]
 3634              	.LVL336:
 773:System/shell/shell.c ****     {
 3635              		.loc 1 773 55 discriminator 3 view .LVU982
 3636 0018 8242     		cmp	r2, r0
 3637 001a 03D0     		beq	.L313
 3638              	.L303:
 777:System/shell/shell.c ****     {
 3639              		.loc 1 777 5 is_stmt 1 view .LVU983
 777:System/shell/shell.c ****     {
 3640              		.loc 1 777 8 is_stmt 0 view .LVU984
 3641 001c 8242     		cmp	r2, r0
 3642 001e 05D0     		beq	.L314
 3643              	.L304:
 786:System/shell/shell.c ****         {
 3644              		.loc 1 786 9 is_stmt 1 view .LVU985
 3645              	.LBB26:
 786:System/shell/shell.c ****         {
 3646              		.loc 1 786 14 view .LVU986
 786:System/shell/shell.c ****         {
 3647              		.loc 1 786 20 is_stmt 0 view .LVU987
ARM GAS  C:\Users\HUAV\AppData\Local\Temp\ccSSjzP1.s 			page 110


 3648 0020 1BB2     		sxth	r3, r3
 3649              	.LVL337:
 786:System/shell/shell.c ****         {
 3650              		.loc 1 786 9 view .LVU988
 3651 0022 19E0     		b	.L305
 3652              	.LVL338:
 3653              	.L313:
 786:System/shell/shell.c ****         {
 3654              		.loc 1 786 9 view .LVU989
 3655              	.LBE26:
 773:System/shell/shell.c ****     {
 3656              		.loc 1 773 104 discriminator 4 view .LVU990
 3657 0024 B1F1FF3F 		cmp	r1, #-1
 3658 0028 F8D1     		bne	.L303
 3659 002a 4AE0     		b	.L300
 3660              	.L314:
 777:System/shell/shell.c ****     {
 3661              		.loc 1 777 54 discriminator 1 view .LVU991
 3662 002c 0129     		cmp	r1, #1
 3663 002e F7D1     		bne	.L304
 779:System/shell/shell.c ****         shell->parser.length--;
 3664              		.loc 1 779 9 is_stmt 1 view .LVU992
 779:System/shell/shell.c ****         shell->parser.length--;
 3665              		.loc 1 779 29 is_stmt 0 view .LVU993
 3666 0030 013A     		subs	r2, r2, #1
 3667 0032 E281     		strh	r2, [r4, #14]	@ movhi
 780:System/shell/shell.c ****         shell->parser.buffer[shell->parser.length] = 0;
 3668              		.loc 1 780 9 is_stmt 1 view .LVU994
 780:System/shell/shell.c ****         shell->parser.buffer[shell->parser.length] = 0;
 3669              		.loc 1 780 29 is_stmt 0 view .LVU995
 3670 0034 431E     		subs	r3, r0, #1
 3671              	.LVL339:
 780:System/shell/shell.c ****         shell->parser.buffer[shell->parser.length] = 0;
 3672              		.loc 1 780 29 view .LVU996
 3673 0036 9BB2     		uxth	r3, r3
 3674 0038 A381     		strh	r3, [r4, #12]	@ movhi
 781:System/shell/shell.c ****         shellDeleteCommandLine(shell, 1);
 3675              		.loc 1 781 9 is_stmt 1 view .LVU997
 781:System/shell/shell.c ****         shellDeleteCommandLine(shell, 1);
 3676              		.loc 1 781 22 is_stmt 0 view .LVU998
 3677 003a 2269     		ldr	r2, [r4, #16]
 781:System/shell/shell.c ****         shellDeleteCommandLine(shell, 1);
 3678              		.loc 1 781 52 view .LVU999
 3679 003c 0021     		movs	r1, #0
 3680              	.LVL340:
 781:System/shell/shell.c ****         shellDeleteCommandLine(shell, 1);
 3681              		.loc 1 781 52 view .LVU1000
 3682 003e D154     		strb	r1, [r2, r3]
 782:System/shell/shell.c ****     }
 3683              		.loc 1 782 9 is_stmt 1 view .LVU1001
 3684 0040 0121     		movs	r1, #1
 3685 0042 2046     		mov	r0, r4
 3686 0044 FFF7FEFF 		bl	shellDeleteCommandLine
 3687              	.LVL341:
 3688 0048 3BE0     		b	.L300
 3689              	.LVL342:
 3690              	.L306:
ARM GAS  C:\Users\HUAV\AppData\Local\Temp\ccSSjzP1.s 			page 111


 3691              	.LBB27:
 788:System/shell/shell.c ****                 shell->parser.buffer[shell->parser.cursor + i];
 3692              		.loc 1 788 13 discriminator 3 view .LVU1002
 789:System/shell/shell.c ****         }
 3693              		.loc 1 789 30 is_stmt 0 discriminator 3 view .LVU1003
 3694 004a 2069     		ldr	r0, [r4, #16]
 789:System/shell/shell.c ****         }
 3695              		.loc 1 789 59 discriminator 3 view .LVU1004
 3696 004c 1A44     		add	r2, r2, r3
 788:System/shell/shell.c ****                 shell->parser.buffer[shell->parser.cursor + i];
 3697              		.loc 1 788 33 discriminator 3 view .LVU1005
 3698 004e 551E     		subs	r5, r2, #1
 789:System/shell/shell.c ****         }
 3699              		.loc 1 789 37 discriminator 3 view .LVU1006
 3700 0050 825C     		ldrb	r2, [r0, r2]	@ zero_extendqisi2
 788:System/shell/shell.c ****                 shell->parser.buffer[shell->parser.cursor + i];
 3701              		.loc 1 788 64 discriminator 3 view .LVU1007
 3702 0052 4255     		strb	r2, [r0, r5]
 786:System/shell/shell.c ****         {
 3703              		.loc 1 786 81 is_stmt 1 discriminator 3 view .LVU1008
 786:System/shell/shell.c ****         {
 3704              		.loc 1 786 82 is_stmt 0 discriminator 3 view .LVU1009
 3705 0054 0133     		adds	r3, r3, #1
 3706              	.LVL343:
 786:System/shell/shell.c ****         {
 3707              		.loc 1 786 82 discriminator 3 view .LVU1010
 3708 0056 1BB2     		sxth	r3, r3
 3709              	.LVL344:
 3710              	.L305:
 786:System/shell/shell.c ****         {
 3711              		.loc 1 786 32 is_stmt 1 discriminator 1 view .LVU1011
 786:System/shell/shell.c ****         {
 3712              		.loc 1 786 49 is_stmt 0 discriminator 1 view .LVU1012
 3713 0058 A089     		ldrh	r0, [r4, #12]
 786:System/shell/shell.c ****         {
 3714              		.loc 1 786 72 discriminator 1 view .LVU1013
 3715 005a E289     		ldrh	r2, [r4, #14]
 786:System/shell/shell.c ****         {
 3716              		.loc 1 786 57 discriminator 1 view .LVU1014
 3717 005c 851A     		subs	r5, r0, r2
 786:System/shell/shell.c ****         {
 3718              		.loc 1 786 9 discriminator 1 view .LVU1015
 3719 005e AB42     		cmp	r3, r5
 3720 0060 F3DB     		blt	.L306
 786:System/shell/shell.c ****         {
 3721              		.loc 1 786 9 discriminator 1 view .LVU1016
 3722              	.LBE27:
 791:System/shell/shell.c ****         if (!offset)
 3723              		.loc 1 791 9 is_stmt 1 view .LVU1017
 791:System/shell/shell.c ****         if (!offset)
 3724              		.loc 1 791 29 is_stmt 0 view .LVU1018
 3725 0062 0138     		subs	r0, r0, #1
 3726 0064 A081     		strh	r0, [r4, #12]	@ movhi
 792:System/shell/shell.c ****         {
 3727              		.loc 1 792 9 is_stmt 1 view .LVU1019
 792:System/shell/shell.c ****         {
 3728              		.loc 1 792 12 is_stmt 0 view .LVU1020
ARM GAS  C:\Users\HUAV\AppData\Local\Temp\ccSSjzP1.s 			page 112


 3729 0066 B1F1FF3F 		cmp	r1, #-1
 3730 006a 06D1     		bne	.L315
 3731              	.LVL345:
 3732              	.L307:
 797:System/shell/shell.c ****         for (short i = shell->parser.cursor; i < shell->parser.length; i++)
 3733              		.loc 1 797 9 is_stmt 1 view .LVU1021
 797:System/shell/shell.c ****         for (short i = shell->parser.cursor; i < shell->parser.length; i++)
 3734              		.loc 1 797 22 is_stmt 0 view .LVU1022
 3735 006c 2269     		ldr	r2, [r4, #16]
 797:System/shell/shell.c ****         for (short i = shell->parser.cursor; i < shell->parser.length; i++)
 3736              		.loc 1 797 43 view .LVU1023
 3737 006e A389     		ldrh	r3, [r4, #12]
 797:System/shell/shell.c ****         for (short i = shell->parser.cursor; i < shell->parser.length; i++)
 3738              		.loc 1 797 52 view .LVU1024
 3739 0070 0021     		movs	r1, #0
 3740 0072 D154     		strb	r1, [r2, r3]
 798:System/shell/shell.c ****         {
 3741              		.loc 1 798 9 is_stmt 1 view .LVU1025
 3742              	.LBB28:
 798:System/shell/shell.c ****         {
 3743              		.loc 1 798 14 view .LVU1026
 798:System/shell/shell.c ****         {
 3744              		.loc 1 798 20 is_stmt 0 view .LVU1027
 3745 0074 B4F90E50 		ldrsh	r5, [r4, #14]
 3746              	.LVL346:
 798:System/shell/shell.c ****         {
 3747              		.loc 1 798 9 view .LVU1028
 3748 0078 0DE0     		b	.L308
 3749              	.LVL347:
 3750              	.L315:
 798:System/shell/shell.c ****         {
 3751              		.loc 1 798 9 view .LVU1029
 3752              	.LBE28:
 794:System/shell/shell.c ****             shellWriteByte(shell, '\b');
 3753              		.loc 1 794 13 is_stmt 1 view .LVU1030
 794:System/shell/shell.c ****             shellWriteByte(shell, '\b');
 3754              		.loc 1 794 33 is_stmt 0 view .LVU1031
 3755 007a 013A     		subs	r2, r2, #1
 3756 007c E281     		strh	r2, [r4, #14]	@ movhi
 795:System/shell/shell.c ****         }
 3757              		.loc 1 795 13 is_stmt 1 view .LVU1032
 3758 007e 0821     		movs	r1, #8
 3759              	.LVL348:
 795:System/shell/shell.c ****         }
 3760              		.loc 1 795 13 is_stmt 0 view .LVU1033
 3761 0080 2046     		mov	r0, r4
 3762 0082 FFF7FEFF 		bl	shellWriteByte
 3763              	.LVL349:
 795:System/shell/shell.c ****         }
 3764              		.loc 1 795 13 view .LVU1034
 3765 0086 F1E7     		b	.L307
 3766              	.LVL350:
 3767              	.L309:
 3768              	.LBB29:
 800:System/shell/shell.c ****         }
 3769              		.loc 1 800 13 is_stmt 1 discriminator 3 view .LVU1035
 800:System/shell/shell.c ****         }
ARM GAS  C:\Users\HUAV\AppData\Local\Temp\ccSSjzP1.s 			page 113


 3770              		.loc 1 800 48 is_stmt 0 discriminator 3 view .LVU1036
 3771 0088 2369     		ldr	r3, [r4, #16]
 800:System/shell/shell.c ****         }
 3772              		.loc 1 800 13 discriminator 3 view .LVU1037
 3773 008a 595D     		ldrb	r1, [r3, r5]	@ zero_extendqisi2
 3774 008c 2046     		mov	r0, r4
 3775 008e FFF7FEFF 		bl	shellWriteByte
 3776              	.LVL351:
 798:System/shell/shell.c ****         {
 3777              		.loc 1 798 72 is_stmt 1 discriminator 3 view .LVU1038
 798:System/shell/shell.c ****         {
 3778              		.loc 1 798 73 is_stmt 0 discriminator 3 view .LVU1039
 3779 0092 0135     		adds	r5, r5, #1
 3780              	.LVL352:
 798:System/shell/shell.c ****         {
 3781              		.loc 1 798 73 discriminator 3 view .LVU1040
 3782 0094 2DB2     		sxth	r5, r5
 3783              	.LVL353:
 3784              	.L308:
 798:System/shell/shell.c ****         {
 3785              		.loc 1 798 46 is_stmt 1 discriminator 1 view .LVU1041
 798:System/shell/shell.c ****         {
 3786              		.loc 1 798 63 is_stmt 0 discriminator 1 view .LVU1042
 3787 0096 A389     		ldrh	r3, [r4, #12]
 798:System/shell/shell.c ****         {
 3788              		.loc 1 798 9 discriminator 1 view .LVU1043
 3789 0098 9D42     		cmp	r5, r3
 3790 009a F5DB     		blt	.L309
 798:System/shell/shell.c ****         {
 3791              		.loc 1 798 9 discriminator 1 view .LVU1044
 3792              	.LBE29:
 802:System/shell/shell.c ****         for (short i = shell->parser.length - shell->parser.cursor + 1; i > 0; i--)
 3793              		.loc 1 802 9 is_stmt 1 view .LVU1045
 3794 009c 2021     		movs	r1, #32
 3795 009e 2046     		mov	r0, r4
 3796 00a0 FFF7FEFF 		bl	shellWriteByte
 3797              	.LVL354:
 803:System/shell/shell.c ****         {
 3798              		.loc 1 803 9 view .LVU1046
 3799              	.LBB30:
 803:System/shell/shell.c ****         {
 3800              		.loc 1 803 14 view .LVU1047
 803:System/shell/shell.c ****         {
 3801              		.loc 1 803 37 is_stmt 0 view .LVU1048
 3802 00a4 A589     		ldrh	r5, [r4, #12]
 3803              	.LVL355:
 803:System/shell/shell.c ****         {
 3804              		.loc 1 803 60 view .LVU1049
 3805 00a6 E389     		ldrh	r3, [r4, #14]
 803:System/shell/shell.c ****         {
 3806              		.loc 1 803 45 view .LVU1050
 3807 00a8 ED1A     		subs	r5, r5, r3
 3808 00aa ADB2     		uxth	r5, r5
 803:System/shell/shell.c ****         {
 3809              		.loc 1 803 68 view .LVU1051
 3810 00ac 0135     		adds	r5, r5, #1
 803:System/shell/shell.c ****         {
ARM GAS  C:\Users\HUAV\AppData\Local\Temp\ccSSjzP1.s 			page 114


 3811              		.loc 1 803 20 view .LVU1052
 3812 00ae 2DB2     		sxth	r5, r5
 3813              	.LVL356:
 803:System/shell/shell.c ****         {
 3814              		.loc 1 803 9 view .LVU1053
 3815 00b0 05E0     		b	.L310
 3816              	.L311:
 805:System/shell/shell.c ****         }
 3817              		.loc 1 805 13 is_stmt 1 discriminator 3 view .LVU1054
 3818 00b2 0821     		movs	r1, #8
 3819 00b4 2046     		mov	r0, r4
 3820 00b6 FFF7FEFF 		bl	shellWriteByte
 3821              	.LVL357:
 803:System/shell/shell.c ****         {
 3822              		.loc 1 803 80 discriminator 3 view .LVU1055
 803:System/shell/shell.c ****         {
 3823              		.loc 1 803 81 is_stmt 0 discriminator 3 view .LVU1056
 3824 00ba 013D     		subs	r5, r5, #1
 3825              	.LVL358:
 803:System/shell/shell.c ****         {
 3826              		.loc 1 803 81 discriminator 3 view .LVU1057
 3827 00bc 2DB2     		sxth	r5, r5
 3828              	.LVL359:
 3829              	.L310:
 803:System/shell/shell.c ****         {
 3830              		.loc 1 803 73 is_stmt 1 discriminator 1 view .LVU1058
 803:System/shell/shell.c ****         {
 3831              		.loc 1 803 9 is_stmt 0 discriminator 1 view .LVU1059
 3832 00be 002D     		cmp	r5, #0
 3833 00c0 F7DC     		bgt	.L311
 3834              	.LVL360:
 3835              	.L300:
 803:System/shell/shell.c ****         {
 3836              		.loc 1 803 9 discriminator 1 view .LVU1060
 3837              	.LBE30:
 808:System/shell/shell.c **** 
 3838              		.loc 1 808 1 view .LVU1061
 3839 00c2 38BD     		pop	{r3, r4, r5, pc}
 808:System/shell/shell.c **** 
 3840              		.loc 1 808 1 view .LVU1062
 3841              		.cfi_endproc
 3842              	.LFE28:
 3844              		.section	.text.shellBackspace,"ax",%progbits
 3845              		.align	1
 3846              		.global	shellBackspace
 3847              		.syntax unified
 3848              		.thumb
 3849              		.thumb_func
 3850              		.fpu fpv5-d16
 3852              	shellBackspace:
 3853              	.LVL361:
 3854              	.LFB49:
1485:System/shell/shell.c ****     shellDeleteByte(shell, 1);
 3855              		.loc 1 1485 1 is_stmt 1 view -0
 3856              		.cfi_startproc
 3857              		@ args = 0, pretend = 0, frame = 0
 3858              		@ frame_needed = 0, uses_anonymous_args = 0
ARM GAS  C:\Users\HUAV\AppData\Local\Temp\ccSSjzP1.s 			page 115


1485:System/shell/shell.c ****     shellDeleteByte(shell, 1);
 3859              		.loc 1 1485 1 is_stmt 0 view .LVU1064
 3860 0000 08B5     		push	{r3, lr}
 3861              	.LCFI52:
 3862              		.cfi_def_cfa_offset 8
 3863              		.cfi_offset 3, -8
 3864              		.cfi_offset 14, -4
1486:System/shell/shell.c **** }
 3865              		.loc 1 1486 5 is_stmt 1 view .LVU1065
 3866 0002 0121     		movs	r1, #1
 3867 0004 FFF7FEFF 		bl	shellDeleteByte
 3868              	.LVL362:
1487:System/shell/shell.c **** SHELL_EXPORT_KEY(SHELL_CMD_PERMISSION(0) | SHELL_CMD_ENABLE_UNCHECKED,
 3869              		.loc 1 1487 1 is_stmt 0 view .LVU1066
 3870 0008 08BD     		pop	{r3, pc}
 3871              		.cfi_endproc
 3872              	.LFE49:
 3874              		.section	.text.shellDelete,"ax",%progbits
 3875              		.align	1
 3876              		.global	shellDelete
 3877              		.syntax unified
 3878              		.thumb
 3879              		.thumb_func
 3880              		.fpu fpv5-d16
 3882              	shellDelete:
 3883              	.LVL363:
 3884              	.LFB50:
1499:System/shell/shell.c ****     shellDeleteByte(shell, -1);
 3885              		.loc 1 1499 1 is_stmt 1 view -0
 3886              		.cfi_startproc
 3887              		@ args = 0, pretend = 0, frame = 0
 3888              		@ frame_needed = 0, uses_anonymous_args = 0
1499:System/shell/shell.c ****     shellDeleteByte(shell, -1);
 3889              		.loc 1 1499 1 is_stmt 0 view .LVU1068
 3890 0000 08B5     		push	{r3, lr}
 3891              	.LCFI53:
 3892              		.cfi_def_cfa_offset 8
 3893              		.cfi_offset 3, -8
 3894              		.cfi_offset 14, -4
1500:System/shell/shell.c **** }
 3895              		.loc 1 1500 5 is_stmt 1 view .LVU1069
 3896 0002 4FF0FF31 		mov	r1, #-1
 3897 0006 FFF7FEFF 		bl	shellDeleteByte
 3898              	.LVL364:
1501:System/shell/shell.c **** SHELL_EXPORT_KEY(SHELL_CMD_PERMISSION(0) | SHELL_CMD_ENABLE_UNCHECKED,
 3899              		.loc 1 1501 1 is_stmt 0 view .LVU1070
 3900 000a 08BD     		pop	{r3, pc}
 3901              		.cfi_endproc
 3902              	.LFE50:
 3904              		.section	.text.shellSeekCommand,"ax",%progbits
 3905              		.align	1
 3906              		.global	shellSeekCommand
 3907              		.syntax unified
 3908              		.thumb
 3909              		.thumb_func
 3910              		.fpu fpv5-d16
 3912              	shellSeekCommand:
ARM GAS  C:\Users\HUAV\AppData\Local\Temp\ccSSjzP1.s 			page 116


 3913              	.LVL365:
 3914              	.LFB31:
 892:System/shell/shell.c ****     const char *name;
 3915              		.loc 1 892 1 is_stmt 1 view -0
 3916              		.cfi_startproc
 3917              		@ args = 0, pretend = 0, frame = 0
 3918              		@ frame_needed = 0, uses_anonymous_args = 0
 892:System/shell/shell.c ****     const char *name;
 3919              		.loc 1 892 1 is_stmt 0 view .LVU1072
 3920 0000 2DE9F047 		push	{r4, r5, r6, r7, r8, r9, r10, lr}
 3921              	.LCFI54:
 3922              		.cfi_def_cfa_offset 32
 3923              		.cfi_offset 4, -32
 3924              		.cfi_offset 5, -28
 3925              		.cfi_offset 6, -24
 3926              		.cfi_offset 7, -20
 3927              		.cfi_offset 8, -16
 3928              		.cfi_offset 9, -12
 3929              		.cfi_offset 10, -8
 3930              		.cfi_offset 14, -4
 3931 0004 8046     		mov	r8, r0
 3932 0006 8A46     		mov	r10, r1
 3933 0008 1746     		mov	r7, r2
 3934 000a 9946     		mov	r9, r3
 893:System/shell/shell.c ****     int ret;
 3935              		.loc 1 893 5 is_stmt 1 view .LVU1073
 894:System/shell/shell.c ****     unsigned short count = shell->commandList.count -
 3936              		.loc 1 894 5 view .LVU1074
 895:System/shell/shell.c ****                            ((int)base - (int)shell->commandList.base) / sizeof(ShellCommand);
 3937              		.loc 1 895 5 view .LVU1075
 895:System/shell/shell.c ****                            ((int)base - (int)shell->commandList.base) / sizeof(ShellCommand);
 3938              		.loc 1 895 46 is_stmt 0 view .LVU1076
 3939 000c B0F85C60 		ldrh	r6, [r0, #92]
 896:System/shell/shell.c ****     for (unsigned short i = 0; i < count; i++)
 3940              		.loc 1 896 64 view .LVU1077
 3941 0010 836D     		ldr	r3, [r0, #88]
 3942              	.LVL366:
 896:System/shell/shell.c ****     for (unsigned short i = 0; i < count; i++)
 3943              		.loc 1 896 39 view .LVU1078
 3944 0012 D31A     		subs	r3, r2, r3
 895:System/shell/shell.c ****                            ((int)base - (int)shell->commandList.base) / sizeof(ShellCommand);
 3945              		.loc 1 895 53 view .LVU1079
 3946 0014 C3F30F13 		ubfx	r3, r3, #4, #16
 895:System/shell/shell.c ****                            ((int)base - (int)shell->commandList.base) / sizeof(ShellCommand);
 3947              		.loc 1 895 20 view .LVU1080
 3948 0018 F31A     		subs	r3, r6, r3
 3949 001a 9EB2     		uxth	r6, r3
 3950              	.LVL367:
 897:System/shell/shell.c ****     {
 3951              		.loc 1 897 5 is_stmt 1 view .LVU1081
 3952              	.LBB31:
 897:System/shell/shell.c ****     {
 3953              		.loc 1 897 10 view .LVU1082
 897:System/shell/shell.c ****     {
 3954              		.loc 1 897 25 is_stmt 0 view .LVU1083
 3955 001c 0024     		movs	r4, #0
 897:System/shell/shell.c ****     {
ARM GAS  C:\Users\HUAV\AppData\Local\Temp\ccSSjzP1.s 			page 117


 3956              		.loc 1 897 5 view .LVU1084
 3957 001e 06E0     		b	.L321
 3958              	.LVL368:
 3959              	.L323:
 914:System/shell/shell.c ****             {
 3960              		.loc 1 914 13 is_stmt 1 view .LVU1085
 914:System/shell/shell.c ****             {
 3961              		.loc 1 914 17 is_stmt 0 view .LVU1086
 3962 0020 4A46     		mov	r2, r9
 3963 0022 5046     		mov	r0, r10
 3964              	.LVL369:
 914:System/shell/shell.c ****             {
 3965              		.loc 1 914 17 view .LVU1087
 3966 0024 FFF7FEFF 		bl	strncmp
 3967              	.LVL370:
 914:System/shell/shell.c ****             {
 3968              		.loc 1 914 16 view .LVU1088
 3969 0028 00B3     		cbz	r0, .L320
 3970              	.L322:
 897:System/shell/shell.c ****     {
 3971              		.loc 1 897 43 is_stmt 1 discriminator 2 view .LVU1089
 897:System/shell/shell.c ****     {
 3972              		.loc 1 897 44 is_stmt 0 discriminator 2 view .LVU1090
 3973 002a 0134     		adds	r4, r4, #1
 3974              	.LVL371:
 897:System/shell/shell.c ****     {
 3975              		.loc 1 897 44 discriminator 2 view .LVU1091
 3976 002c A4B2     		uxth	r4, r4
 3977              	.LVL372:
 3978              	.L321:
 897:System/shell/shell.c ****     {
 3979              		.loc 1 897 32 is_stmt 1 discriminator 1 view .LVU1092
 897:System/shell/shell.c ****     {
 3980              		.loc 1 897 5 is_stmt 0 discriminator 1 view .LVU1093
 3981 002e B442     		cmp	r4, r6
 3982 0030 1BD2     		bcs	.L327
 899:System/shell/shell.c ****         {
 3983              		.loc 1 899 9 is_stmt 1 view .LVU1094
 899:System/shell/shell.c ****         {
 3984              		.loc 1 899 17 is_stmt 0 view .LVU1095
 3985 0032 07EB0415 		add	r5, r7, r4, lsl #4
 899:System/shell/shell.c ****         {
 3986              		.loc 1 899 37 view .LVU1096
 3987 0036 95F801C0 		ldrb	ip, [r5, #1]	@ zero_extendqisi2
 3988 003a 0CF00F0C 		and	ip, ip, #15
 899:System/shell/shell.c ****         {
 3989              		.loc 1 899 12 view .LVU1097
 3990 003e BCF1090F 		cmp	ip, #9
 3991 0042 F2D0     		beq	.L322
 899:System/shell/shell.c ****         {
 3992              		.loc 1 899 58 discriminator 1 view .LVU1098
 3993 0044 2946     		mov	r1, r5
 3994 0046 4046     		mov	r0, r8
 3995 0048 FFF7FEFF 		bl	shellCheckPermission
 3996              	.LVL373:
 899:System/shell/shell.c ****         {
 3997              		.loc 1 899 55 discriminator 1 view .LVU1099
ARM GAS  C:\Users\HUAV\AppData\Local\Temp\ccSSjzP1.s 			page 118


 3998 004c 0028     		cmp	r0, #0
 3999 004e ECD1     		bne	.L322
 903:System/shell/shell.c ****         if (!compareLength)
 4000              		.loc 1 903 9 is_stmt 1 view .LVU1100
 903:System/shell/shell.c ****         if (!compareLength)
 4001              		.loc 1 903 16 is_stmt 0 view .LVU1101
 4002 0050 2846     		mov	r0, r5
 4003 0052 FFF7FEFF 		bl	shellGetCommandName
 4004              	.LVL374:
 4005 0056 0146     		mov	r1, r0
 4006              	.LVL375:
 904:System/shell/shell.c ****         {
 4007              		.loc 1 904 9 is_stmt 1 view .LVU1102
 904:System/shell/shell.c ****         {
 4008              		.loc 1 904 12 is_stmt 0 view .LVU1103
 4009 0058 B9F1000F 		cmp	r9, #0
 4010 005c E0D1     		bne	.L323
 906:System/shell/shell.c ****             if (strcmp(cmd, name) == 0)
 4011              		.loc 1 906 13 is_stmt 1 view .LVU1104
 906:System/shell/shell.c ****             if (strcmp(cmd, name) == 0)
 4012              		.loc 1 906 19 is_stmt 0 view .LVU1105
 4013 005e 5046     		mov	r0, r10
 4014              	.LVL376:
 906:System/shell/shell.c ****             if (strcmp(cmd, name) == 0)
 4015              		.loc 1 906 19 view .LVU1106
 4016 0060 FFF7FEFF 		bl	strcmp
 4017              	.LVL377:
 907:System/shell/shell.c ****             {
 4018              		.loc 1 907 13 is_stmt 1 view .LVU1107
 907:System/shell/shell.c ****             {
 4019              		.loc 1 907 16 is_stmt 0 view .LVU1108
 4020 0064 0028     		cmp	r0, #0
 4021 0066 E0D1     		bne	.L322
 4022 0068 00E0     		b	.L320
 4023              	.LVL378:
 4024              	.L327:
 907:System/shell/shell.c ****             {
 4025              		.loc 1 907 16 view .LVU1109
 4026              	.LBE31:
 920:System/shell/shell.c **** }
 4027              		.loc 1 920 12 view .LVU1110
 4028 006a 0025     		movs	r5, #0
 4029              	.L320:
 921:System/shell/shell.c **** 
 4030              		.loc 1 921 1 view .LVU1111
 4031 006c 2846     		mov	r0, r5
 4032 006e BDE8F087 		pop	{r4, r5, r6, r7, r8, r9, r10, pc}
 921:System/shell/shell.c **** 
 4033              		.loc 1 921 1 view .LVU1112
 4034              		.cfi_endproc
 4035              	.LFE31:
 4037              		.section	.rodata.shellInit.str1.4,"aMS",%progbits,1
 4038              		.align	2
 4039              	.LC22:
 4040 0000 502E302E 		.ascii	"P.0.Wder Squad\000"
 4040      57646572 
 4040      20537175 
ARM GAS  C:\Users\HUAV\AppData\Local\Temp\ccSSjzP1.s 			page 119


 4040      616400
 4041              		.section	.text.shellInit,"ax",%progbits
 4042              		.align	1
 4043              		.global	shellInit
 4044              		.syntax unified
 4045              		.thumb
 4046              		.thumb_func
 4047              		.fpu fpv5-d16
 4049              	shellInit:
 4050              	.LVL379:
 4051              	.LFB3:
 161:System/shell/shell.c ****     shell->parser.length = 0;
 4052              		.loc 1 161 1 is_stmt 1 view -0
 4053              		.cfi_startproc
 4054              		@ args = 0, pretend = 0, frame = 0
 4055              		@ frame_needed = 0, uses_anonymous_args = 0
 161:System/shell/shell.c ****     shell->parser.length = 0;
 4056              		.loc 1 161 1 is_stmt 0 view .LVU1114
 4057 0000 10B5     		push	{r4, lr}
 4058              	.LCFI55:
 4059              		.cfi_def_cfa_offset 8
 4060              		.cfi_offset 4, -8
 4061              		.cfi_offset 14, -4
 4062 0002 0446     		mov	r4, r0
 162:System/shell/shell.c ****     shell->parser.cursor = 0;
 4063              		.loc 1 162 5 is_stmt 1 view .LVU1115
 162:System/shell/shell.c ****     shell->parser.cursor = 0;
 4064              		.loc 1 162 26 is_stmt 0 view .LVU1116
 4065 0004 0023     		movs	r3, #0
 4066 0006 8381     		strh	r3, [r0, #12]	@ movhi
 163:System/shell/shell.c ****     shell->history.offset = 0;
 4067              		.loc 1 163 5 is_stmt 1 view .LVU1117
 163:System/shell/shell.c ****     shell->history.offset = 0;
 4068              		.loc 1 163 26 is_stmt 0 view .LVU1118
 4069 0008 C381     		strh	r3, [r0, #14]	@ movhi
 164:System/shell/shell.c ****     shell->history.number = 0;
 4070              		.loc 1 164 5 is_stmt 1 view .LVU1119
 164:System/shell/shell.c ****     shell->history.number = 0;
 4071              		.loc 1 164 27 is_stmt 0 view .LVU1120
 4072 000a A0F85430 		strh	r3, [r0, #84]	@ movhi
 165:System/shell/shell.c ****     shell->history.record = 0;
 4073              		.loc 1 165 5 is_stmt 1 view .LVU1121
 165:System/shell/shell.c ****     shell->history.record = 0;
 4074              		.loc 1 165 27 is_stmt 0 view .LVU1122
 4075 000e A0F85030 		strh	r3, [r0, #80]	@ movhi
 166:System/shell/shell.c ****     shell->info.user = NULL;
 4076              		.loc 1 166 5 is_stmt 1 view .LVU1123
 166:System/shell/shell.c ****     shell->info.user = NULL;
 4077              		.loc 1 166 27 is_stmt 0 view .LVU1124
 4078 0012 A0F85230 		strh	r3, [r0, #82]	@ movhi
 167:System/shell/shell.c ****     shell->status.isChecked = 1;
 4079              		.loc 1 167 5 is_stmt 1 view .LVU1125
 167:System/shell/shell.c ****     shell->status.isChecked = 1;
 4080              		.loc 1 167 22 is_stmt 0 view .LVU1126
 4081 0016 0360     		str	r3, [r0]
 168:System/shell/shell.c **** 
 4082              		.loc 1 168 5 is_stmt 1 view .LVU1127
ARM GAS  C:\Users\HUAV\AppData\Local\Temp\ccSSjzP1.s 			page 120


 168:System/shell/shell.c **** 
 4083              		.loc 1 168 29 is_stmt 0 view .LVU1128
 4084 0018 90F86000 		ldrb	r0, [r0, #96]	@ zero_extendqisi2
 4085              	.LVL380:
 168:System/shell/shell.c **** 
 4086              		.loc 1 168 29 view .LVU1129
 4087 001c 40F00100 		orr	r0, r0, #1
 4088 0020 84F86000 		strb	r0, [r4, #96]
 170:System/shell/shell.c ****     shell->parser.bufferSize = size / (SHELL_HISTORY_MAX_NUMBER + 1);
 4089              		.loc 1 170 5 is_stmt 1 view .LVU1130
 170:System/shell/shell.c ****     shell->parser.bufferSize = size / (SHELL_HISTORY_MAX_NUMBER + 1);
 4090              		.loc 1 170 26 is_stmt 0 view .LVU1131
 4091 0024 2161     		str	r1, [r4, #16]
 171:System/shell/shell.c ****     for (short i = 0; i < SHELL_HISTORY_MAX_NUMBER; i++)
 4092              		.loc 1 171 5 is_stmt 1 view .LVU1132
 171:System/shell/shell.c ****     for (short i = 0; i < SHELL_HISTORY_MAX_NUMBER; i++)
 4093              		.loc 1 171 30 is_stmt 0 view .LVU1133
 4094 0026 1648     		ldr	r0, .L332
 4095 0028 A0FB022C 		umull	r2, ip, r0, r2
 4096              	.LVL381:
 171:System/shell/shell.c ****     for (short i = 0; i < SHELL_HISTORY_MAX_NUMBER; i++)
 4097              		.loc 1 171 30 view .LVU1134
 4098 002c 4FEA9C0C 		lsr	ip, ip, #2
 4099 0030 A4F834C0 		strh	ip, [r4, #52]	@ movhi
 172:System/shell/shell.c ****     {
 4100              		.loc 1 172 5 is_stmt 1 view .LVU1135
 4101              	.LBB32:
 172:System/shell/shell.c ****     {
 4102              		.loc 1 172 10 view .LVU1136
 4103              	.LVL382:
 172:System/shell/shell.c ****     {
 4104              		.loc 1 172 5 is_stmt 0 view .LVU1137
 4105 0034 09E0     		b	.L329
 4106              	.LVL383:
 4107              	.L330:
 174:System/shell/shell.c ****     }
 4108              		.loc 1 174 9 is_stmt 1 discriminator 3 view .LVU1138
 174:System/shell/shell.c ****     }
 4109              		.loc 1 174 68 is_stmt 0 discriminator 3 view .LVU1139
 4110 0036 03FB0CC0 		mla	r0, r3, ip, ip
 174:System/shell/shell.c ****     }
 4111              		.loc 1 174 41 discriminator 3 view .LVU1140
 4112 003a 0844     		add	r0, r0, r1
 174:System/shell/shell.c ****     }
 4113              		.loc 1 174 32 discriminator 3 view .LVU1141
 4114 003c 03F10E02 		add	r2, r3, #14
 4115 0040 04EB8202 		add	r2, r4, r2, lsl #2
 4116 0044 5060     		str	r0, [r2, #4]
 172:System/shell/shell.c ****     {
 4117              		.loc 1 172 53 is_stmt 1 discriminator 3 view .LVU1142
 172:System/shell/shell.c ****     {
 4118              		.loc 1 172 54 is_stmt 0 discriminator 3 view .LVU1143
 4119 0046 0133     		adds	r3, r3, #1
 4120              	.LVL384:
 172:System/shell/shell.c ****     {
 4121              		.loc 1 172 54 discriminator 3 view .LVU1144
 4122 0048 1BB2     		sxth	r3, r3
ARM GAS  C:\Users\HUAV\AppData\Local\Temp\ccSSjzP1.s 			page 121


 4123              	.LVL385:
 4124              	.L329:
 172:System/shell/shell.c ****     {
 4125              		.loc 1 172 23 is_stmt 1 discriminator 1 view .LVU1145
 172:System/shell/shell.c ****     {
 4126              		.loc 1 172 5 is_stmt 0 discriminator 1 view .LVU1146
 4127 004a 042B     		cmp	r3, #4
 4128 004c F3DD     		ble	.L330
 4129              	.LBE32:
 186:System/shell/shell.c ****     shell->commandList.count = ((unsigned int)(&_shell_command_end) - (unsigned int)(&_shell_comman
 4130              		.loc 1 186 5 is_stmt 1 view .LVU1147
 186:System/shell/shell.c ****     shell->commandList.count = ((unsigned int)(&_shell_command_end) - (unsigned int)(&_shell_comman
 4131              		.loc 1 186 29 is_stmt 0 view .LVU1148
 4132 004e 0D4A     		ldr	r2, .L332+4
 4133 0050 A265     		str	r2, [r4, #88]
 187:System/shell/shell.c **** #else
 4134              		.loc 1 187 5 is_stmt 1 view .LVU1149
 187:System/shell/shell.c **** #else
 4135              		.loc 1 187 33 is_stmt 0 view .LVU1150
 4136 0052 0D4B     		ldr	r3, .L332+8
 4137              	.LVL386:
 187:System/shell/shell.c **** #else
 4138              		.loc 1 187 69 view .LVU1151
 4139 0054 9B1A     		subs	r3, r3, r2
 187:System/shell/shell.c **** #else
 4140              		.loc 1 187 110 view .LVU1152
 4141 0056 1B09     		lsrs	r3, r3, #4
 187:System/shell/shell.c **** #else
 4142              		.loc 1 187 30 view .LVU1153
 4143 0058 A4F85C30 		strh	r3, [r4, #92]	@ movhi
 196:System/shell/shell.c **** 
 4144              		.loc 1 196 5 is_stmt 1 view .LVU1154
 4145 005c 2046     		mov	r0, r4
 4146 005e FFF7FEFF 		bl	shellAdd
 4147              	.LVL387:
 198:System/shell/shell.c ****                                          SHELL_DEFAULT_USER,
 4148              		.loc 1 198 5 view .LVU1155
 198:System/shell/shell.c ****                                          SHELL_DEFAULT_USER,
 4149              		.loc 1 198 25 is_stmt 0 view .LVU1156
 4150 0062 0023     		movs	r3, #0
 4151 0064 A26D     		ldr	r2, [r4, #88]
 4152 0066 0949     		ldr	r1, .L332+12
 4153 0068 2046     		mov	r0, r4
 4154 006a FFF7FEFF 		bl	shellSeekCommand
 4155              	.LVL388:
 4156 006e 0146     		mov	r1, r0
 198:System/shell/shell.c ****                                          SHELL_DEFAULT_USER,
 4157              		.loc 1 198 5 view .LVU1157
 4158 0070 2046     		mov	r0, r4
 4159 0072 FFF7FEFF 		bl	shellSetUser
 4160              	.LVL389:
 202:System/shell/shell.c **** }
 4161              		.loc 1 202 5 is_stmt 1 view .LVU1158
 4162 0076 0121     		movs	r1, #1
 4163 0078 2046     		mov	r0, r4
 4164 007a FFF7FEFF 		bl	shellWriteCommandLine
 4165              	.LVL390:
ARM GAS  C:\Users\HUAV\AppData\Local\Temp\ccSSjzP1.s 			page 122


 203:System/shell/shell.c **** 
 4166              		.loc 1 203 1 is_stmt 0 view .LVU1159
 4167 007e 10BD     		pop	{r4, pc}
 4168              	.LVL391:
 4169              	.L333:
 203:System/shell/shell.c **** 
 4170              		.loc 1 203 1 view .LVU1160
 4171              		.align	2
 4172              	.L332:
 4173 0080 ABAAAAAA 		.word	-1431655765
 4174 0084 00000000 		.word	_shell_command_start
 4175 0088 00000000 		.word	_shell_command_end
 4176 008c 00000000 		.word	.LC22
 4177              		.cfi_endproc
 4178              	.LFE3:
 4180              		.section	.rodata.shellHelp.str1.4,"aMS",%progbits,1
 4181              		.align	2
 4182              	.LC23:
 4183 0000 636F6D6D 		.ascii	"command help of \000"
 4183      616E6420 
 4183      68656C70 
 4183      206F6620 
 4183      00
 4184 0011 000000   		.align	2
 4185              	.LC24:
 4186 0014 436F6D6D 		.ascii	"Command not Found\015\012\000"
 4186      616E6420 
 4186      6E6F7420 
 4186      466F756E 
 4186      640D0A00 
 4187              		.section	.text.shellHelp,"ax",%progbits
 4188              		.align	1
 4189              		.global	shellHelp
 4190              		.syntax unified
 4191              		.thumb
 4192              		.thumb_func
 4193              		.fpu fpv5-d16
 4195              	shellHelp:
 4196              	.LVL392:
 4197              	.LFB52:
1535:System/shell/shell.c ****     Shell *shell = shellGetCurrent();
 4198              		.loc 1 1535 1 is_stmt 1 view -0
 4199              		.cfi_startproc
 4200              		@ args = 0, pretend = 0, frame = 0
 4201              		@ frame_needed = 0, uses_anonymous_args = 0
1535:System/shell/shell.c ****     Shell *shell = shellGetCurrent();
 4202              		.loc 1 1535 1 is_stmt 0 view .LVU1162
 4203 0000 70B5     		push	{r4, r5, r6, lr}
 4204              	.LCFI56:
 4205              		.cfi_def_cfa_offset 16
 4206              		.cfi_offset 4, -16
 4207              		.cfi_offset 5, -12
 4208              		.cfi_offset 6, -8
 4209              		.cfi_offset 14, -4
 4210 0002 0446     		mov	r4, r0
 4211 0004 0D46     		mov	r5, r1
1536:System/shell/shell.c ****     SHELL_ASSERT(shell, return );
ARM GAS  C:\Users\HUAV\AppData\Local\Temp\ccSSjzP1.s 			page 123


 4212              		.loc 1 1536 5 is_stmt 1 view .LVU1163
1536:System/shell/shell.c ****     SHELL_ASSERT(shell, return );
 4213              		.loc 1 1536 20 is_stmt 0 view .LVU1164
 4214 0006 FFF7FEFF 		bl	shellGetCurrent
 4215              	.LVL393:
1537:System/shell/shell.c ****     if (argc == 1)
 4216              		.loc 1 1537 5 is_stmt 1 view .LVU1165
 4217 000a 20B1     		cbz	r0, .L334
 4218 000c 0646     		mov	r6, r0
1537:System/shell/shell.c ****     if (argc == 1)
 4219              		.loc 1 1537 33 discriminator 2 view .LVU1166
1538:System/shell/shell.c ****     {
 4220              		.loc 1 1538 5 discriminator 2 view .LVU1167
1538:System/shell/shell.c ****     {
 4221              		.loc 1 1538 8 is_stmt 0 discriminator 2 view .LVU1168
 4222 000e 012C     		cmp	r4, #1
 4223 0010 02D0     		beq	.L339
1542:System/shell/shell.c ****     {
 4224              		.loc 1 1542 10 is_stmt 1 view .LVU1169
1542:System/shell/shell.c ****     {
 4225              		.loc 1 1542 13 is_stmt 0 view .LVU1170
 4226 0012 012C     		cmp	r4, #1
 4227 0014 03DC     		bgt	.L340
 4228              	.LVL394:
 4229              	.L334:
1561:System/shell/shell.c **** SHELL_EXPORT_CMD(
 4230              		.loc 1 1561 1 view .LVU1171
 4231 0016 70BD     		pop	{r4, r5, r6, pc}
 4232              	.LVL395:
 4233              	.L339:
1540:System/shell/shell.c ****     }
 4234              		.loc 1 1540 9 is_stmt 1 view .LVU1172
 4235 0018 FFF7FEFF 		bl	shellListAll
 4236              	.LVL396:
1540:System/shell/shell.c ****     }
 4237              		.loc 1 1540 9 is_stmt 0 view .LVU1173
 4238 001c FBE7     		b	.L334
 4239              	.LVL397:
 4240              	.L340:
 4241              	.LBB33:
1544:System/shell/shell.c ****                                                  argv[1],
 4242              		.loc 1 1544 9 is_stmt 1 view .LVU1174
1544:System/shell/shell.c ****                                                  argv[1],
 4243              		.loc 1 1544 33 is_stmt 0 view .LVU1175
 4244 001e 0023     		movs	r3, #0
 4245 0020 826D     		ldr	r2, [r0, #88]
 4246 0022 6968     		ldr	r1, [r5, #4]
 4247 0024 FFF7FEFF 		bl	shellSeekCommand
 4248              	.LVL398:
1548:System/shell/shell.c ****         {
 4249              		.loc 1 1548 9 is_stmt 1 view .LVU1176
1548:System/shell/shell.c ****         {
 4250              		.loc 1 1548 12 is_stmt 0 view .LVU1177
 4251 0028 0446     		mov	r4, r0
 4252              	.LVL399:
1548:System/shell/shell.c ****         {
 4253              		.loc 1 1548 12 view .LVU1178
ARM GAS  C:\Users\HUAV\AppData\Local\Temp\ccSSjzP1.s 			page 124


 4254 002a D8B1     		cbz	r0, .L337
1550:System/shell/shell.c ****             shellWriteString(shell, shellGetCommandName(command));
 4255              		.loc 1 1550 13 is_stmt 1 view .LVU1179
 4256 002c 1049     		ldr	r1, .L341
 4257 002e 3046     		mov	r0, r6
 4258              	.LVL400:
1550:System/shell/shell.c ****             shellWriteString(shell, shellGetCommandName(command));
 4259              		.loc 1 1550 13 is_stmt 0 view .LVU1180
 4260 0030 FFF7FEFF 		bl	shellWriteString
 4261              	.LVL401:
1551:System/shell/shell.c ****             shellWriteString(shell, "\r\n");
 4262              		.loc 1 1551 13 is_stmt 1 view .LVU1181
 4263 0034 2046     		mov	r0, r4
 4264 0036 FFF7FEFF 		bl	shellGetCommandName
 4265              	.LVL402:
 4266 003a 0146     		mov	r1, r0
 4267 003c 3046     		mov	r0, r6
 4268 003e FFF7FEFF 		bl	shellWriteString
 4269              	.LVL403:
1552:System/shell/shell.c ****             shellWriteString(shell, shellGetCommandDesc(command));
 4270              		.loc 1 1552 13 view .LVU1182
 4271 0042 0C4D     		ldr	r5, .L341+4
 4272              	.LVL404:
1552:System/shell/shell.c ****             shellWriteString(shell, shellGetCommandDesc(command));
 4273              		.loc 1 1552 13 is_stmt 0 view .LVU1183
 4274 0044 2946     		mov	r1, r5
 4275 0046 3046     		mov	r0, r6
 4276 0048 FFF7FEFF 		bl	shellWriteString
 4277              	.LVL405:
1553:System/shell/shell.c ****             shellWriteString(shell, "\r\n");
 4278              		.loc 1 1553 13 is_stmt 1 view .LVU1184
 4279 004c 2046     		mov	r0, r4
 4280 004e FFF7FEFF 		bl	shellGetCommandDesc
 4281              	.LVL406:
 4282 0052 0146     		mov	r1, r0
 4283 0054 3046     		mov	r0, r6
 4284 0056 FFF7FEFF 		bl	shellWriteString
 4285              	.LVL407:
1554:System/shell/shell.c ****         }
 4286              		.loc 1 1554 13 view .LVU1185
 4287 005a 2946     		mov	r1, r5
 4288 005c 3046     		mov	r0, r6
 4289 005e FFF7FEFF 		bl	shellWriteString
 4290              	.LVL408:
 4291 0062 D8E7     		b	.L334
 4292              	.LVL409:
 4293              	.L337:
1558:System/shell/shell.c ****         }
 4294              		.loc 1 1558 13 view .LVU1186
 4295 0064 0449     		ldr	r1, .L341+8
 4296 0066 3046     		mov	r0, r6
 4297              	.LVL410:
1558:System/shell/shell.c ****         }
 4298              		.loc 1 1558 13 is_stmt 0 view .LVU1187
 4299 0068 FFF7FEFF 		bl	shellWriteString
 4300              	.LVL411:
 4301 006c D3E7     		b	.L334
ARM GAS  C:\Users\HUAV\AppData\Local\Temp\ccSSjzP1.s 			page 125


 4302              	.L342:
 4303 006e 00BF     		.align	2
 4304              	.L341:
 4305 0070 00000000 		.word	.LC23
 4306 0074 04000000 		.word	.LC3
 4307 0078 14000000 		.word	.LC24
 4308              	.LBE33:
 4309              		.cfi_endproc
 4310              	.LFE52:
 4312              		.section	.text.shellGetVarValue,"ax",%progbits
 4313              		.align	1
 4314              		.global	shellGetVarValue
 4315              		.syntax unified
 4316              		.thumb
 4317              		.thumb_func
 4318              		.fpu fpv5-d16
 4320              	shellGetVarValue:
 4321              	.LVL412:
 4322              	.LFB32:
 931:System/shell/shell.c ****     int value = 0;
 4323              		.loc 1 931 1 is_stmt 1 view -0
 4324              		.cfi_startproc
 4325              		@ args = 0, pretend = 0, frame = 0
 4326              		@ frame_needed = 0, uses_anonymous_args = 0
 931:System/shell/shell.c ****     int value = 0;
 4327              		.loc 1 931 1 is_stmt 0 view .LVU1189
 4328 0000 08B5     		push	{r3, lr}
 4329              	.LCFI57:
 4330              		.cfi_def_cfa_offset 8
 4331              		.cfi_offset 3, -8
 4332              		.cfi_offset 14, -4
 932:System/shell/shell.c ****     switch (command->attr.attrs.type)
 4333              		.loc 1 932 5 is_stmt 1 view .LVU1190
 4334              	.LVL413:
 933:System/shell/shell.c ****     {
 4335              		.loc 1 933 5 view .LVU1191
 933:System/shell/shell.c ****     {
 4336              		.loc 1 933 32 is_stmt 0 view .LVU1192
 4337 0002 4B78     		ldrb	r3, [r1, #1]	@ zero_extendqisi2
 4338 0004 03F00F03 		and	r3, r3, #15
 4339 0008 023B     		subs	r3, r3, #2
 4340 000a 052B     		cmp	r3, #5
 4341 000c 16D8     		bhi	.L351
 4342 000e DFE803F0 		tbb	[pc, r3]
 4343              	.L346:
 4344 0012 03       		.byte	(.L350-.L346)/2
 4345 0013 06       		.byte	(.L349-.L346)/2
 4346 0014 0A       		.byte	(.L348-.L346)/2
 4347 0015 0D       		.byte	(.L347-.L346)/2
 4348 0016 0D       		.byte	(.L347-.L346)/2
 4349 0017 0F       		.byte	(.L345-.L346)/2
 4350              		.p2align 1
 4351              	.L350:
 936:System/shell/shell.c ****         break;
 4352              		.loc 1 936 9 is_stmt 1 view .LVU1193
 936:System/shell/shell.c ****         break;
 4353              		.loc 1 936 44 is_stmt 0 view .LVU1194
ARM GAS  C:\Users\HUAV\AppData\Local\Temp\ccSSjzP1.s 			page 126


 4354 0018 8B68     		ldr	r3, [r1, #8]
 936:System/shell/shell.c ****         break;
 4355              		.loc 1 936 15 view .LVU1195
 4356 001a 1868     		ldr	r0, [r3]
 4357              	.LVL414:
 937:System/shell/shell.c ****     case SHELL_TYPE_VAR_SHORT:
 4358              		.loc 1 937 9 is_stmt 1 view .LVU1196
 4359              	.L343:
 957:System/shell/shell.c **** 
 4360              		.loc 1 957 1 is_stmt 0 view .LVU1197
 4361 001c 08BD     		pop	{r3, pc}
 4362              	.LVL415:
 4363              	.L349:
 939:System/shell/shell.c ****         break;
 4364              		.loc 1 939 9 is_stmt 1 view .LVU1198
 939:System/shell/shell.c ****         break;
 4365              		.loc 1 939 46 is_stmt 0 view .LVU1199
 4366 001e 8B68     		ldr	r3, [r1, #8]
 939:System/shell/shell.c ****         break;
 4367              		.loc 1 939 17 view .LVU1200
 4368 0020 B3F90000 		ldrsh	r0, [r3]
 4369              	.LVL416:
 940:System/shell/shell.c ****     case SHELL_TYPE_VAR_CHAR:
 4370              		.loc 1 940 9 is_stmt 1 view .LVU1201
 4371 0024 FAE7     		b	.L343
 4372              	.LVL417:
 4373              	.L348:
 942:System/shell/shell.c ****         break;
 4374              		.loc 1 942 9 view .LVU1202
 942:System/shell/shell.c ****         break;
 4375              		.loc 1 942 45 is_stmt 0 view .LVU1203
 4376 0026 8B68     		ldr	r3, [r1, #8]
 942:System/shell/shell.c ****         break;
 4377              		.loc 1 942 17 view .LVU1204
 4378 0028 1878     		ldrb	r0, [r3]	@ zero_extendqisi2
 4379              	.LVL418:
 943:System/shell/shell.c ****     case SHELL_TYPE_VAR_STRING:
 4380              		.loc 1 943 9 is_stmt 1 view .LVU1205
 4381 002a F7E7     		b	.L343
 4382              	.LVL419:
 4383              	.L347:
 946:System/shell/shell.c ****         break;
 4384              		.loc 1 946 9 view .LVU1206
 946:System/shell/shell.c ****         break;
 4385              		.loc 1 946 40 is_stmt 0 view .LVU1207
 4386 002c 8868     		ldr	r0, [r1, #8]
 4387              	.LVL420:
 947:System/shell/shell.c ****     case SHELL_TYPE_VAR_NODE:
 4388              		.loc 1 947 9 is_stmt 1 view .LVU1208
 4389 002e F5E7     		b	.L343
 4390              	.LVL421:
 4391              	.L345:
 949:System/shell/shell.c ****                                                                          ->get(((ShellNodeVarAttr *
 4392              		.loc 1 949 9 view .LVU1209
 949:System/shell/shell.c ****                                                                          ->get(((ShellNodeVarAttr *
 4393              		.loc 1 949 55 is_stmt 0 view .LVU1210
 4394 0030 8A68     		ldr	r2, [r1, #8]
ARM GAS  C:\Users\HUAV\AppData\Local\Temp\ccSSjzP1.s 			page 127


 949:System/shell/shell.c ****                                                                          ->get(((ShellNodeVarAttr *
 4395              		.loc 1 949 62 view .LVU1211
 4396 0032 5368     		ldr	r3, [r2, #4]
 951:System/shell/shell.c ****         break;
 4397              		.loc 1 951 68 view .LVU1212
 4398 0034 23B1     		cbz	r3, .L352
 949:System/shell/shell.c ****                                                                          ->get(((ShellNodeVarAttr *
 4399              		.loc 1 949 71 view .LVU1213
 4400 0036 1068     		ldr	r0, [r2]
 4401              	.LVL422:
 949:System/shell/shell.c ****                                                                          ->get(((ShellNodeVarAttr *
 4402              		.loc 1 949 71 view .LVU1214
 4403 0038 9847     		blx	r3
 4404              	.LVL423:
 949:System/shell/shell.c ****                                                                          ->get(((ShellNodeVarAttr *
 4405              		.loc 1 949 71 view .LVU1215
 4406 003a EFE7     		b	.L343
 4407              	.LVL424:
 4408              	.L351:
 933:System/shell/shell.c ****     {
 4409              		.loc 1 933 32 view .LVU1216
 4410 003c 0020     		movs	r0, #0
 4411              	.LVL425:
 933:System/shell/shell.c ****     {
 4412              		.loc 1 933 32 view .LVU1217
 4413 003e EDE7     		b	.L343
 4414              	.LVL426:
 4415              	.L352:
 951:System/shell/shell.c ****         break;
 4416              		.loc 1 951 68 view .LVU1218
 4417 0040 0020     		movs	r0, #0
 4418              	.LVL427:
 956:System/shell/shell.c **** }
 4419              		.loc 1 956 5 is_stmt 1 view .LVU1219
 956:System/shell/shell.c **** }
 4420              		.loc 1 956 12 is_stmt 0 view .LVU1220
 4421 0042 EBE7     		b	.L343
 4422              		.cfi_endproc
 4423              	.LFE32:
 4425              		.section	.rodata.shellShowVar.str1.4,"aMS",%progbits,1
 4426              		.align	2
 4427              	.LC25:
 4428 0000 203D2000 		.ascii	" = \000"
 4429              		.align	2
 4430              	.LC26:
 4431 0004 2200     		.ascii	"\"\000"
 4432              		.section	.text.shellShowVar,"ax",%progbits
 4433              		.align	1
 4434              		.syntax unified
 4435              		.thumb
 4436              		.thumb_func
 4437              		.fpu fpv5-d16
 4439              	shellShowVar:
 4440              	.LVL428:
 4441              	.LFB34:
1021:System/shell/shell.c ****     char buffer[12] = "00000000000";
 4442              		.loc 1 1021 1 is_stmt 1 view -0
ARM GAS  C:\Users\HUAV\AppData\Local\Temp\ccSSjzP1.s 			page 128


 4443              		.cfi_startproc
 4444              		@ args = 0, pretend = 0, frame = 16
 4445              		@ frame_needed = 0, uses_anonymous_args = 0
1021:System/shell/shell.c ****     char buffer[12] = "00000000000";
 4446              		.loc 1 1021 1 is_stmt 0 view .LVU1222
 4447 0000 70B5     		push	{r4, r5, r6, lr}
 4448              	.LCFI58:
 4449              		.cfi_def_cfa_offset 16
 4450              		.cfi_offset 4, -16
 4451              		.cfi_offset 5, -12
 4452              		.cfi_offset 6, -8
 4453              		.cfi_offset 14, -4
 4454 0002 84B0     		sub	sp, sp, #16
 4455              	.LCFI59:
 4456              		.cfi_def_cfa_offset 32
 4457 0004 0446     		mov	r4, r0
 4458 0006 0D46     		mov	r5, r1
1022:System/shell/shell.c ****     int value = shellGetVarValue(shell, command);
 4459              		.loc 1 1022 5 is_stmt 1 view .LVU1223
1022:System/shell/shell.c ****     int value = shellGetVarValue(shell, command);
 4460              		.loc 1 1022 10 is_stmt 0 view .LVU1224
 4461 0008 274B     		ldr	r3, .L361
 4462 000a 93E80700 		ldm	r3, {r0, r1, r2}
 4463              	.LVL429:
1022:System/shell/shell.c ****     int value = shellGetVarValue(shell, command);
 4464              		.loc 1 1022 10 view .LVU1225
 4465 000e 04AB     		add	r3, sp, #16
 4466 0010 03E90700 		stmdb	r3, {r0, r1, r2}
1023:System/shell/shell.c **** 
 4467              		.loc 1 1023 5 is_stmt 1 view .LVU1226
1023:System/shell/shell.c **** 
 4468              		.loc 1 1023 17 is_stmt 0 view .LVU1227
 4469 0014 2946     		mov	r1, r5
 4470 0016 2046     		mov	r0, r4
 4471 0018 FFF7FEFF 		bl	shellGetVarValue
 4472              	.LVL430:
 4473 001c 0646     		mov	r6, r0
 4474              	.LVL431:
1025:System/shell/shell.c ****     shellWriteString(shell, " = ");
 4475              		.loc 1 1025 5 is_stmt 1 view .LVU1228
 4476 001e 6968     		ldr	r1, [r5, #4]
 4477 0020 2046     		mov	r0, r4
 4478              	.LVL432:
1025:System/shell/shell.c ****     shellWriteString(shell, " = ");
 4479              		.loc 1 1025 5 is_stmt 0 view .LVU1229
 4480 0022 FFF7FEFF 		bl	shellWriteString
 4481              	.LVL433:
1026:System/shell/shell.c **** 
 4482              		.loc 1 1026 5 is_stmt 1 view .LVU1230
 4483 0026 2149     		ldr	r1, .L361+4
 4484 0028 2046     		mov	r0, r4
 4485 002a FFF7FEFF 		bl	shellWriteString
 4486              	.LVL434:
1028:System/shell/shell.c ****     {
 4487              		.loc 1 1028 5 view .LVU1231
1028:System/shell/shell.c ****     {
 4488              		.loc 1 1028 32 is_stmt 0 view .LVU1232
ARM GAS  C:\Users\HUAV\AppData\Local\Temp\ccSSjzP1.s 			page 129


 4489 002e 6B78     		ldrb	r3, [r5, #1]	@ zero_extendqisi2
 4490 0030 03F00F03 		and	r3, r3, #15
1028:System/shell/shell.c ****     {
 4491              		.loc 1 1028 5 view .LVU1233
 4492 0034 052B     		cmp	r3, #5
 4493 0036 10D0     		beq	.L360
1040:System/shell/shell.c ****         shellWriteString(shell, ", 0x");
 4494              		.loc 1 1040 9 is_stmt 1 view .LVU1234
1040:System/shell/shell.c ****         shellWriteString(shell, ", 0x");
 4495              		.loc 1 1040 46 is_stmt 0 view .LVU1235
 4496 0038 01A9     		add	r1, sp, #4
 4497 003a 3046     		mov	r0, r6
 4498 003c FFF7FEFF 		bl	shellToDec
 4499              	.LVL435:
1040:System/shell/shell.c ****         shellWriteString(shell, ", 0x");
 4500              		.loc 1 1040 44 view .LVU1236
 4501 0040 C0F10B01 		rsb	r1, r0, #11
1040:System/shell/shell.c ****         shellWriteString(shell, ", 0x");
 4502              		.loc 1 1040 9 view .LVU1237
 4503 0044 01AB     		add	r3, sp, #4
 4504 0046 1944     		add	r1, r1, r3
 4505 0048 2046     		mov	r0, r4
 4506 004a FFF7FEFF 		bl	shellWriteString
 4507              	.LVL436:
1041:System/shell/shell.c ****         for (short i = 0; i < 11; i++)
 4508              		.loc 1 1041 9 is_stmt 1 view .LVU1238
 4509 004e 1849     		ldr	r1, .L361+8
 4510 0050 2046     		mov	r0, r4
 4511 0052 FFF7FEFF 		bl	shellWriteString
 4512              	.LVL437:
1042:System/shell/shell.c ****         {
 4513              		.loc 1 1042 9 view .LVU1239
 4514              	.LBB34:
1042:System/shell/shell.c ****         {
 4515              		.loc 1 1042 14 view .LVU1240
1042:System/shell/shell.c ****         {
 4516              		.loc 1 1042 20 is_stmt 0 view .LVU1241
 4517 0056 0023     		movs	r3, #0
1042:System/shell/shell.c ****         {
 4518              		.loc 1 1042 9 view .LVU1242
 4519 0058 15E0     		b	.L357
 4520              	.LVL438:
 4521              	.L360:
1042:System/shell/shell.c ****         {
 4522              		.loc 1 1042 9 view .LVU1243
 4523              	.LBE34:
1031:System/shell/shell.c ****         shellWriteString(shell, (char *)value);
 4524              		.loc 1 1031 9 is_stmt 1 view .LVU1244
 4525 005a 164D     		ldr	r5, .L361+12
 4526              	.LVL439:
1031:System/shell/shell.c ****         shellWriteString(shell, (char *)value);
 4527              		.loc 1 1031 9 is_stmt 0 view .LVU1245
 4528 005c 2946     		mov	r1, r5
 4529 005e 2046     		mov	r0, r4
 4530 0060 FFF7FEFF 		bl	shellWriteString
 4531              	.LVL440:
1032:System/shell/shell.c ****         shellWriteString(shell, "\"");
ARM GAS  C:\Users\HUAV\AppData\Local\Temp\ccSSjzP1.s 			page 130


 4532              		.loc 1 1032 9 is_stmt 1 view .LVU1246
 4533 0064 3146     		mov	r1, r6
 4534 0066 2046     		mov	r0, r4
 4535 0068 FFF7FEFF 		bl	shellWriteString
 4536              	.LVL441:
1033:System/shell/shell.c ****         break;
 4537              		.loc 1 1033 9 view .LVU1247
 4538 006c 2946     		mov	r1, r5
 4539 006e 2046     		mov	r0, r4
 4540 0070 FFF7FEFF 		bl	shellWriteString
 4541              	.LVL442:
1034:System/shell/shell.c ****     // case SHELL_TYPE_VAR_INT:
 4542              		.loc 1 1034 9 view .LVU1248
 4543 0074 11E0     		b	.L356
 4544              	.LVL443:
 4545              	.L358:
 4546              	.LBB35:
1044:System/shell/shell.c ****         }
 4547              		.loc 1 1044 13 discriminator 3 view .LVU1249
1044:System/shell/shell.c ****         }
 4548              		.loc 1 1044 23 is_stmt 0 discriminator 3 view .LVU1250
 4549 0076 04AA     		add	r2, sp, #16
 4550 0078 1A44     		add	r2, r2, r3
 4551 007a 4FF0300C 		mov	ip, #48
 4552 007e 02F80CCC 		strb	ip, [r2, #-12]
1042:System/shell/shell.c ****         {
 4553              		.loc 1 1042 35 is_stmt 1 discriminator 3 view .LVU1251
1042:System/shell/shell.c ****         {
 4554              		.loc 1 1042 36 is_stmt 0 discriminator 3 view .LVU1252
 4555 0082 0133     		adds	r3, r3, #1
 4556              	.LVL444:
1042:System/shell/shell.c ****         {
 4557              		.loc 1 1042 36 discriminator 3 view .LVU1253
 4558 0084 1BB2     		sxth	r3, r3
 4559              	.LVL445:
 4560              	.L357:
1042:System/shell/shell.c ****         {
 4561              		.loc 1 1042 27 is_stmt 1 discriminator 1 view .LVU1254
1042:System/shell/shell.c ****         {
 4562              		.loc 1 1042 9 is_stmt 0 discriminator 1 view .LVU1255
 4563 0086 0A2B     		cmp	r3, #10
 4564 0088 F5DD     		ble	.L358
 4565              	.LBE35:
1046:System/shell/shell.c ****         shellWriteString(shell, buffer);
 4566              		.loc 1 1046 9 is_stmt 1 view .LVU1256
 4567 008a 01A9     		add	r1, sp, #4
 4568 008c 3046     		mov	r0, r6
 4569 008e FFF7FEFF 		bl	shellToHex
 4570              	.LVL446:
1047:System/shell/shell.c ****         break;
 4571              		.loc 1 1047 9 view .LVU1257
 4572 0092 01A9     		add	r1, sp, #4
 4573 0094 2046     		mov	r0, r4
 4574 0096 FFF7FEFF 		bl	shellWriteString
 4575              	.LVL447:
1048:System/shell/shell.c ****     }
 4576              		.loc 1 1048 9 view .LVU1258
ARM GAS  C:\Users\HUAV\AppData\Local\Temp\ccSSjzP1.s 			page 131


 4577              	.L356:
1051:System/shell/shell.c ****     return value;
 4578              		.loc 1 1051 5 view .LVU1259
 4579 009a 0749     		ldr	r1, .L361+16
 4580 009c 2046     		mov	r0, r4
 4581 009e FFF7FEFF 		bl	shellWriteString
 4582              	.LVL448:
1052:System/shell/shell.c **** }
 4583              		.loc 1 1052 5 view .LVU1260
1053:System/shell/shell.c **** 
 4584              		.loc 1 1053 1 is_stmt 0 view .LVU1261
 4585 00a2 3046     		mov	r0, r6
 4586 00a4 04B0     		add	sp, sp, #16
 4587              	.LCFI60:
 4588              		.cfi_def_cfa_offset 16
 4589              		@ sp needed
 4590 00a6 70BD     		pop	{r4, r5, r6, pc}
 4591              	.LVL449:
 4592              	.L362:
1053:System/shell/shell.c **** 
 4593              		.loc 1 1053 1 view .LVU1262
 4594              		.align	2
 4595              	.L361:
 4596 00a8 14000000 		.word	.LC8
 4597 00ac 00000000 		.word	.LC25
 4598 00b0 0C000000 		.word	.LC10
 4599 00b4 04000000 		.word	.LC26
 4600 00b8 04000000 		.word	.LC3
 4601              		.cfi_endproc
 4602              	.LFE34:
 4604              		.section	.rodata.shellSetVarValue.str1.4,"aMS",%progbits,1
 4605              		.align	2
 4606              	.LC27:
 4607 0000 63616E27 		.ascii	"can't set read only var\015\012\000"
 4607      74207365 
 4607      74207265 
 4607      6164206F 
 4607      6E6C7920 
 4608 001a 0000     		.align	2
 4609              	.LC28:
 4610 001c 63616E27 		.ascii	"can't set pointer\015\012\000"
 4610      74207365 
 4610      7420706F 
 4610      696E7465 
 4610      720D0A00 
 4611              		.section	.text.shellSetVarValue,"ax",%progbits
 4612              		.align	1
 4613              		.global	shellSetVarValue
 4614              		.syntax unified
 4615              		.thumb
 4616              		.thumb_func
 4617              		.fpu fpv5-d16
 4619              	shellSetVarValue:
 4620              	.LVL450:
 4621              	.LFB33:
 968:System/shell/shell.c ****     if (command->attr.attrs.readOnly)
 4622              		.loc 1 968 1 is_stmt 1 view -0
ARM GAS  C:\Users\HUAV\AppData\Local\Temp\ccSSjzP1.s 			page 132


 4623              		.cfi_startproc
 4624              		@ args = 0, pretend = 0, frame = 0
 4625              		@ frame_needed = 0, uses_anonymous_args = 0
 968:System/shell/shell.c ****     if (command->attr.attrs.readOnly)
 4626              		.loc 1 968 1 is_stmt 0 view .LVU1264
 4627 0000 70B5     		push	{r4, r5, r6, lr}
 4628              	.LCFI61:
 4629              		.cfi_def_cfa_offset 16
 4630              		.cfi_offset 4, -16
 4631              		.cfi_offset 5, -12
 4632              		.cfi_offset 6, -8
 4633              		.cfi_offset 14, -4
 4634 0002 0546     		mov	r5, r0
 4635 0004 0C46     		mov	r4, r1
 969:System/shell/shell.c ****     {
 4636              		.loc 1 969 5 is_stmt 1 view .LVU1265
 969:System/shell/shell.c ****     {
 4637              		.loc 1 969 9 is_stmt 0 view .LVU1266
 4638 0006 4B78     		ldrb	r3, [r1, #1]	@ zero_extendqisi2
 969:System/shell/shell.c ****     {
 4639              		.loc 1 969 8 view .LVU1267
 4640 0008 13F0400F 		tst	r3, #64
 4641 000c 0AD1     		bne	.L375
 975:System/shell/shell.c ****         {
 4642              		.loc 1 975 9 is_stmt 1 view .LVU1268
 975:System/shell/shell.c ****         {
 4643              		.loc 1 975 36 is_stmt 0 view .LVU1269
 4644 000e 4B78     		ldrb	r3, [r1, #1]	@ zero_extendqisi2
 4645 0010 03F00F03 		and	r3, r3, #15
 4646 0014 023B     		subs	r3, r3, #2
 4647 0016 052B     		cmp	r3, #5
 4648 0018 07D8     		bhi	.L365
 4649 001a DFE803F0 		tbb	[pc, r3]
 4650              	.LVL451:
 4651              	.L367:
 4652 001e 0B       		.byte	(.L372-.L367)/2
 4653 001f 0E       		.byte	(.L371-.L367)/2
 4654 0020 11       		.byte	(.L370-.L367)/2
 4655 0021 14       		.byte	(.L369-.L367)/2
 4656 0022 19       		.byte	(.L368-.L367)/2
 4657 0023 1D       		.byte	(.L366-.L367)/2
 4658              		.p2align 1
 4659              	.L375:
 971:System/shell/shell.c ****     }
 4660              		.loc 1 971 9 is_stmt 1 view .LVU1270
 4661 0024 1249     		ldr	r1, .L376
 4662              	.LVL452:
 971:System/shell/shell.c ****     }
 4663              		.loc 1 971 9 is_stmt 0 view .LVU1271
 4664 0026 FFF7FEFF 		bl	shellWriteString
 4665              	.LVL453:
 4666              	.L365:
1010:System/shell/shell.c **** }
 4667              		.loc 1 1010 5 is_stmt 1 view .LVU1272
1010:System/shell/shell.c **** }
 4668              		.loc 1 1010 12 is_stmt 0 view .LVU1273
 4669 002a 2146     		mov	r1, r4
ARM GAS  C:\Users\HUAV\AppData\Local\Temp\ccSSjzP1.s 			page 133


 4670 002c 2846     		mov	r0, r5
 4671 002e FFF7FEFF 		bl	shellShowVar
 4672              	.LVL454:
1011:System/shell/shell.c **** 
 4673              		.loc 1 1011 1 view .LVU1274
 4674 0032 70BD     		pop	{r4, r5, r6, pc}
 4675              	.LVL455:
 4676              	.L372:
 978:System/shell/shell.c ****             break;
 4677              		.loc 1 978 13 is_stmt 1 view .LVU1275
 978:System/shell/shell.c ****             break;
 4678              		.loc 1 978 40 is_stmt 0 view .LVU1276
 4679 0034 A368     		ldr	r3, [r4, #8]
 978:System/shell/shell.c ****             break;
 4680              		.loc 1 978 49 view .LVU1277
 4681 0036 1A60     		str	r2, [r3]
 979:System/shell/shell.c ****         case SHELL_TYPE_VAR_SHORT:
 4682              		.loc 1 979 13 is_stmt 1 view .LVU1278
 4683 0038 F7E7     		b	.L365
 4684              	.L371:
 981:System/shell/shell.c ****             break;
 4685              		.loc 1 981 13 view .LVU1279
 981:System/shell/shell.c ****             break;
 4686              		.loc 1 981 42 is_stmt 0 view .LVU1280
 4687 003a A368     		ldr	r3, [r4, #8]
 981:System/shell/shell.c ****             break;
 4688              		.loc 1 981 51 view .LVU1281
 4689 003c 1A80     		strh	r2, [r3]	@ movhi
 982:System/shell/shell.c ****         case SHELL_TYPE_VAR_CHAR:
 4690              		.loc 1 982 13 is_stmt 1 view .LVU1282
 4691 003e F4E7     		b	.L365
 4692              	.L370:
 984:System/shell/shell.c ****             break;
 4693              		.loc 1 984 13 view .LVU1283
 984:System/shell/shell.c ****             break;
 4694              		.loc 1 984 41 is_stmt 0 view .LVU1284
 4695 0040 A368     		ldr	r3, [r4, #8]
 984:System/shell/shell.c ****             break;
 4696              		.loc 1 984 50 view .LVU1285
 4697 0042 1A70     		strb	r2, [r3]
 985:System/shell/shell.c ****         case SHELL_TYPE_VAR_STRING:
 4698              		.loc 1 985 13 is_stmt 1 view .LVU1286
 4699 0044 F1E7     		b	.L365
 4700              	.L369:
 987:System/shell/shell.c ****             break;
 4701              		.loc 1 987 13 view .LVU1287
 4702 0046 1146     		mov	r1, r2
 4703 0048 A068     		ldr	r0, [r4, #8]
 4704              	.LVL456:
 987:System/shell/shell.c ****             break;
 4705              		.loc 1 987 13 is_stmt 0 view .LVU1288
 4706 004a FFF7FEFF 		bl	shellStringCopy
 4707              	.LVL457:
 988:System/shell/shell.c ****         case SHELL_TYPE_VAR_POINT:
 4708              		.loc 1 988 13 is_stmt 1 view .LVU1289
 4709 004e ECE7     		b	.L365
 4710              	.LVL458:
ARM GAS  C:\Users\HUAV\AppData\Local\Temp\ccSSjzP1.s 			page 134


 4711              	.L368:
 990:System/shell/shell.c ****             break;
 4712              		.loc 1 990 13 view .LVU1290
 4713 0050 0849     		ldr	r1, .L376+4
 4714 0052 FFF7FEFF 		bl	shellWriteString
 4715              	.LVL459:
 991:System/shell/shell.c ****         case SHELL_TYPE_VAR_NODE:
 4716              		.loc 1 991 13 view .LVU1291
 4717 0056 E8E7     		b	.L365
 4718              	.LVL460:
 4719              	.L366:
 993:System/shell/shell.c ****             {
 4720              		.loc 1 993 13 view .LVU1292
 993:System/shell/shell.c ****             {
 4721              		.loc 1 993 55 is_stmt 0 view .LVU1293
 4722 0058 A368     		ldr	r3, [r4, #8]
 993:System/shell/shell.c ****             {
 4723              		.loc 1 993 62 view .LVU1294
 4724 005a 9E68     		ldr	r6, [r3, #8]
 993:System/shell/shell.c ****             {
 4725              		.loc 1 993 16 view .LVU1295
 4726 005c 002E     		cmp	r6, #0
 4727 005e E4D0     		beq	.L365
 995:System/shell/shell.c ****                 {
 4728              		.loc 1 995 17 is_stmt 1 view .LVU1296
 995:System/shell/shell.c ****                 {
 4729              		.loc 1 995 66 is_stmt 0 view .LVU1297
 4730 0060 1868     		ldr	r0, [r3]
 4731              	.LVL461:
 995:System/shell/shell.c ****                 {
 4732              		.loc 1 995 20 view .LVU1298
 4733 0062 10B1     		cbz	r0, .L373
 997:System/shell/shell.c ****                         ->set(((ShellNodeVarAttr *)command->data.var.value)->var, value);
 4734              		.loc 1 997 21 is_stmt 1 view .LVU1299
 997:System/shell/shell.c ****                         ->set(((ShellNodeVarAttr *)command->data.var.value)->var, value);
 4735              		.loc 1 997 22 is_stmt 0 view .LVU1300
 4736 0064 1146     		mov	r1, r2
 4737 0066 B047     		blx	r6
 4738              	.LVL462:
 997:System/shell/shell.c ****                         ->set(((ShellNodeVarAttr *)command->data.var.value)->var, value);
 4739              		.loc 1 997 22 view .LVU1301
 4740 0068 DFE7     		b	.L365
 4741              	.LVL463:
 4742              	.L373:
1002:System/shell/shell.c ****                 }
 4743              		.loc 1 1002 21 is_stmt 1 view .LVU1302
1002:System/shell/shell.c ****                 }
 4744              		.loc 1 1002 22 is_stmt 0 view .LVU1303
 4745 006a 1046     		mov	r0, r2
 4746 006c B047     		blx	r6
 4747              	.LVL464:
1002:System/shell/shell.c ****                 }
 4748              		.loc 1 1002 22 view .LVU1304
 4749 006e DCE7     		b	.L365
 4750              	.L377:
 4751              		.align	2
 4752              	.L376:
ARM GAS  C:\Users\HUAV\AppData\Local\Temp\ccSSjzP1.s 			page 135


 4753 0070 00000000 		.word	.LC27
 4754 0074 1C000000 		.word	.LC28
 4755              		.cfi_endproc
 4756              	.LFE33:
 4758              		.section	.rodata.shellSetVar.str1.4,"aMS",%progbits,1
 4759              		.align	2
 4760              	.LC29:
 4761 0000 56617220 		.ascii	"Var not Fount\015\012\000"
 4761      6E6F7420 
 4761      466F756E 
 4761      740D0A00 
 4762              		.align	2
 4763              	.LC30:
 4764 0010 20697320 		.ascii	" is not a var\015\012\000"
 4764      6E6F7420 
 4764      61207661 
 4764      720D0A00 
 4765              		.section	.text.shellSetVar,"ax",%progbits
 4766              		.align	1
 4767              		.global	shellSetVar
 4768              		.syntax unified
 4769              		.thumb
 4770              		.thumb_func
 4771              		.fpu fpv5-d16
 4773              	shellSetVar:
 4774              	.LVL465:
 4775              	.LFB35:
1063:System/shell/shell.c ****     Shell *shell = shellGetCurrent();
 4776              		.loc 1 1063 1 is_stmt 1 view -0
 4777              		.cfi_startproc
 4778              		@ args = 0, pretend = 0, frame = 0
 4779              		@ frame_needed = 0, uses_anonymous_args = 0
1063:System/shell/shell.c ****     Shell *shell = shellGetCurrent();
 4780              		.loc 1 1063 1 is_stmt 0 view .LVU1306
 4781 0000 70B5     		push	{r4, r5, r6, lr}
 4782              	.LCFI62:
 4783              		.cfi_def_cfa_offset 16
 4784              		.cfi_offset 4, -16
 4785              		.cfi_offset 5, -12
 4786              		.cfi_offset 6, -8
 4787              		.cfi_offset 14, -4
 4788 0002 0446     		mov	r4, r0
 4789 0004 0D46     		mov	r5, r1
1064:System/shell/shell.c ****     if (shell == NULL)
 4790              		.loc 1 1064 5 is_stmt 1 view .LVU1307
1064:System/shell/shell.c ****     if (shell == NULL)
 4791              		.loc 1 1064 20 is_stmt 0 view .LVU1308
 4792 0006 FFF7FEFF 		bl	shellGetCurrent
 4793              	.LVL466:
1065:System/shell/shell.c ****     {
 4794              		.loc 1 1065 5 is_stmt 1 view .LVU1309
1065:System/shell/shell.c ****     {
 4795              		.loc 1 1065 8 is_stmt 0 view .LVU1310
 4796 000a 20B3     		cbz	r0, .L382
 4797 000c 0646     		mov	r6, r0
1069:System/shell/shell.c ****                                              name,
 4798              		.loc 1 1069 5 is_stmt 1 view .LVU1311
ARM GAS  C:\Users\HUAV\AppData\Local\Temp\ccSSjzP1.s 			page 136


1069:System/shell/shell.c ****                                              name,
 4799              		.loc 1 1069 29 is_stmt 0 view .LVU1312
 4800 000e 0023     		movs	r3, #0
 4801 0010 826D     		ldr	r2, [r0, #88]
 4802 0012 2146     		mov	r1, r4
 4803 0014 FFF7FEFF 		bl	shellSeekCommand
 4804              	.LVL467:
1073:System/shell/shell.c ****     {
 4805              		.loc 1 1073 5 is_stmt 1 view .LVU1313
1073:System/shell/shell.c ****     {
 4806              		.loc 1 1073 8 is_stmt 0 view .LVU1314
 4807 0018 0146     		mov	r1, r0
 4808 001a 60B1     		cbz	r0, .L384
1078:System/shell/shell.c ****     {
 4809              		.loc 1 1078 5 is_stmt 1 view .LVU1315
1078:System/shell/shell.c ****     {
 4810              		.loc 1 1078 28 is_stmt 0 view .LVU1316
 4811 001c 4378     		ldrb	r3, [r0, #1]	@ zero_extendqisi2
 4812 001e 03F00F03 		and	r3, r3, #15
1078:System/shell/shell.c ****     {
 4813              		.loc 1 1078 55 view .LVU1317
 4814 0022 0E33     		adds	r3, r3, #14
 4815 0024 03F00F03 		and	r3, r3, #15
1078:System/shell/shell.c ****     {
 4816              		.loc 1 1078 8 view .LVU1318
 4817 0028 052B     		cmp	r3, #5
 4818 002a 0AD8     		bhi	.L385
1084:System/shell/shell.c **** }
 4819              		.loc 1 1084 5 is_stmt 1 view .LVU1319
1084:System/shell/shell.c **** }
 4820              		.loc 1 1084 12 is_stmt 0 view .LVU1320
 4821 002c 2A46     		mov	r2, r5
 4822 002e 3046     		mov	r0, r6
 4823              	.LVL468:
1084:System/shell/shell.c **** }
 4824              		.loc 1 1084 12 view .LVU1321
 4825 0030 FFF7FEFF 		bl	shellSetVarValue
 4826              	.LVL469:
 4827              	.L378:
1085:System/shell/shell.c **** SHELL_EXPORT_CMD(
 4828              		.loc 1 1085 1 view .LVU1322
 4829 0034 70BD     		pop	{r4, r5, r6, pc}
 4830              	.LVL470:
 4831              	.L384:
1075:System/shell/shell.c ****         return 0;
 4832              		.loc 1 1075 9 is_stmt 1 view .LVU1323
 4833 0036 0949     		ldr	r1, .L386
 4834 0038 3046     		mov	r0, r6
 4835              	.LVL471:
1075:System/shell/shell.c ****         return 0;
 4836              		.loc 1 1075 9 is_stmt 0 view .LVU1324
 4837 003a FFF7FEFF 		bl	shellWriteString
 4838              	.LVL472:
1076:System/shell/shell.c ****     }
 4839              		.loc 1 1076 9 is_stmt 1 view .LVU1325
1076:System/shell/shell.c ****     }
 4840              		.loc 1 1076 16 is_stmt 0 view .LVU1326
ARM GAS  C:\Users\HUAV\AppData\Local\Temp\ccSSjzP1.s 			page 137


 4841 003e 0020     		movs	r0, #0
 4842 0040 F8E7     		b	.L378
 4843              	.LVL473:
 4844              	.L385:
1080:System/shell/shell.c ****         shellWriteString(shell, shellText[SHELL_TEXT_NOT_VAR]);
 4845              		.loc 1 1080 9 is_stmt 1 view .LVU1327
 4846 0042 2146     		mov	r1, r4
 4847 0044 3046     		mov	r0, r6
 4848              	.LVL474:
1080:System/shell/shell.c ****         shellWriteString(shell, shellText[SHELL_TEXT_NOT_VAR]);
 4849              		.loc 1 1080 9 is_stmt 0 view .LVU1328
 4850 0046 FFF7FEFF 		bl	shellWriteString
 4851              	.LVL475:
1081:System/shell/shell.c ****         return 0;
 4852              		.loc 1 1081 9 is_stmt 1 view .LVU1329
 4853 004a 0549     		ldr	r1, .L386+4
 4854 004c 3046     		mov	r0, r6
 4855 004e FFF7FEFF 		bl	shellWriteString
 4856              	.LVL476:
1082:System/shell/shell.c ****     }
 4857              		.loc 1 1082 9 view .LVU1330
1082:System/shell/shell.c ****     }
 4858              		.loc 1 1082 16 is_stmt 0 view .LVU1331
 4859 0052 0020     		movs	r0, #0
 4860 0054 EEE7     		b	.L378
 4861              	.LVL477:
 4862              	.L382:
1067:System/shell/shell.c ****     }
 4863              		.loc 1 1067 16 view .LVU1332
 4864 0056 0020     		movs	r0, #0
 4865              	.LVL478:
1067:System/shell/shell.c ****     }
 4866              		.loc 1 1067 16 view .LVU1333
 4867 0058 ECE7     		b	.L378
 4868              	.L387:
 4869 005a 00BF     		.align	2
 4870              	.L386:
 4871 005c 00000000 		.word	.LC29
 4872 0060 10000000 		.word	.LC30
 4873              		.cfi_endproc
 4874              	.LFE35:
 4876              		.section	.text.shellRunCommand,"ax",%progbits
 4877              		.align	1
 4878              		.global	shellRunCommand
 4879              		.syntax unified
 4880              		.thumb
 4881              		.thumb_func
 4882              		.fpu fpv5-d16
 4884              	shellRunCommand:
 4885              	.LVL479:
 4886              	.LFB36:
1099:System/shell/shell.c ****     int returnValue = 0;
 4887              		.loc 1 1099 1 is_stmt 1 view -0
 4888              		.cfi_startproc
 4889              		@ args = 0, pretend = 0, frame = 0
 4890              		@ frame_needed = 0, uses_anonymous_args = 0
1099:System/shell/shell.c ****     int returnValue = 0;
ARM GAS  C:\Users\HUAV\AppData\Local\Temp\ccSSjzP1.s 			page 138


 4891              		.loc 1 1099 1 is_stmt 0 view .LVU1335
 4892 0000 70B5     		push	{r4, r5, r6, lr}
 4893              	.LCFI63:
 4894              		.cfi_def_cfa_offset 16
 4895              		.cfi_offset 4, -16
 4896              		.cfi_offset 5, -12
 4897              		.cfi_offset 6, -8
 4898              		.cfi_offset 14, -4
 4899 0002 0446     		mov	r4, r0
 4900 0004 0D46     		mov	r5, r1
1100:System/shell/shell.c ****     shell->status.isActive = 1;
 4901              		.loc 1 1100 5 is_stmt 1 view .LVU1336
 4902              	.LVL480:
1101:System/shell/shell.c ****     if (command->attr.attrs.type == SHELL_TYPE_CMD_MAIN)
 4903              		.loc 1 1101 5 view .LVU1337
1101:System/shell/shell.c ****     if (command->attr.attrs.type == SHELL_TYPE_CMD_MAIN)
 4904              		.loc 1 1101 28 is_stmt 0 view .LVU1338
 4905 0006 90F86030 		ldrb	r3, [r0, #96]	@ zero_extendqisi2
 4906 000a 43F00203 		orr	r3, r3, #2
 4907 000e 80F86030 		strb	r3, [r0, #96]
1102:System/shell/shell.c ****     {
 4908              		.loc 1 1102 5 is_stmt 1 view .LVU1339
1102:System/shell/shell.c ****     {
 4909              		.loc 1 1102 34 is_stmt 0 view .LVU1340
 4910 0012 4B78     		ldrb	r3, [r1, #1]	@ zero_extendqisi2
1102:System/shell/shell.c ****     {
 4911              		.loc 1 1102 8 view .LVU1341
 4912 0014 13F00F03 		ands	r3, r3, #15
 4913 0018 14D0     		beq	.L395
1112:System/shell/shell.c ****     {
 4914              		.loc 1 1112 10 is_stmt 1 view .LVU1342
1112:System/shell/shell.c ****     {
 4915              		.loc 1 1112 13 is_stmt 0 view .LVU1343
 4916 001a 012B     		cmp	r3, #1
 4917 001c 23D0     		beq	.L396
1123:System/shell/shell.c ****     {
 4918              		.loc 1 1123 10 is_stmt 1 view .LVU1344
1123:System/shell/shell.c ****     {
 4919              		.loc 1 1123 33 is_stmt 0 view .LVU1345
 4920 001e 4A78     		ldrb	r2, [r1, #1]	@ zero_extendqisi2
 4921 0020 02F00F02 		and	r2, r2, #15
1123:System/shell/shell.c ****     {
 4922              		.loc 1 1123 61 view .LVU1346
 4923 0024 0E32     		adds	r2, r2, #14
 4924 0026 02F00F02 		and	r2, r2, #15
1123:System/shell/shell.c ****     {
 4925              		.loc 1 1123 13 view .LVU1347
 4926 002a 052A     		cmp	r2, #5
 4927 002c 2AD9     		bls	.L397
1127:System/shell/shell.c ****     {
 4928              		.loc 1 1127 10 is_stmt 1 view .LVU1348
1127:System/shell/shell.c ****     {
 4929              		.loc 1 1127 13 is_stmt 0 view .LVU1349
 4930 002e 082B     		cmp	r3, #8
 4931 0030 2CD0     		beq	.L398
1100:System/shell/shell.c ****     shell->status.isActive = 1;
 4932              		.loc 1 1100 9 view .LVU1350
ARM GAS  C:\Users\HUAV\AppData\Local\Temp\ccSSjzP1.s 			page 139


 4933 0032 0026     		movs	r6, #0
 4934              	.LVL481:
 4935              	.L390:
1131:System/shell/shell.c **** 
 4936              		.loc 1 1131 5 is_stmt 1 view .LVU1351
1131:System/shell/shell.c **** 
 4937              		.loc 1 1131 28 is_stmt 0 view .LVU1352
 4938 0034 94F86030 		ldrb	r3, [r4, #96]	@ zero_extendqisi2
 4939 0038 6FF34103 		bfc	r3, #1, #1
 4940 003c 84F86030 		strb	r3, [r4, #96]
1133:System/shell/shell.c **** }
 4941              		.loc 1 1133 5 is_stmt 1 view .LVU1353
1134:System/shell/shell.c **** 
 4942              		.loc 1 1134 1 is_stmt 0 view .LVU1354
 4943 0040 3046     		mov	r0, r6
 4944 0042 70BD     		pop	{r4, r5, r6, pc}
 4945              	.LVL482:
 4946              	.L395:
1104:System/shell/shell.c ****         returnValue = command->data.cmd.function(shell->parser.paramCount,
 4947              		.loc 1 1104 9 is_stmt 1 view .LVU1355
 4948 0044 FFF7FEFF 		bl	shellRemoveParamQuotes
 4949              	.LVL483:
1105:System/shell/shell.c ****                                                  shell->parser.param);
 4950              		.loc 1 1105 9 view .LVU1356
1105:System/shell/shell.c ****                                                  shell->parser.param);
 4951              		.loc 1 1105 40 is_stmt 0 view .LVU1357
 4952 0048 AB68     		ldr	r3, [r5, #8]
1105:System/shell/shell.c ****                                                  shell->parser.param);
 4953              		.loc 1 1105 23 view .LVU1358
 4954 004a 04F11401 		add	r1, r4, #20
 4955 004e E08E     		ldrh	r0, [r4, #54]
 4956 0050 9847     		blx	r3
 4957              	.LVL484:
 4958 0052 0646     		mov	r6, r0
 4959              	.LVL485:
1107:System/shell/shell.c ****         {
 4960              		.loc 1 1107 9 is_stmt 1 view .LVU1359
1107:System/shell/shell.c ****         {
 4961              		.loc 1 1107 13 is_stmt 0 view .LVU1360
 4962 0054 6B78     		ldrb	r3, [r5, #1]	@ zero_extendqisi2
1107:System/shell/shell.c ****         {
 4963              		.loc 1 1107 12 view .LVU1361
 4964 0056 13F0200F 		tst	r3, #32
 4965 005a EBD1     		bne	.L390
1109:System/shell/shell.c ****         }
 4966              		.loc 1 1109 13 is_stmt 1 view .LVU1362
 4967 005c 0146     		mov	r1, r0
 4968 005e 2046     		mov	r0, r4
 4969              	.LVL486:
1109:System/shell/shell.c ****         }
 4970              		.loc 1 1109 13 is_stmt 0 view .LVU1363
 4971 0060 FFF7FEFF 		bl	shellWriteReturnValue
 4972              	.LVL487:
1109:System/shell/shell.c ****         }
 4973              		.loc 1 1109 13 view .LVU1364
 4974 0064 E6E7     		b	.L390
 4975              	.LVL488:
ARM GAS  C:\Users\HUAV\AppData\Local\Temp\ccSSjzP1.s 			page 140


 4976              	.L396:
1114:System/shell/shell.c ****                                   command,
 4977              		.loc 1 1114 9 is_stmt 1 view .LVU1365
1114:System/shell/shell.c ****                                   command,
 4978              		.loc 1 1114 23 is_stmt 0 view .LVU1366
 4979 0066 00F11403 		add	r3, r0, #20
 4980 006a C28E     		ldrh	r2, [r0, #54]
 4981 006c FFF7FEFF 		bl	shellExtRun
 4982              	.LVL489:
1114:System/shell/shell.c ****                                   command,
 4983              		.loc 1 1114 23 view .LVU1367
 4984 0070 0646     		mov	r6, r0
 4985              	.LVL490:
1118:System/shell/shell.c ****         {
 4986              		.loc 1 1118 9 is_stmt 1 view .LVU1368
1118:System/shell/shell.c ****         {
 4987              		.loc 1 1118 13 is_stmt 0 view .LVU1369
 4988 0072 6B78     		ldrb	r3, [r5, #1]	@ zero_extendqisi2
1118:System/shell/shell.c ****         {
 4989              		.loc 1 1118 12 view .LVU1370
 4990 0074 13F0200F 		tst	r3, #32
 4991 0078 DCD1     		bne	.L390
1120:System/shell/shell.c ****         }
 4992              		.loc 1 1120 13 is_stmt 1 view .LVU1371
 4993 007a 0146     		mov	r1, r0
 4994 007c 2046     		mov	r0, r4
 4995              	.LVL491:
1120:System/shell/shell.c ****         }
 4996              		.loc 1 1120 13 is_stmt 0 view .LVU1372
 4997 007e FFF7FEFF 		bl	shellWriteReturnValue
 4998              	.LVL492:
1120:System/shell/shell.c ****         }
 4999              		.loc 1 1120 13 view .LVU1373
 5000 0082 D7E7     		b	.L390
 5001              	.LVL493:
 5002              	.L397:
1125:System/shell/shell.c ****     }
 5003              		.loc 1 1125 9 is_stmt 1 view .LVU1374
 5004 0084 FFF7FEFF 		bl	shellShowVar
 5005              	.LVL494:
1100:System/shell/shell.c ****     shell->status.isActive = 1;
 5006              		.loc 1 1100 9 is_stmt 0 view .LVU1375
 5007 0088 0026     		movs	r6, #0
 5008 008a D3E7     		b	.L390
 5009              	.LVL495:
 5010              	.L398:
1129:System/shell/shell.c ****     }
 5011              		.loc 1 1129 9 is_stmt 1 view .LVU1376
 5012 008c FFF7FEFF 		bl	shellSetUser
 5013              	.LVL496:
1100:System/shell/shell.c ****     shell->status.isActive = 1;
 5014              		.loc 1 1100 9 is_stmt 0 view .LVU1377
 5015 0090 0026     		movs	r6, #0
 5016 0092 CFE7     		b	.L390
 5017              		.cfi_endproc
 5018              	.LFE36:
 5020              		.section	.text.shellNormalInput,"ax",%progbits
ARM GAS  C:\Users\HUAV\AppData\Local\Temp\ccSSjzP1.s 			page 141


 5021              		.align	1
 5022              		.global	shellNormalInput
 5023              		.syntax unified
 5024              		.thumb
 5025              		.thumb_func
 5026              		.fpu fpv5-d16
 5028              	shellNormalInput:
 5029              	.LVL497:
 5030              	.LFB42:
1286:System/shell/shell.c ****     shell->status.tabFlag = 0;
 5031              		.loc 1 1286 1 is_stmt 1 view -0
 5032              		.cfi_startproc
 5033              		@ args = 0, pretend = 0, frame = 0
 5034              		@ frame_needed = 0, uses_anonymous_args = 0
1286:System/shell/shell.c ****     shell->status.tabFlag = 0;
 5035              		.loc 1 1286 1 is_stmt 0 view .LVU1379
 5036 0000 08B5     		push	{r3, lr}
 5037              	.LCFI64:
 5038              		.cfi_def_cfa_offset 8
 5039              		.cfi_offset 3, -8
 5040              		.cfi_offset 14, -4
1287:System/shell/shell.c ****     shellInsertByte(shell, data);
 5041              		.loc 1 1287 5 is_stmt 1 view .LVU1380
1287:System/shell/shell.c ****     shellInsertByte(shell, data);
 5042              		.loc 1 1287 27 is_stmt 0 view .LVU1381
 5043 0002 90F86020 		ldrb	r2, [r0, #96]	@ zero_extendqisi2
 5044 0006 6FF38202 		bfc	r2, #2, #1
 5045 000a 80F86020 		strb	r2, [r0, #96]
1288:System/shell/shell.c **** }
 5046              		.loc 1 1288 5 is_stmt 1 view .LVU1382
 5047 000e FFF7FEFF 		bl	shellInsertByte
 5048              	.LVL498:
1289:System/shell/shell.c **** 
 5049              		.loc 1 1289 1 is_stmt 0 view .LVU1383
 5050 0012 08BD     		pop	{r3, pc}
 5051              		.cfi_endproc
 5052              	.LFE42:
 5054              		.section	.text.shellExec,"ax",%progbits
 5055              		.align	1
 5056              		.global	shellExec
 5057              		.syntax unified
 5058              		.thumb
 5059              		.thumb_func
 5060              		.fpu fpv5-d16
 5062              	shellExec:
 5063              	.LVL499:
 5064              	.LFB43:
1297:System/shell/shell.c **** 
 5065              		.loc 1 1297 1 is_stmt 1 view -0
 5066              		.cfi_startproc
 5067              		@ args = 0, pretend = 0, frame = 0
 5068              		@ frame_needed = 0, uses_anonymous_args = 0
1299:System/shell/shell.c ****     {
 5069              		.loc 1 1299 5 view .LVU1385
1299:System/shell/shell.c ****     {
 5070              		.loc 1 1299 22 is_stmt 0 view .LVU1386
 5071 0000 8389     		ldrh	r3, [r0, #12]
ARM GAS  C:\Users\HUAV\AppData\Local\Temp\ccSSjzP1.s 			page 142


1299:System/shell/shell.c ****     {
 5072              		.loc 1 1299 8 view .LVU1387
 5073 0002 5BB3     		cbz	r3, .L406
1297:System/shell/shell.c **** 
 5074              		.loc 1 1297 1 view .LVU1388
 5075 0004 10B5     		push	{r4, lr}
 5076              	.LCFI65:
 5077              		.cfi_def_cfa_offset 8
 5078              		.cfi_offset 4, -8
 5079              		.cfi_offset 14, -4
 5080 0006 0446     		mov	r4, r0
1304:System/shell/shell.c **** 
 5081              		.loc 1 1304 5 is_stmt 1 view .LVU1389
1304:System/shell/shell.c **** 
 5082              		.loc 1 1304 18 is_stmt 0 view .LVU1390
 5083 0008 0269     		ldr	r2, [r0, #16]
1304:System/shell/shell.c **** 
 5084              		.loc 1 1304 48 view .LVU1391
 5085 000a 0021     		movs	r1, #0
 5086 000c D154     		strb	r1, [r2, r3]
1306:System/shell/shell.c ****     {
 5087              		.loc 1 1306 5 is_stmt 1 view .LVU1392
1306:System/shell/shell.c ****     {
 5088              		.loc 1 1306 9 is_stmt 0 view .LVU1393
 5089 000e 90F86030 		ldrb	r3, [r0, #96]	@ zero_extendqisi2
1306:System/shell/shell.c ****     {
 5090              		.loc 1 1306 8 view .LVU1394
 5091 0012 13F0010F 		tst	r3, #1
 5092 0016 1ED0     		beq	.L403
 5093              	.LBB36:
1308:System/shell/shell.c ****         shellParserParam(shell);
 5094              		.loc 1 1308 9 is_stmt 1 view .LVU1395
 5095 0018 FFF7FEFF 		bl	shellHistoryAdd
 5096              	.LVL500:
1309:System/shell/shell.c ****         shell->parser.length = shell->parser.cursor = 0;
 5097              		.loc 1 1309 9 view .LVU1396
 5098 001c 2046     		mov	r0, r4
 5099 001e FFF7FEFF 		bl	shellParserParam
 5100              	.LVL501:
1310:System/shell/shell.c ****         if (shell->parser.paramCount == 0)
 5101              		.loc 1 1310 9 view .LVU1397
1310:System/shell/shell.c ****         if (shell->parser.paramCount == 0)
 5102              		.loc 1 1310 53 is_stmt 0 view .LVU1398
 5103 0022 0023     		movs	r3, #0
 5104 0024 E381     		strh	r3, [r4, #14]	@ movhi
1310:System/shell/shell.c ****         if (shell->parser.paramCount == 0)
 5105              		.loc 1 1310 30 view .LVU1399
 5106 0026 A381     		strh	r3, [r4, #12]	@ movhi
1311:System/shell/shell.c ****         {
 5107              		.loc 1 1311 9 is_stmt 1 view .LVU1400
1311:System/shell/shell.c ****         {
 5108              		.loc 1 1311 26 is_stmt 0 view .LVU1401
 5109 0028 E38E     		ldrh	r3, [r4, #54]
1311:System/shell/shell.c ****         {
 5110              		.loc 1 1311 12 view .LVU1402
 5111 002a B3B1     		cbz	r3, .L401
1315:System/shell/shell.c **** 
ARM GAS  C:\Users\HUAV\AppData\Local\Temp\ccSSjzP1.s 			page 143


 5112              		.loc 1 1315 9 is_stmt 1 view .LVU1403
 5113 002c 0C49     		ldr	r1, .L409
 5114 002e 2046     		mov	r0, r4
 5115 0030 FFF7FEFF 		bl	shellWriteString
 5116              	.LVL502:
1317:System/shell/shell.c ****                                                  shell->parser.param[0],
 5117              		.loc 1 1317 9 view .LVU1404
1317:System/shell/shell.c ****                                                  shell->parser.param[0],
 5118              		.loc 1 1317 33 is_stmt 0 view .LVU1405
 5119 0034 0023     		movs	r3, #0
 5120 0036 A26D     		ldr	r2, [r4, #88]
 5121 0038 6169     		ldr	r1, [r4, #20]
 5122 003a 2046     		mov	r0, r4
 5123 003c FFF7FEFF 		bl	shellSeekCommand
 5124              	.LVL503:
1321:System/shell/shell.c ****         {
 5125              		.loc 1 1321 9 is_stmt 1 view .LVU1406
1321:System/shell/shell.c ****         {
 5126              		.loc 1 1321 12 is_stmt 0 view .LVU1407
 5127 0040 0146     		mov	r1, r0
 5128 0042 18B1     		cbz	r0, .L404
1323:System/shell/shell.c ****         }
 5129              		.loc 1 1323 13 is_stmt 1 view .LVU1408
 5130 0044 2046     		mov	r0, r4
 5131              	.LVL504:
1323:System/shell/shell.c ****         }
 5132              		.loc 1 1323 13 is_stmt 0 view .LVU1409
 5133 0046 FFF7FEFF 		bl	shellRunCommand
 5134              	.LVL505:
1323:System/shell/shell.c ****         }
 5135              		.loc 1 1323 13 view .LVU1410
 5136 004a 06E0     		b	.L401
 5137              	.LVL506:
 5138              	.L404:
1327:System/shell/shell.c ****         }
 5139              		.loc 1 1327 13 is_stmt 1 view .LVU1411
 5140 004c 0549     		ldr	r1, .L409+4
 5141 004e 2046     		mov	r0, r4
 5142              	.LVL507:
1327:System/shell/shell.c ****         }
 5143              		.loc 1 1327 13 is_stmt 0 view .LVU1412
 5144 0050 FFF7FEFF 		bl	shellWriteString
 5145              	.LVL508:
 5146 0054 01E0     		b	.L401
 5147              	.LVL509:
 5148              	.L403:
1327:System/shell/shell.c ****         }
 5149              		.loc 1 1327 13 view .LVU1413
 5150              	.LBE36:
1332:System/shell/shell.c ****     }
 5151              		.loc 1 1332 9 is_stmt 1 view .LVU1414
 5152 0056 FFF7FEFF 		bl	shellCheckPassword
 5153              	.LVL510:
 5154              	.L401:
1334:System/shell/shell.c **** 
 5155              		.loc 1 1334 1 is_stmt 0 view .LVU1415
 5156 005a 10BD     		pop	{r4, pc}
ARM GAS  C:\Users\HUAV\AppData\Local\Temp\ccSSjzP1.s 			page 144


 5157              	.LVL511:
 5158              	.L406:
 5159              	.LCFI66:
 5160              		.cfi_def_cfa_offset 0
 5161              		.cfi_restore 4
 5162              		.cfi_restore 14
1334:System/shell/shell.c **** 
 5163              		.loc 1 1334 1 view .LVU1416
 5164 005c 7047     		bx	lr
 5165              	.L410:
 5166 005e 00BF     		.align	2
 5167              	.L409:
 5168 0060 04000000 		.word	.LC3
 5169 0064 14000000 		.word	.LC24
 5170              		.cfi_endproc
 5171              	.LFE43:
 5173              		.section	.text.shellEnter,"ax",%progbits
 5174              		.align	1
 5175              		.global	shellEnter
 5176              		.syntax unified
 5177              		.thumb
 5178              		.thumb_func
 5179              		.fpu fpv5-d16
 5181              	shellEnter:
 5182              	.LVL512:
 5183              	.LFB51:
1511:System/shell/shell.c ****     shellExec(shell);
 5184              		.loc 1 1511 1 is_stmt 1 view -0
 5185              		.cfi_startproc
 5186              		@ args = 0, pretend = 0, frame = 0
 5187              		@ frame_needed = 0, uses_anonymous_args = 0
1511:System/shell/shell.c ****     shellExec(shell);
 5188              		.loc 1 1511 1 is_stmt 0 view .LVU1418
 5189 0000 10B5     		push	{r4, lr}
 5190              	.LCFI67:
 5191              		.cfi_def_cfa_offset 8
 5192              		.cfi_offset 4, -8
 5193              		.cfi_offset 14, -4
 5194 0002 0446     		mov	r4, r0
1512:System/shell/shell.c ****     shellWriteCommandLine(shell, 1);
 5195              		.loc 1 1512 5 is_stmt 1 view .LVU1419
 5196 0004 FFF7FEFF 		bl	shellExec
 5197              	.LVL513:
1513:System/shell/shell.c **** }
 5198              		.loc 1 1513 5 view .LVU1420
 5199 0008 0121     		movs	r1, #1
 5200 000a 2046     		mov	r0, r4
 5201 000c FFF7FEFF 		bl	shellWriteCommandLine
 5202              	.LVL514:
1514:System/shell/shell.c **** #if SHELL_ENTER_LF == 1
 5203              		.loc 1 1514 1 is_stmt 0 view .LVU1421
 5204 0010 10BD     		pop	{r4, pc}
1514:System/shell/shell.c **** #if SHELL_ENTER_LF == 1
 5205              		.loc 1 1514 1 view .LVU1422
 5206              		.cfi_endproc
 5207              	.LFE51:
 5209              		.section	.text.shellHandler,"ax",%progbits
ARM GAS  C:\Users\HUAV\AppData\Local\Temp\ccSSjzP1.s 			page 145


 5210              		.align	1
 5211              		.global	shellHandler
 5212              		.syntax unified
 5213              		.thumb
 5214              		.thumb_func
 5215              		.fpu fpv5-d16
 5217              	shellHandler:
 5218              	.LVL515:
 5219              	.LFB53:
1573:System/shell/shell.c ****     SHELL_ASSERT(data, return );
 5220              		.loc 1 1573 1 is_stmt 1 view -0
 5221              		.cfi_startproc
 5222              		@ args = 0, pretend = 0, frame = 0
 5223              		@ frame_needed = 0, uses_anonymous_args = 0
1574:System/shell/shell.c **** 
 5224              		.loc 1 1574 5 view .LVU1424
 5225 0000 0029     		cmp	r1, #0
 5226 0002 65D0     		beq	.L426
1573:System/shell/shell.c ****     SHELL_ASSERT(data, return );
 5227              		.loc 1 1573 1 is_stmt 0 discriminator 2 view .LVU1425
 5228 0004 2DE9F047 		push	{r4, r5, r6, r7, r8, r9, r10, lr}
 5229              	.LCFI68:
 5230              		.cfi_def_cfa_offset 32
 5231              		.cfi_offset 4, -32
 5232              		.cfi_offset 5, -28
 5233              		.cfi_offset 6, -24
 5234              		.cfi_offset 7, -20
 5235              		.cfi_offset 8, -16
 5236              		.cfi_offset 9, -12
 5237              		.cfi_offset 10, -8
 5238              		.cfi_offset 14, -4
 5239 0008 0646     		mov	r6, r0
 5240 000a 8A46     		mov	r10, r1
1574:System/shell/shell.c **** 
 5241              		.loc 1 1574 32 is_stmt 1 discriminator 2 view .LVU1426
1587:System/shell/shell.c ****     int keyFilter = 0x00000000;
 5242              		.loc 1 1587 5 discriminator 2 view .LVU1427
 5243              	.LVL516:
1588:System/shell/shell.c ****     if ((shell->parser.keyValue & 0x0000FF00) != 0x00000000)
 5244              		.loc 1 1588 5 discriminator 2 view .LVU1428
1589:System/shell/shell.c ****     {
 5245              		.loc 1 1589 5 discriminator 2 view .LVU1429
1589:System/shell/shell.c ****     {
 5246              		.loc 1 1589 23 is_stmt 0 discriminator 2 view .LVU1430
 5247 000c 836B     		ldr	r3, [r0, #56]
1589:System/shell/shell.c ****     {
 5248              		.loc 1 1589 8 discriminator 2 view .LVU1431
 5249 000e 13F47F4F 		tst	r3, #65280
 5250 0012 08D1     		bne	.L421
1594:System/shell/shell.c ****     {
 5251              		.loc 1 1594 10 is_stmt 1 view .LVU1432
1594:System/shell/shell.c ****     {
 5252              		.loc 1 1594 13 is_stmt 0 view .LVU1433
 5253 0014 13F47F09 		ands	r9, r3, #16711680
 5254 0018 0AD1     		bne	.L422
1599:System/shell/shell.c ****     {
 5255              		.loc 1 1599 10 is_stmt 1 view .LVU1434
ARM GAS  C:\Users\HUAV\AppData\Local\Temp\ccSSjzP1.s 			page 146


1599:System/shell/shell.c ****     {
 5256              		.loc 1 1599 13 is_stmt 0 view .LVU1435
 5257 001a 13F07F4F 		tst	r3, #-16777216
 5258 001e 0ED1     		bne	.L423
1587:System/shell/shell.c ****     int keyFilter = 0x00000000;
 5259              		.loc 1 1587 10 view .LVU1436
 5260 0020 4FF01808 		mov	r8, #24
 5261 0024 08E0     		b	.L415
 5262              	.L421:
1592:System/shell/shell.c ****     }
 5263              		.loc 1 1592 19 view .LVU1437
 5264 0026 6FF0FF09 		mvn	r9, #255
1591:System/shell/shell.c ****         keyFilter = 0xFFFFFF00;
 5265              		.loc 1 1591 23 view .LVU1438
 5266 002a 4FF00008 		mov	r8, #0
 5267 002e 03E0     		b	.L415
 5268              	.L422:
1597:System/shell/shell.c ****     }
 5269              		.loc 1 1597 19 view .LVU1439
 5270 0030 DFF8A090 		ldr	r9, .L431
1596:System/shell/shell.c ****         keyFilter = 0xFFFF0000;
 5271              		.loc 1 1596 23 view .LVU1440
 5272 0034 4FF00808 		mov	r8, #8
 5273              	.L415:
 5274              	.LVL517:
1606:System/shell/shell.c ****     for (short i = 0; i < shell->commandList.count; i++)
 5275              		.loc 1 1606 5 is_stmt 1 view .LVU1441
1606:System/shell/shell.c ****     for (short i = 0; i < shell->commandList.count; i++)
 5276              		.loc 1 1606 19 is_stmt 0 view .LVU1442
 5277 0038 B76D     		ldr	r7, [r6, #88]
 5278              	.LVL518:
1607:System/shell/shell.c ****     {
 5279              		.loc 1 1607 5 is_stmt 1 view .LVU1443
 5280              	.LBB37:
1607:System/shell/shell.c ****     {
 5281              		.loc 1 1607 10 view .LVU1444
1607:System/shell/shell.c ****     {
 5282              		.loc 1 1607 16 is_stmt 0 view .LVU1445
 5283 003a 0024     		movs	r4, #0
1607:System/shell/shell.c ****     {
 5284              		.loc 1 1607 5 view .LVU1446
 5285 003c 0DE0     		b	.L416
 5286              	.LVL519:
 5287              	.L423:
1607:System/shell/shell.c ****     {
 5288              		.loc 1 1607 5 view .LVU1447
 5289              	.LBE37:
1602:System/shell/shell.c ****     }
 5290              		.loc 1 1602 19 view .LVU1448
 5291 003e 4FF07F49 		mov	r9, #-16777216
1601:System/shell/shell.c ****         keyFilter = 0xFF000000;
 5292              		.loc 1 1601 23 view .LVU1449
 5293 0042 4FF01008 		mov	r8, #16
 5294 0046 F7E7     		b	.L415
 5295              	.LVL520:
 5296              	.L418:
 5297              	.LBB38:
ARM GAS  C:\Users\HUAV\AppData\Local\Temp\ccSSjzP1.s 			page 147


1619:System/shell/shell.c ****                     {
 5298              		.loc 1 1619 21 is_stmt 1 view .LVU1450
1619:System/shell/shell.c ****                     {
 5299              		.loc 1 1619 41 is_stmt 0 view .LVU1451
 5300 0048 AB68     		ldr	r3, [r5, #8]
1619:System/shell/shell.c ****                     {
 5301              		.loc 1 1619 24 view .LVU1452
 5302 004a 0BB1     		cbz	r3, .L419
1621:System/shell/shell.c ****                     }
 5303              		.loc 1 1621 25 is_stmt 1 view .LVU1453
 5304 004c 3046     		mov	r0, r6
 5305 004e 9847     		blx	r3
 5306              	.LVL521:
 5307              	.L419:
1623:System/shell/shell.c ****                     break;
 5308              		.loc 1 1623 21 view .LVU1454
1623:System/shell/shell.c ****                     break;
 5309              		.loc 1 1623 44 is_stmt 0 view .LVU1455
 5310 0050 0023     		movs	r3, #0
 5311 0052 B363     		str	r3, [r6, #56]
1624:System/shell/shell.c ****                 }
 5312              		.loc 1 1624 21 is_stmt 1 view .LVU1456
1624:System/shell/shell.c ****                 }
 5313              		.loc 1 1624 21 is_stmt 0 view .LVU1457
 5314              	.LBE38:
1630:System/shell/shell.c ****     {
 5315              		.loc 1 1630 5 is_stmt 1 view .LVU1458
 5316 0054 33E0     		b	.L413
 5317              	.LVL522:
 5318              	.L417:
 5319              	.LBB39:
1607:System/shell/shell.c ****     {
 5320              		.loc 1 1607 53 discriminator 2 view .LVU1459
1607:System/shell/shell.c ****     {
 5321              		.loc 1 1607 54 is_stmt 0 discriminator 2 view .LVU1460
 5322 0056 0134     		adds	r4, r4, #1
 5323              	.LVL523:
1607:System/shell/shell.c ****     {
 5324              		.loc 1 1607 54 discriminator 2 view .LVU1461
 5325 0058 24B2     		sxth	r4, r4
 5326              	.LVL524:
 5327              	.L416:
1607:System/shell/shell.c ****     {
 5328              		.loc 1 1607 23 is_stmt 1 discriminator 1 view .LVU1462
1607:System/shell/shell.c ****     {
 5329              		.loc 1 1607 45 is_stmt 0 discriminator 1 view .LVU1463
 5330 005a B6F85C30 		ldrh	r3, [r6, #92]
1607:System/shell/shell.c ****     {
 5331              		.loc 1 1607 5 discriminator 1 view .LVU1464
 5332 005e 9C42     		cmp	r4, r3
 5333 0060 2ADA     		bge	.L429
1610:System/shell/shell.c ****         {
 5334              		.loc 1 1610 9 is_stmt 1 view .LVU1465
1610:System/shell/shell.c ****         {
 5335              		.loc 1 1610 17 is_stmt 0 view .LVU1466
 5336 0062 07EB0415 		add	r5, r7, r4, lsl #4
1610:System/shell/shell.c ****         {
ARM GAS  C:\Users\HUAV\AppData\Local\Temp\ccSSjzP1.s 			page 148


 5337              		.loc 1 1610 37 view .LVU1467
 5338 0066 6B78     		ldrb	r3, [r5, #1]	@ zero_extendqisi2
 5339 0068 03F00F03 		and	r3, r3, #15
1610:System/shell/shell.c ****         {
 5340              		.loc 1 1610 12 view .LVU1468
 5341 006c 092B     		cmp	r3, #9
 5342 006e F2D1     		bne	.L417
1610:System/shell/shell.c ****         {
 5343              		.loc 1 1610 58 discriminator 1 view .LVU1469
 5344 0070 2946     		mov	r1, r5
 5345 0072 3046     		mov	r0, r6
 5346 0074 FFF7FEFF 		bl	shellCheckPermission
 5347              	.LVL525:
1610:System/shell/shell.c ****         {
 5348              		.loc 1 1610 55 discriminator 1 view .LVU1470
 5349 0078 0028     		cmp	r0, #0
 5350 007a ECD1     		bne	.L417
1613:System/shell/shell.c ****             {
 5351              		.loc 1 1613 13 is_stmt 1 view .LVU1471
1613:System/shell/shell.c ****             {
 5352              		.loc 1 1613 34 is_stmt 0 view .LVU1472
 5353 007c 6B68     		ldr	r3, [r5, #4]
1613:System/shell/shell.c ****             {
 5354              		.loc 1 1613 41 view .LVU1473
 5355 007e 03EA0901 		and	r1, r3, r9
1613:System/shell/shell.c ****             {
 5356              		.loc 1 1613 70 view .LVU1474
 5357 0082 B26B     		ldr	r2, [r6, #56]
1613:System/shell/shell.c ****             {
 5358              		.loc 1 1613 16 view .LVU1475
 5359 0084 9142     		cmp	r1, r2
 5360 0086 E6D1     		bne	.L417
1613:System/shell/shell.c ****             {
 5361              		.loc 1 1613 115 discriminator 1 view .LVU1476
 5362 0088 FF21     		movs	r1, #255
 5363 008a 01FA08F1 		lsl	r1, r1, r8
1613:System/shell/shell.c ****             {
 5364              		.loc 1 1613 107 discriminator 1 view .LVU1477
 5365 008e 0B40     		ands	r3, r3, r1
1613:System/shell/shell.c ****             {
 5366              		.loc 1 1613 143 discriminator 1 view .LVU1478
 5367 0090 0AFA08F1 		lsl	r1, r10, r8
1613:System/shell/shell.c ****             {
 5368              		.loc 1 1613 80 discriminator 1 view .LVU1479
 5369 0094 8B42     		cmp	r3, r1
 5370 0096 DED1     		bne	.L417
1615:System/shell/shell.c ****                 data = 0x00;
 5371              		.loc 1 1615 17 is_stmt 1 view .LVU1480
1615:System/shell/shell.c ****                 data = 0x00;
 5372              		.loc 1 1615 40 is_stmt 0 view .LVU1481
 5373 0098 0A43     		orrs	r2, r2, r1
 5374 009a B263     		str	r2, [r6, #56]
1616:System/shell/shell.c ****                 if (keyByteOffset == 0 || (base[i].data.key.value & (0xFF << (keyByteOffset - 8))) 
 5375              		.loc 1 1616 17 is_stmt 1 view .LVU1482
 5376              	.LVL526:
1617:System/shell/shell.c ****                 {
 5377              		.loc 1 1617 17 view .LVU1483
ARM GAS  C:\Users\HUAV\AppData\Local\Temp\ccSSjzP1.s 			page 149


1617:System/shell/shell.c ****                 {
 5378              		.loc 1 1617 20 is_stmt 0 view .LVU1484
 5379 009c B8F1000F 		cmp	r8, #0
 5380 00a0 D2D0     		beq	.L418
1617:System/shell/shell.c ****                 {
 5381              		.loc 1 1617 60 discriminator 1 view .LVU1485
 5382 00a2 6B68     		ldr	r3, [r5, #4]
1617:System/shell/shell.c ****                 {
 5383              		.loc 1 1617 93 discriminator 1 view .LVU1486
 5384 00a4 A8F10800 		sub	r0, r8, #8
1617:System/shell/shell.c ****                 {
 5385              		.loc 1 1617 75 discriminator 1 view .LVU1487
 5386 00a8 FF22     		movs	r2, #255
 5387 00aa 02FA00F0 		lsl	r0, r2, r0
1617:System/shell/shell.c ****                 {
 5388              		.loc 1 1617 40 discriminator 1 view .LVU1488
 5389 00ae 0342     		tst	r3, r0
 5390 00b0 CAD0     		beq	.L418
1616:System/shell/shell.c ****                 if (keyByteOffset == 0 || (base[i].data.key.value & (0xFF << (keyByteOffset - 8))) 
 5391              		.loc 1 1616 22 view .LVU1489
 5392 00b2 4FF0000A 		mov	r10, #0
 5393 00b6 CEE7     		b	.L417
 5394              	.LVL527:
 5395              	.L429:
1616:System/shell/shell.c ****                 if (keyByteOffset == 0 || (base[i].data.key.value & (0xFF << (keyByteOffset - 8))) 
 5396              		.loc 1 1616 22 view .LVU1490
 5397              	.LBE39:
1630:System/shell/shell.c ****     {
 5398              		.loc 1 1630 5 is_stmt 1 view .LVU1491
1630:System/shell/shell.c ****     {
 5399              		.loc 1 1630 8 is_stmt 0 view .LVU1492
 5400 00b8 BAF1000F 		cmp	r10, #0
 5401 00bc 01D1     		bne	.L430
 5402              	.LVL528:
 5403              	.L413:
1640:System/shell/shell.c **** 
 5404              		.loc 1 1640 1 view .LVU1493
 5405 00be BDE8F087 		pop	{r4, r5, r6, r7, r8, r9, r10, pc}
 5406              	.LVL529:
 5407              	.L430:
1632:System/shell/shell.c ****         shellNormalInput(shell, data);
 5408              		.loc 1 1632 9 is_stmt 1 view .LVU1494
1632:System/shell/shell.c ****         shellNormalInput(shell, data);
 5409              		.loc 1 1632 32 is_stmt 0 view .LVU1495
 5410 00c2 0023     		movs	r3, #0
 5411 00c4 B363     		str	r3, [r6, #56]
1633:System/shell/shell.c ****     }
 5412              		.loc 1 1633 9 is_stmt 1 view .LVU1496
 5413 00c6 5146     		mov	r1, r10
 5414 00c8 3046     		mov	r0, r6
 5415 00ca FFF7FEFF 		bl	shellNormalInput
 5416              	.LVL530:
 5417 00ce F6E7     		b	.L413
 5418              	.LVL531:
 5419              	.L426:
 5420              	.LCFI69:
 5421              		.cfi_def_cfa_offset 0
ARM GAS  C:\Users\HUAV\AppData\Local\Temp\ccSSjzP1.s 			page 150


 5422              		.cfi_restore 4
 5423              		.cfi_restore 5
 5424              		.cfi_restore 6
 5425              		.cfi_restore 7
 5426              		.cfi_restore 8
 5427              		.cfi_restore 9
 5428              		.cfi_restore 10
 5429              		.cfi_restore 14
1633:System/shell/shell.c ****     }
 5430              		.loc 1 1633 9 is_stmt 0 view .LVU1497
 5431 00d0 7047     		bx	lr
 5432              	.L432:
 5433 00d2 00BF     		.align	2
 5434              	.L431:
 5435 00d4 0000FFFF 		.word	-65536
 5436              		.cfi_endproc
 5437              	.LFE53:
 5439              		.section	.text.shellTask,"ax",%progbits
 5440              		.align	1
 5441              		.global	shellTask
 5442              		.syntax unified
 5443              		.thumb
 5444              		.thumb_func
 5445              		.fpu fpv5-d16
 5447              	shellTask:
 5448              	.LVL532:
 5449              	.LFB54:
1675:System/shell/shell.c ****     Shell *shell = (Shell *)param;
 5450              		.loc 1 1675 1 is_stmt 1 view -0
 5451              		.cfi_startproc
 5452              		@ args = 0, pretend = 0, frame = 8
 5453              		@ frame_needed = 0, uses_anonymous_args = 0
1676:System/shell/shell.c ****     char data;
 5454              		.loc 1 1676 5 view .LVU1499
1677:System/shell/shell.c **** #if SHELL_TASK_WHILE == 1
 5455              		.loc 1 1677 5 view .LVU1500
1682:System/shell/shell.c ****         {
 5456              		.loc 1 1682 9 view .LVU1501
1682:System/shell/shell.c ****         {
 5457              		.loc 1 1682 18 is_stmt 0 view .LVU1502
 5458 0000 436E     		ldr	r3, [r0, #100]
1682:System/shell/shell.c ****         {
 5459              		.loc 1 1682 12 view .LVU1503
 5460 0002 73B1     		cbz	r3, .L436
1675:System/shell/shell.c ****     Shell *shell = (Shell *)param;
 5461              		.loc 1 1675 1 discriminator 1 view .LVU1504
 5462 0004 10B5     		push	{r4, lr}
 5463              	.LCFI70:
 5464              		.cfi_def_cfa_offset 8
 5465              		.cfi_offset 4, -8
 5466              		.cfi_offset 14, -4
 5467 0006 82B0     		sub	sp, sp, #8
 5468              	.LCFI71:
 5469              		.cfi_def_cfa_offset 16
 5470 0008 0446     		mov	r4, r0
1682:System/shell/shell.c ****         {
 5471              		.loc 1 1682 28 discriminator 1 view .LVU1505
ARM GAS  C:\Users\HUAV\AppData\Local\Temp\ccSSjzP1.s 			page 151


 5472 000a 0DF10700 		add	r0, sp, #7
 5473              	.LVL533:
1682:System/shell/shell.c ****         {
 5474              		.loc 1 1682 28 discriminator 1 view .LVU1506
 5475 000e 9847     		blx	r3
 5476              	.LVL534:
1682:System/shell/shell.c ****         {
 5477              		.loc 1 1682 25 discriminator 1 view .LVU1507
 5478 0010 08B1     		cbz	r0, .L439
 5479              	.L433:
1689:System/shell/shell.c **** 
 5480              		.loc 1 1689 1 view .LVU1508
 5481 0012 02B0     		add	sp, sp, #8
 5482              	.LCFI72:
 5483              		.cfi_remember_state
 5484              		.cfi_def_cfa_offset 8
 5485              		@ sp needed
 5486 0014 10BD     		pop	{r4, pc}
 5487              	.LVL535:
 5488              	.L439:
 5489              	.LCFI73:
 5490              		.cfi_restore_state
1684:System/shell/shell.c ****         }
 5491              		.loc 1 1684 13 is_stmt 1 view .LVU1509
 5492 0016 9DF80710 		ldrb	r1, [sp, #7]	@ zero_extendqisi2
 5493 001a 2046     		mov	r0, r4
 5494 001c FFF7FEFF 		bl	shellHandler
 5495              	.LVL536:
1689:System/shell/shell.c **** 
 5496              		.loc 1 1689 1 is_stmt 0 view .LVU1510
 5497 0020 F7E7     		b	.L433
 5498              	.LVL537:
 5499              	.L436:
 5500              	.LCFI74:
 5501              		.cfi_def_cfa_offset 0
 5502              		.cfi_restore 4
 5503              		.cfi_restore 14
1689:System/shell/shell.c **** 
 5504              		.loc 1 1689 1 view .LVU1511
 5505 0022 7047     		bx	lr
 5506              		.cfi_endproc
 5507              	.LFE54:
 5509              		.section	.text.shellRun,"ax",%progbits
 5510              		.align	1
 5511              		.global	shellRun
 5512              		.syntax unified
 5513              		.thumb
 5514              		.thumb_func
 5515              		.fpu fpv5-d16
 5517              	shellRun:
 5518              	.LVL538:
 5519              	.LFB60:
1762:System/shell/shell.c **** SHELL_EXPORT_CMD(
1763:System/shell/shell.c ****     SHELL_CMD_PERMISSION(0) | SHELL_CMD_TYPE(SHELL_TYPE_CMD_FUNC) | SHELL_CMD_DISABLE_RETURN,
1764:System/shell/shell.c ****     clear, shellClear, clear console);
1765:System/shell/shell.c **** 
1766:System/shell/shell.c **** /**
ARM GAS  C:\Users\HUAV\AppData\Local\Temp\ccSSjzP1.s 			page 152


1767:System/shell/shell.c ****  * @brief shell执行命令
1768:System/shell/shell.c ****  *
1769:System/shell/shell.c ****  * @param shell shell对象
1770:System/shell/shell.c ****  * @param cmd 命令字符串
1771:System/shell/shell.c ****  * @return int 返回值
1772:System/shell/shell.c ****  */
1773:System/shell/shell.c **** int shellRun(Shell *shell, const char *cmd)
1774:System/shell/shell.c **** {
 5520              		.loc 1 1774 1 is_stmt 1 view -0
 5521              		.cfi_startproc
 5522              		@ args = 0, pretend = 0, frame = 0
 5523              		@ frame_needed = 0, uses_anonymous_args = 0
1775:System/shell/shell.c ****     SHELL_ASSERT(shell && cmd, return -1);
 5524              		.loc 1 1775 5 view .LVU1513
 5525 0000 0029     		cmp	r1, #0
 5526 0002 18BF     		it	ne
 5527 0004 0028     		cmpne	r0, #0
 5528 0006 24D0     		beq	.L443
1774:System/shell/shell.c ****     SHELL_ASSERT(shell && cmd, return -1);
 5529              		.loc 1 1774 1 is_stmt 0 discriminator 2 view .LVU1514
 5530 0008 70B5     		push	{r4, r5, r6, lr}
 5531              	.LCFI75:
 5532              		.cfi_def_cfa_offset 16
 5533              		.cfi_offset 4, -16
 5534              		.cfi_offset 5, -12
 5535              		.cfi_offset 6, -8
 5536              		.cfi_offset 14, -4
 5537 000a 0446     		mov	r4, r0
 5538 000c 0E46     		mov	r6, r1
 5539              		.loc 1 1775 42 is_stmt 1 discriminator 2 view .LVU1515
1776:System/shell/shell.c ****     char active = shell->status.isActive;
 5540              		.loc 1 1776 5 discriminator 2 view .LVU1516
 5541              		.loc 1 1776 32 is_stmt 0 discriminator 2 view .LVU1517
 5542 000e 90F86030 		ldrb	r3, [r0, #96]	@ zero_extendqisi2
 5543 0012 C3F34005 		ubfx	r5, r3, #1, #1
 5544              	.LVL539:
1777:System/shell/shell.c ****     if (strlen(cmd) > shell->parser.bufferSize - 1)
 5545              		.loc 1 1777 5 is_stmt 1 discriminator 2 view .LVU1518
 5546              		.loc 1 1777 9 is_stmt 0 discriminator 2 view .LVU1519
 5547 0016 0846     		mov	r0, r1
 5548              	.LVL540:
 5549              		.loc 1 1777 9 discriminator 2 view .LVU1520
 5550 0018 FFF7FEFF 		bl	strlen
 5551              	.LVL541:
 5552              		.loc 1 1777 36 discriminator 2 view .LVU1521
 5553 001c A38E     		ldrh	r3, [r4, #52]
 5554              		.loc 1 1777 48 discriminator 2 view .LVU1522
 5555 001e 013B     		subs	r3, r3, #1
 5556              		.loc 1 1777 8 discriminator 2 view .LVU1523
 5557 0020 9842     		cmp	r0, r3
 5558 0022 0FD8     		bhi	.L448
1778:System/shell/shell.c ****     {
1779:System/shell/shell.c ****         shellWriteString(shell, shellText[SHELL_TEXT_CMD_TOO_LONG]);
1780:System/shell/shell.c ****         return -1;
1781:System/shell/shell.c ****     }
1782:System/shell/shell.c ****     else
1783:System/shell/shell.c ****     {
ARM GAS  C:\Users\HUAV\AppData\Local\Temp\ccSSjzP1.s 			page 153


1784:System/shell/shell.c ****         shell->parser.length = shellStringCopy(shell->parser.buffer, (char *)cmd);
 5559              		.loc 1 1784 9 is_stmt 1 view .LVU1524
 5560              		.loc 1 1784 32 is_stmt 0 view .LVU1525
 5561 0024 3146     		mov	r1, r6
 5562 0026 2069     		ldr	r0, [r4, #16]
 5563 0028 FFF7FEFF 		bl	shellStringCopy
 5564              	.LVL542:
 5565              		.loc 1 1784 30 view .LVU1526
 5566 002c A081     		strh	r0, [r4, #12]	@ movhi
1785:System/shell/shell.c ****         shellExec(shell);
 5567              		.loc 1 1785 9 is_stmt 1 view .LVU1527
 5568 002e 2046     		mov	r0, r4
 5569 0030 FFF7FEFF 		bl	shellExec
 5570              	.LVL543:
1786:System/shell/shell.c ****         shell->status.isActive = active;
 5571              		.loc 1 1786 9 view .LVU1528
 5572              		.loc 1 1786 32 is_stmt 0 view .LVU1529
 5573 0034 94F86030 		ldrb	r3, [r4, #96]	@ zero_extendqisi2
 5574 0038 65F34103 		bfi	r3, r5, #1, #1
 5575 003c 84F86030 		strb	r3, [r4, #96]
1787:System/shell/shell.c ****         return 0;
 5576              		.loc 1 1787 9 is_stmt 1 view .LVU1530
 5577              		.loc 1 1787 16 is_stmt 0 view .LVU1531
 5578 0040 0020     		movs	r0, #0
 5579              	.L440:
1788:System/shell/shell.c ****     }
1789:System/shell/shell.c **** }
 5580              		.loc 1 1789 1 view .LVU1532
 5581 0042 70BD     		pop	{r4, r5, r6, pc}
 5582              	.LVL544:
 5583              	.L448:
1779:System/shell/shell.c ****         return -1;
 5584              		.loc 1 1779 9 is_stmt 1 view .LVU1533
 5585 0044 0449     		ldr	r1, .L449
 5586 0046 2046     		mov	r0, r4
 5587 0048 FFF7FEFF 		bl	shellWriteString
 5588              	.LVL545:
1780:System/shell/shell.c ****     }
 5589              		.loc 1 1780 9 view .LVU1534
1780:System/shell/shell.c ****     }
 5590              		.loc 1 1780 16 is_stmt 0 view .LVU1535
 5591 004c 4FF0FF30 		mov	r0, #-1
 5592 0050 F7E7     		b	.L440
 5593              	.LVL546:
 5594              	.L443:
 5595              	.LCFI76:
 5596              		.cfi_def_cfa_offset 0
 5597              		.cfi_restore 4
 5598              		.cfi_restore 5
 5599              		.cfi_restore 6
 5600              		.cfi_restore 14
1775:System/shell/shell.c ****     char active = shell->status.isActive;
 5601              		.loc 1 1775 5 view .LVU1536
 5602 0052 4FF0FF30 		mov	r0, #-1
 5603              	.LVL547:
 5604              		.loc 1 1789 1 view .LVU1537
 5605 0056 7047     		bx	lr
ARM GAS  C:\Users\HUAV\AppData\Local\Temp\ccSSjzP1.s 			page 154


 5606              	.L450:
 5607              		.align	2
 5608              	.L449:
 5609 0058 00000000 		.word	.LC21
 5610              		.cfi_endproc
 5611              	.LFE60:
 5613              		.global	shellCommandclear
 5614              		.global	shellDescclear
 5615              		.global	shellCmdclear
 5616              		.global	shellCommandkeys
 5617              		.global	shellDesckeys
 5618              		.global	shellCmdkeys
 5619              		.global	shellCommandvars
 5620              		.global	shellDescvars
 5621              		.global	shellCmdvars
 5622              		.global	shellCommandcmds
 5623              		.global	shellDesccmds
 5624              		.global	shellCmdcmds
 5625              		.global	shellCommandusers
 5626              		.global	shellDescusers
 5627              		.global	shellCmdusers
 5628              		.global	shellCommandhelp
 5629              		.global	shellDeschelp
 5630              		.global	shellCmdhelp
 5631              		.global	shellKey0x0D000000
 5632              		.global	shellDesc0x0D000000
 5633              		.global	shellKey0x0A000000
 5634              		.global	shellDesc0x0A000000
 5635              		.global	shellKey0x1B5B337E
 5636              		.global	shellDesc0x1B5B337E
 5637              		.global	shellKey0x7F000000
 5638              		.global	shellDesc0x7F000000
 5639              		.global	shellKey0x08000000
 5640              		.global	shellDesc0x08000000
 5641              		.global	shellKey0x09000000
 5642              		.global	shellDesc0x09000000
 5643              		.global	shellKey0x1B5B4400
 5644              		.global	shellDesc0x1B5B4400
 5645              		.global	shellKey0x1B5B4300
 5646              		.global	shellDesc0x1B5B4300
 5647              		.global	shellKey0x1B5B4200
 5648              		.global	shellDesc0x1B5B4200
 5649              		.global	shellKey0x1B5B4100
 5650              		.global	shellDesc0x1B5B4100
 5651              		.global	shellCommandsetVar
 5652              		.global	shellDescsetVar
 5653              		.global	shellCmdsetVar
 5654              		.global	shellUserDefault
 5655              		.global	shellDesDefaultUser
 5656              		.global	shellPasswordDefaultUser
 5657              		.global	shellCmdDefaultUser
 5658              		.section	.bss.buffer.0,"aw",%nobits
 5659              		.align	2
 5660              		.set	.LANCHOR1,. + 0
 5663              	buffer.0:
 5664 0000 00000000 		.space	9
 5664      00000000 
ARM GAS  C:\Users\HUAV\AppData\Local\Temp\ccSSjzP1.s 			page 155


 5664      00
 5665              		.section	.bss.shellList,"aw",%nobits
 5666              		.align	2
 5667              		.set	.LANCHOR0,. + 0
 5670              	shellList:
 5671 0000 00000000 		.space	20
 5671      00000000 
 5671      00000000 
 5671      00000000 
 5671      00000000 
 5672              		.section	.rodata.shellCmdDefaultUser,"a"
 5673              		.align	2
 5676              	shellCmdDefaultUser:
 5677 0000 502E302E 		.ascii	"P.0.Wder Squad\000"
 5677      57646572 
 5677      20537175 
 5677      616400
 5678              		.section	.rodata.shellCmdclear,"a"
 5679              		.align	2
 5682              	shellCmdclear:
 5683 0000 636C6561 		.ascii	"clear\000"
 5683      7200
 5684              		.section	.rodata.shellCmdcmds,"a"
 5685              		.align	2
 5688              	shellCmdcmds:
 5689 0000 636D6473 		.ascii	"cmds\000"
 5689      00
 5690              		.section	.rodata.shellCmdhelp,"a"
 5691              		.align	2
 5694              	shellCmdhelp:
 5695 0000 68656C70 		.ascii	"help\000"
 5695      00
 5696              		.section	.rodata.shellCmdkeys,"a"
 5697              		.align	2
 5700              	shellCmdkeys:
 5701 0000 6B657973 		.ascii	"keys\000"
 5701      00
 5702              		.section	.rodata.shellCmdsetVar,"a"
 5703              		.align	2
 5706              	shellCmdsetVar:
 5707 0000 73657456 		.ascii	"setVar\000"
 5707      617200
 5708              		.section	.rodata.shellCmdusers,"a"
 5709              		.align	2
 5712              	shellCmdusers:
 5713 0000 75736572 		.ascii	"users\000"
 5713      7300
 5714              		.section	.rodata.shellCmdvars,"a"
 5715              		.align	2
 5718              	shellCmdvars:
 5719 0000 76617273 		.ascii	"vars\000"
 5719      00
 5720              		.section	.rodata.shellDesDefaultUser,"a"
 5721              		.align	2
 5724              	shellDesDefaultUser:
 5725 0000 64656661 		.ascii	"default user\000"
 5725      756C7420 
ARM GAS  C:\Users\HUAV\AppData\Local\Temp\ccSSjzP1.s 			page 156


 5725      75736572 
 5725      00
 5726              		.section	.rodata.shellDesc0x08000000,"a"
 5727              		.align	2
 5730              	shellDesc0x08000000:
 5731 0000 6261636B 		.ascii	"backspace\000"
 5731      73706163 
 5731      6500
 5732              		.section	.rodata.shellDesc0x09000000,"a"
 5733              		.align	2
 5736              	shellDesc0x09000000:
 5737 0000 74616200 		.ascii	"tab\000"
 5738              		.section	.rodata.shellDesc0x0A000000,"a"
 5739              		.align	2
 5742              	shellDesc0x0A000000:
 5743 0000 656E7465 		.ascii	"enter\000"
 5743      7200
 5744              		.section	.rodata.shellDesc0x0D000000,"a"
 5745              		.align	2
 5748              	shellDesc0x0D000000:
 5749 0000 656E7465 		.ascii	"enter\000"
 5749      7200
 5750              		.section	.rodata.shellDesc0x1B5B337E,"a"
 5751              		.align	2
 5754              	shellDesc0x1B5B337E:
 5755 0000 64656C65 		.ascii	"delete\000"
 5755      746500
 5756              		.section	.rodata.shellDesc0x1B5B4100,"a"
 5757              		.align	2
 5760              	shellDesc0x1B5B4100:
 5761 0000 757000   		.ascii	"up\000"
 5762              		.section	.rodata.shellDesc0x1B5B4200,"a"
 5763              		.align	2
 5766              	shellDesc0x1B5B4200:
 5767 0000 646F776E 		.ascii	"down\000"
 5767      00
 5768              		.section	.rodata.shellDesc0x1B5B4300,"a"
 5769              		.align	2
 5772              	shellDesc0x1B5B4300:
 5773 0000 72696768 		.ascii	"right\000"
 5773      7400
 5774              		.section	.rodata.shellDesc0x1B5B4400,"a"
 5775              		.align	2
 5778              	shellDesc0x1B5B4400:
 5779 0000 6C656674 		.ascii	"left\000"
 5779      00
 5780              		.section	.rodata.shellDesc0x7F000000,"a"
 5781              		.align	2
 5784              	shellDesc0x7F000000:
 5785 0000 6261636B 		.ascii	"backspace\000"
 5785      73706163 
 5785      6500
 5786              		.section	.rodata.shellDescclear,"a"
 5787              		.align	2
 5790              	shellDescclear:
 5791 0000 636C6561 		.ascii	"clear console\000"
 5791      7220636F 
ARM GAS  C:\Users\HUAV\AppData\Local\Temp\ccSSjzP1.s 			page 157


 5791      6E736F6C 
 5791      6500
 5792              		.section	.rodata.shellDesccmds,"a"
 5793              		.align	2
 5796              	shellDesccmds:
 5797 0000 6C697374 		.ascii	"list all cmd\000"
 5797      20616C6C 
 5797      20636D64 
 5797      00
 5798              		.section	.rodata.shellDeschelp,"a"
 5799              		.align	2
 5802              	shellDeschelp:
 5803 0000 73686F77 		.ascii	"show command info\015\012help[cmd]\000"
 5803      20636F6D 
 5803      6D616E64 
 5803      20696E66 
 5803      6F0D0A68 
 5804              		.section	.rodata.shellDesckeys,"a"
 5805              		.align	2
 5808              	shellDesckeys:
 5809 0000 6C697374 		.ascii	"list all key\000"
 5809      20616C6C 
 5809      206B6579 
 5809      00
 5810              		.section	.rodata.shellDescsetVar,"a"
 5811              		.align	2
 5814              	shellDescsetVar:
 5815 0000 73657420 		.ascii	"set var\000"
 5815      76617200 
 5816              		.section	.rodata.shellDescusers,"a"
 5817              		.align	2
 5820              	shellDescusers:
 5821 0000 6C697374 		.ascii	"list all user\000"
 5821      20616C6C 
 5821      20757365 
 5821      7200
 5822              		.section	.rodata.shellDescvars,"a"
 5823              		.align	2
 5826              	shellDescvars:
 5827 0000 6C697374 		.ascii	"list all var\000"
 5827      20616C6C 
 5827      20766172 
 5827      00
 5828              		.section	.rodata.shellPasswordDefaultUser,"a"
 5829              		.align	2
 5832              	shellPasswordDefaultUser:
 5833 0000 00       		.space	1
 5834              		.section	shellCommand,"a"
 5835              		.align	2
 5838              	shellCommandclear:
 5839 0000 00210000 		.word	8448
 5840 0004 00000000 		.word	shellCmdclear
 5841 0008 00000000 		.word	shellClear
 5842 000c 00000000 		.word	shellDescclear
 5845              	shellCommandkeys:
 5846 0010 00210000 		.word	8448
 5847 0014 00000000 		.word	shellCmdkeys
ARM GAS  C:\Users\HUAV\AppData\Local\Temp\ccSSjzP1.s 			page 158


 5848 0018 00000000 		.word	shellKeys
 5849 001c 00000000 		.word	shellDesckeys
 5852              	shellCommandvars:
 5853 0020 00210000 		.word	8448
 5854 0024 00000000 		.word	shellCmdvars
 5855 0028 00000000 		.word	shellVars
 5856 002c 00000000 		.word	shellDescvars
 5859              	shellCommandcmds:
 5860 0030 00210000 		.word	8448
 5861 0034 00000000 		.word	shellCmdcmds
 5862 0038 00000000 		.word	shellCmds
 5863 003c 00000000 		.word	shellDesccmds
 5866              	shellCommandusers:
 5867 0040 00210000 		.word	8448
 5868 0044 00000000 		.word	shellCmdusers
 5869 0048 00000000 		.word	shellUsers
 5870 004c 00000000 		.word	shellDescusers
 5873              	shellCommandhelp:
 5874 0050 00200000 		.word	8192
 5875 0054 00000000 		.word	shellCmdhelp
 5876 0058 00000000 		.word	shellHelp
 5877 005c 00000000 		.word	shellDeschelp
 5880              	shellKey0x0D000000:
 5881 0060 00190000 		.word	6400
 5882 0064 0000000D 		.word	218103808
 5883 0068 00000000 		.word	shellEnter
 5884 006c 00000000 		.word	shellDesc0x0D000000
 5887              	shellKey0x0A000000:
 5888 0070 00190000 		.word	6400
 5889 0074 0000000A 		.word	167772160
 5890 0078 00000000 		.word	shellEnter
 5891 007c 00000000 		.word	shellDesc0x0A000000
 5894              	shellKey0x1B5B337E:
 5895 0080 00190000 		.word	6400
 5896 0084 7E335B1B 		.word	458961790
 5897 0088 00000000 		.word	shellDelete
 5898 008c 00000000 		.word	shellDesc0x1B5B337E
 5901              	shellKey0x7F000000:
 5902 0090 00190000 		.word	6400
 5903 0094 0000007F 		.word	2130706432
 5904 0098 00000000 		.word	shellBackspace
 5905 009c 00000000 		.word	shellDesc0x7F000000
 5908              	shellKey0x08000000:
 5909 00a0 00190000 		.word	6400
 5910 00a4 00000008 		.word	134217728
 5911 00a8 00000000 		.word	shellBackspace
 5912 00ac 00000000 		.word	shellDesc0x08000000
 5915              	shellKey0x09000000:
 5916 00b0 00090000 		.word	2304
 5917 00b4 00000009 		.word	150994944
 5918 00b8 00000000 		.word	shellTab
 5919 00bc 00000000 		.word	shellDesc0x09000000
 5922              	shellKey0x1B5B4400:
 5923 00c0 00190000 		.word	6400
 5924 00c4 00445B1B 		.word	458966016
 5925 00c8 00000000 		.word	shellLeft
 5926 00cc 00000000 		.word	shellDesc0x1B5B4400
ARM GAS  C:\Users\HUAV\AppData\Local\Temp\ccSSjzP1.s 			page 159


 5929              	shellKey0x1B5B4300:
 5930 00d0 00190000 		.word	6400
 5931 00d4 00435B1B 		.word	458965760
 5932 00d8 00000000 		.word	shellRight
 5933 00dc 00000000 		.word	shellDesc0x1B5B4300
 5936              	shellKey0x1B5B4200:
 5937 00e0 00090000 		.word	2304
 5938 00e4 00425B1B 		.word	458965504
 5939 00e8 00000000 		.word	shellDown
 5940 00ec 00000000 		.word	shellDesc0x1B5B4200
 5943              	shellKey0x1B5B4100:
 5944 00f0 00090000 		.word	2304
 5945 00f4 00415B1B 		.word	458965248
 5946 00f8 00000000 		.word	shellUp
 5947 00fc 00000000 		.word	shellDesc0x1B5B4100
 5950              	shellCommandsetVar:
 5951 0100 00210000 		.word	8448
 5952 0104 00000000 		.word	shellCmdsetVar
 5953 0108 00000000 		.word	shellSetVar
 5954 010c 00000000 		.word	shellDescsetVar
 5957              	shellUserDefault:
 5958 0110 00080000 		.word	2048
 5959 0114 00000000 		.word	shellCmdDefaultUser
 5960 0118 00000000 		.word	shellPasswordDefaultUser
 5961 011c 00000000 		.word	shellDesDefaultUser
 5962              		.text
 5963              	.Letext0:
 5964              		.file 2 "d:\\software\\zephyr_env_gcc\\gcc-arm-none-eabi-10-2020-q4-major\\arm-none-eabi\\include\
 5965              		.file 3 "d:\\software\\zephyr_env_gcc\\gcc-arm-none-eabi-10-2020-q4-major\\arm-none-eabi\\include\
 5966              		.file 4 "System/shell/shell.h"
 5967              		.file 5 "d:\\software\\zephyr_env_gcc\\gcc-arm-none-eabi-10-2020-q4-major\\lib\\gcc\\arm-none-eabi
 5968              		.file 6 "d:\\software\\zephyr_env_gcc\\gcc-arm-none-eabi-10-2020-q4-major\\arm-none-eabi\\include\
 5969              		.file 7 "d:\\software\\zephyr_env_gcc\\gcc-arm-none-eabi-10-2020-q4-major\\arm-none-eabi\\include\
 5970              		.file 8 "System/shell/shell_ext.h"
 5971              		.file 9 "<built-in>"
ARM GAS  C:\Users\HUAV\AppData\Local\Temp\ccSSjzP1.s 			page 160


DEFINED SYMBOLS
                            *ABS*:00000000 shell.c
C:\Users\HUAV\AppData\Local\Temp\ccSSjzP1.s:17     .text.shellAdd:00000000 $t
C:\Users\HUAV\AppData\Local\Temp\ccSSjzP1.s:24     .text.shellAdd:00000000 shellAdd
C:\Users\HUAV\AppData\Local\Temp\ccSSjzP1.s:78     .text.shellAdd:00000020 $d
C:\Users\HUAV\AppData\Local\Temp\ccSSjzP1.s:83     .text.shellStringCopy:00000000 $t
C:\Users\HUAV\AppData\Local\Temp\ccSSjzP1.s:89     .text.shellStringCopy:00000000 shellStringCopy
C:\Users\HUAV\AppData\Local\Temp\ccSSjzP1.s:136    .text.shellStringCompare:00000000 $t
C:\Users\HUAV\AppData\Local\Temp\ccSSjzP1.s:142    .text.shellStringCompare:00000000 shellStringCompare
C:\Users\HUAV\AppData\Local\Temp\ccSSjzP1.s:217    .text.shellGetCommandDesc:00000000 $t
C:\Users\HUAV\AppData\Local\Temp\ccSSjzP1.s:223    .text.shellGetCommandDesc:00000000 shellGetCommandDesc
C:\Users\HUAV\AppData\Local\Temp\ccSSjzP1.s:280    .text.shellParserParam:00000000 $t
C:\Users\HUAV\AppData\Local\Temp\ccSSjzP1.s:286    .text.shellParserParam:00000000 shellParserParam
C:\Users\HUAV\AppData\Local\Temp\ccSSjzP1.s:468    .text.shellHistoryAdd:00000000 $t
C:\Users\HUAV\AppData\Local\Temp\ccSSjzP1.s:474    .text.shellHistoryAdd:00000000 shellHistoryAdd
C:\Users\HUAV\AppData\Local\Temp\ccSSjzP1.s:573    .text.shellRemoveParamQuotes:00000000 $t
C:\Users\HUAV\AppData\Local\Temp\ccSSjzP1.s:579    .text.shellRemoveParamQuotes:00000000 shellRemoveParamQuotes
C:\Users\HUAV\AppData\Local\Temp\ccSSjzP1.s:681    .text.shellGetCurrent:00000000 $t
C:\Users\HUAV\AppData\Local\Temp\ccSSjzP1.s:688    .text.shellGetCurrent:00000000 shellGetCurrent
C:\Users\HUAV\AppData\Local\Temp\ccSSjzP1.s:739    .text.shellGetCurrent:00000028 $d
C:\Users\HUAV\AppData\Local\Temp\ccSSjzP1.s:744    .text.shellWriteByte:00000000 $t
C:\Users\HUAV\AppData\Local\Temp\ccSSjzP1.s:751    .text.shellWriteByte:00000000 shellWriteByte
C:\Users\HUAV\AppData\Local\Temp\ccSSjzP1.s:789    .text.shellRight:00000000 $t
C:\Users\HUAV\AppData\Local\Temp\ccSSjzP1.s:796    .text.shellRight:00000000 shellRight
C:\Users\HUAV\AppData\Local\Temp\ccSSjzP1.s:839    .text.shellLeft:00000000 $t
C:\Users\HUAV\AppData\Local\Temp\ccSSjzP1.s:846    .text.shellLeft:00000000 shellLeft
C:\Users\HUAV\AppData\Local\Temp\ccSSjzP1.s:884    .text.shellWriteString:00000000 $t
C:\Users\HUAV\AppData\Local\Temp\ccSSjzP1.s:891    .text.shellWriteString:00000000 shellWriteString
C:\Users\HUAV\AppData\Local\Temp\ccSSjzP1.s:934    .rodata.shellSetUser.str1.4:00000000 $d
C:\Users\HUAV\AppData\Local\Temp\ccSSjzP1.s:945    .text.shellSetUser:00000000 $t
C:\Users\HUAV\AppData\Local\Temp\ccSSjzP1.s:951    .text.shellSetUser:00000000 shellSetUser
C:\Users\HUAV\AppData\Local\Temp\ccSSjzP1.s:1042   .text.shellSetUser:00000058 $d
C:\Users\HUAV\AppData\Local\Temp\ccSSjzP1.s:1048   .rodata.shellWriteCommandLine.str1.4:00000000 $d
C:\Users\HUAV\AppData\Local\Temp\ccSSjzP1.s:1064   .text.shellWriteCommandLine:00000000 $t
C:\Users\HUAV\AppData\Local\Temp\ccSSjzP1.s:1070   .text.shellWriteCommandLine:00000000 shellWriteCommandLine
C:\Users\HUAV\AppData\Local\Temp\ccSSjzP1.s:1153   .text.shellWriteCommandLine:0000004c $d
C:\Users\HUAV\AppData\Local\Temp\ccSSjzP1.s:1162   .rodata.shellCheckPassword.str1.4:00000000 $d
C:\Users\HUAV\AppData\Local\Temp\ccSSjzP1.s:1166   .text.shellCheckPassword:00000000 $t
C:\Users\HUAV\AppData\Local\Temp\ccSSjzP1.s:1172   .text.shellCheckPassword:00000000 shellCheckPassword
C:\Users\HUAV\AppData\Local\Temp\ccSSjzP1.s:1229   .text.shellCheckPassword:00000038 $d
C:\Users\HUAV\AppData\Local\Temp\ccSSjzP1.s:1235   .text.shellClear:00000000 $t
C:\Users\HUAV\AppData\Local\Temp\ccSSjzP1.s:1242   .text.shellClear:00000000 shellClear
C:\Users\HUAV\AppData\Local\Temp\ccSSjzP1.s:1270   .text.shellClear:00000010 $d
C:\Users\HUAV\AppData\Local\Temp\ccSSjzP1.s:1275   .text.shellPrint:00000000 $t
C:\Users\HUAV\AppData\Local\Temp\ccSSjzP1.s:1282   .text.shellPrint:00000000 shellPrint
C:\Users\HUAV\AppData\Local\Temp\ccSSjzP1.s:1352   .text.shellScan:00000000 $t
C:\Users\HUAV\AppData\Local\Temp\ccSSjzP1.s:1359   .text.shellScan:00000000 shellScan
C:\Users\HUAV\AppData\Local\Temp\ccSSjzP1.s:1500   .text.shellScan:00000074 $d
C:\Users\HUAV\AppData\Local\Temp\ccSSjzP1.s:1505   .text.shellCheckPermission:00000000 $t
C:\Users\HUAV\AppData\Local\Temp\ccSSjzP1.s:1512   .text.shellCheckPermission:00000000 shellCheckPermission
C:\Users\HUAV\AppData\Local\Temp\ccSSjzP1.s:1578   .text.shellToHex:00000000 $t
C:\Users\HUAV\AppData\Local\Temp\ccSSjzP1.s:1585   .text.shellToHex:00000000 shellToHex
C:\Users\HUAV\AppData\Local\Temp\ccSSjzP1.s:1651   .text.shellGetCommandName:00000000 $t
C:\Users\HUAV\AppData\Local\Temp\ccSSjzP1.s:1657   .text.shellGetCommandName:00000000 shellGetCommandName
C:\Users\HUAV\AppData\Local\Temp\ccSSjzP1.s:1755   .text.shellGetCommandName:00000040 $d
C:\Users\HUAV\AppData\Local\Temp\ccSSjzP1.s:1760   .text.shellToDec:00000000 $t
C:\Users\HUAV\AppData\Local\Temp\ccSSjzP1.s:1767   .text.shellToDec:00000000 shellToDec
ARM GAS  C:\Users\HUAV\AppData\Local\Temp\ccSSjzP1.s 			page 161


C:\Users\HUAV\AppData\Local\Temp\ccSSjzP1.s:1889   .text.shellToDec:0000005c $d
C:\Users\HUAV\AppData\Local\Temp\ccSSjzP1.s:1894   .rodata.shellWriteReturnValue.str1.4:00000000 $d
C:\Users\HUAV\AppData\Local\Temp\ccSSjzP1.s:1904   .text.shellWriteReturnValue:00000000 $t
C:\Users\HUAV\AppData\Local\Temp\ccSSjzP1.s:1910   .text.shellWriteReturnValue:00000000 shellWriteReturnValue
C:\Users\HUAV\AppData\Local\Temp\ccSSjzP1.s:2015   .text.shellWriteReturnValue:0000006c $d
C:\Users\HUAV\AppData\Local\Temp\ccSSjzP1.s:2023   .rodata.shellListItem.str1.4:00000000 $d
C:\Users\HUAV\AppData\Local\Temp\ccSSjzP1.s:2039   .text.shellListItem:00000000 $t
C:\Users\HUAV\AppData\Local\Temp\ccSSjzP1.s:2046   .text.shellListItem:00000000 shellListItem
C:\Users\HUAV\AppData\Local\Temp\ccSSjzP1.s:2170   .text.shellListItem:0000007c $d
C:\Users\HUAV\AppData\Local\Temp\ccSSjzP1.s:2179   .rodata.shellListCommand.str1.4:00000000 $d
C:\Users\HUAV\AppData\Local\Temp\ccSSjzP1.s:2183   .text.shellListCommand:00000000 $t
C:\Users\HUAV\AppData\Local\Temp\ccSSjzP1.s:2190   .text.shellListCommand:00000000 shellListCommand
C:\Users\HUAV\AppData\Local\Temp\ccSSjzP1.s:2272   .text.shellListCommand:00000044 $d
C:\Users\HUAV\AppData\Local\Temp\ccSSjzP1.s:2277   .text.shellCmds:00000000 $t
C:\Users\HUAV\AppData\Local\Temp\ccSSjzP1.s:2284   .text.shellCmds:00000000 shellCmds
C:\Users\HUAV\AppData\Local\Temp\ccSSjzP1.s:2312   .rodata.shellListVar.str1.4:00000000 $d
C:\Users\HUAV\AppData\Local\Temp\ccSSjzP1.s:2316   .text.shellListVar:00000000 $t
C:\Users\HUAV\AppData\Local\Temp\ccSSjzP1.s:2323   .text.shellListVar:00000000 shellListVar
C:\Users\HUAV\AppData\Local\Temp\ccSSjzP1.s:2408   .text.shellListVar:00000048 $d
C:\Users\HUAV\AppData\Local\Temp\ccSSjzP1.s:2413   .text.shellVars:00000000 $t
C:\Users\HUAV\AppData\Local\Temp\ccSSjzP1.s:2420   .text.shellVars:00000000 shellVars
C:\Users\HUAV\AppData\Local\Temp\ccSSjzP1.s:2448   .rodata.shellListUser.str1.4:00000000 $d
C:\Users\HUAV\AppData\Local\Temp\ccSSjzP1.s:2452   .text.shellListUser:00000000 $t
C:\Users\HUAV\AppData\Local\Temp\ccSSjzP1.s:2459   .text.shellListUser:00000000 shellListUser
C:\Users\HUAV\AppData\Local\Temp\ccSSjzP1.s:2541   .text.shellListUser:00000044 $d
C:\Users\HUAV\AppData\Local\Temp\ccSSjzP1.s:2546   .text.shellUsers:00000000 $t
C:\Users\HUAV\AppData\Local\Temp\ccSSjzP1.s:2553   .text.shellUsers:00000000 shellUsers
C:\Users\HUAV\AppData\Local\Temp\ccSSjzP1.s:2581   .rodata.shellListKey.str1.4:00000000 $d
C:\Users\HUAV\AppData\Local\Temp\ccSSjzP1.s:2585   .text.shellListKey:00000000 $t
C:\Users\HUAV\AppData\Local\Temp\ccSSjzP1.s:2592   .text.shellListKey:00000000 shellListKey
C:\Users\HUAV\AppData\Local\Temp\ccSSjzP1.s:2674   .text.shellListKey:00000044 $d
C:\Users\HUAV\AppData\Local\Temp\ccSSjzP1.s:2679   .text.shellKeys:00000000 $t
C:\Users\HUAV\AppData\Local\Temp\ccSSjzP1.s:2686   .text.shellKeys:00000000 shellKeys
C:\Users\HUAV\AppData\Local\Temp\ccSSjzP1.s:2714   .text.shellListAll:00000000 $t
C:\Users\HUAV\AppData\Local\Temp\ccSSjzP1.s:2721   .text.shellListAll:00000000 shellListAll
C:\Users\HUAV\AppData\Local\Temp\ccSSjzP1.s:2743   .rodata.shellDeleteCommandLine.str1.4:00000000 $d
C:\Users\HUAV\AppData\Local\Temp\ccSSjzP1.s:2747   .text.shellDeleteCommandLine:00000000 $t
C:\Users\HUAV\AppData\Local\Temp\ccSSjzP1.s:2754   .text.shellDeleteCommandLine:00000000 shellDeleteCommandLine
C:\Users\HUAV\AppData\Local\Temp\ccSSjzP1.s:2799   .text.shellDeleteCommandLine:0000001c $d
C:\Users\HUAV\AppData\Local\Temp\ccSSjzP1.s:2804   .text.shellClearCommandLine:00000000 $t
C:\Users\HUAV\AppData\Local\Temp\ccSSjzP1.s:2811   .text.shellClearCommandLine:00000000 shellClearCommandLine
C:\Users\HUAV\AppData\Local\Temp\ccSSjzP1.s:2874   .text.shellHistory:00000000 $t
C:\Users\HUAV\AppData\Local\Temp\ccSSjzP1.s:2880   .text.shellHistory:00000000 shellHistory
C:\Users\HUAV\AppData\Local\Temp\ccSSjzP1.s:3004   .text.shellHistory:00000094 $d
C:\Users\HUAV\AppData\Local\Temp\ccSSjzP1.s:3009   .text.shellUp:00000000 $t
C:\Users\HUAV\AppData\Local\Temp\ccSSjzP1.s:3016   .text.shellUp:00000000 shellUp
C:\Users\HUAV\AppData\Local\Temp\ccSSjzP1.s:3039   .text.shellDown:00000000 $t
C:\Users\HUAV\AppData\Local\Temp\ccSSjzP1.s:3046   .text.shellDown:00000000 shellDown
C:\Users\HUAV\AppData\Local\Temp\ccSSjzP1.s:3069   .text.shellTab:00000000 $t
C:\Users\HUAV\AppData\Local\Temp\ccSSjzP1.s:3076   .text.shellTab:00000000 shellTab
C:\Users\HUAV\AppData\Local\Temp\ccSSjzP1.s:3338   .text.shellTab:00000110 $d
C:\Users\HUAV\AppData\Local\Temp\ccSSjzP1.s:3344   .rodata.shellInsertByte.str1.4:00000000 $d
C:\Users\HUAV\AppData\Local\Temp\ccSSjzP1.s:3348   .text.shellInsertByte:00000000 $t
C:\Users\HUAV\AppData\Local\Temp\ccSSjzP1.s:3355   .text.shellInsertByte:00000000 shellInsertByte
C:\Users\HUAV\AppData\Local\Temp\ccSSjzP1.s:3588   .text.shellInsertByte:000000b8 $d
C:\Users\HUAV\AppData\Local\Temp\ccSSjzP1.s:3593   .text.shellDeleteByte:00000000 $t
C:\Users\HUAV\AppData\Local\Temp\ccSSjzP1.s:3600   .text.shellDeleteByte:00000000 shellDeleteByte
ARM GAS  C:\Users\HUAV\AppData\Local\Temp\ccSSjzP1.s 			page 162


C:\Users\HUAV\AppData\Local\Temp\ccSSjzP1.s:3845   .text.shellBackspace:00000000 $t
C:\Users\HUAV\AppData\Local\Temp\ccSSjzP1.s:3852   .text.shellBackspace:00000000 shellBackspace
C:\Users\HUAV\AppData\Local\Temp\ccSSjzP1.s:3875   .text.shellDelete:00000000 $t
C:\Users\HUAV\AppData\Local\Temp\ccSSjzP1.s:3882   .text.shellDelete:00000000 shellDelete
C:\Users\HUAV\AppData\Local\Temp\ccSSjzP1.s:3905   .text.shellSeekCommand:00000000 $t
C:\Users\HUAV\AppData\Local\Temp\ccSSjzP1.s:3912   .text.shellSeekCommand:00000000 shellSeekCommand
C:\Users\HUAV\AppData\Local\Temp\ccSSjzP1.s:4038   .rodata.shellInit.str1.4:00000000 $d
C:\Users\HUAV\AppData\Local\Temp\ccSSjzP1.s:4042   .text.shellInit:00000000 $t
C:\Users\HUAV\AppData\Local\Temp\ccSSjzP1.s:4049   .text.shellInit:00000000 shellInit
C:\Users\HUAV\AppData\Local\Temp\ccSSjzP1.s:4173   .text.shellInit:00000080 $d
C:\Users\HUAV\AppData\Local\Temp\ccSSjzP1.s:4181   .rodata.shellHelp.str1.4:00000000 $d
C:\Users\HUAV\AppData\Local\Temp\ccSSjzP1.s:4188   .text.shellHelp:00000000 $t
C:\Users\HUAV\AppData\Local\Temp\ccSSjzP1.s:4195   .text.shellHelp:00000000 shellHelp
C:\Users\HUAV\AppData\Local\Temp\ccSSjzP1.s:4305   .text.shellHelp:00000070 $d
C:\Users\HUAV\AppData\Local\Temp\ccSSjzP1.s:4313   .text.shellGetVarValue:00000000 $t
C:\Users\HUAV\AppData\Local\Temp\ccSSjzP1.s:4320   .text.shellGetVarValue:00000000 shellGetVarValue
C:\Users\HUAV\AppData\Local\Temp\ccSSjzP1.s:4344   .text.shellGetVarValue:00000012 $d
C:\Users\HUAV\AppData\Local\Temp\ccSSjzP1.s:4350   .text.shellGetVarValue:00000018 $t
C:\Users\HUAV\AppData\Local\Temp\ccSSjzP1.s:4426   .rodata.shellShowVar.str1.4:00000000 $d
C:\Users\HUAV\AppData\Local\Temp\ccSSjzP1.s:4433   .text.shellShowVar:00000000 $t
C:\Users\HUAV\AppData\Local\Temp\ccSSjzP1.s:4439   .text.shellShowVar:00000000 shellShowVar
C:\Users\HUAV\AppData\Local\Temp\ccSSjzP1.s:4596   .text.shellShowVar:000000a8 $d
C:\Users\HUAV\AppData\Local\Temp\ccSSjzP1.s:4605   .rodata.shellSetVarValue.str1.4:00000000 $d
C:\Users\HUAV\AppData\Local\Temp\ccSSjzP1.s:4612   .text.shellSetVarValue:00000000 $t
C:\Users\HUAV\AppData\Local\Temp\ccSSjzP1.s:4619   .text.shellSetVarValue:00000000 shellSetVarValue
C:\Users\HUAV\AppData\Local\Temp\ccSSjzP1.s:4652   .text.shellSetVarValue:0000001e $d
C:\Users\HUAV\AppData\Local\Temp\ccSSjzP1.s:4658   .text.shellSetVarValue:00000024 $t
C:\Users\HUAV\AppData\Local\Temp\ccSSjzP1.s:4753   .text.shellSetVarValue:00000070 $d
C:\Users\HUAV\AppData\Local\Temp\ccSSjzP1.s:4759   .rodata.shellSetVar.str1.4:00000000 $d
C:\Users\HUAV\AppData\Local\Temp\ccSSjzP1.s:4766   .text.shellSetVar:00000000 $t
C:\Users\HUAV\AppData\Local\Temp\ccSSjzP1.s:4773   .text.shellSetVar:00000000 shellSetVar
C:\Users\HUAV\AppData\Local\Temp\ccSSjzP1.s:4871   .text.shellSetVar:0000005c $d
C:\Users\HUAV\AppData\Local\Temp\ccSSjzP1.s:4877   .text.shellRunCommand:00000000 $t
C:\Users\HUAV\AppData\Local\Temp\ccSSjzP1.s:4884   .text.shellRunCommand:00000000 shellRunCommand
C:\Users\HUAV\AppData\Local\Temp\ccSSjzP1.s:5021   .text.shellNormalInput:00000000 $t
C:\Users\HUAV\AppData\Local\Temp\ccSSjzP1.s:5028   .text.shellNormalInput:00000000 shellNormalInput
C:\Users\HUAV\AppData\Local\Temp\ccSSjzP1.s:5055   .text.shellExec:00000000 $t
C:\Users\HUAV\AppData\Local\Temp\ccSSjzP1.s:5062   .text.shellExec:00000000 shellExec
C:\Users\HUAV\AppData\Local\Temp\ccSSjzP1.s:5168   .text.shellExec:00000060 $d
C:\Users\HUAV\AppData\Local\Temp\ccSSjzP1.s:5174   .text.shellEnter:00000000 $t
C:\Users\HUAV\AppData\Local\Temp\ccSSjzP1.s:5181   .text.shellEnter:00000000 shellEnter
C:\Users\HUAV\AppData\Local\Temp\ccSSjzP1.s:5210   .text.shellHandler:00000000 $t
C:\Users\HUAV\AppData\Local\Temp\ccSSjzP1.s:5217   .text.shellHandler:00000000 shellHandler
C:\Users\HUAV\AppData\Local\Temp\ccSSjzP1.s:5435   .text.shellHandler:000000d4 $d
C:\Users\HUAV\AppData\Local\Temp\ccSSjzP1.s:5440   .text.shellTask:00000000 $t
C:\Users\HUAV\AppData\Local\Temp\ccSSjzP1.s:5447   .text.shellTask:00000000 shellTask
C:\Users\HUAV\AppData\Local\Temp\ccSSjzP1.s:5510   .text.shellRun:00000000 $t
C:\Users\HUAV\AppData\Local\Temp\ccSSjzP1.s:5517   .text.shellRun:00000000 shellRun
C:\Users\HUAV\AppData\Local\Temp\ccSSjzP1.s:5609   .text.shellRun:00000058 $d
C:\Users\HUAV\AppData\Local\Temp\ccSSjzP1.s:5838   shellCommand:00000000 shellCommandclear
C:\Users\HUAV\AppData\Local\Temp\ccSSjzP1.s:5790   .rodata.shellDescclear:00000000 shellDescclear
C:\Users\HUAV\AppData\Local\Temp\ccSSjzP1.s:5682   .rodata.shellCmdclear:00000000 shellCmdclear
C:\Users\HUAV\AppData\Local\Temp\ccSSjzP1.s:5845   shellCommand:00000010 shellCommandkeys
C:\Users\HUAV\AppData\Local\Temp\ccSSjzP1.s:5808   .rodata.shellDesckeys:00000000 shellDesckeys
C:\Users\HUAV\AppData\Local\Temp\ccSSjzP1.s:5700   .rodata.shellCmdkeys:00000000 shellCmdkeys
C:\Users\HUAV\AppData\Local\Temp\ccSSjzP1.s:5852   shellCommand:00000020 shellCommandvars
C:\Users\HUAV\AppData\Local\Temp\ccSSjzP1.s:5826   .rodata.shellDescvars:00000000 shellDescvars
ARM GAS  C:\Users\HUAV\AppData\Local\Temp\ccSSjzP1.s 			page 163


C:\Users\HUAV\AppData\Local\Temp\ccSSjzP1.s:5718   .rodata.shellCmdvars:00000000 shellCmdvars
C:\Users\HUAV\AppData\Local\Temp\ccSSjzP1.s:5859   shellCommand:00000030 shellCommandcmds
C:\Users\HUAV\AppData\Local\Temp\ccSSjzP1.s:5796   .rodata.shellDesccmds:00000000 shellDesccmds
C:\Users\HUAV\AppData\Local\Temp\ccSSjzP1.s:5688   .rodata.shellCmdcmds:00000000 shellCmdcmds
C:\Users\HUAV\AppData\Local\Temp\ccSSjzP1.s:5866   shellCommand:00000040 shellCommandusers
C:\Users\HUAV\AppData\Local\Temp\ccSSjzP1.s:5820   .rodata.shellDescusers:00000000 shellDescusers
C:\Users\HUAV\AppData\Local\Temp\ccSSjzP1.s:5712   .rodata.shellCmdusers:00000000 shellCmdusers
C:\Users\HUAV\AppData\Local\Temp\ccSSjzP1.s:5873   shellCommand:00000050 shellCommandhelp
C:\Users\HUAV\AppData\Local\Temp\ccSSjzP1.s:5802   .rodata.shellDeschelp:00000000 shellDeschelp
C:\Users\HUAV\AppData\Local\Temp\ccSSjzP1.s:5694   .rodata.shellCmdhelp:00000000 shellCmdhelp
C:\Users\HUAV\AppData\Local\Temp\ccSSjzP1.s:5880   shellCommand:00000060 shellKey0x0D000000
C:\Users\HUAV\AppData\Local\Temp\ccSSjzP1.s:5748   .rodata.shellDesc0x0D000000:00000000 shellDesc0x0D000000
C:\Users\HUAV\AppData\Local\Temp\ccSSjzP1.s:5887   shellCommand:00000070 shellKey0x0A000000
C:\Users\HUAV\AppData\Local\Temp\ccSSjzP1.s:5742   .rodata.shellDesc0x0A000000:00000000 shellDesc0x0A000000
C:\Users\HUAV\AppData\Local\Temp\ccSSjzP1.s:5894   shellCommand:00000080 shellKey0x1B5B337E
C:\Users\HUAV\AppData\Local\Temp\ccSSjzP1.s:5754   .rodata.shellDesc0x1B5B337E:00000000 shellDesc0x1B5B337E
C:\Users\HUAV\AppData\Local\Temp\ccSSjzP1.s:5901   shellCommand:00000090 shellKey0x7F000000
C:\Users\HUAV\AppData\Local\Temp\ccSSjzP1.s:5784   .rodata.shellDesc0x7F000000:00000000 shellDesc0x7F000000
C:\Users\HUAV\AppData\Local\Temp\ccSSjzP1.s:5908   shellCommand:000000a0 shellKey0x08000000
C:\Users\HUAV\AppData\Local\Temp\ccSSjzP1.s:5730   .rodata.shellDesc0x08000000:00000000 shellDesc0x08000000
C:\Users\HUAV\AppData\Local\Temp\ccSSjzP1.s:5915   shellCommand:000000b0 shellKey0x09000000
C:\Users\HUAV\AppData\Local\Temp\ccSSjzP1.s:5736   .rodata.shellDesc0x09000000:00000000 shellDesc0x09000000
C:\Users\HUAV\AppData\Local\Temp\ccSSjzP1.s:5922   shellCommand:000000c0 shellKey0x1B5B4400
C:\Users\HUAV\AppData\Local\Temp\ccSSjzP1.s:5778   .rodata.shellDesc0x1B5B4400:00000000 shellDesc0x1B5B4400
C:\Users\HUAV\AppData\Local\Temp\ccSSjzP1.s:5929   shellCommand:000000d0 shellKey0x1B5B4300
C:\Users\HUAV\AppData\Local\Temp\ccSSjzP1.s:5772   .rodata.shellDesc0x1B5B4300:00000000 shellDesc0x1B5B4300
C:\Users\HUAV\AppData\Local\Temp\ccSSjzP1.s:5936   shellCommand:000000e0 shellKey0x1B5B4200
C:\Users\HUAV\AppData\Local\Temp\ccSSjzP1.s:5766   .rodata.shellDesc0x1B5B4200:00000000 shellDesc0x1B5B4200
C:\Users\HUAV\AppData\Local\Temp\ccSSjzP1.s:5943   shellCommand:000000f0 shellKey0x1B5B4100
C:\Users\HUAV\AppData\Local\Temp\ccSSjzP1.s:5760   .rodata.shellDesc0x1B5B4100:00000000 shellDesc0x1B5B4100
C:\Users\HUAV\AppData\Local\Temp\ccSSjzP1.s:5950   shellCommand:00000100 shellCommandsetVar
C:\Users\HUAV\AppData\Local\Temp\ccSSjzP1.s:5814   .rodata.shellDescsetVar:00000000 shellDescsetVar
C:\Users\HUAV\AppData\Local\Temp\ccSSjzP1.s:5706   .rodata.shellCmdsetVar:00000000 shellCmdsetVar
C:\Users\HUAV\AppData\Local\Temp\ccSSjzP1.s:5957   shellCommand:00000110 shellUserDefault
C:\Users\HUAV\AppData\Local\Temp\ccSSjzP1.s:5724   .rodata.shellDesDefaultUser:00000000 shellDesDefaultUser
C:\Users\HUAV\AppData\Local\Temp\ccSSjzP1.s:5832   .rodata.shellPasswordDefaultUser:00000000 shellPasswordDefaultUser
C:\Users\HUAV\AppData\Local\Temp\ccSSjzP1.s:5676   .rodata.shellCmdDefaultUser:00000000 shellCmdDefaultUser
C:\Users\HUAV\AppData\Local\Temp\ccSSjzP1.s:5659   .bss.buffer.0:00000000 $d
C:\Users\HUAV\AppData\Local\Temp\ccSSjzP1.s:5663   .bss.buffer.0:00000000 buffer.0
C:\Users\HUAV\AppData\Local\Temp\ccSSjzP1.s:5666   .bss.shellList:00000000 $d
C:\Users\HUAV\AppData\Local\Temp\ccSSjzP1.s:5670   .bss.shellList:00000000 shellList
C:\Users\HUAV\AppData\Local\Temp\ccSSjzP1.s:5673   .rodata.shellCmdDefaultUser:00000000 $d
C:\Users\HUAV\AppData\Local\Temp\ccSSjzP1.s:5679   .rodata.shellCmdclear:00000000 $d
C:\Users\HUAV\AppData\Local\Temp\ccSSjzP1.s:5685   .rodata.shellCmdcmds:00000000 $d
C:\Users\HUAV\AppData\Local\Temp\ccSSjzP1.s:5691   .rodata.shellCmdhelp:00000000 $d
C:\Users\HUAV\AppData\Local\Temp\ccSSjzP1.s:5697   .rodata.shellCmdkeys:00000000 $d
C:\Users\HUAV\AppData\Local\Temp\ccSSjzP1.s:5703   .rodata.shellCmdsetVar:00000000 $d
C:\Users\HUAV\AppData\Local\Temp\ccSSjzP1.s:5709   .rodata.shellCmdusers:00000000 $d
C:\Users\HUAV\AppData\Local\Temp\ccSSjzP1.s:5715   .rodata.shellCmdvars:00000000 $d
C:\Users\HUAV\AppData\Local\Temp\ccSSjzP1.s:5721   .rodata.shellDesDefaultUser:00000000 $d
C:\Users\HUAV\AppData\Local\Temp\ccSSjzP1.s:5727   .rodata.shellDesc0x08000000:00000000 $d
C:\Users\HUAV\AppData\Local\Temp\ccSSjzP1.s:5733   .rodata.shellDesc0x09000000:00000000 $d
C:\Users\HUAV\AppData\Local\Temp\ccSSjzP1.s:5739   .rodata.shellDesc0x0A000000:00000000 $d
C:\Users\HUAV\AppData\Local\Temp\ccSSjzP1.s:5745   .rodata.shellDesc0x0D000000:00000000 $d
C:\Users\HUAV\AppData\Local\Temp\ccSSjzP1.s:5751   .rodata.shellDesc0x1B5B337E:00000000 $d
C:\Users\HUAV\AppData\Local\Temp\ccSSjzP1.s:5757   .rodata.shellDesc0x1B5B4100:00000000 $d
C:\Users\HUAV\AppData\Local\Temp\ccSSjzP1.s:5763   .rodata.shellDesc0x1B5B4200:00000000 $d
ARM GAS  C:\Users\HUAV\AppData\Local\Temp\ccSSjzP1.s 			page 164


C:\Users\HUAV\AppData\Local\Temp\ccSSjzP1.s:5769   .rodata.shellDesc0x1B5B4300:00000000 $d
C:\Users\HUAV\AppData\Local\Temp\ccSSjzP1.s:5775   .rodata.shellDesc0x1B5B4400:00000000 $d
C:\Users\HUAV\AppData\Local\Temp\ccSSjzP1.s:5781   .rodata.shellDesc0x7F000000:00000000 $d
C:\Users\HUAV\AppData\Local\Temp\ccSSjzP1.s:5787   .rodata.shellDescclear:00000000 $d
C:\Users\HUAV\AppData\Local\Temp\ccSSjzP1.s:5793   .rodata.shellDesccmds:00000000 $d
C:\Users\HUAV\AppData\Local\Temp\ccSSjzP1.s:5799   .rodata.shellDeschelp:00000000 $d
C:\Users\HUAV\AppData\Local\Temp\ccSSjzP1.s:5805   .rodata.shellDesckeys:00000000 $d
C:\Users\HUAV\AppData\Local\Temp\ccSSjzP1.s:5811   .rodata.shellDescsetVar:00000000 $d
C:\Users\HUAV\AppData\Local\Temp\ccSSjzP1.s:5817   .rodata.shellDescusers:00000000 $d
C:\Users\HUAV\AppData\Local\Temp\ccSSjzP1.s:5823   .rodata.shellDescvars:00000000 $d
C:\Users\HUAV\AppData\Local\Temp\ccSSjzP1.s:5829   .rodata.shellPasswordDefaultUser:00000000 $d
C:\Users\HUAV\AppData\Local\Temp\ccSSjzP1.s:5835   shellCommand:00000000 $d

UNDEFINED SYMBOLS
strcmp
strlen
vsnprintf
vsscanf
strncmp
_shell_command_start
_shell_command_end
shellExtRun
