ARM GAS  C:\Users\HUAV\AppData\Local\Temp\ccBfvIcs.s 			page 1


   1              		.cpu cortex-m7
   2              		.eabi_attribute 28, 1
   3              		.eabi_attribute 20, 1
   4              		.eabi_attribute 21, 1
   5              		.eabi_attribute 23, 3
   6              		.eabi_attribute 24, 1
   7              		.eabi_attribute 25, 1
   8              		.eabi_attribute 26, 1
   9              		.eabi_attribute 30, 1
  10              		.eabi_attribute 34, 1
  11              		.eabi_attribute 18, 4
  12              		.file	"shell.c"
  13              		.text
  14              	.Ltext0:
  15              		.cfi_sections	.debug_frame
  16              		.section	.text.shellAdd,"ax",%progbits
  17              		.align	1
  18              		.arch armv7e-m
  19              		.syntax unified
  20              		.thumb
  21              		.thumb_func
  22              		.fpu fpv5-d16
  24              	shellAdd:
  25              	.LVL0:
  26              	.LFB4:
  27              		.file 1 "System/shell/shell.c"
   1:System/shell/shell.c **** /**
   2:System/shell/shell.c ****  * @file shell.c
   3:System/shell/shell.c ****  * @author Letter (NevermindZZT@gmail.com)
   4:System/shell/shell.c ****  * @version 3.0.0
   5:System/shell/shell.c ****  * @date 2019-12-30
   6:System/shell/shell.c ****  *
   7:System/shell/shell.c ****  * @copyright (c) 2020 Letter
   8:System/shell/shell.c ****  *
   9:System/shell/shell.c ****  */
  10:System/shell/shell.c **** 
  11:System/shell/shell.c **** #include "shell.h"
  12:System/shell/shell.c **** #include "string.h"
  13:System/shell/shell.c **** #include "stdio.h"
  14:System/shell/shell.c **** #include "stdarg.h"
  15:System/shell/shell.c **** #include "shell_ext.h"
  16:System/shell/shell.c **** 
  17:System/shell/shell.c **** #if SHELL_USING_CMD_EXPORT == 1
  18:System/shell/shell.c **** /**
  19:System/shell/shell.c ****  * @brief 默认用户
  20:System/shell/shell.c ****  */
  21:System/shell/shell.c **** const char shellCmdDefaultUser[] = SHELL_DEFAULT_USER;
  22:System/shell/shell.c **** const char shellPasswordDefaultUser[] = SHELL_DEFAULT_USER_PASSWORD;
  23:System/shell/shell.c **** const char shellDesDefaultUser[] = "default user";
  24:System/shell/shell.c **** const ShellCommand shellUserDefault SECTION("shellCommand") =
  25:System/shell/shell.c ****     {
  26:System/shell/shell.c ****         .attr.value = SHELL_CMD_PERMISSION(0) | SHELL_CMD_TYPE(SHELL_TYPE_USER),
  27:System/shell/shell.c ****         .data.user.name = shellCmdDefaultUser,
  28:System/shell/shell.c ****         .data.user.password = shellPasswordDefaultUser,
  29:System/shell/shell.c ****         .data.user.desc = shellDesDefaultUser};
  30:System/shell/shell.c **** #endif
  31:System/shell/shell.c **** 
ARM GAS  C:\Users\HUAV\AppData\Local\Temp\ccBfvIcs.s 			page 2


  32:System/shell/shell.c **** #if SHELL_USING_CMD_EXPORT == 1
  33:System/shell/shell.c **** #if defined(__CC_ARM) || (defined(__ARMCC_VERSION) && __ARMCC_VERSION >= 6000000)
  34:System/shell/shell.c **** extern const unsigned int shellCommand$$Base;
  35:System/shell/shell.c **** extern const unsigned int shellCommand$$Limit;
  36:System/shell/shell.c **** #elif defined(__ICCARM__) || defined(__ICCRX__)
  37:System/shell/shell.c **** #pragma section = "shellCommand"
  38:System/shell/shell.c **** #elif defined(__GNUC__)
  39:System/shell/shell.c **** extern const unsigned int _shell_command_start;
  40:System/shell/shell.c **** extern const unsigned int _shell_command_end;
  41:System/shell/shell.c **** #endif
  42:System/shell/shell.c **** #else
  43:System/shell/shell.c **** extern const ShellCommand shellCommandList[];
  44:System/shell/shell.c **** extern const unsigned short shellCommandCount;
  45:System/shell/shell.c **** #endif
  46:System/shell/shell.c **** 
  47:System/shell/shell.c **** /**
  48:System/shell/shell.c ****  * @brief shell 常量文本索引
  49:System/shell/shell.c ****  */
  50:System/shell/shell.c **** enum
  51:System/shell/shell.c **** {
  52:System/shell/shell.c **** #if SHELL_SHOW_INFO == 1
  53:System/shell/shell.c ****     SHELL_TEXT_INFO, /**< shell信息 */
  54:System/shell/shell.c **** #endif
  55:System/shell/shell.c ****     SHELL_TEXT_CMD_TOO_LONG,                /**< 命令过长 */
  56:System/shell/shell.c ****     SHELL_TEXT_CMD_LIST,                    /**< 可执行命令列表标题 */
  57:System/shell/shell.c ****     SHELL_TEXT_VAR_LIST,                    /**< 变量列表标题 */
  58:System/shell/shell.c ****     SHELL_TEXT_USER_LIST,                   /**< 用户列表标题 */
  59:System/shell/shell.c ****     SHELL_TEXT_KEY_LIST,                    /**< 按键列表标题 */
  60:System/shell/shell.c ****     SHELL_TEXT_CMD_NOT_FOUND,               /**< 命令未找到 */
  61:System/shell/shell.c ****     SHELL_TEXT_POINT_CANNOT_MODIFY,         /**< 指针变量不允许修改 */
  62:System/shell/shell.c ****     SHELL_TEXT_VAR_READ_ONLY_CANNOT_MODIFY, /**< 只读变量不允许修改 */
  63:System/shell/shell.c ****     SHELL_TEXT_NOT_VAR,                     /**< 命令不是变量 */
  64:System/shell/shell.c ****     SHELL_TEXT_VAR_NOT_FOUND,               /**< 变量未找到 */
  65:System/shell/shell.c ****     SHELL_TEXT_HELP_HEADER,                 /**< help头 */
  66:System/shell/shell.c ****     SHELL_TEXT_PASSWORD_HINT,               /**< 密码输入提示 */
  67:System/shell/shell.c ****     SHELL_TEXT_PASSWORD_ERROR,              /**< 密码错误 */
  68:System/shell/shell.c ****     SHELL_TEXT_CLEAR_CONSOLE,               /**< 清空控制台 */
  69:System/shell/shell.c ****     SHELL_TEXT_CLEAR_LINE,                  /**< 清空当前行 */
  70:System/shell/shell.c ****     SHELL_TEXT_TYPE_CMD,                    /**< 命令类型 */
  71:System/shell/shell.c ****     SHELL_TEXT_TYPE_VAR,                    /**< 变量类型 */
  72:System/shell/shell.c ****     SHELL_TEXT_TYPE_USER,                   /**< 用户类型 */
  73:System/shell/shell.c ****     SHELL_TEXT_TYPE_KEY,                    /**< 按键类型 */
  74:System/shell/shell.c ****     SHELL_TEXT_TYPE_NONE,                   /**< 非法类型 */
  75:System/shell/shell.c **** #if SHELL_EXEC_UNDEF_FUNC == 1
  76:System/shell/shell.c ****     SHELL_TEXT_PARAM_ERROR, /**< 参数错误 */
  77:System/shell/shell.c **** #endif
  78:System/shell/shell.c **** };
  79:System/shell/shell.c **** 
  80:System/shell/shell.c **** static const char *shellText[] =
  81:System/shell/shell.c ****     {
  82:System/shell/shell.c **** #if SHELL_SHOW_INFO == 1
  83:System/shell/shell.c ****         [SHELL_TEXT_INFO] =
  84:System/shell/shell.c ****             "\r\n\r\n"
  85:System/shell/shell.c ****             "/************  BitRtos  ************\\r\n\r\n"
  86:System/shell/shell.c ****             "Team Mate:        8_B!T0\r\n"
  87:System/shell/shell.c ****             "                  WHY\r\n"
  88:System/shell/shell.c ****             "\r\n"
ARM GAS  C:\Users\HUAV\AppData\Local\Temp\ccBfvIcs.s 			page 3


  89:System/shell/shell.c ****             "Build:            "__DATE__
  90:System/shell/shell.c ****             " "__TIME__
  91:System/shell/shell.c ****             "\r\n"
  92:System/shell/shell.c ****             "Shell   Version:  " SHELL_VERSION "\r\n",
  93:System/shell/shell.c **** #endif
  94:System/shell/shell.c ****         [SHELL_TEXT_CMD_TOO_LONG] =
  95:System/shell/shell.c ****             "\r\nWarning: Command is too long\r\n",
  96:System/shell/shell.c ****         [SHELL_TEXT_CMD_LIST] =
  97:System/shell/shell.c ****             "\r\nCommand List:\r\n",
  98:System/shell/shell.c ****         [SHELL_TEXT_VAR_LIST] =
  99:System/shell/shell.c ****             "\r\nVar List:\r\n",
 100:System/shell/shell.c ****         [SHELL_TEXT_USER_LIST] =
 101:System/shell/shell.c ****             "\r\nUser List:\r\n",
 102:System/shell/shell.c ****         [SHELL_TEXT_KEY_LIST] =
 103:System/shell/shell.c ****             "\r\nKey List:\r\n",
 104:System/shell/shell.c ****         [SHELL_TEXT_CMD_NOT_FOUND] =
 105:System/shell/shell.c ****             "Command not Found\r\n",
 106:System/shell/shell.c ****         [SHELL_TEXT_POINT_CANNOT_MODIFY] =
 107:System/shell/shell.c ****             "can't set pointer\r\n",
 108:System/shell/shell.c ****         [SHELL_TEXT_VAR_READ_ONLY_CANNOT_MODIFY] =
 109:System/shell/shell.c ****             "can't set read only var\r\n",
 110:System/shell/shell.c ****         [SHELL_TEXT_NOT_VAR] =
 111:System/shell/shell.c ****             " is not a var\r\n",
 112:System/shell/shell.c ****         [SHELL_TEXT_VAR_NOT_FOUND] =
 113:System/shell/shell.c ****             "Var not Fount\r\n",
 114:System/shell/shell.c ****         [SHELL_TEXT_HELP_HEADER] =
 115:System/shell/shell.c ****             "command help of ",
 116:System/shell/shell.c ****         [SHELL_TEXT_PASSWORD_HINT] =
 117:System/shell/shell.c ****             "\r\nPlease input password:",
 118:System/shell/shell.c ****         [SHELL_TEXT_PASSWORD_ERROR] =
 119:System/shell/shell.c ****             "\r\npassword error\r\n",
 120:System/shell/shell.c ****         [SHELL_TEXT_CLEAR_CONSOLE] =
 121:System/shell/shell.c ****             "\033[2J\033[1H",
 122:System/shell/shell.c ****         [SHELL_TEXT_CLEAR_LINE] =
 123:System/shell/shell.c ****             "\033[2K\r",
 124:System/shell/shell.c ****         [SHELL_TEXT_TYPE_CMD] =
 125:System/shell/shell.c ****             "CMD \r\n",
 126:System/shell/shell.c ****         [SHELL_TEXT_TYPE_VAR] =
 127:System/shell/shell.c ****             "VAR",
 128:System/shell/shell.c ****         [SHELL_TEXT_TYPE_USER] =
 129:System/shell/shell.c ****             "USER",
 130:System/shell/shell.c ****         [SHELL_TEXT_TYPE_KEY] =
 131:System/shell/shell.c ****             "KEY",
 132:System/shell/shell.c ****         [SHELL_TEXT_TYPE_NONE] =
 133:System/shell/shell.c ****             "NONE",
 134:System/shell/shell.c **** #if SHELL_EXEC_UNDEF_FUNC == 1
 135:System/shell/shell.c ****         [SHELL_TEXT_PARAM_ERROR] =
 136:System/shell/shell.c ****             "Parameter error\r\n",
 137:System/shell/shell.c **** #endif
 138:System/shell/shell.c **** };
 139:System/shell/shell.c **** 
 140:System/shell/shell.c **** /**
 141:System/shell/shell.c ****  * @brief shell对象表
 142:System/shell/shell.c ****  */
 143:System/shell/shell.c **** static Shell *shellList[SHELL_MAX_NUMBER] = {NULL};
 144:System/shell/shell.c **** 
 145:System/shell/shell.c **** static void shellAdd(Shell *shell);
ARM GAS  C:\Users\HUAV\AppData\Local\Temp\ccBfvIcs.s 			page 4


 146:System/shell/shell.c **** static void shellWriteCommandLine(Shell *shell, unsigned char newline);
 147:System/shell/shell.c **** static void shellWriteReturnValue(Shell *shell, int value);
 148:System/shell/shell.c **** static int shellShowVar(Shell *shell, ShellCommand *command);
 149:System/shell/shell.c **** static void shellSetUser(Shell *shell, const ShellCommand *user);
 150:System/shell/shell.c **** ShellCommand *shellSeekCommand(Shell *shell,
 151:System/shell/shell.c ****                                const char *cmd,
 152:System/shell/shell.c ****                                ShellCommand *base,
 153:System/shell/shell.c ****                                unsigned short compareLength);
 154:System/shell/shell.c **** 
 155:System/shell/shell.c **** /**
 156:System/shell/shell.c ****  * @brief shell 初始化
 157:System/shell/shell.c ****  *
 158:System/shell/shell.c ****  * @param shell shell对象
 159:System/shell/shell.c ****  */
 160:System/shell/shell.c **** void shellInit(Shell *shell, char *buffer, unsigned short size)
 161:System/shell/shell.c **** {
 162:System/shell/shell.c ****     shell->parser.length = 0;
 163:System/shell/shell.c ****     shell->parser.cursor = 0;
 164:System/shell/shell.c ****     shell->history.offset = 0;
 165:System/shell/shell.c ****     shell->history.number = 0;
 166:System/shell/shell.c ****     shell->history.record = 0;
 167:System/shell/shell.c ****     shell->info.user = NULL;
 168:System/shell/shell.c ****     shell->status.isChecked = 1;
 169:System/shell/shell.c **** 
 170:System/shell/shell.c ****     shell->parser.buffer = buffer;
 171:System/shell/shell.c ****     shell->parser.bufferSize = size / (SHELL_HISTORY_MAX_NUMBER + 1);
 172:System/shell/shell.c ****     for (short i = 0; i < SHELL_HISTORY_MAX_NUMBER; i++)
 173:System/shell/shell.c ****     {
 174:System/shell/shell.c ****         shell->history.item[i] = buffer + shell->parser.bufferSize * (i + 1);
 175:System/shell/shell.c ****     }
 176:System/shell/shell.c **** 
 177:System/shell/shell.c **** #if SHELL_USING_CMD_EXPORT == 1
 178:System/shell/shell.c **** #if defined(__CC_ARM) || (defined(__ARMCC_VERSION) && __ARMCC_VERSION >= 6000000)
 179:System/shell/shell.c ****     shell->commandList.base = (ShellCommand *)(&shellCommand$$Base);
 180:System/shell/shell.c ****     shell->commandList.count = ((unsigned int)(&shellCommand$$Limit) - (unsigned int)(&shellCommand
 181:System/shell/shell.c **** 
 182:System/shell/shell.c **** #elif defined(__ICCARM__) || defined(__ICCRX__)
 183:System/shell/shell.c ****     shell->commandList.base = (ShellCommand *)(__section_begin("shellCommand"));
 184:System/shell/shell.c ****     shell->commandList.count = ((unsigned int)(__section_end("shellCommand")) - (unsigned int)(__se
 185:System/shell/shell.c **** #elif defined(__GNUC__)
 186:System/shell/shell.c ****     shell->commandList.base = (ShellCommand *)(&_shell_command_start);
 187:System/shell/shell.c ****     shell->commandList.count = ((unsigned int)(&_shell_command_end) - (unsigned int)(&_shell_comman
 188:System/shell/shell.c **** #else
 189:System/shell/shell.c **** #error not supported compiler, please use command table mode
 190:System/shell/shell.c **** #endif
 191:System/shell/shell.c **** #else
 192:System/shell/shell.c ****     shell->commandList.base = (ShellCommand *)shellCommandList;
 193:System/shell/shell.c ****     shell->commandList.count = shellCommandCount;
 194:System/shell/shell.c **** #endif
 195:System/shell/shell.c **** 
 196:System/shell/shell.c ****     shellAdd(shell);
 197:System/shell/shell.c **** 
 198:System/shell/shell.c ****     shellSetUser(shell, shellSeekCommand(shell,
 199:System/shell/shell.c ****                                          SHELL_DEFAULT_USER,
 200:System/shell/shell.c ****                                          shell->commandList.base,
 201:System/shell/shell.c ****                                          0));
 202:System/shell/shell.c ****     shellWriteCommandLine(shell, 1);
ARM GAS  C:\Users\HUAV\AppData\Local\Temp\ccBfvIcs.s 			page 5


 203:System/shell/shell.c **** }
 204:System/shell/shell.c **** 
 205:System/shell/shell.c **** /**
 206:System/shell/shell.c ****  * @brief 添加shell
 207:System/shell/shell.c ****  *
 208:System/shell/shell.c ****  * @param shell shell对象
 209:System/shell/shell.c ****  */
 210:System/shell/shell.c **** static void shellAdd(Shell *shell)
 211:System/shell/shell.c **** {
  28              		.loc 1 211 1 view -0
  29              		.cfi_startproc
  30              		@ args = 0, pretend = 0, frame = 0
  31              		@ frame_needed = 0, uses_anonymous_args = 0
  32              		@ link register save eliminated.
 212:System/shell/shell.c ****     for (short i = 0; i < SHELL_MAX_NUMBER; i++)
  33              		.loc 1 212 5 view .LVU1
  34              	.LBB2:
  35              		.loc 1 212 10 view .LVU2
  36              		.loc 1 212 16 is_stmt 0 view .LVU3
  37 0000 0023     		movs	r3, #0
  38              	.LVL1:
  39              	.L2:
  40              		.loc 1 212 23 is_stmt 1 discriminator 1 view .LVU4
  41              		.loc 1 212 5 is_stmt 0 discriminator 1 view .LVU5
  42 0002 042B     		cmp	r3, #4
  43 0004 0BDC     		bgt	.L6
 213:System/shell/shell.c ****     {
 214:System/shell/shell.c ****         if (shellList[i] == NULL)
  44              		.loc 1 214 9 is_stmt 1 view .LVU6
  45              		.loc 1 214 22 is_stmt 0 view .LVU7
  46 0006 1946     		mov	r1, r3
  47 0008 054A     		ldr	r2, .L8
  48 000a 52F82320 		ldr	r2, [r2, r3, lsl #2]
  49              		.loc 1 214 12 view .LVU8
  50 000e 12B1     		cbz	r2, .L7
 212:System/shell/shell.c ****     for (short i = 0; i < SHELL_MAX_NUMBER; i++)
  51              		.loc 1 212 45 is_stmt 1 discriminator 2 view .LVU9
 212:System/shell/shell.c ****     for (short i = 0; i < SHELL_MAX_NUMBER; i++)
  52              		.loc 1 212 46 is_stmt 0 discriminator 2 view .LVU10
  53 0010 0133     		adds	r3, r3, #1
  54              	.LVL2:
 212:System/shell/shell.c ****     for (short i = 0; i < SHELL_MAX_NUMBER; i++)
  55              		.loc 1 212 46 discriminator 2 view .LVU11
  56 0012 1BB2     		sxth	r3, r3
  57              	.LVL3:
 212:System/shell/shell.c ****     for (short i = 0; i < SHELL_MAX_NUMBER; i++)
  58              		.loc 1 212 46 discriminator 2 view .LVU12
  59 0014 F5E7     		b	.L2
  60              	.L7:
 215:System/shell/shell.c ****         {
 216:System/shell/shell.c ****             shellList[i] = shell;
  61              		.loc 1 216 13 is_stmt 1 view .LVU13
  62              		.loc 1 216 26 is_stmt 0 view .LVU14
  63 0016 024B     		ldr	r3, .L8
  64              	.LVL4:
  65              		.loc 1 216 26 view .LVU15
  66 0018 43F82100 		str	r0, [r3, r1, lsl #2]
ARM GAS  C:\Users\HUAV\AppData\Local\Temp\ccBfvIcs.s 			page 6


 217:System/shell/shell.c ****             return;
  67              		.loc 1 217 13 is_stmt 1 view .LVU16
  68 001c 7047     		bx	lr
  69              	.LVL5:
  70              	.L6:
  71              		.loc 1 217 13 is_stmt 0 view .LVU17
  72              	.LBE2:
 218:System/shell/shell.c ****         }
 219:System/shell/shell.c ****     }
 220:System/shell/shell.c **** }
  73              		.loc 1 220 1 view .LVU18
  74 001e 7047     		bx	lr
  75              	.L9:
  76              		.align	2
  77              	.L8:
  78 0020 00000000 		.word	.LANCHOR0
  79              		.cfi_endproc
  80              	.LFE4:
  82              		.section	.text.shellStringCopy,"ax",%progbits
  83              		.align	1
  84              		.syntax unified
  85              		.thumb
  86              		.thumb_func
  87              		.fpu fpv5-d16
  89              	shellStringCopy:
  90              	.LVL6:
  91              	.LFB15:
 221:System/shell/shell.c **** 
 222:System/shell/shell.c **** /**
 223:System/shell/shell.c ****  * @brief 获取当前活动shell
 224:System/shell/shell.c ****  *
 225:System/shell/shell.c ****  * @return Shell* 当前活动shell对象
 226:System/shell/shell.c ****  */
 227:System/shell/shell.c **** Shell *shellGetCurrent(void)
 228:System/shell/shell.c **** {
 229:System/shell/shell.c ****     for (short i = 0; i < SHELL_MAX_NUMBER; i++)
 230:System/shell/shell.c ****     {
 231:System/shell/shell.c ****         if (shellList[i] && shellList[i]->status.isActive)
 232:System/shell/shell.c ****         {
 233:System/shell/shell.c ****             return shellList[i];
 234:System/shell/shell.c ****         }
 235:System/shell/shell.c ****     }
 236:System/shell/shell.c ****     return NULL;
 237:System/shell/shell.c **** }
 238:System/shell/shell.c **** 
 239:System/shell/shell.c **** /**
 240:System/shell/shell.c ****  * @brief shell写字符
 241:System/shell/shell.c ****  *
 242:System/shell/shell.c ****  * @param shell shell对象
 243:System/shell/shell.c ****  * @param data 字符数据
 244:System/shell/shell.c ****  */
 245:System/shell/shell.c **** void shellWriteByte(Shell *shell, const char data)
 246:System/shell/shell.c **** {
 247:System/shell/shell.c ****     shell->write(&data, sizeof(data));
 248:System/shell/shell.c **** }
 249:System/shell/shell.c **** 
 250:System/shell/shell.c **** /**
ARM GAS  C:\Users\HUAV\AppData\Local\Temp\ccBfvIcs.s 			page 7


 251:System/shell/shell.c ****  * @brief shell 写字符串
 252:System/shell/shell.c ****  *
 253:System/shell/shell.c ****  * @param shell shell对象
 254:System/shell/shell.c ****  * @param string 字符串数据
 255:System/shell/shell.c ****  *
 256:System/shell/shell.c ****  * @return unsigned short 写入字符的数量
 257:System/shell/shell.c ****  */
 258:System/shell/shell.c **** unsigned short shellWriteString(Shell *shell, const char *string)
 259:System/shell/shell.c **** {
 260:System/shell/shell.c ****     unsigned short count = 0;
 261:System/shell/shell.c ****     SHELL_ASSERT(shell->write, return 0);
 262:System/shell/shell.c **** 
 263:System/shell/shell.c ****     shell->write(string, strlen(string));
 264:System/shell/shell.c ****     return count;
 265:System/shell/shell.c **** }
 266:System/shell/shell.c **** 
 267:System/shell/shell.c **** /**
 268:System/shell/shell.c ****  * @brief shell 写命令描述字符串
 269:System/shell/shell.c ****  *
 270:System/shell/shell.c ****  * @param shell shell对象
 271:System/shell/shell.c ****  * @param string 字符串数据
 272:System/shell/shell.c ****  *
 273:System/shell/shell.c ****  * @return unsigned short 写入字符的数量
 274:System/shell/shell.c ****  */
 275:System/shell/shell.c **** static unsigned short shellWriteCommandDesc(Shell *shell, const char *string)
 276:System/shell/shell.c **** {
 277:System/shell/shell.c ****     const char dot = '.';
 278:System/shell/shell.c ****     unsigned short count = 0;
 279:System/shell/shell.c ****     SHELL_ASSERT(shell->write, return 0);
 280:System/shell/shell.c ****     while (*string && *string != '\r' && *string != '\n' && count < 36)
 281:System/shell/shell.c ****     {
 282:System/shell/shell.c ****         shell->write(*string++, 1);
 283:System/shell/shell.c ****         count++;
 284:System/shell/shell.c ****         if (count >= 36 && *(string + 1))
 285:System/shell/shell.c ****         {
 286:System/shell/shell.c ****             shell->write(&dot, sizeof(dot));
 287:System/shell/shell.c ****             shell->write(&dot, sizeof(dot));
 288:System/shell/shell.c ****             shell->write(&dot, sizeof(dot));
 289:System/shell/shell.c ****         }
 290:System/shell/shell.c ****     }
 291:System/shell/shell.c ****     return count;
 292:System/shell/shell.c **** }
 293:System/shell/shell.c **** 
 294:System/shell/shell.c **** /**
 295:System/shell/shell.c ****  * @brief shell写命令提示符
 296:System/shell/shell.c ****  *
 297:System/shell/shell.c ****  * @param shell shell对象
 298:System/shell/shell.c ****  * @param newline 新行
 299:System/shell/shell.c ****  *
 300:System/shell/shell.c ****  */
 301:System/shell/shell.c **** static void shellWriteCommandLine(Shell *shell, unsigned char newline)
 302:System/shell/shell.c **** {
 303:System/shell/shell.c ****     if (shell->status.isChecked)
 304:System/shell/shell.c ****     {
 305:System/shell/shell.c ****         if (newline)
 306:System/shell/shell.c ****         {
 307:System/shell/shell.c ****             shellWriteString(shell, "\r\n");
ARM GAS  C:\Users\HUAV\AppData\Local\Temp\ccBfvIcs.s 			page 8


 308:System/shell/shell.c ****         }
 309:System/shell/shell.c ****         shellWriteString(shell, shell->info.user->data.user.name);
 310:System/shell/shell.c ****         shellWriteString(shell, ":");
 311:System/shell/shell.c ****         shellWriteString(shell, shell->info.path ? shell->info.path : "/");
 312:System/shell/shell.c ****         shellWriteString(shell, "$ ");
 313:System/shell/shell.c ****     }
 314:System/shell/shell.c ****     else
 315:System/shell/shell.c ****     {
 316:System/shell/shell.c ****         shellWriteString(shell, shellText[SHELL_TEXT_PASSWORD_HINT]);
 317:System/shell/shell.c ****     }
 318:System/shell/shell.c **** }
 319:System/shell/shell.c **** 
 320:System/shell/shell.c **** #if SHELL_PRINT_BUFFER > 0
 321:System/shell/shell.c **** /**
 322:System/shell/shell.c ****  * @brief shell格式化输出
 323:System/shell/shell.c ****  *
 324:System/shell/shell.c ****  * @param shell shell对象
 325:System/shell/shell.c ****  * @param fmt 格式化字符串
 326:System/shell/shell.c ****  * @param ... 参数
 327:System/shell/shell.c ****  */
 328:System/shell/shell.c **** void shellPrint(Shell *shell, char *fmt, ...)
 329:System/shell/shell.c **** {
 330:System/shell/shell.c ****     char buffer[SHELL_PRINT_BUFFER];
 331:System/shell/shell.c ****     va_list vargs;
 332:System/shell/shell.c **** 
 333:System/shell/shell.c ****     SHELL_ASSERT(shell, return );
 334:System/shell/shell.c **** 
 335:System/shell/shell.c ****     va_start(vargs, fmt);
 336:System/shell/shell.c ****     vsnprintf(buffer, SHELL_PRINT_BUFFER - 1, fmt, vargs);
 337:System/shell/shell.c ****     va_end(vargs);
 338:System/shell/shell.c **** 
 339:System/shell/shell.c ****     shellWriteString(shell, buffer);
 340:System/shell/shell.c **** }
 341:System/shell/shell.c **** #endif
 342:System/shell/shell.c **** 
 343:System/shell/shell.c **** #if SHELL_SCAN_BUFFER > 0
 344:System/shell/shell.c **** /**
 345:System/shell/shell.c ****  * @brief shell格式化输入
 346:System/shell/shell.c ****  *
 347:System/shell/shell.c ****  * @param shell shell对象
 348:System/shell/shell.c ****  * @param fmt 格式化字符串
 349:System/shell/shell.c ****  * @param ... 参数
 350:System/shell/shell.c ****  */
 351:System/shell/shell.c **** void shellScan(Shell *shell, char *fmt, ...)
 352:System/shell/shell.c **** {
 353:System/shell/shell.c ****     char buffer[SHELL_SCAN_BUFFER];
 354:System/shell/shell.c ****     va_list vargs;
 355:System/shell/shell.c ****     short index = 0;
 356:System/shell/shell.c **** 
 357:System/shell/shell.c ****     SHELL_ASSERT(shell, return );
 358:System/shell/shell.c **** 
 359:System/shell/shell.c ****     if (shell->read)
 360:System/shell/shell.c ****     {
 361:System/shell/shell.c ****         do
 362:System/shell/shell.c ****         {
 363:System/shell/shell.c ****             if (shell->read(&buffer[index]) == 0)
 364:System/shell/shell.c ****             {
ARM GAS  C:\Users\HUAV\AppData\Local\Temp\ccBfvIcs.s 			page 9


 365:System/shell/shell.c ****                 shell->write(&buffer[index], sizeof(buffer[index]));
 366:System/shell/shell.c ****                 index++;
 367:System/shell/shell.c ****             }
 368:System/shell/shell.c ****         } while (buffer[index - 1] != '\r' && buffer[index - 1] != '\n' && index < SHELL_SCAN_BUFFE
 369:System/shell/shell.c ****         shellWriteString(shell, "\r\n");
 370:System/shell/shell.c ****         buffer[index] = '\0';
 371:System/shell/shell.c ****     }
 372:System/shell/shell.c **** 
 373:System/shell/shell.c ****     va_start(vargs, fmt);
 374:System/shell/shell.c ****     vsscanf(buffer, fmt, vargs);
 375:System/shell/shell.c ****     va_end(vargs);
 376:System/shell/shell.c **** }
 377:System/shell/shell.c **** #endif
 378:System/shell/shell.c **** 
 379:System/shell/shell.c **** /**
 380:System/shell/shell.c ****  * @brief shell 检查命令权限
 381:System/shell/shell.c ****  *
 382:System/shell/shell.c ****  * @param shell shell对象
 383:System/shell/shell.c ****  * @param command ShellCommand
 384:System/shell/shell.c ****  *
 385:System/shell/shell.c ****  * @return signed char 0 当前用户具有该命令权限
 386:System/shell/shell.c ****  * @return signec char -1 当前用户不具有该命令权限
 387:System/shell/shell.c ****  */
 388:System/shell/shell.c **** signed char shellCheckPermission(Shell *shell, ShellCommand *command)
 389:System/shell/shell.c **** {
 390:System/shell/shell.c ****     return ((!command->attr.attrs.permission || command->attr.attrs.type == SHELL_TYPE_USER || (com
 391:System/shell/shell.c ****                ? 0
 392:System/shell/shell.c ****                : -1;
 393:System/shell/shell.c **** }
 394:System/shell/shell.c **** 
 395:System/shell/shell.c **** /**
 396:System/shell/shell.c ****  * @brief int转16进制字符串
 397:System/shell/shell.c ****  *
 398:System/shell/shell.c ****  * @param value 数值
 399:System/shell/shell.c ****  * @param buffer 缓冲
 400:System/shell/shell.c ****  *
 401:System/shell/shell.c ****  * @return signed char 转换后有效数据长度
 402:System/shell/shell.c ****  */
 403:System/shell/shell.c **** signed char shellToHex(unsigned int value, char *buffer)
 404:System/shell/shell.c **** {
 405:System/shell/shell.c ****     char byte;
 406:System/shell/shell.c ****     unsigned char i = 8;
 407:System/shell/shell.c ****     buffer[8] = 0;
 408:System/shell/shell.c ****     while (value)
 409:System/shell/shell.c ****     {
 410:System/shell/shell.c ****         byte = value & 0x0000000F;
 411:System/shell/shell.c ****         buffer[--i] = (byte > 9) ? (byte + 87) : (byte + 48);
 412:System/shell/shell.c ****         value >>= 4;
 413:System/shell/shell.c ****     }
 414:System/shell/shell.c ****     return 8 - i;
 415:System/shell/shell.c **** }
 416:System/shell/shell.c **** 
 417:System/shell/shell.c **** /**
 418:System/shell/shell.c ****  * @brief int转10进制字符串
 419:System/shell/shell.c ****  *
 420:System/shell/shell.c ****  * @param value 数值
 421:System/shell/shell.c ****  * @param buffer 缓冲
ARM GAS  C:\Users\HUAV\AppData\Local\Temp\ccBfvIcs.s 			page 10


 422:System/shell/shell.c ****  *
 423:System/shell/shell.c ****  * @return signed char 转换后有效数据长度
 424:System/shell/shell.c ****  */
 425:System/shell/shell.c **** signed char shellToDec(int value, char *buffer)
 426:System/shell/shell.c **** {
 427:System/shell/shell.c ****     unsigned char i = 11;
 428:System/shell/shell.c ****     int v = value;
 429:System/shell/shell.c ****     if (value < 0)
 430:System/shell/shell.c ****     {
 431:System/shell/shell.c ****         v = -value;
 432:System/shell/shell.c ****     }
 433:System/shell/shell.c ****     buffer[11] = 0;
 434:System/shell/shell.c ****     while (v)
 435:System/shell/shell.c ****     {
 436:System/shell/shell.c ****         buffer[--i] = v % 10 + 48;
 437:System/shell/shell.c ****         v /= 10;
 438:System/shell/shell.c ****     }
 439:System/shell/shell.c ****     if (value < 0)
 440:System/shell/shell.c ****     {
 441:System/shell/shell.c ****         buffer[--i] = '-';
 442:System/shell/shell.c ****     }
 443:System/shell/shell.c ****     if (value == 0)
 444:System/shell/shell.c ****     {
 445:System/shell/shell.c ****         buffer[--i] = '0';
 446:System/shell/shell.c ****     }
 447:System/shell/shell.c ****     return 11 - i;
 448:System/shell/shell.c **** }
 449:System/shell/shell.c **** 
 450:System/shell/shell.c **** /**
 451:System/shell/shell.c ****  * @brief shell字符串复制
 452:System/shell/shell.c ****  *
 453:System/shell/shell.c ****  * @param dest 目标字符串
 454:System/shell/shell.c ****  * @param src 源字符串
 455:System/shell/shell.c ****  * @return unsigned short 字符串长度
 456:System/shell/shell.c ****  */
 457:System/shell/shell.c **** static unsigned short shellStringCopy(char *dest, char *src)
 458:System/shell/shell.c **** {
  92              		.loc 1 458 1 is_stmt 1 view -0
  93              		.cfi_startproc
  94              		@ args = 0, pretend = 0, frame = 0
  95              		@ frame_needed = 0, uses_anonymous_args = 0
  96              		@ link register save eliminated.
  97              		.loc 1 458 1 is_stmt 0 view .LVU20
  98 0000 10B4     		push	{r4}
  99              	.LCFI0:
 100              		.cfi_def_cfa_offset 4
 101              		.cfi_offset 4, -4
 102 0002 0246     		mov	r2, r0
 459:System/shell/shell.c ****     unsigned short count = 0;
 103              		.loc 1 459 5 is_stmt 1 view .LVU21
 104              	.LVL7:
 460:System/shell/shell.c ****     while (*(src + count))
 105              		.loc 1 460 5 view .LVU22
 459:System/shell/shell.c ****     unsigned short count = 0;
 106              		.loc 1 459 20 is_stmt 0 view .LVU23
 107 0004 0020     		movs	r0, #0
 108              	.LVL8:
ARM GAS  C:\Users\HUAV\AppData\Local\Temp\ccBfvIcs.s 			page 11


 109              	.L11:
 110              		.loc 1 460 11 is_stmt 1 view .LVU24
 111              		.loc 1 460 12 is_stmt 0 view .LVU25
 112 0006 0B5C     		ldrb	r3, [r1, r0]	@ zero_extendqisi2
 113              		.loc 1 460 11 view .LVU26
 114 0008 1BB1     		cbz	r3, .L14
 461:System/shell/shell.c ****     {
 462:System/shell/shell.c ****         *(dest + count) = *(src + count);
 115              		.loc 1 462 9 is_stmt 1 view .LVU27
 116              		.loc 1 462 25 is_stmt 0 view .LVU28
 117 000a 1354     		strb	r3, [r2, r0]
 463:System/shell/shell.c ****         count++;
 118              		.loc 1 463 9 is_stmt 1 view .LVU29
 119              		.loc 1 463 14 is_stmt 0 view .LVU30
 120 000c 0130     		adds	r0, r0, #1
 121              	.LVL9:
 122              		.loc 1 463 14 view .LVU31
 123 000e 80B2     		uxth	r0, r0
 124              	.LVL10:
 125              		.loc 1 463 14 view .LVU32
 126 0010 F9E7     		b	.L11
 127              	.L14:
 464:System/shell/shell.c ****     }
 465:System/shell/shell.c ****     *(dest + count) = 0;
 128              		.loc 1 465 5 is_stmt 1 view .LVU33
 129              		.loc 1 465 21 is_stmt 0 view .LVU34
 130 0012 1354     		strb	r3, [r2, r0]
 466:System/shell/shell.c ****     return count;
 131              		.loc 1 466 5 is_stmt 1 view .LVU35
 467:System/shell/shell.c **** }
 132              		.loc 1 467 1 is_stmt 0 view .LVU36
 133 0014 5DF8044B 		ldr	r4, [sp], #4
 134              	.LCFI1:
 135              		.cfi_restore 4
 136              		.cfi_def_cfa_offset 0
 137 0018 7047     		bx	lr
 138              		.cfi_endproc
 139              	.LFE15:
 141              		.section	.text.shellStringCompare,"ax",%progbits
 142              		.align	1
 143              		.syntax unified
 144              		.thumb
 145              		.thumb_func
 146              		.fpu fpv5-d16
 148              	shellStringCompare:
 149              	.LVL11:
 150              	.LFB16:
 468:System/shell/shell.c **** 
 469:System/shell/shell.c **** /**
 470:System/shell/shell.c ****  * @brief shell字符串比较
 471:System/shell/shell.c ****  *
 472:System/shell/shell.c ****  * @param dest 目标字符串
 473:System/shell/shell.c ****  * @param src 源字符串
 474:System/shell/shell.c ****  * @return unsigned short 匹配长度
 475:System/shell/shell.c ****  */
 476:System/shell/shell.c **** static unsigned short shellStringCompare(char *dest, char *src)
 477:System/shell/shell.c **** {
ARM GAS  C:\Users\HUAV\AppData\Local\Temp\ccBfvIcs.s 			page 12


 151              		.loc 1 477 1 is_stmt 1 view -0
 152              		.cfi_startproc
 153              		@ args = 0, pretend = 0, frame = 0
 154              		@ frame_needed = 0, uses_anonymous_args = 0
 155              		@ link register save eliminated.
 156              		.loc 1 477 1 is_stmt 0 view .LVU38
 157 0000 30B4     		push	{r4, r5}
 158              	.LCFI2:
 159              		.cfi_def_cfa_offset 8
 160              		.cfi_offset 4, -8
 161              		.cfi_offset 5, -4
 162 0002 0546     		mov	r5, r0
 478:System/shell/shell.c ****     unsigned short match = 0;
 163              		.loc 1 478 5 is_stmt 1 view .LVU39
 164              	.LVL12:
 479:System/shell/shell.c ****     unsigned short i = 0;
 165              		.loc 1 479 5 view .LVU40
 480:System/shell/shell.c **** 
 481:System/shell/shell.c ****     while (*(dest + i) && *(src + i))
 166              		.loc 1 481 5 view .LVU41
 479:System/shell/shell.c ****     unsigned short i = 0;
 167              		.loc 1 479 20 is_stmt 0 view .LVU42
 168 0004 0023     		movs	r3, #0
 478:System/shell/shell.c ****     unsigned short i = 0;
 169              		.loc 1 478 20 view .LVU43
 170 0006 1846     		mov	r0, r3
 171              	.LVL13:
 172              		.loc 1 481 11 view .LVU44
 173 0008 03E0     		b	.L16
 174              	.LVL14:
 175              	.L20:
 482:System/shell/shell.c ****     {
 483:System/shell/shell.c ****         if (*(dest + i) != *(src + i))
 484:System/shell/shell.c ****         {
 485:System/shell/shell.c ****             break;
 486:System/shell/shell.c ****         }
 487:System/shell/shell.c ****         match++;
 176              		.loc 1 487 9 is_stmt 1 view .LVU45
 177              		.loc 1 487 14 is_stmt 0 view .LVU46
 178 000a 0130     		adds	r0, r0, #1
 179              	.LVL15:
 180              		.loc 1 487 14 view .LVU47
 181 000c 80B2     		uxth	r0, r0
 182              	.LVL16:
 488:System/shell/shell.c ****         i++;
 183              		.loc 1 488 9 is_stmt 1 view .LVU48
 184              		.loc 1 488 10 is_stmt 0 view .LVU49
 185 000e 0133     		adds	r3, r3, #1
 186              	.LVL17:
 187              		.loc 1 488 10 view .LVU50
 188 0010 9BB2     		uxth	r3, r3
 189              	.LVL18:
 190              	.L16:
 481:System/shell/shell.c ****     {
 191              		.loc 1 481 11 is_stmt 1 view .LVU51
 481:System/shell/shell.c ****     {
 192              		.loc 1 481 12 is_stmt 0 view .LVU52
ARM GAS  C:\Users\HUAV\AppData\Local\Temp\ccBfvIcs.s 			page 13


 193 0012 EA5C     		ldrb	r2, [r5, r3]	@ zero_extendqisi2
 481:System/shell/shell.c ****     {
 194              		.loc 1 481 11 view .LVU53
 195 0014 1AB1     		cbz	r2, .L17
 481:System/shell/shell.c ****     {
 196              		.loc 1 481 27 discriminator 1 view .LVU54
 197 0016 CC5C     		ldrb	r4, [r1, r3]	@ zero_extendqisi2
 481:System/shell/shell.c ****     {
 198              		.loc 1 481 24 discriminator 1 view .LVU55
 199 0018 0CB1     		cbz	r4, .L17
 483:System/shell/shell.c ****         {
 200              		.loc 1 483 9 is_stmt 1 view .LVU56
 483:System/shell/shell.c ****         {
 201              		.loc 1 483 12 is_stmt 0 view .LVU57
 202 001a A242     		cmp	r2, r4
 203 001c F5D0     		beq	.L20
 204              	.L17:
 489:System/shell/shell.c ****     }
 490:System/shell/shell.c ****     return match;
 205              		.loc 1 490 5 is_stmt 1 view .LVU58
 491:System/shell/shell.c **** }
 206              		.loc 1 491 1 is_stmt 0 view .LVU59
 207 001e 30BC     		pop	{r4, r5}
 208              	.LCFI3:
 209              		.cfi_restore 5
 210              		.cfi_restore 4
 211              		.cfi_def_cfa_offset 0
 212              	.LVL19:
 213              		.loc 1 491 1 view .LVU60
 214 0020 7047     		bx	lr
 215              		.cfi_endproc
 216              	.LFE16:
 218              		.section	.text.shellGetCommandDesc,"ax",%progbits
 219              		.align	1
 220              		.syntax unified
 221              		.thumb
 222              		.thumb_func
 223              		.fpu fpv5-d16
 225              	shellGetCommandDesc:
 226              	.LVL20:
 227              	.LFB18:
 492:System/shell/shell.c **** 
 493:System/shell/shell.c **** /**
 494:System/shell/shell.c ****  * @brief shell获取命令名
 495:System/shell/shell.c ****  *
 496:System/shell/shell.c ****  * @param command 命令
 497:System/shell/shell.c ****  * @return const char* 命令名
 498:System/shell/shell.c ****  */
 499:System/shell/shell.c **** static const char *shellGetCommandName(ShellCommand *command)
 500:System/shell/shell.c **** {
 501:System/shell/shell.c ****     static char buffer[9];
 502:System/shell/shell.c ****     for (unsigned char i = 0; i < 9; i++)
 503:System/shell/shell.c ****     {
 504:System/shell/shell.c ****         buffer[i] = '0';
 505:System/shell/shell.c ****     }
 506:System/shell/shell.c ****     if (command->attr.attrs.type <= SHELL_TYPE_CMD_FUNC)
 507:System/shell/shell.c ****     {
ARM GAS  C:\Users\HUAV\AppData\Local\Temp\ccBfvIcs.s 			page 14


 508:System/shell/shell.c ****         return command->data.cmd.name;
 509:System/shell/shell.c ****     }
 510:System/shell/shell.c ****     else if (command->attr.attrs.type <= SHELL_TYPE_VAR_NODE)
 511:System/shell/shell.c ****     {
 512:System/shell/shell.c ****         return command->data.var.name;
 513:System/shell/shell.c ****     }
 514:System/shell/shell.c ****     else if (command->attr.attrs.type <= SHELL_TYPE_USER)
 515:System/shell/shell.c ****     {
 516:System/shell/shell.c ****         return command->data.user.name;
 517:System/shell/shell.c ****     }
 518:System/shell/shell.c ****     else
 519:System/shell/shell.c ****     {
 520:System/shell/shell.c ****         shellToHex(command->data.key.value, buffer);
 521:System/shell/shell.c ****         return buffer;
 522:System/shell/shell.c ****     }
 523:System/shell/shell.c **** }
 524:System/shell/shell.c **** 
 525:System/shell/shell.c **** /**
 526:System/shell/shell.c ****  * @brief shell获取命令描述
 527:System/shell/shell.c ****  *
 528:System/shell/shell.c ****  * @param command 命令
 529:System/shell/shell.c ****  * @return const char* 命令描述
 530:System/shell/shell.c ****  */
 531:System/shell/shell.c **** static const char *shellGetCommandDesc(ShellCommand *command)
 532:System/shell/shell.c **** {
 228              		.loc 1 532 1 is_stmt 1 view -0
 229              		.cfi_startproc
 230              		@ args = 0, pretend = 0, frame = 0
 231              		@ frame_needed = 0, uses_anonymous_args = 0
 232              		@ link register save eliminated.
 533:System/shell/shell.c ****     if (command->attr.attrs.type <= SHELL_TYPE_CMD_FUNC)
 233              		.loc 1 533 5 view .LVU62
 234              		.loc 1 533 28 is_stmt 0 view .LVU63
 235 0000 4378     		ldrb	r3, [r0, #1]	@ zero_extendqisi2
 236 0002 03F00F03 		and	r3, r3, #15
 237              		.loc 1 533 8 view .LVU64
 238 0006 012B     		cmp	r3, #1
 239 0008 05D9     		bls	.L26
 534:System/shell/shell.c ****     {
 535:System/shell/shell.c ****         return command->data.cmd.desc;
 536:System/shell/shell.c ****     }
 537:System/shell/shell.c ****     else if (command->attr.attrs.type <= SHELL_TYPE_VAR_NODE)
 240              		.loc 1 537 10 is_stmt 1 view .LVU65
 241              		.loc 1 537 13 is_stmt 0 view .LVU66
 242 000a 072B     		cmp	r3, #7
 243 000c 05D9     		bls	.L27
 538:System/shell/shell.c ****     {
 539:System/shell/shell.c ****         return command->data.var.desc;
 540:System/shell/shell.c ****     }
 541:System/shell/shell.c ****     else if (command->attr.attrs.type <= SHELL_TYPE_USER)
 244              		.loc 1 541 10 is_stmt 1 view .LVU67
 245              		.loc 1 541 13 is_stmt 0 view .LVU68
 246 000e 082B     		cmp	r3, #8
 247 0010 05D8     		bhi	.L25
 542:System/shell/shell.c ****     {
 543:System/shell/shell.c ****         return command->data.user.desc;
 248              		.loc 1 543 9 is_stmt 1 view .LVU69
ARM GAS  C:\Users\HUAV\AppData\Local\Temp\ccBfvIcs.s 			page 15


 249              		.loc 1 543 34 is_stmt 0 view .LVU70
 250 0012 C068     		ldr	r0, [r0, #12]
 251              	.LVL21:
 252              		.loc 1 543 34 view .LVU71
 253 0014 7047     		bx	lr
 254              	.LVL22:
 255              	.L26:
 535:System/shell/shell.c ****     }
 256              		.loc 1 535 9 is_stmt 1 view .LVU72
 535:System/shell/shell.c ****     }
 257              		.loc 1 535 33 is_stmt 0 view .LVU73
 258 0016 C068     		ldr	r0, [r0, #12]
 259              	.LVL23:
 535:System/shell/shell.c ****     }
 260              		.loc 1 535 33 view .LVU74
 261 0018 7047     		bx	lr
 262              	.LVL24:
 263              	.L27:
 539:System/shell/shell.c ****     }
 264              		.loc 1 539 9 is_stmt 1 view .LVU75
 539:System/shell/shell.c ****     }
 265              		.loc 1 539 33 is_stmt 0 view .LVU76
 266 001a C068     		ldr	r0, [r0, #12]
 267              	.LVL25:
 539:System/shell/shell.c ****     }
 268              		.loc 1 539 33 view .LVU77
 269 001c 7047     		bx	lr
 270              	.LVL26:
 271              	.L25:
 544:System/shell/shell.c ****     }
 545:System/shell/shell.c ****     else
 546:System/shell/shell.c ****     {
 547:System/shell/shell.c ****         return command->data.key.desc;
 272              		.loc 1 547 9 is_stmt 1 view .LVU78
 273              		.loc 1 547 33 is_stmt 0 view .LVU79
 274 001e C068     		ldr	r0, [r0, #12]
 275              	.LVL27:
 548:System/shell/shell.c ****     }
 549:System/shell/shell.c **** }
 276              		.loc 1 549 1 view .LVU80
 277 0020 7047     		bx	lr
 278              		.cfi_endproc
 279              	.LFE18:
 281              		.section	.text.shellParserParam,"ax",%progbits
 282              		.align	1
 283              		.syntax unified
 284              		.thumb
 285              		.thumb_func
 286              		.fpu fpv5-d16
 288              	shellParserParam:
 289              	.LVL28:
 290              	.LFB29:
 550:System/shell/shell.c **** 
 551:System/shell/shell.c **** /**
 552:System/shell/shell.c ****  * @brief shell 列出命令条目
 553:System/shell/shell.c ****  *
 554:System/shell/shell.c ****  * @param shell shell对象
ARM GAS  C:\Users\HUAV\AppData\Local\Temp\ccBfvIcs.s 			page 16


 555:System/shell/shell.c ****  * @param item 命令条目
 556:System/shell/shell.c ****  */
 557:System/shell/shell.c **** void shellListItem(Shell *shell, ShellCommand *item)
 558:System/shell/shell.c **** {
 559:System/shell/shell.c ****     short spaceLength;
 560:System/shell/shell.c **** 
 561:System/shell/shell.c ****     spaceLength = 22 - shellWriteString(shell, shellGetCommandName(item));
 562:System/shell/shell.c ****     spaceLength = (spaceLength > 0) ? spaceLength : 4;
 563:System/shell/shell.c ****     do
 564:System/shell/shell.c ****     {
 565:System/shell/shell.c ****         shellWriteByte(shell, '-');
 566:System/shell/shell.c ****     } while (--spaceLength);
 567:System/shell/shell.c ****     if (item->attr.attrs.type <= SHELL_TYPE_CMD_FUNC)
 568:System/shell/shell.c ****     {
 569:System/shell/shell.c ****         shellWriteString(shell, shellText[SHELL_TEXT_TYPE_CMD]);
 570:System/shell/shell.c ****     }
 571:System/shell/shell.c ****     else if (item->attr.attrs.type <= SHELL_TYPE_VAR_NODE)
 572:System/shell/shell.c ****     {
 573:System/shell/shell.c ****         shellWriteString(shell, shellText[SHELL_TEXT_TYPE_VAR]);
 574:System/shell/shell.c ****     }
 575:System/shell/shell.c ****     else if (item->attr.attrs.type <= SHELL_TYPE_USER)
 576:System/shell/shell.c ****     {
 577:System/shell/shell.c ****         shellWriteString(shell, shellText[SHELL_TEXT_TYPE_USER]);
 578:System/shell/shell.c ****     }
 579:System/shell/shell.c ****     else if (item->attr.attrs.type <= SHELL_TYPE_KEY)
 580:System/shell/shell.c ****     {
 581:System/shell/shell.c ****         shellWriteString(shell, shellText[SHELL_TEXT_TYPE_KEY]);
 582:System/shell/shell.c ****     }
 583:System/shell/shell.c ****     else
 584:System/shell/shell.c ****     {
 585:System/shell/shell.c ****         shellWriteString(shell, shellText[SHELL_TEXT_TYPE_NONE]);
 586:System/shell/shell.c ****     }
 587:System/shell/shell.c **** #if SHELL_HELP_SHOW_PERMISSION == 1
 588:System/shell/shell.c ****     shellWriteString(shell, " ");
 589:System/shell/shell.c ****     for (signed char i = 7; i >= 0; i--)
 590:System/shell/shell.c ****     {
 591:System/shell/shell.c ****         shellWriteByte(shell, item->attr.attrs.permission & (1 << i) ? 'x' : '-');
 592:System/shell/shell.c ****     }
 593:System/shell/shell.c **** #endif
 594:System/shell/shell.c ****     // shellWriteString(shell, " ");
 595:System/shell/shell.c ****     // shellWriteCommandDesc(shell, shellGetCommandDesc(item));
 596:System/shell/shell.c ****     // shellWriteString(shell, "\r\n");
 597:System/shell/shell.c **** }
 598:System/shell/shell.c **** 
 599:System/shell/shell.c **** /**
 600:System/shell/shell.c ****  * @brief shell列出可执行命令
 601:System/shell/shell.c ****  *
 602:System/shell/shell.c ****  * @param shell shell对象
 603:System/shell/shell.c ****  */
 604:System/shell/shell.c **** void shellListCommand(Shell *shell)
 605:System/shell/shell.c **** {
 606:System/shell/shell.c ****     ShellCommand *base = (ShellCommand *)shell->commandList.base;
 607:System/shell/shell.c ****     shellWriteString(shell, shellText[SHELL_TEXT_CMD_LIST]);
 608:System/shell/shell.c ****     for (short i = 0; i < shell->commandList.count; i++)
 609:System/shell/shell.c ****     {
 610:System/shell/shell.c ****         if (base[i].attr.attrs.type <= SHELL_TYPE_CMD_FUNC && shellCheckPermission(shell, &base[i])
 611:System/shell/shell.c ****         {
ARM GAS  C:\Users\HUAV\AppData\Local\Temp\ccBfvIcs.s 			page 17


 612:System/shell/shell.c ****             shellListItem(shell, &base[i]);
 613:System/shell/shell.c ****         }
 614:System/shell/shell.c ****     }
 615:System/shell/shell.c **** }
 616:System/shell/shell.c **** 
 617:System/shell/shell.c **** /**
 618:System/shell/shell.c ****  * @brief shell列出变量
 619:System/shell/shell.c ****  *
 620:System/shell/shell.c ****  * @param shell shell对象
 621:System/shell/shell.c ****  */
 622:System/shell/shell.c **** void shellListVar(Shell *shell)
 623:System/shell/shell.c **** {
 624:System/shell/shell.c ****     ShellCommand *base = (ShellCommand *)shell->commandList.base;
 625:System/shell/shell.c ****     shellWriteString(shell, shellText[SHELL_TEXT_VAR_LIST]);
 626:System/shell/shell.c ****     for (short i = 0; i < shell->commandList.count; i++)
 627:System/shell/shell.c ****     {
 628:System/shell/shell.c ****         if (base[i].attr.attrs.type > SHELL_TYPE_CMD_FUNC && base[i].attr.attrs.type <= SHELL_TYPE_
 629:System/shell/shell.c ****         {
 630:System/shell/shell.c ****             shellListItem(shell, &base[i]);
 631:System/shell/shell.c ****         }
 632:System/shell/shell.c ****     }
 633:System/shell/shell.c **** }
 634:System/shell/shell.c **** 
 635:System/shell/shell.c **** /**
 636:System/shell/shell.c ****  * @brief shell列出用户
 637:System/shell/shell.c ****  *
 638:System/shell/shell.c ****  * @param shell shell对象
 639:System/shell/shell.c ****  */
 640:System/shell/shell.c **** void shellListUser(Shell *shell)
 641:System/shell/shell.c **** {
 642:System/shell/shell.c ****     ShellCommand *base = (ShellCommand *)shell->commandList.base;
 643:System/shell/shell.c ****     shellWriteString(shell, shellText[SHELL_TEXT_USER_LIST]);
 644:System/shell/shell.c ****     for (short i = 0; i < shell->commandList.count; i++)
 645:System/shell/shell.c ****     {
 646:System/shell/shell.c ****         if (base[i].attr.attrs.type > SHELL_TYPE_VAR_NODE && base[i].attr.attrs.type <= SHELL_TYPE_
 647:System/shell/shell.c ****         {
 648:System/shell/shell.c ****             shellListItem(shell, &base[i]);
 649:System/shell/shell.c ****         }
 650:System/shell/shell.c ****     }
 651:System/shell/shell.c **** }
 652:System/shell/shell.c **** 
 653:System/shell/shell.c **** /**
 654:System/shell/shell.c ****  * @brief shell列出按键
 655:System/shell/shell.c ****  *
 656:System/shell/shell.c ****  * @param shell shell对象
 657:System/shell/shell.c ****  */
 658:System/shell/shell.c **** void shellListKey(Shell *shell)
 659:System/shell/shell.c **** {
 660:System/shell/shell.c ****     ShellCommand *base = (ShellCommand *)shell->commandList.base;
 661:System/shell/shell.c ****     shellWriteString(shell, shellText[SHELL_TEXT_KEY_LIST]);
 662:System/shell/shell.c ****     for (short i = 0; i < shell->commandList.count; i++)
 663:System/shell/shell.c ****     {
 664:System/shell/shell.c ****         if (base[i].attr.attrs.type > SHELL_TYPE_USER && base[i].attr.attrs.type <= SHELL_TYPE_KEY 
 665:System/shell/shell.c ****         {
 666:System/shell/shell.c ****             shellListItem(shell, &base[i]);
 667:System/shell/shell.c ****         }
 668:System/shell/shell.c ****     }
ARM GAS  C:\Users\HUAV\AppData\Local\Temp\ccBfvIcs.s 			page 18


 669:System/shell/shell.c **** }
 670:System/shell/shell.c **** 
 671:System/shell/shell.c **** /**
 672:System/shell/shell.c ****  * @brief shell列出所有命令
 673:System/shell/shell.c ****  *
 674:System/shell/shell.c ****  * @param shell shell对象
 675:System/shell/shell.c ****  */
 676:System/shell/shell.c **** void shellListAll(Shell *shell)
 677:System/shell/shell.c **** {
 678:System/shell/shell.c **** #if SHELL_HELP_LIST_USER == 1
 679:System/shell/shell.c ****     shellListUser(shell);
 680:System/shell/shell.c **** #endif
 681:System/shell/shell.c ****     shellListCommand(shell);
 682:System/shell/shell.c **** #if SHELL_HELP_LIST_VAR == 1
 683:System/shell/shell.c ****     shellListVar(shell);
 684:System/shell/shell.c **** #endif
 685:System/shell/shell.c **** #if SHELL_HELP_LIST_KEY == 1
 686:System/shell/shell.c ****     shellListKey(shell);
 687:System/shell/shell.c **** #endif
 688:System/shell/shell.c **** }
 689:System/shell/shell.c **** 
 690:System/shell/shell.c **** /**
 691:System/shell/shell.c ****  * @brief shell删除命令行数据
 692:System/shell/shell.c ****  *
 693:System/shell/shell.c ****  * @param shell shell对象
 694:System/shell/shell.c ****  * @param length 删除长度
 695:System/shell/shell.c ****  */
 696:System/shell/shell.c **** void shellDeleteCommandLine(Shell *shell, unsigned char length)
 697:System/shell/shell.c **** {
 698:System/shell/shell.c ****     while (length--)
 699:System/shell/shell.c ****     {
 700:System/shell/shell.c ****         shellWriteString(shell, "\b \b");
 701:System/shell/shell.c ****     }
 702:System/shell/shell.c **** }
 703:System/shell/shell.c **** 
 704:System/shell/shell.c **** /**
 705:System/shell/shell.c ****  * @brief shell 清空命令行输入
 706:System/shell/shell.c ****  *
 707:System/shell/shell.c ****  * @param shell shell对象
 708:System/shell/shell.c ****  */
 709:System/shell/shell.c **** void shellClearCommandLine(Shell *shell)
 710:System/shell/shell.c **** {
 711:System/shell/shell.c ****     for (short i = shell->parser.length - shell->parser.cursor; i > 0; i--)
 712:System/shell/shell.c ****     {
 713:System/shell/shell.c ****         shellWriteByte(shell, ' ');
 714:System/shell/shell.c ****     }
 715:System/shell/shell.c ****     shellDeleteCommandLine(shell, shell->parser.length);
 716:System/shell/shell.c **** }
 717:System/shell/shell.c **** 
 718:System/shell/shell.c **** /**
 719:System/shell/shell.c ****  * @brief shell插入一个字符到光标位置
 720:System/shell/shell.c ****  *
 721:System/shell/shell.c ****  * @param shell shell对象
 722:System/shell/shell.c ****  * @param data 字符数据
 723:System/shell/shell.c ****  */
 724:System/shell/shell.c **** void shellInsertByte(Shell *shell, char data)
 725:System/shell/shell.c **** {
ARM GAS  C:\Users\HUAV\AppData\Local\Temp\ccBfvIcs.s 			page 19


 726:System/shell/shell.c ****     /* 判断输入数据是否过长 */
 727:System/shell/shell.c ****     if (shell->parser.length >= shell->parser.bufferSize - 1)
 728:System/shell/shell.c ****     {
 729:System/shell/shell.c ****         shellWriteString(shell, shellText[SHELL_TEXT_CMD_TOO_LONG]);
 730:System/shell/shell.c ****         shellWriteCommandLine(shell, 1);
 731:System/shell/shell.c ****         shellWriteString(shell, shell->parser.buffer);
 732:System/shell/shell.c ****         return;
 733:System/shell/shell.c ****     }
 734:System/shell/shell.c **** 
 735:System/shell/shell.c ****     /* 插入数据 */
 736:System/shell/shell.c ****     if (shell->parser.cursor == shell->parser.length)
 737:System/shell/shell.c ****     {
 738:System/shell/shell.c ****         shell->parser.buffer[shell->parser.length++] = data;
 739:System/shell/shell.c ****         shell->parser.buffer[shell->parser.length] = 0;
 740:System/shell/shell.c ****         shell->parser.cursor++;
 741:System/shell/shell.c ****         shellWriteByte(shell, data);
 742:System/shell/shell.c ****     }
 743:System/shell/shell.c ****     else if (shell->parser.cursor < shell->parser.length)
 744:System/shell/shell.c ****     {
 745:System/shell/shell.c ****         for (short i = shell->parser.length - shell->parser.cursor; i > 0; i--)
 746:System/shell/shell.c ****         {
 747:System/shell/shell.c ****             shell->parser.buffer[shell->parser.cursor + i] =
 748:System/shell/shell.c ****                 shell->parser.buffer[shell->parser.cursor + i - 1];
 749:System/shell/shell.c ****         }
 750:System/shell/shell.c ****         shell->parser.buffer[shell->parser.cursor++] = data;
 751:System/shell/shell.c ****         shell->parser.buffer[++shell->parser.length] = 0;
 752:System/shell/shell.c ****         for (short i = shell->parser.cursor - 1; i < shell->parser.length; i++)
 753:System/shell/shell.c ****         {
 754:System/shell/shell.c ****             shellWriteByte(shell, shell->parser.buffer[i]);
 755:System/shell/shell.c ****         }
 756:System/shell/shell.c ****         for (short i = shell->parser.length - shell->parser.cursor; i > 0; i--)
 757:System/shell/shell.c ****         {
 758:System/shell/shell.c ****             shellWriteByte(shell, '\b');
 759:System/shell/shell.c ****         }
 760:System/shell/shell.c ****     }
 761:System/shell/shell.c **** }
 762:System/shell/shell.c **** 
 763:System/shell/shell.c **** /**
 764:System/shell/shell.c ****  * @brief shell 删除字节
 765:System/shell/shell.c ****  *
 766:System/shell/shell.c ****  * @param shell shell对象
 767:System/shell/shell.c ****  * @param direction 删除方向 {@code 1}删除光标前字符 {@code -1}删除光标处字符
 768:System/shell/shell.c ****  */
 769:System/shell/shell.c **** void shellDeleteByte(Shell *shell, signed char direction)
 770:System/shell/shell.c **** {
 771:System/shell/shell.c ****     char offset = (direction == -1) ? 1 : 0;
 772:System/shell/shell.c **** 
 773:System/shell/shell.c ****     if ((shell->parser.cursor == 0 && direction == 1) || (shell->parser.cursor == shell->parser.len
 774:System/shell/shell.c ****     {
 775:System/shell/shell.c ****         return;
 776:System/shell/shell.c ****     }
 777:System/shell/shell.c ****     if (shell->parser.cursor == shell->parser.length && direction == 1)
 778:System/shell/shell.c ****     {
 779:System/shell/shell.c ****         shell->parser.cursor--;
 780:System/shell/shell.c ****         shell->parser.length--;
 781:System/shell/shell.c ****         shell->parser.buffer[shell->parser.length] = 0;
 782:System/shell/shell.c ****         shellDeleteCommandLine(shell, 1);
ARM GAS  C:\Users\HUAV\AppData\Local\Temp\ccBfvIcs.s 			page 20


 783:System/shell/shell.c ****     }
 784:System/shell/shell.c ****     else
 785:System/shell/shell.c ****     {
 786:System/shell/shell.c ****         for (short i = offset; i < shell->parser.length - shell->parser.cursor; i++)
 787:System/shell/shell.c ****         {
 788:System/shell/shell.c ****             shell->parser.buffer[shell->parser.cursor + i - 1] =
 789:System/shell/shell.c ****                 shell->parser.buffer[shell->parser.cursor + i];
 790:System/shell/shell.c ****         }
 791:System/shell/shell.c ****         shell->parser.length--;
 792:System/shell/shell.c ****         if (!offset)
 793:System/shell/shell.c ****         {
 794:System/shell/shell.c ****             shell->parser.cursor--;
 795:System/shell/shell.c ****             shellWriteByte(shell, '\b');
 796:System/shell/shell.c ****         }
 797:System/shell/shell.c ****         shell->parser.buffer[shell->parser.length] = 0;
 798:System/shell/shell.c ****         for (short i = shell->parser.cursor; i < shell->parser.length; i++)
 799:System/shell/shell.c ****         {
 800:System/shell/shell.c ****             shellWriteByte(shell, shell->parser.buffer[i]);
 801:System/shell/shell.c ****         }
 802:System/shell/shell.c ****         shellWriteByte(shell, ' ');
 803:System/shell/shell.c ****         for (short i = shell->parser.length - shell->parser.cursor + 1; i > 0; i--)
 804:System/shell/shell.c ****         {
 805:System/shell/shell.c ****             shellWriteByte(shell, '\b');
 806:System/shell/shell.c ****         }
 807:System/shell/shell.c ****     }
 808:System/shell/shell.c **** }
 809:System/shell/shell.c **** 
 810:System/shell/shell.c **** /**
 811:System/shell/shell.c ****  * @brief shell 解析参数
 812:System/shell/shell.c ****  *
 813:System/shell/shell.c ****  * @param shell shell对象
 814:System/shell/shell.c ****  */
 815:System/shell/shell.c **** static void shellParserParam(Shell *shell)
 816:System/shell/shell.c **** {
 291              		.loc 1 816 1 is_stmt 1 view -0
 292              		.cfi_startproc
 293              		@ args = 0, pretend = 0, frame = 0
 294              		@ frame_needed = 0, uses_anonymous_args = 0
 295              		@ link register save eliminated.
 296              		.loc 1 816 1 is_stmt 0 view .LVU82
 297 0000 F0B4     		push	{r4, r5, r6, r7}
 298              	.LCFI4:
 299              		.cfi_def_cfa_offset 16
 300              		.cfi_offset 4, -16
 301              		.cfi_offset 5, -12
 302              		.cfi_offset 6, -8
 303              		.cfi_offset 7, -4
 817:System/shell/shell.c ****     unsigned char quotes = 0;
 304              		.loc 1 817 5 is_stmt 1 view .LVU83
 305              	.LVL29:
 818:System/shell/shell.c ****     unsigned char record = 1;
 306              		.loc 1 818 5 view .LVU84
 819:System/shell/shell.c **** 
 820:System/shell/shell.c ****     for (short i = 0; i < SHELL_PARAMETER_MAX_NUMBER; i++)
 307              		.loc 1 820 5 view .LVU85
 308              	.LBB3:
 309              		.loc 1 820 10 view .LVU86
ARM GAS  C:\Users\HUAV\AppData\Local\Temp\ccBfvIcs.s 			page 21


 310              		.loc 1 820 16 is_stmt 0 view .LVU87
 311 0002 0023     		movs	r3, #0
 312              		.loc 1 820 5 view .LVU88
 313 0004 06E0     		b	.L29
 314              	.LVL30:
 315              	.L30:
 821:System/shell/shell.c ****     {
 822:System/shell/shell.c ****         shell->parser.param[i] = NULL;
 316              		.loc 1 822 9 is_stmt 1 discriminator 3 view .LVU89
 317              		.loc 1 822 32 is_stmt 0 discriminator 3 view .LVU90
 318 0006 1A1D     		adds	r2, r3, #4
 319 0008 00EB8202 		add	r2, r0, r2, lsl #2
 320 000c 0021     		movs	r1, #0
 321 000e 5160     		str	r1, [r2, #4]
 820:System/shell/shell.c ****     {
 322              		.loc 1 820 55 is_stmt 1 discriminator 3 view .LVU91
 820:System/shell/shell.c ****     {
 323              		.loc 1 820 56 is_stmt 0 discriminator 3 view .LVU92
 324 0010 0133     		adds	r3, r3, #1
 325              	.LVL31:
 820:System/shell/shell.c ****     {
 326              		.loc 1 820 56 discriminator 3 view .LVU93
 327 0012 1BB2     		sxth	r3, r3
 328              	.LVL32:
 329              	.L29:
 820:System/shell/shell.c ****     {
 330              		.loc 1 820 23 is_stmt 1 discriminator 1 view .LVU94
 820:System/shell/shell.c ****     {
 331              		.loc 1 820 5 is_stmt 0 discriminator 1 view .LVU95
 332 0014 072B     		cmp	r3, #7
 333 0016 F6DD     		ble	.L30
 334              	.LBE3:
 823:System/shell/shell.c ****     }
 824:System/shell/shell.c **** 
 825:System/shell/shell.c ****     shell->parser.paramCount = 0;
 335              		.loc 1 825 5 is_stmt 1 view .LVU96
 336              		.loc 1 825 30 is_stmt 0 view .LVU97
 337 0018 0021     		movs	r1, #0
 338 001a C186     		strh	r1, [r0, #54]	@ movhi
 826:System/shell/shell.c ****     for (unsigned short i = 0; i < shell->parser.length; i++)
 339              		.loc 1 826 5 is_stmt 1 view .LVU98
 340              	.LBB4:
 341              		.loc 1 826 10 view .LVU99
 342              	.LVL33:
 343              		.loc 1 826 25 is_stmt 0 view .LVU100
 344 001c 0B46     		mov	r3, r1
 345              	.LVL34:
 346              		.loc 1 826 25 view .LVU101
 347              	.LBE4:
 818:System/shell/shell.c **** 
 348              		.loc 1 818 19 view .LVU102
 349 001e 0126     		movs	r6, #1
 350              	.LBB5:
 351              		.loc 1 826 5 view .LVU103
 352 0020 0BE0     		b	.L31
 353              	.LVL35:
 354              	.L32:
ARM GAS  C:\Users\HUAV\AppData\Local\Temp\ccBfvIcs.s 			page 22


 827:System/shell/shell.c ****     {
 828:System/shell/shell.c ****         if (quotes != 0 || (shell->parser.buffer[i] != ' ' && shell->parser.buffer[i] != 0))
 829:System/shell/shell.c ****         {
 830:System/shell/shell.c ****             if (shell->parser.buffer[i] == '\"')
 355              		.loc 1 830 13 is_stmt 1 view .LVU104
 356              		.loc 1 830 30 is_stmt 0 view .LVU105
 357 0022 0269     		ldr	r2, [r0, #16]
 358              		.loc 1 830 37 view .LVU106
 359 0024 1F46     		mov	r7, r3
 360 0026 D418     		adds	r4, r2, r3
 361 0028 D55C     		ldrb	r5, [r2, r3]	@ zero_extendqisi2
 362              		.loc 1 830 16 view .LVU107
 363 002a 222D     		cmp	r5, #34
 364 002c 14D0     		beq	.L40
 365              	.L34:
 831:System/shell/shell.c ****             {
 832:System/shell/shell.c ****                 quotes = quotes ? 0 : 1;
 833:System/shell/shell.c ****             }
 834:System/shell/shell.c ****             if (record == 1)
 366              		.loc 1 834 13 is_stmt 1 view .LVU108
 367              		.loc 1 834 16 is_stmt 0 view .LVU109
 368 002e B6B9     		cbnz	r6, .L41
 369              	.LVL36:
 370              	.L35:
 835:System/shell/shell.c ****             {
 836:System/shell/shell.c ****                 if (shell->parser.paramCount < SHELL_PARAMETER_MAX_NUMBER)
 837:System/shell/shell.c ****                 {
 838:System/shell/shell.c ****                     shell->parser.param[shell->parser.paramCount++] =
 839:System/shell/shell.c ****                         &(shell->parser.buffer[i]);
 840:System/shell/shell.c ****                 }
 841:System/shell/shell.c ****                 record = 0;
 842:System/shell/shell.c ****             }
 843:System/shell/shell.c ****             if (shell->parser.buffer[i] == '\\' && shell->parser.buffer[i + 1] != 0)
 371              		.loc 1 843 13 is_stmt 1 view .LVU110
 372              		.loc 1 843 37 is_stmt 0 view .LVU111
 373 0030 2478     		ldrb	r4, [r4]	@ zero_extendqisi2
 374              		.loc 1 843 16 view .LVU112
 375 0032 5C2C     		cmp	r4, #92
 376 0034 20D0     		beq	.L42
 377              	.LVL37:
 378              	.L36:
 826:System/shell/shell.c ****     {
 379              		.loc 1 826 58 is_stmt 1 discriminator 2 view .LVU113
 826:System/shell/shell.c ****     {
 380              		.loc 1 826 59 is_stmt 0 discriminator 2 view .LVU114
 381 0036 0133     		adds	r3, r3, #1
 382              	.LVL38:
 826:System/shell/shell.c ****     {
 383              		.loc 1 826 59 discriminator 2 view .LVU115
 384 0038 9BB2     		uxth	r3, r3
 385              	.LVL39:
 386              	.L31:
 826:System/shell/shell.c ****     {
 387              		.loc 1 826 32 is_stmt 1 discriminator 1 view .LVU116
 826:System/shell/shell.c ****     {
 388              		.loc 1 826 49 is_stmt 0 discriminator 1 view .LVU117
 389 003a 8289     		ldrh	r2, [r0, #12]
ARM GAS  C:\Users\HUAV\AppData\Local\Temp\ccBfvIcs.s 			page 23


 826:System/shell/shell.c ****     {
 390              		.loc 1 826 5 discriminator 1 view .LVU118
 391 003c 9A42     		cmp	r2, r3
 392 003e 22D9     		bls	.L43
 828:System/shell/shell.c ****         {
 393              		.loc 1 828 9 is_stmt 1 view .LVU119
 828:System/shell/shell.c ****         {
 394              		.loc 1 828 12 is_stmt 0 view .LVU120
 395 0040 0029     		cmp	r1, #0
 396 0042 EED1     		bne	.L32
 828:System/shell/shell.c ****         {
 397              		.loc 1 828 42 discriminator 1 view .LVU121
 398 0044 0469     		ldr	r4, [r0, #16]
 828:System/shell/shell.c ****         {
 399              		.loc 1 828 49 discriminator 1 view .LVU122
 400 0046 E25C     		ldrb	r2, [r4, r3]	@ zero_extendqisi2
 828:System/shell/shell.c ****         {
 401              		.loc 1 828 25 discriminator 1 view .LVU123
 402 0048 202A     		cmp	r2, #32
 403 004a 18BF     		it	ne
 404 004c 002A     		cmpne	r2, #0
 405 004e E8D1     		bne	.L32
 844:System/shell/shell.c ****             {
 845:System/shell/shell.c ****                 i++;
 846:System/shell/shell.c ****             }
 847:System/shell/shell.c ****         }
 848:System/shell/shell.c ****         else
 849:System/shell/shell.c ****         {
 850:System/shell/shell.c ****             shell->parser.buffer[i] = 0;
 406              		.loc 1 850 13 is_stmt 1 view .LVU124
 407              		.loc 1 850 37 is_stmt 0 view .LVU125
 408 0050 0022     		movs	r2, #0
 409 0052 E254     		strb	r2, [r4, r3]
 851:System/shell/shell.c ****             record = 1;
 410              		.loc 1 851 13 is_stmt 1 view .LVU126
 411              	.LVL40:
 412              		.loc 1 851 20 is_stmt 0 view .LVU127
 413 0054 0126     		movs	r6, #1
 414 0056 EEE7     		b	.L36
 415              	.LVL41:
 416              	.L40:
 832:System/shell/shell.c ****             }
 417              		.loc 1 832 17 is_stmt 1 view .LVU128
 832:System/shell/shell.c ****             }
 418              		.loc 1 832 37 is_stmt 0 view .LVU129
 419 0058 81F00101 		eor	r1, r1, #1
 420              	.LVL42:
 832:System/shell/shell.c ****             }
 421              		.loc 1 832 37 view .LVU130
 422 005c E7E7     		b	.L34
 423              	.L41:
 836:System/shell/shell.c ****                 {
 424              		.loc 1 836 17 is_stmt 1 view .LVU131
 836:System/shell/shell.c ****                 {
 425              		.loc 1 836 34 is_stmt 0 view .LVU132
 426 005e C58E     		ldrh	r5, [r0, #54]
 836:System/shell/shell.c ****                 {
ARM GAS  C:\Users\HUAV\AppData\Local\Temp\ccBfvIcs.s 			page 24


 427              		.loc 1 836 20 view .LVU133
 428 0060 072D     		cmp	r5, #7
 429 0062 07D8     		bhi	.L38
 838:System/shell/shell.c ****                         &(shell->parser.buffer[i]);
 430              		.loc 1 838 21 is_stmt 1 view .LVU134
 838:System/shell/shell.c ****                         &(shell->parser.buffer[i]);
 431              		.loc 1 838 65 is_stmt 0 view .LVU135
 432 0064 6E1C     		adds	r6, r5, #1
 433              	.LVL43:
 838:System/shell/shell.c ****                         &(shell->parser.buffer[i]);
 434              		.loc 1 838 65 view .LVU136
 435 0066 C686     		strh	r6, [r0, #54]	@ movhi
 838:System/shell/shell.c ****                         &(shell->parser.buffer[i]);
 436              		.loc 1 838 69 view .LVU137
 437 0068 0435     		adds	r5, r5, #4
 438 006a 00EB8505 		add	r5, r0, r5, lsl #2
 439 006e 6C60     		str	r4, [r5, #4]
 841:System/shell/shell.c ****             }
 440              		.loc 1 841 24 view .LVU138
 441 0070 0026     		movs	r6, #0
 442 0072 DDE7     		b	.L35
 443              	.LVL44:
 444              	.L38:
 841:System/shell/shell.c ****             }
 445              		.loc 1 841 24 view .LVU139
 446 0074 0026     		movs	r6, #0
 447              	.LVL45:
 841:System/shell/shell.c ****             }
 448              		.loc 1 841 24 view .LVU140
 449 0076 DBE7     		b	.L35
 450              	.LVL46:
 451              	.L42:
 843:System/shell/shell.c ****             {
 452              		.loc 1 843 72 discriminator 1 view .LVU141
 453 0078 3A44     		add	r2, r2, r7
 454 007a 5278     		ldrb	r2, [r2, #1]	@ zero_extendqisi2
 843:System/shell/shell.c ****             {
 455              		.loc 1 843 49 discriminator 1 view .LVU142
 456 007c 002A     		cmp	r2, #0
 457 007e DAD0     		beq	.L36
 845:System/shell/shell.c ****             }
 458              		.loc 1 845 17 is_stmt 1 view .LVU143
 845:System/shell/shell.c ****             }
 459              		.loc 1 845 18 is_stmt 0 view .LVU144
 460 0080 0133     		adds	r3, r3, #1
 461              	.LVL47:
 845:System/shell/shell.c ****             }
 462              		.loc 1 845 18 view .LVU145
 463 0082 9BB2     		uxth	r3, r3
 464              	.LVL48:
 845:System/shell/shell.c ****             }
 465              		.loc 1 845 18 view .LVU146
 466 0084 D7E7     		b	.L36
 467              	.L43:
 845:System/shell/shell.c ****             }
 468              		.loc 1 845 18 view .LVU147
 469              	.LBE5:
ARM GAS  C:\Users\HUAV\AppData\Local\Temp\ccBfvIcs.s 			page 25


 852:System/shell/shell.c ****         }
 853:System/shell/shell.c ****     }
 854:System/shell/shell.c **** }
 470              		.loc 1 854 1 view .LVU148
 471 0086 F0BC     		pop	{r4, r5, r6, r7}
 472              	.LCFI5:
 473              		.cfi_restore 7
 474              		.cfi_restore 6
 475              		.cfi_restore 5
 476              		.cfi_restore 4
 477              		.cfi_def_cfa_offset 0
 478              	.LVL49:
 479              		.loc 1 854 1 view .LVU149
 480 0088 7047     		bx	lr
 481              		.cfi_endproc
 482              	.LFE29:
 484              		.section	.text.shellHistoryAdd,"ax",%progbits
 485              		.align	1
 486              		.syntax unified
 487              		.thumb
 488              		.thumb_func
 489              		.fpu fpv5-d16
 491              	shellHistoryAdd:
 492              	.LVL50:
 493              	.LFB40:
 855:System/shell/shell.c **** 
 856:System/shell/shell.c **** /**
 857:System/shell/shell.c ****  * @brief shell去除字符串参数头尾的双引号
 858:System/shell/shell.c ****  *
 859:System/shell/shell.c ****  * @param shell shell对象
 860:System/shell/shell.c ****  */
 861:System/shell/shell.c **** static void shellRemoveParamQuotes(Shell *shell)
 862:System/shell/shell.c **** {
 863:System/shell/shell.c ****     unsigned short paramLength;
 864:System/shell/shell.c ****     for (unsigned short i = 0; i < shell->parser.paramCount; i++)
 865:System/shell/shell.c ****     {
 866:System/shell/shell.c ****         if (shell->parser.param[i][0] == '\"')
 867:System/shell/shell.c ****         {
 868:System/shell/shell.c ****             shell->parser.param[i][0] = 0;
 869:System/shell/shell.c ****             shell->parser.param[i] = &shell->parser.param[i][1];
 870:System/shell/shell.c ****         }
 871:System/shell/shell.c ****         paramLength = strlen(shell->parser.param[i]);
 872:System/shell/shell.c ****         if (shell->parser.param[i][paramLength - 1] == '\"')
 873:System/shell/shell.c ****         {
 874:System/shell/shell.c ****             shell->parser.param[i][paramLength - 1] = 0;
 875:System/shell/shell.c ****         }
 876:System/shell/shell.c ****     }
 877:System/shell/shell.c **** }
 878:System/shell/shell.c **** 
 879:System/shell/shell.c **** /**
 880:System/shell/shell.c ****  * @brief shell匹配命令
 881:System/shell/shell.c ****  *
 882:System/shell/shell.c ****  * @param shell shell对象
 883:System/shell/shell.c ****  * @param cmd 命令
 884:System/shell/shell.c ****  * @param base 匹配命令表基址
 885:System/shell/shell.c ****  * @param compareLength 匹配字符串长度
 886:System/shell/shell.c ****  * @return ShellCommand* 匹配到的命令
ARM GAS  C:\Users\HUAV\AppData\Local\Temp\ccBfvIcs.s 			page 26


 887:System/shell/shell.c ****  */
 888:System/shell/shell.c **** ShellCommand *shellSeekCommand(Shell *shell,
 889:System/shell/shell.c ****                                const char *cmd,
 890:System/shell/shell.c ****                                ShellCommand *base,
 891:System/shell/shell.c ****                                unsigned short compareLength)
 892:System/shell/shell.c **** {
 893:System/shell/shell.c ****     const char *name;
 894:System/shell/shell.c ****     int ret;
 895:System/shell/shell.c ****     unsigned short count = shell->commandList.count -
 896:System/shell/shell.c ****                            ((int)base - (int)shell->commandList.base) / sizeof(ShellCommand);
 897:System/shell/shell.c ****     for (unsigned short i = 0; i < count; i++)
 898:System/shell/shell.c ****     {
 899:System/shell/shell.c ****         if (base[i].attr.attrs.type == SHELL_TYPE_KEY || shellCheckPermission(shell, &base[i]) != 0
 900:System/shell/shell.c ****         {
 901:System/shell/shell.c ****             continue;
 902:System/shell/shell.c ****         }
 903:System/shell/shell.c ****         name = shellGetCommandName(&base[i]);
 904:System/shell/shell.c ****         if (!compareLength)
 905:System/shell/shell.c ****         {
 906:System/shell/shell.c ****             ret = strcmp(cmd, name);
 907:System/shell/shell.c ****             if (strcmp(cmd, name) == 0)
 908:System/shell/shell.c ****             {
 909:System/shell/shell.c ****                 return &base[i];
 910:System/shell/shell.c ****             }
 911:System/shell/shell.c ****         }
 912:System/shell/shell.c ****         else
 913:System/shell/shell.c ****         {
 914:System/shell/shell.c ****             if (strncmp(cmd, name, compareLength) == 0)
 915:System/shell/shell.c ****             {
 916:System/shell/shell.c ****                 return &base[i];
 917:System/shell/shell.c ****             }
 918:System/shell/shell.c ****         }
 919:System/shell/shell.c ****     }
 920:System/shell/shell.c ****     return NULL;
 921:System/shell/shell.c **** }
 922:System/shell/shell.c **** 
 923:System/shell/shell.c **** /**
 924:System/shell/shell.c ****  * @brief shell 获取变量值
 925:System/shell/shell.c ****  *
 926:System/shell/shell.c ****  * @param shell shell对象
 927:System/shell/shell.c ****  * @param command 命令
 928:System/shell/shell.c ****  * @return int 变量值
 929:System/shell/shell.c ****  */
 930:System/shell/shell.c **** int shellGetVarValue(Shell *shell, ShellCommand *command)
 931:System/shell/shell.c **** {
 932:System/shell/shell.c ****     int value = 0;
 933:System/shell/shell.c ****     switch (command->attr.attrs.type)
 934:System/shell/shell.c ****     {
 935:System/shell/shell.c ****     case SHELL_TYPE_VAR_INT:
 936:System/shell/shell.c ****         value = *((int *)(command->data.var.value));
 937:System/shell/shell.c ****         break;
 938:System/shell/shell.c ****     case SHELL_TYPE_VAR_SHORT:
 939:System/shell/shell.c ****         value = *((short *)(command->data.var.value));
 940:System/shell/shell.c ****         break;
 941:System/shell/shell.c ****     case SHELL_TYPE_VAR_CHAR:
 942:System/shell/shell.c ****         value = *((char *)(command->data.var.value));
 943:System/shell/shell.c ****         break;
ARM GAS  C:\Users\HUAV\AppData\Local\Temp\ccBfvIcs.s 			page 27


 944:System/shell/shell.c ****     case SHELL_TYPE_VAR_STRING:
 945:System/shell/shell.c ****     case SHELL_TYPE_VAR_POINT:
 946:System/shell/shell.c ****         value = (int)(command->data.var.value);
 947:System/shell/shell.c ****         break;
 948:System/shell/shell.c ****     case SHELL_TYPE_VAR_NODE:
 949:System/shell/shell.c ****         value = ((ShellNodeVarAttr *)command->data.var.value)->get ? ((ShellNodeVarAttr *)command->
 950:System/shell/shell.c ****                                                                          ->get(((ShellNodeVarAttr *
 951:System/shell/shell.c ****                                                                    : 0;
 952:System/shell/shell.c ****         break;
 953:System/shell/shell.c ****     default:
 954:System/shell/shell.c ****         break;
 955:System/shell/shell.c ****     }
 956:System/shell/shell.c ****     return value;
 957:System/shell/shell.c **** }
 958:System/shell/shell.c **** 
 959:System/shell/shell.c **** /**
 960:System/shell/shell.c ****  * @brief shell设置变量值
 961:System/shell/shell.c ****  *
 962:System/shell/shell.c ****  * @param shell shell对象
 963:System/shell/shell.c ****  * @param command 命令
 964:System/shell/shell.c ****  * @param value 值
 965:System/shell/shell.c ****  * @return int 返回变量值
 966:System/shell/shell.c ****  */
 967:System/shell/shell.c **** int shellSetVarValue(Shell *shell, ShellCommand *command, int value)
 968:System/shell/shell.c **** {
 969:System/shell/shell.c ****     if (command->attr.attrs.readOnly)
 970:System/shell/shell.c ****     {
 971:System/shell/shell.c ****         shellWriteString(shell, shellText[SHELL_TEXT_VAR_READ_ONLY_CANNOT_MODIFY]);
 972:System/shell/shell.c ****     }
 973:System/shell/shell.c ****     else
 974:System/shell/shell.c ****     {
 975:System/shell/shell.c ****         switch (command->attr.attrs.type)
 976:System/shell/shell.c ****         {
 977:System/shell/shell.c ****         case SHELL_TYPE_VAR_INT:
 978:System/shell/shell.c ****             *((int *)(command->data.var.value)) = value;
 979:System/shell/shell.c ****             break;
 980:System/shell/shell.c ****         case SHELL_TYPE_VAR_SHORT:
 981:System/shell/shell.c ****             *((short *)(command->data.var.value)) = value;
 982:System/shell/shell.c ****             break;
 983:System/shell/shell.c ****         case SHELL_TYPE_VAR_CHAR:
 984:System/shell/shell.c ****             *((char *)(command->data.var.value)) = value;
 985:System/shell/shell.c ****             break;
 986:System/shell/shell.c ****         case SHELL_TYPE_VAR_STRING:
 987:System/shell/shell.c ****             shellStringCopy(((char *)(command->data.var.value)), (char *)value);
 988:System/shell/shell.c ****             break;
 989:System/shell/shell.c ****         case SHELL_TYPE_VAR_POINT:
 990:System/shell/shell.c ****             shellWriteString(shell, shellText[SHELL_TEXT_POINT_CANNOT_MODIFY]);
 991:System/shell/shell.c ****             break;
 992:System/shell/shell.c ****         case SHELL_TYPE_VAR_NODE:
 993:System/shell/shell.c ****             if (((ShellNodeVarAttr *)command->data.var.value)->set)
 994:System/shell/shell.c ****             {
 995:System/shell/shell.c ****                 if (((ShellNodeVarAttr *)command->data.var.value)->var)
 996:System/shell/shell.c ****                 {
 997:System/shell/shell.c ****                     ((ShellNodeVarAttr *)command->data.var.value)
 998:System/shell/shell.c ****                         ->set(((ShellNodeVarAttr *)command->data.var.value)->var, value);
 999:System/shell/shell.c ****                 }
1000:System/shell/shell.c ****                 else
ARM GAS  C:\Users\HUAV\AppData\Local\Temp\ccBfvIcs.s 			page 28


1001:System/shell/shell.c ****                 {
1002:System/shell/shell.c ****                     ((ShellNodeVarAttr *)command->data.var.value)->set(value);
1003:System/shell/shell.c ****                 }
1004:System/shell/shell.c ****             }
1005:System/shell/shell.c ****             break;
1006:System/shell/shell.c ****         default:
1007:System/shell/shell.c ****             break;
1008:System/shell/shell.c ****         }
1009:System/shell/shell.c ****     }
1010:System/shell/shell.c ****     return shellShowVar(shell, command);
1011:System/shell/shell.c **** }
1012:System/shell/shell.c **** 
1013:System/shell/shell.c **** /**
1014:System/shell/shell.c ****  * @brief shell变量输出
1015:System/shell/shell.c ****  *
1016:System/shell/shell.c ****  * @param shell shell对象
1017:System/shell/shell.c ****  * @param command 命令
1018:System/shell/shell.c ****  * @return int 返回变量值
1019:System/shell/shell.c ****  */
1020:System/shell/shell.c **** static int shellShowVar(Shell *shell, ShellCommand *command)
1021:System/shell/shell.c **** {
1022:System/shell/shell.c ****     char buffer[12] = "00000000000";
1023:System/shell/shell.c ****     int value = shellGetVarValue(shell, command);
1024:System/shell/shell.c **** 
1025:System/shell/shell.c ****     shellWriteString(shell, command->data.var.name);
1026:System/shell/shell.c ****     shellWriteString(shell, " = ");
1027:System/shell/shell.c **** 
1028:System/shell/shell.c ****     switch (command->attr.attrs.type)
1029:System/shell/shell.c ****     {
1030:System/shell/shell.c ****     case SHELL_TYPE_VAR_STRING:
1031:System/shell/shell.c ****         shellWriteString(shell, "\"");
1032:System/shell/shell.c ****         shellWriteString(shell, (char *)value);
1033:System/shell/shell.c ****         shellWriteString(shell, "\"");
1034:System/shell/shell.c ****         break;
1035:System/shell/shell.c ****     // case SHELL_TYPE_VAR_INT:
1036:System/shell/shell.c ****     // case SHELL_TYPE_VAR_SHORT:
1037:System/shell/shell.c ****     // case SHELL_TYPE_VAR_CHAR:
1038:System/shell/shell.c ****     // case SHELL_TYPE_VAR_POINT:
1039:System/shell/shell.c ****     default:
1040:System/shell/shell.c ****         shellWriteString(shell, &buffer[11 - shellToDec(value, buffer)]);
1041:System/shell/shell.c ****         shellWriteString(shell, ", 0x");
1042:System/shell/shell.c ****         for (short i = 0; i < 11; i++)
1043:System/shell/shell.c ****         {
1044:System/shell/shell.c ****             buffer[i] = '0';
1045:System/shell/shell.c ****         }
1046:System/shell/shell.c ****         shellToHex(value, buffer);
1047:System/shell/shell.c ****         shellWriteString(shell, buffer);
1048:System/shell/shell.c ****         break;
1049:System/shell/shell.c ****     }
1050:System/shell/shell.c **** 
1051:System/shell/shell.c ****     shellWriteString(shell, "\r\n");
1052:System/shell/shell.c ****     return value;
1053:System/shell/shell.c **** }
1054:System/shell/shell.c **** 
1055:System/shell/shell.c **** /**
1056:System/shell/shell.c ****  * @brief shell设置变量
1057:System/shell/shell.c ****  *
ARM GAS  C:\Users\HUAV\AppData\Local\Temp\ccBfvIcs.s 			page 29


1058:System/shell/shell.c ****  * @param name 变量名
1059:System/shell/shell.c ****  * @param value 变量值
1060:System/shell/shell.c ****  * @return int 返回变量值
1061:System/shell/shell.c ****  */
1062:System/shell/shell.c **** int shellSetVar(char *name, int value)
1063:System/shell/shell.c **** {
1064:System/shell/shell.c ****     Shell *shell = shellGetCurrent();
1065:System/shell/shell.c ****     if (shell == NULL)
1066:System/shell/shell.c ****     {
1067:System/shell/shell.c ****         return 0;
1068:System/shell/shell.c ****     }
1069:System/shell/shell.c ****     ShellCommand *command = shellSeekCommand(shell,
1070:System/shell/shell.c ****                                              name,
1071:System/shell/shell.c ****                                              shell->commandList.base,
1072:System/shell/shell.c ****                                              0);
1073:System/shell/shell.c ****     if (!command)
1074:System/shell/shell.c ****     {
1075:System/shell/shell.c ****         shellWriteString(shell, shellText[SHELL_TEXT_VAR_NOT_FOUND]);
1076:System/shell/shell.c ****         return 0;
1077:System/shell/shell.c ****     }
1078:System/shell/shell.c ****     if (command->attr.attrs.type < SHELL_TYPE_VAR_INT || command->attr.attrs.type > SHELL_TYPE_VAR_
1079:System/shell/shell.c ****     {
1080:System/shell/shell.c ****         shellWriteString(shell, name);
1081:System/shell/shell.c ****         shellWriteString(shell, shellText[SHELL_TEXT_NOT_VAR]);
1082:System/shell/shell.c ****         return 0;
1083:System/shell/shell.c ****     }
1084:System/shell/shell.c ****     return shellSetVarValue(shell, command, value);
1085:System/shell/shell.c **** }
1086:System/shell/shell.c **** SHELL_EXPORT_CMD(
1087:System/shell/shell.c ****     SHELL_CMD_PERMISSION(0) | SHELL_CMD_TYPE(SHELL_TYPE_CMD_FUNC) | SHELL_CMD_DISABLE_RETURN,
1088:System/shell/shell.c ****     setVar, shellSetVar, set var);
1089:System/shell/shell.c **** 
1090:System/shell/shell.c **** /**
1091:System/shell/shell.c ****  * @brief shell运行命令
1092:System/shell/shell.c ****  *
1093:System/shell/shell.c ****  * @param shell shell对象
1094:System/shell/shell.c ****  * @param command 命令
1095:System/shell/shell.c ****  *
1096:System/shell/shell.c ****  * @return unsigned int 命令返回值
1097:System/shell/shell.c ****  */
1098:System/shell/shell.c **** unsigned int shellRunCommand(Shell *shell, ShellCommand *command)
1099:System/shell/shell.c **** {
1100:System/shell/shell.c ****     int returnValue = 0;
1101:System/shell/shell.c ****     shell->status.isActive = 1;
1102:System/shell/shell.c ****     if (command->attr.attrs.type == SHELL_TYPE_CMD_MAIN)
1103:System/shell/shell.c ****     {
1104:System/shell/shell.c ****         shellRemoveParamQuotes(shell);
1105:System/shell/shell.c ****         returnValue = command->data.cmd.function(shell->parser.paramCount,
1106:System/shell/shell.c ****                                                  shell->parser.param);
1107:System/shell/shell.c ****         if (!command->attr.attrs.disableReturn)
1108:System/shell/shell.c ****         {
1109:System/shell/shell.c ****             shellWriteReturnValue(shell, returnValue);
1110:System/shell/shell.c ****         }
1111:System/shell/shell.c ****     }
1112:System/shell/shell.c ****     else if (command->attr.attrs.type == SHELL_TYPE_CMD_FUNC)
1113:System/shell/shell.c ****     {
1114:System/shell/shell.c ****         returnValue = shellExtRun(shell,
ARM GAS  C:\Users\HUAV\AppData\Local\Temp\ccBfvIcs.s 			page 30


1115:System/shell/shell.c ****                                   command,
1116:System/shell/shell.c ****                                   shell->parser.paramCount,
1117:System/shell/shell.c ****                                   shell->parser.param);
1118:System/shell/shell.c ****         if (!command->attr.attrs.disableReturn)
1119:System/shell/shell.c ****         {
1120:System/shell/shell.c ****             shellWriteReturnValue(shell, returnValue);
1121:System/shell/shell.c ****         }
1122:System/shell/shell.c ****     }
1123:System/shell/shell.c ****     else if (command->attr.attrs.type >= SHELL_TYPE_VAR_INT && command->attr.attrs.type <= SHELL_TY
1124:System/shell/shell.c ****     {
1125:System/shell/shell.c ****         shellShowVar(shell, command);
1126:System/shell/shell.c ****     }
1127:System/shell/shell.c ****     else if (command->attr.attrs.type == SHELL_TYPE_USER)
1128:System/shell/shell.c ****     {
1129:System/shell/shell.c ****         shellSetUser(shell, command);
1130:System/shell/shell.c ****     }
1131:System/shell/shell.c ****     shell->status.isActive = 0;
1132:System/shell/shell.c **** 
1133:System/shell/shell.c ****     return returnValue;
1134:System/shell/shell.c **** }
1135:System/shell/shell.c **** 
1136:System/shell/shell.c **** /**
1137:System/shell/shell.c ****  * @brief shell校验密码
1138:System/shell/shell.c ****  *
1139:System/shell/shell.c ****  * @param shell shell对象
1140:System/shell/shell.c ****  */
1141:System/shell/shell.c **** static void shellCheckPassword(Shell *shell)
1142:System/shell/shell.c **** {
1143:System/shell/shell.c ****     if (strcmp(shell->parser.buffer, shell->info.user->data.user.password) == 0)
1144:System/shell/shell.c ****     {
1145:System/shell/shell.c ****         shell->status.isChecked = 1;
1146:System/shell/shell.c **** #if SHELL_SHOW_INFO == 1
1147:System/shell/shell.c ****         shellWriteString(shell, shellText[SHELL_TEXT_INFO]);
1148:System/shell/shell.c **** #endif
1149:System/shell/shell.c ****     }
1150:System/shell/shell.c ****     else
1151:System/shell/shell.c ****     {
1152:System/shell/shell.c ****         shellWriteString(shell, shellText[SHELL_TEXT_PASSWORD_ERROR]);
1153:System/shell/shell.c ****     }
1154:System/shell/shell.c ****     shell->parser.length = 0;
1155:System/shell/shell.c ****     shell->parser.cursor = 0;
1156:System/shell/shell.c **** }
1157:System/shell/shell.c **** 
1158:System/shell/shell.c **** /**
1159:System/shell/shell.c ****  * @brief shell设置用户
1160:System/shell/shell.c ****  *
1161:System/shell/shell.c ****  * @param shell shell对象
1162:System/shell/shell.c ****  * @param user 用户
1163:System/shell/shell.c ****  */
1164:System/shell/shell.c **** static void shellSetUser(Shell *shell, const ShellCommand *user)
1165:System/shell/shell.c **** {
1166:System/shell/shell.c ****     shell->info.user = user;
1167:System/shell/shell.c ****     shell->status.isChecked =
1168:System/shell/shell.c ****         ((user->data.user.password && strlen(user->data.user.password) != 0) && (shell->parser.para
1169:System/shell/shell.c ****             ? 0
1170:System/shell/shell.c ****             : 1;
1171:System/shell/shell.c **** 
ARM GAS  C:\Users\HUAV\AppData\Local\Temp\ccBfvIcs.s 			page 31


1172:System/shell/shell.c **** #if SHELL_CLS_WHEN_LOGIN == 1
1173:System/shell/shell.c ****     shellWriteString(shell, shellText[SHELL_TEXT_CLEAR_CONSOLE]);
1174:System/shell/shell.c **** #endif
1175:System/shell/shell.c **** #if SHELL_SHOW_INFO == 1
1176:System/shell/shell.c ****     if (shell->status.isChecked)
1177:System/shell/shell.c ****     {
1178:System/shell/shell.c ****         shellWriteString(shell, shellText[SHELL_TEXT_INFO]);
1179:System/shell/shell.c ****     }
1180:System/shell/shell.c **** #endif
1181:System/shell/shell.c **** }
1182:System/shell/shell.c **** 
1183:System/shell/shell.c **** /**
1184:System/shell/shell.c ****  * @brief shell写返回值
1185:System/shell/shell.c ****  *
1186:System/shell/shell.c ****  * @param shell shell对象
1187:System/shell/shell.c ****  * @param value 返回值
1188:System/shell/shell.c ****  */
1189:System/shell/shell.c **** static void shellWriteReturnValue(Shell *shell, int value)
1190:System/shell/shell.c **** {
1191:System/shell/shell.c ****     char buffer[12] = "00000000000";
1192:System/shell/shell.c ****     shellWriteString(shell, "Return: ");
1193:System/shell/shell.c ****     shellWriteString(shell, &buffer[11 - shellToDec(value, buffer)]);
1194:System/shell/shell.c ****     shellWriteString(shell, ", 0x");
1195:System/shell/shell.c ****     for (short i = 0; i < 11; i++)
1196:System/shell/shell.c ****     {
1197:System/shell/shell.c ****         buffer[i] = '0';
1198:System/shell/shell.c ****     }
1199:System/shell/shell.c ****     shellToHex(value, buffer);
1200:System/shell/shell.c ****     shellWriteString(shell, buffer);
1201:System/shell/shell.c ****     shellWriteString(shell, "\r\n");
1202:System/shell/shell.c **** }
1203:System/shell/shell.c **** 
1204:System/shell/shell.c **** /**
1205:System/shell/shell.c ****  * @brief shell历史记录添加
1206:System/shell/shell.c ****  *
1207:System/shell/shell.c ****  * @param shell shell对象
1208:System/shell/shell.c ****  */
1209:System/shell/shell.c **** static void shellHistoryAdd(Shell *shell)
1210:System/shell/shell.c **** {
 494              		.loc 1 1210 1 is_stmt 1 view -0
 495              		.cfi_startproc
 496              		@ args = 0, pretend = 0, frame = 0
 497              		@ frame_needed = 0, uses_anonymous_args = 0
 498              		.loc 1 1210 1 is_stmt 0 view .LVU151
 499 0000 10B5     		push	{r4, lr}
 500              	.LCFI6:
 501              		.cfi_def_cfa_offset 8
 502              		.cfi_offset 4, -8
 503              		.cfi_offset 14, -4
 504 0002 0446     		mov	r4, r0
1211:System/shell/shell.c ****     shell->history.offset = 0;
 505              		.loc 1 1211 5 is_stmt 1 view .LVU152
 506              		.loc 1 1211 27 is_stmt 0 view .LVU153
 507 0004 0023     		movs	r3, #0
 508 0006 A0F85430 		strh	r3, [r0, #84]	@ movhi
1212:System/shell/shell.c ****     if (shell->history.number > 0 && strcmp(shell->history.item[(shell->history.record == 0 ? SHELL
 509              		.loc 1 1212 5 is_stmt 1 view .LVU154
ARM GAS  C:\Users\HUAV\AppData\Local\Temp\ccBfvIcs.s 			page 32


 510              		.loc 1 1212 23 is_stmt 0 view .LVU155
 511 000a B0F85030 		ldrh	r3, [r0, #80]
 512              		.loc 1 1212 8 view .LVU156
 513 000e 5BB1     		cbz	r3, .L45
 514              		.loc 1 1212 80 discriminator 1 view .LVU157
 515 0010 B0F85230 		ldrh	r3, [r0, #82]
 516              		.loc 1 1212 145 discriminator 1 view .LVU158
 517 0014 53B3     		cbz	r3, .L50
 518              		.loc 1 1212 145 discriminator 2 view .LVU159
 519 0016 013B     		subs	r3, r3, #1
 520              	.L46:
 521              		.loc 1 1212 64 discriminator 5 view .LVU160
 522 0018 0E33     		adds	r3, r3, #14
 523 001a 04EB8303 		add	r3, r4, r3, lsl #2
 524              		.loc 1 1212 38 discriminator 5 view .LVU161
 525 001e 2169     		ldr	r1, [r4, #16]
 526 0020 5868     		ldr	r0, [r3, #4]
 527              	.LVL51:
 528              		.loc 1 1212 38 discriminator 5 view .LVU162
 529 0022 FFF7FEFF 		bl	strcmp
 530              	.LVL52:
 531              		.loc 1 1212 35 discriminator 5 view .LVU163
 532 0026 00B3     		cbz	r0, .L44
 533              	.L45:
1213:System/shell/shell.c ****                                             shell->parser.buffer) == 0)
1214:System/shell/shell.c ****     {
1215:System/shell/shell.c ****         return;
1216:System/shell/shell.c ****     }
1217:System/shell/shell.c ****     if (shellStringCopy(shell->history.item[shell->history.record],
 534              		.loc 1 1217 5 is_stmt 1 view .LVU164
 535              		.loc 1 1217 59 is_stmt 0 view .LVU165
 536 0028 B4F85230 		ldrh	r3, [r4, #82]
 537              		.loc 1 1217 9 view .LVU166
 538 002c 0E33     		adds	r3, r3, #14
 539 002e 04EB8303 		add	r3, r4, r3, lsl #2
 540 0032 2169     		ldr	r1, [r4, #16]
 541 0034 5868     		ldr	r0, [r3, #4]
 542 0036 FFF7FEFF 		bl	shellStringCopy
 543              	.LVL53:
 544              		.loc 1 1217 8 view .LVU167
 545 003a 20B1     		cbz	r0, .L48
1218:System/shell/shell.c ****                         shell->parser.buffer) != 0)
1219:System/shell/shell.c ****     {
1220:System/shell/shell.c ****         shell->history.record++;
 546              		.loc 1 1220 9 is_stmt 1 view .LVU168
 547              		.loc 1 1220 23 is_stmt 0 view .LVU169
 548 003c B4F85230 		ldrh	r3, [r4, #82]
 549              		.loc 1 1220 30 view .LVU170
 550 0040 0133     		adds	r3, r3, #1
 551 0042 A4F85230 		strh	r3, [r4, #82]	@ movhi
 552              	.L48:
1221:System/shell/shell.c ****     }
1222:System/shell/shell.c ****     if (++shell->history.number > SHELL_HISTORY_MAX_NUMBER)
 553              		.loc 1 1222 5 is_stmt 1 view .LVU171
 554              		.loc 1 1222 25 is_stmt 0 view .LVU172
 555 0046 B4F85030 		ldrh	r3, [r4, #80]
 556              		.loc 1 1222 9 view .LVU173
ARM GAS  C:\Users\HUAV\AppData\Local\Temp\ccBfvIcs.s 			page 33


 557 004a 0133     		adds	r3, r3, #1
 558 004c 9BB2     		uxth	r3, r3
 559              		.loc 1 1222 8 view .LVU174
 560 004e A4F85030 		strh	r3, [r4, #80]	@ movhi
 561 0052 052B     		cmp	r3, #5
 562 0054 02D9     		bls	.L49
1223:System/shell/shell.c ****     {
1224:System/shell/shell.c ****         shell->history.number = SHELL_HISTORY_MAX_NUMBER;
 563              		.loc 1 1224 9 is_stmt 1 view .LVU175
 564              		.loc 1 1224 31 is_stmt 0 view .LVU176
 565 0056 0523     		movs	r3, #5
 566 0058 A4F85030 		strh	r3, [r4, #80]	@ movhi
 567              	.L49:
1225:System/shell/shell.c ****     }
1226:System/shell/shell.c ****     if (shell->history.record >= SHELL_HISTORY_MAX_NUMBER)
 568              		.loc 1 1226 5 is_stmt 1 view .LVU177
 569              		.loc 1 1226 23 is_stmt 0 view .LVU178
 570 005c B4F85230 		ldrh	r3, [r4, #82]
 571              		.loc 1 1226 8 view .LVU179
 572 0060 042B     		cmp	r3, #4
 573 0062 02D9     		bls	.L44
1227:System/shell/shell.c ****     {
1228:System/shell/shell.c ****         shell->history.record = 0;
 574              		.loc 1 1228 9 is_stmt 1 view .LVU180
 575              		.loc 1 1228 31 is_stmt 0 view .LVU181
 576 0064 0023     		movs	r3, #0
 577 0066 A4F85230 		strh	r3, [r4, #82]	@ movhi
 578              	.L44:
1229:System/shell/shell.c ****     }
1230:System/shell/shell.c **** }
 579              		.loc 1 1230 1 view .LVU182
 580 006a 10BD     		pop	{r4, pc}
 581              	.LVL54:
 582              	.L50:
1212:System/shell/shell.c ****                                             shell->parser.buffer) == 0)
 583              		.loc 1 1212 145 view .LVU183
 584 006c 0423     		movs	r3, #4
 585 006e D3E7     		b	.L46
 586              		.cfi_endproc
 587              	.LFE40:
 589              		.section	.text.shellRemoveParamQuotes,"ax",%progbits
 590              		.align	1
 591              		.syntax unified
 592              		.thumb
 593              		.thumb_func
 594              		.fpu fpv5-d16
 596              	shellRemoveParamQuotes:
 597              	.LVL55:
 598              	.LFB30:
 862:System/shell/shell.c ****     unsigned short paramLength;
 599              		.loc 1 862 1 is_stmt 1 view -0
 600              		.cfi_startproc
 601              		@ args = 0, pretend = 0, frame = 0
 602              		@ frame_needed = 0, uses_anonymous_args = 0
 862:System/shell/shell.c ****     unsigned short paramLength;
 603              		.loc 1 862 1 is_stmt 0 view .LVU185
 604 0000 70B5     		push	{r4, r5, r6, lr}
ARM GAS  C:\Users\HUAV\AppData\Local\Temp\ccBfvIcs.s 			page 34


 605              	.LCFI7:
 606              		.cfi_def_cfa_offset 16
 607              		.cfi_offset 4, -16
 608              		.cfi_offset 5, -12
 609              		.cfi_offset 6, -8
 610              		.cfi_offset 14, -4
 611 0002 0546     		mov	r5, r0
 863:System/shell/shell.c ****     for (unsigned short i = 0; i < shell->parser.paramCount; i++)
 612              		.loc 1 863 5 is_stmt 1 view .LVU186
 864:System/shell/shell.c ****     {
 613              		.loc 1 864 5 view .LVU187
 614              	.LBB6:
 864:System/shell/shell.c ****     {
 615              		.loc 1 864 10 view .LVU188
 616              	.LVL56:
 864:System/shell/shell.c ****     {
 617              		.loc 1 864 25 is_stmt 0 view .LVU189
 618 0004 0024     		movs	r4, #0
 864:System/shell/shell.c ****     {
 619              		.loc 1 864 5 view .LVU190
 620 0006 0DE0     		b	.L53
 621              	.LVL57:
 622              	.L54:
 871:System/shell/shell.c ****         if (shell->parser.param[i][paramLength - 1] == '\"')
 623              		.loc 1 871 9 is_stmt 1 view .LVU191
 871:System/shell/shell.c ****         if (shell->parser.param[i][paramLength - 1] == '\"')
 624              		.loc 1 871 49 is_stmt 0 view .LVU192
 625 0008 0433     		adds	r3, r3, #4
 626 000a 05EB8303 		add	r3, r5, r3, lsl #2
 627 000e 5E68     		ldr	r6, [r3, #4]
 871:System/shell/shell.c ****         if (shell->parser.param[i][paramLength - 1] == '\"')
 628              		.loc 1 871 23 view .LVU193
 629 0010 3046     		mov	r0, r6
 630 0012 FFF7FEFF 		bl	strlen
 631              	.LVL58:
 872:System/shell/shell.c ****         {
 632              		.loc 1 872 9 is_stmt 1 view .LVU194
 872:System/shell/shell.c ****         {
 633              		.loc 1 872 35 is_stmt 0 view .LVU195
 634 0016 83B2     		uxth	r3, r0
 635 0018 013B     		subs	r3, r3, #1
 636 001a F25C     		ldrb	r2, [r6, r3]	@ zero_extendqisi2
 872:System/shell/shell.c ****         {
 637              		.loc 1 872 12 view .LVU196
 638 001c 222A     		cmp	r2, #34
 639 001e 15D0     		beq	.L58
 640              	.L55:
 864:System/shell/shell.c ****     {
 641              		.loc 1 864 62 is_stmt 1 discriminator 2 view .LVU197
 864:System/shell/shell.c ****     {
 642              		.loc 1 864 63 is_stmt 0 discriminator 2 view .LVU198
 643 0020 0134     		adds	r4, r4, #1
 644              	.LVL59:
 864:System/shell/shell.c ****     {
 645              		.loc 1 864 63 discriminator 2 view .LVU199
 646 0022 A4B2     		uxth	r4, r4
 647              	.LVL60:
ARM GAS  C:\Users\HUAV\AppData\Local\Temp\ccBfvIcs.s 			page 35


 648              	.L53:
 864:System/shell/shell.c ****     {
 649              		.loc 1 864 32 is_stmt 1 discriminator 1 view .LVU200
 864:System/shell/shell.c ****     {
 650              		.loc 1 864 49 is_stmt 0 discriminator 1 view .LVU201
 651 0024 EB8E     		ldrh	r3, [r5, #54]
 864:System/shell/shell.c ****     {
 652              		.loc 1 864 5 discriminator 1 view .LVU202
 653 0026 A342     		cmp	r3, r4
 654 0028 13D9     		bls	.L59
 866:System/shell/shell.c ****         {
 655              		.loc 1 866 9 is_stmt 1 view .LVU203
 866:System/shell/shell.c ****         {
 656              		.loc 1 866 32 is_stmt 0 view .LVU204
 657 002a 2346     		mov	r3, r4
 658 002c 221D     		adds	r2, r4, #4
 659 002e 05EB8202 		add	r2, r5, r2, lsl #2
 660 0032 5268     		ldr	r2, [r2, #4]
 866:System/shell/shell.c ****         {
 661              		.loc 1 866 35 view .LVU205
 662 0034 1178     		ldrb	r1, [r2]	@ zero_extendqisi2
 866:System/shell/shell.c ****         {
 663              		.loc 1 866 12 view .LVU206
 664 0036 2229     		cmp	r1, #34
 665 0038 E6D1     		bne	.L54
 868:System/shell/shell.c ****             shell->parser.param[i] = &shell->parser.param[i][1];
 666              		.loc 1 868 13 is_stmt 1 view .LVU207
 868:System/shell/shell.c ****             shell->parser.param[i] = &shell->parser.param[i][1];
 667              		.loc 1 868 39 is_stmt 0 view .LVU208
 668 003a 0021     		movs	r1, #0
 669 003c 1170     		strb	r1, [r2]
 869:System/shell/shell.c ****         }
 670              		.loc 1 869 13 is_stmt 1 view .LVU209
 869:System/shell/shell.c ****         }
 671              		.loc 1 869 58 is_stmt 0 view .LVU210
 672 003e 221D     		adds	r2, r4, #4
 673 0040 05EB8202 		add	r2, r5, r2, lsl #2
 674 0044 5168     		ldr	r1, [r2, #4]
 869:System/shell/shell.c ****         }
 675              		.loc 1 869 38 view .LVU211
 676 0046 0131     		adds	r1, r1, #1
 869:System/shell/shell.c ****         }
 677              		.loc 1 869 36 view .LVU212
 678 0048 5160     		str	r1, [r2, #4]
 679 004a DDE7     		b	.L54
 680              	.LVL61:
 681              	.L58:
 874:System/shell/shell.c ****         }
 682              		.loc 1 874 13 is_stmt 1 view .LVU213
 874:System/shell/shell.c ****         }
 683              		.loc 1 874 53 is_stmt 0 view .LVU214
 684 004c 0022     		movs	r2, #0
 685 004e F254     		strb	r2, [r6, r3]
 686 0050 E6E7     		b	.L55
 687              	.LVL62:
 688              	.L59:
 874:System/shell/shell.c ****         }
ARM GAS  C:\Users\HUAV\AppData\Local\Temp\ccBfvIcs.s 			page 36


 689              		.loc 1 874 53 view .LVU215
 690              	.LBE6:
 877:System/shell/shell.c **** 
 691              		.loc 1 877 1 view .LVU216
 692 0052 70BD     		pop	{r4, r5, r6, pc}
 877:System/shell/shell.c **** 
 693              		.loc 1 877 1 view .LVU217
 694              		.cfi_endproc
 695              	.LFE30:
 697              		.section	.text.shellGetCurrent,"ax",%progbits
 698              		.align	1
 699              		.global	shellGetCurrent
 700              		.syntax unified
 701              		.thumb
 702              		.thumb_func
 703              		.fpu fpv5-d16
 705              	shellGetCurrent:
 706              	.LFB5:
 228:System/shell/shell.c ****     for (short i = 0; i < SHELL_MAX_NUMBER; i++)
 707              		.loc 1 228 1 is_stmt 1 view -0
 708              		.cfi_startproc
 709              		@ args = 0, pretend = 0, frame = 0
 710              		@ frame_needed = 0, uses_anonymous_args = 0
 711              		@ link register save eliminated.
 229:System/shell/shell.c ****     {
 712              		.loc 1 229 5 view .LVU219
 713              	.LBB7:
 229:System/shell/shell.c ****     {
 714              		.loc 1 229 10 view .LVU220
 715              	.LVL63:
 229:System/shell/shell.c ****     {
 716              		.loc 1 229 16 is_stmt 0 view .LVU221
 717 0000 0023     		movs	r3, #0
 229:System/shell/shell.c ****     {
 718              		.loc 1 229 5 view .LVU222
 719 0002 01E0     		b	.L61
 720              	.LVL64:
 721              	.L62:
 229:System/shell/shell.c ****     {
 722              		.loc 1 229 45 is_stmt 1 discriminator 2 view .LVU223
 229:System/shell/shell.c ****     {
 723              		.loc 1 229 46 is_stmt 0 discriminator 2 view .LVU224
 724 0004 0133     		adds	r3, r3, #1
 725              	.LVL65:
 229:System/shell/shell.c ****     {
 726              		.loc 1 229 46 discriminator 2 view .LVU225
 727 0006 1BB2     		sxth	r3, r3
 728              	.LVL66:
 729              	.L61:
 229:System/shell/shell.c ****     {
 730              		.loc 1 229 23 is_stmt 1 discriminator 1 view .LVU226
 229:System/shell/shell.c ****     {
 731              		.loc 1 229 5 is_stmt 0 discriminator 1 view .LVU227
 732 0008 042B     		cmp	r3, #4
 733 000a 0ADC     		bgt	.L65
 231:System/shell/shell.c ****         {
 734              		.loc 1 231 9 is_stmt 1 view .LVU228
ARM GAS  C:\Users\HUAV\AppData\Local\Temp\ccBfvIcs.s 			page 37


 231:System/shell/shell.c ****         {
 735              		.loc 1 231 22 is_stmt 0 view .LVU229
 736 000c 064A     		ldr	r2, .L66
 737 000e 52F82300 		ldr	r0, [r2, r3, lsl #2]
 231:System/shell/shell.c ****         {
 738              		.loc 1 231 12 view .LVU230
 739 0012 0028     		cmp	r0, #0
 740 0014 F6D0     		beq	.L62
 231:System/shell/shell.c ****         {
 741              		.loc 1 231 26 discriminator 1 view .LVU231
 742 0016 90F86020 		ldrb	r2, [r0, #96]	@ zero_extendqisi2
 743 001a 12F0020F 		tst	r2, #2
 744 001e F1D0     		beq	.L62
 745 0020 00E0     		b	.L60
 746              	.L65:
 747              	.LBE7:
 236:System/shell/shell.c **** }
 748              		.loc 1 236 12 view .LVU232
 749 0022 0020     		movs	r0, #0
 750              	.L60:
 237:System/shell/shell.c **** 
 751              		.loc 1 237 1 view .LVU233
 752 0024 7047     		bx	lr
 753              	.L67:
 754 0026 00BF     		.align	2
 755              	.L66:
 756 0028 00000000 		.word	.LANCHOR0
 757              		.cfi_endproc
 758              	.LFE5:
 760              		.section	.text.shellWriteByte,"ax",%progbits
 761              		.align	1
 762              		.global	shellWriteByte
 763              		.syntax unified
 764              		.thumb
 765              		.thumb_func
 766              		.fpu fpv5-d16
 768              	shellWriteByte:
 769              	.LVL67:
 770              	.LFB6:
 246:System/shell/shell.c ****     shell->write(&data, sizeof(data));
 771              		.loc 1 246 1 is_stmt 1 view -0
 772              		.cfi_startproc
 773              		@ args = 0, pretend = 0, frame = 8
 774              		@ frame_needed = 0, uses_anonymous_args = 0
 246:System/shell/shell.c ****     shell->write(&data, sizeof(data));
 775              		.loc 1 246 1 is_stmt 0 view .LVU235
 776 0000 00B5     		push	{lr}
 777              	.LCFI8:
 778              		.cfi_def_cfa_offset 4
 779              		.cfi_offset 14, -4
 780 0002 83B0     		sub	sp, sp, #12
 781              	.LCFI9:
 782              		.cfi_def_cfa_offset 16
 783 0004 8DF80710 		strb	r1, [sp, #7]
 247:System/shell/shell.c **** }
 784              		.loc 1 247 5 is_stmt 1 view .LVU236
 247:System/shell/shell.c **** }
ARM GAS  C:\Users\HUAV\AppData\Local\Temp\ccBfvIcs.s 			page 38


 785              		.loc 1 247 10 is_stmt 0 view .LVU237
 786 0008 836E     		ldr	r3, [r0, #104]
 247:System/shell/shell.c **** }
 787              		.loc 1 247 5 view .LVU238
 788 000a 0121     		movs	r1, #1
 789              	.LVL68:
 247:System/shell/shell.c **** }
 790              		.loc 1 247 5 view .LVU239
 791 000c 0DF10700 		add	r0, sp, #7
 792              	.LVL69:
 247:System/shell/shell.c **** }
 793              		.loc 1 247 5 view .LVU240
 794 0010 9847     		blx	r3
 795              	.LVL70:
 248:System/shell/shell.c **** 
 796              		.loc 1 248 1 view .LVU241
 797 0012 03B0     		add	sp, sp, #12
 798              	.LCFI10:
 799              		.cfi_def_cfa_offset 4
 800              		@ sp needed
 801 0014 5DF804FB 		ldr	pc, [sp], #4
 802              		.cfi_endproc
 803              	.LFE6:
 805              		.section	.text.shellRight,"ax",%progbits
 806              		.align	1
 807              		.global	shellRight
 808              		.syntax unified
 809              		.thumb
 810              		.thumb_func
 811              		.fpu fpv5-d16
 813              	shellRight:
 814              	.LVL71:
 815              	.LFB46:
1231:System/shell/shell.c **** 
1232:System/shell/shell.c **** /**
1233:System/shell/shell.c ****  * @brief shell历史记录查找
1234:System/shell/shell.c ****  *
1235:System/shell/shell.c ****  * @param shell shell对象
1236:System/shell/shell.c ****  * @param dir 方向 {@code <0}往上查找 {@code >0}往下查找
1237:System/shell/shell.c ****  */
1238:System/shell/shell.c **** static void shellHistory(Shell *shell, signed char dir)
1239:System/shell/shell.c **** {
1240:System/shell/shell.c ****     if (dir > 0)
1241:System/shell/shell.c ****     {
1242:System/shell/shell.c ****         if (shell->history.offset-- <=
1243:System/shell/shell.c ****             -((shell->history.number > shell->history.record) ? shell->history.number : shell->hist
1244:System/shell/shell.c ****         {
1245:System/shell/shell.c ****             shell->history.offset = -((shell->history.number > shell->history.record)
1246:System/shell/shell.c ****                                           ? shell->history.number
1247:System/shell/shell.c ****                                           : shell->history.record);
1248:System/shell/shell.c ****         }
1249:System/shell/shell.c ****     }
1250:System/shell/shell.c ****     else if (dir < 0)
1251:System/shell/shell.c ****     {
1252:System/shell/shell.c ****         if (++shell->history.offset > 0)
1253:System/shell/shell.c ****         {
1254:System/shell/shell.c ****             shell->history.offset = 0;
ARM GAS  C:\Users\HUAV\AppData\Local\Temp\ccBfvIcs.s 			page 39


1255:System/shell/shell.c ****             return;
1256:System/shell/shell.c ****         }
1257:System/shell/shell.c ****     }
1258:System/shell/shell.c ****     else
1259:System/shell/shell.c ****     {
1260:System/shell/shell.c ****         return;
1261:System/shell/shell.c ****     }
1262:System/shell/shell.c ****     shellClearCommandLine(shell);
1263:System/shell/shell.c ****     if (shell->history.offset == 0)
1264:System/shell/shell.c ****     {
1265:System/shell/shell.c ****         shell->parser.cursor = shell->parser.length = 0;
1266:System/shell/shell.c ****     }
1267:System/shell/shell.c ****     else
1268:System/shell/shell.c ****     {
1269:System/shell/shell.c ****         if ((shell->parser.length = shellStringCopy(shell->parser.buffer,
1270:System/shell/shell.c ****                                                     shell->history.item[(shell->history.record + SH
1271:System/shell/shell.c ****         {
1272:System/shell/shell.c ****             return;
1273:System/shell/shell.c ****         }
1274:System/shell/shell.c ****         shell->parser.cursor = shell->parser.length;
1275:System/shell/shell.c ****         shellWriteString(shell, shell->parser.buffer);
1276:System/shell/shell.c ****     }
1277:System/shell/shell.c **** }
1278:System/shell/shell.c **** 
1279:System/shell/shell.c **** /**
1280:System/shell/shell.c ****  * @brief shell 常规输入
1281:System/shell/shell.c ****  *
1282:System/shell/shell.c ****  * @param shell shell 对象
1283:System/shell/shell.c ****  * @param data 输入字符
1284:System/shell/shell.c ****  */
1285:System/shell/shell.c **** void shellNormalInput(Shell *shell, char data)
1286:System/shell/shell.c **** {
1287:System/shell/shell.c ****     shell->status.tabFlag = 0;
1288:System/shell/shell.c ****     shellInsertByte(shell, data);
1289:System/shell/shell.c **** }
1290:System/shell/shell.c **** 
1291:System/shell/shell.c **** /**
1292:System/shell/shell.c ****  * @brief shell运行命令
1293:System/shell/shell.c ****  *
1294:System/shell/shell.c ****  * @param shell shell对象
1295:System/shell/shell.c ****  */
1296:System/shell/shell.c **** void shellExec(Shell *shell)
1297:System/shell/shell.c **** {
1298:System/shell/shell.c **** 
1299:System/shell/shell.c ****     if (shell->parser.length == 0)
1300:System/shell/shell.c ****     {
1301:System/shell/shell.c ****         return;
1302:System/shell/shell.c ****     }
1303:System/shell/shell.c **** 
1304:System/shell/shell.c ****     shell->parser.buffer[shell->parser.length] = 0;
1305:System/shell/shell.c **** 
1306:System/shell/shell.c ****     if (shell->status.isChecked)
1307:System/shell/shell.c ****     {
1308:System/shell/shell.c ****         shellHistoryAdd(shell);
1309:System/shell/shell.c ****         shellParserParam(shell);
1310:System/shell/shell.c ****         shell->parser.length = shell->parser.cursor = 0;
1311:System/shell/shell.c ****         if (shell->parser.paramCount == 0)
ARM GAS  C:\Users\HUAV\AppData\Local\Temp\ccBfvIcs.s 			page 40


1312:System/shell/shell.c ****         {
1313:System/shell/shell.c ****             return;
1314:System/shell/shell.c ****         }
1315:System/shell/shell.c ****         shellWriteString(shell, "\r\n");
1316:System/shell/shell.c **** 
1317:System/shell/shell.c ****         ShellCommand *command = shellSeekCommand(shell,
1318:System/shell/shell.c ****                                                  shell->parser.param[0],
1319:System/shell/shell.c ****                                                  shell->commandList.base,
1320:System/shell/shell.c ****                                                  0);
1321:System/shell/shell.c ****         if (command != NULL)
1322:System/shell/shell.c ****         {
1323:System/shell/shell.c ****             shellRunCommand(shell, command);
1324:System/shell/shell.c ****         }
1325:System/shell/shell.c ****         else
1326:System/shell/shell.c ****         {
1327:System/shell/shell.c ****             shellWriteString(shell, shellText[SHELL_TEXT_CMD_NOT_FOUND]);
1328:System/shell/shell.c ****         }
1329:System/shell/shell.c ****     }
1330:System/shell/shell.c ****     else
1331:System/shell/shell.c ****     {
1332:System/shell/shell.c ****         shellCheckPassword(shell);
1333:System/shell/shell.c ****     }
1334:System/shell/shell.c **** }
1335:System/shell/shell.c **** 
1336:System/shell/shell.c **** /**
1337:System/shell/shell.c ****  * @brief shell上方向键输入
1338:System/shell/shell.c ****  *
1339:System/shell/shell.c ****  * @param shell shell对象
1340:System/shell/shell.c ****  */
1341:System/shell/shell.c **** void shellUp(Shell *shell)
1342:System/shell/shell.c **** {
1343:System/shell/shell.c ****     shellHistory(shell, 1);
1344:System/shell/shell.c **** }
1345:System/shell/shell.c **** SHELL_EXPORT_KEY(SHELL_CMD_PERMISSION(0), 0x1B5B4100, shellUp, up);
1346:System/shell/shell.c **** 
1347:System/shell/shell.c **** /**
1348:System/shell/shell.c ****  * @brief shell下方向键输入
1349:System/shell/shell.c ****  *
1350:System/shell/shell.c ****  * @param shell shell对象
1351:System/shell/shell.c ****  */
1352:System/shell/shell.c **** void shellDown(Shell *shell)
1353:System/shell/shell.c **** {
1354:System/shell/shell.c ****     shellHistory(shell, -1);
1355:System/shell/shell.c **** }
1356:System/shell/shell.c **** SHELL_EXPORT_KEY(SHELL_CMD_PERMISSION(0), 0x1B5B4200, shellDown, down);
1357:System/shell/shell.c **** 
1358:System/shell/shell.c **** /**
1359:System/shell/shell.c ****  * @brief shell右方向键输入
1360:System/shell/shell.c ****  *
1361:System/shell/shell.c ****  * @param shell shell对象
1362:System/shell/shell.c ****  */
1363:System/shell/shell.c **** void shellRight(Shell *shell)
1364:System/shell/shell.c **** {
 816              		.loc 1 1364 1 is_stmt 1 view -0
 817              		.cfi_startproc
 818              		@ args = 0, pretend = 0, frame = 0
 819              		@ frame_needed = 0, uses_anonymous_args = 0
ARM GAS  C:\Users\HUAV\AppData\Local\Temp\ccBfvIcs.s 			page 41


 820              		.loc 1 1364 1 is_stmt 0 view .LVU243
 821 0000 08B5     		push	{r3, lr}
 822              	.LCFI11:
 823              		.cfi_def_cfa_offset 8
 824              		.cfi_offset 3, -8
 825              		.cfi_offset 14, -4
1365:System/shell/shell.c ****     if (shell->parser.cursor < shell->parser.length)
 826              		.loc 1 1365 5 is_stmt 1 view .LVU244
 827              		.loc 1 1365 22 is_stmt 0 view .LVU245
 828 0002 C389     		ldrh	r3, [r0, #14]
 829              		.loc 1 1365 45 view .LVU246
 830 0004 8289     		ldrh	r2, [r0, #12]
 831              		.loc 1 1365 8 view .LVU247
 832 0006 9342     		cmp	r3, r2
 833 0008 00D3     		bcc	.L73
 834              	.LVL72:
 835              	.L70:
1366:System/shell/shell.c ****     {
1367:System/shell/shell.c ****         shellWriteByte(shell, shell->parser.buffer[shell->parser.cursor++]);
1368:System/shell/shell.c ****     }
1369:System/shell/shell.c **** }
 836              		.loc 1 1369 1 view .LVU248
 837 000a 08BD     		pop	{r3, pc}
 838              	.LVL73:
 839              	.L73:
1367:System/shell/shell.c ****     }
 840              		.loc 1 1367 9 is_stmt 1 view .LVU249
1367:System/shell/shell.c ****     }
 841              		.loc 1 1367 44 is_stmt 0 view .LVU250
 842 000c 0269     		ldr	r2, [r0, #16]
1367:System/shell/shell.c ****     }
 843              		.loc 1 1367 72 view .LVU251
 844 000e 591C     		adds	r1, r3, #1
 845 0010 C181     		strh	r1, [r0, #14]	@ movhi
1367:System/shell/shell.c ****     }
 846              		.loc 1 1367 9 view .LVU252
 847 0012 D15C     		ldrb	r1, [r2, r3]	@ zero_extendqisi2
 848 0014 FFF7FEFF 		bl	shellWriteByte
 849              	.LVL74:
 850              		.loc 1 1369 1 view .LVU253
 851 0018 F7E7     		b	.L70
 852              		.cfi_endproc
 853              	.LFE46:
 855              		.section	.text.shellLeft,"ax",%progbits
 856              		.align	1
 857              		.global	shellLeft
 858              		.syntax unified
 859              		.thumb
 860              		.thumb_func
 861              		.fpu fpv5-d16
 863              	shellLeft:
 864              	.LVL75:
 865              	.LFB47:
1370:System/shell/shell.c **** SHELL_EXPORT_KEY(SHELL_CMD_PERMISSION(0) | SHELL_CMD_ENABLE_UNCHECKED,
1371:System/shell/shell.c ****                  0x1B5B4300, shellRight, right);
1372:System/shell/shell.c **** 
1373:System/shell/shell.c **** /**
ARM GAS  C:\Users\HUAV\AppData\Local\Temp\ccBfvIcs.s 			page 42


1374:System/shell/shell.c ****  * @brief shell左方向键输入
1375:System/shell/shell.c ****  *
1376:System/shell/shell.c ****  * @param shell shell对象
1377:System/shell/shell.c ****  */
1378:System/shell/shell.c **** void shellLeft(Shell *shell)
1379:System/shell/shell.c **** {
 866              		.loc 1 1379 1 is_stmt 1 view -0
 867              		.cfi_startproc
 868              		@ args = 0, pretend = 0, frame = 0
 869              		@ frame_needed = 0, uses_anonymous_args = 0
1380:System/shell/shell.c ****     if (shell->parser.cursor > 0)
 870              		.loc 1 1380 5 view .LVU255
 871              		.loc 1 1380 22 is_stmt 0 view .LVU256
 872 0000 C389     		ldrh	r3, [r0, #14]
 873              		.loc 1 1380 8 view .LVU257
 874 0002 03B9     		cbnz	r3, .L80
 875 0004 7047     		bx	lr
 876              	.L80:
1379:System/shell/shell.c ****     if (shell->parser.cursor > 0)
 877              		.loc 1 1379 1 view .LVU258
 878 0006 10B5     		push	{r4, lr}
 879              	.LCFI12:
 880              		.cfi_def_cfa_offset 8
 881              		.cfi_offset 4, -8
 882              		.cfi_offset 14, -4
 883 0008 0446     		mov	r4, r0
1381:System/shell/shell.c ****     {
1382:System/shell/shell.c ****         shellWriteByte(shell, '\b');
 884              		.loc 1 1382 9 is_stmt 1 view .LVU259
 885 000a 0821     		movs	r1, #8
 886 000c FFF7FEFF 		bl	shellWriteByte
 887              	.LVL76:
1383:System/shell/shell.c ****         shell->parser.cursor--;
 888              		.loc 1 1383 9 view .LVU260
 889              		.loc 1 1383 22 is_stmt 0 view .LVU261
 890 0010 E389     		ldrh	r3, [r4, #14]
 891              		.loc 1 1383 29 view .LVU262
 892 0012 013B     		subs	r3, r3, #1
 893 0014 E381     		strh	r3, [r4, #14]	@ movhi
1384:System/shell/shell.c ****     }
1385:System/shell/shell.c **** }
 894              		.loc 1 1385 1 view .LVU263
 895 0016 10BD     		pop	{r4, pc}
 896              		.loc 1 1385 1 view .LVU264
 897              		.cfi_endproc
 898              	.LFE47:
 900              		.section	.text.shellWriteString,"ax",%progbits
 901              		.align	1
 902              		.global	shellWriteString
 903              		.syntax unified
 904              		.thumb
 905              		.thumb_func
 906              		.fpu fpv5-d16
 908              	shellWriteString:
 909              	.LVL77:
 910              	.LFB7:
 259:System/shell/shell.c ****     unsigned short count = 0;
ARM GAS  C:\Users\HUAV\AppData\Local\Temp\ccBfvIcs.s 			page 43


 911              		.loc 1 259 1 is_stmt 1 view -0
 912              		.cfi_startproc
 913              		@ args = 0, pretend = 0, frame = 0
 914              		@ frame_needed = 0, uses_anonymous_args = 0
 259:System/shell/shell.c ****     unsigned short count = 0;
 915              		.loc 1 259 1 is_stmt 0 view .LVU266
 916 0000 38B5     		push	{r3, r4, r5, lr}
 917              	.LCFI13:
 918              		.cfi_def_cfa_offset 16
 919              		.cfi_offset 3, -16
 920              		.cfi_offset 4, -12
 921              		.cfi_offset 5, -8
 922              		.cfi_offset 14, -4
 260:System/shell/shell.c ****     SHELL_ASSERT(shell->write, return 0);
 923              		.loc 1 260 5 is_stmt 1 view .LVU267
 924              	.LVL78:
 261:System/shell/shell.c **** 
 925              		.loc 1 261 5 view .LVU268
 926 0002 856E     		ldr	r5, [r0, #104]
 927 0004 35B1     		cbz	r5, .L82
 928 0006 0C46     		mov	r4, r1
 261:System/shell/shell.c **** 
 929              		.loc 1 261 41 discriminator 2 view .LVU269
 263:System/shell/shell.c ****     return count;
 930              		.loc 1 263 5 discriminator 2 view .LVU270
 263:System/shell/shell.c ****     return count;
 931              		.loc 1 263 26 is_stmt 0 discriminator 2 view .LVU271
 932 0008 0846     		mov	r0, r1
 933              	.LVL79:
 263:System/shell/shell.c ****     return count;
 934              		.loc 1 263 26 discriminator 2 view .LVU272
 935 000a FFF7FEFF 		bl	strlen
 936              	.LVL80:
 263:System/shell/shell.c ****     return count;
 937              		.loc 1 263 5 discriminator 2 view .LVU273
 938 000e 81B2     		uxth	r1, r0
 939 0010 2046     		mov	r0, r4
 940 0012 A847     		blx	r5
 941              	.LVL81:
 264:System/shell/shell.c **** }
 942              		.loc 1 264 5 is_stmt 1 discriminator 2 view .LVU274
 943              	.L82:
 265:System/shell/shell.c **** 
 944              		.loc 1 265 1 is_stmt 0 view .LVU275
 945 0014 0020     		movs	r0, #0
 946 0016 38BD     		pop	{r3, r4, r5, pc}
 947              		.cfi_endproc
 948              	.LFE7:
 950              		.section	.rodata.shellSetUser.str1.4,"aMS",%progbits,1
 951              		.align	2
 952              	.LC0:
 953 0000 1B5B324A 		.ascii	"\033[2J\033[1H\000"
 953      1B5B3148 
 953      00
 954 0009 000000   		.align	2
 955              	.LC1:
 956 000c 0D0A0D0A 		.ascii	"\015\012\015\012/************  BitRtos  ***********"
ARM GAS  C:\Users\HUAV\AppData\Local\Temp\ccBfvIcs.s 			page 44


 956      2F2A2A2A 
 956      2A2A2A2A 
 956      2A2A2A2A 
 956      2A202042 
 957 0033 2A5C720A 		.ascii	"*\\r\012\015\012Team Mate:        8_B!T0\015\012   "
 957      0D0A5465 
 957      616D204D 
 957      6174653A 
 957      20202020 
 958 0056 20202020 		.ascii	"               WHY\015\012\015\012Build:           "
 958      20202020 
 958      20202020 
 958      20202057 
 958      48590D0A 
 959 007d 204D6172 		.ascii	" Mar 27 2023 18:58:53\015\012Shell   Version:  3.0."
 959      20323720 
 959      32303233 
 959      2031383A 
 959      35383A35 
 960 00aa 360D0A00 		.ascii	"6\015\012\000"
 961              		.section	.text.shellSetUser,"ax",%progbits
 962              		.align	1
 963              		.syntax unified
 964              		.thumb
 965              		.thumb_func
 966              		.fpu fpv5-d16
 968              	shellSetUser:
 969              	.LVL82:
 970              	.LFB38:
1165:System/shell/shell.c ****     shell->info.user = user;
 971              		.loc 1 1165 1 is_stmt 1 view -0
 972              		.cfi_startproc
 973              		@ args = 0, pretend = 0, frame = 0
 974              		@ frame_needed = 0, uses_anonymous_args = 0
1165:System/shell/shell.c ****     shell->info.user = user;
 975              		.loc 1 1165 1 is_stmt 0 view .LVU277
 976 0000 10B5     		push	{r4, lr}
 977              	.LCFI14:
 978              		.cfi_def_cfa_offset 8
 979              		.cfi_offset 4, -8
 980              		.cfi_offset 14, -4
 981 0002 0446     		mov	r4, r0
1166:System/shell/shell.c ****     shell->status.isChecked =
 982              		.loc 1 1166 5 is_stmt 1 view .LVU278
1166:System/shell/shell.c ****     shell->status.isChecked =
 983              		.loc 1 1166 22 is_stmt 0 view .LVU279
 984 0004 0160     		str	r1, [r0]
1167:System/shell/shell.c ****         ((user->data.user.password && strlen(user->data.user.password) != 0) && (shell->parser.para
 985              		.loc 1 1167 5 is_stmt 1 view .LVU280
1168:System/shell/shell.c ****             ? 0
 986              		.loc 1 1168 26 is_stmt 0 view .LVU281
 987 0006 8868     		ldr	r0, [r1, #8]
 988              	.LVL83:
1170:System/shell/shell.c **** 
 989              		.loc 1 1170 13 view .LVU282
 990 0008 50B1     		cbz	r0, .L87
1168:System/shell/shell.c ****             ? 0
ARM GAS  C:\Users\HUAV\AppData\Local\Temp\ccBfvIcs.s 			page 45


 991              		.loc 1 1168 72 view .LVU283
 992 000a 0378     		ldrb	r3, [r0]	@ zero_extendqisi2
1168:System/shell/shell.c ****             ? 0
 993              		.loc 1 1168 36 view .LVU284
 994 000c 53B1     		cbz	r3, .L88
1168:System/shell/shell.c ****             ? 0
 995              		.loc 1 1168 95 discriminator 1 view .LVU285
 996 000e E38E     		ldrh	r3, [r4, #54]
1170:System/shell/shell.c **** 
 997              		.loc 1 1170 13 discriminator 1 view .LVU286
 998 0010 012B     		cmp	r3, #1
 999 0012 18D9     		bls	.L89
1168:System/shell/shell.c ****             ? 0
 1000              		.loc 1 1168 114 view .LVU287
 1001 0014 A169     		ldr	r1, [r4, #24]
 1002              	.LVL84:
1168:System/shell/shell.c ****             ? 0
 1003              		.loc 1 1168 114 view .LVU288
 1004 0016 FFF7FEFF 		bl	strcmp
 1005              	.LVL85:
1168:System/shell/shell.c ****             ? 0
 1006              		.loc 1 1168 111 view .LVU289
 1007 001a B0B1     		cbz	r0, .L90
1170:System/shell/shell.c **** 
 1008              		.loc 1 1170 13 view .LVU290
 1009 001c 0022     		movs	r2, #0
 1010 001e 02E0     		b	.L85
 1011              	.LVL86:
 1012              	.L87:
1170:System/shell/shell.c **** 
 1013              		.loc 1 1170 13 view .LVU291
 1014 0020 0122     		movs	r2, #1
 1015 0022 00E0     		b	.L85
 1016              	.L88:
 1017 0024 0122     		movs	r2, #1
 1018              	.LVL87:
 1019              	.L85:
1167:System/shell/shell.c ****         ((user->data.user.password && strlen(user->data.user.password) != 0) && (shell->parser.para
 1020              		.loc 1 1167 29 discriminator 4 view .LVU292
 1021 0026 94F86030 		ldrb	r3, [r4, #96]	@ zero_extendqisi2
 1022 002a 62F30003 		bfi	r3, r2, #0, #1
 1023 002e 84F86030 		strb	r3, [r4, #96]
1173:System/shell/shell.c **** #endif
 1024              		.loc 1 1173 5 is_stmt 1 discriminator 4 view .LVU293
 1025 0032 0949     		ldr	r1, .L93
 1026 0034 2046     		mov	r0, r4
 1027 0036 FFF7FEFF 		bl	shellWriteString
 1028              	.LVL88:
1176:System/shell/shell.c ****     {
 1029              		.loc 1 1176 5 discriminator 4 view .LVU294
1176:System/shell/shell.c ****     {
 1030              		.loc 1 1176 9 is_stmt 0 discriminator 4 view .LVU295
 1031 003a 94F86030 		ldrb	r3, [r4, #96]	@ zero_extendqisi2
1176:System/shell/shell.c ****     {
 1032              		.loc 1 1176 8 discriminator 4 view .LVU296
 1033 003e 13F0010F 		tst	r3, #1
 1034 0042 04D1     		bne	.L92
ARM GAS  C:\Users\HUAV\AppData\Local\Temp\ccBfvIcs.s 			page 46


 1035              	.L84:
1181:System/shell/shell.c **** 
 1036              		.loc 1 1181 1 view .LVU297
 1037 0044 10BD     		pop	{r4, pc}
 1038              	.LVL89:
 1039              	.L89:
1170:System/shell/shell.c **** 
 1040              		.loc 1 1170 13 view .LVU298
 1041 0046 0022     		movs	r2, #0
 1042 0048 EDE7     		b	.L85
 1043              	.LVL90:
 1044              	.L90:
1170:System/shell/shell.c **** 
 1045              		.loc 1 1170 13 view .LVU299
 1046 004a 0122     		movs	r2, #1
 1047 004c EBE7     		b	.L85
 1048              	.L92:
1178:System/shell/shell.c ****     }
 1049              		.loc 1 1178 9 is_stmt 1 view .LVU300
 1050 004e 0349     		ldr	r1, .L93+4
 1051 0050 2046     		mov	r0, r4
 1052 0052 FFF7FEFF 		bl	shellWriteString
 1053              	.LVL91:
1181:System/shell/shell.c **** 
 1054              		.loc 1 1181 1 is_stmt 0 view .LVU301
 1055 0056 F5E7     		b	.L84
 1056              	.L94:
 1057              		.align	2
 1058              	.L93:
 1059 0058 00000000 		.word	.LC0
 1060 005c 0C000000 		.word	.LC1
 1061              		.cfi_endproc
 1062              	.LFE38:
 1064              		.section	.rodata.shellWriteCommandLine.str1.4,"aMS",%progbits,1
 1065              		.align	2
 1066              	.LC2:
 1067 0000 2F00     		.ascii	"/\000"
 1068 0002 0000     		.align	2
 1069              	.LC3:
 1070 0004 0D0A00   		.ascii	"\015\012\000"
 1071 0007 00       		.align	2
 1072              	.LC4:
 1073 0008 3A00     		.ascii	":\000"
 1074 000a 0000     		.align	2
 1075              	.LC5:
 1076 000c 242000   		.ascii	"$ \000"
 1077 000f 00       		.align	2
 1078              	.LC6:
 1079 0010 0D0A506C 		.ascii	"\015\012Please input password:\000"
 1079      65617365 
 1079      20696E70 
 1079      75742070 
 1079      61737377 
 1080              		.section	.text.shellWriteCommandLine,"ax",%progbits
 1081              		.align	1
 1082              		.syntax unified
 1083              		.thumb
ARM GAS  C:\Users\HUAV\AppData\Local\Temp\ccBfvIcs.s 			page 47


 1084              		.thumb_func
 1085              		.fpu fpv5-d16
 1087              	shellWriteCommandLine:
 1088              	.LVL92:
 1089              	.LFB9:
 302:System/shell/shell.c ****     if (shell->status.isChecked)
 1090              		.loc 1 302 1 is_stmt 1 view -0
 1091              		.cfi_startproc
 1092              		@ args = 0, pretend = 0, frame = 0
 1093              		@ frame_needed = 0, uses_anonymous_args = 0
 302:System/shell/shell.c ****     if (shell->status.isChecked)
 1094              		.loc 1 302 1 is_stmt 0 view .LVU303
 1095 0000 10B5     		push	{r4, lr}
 1096              	.LCFI15:
 1097              		.cfi_def_cfa_offset 8
 1098              		.cfi_offset 4, -8
 1099              		.cfi_offset 14, -4
 1100 0002 0446     		mov	r4, r0
 303:System/shell/shell.c ****     {
 1101              		.loc 1 303 5 is_stmt 1 view .LVU304
 303:System/shell/shell.c ****     {
 1102              		.loc 1 303 9 is_stmt 0 view .LVU305
 1103 0004 90F86030 		ldrb	r3, [r0, #96]	@ zero_extendqisi2
 303:System/shell/shell.c ****     {
 1104              		.loc 1 303 8 view .LVU306
 1105 0008 13F0010F 		tst	r3, #1
 1106 000c 19D0     		beq	.L96
 305:System/shell/shell.c ****         {
 1107              		.loc 1 305 9 is_stmt 1 view .LVU307
 305:System/shell/shell.c ****         {
 1108              		.loc 1 305 12 is_stmt 0 view .LVU308
 1109 000e 91B9     		cbnz	r1, .L101
 1110              	.LVL93:
 1111              	.L97:
 309:System/shell/shell.c ****         shellWriteString(shell, ":");
 1112              		.loc 1 309 9 is_stmt 1 view .LVU309
 309:System/shell/shell.c ****         shellWriteString(shell, ":");
 1113              		.loc 1 309 44 is_stmt 0 view .LVU310
 1114 0010 2368     		ldr	r3, [r4]
 309:System/shell/shell.c ****         shellWriteString(shell, ":");
 1115              		.loc 1 309 9 view .LVU311
 1116 0012 5968     		ldr	r1, [r3, #4]
 1117 0014 2046     		mov	r0, r4
 1118 0016 FFF7FEFF 		bl	shellWriteString
 1119              	.LVL94:
 310:System/shell/shell.c ****         shellWriteString(shell, shell->info.path ? shell->info.path : "/");
 1120              		.loc 1 310 9 is_stmt 1 view .LVU312
 1121 001a 0C49     		ldr	r1, .L103
 1122 001c 2046     		mov	r0, r4
 1123 001e FFF7FEFF 		bl	shellWriteString
 1124              	.LVL95:
 311:System/shell/shell.c ****         shellWriteString(shell, "$ ");
 1125              		.loc 1 311 9 view .LVU313
 311:System/shell/shell.c ****         shellWriteString(shell, "$ ");
 1126              		.loc 1 311 44 is_stmt 0 view .LVU314
 1127 0022 A168     		ldr	r1, [r4, #8]
 311:System/shell/shell.c ****         shellWriteString(shell, "$ ");
ARM GAS  C:\Users\HUAV\AppData\Local\Temp\ccBfvIcs.s 			page 48


 1128              		.loc 1 311 9 view .LVU315
 1129 0024 59B1     		cbz	r1, .L102
 1130              	.L98:
 311:System/shell/shell.c ****         shellWriteString(shell, "$ ");
 1131              		.loc 1 311 9 discriminator 4 view .LVU316
 1132 0026 2046     		mov	r0, r4
 1133 0028 FFF7FEFF 		bl	shellWriteString
 1134              	.LVL96:
 312:System/shell/shell.c ****     }
 1135              		.loc 1 312 9 is_stmt 1 discriminator 4 view .LVU317
 1136 002c 0849     		ldr	r1, .L103+4
 1137 002e 2046     		mov	r0, r4
 1138 0030 FFF7FEFF 		bl	shellWriteString
 1139              	.LVL97:
 1140              	.L95:
 318:System/shell/shell.c **** 
 1141              		.loc 1 318 1 is_stmt 0 view .LVU318
 1142 0034 10BD     		pop	{r4, pc}
 1143              	.LVL98:
 1144              	.L101:
 307:System/shell/shell.c ****         }
 1145              		.loc 1 307 13 is_stmt 1 view .LVU319
 1146 0036 0749     		ldr	r1, .L103+8
 1147              	.LVL99:
 307:System/shell/shell.c ****         }
 1148              		.loc 1 307 13 is_stmt 0 view .LVU320
 1149 0038 FFF7FEFF 		bl	shellWriteString
 1150              	.LVL100:
 307:System/shell/shell.c ****         }
 1151              		.loc 1 307 13 view .LVU321
 1152 003c E8E7     		b	.L97
 1153              	.L102:
 311:System/shell/shell.c ****         shellWriteString(shell, "$ ");
 1154              		.loc 1 311 9 view .LVU322
 1155 003e 0649     		ldr	r1, .L103+12
 1156 0040 F1E7     		b	.L98
 1157              	.LVL101:
 1158              	.L96:
 316:System/shell/shell.c ****     }
 1159              		.loc 1 316 9 is_stmt 1 view .LVU323
 1160 0042 0649     		ldr	r1, .L103+16
 1161              	.LVL102:
 316:System/shell/shell.c ****     }
 1162              		.loc 1 316 9 is_stmt 0 view .LVU324
 1163 0044 FFF7FEFF 		bl	shellWriteString
 1164              	.LVL103:
 318:System/shell/shell.c **** 
 1165              		.loc 1 318 1 view .LVU325
 1166 0048 F4E7     		b	.L95
 1167              	.L104:
 1168 004a 00BF     		.align	2
 1169              	.L103:
 1170 004c 08000000 		.word	.LC4
 1171 0050 0C000000 		.word	.LC5
 1172 0054 04000000 		.word	.LC3
 1173 0058 00000000 		.word	.LC2
 1174 005c 10000000 		.word	.LC6
ARM GAS  C:\Users\HUAV\AppData\Local\Temp\ccBfvIcs.s 			page 49


 1175              		.cfi_endproc
 1176              	.LFE9:
 1178              		.section	.rodata.shellCheckPassword.str1.4,"aMS",%progbits,1
 1179              		.align	2
 1180              	.LC7:
 1181 0000 0D0A7061 		.ascii	"\015\012password error\015\012\000"
 1181      7373776F 
 1181      72642065 
 1181      72726F72 
 1181      0D0A00
 1182              		.section	.text.shellCheckPassword,"ax",%progbits
 1183              		.align	1
 1184              		.syntax unified
 1185              		.thumb
 1186              		.thumb_func
 1187              		.fpu fpv5-d16
 1189              	shellCheckPassword:
 1190              	.LVL104:
 1191              	.LFB37:
1142:System/shell/shell.c ****     if (strcmp(shell->parser.buffer, shell->info.user->data.user.password) == 0)
 1192              		.loc 1 1142 1 is_stmt 1 view -0
 1193              		.cfi_startproc
 1194              		@ args = 0, pretend = 0, frame = 0
 1195              		@ frame_needed = 0, uses_anonymous_args = 0
1142:System/shell/shell.c ****     if (strcmp(shell->parser.buffer, shell->info.user->data.user.password) == 0)
 1196              		.loc 1 1142 1 is_stmt 0 view .LVU327
 1197 0000 10B5     		push	{r4, lr}
 1198              	.LCFI16:
 1199              		.cfi_def_cfa_offset 8
 1200              		.cfi_offset 4, -8
 1201              		.cfi_offset 14, -4
 1202 0002 0446     		mov	r4, r0
1143:System/shell/shell.c ****     {
 1203              		.loc 1 1143 5 is_stmt 1 view .LVU328
1143:System/shell/shell.c ****     {
 1204              		.loc 1 1143 49 is_stmt 0 view .LVU329
 1205 0004 0368     		ldr	r3, [r0]
1143:System/shell/shell.c ****     {
 1206              		.loc 1 1143 9 view .LVU330
 1207 0006 9968     		ldr	r1, [r3, #8]
 1208 0008 0069     		ldr	r0, [r0, #16]
 1209              	.LVL105:
1143:System/shell/shell.c ****     {
 1210              		.loc 1 1143 9 view .LVU331
 1211 000a FFF7FEFF 		bl	strcmp
 1212              	.LVL106:
1143:System/shell/shell.c ****     {
 1213              		.loc 1 1143 8 view .LVU332
 1214 000e 68B9     		cbnz	r0, .L106
1145:System/shell/shell.c **** #if SHELL_SHOW_INFO == 1
 1215              		.loc 1 1145 9 is_stmt 1 view .LVU333
1145:System/shell/shell.c **** #if SHELL_SHOW_INFO == 1
 1216              		.loc 1 1145 33 is_stmt 0 view .LVU334
 1217 0010 94F86030 		ldrb	r3, [r4, #96]	@ zero_extendqisi2
 1218 0014 43F00103 		orr	r3, r3, #1
 1219 0018 84F86030 		strb	r3, [r4, #96]
1147:System/shell/shell.c **** #endif
ARM GAS  C:\Users\HUAV\AppData\Local\Temp\ccBfvIcs.s 			page 50


 1220              		.loc 1 1147 9 is_stmt 1 view .LVU335
 1221 001c 0649     		ldr	r1, .L109
 1222 001e 2046     		mov	r0, r4
 1223 0020 FFF7FEFF 		bl	shellWriteString
 1224              	.LVL107:
 1225              	.L107:
1154:System/shell/shell.c ****     shell->parser.cursor = 0;
 1226              		.loc 1 1154 5 view .LVU336
1154:System/shell/shell.c ****     shell->parser.cursor = 0;
 1227              		.loc 1 1154 26 is_stmt 0 view .LVU337
 1228 0024 0023     		movs	r3, #0
 1229 0026 A381     		strh	r3, [r4, #12]	@ movhi
1155:System/shell/shell.c **** }
 1230              		.loc 1 1155 5 is_stmt 1 view .LVU338
1155:System/shell/shell.c **** }
 1231              		.loc 1 1155 26 is_stmt 0 view .LVU339
 1232 0028 E381     		strh	r3, [r4, #14]	@ movhi
1156:System/shell/shell.c **** 
 1233              		.loc 1 1156 1 view .LVU340
 1234 002a 10BD     		pop	{r4, pc}
 1235              	.LVL108:
 1236              	.L106:
1152:System/shell/shell.c ****     }
 1237              		.loc 1 1152 9 is_stmt 1 view .LVU341
 1238 002c 0349     		ldr	r1, .L109+4
 1239 002e 2046     		mov	r0, r4
 1240 0030 FFF7FEFF 		bl	shellWriteString
 1241              	.LVL109:
 1242 0034 F6E7     		b	.L107
 1243              	.L110:
 1244 0036 00BF     		.align	2
 1245              	.L109:
 1246 0038 0C000000 		.word	.LC1
 1247 003c 00000000 		.word	.LC7
 1248              		.cfi_endproc
 1249              	.LFE37:
 1251              		.section	.text.shellClear,"ax",%progbits
 1252              		.align	1
 1253              		.global	shellClear
 1254              		.syntax unified
 1255              		.thumb
 1256              		.thumb_func
 1257              		.fpu fpv5-d16
 1259              	shellClear:
 1260              	.LFB59:
1386:System/shell/shell.c **** SHELL_EXPORT_KEY(SHELL_CMD_PERMISSION(0) | SHELL_CMD_ENABLE_UNCHECKED,
1387:System/shell/shell.c ****                  0x1B5B4400, shellLeft, left);
1388:System/shell/shell.c **** 
1389:System/shell/shell.c **** /**
1390:System/shell/shell.c ****  * @brief shell Tab按键处理
1391:System/shell/shell.c ****  *
1392:System/shell/shell.c ****  * @param shell shell对象
1393:System/shell/shell.c ****  */
1394:System/shell/shell.c **** void shellTab(Shell *shell)
1395:System/shell/shell.c **** {
1396:System/shell/shell.c ****     unsigned short maxMatch = shell->parser.bufferSize;
1397:System/shell/shell.c ****     unsigned short lastMatchIndex = 0;
ARM GAS  C:\Users\HUAV\AppData\Local\Temp\ccBfvIcs.s 			page 51


1398:System/shell/shell.c ****     unsigned short matchNum = 0;
1399:System/shell/shell.c ****     unsigned short length;
1400:System/shell/shell.c **** 
1401:System/shell/shell.c ****     if (shell->parser.length == 0)
1402:System/shell/shell.c ****     {
1403:System/shell/shell.c ****         shellListAll(shell);
1404:System/shell/shell.c ****         shellWriteCommandLine(shell, 1);
1405:System/shell/shell.c ****     }
1406:System/shell/shell.c ****     else if (shell->parser.length > 0)
1407:System/shell/shell.c ****     {
1408:System/shell/shell.c ****         shell->parser.buffer[shell->parser.length] = 0;
1409:System/shell/shell.c ****         ShellCommand *base = (ShellCommand *)shell->commandList.base;
1410:System/shell/shell.c ****         for (short i = 0; i < shell->commandList.count; i++)
1411:System/shell/shell.c ****         {
1412:System/shell/shell.c ****             if (shellCheckPermission(shell, &base[i]) == 0 && shellStringCompare(shell->parser.buff
1413:System/shell/shell.c ****                                                                                  (char *)shellGetCo
1414:System/shell/shell.c ****             {
1415:System/shell/shell.c ****                 if (matchNum != 0)
1416:System/shell/shell.c ****                 {
1417:System/shell/shell.c ****                     if (matchNum == 1)
1418:System/shell/shell.c ****                     {
1419:System/shell/shell.c ****                         shellWriteString(shell, "\r\n");
1420:System/shell/shell.c ****                     }
1421:System/shell/shell.c ****                     shellListItem(shell, &base[lastMatchIndex]);
1422:System/shell/shell.c ****                     length =
1423:System/shell/shell.c ****                         shellStringCompare((char *)shellGetCommandName(&base[lastMatchIndex]),
1424:System/shell/shell.c ****                                            (char *)shellGetCommandName(&base[i]));
1425:System/shell/shell.c ****                     maxMatch = (maxMatch > length) ? length : maxMatch;
1426:System/shell/shell.c ****                 }
1427:System/shell/shell.c ****                 lastMatchIndex = i;
1428:System/shell/shell.c ****                 matchNum++;
1429:System/shell/shell.c ****             }
1430:System/shell/shell.c ****         }
1431:System/shell/shell.c ****         if (matchNum == 0)
1432:System/shell/shell.c ****         {
1433:System/shell/shell.c ****             return;
1434:System/shell/shell.c ****         }
1435:System/shell/shell.c ****         if (matchNum == 1)
1436:System/shell/shell.c ****         {
1437:System/shell/shell.c ****             shellClearCommandLine(shell);
1438:System/shell/shell.c ****         }
1439:System/shell/shell.c ****         if (matchNum != 0)
1440:System/shell/shell.c ****         {
1441:System/shell/shell.c ****             shell->parser.length =
1442:System/shell/shell.c ****                 shellStringCopy(shell->parser.buffer,
1443:System/shell/shell.c ****                                 (char *)shellGetCommandName(&base[lastMatchIndex]));
1444:System/shell/shell.c ****         }
1445:System/shell/shell.c ****         if (matchNum > 1)
1446:System/shell/shell.c ****         {
1447:System/shell/shell.c ****             shellListItem(shell, &base[lastMatchIndex]);
1448:System/shell/shell.c ****             shellWriteCommandLine(shell, 1);
1449:System/shell/shell.c ****             shell->parser.length = maxMatch;
1450:System/shell/shell.c ****         }
1451:System/shell/shell.c ****         shell->parser.buffer[shell->parser.length] = 0;
1452:System/shell/shell.c ****         shell->parser.cursor = shell->parser.length;
1453:System/shell/shell.c ****         shellWriteString(shell, shell->parser.buffer);
1454:System/shell/shell.c ****     }
ARM GAS  C:\Users\HUAV\AppData\Local\Temp\ccBfvIcs.s 			page 52


1455:System/shell/shell.c **** 
1456:System/shell/shell.c ****     if (SHELL_GET_TICK())
1457:System/shell/shell.c ****     {
1458:System/shell/shell.c ****         if (matchNum == 1 && shell->status.tabFlag && SHELL_GET_TICK() - shell->info.activeTime < S
1459:System/shell/shell.c ****         {
1460:System/shell/shell.c ****             shellClearCommandLine(shell);
1461:System/shell/shell.c ****             for (short i = shell->parser.length; i >= 0; i--)
1462:System/shell/shell.c ****             {
1463:System/shell/shell.c ****                 shell->parser.buffer[i + 5] = shell->parser.buffer[i];
1464:System/shell/shell.c ****             }
1465:System/shell/shell.c ****             shellStringCopy(shell->parser.buffer, "help");
1466:System/shell/shell.c ****             shell->parser.buffer[4] = ' ';
1467:System/shell/shell.c ****             shell->parser.length += 5;
1468:System/shell/shell.c ****             shell->parser.cursor = shell->parser.length;
1469:System/shell/shell.c ****             shellWriteString(shell, shell->parser.buffer);
1470:System/shell/shell.c ****         }
1471:System/shell/shell.c ****         else
1472:System/shell/shell.c ****         {
1473:System/shell/shell.c ****             shell->status.tabFlag = 1;
1474:System/shell/shell.c ****         }
1475:System/shell/shell.c ****     }
1476:System/shell/shell.c **** }
1477:System/shell/shell.c **** SHELL_EXPORT_KEY(SHELL_CMD_PERMISSION(0), 0x09000000, shellTab, tab);
1478:System/shell/shell.c **** 
1479:System/shell/shell.c **** /**
1480:System/shell/shell.c ****  * @brief shell 退格
1481:System/shell/shell.c ****  *
1482:System/shell/shell.c ****  * @param shell shell对象
1483:System/shell/shell.c ****  */
1484:System/shell/shell.c **** void shellBackspace(Shell *shell)
1485:System/shell/shell.c **** {
1486:System/shell/shell.c ****     shellDeleteByte(shell, 1);
1487:System/shell/shell.c **** }
1488:System/shell/shell.c **** SHELL_EXPORT_KEY(SHELL_CMD_PERMISSION(0) | SHELL_CMD_ENABLE_UNCHECKED,
1489:System/shell/shell.c ****                  0x08000000, shellBackspace, backspace);
1490:System/shell/shell.c **** SHELL_EXPORT_KEY(SHELL_CMD_PERMISSION(0) | SHELL_CMD_ENABLE_UNCHECKED,
1491:System/shell/shell.c ****                  0x7F000000, shellBackspace, backspace);
1492:System/shell/shell.c **** 
1493:System/shell/shell.c **** /**
1494:System/shell/shell.c ****  * @brief shell 删除
1495:System/shell/shell.c ****  *
1496:System/shell/shell.c ****  * @param shell shell对象
1497:System/shell/shell.c ****  */
1498:System/shell/shell.c **** void shellDelete(Shell *shell)
1499:System/shell/shell.c **** {
1500:System/shell/shell.c ****     shellDeleteByte(shell, -1);
1501:System/shell/shell.c **** }
1502:System/shell/shell.c **** SHELL_EXPORT_KEY(SHELL_CMD_PERMISSION(0) | SHELL_CMD_ENABLE_UNCHECKED,
1503:System/shell/shell.c ****                  0x1B5B337E, shellDelete, delete);
1504:System/shell/shell.c **** 
1505:System/shell/shell.c **** /**
1506:System/shell/shell.c ****  * @brief shell 回车处理
1507:System/shell/shell.c ****  *
1508:System/shell/shell.c ****  * @param shell shell对象
1509:System/shell/shell.c ****  */
1510:System/shell/shell.c **** void shellEnter(Shell *shell)
1511:System/shell/shell.c **** {
ARM GAS  C:\Users\HUAV\AppData\Local\Temp\ccBfvIcs.s 			page 53


1512:System/shell/shell.c ****     shellExec(shell);
1513:System/shell/shell.c ****     shellWriteCommandLine(shell, 1);
1514:System/shell/shell.c **** }
1515:System/shell/shell.c **** #if SHELL_ENTER_LF == 1
1516:System/shell/shell.c **** SHELL_EXPORT_KEY(SHELL_CMD_PERMISSION(0) | SHELL_CMD_ENABLE_UNCHECKED,
1517:System/shell/shell.c ****                  0x0A000000, shellEnter, enter);
1518:System/shell/shell.c **** #endif
1519:System/shell/shell.c **** #if SHELL_ENTER_CR == 1
1520:System/shell/shell.c **** SHELL_EXPORT_KEY(SHELL_CMD_PERMISSION(0) | SHELL_CMD_ENABLE_UNCHECKED,
1521:System/shell/shell.c ****                  0x0D000000, shellEnter, enter);
1522:System/shell/shell.c **** #endif
1523:System/shell/shell.c **** #if SHELL_ENTER_CRLF == 1
1524:System/shell/shell.c **** SHELL_EXPORT_KEY(SHELL_CMD_PERMISSION(0) | SHELL_CMD_ENABLE_UNCHECKED,
1525:System/shell/shell.c ****                  0x0D0A0000, shellEnter, enter);
1526:System/shell/shell.c **** #endif
1527:System/shell/shell.c **** 
1528:System/shell/shell.c **** /**
1529:System/shell/shell.c ****  * @brief shell help
1530:System/shell/shell.c ****  *
1531:System/shell/shell.c ****  * @param argc 参数个数
1532:System/shell/shell.c ****  * @param argv 参数
1533:System/shell/shell.c ****  */
1534:System/shell/shell.c **** void shellHelp(int argc, char *argv[])
1535:System/shell/shell.c **** {
1536:System/shell/shell.c ****     Shell *shell = shellGetCurrent();
1537:System/shell/shell.c ****     SHELL_ASSERT(shell, return );
1538:System/shell/shell.c ****     if (argc == 1)
1539:System/shell/shell.c ****     {
1540:System/shell/shell.c ****         shellListAll(shell);
1541:System/shell/shell.c ****     }
1542:System/shell/shell.c ****     else if (argc > 1)
1543:System/shell/shell.c ****     {
1544:System/shell/shell.c ****         ShellCommand *command = shellSeekCommand(shell,
1545:System/shell/shell.c ****                                                  argv[1],
1546:System/shell/shell.c ****                                                  shell->commandList.base,
1547:System/shell/shell.c ****                                                  0);
1548:System/shell/shell.c ****         if (command)
1549:System/shell/shell.c ****         {
1550:System/shell/shell.c ****             shellWriteString(shell, shellText[SHELL_TEXT_HELP_HEADER]);
1551:System/shell/shell.c ****             shellWriteString(shell, shellGetCommandName(command));
1552:System/shell/shell.c ****             shellWriteString(shell, "\r\n");
1553:System/shell/shell.c ****             shellWriteString(shell, shellGetCommandDesc(command));
1554:System/shell/shell.c ****             shellWriteString(shell, "\r\n");
1555:System/shell/shell.c ****         }
1556:System/shell/shell.c ****         else
1557:System/shell/shell.c ****         {
1558:System/shell/shell.c ****             shellWriteString(shell, shellText[SHELL_TEXT_CMD_NOT_FOUND]);
1559:System/shell/shell.c ****         }
1560:System/shell/shell.c ****     }
1561:System/shell/shell.c **** }
1562:System/shell/shell.c **** SHELL_EXPORT_CMD(
1563:System/shell/shell.c ****     SHELL_CMD_PERMISSION(0) | SHELL_CMD_TYPE(SHELL_TYPE_CMD_MAIN) | SHELL_CMD_DISABLE_RETURN,
1564:System/shell/shell.c ****     help, shellHelp, show command info\r\nhelp[cmd]);
1565:System/shell/shell.c **** 
1566:System/shell/shell.c **** /**
1567:System/shell/shell.c ****  * @brief shell 输入处理
1568:System/shell/shell.c ****  *
ARM GAS  C:\Users\HUAV\AppData\Local\Temp\ccBfvIcs.s 			page 54


1569:System/shell/shell.c ****  * @param shell shell对象
1570:System/shell/shell.c ****  * @param data 输入数据
1571:System/shell/shell.c ****  */
1572:System/shell/shell.c **** void shellHandler(Shell *shell, char data)
1573:System/shell/shell.c **** {
1574:System/shell/shell.c ****     SHELL_ASSERT(data, return );
1575:System/shell/shell.c **** 
1576:System/shell/shell.c **** #if SHELL_LOCK_TIMEOUT > 0
1577:System/shell/shell.c ****     if (shell->info.user->data.user.password && strlen(shell->info.user->data.user.password) != 0 &
1578:System/shell/shell.c ****     {
1579:System/shell/shell.c ****         if (SHELL_GET_TICK() - shell->info.activeTime > SHELL_LOCK_TIMEOUT)
1580:System/shell/shell.c ****         {
1581:System/shell/shell.c ****             shell->status.isChecked = 0;
1582:System/shell/shell.c ****         }
1583:System/shell/shell.c ****     }
1584:System/shell/shell.c **** #endif
1585:System/shell/shell.c **** 
1586:System/shell/shell.c ****     /* 根据记录的按键键值计算当前字节在按键键值中的偏移 */
1587:System/shell/shell.c ****     char keyByteOffset = 24;
1588:System/shell/shell.c ****     int keyFilter = 0x00000000;
1589:System/shell/shell.c ****     if ((shell->parser.keyValue & 0x0000FF00) != 0x00000000)
1590:System/shell/shell.c ****     {
1591:System/shell/shell.c ****         keyByteOffset = 0;
1592:System/shell/shell.c ****         keyFilter = 0xFFFFFF00;
1593:System/shell/shell.c ****     }
1594:System/shell/shell.c ****     else if ((shell->parser.keyValue & 0x00FF0000) != 0x00000000)
1595:System/shell/shell.c ****     {
1596:System/shell/shell.c ****         keyByteOffset = 8;
1597:System/shell/shell.c ****         keyFilter = 0xFFFF0000;
1598:System/shell/shell.c ****     }
1599:System/shell/shell.c ****     else if ((shell->parser.keyValue & 0xFF000000) != 0x00000000)
1600:System/shell/shell.c ****     {
1601:System/shell/shell.c ****         keyByteOffset = 16;
1602:System/shell/shell.c ****         keyFilter = 0xFF000000;
1603:System/shell/shell.c ****     }
1604:System/shell/shell.c **** 
1605:System/shell/shell.c ****     /* 遍历ShellCommand列表，尝试进行按键键值匹配 */
1606:System/shell/shell.c ****     ShellCommand *base = (ShellCommand *)shell->commandList.base;
1607:System/shell/shell.c ****     for (short i = 0; i < shell->commandList.count; i++)
1608:System/shell/shell.c ****     {
1609:System/shell/shell.c ****         /* 判断是否是按键定义并验证权限 */
1610:System/shell/shell.c ****         if (base[i].attr.attrs.type == SHELL_TYPE_KEY && shellCheckPermission(shell, &(base[i])) ==
1611:System/shell/shell.c ****         {
1612:System/shell/shell.c ****             /* 对输入的字节同按键键值进行匹配 */
1613:System/shell/shell.c ****             if ((base[i].data.key.value & keyFilter) == shell->parser.keyValue && (base[i].data.key
1614:System/shell/shell.c ****             {
1615:System/shell/shell.c ****                 shell->parser.keyValue |= data << keyByteOffset;
1616:System/shell/shell.c ****                 data = 0x00;
1617:System/shell/shell.c ****                 if (keyByteOffset == 0 || (base[i].data.key.value & (0xFF << (keyByteOffset - 8))) 
1618:System/shell/shell.c ****                 {
1619:System/shell/shell.c ****                     if (base[i].data.key.function)
1620:System/shell/shell.c ****                     {
1621:System/shell/shell.c ****                         base[i].data.key.function(shell);
1622:System/shell/shell.c ****                     }
1623:System/shell/shell.c ****                     shell->parser.keyValue = 0x00000000;
1624:System/shell/shell.c ****                     break;
1625:System/shell/shell.c ****                 }
ARM GAS  C:\Users\HUAV\AppData\Local\Temp\ccBfvIcs.s 			page 55


1626:System/shell/shell.c ****             }
1627:System/shell/shell.c ****         }
1628:System/shell/shell.c ****     }
1629:System/shell/shell.c **** 
1630:System/shell/shell.c ****     if (data != 0x00)
1631:System/shell/shell.c ****     {
1632:System/shell/shell.c ****         shell->parser.keyValue = 0x00000000;
1633:System/shell/shell.c ****         shellNormalInput(shell, data);
1634:System/shell/shell.c ****     }
1635:System/shell/shell.c **** 
1636:System/shell/shell.c ****     if (SHELL_GET_TICK())
1637:System/shell/shell.c ****     {
1638:System/shell/shell.c ****         shell->info.activeTime = SHELL_GET_TICK();
1639:System/shell/shell.c ****     }
1640:System/shell/shell.c **** }
1641:System/shell/shell.c **** 
1642:System/shell/shell.c **** #if SHELL_SUPPORT_END_LINE == 1
1643:System/shell/shell.c **** void shellWriteEndLine(Shell *shell, char *buffer, int len)
1644:System/shell/shell.c **** {
1645:System/shell/shell.c ****     if (!shell->status.isActive)
1646:System/shell/shell.c ****     {
1647:System/shell/shell.c ****         shellWriteString(shell, shellText[SHELL_TEXT_CLEAR_LINE]);
1648:System/shell/shell.c ****     }
1649:System/shell/shell.c ****     while (len--)
1650:System/shell/shell.c ****     {
1651:System/shell/shell.c ****         shell->write(*buffer++);
1652:System/shell/shell.c ****     }
1653:System/shell/shell.c ****     if (!shell->status.isActive)
1654:System/shell/shell.c ****     {
1655:System/shell/shell.c ****         shellWriteCommandLine(shell, 0);
1656:System/shell/shell.c ****         if (shell->parser.length > 0)
1657:System/shell/shell.c ****         {
1658:System/shell/shell.c ****             shellWriteString(shell, shell->parser.buffer);
1659:System/shell/shell.c ****             for (short i = 0; i < shell->parser.length - shell->parser.cursor; i++)
1660:System/shell/shell.c ****             {
1661:System/shell/shell.c ****                 shell->write('\b');
1662:System/shell/shell.c ****             }
1663:System/shell/shell.c ****         }
1664:System/shell/shell.c ****     }
1665:System/shell/shell.c **** }
1666:System/shell/shell.c **** #endif /** SHELL_SUPPORT_END_LINE == 1 */
1667:System/shell/shell.c **** 
1668:System/shell/shell.c **** /**
1669:System/shell/shell.c ****  * @brief shell 任务
1670:System/shell/shell.c ****  *
1671:System/shell/shell.c ****  * @param param 参数(shell对象)
1672:System/shell/shell.c ****  *
1673:System/shell/shell.c ****  */
1674:System/shell/shell.c **** void shellTask(void *param)
1675:System/shell/shell.c **** {
1676:System/shell/shell.c ****     Shell *shell = (Shell *)param;
1677:System/shell/shell.c ****     char data;
1678:System/shell/shell.c **** #if SHELL_TASK_WHILE == 1
1679:System/shell/shell.c ****     while (1)
1680:System/shell/shell.c ****     {
1681:System/shell/shell.c **** #endif
1682:System/shell/shell.c ****         if (shell->read && shell->read(&data) == 0)
ARM GAS  C:\Users\HUAV\AppData\Local\Temp\ccBfvIcs.s 			page 56


1683:System/shell/shell.c ****         {
1684:System/shell/shell.c ****             shellHandler(shell, data);
1685:System/shell/shell.c ****         }
1686:System/shell/shell.c **** #if SHELL_TASK_WHILE == 1
1687:System/shell/shell.c ****     }
1688:System/shell/shell.c **** #endif
1689:System/shell/shell.c **** }
1690:System/shell/shell.c **** 
1691:System/shell/shell.c **** /**
1692:System/shell/shell.c ****  * @brief shell 输出用户列表(shell调用)
1693:System/shell/shell.c ****  */
1694:System/shell/shell.c **** void shellUsers(void)
1695:System/shell/shell.c **** {
1696:System/shell/shell.c ****     Shell *shell = shellGetCurrent();
1697:System/shell/shell.c ****     if (shell)
1698:System/shell/shell.c ****     {
1699:System/shell/shell.c ****         shellListUser(shell);
1700:System/shell/shell.c ****     }
1701:System/shell/shell.c **** }
1702:System/shell/shell.c **** SHELL_EXPORT_CMD(
1703:System/shell/shell.c ****     SHELL_CMD_PERMISSION(0) | SHELL_CMD_TYPE(SHELL_TYPE_CMD_FUNC) | SHELL_CMD_DISABLE_RETURN,
1704:System/shell/shell.c ****     users, shellUsers, list all user);
1705:System/shell/shell.c **** 
1706:System/shell/shell.c **** /**
1707:System/shell/shell.c ****  * @brief shell 输出命令列表(shell调用)
1708:System/shell/shell.c ****  */
1709:System/shell/shell.c **** void shellCmds(void)
1710:System/shell/shell.c **** {
1711:System/shell/shell.c ****     Shell *shell = shellGetCurrent();
1712:System/shell/shell.c ****     if (shell)
1713:System/shell/shell.c ****     {
1714:System/shell/shell.c ****         shellListCommand(shell);
1715:System/shell/shell.c ****     }
1716:System/shell/shell.c **** }
1717:System/shell/shell.c **** SHELL_EXPORT_CMD(
1718:System/shell/shell.c ****     SHELL_CMD_PERMISSION(0) | SHELL_CMD_TYPE(SHELL_TYPE_CMD_FUNC) | SHELL_CMD_DISABLE_RETURN,
1719:System/shell/shell.c ****     cmds, shellCmds, list all cmd);
1720:System/shell/shell.c **** 
1721:System/shell/shell.c **** /**
1722:System/shell/shell.c ****  * @brief shell 输出变量列表(shell调用)
1723:System/shell/shell.c ****  */
1724:System/shell/shell.c **** void shellVars(void)
1725:System/shell/shell.c **** {
1726:System/shell/shell.c ****     Shell *shell = shellGetCurrent();
1727:System/shell/shell.c ****     if (shell)
1728:System/shell/shell.c ****     {
1729:System/shell/shell.c ****         shellListVar(shell);
1730:System/shell/shell.c ****     }
1731:System/shell/shell.c **** }
1732:System/shell/shell.c **** SHELL_EXPORT_CMD(
1733:System/shell/shell.c ****     SHELL_CMD_PERMISSION(0) | SHELL_CMD_TYPE(SHELL_TYPE_CMD_FUNC) | SHELL_CMD_DISABLE_RETURN,
1734:System/shell/shell.c ****     vars, shellVars, list all var);
1735:System/shell/shell.c **** 
1736:System/shell/shell.c **** /**
1737:System/shell/shell.c ****  * @brief shell 输出按键列表(shell调用)
1738:System/shell/shell.c ****  */
1739:System/shell/shell.c **** void shellKeys(void)
ARM GAS  C:\Users\HUAV\AppData\Local\Temp\ccBfvIcs.s 			page 57


1740:System/shell/shell.c **** {
1741:System/shell/shell.c ****     Shell *shell = shellGetCurrent();
1742:System/shell/shell.c ****     if (shell)
1743:System/shell/shell.c ****     {
1744:System/shell/shell.c ****         shellListKey(shell);
1745:System/shell/shell.c ****     }
1746:System/shell/shell.c **** }
1747:System/shell/shell.c **** SHELL_EXPORT_CMD(
1748:System/shell/shell.c ****     SHELL_CMD_PERMISSION(0) | SHELL_CMD_TYPE(SHELL_TYPE_CMD_FUNC) | SHELL_CMD_DISABLE_RETURN,
1749:System/shell/shell.c ****     keys, shellKeys, list all key);
1750:System/shell/shell.c **** 
1751:System/shell/shell.c **** /**
1752:System/shell/shell.c ****  * @brief shell 清空控制台(shell调用)
1753:System/shell/shell.c ****  */
1754:System/shell/shell.c **** void shellClear(void)
1755:System/shell/shell.c **** {
 1261              		.loc 1 1755 1 view -0
 1262              		.cfi_startproc
 1263              		@ args = 0, pretend = 0, frame = 0
 1264              		@ frame_needed = 0, uses_anonymous_args = 0
 1265 0000 08B5     		push	{r3, lr}
 1266              	.LCFI17:
 1267              		.cfi_def_cfa_offset 8
 1268              		.cfi_offset 3, -8
 1269              		.cfi_offset 14, -4
1756:System/shell/shell.c ****     Shell *shell = shellGetCurrent();
 1270              		.loc 1 1756 5 view .LVU343
 1271              		.loc 1 1756 20 is_stmt 0 view .LVU344
 1272 0002 FFF7FEFF 		bl	shellGetCurrent
 1273              	.LVL110:
1757:System/shell/shell.c ****     if (shell)
 1274              		.loc 1 1757 5 is_stmt 1 view .LVU345
 1275              		.loc 1 1757 8 is_stmt 0 view .LVU346
 1276 0006 10B1     		cbz	r0, .L111
1758:System/shell/shell.c ****     {
1759:System/shell/shell.c ****         shellWriteString(shell, shellText[SHELL_TEXT_CLEAR_CONSOLE]);
 1277              		.loc 1 1759 9 is_stmt 1 view .LVU347
 1278 0008 0149     		ldr	r1, .L114
 1279 000a FFF7FEFF 		bl	shellWriteString
 1280              	.LVL111:
 1281              	.L111:
1760:System/shell/shell.c ****     }
1761:System/shell/shell.c **** }
 1282              		.loc 1 1761 1 is_stmt 0 view .LVU348
 1283 000e 08BD     		pop	{r3, pc}
 1284              	.L115:
 1285              		.align	2
 1286              	.L114:
 1287 0010 00000000 		.word	.LC0
 1288              		.cfi_endproc
 1289              	.LFE59:
 1291              		.section	.text.shellPrint,"ax",%progbits
 1292              		.align	1
 1293              		.global	shellPrint
 1294              		.syntax unified
 1295              		.thumb
 1296              		.thumb_func
ARM GAS  C:\Users\HUAV\AppData\Local\Temp\ccBfvIcs.s 			page 58


 1297              		.fpu fpv5-d16
 1299              	shellPrint:
 1300              	.LVL112:
 1301              	.LFB10:
 329:System/shell/shell.c ****     char buffer[SHELL_PRINT_BUFFER];
 1302              		.loc 1 329 1 is_stmt 1 view -0
 1303              		.cfi_startproc
 1304              		@ args = 4, pretend = 12, frame = 136
 1305              		@ frame_needed = 0, uses_anonymous_args = 1
 330:System/shell/shell.c ****     va_list vargs;
 1306              		.loc 1 330 5 view .LVU350
 331:System/shell/shell.c **** 
 1307              		.loc 1 331 5 view .LVU351
 333:System/shell/shell.c **** 
 1308              		.loc 1 333 5 view .LVU352
 1309 0000 98B1     		cbz	r0, .L120
 329:System/shell/shell.c ****     char buffer[SHELL_PRINT_BUFFER];
 1310              		.loc 1 329 1 is_stmt 0 discriminator 2 view .LVU353
 1311 0002 0EB4     		push	{r1, r2, r3}
 1312              	.LCFI18:
 1313              		.cfi_def_cfa_offset 12
 1314              		.cfi_offset 1, -12
 1315              		.cfi_offset 2, -8
 1316              		.cfi_offset 3, -4
 1317 0004 10B5     		push	{r4, lr}
 1318              	.LCFI19:
 1319              		.cfi_def_cfa_offset 20
 1320              		.cfi_offset 4, -20
 1321              		.cfi_offset 14, -16
 1322 0006 A3B0     		sub	sp, sp, #140
 1323              	.LCFI20:
 1324              		.cfi_def_cfa_offset 160
 1325 0008 0446     		mov	r4, r0
 333:System/shell/shell.c **** 
 1326              		.loc 1 333 33 is_stmt 1 discriminator 2 view .LVU354
 335:System/shell/shell.c ****     vsnprintf(buffer, SHELL_PRINT_BUFFER - 1, fmt, vargs);
 1327              		.loc 1 335 5 discriminator 2 view .LVU355
 1328 000a 26AB     		add	r3, sp, #152
 1329 000c 0193     		str	r3, [sp, #4]
 336:System/shell/shell.c ****     va_end(vargs);
 1330              		.loc 1 336 5 discriminator 2 view .LVU356
 1331 000e 259A     		ldr	r2, [sp, #148]
 1332 0010 7F21     		movs	r1, #127
 1333 0012 02A8     		add	r0, sp, #8
 1334              	.LVL113:
 336:System/shell/shell.c ****     va_end(vargs);
 1335              		.loc 1 336 5 is_stmt 0 discriminator 2 view .LVU357
 1336 0014 FFF7FEFF 		bl	vsnprintf
 1337              	.LVL114:
 337:System/shell/shell.c **** 
 1338              		.loc 1 337 5 is_stmt 1 discriminator 2 view .LVU358
 339:System/shell/shell.c **** }
 1339              		.loc 1 339 5 discriminator 2 view .LVU359
 1340 0018 02A9     		add	r1, sp, #8
 1341 001a 2046     		mov	r0, r4
 1342 001c FFF7FEFF 		bl	shellWriteString
 1343              	.LVL115:
ARM GAS  C:\Users\HUAV\AppData\Local\Temp\ccBfvIcs.s 			page 59


 340:System/shell/shell.c **** #endif
 1344              		.loc 1 340 1 is_stmt 0 discriminator 2 view .LVU360
 1345 0020 23B0     		add	sp, sp, #140
 1346              	.LCFI21:
 1347              		.cfi_def_cfa_offset 20
 1348              		@ sp needed
 1349 0022 BDE81040 		pop	{r4, lr}
 1350              	.LCFI22:
 1351              		.cfi_restore 14
 1352              		.cfi_restore 4
 1353              		.cfi_def_cfa_offset 12
 1354              	.LVL116:
 340:System/shell/shell.c **** #endif
 1355              		.loc 1 340 1 discriminator 2 view .LVU361
 1356 0026 03B0     		add	sp, sp, #12
 1357              	.LCFI23:
 1358              		.cfi_restore 3
 1359              		.cfi_restore 2
 1360              		.cfi_restore 1
 1361              		.cfi_def_cfa_offset 0
 1362 0028 7047     		bx	lr
 1363              	.LVL117:
 1364              	.L120:
 340:System/shell/shell.c **** #endif
 1365              		.loc 1 340 1 discriminator 2 view .LVU362
 1366 002a 7047     		bx	lr
 1367              		.cfi_endproc
 1368              	.LFE10:
 1370              		.section	.text.shellScan,"ax",%progbits
 1371              		.align	1
 1372              		.global	shellScan
 1373              		.syntax unified
 1374              		.thumb
 1375              		.thumb_func
 1376              		.fpu fpv5-d16
 1378              	shellScan:
 1379              	.LVL118:
 1380              	.LFB11:
 352:System/shell/shell.c ****     char buffer[SHELL_SCAN_BUFFER];
 1381              		.loc 1 352 1 is_stmt 1 view -0
 1382              		.cfi_startproc
 1383              		@ args = 4, pretend = 12, frame = 8
 1384              		@ frame_needed = 0, uses_anonymous_args = 1
 353:System/shell/shell.c ****     va_list vargs;
 1385              		.loc 1 353 5 view .LVU364
 354:System/shell/shell.c ****     short index = 0;
 1386              		.loc 1 354 5 view .LVU365
 355:System/shell/shell.c **** 
 1387              		.loc 1 355 5 view .LVU366
 357:System/shell/shell.c **** 
 1388              		.loc 1 357 5 view .LVU367
 1389 0000 0028     		cmp	r0, #0
 1390 0002 35D0     		beq	.L131
 352:System/shell/shell.c ****     char buffer[SHELL_SCAN_BUFFER];
 1391              		.loc 1 352 1 is_stmt 0 discriminator 2 view .LVU368
 1392 0004 0EB4     		push	{r1, r2, r3}
 1393              	.LCFI24:
ARM GAS  C:\Users\HUAV\AppData\Local\Temp\ccBfvIcs.s 			page 60


 1394              		.cfi_def_cfa_offset 12
 1395              		.cfi_offset 1, -12
 1396              		.cfi_offset 2, -8
 1397              		.cfi_offset 3, -4
 1398 0006 70B5     		push	{r4, r5, r6, lr}
 1399              	.LCFI25:
 1400              		.cfi_def_cfa_offset 28
 1401              		.cfi_offset 4, -28
 1402              		.cfi_offset 5, -24
 1403              		.cfi_offset 6, -20
 1404              		.cfi_offset 14, -16
 1405 0008 83B0     		sub	sp, sp, #12
 1406              	.LCFI26:
 1407              		.cfi_def_cfa_offset 40
 1408 000a 0646     		mov	r6, r0
 357:System/shell/shell.c **** 
 1409              		.loc 1 357 33 is_stmt 1 discriminator 2 view .LVU369
 359:System/shell/shell.c ****     {
 1410              		.loc 1 359 5 discriminator 2 view .LVU370
 359:System/shell/shell.c ****     {
 1411              		.loc 1 359 14 is_stmt 0 discriminator 2 view .LVU371
 1412 000c 436E     		ldr	r3, [r0, #100]
 359:System/shell/shell.c ****     {
 1413              		.loc 1 359 8 discriminator 2 view .LVU372
 1414 000e 23B3     		cbz	r3, .L126
 355:System/shell/shell.c **** 
 1415              		.loc 1 355 11 view .LVU373
 1416 0010 0024     		movs	r4, #0
 1417 0012 11E0     		b	.L129
 1418              	.LVL119:
 1419              	.L134:
 365:System/shell/shell.c ****                 index++;
 1420              		.loc 1 365 17 is_stmt 1 view .LVU374
 365:System/shell/shell.c ****                 index++;
 1421              		.loc 1 365 22 is_stmt 0 view .LVU375
 1422 0014 B36E     		ldr	r3, [r6, #104]
 365:System/shell/shell.c ****                 index++;
 1423              		.loc 1 365 17 view .LVU376
 1424 0016 0121     		movs	r1, #1
 1425 0018 2846     		mov	r0, r5
 1426 001a 9847     		blx	r3
 1427              	.LVL120:
 366:System/shell/shell.c ****             }
 1428              		.loc 1 366 17 is_stmt 1 view .LVU377
 366:System/shell/shell.c ****             }
 1429              		.loc 1 366 22 is_stmt 0 view .LVU378
 1430 001c 0134     		adds	r4, r4, #1
 1431              	.LVL121:
 366:System/shell/shell.c ****             }
 1432              		.loc 1 366 22 view .LVU379
 1433 001e 24B2     		sxth	r4, r4
 1434              	.LVL122:
 1435              	.L127:
 368:System/shell/shell.c ****         shellWriteString(shell, "\r\n");
 1436              		.loc 1 368 17 is_stmt 1 view .LVU380
 368:System/shell/shell.c ****         shellWriteString(shell, "\r\n");
 1437              		.loc 1 368 31 is_stmt 0 view .LVU381
ARM GAS  C:\Users\HUAV\AppData\Local\Temp\ccBfvIcs.s 			page 61


 1438 0020 2546     		mov	r5, r4
 1439 0022 631E     		subs	r3, r4, #1
 368:System/shell/shell.c ****         shellWriteString(shell, "\r\n");
 1440              		.loc 1 368 24 view .LVU382
 1441 0024 02AA     		add	r2, sp, #8
 1442 0026 1344     		add	r3, r3, r2
 1443 0028 13F8043C 		ldrb	r3, [r3, #-4]	@ zero_extendqisi2
 368:System/shell/shell.c ****         shellWriteString(shell, "\r\n");
 1444              		.loc 1 368 9 view .LVU383
 1445 002c 0D2B     		cmp	r3, #13
 1446 002e 18BF     		it	ne
 1447 0030 0A2B     		cmpne	r3, #10
 1448 0032 09D0     		beq	.L128
 368:System/shell/shell.c ****         shellWriteString(shell, "\r\n");
 1449              		.loc 1 368 73 discriminator 1 view .LVU384
 1450 0034 002C     		cmp	r4, #0
 1451 0036 07DC     		bgt	.L128
 1452              	.LVL123:
 1453              	.L129:
 361:System/shell/shell.c ****         {
 1454              		.loc 1 361 9 is_stmt 1 view .LVU385
 363:System/shell/shell.c ****             {
 1455              		.loc 1 363 13 view .LVU386
 363:System/shell/shell.c ****             {
 1456              		.loc 1 363 22 is_stmt 0 view .LVU387
 1457 0038 736E     		ldr	r3, [r6, #100]
 363:System/shell/shell.c ****             {
 1458              		.loc 1 363 17 view .LVU388
 1459 003a 01AA     		add	r2, sp, #4
 1460 003c 1519     		adds	r5, r2, r4
 1461 003e 2846     		mov	r0, r5
 1462 0040 9847     		blx	r3
 1463              	.LVL124:
 363:System/shell/shell.c ****             {
 1464              		.loc 1 363 16 view .LVU389
 1465 0042 0028     		cmp	r0, #0
 1466 0044 ECD1     		bne	.L127
 1467 0046 E5E7     		b	.L134
 1468              	.L128:
 369:System/shell/shell.c ****         buffer[index] = '\0';
 1469              		.loc 1 369 9 is_stmt 1 view .LVU390
 1470 0048 0A49     		ldr	r1, .L135
 1471 004a 3046     		mov	r0, r6
 1472 004c FFF7FEFF 		bl	shellWriteString
 1473              	.LVL125:
 370:System/shell/shell.c ****     }
 1474              		.loc 1 370 9 view .LVU391
 370:System/shell/shell.c ****     }
 1475              		.loc 1 370 23 is_stmt 0 view .LVU392
 1476 0050 02AB     		add	r3, sp, #8
 1477 0052 1D44     		add	r5, r5, r3
 1478 0054 0023     		movs	r3, #0
 1479 0056 05F8043C 		strb	r3, [r5, #-4]
 1480              	.LVL126:
 1481              	.L126:
 373:System/shell/shell.c ****     vsscanf(buffer, fmt, vargs);
 1482              		.loc 1 373 5 is_stmt 1 view .LVU393
ARM GAS  C:\Users\HUAV\AppData\Local\Temp\ccBfvIcs.s 			page 62


 1483 005a 08AA     		add	r2, sp, #32
 1484 005c 0092     		str	r2, [sp]
 374:System/shell/shell.c ****     va_end(vargs);
 1485              		.loc 1 374 5 view .LVU394
 1486 005e 0799     		ldr	r1, [sp, #28]
 1487 0060 01A8     		add	r0, sp, #4
 1488 0062 FFF7FEFF 		bl	vsscanf
 1489              	.LVL127:
 375:System/shell/shell.c **** }
 1490              		.loc 1 375 5 view .LVU395
 376:System/shell/shell.c **** #endif
 1491              		.loc 1 376 1 is_stmt 0 view .LVU396
 1492 0066 03B0     		add	sp, sp, #12
 1493              	.LCFI27:
 1494              		.cfi_def_cfa_offset 28
 1495              		@ sp needed
 1496 0068 BDE87040 		pop	{r4, r5, r6, lr}
 1497              	.LCFI28:
 1498              		.cfi_restore 14
 1499              		.cfi_restore 6
 1500              		.cfi_restore 5
 1501              		.cfi_restore 4
 1502              		.cfi_def_cfa_offset 12
 1503              	.LVL128:
 376:System/shell/shell.c **** #endif
 1504              		.loc 1 376 1 view .LVU397
 1505 006c 03B0     		add	sp, sp, #12
 1506              	.LCFI29:
 1507              		.cfi_restore 3
 1508              		.cfi_restore 2
 1509              		.cfi_restore 1
 1510              		.cfi_def_cfa_offset 0
 1511 006e 7047     		bx	lr
 1512              	.LVL129:
 1513              	.L131:
 376:System/shell/shell.c **** #endif
 1514              		.loc 1 376 1 view .LVU398
 1515 0070 7047     		bx	lr
 1516              	.L136:
 1517 0072 00BF     		.align	2
 1518              	.L135:
 1519 0074 04000000 		.word	.LC3
 1520              		.cfi_endproc
 1521              	.LFE11:
 1523              		.section	.text.shellCheckPermission,"ax",%progbits
 1524              		.align	1
 1525              		.global	shellCheckPermission
 1526              		.syntax unified
 1527              		.thumb
 1528              		.thumb_func
 1529              		.fpu fpv5-d16
 1531              	shellCheckPermission:
 1532              	.LVL130:
 1533              	.LFB12:
 389:System/shell/shell.c ****     return ((!command->attr.attrs.permission || command->attr.attrs.type == SHELL_TYPE_USER || (com
 1534              		.loc 1 389 1 is_stmt 1 view -0
 1535              		.cfi_startproc
ARM GAS  C:\Users\HUAV\AppData\Local\Temp\ccBfvIcs.s 			page 63


 1536              		@ args = 0, pretend = 0, frame = 0
 1537              		@ frame_needed = 0, uses_anonymous_args = 0
 1538              		@ link register save eliminated.
 390:System/shell/shell.c ****                ? 0
 1539              		.loc 1 390 5 view .LVU400
 390:System/shell/shell.c ****                ? 0
 1540              		.loc 1 390 34 is_stmt 0 view .LVU401
 1541 0000 0B78     		ldrb	r3, [r1]	@ zero_extendqisi2
 392:System/shell/shell.c **** }
 1542              		.loc 1 392 16 view .LVU402
 1543 0002 43B1     		cbz	r3, .L138
 390:System/shell/shell.c ****                ? 0
 1544              		.loc 1 390 74 view .LVU403
 1545 0004 4A78     		ldrb	r2, [r1, #1]	@ zero_extendqisi2
 1546 0006 02F00F02 		and	r2, r2, #15
 390:System/shell/shell.c ****                ? 0
 1547              		.loc 1 390 46 view .LVU404
 1548 000a 082A     		cmp	r2, #8
 1549 000c 03D0     		beq	.L138
 390:System/shell/shell.c ****                ? 0
 1550              		.loc 1 390 141 discriminator 2 view .LVU405
 1551 000e 0268     		ldr	r2, [r0]
 390:System/shell/shell.c ****                ? 0
 1552              		.loc 1 390 158 discriminator 2 view .LVU406
 1553 0010 1278     		ldrb	r2, [r2]	@ zero_extendqisi2
 390:System/shell/shell.c ****                ? 0
 1554              		.loc 1 390 93 discriminator 2 view .LVU407
 1555 0012 1342     		tst	r3, r2
 1556 0014 0DD0     		beq	.L140
 1557              	.L138:
 390:System/shell/shell.c ****                ? 0
 1558              		.loc 1 390 176 discriminator 3 view .LVU408
 1559 0016 90F86030 		ldrb	r3, [r0, #96]	@ zero_extendqisi2
 390:System/shell/shell.c ****                ? 0
 1560              		.loc 1 390 172 discriminator 3 view .LVU409
 1561 001a 13F0010F 		tst	r3, #1
 1562 001e 0BD1     		bne	.L141
 390:System/shell/shell.c ****                ? 0
 1563              		.loc 1 390 200 discriminator 4 view .LVU410
 1564 0020 4B78     		ldrb	r3, [r1, #1]	@ zero_extendqisi2
 1565 0022 13F0100F 		tst	r3, #16
 1566 0026 01D0     		beq	.L143
 392:System/shell/shell.c **** }
 1567              		.loc 1 392 16 view .LVU411
 1568 0028 0020     		movs	r0, #0
 1569              	.LVL131:
 393:System/shell/shell.c **** 
 1570              		.loc 1 393 1 view .LVU412
 1571 002a 7047     		bx	lr
 1572              	.LVL132:
 1573              	.L143:
 392:System/shell/shell.c **** }
 1574              		.loc 1 392 16 view .LVU413
 1575 002c 4FF0FF30 		mov	r0, #-1
 1576              	.LVL133:
 392:System/shell/shell.c **** }
 1577              		.loc 1 392 16 view .LVU414
ARM GAS  C:\Users\HUAV\AppData\Local\Temp\ccBfvIcs.s 			page 64


 1578 0030 7047     		bx	lr
 1579              	.LVL134:
 1580              	.L140:
 392:System/shell/shell.c **** }
 1581              		.loc 1 392 16 view .LVU415
 1582 0032 4FF0FF30 		mov	r0, #-1
 1583              	.LVL135:
 392:System/shell/shell.c **** }
 1584              		.loc 1 392 16 view .LVU416
 1585 0036 7047     		bx	lr
 1586              	.LVL136:
 1587              	.L141:
 392:System/shell/shell.c **** }
 1588              		.loc 1 392 16 view .LVU417
 1589 0038 0020     		movs	r0, #0
 1590              	.LVL137:
 392:System/shell/shell.c **** }
 1591              		.loc 1 392 16 view .LVU418
 1592 003a 7047     		bx	lr
 1593              		.cfi_endproc
 1594              	.LFE12:
 1596              		.section	.text.shellToHex,"ax",%progbits
 1597              		.align	1
 1598              		.global	shellToHex
 1599              		.syntax unified
 1600              		.thumb
 1601              		.thumb_func
 1602              		.fpu fpv5-d16
 1604              	shellToHex:
 1605              	.LVL138:
 1606              	.LFB13:
 404:System/shell/shell.c ****     char byte;
 1607              		.loc 1 404 1 is_stmt 1 view -0
 1608              		.cfi_startproc
 1609              		@ args = 0, pretend = 0, frame = 0
 1610              		@ frame_needed = 0, uses_anonymous_args = 0
 1611              		@ link register save eliminated.
 405:System/shell/shell.c ****     unsigned char i = 8;
 1612              		.loc 1 405 5 view .LVU420
 406:System/shell/shell.c ****     buffer[8] = 0;
 1613              		.loc 1 406 5 view .LVU421
 407:System/shell/shell.c ****     while (value)
 1614              		.loc 1 407 5 view .LVU422
 407:System/shell/shell.c ****     while (value)
 1615              		.loc 1 407 15 is_stmt 0 view .LVU423
 1616 0000 0023     		movs	r3, #0
 1617 0002 0B72     		strb	r3, [r1, #8]
 408:System/shell/shell.c ****     {
 1618              		.loc 1 408 5 is_stmt 1 view .LVU424
 406:System/shell/shell.c ****     buffer[8] = 0;
 1619              		.loc 1 406 19 is_stmt 0 view .LVU425
 1620 0004 0823     		movs	r3, #8
 408:System/shell/shell.c ****     {
 1621              		.loc 1 408 11 view .LVU426
 1622 0006 04E0     		b	.L145
 1623              	.LVL139:
 1624              	.L146:
ARM GAS  C:\Users\HUAV\AppData\Local\Temp\ccBfvIcs.s 			page 65


 411:System/shell/shell.c ****         value >>= 4;
 1625              		.loc 1 411 21 discriminator 2 view .LVU427
 1626 0008 3032     		adds	r2, r2, #48
 1627              	.LVL140:
 1628              	.L147:
 411:System/shell/shell.c ****         value >>= 4;
 1629              		.loc 1 411 21 discriminator 4 view .LVU428
 1630 000a 013B     		subs	r3, r3, #1
 1631              	.LVL141:
 411:System/shell/shell.c ****         value >>= 4;
 1632              		.loc 1 411 21 discriminator 4 view .LVU429
 1633 000c DBB2     		uxtb	r3, r3
 1634              	.LVL142:
 411:System/shell/shell.c ****         value >>= 4;
 1635              		.loc 1 411 21 discriminator 4 view .LVU430
 1636 000e CA54     		strb	r2, [r1, r3]
 412:System/shell/shell.c ****     }
 1637              		.loc 1 412 9 is_stmt 1 discriminator 4 view .LVU431
 412:System/shell/shell.c ****     }
 1638              		.loc 1 412 15 is_stmt 0 discriminator 4 view .LVU432
 1639 0010 0009     		lsrs	r0, r0, #4
 1640              	.LVL143:
 1641              	.L145:
 408:System/shell/shell.c ****     {
 1642              		.loc 1 408 11 is_stmt 1 view .LVU433
 1643 0012 28B1     		cbz	r0, .L149
 410:System/shell/shell.c ****         buffer[--i] = (byte > 9) ? (byte + 87) : (byte + 48);
 1644              		.loc 1 410 9 view .LVU434
 410:System/shell/shell.c ****         buffer[--i] = (byte > 9) ? (byte + 87) : (byte + 48);
 1645              		.loc 1 410 14 is_stmt 0 view .LVU435
 1646 0014 00F00F02 		and	r2, r0, #15
 1647              	.LVL144:
 411:System/shell/shell.c ****         value >>= 4;
 1648              		.loc 1 411 9 is_stmt 1 view .LVU436
 411:System/shell/shell.c ****         value >>= 4;
 1649              		.loc 1 411 21 is_stmt 0 view .LVU437
 1650 0018 092A     		cmp	r2, #9
 1651 001a F5D9     		bls	.L146
 411:System/shell/shell.c ****         value >>= 4;
 1652              		.loc 1 411 21 discriminator 1 view .LVU438
 1653 001c 5732     		adds	r2, r2, #87
 1654              	.LVL145:
 411:System/shell/shell.c ****         value >>= 4;
 1655              		.loc 1 411 21 discriminator 1 view .LVU439
 1656 001e F4E7     		b	.L147
 1657              	.LVL146:
 1658              	.L149:
 414:System/shell/shell.c **** }
 1659              		.loc 1 414 5 is_stmt 1 view .LVU440
 414:System/shell/shell.c **** }
 1660              		.loc 1 414 14 is_stmt 0 view .LVU441
 1661 0020 C3F10800 		rsb	r0, r3, #8
 1662              	.LVL147:
 415:System/shell/shell.c **** 
 1663              		.loc 1 415 1 view .LVU442
 1664 0024 40B2     		sxtb	r0, r0
 1665 0026 7047     		bx	lr
ARM GAS  C:\Users\HUAV\AppData\Local\Temp\ccBfvIcs.s 			page 66


 1666              		.cfi_endproc
 1667              	.LFE13:
 1669              		.section	.text.shellGetCommandName,"ax",%progbits
 1670              		.align	1
 1671              		.syntax unified
 1672              		.thumb
 1673              		.thumb_func
 1674              		.fpu fpv5-d16
 1676              	shellGetCommandName:
 1677              	.LVL148:
 1678              	.LFB17:
 500:System/shell/shell.c ****     static char buffer[9];
 1679              		.loc 1 500 1 is_stmt 1 view -0
 1680              		.cfi_startproc
 1681              		@ args = 0, pretend = 0, frame = 0
 1682              		@ frame_needed = 0, uses_anonymous_args = 0
 501:System/shell/shell.c ****     for (unsigned char i = 0; i < 9; i++)
 1683              		.loc 1 501 5 view .LVU444
 502:System/shell/shell.c ****     {
 1684              		.loc 1 502 5 view .LVU445
 1685              	.LBB8:
 502:System/shell/shell.c ****     {
 1686              		.loc 1 502 10 view .LVU446
 502:System/shell/shell.c ****     {
 1687              		.loc 1 502 24 is_stmt 0 view .LVU447
 1688 0000 0023     		movs	r3, #0
 502:System/shell/shell.c ****     {
 1689              		.loc 1 502 5 view .LVU448
 1690 0002 04E0     		b	.L151
 1691              	.LVL149:
 1692              	.L152:
 504:System/shell/shell.c ****     }
 1693              		.loc 1 504 9 is_stmt 1 discriminator 3 view .LVU449
 504:System/shell/shell.c ****     }
 1694              		.loc 1 504 19 is_stmt 0 discriminator 3 view .LVU450
 1695 0004 0E4A     		ldr	r2, .L162
 1696 0006 3021     		movs	r1, #48
 1697 0008 D154     		strb	r1, [r2, r3]
 502:System/shell/shell.c ****     {
 1698              		.loc 1 502 38 is_stmt 1 discriminator 3 view .LVU451
 502:System/shell/shell.c ****     {
 1699              		.loc 1 502 39 is_stmt 0 discriminator 3 view .LVU452
 1700 000a 0133     		adds	r3, r3, #1
 1701              	.LVL150:
 502:System/shell/shell.c ****     {
 1702              		.loc 1 502 39 discriminator 3 view .LVU453
 1703 000c DBB2     		uxtb	r3, r3
 1704              	.LVL151:
 1705              	.L151:
 502:System/shell/shell.c ****     {
 1706              		.loc 1 502 31 is_stmt 1 discriminator 1 view .LVU454
 502:System/shell/shell.c ****     {
 1707              		.loc 1 502 5 is_stmt 0 discriminator 1 view .LVU455
 1708 000e 082B     		cmp	r3, #8
 1709 0010 F8D9     		bls	.L152
 1710              	.LBE8:
 506:System/shell/shell.c ****     {
ARM GAS  C:\Users\HUAV\AppData\Local\Temp\ccBfvIcs.s 			page 67


 1711              		.loc 1 506 5 is_stmt 1 view .LVU456
 506:System/shell/shell.c ****     {
 1712              		.loc 1 506 28 is_stmt 0 view .LVU457
 1713 0012 4378     		ldrb	r3, [r0, #1]	@ zero_extendqisi2
 1714              	.LVL152:
 506:System/shell/shell.c ****     {
 1715              		.loc 1 506 28 view .LVU458
 1716 0014 03F00F03 		and	r3, r3, #15
 506:System/shell/shell.c ****     {
 1717              		.loc 1 506 8 view .LVU459
 1718 0018 012B     		cmp	r3, #1
 1719 001a 05D9     		bls	.L160
 510:System/shell/shell.c ****     {
 1720              		.loc 1 510 10 is_stmt 1 view .LVU460
 510:System/shell/shell.c ****     {
 1721              		.loc 1 510 13 is_stmt 0 view .LVU461
 1722 001c 072B     		cmp	r3, #7
 1723 001e 05D9     		bls	.L161
 514:System/shell/shell.c ****     {
 1724              		.loc 1 514 10 is_stmt 1 view .LVU462
 514:System/shell/shell.c ****     {
 1725              		.loc 1 514 13 is_stmt 0 view .LVU463
 1726 0020 082B     		cmp	r3, #8
 1727 0022 05D8     		bhi	.L156
 516:System/shell/shell.c ****     }
 1728              		.loc 1 516 9 is_stmt 1 view .LVU464
 516:System/shell/shell.c ****     }
 1729              		.loc 1 516 34 is_stmt 0 view .LVU465
 1730 0024 4068     		ldr	r0, [r0, #4]
 1731              	.LVL153:
 523:System/shell/shell.c **** 
 1732              		.loc 1 523 1 view .LVU466
 1733 0026 7047     		bx	lr
 1734              	.LVL154:
 1735              	.L160:
 508:System/shell/shell.c ****     }
 1736              		.loc 1 508 9 is_stmt 1 view .LVU467
 508:System/shell/shell.c ****     }
 1737              		.loc 1 508 33 is_stmt 0 view .LVU468
 1738 0028 4068     		ldr	r0, [r0, #4]
 1739              	.LVL155:
 508:System/shell/shell.c ****     }
 1740              		.loc 1 508 33 view .LVU469
 1741 002a 7047     		bx	lr
 1742              	.LVL156:
 1743              	.L161:
 512:System/shell/shell.c ****     }
 1744              		.loc 1 512 9 is_stmt 1 view .LVU470
 512:System/shell/shell.c ****     }
 1745              		.loc 1 512 33 is_stmt 0 view .LVU471
 1746 002c 4068     		ldr	r0, [r0, #4]
 1747              	.LVL157:
 512:System/shell/shell.c ****     }
 1748              		.loc 1 512 33 view .LVU472
 1749 002e 7047     		bx	lr
 1750              	.LVL158:
 1751              	.L156:
ARM GAS  C:\Users\HUAV\AppData\Local\Temp\ccBfvIcs.s 			page 68


 500:System/shell/shell.c ****     static char buffer[9];
 1752              		.loc 1 500 1 view .LVU473
 1753 0030 10B5     		push	{r4, lr}
 1754              	.LCFI30:
 1755              		.cfi_def_cfa_offset 8
 1756              		.cfi_offset 4, -8
 1757              		.cfi_offset 14, -4
 520:System/shell/shell.c ****         return buffer;
 1758              		.loc 1 520 9 is_stmt 1 view .LVU474
 1759 0032 034C     		ldr	r4, .L162
 1760 0034 2146     		mov	r1, r4
 1761 0036 4068     		ldr	r0, [r0, #4]
 1762              	.LVL159:
 520:System/shell/shell.c ****         return buffer;
 1763              		.loc 1 520 9 is_stmt 0 view .LVU475
 1764 0038 FFF7FEFF 		bl	shellToHex
 1765              	.LVL160:
 521:System/shell/shell.c ****     }
 1766              		.loc 1 521 9 is_stmt 1 view .LVU476
 521:System/shell/shell.c ****     }
 1767              		.loc 1 521 16 is_stmt 0 view .LVU477
 1768 003c 2046     		mov	r0, r4
 523:System/shell/shell.c **** 
 1769              		.loc 1 523 1 view .LVU478
 1770 003e 10BD     		pop	{r4, pc}
 1771              	.L163:
 1772              		.align	2
 1773              	.L162:
 1774 0040 00000000 		.word	.LANCHOR1
 1775              		.cfi_endproc
 1776              	.LFE17:
 1778              		.section	.text.shellToDec,"ax",%progbits
 1779              		.align	1
 1780              		.global	shellToDec
 1781              		.syntax unified
 1782              		.thumb
 1783              		.thumb_func
 1784              		.fpu fpv5-d16
 1786              	shellToDec:
 1787              	.LVL161:
 1788              	.LFB14:
 426:System/shell/shell.c ****     unsigned char i = 11;
 1789              		.loc 1 426 1 is_stmt 1 view -0
 1790              		.cfi_startproc
 1791              		@ args = 0, pretend = 0, frame = 0
 1792              		@ frame_needed = 0, uses_anonymous_args = 0
 1793              		@ link register save eliminated.
 426:System/shell/shell.c ****     unsigned char i = 11;
 1794              		.loc 1 426 1 is_stmt 0 view .LVU480
 1795 0000 30B4     		push	{r4, r5}
 1796              	.LCFI31:
 1797              		.cfi_def_cfa_offset 8
 1798              		.cfi_offset 4, -8
 1799              		.cfi_offset 5, -4
 427:System/shell/shell.c ****     int v = value;
 1800              		.loc 1 427 5 is_stmt 1 view .LVU481
 1801              	.LVL162:
ARM GAS  C:\Users\HUAV\AppData\Local\Temp\ccBfvIcs.s 			page 69


 428:System/shell/shell.c ****     if (value < 0)
 1802              		.loc 1 428 5 view .LVU482
 429:System/shell/shell.c ****     {
 1803              		.loc 1 429 5 view .LVU483
 429:System/shell/shell.c ****     {
 1804              		.loc 1 429 8 is_stmt 0 view .LVU484
 1805 0002 051E     		subs	r5, r0, #0
 1806 0004 15DB     		blt	.L172
 428:System/shell/shell.c ****     if (value < 0)
 1807              		.loc 1 428 9 view .LVU485
 1808 0006 2A46     		mov	r2, r5
 1809              	.LVL163:
 1810              	.L165:
 433:System/shell/shell.c ****     while (v)
 1811              		.loc 1 433 5 is_stmt 1 view .LVU486
 433:System/shell/shell.c ****     while (v)
 1812              		.loc 1 433 16 is_stmt 0 view .LVU487
 1813 0008 0023     		movs	r3, #0
 1814 000a CB72     		strb	r3, [r1, #11]
 434:System/shell/shell.c ****     {
 1815              		.loc 1 434 5 is_stmt 1 view .LVU488
 427:System/shell/shell.c ****     int v = value;
 1816              		.loc 1 427 19 is_stmt 0 view .LVU489
 1817 000c 0B20     		movs	r0, #11
 1818              	.LVL164:
 1819              	.L166:
 434:System/shell/shell.c ****     {
 1820              		.loc 1 434 11 is_stmt 1 view .LVU490
 1821 000e 92B1     		cbz	r2, .L173
 436:System/shell/shell.c ****         v /= 10;
 1822              		.loc 1 436 9 view .LVU491
 436:System/shell/shell.c ****         v /= 10;
 1823              		.loc 1 436 25 is_stmt 0 view .LVU492
 1824 0010 114C     		ldr	r4, .L175
 1825 0012 84FB0234 		smull	r3, r4, r4, r2
 1826 0016 D317     		asrs	r3, r2, #31
 1827 0018 C3EBA403 		rsb	r3, r3, r4, asr #2
 1828 001c 1C46     		mov	r4, r3
 1829 001e 03EB8303 		add	r3, r3, r3, lsl #2
 1830 0022 A2EB4303 		sub	r3, r2, r3, lsl #1
 436:System/shell/shell.c ****         v /= 10;
 1831              		.loc 1 436 21 view .LVU493
 1832 0026 0138     		subs	r0, r0, #1
 1833              	.LVL165:
 436:System/shell/shell.c ****         v /= 10;
 1834              		.loc 1 436 21 view .LVU494
 1835 0028 C0B2     		uxtb	r0, r0
 1836              	.LVL166:
 436:System/shell/shell.c ****         v /= 10;
 1837              		.loc 1 436 30 view .LVU495
 1838 002a 3033     		adds	r3, r3, #48
 436:System/shell/shell.c ****         v /= 10;
 1839              		.loc 1 436 21 view .LVU496
 1840 002c 0B54     		strb	r3, [r1, r0]
 437:System/shell/shell.c ****     }
 1841              		.loc 1 437 9 is_stmt 1 view .LVU497
 437:System/shell/shell.c ****     }
ARM GAS  C:\Users\HUAV\AppData\Local\Temp\ccBfvIcs.s 			page 70


 1842              		.loc 1 437 11 is_stmt 0 view .LVU498
 1843 002e 2246     		mov	r2, r4
 1844              	.LVL167:
 437:System/shell/shell.c ****     }
 1845              		.loc 1 437 11 view .LVU499
 1846 0030 EDE7     		b	.L166
 1847              	.LVL168:
 1848              	.L172:
 431:System/shell/shell.c ****     }
 1849              		.loc 1 431 9 is_stmt 1 view .LVU500
 431:System/shell/shell.c ****     }
 1850              		.loc 1 431 11 is_stmt 0 view .LVU501
 1851 0032 6A42     		rsbs	r2, r5, #0
 1852              	.LVL169:
 431:System/shell/shell.c ****     }
 1853              		.loc 1 431 11 view .LVU502
 1854 0034 E8E7     		b	.L165
 1855              	.LVL170:
 1856              	.L173:
 439:System/shell/shell.c ****     {
 1857              		.loc 1 439 5 is_stmt 1 view .LVU503
 439:System/shell/shell.c ****     {
 1858              		.loc 1 439 8 is_stmt 0 view .LVU504
 1859 0036 002D     		cmp	r5, #0
 1860 0038 09DB     		blt	.L174
 1861              	.L168:
 443:System/shell/shell.c ****     {
 1862              		.loc 1 443 5 is_stmt 1 view .LVU505
 443:System/shell/shell.c ****     {
 1863              		.loc 1 443 8 is_stmt 0 view .LVU506
 1864 003a 1DB9     		cbnz	r5, .L169
 445:System/shell/shell.c ****     }
 1865              		.loc 1 445 9 is_stmt 1 view .LVU507
 445:System/shell/shell.c ****     }
 1866              		.loc 1 445 21 is_stmt 0 view .LVU508
 1867 003c 0138     		subs	r0, r0, #1
 1868              	.LVL171:
 445:System/shell/shell.c ****     }
 1869              		.loc 1 445 21 view .LVU509
 1870 003e C0B2     		uxtb	r0, r0
 1871              	.LVL172:
 445:System/shell/shell.c ****     }
 1872              		.loc 1 445 21 view .LVU510
 1873 0040 3023     		movs	r3, #48
 1874 0042 0B54     		strb	r3, [r1, r0]
 1875              	.L169:
 447:System/shell/shell.c **** }
 1876              		.loc 1 447 5 is_stmt 1 view .LVU511
 447:System/shell/shell.c **** }
 1877              		.loc 1 447 15 is_stmt 0 view .LVU512
 1878 0044 C0F10B00 		rsb	r0, r0, #11
 1879              	.LVL173:
 448:System/shell/shell.c **** 
 1880              		.loc 1 448 1 view .LVU513
 1881 0048 40B2     		sxtb	r0, r0
 1882 004a 30BC     		pop	{r4, r5}
 1883              	.LCFI32:
ARM GAS  C:\Users\HUAV\AppData\Local\Temp\ccBfvIcs.s 			page 71


 1884              		.cfi_remember_state
 1885              		.cfi_restore 5
 1886              		.cfi_restore 4
 1887              		.cfi_def_cfa_offset 0
 1888              	.LVL174:
 448:System/shell/shell.c **** 
 1889              		.loc 1 448 1 view .LVU514
 1890 004c 7047     		bx	lr
 1891              	.LVL175:
 1892              	.L174:
 1893              	.LCFI33:
 1894              		.cfi_restore_state
 441:System/shell/shell.c ****     }
 1895              		.loc 1 441 9 is_stmt 1 view .LVU515
 441:System/shell/shell.c ****     }
 1896              		.loc 1 441 21 is_stmt 0 view .LVU516
 1897 004e 0138     		subs	r0, r0, #1
 1898              	.LVL176:
 441:System/shell/shell.c ****     }
 1899              		.loc 1 441 21 view .LVU517
 1900 0050 C0B2     		uxtb	r0, r0
 1901              	.LVL177:
 441:System/shell/shell.c ****     }
 1902              		.loc 1 441 21 view .LVU518
 1903 0052 2D23     		movs	r3, #45
 1904 0054 0B54     		strb	r3, [r1, r0]
 1905 0056 F0E7     		b	.L168
 1906              	.L176:
 1907              		.align	2
 1908              	.L175:
 1909 0058 67666666 		.word	1717986919
 1910              		.cfi_endproc
 1911              	.LFE14:
 1913              		.section	.rodata.shellWriteReturnValue.str1.4,"aMS",%progbits,1
 1914              		.align	2
 1915              	.LC9:
 1916 0000 52657475 		.ascii	"Return: \000"
 1916      726E3A20 
 1916      00
 1917 0009 000000   		.align	2
 1918              	.LC10:
 1919 000c 2C203078 		.ascii	", 0x\000"
 1919      00
 1920 0011 000000   		.align	2
 1921              	.LC8:
 1922 0014 30303030 		.ascii	"00000000000\000"
 1922      30303030 
 1922      30303000 
 1923              		.section	.text.shellWriteReturnValue,"ax",%progbits
 1924              		.align	1
 1925              		.syntax unified
 1926              		.thumb
 1927              		.thumb_func
 1928              		.fpu fpv5-d16
 1930              	shellWriteReturnValue:
 1931              	.LVL178:
 1932              	.LFB39:
ARM GAS  C:\Users\HUAV\AppData\Local\Temp\ccBfvIcs.s 			page 72


1190:System/shell/shell.c ****     char buffer[12] = "00000000000";
 1933              		.loc 1 1190 1 is_stmt 1 view -0
 1934              		.cfi_startproc
 1935              		@ args = 0, pretend = 0, frame = 16
 1936              		@ frame_needed = 0, uses_anonymous_args = 0
1190:System/shell/shell.c ****     char buffer[12] = "00000000000";
 1937              		.loc 1 1190 1 is_stmt 0 view .LVU520
 1938 0000 70B5     		push	{r4, r5, r6, lr}
 1939              	.LCFI34:
 1940              		.cfi_def_cfa_offset 16
 1941              		.cfi_offset 4, -16
 1942              		.cfi_offset 5, -12
 1943              		.cfi_offset 6, -8
 1944              		.cfi_offset 14, -4
 1945 0002 84B0     		sub	sp, sp, #16
 1946              	.LCFI35:
 1947              		.cfi_def_cfa_offset 32
 1948 0004 0546     		mov	r5, r0
 1949 0006 0E46     		mov	r6, r1
1191:System/shell/shell.c ****     shellWriteString(shell, "Return: ");
 1950              		.loc 1 1191 5 is_stmt 1 view .LVU521
1191:System/shell/shell.c ****     shellWriteString(shell, "Return: ");
 1951              		.loc 1 1191 10 is_stmt 0 view .LVU522
 1952 0008 184B     		ldr	r3, .L181
 1953 000a 01AC     		add	r4, sp, #4
 1954 000c 93E80700 		ldm	r3, {r0, r1, r2}
 1955              	.LVL179:
1191:System/shell/shell.c ****     shellWriteString(shell, "Return: ");
 1956              		.loc 1 1191 10 view .LVU523
 1957 0010 84E80700 		stm	r4, {r0, r1, r2}
1192:System/shell/shell.c ****     shellWriteString(shell, &buffer[11 - shellToDec(value, buffer)]);
 1958              		.loc 1 1192 5 is_stmt 1 view .LVU524
 1959 0014 1649     		ldr	r1, .L181+4
 1960 0016 2846     		mov	r0, r5
 1961 0018 FFF7FEFF 		bl	shellWriteString
 1962              	.LVL180:
1193:System/shell/shell.c ****     shellWriteString(shell, ", 0x");
 1963              		.loc 1 1193 5 view .LVU525
1193:System/shell/shell.c ****     shellWriteString(shell, ", 0x");
 1964              		.loc 1 1193 42 is_stmt 0 view .LVU526
 1965 001c 2146     		mov	r1, r4
 1966 001e 3046     		mov	r0, r6
 1967 0020 FFF7FEFF 		bl	shellToDec
 1968              	.LVL181:
1193:System/shell/shell.c ****     shellWriteString(shell, ", 0x");
 1969              		.loc 1 1193 40 view .LVU527
 1970 0024 C0F10B01 		rsb	r1, r0, #11
1193:System/shell/shell.c ****     shellWriteString(shell, ", 0x");
 1971              		.loc 1 1193 5 view .LVU528
 1972 0028 2144     		add	r1, r1, r4
 1973 002a 2846     		mov	r0, r5
 1974 002c FFF7FEFF 		bl	shellWriteString
 1975              	.LVL182:
1194:System/shell/shell.c ****     for (short i = 0; i < 11; i++)
 1976              		.loc 1 1194 5 is_stmt 1 view .LVU529
 1977 0030 1049     		ldr	r1, .L181+8
 1978 0032 2846     		mov	r0, r5
ARM GAS  C:\Users\HUAV\AppData\Local\Temp\ccBfvIcs.s 			page 73


 1979 0034 FFF7FEFF 		bl	shellWriteString
 1980              	.LVL183:
1195:System/shell/shell.c ****     {
 1981              		.loc 1 1195 5 view .LVU530
 1982              	.LBB9:
1195:System/shell/shell.c ****     {
 1983              		.loc 1 1195 10 view .LVU531
1195:System/shell/shell.c ****     {
 1984              		.loc 1 1195 16 is_stmt 0 view .LVU532
 1985 0038 0023     		movs	r3, #0
1195:System/shell/shell.c ****     {
 1986              		.loc 1 1195 5 view .LVU533
 1987 003a 06E0     		b	.L178
 1988              	.LVL184:
 1989              	.L179:
1197:System/shell/shell.c ****     }
 1990              		.loc 1 1197 9 is_stmt 1 discriminator 3 view .LVU534
1197:System/shell/shell.c ****     }
 1991              		.loc 1 1197 19 is_stmt 0 discriminator 3 view .LVU535
 1992 003c 04AA     		add	r2, sp, #16
 1993 003e 1A44     		add	r2, r2, r3
 1994 0040 3024     		movs	r4, #48
 1995 0042 02F80C4C 		strb	r4, [r2, #-12]
1195:System/shell/shell.c ****     {
 1996              		.loc 1 1195 31 is_stmt 1 discriminator 3 view .LVU536
1195:System/shell/shell.c ****     {
 1997              		.loc 1 1195 32 is_stmt 0 discriminator 3 view .LVU537
 1998 0046 0133     		adds	r3, r3, #1
 1999              	.LVL185:
1195:System/shell/shell.c ****     {
 2000              		.loc 1 1195 32 discriminator 3 view .LVU538
 2001 0048 1BB2     		sxth	r3, r3
 2002              	.LVL186:
 2003              	.L178:
1195:System/shell/shell.c ****     {
 2004              		.loc 1 1195 23 is_stmt 1 discriminator 1 view .LVU539
1195:System/shell/shell.c ****     {
 2005              		.loc 1 1195 5 is_stmt 0 discriminator 1 view .LVU540
 2006 004a 0A2B     		cmp	r3, #10
 2007 004c F6DD     		ble	.L179
 2008              	.LBE9:
1199:System/shell/shell.c ****     shellWriteString(shell, buffer);
 2009              		.loc 1 1199 5 is_stmt 1 view .LVU541
 2010 004e 01A9     		add	r1, sp, #4
 2011 0050 3046     		mov	r0, r6
 2012 0052 FFF7FEFF 		bl	shellToHex
 2013              	.LVL187:
1200:System/shell/shell.c ****     shellWriteString(shell, "\r\n");
 2014              		.loc 1 1200 5 view .LVU542
 2015 0056 01A9     		add	r1, sp, #4
 2016 0058 2846     		mov	r0, r5
 2017 005a FFF7FEFF 		bl	shellWriteString
 2018              	.LVL188:
1201:System/shell/shell.c **** }
 2019              		.loc 1 1201 5 view .LVU543
 2020 005e 0649     		ldr	r1, .L181+12
 2021 0060 2846     		mov	r0, r5
ARM GAS  C:\Users\HUAV\AppData\Local\Temp\ccBfvIcs.s 			page 74


 2022 0062 FFF7FEFF 		bl	shellWriteString
 2023              	.LVL189:
1202:System/shell/shell.c **** 
 2024              		.loc 1 1202 1 is_stmt 0 view .LVU544
 2025 0066 04B0     		add	sp, sp, #16
 2026              	.LCFI36:
 2027              		.cfi_def_cfa_offset 16
 2028              		@ sp needed
 2029 0068 70BD     		pop	{r4, r5, r6, pc}
 2030              	.LVL190:
 2031              	.L182:
1202:System/shell/shell.c **** 
 2032              		.loc 1 1202 1 view .LVU545
 2033 006a 00BF     		.align	2
 2034              	.L181:
 2035 006c 14000000 		.word	.LC8
 2036 0070 00000000 		.word	.LC9
 2037 0074 0C000000 		.word	.LC10
 2038 0078 04000000 		.word	.LC3
 2039              		.cfi_endproc
 2040              	.LFE39:
 2042              		.section	.rodata.shellListItem.str1.4,"aMS",%progbits,1
 2043              		.align	2
 2044              	.LC11:
 2045 0000 434D4420 		.ascii	"CMD \015\012\000"
 2045      0D0A00
 2046 0007 00       		.align	2
 2047              	.LC12:
 2048 0008 56415200 		.ascii	"VAR\000"
 2049              		.align	2
 2050              	.LC13:
 2051 000c 55534552 		.ascii	"USER\000"
 2051      00
 2052 0011 000000   		.align	2
 2053              	.LC14:
 2054 0014 4B455900 		.ascii	"KEY\000"
 2055              		.align	2
 2056              	.LC15:
 2057 0018 4E4F4E45 		.ascii	"NONE\000"
 2057      00
 2058              		.section	.text.shellListItem,"ax",%progbits
 2059              		.align	1
 2060              		.global	shellListItem
 2061              		.syntax unified
 2062              		.thumb
 2063              		.thumb_func
 2064              		.fpu fpv5-d16
 2066              	shellListItem:
 2067              	.LVL191:
 2068              	.LFB19:
 558:System/shell/shell.c ****     short spaceLength;
 2069              		.loc 1 558 1 is_stmt 1 view -0
 2070              		.cfi_startproc
 2071              		@ args = 0, pretend = 0, frame = 0
 2072              		@ frame_needed = 0, uses_anonymous_args = 0
 558:System/shell/shell.c ****     short spaceLength;
 2073              		.loc 1 558 1 is_stmt 0 view .LVU547
ARM GAS  C:\Users\HUAV\AppData\Local\Temp\ccBfvIcs.s 			page 75


 2074 0000 70B5     		push	{r4, r5, r6, lr}
 2075              	.LCFI37:
 2076              		.cfi_def_cfa_offset 16
 2077              		.cfi_offset 4, -16
 2078              		.cfi_offset 5, -12
 2079              		.cfi_offset 6, -8
 2080              		.cfi_offset 14, -4
 2081 0002 0546     		mov	r5, r0
 2082 0004 0E46     		mov	r6, r1
 559:System/shell/shell.c **** 
 2083              		.loc 1 559 5 is_stmt 1 view .LVU548
 561:System/shell/shell.c ****     spaceLength = (spaceLength > 0) ? spaceLength : 4;
 2084              		.loc 1 561 5 view .LVU549
 561:System/shell/shell.c ****     spaceLength = (spaceLength > 0) ? spaceLength : 4;
 2085              		.loc 1 561 24 is_stmt 0 view .LVU550
 2086 0006 0846     		mov	r0, r1
 2087              	.LVL192:
 561:System/shell/shell.c ****     spaceLength = (spaceLength > 0) ? spaceLength : 4;
 2088              		.loc 1 561 24 view .LVU551
 2089 0008 FFF7FEFF 		bl	shellGetCommandName
 2090              	.LVL193:
 561:System/shell/shell.c ****     spaceLength = (spaceLength > 0) ? spaceLength : 4;
 2091              		.loc 1 561 24 view .LVU552
 2092 000c 0146     		mov	r1, r0
 2093 000e 2846     		mov	r0, r5
 2094 0010 FFF7FEFF 		bl	shellWriteString
 2095              	.LVL194:
 561:System/shell/shell.c ****     spaceLength = (spaceLength > 0) ? spaceLength : 4;
 2096              		.loc 1 561 22 view .LVU553
 2097 0014 C0F11604 		rsb	r4, r0, #22
 561:System/shell/shell.c ****     spaceLength = (spaceLength > 0) ? spaceLength : 4;
 2098              		.loc 1 561 17 view .LVU554
 2099 0018 24B2     		sxth	r4, r4
 2100              	.LVL195:
 562:System/shell/shell.c ****     do
 2101              		.loc 1 562 5 is_stmt 1 view .LVU555
 562:System/shell/shell.c ****     do
 2102              		.loc 1 562 17 is_stmt 0 view .LVU556
 2103 001a 002C     		cmp	r4, #0
 2104 001c 17DD     		ble	.L193
 2105              	.LVL196:
 2106              	.L185:
 563:System/shell/shell.c ****     {
 2107              		.loc 1 563 5 is_stmt 1 discriminator 1 view .LVU557
 565:System/shell/shell.c ****     } while (--spaceLength);
 2108              		.loc 1 565 9 discriminator 1 view .LVU558
 2109 001e 2D21     		movs	r1, #45
 2110 0020 2846     		mov	r0, r5
 2111 0022 FFF7FEFF 		bl	shellWriteByte
 2112              	.LVL197:
 566:System/shell/shell.c ****     if (item->attr.attrs.type <= SHELL_TYPE_CMD_FUNC)
 2113              		.loc 1 566 13 discriminator 1 view .LVU559
 566:System/shell/shell.c ****     if (item->attr.attrs.type <= SHELL_TYPE_CMD_FUNC)
 2114              		.loc 1 566 14 is_stmt 0 discriminator 1 view .LVU560
 2115 0026 013C     		subs	r4, r4, #1
 2116              	.LVL198:
 566:System/shell/shell.c ****     if (item->attr.attrs.type <= SHELL_TYPE_CMD_FUNC)
ARM GAS  C:\Users\HUAV\AppData\Local\Temp\ccBfvIcs.s 			page 76


 2117              		.loc 1 566 5 discriminator 1 view .LVU561
 2118 0028 24B2     		sxth	r4, r4
 2119              	.LVL199:
 566:System/shell/shell.c ****     if (item->attr.attrs.type <= SHELL_TYPE_CMD_FUNC)
 2120              		.loc 1 566 5 discriminator 1 view .LVU562
 2121 002a 002C     		cmp	r4, #0
 2122 002c F7D1     		bne	.L185
 567:System/shell/shell.c ****     {
 2123              		.loc 1 567 5 is_stmt 1 view .LVU563
 567:System/shell/shell.c ****     {
 2124              		.loc 1 567 25 is_stmt 0 view .LVU564
 2125 002e 7378     		ldrb	r3, [r6, #1]	@ zero_extendqisi2
 2126 0030 03F00F03 		and	r3, r3, #15
 567:System/shell/shell.c ****     {
 2127              		.loc 1 567 8 view .LVU565
 2128 0034 012B     		cmp	r3, #1
 2129 0036 0CD9     		bls	.L194
 571:System/shell/shell.c ****     {
 2130              		.loc 1 571 10 is_stmt 1 view .LVU566
 571:System/shell/shell.c ****     {
 2131              		.loc 1 571 13 is_stmt 0 view .LVU567
 2132 0038 072B     		cmp	r3, #7
 2133 003a 0FD9     		bls	.L195
 575:System/shell/shell.c ****     {
 2134              		.loc 1 575 10 is_stmt 1 view .LVU568
 575:System/shell/shell.c ****     {
 2135              		.loc 1 575 13 is_stmt 0 view .LVU569
 2136 003c 082B     		cmp	r3, #8
 2137 003e 12D9     		bls	.L196
 579:System/shell/shell.c ****     {
 2138              		.loc 1 579 10 is_stmt 1 view .LVU570
 579:System/shell/shell.c ****     {
 2139              		.loc 1 579 13 is_stmt 0 view .LVU571
 2140 0040 092B     		cmp	r3, #9
 2141 0042 15D8     		bhi	.L190
 581:System/shell/shell.c ****     }
 2142              		.loc 1 581 9 is_stmt 1 view .LVU572
 2143 0044 0D49     		ldr	r1, .L197
 2144 0046 2846     		mov	r0, r5
 2145 0048 FFF7FEFF 		bl	shellWriteString
 2146              	.LVL200:
 2147 004c 05E0     		b	.L183
 2148              	.L193:
 562:System/shell/shell.c ****     do
 2149              		.loc 1 562 17 is_stmt 0 view .LVU573
 2150 004e 0424     		movs	r4, #4
 2151              	.LVL201:
 562:System/shell/shell.c ****     do
 2152              		.loc 1 562 17 view .LVU574
 2153 0050 E5E7     		b	.L185
 2154              	.LVL202:
 2155              	.L194:
 569:System/shell/shell.c ****     }
 2156              		.loc 1 569 9 is_stmt 1 view .LVU575
 2157 0052 0B49     		ldr	r1, .L197+4
 2158 0054 2846     		mov	r0, r5
 2159 0056 FFF7FEFF 		bl	shellWriteString
ARM GAS  C:\Users\HUAV\AppData\Local\Temp\ccBfvIcs.s 			page 77


 2160              	.LVL203:
 2161              	.L183:
 597:System/shell/shell.c **** 
 2162              		.loc 1 597 1 is_stmt 0 view .LVU576
 2163 005a 70BD     		pop	{r4, r5, r6, pc}
 2164              	.LVL204:
 2165              	.L195:
 573:System/shell/shell.c ****     }
 2166              		.loc 1 573 9 is_stmt 1 view .LVU577
 2167 005c 0949     		ldr	r1, .L197+8
 2168 005e 2846     		mov	r0, r5
 2169 0060 FFF7FEFF 		bl	shellWriteString
 2170              	.LVL205:
 2171 0064 F9E7     		b	.L183
 2172              	.L196:
 577:System/shell/shell.c ****     }
 2173              		.loc 1 577 9 view .LVU578
 2174 0066 0849     		ldr	r1, .L197+12
 2175 0068 2846     		mov	r0, r5
 2176 006a FFF7FEFF 		bl	shellWriteString
 2177              	.LVL206:
 2178 006e F4E7     		b	.L183
 2179              	.L190:
 585:System/shell/shell.c ****     }
 2180              		.loc 1 585 9 view .LVU579
 2181 0070 0649     		ldr	r1, .L197+16
 2182 0072 2846     		mov	r0, r5
 2183 0074 FFF7FEFF 		bl	shellWriteString
 2184              	.LVL207:
 597:System/shell/shell.c **** 
 2185              		.loc 1 597 1 is_stmt 0 view .LVU580
 2186 0078 EFE7     		b	.L183
 2187              	.L198:
 2188 007a 00BF     		.align	2
 2189              	.L197:
 2190 007c 14000000 		.word	.LC14
 2191 0080 00000000 		.word	.LC11
 2192 0084 08000000 		.word	.LC12
 2193 0088 0C000000 		.word	.LC13
 2194 008c 18000000 		.word	.LC15
 2195              		.cfi_endproc
 2196              	.LFE19:
 2198              		.section	.rodata.shellListCommand.str1.4,"aMS",%progbits,1
 2199              		.align	2
 2200              	.LC16:
 2201 0000 0D0A436F 		.ascii	"\015\012Command List:\015\012\000"
 2201      6D6D616E 
 2201      64204C69 
 2201      73743A0D 
 2201      0A00
 2202              		.section	.text.shellListCommand,"ax",%progbits
 2203              		.align	1
 2204              		.global	shellListCommand
 2205              		.syntax unified
 2206              		.thumb
 2207              		.thumb_func
 2208              		.fpu fpv5-d16
ARM GAS  C:\Users\HUAV\AppData\Local\Temp\ccBfvIcs.s 			page 78


 2210              	shellListCommand:
 2211              	.LVL208:
 2212              	.LFB20:
 605:System/shell/shell.c ****     ShellCommand *base = (ShellCommand *)shell->commandList.base;
 2213              		.loc 1 605 1 is_stmt 1 view -0
 2214              		.cfi_startproc
 2215              		@ args = 0, pretend = 0, frame = 0
 2216              		@ frame_needed = 0, uses_anonymous_args = 0
 605:System/shell/shell.c ****     ShellCommand *base = (ShellCommand *)shell->commandList.base;
 2217              		.loc 1 605 1 is_stmt 0 view .LVU582
 2218 0000 F8B5     		push	{r3, r4, r5, r6, r7, lr}
 2219              	.LCFI38:
 2220              		.cfi_def_cfa_offset 24
 2221              		.cfi_offset 3, -24
 2222              		.cfi_offset 4, -20
 2223              		.cfi_offset 5, -16
 2224              		.cfi_offset 6, -12
 2225              		.cfi_offset 7, -8
 2226              		.cfi_offset 14, -4
 2227 0002 0646     		mov	r6, r0
 606:System/shell/shell.c ****     shellWriteString(shell, shellText[SHELL_TEXT_CMD_LIST]);
 2228              		.loc 1 606 5 is_stmt 1 view .LVU583
 606:System/shell/shell.c ****     shellWriteString(shell, shellText[SHELL_TEXT_CMD_LIST]);
 2229              		.loc 1 606 19 is_stmt 0 view .LVU584
 2230 0004 876D     		ldr	r7, [r0, #88]
 2231              	.LVL209:
 607:System/shell/shell.c ****     for (short i = 0; i < shell->commandList.count; i++)
 2232              		.loc 1 607 5 is_stmt 1 view .LVU585
 2233 0006 0F49     		ldr	r1, .L206
 2234 0008 FFF7FEFF 		bl	shellWriteString
 2235              	.LVL210:
 608:System/shell/shell.c ****     {
 2236              		.loc 1 608 5 view .LVU586
 2237              	.LBB10:
 608:System/shell/shell.c ****     {
 2238              		.loc 1 608 10 view .LVU587
 608:System/shell/shell.c ****     {
 2239              		.loc 1 608 16 is_stmt 0 view .LVU588
 2240 000c 0024     		movs	r4, #0
 608:System/shell/shell.c ****     {
 2241              		.loc 1 608 5 view .LVU589
 2242 000e 05E0     		b	.L200
 2243              	.LVL211:
 2244              	.L205:
 612:System/shell/shell.c ****         }
 2245              		.loc 1 612 13 is_stmt 1 view .LVU590
 2246 0010 2946     		mov	r1, r5
 2247 0012 3046     		mov	r0, r6
 2248 0014 FFF7FEFF 		bl	shellListItem
 2249              	.LVL212:
 2250              	.L201:
 608:System/shell/shell.c ****     {
 2251              		.loc 1 608 53 discriminator 2 view .LVU591
 608:System/shell/shell.c ****     {
 2252              		.loc 1 608 54 is_stmt 0 discriminator 2 view .LVU592
 2253 0018 0134     		adds	r4, r4, #1
 2254              	.LVL213:
ARM GAS  C:\Users\HUAV\AppData\Local\Temp\ccBfvIcs.s 			page 79


 608:System/shell/shell.c ****     {
 2255              		.loc 1 608 54 discriminator 2 view .LVU593
 2256 001a 24B2     		sxth	r4, r4
 2257              	.LVL214:
 2258              	.L200:
 608:System/shell/shell.c ****     {
 2259              		.loc 1 608 23 is_stmt 1 discriminator 1 view .LVU594
 608:System/shell/shell.c ****     {
 2260              		.loc 1 608 45 is_stmt 0 discriminator 1 view .LVU595
 2261 001c B6F85C30 		ldrh	r3, [r6, #92]
 608:System/shell/shell.c ****     {
 2262              		.loc 1 608 5 discriminator 1 view .LVU596
 2263 0020 9C42     		cmp	r4, r3
 2264 0022 0DDA     		bge	.L204
 610:System/shell/shell.c ****         {
 2265              		.loc 1 610 9 is_stmt 1 view .LVU597
 610:System/shell/shell.c ****         {
 2266              		.loc 1 610 17 is_stmt 0 view .LVU598
 2267 0024 07EB0415 		add	r5, r7, r4, lsl #4
 610:System/shell/shell.c ****         {
 2268              		.loc 1 610 31 view .LVU599
 2269 0028 6B78     		ldrb	r3, [r5, #1]	@ zero_extendqisi2
 2270 002a 03F00F03 		and	r3, r3, #15
 610:System/shell/shell.c ****         {
 2271              		.loc 1 610 12 view .LVU600
 2272 002e 012B     		cmp	r3, #1
 2273 0030 F2D8     		bhi	.L201
 610:System/shell/shell.c ****         {
 2274              		.loc 1 610 63 discriminator 1 view .LVU601
 2275 0032 2946     		mov	r1, r5
 2276 0034 3046     		mov	r0, r6
 2277 0036 FFF7FEFF 		bl	shellCheckPermission
 2278              	.LVL215:
 610:System/shell/shell.c ****         {
 2279              		.loc 1 610 60 discriminator 1 view .LVU602
 2280 003a 0028     		cmp	r0, #0
 2281 003c ECD1     		bne	.L201
 2282 003e E7E7     		b	.L205
 2283              	.L204:
 610:System/shell/shell.c ****         {
 2284              		.loc 1 610 60 discriminator 1 view .LVU603
 2285              	.LBE10:
 615:System/shell/shell.c **** 
 2286              		.loc 1 615 1 view .LVU604
 2287 0040 F8BD     		pop	{r3, r4, r5, r6, r7, pc}
 2288              	.LVL216:
 2289              	.L207:
 615:System/shell/shell.c **** 
 2290              		.loc 1 615 1 view .LVU605
 2291 0042 00BF     		.align	2
 2292              	.L206:
 2293 0044 00000000 		.word	.LC16
 2294              		.cfi_endproc
 2295              	.LFE20:
 2297              		.section	.text.shellCmds,"ax",%progbits
 2298              		.align	1
 2299              		.global	shellCmds
ARM GAS  C:\Users\HUAV\AppData\Local\Temp\ccBfvIcs.s 			page 80


 2300              		.syntax unified
 2301              		.thumb
 2302              		.thumb_func
 2303              		.fpu fpv5-d16
 2305              	shellCmds:
 2306              	.LFB56:
1710:System/shell/shell.c ****     Shell *shell = shellGetCurrent();
 2307              		.loc 1 1710 1 is_stmt 1 view -0
 2308              		.cfi_startproc
 2309              		@ args = 0, pretend = 0, frame = 0
 2310              		@ frame_needed = 0, uses_anonymous_args = 0
 2311 0000 08B5     		push	{r3, lr}
 2312              	.LCFI39:
 2313              		.cfi_def_cfa_offset 8
 2314              		.cfi_offset 3, -8
 2315              		.cfi_offset 14, -4
1711:System/shell/shell.c ****     if (shell)
 2316              		.loc 1 1711 5 view .LVU607
1711:System/shell/shell.c ****     if (shell)
 2317              		.loc 1 1711 20 is_stmt 0 view .LVU608
 2318 0002 FFF7FEFF 		bl	shellGetCurrent
 2319              	.LVL217:
1712:System/shell/shell.c ****     {
 2320              		.loc 1 1712 5 is_stmt 1 view .LVU609
1712:System/shell/shell.c ****     {
 2321              		.loc 1 1712 8 is_stmt 0 view .LVU610
 2322 0006 08B1     		cbz	r0, .L208
1714:System/shell/shell.c ****     }
 2323              		.loc 1 1714 9 is_stmt 1 view .LVU611
 2324 0008 FFF7FEFF 		bl	shellListCommand
 2325              	.LVL218:
 2326              	.L208:
1716:System/shell/shell.c **** SHELL_EXPORT_CMD(
 2327              		.loc 1 1716 1 is_stmt 0 view .LVU612
 2328 000c 08BD     		pop	{r3, pc}
 2329              		.cfi_endproc
 2330              	.LFE56:
 2332              		.section	.rodata.shellListVar.str1.4,"aMS",%progbits,1
 2333              		.align	2
 2334              	.LC17:
 2335 0000 0D0A5661 		.ascii	"\015\012Var List:\015\012\000"
 2335      72204C69 
 2335      73743A0D 
 2335      0A00
 2336              		.section	.text.shellListVar,"ax",%progbits
 2337              		.align	1
 2338              		.global	shellListVar
 2339              		.syntax unified
 2340              		.thumb
 2341              		.thumb_func
 2342              		.fpu fpv5-d16
 2344              	shellListVar:
 2345              	.LVL219:
 2346              	.LFB21:
 623:System/shell/shell.c ****     ShellCommand *base = (ShellCommand *)shell->commandList.base;
 2347              		.loc 1 623 1 is_stmt 1 view -0
 2348              		.cfi_startproc
ARM GAS  C:\Users\HUAV\AppData\Local\Temp\ccBfvIcs.s 			page 81


 2349              		@ args = 0, pretend = 0, frame = 0
 2350              		@ frame_needed = 0, uses_anonymous_args = 0
 623:System/shell/shell.c ****     ShellCommand *base = (ShellCommand *)shell->commandList.base;
 2351              		.loc 1 623 1 is_stmt 0 view .LVU614
 2352 0000 F8B5     		push	{r3, r4, r5, r6, r7, lr}
 2353              	.LCFI40:
 2354              		.cfi_def_cfa_offset 24
 2355              		.cfi_offset 3, -24
 2356              		.cfi_offset 4, -20
 2357              		.cfi_offset 5, -16
 2358              		.cfi_offset 6, -12
 2359              		.cfi_offset 7, -8
 2360              		.cfi_offset 14, -4
 2361 0002 0646     		mov	r6, r0
 624:System/shell/shell.c ****     shellWriteString(shell, shellText[SHELL_TEXT_VAR_LIST]);
 2362              		.loc 1 624 5 is_stmt 1 view .LVU615
 624:System/shell/shell.c ****     shellWriteString(shell, shellText[SHELL_TEXT_VAR_LIST]);
 2363              		.loc 1 624 19 is_stmt 0 view .LVU616
 2364 0004 876D     		ldr	r7, [r0, #88]
 2365              	.LVL220:
 625:System/shell/shell.c ****     for (short i = 0; i < shell->commandList.count; i++)
 2366              		.loc 1 625 5 is_stmt 1 view .LVU617
 2367 0006 1049     		ldr	r1, .L218
 2368 0008 FFF7FEFF 		bl	shellWriteString
 2369              	.LVL221:
 626:System/shell/shell.c ****     {
 2370              		.loc 1 626 5 view .LVU618
 2371              	.LBB11:
 626:System/shell/shell.c ****     {
 2372              		.loc 1 626 10 view .LVU619
 626:System/shell/shell.c ****     {
 2373              		.loc 1 626 16 is_stmt 0 view .LVU620
 2374 000c 0024     		movs	r4, #0
 626:System/shell/shell.c ****     {
 2375              		.loc 1 626 5 view .LVU621
 2376 000e 05E0     		b	.L212
 2377              	.LVL222:
 2378              	.L217:
 630:System/shell/shell.c ****         }
 2379              		.loc 1 630 13 is_stmt 1 view .LVU622
 2380 0010 2946     		mov	r1, r5
 2381 0012 3046     		mov	r0, r6
 2382 0014 FFF7FEFF 		bl	shellListItem
 2383              	.LVL223:
 2384              	.L213:
 626:System/shell/shell.c ****     {
 2385              		.loc 1 626 53 discriminator 2 view .LVU623
 626:System/shell/shell.c ****     {
 2386              		.loc 1 626 54 is_stmt 0 discriminator 2 view .LVU624
 2387 0018 0134     		adds	r4, r4, #1
 2388              	.LVL224:
 626:System/shell/shell.c ****     {
 2389              		.loc 1 626 54 discriminator 2 view .LVU625
 2390 001a 24B2     		sxth	r4, r4
 2391              	.LVL225:
 2392              	.L212:
 626:System/shell/shell.c ****     {
ARM GAS  C:\Users\HUAV\AppData\Local\Temp\ccBfvIcs.s 			page 82


 2393              		.loc 1 626 23 is_stmt 1 discriminator 1 view .LVU626
 626:System/shell/shell.c ****     {
 2394              		.loc 1 626 45 is_stmt 0 discriminator 1 view .LVU627
 2395 001c B6F85C30 		ldrh	r3, [r6, #92]
 626:System/shell/shell.c ****     {
 2396              		.loc 1 626 5 discriminator 1 view .LVU628
 2397 0020 9C42     		cmp	r4, r3
 2398 0022 10DA     		bge	.L216
 628:System/shell/shell.c ****         {
 2399              		.loc 1 628 9 is_stmt 1 view .LVU629
 628:System/shell/shell.c ****         {
 2400              		.loc 1 628 17 is_stmt 0 view .LVU630
 2401 0024 07EB0415 		add	r5, r7, r4, lsl #4
 628:System/shell/shell.c ****         {
 2402              		.loc 1 628 31 view .LVU631
 2403 0028 6B78     		ldrb	r3, [r5, #1]	@ zero_extendqisi2
 2404 002a 03F00F03 		and	r3, r3, #15
 628:System/shell/shell.c ****         {
 2405              		.loc 1 628 59 view .LVU632
 2406 002e 0E33     		adds	r3, r3, #14
 2407 0030 03F00F03 		and	r3, r3, #15
 628:System/shell/shell.c ****         {
 2408              		.loc 1 628 12 view .LVU633
 2409 0034 052B     		cmp	r3, #5
 2410 0036 EFD8     		bhi	.L213
 628:System/shell/shell.c ****         {
 2411              		.loc 1 628 112 discriminator 1 view .LVU634
 2412 0038 2946     		mov	r1, r5
 2413 003a 3046     		mov	r0, r6
 2414 003c FFF7FEFF 		bl	shellCheckPermission
 2415              	.LVL226:
 628:System/shell/shell.c ****         {
 2416              		.loc 1 628 109 discriminator 1 view .LVU635
 2417 0040 0028     		cmp	r0, #0
 2418 0042 E9D1     		bne	.L213
 2419 0044 E4E7     		b	.L217
 2420              	.L216:
 628:System/shell/shell.c ****         {
 2421              		.loc 1 628 109 discriminator 1 view .LVU636
 2422              	.LBE11:
 633:System/shell/shell.c **** 
 2423              		.loc 1 633 1 view .LVU637
 2424 0046 F8BD     		pop	{r3, r4, r5, r6, r7, pc}
 2425              	.LVL227:
 2426              	.L219:
 633:System/shell/shell.c **** 
 2427              		.loc 1 633 1 view .LVU638
 2428              		.align	2
 2429              	.L218:
 2430 0048 00000000 		.word	.LC17
 2431              		.cfi_endproc
 2432              	.LFE21:
 2434              		.section	.text.shellVars,"ax",%progbits
 2435              		.align	1
 2436              		.global	shellVars
 2437              		.syntax unified
 2438              		.thumb
ARM GAS  C:\Users\HUAV\AppData\Local\Temp\ccBfvIcs.s 			page 83


 2439              		.thumb_func
 2440              		.fpu fpv5-d16
 2442              	shellVars:
 2443              	.LFB57:
1725:System/shell/shell.c ****     Shell *shell = shellGetCurrent();
 2444              		.loc 1 1725 1 is_stmt 1 view -0
 2445              		.cfi_startproc
 2446              		@ args = 0, pretend = 0, frame = 0
 2447              		@ frame_needed = 0, uses_anonymous_args = 0
 2448 0000 08B5     		push	{r3, lr}
 2449              	.LCFI41:
 2450              		.cfi_def_cfa_offset 8
 2451              		.cfi_offset 3, -8
 2452              		.cfi_offset 14, -4
1726:System/shell/shell.c ****     if (shell)
 2453              		.loc 1 1726 5 view .LVU640
1726:System/shell/shell.c ****     if (shell)
 2454              		.loc 1 1726 20 is_stmt 0 view .LVU641
 2455 0002 FFF7FEFF 		bl	shellGetCurrent
 2456              	.LVL228:
1727:System/shell/shell.c ****     {
 2457              		.loc 1 1727 5 is_stmt 1 view .LVU642
1727:System/shell/shell.c ****     {
 2458              		.loc 1 1727 8 is_stmt 0 view .LVU643
 2459 0006 08B1     		cbz	r0, .L220
1729:System/shell/shell.c ****     }
 2460              		.loc 1 1729 9 is_stmt 1 view .LVU644
 2461 0008 FFF7FEFF 		bl	shellListVar
 2462              	.LVL229:
 2463              	.L220:
1731:System/shell/shell.c **** SHELL_EXPORT_CMD(
 2464              		.loc 1 1731 1 is_stmt 0 view .LVU645
 2465 000c 08BD     		pop	{r3, pc}
 2466              		.cfi_endproc
 2467              	.LFE57:
 2469              		.section	.rodata.shellListUser.str1.4,"aMS",%progbits,1
 2470              		.align	2
 2471              	.LC18:
 2472 0000 0D0A5573 		.ascii	"\015\012User List:\015\012\000"
 2472      6572204C 
 2472      6973743A 
 2472      0D0A00
 2473              		.section	.text.shellListUser,"ax",%progbits
 2474              		.align	1
 2475              		.global	shellListUser
 2476              		.syntax unified
 2477              		.thumb
 2478              		.thumb_func
 2479              		.fpu fpv5-d16
 2481              	shellListUser:
 2482              	.LVL230:
 2483              	.LFB22:
 641:System/shell/shell.c ****     ShellCommand *base = (ShellCommand *)shell->commandList.base;
 2484              		.loc 1 641 1 is_stmt 1 view -0
 2485              		.cfi_startproc
 2486              		@ args = 0, pretend = 0, frame = 0
 2487              		@ frame_needed = 0, uses_anonymous_args = 0
ARM GAS  C:\Users\HUAV\AppData\Local\Temp\ccBfvIcs.s 			page 84


 641:System/shell/shell.c ****     ShellCommand *base = (ShellCommand *)shell->commandList.base;
 2488              		.loc 1 641 1 is_stmt 0 view .LVU647
 2489 0000 F8B5     		push	{r3, r4, r5, r6, r7, lr}
 2490              	.LCFI42:
 2491              		.cfi_def_cfa_offset 24
 2492              		.cfi_offset 3, -24
 2493              		.cfi_offset 4, -20
 2494              		.cfi_offset 5, -16
 2495              		.cfi_offset 6, -12
 2496              		.cfi_offset 7, -8
 2497              		.cfi_offset 14, -4
 2498 0002 0646     		mov	r6, r0
 642:System/shell/shell.c ****     shellWriteString(shell, shellText[SHELL_TEXT_USER_LIST]);
 2499              		.loc 1 642 5 is_stmt 1 view .LVU648
 642:System/shell/shell.c ****     shellWriteString(shell, shellText[SHELL_TEXT_USER_LIST]);
 2500              		.loc 1 642 19 is_stmt 0 view .LVU649
 2501 0004 876D     		ldr	r7, [r0, #88]
 2502              	.LVL231:
 643:System/shell/shell.c ****     for (short i = 0; i < shell->commandList.count; i++)
 2503              		.loc 1 643 5 is_stmt 1 view .LVU650
 2504 0006 0F49     		ldr	r1, .L230
 2505 0008 FFF7FEFF 		bl	shellWriteString
 2506              	.LVL232:
 644:System/shell/shell.c ****     {
 2507              		.loc 1 644 5 view .LVU651
 2508              	.LBB12:
 644:System/shell/shell.c ****     {
 2509              		.loc 1 644 10 view .LVU652
 644:System/shell/shell.c ****     {
 2510              		.loc 1 644 16 is_stmt 0 view .LVU653
 2511 000c 0024     		movs	r4, #0
 644:System/shell/shell.c ****     {
 2512              		.loc 1 644 5 view .LVU654
 2513 000e 05E0     		b	.L224
 2514              	.LVL233:
 2515              	.L229:
 648:System/shell/shell.c ****         }
 2516              		.loc 1 648 13 is_stmt 1 view .LVU655
 2517 0010 2946     		mov	r1, r5
 2518 0012 3046     		mov	r0, r6
 2519 0014 FFF7FEFF 		bl	shellListItem
 2520              	.LVL234:
 2521              	.L225:
 644:System/shell/shell.c ****     {
 2522              		.loc 1 644 53 discriminator 2 view .LVU656
 644:System/shell/shell.c ****     {
 2523              		.loc 1 644 54 is_stmt 0 discriminator 2 view .LVU657
 2524 0018 0134     		adds	r4, r4, #1
 2525              	.LVL235:
 644:System/shell/shell.c ****     {
 2526              		.loc 1 644 54 discriminator 2 view .LVU658
 2527 001a 24B2     		sxth	r4, r4
 2528              	.LVL236:
 2529              	.L224:
 644:System/shell/shell.c ****     {
 2530              		.loc 1 644 23 is_stmt 1 discriminator 1 view .LVU659
 644:System/shell/shell.c ****     {
ARM GAS  C:\Users\HUAV\AppData\Local\Temp\ccBfvIcs.s 			page 85


 2531              		.loc 1 644 45 is_stmt 0 discriminator 1 view .LVU660
 2532 001c B6F85C30 		ldrh	r3, [r6, #92]
 644:System/shell/shell.c ****     {
 2533              		.loc 1 644 5 discriminator 1 view .LVU661
 2534 0020 9C42     		cmp	r4, r3
 2535 0022 0DDA     		bge	.L228
 646:System/shell/shell.c ****         {
 2536              		.loc 1 646 9 is_stmt 1 view .LVU662
 646:System/shell/shell.c ****         {
 2537              		.loc 1 646 17 is_stmt 0 view .LVU663
 2538 0024 07EB0415 		add	r5, r7, r4, lsl #4
 646:System/shell/shell.c ****         {
 2539              		.loc 1 646 59 view .LVU664
 2540 0028 6B78     		ldrb	r3, [r5, #1]	@ zero_extendqisi2
 2541 002a 03F00F03 		and	r3, r3, #15
 646:System/shell/shell.c ****         {
 2542              		.loc 1 646 12 view .LVU665
 2543 002e 082B     		cmp	r3, #8
 2544 0030 F2D1     		bne	.L225
 646:System/shell/shell.c ****         {
 2545              		.loc 1 646 108 discriminator 1 view .LVU666
 2546 0032 2946     		mov	r1, r5
 2547 0034 3046     		mov	r0, r6
 2548 0036 FFF7FEFF 		bl	shellCheckPermission
 2549              	.LVL237:
 646:System/shell/shell.c ****         {
 2550              		.loc 1 646 105 discriminator 1 view .LVU667
 2551 003a 0028     		cmp	r0, #0
 2552 003c ECD1     		bne	.L225
 2553 003e E7E7     		b	.L229
 2554              	.L228:
 646:System/shell/shell.c ****         {
 2555              		.loc 1 646 105 discriminator 1 view .LVU668
 2556              	.LBE12:
 651:System/shell/shell.c **** 
 2557              		.loc 1 651 1 view .LVU669
 2558 0040 F8BD     		pop	{r3, r4, r5, r6, r7, pc}
 2559              	.LVL238:
 2560              	.L231:
 651:System/shell/shell.c **** 
 2561              		.loc 1 651 1 view .LVU670
 2562 0042 00BF     		.align	2
 2563              	.L230:
 2564 0044 00000000 		.word	.LC18
 2565              		.cfi_endproc
 2566              	.LFE22:
 2568              		.section	.text.shellUsers,"ax",%progbits
 2569              		.align	1
 2570              		.global	shellUsers
 2571              		.syntax unified
 2572              		.thumb
 2573              		.thumb_func
 2574              		.fpu fpv5-d16
 2576              	shellUsers:
 2577              	.LFB55:
1695:System/shell/shell.c ****     Shell *shell = shellGetCurrent();
 2578              		.loc 1 1695 1 is_stmt 1 view -0
ARM GAS  C:\Users\HUAV\AppData\Local\Temp\ccBfvIcs.s 			page 86


 2579              		.cfi_startproc
 2580              		@ args = 0, pretend = 0, frame = 0
 2581              		@ frame_needed = 0, uses_anonymous_args = 0
 2582 0000 08B5     		push	{r3, lr}
 2583              	.LCFI43:
 2584              		.cfi_def_cfa_offset 8
 2585              		.cfi_offset 3, -8
 2586              		.cfi_offset 14, -4
1696:System/shell/shell.c ****     if (shell)
 2587              		.loc 1 1696 5 view .LVU672
1696:System/shell/shell.c ****     if (shell)
 2588              		.loc 1 1696 20 is_stmt 0 view .LVU673
 2589 0002 FFF7FEFF 		bl	shellGetCurrent
 2590              	.LVL239:
1697:System/shell/shell.c ****     {
 2591              		.loc 1 1697 5 is_stmt 1 view .LVU674
1697:System/shell/shell.c ****     {
 2592              		.loc 1 1697 8 is_stmt 0 view .LVU675
 2593 0006 08B1     		cbz	r0, .L232
1699:System/shell/shell.c ****     }
 2594              		.loc 1 1699 9 is_stmt 1 view .LVU676
 2595 0008 FFF7FEFF 		bl	shellListUser
 2596              	.LVL240:
 2597              	.L232:
1701:System/shell/shell.c **** SHELL_EXPORT_CMD(
 2598              		.loc 1 1701 1 is_stmt 0 view .LVU677
 2599 000c 08BD     		pop	{r3, pc}
 2600              		.cfi_endproc
 2601              	.LFE55:
 2603              		.section	.rodata.shellListKey.str1.4,"aMS",%progbits,1
 2604              		.align	2
 2605              	.LC19:
 2606 0000 0D0A4B65 		.ascii	"\015\012Key List:\015\012\000"
 2606      79204C69 
 2606      73743A0D 
 2606      0A00
 2607              		.section	.text.shellListKey,"ax",%progbits
 2608              		.align	1
 2609              		.global	shellListKey
 2610              		.syntax unified
 2611              		.thumb
 2612              		.thumb_func
 2613              		.fpu fpv5-d16
 2615              	shellListKey:
 2616              	.LVL241:
 2617              	.LFB23:
 659:System/shell/shell.c ****     ShellCommand *base = (ShellCommand *)shell->commandList.base;
 2618              		.loc 1 659 1 is_stmt 1 view -0
 2619              		.cfi_startproc
 2620              		@ args = 0, pretend = 0, frame = 0
 2621              		@ frame_needed = 0, uses_anonymous_args = 0
 659:System/shell/shell.c ****     ShellCommand *base = (ShellCommand *)shell->commandList.base;
 2622              		.loc 1 659 1 is_stmt 0 view .LVU679
 2623 0000 F8B5     		push	{r3, r4, r5, r6, r7, lr}
 2624              	.LCFI44:
 2625              		.cfi_def_cfa_offset 24
 2626              		.cfi_offset 3, -24
ARM GAS  C:\Users\HUAV\AppData\Local\Temp\ccBfvIcs.s 			page 87


 2627              		.cfi_offset 4, -20
 2628              		.cfi_offset 5, -16
 2629              		.cfi_offset 6, -12
 2630              		.cfi_offset 7, -8
 2631              		.cfi_offset 14, -4
 2632 0002 0646     		mov	r6, r0
 660:System/shell/shell.c ****     shellWriteString(shell, shellText[SHELL_TEXT_KEY_LIST]);
 2633              		.loc 1 660 5 is_stmt 1 view .LVU680
 660:System/shell/shell.c ****     shellWriteString(shell, shellText[SHELL_TEXT_KEY_LIST]);
 2634              		.loc 1 660 19 is_stmt 0 view .LVU681
 2635 0004 876D     		ldr	r7, [r0, #88]
 2636              	.LVL242:
 661:System/shell/shell.c ****     for (short i = 0; i < shell->commandList.count; i++)
 2637              		.loc 1 661 5 is_stmt 1 view .LVU682
 2638 0006 0F49     		ldr	r1, .L242
 2639 0008 FFF7FEFF 		bl	shellWriteString
 2640              	.LVL243:
 662:System/shell/shell.c ****     {
 2641              		.loc 1 662 5 view .LVU683
 2642              	.LBB13:
 662:System/shell/shell.c ****     {
 2643              		.loc 1 662 10 view .LVU684
 662:System/shell/shell.c ****     {
 2644              		.loc 1 662 16 is_stmt 0 view .LVU685
 2645 000c 0024     		movs	r4, #0
 662:System/shell/shell.c ****     {
 2646              		.loc 1 662 5 view .LVU686
 2647 000e 05E0     		b	.L236
 2648              	.LVL244:
 2649              	.L241:
 666:System/shell/shell.c ****         }
 2650              		.loc 1 666 13 is_stmt 1 view .LVU687
 2651 0010 2946     		mov	r1, r5
 2652 0012 3046     		mov	r0, r6
 2653 0014 FFF7FEFF 		bl	shellListItem
 2654              	.LVL245:
 2655              	.L237:
 662:System/shell/shell.c ****     {
 2656              		.loc 1 662 53 discriminator 2 view .LVU688
 662:System/shell/shell.c ****     {
 2657              		.loc 1 662 54 is_stmt 0 discriminator 2 view .LVU689
 2658 0018 0134     		adds	r4, r4, #1
 2659              	.LVL246:
 662:System/shell/shell.c ****     {
 2660              		.loc 1 662 54 discriminator 2 view .LVU690
 2661 001a 24B2     		sxth	r4, r4
 2662              	.LVL247:
 2663              	.L236:
 662:System/shell/shell.c ****     {
 2664              		.loc 1 662 23 is_stmt 1 discriminator 1 view .LVU691
 662:System/shell/shell.c ****     {
 2665              		.loc 1 662 45 is_stmt 0 discriminator 1 view .LVU692
 2666 001c B6F85C30 		ldrh	r3, [r6, #92]
 662:System/shell/shell.c ****     {
 2667              		.loc 1 662 5 discriminator 1 view .LVU693
 2668 0020 9C42     		cmp	r4, r3
 2669 0022 0DDA     		bge	.L240
ARM GAS  C:\Users\HUAV\AppData\Local\Temp\ccBfvIcs.s 			page 88


 664:System/shell/shell.c ****         {
 2670              		.loc 1 664 9 is_stmt 1 view .LVU694
 664:System/shell/shell.c ****         {
 2671              		.loc 1 664 17 is_stmt 0 view .LVU695
 2672 0024 07EB0415 		add	r5, r7, r4, lsl #4
 664:System/shell/shell.c ****         {
 2673              		.loc 1 664 55 view .LVU696
 2674 0028 6B78     		ldrb	r3, [r5, #1]	@ zero_extendqisi2
 2675 002a 03F00F03 		and	r3, r3, #15
 664:System/shell/shell.c ****         {
 2676              		.loc 1 664 12 view .LVU697
 2677 002e 092B     		cmp	r3, #9
 2678 0030 F2D1     		bne	.L237
 664:System/shell/shell.c ****         {
 2679              		.loc 1 664 103 discriminator 1 view .LVU698
 2680 0032 2946     		mov	r1, r5
 2681 0034 3046     		mov	r0, r6
 2682 0036 FFF7FEFF 		bl	shellCheckPermission
 2683              	.LVL248:
 664:System/shell/shell.c ****         {
 2684              		.loc 1 664 100 discriminator 1 view .LVU699
 2685 003a 0028     		cmp	r0, #0
 2686 003c ECD1     		bne	.L237
 2687 003e E7E7     		b	.L241
 2688              	.L240:
 664:System/shell/shell.c ****         {
 2689              		.loc 1 664 100 discriminator 1 view .LVU700
 2690              	.LBE13:
 669:System/shell/shell.c **** 
 2691              		.loc 1 669 1 view .LVU701
 2692 0040 F8BD     		pop	{r3, r4, r5, r6, r7, pc}
 2693              	.LVL249:
 2694              	.L243:
 669:System/shell/shell.c **** 
 2695              		.loc 1 669 1 view .LVU702
 2696 0042 00BF     		.align	2
 2697              	.L242:
 2698 0044 00000000 		.word	.LC19
 2699              		.cfi_endproc
 2700              	.LFE23:
 2702              		.section	.text.shellKeys,"ax",%progbits
 2703              		.align	1
 2704              		.global	shellKeys
 2705              		.syntax unified
 2706              		.thumb
 2707              		.thumb_func
 2708              		.fpu fpv5-d16
 2710              	shellKeys:
 2711              	.LFB58:
1740:System/shell/shell.c ****     Shell *shell = shellGetCurrent();
 2712              		.loc 1 1740 1 is_stmt 1 view -0
 2713              		.cfi_startproc
 2714              		@ args = 0, pretend = 0, frame = 0
 2715              		@ frame_needed = 0, uses_anonymous_args = 0
 2716 0000 08B5     		push	{r3, lr}
 2717              	.LCFI45:
 2718              		.cfi_def_cfa_offset 8
ARM GAS  C:\Users\HUAV\AppData\Local\Temp\ccBfvIcs.s 			page 89


 2719              		.cfi_offset 3, -8
 2720              		.cfi_offset 14, -4
1741:System/shell/shell.c ****     if (shell)
 2721              		.loc 1 1741 5 view .LVU704
1741:System/shell/shell.c ****     if (shell)
 2722              		.loc 1 1741 20 is_stmt 0 view .LVU705
 2723 0002 FFF7FEFF 		bl	shellGetCurrent
 2724              	.LVL250:
1742:System/shell/shell.c ****     {
 2725              		.loc 1 1742 5 is_stmt 1 view .LVU706
1742:System/shell/shell.c ****     {
 2726              		.loc 1 1742 8 is_stmt 0 view .LVU707
 2727 0006 08B1     		cbz	r0, .L244
1744:System/shell/shell.c ****     }
 2728              		.loc 1 1744 9 is_stmt 1 view .LVU708
 2729 0008 FFF7FEFF 		bl	shellListKey
 2730              	.LVL251:
 2731              	.L244:
1746:System/shell/shell.c **** SHELL_EXPORT_CMD(
 2732              		.loc 1 1746 1 is_stmt 0 view .LVU709
 2733 000c 08BD     		pop	{r3, pc}
 2734              		.cfi_endproc
 2735              	.LFE58:
 2737              		.section	.text.shellListAll,"ax",%progbits
 2738              		.align	1
 2739              		.global	shellListAll
 2740              		.syntax unified
 2741              		.thumb
 2742              		.thumb_func
 2743              		.fpu fpv5-d16
 2745              	shellListAll:
 2746              	.LVL252:
 2747              	.LFB24:
 677:System/shell/shell.c **** #if SHELL_HELP_LIST_USER == 1
 2748              		.loc 1 677 1 is_stmt 1 view -0
 2749              		.cfi_startproc
 2750              		@ args = 0, pretend = 0, frame = 0
 2751              		@ frame_needed = 0, uses_anonymous_args = 0
 677:System/shell/shell.c **** #if SHELL_HELP_LIST_USER == 1
 2752              		.loc 1 677 1 is_stmt 0 view .LVU711
 2753 0000 08B5     		push	{r3, lr}
 2754              	.LCFI46:
 2755              		.cfi_def_cfa_offset 8
 2756              		.cfi_offset 3, -8
 2757              		.cfi_offset 14, -4
 681:System/shell/shell.c **** #if SHELL_HELP_LIST_VAR == 1
 2758              		.loc 1 681 5 is_stmt 1 view .LVU712
 2759 0002 FFF7FEFF 		bl	shellListCommand
 2760              	.LVL253:
 688:System/shell/shell.c **** 
 2761              		.loc 1 688 1 is_stmt 0 view .LVU713
 2762 0006 08BD     		pop	{r3, pc}
 2763              		.cfi_endproc
 2764              	.LFE24:
 2766              		.section	.rodata.shellDeleteCommandLine.str1.4,"aMS",%progbits,1
 2767              		.align	2
 2768              	.LC20:
ARM GAS  C:\Users\HUAV\AppData\Local\Temp\ccBfvIcs.s 			page 90


 2769 0000 08200800 		.ascii	"\010 \010\000"
 2770              		.section	.text.shellDeleteCommandLine,"ax",%progbits
 2771              		.align	1
 2772              		.global	shellDeleteCommandLine
 2773              		.syntax unified
 2774              		.thumb
 2775              		.thumb_func
 2776              		.fpu fpv5-d16
 2778              	shellDeleteCommandLine:
 2779              	.LVL254:
 2780              	.LFB25:
 697:System/shell/shell.c ****     while (length--)
 2781              		.loc 1 697 1 is_stmt 1 view -0
 2782              		.cfi_startproc
 2783              		@ args = 0, pretend = 0, frame = 0
 2784              		@ frame_needed = 0, uses_anonymous_args = 0
 697:System/shell/shell.c ****     while (length--)
 2785              		.loc 1 697 1 is_stmt 0 view .LVU715
 2786 0000 38B5     		push	{r3, r4, r5, lr}
 2787              	.LCFI47:
 2788              		.cfi_def_cfa_offset 16
 2789              		.cfi_offset 3, -16
 2790              		.cfi_offset 4, -12
 2791              		.cfi_offset 5, -8
 2792              		.cfi_offset 14, -4
 2793 0002 0546     		mov	r5, r0
 698:System/shell/shell.c ****     {
 2794              		.loc 1 698 5 is_stmt 1 view .LVU716
 2795              	.LVL255:
 2796              	.L250:
 698:System/shell/shell.c ****     {
 2797              		.loc 1 698 11 view .LVU717
 698:System/shell/shell.c ****     {
 2798              		.loc 1 698 18 is_stmt 0 view .LVU718
 2799 0004 4B1E     		subs	r3, r1, #1
 2800 0006 DCB2     		uxtb	r4, r3
 2801              	.LVL256:
 698:System/shell/shell.c ****     {
 2802              		.loc 1 698 11 view .LVU719
 2803 0008 29B1     		cbz	r1, .L253
 700:System/shell/shell.c ****     }
 2804              		.loc 1 700 9 is_stmt 1 view .LVU720
 2805 000a 0349     		ldr	r1, .L254
 2806 000c 2846     		mov	r0, r5
 2807 000e FFF7FEFF 		bl	shellWriteString
 2808              	.LVL257:
 698:System/shell/shell.c ****     {
 2809              		.loc 1 698 18 is_stmt 0 view .LVU721
 2810 0012 2146     		mov	r1, r4
 2811 0014 F6E7     		b	.L250
 2812              	.L253:
 702:System/shell/shell.c **** 
 2813              		.loc 1 702 1 view .LVU722
 2814 0016 38BD     		pop	{r3, r4, r5, pc}
 2815              	.LVL258:
 2816              	.L255:
 702:System/shell/shell.c **** 
ARM GAS  C:\Users\HUAV\AppData\Local\Temp\ccBfvIcs.s 			page 91


 2817              		.loc 1 702 1 view .LVU723
 2818              		.align	2
 2819              	.L254:
 2820 0018 00000000 		.word	.LC20
 2821              		.cfi_endproc
 2822              	.LFE25:
 2824              		.section	.text.shellClearCommandLine,"ax",%progbits
 2825              		.align	1
 2826              		.global	shellClearCommandLine
 2827              		.syntax unified
 2828              		.thumb
 2829              		.thumb_func
 2830              		.fpu fpv5-d16
 2832              	shellClearCommandLine:
 2833              	.LVL259:
 2834              	.LFB26:
 710:System/shell/shell.c ****     for (short i = shell->parser.length - shell->parser.cursor; i > 0; i--)
 2835              		.loc 1 710 1 is_stmt 1 view -0
 2836              		.cfi_startproc
 2837              		@ args = 0, pretend = 0, frame = 0
 2838              		@ frame_needed = 0, uses_anonymous_args = 0
 710:System/shell/shell.c ****     for (short i = shell->parser.length - shell->parser.cursor; i > 0; i--)
 2839              		.loc 1 710 1 is_stmt 0 view .LVU725
 2840 0000 38B5     		push	{r3, r4, r5, lr}
 2841              	.LCFI48:
 2842              		.cfi_def_cfa_offset 16
 2843              		.cfi_offset 3, -16
 2844              		.cfi_offset 4, -12
 2845              		.cfi_offset 5, -8
 2846              		.cfi_offset 14, -4
 2847 0002 0546     		mov	r5, r0
 711:System/shell/shell.c ****     {
 2848              		.loc 1 711 5 is_stmt 1 view .LVU726
 2849              	.LBB14:
 711:System/shell/shell.c ****     {
 2850              		.loc 1 711 10 view .LVU727
 711:System/shell/shell.c ****     {
 2851              		.loc 1 711 33 is_stmt 0 view .LVU728
 2852 0004 8489     		ldrh	r4, [r0, #12]
 711:System/shell/shell.c ****     {
 2853              		.loc 1 711 56 view .LVU729
 2854 0006 C389     		ldrh	r3, [r0, #14]
 711:System/shell/shell.c ****     {
 2855              		.loc 1 711 41 view .LVU730
 2856 0008 E41A     		subs	r4, r4, r3
 711:System/shell/shell.c ****     {
 2857              		.loc 1 711 16 view .LVU731
 2858 000a 24B2     		sxth	r4, r4
 2859              	.LVL260:
 2860              	.L257:
 711:System/shell/shell.c ****     {
 2861              		.loc 1 711 65 is_stmt 1 discriminator 1 view .LVU732
 711:System/shell/shell.c ****     {
 2862              		.loc 1 711 5 is_stmt 0 discriminator 1 view .LVU733
 2863 000c 002C     		cmp	r4, #0
 2864 000e 06DD     		ble	.L260
 713:System/shell/shell.c ****     }
ARM GAS  C:\Users\HUAV\AppData\Local\Temp\ccBfvIcs.s 			page 92


 2865              		.loc 1 713 9 is_stmt 1 discriminator 3 view .LVU734
 2866 0010 2021     		movs	r1, #32
 2867 0012 2846     		mov	r0, r5
 2868 0014 FFF7FEFF 		bl	shellWriteByte
 2869              	.LVL261:
 711:System/shell/shell.c ****     {
 2870              		.loc 1 711 72 discriminator 3 view .LVU735
 711:System/shell/shell.c ****     {
 2871              		.loc 1 711 73 is_stmt 0 discriminator 3 view .LVU736
 2872 0018 013C     		subs	r4, r4, #1
 2873              	.LVL262:
 711:System/shell/shell.c ****     {
 2874              		.loc 1 711 73 discriminator 3 view .LVU737
 2875 001a 24B2     		sxth	r4, r4
 2876              	.LVL263:
 711:System/shell/shell.c ****     {
 2877              		.loc 1 711 73 discriminator 3 view .LVU738
 2878 001c F6E7     		b	.L257
 2879              	.L260:
 711:System/shell/shell.c ****     {
 2880              		.loc 1 711 73 discriminator 3 view .LVU739
 2881              	.LBE14:
 715:System/shell/shell.c **** }
 2882              		.loc 1 715 5 is_stmt 1 view .LVU740
 2883 001e 297B     		ldrb	r1, [r5, #12]	@ zero_extendqisi2
 2884 0020 2846     		mov	r0, r5
 2885 0022 FFF7FEFF 		bl	shellDeleteCommandLine
 2886              	.LVL264:
 716:System/shell/shell.c **** 
 2887              		.loc 1 716 1 is_stmt 0 view .LVU741
 2888 0026 38BD     		pop	{r3, r4, r5, pc}
 716:System/shell/shell.c **** 
 2889              		.loc 1 716 1 view .LVU742
 2890              		.cfi_endproc
 2891              	.LFE26:
 2893              		.section	.text.shellHistory,"ax",%progbits
 2894              		.align	1
 2895              		.syntax unified
 2896              		.thumb
 2897              		.thumb_func
 2898              		.fpu fpv5-d16
 2900              	shellHistory:
 2901              	.LVL265:
 2902              	.LFB41:
1239:System/shell/shell.c ****     if (dir > 0)
 2903              		.loc 1 1239 1 is_stmt 1 view -0
 2904              		.cfi_startproc
 2905              		@ args = 0, pretend = 0, frame = 0
 2906              		@ frame_needed = 0, uses_anonymous_args = 0
1239:System/shell/shell.c ****     if (dir > 0)
 2907              		.loc 1 1239 1 is_stmt 0 view .LVU744
 2908 0000 10B5     		push	{r4, lr}
 2909              	.LCFI49:
 2910              		.cfi_def_cfa_offset 8
 2911              		.cfi_offset 4, -8
 2912              		.cfi_offset 14, -4
 2913 0002 0446     		mov	r4, r0
ARM GAS  C:\Users\HUAV\AppData\Local\Temp\ccBfvIcs.s 			page 93


1240:System/shell/shell.c ****     {
 2914              		.loc 1 1240 5 is_stmt 1 view .LVU745
1240:System/shell/shell.c ****     {
 2915              		.loc 1 1240 8 is_stmt 0 view .LVU746
 2916 0004 0029     		cmp	r1, #0
 2917              	.LVL266:
1240:System/shell/shell.c ****     {
 2918              		.loc 1 1240 8 view .LVU747
 2919 0006 19DD     		ble	.L262
1242:System/shell/shell.c ****             -((shell->history.number > shell->history.record) ? shell->history.number : shell->hist
 2920              		.loc 1 1242 9 is_stmt 1 view .LVU748
1242:System/shell/shell.c ****             -((shell->history.number > shell->history.record) ? shell->history.number : shell->hist
 2921              		.loc 1 1242 27 is_stmt 0 view .LVU749
 2922 0008 B0F95420 		ldrsh	r2, [r0, #84]
1242:System/shell/shell.c ****             -((shell->history.number > shell->history.record) ? shell->history.number : shell->hist
 2923              		.loc 1 1242 34 view .LVU750
 2924 000c 531E     		subs	r3, r2, #1
 2925 000e A0F85430 		strh	r3, [r0, #84]	@ movhi
1243:System/shell/shell.c ****         {
 2926              		.loc 1 1243 54 view .LVU751
 2927 0012 B0F85230 		ldrh	r3, [r0, #82]
1243:System/shell/shell.c ****         {
 2928              		.loc 1 1243 30 view .LVU752
 2929 0016 B0F85010 		ldrh	r1, [r0, #80]
1243:System/shell/shell.c ****         {
 2930              		.loc 1 1243 87 view .LVU753
 2931 001a 8B42     		cmp	r3, r1
 2932 001c 38BF     		it	cc
 2933 001e 0B46     		movcc	r3, r1
1243:System/shell/shell.c ****         {
 2934              		.loc 1 1243 13 view .LVU754
 2935 0020 5942     		rsbs	r1, r3, #0
1242:System/shell/shell.c ****             -((shell->history.number > shell->history.record) ? shell->history.number : shell->hist
 2936              		.loc 1 1242 12 view .LVU755
 2937 0022 8A42     		cmp	r2, r1
 2938 0024 01DC     		bgt	.L263
1245:System/shell/shell.c ****                                           ? shell->history.number
 2939              		.loc 1 1245 13 is_stmt 1 view .LVU756
1245:System/shell/shell.c ****                                           ? shell->history.number
 2940              		.loc 1 1245 35 is_stmt 0 view .LVU757
 2941 0026 A4F85410 		strh	r1, [r4, #84]	@ movhi
 2942              	.L263:
1262:System/shell/shell.c ****     if (shell->history.offset == 0)
 2943              		.loc 1 1262 5 is_stmt 1 view .LVU758
 2944 002a 2046     		mov	r0, r4
 2945              	.LVL267:
1262:System/shell/shell.c ****     if (shell->history.offset == 0)
 2946              		.loc 1 1262 5 is_stmt 0 view .LVU759
 2947 002c FFF7FEFF 		bl	shellClearCommandLine
 2948              	.LVL268:
1263:System/shell/shell.c ****     {
 2949              		.loc 1 1263 5 is_stmt 1 view .LVU760
1263:System/shell/shell.c ****     {
 2950              		.loc 1 1263 23 is_stmt 0 view .LVU761
 2951 0030 B4F95430 		ldrsh	r3, [r4, #84]
1263:System/shell/shell.c ****     {
 2952              		.loc 1 1263 8 view .LVU762
ARM GAS  C:\Users\HUAV\AppData\Local\Temp\ccBfvIcs.s 			page 94


 2953 0034 83B9     		cbnz	r3, .L265
1265:System/shell/shell.c ****     }
 2954              		.loc 1 1265 9 is_stmt 1 view .LVU763
1265:System/shell/shell.c ****     }
 2955              		.loc 1 1265 53 is_stmt 0 view .LVU764
 2956 0036 A381     		strh	r3, [r4, #12]	@ movhi
1265:System/shell/shell.c ****     }
 2957              		.loc 1 1265 30 view .LVU765
 2958 0038 E381     		strh	r3, [r4, #14]	@ movhi
 2959              	.L261:
1277:System/shell/shell.c **** 
 2960              		.loc 1 1277 1 view .LVU766
 2961 003a 10BD     		pop	{r4, pc}
 2962              	.LVL269:
 2963              	.L262:
1250:System/shell/shell.c ****     {
 2964              		.loc 1 1250 10 is_stmt 1 view .LVU767
1250:System/shell/shell.c ****     {
 2965              		.loc 1 1250 13 is_stmt 0 view .LVU768
 2966 003c 0029     		cmp	r1, #0
 2967 003e FCDA     		bge	.L261
1252:System/shell/shell.c ****         {
 2968              		.loc 1 1252 9 is_stmt 1 view .LVU769
1252:System/shell/shell.c ****         {
 2969              		.loc 1 1252 29 is_stmt 0 view .LVU770
 2970 0040 B0F95430 		ldrsh	r3, [r0, #84]
1252:System/shell/shell.c ****         {
 2971              		.loc 1 1252 13 view .LVU771
 2972 0044 0133     		adds	r3, r3, #1
 2973 0046 1BB2     		sxth	r3, r3
1252:System/shell/shell.c ****         {
 2974              		.loc 1 1252 12 view .LVU772
 2975 0048 A0F85430 		strh	r3, [r0, #84]	@ movhi
 2976 004c 002B     		cmp	r3, #0
 2977 004e ECDD     		ble	.L263
1254:System/shell/shell.c ****             return;
 2978              		.loc 1 1254 13 is_stmt 1 view .LVU773
1254:System/shell/shell.c ****             return;
 2979              		.loc 1 1254 35 is_stmt 0 view .LVU774
 2980 0050 0023     		movs	r3, #0
 2981 0052 A0F85430 		strh	r3, [r0, #84]	@ movhi
1255:System/shell/shell.c ****         }
 2982              		.loc 1 1255 13 is_stmt 1 view .LVU775
 2983 0056 F0E7     		b	.L261
 2984              	.LVL270:
 2985              	.L265:
1269:System/shell/shell.c ****                                                     shell->history.item[(shell->history.record + SH
 2986              		.loc 1 1269 9 view .LVU776
1270:System/shell/shell.c ****         {
 2987              		.loc 1 1270 88 is_stmt 0 view .LVU777
 2988 0058 B4F85220 		ldrh	r2, [r4, #82]
1270:System/shell/shell.c ****         {
 2989              		.loc 1 1270 96 view .LVU778
 2990 005c 0532     		adds	r2, r2, #5
1270:System/shell/shell.c ****         {
 2991              		.loc 1 1270 123 view .LVU779
 2992 005e 1A44     		add	r2, r2, r3
ARM GAS  C:\Users\HUAV\AppData\Local\Temp\ccBfvIcs.s 			page 95


1270:System/shell/shell.c ****         {
 2993              		.loc 1 1270 148 view .LVU780
 2994 0060 0C49     		ldr	r1, .L267
 2995 0062 81FB0231 		smull	r3, r1, r1, r2
 2996 0066 D317     		asrs	r3, r2, #31
 2997 0068 C3EB6103 		rsb	r3, r3, r1, asr #1
 2998 006c 03EB8303 		add	r3, r3, r3, lsl #2
 2999 0070 D31A     		subs	r3, r2, r3
1269:System/shell/shell.c ****                                                     shell->history.item[(shell->history.record + SH
 3000              		.loc 1 1269 37 view .LVU781
 3001 0072 0E33     		adds	r3, r3, #14
 3002 0074 04EB8303 		add	r3, r4, r3, lsl #2
 3003 0078 5968     		ldr	r1, [r3, #4]
 3004 007a 2069     		ldr	r0, [r4, #16]
 3005 007c FFF7FEFF 		bl	shellStringCopy
 3006              	.LVL271:
1269:System/shell/shell.c ****                                                     shell->history.item[(shell->history.record + SH
 3007              		.loc 1 1269 35 view .LVU782
 3008 0080 A081     		strh	r0, [r4, #12]	@ movhi
1269:System/shell/shell.c ****                                                     shell->history.item[(shell->history.record + SH
 3009              		.loc 1 1269 12 view .LVU783
 3010 0082 0028     		cmp	r0, #0
 3011 0084 D9D0     		beq	.L261
1274:System/shell/shell.c ****         shellWriteString(shell, shell->parser.buffer);
 3012              		.loc 1 1274 9 is_stmt 1 view .LVU784
1274:System/shell/shell.c ****         shellWriteString(shell, shell->parser.buffer);
 3013              		.loc 1 1274 30 is_stmt 0 view .LVU785
 3014 0086 E081     		strh	r0, [r4, #14]	@ movhi
1275:System/shell/shell.c ****     }
 3015              		.loc 1 1275 9 is_stmt 1 view .LVU786
 3016 0088 2169     		ldr	r1, [r4, #16]
 3017 008a 2046     		mov	r0, r4
 3018 008c FFF7FEFF 		bl	shellWriteString
 3019              	.LVL272:
 3020 0090 D3E7     		b	.L261
 3021              	.L268:
 3022 0092 00BF     		.align	2
 3023              	.L267:
 3024 0094 67666666 		.word	1717986919
 3025              		.cfi_endproc
 3026              	.LFE41:
 3028              		.section	.text.shellUp,"ax",%progbits
 3029              		.align	1
 3030              		.global	shellUp
 3031              		.syntax unified
 3032              		.thumb
 3033              		.thumb_func
 3034              		.fpu fpv5-d16
 3036              	shellUp:
 3037              	.LVL273:
 3038              	.LFB44:
1342:System/shell/shell.c ****     shellHistory(shell, 1);
 3039              		.loc 1 1342 1 view -0
 3040              		.cfi_startproc
 3041              		@ args = 0, pretend = 0, frame = 0
 3042              		@ frame_needed = 0, uses_anonymous_args = 0
1342:System/shell/shell.c ****     shellHistory(shell, 1);
ARM GAS  C:\Users\HUAV\AppData\Local\Temp\ccBfvIcs.s 			page 96


 3043              		.loc 1 1342 1 is_stmt 0 view .LVU788
 3044 0000 08B5     		push	{r3, lr}
 3045              	.LCFI50:
 3046              		.cfi_def_cfa_offset 8
 3047              		.cfi_offset 3, -8
 3048              		.cfi_offset 14, -4
1343:System/shell/shell.c **** }
 3049              		.loc 1 1343 5 is_stmt 1 view .LVU789
 3050 0002 0121     		movs	r1, #1
 3051 0004 FFF7FEFF 		bl	shellHistory
 3052              	.LVL274:
1344:System/shell/shell.c **** SHELL_EXPORT_KEY(SHELL_CMD_PERMISSION(0), 0x1B5B4100, shellUp, up);
 3053              		.loc 1 1344 1 is_stmt 0 view .LVU790
 3054 0008 08BD     		pop	{r3, pc}
 3055              		.cfi_endproc
 3056              	.LFE44:
 3058              		.section	.text.shellDown,"ax",%progbits
 3059              		.align	1
 3060              		.global	shellDown
 3061              		.syntax unified
 3062              		.thumb
 3063              		.thumb_func
 3064              		.fpu fpv5-d16
 3066              	shellDown:
 3067              	.LVL275:
 3068              	.LFB45:
1353:System/shell/shell.c ****     shellHistory(shell, -1);
 3069              		.loc 1 1353 1 is_stmt 1 view -0
 3070              		.cfi_startproc
 3071              		@ args = 0, pretend = 0, frame = 0
 3072              		@ frame_needed = 0, uses_anonymous_args = 0
1353:System/shell/shell.c ****     shellHistory(shell, -1);
 3073              		.loc 1 1353 1 is_stmt 0 view .LVU792
 3074 0000 08B5     		push	{r3, lr}
 3075              	.LCFI51:
 3076              		.cfi_def_cfa_offset 8
 3077              		.cfi_offset 3, -8
 3078              		.cfi_offset 14, -4
1354:System/shell/shell.c **** }
 3079              		.loc 1 1354 5 is_stmt 1 view .LVU793
 3080 0002 4FF0FF31 		mov	r1, #-1
 3081 0006 FFF7FEFF 		bl	shellHistory
 3082              	.LVL276:
1355:System/shell/shell.c **** SHELL_EXPORT_KEY(SHELL_CMD_PERMISSION(0), 0x1B5B4200, shellDown, down);
 3083              		.loc 1 1355 1 is_stmt 0 view .LVU794
 3084 000a 08BD     		pop	{r3, pc}
 3085              		.cfi_endproc
 3086              	.LFE45:
 3088              		.section	.text.shellTab,"ax",%progbits
 3089              		.align	1
 3090              		.global	shellTab
 3091              		.syntax unified
 3092              		.thumb
 3093              		.thumb_func
 3094              		.fpu fpv5-d16
 3096              	shellTab:
 3097              	.LVL277:
ARM GAS  C:\Users\HUAV\AppData\Local\Temp\ccBfvIcs.s 			page 97


 3098              	.LFB48:
1395:System/shell/shell.c ****     unsigned short maxMatch = shell->parser.bufferSize;
 3099              		.loc 1 1395 1 is_stmt 1 view -0
 3100              		.cfi_startproc
 3101              		@ args = 0, pretend = 0, frame = 0
 3102              		@ frame_needed = 0, uses_anonymous_args = 0
1395:System/shell/shell.c ****     unsigned short maxMatch = shell->parser.bufferSize;
 3103              		.loc 1 1395 1 is_stmt 0 view .LVU796
 3104 0000 2DE9F84F 		push	{r3, r4, r5, r6, r7, r8, r9, r10, fp, lr}
 3105              	.LCFI52:
 3106              		.cfi_def_cfa_offset 40
 3107              		.cfi_offset 3, -40
 3108              		.cfi_offset 4, -36
 3109              		.cfi_offset 5, -32
 3110              		.cfi_offset 6, -28
 3111              		.cfi_offset 7, -24
 3112              		.cfi_offset 8, -20
 3113              		.cfi_offset 9, -16
 3114              		.cfi_offset 10, -12
 3115              		.cfi_offset 11, -8
 3116              		.cfi_offset 14, -4
 3117 0004 0546     		mov	r5, r0
1396:System/shell/shell.c ****     unsigned short lastMatchIndex = 0;
 3118              		.loc 1 1396 5 is_stmt 1 view .LVU797
1396:System/shell/shell.c ****     unsigned short lastMatchIndex = 0;
 3119              		.loc 1 1396 20 is_stmt 0 view .LVU798
 3120 0006 B0F834A0 		ldrh	r10, [r0, #52]
 3121              	.LVL278:
1397:System/shell/shell.c ****     unsigned short matchNum = 0;
 3122              		.loc 1 1397 5 is_stmt 1 view .LVU799
1398:System/shell/shell.c ****     unsigned short length;
 3123              		.loc 1 1398 5 view .LVU800
1399:System/shell/shell.c **** 
 3124              		.loc 1 1399 5 view .LVU801
1401:System/shell/shell.c ****     {
 3125              		.loc 1 1401 5 view .LVU802
1401:System/shell/shell.c ****     {
 3126              		.loc 1 1401 22 is_stmt 0 view .LVU803
 3127 000a 8389     		ldrh	r3, [r0, #12]
1401:System/shell/shell.c ****     {
 3128              		.loc 1 1401 8 view .LVU804
 3129 000c 43B1     		cbz	r3, .L284
1406:System/shell/shell.c ****     {
 3130              		.loc 1 1406 10 is_stmt 1 view .LVU805
 3131              	.LBB15:
1408:System/shell/shell.c ****         ShellCommand *base = (ShellCommand *)shell->commandList.base;
 3132              		.loc 1 1408 9 view .LVU806
1408:System/shell/shell.c ****         ShellCommand *base = (ShellCommand *)shell->commandList.base;
 3133              		.loc 1 1408 22 is_stmt 0 view .LVU807
 3134 000e 0269     		ldr	r2, [r0, #16]
1408:System/shell/shell.c ****         ShellCommand *base = (ShellCommand *)shell->commandList.base;
 3135              		.loc 1 1408 52 view .LVU808
 3136 0010 4FF00008 		mov	r8, #0
 3137 0014 02F80380 		strb	r8, [r2, r3]
1409:System/shell/shell.c ****         for (short i = 0; i < shell->commandList.count; i++)
 3138              		.loc 1 1409 9 is_stmt 1 view .LVU809
1409:System/shell/shell.c ****         for (short i = 0; i < shell->commandList.count; i++)
ARM GAS  C:\Users\HUAV\AppData\Local\Temp\ccBfvIcs.s 			page 98


 3139              		.loc 1 1409 23 is_stmt 0 view .LVU810
 3140 0018 876D     		ldr	r7, [r0, #88]
 3141              	.LVL279:
1410:System/shell/shell.c ****         {
 3142              		.loc 1 1410 9 is_stmt 1 view .LVU811
 3143              	.LBB16:
1410:System/shell/shell.c ****         {
 3144              		.loc 1 1410 14 view .LVU812
1410:System/shell/shell.c ****         {
 3145              		.loc 1 1410 20 is_stmt 0 view .LVU813
 3146 001a 4446     		mov	r4, r8
 3147              	.LBE16:
 3148              	.LBE15:
1398:System/shell/shell.c ****     unsigned short length;
 3149              		.loc 1 1398 20 view .LVU814
 3150 001c C146     		mov	r9, r8
 3151              	.LBB19:
 3152              	.LBB17:
1410:System/shell/shell.c ****         {
 3153              		.loc 1 1410 9 view .LVU815
 3154 001e 24E0     		b	.L276
 3155              	.LVL280:
 3156              	.L284:
1410:System/shell/shell.c ****         {
 3157              		.loc 1 1410 9 view .LVU816
 3158              	.LBE17:
 3159              	.LBE19:
1403:System/shell/shell.c ****         shellWriteCommandLine(shell, 1);
 3160              		.loc 1 1403 9 is_stmt 1 view .LVU817
 3161 0020 FFF7FEFF 		bl	shellListAll
 3162              	.LVL281:
1404:System/shell/shell.c ****     }
 3163              		.loc 1 1404 9 view .LVU818
 3164 0024 0121     		movs	r1, #1
 3165 0026 2846     		mov	r0, r5
 3166 0028 FFF7FEFF 		bl	shellWriteCommandLine
 3167              	.LVL282:
 3168 002c 5EE0     		b	.L273
 3169              	.LVL283:
 3170              	.L279:
 3171              	.LBB20:
 3172              	.LBB18:
1421:System/shell/shell.c ****                     length =
 3173              		.loc 1 1421 21 view .LVU819
 3174 002e 07EB0818 		add	r8, r7, r8, lsl #4
 3175              	.LVL284:
1421:System/shell/shell.c ****                     length =
 3176              		.loc 1 1421 21 is_stmt 0 view .LVU820
 3177 0032 4146     		mov	r1, r8
 3178 0034 2846     		mov	r0, r5
 3179 0036 FFF7FEFF 		bl	shellListItem
 3180              	.LVL285:
1422:System/shell/shell.c ****                         shellStringCompare((char *)shellGetCommandName(&base[lastMatchIndex]),
 3181              		.loc 1 1422 21 is_stmt 1 view .LVU821
1423:System/shell/shell.c ****                                            (char *)shellGetCommandName(&base[i]));
 3182              		.loc 1 1423 52 is_stmt 0 view .LVU822
 3183 003a 4046     		mov	r0, r8
ARM GAS  C:\Users\HUAV\AppData\Local\Temp\ccBfvIcs.s 			page 99


 3184 003c FFF7FEFF 		bl	shellGetCommandName
 3185              	.LVL286:
 3186 0040 8046     		mov	r8, r0
1424:System/shell/shell.c ****                     maxMatch = (maxMatch > length) ? length : maxMatch;
 3187              		.loc 1 1424 52 view .LVU823
 3188 0042 3046     		mov	r0, r6
 3189 0044 FFF7FEFF 		bl	shellGetCommandName
 3190              	.LVL287:
 3191 0048 0146     		mov	r1, r0
1423:System/shell/shell.c ****                                            (char *)shellGetCommandName(&base[i]));
 3192              		.loc 1 1423 25 view .LVU824
 3193 004a 4046     		mov	r0, r8
 3194 004c FFF7FEFF 		bl	shellStringCompare
 3195              	.LVL288:
1425:System/shell/shell.c ****                 }
 3196              		.loc 1 1425 21 is_stmt 1 view .LVU825
1425:System/shell/shell.c ****                 }
 3197              		.loc 1 1425 30 is_stmt 0 view .LVU826
 3198 0050 8245     		cmp	r10, r0
 3199 0052 28BF     		it	cs
 3200 0054 8246     		movcs	r10, r0
 3201              	.LVL289:
1425:System/shell/shell.c ****                 }
 3202              		.loc 1 1425 30 view .LVU827
 3203 0056 1FFA8AFA 		uxth	r10, r10
 3204              	.LVL290:
 3205              	.L278:
1427:System/shell/shell.c ****                 matchNum++;
 3206              		.loc 1 1427 17 is_stmt 1 view .LVU828
1427:System/shell/shell.c ****                 matchNum++;
 3207              		.loc 1 1427 32 is_stmt 0 view .LVU829
 3208 005a 1FFA84F8 		uxth	r8, r4
 3209              	.LVL291:
1428:System/shell/shell.c ****             }
 3210              		.loc 1 1428 17 is_stmt 1 view .LVU830
1428:System/shell/shell.c ****             }
 3211              		.loc 1 1428 25 is_stmt 0 view .LVU831
 3212 005e 09F10109 		add	r9, r9, #1
 3213              	.LVL292:
1428:System/shell/shell.c ****             }
 3214              		.loc 1 1428 25 view .LVU832
 3215 0062 1FFA89F9 		uxth	r9, r9
 3216              	.LVL293:
 3217              	.L277:
1410:System/shell/shell.c ****         {
 3218              		.loc 1 1410 57 is_stmt 1 discriminator 2 view .LVU833
1410:System/shell/shell.c ****         {
 3219              		.loc 1 1410 58 is_stmt 0 discriminator 2 view .LVU834
 3220 0066 0134     		adds	r4, r4, #1
 3221              	.LVL294:
1410:System/shell/shell.c ****         {
 3222              		.loc 1 1410 58 discriminator 2 view .LVU835
 3223 0068 24B2     		sxth	r4, r4
 3224              	.LVL295:
 3225              	.L276:
1410:System/shell/shell.c ****         {
 3226              		.loc 1 1410 27 is_stmt 1 discriminator 1 view .LVU836
ARM GAS  C:\Users\HUAV\AppData\Local\Temp\ccBfvIcs.s 			page 100


1410:System/shell/shell.c ****         {
 3227              		.loc 1 1410 49 is_stmt 0 discriminator 1 view .LVU837
 3228 006a B5F85C30 		ldrh	r3, [r5, #92]
1410:System/shell/shell.c ****         {
 3229              		.loc 1 1410 9 discriminator 1 view .LVU838
 3230 006e 9C42     		cmp	r4, r3
 3231 0070 1EDA     		bge	.L285
1412:System/shell/shell.c ****                                                                                  (char *)shellGetCo
 3232              		.loc 1 1412 13 is_stmt 1 view .LVU839
1412:System/shell/shell.c ****                                                                                  (char *)shellGetCo
 3233              		.loc 1 1412 17 is_stmt 0 view .LVU840
 3234 0072 07EB0416 		add	r6, r7, r4, lsl #4
 3235 0076 3146     		mov	r1, r6
 3236 0078 2846     		mov	r0, r5
 3237 007a FFF7FEFF 		bl	shellCheckPermission
 3238              	.LVL296:
1412:System/shell/shell.c ****                                                                                  (char *)shellGetCo
 3239              		.loc 1 1412 16 view .LVU841
 3240 007e 0028     		cmp	r0, #0
 3241 0080 F1D1     		bne	.L277
1412:System/shell/shell.c ****                                                                                  (char *)shellGetCo
 3242              		.loc 1 1412 63 discriminator 1 view .LVU842
 3243 0082 D5F810B0 		ldr	fp, [r5, #16]
1413:System/shell/shell.c ****             {
 3244              		.loc 1 1413 90 discriminator 1 view .LVU843
 3245 0086 3046     		mov	r0, r6
 3246 0088 FFF7FEFF 		bl	shellGetCommandName
 3247              	.LVL297:
 3248 008c 0146     		mov	r1, r0
1412:System/shell/shell.c ****                                                                                  (char *)shellGetCo
 3249              		.loc 1 1412 63 discriminator 1 view .LVU844
 3250 008e 5846     		mov	r0, fp
 3251 0090 FFF7FEFF 		bl	shellStringCompare
 3252              	.LVL298:
1413:System/shell/shell.c ****             {
 3253              		.loc 1 1413 137 discriminator 1 view .LVU845
 3254 0094 AB89     		ldrh	r3, [r5, #12]
1412:System/shell/shell.c ****                                                                                  (char *)shellGetCo
 3255              		.loc 1 1412 60 discriminator 1 view .LVU846
 3256 0096 9842     		cmp	r0, r3
 3257 0098 E5D1     		bne	.L277
1415:System/shell/shell.c ****                 {
 3258              		.loc 1 1415 17 is_stmt 1 view .LVU847
1415:System/shell/shell.c ****                 {
 3259              		.loc 1 1415 20 is_stmt 0 view .LVU848
 3260 009a B9F1000F 		cmp	r9, #0
 3261 009e DCD0     		beq	.L278
1417:System/shell/shell.c ****                     {
 3262              		.loc 1 1417 21 is_stmt 1 view .LVU849
1417:System/shell/shell.c ****                     {
 3263              		.loc 1 1417 24 is_stmt 0 view .LVU850
 3264 00a0 B9F1010F 		cmp	r9, #1
 3265 00a4 C3D1     		bne	.L279
1419:System/shell/shell.c ****                     }
 3266              		.loc 1 1419 25 is_stmt 1 view .LVU851
 3267 00a6 1A49     		ldr	r1, .L288
 3268 00a8 2846     		mov	r0, r5
ARM GAS  C:\Users\HUAV\AppData\Local\Temp\ccBfvIcs.s 			page 101


 3269 00aa FFF7FEFF 		bl	shellWriteString
 3270              	.LVL299:
 3271 00ae BEE7     		b	.L279
 3272              	.L285:
1419:System/shell/shell.c ****                     }
 3273              		.loc 1 1419 25 is_stmt 0 view .LVU852
 3274              	.LBE18:
1431:System/shell/shell.c ****         {
 3275              		.loc 1 1431 9 is_stmt 1 view .LVU853
1431:System/shell/shell.c ****         {
 3276              		.loc 1 1431 12 is_stmt 0 view .LVU854
 3277 00b0 B9F1000F 		cmp	r9, #0
 3278 00b4 1AD0     		beq	.L273
1435:System/shell/shell.c ****         {
 3279              		.loc 1 1435 9 is_stmt 1 view .LVU855
1435:System/shell/shell.c ****         {
 3280              		.loc 1 1435 12 is_stmt 0 view .LVU856
 3281 00b6 B9F1010F 		cmp	r9, #1
 3282 00ba 19D0     		beq	.L286
 3283              	.L281:
1439:System/shell/shell.c ****         {
 3284              		.loc 1 1439 9 is_stmt 1 view .LVU857
1441:System/shell/shell.c ****                 shellStringCopy(shell->parser.buffer,
 3285              		.loc 1 1441 13 view .LVU858
1442:System/shell/shell.c ****                                 (char *)shellGetCommandName(&base[lastMatchIndex]));
 3286              		.loc 1 1442 17 is_stmt 0 view .LVU859
 3287 00bc 2C69     		ldr	r4, [r5, #16]
 3288              	.LVL300:
1443:System/shell/shell.c ****         }
 3289              		.loc 1 1443 41 view .LVU860
 3290 00be 07EB0817 		add	r7, r7, r8, lsl #4
 3291              	.LVL301:
1443:System/shell/shell.c ****         }
 3292              		.loc 1 1443 41 view .LVU861
 3293 00c2 3846     		mov	r0, r7
 3294 00c4 FFF7FEFF 		bl	shellGetCommandName
 3295              	.LVL302:
 3296 00c8 0146     		mov	r1, r0
1442:System/shell/shell.c ****                                 (char *)shellGetCommandName(&base[lastMatchIndex]));
 3297              		.loc 1 1442 17 view .LVU862
 3298 00ca 2046     		mov	r0, r4
 3299 00cc FFF7FEFF 		bl	shellStringCopy
 3300              	.LVL303:
1441:System/shell/shell.c ****                 shellStringCopy(shell->parser.buffer,
 3301              		.loc 1 1441 34 view .LVU863
 3302 00d0 A881     		strh	r0, [r5, #12]	@ movhi
1445:System/shell/shell.c ****         {
 3303              		.loc 1 1445 9 is_stmt 1 view .LVU864
1445:System/shell/shell.c ****         {
 3304              		.loc 1 1445 12 is_stmt 0 view .LVU865
 3305 00d2 B9F1010F 		cmp	r9, #1
 3306 00d6 0FD8     		bhi	.L287
 3307              	.L282:
1451:System/shell/shell.c ****         shell->parser.cursor = shell->parser.length;
 3308              		.loc 1 1451 9 is_stmt 1 view .LVU866
1451:System/shell/shell.c ****         shell->parser.cursor = shell->parser.length;
 3309              		.loc 1 1451 22 is_stmt 0 view .LVU867
ARM GAS  C:\Users\HUAV\AppData\Local\Temp\ccBfvIcs.s 			page 102


 3310 00d8 2A69     		ldr	r2, [r5, #16]
1451:System/shell/shell.c ****         shell->parser.cursor = shell->parser.length;
 3311              		.loc 1 1451 43 view .LVU868
 3312 00da AB89     		ldrh	r3, [r5, #12]
1451:System/shell/shell.c ****         shell->parser.cursor = shell->parser.length;
 3313              		.loc 1 1451 52 view .LVU869
 3314 00dc 0021     		movs	r1, #0
 3315 00de D154     		strb	r1, [r2, r3]
1452:System/shell/shell.c ****         shellWriteString(shell, shell->parser.buffer);
 3316              		.loc 1 1452 9 is_stmt 1 view .LVU870
1452:System/shell/shell.c ****         shellWriteString(shell, shell->parser.buffer);
 3317              		.loc 1 1452 45 is_stmt 0 view .LVU871
 3318 00e0 AB89     		ldrh	r3, [r5, #12]
1452:System/shell/shell.c ****         shellWriteString(shell, shell->parser.buffer);
 3319              		.loc 1 1452 30 view .LVU872
 3320 00e2 EB81     		strh	r3, [r5, #14]	@ movhi
1453:System/shell/shell.c ****     }
 3321              		.loc 1 1453 9 is_stmt 1 view .LVU873
 3322 00e4 2969     		ldr	r1, [r5, #16]
 3323 00e6 2846     		mov	r0, r5
 3324 00e8 FFF7FEFF 		bl	shellWriteString
 3325              	.LVL304:
 3326              	.L273:
1453:System/shell/shell.c ****     }
 3327              		.loc 1 1453 9 is_stmt 0 view .LVU874
 3328              	.LBE20:
1476:System/shell/shell.c **** SHELL_EXPORT_KEY(SHELL_CMD_PERMISSION(0), 0x09000000, shellTab, tab);
 3329              		.loc 1 1476 1 view .LVU875
 3330 00ec BDE8F88F 		pop	{r3, r4, r5, r6, r7, r8, r9, r10, fp, pc}
 3331              	.LVL305:
 3332              	.L286:
 3333              	.LBB21:
1437:System/shell/shell.c ****         }
 3334              		.loc 1 1437 13 is_stmt 1 view .LVU876
 3335 00f0 2846     		mov	r0, r5
 3336 00f2 FFF7FEFF 		bl	shellClearCommandLine
 3337              	.LVL306:
 3338 00f6 E1E7     		b	.L281
 3339              	.LVL307:
 3340              	.L287:
1447:System/shell/shell.c ****             shellWriteCommandLine(shell, 1);
 3341              		.loc 1 1447 13 view .LVU877
 3342 00f8 3946     		mov	r1, r7
 3343 00fa 2846     		mov	r0, r5
 3344 00fc FFF7FEFF 		bl	shellListItem
 3345              	.LVL308:
1448:System/shell/shell.c ****             shell->parser.length = maxMatch;
 3346              		.loc 1 1448 13 view .LVU878
 3347 0100 0121     		movs	r1, #1
 3348 0102 2846     		mov	r0, r5
 3349 0104 FFF7FEFF 		bl	shellWriteCommandLine
 3350              	.LVL309:
1449:System/shell/shell.c ****         }
 3351              		.loc 1 1449 13 view .LVU879
1449:System/shell/shell.c ****         }
 3352              		.loc 1 1449 34 is_stmt 0 view .LVU880
 3353 0108 A5F80CA0 		strh	r10, [r5, #12]	@ movhi
ARM GAS  C:\Users\HUAV\AppData\Local\Temp\ccBfvIcs.s 			page 103


 3354 010c E4E7     		b	.L282
 3355              	.L289:
 3356 010e 00BF     		.align	2
 3357              	.L288:
 3358 0110 04000000 		.word	.LC3
 3359              	.LBE21:
 3360              		.cfi_endproc
 3361              	.LFE48:
 3363              		.section	.rodata.shellInsertByte.str1.4,"aMS",%progbits,1
 3364              		.align	2
 3365              	.LC21:
 3366 0000 0D0A5761 		.ascii	"\015\012Warning: Command is too long\015\012\000"
 3366      726E696E 
 3366      673A2043 
 3366      6F6D6D61 
 3366      6E642069 
 3367              		.section	.text.shellInsertByte,"ax",%progbits
 3368              		.align	1
 3369              		.global	shellInsertByte
 3370              		.syntax unified
 3371              		.thumb
 3372              		.thumb_func
 3373              		.fpu fpv5-d16
 3375              	shellInsertByte:
 3376              	.LVL310:
 3377              	.LFB27:
 725:System/shell/shell.c ****     /* 判断输入数据是否过长 */
 3378              		.loc 1 725 1 is_stmt 1 view -0
 3379              		.cfi_startproc
 3380              		@ args = 0, pretend = 0, frame = 0
 3381              		@ frame_needed = 0, uses_anonymous_args = 0
 725:System/shell/shell.c ****     /* 判断输入数据是否过长 */
 3382              		.loc 1 725 1 is_stmt 0 view .LVU882
 3383 0000 70B5     		push	{r4, r5, r6, lr}
 3384              	.LCFI53:
 3385              		.cfi_def_cfa_offset 16
 3386              		.cfi_offset 4, -16
 3387              		.cfi_offset 5, -12
 3388              		.cfi_offset 6, -8
 3389              		.cfi_offset 14, -4
 3390 0002 0446     		mov	r4, r0
 727:System/shell/shell.c ****     {
 3391              		.loc 1 727 5 is_stmt 1 view .LVU883
 727:System/shell/shell.c ****     {
 3392              		.loc 1 727 22 is_stmt 0 view .LVU884
 3393 0004 8389     		ldrh	r3, [r0, #12]
 727:System/shell/shell.c ****     {
 3394              		.loc 1 727 46 view .LVU885
 3395 0006 828E     		ldrh	r2, [r0, #52]
 727:System/shell/shell.c ****     {
 3396              		.loc 1 727 58 view .LVU886
 3397 0008 013A     		subs	r2, r2, #1
 727:System/shell/shell.c ****     {
 3398              		.loc 1 727 8 view .LVU887
 3399 000a 9342     		cmp	r3, r2
 3400 000c 12DA     		bge	.L301
 736:System/shell/shell.c ****     {
ARM GAS  C:\Users\HUAV\AppData\Local\Temp\ccBfvIcs.s 			page 104


 3401              		.loc 1 736 5 is_stmt 1 view .LVU888
 736:System/shell/shell.c ****     {
 3402              		.loc 1 736 22 is_stmt 0 view .LVU889
 3403 000e C289     		ldrh	r2, [r0, #14]
 736:System/shell/shell.c ****     {
 3404              		.loc 1 736 8 view .LVU890
 3405 0010 9342     		cmp	r3, r2
 3406 0012 1BD0     		beq	.L302
 743:System/shell/shell.c ****     {
 3407              		.loc 1 743 10 is_stmt 1 view .LVU891
 743:System/shell/shell.c ****     {
 3408              		.loc 1 743 13 is_stmt 0 view .LVU892
 3409 0014 9342     		cmp	r3, r2
 3410 0016 4ED9     		bls	.L290
 745:System/shell/shell.c ****         {
 3411              		.loc 1 745 9 is_stmt 1 view .LVU893
 3412              	.LBB22:
 745:System/shell/shell.c ****         {
 3413              		.loc 1 745 14 view .LVU894
 745:System/shell/shell.c ****         {
 3414              		.loc 1 745 45 is_stmt 0 view .LVU895
 3415 0018 9B1A     		subs	r3, r3, r2
 745:System/shell/shell.c ****         {
 3416              		.loc 1 745 20 view .LVU896
 3417 001a 1BB2     		sxth	r3, r3
 3418              	.LVL311:
 3419              	.L294:
 745:System/shell/shell.c ****         {
 3420              		.loc 1 745 69 is_stmt 1 discriminator 1 view .LVU897
 745:System/shell/shell.c ****         {
 3421              		.loc 1 745 9 is_stmt 0 discriminator 1 view .LVU898
 3422 001c 002B     		cmp	r3, #0
 3423 001e 24DD     		ble	.L303
 747:System/shell/shell.c ****                 shell->parser.buffer[shell->parser.cursor + i - 1];
 3424              		.loc 1 747 13 is_stmt 1 discriminator 3 view .LVU899
 748:System/shell/shell.c ****         }
 3425              		.loc 1 748 30 is_stmt 0 discriminator 3 view .LVU900
 3426 0020 2069     		ldr	r0, [r4, #16]
 748:System/shell/shell.c ****         }
 3427              		.loc 1 748 51 discriminator 3 view .LVU901
 3428 0022 E289     		ldrh	r2, [r4, #14]
 748:System/shell/shell.c ****         }
 3429              		.loc 1 748 59 discriminator 3 view .LVU902
 3430 0024 1A44     		add	r2, r2, r3
 747:System/shell/shell.c ****                 shell->parser.buffer[shell->parser.cursor + i - 1];
 3431              		.loc 1 747 33 discriminator 3 view .LVU903
 3432 0026 8518     		adds	r5, r0, r2
 748:System/shell/shell.c ****         }
 3433              		.loc 1 748 37 discriminator 3 view .LVU904
 3434 0028 15F8015C 		ldrb	r5, [r5, #-1]	@ zero_extendqisi2
 747:System/shell/shell.c ****                 shell->parser.buffer[shell->parser.cursor + i - 1];
 3435              		.loc 1 747 60 discriminator 3 view .LVU905
 3436 002c 8554     		strb	r5, [r0, r2]
 745:System/shell/shell.c ****         {
 3437              		.loc 1 745 76 is_stmt 1 discriminator 3 view .LVU906
 745:System/shell/shell.c ****         {
 3438              		.loc 1 745 77 is_stmt 0 discriminator 3 view .LVU907
ARM GAS  C:\Users\HUAV\AppData\Local\Temp\ccBfvIcs.s 			page 105


 3439 002e 013B     		subs	r3, r3, #1
 3440              	.LVL312:
 745:System/shell/shell.c ****         {
 3441              		.loc 1 745 77 discriminator 3 view .LVU908
 3442 0030 1BB2     		sxth	r3, r3
 3443              	.LVL313:
 745:System/shell/shell.c ****         {
 3444              		.loc 1 745 77 discriminator 3 view .LVU909
 3445 0032 F3E7     		b	.L294
 3446              	.LVL314:
 3447              	.L301:
 745:System/shell/shell.c ****         {
 3448              		.loc 1 745 77 discriminator 3 view .LVU910
 3449              	.LBE22:
 729:System/shell/shell.c ****         shellWriteCommandLine(shell, 1);
 3450              		.loc 1 729 9 is_stmt 1 view .LVU911
 3451 0034 2049     		ldr	r1, .L305
 3452              	.LVL315:
 729:System/shell/shell.c ****         shellWriteCommandLine(shell, 1);
 3453              		.loc 1 729 9 is_stmt 0 view .LVU912
 3454 0036 FFF7FEFF 		bl	shellWriteString
 3455              	.LVL316:
 730:System/shell/shell.c ****         shellWriteString(shell, shell->parser.buffer);
 3456              		.loc 1 730 9 is_stmt 1 view .LVU913
 3457 003a 0121     		movs	r1, #1
 3458 003c 2046     		mov	r0, r4
 3459 003e FFF7FEFF 		bl	shellWriteCommandLine
 3460              	.LVL317:
 731:System/shell/shell.c ****         return;
 3461              		.loc 1 731 9 view .LVU914
 3462 0042 2169     		ldr	r1, [r4, #16]
 3463 0044 2046     		mov	r0, r4
 3464 0046 FFF7FEFF 		bl	shellWriteString
 3465              	.LVL318:
 732:System/shell/shell.c ****     }
 3466              		.loc 1 732 9 view .LVU915
 3467 004a 34E0     		b	.L290
 3468              	.LVL319:
 3469              	.L302:
 738:System/shell/shell.c ****         shell->parser.buffer[shell->parser.length] = 0;
 3470              		.loc 1 738 9 view .LVU916
 738:System/shell/shell.c ****         shell->parser.buffer[shell->parser.length] = 0;
 3471              		.loc 1 738 22 is_stmt 0 view .LVU917
 3472 004c 0269     		ldr	r2, [r0, #16]
 738:System/shell/shell.c ****         shell->parser.buffer[shell->parser.length] = 0;
 3473              		.loc 1 738 50 view .LVU918
 3474 004e 581C     		adds	r0, r3, #1
 3475              	.LVL320:
 738:System/shell/shell.c ****         shell->parser.buffer[shell->parser.length] = 0;
 3476              		.loc 1 738 50 view .LVU919
 3477 0050 A081     		strh	r0, [r4, #12]	@ movhi
 738:System/shell/shell.c ****         shell->parser.buffer[shell->parser.length] = 0;
 3478              		.loc 1 738 54 view .LVU920
 3479 0052 D154     		strb	r1, [r2, r3]
 739:System/shell/shell.c ****         shell->parser.cursor++;
 3480              		.loc 1 739 9 is_stmt 1 view .LVU921
 739:System/shell/shell.c ****         shell->parser.cursor++;
ARM GAS  C:\Users\HUAV\AppData\Local\Temp\ccBfvIcs.s 			page 106


 3481              		.loc 1 739 22 is_stmt 0 view .LVU922
 3482 0054 2269     		ldr	r2, [r4, #16]
 739:System/shell/shell.c ****         shell->parser.cursor++;
 3483              		.loc 1 739 43 view .LVU923
 3484 0056 A389     		ldrh	r3, [r4, #12]
 739:System/shell/shell.c ****         shell->parser.cursor++;
 3485              		.loc 1 739 52 view .LVU924
 3486 0058 0020     		movs	r0, #0
 3487 005a D054     		strb	r0, [r2, r3]
 740:System/shell/shell.c ****         shellWriteByte(shell, data);
 3488              		.loc 1 740 9 is_stmt 1 view .LVU925
 740:System/shell/shell.c ****         shellWriteByte(shell, data);
 3489              		.loc 1 740 22 is_stmt 0 view .LVU926
 3490 005c E389     		ldrh	r3, [r4, #14]
 740:System/shell/shell.c ****         shellWriteByte(shell, data);
 3491              		.loc 1 740 29 view .LVU927
 3492 005e 0133     		adds	r3, r3, #1
 3493 0060 E381     		strh	r3, [r4, #14]	@ movhi
 741:System/shell/shell.c ****     }
 3494              		.loc 1 741 9 is_stmt 1 view .LVU928
 3495 0062 2046     		mov	r0, r4
 3496 0064 FFF7FEFF 		bl	shellWriteByte
 3497              	.LVL321:
 741:System/shell/shell.c ****     }
 3498              		.loc 1 741 9 is_stmt 0 view .LVU929
 3499 0068 25E0     		b	.L290
 3500              	.LVL322:
 3501              	.L303:
 750:System/shell/shell.c ****         shell->parser.buffer[++shell->parser.length] = 0;
 3502              		.loc 1 750 9 is_stmt 1 view .LVU930
 750:System/shell/shell.c ****         shell->parser.buffer[++shell->parser.length] = 0;
 3503              		.loc 1 750 22 is_stmt 0 view .LVU931
 3504 006a 2269     		ldr	r2, [r4, #16]
 750:System/shell/shell.c ****         shell->parser.buffer[++shell->parser.length] = 0;
 3505              		.loc 1 750 43 view .LVU932
 3506 006c E389     		ldrh	r3, [r4, #14]
 3507              	.LVL323:
 750:System/shell/shell.c ****         shell->parser.buffer[++shell->parser.length] = 0;
 3508              		.loc 1 750 50 view .LVU933
 3509 006e 581C     		adds	r0, r3, #1
 3510 0070 E081     		strh	r0, [r4, #14]	@ movhi
 750:System/shell/shell.c ****         shell->parser.buffer[++shell->parser.length] = 0;
 3511              		.loc 1 750 54 view .LVU934
 3512 0072 D154     		strb	r1, [r2, r3]
 751:System/shell/shell.c ****         for (short i = shell->parser.cursor - 1; i < shell->parser.length; i++)
 3513              		.loc 1 751 9 is_stmt 1 view .LVU935
 751:System/shell/shell.c ****         for (short i = shell->parser.cursor - 1; i < shell->parser.length; i++)
 3514              		.loc 1 751 22 is_stmt 0 view .LVU936
 3515 0074 2269     		ldr	r2, [r4, #16]
 751:System/shell/shell.c ****         for (short i = shell->parser.cursor - 1; i < shell->parser.length; i++)
 3516              		.loc 1 751 45 view .LVU937
 3517 0076 A389     		ldrh	r3, [r4, #12]
 751:System/shell/shell.c ****         for (short i = shell->parser.cursor - 1; i < shell->parser.length; i++)
 3518              		.loc 1 751 30 view .LVU938
 3519 0078 0133     		adds	r3, r3, #1
 3520 007a 9BB2     		uxth	r3, r3
 751:System/shell/shell.c ****         for (short i = shell->parser.cursor - 1; i < shell->parser.length; i++)
ARM GAS  C:\Users\HUAV\AppData\Local\Temp\ccBfvIcs.s 			page 107


 3521              		.loc 1 751 54 view .LVU939
 3522 007c A381     		strh	r3, [r4, #12]	@ movhi
 3523 007e 0021     		movs	r1, #0
 3524              	.LVL324:
 751:System/shell/shell.c ****         for (short i = shell->parser.cursor - 1; i < shell->parser.length; i++)
 3525              		.loc 1 751 54 view .LVU940
 3526 0080 D154     		strb	r1, [r2, r3]
 752:System/shell/shell.c ****         {
 3527              		.loc 1 752 9 is_stmt 1 view .LVU941
 3528              	.LBB23:
 752:System/shell/shell.c ****         {
 3529              		.loc 1 752 14 view .LVU942
 752:System/shell/shell.c ****         {
 3530              		.loc 1 752 37 is_stmt 0 view .LVU943
 3531 0082 E689     		ldrh	r6, [r4, #14]
 752:System/shell/shell.c ****         {
 3532              		.loc 1 752 45 view .LVU944
 3533 0084 013E     		subs	r6, r6, #1
 752:System/shell/shell.c ****         {
 3534              		.loc 1 752 20 view .LVU945
 3535 0086 36B2     		sxth	r6, r6
 3536              	.LVL325:
 3537              	.L296:
 752:System/shell/shell.c ****         {
 3538              		.loc 1 752 50 is_stmt 1 discriminator 1 view .LVU946
 752:System/shell/shell.c ****         {
 3539              		.loc 1 752 67 is_stmt 0 discriminator 1 view .LVU947
 3540 0088 A589     		ldrh	r5, [r4, #12]
 752:System/shell/shell.c ****         {
 3541              		.loc 1 752 9 discriminator 1 view .LVU948
 3542 008a AE42     		cmp	r6, r5
 3543 008c 07DA     		bge	.L304
 754:System/shell/shell.c ****         }
 3544              		.loc 1 754 13 is_stmt 1 discriminator 3 view .LVU949
 754:System/shell/shell.c ****         }
 3545              		.loc 1 754 48 is_stmt 0 discriminator 3 view .LVU950
 3546 008e 2369     		ldr	r3, [r4, #16]
 754:System/shell/shell.c ****         }
 3547              		.loc 1 754 13 discriminator 3 view .LVU951
 3548 0090 995D     		ldrb	r1, [r3, r6]	@ zero_extendqisi2
 3549 0092 2046     		mov	r0, r4
 3550 0094 FFF7FEFF 		bl	shellWriteByte
 3551              	.LVL326:
 752:System/shell/shell.c ****         {
 3552              		.loc 1 752 76 is_stmt 1 discriminator 3 view .LVU952
 752:System/shell/shell.c ****         {
 3553              		.loc 1 752 77 is_stmt 0 discriminator 3 view .LVU953
 3554 0098 0136     		adds	r6, r6, #1
 3555              	.LVL327:
 752:System/shell/shell.c ****         {
 3556              		.loc 1 752 77 discriminator 3 view .LVU954
 3557 009a 36B2     		sxth	r6, r6
 3558              	.LVL328:
 752:System/shell/shell.c ****         {
 3559              		.loc 1 752 77 discriminator 3 view .LVU955
 3560 009c F4E7     		b	.L296
 3561              	.L304:
ARM GAS  C:\Users\HUAV\AppData\Local\Temp\ccBfvIcs.s 			page 108


 752:System/shell/shell.c ****         {
 3562              		.loc 1 752 77 discriminator 3 view .LVU956
 3563              	.LBE23:
 756:System/shell/shell.c ****         {
 3564              		.loc 1 756 9 is_stmt 1 view .LVU957
 3565              	.LBB24:
 756:System/shell/shell.c ****         {
 3566              		.loc 1 756 14 view .LVU958
 756:System/shell/shell.c ****         {
 3567              		.loc 1 756 60 is_stmt 0 view .LVU959
 3568 009e E389     		ldrh	r3, [r4, #14]
 756:System/shell/shell.c ****         {
 3569              		.loc 1 756 45 view .LVU960
 3570 00a0 ED1A     		subs	r5, r5, r3
 756:System/shell/shell.c ****         {
 3571              		.loc 1 756 20 view .LVU961
 3572 00a2 2DB2     		sxth	r5, r5
 3573              	.LVL329:
 756:System/shell/shell.c ****         {
 3574              		.loc 1 756 9 view .LVU962
 3575 00a4 05E0     		b	.L298
 3576              	.L299:
 758:System/shell/shell.c ****         }
 3577              		.loc 1 758 13 is_stmt 1 discriminator 3 view .LVU963
 3578 00a6 0821     		movs	r1, #8
 3579 00a8 2046     		mov	r0, r4
 3580 00aa FFF7FEFF 		bl	shellWriteByte
 3581              	.LVL330:
 756:System/shell/shell.c ****         {
 3582              		.loc 1 756 76 discriminator 3 view .LVU964
 756:System/shell/shell.c ****         {
 3583              		.loc 1 756 77 is_stmt 0 discriminator 3 view .LVU965
 3584 00ae 013D     		subs	r5, r5, #1
 3585              	.LVL331:
 756:System/shell/shell.c ****         {
 3586              		.loc 1 756 77 discriminator 3 view .LVU966
 3587 00b0 2DB2     		sxth	r5, r5
 3588              	.LVL332:
 3589              	.L298:
 756:System/shell/shell.c ****         {
 3590              		.loc 1 756 69 is_stmt 1 discriminator 1 view .LVU967
 756:System/shell/shell.c ****         {
 3591              		.loc 1 756 9 is_stmt 0 discriminator 1 view .LVU968
 3592 00b2 002D     		cmp	r5, #0
 3593 00b4 F7DC     		bgt	.L299
 3594              	.LVL333:
 3595              	.L290:
 756:System/shell/shell.c ****         {
 3596              		.loc 1 756 9 discriminator 1 view .LVU969
 3597              	.LBE24:
 761:System/shell/shell.c **** 
 3598              		.loc 1 761 1 view .LVU970
 3599 00b6 70BD     		pop	{r4, r5, r6, pc}
 3600              	.LVL334:
 3601              	.L306:
 761:System/shell/shell.c **** 
 3602              		.loc 1 761 1 view .LVU971
ARM GAS  C:\Users\HUAV\AppData\Local\Temp\ccBfvIcs.s 			page 109


 3603              		.align	2
 3604              	.L305:
 3605 00b8 00000000 		.word	.LC21
 3606              		.cfi_endproc
 3607              	.LFE27:
 3609              		.section	.text.shellDeleteByte,"ax",%progbits
 3610              		.align	1
 3611              		.global	shellDeleteByte
 3612              		.syntax unified
 3613              		.thumb
 3614              		.thumb_func
 3615              		.fpu fpv5-d16
 3617              	shellDeleteByte:
 3618              	.LVL335:
 3619              	.LFB28:
 770:System/shell/shell.c ****     char offset = (direction == -1) ? 1 : 0;
 3620              		.loc 1 770 1 is_stmt 1 view -0
 3621              		.cfi_startproc
 3622              		@ args = 0, pretend = 0, frame = 0
 3623              		@ frame_needed = 0, uses_anonymous_args = 0
 770:System/shell/shell.c ****     char offset = (direction == -1) ? 1 : 0;
 3624              		.loc 1 770 1 is_stmt 0 view .LVU973
 3625 0000 38B5     		push	{r3, r4, r5, lr}
 3626              	.LCFI54:
 3627              		.cfi_def_cfa_offset 16
 3628              		.cfi_offset 3, -16
 3629              		.cfi_offset 4, -12
 3630              		.cfi_offset 5, -8
 3631              		.cfi_offset 14, -4
 3632 0002 0446     		mov	r4, r0
 771:System/shell/shell.c **** 
 3633              		.loc 1 771 5 is_stmt 1 view .LVU974
 771:System/shell/shell.c **** 
 3634              		.loc 1 771 41 is_stmt 0 view .LVU975
 3635 0004 B1F1FF3F 		cmp	r1, #-1
 3636 0008 14BF     		ite	ne
 3637 000a 0023     		movne	r3, #0
 3638 000c 0123     		moveq	r3, #1
 3639              	.LVL336:
 773:System/shell/shell.c ****     {
 3640              		.loc 1 773 5 is_stmt 1 view .LVU976
 773:System/shell/shell.c ****     {
 3641              		.loc 1 773 23 is_stmt 0 view .LVU977
 3642 000e C289     		ldrh	r2, [r0, #14]
 773:System/shell/shell.c ****     {
 3643              		.loc 1 773 8 view .LVU978
 3644 0010 0AB9     		cbnz	r2, .L308
 773:System/shell/shell.c ****     {
 3645              		.loc 1 773 36 discriminator 1 view .LVU979
 3646 0012 0129     		cmp	r1, #1
 3647 0014 55D0     		beq	.L307
 3648              	.L308:
 773:System/shell/shell.c ****     {
 3649              		.loc 1 773 96 discriminator 3 view .LVU980
 3650 0016 A089     		ldrh	r0, [r4, #12]
 3651              	.LVL337:
 773:System/shell/shell.c ****     {
ARM GAS  C:\Users\HUAV\AppData\Local\Temp\ccBfvIcs.s 			page 110


 3652              		.loc 1 773 55 discriminator 3 view .LVU981
 3653 0018 8242     		cmp	r2, r0
 3654 001a 0FD0     		beq	.L320
 3655              	.L310:
 777:System/shell/shell.c ****     {
 3656              		.loc 1 777 5 is_stmt 1 view .LVU982
 777:System/shell/shell.c ****     {
 3657              		.loc 1 777 8 is_stmt 0 view .LVU983
 3658 001c 8242     		cmp	r2, r0
 3659 001e 11D0     		beq	.L321
 3660              	.L311:
 786:System/shell/shell.c ****         {
 3661              		.loc 1 786 9 is_stmt 1 view .LVU984
 3662              	.LBB25:
 786:System/shell/shell.c ****         {
 3663              		.loc 1 786 14 view .LVU985
 786:System/shell/shell.c ****         {
 3664              		.loc 1 786 20 is_stmt 0 view .LVU986
 3665 0020 1BB2     		sxth	r3, r3
 3666              	.LVL338:
 3667              	.L312:
 786:System/shell/shell.c ****         {
 3668              		.loc 1 786 32 is_stmt 1 discriminator 1 view .LVU987
 786:System/shell/shell.c ****         {
 3669              		.loc 1 786 49 is_stmt 0 discriminator 1 view .LVU988
 3670 0022 A089     		ldrh	r0, [r4, #12]
 786:System/shell/shell.c ****         {
 3671              		.loc 1 786 72 discriminator 1 view .LVU989
 3672 0024 E289     		ldrh	r2, [r4, #14]
 786:System/shell/shell.c ****         {
 3673              		.loc 1 786 57 discriminator 1 view .LVU990
 3674 0026 851A     		subs	r5, r0, r2
 786:System/shell/shell.c ****         {
 3675              		.loc 1 786 9 discriminator 1 view .LVU991
 3676 0028 AB42     		cmp	r3, r5
 3677 002a 1ADA     		bge	.L322
 788:System/shell/shell.c ****                 shell->parser.buffer[shell->parser.cursor + i];
 3678              		.loc 1 788 13 is_stmt 1 discriminator 3 view .LVU992
 789:System/shell/shell.c ****         }
 3679              		.loc 1 789 30 is_stmt 0 discriminator 3 view .LVU993
 3680 002c 2069     		ldr	r0, [r4, #16]
 789:System/shell/shell.c ****         }
 3681              		.loc 1 789 59 discriminator 3 view .LVU994
 3682 002e 1A44     		add	r2, r2, r3
 788:System/shell/shell.c ****                 shell->parser.buffer[shell->parser.cursor + i];
 3683              		.loc 1 788 33 discriminator 3 view .LVU995
 3684 0030 551E     		subs	r5, r2, #1
 789:System/shell/shell.c ****         }
 3685              		.loc 1 789 37 discriminator 3 view .LVU996
 3686 0032 825C     		ldrb	r2, [r0, r2]	@ zero_extendqisi2
 788:System/shell/shell.c ****                 shell->parser.buffer[shell->parser.cursor + i];
 3687              		.loc 1 788 64 discriminator 3 view .LVU997
 3688 0034 4255     		strb	r2, [r0, r5]
 786:System/shell/shell.c ****         {
 3689              		.loc 1 786 81 is_stmt 1 discriminator 3 view .LVU998
 786:System/shell/shell.c ****         {
 3690              		.loc 1 786 82 is_stmt 0 discriminator 3 view .LVU999
ARM GAS  C:\Users\HUAV\AppData\Local\Temp\ccBfvIcs.s 			page 111


 3691 0036 0133     		adds	r3, r3, #1
 3692              	.LVL339:
 786:System/shell/shell.c ****         {
 3693              		.loc 1 786 82 discriminator 3 view .LVU1000
 3694 0038 1BB2     		sxth	r3, r3
 3695              	.LVL340:
 786:System/shell/shell.c ****         {
 3696              		.loc 1 786 82 discriminator 3 view .LVU1001
 3697 003a F2E7     		b	.L312
 3698              	.LVL341:
 3699              	.L320:
 786:System/shell/shell.c ****         {
 3700              		.loc 1 786 82 discriminator 3 view .LVU1002
 3701              	.LBE25:
 773:System/shell/shell.c ****     {
 3702              		.loc 1 773 104 discriminator 4 view .LVU1003
 3703 003c B1F1FF3F 		cmp	r1, #-1
 3704 0040 ECD1     		bne	.L310
 3705 0042 3EE0     		b	.L307
 3706              	.L321:
 777:System/shell/shell.c ****     {
 3707              		.loc 1 777 54 discriminator 1 view .LVU1004
 3708 0044 0129     		cmp	r1, #1
 3709 0046 EBD1     		bne	.L311
 779:System/shell/shell.c ****         shell->parser.length--;
 3710              		.loc 1 779 9 is_stmt 1 view .LVU1005
 779:System/shell/shell.c ****         shell->parser.length--;
 3711              		.loc 1 779 29 is_stmt 0 view .LVU1006
 3712 0048 013A     		subs	r2, r2, #1
 3713 004a E281     		strh	r2, [r4, #14]	@ movhi
 780:System/shell/shell.c ****         shell->parser.buffer[shell->parser.length] = 0;
 3714              		.loc 1 780 9 is_stmt 1 view .LVU1007
 780:System/shell/shell.c ****         shell->parser.buffer[shell->parser.length] = 0;
 3715              		.loc 1 780 29 is_stmt 0 view .LVU1008
 3716 004c 431E     		subs	r3, r0, #1
 3717              	.LVL342:
 780:System/shell/shell.c ****         shell->parser.buffer[shell->parser.length] = 0;
 3718              		.loc 1 780 29 view .LVU1009
 3719 004e 9BB2     		uxth	r3, r3
 3720 0050 A381     		strh	r3, [r4, #12]	@ movhi
 781:System/shell/shell.c ****         shellDeleteCommandLine(shell, 1);
 3721              		.loc 1 781 9 is_stmt 1 view .LVU1010
 781:System/shell/shell.c ****         shellDeleteCommandLine(shell, 1);
 3722              		.loc 1 781 22 is_stmt 0 view .LVU1011
 3723 0052 2269     		ldr	r2, [r4, #16]
 781:System/shell/shell.c ****         shellDeleteCommandLine(shell, 1);
 3724              		.loc 1 781 52 view .LVU1012
 3725 0054 0021     		movs	r1, #0
 3726              	.LVL343:
 781:System/shell/shell.c ****         shellDeleteCommandLine(shell, 1);
 3727              		.loc 1 781 52 view .LVU1013
 3728 0056 D154     		strb	r1, [r2, r3]
 782:System/shell/shell.c ****     }
 3729              		.loc 1 782 9 is_stmt 1 view .LVU1014
 3730 0058 0121     		movs	r1, #1
 3731 005a 2046     		mov	r0, r4
 3732 005c FFF7FEFF 		bl	shellDeleteCommandLine
ARM GAS  C:\Users\HUAV\AppData\Local\Temp\ccBfvIcs.s 			page 112


 3733              	.LVL344:
 3734 0060 2FE0     		b	.L307
 3735              	.LVL345:
 3736              	.L322:
 791:System/shell/shell.c ****         if (!offset)
 3737              		.loc 1 791 9 view .LVU1015
 791:System/shell/shell.c ****         if (!offset)
 3738              		.loc 1 791 29 is_stmt 0 view .LVU1016
 3739 0062 0138     		subs	r0, r0, #1
 3740 0064 A081     		strh	r0, [r4, #12]	@ movhi
 792:System/shell/shell.c ****         {
 3741              		.loc 1 792 9 is_stmt 1 view .LVU1017
 792:System/shell/shell.c ****         {
 3742              		.loc 1 792 12 is_stmt 0 view .LVU1018
 3743 0066 B1F1FF3F 		cmp	r1, #-1
 3744 006a 06D1     		bne	.L323
 3745              	.LVL346:
 3746              	.L314:
 797:System/shell/shell.c ****         for (short i = shell->parser.cursor; i < shell->parser.length; i++)
 3747              		.loc 1 797 9 is_stmt 1 view .LVU1019
 797:System/shell/shell.c ****         for (short i = shell->parser.cursor; i < shell->parser.length; i++)
 3748              		.loc 1 797 22 is_stmt 0 view .LVU1020
 3749 006c 2269     		ldr	r2, [r4, #16]
 797:System/shell/shell.c ****         for (short i = shell->parser.cursor; i < shell->parser.length; i++)
 3750              		.loc 1 797 43 view .LVU1021
 3751 006e A389     		ldrh	r3, [r4, #12]
 797:System/shell/shell.c ****         for (short i = shell->parser.cursor; i < shell->parser.length; i++)
 3752              		.loc 1 797 52 view .LVU1022
 3753 0070 0021     		movs	r1, #0
 3754 0072 D154     		strb	r1, [r2, r3]
 798:System/shell/shell.c ****         {
 3755              		.loc 1 798 9 is_stmt 1 view .LVU1023
 3756              	.LBB26:
 798:System/shell/shell.c ****         {
 3757              		.loc 1 798 14 view .LVU1024
 798:System/shell/shell.c ****         {
 3758              		.loc 1 798 20 is_stmt 0 view .LVU1025
 3759 0074 B4F90E50 		ldrsh	r5, [r4, #14]
 3760              	.LVL347:
 798:System/shell/shell.c ****         {
 3761              		.loc 1 798 9 view .LVU1026
 3762 0078 0DE0     		b	.L315
 3763              	.LVL348:
 3764              	.L323:
 798:System/shell/shell.c ****         {
 3765              		.loc 1 798 9 view .LVU1027
 3766              	.LBE26:
 794:System/shell/shell.c ****             shellWriteByte(shell, '\b');
 3767              		.loc 1 794 13 is_stmt 1 view .LVU1028
 794:System/shell/shell.c ****             shellWriteByte(shell, '\b');
 3768              		.loc 1 794 33 is_stmt 0 view .LVU1029
 3769 007a 013A     		subs	r2, r2, #1
 3770 007c E281     		strh	r2, [r4, #14]	@ movhi
 795:System/shell/shell.c ****         }
 3771              		.loc 1 795 13 is_stmt 1 view .LVU1030
 3772 007e 0821     		movs	r1, #8
 3773              	.LVL349:
ARM GAS  C:\Users\HUAV\AppData\Local\Temp\ccBfvIcs.s 			page 113


 795:System/shell/shell.c ****         }
 3774              		.loc 1 795 13 is_stmt 0 view .LVU1031
 3775 0080 2046     		mov	r0, r4
 3776 0082 FFF7FEFF 		bl	shellWriteByte
 3777              	.LVL350:
 795:System/shell/shell.c ****         }
 3778              		.loc 1 795 13 view .LVU1032
 3779 0086 F1E7     		b	.L314
 3780              	.LVL351:
 3781              	.L316:
 3782              	.LBB27:
 800:System/shell/shell.c ****         }
 3783              		.loc 1 800 13 is_stmt 1 discriminator 3 view .LVU1033
 800:System/shell/shell.c ****         }
 3784              		.loc 1 800 48 is_stmt 0 discriminator 3 view .LVU1034
 3785 0088 2369     		ldr	r3, [r4, #16]
 800:System/shell/shell.c ****         }
 3786              		.loc 1 800 13 discriminator 3 view .LVU1035
 3787 008a 595D     		ldrb	r1, [r3, r5]	@ zero_extendqisi2
 3788 008c 2046     		mov	r0, r4
 3789 008e FFF7FEFF 		bl	shellWriteByte
 3790              	.LVL352:
 798:System/shell/shell.c ****         {
 3791              		.loc 1 798 72 is_stmt 1 discriminator 3 view .LVU1036
 798:System/shell/shell.c ****         {
 3792              		.loc 1 798 73 is_stmt 0 discriminator 3 view .LVU1037
 3793 0092 0135     		adds	r5, r5, #1
 3794              	.LVL353:
 798:System/shell/shell.c ****         {
 3795              		.loc 1 798 73 discriminator 3 view .LVU1038
 3796 0094 2DB2     		sxth	r5, r5
 3797              	.LVL354:
 3798              	.L315:
 798:System/shell/shell.c ****         {
 3799              		.loc 1 798 46 is_stmt 1 discriminator 1 view .LVU1039
 798:System/shell/shell.c ****         {
 3800              		.loc 1 798 63 is_stmt 0 discriminator 1 view .LVU1040
 3801 0096 A389     		ldrh	r3, [r4, #12]
 798:System/shell/shell.c ****         {
 3802              		.loc 1 798 9 discriminator 1 view .LVU1041
 3803 0098 9D42     		cmp	r5, r3
 3804 009a F5DB     		blt	.L316
 798:System/shell/shell.c ****         {
 3805              		.loc 1 798 9 discriminator 1 view .LVU1042
 3806              	.LBE27:
 802:System/shell/shell.c ****         for (short i = shell->parser.length - shell->parser.cursor + 1; i > 0; i--)
 3807              		.loc 1 802 9 is_stmt 1 view .LVU1043
 3808 009c 2021     		movs	r1, #32
 3809 009e 2046     		mov	r0, r4
 3810 00a0 FFF7FEFF 		bl	shellWriteByte
 3811              	.LVL355:
 803:System/shell/shell.c ****         {
 3812              		.loc 1 803 9 view .LVU1044
 3813              	.LBB28:
 803:System/shell/shell.c ****         {
 3814              		.loc 1 803 14 view .LVU1045
 803:System/shell/shell.c ****         {
ARM GAS  C:\Users\HUAV\AppData\Local\Temp\ccBfvIcs.s 			page 114


 3815              		.loc 1 803 37 is_stmt 0 view .LVU1046
 3816 00a4 A589     		ldrh	r5, [r4, #12]
 3817              	.LVL356:
 803:System/shell/shell.c ****         {
 3818              		.loc 1 803 60 view .LVU1047
 3819 00a6 E389     		ldrh	r3, [r4, #14]
 803:System/shell/shell.c ****         {
 3820              		.loc 1 803 45 view .LVU1048
 3821 00a8 ED1A     		subs	r5, r5, r3
 3822 00aa ADB2     		uxth	r5, r5
 803:System/shell/shell.c ****         {
 3823              		.loc 1 803 68 view .LVU1049
 3824 00ac 0135     		adds	r5, r5, #1
 803:System/shell/shell.c ****         {
 3825              		.loc 1 803 20 view .LVU1050
 3826 00ae 2DB2     		sxth	r5, r5
 3827              	.LVL357:
 803:System/shell/shell.c ****         {
 3828              		.loc 1 803 9 view .LVU1051
 3829 00b0 05E0     		b	.L317
 3830              	.L318:
 805:System/shell/shell.c ****         }
 3831              		.loc 1 805 13 is_stmt 1 discriminator 3 view .LVU1052
 3832 00b2 0821     		movs	r1, #8
 3833 00b4 2046     		mov	r0, r4
 3834 00b6 FFF7FEFF 		bl	shellWriteByte
 3835              	.LVL358:
 803:System/shell/shell.c ****         {
 3836              		.loc 1 803 80 discriminator 3 view .LVU1053
 803:System/shell/shell.c ****         {
 3837              		.loc 1 803 81 is_stmt 0 discriminator 3 view .LVU1054
 3838 00ba 013D     		subs	r5, r5, #1
 3839              	.LVL359:
 803:System/shell/shell.c ****         {
 3840              		.loc 1 803 81 discriminator 3 view .LVU1055
 3841 00bc 2DB2     		sxth	r5, r5
 3842              	.LVL360:
 3843              	.L317:
 803:System/shell/shell.c ****         {
 3844              		.loc 1 803 73 is_stmt 1 discriminator 1 view .LVU1056
 803:System/shell/shell.c ****         {
 3845              		.loc 1 803 9 is_stmt 0 discriminator 1 view .LVU1057
 3846 00be 002D     		cmp	r5, #0
 3847 00c0 F7DC     		bgt	.L318
 3848              	.LVL361:
 3849              	.L307:
 803:System/shell/shell.c ****         {
 3850              		.loc 1 803 9 discriminator 1 view .LVU1058
 3851              	.LBE28:
 808:System/shell/shell.c **** 
 3852              		.loc 1 808 1 view .LVU1059
 3853 00c2 38BD     		pop	{r3, r4, r5, pc}
 808:System/shell/shell.c **** 
 3854              		.loc 1 808 1 view .LVU1060
 3855              		.cfi_endproc
 3856              	.LFE28:
 3858              		.section	.text.shellBackspace,"ax",%progbits
ARM GAS  C:\Users\HUAV\AppData\Local\Temp\ccBfvIcs.s 			page 115


 3859              		.align	1
 3860              		.global	shellBackspace
 3861              		.syntax unified
 3862              		.thumb
 3863              		.thumb_func
 3864              		.fpu fpv5-d16
 3866              	shellBackspace:
 3867              	.LVL362:
 3868              	.LFB49:
1485:System/shell/shell.c ****     shellDeleteByte(shell, 1);
 3869              		.loc 1 1485 1 is_stmt 1 view -0
 3870              		.cfi_startproc
 3871              		@ args = 0, pretend = 0, frame = 0
 3872              		@ frame_needed = 0, uses_anonymous_args = 0
1485:System/shell/shell.c ****     shellDeleteByte(shell, 1);
 3873              		.loc 1 1485 1 is_stmt 0 view .LVU1062
 3874 0000 08B5     		push	{r3, lr}
 3875              	.LCFI55:
 3876              		.cfi_def_cfa_offset 8
 3877              		.cfi_offset 3, -8
 3878              		.cfi_offset 14, -4
1486:System/shell/shell.c **** }
 3879              		.loc 1 1486 5 is_stmt 1 view .LVU1063
 3880 0002 0121     		movs	r1, #1
 3881 0004 FFF7FEFF 		bl	shellDeleteByte
 3882              	.LVL363:
1487:System/shell/shell.c **** SHELL_EXPORT_KEY(SHELL_CMD_PERMISSION(0) | SHELL_CMD_ENABLE_UNCHECKED,
 3883              		.loc 1 1487 1 is_stmt 0 view .LVU1064
 3884 0008 08BD     		pop	{r3, pc}
 3885              		.cfi_endproc
 3886              	.LFE49:
 3888              		.section	.text.shellDelete,"ax",%progbits
 3889              		.align	1
 3890              		.global	shellDelete
 3891              		.syntax unified
 3892              		.thumb
 3893              		.thumb_func
 3894              		.fpu fpv5-d16
 3896              	shellDelete:
 3897              	.LVL364:
 3898              	.LFB50:
1499:System/shell/shell.c ****     shellDeleteByte(shell, -1);
 3899              		.loc 1 1499 1 is_stmt 1 view -0
 3900              		.cfi_startproc
 3901              		@ args = 0, pretend = 0, frame = 0
 3902              		@ frame_needed = 0, uses_anonymous_args = 0
1499:System/shell/shell.c ****     shellDeleteByte(shell, -1);
 3903              		.loc 1 1499 1 is_stmt 0 view .LVU1066
 3904 0000 08B5     		push	{r3, lr}
 3905              	.LCFI56:
 3906              		.cfi_def_cfa_offset 8
 3907              		.cfi_offset 3, -8
 3908              		.cfi_offset 14, -4
1500:System/shell/shell.c **** }
 3909              		.loc 1 1500 5 is_stmt 1 view .LVU1067
 3910 0002 4FF0FF31 		mov	r1, #-1
 3911 0006 FFF7FEFF 		bl	shellDeleteByte
ARM GAS  C:\Users\HUAV\AppData\Local\Temp\ccBfvIcs.s 			page 116


 3912              	.LVL365:
1501:System/shell/shell.c **** SHELL_EXPORT_KEY(SHELL_CMD_PERMISSION(0) | SHELL_CMD_ENABLE_UNCHECKED,
 3913              		.loc 1 1501 1 is_stmt 0 view .LVU1068
 3914 000a 08BD     		pop	{r3, pc}
 3915              		.cfi_endproc
 3916              	.LFE50:
 3918              		.section	.text.shellSeekCommand,"ax",%progbits
 3919              		.align	1
 3920              		.global	shellSeekCommand
 3921              		.syntax unified
 3922              		.thumb
 3923              		.thumb_func
 3924              		.fpu fpv5-d16
 3926              	shellSeekCommand:
 3927              	.LVL366:
 3928              	.LFB31:
 892:System/shell/shell.c ****     const char *name;
 3929              		.loc 1 892 1 is_stmt 1 view -0
 3930              		.cfi_startproc
 3931              		@ args = 0, pretend = 0, frame = 0
 3932              		@ frame_needed = 0, uses_anonymous_args = 0
 892:System/shell/shell.c ****     const char *name;
 3933              		.loc 1 892 1 is_stmt 0 view .LVU1070
 3934 0000 2DE9F84F 		push	{r3, r4, r5, r6, r7, r8, r9, r10, fp, lr}
 3935              	.LCFI57:
 3936              		.cfi_def_cfa_offset 40
 3937              		.cfi_offset 3, -40
 3938              		.cfi_offset 4, -36
 3939              		.cfi_offset 5, -32
 3940              		.cfi_offset 6, -28
 3941              		.cfi_offset 7, -24
 3942              		.cfi_offset 8, -20
 3943              		.cfi_offset 9, -16
 3944              		.cfi_offset 10, -12
 3945              		.cfi_offset 11, -8
 3946              		.cfi_offset 14, -4
 3947 0004 8146     		mov	r9, r0
 3948 0006 8B46     		mov	fp, r1
 3949 0008 9046     		mov	r8, r2
 3950 000a 9A46     		mov	r10, r3
 893:System/shell/shell.c ****     int ret;
 3951              		.loc 1 893 5 is_stmt 1 view .LVU1071
 894:System/shell/shell.c ****     unsigned short count = shell->commandList.count -
 3952              		.loc 1 894 5 view .LVU1072
 895:System/shell/shell.c ****                            ((int)base - (int)shell->commandList.base) / sizeof(ShellCommand);
 3953              		.loc 1 895 5 view .LVU1073
 895:System/shell/shell.c ****                            ((int)base - (int)shell->commandList.base) / sizeof(ShellCommand);
 3954              		.loc 1 895 46 is_stmt 0 view .LVU1074
 3955 000c B0F85C70 		ldrh	r7, [r0, #92]
 896:System/shell/shell.c ****     for (unsigned short i = 0; i < count; i++)
 3956              		.loc 1 896 64 view .LVU1075
 3957 0010 836D     		ldr	r3, [r0, #88]
 3958              	.LVL367:
 896:System/shell/shell.c ****     for (unsigned short i = 0; i < count; i++)
 3959              		.loc 1 896 39 view .LVU1076
 3960 0012 D31A     		subs	r3, r2, r3
 895:System/shell/shell.c ****                            ((int)base - (int)shell->commandList.base) / sizeof(ShellCommand);
ARM GAS  C:\Users\HUAV\AppData\Local\Temp\ccBfvIcs.s 			page 117


 3961              		.loc 1 895 53 view .LVU1077
 3962 0014 C3F30F13 		ubfx	r3, r3, #4, #16
 895:System/shell/shell.c ****                            ((int)base - (int)shell->commandList.base) / sizeof(ShellCommand);
 3963              		.loc 1 895 20 view .LVU1078
 3964 0018 FB1A     		subs	r3, r7, r3
 3965 001a 9FB2     		uxth	r7, r3
 3966              	.LVL368:
 897:System/shell/shell.c ****     {
 3967              		.loc 1 897 5 is_stmt 1 view .LVU1079
 3968              	.LBB29:
 897:System/shell/shell.c ****     {
 3969              		.loc 1 897 10 view .LVU1080
 897:System/shell/shell.c ****     {
 3970              		.loc 1 897 25 is_stmt 0 view .LVU1081
 3971 001c 0024     		movs	r4, #0
 897:System/shell/shell.c ****     {
 3972              		.loc 1 897 5 view .LVU1082
 3973 001e 06E0     		b	.L329
 3974              	.LVL369:
 3975              	.L331:
 914:System/shell/shell.c ****             {
 3976              		.loc 1 914 13 is_stmt 1 view .LVU1083
 914:System/shell/shell.c ****             {
 3977              		.loc 1 914 17 is_stmt 0 view .LVU1084
 3978 0020 5246     		mov	r2, r10
 3979 0022 5846     		mov	r0, fp
 3980              	.LVL370:
 914:System/shell/shell.c ****             {
 3981              		.loc 1 914 17 view .LVU1085
 3982 0024 FFF7FEFF 		bl	strncmp
 3983              	.LVL371:
 914:System/shell/shell.c ****             {
 3984              		.loc 1 914 16 view .LVU1086
 3985 0028 F0B1     		cbz	r0, .L328
 3986              	.L330:
 897:System/shell/shell.c ****     {
 3987              		.loc 1 897 43 is_stmt 1 discriminator 2 view .LVU1087
 897:System/shell/shell.c ****     {
 3988              		.loc 1 897 44 is_stmt 0 discriminator 2 view .LVU1088
 3989 002a 0134     		adds	r4, r4, #1
 3990              	.LVL372:
 897:System/shell/shell.c ****     {
 3991              		.loc 1 897 44 discriminator 2 view .LVU1089
 3992 002c A4B2     		uxth	r4, r4
 3993              	.LVL373:
 3994              	.L329:
 897:System/shell/shell.c ****     {
 3995              		.loc 1 897 32 is_stmt 1 discriminator 1 view .LVU1090
 897:System/shell/shell.c ****     {
 3996              		.loc 1 897 5 is_stmt 0 discriminator 1 view .LVU1091
 3997 002e BC42     		cmp	r4, r7
 3998 0030 19D2     		bcs	.L335
 899:System/shell/shell.c ****         {
 3999              		.loc 1 899 9 is_stmt 1 view .LVU1092
 899:System/shell/shell.c ****         {
 4000              		.loc 1 899 17 is_stmt 0 view .LVU1093
 4001 0032 08EB0416 		add	r6, r8, r4, lsl #4
ARM GAS  C:\Users\HUAV\AppData\Local\Temp\ccBfvIcs.s 			page 118


 899:System/shell/shell.c ****         {
 4002              		.loc 1 899 37 view .LVU1094
 4003 0036 7578     		ldrb	r5, [r6, #1]	@ zero_extendqisi2
 4004 0038 05F00F05 		and	r5, r5, #15
 899:System/shell/shell.c ****         {
 4005              		.loc 1 899 12 view .LVU1095
 4006 003c 092D     		cmp	r5, #9
 4007 003e F4D0     		beq	.L330
 899:System/shell/shell.c ****         {
 4008              		.loc 1 899 58 discriminator 1 view .LVU1096
 4009 0040 3146     		mov	r1, r6
 4010 0042 4846     		mov	r0, r9
 4011 0044 FFF7FEFF 		bl	shellCheckPermission
 4012              	.LVL374:
 899:System/shell/shell.c ****         {
 4013              		.loc 1 899 55 discriminator 1 view .LVU1097
 4014 0048 0028     		cmp	r0, #0
 4015 004a EED1     		bne	.L330
 903:System/shell/shell.c ****         if (!compareLength)
 4016              		.loc 1 903 9 is_stmt 1 view .LVU1098
 903:System/shell/shell.c ****         if (!compareLength)
 4017              		.loc 1 903 16 is_stmt 0 view .LVU1099
 4018 004c 3046     		mov	r0, r6
 4019 004e FFF7FEFF 		bl	shellGetCommandName
 4020              	.LVL375:
 4021 0052 0146     		mov	r1, r0
 4022              	.LVL376:
 904:System/shell/shell.c ****         {
 4023              		.loc 1 904 9 is_stmt 1 view .LVU1100
 904:System/shell/shell.c ****         {
 4024              		.loc 1 904 12 is_stmt 0 view .LVU1101
 4025 0054 BAF1000F 		cmp	r10, #0
 4026 0058 E2D1     		bne	.L331
 906:System/shell/shell.c ****             if (strcmp(cmd, name) == 0)
 4027              		.loc 1 906 13 is_stmt 1 view .LVU1102
 906:System/shell/shell.c ****             if (strcmp(cmd, name) == 0)
 4028              		.loc 1 906 19 is_stmt 0 view .LVU1103
 4029 005a 5846     		mov	r0, fp
 4030              	.LVL377:
 906:System/shell/shell.c ****             if (strcmp(cmd, name) == 0)
 4031              		.loc 1 906 19 view .LVU1104
 4032 005c FFF7FEFF 		bl	strcmp
 4033              	.LVL378:
 907:System/shell/shell.c ****             {
 4034              		.loc 1 907 13 is_stmt 1 view .LVU1105
 907:System/shell/shell.c ****             {
 4035              		.loc 1 907 16 is_stmt 0 view .LVU1106
 4036 0060 0028     		cmp	r0, #0
 4037 0062 E2D1     		bne	.L330
 4038 0064 00E0     		b	.L328
 4039              	.LVL379:
 4040              	.L335:
 907:System/shell/shell.c ****             {
 4041              		.loc 1 907 16 view .LVU1107
 4042              	.LBE29:
 920:System/shell/shell.c **** }
 4043              		.loc 1 920 12 view .LVU1108
ARM GAS  C:\Users\HUAV\AppData\Local\Temp\ccBfvIcs.s 			page 119


 4044 0066 0026     		movs	r6, #0
 4045              	.L328:
 921:System/shell/shell.c **** 
 4046              		.loc 1 921 1 view .LVU1109
 4047 0068 3046     		mov	r0, r6
 4048 006a BDE8F88F 		pop	{r3, r4, r5, r6, r7, r8, r9, r10, fp, pc}
 921:System/shell/shell.c **** 
 4049              		.loc 1 921 1 view .LVU1110
 4050              		.cfi_endproc
 4051              	.LFE31:
 4053              		.section	.rodata.shellInit.str1.4,"aMS",%progbits,1
 4054              		.align	2
 4055              	.LC22:
 4056 0000 502E302E 		.ascii	"P.0.Wder Squad\000"
 4056      57646572 
 4056      20537175 
 4056      616400
 4057              		.section	.text.shellInit,"ax",%progbits
 4058              		.align	1
 4059              		.global	shellInit
 4060              		.syntax unified
 4061              		.thumb
 4062              		.thumb_func
 4063              		.fpu fpv5-d16
 4065              	shellInit:
 4066              	.LVL380:
 4067              	.LFB3:
 161:System/shell/shell.c ****     shell->parser.length = 0;
 4068              		.loc 1 161 1 is_stmt 1 view -0
 4069              		.cfi_startproc
 4070              		@ args = 0, pretend = 0, frame = 0
 4071              		@ frame_needed = 0, uses_anonymous_args = 0
 161:System/shell/shell.c ****     shell->parser.length = 0;
 4072              		.loc 1 161 1 is_stmt 0 view .LVU1112
 4073 0000 38B5     		push	{r3, r4, r5, lr}
 4074              	.LCFI58:
 4075              		.cfi_def_cfa_offset 16
 4076              		.cfi_offset 3, -16
 4077              		.cfi_offset 4, -12
 4078              		.cfi_offset 5, -8
 4079              		.cfi_offset 14, -4
 4080 0002 0446     		mov	r4, r0
 162:System/shell/shell.c ****     shell->parser.cursor = 0;
 4081              		.loc 1 162 5 is_stmt 1 view .LVU1113
 162:System/shell/shell.c ****     shell->parser.cursor = 0;
 4082              		.loc 1 162 26 is_stmt 0 view .LVU1114
 4083 0004 0023     		movs	r3, #0
 4084 0006 8381     		strh	r3, [r0, #12]	@ movhi
 163:System/shell/shell.c ****     shell->history.offset = 0;
 4085              		.loc 1 163 5 is_stmt 1 view .LVU1115
 163:System/shell/shell.c ****     shell->history.offset = 0;
 4086              		.loc 1 163 26 is_stmt 0 view .LVU1116
 4087 0008 C381     		strh	r3, [r0, #14]	@ movhi
 164:System/shell/shell.c ****     shell->history.number = 0;
 4088              		.loc 1 164 5 is_stmt 1 view .LVU1117
 164:System/shell/shell.c ****     shell->history.number = 0;
 4089              		.loc 1 164 27 is_stmt 0 view .LVU1118
ARM GAS  C:\Users\HUAV\AppData\Local\Temp\ccBfvIcs.s 			page 120


 4090 000a A0F85430 		strh	r3, [r0, #84]	@ movhi
 165:System/shell/shell.c ****     shell->history.record = 0;
 4091              		.loc 1 165 5 is_stmt 1 view .LVU1119
 165:System/shell/shell.c ****     shell->history.record = 0;
 4092              		.loc 1 165 27 is_stmt 0 view .LVU1120
 4093 000e A0F85030 		strh	r3, [r0, #80]	@ movhi
 166:System/shell/shell.c ****     shell->info.user = NULL;
 4094              		.loc 1 166 5 is_stmt 1 view .LVU1121
 166:System/shell/shell.c ****     shell->info.user = NULL;
 4095              		.loc 1 166 27 is_stmt 0 view .LVU1122
 4096 0012 A0F85230 		strh	r3, [r0, #82]	@ movhi
 167:System/shell/shell.c ****     shell->status.isChecked = 1;
 4097              		.loc 1 167 5 is_stmt 1 view .LVU1123
 167:System/shell/shell.c ****     shell->status.isChecked = 1;
 4098              		.loc 1 167 22 is_stmt 0 view .LVU1124
 4099 0016 0360     		str	r3, [r0]
 168:System/shell/shell.c **** 
 4100              		.loc 1 168 5 is_stmt 1 view .LVU1125
 168:System/shell/shell.c **** 
 4101              		.loc 1 168 29 is_stmt 0 view .LVU1126
 4102 0018 90F86000 		ldrb	r0, [r0, #96]	@ zero_extendqisi2
 4103              	.LVL381:
 168:System/shell/shell.c **** 
 4104              		.loc 1 168 29 view .LVU1127
 4105 001c 40F00100 		orr	r0, r0, #1
 4106 0020 84F86000 		strb	r0, [r4, #96]
 170:System/shell/shell.c ****     shell->parser.bufferSize = size / (SHELL_HISTORY_MAX_NUMBER + 1);
 4107              		.loc 1 170 5 is_stmt 1 view .LVU1128
 170:System/shell/shell.c ****     shell->parser.bufferSize = size / (SHELL_HISTORY_MAX_NUMBER + 1);
 4108              		.loc 1 170 26 is_stmt 0 view .LVU1129
 4109 0024 2161     		str	r1, [r4, #16]
 171:System/shell/shell.c ****     for (short i = 0; i < SHELL_HISTORY_MAX_NUMBER; i++)
 4110              		.loc 1 171 5 is_stmt 1 view .LVU1130
 171:System/shell/shell.c ****     for (short i = 0; i < SHELL_HISTORY_MAX_NUMBER; i++)
 4111              		.loc 1 171 30 is_stmt 0 view .LVU1131
 4112 0026 154D     		ldr	r5, .L341
 4113 0028 A5FB0225 		umull	r2, r5, r5, r2
 4114              	.LVL382:
 171:System/shell/shell.c ****     for (short i = 0; i < SHELL_HISTORY_MAX_NUMBER; i++)
 4115              		.loc 1 171 30 view .LVU1132
 4116 002c AD08     		lsrs	r5, r5, #2
 4117 002e A586     		strh	r5, [r4, #52]	@ movhi
 172:System/shell/shell.c ****     {
 4118              		.loc 1 172 5 is_stmt 1 view .LVU1133
 4119              	.LBB30:
 172:System/shell/shell.c ****     {
 4120              		.loc 1 172 10 view .LVU1134
 4121              	.LVL383:
 4122              	.L337:
 172:System/shell/shell.c ****     {
 4123              		.loc 1 172 23 discriminator 1 view .LVU1135
 172:System/shell/shell.c ****     {
 4124              		.loc 1 172 5 is_stmt 0 discriminator 1 view .LVU1136
 4125 0030 042B     		cmp	r3, #4
 4126 0032 0ADC     		bgt	.L340
 174:System/shell/shell.c ****     }
 4127              		.loc 1 174 9 is_stmt 1 discriminator 3 view .LVU1137
ARM GAS  C:\Users\HUAV\AppData\Local\Temp\ccBfvIcs.s 			page 121


 174:System/shell/shell.c ****     }
 4128              		.loc 1 174 68 is_stmt 0 discriminator 3 view .LVU1138
 4129 0034 03FB0550 		mla	r0, r3, r5, r5
 174:System/shell/shell.c ****     }
 4130              		.loc 1 174 41 discriminator 3 view .LVU1139
 4131 0038 0844     		add	r0, r0, r1
 174:System/shell/shell.c ****     }
 4132              		.loc 1 174 32 discriminator 3 view .LVU1140
 4133 003a 03F10E02 		add	r2, r3, #14
 4134 003e 04EB8202 		add	r2, r4, r2, lsl #2
 4135 0042 5060     		str	r0, [r2, #4]
 172:System/shell/shell.c ****     {
 4136              		.loc 1 172 53 is_stmt 1 discriminator 3 view .LVU1141
 172:System/shell/shell.c ****     {
 4137              		.loc 1 172 54 is_stmt 0 discriminator 3 view .LVU1142
 4138 0044 0133     		adds	r3, r3, #1
 4139              	.LVL384:
 172:System/shell/shell.c ****     {
 4140              		.loc 1 172 54 discriminator 3 view .LVU1143
 4141 0046 1BB2     		sxth	r3, r3
 4142              	.LVL385:
 172:System/shell/shell.c ****     {
 4143              		.loc 1 172 54 discriminator 3 view .LVU1144
 4144 0048 F2E7     		b	.L337
 4145              	.L340:
 172:System/shell/shell.c ****     {
 4146              		.loc 1 172 54 discriminator 3 view .LVU1145
 4147              	.LBE30:
 186:System/shell/shell.c ****     shell->commandList.count = ((unsigned int)(&_shell_command_end) - (unsigned int)(&_shell_comman
 4148              		.loc 1 186 5 is_stmt 1 view .LVU1146
 186:System/shell/shell.c ****     shell->commandList.count = ((unsigned int)(&_shell_command_end) - (unsigned int)(&_shell_comman
 4149              		.loc 1 186 29 is_stmt 0 view .LVU1147
 4150 004a 0D4A     		ldr	r2, .L341+4
 4151 004c A265     		str	r2, [r4, #88]
 187:System/shell/shell.c **** #else
 4152              		.loc 1 187 5 is_stmt 1 view .LVU1148
 187:System/shell/shell.c **** #else
 4153              		.loc 1 187 33 is_stmt 0 view .LVU1149
 4154 004e 0D4B     		ldr	r3, .L341+8
 4155              	.LVL386:
 187:System/shell/shell.c **** #else
 4156              		.loc 1 187 69 view .LVU1150
 4157 0050 9B1A     		subs	r3, r3, r2
 187:System/shell/shell.c **** #else
 4158              		.loc 1 187 110 view .LVU1151
 4159 0052 1B09     		lsrs	r3, r3, #4
 187:System/shell/shell.c **** #else
 4160              		.loc 1 187 30 view .LVU1152
 4161 0054 A4F85C30 		strh	r3, [r4, #92]	@ movhi
 196:System/shell/shell.c **** 
 4162              		.loc 1 196 5 is_stmt 1 view .LVU1153
 4163 0058 2046     		mov	r0, r4
 4164 005a FFF7FEFF 		bl	shellAdd
 4165              	.LVL387:
 198:System/shell/shell.c ****                                          SHELL_DEFAULT_USER,
 4166              		.loc 1 198 5 view .LVU1154
 198:System/shell/shell.c ****                                          SHELL_DEFAULT_USER,
ARM GAS  C:\Users\HUAV\AppData\Local\Temp\ccBfvIcs.s 			page 122


 4167              		.loc 1 198 25 is_stmt 0 view .LVU1155
 4168 005e 0023     		movs	r3, #0
 4169 0060 A26D     		ldr	r2, [r4, #88]
 4170 0062 0949     		ldr	r1, .L341+12
 4171 0064 2046     		mov	r0, r4
 4172 0066 FFF7FEFF 		bl	shellSeekCommand
 4173              	.LVL388:
 4174 006a 0146     		mov	r1, r0
 198:System/shell/shell.c ****                                          SHELL_DEFAULT_USER,
 4175              		.loc 1 198 5 view .LVU1156
 4176 006c 2046     		mov	r0, r4
 4177 006e FFF7FEFF 		bl	shellSetUser
 4178              	.LVL389:
 202:System/shell/shell.c **** }
 4179              		.loc 1 202 5 is_stmt 1 view .LVU1157
 4180 0072 0121     		movs	r1, #1
 4181 0074 2046     		mov	r0, r4
 4182 0076 FFF7FEFF 		bl	shellWriteCommandLine
 4183              	.LVL390:
 203:System/shell/shell.c **** 
 4184              		.loc 1 203 1 is_stmt 0 view .LVU1158
 4185 007a 38BD     		pop	{r3, r4, r5, pc}
 4186              	.LVL391:
 4187              	.L342:
 203:System/shell/shell.c **** 
 4188              		.loc 1 203 1 view .LVU1159
 4189              		.align	2
 4190              	.L341:
 4191 007c ABAAAAAA 		.word	-1431655765
 4192 0080 00000000 		.word	_shell_command_start
 4193 0084 00000000 		.word	_shell_command_end
 4194 0088 00000000 		.word	.LC22
 4195              		.cfi_endproc
 4196              	.LFE3:
 4198              		.section	.rodata.shellHelp.str1.4,"aMS",%progbits,1
 4199              		.align	2
 4200              	.LC23:
 4201 0000 636F6D6D 		.ascii	"command help of \000"
 4201      616E6420 
 4201      68656C70 
 4201      206F6620 
 4201      00
 4202 0011 000000   		.align	2
 4203              	.LC24:
 4204 0014 436F6D6D 		.ascii	"Command not Found\015\012\000"
 4204      616E6420 
 4204      6E6F7420 
 4204      466F756E 
 4204      640D0A00 
 4205              		.section	.text.shellHelp,"ax",%progbits
 4206              		.align	1
 4207              		.global	shellHelp
 4208              		.syntax unified
 4209              		.thumb
 4210              		.thumb_func
 4211              		.fpu fpv5-d16
 4213              	shellHelp:
ARM GAS  C:\Users\HUAV\AppData\Local\Temp\ccBfvIcs.s 			page 123


 4214              	.LVL392:
 4215              	.LFB52:
1535:System/shell/shell.c ****     Shell *shell = shellGetCurrent();
 4216              		.loc 1 1535 1 is_stmt 1 view -0
 4217              		.cfi_startproc
 4218              		@ args = 0, pretend = 0, frame = 0
 4219              		@ frame_needed = 0, uses_anonymous_args = 0
1535:System/shell/shell.c ****     Shell *shell = shellGetCurrent();
 4220              		.loc 1 1535 1 is_stmt 0 view .LVU1161
 4221 0000 70B5     		push	{r4, r5, r6, lr}
 4222              	.LCFI59:
 4223              		.cfi_def_cfa_offset 16
 4224              		.cfi_offset 4, -16
 4225              		.cfi_offset 5, -12
 4226              		.cfi_offset 6, -8
 4227              		.cfi_offset 14, -4
 4228 0002 0446     		mov	r4, r0
 4229 0004 0D46     		mov	r5, r1
1536:System/shell/shell.c ****     SHELL_ASSERT(shell, return );
 4230              		.loc 1 1536 5 is_stmt 1 view .LVU1162
1536:System/shell/shell.c ****     SHELL_ASSERT(shell, return );
 4231              		.loc 1 1536 20 is_stmt 0 view .LVU1163
 4232 0006 FFF7FEFF 		bl	shellGetCurrent
 4233              	.LVL393:
1537:System/shell/shell.c ****     if (argc == 1)
 4234              		.loc 1 1537 5 is_stmt 1 view .LVU1164
 4235 000a 20B1     		cbz	r0, .L343
 4236 000c 0646     		mov	r6, r0
1537:System/shell/shell.c ****     if (argc == 1)
 4237              		.loc 1 1537 33 discriminator 2 view .LVU1165
1538:System/shell/shell.c ****     {
 4238              		.loc 1 1538 5 discriminator 2 view .LVU1166
1538:System/shell/shell.c ****     {
 4239              		.loc 1 1538 8 is_stmt 0 discriminator 2 view .LVU1167
 4240 000e 012C     		cmp	r4, #1
 4241 0010 02D0     		beq	.L348
1542:System/shell/shell.c ****     {
 4242              		.loc 1 1542 10 is_stmt 1 view .LVU1168
1542:System/shell/shell.c ****     {
 4243              		.loc 1 1542 13 is_stmt 0 view .LVU1169
 4244 0012 012C     		cmp	r4, #1
 4245 0014 03DC     		bgt	.L349
 4246              	.LVL394:
 4247              	.L343:
1561:System/shell/shell.c **** SHELL_EXPORT_CMD(
 4248              		.loc 1 1561 1 view .LVU1170
 4249 0016 70BD     		pop	{r4, r5, r6, pc}
 4250              	.LVL395:
 4251              	.L348:
1540:System/shell/shell.c ****     }
 4252              		.loc 1 1540 9 is_stmt 1 view .LVU1171
 4253 0018 FFF7FEFF 		bl	shellListAll
 4254              	.LVL396:
1540:System/shell/shell.c ****     }
 4255              		.loc 1 1540 9 is_stmt 0 view .LVU1172
 4256 001c FBE7     		b	.L343
 4257              	.LVL397:
ARM GAS  C:\Users\HUAV\AppData\Local\Temp\ccBfvIcs.s 			page 124


 4258              	.L349:
 4259              	.LBB31:
1544:System/shell/shell.c ****                                                  argv[1],
 4260              		.loc 1 1544 9 is_stmt 1 view .LVU1173
1544:System/shell/shell.c ****                                                  argv[1],
 4261              		.loc 1 1544 33 is_stmt 0 view .LVU1174
 4262 001e 0023     		movs	r3, #0
 4263 0020 826D     		ldr	r2, [r0, #88]
 4264 0022 6968     		ldr	r1, [r5, #4]
 4265 0024 FFF7FEFF 		bl	shellSeekCommand
 4266              	.LVL398:
1548:System/shell/shell.c ****         {
 4267              		.loc 1 1548 9 is_stmt 1 view .LVU1175
1548:System/shell/shell.c ****         {
 4268              		.loc 1 1548 12 is_stmt 0 view .LVU1176
 4269 0028 0446     		mov	r4, r0
 4270              	.LVL399:
1548:System/shell/shell.c ****         {
 4271              		.loc 1 1548 12 view .LVU1177
 4272 002a D8B1     		cbz	r0, .L346
1550:System/shell/shell.c ****             shellWriteString(shell, shellGetCommandName(command));
 4273              		.loc 1 1550 13 is_stmt 1 view .LVU1178
 4274 002c 1049     		ldr	r1, .L350
 4275 002e 3046     		mov	r0, r6
 4276              	.LVL400:
1550:System/shell/shell.c ****             shellWriteString(shell, shellGetCommandName(command));
 4277              		.loc 1 1550 13 is_stmt 0 view .LVU1179
 4278 0030 FFF7FEFF 		bl	shellWriteString
 4279              	.LVL401:
1551:System/shell/shell.c ****             shellWriteString(shell, "\r\n");
 4280              		.loc 1 1551 13 is_stmt 1 view .LVU1180
 4281 0034 2046     		mov	r0, r4
 4282 0036 FFF7FEFF 		bl	shellGetCommandName
 4283              	.LVL402:
 4284 003a 0146     		mov	r1, r0
 4285 003c 3046     		mov	r0, r6
 4286 003e FFF7FEFF 		bl	shellWriteString
 4287              	.LVL403:
1552:System/shell/shell.c ****             shellWriteString(shell, shellGetCommandDesc(command));
 4288              		.loc 1 1552 13 view .LVU1181
 4289 0042 0C4D     		ldr	r5, .L350+4
 4290              	.LVL404:
1552:System/shell/shell.c ****             shellWriteString(shell, shellGetCommandDesc(command));
 4291              		.loc 1 1552 13 is_stmt 0 view .LVU1182
 4292 0044 2946     		mov	r1, r5
 4293 0046 3046     		mov	r0, r6
 4294 0048 FFF7FEFF 		bl	shellWriteString
 4295              	.LVL405:
1553:System/shell/shell.c ****             shellWriteString(shell, "\r\n");
 4296              		.loc 1 1553 13 is_stmt 1 view .LVU1183
 4297 004c 2046     		mov	r0, r4
 4298 004e FFF7FEFF 		bl	shellGetCommandDesc
 4299              	.LVL406:
 4300 0052 0146     		mov	r1, r0
 4301 0054 3046     		mov	r0, r6
 4302 0056 FFF7FEFF 		bl	shellWriteString
 4303              	.LVL407:
ARM GAS  C:\Users\HUAV\AppData\Local\Temp\ccBfvIcs.s 			page 125


1554:System/shell/shell.c ****         }
 4304              		.loc 1 1554 13 view .LVU1184
 4305 005a 2946     		mov	r1, r5
 4306 005c 3046     		mov	r0, r6
 4307 005e FFF7FEFF 		bl	shellWriteString
 4308              	.LVL408:
 4309 0062 D8E7     		b	.L343
 4310              	.LVL409:
 4311              	.L346:
1558:System/shell/shell.c ****         }
 4312              		.loc 1 1558 13 view .LVU1185
 4313 0064 0449     		ldr	r1, .L350+8
 4314 0066 3046     		mov	r0, r6
 4315              	.LVL410:
1558:System/shell/shell.c ****         }
 4316              		.loc 1 1558 13 is_stmt 0 view .LVU1186
 4317 0068 FFF7FEFF 		bl	shellWriteString
 4318              	.LVL411:
 4319 006c D3E7     		b	.L343
 4320              	.L351:
 4321 006e 00BF     		.align	2
 4322              	.L350:
 4323 0070 00000000 		.word	.LC23
 4324 0074 04000000 		.word	.LC3
 4325 0078 14000000 		.word	.LC24
 4326              	.LBE31:
 4327              		.cfi_endproc
 4328              	.LFE52:
 4330              		.section	.text.shellGetVarValue,"ax",%progbits
 4331              		.align	1
 4332              		.global	shellGetVarValue
 4333              		.syntax unified
 4334              		.thumb
 4335              		.thumb_func
 4336              		.fpu fpv5-d16
 4338              	shellGetVarValue:
 4339              	.LVL412:
 4340              	.LFB32:
 931:System/shell/shell.c ****     int value = 0;
 4341              		.loc 1 931 1 is_stmt 1 view -0
 4342              		.cfi_startproc
 4343              		@ args = 0, pretend = 0, frame = 0
 4344              		@ frame_needed = 0, uses_anonymous_args = 0
 931:System/shell/shell.c ****     int value = 0;
 4345              		.loc 1 931 1 is_stmt 0 view .LVU1188
 4346 0000 08B5     		push	{r3, lr}
 4347              	.LCFI60:
 4348              		.cfi_def_cfa_offset 8
 4349              		.cfi_offset 3, -8
 4350              		.cfi_offset 14, -4
 932:System/shell/shell.c ****     switch (command->attr.attrs.type)
 4351              		.loc 1 932 5 is_stmt 1 view .LVU1189
 4352              	.LVL413:
 933:System/shell/shell.c ****     {
 4353              		.loc 1 933 5 view .LVU1190
 933:System/shell/shell.c ****     {
 4354              		.loc 1 933 32 is_stmt 0 view .LVU1191
ARM GAS  C:\Users\HUAV\AppData\Local\Temp\ccBfvIcs.s 			page 126


 4355 0002 4B78     		ldrb	r3, [r1, #1]	@ zero_extendqisi2
 4356 0004 03F00F03 		and	r3, r3, #15
 4357 0008 023B     		subs	r3, r3, #2
 4358 000a 052B     		cmp	r3, #5
 4359 000c 16D8     		bhi	.L360
 4360 000e DFE803F0 		tbb	[pc, r3]
 4361              	.L355:
 4362 0012 03       		.byte	(.L359-.L355)/2
 4363 0013 06       		.byte	(.L358-.L355)/2
 4364 0014 0A       		.byte	(.L357-.L355)/2
 4365 0015 0D       		.byte	(.L356-.L355)/2
 4366 0016 0D       		.byte	(.L356-.L355)/2
 4367 0017 0F       		.byte	(.L354-.L355)/2
 4368              		.p2align 1
 4369              	.L359:
 936:System/shell/shell.c ****         break;
 4370              		.loc 1 936 9 is_stmt 1 view .LVU1192
 936:System/shell/shell.c ****         break;
 4371              		.loc 1 936 44 is_stmt 0 view .LVU1193
 4372 0018 8B68     		ldr	r3, [r1, #8]
 936:System/shell/shell.c ****         break;
 4373              		.loc 1 936 15 view .LVU1194
 4374 001a 1868     		ldr	r0, [r3]
 4375              	.LVL414:
 937:System/shell/shell.c ****     case SHELL_TYPE_VAR_SHORT:
 4376              		.loc 1 937 9 is_stmt 1 view .LVU1195
 4377              	.L352:
 957:System/shell/shell.c **** 
 4378              		.loc 1 957 1 is_stmt 0 view .LVU1196
 4379 001c 08BD     		pop	{r3, pc}
 4380              	.LVL415:
 4381              	.L358:
 939:System/shell/shell.c ****         break;
 4382              		.loc 1 939 9 is_stmt 1 view .LVU1197
 939:System/shell/shell.c ****         break;
 4383              		.loc 1 939 46 is_stmt 0 view .LVU1198
 4384 001e 8B68     		ldr	r3, [r1, #8]
 939:System/shell/shell.c ****         break;
 4385              		.loc 1 939 17 view .LVU1199
 4386 0020 B3F90000 		ldrsh	r0, [r3]
 4387              	.LVL416:
 940:System/shell/shell.c ****     case SHELL_TYPE_VAR_CHAR:
 4388              		.loc 1 940 9 is_stmt 1 view .LVU1200
 4389 0024 FAE7     		b	.L352
 4390              	.LVL417:
 4391              	.L357:
 942:System/shell/shell.c ****         break;
 4392              		.loc 1 942 9 view .LVU1201
 942:System/shell/shell.c ****         break;
 4393              		.loc 1 942 45 is_stmt 0 view .LVU1202
 4394 0026 8B68     		ldr	r3, [r1, #8]
 942:System/shell/shell.c ****         break;
 4395              		.loc 1 942 17 view .LVU1203
 4396 0028 1878     		ldrb	r0, [r3]	@ zero_extendqisi2
 4397              	.LVL418:
 943:System/shell/shell.c ****     case SHELL_TYPE_VAR_STRING:
 4398              		.loc 1 943 9 is_stmt 1 view .LVU1204
ARM GAS  C:\Users\HUAV\AppData\Local\Temp\ccBfvIcs.s 			page 127


 4399 002a F7E7     		b	.L352
 4400              	.LVL419:
 4401              	.L356:
 946:System/shell/shell.c ****         break;
 4402              		.loc 1 946 9 view .LVU1205
 946:System/shell/shell.c ****         break;
 4403              		.loc 1 946 40 is_stmt 0 view .LVU1206
 4404 002c 8868     		ldr	r0, [r1, #8]
 4405              	.LVL420:
 947:System/shell/shell.c ****     case SHELL_TYPE_VAR_NODE:
 4406              		.loc 1 947 9 is_stmt 1 view .LVU1207
 4407 002e F5E7     		b	.L352
 4408              	.LVL421:
 4409              	.L354:
 949:System/shell/shell.c ****                                                                          ->get(((ShellNodeVarAttr *
 4410              		.loc 1 949 9 view .LVU1208
 949:System/shell/shell.c ****                                                                          ->get(((ShellNodeVarAttr *
 4411              		.loc 1 949 55 is_stmt 0 view .LVU1209
 4412 0030 8A68     		ldr	r2, [r1, #8]
 949:System/shell/shell.c ****                                                                          ->get(((ShellNodeVarAttr *
 4413              		.loc 1 949 62 view .LVU1210
 4414 0032 5368     		ldr	r3, [r2, #4]
 951:System/shell/shell.c ****         break;
 4415              		.loc 1 951 68 view .LVU1211
 4416 0034 23B1     		cbz	r3, .L361
 949:System/shell/shell.c ****                                                                          ->get(((ShellNodeVarAttr *
 4417              		.loc 1 949 71 view .LVU1212
 4418 0036 1068     		ldr	r0, [r2]
 4419              	.LVL422:
 949:System/shell/shell.c ****                                                                          ->get(((ShellNodeVarAttr *
 4420              		.loc 1 949 71 view .LVU1213
 4421 0038 9847     		blx	r3
 4422              	.LVL423:
 949:System/shell/shell.c ****                                                                          ->get(((ShellNodeVarAttr *
 4423              		.loc 1 949 71 view .LVU1214
 4424 003a EFE7     		b	.L352
 4425              	.LVL424:
 4426              	.L360:
 933:System/shell/shell.c ****     {
 4427              		.loc 1 933 32 view .LVU1215
 4428 003c 0020     		movs	r0, #0
 4429              	.LVL425:
 933:System/shell/shell.c ****     {
 4430              		.loc 1 933 32 view .LVU1216
 4431 003e EDE7     		b	.L352
 4432              	.LVL426:
 4433              	.L361:
 951:System/shell/shell.c ****         break;
 4434              		.loc 1 951 68 view .LVU1217
 4435 0040 0020     		movs	r0, #0
 4436              	.LVL427:
 956:System/shell/shell.c **** }
 4437              		.loc 1 956 5 is_stmt 1 view .LVU1218
 956:System/shell/shell.c **** }
 4438              		.loc 1 956 12 is_stmt 0 view .LVU1219
 4439 0042 EBE7     		b	.L352
 4440              		.cfi_endproc
ARM GAS  C:\Users\HUAV\AppData\Local\Temp\ccBfvIcs.s 			page 128


 4441              	.LFE32:
 4443              		.section	.rodata.shellShowVar.str1.4,"aMS",%progbits,1
 4444              		.align	2
 4445              	.LC25:
 4446 0000 203D2000 		.ascii	" = \000"
 4447              		.align	2
 4448              	.LC26:
 4449 0004 2200     		.ascii	"\"\000"
 4450              		.section	.text.shellShowVar,"ax",%progbits
 4451              		.align	1
 4452              		.syntax unified
 4453              		.thumb
 4454              		.thumb_func
 4455              		.fpu fpv5-d16
 4457              	shellShowVar:
 4458              	.LVL428:
 4459              	.LFB34:
1021:System/shell/shell.c ****     char buffer[12] = "00000000000";
 4460              		.loc 1 1021 1 is_stmt 1 view -0
 4461              		.cfi_startproc
 4462              		@ args = 0, pretend = 0, frame = 16
 4463              		@ frame_needed = 0, uses_anonymous_args = 0
1021:System/shell/shell.c ****     char buffer[12] = "00000000000";
 4464              		.loc 1 1021 1 is_stmt 0 view .LVU1221
 4465 0000 70B5     		push	{r4, r5, r6, lr}
 4466              	.LCFI61:
 4467              		.cfi_def_cfa_offset 16
 4468              		.cfi_offset 4, -16
 4469              		.cfi_offset 5, -12
 4470              		.cfi_offset 6, -8
 4471              		.cfi_offset 14, -4
 4472 0002 84B0     		sub	sp, sp, #16
 4473              	.LCFI62:
 4474              		.cfi_def_cfa_offset 32
 4475 0004 0446     		mov	r4, r0
 4476 0006 0D46     		mov	r5, r1
1022:System/shell/shell.c ****     int value = shellGetVarValue(shell, command);
 4477              		.loc 1 1022 5 is_stmt 1 view .LVU1222
1022:System/shell/shell.c ****     int value = shellGetVarValue(shell, command);
 4478              		.loc 1 1022 10 is_stmt 0 view .LVU1223
 4479 0008 274B     		ldr	r3, .L370
 4480 000a 93E80700 		ldm	r3, {r0, r1, r2}
 4481              	.LVL429:
1022:System/shell/shell.c ****     int value = shellGetVarValue(shell, command);
 4482              		.loc 1 1022 10 view .LVU1224
 4483 000e 04AB     		add	r3, sp, #16
 4484 0010 03E90700 		stmdb	r3, {r0, r1, r2}
1023:System/shell/shell.c **** 
 4485              		.loc 1 1023 5 is_stmt 1 view .LVU1225
1023:System/shell/shell.c **** 
 4486              		.loc 1 1023 17 is_stmt 0 view .LVU1226
 4487 0014 2946     		mov	r1, r5
 4488 0016 2046     		mov	r0, r4
 4489 0018 FFF7FEFF 		bl	shellGetVarValue
 4490              	.LVL430:
 4491 001c 0646     		mov	r6, r0
 4492              	.LVL431:
ARM GAS  C:\Users\HUAV\AppData\Local\Temp\ccBfvIcs.s 			page 129


1025:System/shell/shell.c ****     shellWriteString(shell, " = ");
 4493              		.loc 1 1025 5 is_stmt 1 view .LVU1227
 4494 001e 6968     		ldr	r1, [r5, #4]
 4495 0020 2046     		mov	r0, r4
 4496              	.LVL432:
1025:System/shell/shell.c ****     shellWriteString(shell, " = ");
 4497              		.loc 1 1025 5 is_stmt 0 view .LVU1228
 4498 0022 FFF7FEFF 		bl	shellWriteString
 4499              	.LVL433:
1026:System/shell/shell.c **** 
 4500              		.loc 1 1026 5 is_stmt 1 view .LVU1229
 4501 0026 2149     		ldr	r1, .L370+4
 4502 0028 2046     		mov	r0, r4
 4503 002a FFF7FEFF 		bl	shellWriteString
 4504              	.LVL434:
1028:System/shell/shell.c ****     {
 4505              		.loc 1 1028 5 view .LVU1230
1028:System/shell/shell.c ****     {
 4506              		.loc 1 1028 32 is_stmt 0 view .LVU1231
 4507 002e 6B78     		ldrb	r3, [r5, #1]	@ zero_extendqisi2
 4508 0030 03F00F03 		and	r3, r3, #15
1028:System/shell/shell.c ****     {
 4509              		.loc 1 1028 5 view .LVU1232
 4510 0034 052B     		cmp	r3, #5
 4511 0036 10D0     		beq	.L369
1040:System/shell/shell.c ****         shellWriteString(shell, ", 0x");
 4512              		.loc 1 1040 9 is_stmt 1 view .LVU1233
1040:System/shell/shell.c ****         shellWriteString(shell, ", 0x");
 4513              		.loc 1 1040 46 is_stmt 0 view .LVU1234
 4514 0038 01A9     		add	r1, sp, #4
 4515 003a 3046     		mov	r0, r6
 4516 003c FFF7FEFF 		bl	shellToDec
 4517              	.LVL435:
1040:System/shell/shell.c ****         shellWriteString(shell, ", 0x");
 4518              		.loc 1 1040 44 view .LVU1235
 4519 0040 C0F10B01 		rsb	r1, r0, #11
1040:System/shell/shell.c ****         shellWriteString(shell, ", 0x");
 4520              		.loc 1 1040 9 view .LVU1236
 4521 0044 01AB     		add	r3, sp, #4
 4522 0046 1944     		add	r1, r1, r3
 4523 0048 2046     		mov	r0, r4
 4524 004a FFF7FEFF 		bl	shellWriteString
 4525              	.LVL436:
1041:System/shell/shell.c ****         for (short i = 0; i < 11; i++)
 4526              		.loc 1 1041 9 is_stmt 1 view .LVU1237
 4527 004e 1849     		ldr	r1, .L370+8
 4528 0050 2046     		mov	r0, r4
 4529 0052 FFF7FEFF 		bl	shellWriteString
 4530              	.LVL437:
1042:System/shell/shell.c ****         {
 4531              		.loc 1 1042 9 view .LVU1238
 4532              	.LBB32:
1042:System/shell/shell.c ****         {
 4533              		.loc 1 1042 14 view .LVU1239
1042:System/shell/shell.c ****         {
 4534              		.loc 1 1042 20 is_stmt 0 view .LVU1240
 4535 0056 0023     		movs	r3, #0
ARM GAS  C:\Users\HUAV\AppData\Local\Temp\ccBfvIcs.s 			page 130


1042:System/shell/shell.c ****         {
 4536              		.loc 1 1042 9 view .LVU1241
 4537 0058 14E0     		b	.L366
 4538              	.LVL438:
 4539              	.L369:
1042:System/shell/shell.c ****         {
 4540              		.loc 1 1042 9 view .LVU1242
 4541              	.LBE32:
1031:System/shell/shell.c ****         shellWriteString(shell, (char *)value);
 4542              		.loc 1 1031 9 is_stmt 1 view .LVU1243
 4543 005a 164D     		ldr	r5, .L370+12
 4544              	.LVL439:
1031:System/shell/shell.c ****         shellWriteString(shell, (char *)value);
 4545              		.loc 1 1031 9 is_stmt 0 view .LVU1244
 4546 005c 2946     		mov	r1, r5
 4547 005e 2046     		mov	r0, r4
 4548 0060 FFF7FEFF 		bl	shellWriteString
 4549              	.LVL440:
1032:System/shell/shell.c ****         shellWriteString(shell, "\"");
 4550              		.loc 1 1032 9 is_stmt 1 view .LVU1245
 4551 0064 3146     		mov	r1, r6
 4552 0066 2046     		mov	r0, r4
 4553 0068 FFF7FEFF 		bl	shellWriteString
 4554              	.LVL441:
1033:System/shell/shell.c ****         break;
 4555              		.loc 1 1033 9 view .LVU1246
 4556 006c 2946     		mov	r1, r5
 4557 006e 2046     		mov	r0, r4
 4558 0070 FFF7FEFF 		bl	shellWriteString
 4559              	.LVL442:
1034:System/shell/shell.c ****     // case SHELL_TYPE_VAR_INT:
 4560              		.loc 1 1034 9 view .LVU1247
 4561 0074 10E0     		b	.L365
 4562              	.LVL443:
 4563              	.L367:
 4564              	.LBB33:
1044:System/shell/shell.c ****         }
 4565              		.loc 1 1044 13 discriminator 3 view .LVU1248
1044:System/shell/shell.c ****         }
 4566              		.loc 1 1044 23 is_stmt 0 discriminator 3 view .LVU1249
 4567 0076 04AA     		add	r2, sp, #16
 4568 0078 1A44     		add	r2, r2, r3
 4569 007a 3021     		movs	r1, #48
 4570 007c 02F80C1C 		strb	r1, [r2, #-12]
1042:System/shell/shell.c ****         {
 4571              		.loc 1 1042 35 is_stmt 1 discriminator 3 view .LVU1250
1042:System/shell/shell.c ****         {
 4572              		.loc 1 1042 36 is_stmt 0 discriminator 3 view .LVU1251
 4573 0080 0133     		adds	r3, r3, #1
 4574              	.LVL444:
1042:System/shell/shell.c ****         {
 4575              		.loc 1 1042 36 discriminator 3 view .LVU1252
 4576 0082 1BB2     		sxth	r3, r3
 4577              	.LVL445:
 4578              	.L366:
1042:System/shell/shell.c ****         {
 4579              		.loc 1 1042 27 is_stmt 1 discriminator 1 view .LVU1253
ARM GAS  C:\Users\HUAV\AppData\Local\Temp\ccBfvIcs.s 			page 131


1042:System/shell/shell.c ****         {
 4580              		.loc 1 1042 9 is_stmt 0 discriminator 1 view .LVU1254
 4581 0084 0A2B     		cmp	r3, #10
 4582 0086 F6DD     		ble	.L367
 4583              	.LBE33:
1046:System/shell/shell.c ****         shellWriteString(shell, buffer);
 4584              		.loc 1 1046 9 is_stmt 1 view .LVU1255
 4585 0088 01A9     		add	r1, sp, #4
 4586 008a 3046     		mov	r0, r6
 4587 008c FFF7FEFF 		bl	shellToHex
 4588              	.LVL446:
1047:System/shell/shell.c ****         break;
 4589              		.loc 1 1047 9 view .LVU1256
 4590 0090 01A9     		add	r1, sp, #4
 4591 0092 2046     		mov	r0, r4
 4592 0094 FFF7FEFF 		bl	shellWriteString
 4593              	.LVL447:
1048:System/shell/shell.c ****     }
 4594              		.loc 1 1048 9 view .LVU1257
 4595              	.L365:
1051:System/shell/shell.c ****     return value;
 4596              		.loc 1 1051 5 view .LVU1258
 4597 0098 0749     		ldr	r1, .L370+16
 4598 009a 2046     		mov	r0, r4
 4599 009c FFF7FEFF 		bl	shellWriteString
 4600              	.LVL448:
1052:System/shell/shell.c **** }
 4601              		.loc 1 1052 5 view .LVU1259
1053:System/shell/shell.c **** 
 4602              		.loc 1 1053 1 is_stmt 0 view .LVU1260
 4603 00a0 3046     		mov	r0, r6
 4604 00a2 04B0     		add	sp, sp, #16
 4605              	.LCFI63:
 4606              		.cfi_def_cfa_offset 16
 4607              		@ sp needed
 4608 00a4 70BD     		pop	{r4, r5, r6, pc}
 4609              	.LVL449:
 4610              	.L371:
1053:System/shell/shell.c **** 
 4611              		.loc 1 1053 1 view .LVU1261
 4612 00a6 00BF     		.align	2
 4613              	.L370:
 4614 00a8 14000000 		.word	.LC8
 4615 00ac 00000000 		.word	.LC25
 4616 00b0 0C000000 		.word	.LC10
 4617 00b4 04000000 		.word	.LC26
 4618 00b8 04000000 		.word	.LC3
 4619              		.cfi_endproc
 4620              	.LFE34:
 4622              		.section	.rodata.shellSetVarValue.str1.4,"aMS",%progbits,1
 4623              		.align	2
 4624              	.LC27:
 4625 0000 63616E27 		.ascii	"can't set read only var\015\012\000"
 4625      74207365 
 4625      74207265 
 4625      6164206F 
 4625      6E6C7920 
ARM GAS  C:\Users\HUAV\AppData\Local\Temp\ccBfvIcs.s 			page 132


 4626 001a 0000     		.align	2
 4627              	.LC28:
 4628 001c 63616E27 		.ascii	"can't set pointer\015\012\000"
 4628      74207365 
 4628      7420706F 
 4628      696E7465 
 4628      720D0A00 
 4629              		.section	.text.shellSetVarValue,"ax",%progbits
 4630              		.align	1
 4631              		.global	shellSetVarValue
 4632              		.syntax unified
 4633              		.thumb
 4634              		.thumb_func
 4635              		.fpu fpv5-d16
 4637              	shellSetVarValue:
 4638              	.LVL450:
 4639              	.LFB33:
 968:System/shell/shell.c ****     if (command->attr.attrs.readOnly)
 4640              		.loc 1 968 1 is_stmt 1 view -0
 4641              		.cfi_startproc
 4642              		@ args = 0, pretend = 0, frame = 0
 4643              		@ frame_needed = 0, uses_anonymous_args = 0
 968:System/shell/shell.c ****     if (command->attr.attrs.readOnly)
 4644              		.loc 1 968 1 is_stmt 0 view .LVU1263
 4645 0000 70B5     		push	{r4, r5, r6, lr}
 4646              	.LCFI64:
 4647              		.cfi_def_cfa_offset 16
 4648              		.cfi_offset 4, -16
 4649              		.cfi_offset 5, -12
 4650              		.cfi_offset 6, -8
 4651              		.cfi_offset 14, -4
 4652 0002 0546     		mov	r5, r0
 4653 0004 0C46     		mov	r4, r1
 969:System/shell/shell.c ****     {
 4654              		.loc 1 969 5 is_stmt 1 view .LVU1264
 969:System/shell/shell.c ****     {
 4655              		.loc 1 969 9 is_stmt 0 view .LVU1265
 4656 0006 4B78     		ldrb	r3, [r1, #1]	@ zero_extendqisi2
 969:System/shell/shell.c ****     {
 4657              		.loc 1 969 8 view .LVU1266
 4658 0008 13F0400F 		tst	r3, #64
 4659 000c 0AD1     		bne	.L384
 975:System/shell/shell.c ****         {
 4660              		.loc 1 975 9 is_stmt 1 view .LVU1267
 975:System/shell/shell.c ****         {
 4661              		.loc 1 975 36 is_stmt 0 view .LVU1268
 4662 000e 4B78     		ldrb	r3, [r1, #1]	@ zero_extendqisi2
 4663 0010 03F00F03 		and	r3, r3, #15
 4664 0014 023B     		subs	r3, r3, #2
 4665 0016 052B     		cmp	r3, #5
 4666 0018 07D8     		bhi	.L374
 4667 001a DFE803F0 		tbb	[pc, r3]
 4668              	.LVL451:
 4669              	.L376:
 4670 001e 0B       		.byte	(.L381-.L376)/2
 4671 001f 0E       		.byte	(.L380-.L376)/2
 4672 0020 11       		.byte	(.L379-.L376)/2
ARM GAS  C:\Users\HUAV\AppData\Local\Temp\ccBfvIcs.s 			page 133


 4673 0021 14       		.byte	(.L378-.L376)/2
 4674 0022 19       		.byte	(.L377-.L376)/2
 4675 0023 1D       		.byte	(.L375-.L376)/2
 4676              		.p2align 1
 4677              	.L384:
 971:System/shell/shell.c ****     }
 4678              		.loc 1 971 9 is_stmt 1 view .LVU1269
 4679 0024 1249     		ldr	r1, .L385
 4680              	.LVL452:
 971:System/shell/shell.c ****     }
 4681              		.loc 1 971 9 is_stmt 0 view .LVU1270
 4682 0026 FFF7FEFF 		bl	shellWriteString
 4683              	.LVL453:
 4684              	.L374:
1010:System/shell/shell.c **** }
 4685              		.loc 1 1010 5 is_stmt 1 view .LVU1271
1010:System/shell/shell.c **** }
 4686              		.loc 1 1010 12 is_stmt 0 view .LVU1272
 4687 002a 2146     		mov	r1, r4
 4688 002c 2846     		mov	r0, r5
 4689 002e FFF7FEFF 		bl	shellShowVar
 4690              	.LVL454:
1011:System/shell/shell.c **** 
 4691              		.loc 1 1011 1 view .LVU1273
 4692 0032 70BD     		pop	{r4, r5, r6, pc}
 4693              	.LVL455:
 4694              	.L381:
 978:System/shell/shell.c ****             break;
 4695              		.loc 1 978 13 is_stmt 1 view .LVU1274
 978:System/shell/shell.c ****             break;
 4696              		.loc 1 978 40 is_stmt 0 view .LVU1275
 4697 0034 A368     		ldr	r3, [r4, #8]
 978:System/shell/shell.c ****             break;
 4698              		.loc 1 978 49 view .LVU1276
 4699 0036 1A60     		str	r2, [r3]
 979:System/shell/shell.c ****         case SHELL_TYPE_VAR_SHORT:
 4700              		.loc 1 979 13 is_stmt 1 view .LVU1277
 4701 0038 F7E7     		b	.L374
 4702              	.L380:
 981:System/shell/shell.c ****             break;
 4703              		.loc 1 981 13 view .LVU1278
 981:System/shell/shell.c ****             break;
 4704              		.loc 1 981 42 is_stmt 0 view .LVU1279
 4705 003a A368     		ldr	r3, [r4, #8]
 981:System/shell/shell.c ****             break;
 4706              		.loc 1 981 51 view .LVU1280
 4707 003c 1A80     		strh	r2, [r3]	@ movhi
 982:System/shell/shell.c ****         case SHELL_TYPE_VAR_CHAR:
 4708              		.loc 1 982 13 is_stmt 1 view .LVU1281
 4709 003e F4E7     		b	.L374
 4710              	.L379:
 984:System/shell/shell.c ****             break;
 4711              		.loc 1 984 13 view .LVU1282
 984:System/shell/shell.c ****             break;
 4712              		.loc 1 984 41 is_stmt 0 view .LVU1283
 4713 0040 A368     		ldr	r3, [r4, #8]
 984:System/shell/shell.c ****             break;
ARM GAS  C:\Users\HUAV\AppData\Local\Temp\ccBfvIcs.s 			page 134


 4714              		.loc 1 984 50 view .LVU1284
 4715 0042 1A70     		strb	r2, [r3]
 985:System/shell/shell.c ****         case SHELL_TYPE_VAR_STRING:
 4716              		.loc 1 985 13 is_stmt 1 view .LVU1285
 4717 0044 F1E7     		b	.L374
 4718              	.L378:
 987:System/shell/shell.c ****             break;
 4719              		.loc 1 987 13 view .LVU1286
 4720 0046 1146     		mov	r1, r2
 4721 0048 A068     		ldr	r0, [r4, #8]
 4722              	.LVL456:
 987:System/shell/shell.c ****             break;
 4723              		.loc 1 987 13 is_stmt 0 view .LVU1287
 4724 004a FFF7FEFF 		bl	shellStringCopy
 4725              	.LVL457:
 988:System/shell/shell.c ****         case SHELL_TYPE_VAR_POINT:
 4726              		.loc 1 988 13 is_stmt 1 view .LVU1288
 4727 004e ECE7     		b	.L374
 4728              	.LVL458:
 4729              	.L377:
 990:System/shell/shell.c ****             break;
 4730              		.loc 1 990 13 view .LVU1289
 4731 0050 0849     		ldr	r1, .L385+4
 4732 0052 FFF7FEFF 		bl	shellWriteString
 4733              	.LVL459:
 991:System/shell/shell.c ****         case SHELL_TYPE_VAR_NODE:
 4734              		.loc 1 991 13 view .LVU1290
 4735 0056 E8E7     		b	.L374
 4736              	.LVL460:
 4737              	.L375:
 993:System/shell/shell.c ****             {
 4738              		.loc 1 993 13 view .LVU1291
 993:System/shell/shell.c ****             {
 4739              		.loc 1 993 55 is_stmt 0 view .LVU1292
 4740 0058 A368     		ldr	r3, [r4, #8]
 993:System/shell/shell.c ****             {
 4741              		.loc 1 993 62 view .LVU1293
 4742 005a 9E68     		ldr	r6, [r3, #8]
 993:System/shell/shell.c ****             {
 4743              		.loc 1 993 16 view .LVU1294
 4744 005c 002E     		cmp	r6, #0
 4745 005e E4D0     		beq	.L374
 995:System/shell/shell.c ****                 {
 4746              		.loc 1 995 17 is_stmt 1 view .LVU1295
 995:System/shell/shell.c ****                 {
 4747              		.loc 1 995 66 is_stmt 0 view .LVU1296
 4748 0060 1868     		ldr	r0, [r3]
 4749              	.LVL461:
 995:System/shell/shell.c ****                 {
 4750              		.loc 1 995 20 view .LVU1297
 4751 0062 10B1     		cbz	r0, .L382
 997:System/shell/shell.c ****                         ->set(((ShellNodeVarAttr *)command->data.var.value)->var, value);
 4752              		.loc 1 997 21 is_stmt 1 view .LVU1298
 997:System/shell/shell.c ****                         ->set(((ShellNodeVarAttr *)command->data.var.value)->var, value);
 4753              		.loc 1 997 22 is_stmt 0 view .LVU1299
 4754 0064 1146     		mov	r1, r2
 4755 0066 B047     		blx	r6
ARM GAS  C:\Users\HUAV\AppData\Local\Temp\ccBfvIcs.s 			page 135


 4756              	.LVL462:
 997:System/shell/shell.c ****                         ->set(((ShellNodeVarAttr *)command->data.var.value)->var, value);
 4757              		.loc 1 997 22 view .LVU1300
 4758 0068 DFE7     		b	.L374
 4759              	.LVL463:
 4760              	.L382:
1002:System/shell/shell.c ****                 }
 4761              		.loc 1 1002 21 is_stmt 1 view .LVU1301
1002:System/shell/shell.c ****                 }
 4762              		.loc 1 1002 22 is_stmt 0 view .LVU1302
 4763 006a 1046     		mov	r0, r2
 4764 006c B047     		blx	r6
 4765              	.LVL464:
1002:System/shell/shell.c ****                 }
 4766              		.loc 1 1002 22 view .LVU1303
 4767 006e DCE7     		b	.L374
 4768              	.L386:
 4769              		.align	2
 4770              	.L385:
 4771 0070 00000000 		.word	.LC27
 4772 0074 1C000000 		.word	.LC28
 4773              		.cfi_endproc
 4774              	.LFE33:
 4776              		.section	.rodata.shellSetVar.str1.4,"aMS",%progbits,1
 4777              		.align	2
 4778              	.LC29:
 4779 0000 56617220 		.ascii	"Var not Fount\015\012\000"
 4779      6E6F7420 
 4779      466F756E 
 4779      740D0A00 
 4780              		.align	2
 4781              	.LC30:
 4782 0010 20697320 		.ascii	" is not a var\015\012\000"
 4782      6E6F7420 
 4782      61207661 
 4782      720D0A00 
 4783              		.section	.text.shellSetVar,"ax",%progbits
 4784              		.align	1
 4785              		.global	shellSetVar
 4786              		.syntax unified
 4787              		.thumb
 4788              		.thumb_func
 4789              		.fpu fpv5-d16
 4791              	shellSetVar:
 4792              	.LVL465:
 4793              	.LFB35:
1063:System/shell/shell.c ****     Shell *shell = shellGetCurrent();
 4794              		.loc 1 1063 1 is_stmt 1 view -0
 4795              		.cfi_startproc
 4796              		@ args = 0, pretend = 0, frame = 0
 4797              		@ frame_needed = 0, uses_anonymous_args = 0
1063:System/shell/shell.c ****     Shell *shell = shellGetCurrent();
 4798              		.loc 1 1063 1 is_stmt 0 view .LVU1305
 4799 0000 70B5     		push	{r4, r5, r6, lr}
 4800              	.LCFI65:
 4801              		.cfi_def_cfa_offset 16
 4802              		.cfi_offset 4, -16
ARM GAS  C:\Users\HUAV\AppData\Local\Temp\ccBfvIcs.s 			page 136


 4803              		.cfi_offset 5, -12
 4804              		.cfi_offset 6, -8
 4805              		.cfi_offset 14, -4
 4806 0002 0446     		mov	r4, r0
 4807 0004 0D46     		mov	r5, r1
1064:System/shell/shell.c ****     if (shell == NULL)
 4808              		.loc 1 1064 5 is_stmt 1 view .LVU1306
1064:System/shell/shell.c ****     if (shell == NULL)
 4809              		.loc 1 1064 20 is_stmt 0 view .LVU1307
 4810 0006 FFF7FEFF 		bl	shellGetCurrent
 4811              	.LVL466:
1065:System/shell/shell.c ****     {
 4812              		.loc 1 1065 5 is_stmt 1 view .LVU1308
1065:System/shell/shell.c ****     {
 4813              		.loc 1 1065 8 is_stmt 0 view .LVU1309
 4814 000a 20B3     		cbz	r0, .L391
 4815 000c 0646     		mov	r6, r0
1069:System/shell/shell.c ****                                              name,
 4816              		.loc 1 1069 5 is_stmt 1 view .LVU1310
1069:System/shell/shell.c ****                                              name,
 4817              		.loc 1 1069 29 is_stmt 0 view .LVU1311
 4818 000e 0023     		movs	r3, #0
 4819 0010 826D     		ldr	r2, [r0, #88]
 4820 0012 2146     		mov	r1, r4
 4821 0014 FFF7FEFF 		bl	shellSeekCommand
 4822              	.LVL467:
1073:System/shell/shell.c ****     {
 4823              		.loc 1 1073 5 is_stmt 1 view .LVU1312
1073:System/shell/shell.c ****     {
 4824              		.loc 1 1073 8 is_stmt 0 view .LVU1313
 4825 0018 0146     		mov	r1, r0
 4826 001a 60B1     		cbz	r0, .L393
1078:System/shell/shell.c ****     {
 4827              		.loc 1 1078 5 is_stmt 1 view .LVU1314
1078:System/shell/shell.c ****     {
 4828              		.loc 1 1078 28 is_stmt 0 view .LVU1315
 4829 001c 4378     		ldrb	r3, [r0, #1]	@ zero_extendqisi2
 4830 001e 03F00F03 		and	r3, r3, #15
1078:System/shell/shell.c ****     {
 4831              		.loc 1 1078 55 view .LVU1316
 4832 0022 0E33     		adds	r3, r3, #14
 4833 0024 03F00F03 		and	r3, r3, #15
1078:System/shell/shell.c ****     {
 4834              		.loc 1 1078 8 view .LVU1317
 4835 0028 052B     		cmp	r3, #5
 4836 002a 0AD8     		bhi	.L394
1084:System/shell/shell.c **** }
 4837              		.loc 1 1084 5 is_stmt 1 view .LVU1318
1084:System/shell/shell.c **** }
 4838              		.loc 1 1084 12 is_stmt 0 view .LVU1319
 4839 002c 2A46     		mov	r2, r5
 4840 002e 3046     		mov	r0, r6
 4841              	.LVL468:
1084:System/shell/shell.c **** }
 4842              		.loc 1 1084 12 view .LVU1320
 4843 0030 FFF7FEFF 		bl	shellSetVarValue
 4844              	.LVL469:
ARM GAS  C:\Users\HUAV\AppData\Local\Temp\ccBfvIcs.s 			page 137


 4845              	.L387:
1085:System/shell/shell.c **** SHELL_EXPORT_CMD(
 4846              		.loc 1 1085 1 view .LVU1321
 4847 0034 70BD     		pop	{r4, r5, r6, pc}
 4848              	.LVL470:
 4849              	.L393:
1075:System/shell/shell.c ****         return 0;
 4850              		.loc 1 1075 9 is_stmt 1 view .LVU1322
 4851 0036 0949     		ldr	r1, .L395
 4852 0038 3046     		mov	r0, r6
 4853              	.LVL471:
1075:System/shell/shell.c ****         return 0;
 4854              		.loc 1 1075 9 is_stmt 0 view .LVU1323
 4855 003a FFF7FEFF 		bl	shellWriteString
 4856              	.LVL472:
1076:System/shell/shell.c ****     }
 4857              		.loc 1 1076 9 is_stmt 1 view .LVU1324
1076:System/shell/shell.c ****     }
 4858              		.loc 1 1076 16 is_stmt 0 view .LVU1325
 4859 003e 0020     		movs	r0, #0
 4860 0040 F8E7     		b	.L387
 4861              	.LVL473:
 4862              	.L394:
1080:System/shell/shell.c ****         shellWriteString(shell, shellText[SHELL_TEXT_NOT_VAR]);
 4863              		.loc 1 1080 9 is_stmt 1 view .LVU1326
 4864 0042 2146     		mov	r1, r4
 4865 0044 3046     		mov	r0, r6
 4866              	.LVL474:
1080:System/shell/shell.c ****         shellWriteString(shell, shellText[SHELL_TEXT_NOT_VAR]);
 4867              		.loc 1 1080 9 is_stmt 0 view .LVU1327
 4868 0046 FFF7FEFF 		bl	shellWriteString
 4869              	.LVL475:
1081:System/shell/shell.c ****         return 0;
 4870              		.loc 1 1081 9 is_stmt 1 view .LVU1328
 4871 004a 0549     		ldr	r1, .L395+4
 4872 004c 3046     		mov	r0, r6
 4873 004e FFF7FEFF 		bl	shellWriteString
 4874              	.LVL476:
1082:System/shell/shell.c ****     }
 4875              		.loc 1 1082 9 view .LVU1329
1082:System/shell/shell.c ****     }
 4876              		.loc 1 1082 16 is_stmt 0 view .LVU1330
 4877 0052 0020     		movs	r0, #0
 4878 0054 EEE7     		b	.L387
 4879              	.LVL477:
 4880              	.L391:
1067:System/shell/shell.c ****     }
 4881              		.loc 1 1067 16 view .LVU1331
 4882 0056 0020     		movs	r0, #0
 4883              	.LVL478:
1067:System/shell/shell.c ****     }
 4884              		.loc 1 1067 16 view .LVU1332
 4885 0058 ECE7     		b	.L387
 4886              	.L396:
 4887 005a 00BF     		.align	2
 4888              	.L395:
 4889 005c 00000000 		.word	.LC29
ARM GAS  C:\Users\HUAV\AppData\Local\Temp\ccBfvIcs.s 			page 138


 4890 0060 10000000 		.word	.LC30
 4891              		.cfi_endproc
 4892              	.LFE35:
 4894              		.section	.text.shellRunCommand,"ax",%progbits
 4895              		.align	1
 4896              		.global	shellRunCommand
 4897              		.syntax unified
 4898              		.thumb
 4899              		.thumb_func
 4900              		.fpu fpv5-d16
 4902              	shellRunCommand:
 4903              	.LVL479:
 4904              	.LFB36:
1099:System/shell/shell.c ****     int returnValue = 0;
 4905              		.loc 1 1099 1 is_stmt 1 view -0
 4906              		.cfi_startproc
 4907              		@ args = 0, pretend = 0, frame = 0
 4908              		@ frame_needed = 0, uses_anonymous_args = 0
1099:System/shell/shell.c ****     int returnValue = 0;
 4909              		.loc 1 1099 1 is_stmt 0 view .LVU1334
 4910 0000 70B5     		push	{r4, r5, r6, lr}
 4911              	.LCFI66:
 4912              		.cfi_def_cfa_offset 16
 4913              		.cfi_offset 4, -16
 4914              		.cfi_offset 5, -12
 4915              		.cfi_offset 6, -8
 4916              		.cfi_offset 14, -4
 4917 0002 0446     		mov	r4, r0
 4918 0004 0D46     		mov	r5, r1
1100:System/shell/shell.c ****     shell->status.isActive = 1;
 4919              		.loc 1 1100 5 is_stmt 1 view .LVU1335
 4920              	.LVL480:
1101:System/shell/shell.c ****     if (command->attr.attrs.type == SHELL_TYPE_CMD_MAIN)
 4921              		.loc 1 1101 5 view .LVU1336
1101:System/shell/shell.c ****     if (command->attr.attrs.type == SHELL_TYPE_CMD_MAIN)
 4922              		.loc 1 1101 28 is_stmt 0 view .LVU1337
 4923 0006 90F86030 		ldrb	r3, [r0, #96]	@ zero_extendqisi2
 4924 000a 43F00203 		orr	r3, r3, #2
 4925 000e 80F86030 		strb	r3, [r0, #96]
1102:System/shell/shell.c ****     {
 4926              		.loc 1 1102 5 is_stmt 1 view .LVU1338
1102:System/shell/shell.c ****     {
 4927              		.loc 1 1102 34 is_stmt 0 view .LVU1339
 4928 0012 4B78     		ldrb	r3, [r1, #1]	@ zero_extendqisi2
1102:System/shell/shell.c ****     {
 4929              		.loc 1 1102 8 view .LVU1340
 4930 0014 13F00F03 		ands	r3, r3, #15
 4931 0018 14D0     		beq	.L404
1112:System/shell/shell.c ****     {
 4932              		.loc 1 1112 10 is_stmt 1 view .LVU1341
1112:System/shell/shell.c ****     {
 4933              		.loc 1 1112 13 is_stmt 0 view .LVU1342
 4934 001a 012B     		cmp	r3, #1
 4935 001c 23D0     		beq	.L405
1123:System/shell/shell.c ****     {
 4936              		.loc 1 1123 10 is_stmt 1 view .LVU1343
1123:System/shell/shell.c ****     {
ARM GAS  C:\Users\HUAV\AppData\Local\Temp\ccBfvIcs.s 			page 139


 4937              		.loc 1 1123 33 is_stmt 0 view .LVU1344
 4938 001e 4A78     		ldrb	r2, [r1, #1]	@ zero_extendqisi2
 4939 0020 02F00F02 		and	r2, r2, #15
1123:System/shell/shell.c ****     {
 4940              		.loc 1 1123 61 view .LVU1345
 4941 0024 0E32     		adds	r2, r2, #14
 4942 0026 02F00F02 		and	r2, r2, #15
1123:System/shell/shell.c ****     {
 4943              		.loc 1 1123 13 view .LVU1346
 4944 002a 052A     		cmp	r2, #5
 4945 002c 2AD9     		bls	.L406
1127:System/shell/shell.c ****     {
 4946              		.loc 1 1127 10 is_stmt 1 view .LVU1347
1127:System/shell/shell.c ****     {
 4947              		.loc 1 1127 13 is_stmt 0 view .LVU1348
 4948 002e 082B     		cmp	r3, #8
 4949 0030 2CD0     		beq	.L407
1100:System/shell/shell.c ****     shell->status.isActive = 1;
 4950              		.loc 1 1100 9 view .LVU1349
 4951 0032 0026     		movs	r6, #0
 4952              	.LVL481:
 4953              	.L399:
1131:System/shell/shell.c **** 
 4954              		.loc 1 1131 5 is_stmt 1 view .LVU1350
1131:System/shell/shell.c **** 
 4955              		.loc 1 1131 28 is_stmt 0 view .LVU1351
 4956 0034 94F86030 		ldrb	r3, [r4, #96]	@ zero_extendqisi2
 4957 0038 6FF34103 		bfc	r3, #1, #1
 4958 003c 84F86030 		strb	r3, [r4, #96]
1133:System/shell/shell.c **** }
 4959              		.loc 1 1133 5 is_stmt 1 view .LVU1352
1134:System/shell/shell.c **** 
 4960              		.loc 1 1134 1 is_stmt 0 view .LVU1353
 4961 0040 3046     		mov	r0, r6
 4962 0042 70BD     		pop	{r4, r5, r6, pc}
 4963              	.LVL482:
 4964              	.L404:
1104:System/shell/shell.c ****         returnValue = command->data.cmd.function(shell->parser.paramCount,
 4965              		.loc 1 1104 9 is_stmt 1 view .LVU1354
 4966 0044 FFF7FEFF 		bl	shellRemoveParamQuotes
 4967              	.LVL483:
1105:System/shell/shell.c ****                                                  shell->parser.param);
 4968              		.loc 1 1105 9 view .LVU1355
1105:System/shell/shell.c ****                                                  shell->parser.param);
 4969              		.loc 1 1105 40 is_stmt 0 view .LVU1356
 4970 0048 AB68     		ldr	r3, [r5, #8]
1105:System/shell/shell.c ****                                                  shell->parser.param);
 4971              		.loc 1 1105 23 view .LVU1357
 4972 004a 04F11401 		add	r1, r4, #20
 4973 004e E08E     		ldrh	r0, [r4, #54]
 4974 0050 9847     		blx	r3
 4975              	.LVL484:
 4976 0052 0646     		mov	r6, r0
 4977              	.LVL485:
1107:System/shell/shell.c ****         {
 4978              		.loc 1 1107 9 is_stmt 1 view .LVU1358
1107:System/shell/shell.c ****         {
ARM GAS  C:\Users\HUAV\AppData\Local\Temp\ccBfvIcs.s 			page 140


 4979              		.loc 1 1107 13 is_stmt 0 view .LVU1359
 4980 0054 6B78     		ldrb	r3, [r5, #1]	@ zero_extendqisi2
1107:System/shell/shell.c ****         {
 4981              		.loc 1 1107 12 view .LVU1360
 4982 0056 13F0200F 		tst	r3, #32
 4983 005a EBD1     		bne	.L399
1109:System/shell/shell.c ****         }
 4984              		.loc 1 1109 13 is_stmt 1 view .LVU1361
 4985 005c 0146     		mov	r1, r0
 4986 005e 2046     		mov	r0, r4
 4987              	.LVL486:
1109:System/shell/shell.c ****         }
 4988              		.loc 1 1109 13 is_stmt 0 view .LVU1362
 4989 0060 FFF7FEFF 		bl	shellWriteReturnValue
 4990              	.LVL487:
1109:System/shell/shell.c ****         }
 4991              		.loc 1 1109 13 view .LVU1363
 4992 0064 E6E7     		b	.L399
 4993              	.LVL488:
 4994              	.L405:
1114:System/shell/shell.c ****                                   command,
 4995              		.loc 1 1114 9 is_stmt 1 view .LVU1364
1114:System/shell/shell.c ****                                   command,
 4996              		.loc 1 1114 23 is_stmt 0 view .LVU1365
 4997 0066 00F11403 		add	r3, r0, #20
 4998 006a C28E     		ldrh	r2, [r0, #54]
 4999 006c FFF7FEFF 		bl	shellExtRun
 5000              	.LVL489:
1114:System/shell/shell.c ****                                   command,
 5001              		.loc 1 1114 23 view .LVU1366
 5002 0070 0646     		mov	r6, r0
 5003              	.LVL490:
1118:System/shell/shell.c ****         {
 5004              		.loc 1 1118 9 is_stmt 1 view .LVU1367
1118:System/shell/shell.c ****         {
 5005              		.loc 1 1118 13 is_stmt 0 view .LVU1368
 5006 0072 6B78     		ldrb	r3, [r5, #1]	@ zero_extendqisi2
1118:System/shell/shell.c ****         {
 5007              		.loc 1 1118 12 view .LVU1369
 5008 0074 13F0200F 		tst	r3, #32
 5009 0078 DCD1     		bne	.L399
1120:System/shell/shell.c ****         }
 5010              		.loc 1 1120 13 is_stmt 1 view .LVU1370
 5011 007a 0146     		mov	r1, r0
 5012 007c 2046     		mov	r0, r4
 5013              	.LVL491:
1120:System/shell/shell.c ****         }
 5014              		.loc 1 1120 13 is_stmt 0 view .LVU1371
 5015 007e FFF7FEFF 		bl	shellWriteReturnValue
 5016              	.LVL492:
1120:System/shell/shell.c ****         }
 5017              		.loc 1 1120 13 view .LVU1372
 5018 0082 D7E7     		b	.L399
 5019              	.LVL493:
 5020              	.L406:
1125:System/shell/shell.c ****     }
 5021              		.loc 1 1125 9 is_stmt 1 view .LVU1373
ARM GAS  C:\Users\HUAV\AppData\Local\Temp\ccBfvIcs.s 			page 141


 5022 0084 FFF7FEFF 		bl	shellShowVar
 5023              	.LVL494:
1100:System/shell/shell.c ****     shell->status.isActive = 1;
 5024              		.loc 1 1100 9 is_stmt 0 view .LVU1374
 5025 0088 0026     		movs	r6, #0
 5026 008a D3E7     		b	.L399
 5027              	.LVL495:
 5028              	.L407:
1129:System/shell/shell.c ****     }
 5029              		.loc 1 1129 9 is_stmt 1 view .LVU1375
 5030 008c FFF7FEFF 		bl	shellSetUser
 5031              	.LVL496:
1100:System/shell/shell.c ****     shell->status.isActive = 1;
 5032              		.loc 1 1100 9 is_stmt 0 view .LVU1376
 5033 0090 0026     		movs	r6, #0
 5034 0092 CFE7     		b	.L399
 5035              		.cfi_endproc
 5036              	.LFE36:
 5038              		.section	.text.shellNormalInput,"ax",%progbits
 5039              		.align	1
 5040              		.global	shellNormalInput
 5041              		.syntax unified
 5042              		.thumb
 5043              		.thumb_func
 5044              		.fpu fpv5-d16
 5046              	shellNormalInput:
 5047              	.LVL497:
 5048              	.LFB42:
1286:System/shell/shell.c ****     shell->status.tabFlag = 0;
 5049              		.loc 1 1286 1 is_stmt 1 view -0
 5050              		.cfi_startproc
 5051              		@ args = 0, pretend = 0, frame = 0
 5052              		@ frame_needed = 0, uses_anonymous_args = 0
1286:System/shell/shell.c ****     shell->status.tabFlag = 0;
 5053              		.loc 1 1286 1 is_stmt 0 view .LVU1378
 5054 0000 08B5     		push	{r3, lr}
 5055              	.LCFI67:
 5056              		.cfi_def_cfa_offset 8
 5057              		.cfi_offset 3, -8
 5058              		.cfi_offset 14, -4
1287:System/shell/shell.c ****     shellInsertByte(shell, data);
 5059              		.loc 1 1287 5 is_stmt 1 view .LVU1379
1287:System/shell/shell.c ****     shellInsertByte(shell, data);
 5060              		.loc 1 1287 27 is_stmt 0 view .LVU1380
 5061 0002 90F86020 		ldrb	r2, [r0, #96]	@ zero_extendqisi2
 5062 0006 6FF38202 		bfc	r2, #2, #1
 5063 000a 80F86020 		strb	r2, [r0, #96]
1288:System/shell/shell.c **** }
 5064              		.loc 1 1288 5 is_stmt 1 view .LVU1381
 5065 000e FFF7FEFF 		bl	shellInsertByte
 5066              	.LVL498:
1289:System/shell/shell.c **** 
 5067              		.loc 1 1289 1 is_stmt 0 view .LVU1382
 5068 0012 08BD     		pop	{r3, pc}
 5069              		.cfi_endproc
 5070              	.LFE42:
 5072              		.section	.text.shellExec,"ax",%progbits
ARM GAS  C:\Users\HUAV\AppData\Local\Temp\ccBfvIcs.s 			page 142


 5073              		.align	1
 5074              		.global	shellExec
 5075              		.syntax unified
 5076              		.thumb
 5077              		.thumb_func
 5078              		.fpu fpv5-d16
 5080              	shellExec:
 5081              	.LVL499:
 5082              	.LFB43:
1297:System/shell/shell.c **** 
 5083              		.loc 1 1297 1 is_stmt 1 view -0
 5084              		.cfi_startproc
 5085              		@ args = 0, pretend = 0, frame = 0
 5086              		@ frame_needed = 0, uses_anonymous_args = 0
1299:System/shell/shell.c ****     {
 5087              		.loc 1 1299 5 view .LVU1384
1299:System/shell/shell.c ****     {
 5088              		.loc 1 1299 22 is_stmt 0 view .LVU1385
 5089 0000 8389     		ldrh	r3, [r0, #12]
1299:System/shell/shell.c ****     {
 5090              		.loc 1 1299 8 view .LVU1386
 5091 0002 5BB3     		cbz	r3, .L415
1297:System/shell/shell.c **** 
 5092              		.loc 1 1297 1 view .LVU1387
 5093 0004 10B5     		push	{r4, lr}
 5094              	.LCFI68:
 5095              		.cfi_def_cfa_offset 8
 5096              		.cfi_offset 4, -8
 5097              		.cfi_offset 14, -4
 5098 0006 0446     		mov	r4, r0
1304:System/shell/shell.c **** 
 5099              		.loc 1 1304 5 is_stmt 1 view .LVU1388
1304:System/shell/shell.c **** 
 5100              		.loc 1 1304 18 is_stmt 0 view .LVU1389
 5101 0008 0269     		ldr	r2, [r0, #16]
1304:System/shell/shell.c **** 
 5102              		.loc 1 1304 48 view .LVU1390
 5103 000a 0021     		movs	r1, #0
 5104 000c D154     		strb	r1, [r2, r3]
1306:System/shell/shell.c ****     {
 5105              		.loc 1 1306 5 is_stmt 1 view .LVU1391
1306:System/shell/shell.c ****     {
 5106              		.loc 1 1306 9 is_stmt 0 view .LVU1392
 5107 000e 90F86030 		ldrb	r3, [r0, #96]	@ zero_extendqisi2
1306:System/shell/shell.c ****     {
 5108              		.loc 1 1306 8 view .LVU1393
 5109 0012 13F0010F 		tst	r3, #1
 5110 0016 1ED0     		beq	.L412
 5111              	.LBB34:
1308:System/shell/shell.c ****         shellParserParam(shell);
 5112              		.loc 1 1308 9 is_stmt 1 view .LVU1394
 5113 0018 FFF7FEFF 		bl	shellHistoryAdd
 5114              	.LVL500:
1309:System/shell/shell.c ****         shell->parser.length = shell->parser.cursor = 0;
 5115              		.loc 1 1309 9 view .LVU1395
 5116 001c 2046     		mov	r0, r4
 5117 001e FFF7FEFF 		bl	shellParserParam
ARM GAS  C:\Users\HUAV\AppData\Local\Temp\ccBfvIcs.s 			page 143


 5118              	.LVL501:
1310:System/shell/shell.c ****         if (shell->parser.paramCount == 0)
 5119              		.loc 1 1310 9 view .LVU1396
1310:System/shell/shell.c ****         if (shell->parser.paramCount == 0)
 5120              		.loc 1 1310 53 is_stmt 0 view .LVU1397
 5121 0022 0023     		movs	r3, #0
 5122 0024 E381     		strh	r3, [r4, #14]	@ movhi
1310:System/shell/shell.c ****         if (shell->parser.paramCount == 0)
 5123              		.loc 1 1310 30 view .LVU1398
 5124 0026 A381     		strh	r3, [r4, #12]	@ movhi
1311:System/shell/shell.c ****         {
 5125              		.loc 1 1311 9 is_stmt 1 view .LVU1399
1311:System/shell/shell.c ****         {
 5126              		.loc 1 1311 26 is_stmt 0 view .LVU1400
 5127 0028 E38E     		ldrh	r3, [r4, #54]
1311:System/shell/shell.c ****         {
 5128              		.loc 1 1311 12 view .LVU1401
 5129 002a B3B1     		cbz	r3, .L410
1315:System/shell/shell.c **** 
 5130              		.loc 1 1315 9 is_stmt 1 view .LVU1402
 5131 002c 0C49     		ldr	r1, .L418
 5132 002e 2046     		mov	r0, r4
 5133 0030 FFF7FEFF 		bl	shellWriteString
 5134              	.LVL502:
1317:System/shell/shell.c ****                                                  shell->parser.param[0],
 5135              		.loc 1 1317 9 view .LVU1403
1317:System/shell/shell.c ****                                                  shell->parser.param[0],
 5136              		.loc 1 1317 33 is_stmt 0 view .LVU1404
 5137 0034 0023     		movs	r3, #0
 5138 0036 A26D     		ldr	r2, [r4, #88]
 5139 0038 6169     		ldr	r1, [r4, #20]
 5140 003a 2046     		mov	r0, r4
 5141 003c FFF7FEFF 		bl	shellSeekCommand
 5142              	.LVL503:
1321:System/shell/shell.c ****         {
 5143              		.loc 1 1321 9 is_stmt 1 view .LVU1405
1321:System/shell/shell.c ****         {
 5144              		.loc 1 1321 12 is_stmt 0 view .LVU1406
 5145 0040 0146     		mov	r1, r0
 5146 0042 18B1     		cbz	r0, .L413
1323:System/shell/shell.c ****         }
 5147              		.loc 1 1323 13 is_stmt 1 view .LVU1407
 5148 0044 2046     		mov	r0, r4
 5149              	.LVL504:
1323:System/shell/shell.c ****         }
 5150              		.loc 1 1323 13 is_stmt 0 view .LVU1408
 5151 0046 FFF7FEFF 		bl	shellRunCommand
 5152              	.LVL505:
1323:System/shell/shell.c ****         }
 5153              		.loc 1 1323 13 view .LVU1409
 5154 004a 06E0     		b	.L410
 5155              	.LVL506:
 5156              	.L413:
1327:System/shell/shell.c ****         }
 5157              		.loc 1 1327 13 is_stmt 1 view .LVU1410
 5158 004c 0549     		ldr	r1, .L418+4
 5159 004e 2046     		mov	r0, r4
ARM GAS  C:\Users\HUAV\AppData\Local\Temp\ccBfvIcs.s 			page 144


 5160              	.LVL507:
1327:System/shell/shell.c ****         }
 5161              		.loc 1 1327 13 is_stmt 0 view .LVU1411
 5162 0050 FFF7FEFF 		bl	shellWriteString
 5163              	.LVL508:
 5164 0054 01E0     		b	.L410
 5165              	.LVL509:
 5166              	.L412:
1327:System/shell/shell.c ****         }
 5167              		.loc 1 1327 13 view .LVU1412
 5168              	.LBE34:
1332:System/shell/shell.c ****     }
 5169              		.loc 1 1332 9 is_stmt 1 view .LVU1413
 5170 0056 FFF7FEFF 		bl	shellCheckPassword
 5171              	.LVL510:
 5172              	.L410:
1334:System/shell/shell.c **** 
 5173              		.loc 1 1334 1 is_stmt 0 view .LVU1414
 5174 005a 10BD     		pop	{r4, pc}
 5175              	.LVL511:
 5176              	.L415:
 5177              	.LCFI69:
 5178              		.cfi_def_cfa_offset 0
 5179              		.cfi_restore 4
 5180              		.cfi_restore 14
1334:System/shell/shell.c **** 
 5181              		.loc 1 1334 1 view .LVU1415
 5182 005c 7047     		bx	lr
 5183              	.L419:
 5184 005e 00BF     		.align	2
 5185              	.L418:
 5186 0060 04000000 		.word	.LC3
 5187 0064 14000000 		.word	.LC24
 5188              		.cfi_endproc
 5189              	.LFE43:
 5191              		.section	.text.shellEnter,"ax",%progbits
 5192              		.align	1
 5193              		.global	shellEnter
 5194              		.syntax unified
 5195              		.thumb
 5196              		.thumb_func
 5197              		.fpu fpv5-d16
 5199              	shellEnter:
 5200              	.LVL512:
 5201              	.LFB51:
1511:System/shell/shell.c ****     shellExec(shell);
 5202              		.loc 1 1511 1 is_stmt 1 view -0
 5203              		.cfi_startproc
 5204              		@ args = 0, pretend = 0, frame = 0
 5205              		@ frame_needed = 0, uses_anonymous_args = 0
1511:System/shell/shell.c ****     shellExec(shell);
 5206              		.loc 1 1511 1 is_stmt 0 view .LVU1417
 5207 0000 10B5     		push	{r4, lr}
 5208              	.LCFI70:
 5209              		.cfi_def_cfa_offset 8
 5210              		.cfi_offset 4, -8
 5211              		.cfi_offset 14, -4
ARM GAS  C:\Users\HUAV\AppData\Local\Temp\ccBfvIcs.s 			page 145


 5212 0002 0446     		mov	r4, r0
1512:System/shell/shell.c ****     shellWriteCommandLine(shell, 1);
 5213              		.loc 1 1512 5 is_stmt 1 view .LVU1418
 5214 0004 FFF7FEFF 		bl	shellExec
 5215              	.LVL513:
1513:System/shell/shell.c **** }
 5216              		.loc 1 1513 5 view .LVU1419
 5217 0008 0121     		movs	r1, #1
 5218 000a 2046     		mov	r0, r4
 5219 000c FFF7FEFF 		bl	shellWriteCommandLine
 5220              	.LVL514:
1514:System/shell/shell.c **** #if SHELL_ENTER_LF == 1
 5221              		.loc 1 1514 1 is_stmt 0 view .LVU1420
 5222 0010 10BD     		pop	{r4, pc}
1514:System/shell/shell.c **** #if SHELL_ENTER_LF == 1
 5223              		.loc 1 1514 1 view .LVU1421
 5224              		.cfi_endproc
 5225              	.LFE51:
 5227              		.section	.text.shellHandler,"ax",%progbits
 5228              		.align	1
 5229              		.global	shellHandler
 5230              		.syntax unified
 5231              		.thumb
 5232              		.thumb_func
 5233              		.fpu fpv5-d16
 5235              	shellHandler:
 5236              	.LVL515:
 5237              	.LFB53:
1573:System/shell/shell.c ****     SHELL_ASSERT(data, return );
 5238              		.loc 1 1573 1 is_stmt 1 view -0
 5239              		.cfi_startproc
 5240              		@ args = 0, pretend = 0, frame = 0
 5241              		@ frame_needed = 0, uses_anonymous_args = 0
1574:System/shell/shell.c **** 
 5242              		.loc 1 1574 5 view .LVU1423
 5243 0000 0029     		cmp	r1, #0
 5244 0002 65D0     		beq	.L435
1573:System/shell/shell.c ****     SHELL_ASSERT(data, return );
 5245              		.loc 1 1573 1 is_stmt 0 discriminator 2 view .LVU1424
 5246 0004 2DE9F047 		push	{r4, r5, r6, r7, r8, r9, r10, lr}
 5247              	.LCFI71:
 5248              		.cfi_def_cfa_offset 32
 5249              		.cfi_offset 4, -32
 5250              		.cfi_offset 5, -28
 5251              		.cfi_offset 6, -24
 5252              		.cfi_offset 7, -20
 5253              		.cfi_offset 8, -16
 5254              		.cfi_offset 9, -12
 5255              		.cfi_offset 10, -8
 5256              		.cfi_offset 14, -4
 5257 0008 0646     		mov	r6, r0
 5258 000a 8A46     		mov	r10, r1
1574:System/shell/shell.c **** 
 5259              		.loc 1 1574 32 is_stmt 1 discriminator 2 view .LVU1425
1587:System/shell/shell.c ****     int keyFilter = 0x00000000;
 5260              		.loc 1 1587 5 discriminator 2 view .LVU1426
 5261              	.LVL516:
ARM GAS  C:\Users\HUAV\AppData\Local\Temp\ccBfvIcs.s 			page 146


1588:System/shell/shell.c ****     if ((shell->parser.keyValue & 0x0000FF00) != 0x00000000)
 5262              		.loc 1 1588 5 discriminator 2 view .LVU1427
1589:System/shell/shell.c ****     {
 5263              		.loc 1 1589 5 discriminator 2 view .LVU1428
1589:System/shell/shell.c ****     {
 5264              		.loc 1 1589 23 is_stmt 0 discriminator 2 view .LVU1429
 5265 000c 836B     		ldr	r3, [r0, #56]
1589:System/shell/shell.c ****     {
 5266              		.loc 1 1589 8 discriminator 2 view .LVU1430
 5267 000e 13F47F4F 		tst	r3, #65280
 5268 0012 08D1     		bne	.L430
1594:System/shell/shell.c ****     {
 5269              		.loc 1 1594 10 is_stmt 1 view .LVU1431
1594:System/shell/shell.c ****     {
 5270              		.loc 1 1594 13 is_stmt 0 view .LVU1432
 5271 0014 13F47F09 		ands	r9, r3, #16711680
 5272 0018 0AD1     		bne	.L431
1599:System/shell/shell.c ****     {
 5273              		.loc 1 1599 10 is_stmt 1 view .LVU1433
1599:System/shell/shell.c ****     {
 5274              		.loc 1 1599 13 is_stmt 0 view .LVU1434
 5275 001a 13F07F4F 		tst	r3, #-16777216
 5276 001e 0ED1     		bne	.L432
1587:System/shell/shell.c ****     int keyFilter = 0x00000000;
 5277              		.loc 1 1587 10 view .LVU1435
 5278 0020 4FF01808 		mov	r8, #24
 5279 0024 08E0     		b	.L424
 5280              	.L430:
1592:System/shell/shell.c ****     }
 5281              		.loc 1 1592 19 view .LVU1436
 5282 0026 6FF0FF09 		mvn	r9, #255
1591:System/shell/shell.c ****         keyFilter = 0xFFFFFF00;
 5283              		.loc 1 1591 23 view .LVU1437
 5284 002a 4FF00008 		mov	r8, #0
 5285 002e 03E0     		b	.L424
 5286              	.L431:
1597:System/shell/shell.c ****     }
 5287              		.loc 1 1597 19 view .LVU1438
 5288 0030 DFF8A090 		ldr	r9, .L440
1596:System/shell/shell.c ****         keyFilter = 0xFFFF0000;
 5289              		.loc 1 1596 23 view .LVU1439
 5290 0034 4FF00808 		mov	r8, #8
 5291              	.L424:
 5292              	.LVL517:
1606:System/shell/shell.c ****     for (short i = 0; i < shell->commandList.count; i++)
 5293              		.loc 1 1606 5 is_stmt 1 view .LVU1440
1606:System/shell/shell.c ****     for (short i = 0; i < shell->commandList.count; i++)
 5294              		.loc 1 1606 19 is_stmt 0 view .LVU1441
 5295 0038 B76D     		ldr	r7, [r6, #88]
 5296              	.LVL518:
1607:System/shell/shell.c ****     {
 5297              		.loc 1 1607 5 is_stmt 1 view .LVU1442
 5298              	.LBB35:
1607:System/shell/shell.c ****     {
 5299              		.loc 1 1607 10 view .LVU1443
1607:System/shell/shell.c ****     {
 5300              		.loc 1 1607 16 is_stmt 0 view .LVU1444
ARM GAS  C:\Users\HUAV\AppData\Local\Temp\ccBfvIcs.s 			page 147


 5301 003a 0024     		movs	r4, #0
1607:System/shell/shell.c ****     {
 5302              		.loc 1 1607 5 view .LVU1445
 5303 003c 0DE0     		b	.L425
 5304              	.LVL519:
 5305              	.L432:
1607:System/shell/shell.c ****     {
 5306              		.loc 1 1607 5 view .LVU1446
 5307              	.LBE35:
1602:System/shell/shell.c ****     }
 5308              		.loc 1 1602 19 view .LVU1447
 5309 003e 4FF07F49 		mov	r9, #-16777216
1601:System/shell/shell.c ****         keyFilter = 0xFF000000;
 5310              		.loc 1 1601 23 view .LVU1448
 5311 0042 4FF01008 		mov	r8, #16
 5312 0046 F7E7     		b	.L424
 5313              	.LVL520:
 5314              	.L427:
 5315              	.LBB36:
1619:System/shell/shell.c ****                     {
 5316              		.loc 1 1619 21 is_stmt 1 view .LVU1449
1619:System/shell/shell.c ****                     {
 5317              		.loc 1 1619 41 is_stmt 0 view .LVU1450
 5318 0048 AB68     		ldr	r3, [r5, #8]
1619:System/shell/shell.c ****                     {
 5319              		.loc 1 1619 24 view .LVU1451
 5320 004a 0BB1     		cbz	r3, .L428
1621:System/shell/shell.c ****                     }
 5321              		.loc 1 1621 25 is_stmt 1 view .LVU1452
 5322 004c 3046     		mov	r0, r6
 5323 004e 9847     		blx	r3
 5324              	.LVL521:
 5325              	.L428:
1623:System/shell/shell.c ****                     break;
 5326              		.loc 1 1623 21 view .LVU1453
1623:System/shell/shell.c ****                     break;
 5327              		.loc 1 1623 44 is_stmt 0 view .LVU1454
 5328 0050 0023     		movs	r3, #0
 5329 0052 B363     		str	r3, [r6, #56]
1624:System/shell/shell.c ****                 }
 5330              		.loc 1 1624 21 is_stmt 1 view .LVU1455
1624:System/shell/shell.c ****                 }
 5331              		.loc 1 1624 21 is_stmt 0 view .LVU1456
 5332              	.LBE36:
1630:System/shell/shell.c ****     {
 5333              		.loc 1 1630 5 is_stmt 1 view .LVU1457
 5334 0054 33E0     		b	.L422
 5335              	.LVL522:
 5336              	.L426:
 5337              	.LBB37:
1607:System/shell/shell.c ****     {
 5338              		.loc 1 1607 53 discriminator 2 view .LVU1458
1607:System/shell/shell.c ****     {
 5339              		.loc 1 1607 54 is_stmt 0 discriminator 2 view .LVU1459
 5340 0056 0134     		adds	r4, r4, #1
 5341              	.LVL523:
1607:System/shell/shell.c ****     {
ARM GAS  C:\Users\HUAV\AppData\Local\Temp\ccBfvIcs.s 			page 148


 5342              		.loc 1 1607 54 discriminator 2 view .LVU1460
 5343 0058 24B2     		sxth	r4, r4
 5344              	.LVL524:
 5345              	.L425:
1607:System/shell/shell.c ****     {
 5346              		.loc 1 1607 23 is_stmt 1 discriminator 1 view .LVU1461
1607:System/shell/shell.c ****     {
 5347              		.loc 1 1607 45 is_stmt 0 discriminator 1 view .LVU1462
 5348 005a B6F85C30 		ldrh	r3, [r6, #92]
1607:System/shell/shell.c ****     {
 5349              		.loc 1 1607 5 discriminator 1 view .LVU1463
 5350 005e 9C42     		cmp	r4, r3
 5351 0060 2ADA     		bge	.L438
1610:System/shell/shell.c ****         {
 5352              		.loc 1 1610 9 is_stmt 1 view .LVU1464
1610:System/shell/shell.c ****         {
 5353              		.loc 1 1610 17 is_stmt 0 view .LVU1465
 5354 0062 07EB0415 		add	r5, r7, r4, lsl #4
1610:System/shell/shell.c ****         {
 5355              		.loc 1 1610 37 view .LVU1466
 5356 0066 6B78     		ldrb	r3, [r5, #1]	@ zero_extendqisi2
 5357 0068 03F00F03 		and	r3, r3, #15
1610:System/shell/shell.c ****         {
 5358              		.loc 1 1610 12 view .LVU1467
 5359 006c 092B     		cmp	r3, #9
 5360 006e F2D1     		bne	.L426
1610:System/shell/shell.c ****         {
 5361              		.loc 1 1610 58 discriminator 1 view .LVU1468
 5362 0070 2946     		mov	r1, r5
 5363 0072 3046     		mov	r0, r6
 5364 0074 FFF7FEFF 		bl	shellCheckPermission
 5365              	.LVL525:
1610:System/shell/shell.c ****         {
 5366              		.loc 1 1610 55 discriminator 1 view .LVU1469
 5367 0078 0028     		cmp	r0, #0
 5368 007a ECD1     		bne	.L426
1613:System/shell/shell.c ****             {
 5369              		.loc 1 1613 13 is_stmt 1 view .LVU1470
1613:System/shell/shell.c ****             {
 5370              		.loc 1 1613 34 is_stmt 0 view .LVU1471
 5371 007c 6B68     		ldr	r3, [r5, #4]
1613:System/shell/shell.c ****             {
 5372              		.loc 1 1613 41 view .LVU1472
 5373 007e 03EA0901 		and	r1, r3, r9
1613:System/shell/shell.c ****             {
 5374              		.loc 1 1613 70 view .LVU1473
 5375 0082 B26B     		ldr	r2, [r6, #56]
1613:System/shell/shell.c ****             {
 5376              		.loc 1 1613 16 view .LVU1474
 5377 0084 9142     		cmp	r1, r2
 5378 0086 E6D1     		bne	.L426
1613:System/shell/shell.c ****             {
 5379              		.loc 1 1613 115 discriminator 1 view .LVU1475
 5380 0088 FF21     		movs	r1, #255
 5381 008a 01FA08F1 		lsl	r1, r1, r8
1613:System/shell/shell.c ****             {
 5382              		.loc 1 1613 107 discriminator 1 view .LVU1476
ARM GAS  C:\Users\HUAV\AppData\Local\Temp\ccBfvIcs.s 			page 149


 5383 008e 0B40     		ands	r3, r3, r1
1613:System/shell/shell.c ****             {
 5384              		.loc 1 1613 143 discriminator 1 view .LVU1477
 5385 0090 0AFA08F1 		lsl	r1, r10, r8
1613:System/shell/shell.c ****             {
 5386              		.loc 1 1613 80 discriminator 1 view .LVU1478
 5387 0094 8B42     		cmp	r3, r1
 5388 0096 DED1     		bne	.L426
1615:System/shell/shell.c ****                 data = 0x00;
 5389              		.loc 1 1615 17 is_stmt 1 view .LVU1479
1615:System/shell/shell.c ****                 data = 0x00;
 5390              		.loc 1 1615 40 is_stmt 0 view .LVU1480
 5391 0098 0A43     		orrs	r2, r2, r1
 5392 009a B263     		str	r2, [r6, #56]
1616:System/shell/shell.c ****                 if (keyByteOffset == 0 || (base[i].data.key.value & (0xFF << (keyByteOffset - 8))) 
 5393              		.loc 1 1616 17 is_stmt 1 view .LVU1481
 5394              	.LVL526:
1617:System/shell/shell.c ****                 {
 5395              		.loc 1 1617 17 view .LVU1482
1617:System/shell/shell.c ****                 {
 5396              		.loc 1 1617 20 is_stmt 0 view .LVU1483
 5397 009c B8F1000F 		cmp	r8, #0
 5398 00a0 D2D0     		beq	.L427
1617:System/shell/shell.c ****                 {
 5399              		.loc 1 1617 60 discriminator 1 view .LVU1484
 5400 00a2 6B68     		ldr	r3, [r5, #4]
1617:System/shell/shell.c ****                 {
 5401              		.loc 1 1617 93 discriminator 1 view .LVU1485
 5402 00a4 A8F10800 		sub	r0, r8, #8
1617:System/shell/shell.c ****                 {
 5403              		.loc 1 1617 75 discriminator 1 view .LVU1486
 5404 00a8 FF22     		movs	r2, #255
 5405 00aa 02FA00F0 		lsl	r0, r2, r0
1617:System/shell/shell.c ****                 {
 5406              		.loc 1 1617 40 discriminator 1 view .LVU1487
 5407 00ae 0342     		tst	r3, r0
 5408 00b0 CAD0     		beq	.L427
1616:System/shell/shell.c ****                 if (keyByteOffset == 0 || (base[i].data.key.value & (0xFF << (keyByteOffset - 8))) 
 5409              		.loc 1 1616 22 view .LVU1488
 5410 00b2 4FF0000A 		mov	r10, #0
 5411 00b6 CEE7     		b	.L426
 5412              	.LVL527:
 5413              	.L438:
1616:System/shell/shell.c ****                 if (keyByteOffset == 0 || (base[i].data.key.value & (0xFF << (keyByteOffset - 8))) 
 5414              		.loc 1 1616 22 view .LVU1489
 5415              	.LBE37:
1630:System/shell/shell.c ****     {
 5416              		.loc 1 1630 5 is_stmt 1 view .LVU1490
1630:System/shell/shell.c ****     {
 5417              		.loc 1 1630 8 is_stmt 0 view .LVU1491
 5418 00b8 BAF1000F 		cmp	r10, #0
 5419 00bc 01D1     		bne	.L439
 5420              	.LVL528:
 5421              	.L422:
1640:System/shell/shell.c **** 
 5422              		.loc 1 1640 1 view .LVU1492
 5423 00be BDE8F087 		pop	{r4, r5, r6, r7, r8, r9, r10, pc}
ARM GAS  C:\Users\HUAV\AppData\Local\Temp\ccBfvIcs.s 			page 150


 5424              	.LVL529:
 5425              	.L439:
1632:System/shell/shell.c ****         shellNormalInput(shell, data);
 5426              		.loc 1 1632 9 is_stmt 1 view .LVU1493
1632:System/shell/shell.c ****         shellNormalInput(shell, data);
 5427              		.loc 1 1632 32 is_stmt 0 view .LVU1494
 5428 00c2 0023     		movs	r3, #0
 5429 00c4 B363     		str	r3, [r6, #56]
1633:System/shell/shell.c ****     }
 5430              		.loc 1 1633 9 is_stmt 1 view .LVU1495
 5431 00c6 5146     		mov	r1, r10
 5432 00c8 3046     		mov	r0, r6
 5433 00ca FFF7FEFF 		bl	shellNormalInput
 5434              	.LVL530:
 5435 00ce F6E7     		b	.L422
 5436              	.LVL531:
 5437              	.L435:
 5438              	.LCFI72:
 5439              		.cfi_def_cfa_offset 0
 5440              		.cfi_restore 4
 5441              		.cfi_restore 5
 5442              		.cfi_restore 6
 5443              		.cfi_restore 7
 5444              		.cfi_restore 8
 5445              		.cfi_restore 9
 5446              		.cfi_restore 10
 5447              		.cfi_restore 14
1633:System/shell/shell.c ****     }
 5448              		.loc 1 1633 9 is_stmt 0 view .LVU1496
 5449 00d0 7047     		bx	lr
 5450              	.L441:
 5451 00d2 00BF     		.align	2
 5452              	.L440:
 5453 00d4 0000FFFF 		.word	-65536
 5454              		.cfi_endproc
 5455              	.LFE53:
 5457              		.section	.text.shellTask,"ax",%progbits
 5458              		.align	1
 5459              		.global	shellTask
 5460              		.syntax unified
 5461              		.thumb
 5462              		.thumb_func
 5463              		.fpu fpv5-d16
 5465              	shellTask:
 5466              	.LVL532:
 5467              	.LFB54:
1675:System/shell/shell.c ****     Shell *shell = (Shell *)param;
 5468              		.loc 1 1675 1 is_stmt 1 view -0
 5469              		.cfi_startproc
 5470              		@ args = 0, pretend = 0, frame = 8
 5471              		@ frame_needed = 0, uses_anonymous_args = 0
1676:System/shell/shell.c ****     char data;
 5472              		.loc 1 1676 5 view .LVU1498
1677:System/shell/shell.c **** #if SHELL_TASK_WHILE == 1
 5473              		.loc 1 1677 5 view .LVU1499
1682:System/shell/shell.c ****         {
 5474              		.loc 1 1682 9 view .LVU1500
ARM GAS  C:\Users\HUAV\AppData\Local\Temp\ccBfvIcs.s 			page 151


1682:System/shell/shell.c ****         {
 5475              		.loc 1 1682 18 is_stmt 0 view .LVU1501
 5476 0000 436E     		ldr	r3, [r0, #100]
1682:System/shell/shell.c ****         {
 5477              		.loc 1 1682 12 view .LVU1502
 5478 0002 73B1     		cbz	r3, .L445
1675:System/shell/shell.c ****     Shell *shell = (Shell *)param;
 5479              		.loc 1 1675 1 discriminator 1 view .LVU1503
 5480 0004 10B5     		push	{r4, lr}
 5481              	.LCFI73:
 5482              		.cfi_def_cfa_offset 8
 5483              		.cfi_offset 4, -8
 5484              		.cfi_offset 14, -4
 5485 0006 82B0     		sub	sp, sp, #8
 5486              	.LCFI74:
 5487              		.cfi_def_cfa_offset 16
 5488 0008 0446     		mov	r4, r0
1682:System/shell/shell.c ****         {
 5489              		.loc 1 1682 28 discriminator 1 view .LVU1504
 5490 000a 0DF10700 		add	r0, sp, #7
 5491              	.LVL533:
1682:System/shell/shell.c ****         {
 5492              		.loc 1 1682 28 discriminator 1 view .LVU1505
 5493 000e 9847     		blx	r3
 5494              	.LVL534:
1682:System/shell/shell.c ****         {
 5495              		.loc 1 1682 25 discriminator 1 view .LVU1506
 5496 0010 08B1     		cbz	r0, .L448
 5497              	.L442:
1689:System/shell/shell.c **** 
 5498              		.loc 1 1689 1 view .LVU1507
 5499 0012 02B0     		add	sp, sp, #8
 5500              	.LCFI75:
 5501              		.cfi_remember_state
 5502              		.cfi_def_cfa_offset 8
 5503              		@ sp needed
 5504 0014 10BD     		pop	{r4, pc}
 5505              	.LVL535:
 5506              	.L448:
 5507              	.LCFI76:
 5508              		.cfi_restore_state
1684:System/shell/shell.c ****         }
 5509              		.loc 1 1684 13 is_stmt 1 view .LVU1508
 5510 0016 9DF80710 		ldrb	r1, [sp, #7]	@ zero_extendqisi2
 5511 001a 2046     		mov	r0, r4
 5512 001c FFF7FEFF 		bl	shellHandler
 5513              	.LVL536:
1689:System/shell/shell.c **** 
 5514              		.loc 1 1689 1 is_stmt 0 view .LVU1509
 5515 0020 F7E7     		b	.L442
 5516              	.LVL537:
 5517              	.L445:
 5518              	.LCFI77:
 5519              		.cfi_def_cfa_offset 0
 5520              		.cfi_restore 4
 5521              		.cfi_restore 14
1689:System/shell/shell.c **** 
ARM GAS  C:\Users\HUAV\AppData\Local\Temp\ccBfvIcs.s 			page 152


 5522              		.loc 1 1689 1 view .LVU1510
 5523 0022 7047     		bx	lr
 5524              		.cfi_endproc
 5525              	.LFE54:
 5527              		.section	.text.shellRun,"ax",%progbits
 5528              		.align	1
 5529              		.global	shellRun
 5530              		.syntax unified
 5531              		.thumb
 5532              		.thumb_func
 5533              		.fpu fpv5-d16
 5535              	shellRun:
 5536              	.LVL538:
 5537              	.LFB60:
1762:System/shell/shell.c **** SHELL_EXPORT_CMD(
1763:System/shell/shell.c ****     SHELL_CMD_PERMISSION(0) | SHELL_CMD_TYPE(SHELL_TYPE_CMD_FUNC) | SHELL_CMD_DISABLE_RETURN,
1764:System/shell/shell.c ****     clear, shellClear, clear console);
1765:System/shell/shell.c **** 
1766:System/shell/shell.c **** /**
1767:System/shell/shell.c ****  * @brief shell执行命令
1768:System/shell/shell.c ****  *
1769:System/shell/shell.c ****  * @param shell shell对象
1770:System/shell/shell.c ****  * @param cmd 命令字符串
1771:System/shell/shell.c ****  * @return int 返回值
1772:System/shell/shell.c ****  */
1773:System/shell/shell.c **** int shellRun(Shell *shell, const char *cmd)
1774:System/shell/shell.c **** {
 5538              		.loc 1 1774 1 is_stmt 1 view -0
 5539              		.cfi_startproc
 5540              		@ args = 0, pretend = 0, frame = 0
 5541              		@ frame_needed = 0, uses_anonymous_args = 0
 5542              		.loc 1 1774 1 is_stmt 0 view .LVU1512
 5543 0000 70B5     		push	{r4, r5, r6, lr}
 5544              	.LCFI78:
 5545              		.cfi_def_cfa_offset 16
 5546              		.cfi_offset 4, -16
 5547              		.cfi_offset 5, -12
 5548              		.cfi_offset 6, -8
 5549              		.cfi_offset 14, -4
1775:System/shell/shell.c ****     SHELL_ASSERT(shell && cmd, return -1);
 5550              		.loc 1 1775 5 is_stmt 1 view .LVU1513
 5551 0002 0D46     		mov	r5, r1
 5552 0004 B1FA81F1 		clz	r1, r1
 5553              	.LVL539:
 5554              		.loc 1 1775 5 is_stmt 0 view .LVU1514
 5555 0008 4909     		lsrs	r1, r1, #5
 5556 000a 0028     		cmp	r0, #0
 5557 000c 08BF     		it	eq
 5558 000e 0121     		moveq	r1, #1
 5559 0010 11BB     		cbnz	r1, .L452
 5560 0012 0446     		mov	r4, r0
 5561              		.loc 1 1775 42 is_stmt 1 discriminator 2 view .LVU1515
1776:System/shell/shell.c ****     char active = shell->status.isActive;
 5562              		.loc 1 1776 5 discriminator 2 view .LVU1516
 5563              		.loc 1 1776 32 is_stmt 0 discriminator 2 view .LVU1517
 5564 0014 90F86030 		ldrb	r3, [r0, #96]	@ zero_extendqisi2
 5565 0018 C3F34006 		ubfx	r6, r3, #1, #1
ARM GAS  C:\Users\HUAV\AppData\Local\Temp\ccBfvIcs.s 			page 153


 5566              	.LVL540:
1777:System/shell/shell.c ****     if (strlen(cmd) > shell->parser.bufferSize - 1)
 5567              		.loc 1 1777 5 is_stmt 1 discriminator 2 view .LVU1518
 5568              		.loc 1 1777 9 is_stmt 0 discriminator 2 view .LVU1519
 5569 001c 2846     		mov	r0, r5
 5570              	.LVL541:
 5571              		.loc 1 1777 9 discriminator 2 view .LVU1520
 5572 001e FFF7FEFF 		bl	strlen
 5573              	.LVL542:
 5574              		.loc 1 1777 36 discriminator 2 view .LVU1521
 5575 0022 A38E     		ldrh	r3, [r4, #52]
 5576              		.loc 1 1777 48 discriminator 2 view .LVU1522
 5577 0024 013B     		subs	r3, r3, #1
 5578              		.loc 1 1777 8 discriminator 2 view .LVU1523
 5579 0026 9842     		cmp	r0, r3
 5580 0028 0FD8     		bhi	.L454
1778:System/shell/shell.c ****     {
1779:System/shell/shell.c ****         shellWriteString(shell, shellText[SHELL_TEXT_CMD_TOO_LONG]);
1780:System/shell/shell.c ****         return -1;
1781:System/shell/shell.c ****     }
1782:System/shell/shell.c ****     else
1783:System/shell/shell.c ****     {
1784:System/shell/shell.c ****         shell->parser.length = shellStringCopy(shell->parser.buffer, (char *)cmd);
 5581              		.loc 1 1784 9 is_stmt 1 view .LVU1524
 5582              		.loc 1 1784 32 is_stmt 0 view .LVU1525
 5583 002a 2946     		mov	r1, r5
 5584 002c 2069     		ldr	r0, [r4, #16]
 5585 002e FFF7FEFF 		bl	shellStringCopy
 5586              	.LVL543:
 5587              		.loc 1 1784 30 view .LVU1526
 5588 0032 A081     		strh	r0, [r4, #12]	@ movhi
1785:System/shell/shell.c ****         shellExec(shell);
 5589              		.loc 1 1785 9 is_stmt 1 view .LVU1527
 5590 0034 2046     		mov	r0, r4
 5591 0036 FFF7FEFF 		bl	shellExec
 5592              	.LVL544:
1786:System/shell/shell.c ****         shell->status.isActive = active;
 5593              		.loc 1 1786 9 view .LVU1528
 5594              		.loc 1 1786 32 is_stmt 0 view .LVU1529
 5595 003a 94F86030 		ldrb	r3, [r4, #96]	@ zero_extendqisi2
 5596 003e 66F34103 		bfi	r3, r6, #1, #1
 5597 0042 84F86030 		strb	r3, [r4, #96]
1787:System/shell/shell.c ****         return 0;
 5598              		.loc 1 1787 9 is_stmt 1 view .LVU1530
 5599              		.loc 1 1787 16 is_stmt 0 view .LVU1531
 5600 0046 0020     		movs	r0, #0
 5601              	.LVL545:
 5602              	.L449:
1788:System/shell/shell.c ****     }
1789:System/shell/shell.c **** }
 5603              		.loc 1 1789 1 view .LVU1532
 5604 0048 70BD     		pop	{r4, r5, r6, pc}
 5605              	.LVL546:
 5606              	.L454:
1779:System/shell/shell.c ****         return -1;
 5607              		.loc 1 1779 9 is_stmt 1 view .LVU1533
 5608 004a 0549     		ldr	r1, .L455
ARM GAS  C:\Users\HUAV\AppData\Local\Temp\ccBfvIcs.s 			page 154


 5609 004c 2046     		mov	r0, r4
 5610 004e FFF7FEFF 		bl	shellWriteString
 5611              	.LVL547:
1780:System/shell/shell.c ****     }
 5612              		.loc 1 1780 9 view .LVU1534
1780:System/shell/shell.c ****     }
 5613              		.loc 1 1780 16 is_stmt 0 view .LVU1535
 5614 0052 4FF0FF30 		mov	r0, #-1
 5615 0056 F7E7     		b	.L449
 5616              	.LVL548:
 5617              	.L452:
1775:System/shell/shell.c ****     char active = shell->status.isActive;
 5618              		.loc 1 1775 5 view .LVU1536
 5619 0058 4FF0FF30 		mov	r0, #-1
 5620              	.LVL549:
1775:System/shell/shell.c ****     char active = shell->status.isActive;
 5621              		.loc 1 1775 5 view .LVU1537
 5622 005c F4E7     		b	.L449
 5623              	.L456:
 5624 005e 00BF     		.align	2
 5625              	.L455:
 5626 0060 00000000 		.word	.LC21
 5627              		.cfi_endproc
 5628              	.LFE60:
 5630              		.global	shellCommandclear
 5631              		.global	shellDescclear
 5632              		.global	shellCmdclear
 5633              		.global	shellCommandkeys
 5634              		.global	shellDesckeys
 5635              		.global	shellCmdkeys
 5636              		.global	shellCommandvars
 5637              		.global	shellDescvars
 5638              		.global	shellCmdvars
 5639              		.global	shellCommandcmds
 5640              		.global	shellDesccmds
 5641              		.global	shellCmdcmds
 5642              		.global	shellCommandusers
 5643              		.global	shellDescusers
 5644              		.global	shellCmdusers
 5645              		.global	shellCommandhelp
 5646              		.global	shellDeschelp
 5647              		.global	shellCmdhelp
 5648              		.global	shellKey0x0D000000
 5649              		.global	shellDesc0x0D000000
 5650              		.global	shellKey0x0A000000
 5651              		.global	shellDesc0x0A000000
 5652              		.global	shellKey0x1B5B337E
 5653              		.global	shellDesc0x1B5B337E
 5654              		.global	shellKey0x7F000000
 5655              		.global	shellDesc0x7F000000
 5656              		.global	shellKey0x08000000
 5657              		.global	shellDesc0x08000000
 5658              		.global	shellKey0x09000000
 5659              		.global	shellDesc0x09000000
 5660              		.global	shellKey0x1B5B4400
 5661              		.global	shellDesc0x1B5B4400
 5662              		.global	shellKey0x1B5B4300
ARM GAS  C:\Users\HUAV\AppData\Local\Temp\ccBfvIcs.s 			page 155


 5663              		.global	shellDesc0x1B5B4300
 5664              		.global	shellKey0x1B5B4200
 5665              		.global	shellDesc0x1B5B4200
 5666              		.global	shellKey0x1B5B4100
 5667              		.global	shellDesc0x1B5B4100
 5668              		.global	shellCommandsetVar
 5669              		.global	shellDescsetVar
 5670              		.global	shellCmdsetVar
 5671              		.global	shellUserDefault
 5672              		.global	shellDesDefaultUser
 5673              		.global	shellPasswordDefaultUser
 5674              		.global	shellCmdDefaultUser
 5675              		.section	.bss.buffer.7064,"aw",%nobits
 5676              		.align	2
 5677              		.set	.LANCHOR1,. + 0
 5680              	buffer.7064:
 5681 0000 00000000 		.space	9
 5681      00000000 
 5681      00
 5682              		.section	.bss.shellList,"aw",%nobits
 5683              		.align	2
 5684              		.set	.LANCHOR0,. + 0
 5687              	shellList:
 5688 0000 00000000 		.space	20
 5688      00000000 
 5688      00000000 
 5688      00000000 
 5688      00000000 
 5689              		.section	.rodata.shellCmdDefaultUser,"a"
 5690              		.align	2
 5693              	shellCmdDefaultUser:
 5694 0000 502E302E 		.ascii	"P.0.Wder Squad\000"
 5694      57646572 
 5694      20537175 
 5694      616400
 5695              		.section	.rodata.shellCmdclear,"a"
 5696              		.align	2
 5699              	shellCmdclear:
 5700 0000 636C6561 		.ascii	"clear\000"
 5700      7200
 5701              		.section	.rodata.shellCmdcmds,"a"
 5702              		.align	2
 5705              	shellCmdcmds:
 5706 0000 636D6473 		.ascii	"cmds\000"
 5706      00
 5707              		.section	.rodata.shellCmdhelp,"a"
 5708              		.align	2
 5711              	shellCmdhelp:
 5712 0000 68656C70 		.ascii	"help\000"
 5712      00
 5713              		.section	.rodata.shellCmdkeys,"a"
 5714              		.align	2
 5717              	shellCmdkeys:
 5718 0000 6B657973 		.ascii	"keys\000"
 5718      00
 5719              		.section	.rodata.shellCmdsetVar,"a"
 5720              		.align	2
ARM GAS  C:\Users\HUAV\AppData\Local\Temp\ccBfvIcs.s 			page 156


 5723              	shellCmdsetVar:
 5724 0000 73657456 		.ascii	"setVar\000"
 5724      617200
 5725              		.section	.rodata.shellCmdusers,"a"
 5726              		.align	2
 5729              	shellCmdusers:
 5730 0000 75736572 		.ascii	"users\000"
 5730      7300
 5731              		.section	.rodata.shellCmdvars,"a"
 5732              		.align	2
 5735              	shellCmdvars:
 5736 0000 76617273 		.ascii	"vars\000"
 5736      00
 5737              		.section	.rodata.shellDesDefaultUser,"a"
 5738              		.align	2
 5741              	shellDesDefaultUser:
 5742 0000 64656661 		.ascii	"default user\000"
 5742      756C7420 
 5742      75736572 
 5742      00
 5743              		.section	.rodata.shellDesc0x08000000,"a"
 5744              		.align	2
 5747              	shellDesc0x08000000:
 5748 0000 6261636B 		.ascii	"backspace\000"
 5748      73706163 
 5748      6500
 5749              		.section	.rodata.shellDesc0x09000000,"a"
 5750              		.align	2
 5753              	shellDesc0x09000000:
 5754 0000 74616200 		.ascii	"tab\000"
 5755              		.section	.rodata.shellDesc0x0A000000,"a"
 5756              		.align	2
 5759              	shellDesc0x0A000000:
 5760 0000 656E7465 		.ascii	"enter\000"
 5760      7200
 5761              		.section	.rodata.shellDesc0x0D000000,"a"
 5762              		.align	2
 5765              	shellDesc0x0D000000:
 5766 0000 656E7465 		.ascii	"enter\000"
 5766      7200
 5767              		.section	.rodata.shellDesc0x1B5B337E,"a"
 5768              		.align	2
 5771              	shellDesc0x1B5B337E:
 5772 0000 64656C65 		.ascii	"delete\000"
 5772      746500
 5773              		.section	.rodata.shellDesc0x1B5B4100,"a"
 5774              		.align	2
 5777              	shellDesc0x1B5B4100:
 5778 0000 757000   		.ascii	"up\000"
 5779              		.section	.rodata.shellDesc0x1B5B4200,"a"
 5780              		.align	2
 5783              	shellDesc0x1B5B4200:
 5784 0000 646F776E 		.ascii	"down\000"
 5784      00
 5785              		.section	.rodata.shellDesc0x1B5B4300,"a"
 5786              		.align	2
 5789              	shellDesc0x1B5B4300:
ARM GAS  C:\Users\HUAV\AppData\Local\Temp\ccBfvIcs.s 			page 157


 5790 0000 72696768 		.ascii	"right\000"
 5790      7400
 5791              		.section	.rodata.shellDesc0x1B5B4400,"a"
 5792              		.align	2
 5795              	shellDesc0x1B5B4400:
 5796 0000 6C656674 		.ascii	"left\000"
 5796      00
 5797              		.section	.rodata.shellDesc0x7F000000,"a"
 5798              		.align	2
 5801              	shellDesc0x7F000000:
 5802 0000 6261636B 		.ascii	"backspace\000"
 5802      73706163 
 5802      6500
 5803              		.section	.rodata.shellDescclear,"a"
 5804              		.align	2
 5807              	shellDescclear:
 5808 0000 636C6561 		.ascii	"clear console\000"
 5808      7220636F 
 5808      6E736F6C 
 5808      6500
 5809              		.section	.rodata.shellDesccmds,"a"
 5810              		.align	2
 5813              	shellDesccmds:
 5814 0000 6C697374 		.ascii	"list all cmd\000"
 5814      20616C6C 
 5814      20636D64 
 5814      00
 5815              		.section	.rodata.shellDeschelp,"a"
 5816              		.align	2
 5819              	shellDeschelp:
 5820 0000 73686F77 		.ascii	"show command info\015\012help[cmd]\000"
 5820      20636F6D 
 5820      6D616E64 
 5820      20696E66 
 5820      6F0D0A68 
 5821              		.section	.rodata.shellDesckeys,"a"
 5822              		.align	2
 5825              	shellDesckeys:
 5826 0000 6C697374 		.ascii	"list all key\000"
 5826      20616C6C 
 5826      206B6579 
 5826      00
 5827              		.section	.rodata.shellDescsetVar,"a"
 5828              		.align	2
 5831              	shellDescsetVar:
 5832 0000 73657420 		.ascii	"set var\000"
 5832      76617200 
 5833              		.section	.rodata.shellDescusers,"a"
 5834              		.align	2
 5837              	shellDescusers:
 5838 0000 6C697374 		.ascii	"list all user\000"
 5838      20616C6C 
 5838      20757365 
 5838      7200
 5839              		.section	.rodata.shellDescvars,"a"
 5840              		.align	2
 5843              	shellDescvars:
ARM GAS  C:\Users\HUAV\AppData\Local\Temp\ccBfvIcs.s 			page 158


 5844 0000 6C697374 		.ascii	"list all var\000"
 5844      20616C6C 
 5844      20766172 
 5844      00
 5845              		.section	.rodata.shellPasswordDefaultUser,"a"
 5846              		.align	2
 5849              	shellPasswordDefaultUser:
 5850 0000 00       		.space	1
 5851              		.section	shellCommand,"a"
 5852              		.align	2
 5855              	shellCommandclear:
 5856 0000 00210000 		.word	8448
 5857 0004 00000000 		.word	shellCmdclear
 5858 0008 00000000 		.word	shellClear
 5859 000c 00000000 		.word	shellDescclear
 5862              	shellCommandkeys:
 5863 0010 00210000 		.word	8448
 5864 0014 00000000 		.word	shellCmdkeys
 5865 0018 00000000 		.word	shellKeys
 5866 001c 00000000 		.word	shellDesckeys
 5869              	shellCommandvars:
 5870 0020 00210000 		.word	8448
 5871 0024 00000000 		.word	shellCmdvars
 5872 0028 00000000 		.word	shellVars
 5873 002c 00000000 		.word	shellDescvars
 5876              	shellCommandcmds:
 5877 0030 00210000 		.word	8448
 5878 0034 00000000 		.word	shellCmdcmds
 5879 0038 00000000 		.word	shellCmds
 5880 003c 00000000 		.word	shellDesccmds
 5883              	shellCommandusers:
 5884 0040 00210000 		.word	8448
 5885 0044 00000000 		.word	shellCmdusers
 5886 0048 00000000 		.word	shellUsers
 5887 004c 00000000 		.word	shellDescusers
 5890              	shellCommandhelp:
 5891 0050 00200000 		.word	8192
 5892 0054 00000000 		.word	shellCmdhelp
 5893 0058 00000000 		.word	shellHelp
 5894 005c 00000000 		.word	shellDeschelp
 5897              	shellKey0x0D000000:
 5898 0060 00190000 		.word	6400
 5899 0064 0000000D 		.word	218103808
 5900 0068 00000000 		.word	shellEnter
 5901 006c 00000000 		.word	shellDesc0x0D000000
 5904              	shellKey0x0A000000:
 5905 0070 00190000 		.word	6400
 5906 0074 0000000A 		.word	167772160
 5907 0078 00000000 		.word	shellEnter
 5908 007c 00000000 		.word	shellDesc0x0A000000
 5911              	shellKey0x1B5B337E:
 5912 0080 00190000 		.word	6400
 5913 0084 7E335B1B 		.word	458961790
 5914 0088 00000000 		.word	shellDelete
 5915 008c 00000000 		.word	shellDesc0x1B5B337E
 5918              	shellKey0x7F000000:
 5919 0090 00190000 		.word	6400
ARM GAS  C:\Users\HUAV\AppData\Local\Temp\ccBfvIcs.s 			page 159


 5920 0094 0000007F 		.word	2130706432
 5921 0098 00000000 		.word	shellBackspace
 5922 009c 00000000 		.word	shellDesc0x7F000000
 5925              	shellKey0x08000000:
 5926 00a0 00190000 		.word	6400
 5927 00a4 00000008 		.word	134217728
 5928 00a8 00000000 		.word	shellBackspace
 5929 00ac 00000000 		.word	shellDesc0x08000000
 5932              	shellKey0x09000000:
 5933 00b0 00090000 		.word	2304
 5934 00b4 00000009 		.word	150994944
 5935 00b8 00000000 		.word	shellTab
 5936 00bc 00000000 		.word	shellDesc0x09000000
 5939              	shellKey0x1B5B4400:
 5940 00c0 00190000 		.word	6400
 5941 00c4 00445B1B 		.word	458966016
 5942 00c8 00000000 		.word	shellLeft
 5943 00cc 00000000 		.word	shellDesc0x1B5B4400
 5946              	shellKey0x1B5B4300:
 5947 00d0 00190000 		.word	6400
 5948 00d4 00435B1B 		.word	458965760
 5949 00d8 00000000 		.word	shellRight
 5950 00dc 00000000 		.word	shellDesc0x1B5B4300
 5953              	shellKey0x1B5B4200:
 5954 00e0 00090000 		.word	2304
 5955 00e4 00425B1B 		.word	458965504
 5956 00e8 00000000 		.word	shellDown
 5957 00ec 00000000 		.word	shellDesc0x1B5B4200
 5960              	shellKey0x1B5B4100:
 5961 00f0 00090000 		.word	2304
 5962 00f4 00415B1B 		.word	458965248
 5963 00f8 00000000 		.word	shellUp
 5964 00fc 00000000 		.word	shellDesc0x1B5B4100
 5967              	shellCommandsetVar:
 5968 0100 00210000 		.word	8448
 5969 0104 00000000 		.word	shellCmdsetVar
 5970 0108 00000000 		.word	shellSetVar
 5971 010c 00000000 		.word	shellDescsetVar
 5974              	shellUserDefault:
 5975 0110 00080000 		.word	2048
 5976 0114 00000000 		.word	shellCmdDefaultUser
 5977 0118 00000000 		.word	shellPasswordDefaultUser
 5978 011c 00000000 		.word	shellDesDefaultUser
 5979              		.text
 5980              	.Letext0:
 5981              		.file 2 "d:\\software\\zephyr_env_gcc\\gcc-arm-none-eabi-9-2019-q4-major-win32\\arm-none-eabi\\inc
 5982              		.file 3 "d:\\software\\zephyr_env_gcc\\gcc-arm-none-eabi-9-2019-q4-major-win32\\arm-none-eabi\\inc
 5983              		.file 4 "System/shell/shell.h"
 5984              		.file 5 "d:\\software\\zephyr_env_gcc\\gcc-arm-none-eabi-9-2019-q4-major-win32\\arm-none-eabi\\inc
 5985              		.file 6 "d:\\software\\zephyr_env_gcc\\gcc-arm-none-eabi-9-2019-q4-major-win32\\arm-none-eabi\\inc
 5986              		.file 7 "d:\\software\\zephyr_env_gcc\\gcc-arm-none-eabi-9-2019-q4-major-win32\\lib\\gcc\\arm-none
 5987              		.file 8 "d:\\software\\zephyr_env_gcc\\gcc-arm-none-eabi-9-2019-q4-major-win32\\arm-none-eabi\\inc
 5988              		.file 9 "d:\\software\\zephyr_env_gcc\\gcc-arm-none-eabi-9-2019-q4-major-win32\\lib\\gcc\\arm-none
 5989              		.file 10 "d:\\software\\zephyr_env_gcc\\gcc-arm-none-eabi-9-2019-q4-major-win32\\arm-none-eabi\\in
 5990              		.file 11 "d:\\software\\zephyr_env_gcc\\gcc-arm-none-eabi-9-2019-q4-major-win32\\arm-none-eabi\\in
 5991              		.file 12 "System/shell/shell_ext.h"
 5992              		.file 13 "<built-in>"
ARM GAS  C:\Users\HUAV\AppData\Local\Temp\ccBfvIcs.s 			page 160


ARM GAS  C:\Users\HUAV\AppData\Local\Temp\ccBfvIcs.s 			page 161


DEFINED SYMBOLS
                            *ABS*:00000000 shell.c
C:\Users\HUAV\AppData\Local\Temp\ccBfvIcs.s:17     .text.shellAdd:00000000 $t
C:\Users\HUAV\AppData\Local\Temp\ccBfvIcs.s:24     .text.shellAdd:00000000 shellAdd
C:\Users\HUAV\AppData\Local\Temp\ccBfvIcs.s:78     .text.shellAdd:00000020 $d
C:\Users\HUAV\AppData\Local\Temp\ccBfvIcs.s:83     .text.shellStringCopy:00000000 $t
C:\Users\HUAV\AppData\Local\Temp\ccBfvIcs.s:89     .text.shellStringCopy:00000000 shellStringCopy
C:\Users\HUAV\AppData\Local\Temp\ccBfvIcs.s:142    .text.shellStringCompare:00000000 $t
C:\Users\HUAV\AppData\Local\Temp\ccBfvIcs.s:148    .text.shellStringCompare:00000000 shellStringCompare
C:\Users\HUAV\AppData\Local\Temp\ccBfvIcs.s:219    .text.shellGetCommandDesc:00000000 $t
C:\Users\HUAV\AppData\Local\Temp\ccBfvIcs.s:225    .text.shellGetCommandDesc:00000000 shellGetCommandDesc
C:\Users\HUAV\AppData\Local\Temp\ccBfvIcs.s:282    .text.shellParserParam:00000000 $t
C:\Users\HUAV\AppData\Local\Temp\ccBfvIcs.s:288    .text.shellParserParam:00000000 shellParserParam
C:\Users\HUAV\AppData\Local\Temp\ccBfvIcs.s:485    .text.shellHistoryAdd:00000000 $t
C:\Users\HUAV\AppData\Local\Temp\ccBfvIcs.s:491    .text.shellHistoryAdd:00000000 shellHistoryAdd
C:\Users\HUAV\AppData\Local\Temp\ccBfvIcs.s:590    .text.shellRemoveParamQuotes:00000000 $t
C:\Users\HUAV\AppData\Local\Temp\ccBfvIcs.s:596    .text.shellRemoveParamQuotes:00000000 shellRemoveParamQuotes
C:\Users\HUAV\AppData\Local\Temp\ccBfvIcs.s:698    .text.shellGetCurrent:00000000 $t
C:\Users\HUAV\AppData\Local\Temp\ccBfvIcs.s:705    .text.shellGetCurrent:00000000 shellGetCurrent
C:\Users\HUAV\AppData\Local\Temp\ccBfvIcs.s:756    .text.shellGetCurrent:00000028 $d
C:\Users\HUAV\AppData\Local\Temp\ccBfvIcs.s:761    .text.shellWriteByte:00000000 $t
C:\Users\HUAV\AppData\Local\Temp\ccBfvIcs.s:768    .text.shellWriteByte:00000000 shellWriteByte
C:\Users\HUAV\AppData\Local\Temp\ccBfvIcs.s:806    .text.shellRight:00000000 $t
C:\Users\HUAV\AppData\Local\Temp\ccBfvIcs.s:813    .text.shellRight:00000000 shellRight
C:\Users\HUAV\AppData\Local\Temp\ccBfvIcs.s:856    .text.shellLeft:00000000 $t
C:\Users\HUAV\AppData\Local\Temp\ccBfvIcs.s:863    .text.shellLeft:00000000 shellLeft
C:\Users\HUAV\AppData\Local\Temp\ccBfvIcs.s:901    .text.shellWriteString:00000000 $t
C:\Users\HUAV\AppData\Local\Temp\ccBfvIcs.s:908    .text.shellWriteString:00000000 shellWriteString
C:\Users\HUAV\AppData\Local\Temp\ccBfvIcs.s:951    .rodata.shellSetUser.str1.4:00000000 $d
C:\Users\HUAV\AppData\Local\Temp\ccBfvIcs.s:962    .text.shellSetUser:00000000 $t
C:\Users\HUAV\AppData\Local\Temp\ccBfvIcs.s:968    .text.shellSetUser:00000000 shellSetUser
C:\Users\HUAV\AppData\Local\Temp\ccBfvIcs.s:1059   .text.shellSetUser:00000058 $d
C:\Users\HUAV\AppData\Local\Temp\ccBfvIcs.s:1065   .rodata.shellWriteCommandLine.str1.4:00000000 $d
C:\Users\HUAV\AppData\Local\Temp\ccBfvIcs.s:1081   .text.shellWriteCommandLine:00000000 $t
C:\Users\HUAV\AppData\Local\Temp\ccBfvIcs.s:1087   .text.shellWriteCommandLine:00000000 shellWriteCommandLine
C:\Users\HUAV\AppData\Local\Temp\ccBfvIcs.s:1170   .text.shellWriteCommandLine:0000004c $d
C:\Users\HUAV\AppData\Local\Temp\ccBfvIcs.s:1179   .rodata.shellCheckPassword.str1.4:00000000 $d
C:\Users\HUAV\AppData\Local\Temp\ccBfvIcs.s:1183   .text.shellCheckPassword:00000000 $t
C:\Users\HUAV\AppData\Local\Temp\ccBfvIcs.s:1189   .text.shellCheckPassword:00000000 shellCheckPassword
C:\Users\HUAV\AppData\Local\Temp\ccBfvIcs.s:1246   .text.shellCheckPassword:00000038 $d
C:\Users\HUAV\AppData\Local\Temp\ccBfvIcs.s:1252   .text.shellClear:00000000 $t
C:\Users\HUAV\AppData\Local\Temp\ccBfvIcs.s:1259   .text.shellClear:00000000 shellClear
C:\Users\HUAV\AppData\Local\Temp\ccBfvIcs.s:1287   .text.shellClear:00000010 $d
C:\Users\HUAV\AppData\Local\Temp\ccBfvIcs.s:1292   .text.shellPrint:00000000 $t
C:\Users\HUAV\AppData\Local\Temp\ccBfvIcs.s:1299   .text.shellPrint:00000000 shellPrint
C:\Users\HUAV\AppData\Local\Temp\ccBfvIcs.s:1371   .text.shellScan:00000000 $t
C:\Users\HUAV\AppData\Local\Temp\ccBfvIcs.s:1378   .text.shellScan:00000000 shellScan
C:\Users\HUAV\AppData\Local\Temp\ccBfvIcs.s:1519   .text.shellScan:00000074 $d
C:\Users\HUAV\AppData\Local\Temp\ccBfvIcs.s:1524   .text.shellCheckPermission:00000000 $t
C:\Users\HUAV\AppData\Local\Temp\ccBfvIcs.s:1531   .text.shellCheckPermission:00000000 shellCheckPermission
C:\Users\HUAV\AppData\Local\Temp\ccBfvIcs.s:1597   .text.shellToHex:00000000 $t
C:\Users\HUAV\AppData\Local\Temp\ccBfvIcs.s:1604   .text.shellToHex:00000000 shellToHex
C:\Users\HUAV\AppData\Local\Temp\ccBfvIcs.s:1670   .text.shellGetCommandName:00000000 $t
C:\Users\HUAV\AppData\Local\Temp\ccBfvIcs.s:1676   .text.shellGetCommandName:00000000 shellGetCommandName
C:\Users\HUAV\AppData\Local\Temp\ccBfvIcs.s:1774   .text.shellGetCommandName:00000040 $d
C:\Users\HUAV\AppData\Local\Temp\ccBfvIcs.s:1779   .text.shellToDec:00000000 $t
C:\Users\HUAV\AppData\Local\Temp\ccBfvIcs.s:1786   .text.shellToDec:00000000 shellToDec
ARM GAS  C:\Users\HUAV\AppData\Local\Temp\ccBfvIcs.s 			page 162


C:\Users\HUAV\AppData\Local\Temp\ccBfvIcs.s:1909   .text.shellToDec:00000058 $d
C:\Users\HUAV\AppData\Local\Temp\ccBfvIcs.s:1914   .rodata.shellWriteReturnValue.str1.4:00000000 $d
C:\Users\HUAV\AppData\Local\Temp\ccBfvIcs.s:1924   .text.shellWriteReturnValue:00000000 $t
C:\Users\HUAV\AppData\Local\Temp\ccBfvIcs.s:1930   .text.shellWriteReturnValue:00000000 shellWriteReturnValue
C:\Users\HUAV\AppData\Local\Temp\ccBfvIcs.s:2035   .text.shellWriteReturnValue:0000006c $d
C:\Users\HUAV\AppData\Local\Temp\ccBfvIcs.s:2043   .rodata.shellListItem.str1.4:00000000 $d
C:\Users\HUAV\AppData\Local\Temp\ccBfvIcs.s:2059   .text.shellListItem:00000000 $t
C:\Users\HUAV\AppData\Local\Temp\ccBfvIcs.s:2066   .text.shellListItem:00000000 shellListItem
C:\Users\HUAV\AppData\Local\Temp\ccBfvIcs.s:2190   .text.shellListItem:0000007c $d
C:\Users\HUAV\AppData\Local\Temp\ccBfvIcs.s:2199   .rodata.shellListCommand.str1.4:00000000 $d
C:\Users\HUAV\AppData\Local\Temp\ccBfvIcs.s:2203   .text.shellListCommand:00000000 $t
C:\Users\HUAV\AppData\Local\Temp\ccBfvIcs.s:2210   .text.shellListCommand:00000000 shellListCommand
C:\Users\HUAV\AppData\Local\Temp\ccBfvIcs.s:2293   .text.shellListCommand:00000044 $d
C:\Users\HUAV\AppData\Local\Temp\ccBfvIcs.s:2298   .text.shellCmds:00000000 $t
C:\Users\HUAV\AppData\Local\Temp\ccBfvIcs.s:2305   .text.shellCmds:00000000 shellCmds
C:\Users\HUAV\AppData\Local\Temp\ccBfvIcs.s:2333   .rodata.shellListVar.str1.4:00000000 $d
C:\Users\HUAV\AppData\Local\Temp\ccBfvIcs.s:2337   .text.shellListVar:00000000 $t
C:\Users\HUAV\AppData\Local\Temp\ccBfvIcs.s:2344   .text.shellListVar:00000000 shellListVar
C:\Users\HUAV\AppData\Local\Temp\ccBfvIcs.s:2430   .text.shellListVar:00000048 $d
C:\Users\HUAV\AppData\Local\Temp\ccBfvIcs.s:2435   .text.shellVars:00000000 $t
C:\Users\HUAV\AppData\Local\Temp\ccBfvIcs.s:2442   .text.shellVars:00000000 shellVars
C:\Users\HUAV\AppData\Local\Temp\ccBfvIcs.s:2470   .rodata.shellListUser.str1.4:00000000 $d
C:\Users\HUAV\AppData\Local\Temp\ccBfvIcs.s:2474   .text.shellListUser:00000000 $t
C:\Users\HUAV\AppData\Local\Temp\ccBfvIcs.s:2481   .text.shellListUser:00000000 shellListUser
C:\Users\HUAV\AppData\Local\Temp\ccBfvIcs.s:2564   .text.shellListUser:00000044 $d
C:\Users\HUAV\AppData\Local\Temp\ccBfvIcs.s:2569   .text.shellUsers:00000000 $t
C:\Users\HUAV\AppData\Local\Temp\ccBfvIcs.s:2576   .text.shellUsers:00000000 shellUsers
C:\Users\HUAV\AppData\Local\Temp\ccBfvIcs.s:2604   .rodata.shellListKey.str1.4:00000000 $d
C:\Users\HUAV\AppData\Local\Temp\ccBfvIcs.s:2608   .text.shellListKey:00000000 $t
C:\Users\HUAV\AppData\Local\Temp\ccBfvIcs.s:2615   .text.shellListKey:00000000 shellListKey
C:\Users\HUAV\AppData\Local\Temp\ccBfvIcs.s:2698   .text.shellListKey:00000044 $d
C:\Users\HUAV\AppData\Local\Temp\ccBfvIcs.s:2703   .text.shellKeys:00000000 $t
C:\Users\HUAV\AppData\Local\Temp\ccBfvIcs.s:2710   .text.shellKeys:00000000 shellKeys
C:\Users\HUAV\AppData\Local\Temp\ccBfvIcs.s:2738   .text.shellListAll:00000000 $t
C:\Users\HUAV\AppData\Local\Temp\ccBfvIcs.s:2745   .text.shellListAll:00000000 shellListAll
C:\Users\HUAV\AppData\Local\Temp\ccBfvIcs.s:2767   .rodata.shellDeleteCommandLine.str1.4:00000000 $d
C:\Users\HUAV\AppData\Local\Temp\ccBfvIcs.s:2771   .text.shellDeleteCommandLine:00000000 $t
C:\Users\HUAV\AppData\Local\Temp\ccBfvIcs.s:2778   .text.shellDeleteCommandLine:00000000 shellDeleteCommandLine
C:\Users\HUAV\AppData\Local\Temp\ccBfvIcs.s:2820   .text.shellDeleteCommandLine:00000018 $d
C:\Users\HUAV\AppData\Local\Temp\ccBfvIcs.s:2825   .text.shellClearCommandLine:00000000 $t
C:\Users\HUAV\AppData\Local\Temp\ccBfvIcs.s:2832   .text.shellClearCommandLine:00000000 shellClearCommandLine
C:\Users\HUAV\AppData\Local\Temp\ccBfvIcs.s:2894   .text.shellHistory:00000000 $t
C:\Users\HUAV\AppData\Local\Temp\ccBfvIcs.s:2900   .text.shellHistory:00000000 shellHistory
C:\Users\HUAV\AppData\Local\Temp\ccBfvIcs.s:3024   .text.shellHistory:00000094 $d
C:\Users\HUAV\AppData\Local\Temp\ccBfvIcs.s:3029   .text.shellUp:00000000 $t
C:\Users\HUAV\AppData\Local\Temp\ccBfvIcs.s:3036   .text.shellUp:00000000 shellUp
C:\Users\HUAV\AppData\Local\Temp\ccBfvIcs.s:3059   .text.shellDown:00000000 $t
C:\Users\HUAV\AppData\Local\Temp\ccBfvIcs.s:3066   .text.shellDown:00000000 shellDown
C:\Users\HUAV\AppData\Local\Temp\ccBfvIcs.s:3089   .text.shellTab:00000000 $t
C:\Users\HUAV\AppData\Local\Temp\ccBfvIcs.s:3096   .text.shellTab:00000000 shellTab
C:\Users\HUAV\AppData\Local\Temp\ccBfvIcs.s:3358   .text.shellTab:00000110 $d
C:\Users\HUAV\AppData\Local\Temp\ccBfvIcs.s:3364   .rodata.shellInsertByte.str1.4:00000000 $d
C:\Users\HUAV\AppData\Local\Temp\ccBfvIcs.s:3368   .text.shellInsertByte:00000000 $t
C:\Users\HUAV\AppData\Local\Temp\ccBfvIcs.s:3375   .text.shellInsertByte:00000000 shellInsertByte
C:\Users\HUAV\AppData\Local\Temp\ccBfvIcs.s:3605   .text.shellInsertByte:000000b8 $d
C:\Users\HUAV\AppData\Local\Temp\ccBfvIcs.s:3610   .text.shellDeleteByte:00000000 $t
C:\Users\HUAV\AppData\Local\Temp\ccBfvIcs.s:3617   .text.shellDeleteByte:00000000 shellDeleteByte
ARM GAS  C:\Users\HUAV\AppData\Local\Temp\ccBfvIcs.s 			page 163


C:\Users\HUAV\AppData\Local\Temp\ccBfvIcs.s:3859   .text.shellBackspace:00000000 $t
C:\Users\HUAV\AppData\Local\Temp\ccBfvIcs.s:3866   .text.shellBackspace:00000000 shellBackspace
C:\Users\HUAV\AppData\Local\Temp\ccBfvIcs.s:3889   .text.shellDelete:00000000 $t
C:\Users\HUAV\AppData\Local\Temp\ccBfvIcs.s:3896   .text.shellDelete:00000000 shellDelete
C:\Users\HUAV\AppData\Local\Temp\ccBfvIcs.s:3919   .text.shellSeekCommand:00000000 $t
C:\Users\HUAV\AppData\Local\Temp\ccBfvIcs.s:3926   .text.shellSeekCommand:00000000 shellSeekCommand
C:\Users\HUAV\AppData\Local\Temp\ccBfvIcs.s:4054   .rodata.shellInit.str1.4:00000000 $d
C:\Users\HUAV\AppData\Local\Temp\ccBfvIcs.s:4058   .text.shellInit:00000000 $t
C:\Users\HUAV\AppData\Local\Temp\ccBfvIcs.s:4065   .text.shellInit:00000000 shellInit
C:\Users\HUAV\AppData\Local\Temp\ccBfvIcs.s:4191   .text.shellInit:0000007c $d
C:\Users\HUAV\AppData\Local\Temp\ccBfvIcs.s:4199   .rodata.shellHelp.str1.4:00000000 $d
C:\Users\HUAV\AppData\Local\Temp\ccBfvIcs.s:4206   .text.shellHelp:00000000 $t
C:\Users\HUAV\AppData\Local\Temp\ccBfvIcs.s:4213   .text.shellHelp:00000000 shellHelp
C:\Users\HUAV\AppData\Local\Temp\ccBfvIcs.s:4323   .text.shellHelp:00000070 $d
C:\Users\HUAV\AppData\Local\Temp\ccBfvIcs.s:4331   .text.shellGetVarValue:00000000 $t
C:\Users\HUAV\AppData\Local\Temp\ccBfvIcs.s:4338   .text.shellGetVarValue:00000000 shellGetVarValue
C:\Users\HUAV\AppData\Local\Temp\ccBfvIcs.s:4362   .text.shellGetVarValue:00000012 $d
C:\Users\HUAV\AppData\Local\Temp\ccBfvIcs.s:4368   .text.shellGetVarValue:00000018 $t
C:\Users\HUAV\AppData\Local\Temp\ccBfvIcs.s:4444   .rodata.shellShowVar.str1.4:00000000 $d
C:\Users\HUAV\AppData\Local\Temp\ccBfvIcs.s:4451   .text.shellShowVar:00000000 $t
C:\Users\HUAV\AppData\Local\Temp\ccBfvIcs.s:4457   .text.shellShowVar:00000000 shellShowVar
C:\Users\HUAV\AppData\Local\Temp\ccBfvIcs.s:4614   .text.shellShowVar:000000a8 $d
C:\Users\HUAV\AppData\Local\Temp\ccBfvIcs.s:4623   .rodata.shellSetVarValue.str1.4:00000000 $d
C:\Users\HUAV\AppData\Local\Temp\ccBfvIcs.s:4630   .text.shellSetVarValue:00000000 $t
C:\Users\HUAV\AppData\Local\Temp\ccBfvIcs.s:4637   .text.shellSetVarValue:00000000 shellSetVarValue
C:\Users\HUAV\AppData\Local\Temp\ccBfvIcs.s:4670   .text.shellSetVarValue:0000001e $d
C:\Users\HUAV\AppData\Local\Temp\ccBfvIcs.s:4676   .text.shellSetVarValue:00000024 $t
C:\Users\HUAV\AppData\Local\Temp\ccBfvIcs.s:4771   .text.shellSetVarValue:00000070 $d
C:\Users\HUAV\AppData\Local\Temp\ccBfvIcs.s:4777   .rodata.shellSetVar.str1.4:00000000 $d
C:\Users\HUAV\AppData\Local\Temp\ccBfvIcs.s:4784   .text.shellSetVar:00000000 $t
C:\Users\HUAV\AppData\Local\Temp\ccBfvIcs.s:4791   .text.shellSetVar:00000000 shellSetVar
C:\Users\HUAV\AppData\Local\Temp\ccBfvIcs.s:4889   .text.shellSetVar:0000005c $d
C:\Users\HUAV\AppData\Local\Temp\ccBfvIcs.s:4895   .text.shellRunCommand:00000000 $t
C:\Users\HUAV\AppData\Local\Temp\ccBfvIcs.s:4902   .text.shellRunCommand:00000000 shellRunCommand
C:\Users\HUAV\AppData\Local\Temp\ccBfvIcs.s:5039   .text.shellNormalInput:00000000 $t
C:\Users\HUAV\AppData\Local\Temp\ccBfvIcs.s:5046   .text.shellNormalInput:00000000 shellNormalInput
C:\Users\HUAV\AppData\Local\Temp\ccBfvIcs.s:5073   .text.shellExec:00000000 $t
C:\Users\HUAV\AppData\Local\Temp\ccBfvIcs.s:5080   .text.shellExec:00000000 shellExec
C:\Users\HUAV\AppData\Local\Temp\ccBfvIcs.s:5186   .text.shellExec:00000060 $d
C:\Users\HUAV\AppData\Local\Temp\ccBfvIcs.s:5192   .text.shellEnter:00000000 $t
C:\Users\HUAV\AppData\Local\Temp\ccBfvIcs.s:5199   .text.shellEnter:00000000 shellEnter
C:\Users\HUAV\AppData\Local\Temp\ccBfvIcs.s:5228   .text.shellHandler:00000000 $t
C:\Users\HUAV\AppData\Local\Temp\ccBfvIcs.s:5235   .text.shellHandler:00000000 shellHandler
C:\Users\HUAV\AppData\Local\Temp\ccBfvIcs.s:5453   .text.shellHandler:000000d4 $d
C:\Users\HUAV\AppData\Local\Temp\ccBfvIcs.s:5458   .text.shellTask:00000000 $t
C:\Users\HUAV\AppData\Local\Temp\ccBfvIcs.s:5465   .text.shellTask:00000000 shellTask
C:\Users\HUAV\AppData\Local\Temp\ccBfvIcs.s:5528   .text.shellRun:00000000 $t
C:\Users\HUAV\AppData\Local\Temp\ccBfvIcs.s:5535   .text.shellRun:00000000 shellRun
C:\Users\HUAV\AppData\Local\Temp\ccBfvIcs.s:5626   .text.shellRun:00000060 $d
C:\Users\HUAV\AppData\Local\Temp\ccBfvIcs.s:5855   shellCommand:00000000 shellCommandclear
C:\Users\HUAV\AppData\Local\Temp\ccBfvIcs.s:5807   .rodata.shellDescclear:00000000 shellDescclear
C:\Users\HUAV\AppData\Local\Temp\ccBfvIcs.s:5699   .rodata.shellCmdclear:00000000 shellCmdclear
C:\Users\HUAV\AppData\Local\Temp\ccBfvIcs.s:5862   shellCommand:00000010 shellCommandkeys
C:\Users\HUAV\AppData\Local\Temp\ccBfvIcs.s:5825   .rodata.shellDesckeys:00000000 shellDesckeys
C:\Users\HUAV\AppData\Local\Temp\ccBfvIcs.s:5717   .rodata.shellCmdkeys:00000000 shellCmdkeys
C:\Users\HUAV\AppData\Local\Temp\ccBfvIcs.s:5869   shellCommand:00000020 shellCommandvars
C:\Users\HUAV\AppData\Local\Temp\ccBfvIcs.s:5843   .rodata.shellDescvars:00000000 shellDescvars
ARM GAS  C:\Users\HUAV\AppData\Local\Temp\ccBfvIcs.s 			page 164


C:\Users\HUAV\AppData\Local\Temp\ccBfvIcs.s:5735   .rodata.shellCmdvars:00000000 shellCmdvars
C:\Users\HUAV\AppData\Local\Temp\ccBfvIcs.s:5876   shellCommand:00000030 shellCommandcmds
C:\Users\HUAV\AppData\Local\Temp\ccBfvIcs.s:5813   .rodata.shellDesccmds:00000000 shellDesccmds
C:\Users\HUAV\AppData\Local\Temp\ccBfvIcs.s:5705   .rodata.shellCmdcmds:00000000 shellCmdcmds
C:\Users\HUAV\AppData\Local\Temp\ccBfvIcs.s:5883   shellCommand:00000040 shellCommandusers
C:\Users\HUAV\AppData\Local\Temp\ccBfvIcs.s:5837   .rodata.shellDescusers:00000000 shellDescusers
C:\Users\HUAV\AppData\Local\Temp\ccBfvIcs.s:5729   .rodata.shellCmdusers:00000000 shellCmdusers
C:\Users\HUAV\AppData\Local\Temp\ccBfvIcs.s:5890   shellCommand:00000050 shellCommandhelp
C:\Users\HUAV\AppData\Local\Temp\ccBfvIcs.s:5819   .rodata.shellDeschelp:00000000 shellDeschelp
C:\Users\HUAV\AppData\Local\Temp\ccBfvIcs.s:5711   .rodata.shellCmdhelp:00000000 shellCmdhelp
C:\Users\HUAV\AppData\Local\Temp\ccBfvIcs.s:5897   shellCommand:00000060 shellKey0x0D000000
C:\Users\HUAV\AppData\Local\Temp\ccBfvIcs.s:5765   .rodata.shellDesc0x0D000000:00000000 shellDesc0x0D000000
C:\Users\HUAV\AppData\Local\Temp\ccBfvIcs.s:5904   shellCommand:00000070 shellKey0x0A000000
C:\Users\HUAV\AppData\Local\Temp\ccBfvIcs.s:5759   .rodata.shellDesc0x0A000000:00000000 shellDesc0x0A000000
C:\Users\HUAV\AppData\Local\Temp\ccBfvIcs.s:5911   shellCommand:00000080 shellKey0x1B5B337E
C:\Users\HUAV\AppData\Local\Temp\ccBfvIcs.s:5771   .rodata.shellDesc0x1B5B337E:00000000 shellDesc0x1B5B337E
C:\Users\HUAV\AppData\Local\Temp\ccBfvIcs.s:5918   shellCommand:00000090 shellKey0x7F000000
C:\Users\HUAV\AppData\Local\Temp\ccBfvIcs.s:5801   .rodata.shellDesc0x7F000000:00000000 shellDesc0x7F000000
C:\Users\HUAV\AppData\Local\Temp\ccBfvIcs.s:5925   shellCommand:000000a0 shellKey0x08000000
C:\Users\HUAV\AppData\Local\Temp\ccBfvIcs.s:5747   .rodata.shellDesc0x08000000:00000000 shellDesc0x08000000
C:\Users\HUAV\AppData\Local\Temp\ccBfvIcs.s:5932   shellCommand:000000b0 shellKey0x09000000
C:\Users\HUAV\AppData\Local\Temp\ccBfvIcs.s:5753   .rodata.shellDesc0x09000000:00000000 shellDesc0x09000000
C:\Users\HUAV\AppData\Local\Temp\ccBfvIcs.s:5939   shellCommand:000000c0 shellKey0x1B5B4400
C:\Users\HUAV\AppData\Local\Temp\ccBfvIcs.s:5795   .rodata.shellDesc0x1B5B4400:00000000 shellDesc0x1B5B4400
C:\Users\HUAV\AppData\Local\Temp\ccBfvIcs.s:5946   shellCommand:000000d0 shellKey0x1B5B4300
C:\Users\HUAV\AppData\Local\Temp\ccBfvIcs.s:5789   .rodata.shellDesc0x1B5B4300:00000000 shellDesc0x1B5B4300
C:\Users\HUAV\AppData\Local\Temp\ccBfvIcs.s:5953   shellCommand:000000e0 shellKey0x1B5B4200
C:\Users\HUAV\AppData\Local\Temp\ccBfvIcs.s:5783   .rodata.shellDesc0x1B5B4200:00000000 shellDesc0x1B5B4200
C:\Users\HUAV\AppData\Local\Temp\ccBfvIcs.s:5960   shellCommand:000000f0 shellKey0x1B5B4100
C:\Users\HUAV\AppData\Local\Temp\ccBfvIcs.s:5777   .rodata.shellDesc0x1B5B4100:00000000 shellDesc0x1B5B4100
C:\Users\HUAV\AppData\Local\Temp\ccBfvIcs.s:5967   shellCommand:00000100 shellCommandsetVar
C:\Users\HUAV\AppData\Local\Temp\ccBfvIcs.s:5831   .rodata.shellDescsetVar:00000000 shellDescsetVar
C:\Users\HUAV\AppData\Local\Temp\ccBfvIcs.s:5723   .rodata.shellCmdsetVar:00000000 shellCmdsetVar
C:\Users\HUAV\AppData\Local\Temp\ccBfvIcs.s:5974   shellCommand:00000110 shellUserDefault
C:\Users\HUAV\AppData\Local\Temp\ccBfvIcs.s:5741   .rodata.shellDesDefaultUser:00000000 shellDesDefaultUser
C:\Users\HUAV\AppData\Local\Temp\ccBfvIcs.s:5849   .rodata.shellPasswordDefaultUser:00000000 shellPasswordDefaultUser
C:\Users\HUAV\AppData\Local\Temp\ccBfvIcs.s:5693   .rodata.shellCmdDefaultUser:00000000 shellCmdDefaultUser
C:\Users\HUAV\AppData\Local\Temp\ccBfvIcs.s:5676   .bss.buffer.7064:00000000 $d
C:\Users\HUAV\AppData\Local\Temp\ccBfvIcs.s:5680   .bss.buffer.7064:00000000 buffer.7064
C:\Users\HUAV\AppData\Local\Temp\ccBfvIcs.s:5683   .bss.shellList:00000000 $d
C:\Users\HUAV\AppData\Local\Temp\ccBfvIcs.s:5687   .bss.shellList:00000000 shellList
C:\Users\HUAV\AppData\Local\Temp\ccBfvIcs.s:5690   .rodata.shellCmdDefaultUser:00000000 $d
C:\Users\HUAV\AppData\Local\Temp\ccBfvIcs.s:5696   .rodata.shellCmdclear:00000000 $d
C:\Users\HUAV\AppData\Local\Temp\ccBfvIcs.s:5702   .rodata.shellCmdcmds:00000000 $d
C:\Users\HUAV\AppData\Local\Temp\ccBfvIcs.s:5708   .rodata.shellCmdhelp:00000000 $d
C:\Users\HUAV\AppData\Local\Temp\ccBfvIcs.s:5714   .rodata.shellCmdkeys:00000000 $d
C:\Users\HUAV\AppData\Local\Temp\ccBfvIcs.s:5720   .rodata.shellCmdsetVar:00000000 $d
C:\Users\HUAV\AppData\Local\Temp\ccBfvIcs.s:5726   .rodata.shellCmdusers:00000000 $d
C:\Users\HUAV\AppData\Local\Temp\ccBfvIcs.s:5732   .rodata.shellCmdvars:00000000 $d
C:\Users\HUAV\AppData\Local\Temp\ccBfvIcs.s:5738   .rodata.shellDesDefaultUser:00000000 $d
C:\Users\HUAV\AppData\Local\Temp\ccBfvIcs.s:5744   .rodata.shellDesc0x08000000:00000000 $d
C:\Users\HUAV\AppData\Local\Temp\ccBfvIcs.s:5750   .rodata.shellDesc0x09000000:00000000 $d
C:\Users\HUAV\AppData\Local\Temp\ccBfvIcs.s:5756   .rodata.shellDesc0x0A000000:00000000 $d
C:\Users\HUAV\AppData\Local\Temp\ccBfvIcs.s:5762   .rodata.shellDesc0x0D000000:00000000 $d
C:\Users\HUAV\AppData\Local\Temp\ccBfvIcs.s:5768   .rodata.shellDesc0x1B5B337E:00000000 $d
C:\Users\HUAV\AppData\Local\Temp\ccBfvIcs.s:5774   .rodata.shellDesc0x1B5B4100:00000000 $d
C:\Users\HUAV\AppData\Local\Temp\ccBfvIcs.s:5780   .rodata.shellDesc0x1B5B4200:00000000 $d
ARM GAS  C:\Users\HUAV\AppData\Local\Temp\ccBfvIcs.s 			page 165


C:\Users\HUAV\AppData\Local\Temp\ccBfvIcs.s:5786   .rodata.shellDesc0x1B5B4300:00000000 $d
C:\Users\HUAV\AppData\Local\Temp\ccBfvIcs.s:5792   .rodata.shellDesc0x1B5B4400:00000000 $d
C:\Users\HUAV\AppData\Local\Temp\ccBfvIcs.s:5798   .rodata.shellDesc0x7F000000:00000000 $d
C:\Users\HUAV\AppData\Local\Temp\ccBfvIcs.s:5804   .rodata.shellDescclear:00000000 $d
C:\Users\HUAV\AppData\Local\Temp\ccBfvIcs.s:5810   .rodata.shellDesccmds:00000000 $d
C:\Users\HUAV\AppData\Local\Temp\ccBfvIcs.s:5816   .rodata.shellDeschelp:00000000 $d
C:\Users\HUAV\AppData\Local\Temp\ccBfvIcs.s:5822   .rodata.shellDesckeys:00000000 $d
C:\Users\HUAV\AppData\Local\Temp\ccBfvIcs.s:5828   .rodata.shellDescsetVar:00000000 $d
C:\Users\HUAV\AppData\Local\Temp\ccBfvIcs.s:5834   .rodata.shellDescusers:00000000 $d
C:\Users\HUAV\AppData\Local\Temp\ccBfvIcs.s:5840   .rodata.shellDescvars:00000000 $d
C:\Users\HUAV\AppData\Local\Temp\ccBfvIcs.s:5846   .rodata.shellPasswordDefaultUser:00000000 $d
C:\Users\HUAV\AppData\Local\Temp\ccBfvIcs.s:5852   shellCommand:00000000 $d

UNDEFINED SYMBOLS
strcmp
strlen
vsnprintf
vsscanf
strncmp
_shell_command_start
_shell_command_end
shellExtRun
