ARM GAS  C:\Users\8bit\AppData\Local\Temp\ccdhdvRO.s 			page 1


   1              		.cpu cortex-m4
   2              		.arch armv7e-m
   3              		.fpu fpv4-sp-d16
   4              		.eabi_attribute 27, 1
   5              		.eabi_attribute 28, 1
   6              		.eabi_attribute 20, 1
   7              		.eabi_attribute 21, 1
   8              		.eabi_attribute 23, 3
   9              		.eabi_attribute 24, 1
  10              		.eabi_attribute 25, 1
  11              		.eabi_attribute 26, 1
  12              		.eabi_attribute 30, 1
  13              		.eabi_attribute 34, 1
  14              		.eabi_attribute 18, 4
  15              		.file	"shell.c"
  16              		.text
  17              	.Ltext0:
  18              		.cfi_sections	.debug_frame
  19              		.section	.text.shellAdd,"ax",%progbits
  20              		.align	1
  21              		.syntax unified
  22              		.thumb
  23              		.thumb_func
  25              	shellAdd:
  26              	.LVL0:
  27              	.LFB4:
  28              		.file 1 "System/shell/shell.c"
   1:System/shell/shell.c **** /**
   2:System/shell/shell.c ****  * @file shell.c
   3:System/shell/shell.c ****  * @author Letter (NevermindZZT@gmail.com)
   4:System/shell/shell.c ****  * @version 3.0.0
   5:System/shell/shell.c ****  * @date 2019-12-30
   6:System/shell/shell.c ****  *
   7:System/shell/shell.c ****  * @copyright (c) 2020 Letter
   8:System/shell/shell.c ****  *
   9:System/shell/shell.c ****  */
  10:System/shell/shell.c **** 
  11:System/shell/shell.c **** #include "shell.h"
  12:System/shell/shell.c **** #include "string.h"
  13:System/shell/shell.c **** #include "stdio.h"
  14:System/shell/shell.c **** #include "stdarg.h"
  15:System/shell/shell.c **** #include "shell_ext.h"
  16:System/shell/shell.c **** 
  17:System/shell/shell.c **** #if SHELL_USING_CMD_EXPORT == 1
  18:System/shell/shell.c **** /**
  19:System/shell/shell.c ****  * @brief 默认用户
  20:System/shell/shell.c ****  */
  21:System/shell/shell.c **** const char shellCmdDefaultUser[] = SHELL_DEFAULT_USER;
  22:System/shell/shell.c **** const char shellPasswordDefaultUser[] = SHELL_DEFAULT_USER_PASSWORD;
  23:System/shell/shell.c **** const char shellDesDefaultUser[] = "default user";
  24:System/shell/shell.c **** const ShellCommand shellUserDefault SECTION("shellCommand") =
  25:System/shell/shell.c ****     {
  26:System/shell/shell.c ****         .attr.value = SHELL_CMD_PERMISSION(0) | SHELL_CMD_TYPE(SHELL_TYPE_USER),
  27:System/shell/shell.c ****         .data.user.name = shellCmdDefaultUser,
  28:System/shell/shell.c ****         .data.user.password = shellPasswordDefaultUser,
  29:System/shell/shell.c ****         .data.user.desc = shellDesDefaultUser};
  30:System/shell/shell.c **** #endif
ARM GAS  C:\Users\8bit\AppData\Local\Temp\ccdhdvRO.s 			page 2


  31:System/shell/shell.c **** 
  32:System/shell/shell.c **** #if SHELL_USING_CMD_EXPORT == 1
  33:System/shell/shell.c **** #if defined(__CC_ARM) || (defined(__ARMCC_VERSION) && __ARMCC_VERSION >= 6000000)
  34:System/shell/shell.c **** extern const unsigned int shellCommand$$Base;
  35:System/shell/shell.c **** extern const unsigned int shellCommand$$Limit;
  36:System/shell/shell.c **** #elif defined(__ICCARM__) || defined(__ICCRX__)
  37:System/shell/shell.c **** #pragma section = "shellCommand"
  38:System/shell/shell.c **** #elif defined(__GNUC__)
  39:System/shell/shell.c **** extern const unsigned int _shell_command_start;
  40:System/shell/shell.c **** extern const unsigned int _shell_command_end;
  41:System/shell/shell.c **** #endif
  42:System/shell/shell.c **** #else
  43:System/shell/shell.c **** extern const ShellCommand shellCommandList[];
  44:System/shell/shell.c **** extern const unsigned short shellCommandCount;
  45:System/shell/shell.c **** #endif
  46:System/shell/shell.c **** 
  47:System/shell/shell.c **** /**
  48:System/shell/shell.c ****  * @brief shell 常量文本索引
  49:System/shell/shell.c ****  */
  50:System/shell/shell.c **** enum
  51:System/shell/shell.c **** {
  52:System/shell/shell.c **** #if SHELL_SHOW_INFO == 1
  53:System/shell/shell.c ****     SHELL_TEXT_INFO, /**< shell信息 */
  54:System/shell/shell.c **** #endif
  55:System/shell/shell.c ****     SHELL_TEXT_CMD_TOO_LONG,                /**< 命令过长 */
  56:System/shell/shell.c ****     SHELL_TEXT_CMD_LIST,                    /**< 可执行命令列表标题 */
  57:System/shell/shell.c ****     SHELL_TEXT_VAR_LIST,                    /**< 变量列表标题 */
  58:System/shell/shell.c ****     SHELL_TEXT_USER_LIST,                   /**< 用户列表标题 */
  59:System/shell/shell.c ****     SHELL_TEXT_KEY_LIST,                    /**< 按键列表标题 */
  60:System/shell/shell.c ****     SHELL_TEXT_CMD_NOT_FOUND,               /**< 命令未找到 */
  61:System/shell/shell.c ****     SHELL_TEXT_POINT_CANNOT_MODIFY,         /**< 指针变量不允许修改 */
  62:System/shell/shell.c ****     SHELL_TEXT_VAR_READ_ONLY_CANNOT_MODIFY, /**< 只读变量不允许修改 */
  63:System/shell/shell.c ****     SHELL_TEXT_NOT_VAR,                     /**< 命令不是变量 */
  64:System/shell/shell.c ****     SHELL_TEXT_VAR_NOT_FOUND,               /**< 变量未找到 */
  65:System/shell/shell.c ****     SHELL_TEXT_HELP_HEADER,                 /**< help头 */
  66:System/shell/shell.c ****     SHELL_TEXT_PASSWORD_HINT,               /**< 密码输入提示 */
  67:System/shell/shell.c ****     SHELL_TEXT_PASSWORD_ERROR,              /**< 密码错误 */
  68:System/shell/shell.c ****     SHELL_TEXT_CLEAR_CONSOLE,               /**< 清空控制台 */
  69:System/shell/shell.c ****     SHELL_TEXT_CLEAR_LINE,                  /**< 清空当前行 */
  70:System/shell/shell.c ****     SHELL_TEXT_TYPE_CMD,                    /**< 命令类型 */
  71:System/shell/shell.c ****     SHELL_TEXT_TYPE_VAR,                    /**< 变量类型 */
  72:System/shell/shell.c ****     SHELL_TEXT_TYPE_USER,                   /**< 用户类型 */
  73:System/shell/shell.c ****     SHELL_TEXT_TYPE_KEY,                    /**< 按键类型 */
  74:System/shell/shell.c ****     SHELL_TEXT_TYPE_NONE,                   /**< 非法类型 */
  75:System/shell/shell.c **** #if SHELL_EXEC_UNDEF_FUNC == 1
  76:System/shell/shell.c ****     SHELL_TEXT_PARAM_ERROR, /**< 参数错误 */
  77:System/shell/shell.c **** #endif
  78:System/shell/shell.c **** };
  79:System/shell/shell.c **** 
  80:System/shell/shell.c **** static const char *shellText[] =
  81:System/shell/shell.c ****     {
  82:System/shell/shell.c **** #if SHELL_SHOW_INFO == 1
  83:System/shell/shell.c ****         [SHELL_TEXT_INFO] =
  84:System/shell/shell.c ****             "\r\n\r\n"
  85:System/shell/shell.c ****             "/************  BitRtos  ************\\r\n\r\n"
  86:System/shell/shell.c ****             "Team Mate:        8_B!T0\r\n"
  87:System/shell/shell.c ****             "                  WHY\r\n"
ARM GAS  C:\Users\8bit\AppData\Local\Temp\ccdhdvRO.s 			page 3


  88:System/shell/shell.c ****             "\r\n"
  89:System/shell/shell.c ****             "Build:            "__DATE__
  90:System/shell/shell.c ****             " "__TIME__
  91:System/shell/shell.c ****             "\r\n"
  92:System/shell/shell.c ****             "Shell   Version:  " SHELL_VERSION "\r\n",
  93:System/shell/shell.c **** #endif
  94:System/shell/shell.c ****         [SHELL_TEXT_CMD_TOO_LONG] =
  95:System/shell/shell.c ****             "\r\nWarning: Command is too long\r\n",
  96:System/shell/shell.c ****         [SHELL_TEXT_CMD_LIST] =
  97:System/shell/shell.c ****             "\r\nCommand List:\r\n",
  98:System/shell/shell.c ****         [SHELL_TEXT_VAR_LIST] =
  99:System/shell/shell.c ****             "\r\nVar List:\r\n",
 100:System/shell/shell.c ****         [SHELL_TEXT_USER_LIST] =
 101:System/shell/shell.c ****             "\r\nUser List:\r\n",
 102:System/shell/shell.c ****         [SHELL_TEXT_KEY_LIST] =
 103:System/shell/shell.c ****             "\r\nKey List:\r\n",
 104:System/shell/shell.c ****         [SHELL_TEXT_CMD_NOT_FOUND] =
 105:System/shell/shell.c ****             "Command not Found\r\n",
 106:System/shell/shell.c ****         [SHELL_TEXT_POINT_CANNOT_MODIFY] =
 107:System/shell/shell.c ****             "can't set pointer\r\n",
 108:System/shell/shell.c ****         [SHELL_TEXT_VAR_READ_ONLY_CANNOT_MODIFY] =
 109:System/shell/shell.c ****             "can't set read only var\r\n",
 110:System/shell/shell.c ****         [SHELL_TEXT_NOT_VAR] =
 111:System/shell/shell.c ****             " is not a var\r\n",
 112:System/shell/shell.c ****         [SHELL_TEXT_VAR_NOT_FOUND] =
 113:System/shell/shell.c ****             "Var not Fount\r\n",
 114:System/shell/shell.c ****         [SHELL_TEXT_HELP_HEADER] =
 115:System/shell/shell.c ****             "command help of ",
 116:System/shell/shell.c ****         [SHELL_TEXT_PASSWORD_HINT] =
 117:System/shell/shell.c ****             "\r\nPlease input password:",
 118:System/shell/shell.c ****         [SHELL_TEXT_PASSWORD_ERROR] =
 119:System/shell/shell.c ****             "\r\npassword error\r\n",
 120:System/shell/shell.c ****         [SHELL_TEXT_CLEAR_CONSOLE] =
 121:System/shell/shell.c ****             "\033[2J\033[1H",
 122:System/shell/shell.c ****         [SHELL_TEXT_CLEAR_LINE] =
 123:System/shell/shell.c ****             "\033[2K\r",
 124:System/shell/shell.c ****         [SHELL_TEXT_TYPE_CMD] =
 125:System/shell/shell.c ****             "CMD \r\n",
 126:System/shell/shell.c ****         [SHELL_TEXT_TYPE_VAR] =
 127:System/shell/shell.c ****             "VAR",
 128:System/shell/shell.c ****         [SHELL_TEXT_TYPE_USER] =
 129:System/shell/shell.c ****             "USER",
 130:System/shell/shell.c ****         [SHELL_TEXT_TYPE_KEY] =
 131:System/shell/shell.c ****             "KEY",
 132:System/shell/shell.c ****         [SHELL_TEXT_TYPE_NONE] =
 133:System/shell/shell.c ****             "NONE",
 134:System/shell/shell.c **** #if SHELL_EXEC_UNDEF_FUNC == 1
 135:System/shell/shell.c ****         [SHELL_TEXT_PARAM_ERROR] =
 136:System/shell/shell.c ****             "Parameter error\r\n",
 137:System/shell/shell.c **** #endif
 138:System/shell/shell.c **** };
 139:System/shell/shell.c **** 
 140:System/shell/shell.c **** /**
 141:System/shell/shell.c ****  * @brief shell对象表
 142:System/shell/shell.c ****  */
 143:System/shell/shell.c **** static Shell *shellList[SHELL_MAX_NUMBER] = {NULL};
 144:System/shell/shell.c **** 
ARM GAS  C:\Users\8bit\AppData\Local\Temp\ccdhdvRO.s 			page 4


 145:System/shell/shell.c **** static void shellAdd(Shell *shell);
 146:System/shell/shell.c **** static void shellWriteCommandLine(Shell *shell, unsigned char newline);
 147:System/shell/shell.c **** static void shellWriteReturnValue(Shell *shell, int value);
 148:System/shell/shell.c **** static int shellShowVar(Shell *shell, ShellCommand *command);
 149:System/shell/shell.c **** static void shellSetUser(Shell *shell, const ShellCommand *user);
 150:System/shell/shell.c **** ShellCommand *shellSeekCommand(Shell *shell,
 151:System/shell/shell.c ****                                const char *cmd,
 152:System/shell/shell.c ****                                ShellCommand *base,
 153:System/shell/shell.c ****                                unsigned short compareLength);
 154:System/shell/shell.c **** 
 155:System/shell/shell.c **** /**
 156:System/shell/shell.c ****  * @brief shell 初始化
 157:System/shell/shell.c ****  *
 158:System/shell/shell.c ****  * @param shell shell对象
 159:System/shell/shell.c ****  */
 160:System/shell/shell.c **** void shellInit(Shell *shell, char *buffer, unsigned short size)
 161:System/shell/shell.c **** {
 162:System/shell/shell.c ****     shell->parser.length = 0;
 163:System/shell/shell.c ****     shell->parser.cursor = 0;
 164:System/shell/shell.c ****     shell->history.offset = 0;
 165:System/shell/shell.c ****     shell->history.number = 0;
 166:System/shell/shell.c ****     shell->history.record = 0;
 167:System/shell/shell.c ****     shell->info.user = NULL;
 168:System/shell/shell.c ****     shell->status.isChecked = 1;
 169:System/shell/shell.c **** 
 170:System/shell/shell.c ****     shell->parser.buffer = buffer;
 171:System/shell/shell.c ****     shell->parser.bufferSize = size / (SHELL_HISTORY_MAX_NUMBER + 1);
 172:System/shell/shell.c ****     for (short i = 0; i < SHELL_HISTORY_MAX_NUMBER; i++)
 173:System/shell/shell.c ****     {
 174:System/shell/shell.c ****         shell->history.item[i] = buffer + shell->parser.bufferSize * (i + 1);
 175:System/shell/shell.c ****     }
 176:System/shell/shell.c **** 
 177:System/shell/shell.c **** #if SHELL_USING_CMD_EXPORT == 1
 178:System/shell/shell.c **** #if defined(__CC_ARM) || (defined(__ARMCC_VERSION) && __ARMCC_VERSION >= 6000000)
 179:System/shell/shell.c ****     shell->commandList.base = (ShellCommand *)(&shellCommand$$Base);
 180:System/shell/shell.c ****     shell->commandList.count = ((unsigned int)(&shellCommand$$Limit) - (unsigned int)(&shellCommand
 181:System/shell/shell.c **** 
 182:System/shell/shell.c **** #elif defined(__ICCARM__) || defined(__ICCRX__)
 183:System/shell/shell.c ****     shell->commandList.base = (ShellCommand *)(__section_begin("shellCommand"));
 184:System/shell/shell.c ****     shell->commandList.count = ((unsigned int)(__section_end("shellCommand")) - (unsigned int)(__se
 185:System/shell/shell.c **** #elif defined(__GNUC__)
 186:System/shell/shell.c ****     shell->commandList.base = (ShellCommand *)(&_shell_command_start);
 187:System/shell/shell.c ****     shell->commandList.count = ((unsigned int)(&_shell_command_end) - (unsigned int)(&_shell_comman
 188:System/shell/shell.c **** #else
 189:System/shell/shell.c **** #error not supported compiler, please use command table mode
 190:System/shell/shell.c **** #endif
 191:System/shell/shell.c **** #else
 192:System/shell/shell.c ****     shell->commandList.base = (ShellCommand *)shellCommandList;
 193:System/shell/shell.c ****     shell->commandList.count = shellCommandCount;
 194:System/shell/shell.c **** #endif
 195:System/shell/shell.c **** 
 196:System/shell/shell.c ****     shellAdd(shell);
 197:System/shell/shell.c **** 
 198:System/shell/shell.c ****     shellSetUser(shell, shellSeekCommand(shell,
 199:System/shell/shell.c ****                                          SHELL_DEFAULT_USER,
 200:System/shell/shell.c ****                                          shell->commandList.base,
 201:System/shell/shell.c ****                                          0));
ARM GAS  C:\Users\8bit\AppData\Local\Temp\ccdhdvRO.s 			page 5


 202:System/shell/shell.c ****     shellWriteCommandLine(shell, 1);
 203:System/shell/shell.c **** }
 204:System/shell/shell.c **** 
 205:System/shell/shell.c **** /**
 206:System/shell/shell.c ****  * @brief 添加shell
 207:System/shell/shell.c ****  *
 208:System/shell/shell.c ****  * @param shell shell对象
 209:System/shell/shell.c ****  */
 210:System/shell/shell.c **** static void shellAdd(Shell *shell)
 211:System/shell/shell.c **** {
  29              		.loc 1 211 1 view -0
  30              		.cfi_startproc
  31              		@ args = 0, pretend = 0, frame = 0
  32              		@ frame_needed = 0, uses_anonymous_args = 0
  33              		@ link register save eliminated.
 212:System/shell/shell.c ****     for (short i = 0; i < SHELL_MAX_NUMBER; i++)
  34              		.loc 1 212 5 view .LVU1
  35              	.LBB2:
  36              		.loc 1 212 10 view .LVU2
  37              		.loc 1 212 16 is_stmt 0 view .LVU3
  38 0000 0023     		movs	r3, #0
  39              	.LVL1:
  40              	.L2:
  41              		.loc 1 212 23 is_stmt 1 discriminator 1 view .LVU4
  42              		.loc 1 212 5 is_stmt 0 discriminator 1 view .LVU5
  43 0002 042B     		cmp	r3, #4
  44 0004 0BDC     		bgt	.L6
 213:System/shell/shell.c ****     {
 214:System/shell/shell.c ****         if (shellList[i] == NULL)
  45              		.loc 1 214 9 is_stmt 1 view .LVU6
  46              		.loc 1 214 22 is_stmt 0 view .LVU7
  47 0006 1946     		mov	r1, r3
  48 0008 054A     		ldr	r2, .L8
  49 000a 52F82320 		ldr	r2, [r2, r3, lsl #2]
  50              		.loc 1 214 12 view .LVU8
  51 000e 12B1     		cbz	r2, .L7
 212:System/shell/shell.c ****     for (short i = 0; i < SHELL_MAX_NUMBER; i++)
  52              		.loc 1 212 45 is_stmt 1 discriminator 2 view .LVU9
 212:System/shell/shell.c ****     for (short i = 0; i < SHELL_MAX_NUMBER; i++)
  53              		.loc 1 212 46 is_stmt 0 discriminator 2 view .LVU10
  54 0010 0133     		adds	r3, r3, #1
  55              	.LVL2:
 212:System/shell/shell.c ****     for (short i = 0; i < SHELL_MAX_NUMBER; i++)
  56              		.loc 1 212 46 discriminator 2 view .LVU11
  57 0012 1BB2     		sxth	r3, r3
  58              	.LVL3:
 212:System/shell/shell.c ****     for (short i = 0; i < SHELL_MAX_NUMBER; i++)
  59              		.loc 1 212 46 discriminator 2 view .LVU12
  60 0014 F5E7     		b	.L2
  61              	.L7:
 215:System/shell/shell.c ****         {
 216:System/shell/shell.c ****             shellList[i] = shell;
  62              		.loc 1 216 13 is_stmt 1 view .LVU13
  63              		.loc 1 216 26 is_stmt 0 view .LVU14
  64 0016 024B     		ldr	r3, .L8
  65              	.LVL4:
  66              		.loc 1 216 26 view .LVU15
ARM GAS  C:\Users\8bit\AppData\Local\Temp\ccdhdvRO.s 			page 6


  67 0018 43F82100 		str	r0, [r3, r1, lsl #2]
 217:System/shell/shell.c ****             return;
  68              		.loc 1 217 13 is_stmt 1 view .LVU16
  69 001c 7047     		bx	lr
  70              	.LVL5:
  71              	.L6:
  72              		.loc 1 217 13 is_stmt 0 view .LVU17
  73              	.LBE2:
 218:System/shell/shell.c ****         }
 219:System/shell/shell.c ****     }
 220:System/shell/shell.c **** }
  74              		.loc 1 220 1 view .LVU18
  75 001e 7047     		bx	lr
  76              	.L9:
  77              		.align	2
  78              	.L8:
  79 0020 00000000 		.word	.LANCHOR0
  80              		.cfi_endproc
  81              	.LFE4:
  83              		.section	.text.shellStringCopy,"ax",%progbits
  84              		.align	1
  85              		.syntax unified
  86              		.thumb
  87              		.thumb_func
  89              	shellStringCopy:
  90              	.LVL6:
  91              	.LFB15:
 221:System/shell/shell.c **** 
 222:System/shell/shell.c **** /**
 223:System/shell/shell.c ****  * @brief 获取当前活动shell
 224:System/shell/shell.c ****  *
 225:System/shell/shell.c ****  * @return Shell* 当前活动shell对象
 226:System/shell/shell.c ****  */
 227:System/shell/shell.c **** Shell *shellGetCurrent(void)
 228:System/shell/shell.c **** {
 229:System/shell/shell.c ****     for (short i = 0; i < SHELL_MAX_NUMBER; i++)
 230:System/shell/shell.c ****     {
 231:System/shell/shell.c ****         if (shellList[i] && shellList[i]->status.isActive)
 232:System/shell/shell.c ****         {
 233:System/shell/shell.c ****             return shellList[i];
 234:System/shell/shell.c ****         }
 235:System/shell/shell.c ****     }
 236:System/shell/shell.c ****     return NULL;
 237:System/shell/shell.c **** }
 238:System/shell/shell.c **** 
 239:System/shell/shell.c **** /**
 240:System/shell/shell.c ****  * @brief shell写字符
 241:System/shell/shell.c ****  *
 242:System/shell/shell.c ****  * @param shell shell对象
 243:System/shell/shell.c ****  * @param data 字符数据
 244:System/shell/shell.c ****  */
 245:System/shell/shell.c **** void shellWriteByte(Shell *shell, const char data)
 246:System/shell/shell.c **** {
 247:System/shell/shell.c ****     shell->write(&data, sizeof(data));
 248:System/shell/shell.c **** }
 249:System/shell/shell.c **** 
 250:System/shell/shell.c **** /**
ARM GAS  C:\Users\8bit\AppData\Local\Temp\ccdhdvRO.s 			page 7


 251:System/shell/shell.c ****  * @brief shell 写字符串
 252:System/shell/shell.c ****  *
 253:System/shell/shell.c ****  * @param shell shell对象
 254:System/shell/shell.c ****  * @param string 字符串数据
 255:System/shell/shell.c ****  *
 256:System/shell/shell.c ****  * @return unsigned short 写入字符的数量
 257:System/shell/shell.c ****  */
 258:System/shell/shell.c **** unsigned short shellWriteString(Shell *shell, const char *string)
 259:System/shell/shell.c **** {
 260:System/shell/shell.c ****     unsigned short count = 0;
 261:System/shell/shell.c ****     SHELL_ASSERT(shell->write, return 0);
 262:System/shell/shell.c **** 
 263:System/shell/shell.c ****     shell->write(string, strlen(string));
 264:System/shell/shell.c ****     return count;
 265:System/shell/shell.c **** }
 266:System/shell/shell.c **** 
 267:System/shell/shell.c **** /**
 268:System/shell/shell.c ****  * @brief shell 写命令描述字符串
 269:System/shell/shell.c ****  *
 270:System/shell/shell.c ****  * @param shell shell对象
 271:System/shell/shell.c ****  * @param string 字符串数据
 272:System/shell/shell.c ****  *
 273:System/shell/shell.c ****  * @return unsigned short 写入字符的数量
 274:System/shell/shell.c ****  */
 275:System/shell/shell.c **** static unsigned short shellWriteCommandDesc(Shell *shell, const char *string)
 276:System/shell/shell.c **** {
 277:System/shell/shell.c ****     const char dot = '.';
 278:System/shell/shell.c ****     unsigned short count = 0;
 279:System/shell/shell.c ****     SHELL_ASSERT(shell->write, return 0);
 280:System/shell/shell.c ****     while (*string && *string != '\r' && *string != '\n' && count < 36)
 281:System/shell/shell.c ****     {
 282:System/shell/shell.c ****         shell->write(*string++, 1);
 283:System/shell/shell.c ****         count++;
 284:System/shell/shell.c ****         if (count >= 36 && *(string + 1))
 285:System/shell/shell.c ****         {
 286:System/shell/shell.c ****             shell->write(&dot, sizeof(dot));
 287:System/shell/shell.c ****             shell->write(&dot, sizeof(dot));
 288:System/shell/shell.c ****             shell->write(&dot, sizeof(dot));
 289:System/shell/shell.c ****         }
 290:System/shell/shell.c ****     }
 291:System/shell/shell.c ****     return count;
 292:System/shell/shell.c **** }
 293:System/shell/shell.c **** 
 294:System/shell/shell.c **** /**
 295:System/shell/shell.c ****  * @brief shell写命令提示符
 296:System/shell/shell.c ****  *
 297:System/shell/shell.c ****  * @param shell shell对象
 298:System/shell/shell.c ****  * @param newline 新行
 299:System/shell/shell.c ****  *
 300:System/shell/shell.c ****  */
 301:System/shell/shell.c **** static void shellWriteCommandLine(Shell *shell, unsigned char newline)
 302:System/shell/shell.c **** {
 303:System/shell/shell.c ****     if (shell->status.isChecked)
 304:System/shell/shell.c ****     {
 305:System/shell/shell.c ****         if (newline)
 306:System/shell/shell.c ****         {
 307:System/shell/shell.c ****             shellWriteString(shell, "\r\n");
ARM GAS  C:\Users\8bit\AppData\Local\Temp\ccdhdvRO.s 			page 8


 308:System/shell/shell.c ****         }
 309:System/shell/shell.c ****         shellWriteString(shell, shell->info.user->data.user.name);
 310:System/shell/shell.c ****         shellWriteString(shell, ":");
 311:System/shell/shell.c ****         shellWriteString(shell, shell->info.path ? shell->info.path : "/");
 312:System/shell/shell.c ****         shellWriteString(shell, "$ ");
 313:System/shell/shell.c ****     }
 314:System/shell/shell.c ****     else
 315:System/shell/shell.c ****     {
 316:System/shell/shell.c ****         shellWriteString(shell, shellText[SHELL_TEXT_PASSWORD_HINT]);
 317:System/shell/shell.c ****     }
 318:System/shell/shell.c **** }
 319:System/shell/shell.c **** 
 320:System/shell/shell.c **** #if SHELL_PRINT_BUFFER > 0
 321:System/shell/shell.c **** /**
 322:System/shell/shell.c ****  * @brief shell格式化输出
 323:System/shell/shell.c ****  *
 324:System/shell/shell.c ****  * @param shell shell对象
 325:System/shell/shell.c ****  * @param fmt 格式化字符串
 326:System/shell/shell.c ****  * @param ... 参数
 327:System/shell/shell.c ****  */
 328:System/shell/shell.c **** void shellPrint(Shell *shell, char *fmt, ...)
 329:System/shell/shell.c **** {
 330:System/shell/shell.c ****     char buffer[SHELL_PRINT_BUFFER];
 331:System/shell/shell.c ****     va_list vargs;
 332:System/shell/shell.c **** 
 333:System/shell/shell.c ****     SHELL_ASSERT(shell, return );
 334:System/shell/shell.c **** 
 335:System/shell/shell.c ****     va_start(vargs, fmt);
 336:System/shell/shell.c ****     vsnprintf(buffer, SHELL_PRINT_BUFFER - 1, fmt, vargs);
 337:System/shell/shell.c ****     va_end(vargs);
 338:System/shell/shell.c **** 
 339:System/shell/shell.c ****     shellWriteString(shell, buffer);
 340:System/shell/shell.c **** }
 341:System/shell/shell.c **** #endif
 342:System/shell/shell.c **** 
 343:System/shell/shell.c **** #if SHELL_SCAN_BUFFER > 0
 344:System/shell/shell.c **** /**
 345:System/shell/shell.c ****  * @brief shell格式化输入
 346:System/shell/shell.c ****  *
 347:System/shell/shell.c ****  * @param shell shell对象
 348:System/shell/shell.c ****  * @param fmt 格式化字符串
 349:System/shell/shell.c ****  * @param ... 参数
 350:System/shell/shell.c ****  */
 351:System/shell/shell.c **** void shellScan(Shell *shell, char *fmt, ...)
 352:System/shell/shell.c **** {
 353:System/shell/shell.c ****     char buffer[SHELL_SCAN_BUFFER];
 354:System/shell/shell.c ****     va_list vargs;
 355:System/shell/shell.c ****     short index = 0;
 356:System/shell/shell.c **** 
 357:System/shell/shell.c ****     SHELL_ASSERT(shell, return );
 358:System/shell/shell.c **** 
 359:System/shell/shell.c ****     if (shell->read)
 360:System/shell/shell.c ****     {
 361:System/shell/shell.c ****         do
 362:System/shell/shell.c ****         {
 363:System/shell/shell.c ****             if (shell->read(&buffer[index]) == 0)
 364:System/shell/shell.c ****             {
ARM GAS  C:\Users\8bit\AppData\Local\Temp\ccdhdvRO.s 			page 9


 365:System/shell/shell.c ****                 shell->write(&buffer[index], sizeof(buffer[index]));
 366:System/shell/shell.c ****                 index++;
 367:System/shell/shell.c ****             }
 368:System/shell/shell.c ****         } while (buffer[index - 1] != '\r' && buffer[index - 1] != '\n' && index < SHELL_SCAN_BUFFE
 369:System/shell/shell.c ****         shellWriteString(shell, "\r\n");
 370:System/shell/shell.c ****         buffer[index] = '\0';
 371:System/shell/shell.c ****     }
 372:System/shell/shell.c **** 
 373:System/shell/shell.c ****     va_start(vargs, fmt);
 374:System/shell/shell.c ****     vsscanf(buffer, fmt, vargs);
 375:System/shell/shell.c ****     va_end(vargs);
 376:System/shell/shell.c **** }
 377:System/shell/shell.c **** #endif
 378:System/shell/shell.c **** 
 379:System/shell/shell.c **** /**
 380:System/shell/shell.c ****  * @brief shell 检查命令权限
 381:System/shell/shell.c ****  *
 382:System/shell/shell.c ****  * @param shell shell对象
 383:System/shell/shell.c ****  * @param command ShellCommand
 384:System/shell/shell.c ****  *
 385:System/shell/shell.c ****  * @return signed char 0 当前用户具有该命令权限
 386:System/shell/shell.c ****  * @return signec char -1 当前用户不具有该命令权限
 387:System/shell/shell.c ****  */
 388:System/shell/shell.c **** signed char shellCheckPermission(Shell *shell, ShellCommand *command)
 389:System/shell/shell.c **** {
 390:System/shell/shell.c ****     return ((!command->attr.attrs.permission || command->attr.attrs.type == SHELL_TYPE_USER || (com
 391:System/shell/shell.c ****                ? 0
 392:System/shell/shell.c ****                : -1;
 393:System/shell/shell.c **** }
 394:System/shell/shell.c **** 
 395:System/shell/shell.c **** /**
 396:System/shell/shell.c ****  * @brief int转16进制字符串
 397:System/shell/shell.c ****  *
 398:System/shell/shell.c ****  * @param value 数值
 399:System/shell/shell.c ****  * @param buffer 缓冲
 400:System/shell/shell.c ****  *
 401:System/shell/shell.c ****  * @return signed char 转换后有效数据长度
 402:System/shell/shell.c ****  */
 403:System/shell/shell.c **** signed char shellToHex(unsigned int value, char *buffer)
 404:System/shell/shell.c **** {
 405:System/shell/shell.c ****     char byte;
 406:System/shell/shell.c ****     unsigned char i = 8;
 407:System/shell/shell.c ****     buffer[8] = 0;
 408:System/shell/shell.c ****     while (value)
 409:System/shell/shell.c ****     {
 410:System/shell/shell.c ****         byte = value & 0x0000000F;
 411:System/shell/shell.c ****         buffer[--i] = (byte > 9) ? (byte + 87) : (byte + 48);
 412:System/shell/shell.c ****         value >>= 4;
 413:System/shell/shell.c ****     }
 414:System/shell/shell.c ****     return 8 - i;
 415:System/shell/shell.c **** }
 416:System/shell/shell.c **** 
 417:System/shell/shell.c **** /**
 418:System/shell/shell.c ****  * @brief int转10进制字符串
 419:System/shell/shell.c ****  *
 420:System/shell/shell.c ****  * @param value 数值
 421:System/shell/shell.c ****  * @param buffer 缓冲
ARM GAS  C:\Users\8bit\AppData\Local\Temp\ccdhdvRO.s 			page 10


 422:System/shell/shell.c ****  *
 423:System/shell/shell.c ****  * @return signed char 转换后有效数据长度
 424:System/shell/shell.c ****  */
 425:System/shell/shell.c **** signed char shellToDec(int value, char *buffer)
 426:System/shell/shell.c **** {
 427:System/shell/shell.c ****     unsigned char i = 11;
 428:System/shell/shell.c ****     int v = value;
 429:System/shell/shell.c ****     if (value < 0)
 430:System/shell/shell.c ****     {
 431:System/shell/shell.c ****         v = -value;
 432:System/shell/shell.c ****     }
 433:System/shell/shell.c ****     buffer[11] = 0;
 434:System/shell/shell.c ****     while (v)
 435:System/shell/shell.c ****     {
 436:System/shell/shell.c ****         buffer[--i] = v % 10 + 48;
 437:System/shell/shell.c ****         v /= 10;
 438:System/shell/shell.c ****     }
 439:System/shell/shell.c ****     if (value < 0)
 440:System/shell/shell.c ****     {
 441:System/shell/shell.c ****         buffer[--i] = '-';
 442:System/shell/shell.c ****     }
 443:System/shell/shell.c ****     if (value == 0)
 444:System/shell/shell.c ****     {
 445:System/shell/shell.c ****         buffer[--i] = '0';
 446:System/shell/shell.c ****     }
 447:System/shell/shell.c ****     return 11 - i;
 448:System/shell/shell.c **** }
 449:System/shell/shell.c **** 
 450:System/shell/shell.c **** /**
 451:System/shell/shell.c ****  * @brief shell字符串复制
 452:System/shell/shell.c ****  *
 453:System/shell/shell.c ****  * @param dest 目标字符串
 454:System/shell/shell.c ****  * @param src 源字符串
 455:System/shell/shell.c ****  * @return unsigned short 字符串长度
 456:System/shell/shell.c ****  */
 457:System/shell/shell.c **** static unsigned short shellStringCopy(char *dest, char *src)
 458:System/shell/shell.c **** {
  92              		.loc 1 458 1 is_stmt 1 view -0
  93              		.cfi_startproc
  94              		@ args = 0, pretend = 0, frame = 0
  95              		@ frame_needed = 0, uses_anonymous_args = 0
  96              		@ link register save eliminated.
  97              		.loc 1 458 1 is_stmt 0 view .LVU20
  98 0000 0246     		mov	r2, r0
 459:System/shell/shell.c ****     unsigned short count = 0;
  99              		.loc 1 459 5 is_stmt 1 view .LVU21
 100              	.LVL7:
 460:System/shell/shell.c ****     while (*(src + count))
 101              		.loc 1 460 5 view .LVU22
 459:System/shell/shell.c ****     unsigned short count = 0;
 102              		.loc 1 459 20 is_stmt 0 view .LVU23
 103 0002 0020     		movs	r0, #0
 104              	.LVL8:
 105              		.loc 1 460 11 view .LVU24
 106 0004 02E0     		b	.L11
 107              	.LVL9:
 108              	.L12:
ARM GAS  C:\Users\8bit\AppData\Local\Temp\ccdhdvRO.s 			page 11


 461:System/shell/shell.c ****     {
 462:System/shell/shell.c ****         *(dest + count) = *(src + count);
 109              		.loc 1 462 9 is_stmt 1 view .LVU25
 110              		.loc 1 462 25 is_stmt 0 view .LVU26
 111 0006 1354     		strb	r3, [r2, r0]
 463:System/shell/shell.c ****         count++;
 112              		.loc 1 463 9 is_stmt 1 view .LVU27
 113              		.loc 1 463 14 is_stmt 0 view .LVU28
 114 0008 0130     		adds	r0, r0, #1
 115              	.LVL10:
 116              		.loc 1 463 14 view .LVU29
 117 000a 80B2     		uxth	r0, r0
 118              	.LVL11:
 119              	.L11:
 460:System/shell/shell.c ****     while (*(src + count))
 120              		.loc 1 460 11 is_stmt 1 view .LVU30
 460:System/shell/shell.c ****     while (*(src + count))
 121              		.loc 1 460 12 is_stmt 0 view .LVU31
 122 000c 0B5C     		ldrb	r3, [r1, r0]	@ zero_extendqisi2
 460:System/shell/shell.c ****     while (*(src + count))
 123              		.loc 1 460 11 view .LVU32
 124 000e 002B     		cmp	r3, #0
 125 0010 F9D1     		bne	.L12
 464:System/shell/shell.c ****     }
 465:System/shell/shell.c ****     *(dest + count) = 0;
 126              		.loc 1 465 5 is_stmt 1 view .LVU33
 127              		.loc 1 465 21 is_stmt 0 view .LVU34
 128 0012 1354     		strb	r3, [r2, r0]
 466:System/shell/shell.c ****     return count;
 129              		.loc 1 466 5 is_stmt 1 view .LVU35
 467:System/shell/shell.c **** }
 130              		.loc 1 467 1 is_stmt 0 view .LVU36
 131 0014 7047     		bx	lr
 132              		.cfi_endproc
 133              	.LFE15:
 135              		.section	.text.shellStringCompare,"ax",%progbits
 136              		.align	1
 137              		.syntax unified
 138              		.thumb
 139              		.thumb_func
 141              	shellStringCompare:
 142              	.LVL12:
 143              	.LFB16:
 468:System/shell/shell.c **** 
 469:System/shell/shell.c **** /**
 470:System/shell/shell.c ****  * @brief shell字符串比较
 471:System/shell/shell.c ****  *
 472:System/shell/shell.c ****  * @param dest 目标字符串
 473:System/shell/shell.c ****  * @param src 源字符串
 474:System/shell/shell.c ****  * @return unsigned short 匹配长度
 475:System/shell/shell.c ****  */
 476:System/shell/shell.c **** static unsigned short shellStringCompare(char *dest, char *src)
 477:System/shell/shell.c **** {
 144              		.loc 1 477 1 is_stmt 1 view -0
 145              		.cfi_startproc
 146              		@ args = 0, pretend = 0, frame = 0
 147              		@ frame_needed = 0, uses_anonymous_args = 0
ARM GAS  C:\Users\8bit\AppData\Local\Temp\ccdhdvRO.s 			page 12


 148              		@ link register save eliminated.
 149              		.loc 1 477 1 is_stmt 0 view .LVU38
 150 0000 8446     		mov	ip, r0
 478:System/shell/shell.c ****     unsigned short match = 0;
 151              		.loc 1 478 5 is_stmt 1 view .LVU39
 152              	.LVL13:
 479:System/shell/shell.c ****     unsigned short i = 0;
 153              		.loc 1 479 5 view .LVU40
 480:System/shell/shell.c **** 
 481:System/shell/shell.c ****     while (*(dest + i) && *(src + i))
 154              		.loc 1 481 5 view .LVU41
 479:System/shell/shell.c ****     unsigned short i = 0;
 155              		.loc 1 479 20 is_stmt 0 view .LVU42
 156 0002 0023     		movs	r3, #0
 478:System/shell/shell.c ****     unsigned short i = 0;
 157              		.loc 1 478 20 view .LVU43
 158 0004 1846     		mov	r0, r3
 159              	.LVL14:
 160              		.loc 1 481 11 is_stmt 1 view .LVU44
 161              		.loc 1 481 12 is_stmt 0 view .LVU45
 162 0006 1CF80320 		ldrb	r2, [ip, r3]	@ zero_extendqisi2
 163              		.loc 1 481 11 view .LVU46
 164 000a 7AB1     		cbz	r2, .L22
 477:System/shell/shell.c ****     unsigned short match = 0;
 165              		.loc 1 477 1 view .LVU47
 166 000c 10B4     		push	{r4}
 167              	.LCFI0:
 168              		.cfi_def_cfa_offset 4
 169              		.cfi_offset 4, -4
 170              	.LVL15:
 171              	.L19:
 172              		.loc 1 481 27 discriminator 1 view .LVU48
 173 000e CC5C     		ldrb	r4, [r1, r3]	@ zero_extendqisi2
 174              		.loc 1 481 24 discriminator 1 view .LVU49
 175 0010 4CB1     		cbz	r4, .L15
 482:System/shell/shell.c ****     {
 483:System/shell/shell.c ****         if (*(dest + i) != *(src + i))
 176              		.loc 1 483 9 is_stmt 1 view .LVU50
 177              		.loc 1 483 12 is_stmt 0 view .LVU51
 178 0012 A242     		cmp	r2, r4
 179 0014 07D1     		bne	.L15
 484:System/shell/shell.c ****         {
 485:System/shell/shell.c ****             break;
 486:System/shell/shell.c ****         }
 487:System/shell/shell.c ****         match++;
 180              		.loc 1 487 9 is_stmt 1 view .LVU52
 181              		.loc 1 487 14 is_stmt 0 view .LVU53
 182 0016 0130     		adds	r0, r0, #1
 183 0018 80B2     		uxth	r0, r0
 184              	.LVL16:
 488:System/shell/shell.c ****         i++;
 185              		.loc 1 488 9 is_stmt 1 view .LVU54
 186              		.loc 1 488 10 is_stmt 0 view .LVU55
 187 001a 0133     		adds	r3, r3, #1
 188              	.LVL17:
 189              		.loc 1 488 10 view .LVU56
 190 001c 9BB2     		uxth	r3, r3
ARM GAS  C:\Users\8bit\AppData\Local\Temp\ccdhdvRO.s 			page 13


 191              	.LVL18:
 481:System/shell/shell.c ****     {
 192              		.loc 1 481 11 is_stmt 1 view .LVU57
 481:System/shell/shell.c ****     {
 193              		.loc 1 481 12 is_stmt 0 view .LVU58
 194 001e 1CF80320 		ldrb	r2, [ip, r3]	@ zero_extendqisi2
 481:System/shell/shell.c ****     {
 195              		.loc 1 481 11 view .LVU59
 196 0022 002A     		cmp	r2, #0
 197 0024 F3D1     		bne	.L19
 198              	.LVL19:
 199              	.L15:
 489:System/shell/shell.c ****     }
 490:System/shell/shell.c ****     return match;
 200              		.loc 1 490 5 is_stmt 1 view .LVU60
 491:System/shell/shell.c **** }
 201              		.loc 1 491 1 is_stmt 0 view .LVU61
 202 0026 5DF8044B 		ldr	r4, [sp], #4
 203              	.LCFI1:
 204              		.cfi_restore 4
 205              		.cfi_def_cfa_offset 0
 206 002a 7047     		bx	lr
 207              	.LVL20:
 208              	.L22:
 490:System/shell/shell.c **** }
 209              		.loc 1 490 5 is_stmt 1 view .LVU62
 210              		.loc 1 491 1 is_stmt 0 view .LVU63
 211 002c 7047     		bx	lr
 212              		.cfi_endproc
 213              	.LFE16:
 215              		.section	.text.shellGetCommandDesc,"ax",%progbits
 216              		.align	1
 217              		.syntax unified
 218              		.thumb
 219              		.thumb_func
 221              	shellGetCommandDesc:
 222              	.LVL21:
 223              	.LFB18:
 492:System/shell/shell.c **** 
 493:System/shell/shell.c **** /**
 494:System/shell/shell.c ****  * @brief shell获取命令名
 495:System/shell/shell.c ****  *
 496:System/shell/shell.c ****  * @param command 命令
 497:System/shell/shell.c ****  * @return const char* 命令名
 498:System/shell/shell.c ****  */
 499:System/shell/shell.c **** static const char *shellGetCommandName(ShellCommand *command)
 500:System/shell/shell.c **** {
 501:System/shell/shell.c ****     static char buffer[9];
 502:System/shell/shell.c ****     for (unsigned char i = 0; i < 9; i++)
 503:System/shell/shell.c ****     {
 504:System/shell/shell.c ****         buffer[i] = '0';
 505:System/shell/shell.c ****     }
 506:System/shell/shell.c ****     if (command->attr.attrs.type <= SHELL_TYPE_CMD_FUNC)
 507:System/shell/shell.c ****     {
 508:System/shell/shell.c ****         return command->data.cmd.name;
 509:System/shell/shell.c ****     }
 510:System/shell/shell.c ****     else if (command->attr.attrs.type <= SHELL_TYPE_VAR_NODE)
ARM GAS  C:\Users\8bit\AppData\Local\Temp\ccdhdvRO.s 			page 14


 511:System/shell/shell.c ****     {
 512:System/shell/shell.c ****         return command->data.var.name;
 513:System/shell/shell.c ****     }
 514:System/shell/shell.c ****     else if (command->attr.attrs.type <= SHELL_TYPE_USER)
 515:System/shell/shell.c ****     {
 516:System/shell/shell.c ****         return command->data.user.name;
 517:System/shell/shell.c ****     }
 518:System/shell/shell.c ****     else
 519:System/shell/shell.c ****     {
 520:System/shell/shell.c ****         shellToHex(command->data.key.value, buffer);
 521:System/shell/shell.c ****         return buffer;
 522:System/shell/shell.c ****     }
 523:System/shell/shell.c **** }
 524:System/shell/shell.c **** 
 525:System/shell/shell.c **** /**
 526:System/shell/shell.c ****  * @brief shell获取命令描述
 527:System/shell/shell.c ****  *
 528:System/shell/shell.c ****  * @param command 命令
 529:System/shell/shell.c ****  * @return const char* 命令描述
 530:System/shell/shell.c ****  */
 531:System/shell/shell.c **** static const char *shellGetCommandDesc(ShellCommand *command)
 532:System/shell/shell.c **** {
 224              		.loc 1 532 1 is_stmt 1 view -0
 225              		.cfi_startproc
 226              		@ args = 0, pretend = 0, frame = 0
 227              		@ frame_needed = 0, uses_anonymous_args = 0
 228              		@ link register save eliminated.
 533:System/shell/shell.c ****     if (command->attr.attrs.type <= SHELL_TYPE_CMD_FUNC)
 229              		.loc 1 533 5 view .LVU65
 230              		.loc 1 533 28 is_stmt 0 view .LVU66
 231 0000 4378     		ldrb	r3, [r0, #1]	@ zero_extendqisi2
 232 0002 03F00F03 		and	r3, r3, #15
 233              		.loc 1 533 8 view .LVU67
 234 0006 012B     		cmp	r3, #1
 235 0008 05D9     		bls	.L28
 534:System/shell/shell.c ****     {
 535:System/shell/shell.c ****         return command->data.cmd.desc;
 536:System/shell/shell.c ****     }
 537:System/shell/shell.c ****     else if (command->attr.attrs.type <= SHELL_TYPE_VAR_NODE)
 236              		.loc 1 537 10 is_stmt 1 view .LVU68
 237              		.loc 1 537 13 is_stmt 0 view .LVU69
 238 000a 072B     		cmp	r3, #7
 239 000c 05D9     		bls	.L29
 538:System/shell/shell.c ****     {
 539:System/shell/shell.c ****         return command->data.var.desc;
 540:System/shell/shell.c ****     }
 541:System/shell/shell.c ****     else if (command->attr.attrs.type <= SHELL_TYPE_USER)
 240              		.loc 1 541 10 is_stmt 1 view .LVU70
 241              		.loc 1 541 13 is_stmt 0 view .LVU71
 242 000e 082B     		cmp	r3, #8
 243 0010 05D8     		bhi	.L27
 542:System/shell/shell.c ****     {
 543:System/shell/shell.c ****         return command->data.user.desc;
 244              		.loc 1 543 9 is_stmt 1 view .LVU72
 245              		.loc 1 543 34 is_stmt 0 view .LVU73
 246 0012 C068     		ldr	r0, [r0, #12]
 247              	.LVL22:
ARM GAS  C:\Users\8bit\AppData\Local\Temp\ccdhdvRO.s 			page 15


 248              		.loc 1 543 34 view .LVU74
 249 0014 7047     		bx	lr
 250              	.LVL23:
 251              	.L28:
 535:System/shell/shell.c ****     }
 252              		.loc 1 535 9 is_stmt 1 view .LVU75
 535:System/shell/shell.c ****     }
 253              		.loc 1 535 33 is_stmt 0 view .LVU76
 254 0016 C068     		ldr	r0, [r0, #12]
 255              	.LVL24:
 535:System/shell/shell.c ****     }
 256              		.loc 1 535 33 view .LVU77
 257 0018 7047     		bx	lr
 258              	.LVL25:
 259              	.L29:
 539:System/shell/shell.c ****     }
 260              		.loc 1 539 9 is_stmt 1 view .LVU78
 539:System/shell/shell.c ****     }
 261              		.loc 1 539 33 is_stmt 0 view .LVU79
 262 001a C068     		ldr	r0, [r0, #12]
 263              	.LVL26:
 539:System/shell/shell.c ****     }
 264              		.loc 1 539 33 view .LVU80
 265 001c 7047     		bx	lr
 266              	.LVL27:
 267              	.L27:
 544:System/shell/shell.c ****     }
 545:System/shell/shell.c ****     else
 546:System/shell/shell.c ****     {
 547:System/shell/shell.c ****         return command->data.key.desc;
 268              		.loc 1 547 9 is_stmt 1 view .LVU81
 269              		.loc 1 547 33 is_stmt 0 view .LVU82
 270 001e C068     		ldr	r0, [r0, #12]
 271              	.LVL28:
 548:System/shell/shell.c ****     }
 549:System/shell/shell.c **** }
 272              		.loc 1 549 1 view .LVU83
 273 0020 7047     		bx	lr
 274              		.cfi_endproc
 275              	.LFE18:
 277              		.section	.text.shellParserParam,"ax",%progbits
 278              		.align	1
 279              		.syntax unified
 280              		.thumb
 281              		.thumb_func
 283              	shellParserParam:
 284              	.LVL29:
 285              	.LFB29:
 550:System/shell/shell.c **** 
 551:System/shell/shell.c **** /**
 552:System/shell/shell.c ****  * @brief shell 列出命令条目
 553:System/shell/shell.c ****  *
 554:System/shell/shell.c ****  * @param shell shell对象
 555:System/shell/shell.c ****  * @param item 命令条目
 556:System/shell/shell.c ****  */
 557:System/shell/shell.c **** void shellListItem(Shell *shell, ShellCommand *item)
 558:System/shell/shell.c **** {
ARM GAS  C:\Users\8bit\AppData\Local\Temp\ccdhdvRO.s 			page 16


 559:System/shell/shell.c ****     short spaceLength;
 560:System/shell/shell.c **** 
 561:System/shell/shell.c ****     spaceLength = 22 - shellWriteString(shell, shellGetCommandName(item));
 562:System/shell/shell.c ****     spaceLength = (spaceLength > 0) ? spaceLength : 4;
 563:System/shell/shell.c ****     do
 564:System/shell/shell.c ****     {
 565:System/shell/shell.c ****         shellWriteByte(shell, '-');
 566:System/shell/shell.c ****     } while (--spaceLength);
 567:System/shell/shell.c ****     if (item->attr.attrs.type <= SHELL_TYPE_CMD_FUNC)
 568:System/shell/shell.c ****     {
 569:System/shell/shell.c ****         shellWriteString(shell, shellText[SHELL_TEXT_TYPE_CMD]);
 570:System/shell/shell.c ****     }
 571:System/shell/shell.c ****     else if (item->attr.attrs.type <= SHELL_TYPE_VAR_NODE)
 572:System/shell/shell.c ****     {
 573:System/shell/shell.c ****         shellWriteString(shell, shellText[SHELL_TEXT_TYPE_VAR]);
 574:System/shell/shell.c ****     }
 575:System/shell/shell.c ****     else if (item->attr.attrs.type <= SHELL_TYPE_USER)
 576:System/shell/shell.c ****     {
 577:System/shell/shell.c ****         shellWriteString(shell, shellText[SHELL_TEXT_TYPE_USER]);
 578:System/shell/shell.c ****     }
 579:System/shell/shell.c ****     else if (item->attr.attrs.type <= SHELL_TYPE_KEY)
 580:System/shell/shell.c ****     {
 581:System/shell/shell.c ****         shellWriteString(shell, shellText[SHELL_TEXT_TYPE_KEY]);
 582:System/shell/shell.c ****     }
 583:System/shell/shell.c ****     else
 584:System/shell/shell.c ****     {
 585:System/shell/shell.c ****         shellWriteString(shell, shellText[SHELL_TEXT_TYPE_NONE]);
 586:System/shell/shell.c ****     }
 587:System/shell/shell.c **** #if SHELL_HELP_SHOW_PERMISSION == 1
 588:System/shell/shell.c ****     shellWriteString(shell, " ");
 589:System/shell/shell.c ****     for (signed char i = 7; i >= 0; i--)
 590:System/shell/shell.c ****     {
 591:System/shell/shell.c ****         shellWriteByte(shell, item->attr.attrs.permission & (1 << i) ? 'x' : '-');
 592:System/shell/shell.c ****     }
 593:System/shell/shell.c **** #endif
 594:System/shell/shell.c ****     // shellWriteString(shell, " ");
 595:System/shell/shell.c ****     // shellWriteCommandDesc(shell, shellGetCommandDesc(item));
 596:System/shell/shell.c ****     // shellWriteString(shell, "\r\n");
 597:System/shell/shell.c **** }
 598:System/shell/shell.c **** 
 599:System/shell/shell.c **** /**
 600:System/shell/shell.c ****  * @brief shell列出可执行命令
 601:System/shell/shell.c ****  *
 602:System/shell/shell.c ****  * @param shell shell对象
 603:System/shell/shell.c ****  */
 604:System/shell/shell.c **** void shellListCommand(Shell *shell)
 605:System/shell/shell.c **** {
 606:System/shell/shell.c ****     ShellCommand *base = (ShellCommand *)shell->commandList.base;
 607:System/shell/shell.c ****     shellWriteString(shell, shellText[SHELL_TEXT_CMD_LIST]);
 608:System/shell/shell.c ****     for (short i = 0; i < shell->commandList.count; i++)
 609:System/shell/shell.c ****     {
 610:System/shell/shell.c ****         if (base[i].attr.attrs.type <= SHELL_TYPE_CMD_FUNC && shellCheckPermission(shell, &base[i])
 611:System/shell/shell.c ****         {
 612:System/shell/shell.c ****             shellListItem(shell, &base[i]);
 613:System/shell/shell.c ****         }
 614:System/shell/shell.c ****     }
 615:System/shell/shell.c **** }
ARM GAS  C:\Users\8bit\AppData\Local\Temp\ccdhdvRO.s 			page 17


 616:System/shell/shell.c **** 
 617:System/shell/shell.c **** /**
 618:System/shell/shell.c ****  * @brief shell列出变量
 619:System/shell/shell.c ****  *
 620:System/shell/shell.c ****  * @param shell shell对象
 621:System/shell/shell.c ****  */
 622:System/shell/shell.c **** void shellListVar(Shell *shell)
 623:System/shell/shell.c **** {
 624:System/shell/shell.c ****     ShellCommand *base = (ShellCommand *)shell->commandList.base;
 625:System/shell/shell.c ****     shellWriteString(shell, shellText[SHELL_TEXT_VAR_LIST]);
 626:System/shell/shell.c ****     for (short i = 0; i < shell->commandList.count; i++)
 627:System/shell/shell.c ****     {
 628:System/shell/shell.c ****         if (base[i].attr.attrs.type > SHELL_TYPE_CMD_FUNC && base[i].attr.attrs.type <= SHELL_TYPE_
 629:System/shell/shell.c ****         {
 630:System/shell/shell.c ****             shellListItem(shell, &base[i]);
 631:System/shell/shell.c ****         }
 632:System/shell/shell.c ****     }
 633:System/shell/shell.c **** }
 634:System/shell/shell.c **** 
 635:System/shell/shell.c **** /**
 636:System/shell/shell.c ****  * @brief shell列出用户
 637:System/shell/shell.c ****  *
 638:System/shell/shell.c ****  * @param shell shell对象
 639:System/shell/shell.c ****  */
 640:System/shell/shell.c **** void shellListUser(Shell *shell)
 641:System/shell/shell.c **** {
 642:System/shell/shell.c ****     ShellCommand *base = (ShellCommand *)shell->commandList.base;
 643:System/shell/shell.c ****     shellWriteString(shell, shellText[SHELL_TEXT_USER_LIST]);
 644:System/shell/shell.c ****     for (short i = 0; i < shell->commandList.count; i++)
 645:System/shell/shell.c ****     {
 646:System/shell/shell.c ****         if (base[i].attr.attrs.type > SHELL_TYPE_VAR_NODE && base[i].attr.attrs.type <= SHELL_TYPE_
 647:System/shell/shell.c ****         {
 648:System/shell/shell.c ****             shellListItem(shell, &base[i]);
 649:System/shell/shell.c ****         }
 650:System/shell/shell.c ****     }
 651:System/shell/shell.c **** }
 652:System/shell/shell.c **** 
 653:System/shell/shell.c **** /**
 654:System/shell/shell.c ****  * @brief shell列出按键
 655:System/shell/shell.c ****  *
 656:System/shell/shell.c ****  * @param shell shell对象
 657:System/shell/shell.c ****  */
 658:System/shell/shell.c **** void shellListKey(Shell *shell)
 659:System/shell/shell.c **** {
 660:System/shell/shell.c ****     ShellCommand *base = (ShellCommand *)shell->commandList.base;
 661:System/shell/shell.c ****     shellWriteString(shell, shellText[SHELL_TEXT_KEY_LIST]);
 662:System/shell/shell.c ****     for (short i = 0; i < shell->commandList.count; i++)
 663:System/shell/shell.c ****     {
 664:System/shell/shell.c ****         if (base[i].attr.attrs.type > SHELL_TYPE_USER && base[i].attr.attrs.type <= SHELL_TYPE_KEY 
 665:System/shell/shell.c ****         {
 666:System/shell/shell.c ****             shellListItem(shell, &base[i]);
 667:System/shell/shell.c ****         }
 668:System/shell/shell.c ****     }
 669:System/shell/shell.c **** }
 670:System/shell/shell.c **** 
 671:System/shell/shell.c **** /**
 672:System/shell/shell.c ****  * @brief shell列出所有命令
ARM GAS  C:\Users\8bit\AppData\Local\Temp\ccdhdvRO.s 			page 18


 673:System/shell/shell.c ****  *
 674:System/shell/shell.c ****  * @param shell shell对象
 675:System/shell/shell.c ****  */
 676:System/shell/shell.c **** void shellListAll(Shell *shell)
 677:System/shell/shell.c **** {
 678:System/shell/shell.c **** #if SHELL_HELP_LIST_USER == 1
 679:System/shell/shell.c ****     shellListUser(shell);
 680:System/shell/shell.c **** #endif
 681:System/shell/shell.c ****     shellListCommand(shell);
 682:System/shell/shell.c **** #if SHELL_HELP_LIST_VAR == 1
 683:System/shell/shell.c ****     shellListVar(shell);
 684:System/shell/shell.c **** #endif
 685:System/shell/shell.c **** #if SHELL_HELP_LIST_KEY == 1
 686:System/shell/shell.c ****     shellListKey(shell);
 687:System/shell/shell.c **** #endif
 688:System/shell/shell.c **** }
 689:System/shell/shell.c **** 
 690:System/shell/shell.c **** /**
 691:System/shell/shell.c ****  * @brief shell删除命令行数据
 692:System/shell/shell.c ****  *
 693:System/shell/shell.c ****  * @param shell shell对象
 694:System/shell/shell.c ****  * @param length 删除长度
 695:System/shell/shell.c ****  */
 696:System/shell/shell.c **** void shellDeleteCommandLine(Shell *shell, unsigned char length)
 697:System/shell/shell.c **** {
 698:System/shell/shell.c ****     while (length--)
 699:System/shell/shell.c ****     {
 700:System/shell/shell.c ****         shellWriteString(shell, "\b \b");
 701:System/shell/shell.c ****     }
 702:System/shell/shell.c **** }
 703:System/shell/shell.c **** 
 704:System/shell/shell.c **** /**
 705:System/shell/shell.c ****  * @brief shell 清空命令行输入
 706:System/shell/shell.c ****  *
 707:System/shell/shell.c ****  * @param shell shell对象
 708:System/shell/shell.c ****  */
 709:System/shell/shell.c **** void shellClearCommandLine(Shell *shell)
 710:System/shell/shell.c **** {
 711:System/shell/shell.c ****     for (short i = shell->parser.length - shell->parser.cursor; i > 0; i--)
 712:System/shell/shell.c ****     {
 713:System/shell/shell.c ****         shellWriteByte(shell, ' ');
 714:System/shell/shell.c ****     }
 715:System/shell/shell.c ****     shellDeleteCommandLine(shell, shell->parser.length);
 716:System/shell/shell.c **** }
 717:System/shell/shell.c **** 
 718:System/shell/shell.c **** /**
 719:System/shell/shell.c ****  * @brief shell插入一个字符到光标位置
 720:System/shell/shell.c ****  *
 721:System/shell/shell.c ****  * @param shell shell对象
 722:System/shell/shell.c ****  * @param data 字符数据
 723:System/shell/shell.c ****  */
 724:System/shell/shell.c **** void shellInsertByte(Shell *shell, char data)
 725:System/shell/shell.c **** {
 726:System/shell/shell.c ****     /* 判断输入数据是否过长 */
 727:System/shell/shell.c ****     if (shell->parser.length >= shell->parser.bufferSize - 1)
 728:System/shell/shell.c ****     {
 729:System/shell/shell.c ****         shellWriteString(shell, shellText[SHELL_TEXT_CMD_TOO_LONG]);
ARM GAS  C:\Users\8bit\AppData\Local\Temp\ccdhdvRO.s 			page 19


 730:System/shell/shell.c ****         shellWriteCommandLine(shell, 1);
 731:System/shell/shell.c ****         shellWriteString(shell, shell->parser.buffer);
 732:System/shell/shell.c ****         return;
 733:System/shell/shell.c ****     }
 734:System/shell/shell.c **** 
 735:System/shell/shell.c ****     /* 插入数据 */
 736:System/shell/shell.c ****     if (shell->parser.cursor == shell->parser.length)
 737:System/shell/shell.c ****     {
 738:System/shell/shell.c ****         shell->parser.buffer[shell->parser.length++] = data;
 739:System/shell/shell.c ****         shell->parser.buffer[shell->parser.length] = 0;
 740:System/shell/shell.c ****         shell->parser.cursor++;
 741:System/shell/shell.c ****         shellWriteByte(shell, data);
 742:System/shell/shell.c ****     }
 743:System/shell/shell.c ****     else if (shell->parser.cursor < shell->parser.length)
 744:System/shell/shell.c ****     {
 745:System/shell/shell.c ****         for (short i = shell->parser.length - shell->parser.cursor; i > 0; i--)
 746:System/shell/shell.c ****         {
 747:System/shell/shell.c ****             shell->parser.buffer[shell->parser.cursor + i] =
 748:System/shell/shell.c ****                 shell->parser.buffer[shell->parser.cursor + i - 1];
 749:System/shell/shell.c ****         }
 750:System/shell/shell.c ****         shell->parser.buffer[shell->parser.cursor++] = data;
 751:System/shell/shell.c ****         shell->parser.buffer[++shell->parser.length] = 0;
 752:System/shell/shell.c ****         for (short i = shell->parser.cursor - 1; i < shell->parser.length; i++)
 753:System/shell/shell.c ****         {
 754:System/shell/shell.c ****             shellWriteByte(shell, shell->parser.buffer[i]);
 755:System/shell/shell.c ****         }
 756:System/shell/shell.c ****         for (short i = shell->parser.length - shell->parser.cursor; i > 0; i--)
 757:System/shell/shell.c ****         {
 758:System/shell/shell.c ****             shellWriteByte(shell, '\b');
 759:System/shell/shell.c ****         }
 760:System/shell/shell.c ****     }
 761:System/shell/shell.c **** }
 762:System/shell/shell.c **** 
 763:System/shell/shell.c **** /**
 764:System/shell/shell.c ****  * @brief shell 删除字节
 765:System/shell/shell.c ****  *
 766:System/shell/shell.c ****  * @param shell shell对象
 767:System/shell/shell.c ****  * @param direction 删除方向 {@code 1}删除光标前字符 {@code -1}删除光标处字符
 768:System/shell/shell.c ****  */
 769:System/shell/shell.c **** void shellDeleteByte(Shell *shell, signed char direction)
 770:System/shell/shell.c **** {
 771:System/shell/shell.c ****     char offset = (direction == -1) ? 1 : 0;
 772:System/shell/shell.c **** 
 773:System/shell/shell.c ****     if ((shell->parser.cursor == 0 && direction == 1) || (shell->parser.cursor == shell->parser.len
 774:System/shell/shell.c ****     {
 775:System/shell/shell.c ****         return;
 776:System/shell/shell.c ****     }
 777:System/shell/shell.c ****     if (shell->parser.cursor == shell->parser.length && direction == 1)
 778:System/shell/shell.c ****     {
 779:System/shell/shell.c ****         shell->parser.cursor--;
 780:System/shell/shell.c ****         shell->parser.length--;
 781:System/shell/shell.c ****         shell->parser.buffer[shell->parser.length] = 0;
 782:System/shell/shell.c ****         shellDeleteCommandLine(shell, 1);
 783:System/shell/shell.c ****     }
 784:System/shell/shell.c ****     else
 785:System/shell/shell.c ****     {
 786:System/shell/shell.c ****         for (short i = offset; i < shell->parser.length - shell->parser.cursor; i++)
ARM GAS  C:\Users\8bit\AppData\Local\Temp\ccdhdvRO.s 			page 20


 787:System/shell/shell.c ****         {
 788:System/shell/shell.c ****             shell->parser.buffer[shell->parser.cursor + i - 1] =
 789:System/shell/shell.c ****                 shell->parser.buffer[shell->parser.cursor + i];
 790:System/shell/shell.c ****         }
 791:System/shell/shell.c ****         shell->parser.length--;
 792:System/shell/shell.c ****         if (!offset)
 793:System/shell/shell.c ****         {
 794:System/shell/shell.c ****             shell->parser.cursor--;
 795:System/shell/shell.c ****             shellWriteByte(shell, '\b');
 796:System/shell/shell.c ****         }
 797:System/shell/shell.c ****         shell->parser.buffer[shell->parser.length] = 0;
 798:System/shell/shell.c ****         for (short i = shell->parser.cursor; i < shell->parser.length; i++)
 799:System/shell/shell.c ****         {
 800:System/shell/shell.c ****             shellWriteByte(shell, shell->parser.buffer[i]);
 801:System/shell/shell.c ****         }
 802:System/shell/shell.c ****         shellWriteByte(shell, ' ');
 803:System/shell/shell.c ****         for (short i = shell->parser.length - shell->parser.cursor + 1; i > 0; i--)
 804:System/shell/shell.c ****         {
 805:System/shell/shell.c ****             shellWriteByte(shell, '\b');
 806:System/shell/shell.c ****         }
 807:System/shell/shell.c ****     }
 808:System/shell/shell.c **** }
 809:System/shell/shell.c **** 
 810:System/shell/shell.c **** /**
 811:System/shell/shell.c ****  * @brief shell 解析参数
 812:System/shell/shell.c ****  *
 813:System/shell/shell.c ****  * @param shell shell对象
 814:System/shell/shell.c ****  */
 815:System/shell/shell.c **** static void shellParserParam(Shell *shell)
 816:System/shell/shell.c **** {
 286              		.loc 1 816 1 is_stmt 1 view -0
 287              		.cfi_startproc
 288              		@ args = 0, pretend = 0, frame = 0
 289              		@ frame_needed = 0, uses_anonymous_args = 0
 290              		.loc 1 816 1 is_stmt 0 view .LVU85
 291 0000 30B5     		push	{r4, r5, lr}
 292              	.LCFI2:
 293              		.cfi_def_cfa_offset 12
 294              		.cfi_offset 4, -12
 295              		.cfi_offset 5, -8
 296              		.cfi_offset 14, -4
 817:System/shell/shell.c ****     unsigned char quotes = 0;
 297              		.loc 1 817 5 is_stmt 1 view .LVU86
 298              	.LVL30:
 818:System/shell/shell.c ****     unsigned char record = 1;
 299              		.loc 1 818 5 view .LVU87
 819:System/shell/shell.c **** 
 820:System/shell/shell.c ****     for (short i = 0; i < SHELL_PARAMETER_MAX_NUMBER; i++)
 300              		.loc 1 820 5 view .LVU88
 301              	.LBB3:
 302              		.loc 1 820 10 view .LVU89
 303              		.loc 1 820 16 is_stmt 0 view .LVU90
 304 0002 0023     		movs	r3, #0
 305              		.loc 1 820 5 view .LVU91
 306 0004 06E0     		b	.L31
 307              	.LVL31:
 308              	.L32:
ARM GAS  C:\Users\8bit\AppData\Local\Temp\ccdhdvRO.s 			page 21


 821:System/shell/shell.c ****     {
 822:System/shell/shell.c ****         shell->parser.param[i] = NULL;
 309              		.loc 1 822 9 is_stmt 1 discriminator 3 view .LVU92
 310              		.loc 1 822 32 is_stmt 0 discriminator 3 view .LVU93
 311 0006 1A1D     		adds	r2, r3, #4
 312 0008 00EB8202 		add	r2, r0, r2, lsl #2
 313 000c 0021     		movs	r1, #0
 314 000e 5160     		str	r1, [r2, #4]
 820:System/shell/shell.c ****     {
 315              		.loc 1 820 55 is_stmt 1 discriminator 3 view .LVU94
 820:System/shell/shell.c ****     {
 316              		.loc 1 820 56 is_stmt 0 discriminator 3 view .LVU95
 317 0010 0133     		adds	r3, r3, #1
 318              	.LVL32:
 820:System/shell/shell.c ****     {
 319              		.loc 1 820 56 discriminator 3 view .LVU96
 320 0012 1BB2     		sxth	r3, r3
 321              	.LVL33:
 322              	.L31:
 820:System/shell/shell.c ****     {
 323              		.loc 1 820 23 is_stmt 1 discriminator 1 view .LVU97
 820:System/shell/shell.c ****     {
 324              		.loc 1 820 5 is_stmt 0 discriminator 1 view .LVU98
 325 0014 072B     		cmp	r3, #7
 326 0016 F6DD     		ble	.L32
 327              	.LBE3:
 823:System/shell/shell.c ****     }
 824:System/shell/shell.c **** 
 825:System/shell/shell.c ****     shell->parser.paramCount = 0;
 328              		.loc 1 825 5 is_stmt 1 view .LVU99
 329              		.loc 1 825 30 is_stmt 0 view .LVU100
 330 0018 0021     		movs	r1, #0
 331 001a C186     		strh	r1, [r0, #54]	@ movhi
 826:System/shell/shell.c ****     for (unsigned short i = 0; i < shell->parser.length; i++)
 332              		.loc 1 826 5 is_stmt 1 view .LVU101
 333              	.LBB4:
 334              		.loc 1 826 10 view .LVU102
 335              	.LVL34:
 336              		.loc 1 826 25 is_stmt 0 view .LVU103
 337 001c 0B46     		mov	r3, r1
 338              	.LVL35:
 339              		.loc 1 826 25 view .LVU104
 340              	.LBE4:
 818:System/shell/shell.c **** 
 341              		.loc 1 818 19 view .LVU105
 342 001e 0125     		movs	r5, #1
 343              	.LBB5:
 344              		.loc 1 826 5 view .LVU106
 345 0020 0DE0     		b	.L33
 346              	.LVL36:
 347              	.L34:
 827:System/shell/shell.c ****     {
 828:System/shell/shell.c ****         if (quotes != 0 || (shell->parser.buffer[i] != ' ' && shell->parser.buffer[i] != 0))
 829:System/shell/shell.c ****         {
 830:System/shell/shell.c ****             if (shell->parser.buffer[i] == '\"')
 348              		.loc 1 830 13 is_stmt 1 view .LVU107
 349              		.loc 1 830 30 is_stmt 0 view .LVU108
ARM GAS  C:\Users\8bit\AppData\Local\Temp\ccdhdvRO.s 			page 22


 350 0022 0269     		ldr	r2, [r0, #16]
 351              		.loc 1 830 37 view .LVU109
 352 0024 9E46     		mov	lr, r3
 353 0026 D418     		adds	r4, r2, r3
 354 0028 12F803C0 		ldrb	ip, [r2, r3]	@ zero_extendqisi2
 355              		.loc 1 830 16 view .LVU110
 356 002c BCF1220F 		cmp	ip, #34
 357 0030 15D0     		beq	.L42
 358              	.L36:
 831:System/shell/shell.c ****             {
 832:System/shell/shell.c ****                 quotes = quotes ? 0 : 1;
 833:System/shell/shell.c ****             }
 834:System/shell/shell.c ****             if (record == 1)
 359              		.loc 1 834 13 is_stmt 1 view .LVU111
 360              		.loc 1 834 16 is_stmt 0 view .LVU112
 361 0032 BDB9     		cbnz	r5, .L43
 362              	.LVL37:
 363              	.L37:
 835:System/shell/shell.c ****             {
 836:System/shell/shell.c ****                 if (shell->parser.paramCount < SHELL_PARAMETER_MAX_NUMBER)
 837:System/shell/shell.c ****                 {
 838:System/shell/shell.c ****                     shell->parser.param[shell->parser.paramCount++] =
 839:System/shell/shell.c ****                         &(shell->parser.buffer[i]);
 840:System/shell/shell.c ****                 }
 841:System/shell/shell.c ****                 record = 0;
 842:System/shell/shell.c ****             }
 843:System/shell/shell.c ****             if (shell->parser.buffer[i] == '\\' && shell->parser.buffer[i + 1] != 0)
 364              		.loc 1 843 13 is_stmt 1 view .LVU113
 365              		.loc 1 843 37 is_stmt 0 view .LVU114
 366 0034 2478     		ldrb	r4, [r4]	@ zero_extendqisi2
 367              		.loc 1 843 16 view .LVU115
 368 0036 5C2C     		cmp	r4, #92
 369 0038 23D0     		beq	.L44
 370              	.LVL38:
 371              	.L38:
 826:System/shell/shell.c ****     {
 372              		.loc 1 826 58 is_stmt 1 discriminator 2 view .LVU116
 826:System/shell/shell.c ****     {
 373              		.loc 1 826 59 is_stmt 0 discriminator 2 view .LVU117
 374 003a 0133     		adds	r3, r3, #1
 375              	.LVL39:
 826:System/shell/shell.c ****     {
 376              		.loc 1 826 59 discriminator 2 view .LVU118
 377 003c 9BB2     		uxth	r3, r3
 378              	.LVL40:
 379              	.L33:
 826:System/shell/shell.c ****     {
 380              		.loc 1 826 32 is_stmt 1 discriminator 1 view .LVU119
 826:System/shell/shell.c ****     {
 381              		.loc 1 826 49 is_stmt 0 discriminator 1 view .LVU120
 382 003e 8289     		ldrh	r2, [r0, #12]
 826:System/shell/shell.c ****     {
 383              		.loc 1 826 5 discriminator 1 view .LVU121
 384 0040 9A42     		cmp	r2, r3
 385 0042 25D9     		bls	.L45
 828:System/shell/shell.c ****         {
 386              		.loc 1 828 9 is_stmt 1 view .LVU122
ARM GAS  C:\Users\8bit\AppData\Local\Temp\ccdhdvRO.s 			page 23


 828:System/shell/shell.c ****         {
 387              		.loc 1 828 12 is_stmt 0 view .LVU123
 388 0044 0029     		cmp	r1, #0
 389 0046 ECD1     		bne	.L34
 828:System/shell/shell.c ****         {
 390              		.loc 1 828 42 discriminator 1 view .LVU124
 391 0048 0269     		ldr	r2, [r0, #16]
 828:System/shell/shell.c ****         {
 392              		.loc 1 828 49 discriminator 1 view .LVU125
 393 004a D418     		adds	r4, r2, r3
 394 004c D25C     		ldrb	r2, [r2, r3]	@ zero_extendqisi2
 828:System/shell/shell.c ****         {
 395              		.loc 1 828 25 discriminator 1 view .LVU126
 396 004e 202A     		cmp	r2, #32
 397 0050 01D0     		beq	.L35
 828:System/shell/shell.c ****         {
 398              		.loc 1 828 60 discriminator 2 view .LVU127
 399 0052 002A     		cmp	r2, #0
 400 0054 E5D1     		bne	.L34
 401              	.L35:
 844:System/shell/shell.c ****             {
 845:System/shell/shell.c ****                 i++;
 846:System/shell/shell.c ****             }
 847:System/shell/shell.c ****         }
 848:System/shell/shell.c ****         else
 849:System/shell/shell.c ****         {
 850:System/shell/shell.c ****             shell->parser.buffer[i] = 0;
 402              		.loc 1 850 13 is_stmt 1 view .LVU128
 403              		.loc 1 850 37 is_stmt 0 view .LVU129
 404 0056 0022     		movs	r2, #0
 405 0058 2270     		strb	r2, [r4]
 851:System/shell/shell.c ****             record = 1;
 406              		.loc 1 851 13 is_stmt 1 view .LVU130
 407              	.LVL41:
 408              		.loc 1 851 20 is_stmt 0 view .LVU131
 409 005a 0125     		movs	r5, #1
 410 005c EDE7     		b	.L38
 411              	.LVL42:
 412              	.L42:
 832:System/shell/shell.c ****             }
 413              		.loc 1 832 17 is_stmt 1 view .LVU132
 832:System/shell/shell.c ****             }
 414              		.loc 1 832 37 is_stmt 0 view .LVU133
 415 005e 81F00101 		eor	r1, r1, #1
 416              	.LVL43:
 832:System/shell/shell.c ****             }
 417              		.loc 1 832 37 view .LVU134
 418 0062 E6E7     		b	.L36
 419              	.L43:
 836:System/shell/shell.c ****                 {
 420              		.loc 1 836 17 is_stmt 1 view .LVU135
 836:System/shell/shell.c ****                 {
 421              		.loc 1 836 34 is_stmt 0 view .LVU136
 422 0064 C58E     		ldrh	r5, [r0, #54]
 423              	.LVL44:
 836:System/shell/shell.c ****                 {
 424              		.loc 1 836 20 view .LVU137
ARM GAS  C:\Users\8bit\AppData\Local\Temp\ccdhdvRO.s 			page 24


 425 0066 072D     		cmp	r5, #7
 426 0068 09D8     		bhi	.L40
 838:System/shell/shell.c ****                         &(shell->parser.buffer[i]);
 427              		.loc 1 838 21 is_stmt 1 view .LVU138
 838:System/shell/shell.c ****                         &(shell->parser.buffer[i]);
 428              		.loc 1 838 65 is_stmt 0 view .LVU139
 429 006a 05F1010C 		add	ip, r5, #1
 430 006e A0F836C0 		strh	ip, [r0, #54]	@ movhi
 838:System/shell/shell.c ****                         &(shell->parser.buffer[i]);
 431              		.loc 1 838 69 view .LVU140
 432 0072 0435     		adds	r5, r5, #4
 433 0074 00EB8505 		add	r5, r0, r5, lsl #2
 434 0078 6C60     		str	r4, [r5, #4]
 841:System/shell/shell.c ****             }
 435              		.loc 1 841 24 view .LVU141
 436 007a 0025     		movs	r5, #0
 437 007c DAE7     		b	.L37
 438              	.L40:
 439 007e 0025     		movs	r5, #0
 440 0080 D8E7     		b	.L37
 441              	.LVL45:
 442              	.L44:
 843:System/shell/shell.c ****             {
 443              		.loc 1 843 72 discriminator 1 view .LVU142
 444 0082 7244     		add	r2, r2, lr
 445 0084 5278     		ldrb	r2, [r2, #1]	@ zero_extendqisi2
 843:System/shell/shell.c ****             {
 446              		.loc 1 843 49 discriminator 1 view .LVU143
 447 0086 002A     		cmp	r2, #0
 448 0088 D7D0     		beq	.L38
 845:System/shell/shell.c ****             }
 449              		.loc 1 845 17 is_stmt 1 view .LVU144
 845:System/shell/shell.c ****             }
 450              		.loc 1 845 18 is_stmt 0 view .LVU145
 451 008a 0133     		adds	r3, r3, #1
 452              	.LVL46:
 845:System/shell/shell.c ****             }
 453              		.loc 1 845 18 view .LVU146
 454 008c 9BB2     		uxth	r3, r3
 455              	.LVL47:
 845:System/shell/shell.c ****             }
 456              		.loc 1 845 18 view .LVU147
 457 008e D4E7     		b	.L38
 458              	.L45:
 845:System/shell/shell.c ****             }
 459              		.loc 1 845 18 view .LVU148
 460              	.LBE5:
 852:System/shell/shell.c ****         }
 853:System/shell/shell.c ****     }
 854:System/shell/shell.c **** }
 461              		.loc 1 854 1 view .LVU149
 462 0090 30BD     		pop	{r4, r5, pc}
 463              		.loc 1 854 1 view .LVU150
 464              		.cfi_endproc
 465              	.LFE29:
 467              		.section	.text.shellHistoryAdd,"ax",%progbits
 468              		.align	1
ARM GAS  C:\Users\8bit\AppData\Local\Temp\ccdhdvRO.s 			page 25


 469              		.syntax unified
 470              		.thumb
 471              		.thumb_func
 473              	shellHistoryAdd:
 474              	.LVL48:
 475              	.LFB40:
 855:System/shell/shell.c **** 
 856:System/shell/shell.c **** /**
 857:System/shell/shell.c ****  * @brief shell去除字符串参数头尾的双引号
 858:System/shell/shell.c ****  *
 859:System/shell/shell.c ****  * @param shell shell对象
 860:System/shell/shell.c ****  */
 861:System/shell/shell.c **** static void shellRemoveParamQuotes(Shell *shell)
 862:System/shell/shell.c **** {
 863:System/shell/shell.c ****     unsigned short paramLength;
 864:System/shell/shell.c ****     for (unsigned short i = 0; i < shell->parser.paramCount; i++)
 865:System/shell/shell.c ****     {
 866:System/shell/shell.c ****         if (shell->parser.param[i][0] == '\"')
 867:System/shell/shell.c ****         {
 868:System/shell/shell.c ****             shell->parser.param[i][0] = 0;
 869:System/shell/shell.c ****             shell->parser.param[i] = &shell->parser.param[i][1];
 870:System/shell/shell.c ****         }
 871:System/shell/shell.c ****         paramLength = strlen(shell->parser.param[i]);
 872:System/shell/shell.c ****         if (shell->parser.param[i][paramLength - 1] == '\"')
 873:System/shell/shell.c ****         {
 874:System/shell/shell.c ****             shell->parser.param[i][paramLength - 1] = 0;
 875:System/shell/shell.c ****         }
 876:System/shell/shell.c ****     }
 877:System/shell/shell.c **** }
 878:System/shell/shell.c **** 
 879:System/shell/shell.c **** /**
 880:System/shell/shell.c ****  * @brief shell匹配命令
 881:System/shell/shell.c ****  *
 882:System/shell/shell.c ****  * @param shell shell对象
 883:System/shell/shell.c ****  * @param cmd 命令
 884:System/shell/shell.c ****  * @param base 匹配命令表基址
 885:System/shell/shell.c ****  * @param compareLength 匹配字符串长度
 886:System/shell/shell.c ****  * @return ShellCommand* 匹配到的命令
 887:System/shell/shell.c ****  */
 888:System/shell/shell.c **** ShellCommand *shellSeekCommand(Shell *shell,
 889:System/shell/shell.c ****                                const char *cmd,
 890:System/shell/shell.c ****                                ShellCommand *base,
 891:System/shell/shell.c ****                                unsigned short compareLength)
 892:System/shell/shell.c **** {
 893:System/shell/shell.c ****     const char *name;
 894:System/shell/shell.c ****     int ret;
 895:System/shell/shell.c ****     unsigned short count = shell->commandList.count -
 896:System/shell/shell.c ****                            ((int)base - (int)shell->commandList.base) / sizeof(ShellCommand);
 897:System/shell/shell.c ****     for (unsigned short i = 0; i < count; i++)
 898:System/shell/shell.c ****     {
 899:System/shell/shell.c ****         if (base[i].attr.attrs.type == SHELL_TYPE_KEY || shellCheckPermission(shell, &base[i]) != 0
 900:System/shell/shell.c ****         {
 901:System/shell/shell.c ****             continue;
 902:System/shell/shell.c ****         }
 903:System/shell/shell.c ****         name = shellGetCommandName(&base[i]);
 904:System/shell/shell.c ****         if (!compareLength)
 905:System/shell/shell.c ****         {
ARM GAS  C:\Users\8bit\AppData\Local\Temp\ccdhdvRO.s 			page 26


 906:System/shell/shell.c ****             ret = strcmp(cmd, name);
 907:System/shell/shell.c ****             if (strcmp(cmd, name) == 0)
 908:System/shell/shell.c ****             {
 909:System/shell/shell.c ****                 return &base[i];
 910:System/shell/shell.c ****             }
 911:System/shell/shell.c ****         }
 912:System/shell/shell.c ****         else
 913:System/shell/shell.c ****         {
 914:System/shell/shell.c ****             if (strncmp(cmd, name, compareLength) == 0)
 915:System/shell/shell.c ****             {
 916:System/shell/shell.c ****                 return &base[i];
 917:System/shell/shell.c ****             }
 918:System/shell/shell.c ****         }
 919:System/shell/shell.c ****     }
 920:System/shell/shell.c ****     return NULL;
 921:System/shell/shell.c **** }
 922:System/shell/shell.c **** 
 923:System/shell/shell.c **** /**
 924:System/shell/shell.c ****  * @brief shell 获取变量值
 925:System/shell/shell.c ****  *
 926:System/shell/shell.c ****  * @param shell shell对象
 927:System/shell/shell.c ****  * @param command 命令
 928:System/shell/shell.c ****  * @return int 变量值
 929:System/shell/shell.c ****  */
 930:System/shell/shell.c **** int shellGetVarValue(Shell *shell, ShellCommand *command)
 931:System/shell/shell.c **** {
 932:System/shell/shell.c ****     int value = 0;
 933:System/shell/shell.c ****     switch (command->attr.attrs.type)
 934:System/shell/shell.c ****     {
 935:System/shell/shell.c ****     case SHELL_TYPE_VAR_INT:
 936:System/shell/shell.c ****         value = *((int *)(command->data.var.value));
 937:System/shell/shell.c ****         break;
 938:System/shell/shell.c ****     case SHELL_TYPE_VAR_SHORT:
 939:System/shell/shell.c ****         value = *((short *)(command->data.var.value));
 940:System/shell/shell.c ****         break;
 941:System/shell/shell.c ****     case SHELL_TYPE_VAR_CHAR:
 942:System/shell/shell.c ****         value = *((char *)(command->data.var.value));
 943:System/shell/shell.c ****         break;
 944:System/shell/shell.c ****     case SHELL_TYPE_VAR_STRING:
 945:System/shell/shell.c ****     case SHELL_TYPE_VAR_POINT:
 946:System/shell/shell.c ****         value = (int)(command->data.var.value);
 947:System/shell/shell.c ****         break;
 948:System/shell/shell.c ****     case SHELL_TYPE_VAR_NODE:
 949:System/shell/shell.c ****         value = ((ShellNodeVarAttr *)command->data.var.value)->get ? ((ShellNodeVarAttr *)command->
 950:System/shell/shell.c ****                                                                          ->get(((ShellNodeVarAttr *
 951:System/shell/shell.c ****                                                                    : 0;
 952:System/shell/shell.c ****         break;
 953:System/shell/shell.c ****     default:
 954:System/shell/shell.c ****         break;
 955:System/shell/shell.c ****     }
 956:System/shell/shell.c ****     return value;
 957:System/shell/shell.c **** }
 958:System/shell/shell.c **** 
 959:System/shell/shell.c **** /**
 960:System/shell/shell.c ****  * @brief shell设置变量值
 961:System/shell/shell.c ****  *
 962:System/shell/shell.c ****  * @param shell shell对象
ARM GAS  C:\Users\8bit\AppData\Local\Temp\ccdhdvRO.s 			page 27


 963:System/shell/shell.c ****  * @param command 命令
 964:System/shell/shell.c ****  * @param value 值
 965:System/shell/shell.c ****  * @return int 返回变量值
 966:System/shell/shell.c ****  */
 967:System/shell/shell.c **** int shellSetVarValue(Shell *shell, ShellCommand *command, int value)
 968:System/shell/shell.c **** {
 969:System/shell/shell.c ****     if (command->attr.attrs.readOnly)
 970:System/shell/shell.c ****     {
 971:System/shell/shell.c ****         shellWriteString(shell, shellText[SHELL_TEXT_VAR_READ_ONLY_CANNOT_MODIFY]);
 972:System/shell/shell.c ****     }
 973:System/shell/shell.c ****     else
 974:System/shell/shell.c ****     {
 975:System/shell/shell.c ****         switch (command->attr.attrs.type)
 976:System/shell/shell.c ****         {
 977:System/shell/shell.c ****         case SHELL_TYPE_VAR_INT:
 978:System/shell/shell.c ****             *((int *)(command->data.var.value)) = value;
 979:System/shell/shell.c ****             break;
 980:System/shell/shell.c ****         case SHELL_TYPE_VAR_SHORT:
 981:System/shell/shell.c ****             *((short *)(command->data.var.value)) = value;
 982:System/shell/shell.c ****             break;
 983:System/shell/shell.c ****         case SHELL_TYPE_VAR_CHAR:
 984:System/shell/shell.c ****             *((char *)(command->data.var.value)) = value;
 985:System/shell/shell.c ****             break;
 986:System/shell/shell.c ****         case SHELL_TYPE_VAR_STRING:
 987:System/shell/shell.c ****             shellStringCopy(((char *)(command->data.var.value)), (char *)value);
 988:System/shell/shell.c ****             break;
 989:System/shell/shell.c ****         case SHELL_TYPE_VAR_POINT:
 990:System/shell/shell.c ****             shellWriteString(shell, shellText[SHELL_TEXT_POINT_CANNOT_MODIFY]);
 991:System/shell/shell.c ****             break;
 992:System/shell/shell.c ****         case SHELL_TYPE_VAR_NODE:
 993:System/shell/shell.c ****             if (((ShellNodeVarAttr *)command->data.var.value)->set)
 994:System/shell/shell.c ****             {
 995:System/shell/shell.c ****                 if (((ShellNodeVarAttr *)command->data.var.value)->var)
 996:System/shell/shell.c ****                 {
 997:System/shell/shell.c ****                     ((ShellNodeVarAttr *)command->data.var.value)
 998:System/shell/shell.c ****                         ->set(((ShellNodeVarAttr *)command->data.var.value)->var, value);
 999:System/shell/shell.c ****                 }
1000:System/shell/shell.c ****                 else
1001:System/shell/shell.c ****                 {
1002:System/shell/shell.c ****                     ((ShellNodeVarAttr *)command->data.var.value)->set(value);
1003:System/shell/shell.c ****                 }
1004:System/shell/shell.c ****             }
1005:System/shell/shell.c ****             break;
1006:System/shell/shell.c ****         default:
1007:System/shell/shell.c ****             break;
1008:System/shell/shell.c ****         }
1009:System/shell/shell.c ****     }
1010:System/shell/shell.c ****     return shellShowVar(shell, command);
1011:System/shell/shell.c **** }
1012:System/shell/shell.c **** 
1013:System/shell/shell.c **** /**
1014:System/shell/shell.c ****  * @brief shell变量输出
1015:System/shell/shell.c ****  *
1016:System/shell/shell.c ****  * @param shell shell对象
1017:System/shell/shell.c ****  * @param command 命令
1018:System/shell/shell.c ****  * @return int 返回变量值
1019:System/shell/shell.c ****  */
ARM GAS  C:\Users\8bit\AppData\Local\Temp\ccdhdvRO.s 			page 28


1020:System/shell/shell.c **** static int shellShowVar(Shell *shell, ShellCommand *command)
1021:System/shell/shell.c **** {
1022:System/shell/shell.c ****     char buffer[12] = "00000000000";
1023:System/shell/shell.c ****     int value = shellGetVarValue(shell, command);
1024:System/shell/shell.c **** 
1025:System/shell/shell.c ****     shellWriteString(shell, command->data.var.name);
1026:System/shell/shell.c ****     shellWriteString(shell, " = ");
1027:System/shell/shell.c **** 
1028:System/shell/shell.c ****     switch (command->attr.attrs.type)
1029:System/shell/shell.c ****     {
1030:System/shell/shell.c ****     case SHELL_TYPE_VAR_STRING:
1031:System/shell/shell.c ****         shellWriteString(shell, "\"");
1032:System/shell/shell.c ****         shellWriteString(shell, (char *)value);
1033:System/shell/shell.c ****         shellWriteString(shell, "\"");
1034:System/shell/shell.c ****         break;
1035:System/shell/shell.c ****     // case SHELL_TYPE_VAR_INT:
1036:System/shell/shell.c ****     // case SHELL_TYPE_VAR_SHORT:
1037:System/shell/shell.c ****     // case SHELL_TYPE_VAR_CHAR:
1038:System/shell/shell.c ****     // case SHELL_TYPE_VAR_POINT:
1039:System/shell/shell.c ****     default:
1040:System/shell/shell.c ****         shellWriteString(shell, &buffer[11 - shellToDec(value, buffer)]);
1041:System/shell/shell.c ****         shellWriteString(shell, ", 0x");
1042:System/shell/shell.c ****         for (short i = 0; i < 11; i++)
1043:System/shell/shell.c ****         {
1044:System/shell/shell.c ****             buffer[i] = '0';
1045:System/shell/shell.c ****         }
1046:System/shell/shell.c ****         shellToHex(value, buffer);
1047:System/shell/shell.c ****         shellWriteString(shell, buffer);
1048:System/shell/shell.c ****         break;
1049:System/shell/shell.c ****     }
1050:System/shell/shell.c **** 
1051:System/shell/shell.c ****     shellWriteString(shell, "\r\n");
1052:System/shell/shell.c ****     return value;
1053:System/shell/shell.c **** }
1054:System/shell/shell.c **** 
1055:System/shell/shell.c **** /**
1056:System/shell/shell.c ****  * @brief shell设置变量
1057:System/shell/shell.c ****  *
1058:System/shell/shell.c ****  * @param name 变量名
1059:System/shell/shell.c ****  * @param value 变量值
1060:System/shell/shell.c ****  * @return int 返回变量值
1061:System/shell/shell.c ****  */
1062:System/shell/shell.c **** int shellSetVar(char *name, int value)
1063:System/shell/shell.c **** {
1064:System/shell/shell.c ****     Shell *shell = shellGetCurrent();
1065:System/shell/shell.c ****     if (shell == NULL)
1066:System/shell/shell.c ****     {
1067:System/shell/shell.c ****         return 0;
1068:System/shell/shell.c ****     }
1069:System/shell/shell.c ****     ShellCommand *command = shellSeekCommand(shell,
1070:System/shell/shell.c ****                                              name,
1071:System/shell/shell.c ****                                              shell->commandList.base,
1072:System/shell/shell.c ****                                              0);
1073:System/shell/shell.c ****     if (!command)
1074:System/shell/shell.c ****     {
1075:System/shell/shell.c ****         shellWriteString(shell, shellText[SHELL_TEXT_VAR_NOT_FOUND]);
1076:System/shell/shell.c ****         return 0;
ARM GAS  C:\Users\8bit\AppData\Local\Temp\ccdhdvRO.s 			page 29


1077:System/shell/shell.c ****     }
1078:System/shell/shell.c ****     if (command->attr.attrs.type < SHELL_TYPE_VAR_INT || command->attr.attrs.type > SHELL_TYPE_VAR_
1079:System/shell/shell.c ****     {
1080:System/shell/shell.c ****         shellWriteString(shell, name);
1081:System/shell/shell.c ****         shellWriteString(shell, shellText[SHELL_TEXT_NOT_VAR]);
1082:System/shell/shell.c ****         return 0;
1083:System/shell/shell.c ****     }
1084:System/shell/shell.c ****     return shellSetVarValue(shell, command, value);
1085:System/shell/shell.c **** }
1086:System/shell/shell.c **** SHELL_EXPORT_CMD(
1087:System/shell/shell.c ****     SHELL_CMD_PERMISSION(0) | SHELL_CMD_TYPE(SHELL_TYPE_CMD_FUNC) | SHELL_CMD_DISABLE_RETURN,
1088:System/shell/shell.c ****     setVar, shellSetVar, set var);
1089:System/shell/shell.c **** 
1090:System/shell/shell.c **** /**
1091:System/shell/shell.c ****  * @brief shell运行命令
1092:System/shell/shell.c ****  *
1093:System/shell/shell.c ****  * @param shell shell对象
1094:System/shell/shell.c ****  * @param command 命令
1095:System/shell/shell.c ****  *
1096:System/shell/shell.c ****  * @return unsigned int 命令返回值
1097:System/shell/shell.c ****  */
1098:System/shell/shell.c **** unsigned int shellRunCommand(Shell *shell, ShellCommand *command)
1099:System/shell/shell.c **** {
1100:System/shell/shell.c ****     int returnValue = 0;
1101:System/shell/shell.c ****     shell->status.isActive = 1;
1102:System/shell/shell.c ****     if (command->attr.attrs.type == SHELL_TYPE_CMD_MAIN)
1103:System/shell/shell.c ****     {
1104:System/shell/shell.c ****         shellRemoveParamQuotes(shell);
1105:System/shell/shell.c ****         returnValue = command->data.cmd.function(shell->parser.paramCount,
1106:System/shell/shell.c ****                                                  shell->parser.param);
1107:System/shell/shell.c ****         if (!command->attr.attrs.disableReturn)
1108:System/shell/shell.c ****         {
1109:System/shell/shell.c ****             shellWriteReturnValue(shell, returnValue);
1110:System/shell/shell.c ****         }
1111:System/shell/shell.c ****     }
1112:System/shell/shell.c ****     else if (command->attr.attrs.type == SHELL_TYPE_CMD_FUNC)
1113:System/shell/shell.c ****     {
1114:System/shell/shell.c ****         returnValue = shellExtRun(shell,
1115:System/shell/shell.c ****                                   command,
1116:System/shell/shell.c ****                                   shell->parser.paramCount,
1117:System/shell/shell.c ****                                   shell->parser.param);
1118:System/shell/shell.c ****         if (!command->attr.attrs.disableReturn)
1119:System/shell/shell.c ****         {
1120:System/shell/shell.c ****             shellWriteReturnValue(shell, returnValue);
1121:System/shell/shell.c ****         }
1122:System/shell/shell.c ****     }
1123:System/shell/shell.c ****     else if (command->attr.attrs.type >= SHELL_TYPE_VAR_INT && command->attr.attrs.type <= SHELL_TY
1124:System/shell/shell.c ****     {
1125:System/shell/shell.c ****         shellShowVar(shell, command);
1126:System/shell/shell.c ****     }
1127:System/shell/shell.c ****     else if (command->attr.attrs.type == SHELL_TYPE_USER)
1128:System/shell/shell.c ****     {
1129:System/shell/shell.c ****         shellSetUser(shell, command);
1130:System/shell/shell.c ****     }
1131:System/shell/shell.c ****     shell->status.isActive = 0;
1132:System/shell/shell.c **** 
1133:System/shell/shell.c ****     return returnValue;
ARM GAS  C:\Users\8bit\AppData\Local\Temp\ccdhdvRO.s 			page 30


1134:System/shell/shell.c **** }
1135:System/shell/shell.c **** 
1136:System/shell/shell.c **** /**
1137:System/shell/shell.c ****  * @brief shell校验密码
1138:System/shell/shell.c ****  *
1139:System/shell/shell.c ****  * @param shell shell对象
1140:System/shell/shell.c ****  */
1141:System/shell/shell.c **** static void shellCheckPassword(Shell *shell)
1142:System/shell/shell.c **** {
1143:System/shell/shell.c ****     if (strcmp(shell->parser.buffer, shell->info.user->data.user.password) == 0)
1144:System/shell/shell.c ****     {
1145:System/shell/shell.c ****         shell->status.isChecked = 1;
1146:System/shell/shell.c **** #if SHELL_SHOW_INFO == 1
1147:System/shell/shell.c ****         shellWriteString(shell, shellText[SHELL_TEXT_INFO]);
1148:System/shell/shell.c **** #endif
1149:System/shell/shell.c ****     }
1150:System/shell/shell.c ****     else
1151:System/shell/shell.c ****     {
1152:System/shell/shell.c ****         shellWriteString(shell, shellText[SHELL_TEXT_PASSWORD_ERROR]);
1153:System/shell/shell.c ****     }
1154:System/shell/shell.c ****     shell->parser.length = 0;
1155:System/shell/shell.c ****     shell->parser.cursor = 0;
1156:System/shell/shell.c **** }
1157:System/shell/shell.c **** 
1158:System/shell/shell.c **** /**
1159:System/shell/shell.c ****  * @brief shell设置用户
1160:System/shell/shell.c ****  *
1161:System/shell/shell.c ****  * @param shell shell对象
1162:System/shell/shell.c ****  * @param user 用户
1163:System/shell/shell.c ****  */
1164:System/shell/shell.c **** static void shellSetUser(Shell *shell, const ShellCommand *user)
1165:System/shell/shell.c **** {
1166:System/shell/shell.c ****     shell->info.user = user;
1167:System/shell/shell.c ****     shell->status.isChecked =
1168:System/shell/shell.c ****         ((user->data.user.password && strlen(user->data.user.password) != 0) && (shell->parser.para
1169:System/shell/shell.c ****             ? 0
1170:System/shell/shell.c ****             : 1;
1171:System/shell/shell.c **** 
1172:System/shell/shell.c **** #if SHELL_CLS_WHEN_LOGIN == 1
1173:System/shell/shell.c ****     shellWriteString(shell, shellText[SHELL_TEXT_CLEAR_CONSOLE]);
1174:System/shell/shell.c **** #endif
1175:System/shell/shell.c **** #if SHELL_SHOW_INFO == 1
1176:System/shell/shell.c ****     if (shell->status.isChecked)
1177:System/shell/shell.c ****     {
1178:System/shell/shell.c ****         shellWriteString(shell, shellText[SHELL_TEXT_INFO]);
1179:System/shell/shell.c ****     }
1180:System/shell/shell.c **** #endif
1181:System/shell/shell.c **** }
1182:System/shell/shell.c **** 
1183:System/shell/shell.c **** /**
1184:System/shell/shell.c ****  * @brief shell写返回值
1185:System/shell/shell.c ****  *
1186:System/shell/shell.c ****  * @param shell shell对象
1187:System/shell/shell.c ****  * @param value 返回值
1188:System/shell/shell.c ****  */
1189:System/shell/shell.c **** static void shellWriteReturnValue(Shell *shell, int value)
1190:System/shell/shell.c **** {
ARM GAS  C:\Users\8bit\AppData\Local\Temp\ccdhdvRO.s 			page 31


1191:System/shell/shell.c ****     char buffer[12] = "00000000000";
1192:System/shell/shell.c ****     shellWriteString(shell, "Return: ");
1193:System/shell/shell.c ****     shellWriteString(shell, &buffer[11 - shellToDec(value, buffer)]);
1194:System/shell/shell.c ****     shellWriteString(shell, ", 0x");
1195:System/shell/shell.c ****     for (short i = 0; i < 11; i++)
1196:System/shell/shell.c ****     {
1197:System/shell/shell.c ****         buffer[i] = '0';
1198:System/shell/shell.c ****     }
1199:System/shell/shell.c ****     shellToHex(value, buffer);
1200:System/shell/shell.c ****     shellWriteString(shell, buffer);
1201:System/shell/shell.c ****     shellWriteString(shell, "\r\n");
1202:System/shell/shell.c **** }
1203:System/shell/shell.c **** 
1204:System/shell/shell.c **** /**
1205:System/shell/shell.c ****  * @brief shell历史记录添加
1206:System/shell/shell.c ****  *
1207:System/shell/shell.c ****  * @param shell shell对象
1208:System/shell/shell.c ****  */
1209:System/shell/shell.c **** static void shellHistoryAdd(Shell *shell)
1210:System/shell/shell.c **** {
 476              		.loc 1 1210 1 is_stmt 1 view -0
 477              		.cfi_startproc
 478              		@ args = 0, pretend = 0, frame = 0
 479              		@ frame_needed = 0, uses_anonymous_args = 0
 480              		.loc 1 1210 1 is_stmt 0 view .LVU152
 481 0000 10B5     		push	{r4, lr}
 482              	.LCFI3:
 483              		.cfi_def_cfa_offset 8
 484              		.cfi_offset 4, -8
 485              		.cfi_offset 14, -4
 486 0002 0446     		mov	r4, r0
1211:System/shell/shell.c ****     shell->history.offset = 0;
 487              		.loc 1 1211 5 is_stmt 1 view .LVU153
 488              		.loc 1 1211 27 is_stmt 0 view .LVU154
 489 0004 0023     		movs	r3, #0
 490 0006 A0F85430 		strh	r3, [r0, #84]	@ movhi
1212:System/shell/shell.c ****     if (shell->history.number > 0 && strcmp(shell->history.item[(shell->history.record == 0 ? SHELL
 491              		.loc 1 1212 5 is_stmt 1 view .LVU155
 492              		.loc 1 1212 23 is_stmt 0 view .LVU156
 493 000a B0F85030 		ldrh	r3, [r0, #80]
 494              		.loc 1 1212 8 view .LVU157
 495 000e 5BB1     		cbz	r3, .L47
 496              		.loc 1 1212 80 discriminator 1 view .LVU158
 497 0010 B0F85230 		ldrh	r3, [r0, #82]
 498              		.loc 1 1212 145 discriminator 1 view .LVU159
 499 0014 53B3     		cbz	r3, .L52
 500              		.loc 1 1212 145 discriminator 2 view .LVU160
 501 0016 013B     		subs	r3, r3, #1
 502              	.L48:
 503              		.loc 1 1212 64 discriminator 5 view .LVU161
 504 0018 0E33     		adds	r3, r3, #14
 505 001a 04EB8303 		add	r3, r4, r3, lsl #2
 506              		.loc 1 1212 38 discriminator 5 view .LVU162
 507 001e 2169     		ldr	r1, [r4, #16]
 508 0020 5868     		ldr	r0, [r3, #4]
 509              	.LVL49:
 510              		.loc 1 1212 38 discriminator 5 view .LVU163
ARM GAS  C:\Users\8bit\AppData\Local\Temp\ccdhdvRO.s 			page 32


 511 0022 FFF7FEFF 		bl	strcmp
 512              	.LVL50:
 513              		.loc 1 1212 35 discriminator 5 view .LVU164
 514 0026 00B3     		cbz	r0, .L46
 515              	.L47:
1213:System/shell/shell.c ****                                             shell->parser.buffer) == 0)
1214:System/shell/shell.c ****     {
1215:System/shell/shell.c ****         return;
1216:System/shell/shell.c ****     }
1217:System/shell/shell.c ****     if (shellStringCopy(shell->history.item[shell->history.record],
 516              		.loc 1 1217 5 is_stmt 1 view .LVU165
 517              		.loc 1 1217 59 is_stmt 0 view .LVU166
 518 0028 B4F85230 		ldrh	r3, [r4, #82]
 519              		.loc 1 1217 9 view .LVU167
 520 002c 0E33     		adds	r3, r3, #14
 521 002e 04EB8303 		add	r3, r4, r3, lsl #2
 522 0032 2169     		ldr	r1, [r4, #16]
 523 0034 5868     		ldr	r0, [r3, #4]
 524 0036 FFF7FEFF 		bl	shellStringCopy
 525              	.LVL51:
 526              		.loc 1 1217 8 view .LVU168
 527 003a 20B1     		cbz	r0, .L50
1218:System/shell/shell.c ****                         shell->parser.buffer) != 0)
1219:System/shell/shell.c ****     {
1220:System/shell/shell.c ****         shell->history.record++;
 528              		.loc 1 1220 9 is_stmt 1 view .LVU169
 529              		.loc 1 1220 23 is_stmt 0 view .LVU170
 530 003c B4F85230 		ldrh	r3, [r4, #82]
 531              		.loc 1 1220 30 view .LVU171
 532 0040 0133     		adds	r3, r3, #1
 533 0042 A4F85230 		strh	r3, [r4, #82]	@ movhi
 534              	.L50:
1221:System/shell/shell.c ****     }
1222:System/shell/shell.c ****     if (++shell->history.number > SHELL_HISTORY_MAX_NUMBER)
 535              		.loc 1 1222 5 is_stmt 1 view .LVU172
 536              		.loc 1 1222 25 is_stmt 0 view .LVU173
 537 0046 B4F85030 		ldrh	r3, [r4, #80]
 538              		.loc 1 1222 9 view .LVU174
 539 004a 0133     		adds	r3, r3, #1
 540 004c 9BB2     		uxth	r3, r3
 541              		.loc 1 1222 8 view .LVU175
 542 004e A4F85030 		strh	r3, [r4, #80]	@ movhi
 543 0052 052B     		cmp	r3, #5
 544 0054 02D9     		bls	.L51
1223:System/shell/shell.c ****     {
1224:System/shell/shell.c ****         shell->history.number = SHELL_HISTORY_MAX_NUMBER;
 545              		.loc 1 1224 9 is_stmt 1 view .LVU176
 546              		.loc 1 1224 31 is_stmt 0 view .LVU177
 547 0056 0523     		movs	r3, #5
 548 0058 A4F85030 		strh	r3, [r4, #80]	@ movhi
 549              	.L51:
1225:System/shell/shell.c ****     }
1226:System/shell/shell.c ****     if (shell->history.record >= SHELL_HISTORY_MAX_NUMBER)
 550              		.loc 1 1226 5 is_stmt 1 view .LVU178
 551              		.loc 1 1226 23 is_stmt 0 view .LVU179
 552 005c B4F85230 		ldrh	r3, [r4, #82]
 553              		.loc 1 1226 8 view .LVU180
ARM GAS  C:\Users\8bit\AppData\Local\Temp\ccdhdvRO.s 			page 33


 554 0060 042B     		cmp	r3, #4
 555 0062 02D9     		bls	.L46
1227:System/shell/shell.c ****     {
1228:System/shell/shell.c ****         shell->history.record = 0;
 556              		.loc 1 1228 9 is_stmt 1 view .LVU181
 557              		.loc 1 1228 31 is_stmt 0 view .LVU182
 558 0064 0023     		movs	r3, #0
 559 0066 A4F85230 		strh	r3, [r4, #82]	@ movhi
 560              	.L46:
1229:System/shell/shell.c ****     }
1230:System/shell/shell.c **** }
 561              		.loc 1 1230 1 view .LVU183
 562 006a 10BD     		pop	{r4, pc}
 563              	.LVL52:
 564              	.L52:
1212:System/shell/shell.c ****                                             shell->parser.buffer) == 0)
 565              		.loc 1 1212 145 view .LVU184
 566 006c 0423     		movs	r3, #4
 567 006e D3E7     		b	.L48
 568              		.cfi_endproc
 569              	.LFE40:
 571              		.section	.text.shellRemoveParamQuotes,"ax",%progbits
 572              		.align	1
 573              		.syntax unified
 574              		.thumb
 575              		.thumb_func
 577              	shellRemoveParamQuotes:
 578              	.LVL53:
 579              	.LFB30:
 862:System/shell/shell.c ****     unsigned short paramLength;
 580              		.loc 1 862 1 is_stmt 1 view -0
 581              		.cfi_startproc
 582              		@ args = 0, pretend = 0, frame = 0
 583              		@ frame_needed = 0, uses_anonymous_args = 0
 862:System/shell/shell.c ****     unsigned short paramLength;
 584              		.loc 1 862 1 is_stmt 0 view .LVU186
 585 0000 70B5     		push	{r4, r5, r6, lr}
 586              	.LCFI4:
 587              		.cfi_def_cfa_offset 16
 588              		.cfi_offset 4, -16
 589              		.cfi_offset 5, -12
 590              		.cfi_offset 6, -8
 591              		.cfi_offset 14, -4
 592 0002 0546     		mov	r5, r0
 863:System/shell/shell.c ****     for (unsigned short i = 0; i < shell->parser.paramCount; i++)
 593              		.loc 1 863 5 is_stmt 1 view .LVU187
 864:System/shell/shell.c ****     {
 594              		.loc 1 864 5 view .LVU188
 595              	.LBB6:
 864:System/shell/shell.c ****     {
 596              		.loc 1 864 10 view .LVU189
 597              	.LVL54:
 864:System/shell/shell.c ****     {
 598              		.loc 1 864 25 is_stmt 0 view .LVU190
 599 0004 0024     		movs	r4, #0
 864:System/shell/shell.c ****     {
 600              		.loc 1 864 5 view .LVU191
ARM GAS  C:\Users\8bit\AppData\Local\Temp\ccdhdvRO.s 			page 34


 601 0006 0AE0     		b	.L55
 602              	.LVL55:
 603              	.L61:
 868:System/shell/shell.c ****             shell->parser.param[i] = &shell->parser.param[i][1];
 604              		.loc 1 868 13 is_stmt 1 view .LVU192
 868:System/shell/shell.c ****             shell->parser.param[i] = &shell->parser.param[i][1];
 605              		.loc 1 868 39 is_stmt 0 view .LVU193
 606 0008 0021     		movs	r1, #0
 607 000a 1170     		strb	r1, [r2]
 869:System/shell/shell.c ****         }
 608              		.loc 1 869 13 is_stmt 1 view .LVU194
 869:System/shell/shell.c ****         }
 609              		.loc 1 869 58 is_stmt 0 view .LVU195
 610 000c 221D     		adds	r2, r4, #4
 611 000e 05EB8202 		add	r2, r5, r2, lsl #2
 612 0012 5168     		ldr	r1, [r2, #4]
 869:System/shell/shell.c ****         }
 613              		.loc 1 869 38 view .LVU196
 614 0014 0131     		adds	r1, r1, #1
 869:System/shell/shell.c ****         }
 615              		.loc 1 869 36 view .LVU197
 616 0016 5160     		str	r1, [r2, #4]
 617 0018 0CE0     		b	.L56
 618              	.LVL56:
 619              	.L57:
 864:System/shell/shell.c ****     {
 620              		.loc 1 864 62 is_stmt 1 discriminator 2 view .LVU198
 864:System/shell/shell.c ****     {
 621              		.loc 1 864 63 is_stmt 0 discriminator 2 view .LVU199
 622 001a 0134     		adds	r4, r4, #1
 623              	.LVL57:
 864:System/shell/shell.c ****     {
 624              		.loc 1 864 63 discriminator 2 view .LVU200
 625 001c A4B2     		uxth	r4, r4
 626              	.LVL58:
 627              	.L55:
 864:System/shell/shell.c ****     {
 628              		.loc 1 864 32 is_stmt 1 discriminator 1 view .LVU201
 864:System/shell/shell.c ****     {
 629              		.loc 1 864 49 is_stmt 0 discriminator 1 view .LVU202
 630 001e EB8E     		ldrh	r3, [r5, #54]
 864:System/shell/shell.c ****     {
 631              		.loc 1 864 5 discriminator 1 view .LVU203
 632 0020 A342     		cmp	r3, r4
 633 0022 16D9     		bls	.L60
 866:System/shell/shell.c ****         {
 634              		.loc 1 866 9 is_stmt 1 view .LVU204
 866:System/shell/shell.c ****         {
 635              		.loc 1 866 32 is_stmt 0 view .LVU205
 636 0024 2346     		mov	r3, r4
 637 0026 221D     		adds	r2, r4, #4
 638 0028 05EB8202 		add	r2, r5, r2, lsl #2
 639 002c 5268     		ldr	r2, [r2, #4]
 866:System/shell/shell.c ****         {
 640              		.loc 1 866 35 view .LVU206
 641 002e 1178     		ldrb	r1, [r2]	@ zero_extendqisi2
 866:System/shell/shell.c ****         {
ARM GAS  C:\Users\8bit\AppData\Local\Temp\ccdhdvRO.s 			page 35


 642              		.loc 1 866 12 view .LVU207
 643 0030 2229     		cmp	r1, #34
 644 0032 E9D0     		beq	.L61
 645              	.L56:
 871:System/shell/shell.c ****         if (shell->parser.param[i][paramLength - 1] == '\"')
 646              		.loc 1 871 9 is_stmt 1 view .LVU208
 871:System/shell/shell.c ****         if (shell->parser.param[i][paramLength - 1] == '\"')
 647              		.loc 1 871 49 is_stmt 0 view .LVU209
 648 0034 0433     		adds	r3, r3, #4
 649 0036 05EB8303 		add	r3, r5, r3, lsl #2
 650 003a 5E68     		ldr	r6, [r3, #4]
 871:System/shell/shell.c ****         if (shell->parser.param[i][paramLength - 1] == '\"')
 651              		.loc 1 871 23 view .LVU210
 652 003c 3046     		mov	r0, r6
 653 003e FFF7FEFF 		bl	strlen
 654              	.LVL59:
 872:System/shell/shell.c ****         {
 655              		.loc 1 872 9 is_stmt 1 view .LVU211
 872:System/shell/shell.c ****         {
 656              		.loc 1 872 35 is_stmt 0 view .LVU212
 657 0042 83B2     		uxth	r3, r0
 658 0044 013B     		subs	r3, r3, #1
 659 0046 F25C     		ldrb	r2, [r6, r3]	@ zero_extendqisi2
 872:System/shell/shell.c ****         {
 660              		.loc 1 872 12 view .LVU213
 661 0048 222A     		cmp	r2, #34
 662 004a E6D1     		bne	.L57
 874:System/shell/shell.c ****         }
 663              		.loc 1 874 13 is_stmt 1 view .LVU214
 874:System/shell/shell.c ****         }
 664              		.loc 1 874 53 is_stmt 0 view .LVU215
 665 004c 0022     		movs	r2, #0
 666 004e F254     		strb	r2, [r6, r3]
 667 0050 E3E7     		b	.L57
 668              	.LVL60:
 669              	.L60:
 874:System/shell/shell.c ****         }
 670              		.loc 1 874 53 view .LVU216
 671              	.LBE6:
 877:System/shell/shell.c **** 
 672              		.loc 1 877 1 view .LVU217
 673 0052 70BD     		pop	{r4, r5, r6, pc}
 877:System/shell/shell.c **** 
 674              		.loc 1 877 1 view .LVU218
 675              		.cfi_endproc
 676              	.LFE30:
 678              		.section	.text.shellGetCurrent,"ax",%progbits
 679              		.align	1
 680              		.global	shellGetCurrent
 681              		.syntax unified
 682              		.thumb
 683              		.thumb_func
 685              	shellGetCurrent:
 686              	.LFB5:
 228:System/shell/shell.c ****     for (short i = 0; i < SHELL_MAX_NUMBER; i++)
 687              		.loc 1 228 1 is_stmt 1 view -0
 688              		.cfi_startproc
ARM GAS  C:\Users\8bit\AppData\Local\Temp\ccdhdvRO.s 			page 36


 689              		@ args = 0, pretend = 0, frame = 0
 690              		@ frame_needed = 0, uses_anonymous_args = 0
 691              		@ link register save eliminated.
 229:System/shell/shell.c ****     {
 692              		.loc 1 229 5 view .LVU220
 693              	.LBB7:
 229:System/shell/shell.c ****     {
 694              		.loc 1 229 10 view .LVU221
 695              	.LVL61:
 229:System/shell/shell.c ****     {
 696              		.loc 1 229 16 is_stmt 0 view .LVU222
 697 0000 0023     		movs	r3, #0
 229:System/shell/shell.c ****     {
 698              		.loc 1 229 5 view .LVU223
 699 0002 01E0     		b	.L63
 700              	.LVL62:
 701              	.L64:
 229:System/shell/shell.c ****     {
 702              		.loc 1 229 45 is_stmt 1 discriminator 2 view .LVU224
 229:System/shell/shell.c ****     {
 703              		.loc 1 229 46 is_stmt 0 discriminator 2 view .LVU225
 704 0004 0133     		adds	r3, r3, #1
 705              	.LVL63:
 229:System/shell/shell.c ****     {
 706              		.loc 1 229 46 discriminator 2 view .LVU226
 707 0006 1BB2     		sxth	r3, r3
 708              	.LVL64:
 709              	.L63:
 229:System/shell/shell.c ****     {
 710              		.loc 1 229 23 is_stmt 1 discriminator 1 view .LVU227
 229:System/shell/shell.c ****     {
 711              		.loc 1 229 5 is_stmt 0 discriminator 1 view .LVU228
 712 0008 042B     		cmp	r3, #4
 713 000a 0ADC     		bgt	.L67
 231:System/shell/shell.c ****         {
 714              		.loc 1 231 9 is_stmt 1 view .LVU229
 231:System/shell/shell.c ****         {
 715              		.loc 1 231 22 is_stmt 0 view .LVU230
 716 000c 064A     		ldr	r2, .L68
 717 000e 52F82300 		ldr	r0, [r2, r3, lsl #2]
 231:System/shell/shell.c ****         {
 718              		.loc 1 231 12 view .LVU231
 719 0012 0028     		cmp	r0, #0
 720 0014 F6D0     		beq	.L64
 231:System/shell/shell.c ****         {
 721              		.loc 1 231 26 discriminator 1 view .LVU232
 722 0016 90F86020 		ldrb	r2, [r0, #96]	@ zero_extendqisi2
 723 001a 12F0020F 		tst	r2, #2
 724 001e F1D0     		beq	.L64
 725 0020 00E0     		b	.L62
 726              	.L67:
 727              	.LBE7:
 236:System/shell/shell.c **** }
 728              		.loc 1 236 12 view .LVU233
 729 0022 0020     		movs	r0, #0
 730              	.L62:
 237:System/shell/shell.c **** 
ARM GAS  C:\Users\8bit\AppData\Local\Temp\ccdhdvRO.s 			page 37


 731              		.loc 1 237 1 view .LVU234
 732 0024 7047     		bx	lr
 733              	.L69:
 734 0026 00BF     		.align	2
 735              	.L68:
 736 0028 00000000 		.word	.LANCHOR0
 737              		.cfi_endproc
 738              	.LFE5:
 740              		.section	.text.shellWriteByte,"ax",%progbits
 741              		.align	1
 742              		.global	shellWriteByte
 743              		.syntax unified
 744              		.thumb
 745              		.thumb_func
 747              	shellWriteByte:
 748              	.LVL65:
 749              	.LFB6:
 246:System/shell/shell.c ****     shell->write(&data, sizeof(data));
 750              		.loc 1 246 1 is_stmt 1 view -0
 751              		.cfi_startproc
 752              		@ args = 0, pretend = 0, frame = 8
 753              		@ frame_needed = 0, uses_anonymous_args = 0
 246:System/shell/shell.c ****     shell->write(&data, sizeof(data));
 754              		.loc 1 246 1 is_stmt 0 view .LVU236
 755 0000 00B5     		push	{lr}
 756              	.LCFI5:
 757              		.cfi_def_cfa_offset 4
 758              		.cfi_offset 14, -4
 759 0002 83B0     		sub	sp, sp, #12
 760              	.LCFI6:
 761              		.cfi_def_cfa_offset 16
 762 0004 8DF80710 		strb	r1, [sp, #7]
 247:System/shell/shell.c **** }
 763              		.loc 1 247 5 is_stmt 1 view .LVU237
 247:System/shell/shell.c **** }
 764              		.loc 1 247 10 is_stmt 0 view .LVU238
 765 0008 836E     		ldr	r3, [r0, #104]
 247:System/shell/shell.c **** }
 766              		.loc 1 247 5 view .LVU239
 767 000a 0121     		movs	r1, #1
 768              	.LVL66:
 247:System/shell/shell.c **** }
 769              		.loc 1 247 5 view .LVU240
 770 000c 0DF10700 		add	r0, sp, #7
 771              	.LVL67:
 247:System/shell/shell.c **** }
 772              		.loc 1 247 5 view .LVU241
 773 0010 9847     		blx	r3
 774              	.LVL68:
 248:System/shell/shell.c **** 
 775              		.loc 1 248 1 view .LVU242
 776 0012 03B0     		add	sp, sp, #12
 777              	.LCFI7:
 778              		.cfi_def_cfa_offset 4
 779              		@ sp needed
 780 0014 5DF804FB 		ldr	pc, [sp], #4
 781              		.cfi_endproc
ARM GAS  C:\Users\8bit\AppData\Local\Temp\ccdhdvRO.s 			page 38


 782              	.LFE6:
 784              		.section	.text.shellRight,"ax",%progbits
 785              		.align	1
 786              		.global	shellRight
 787              		.syntax unified
 788              		.thumb
 789              		.thumb_func
 791              	shellRight:
 792              	.LVL69:
 793              	.LFB46:
1231:System/shell/shell.c **** 
1232:System/shell/shell.c **** /**
1233:System/shell/shell.c ****  * @brief shell历史记录查找
1234:System/shell/shell.c ****  *
1235:System/shell/shell.c ****  * @param shell shell对象
1236:System/shell/shell.c ****  * @param dir 方向 {@code <0}往上查找 {@code >0}往下查找
1237:System/shell/shell.c ****  */
1238:System/shell/shell.c **** static void shellHistory(Shell *shell, signed char dir)
1239:System/shell/shell.c **** {
1240:System/shell/shell.c ****     if (dir > 0)
1241:System/shell/shell.c ****     {
1242:System/shell/shell.c ****         if (shell->history.offset-- <=
1243:System/shell/shell.c ****             -((shell->history.number > shell->history.record) ? shell->history.number : shell->hist
1244:System/shell/shell.c ****         {
1245:System/shell/shell.c ****             shell->history.offset = -((shell->history.number > shell->history.record)
1246:System/shell/shell.c ****                                           ? shell->history.number
1247:System/shell/shell.c ****                                           : shell->history.record);
1248:System/shell/shell.c ****         }
1249:System/shell/shell.c ****     }
1250:System/shell/shell.c ****     else if (dir < 0)
1251:System/shell/shell.c ****     {
1252:System/shell/shell.c ****         if (++shell->history.offset > 0)
1253:System/shell/shell.c ****         {
1254:System/shell/shell.c ****             shell->history.offset = 0;
1255:System/shell/shell.c ****             return;
1256:System/shell/shell.c ****         }
1257:System/shell/shell.c ****     }
1258:System/shell/shell.c ****     else
1259:System/shell/shell.c ****     {
1260:System/shell/shell.c ****         return;
1261:System/shell/shell.c ****     }
1262:System/shell/shell.c ****     shellClearCommandLine(shell);
1263:System/shell/shell.c ****     if (shell->history.offset == 0)
1264:System/shell/shell.c ****     {
1265:System/shell/shell.c ****         shell->parser.cursor = shell->parser.length = 0;
1266:System/shell/shell.c ****     }
1267:System/shell/shell.c ****     else
1268:System/shell/shell.c ****     {
1269:System/shell/shell.c ****         if ((shell->parser.length = shellStringCopy(shell->parser.buffer,
1270:System/shell/shell.c ****                                                     shell->history.item[(shell->history.record + SH
1271:System/shell/shell.c ****         {
1272:System/shell/shell.c ****             return;
1273:System/shell/shell.c ****         }
1274:System/shell/shell.c ****         shell->parser.cursor = shell->parser.length;
1275:System/shell/shell.c ****         shellWriteString(shell, shell->parser.buffer);
1276:System/shell/shell.c ****     }
1277:System/shell/shell.c **** }
ARM GAS  C:\Users\8bit\AppData\Local\Temp\ccdhdvRO.s 			page 39


1278:System/shell/shell.c **** 
1279:System/shell/shell.c **** /**
1280:System/shell/shell.c ****  * @brief shell 常规输入
1281:System/shell/shell.c ****  *
1282:System/shell/shell.c ****  * @param shell shell 对象
1283:System/shell/shell.c ****  * @param data 输入字符
1284:System/shell/shell.c ****  */
1285:System/shell/shell.c **** void shellNormalInput(Shell *shell, char data)
1286:System/shell/shell.c **** {
1287:System/shell/shell.c ****     shell->status.tabFlag = 0;
1288:System/shell/shell.c ****     shellInsertByte(shell, data);
1289:System/shell/shell.c **** }
1290:System/shell/shell.c **** 
1291:System/shell/shell.c **** /**
1292:System/shell/shell.c ****  * @brief shell运行命令
1293:System/shell/shell.c ****  *
1294:System/shell/shell.c ****  * @param shell shell对象
1295:System/shell/shell.c ****  */
1296:System/shell/shell.c **** void shellExec(Shell *shell)
1297:System/shell/shell.c **** {
1298:System/shell/shell.c **** 
1299:System/shell/shell.c ****     if (shell->parser.length == 0)
1300:System/shell/shell.c ****     {
1301:System/shell/shell.c ****         return;
1302:System/shell/shell.c ****     }
1303:System/shell/shell.c **** 
1304:System/shell/shell.c ****     shell->parser.buffer[shell->parser.length] = 0;
1305:System/shell/shell.c **** 
1306:System/shell/shell.c ****     if (shell->status.isChecked)
1307:System/shell/shell.c ****     {
1308:System/shell/shell.c ****         shellHistoryAdd(shell);
1309:System/shell/shell.c ****         shellParserParam(shell);
1310:System/shell/shell.c ****         shell->parser.length = shell->parser.cursor = 0;
1311:System/shell/shell.c ****         if (shell->parser.paramCount == 0)
1312:System/shell/shell.c ****         {
1313:System/shell/shell.c ****             return;
1314:System/shell/shell.c ****         }
1315:System/shell/shell.c ****         shellWriteString(shell, "\r\n");
1316:System/shell/shell.c **** 
1317:System/shell/shell.c ****         ShellCommand *command = shellSeekCommand(shell,
1318:System/shell/shell.c ****                                                  shell->parser.param[0],
1319:System/shell/shell.c ****                                                  shell->commandList.base,
1320:System/shell/shell.c ****                                                  0);
1321:System/shell/shell.c ****         if (command != NULL)
1322:System/shell/shell.c ****         {
1323:System/shell/shell.c ****             shellRunCommand(shell, command);
1324:System/shell/shell.c ****         }
1325:System/shell/shell.c ****         else
1326:System/shell/shell.c ****         {
1327:System/shell/shell.c ****             shellWriteString(shell, shellText[SHELL_TEXT_CMD_NOT_FOUND]);
1328:System/shell/shell.c ****         }
1329:System/shell/shell.c ****     }
1330:System/shell/shell.c ****     else
1331:System/shell/shell.c ****     {
1332:System/shell/shell.c ****         shellCheckPassword(shell);
1333:System/shell/shell.c ****     }
1334:System/shell/shell.c **** }
ARM GAS  C:\Users\8bit\AppData\Local\Temp\ccdhdvRO.s 			page 40


1335:System/shell/shell.c **** 
1336:System/shell/shell.c **** /**
1337:System/shell/shell.c ****  * @brief shell上方向键输入
1338:System/shell/shell.c ****  *
1339:System/shell/shell.c ****  * @param shell shell对象
1340:System/shell/shell.c ****  */
1341:System/shell/shell.c **** void shellUp(Shell *shell)
1342:System/shell/shell.c **** {
1343:System/shell/shell.c ****     shellHistory(shell, 1);
1344:System/shell/shell.c **** }
1345:System/shell/shell.c **** SHELL_EXPORT_KEY(SHELL_CMD_PERMISSION(0), 0x1B5B4100, shellUp, up);
1346:System/shell/shell.c **** 
1347:System/shell/shell.c **** /**
1348:System/shell/shell.c ****  * @brief shell下方向键输入
1349:System/shell/shell.c ****  *
1350:System/shell/shell.c ****  * @param shell shell对象
1351:System/shell/shell.c ****  */
1352:System/shell/shell.c **** void shellDown(Shell *shell)
1353:System/shell/shell.c **** {
1354:System/shell/shell.c ****     shellHistory(shell, -1);
1355:System/shell/shell.c **** }
1356:System/shell/shell.c **** SHELL_EXPORT_KEY(SHELL_CMD_PERMISSION(0), 0x1B5B4200, shellDown, down);
1357:System/shell/shell.c **** 
1358:System/shell/shell.c **** /**
1359:System/shell/shell.c ****  * @brief shell右方向键输入
1360:System/shell/shell.c ****  *
1361:System/shell/shell.c ****  * @param shell shell对象
1362:System/shell/shell.c ****  */
1363:System/shell/shell.c **** void shellRight(Shell *shell)
1364:System/shell/shell.c **** {
 794              		.loc 1 1364 1 is_stmt 1 view -0
 795              		.cfi_startproc
 796              		@ args = 0, pretend = 0, frame = 0
 797              		@ frame_needed = 0, uses_anonymous_args = 0
 798              		.loc 1 1364 1 is_stmt 0 view .LVU244
 799 0000 08B5     		push	{r3, lr}
 800              	.LCFI8:
 801              		.cfi_def_cfa_offset 8
 802              		.cfi_offset 3, -8
 803              		.cfi_offset 14, -4
1365:System/shell/shell.c ****     if (shell->parser.cursor < shell->parser.length)
 804              		.loc 1 1365 5 is_stmt 1 view .LVU245
 805              		.loc 1 1365 22 is_stmt 0 view .LVU246
 806 0002 C389     		ldrh	r3, [r0, #14]
 807              		.loc 1 1365 45 view .LVU247
 808 0004 8289     		ldrh	r2, [r0, #12]
 809              		.loc 1 1365 8 view .LVU248
 810 0006 9342     		cmp	r3, r2
 811 0008 00D3     		bcc	.L75
 812              	.LVL70:
 813              	.L72:
1366:System/shell/shell.c ****     {
1367:System/shell/shell.c ****         shellWriteByte(shell, shell->parser.buffer[shell->parser.cursor++]);
1368:System/shell/shell.c ****     }
1369:System/shell/shell.c **** }
 814              		.loc 1 1369 1 view .LVU249
 815 000a 08BD     		pop	{r3, pc}
ARM GAS  C:\Users\8bit\AppData\Local\Temp\ccdhdvRO.s 			page 41


 816              	.LVL71:
 817              	.L75:
1367:System/shell/shell.c ****     }
 818              		.loc 1 1367 9 is_stmt 1 view .LVU250
1367:System/shell/shell.c ****     }
 819              		.loc 1 1367 44 is_stmt 0 view .LVU251
 820 000c 0269     		ldr	r2, [r0, #16]
1367:System/shell/shell.c ****     }
 821              		.loc 1 1367 72 view .LVU252
 822 000e 591C     		adds	r1, r3, #1
 823 0010 C181     		strh	r1, [r0, #14]	@ movhi
1367:System/shell/shell.c ****     }
 824              		.loc 1 1367 9 view .LVU253
 825 0012 D15C     		ldrb	r1, [r2, r3]	@ zero_extendqisi2
 826 0014 FFF7FEFF 		bl	shellWriteByte
 827              	.LVL72:
 828              		.loc 1 1369 1 view .LVU254
 829 0018 F7E7     		b	.L72
 830              		.cfi_endproc
 831              	.LFE46:
 833              		.section	.text.shellLeft,"ax",%progbits
 834              		.align	1
 835              		.global	shellLeft
 836              		.syntax unified
 837              		.thumb
 838              		.thumb_func
 840              	shellLeft:
 841              	.LVL73:
 842              	.LFB47:
1370:System/shell/shell.c **** SHELL_EXPORT_KEY(SHELL_CMD_PERMISSION(0) | SHELL_CMD_ENABLE_UNCHECKED,
1371:System/shell/shell.c ****                  0x1B5B4300, shellRight, right);
1372:System/shell/shell.c **** 
1373:System/shell/shell.c **** /**
1374:System/shell/shell.c ****  * @brief shell左方向键输入
1375:System/shell/shell.c ****  *
1376:System/shell/shell.c ****  * @param shell shell对象
1377:System/shell/shell.c ****  */
1378:System/shell/shell.c **** void shellLeft(Shell *shell)
1379:System/shell/shell.c **** {
 843              		.loc 1 1379 1 is_stmt 1 view -0
 844              		.cfi_startproc
 845              		@ args = 0, pretend = 0, frame = 0
 846              		@ frame_needed = 0, uses_anonymous_args = 0
1380:System/shell/shell.c ****     if (shell->parser.cursor > 0)
 847              		.loc 1 1380 5 view .LVU256
 848              		.loc 1 1380 22 is_stmt 0 view .LVU257
 849 0000 C389     		ldrh	r3, [r0, #14]
 850              		.loc 1 1380 8 view .LVU258
 851 0002 03B9     		cbnz	r3, .L82
 852 0004 7047     		bx	lr
 853              	.L82:
1379:System/shell/shell.c ****     if (shell->parser.cursor > 0)
 854              		.loc 1 1379 1 view .LVU259
 855 0006 10B5     		push	{r4, lr}
 856              	.LCFI9:
 857              		.cfi_def_cfa_offset 8
 858              		.cfi_offset 4, -8
ARM GAS  C:\Users\8bit\AppData\Local\Temp\ccdhdvRO.s 			page 42


 859              		.cfi_offset 14, -4
 860 0008 0446     		mov	r4, r0
1381:System/shell/shell.c ****     {
1382:System/shell/shell.c ****         shellWriteByte(shell, '\b');
 861              		.loc 1 1382 9 is_stmt 1 view .LVU260
 862 000a 0821     		movs	r1, #8
 863 000c FFF7FEFF 		bl	shellWriteByte
 864              	.LVL74:
1383:System/shell/shell.c ****         shell->parser.cursor--;
 865              		.loc 1 1383 9 view .LVU261
 866              		.loc 1 1383 22 is_stmt 0 view .LVU262
 867 0010 E389     		ldrh	r3, [r4, #14]
 868              		.loc 1 1383 29 view .LVU263
 869 0012 013B     		subs	r3, r3, #1
 870 0014 E381     		strh	r3, [r4, #14]	@ movhi
1384:System/shell/shell.c ****     }
1385:System/shell/shell.c **** }
 871              		.loc 1 1385 1 view .LVU264
 872 0016 10BD     		pop	{r4, pc}
 873              		.loc 1 1385 1 view .LVU265
 874              		.cfi_endproc
 875              	.LFE47:
 877              		.section	.text.shellWriteString,"ax",%progbits
 878              		.align	1
 879              		.global	shellWriteString
 880              		.syntax unified
 881              		.thumb
 882              		.thumb_func
 884              	shellWriteString:
 885              	.LVL75:
 886              	.LFB7:
 259:System/shell/shell.c ****     unsigned short count = 0;
 887              		.loc 1 259 1 is_stmt 1 view -0
 888              		.cfi_startproc
 889              		@ args = 0, pretend = 0, frame = 0
 890              		@ frame_needed = 0, uses_anonymous_args = 0
 259:System/shell/shell.c ****     unsigned short count = 0;
 891              		.loc 1 259 1 is_stmt 0 view .LVU267
 892 0000 38B5     		push	{r3, r4, r5, lr}
 893              	.LCFI10:
 894              		.cfi_def_cfa_offset 16
 895              		.cfi_offset 3, -16
 896              		.cfi_offset 4, -12
 897              		.cfi_offset 5, -8
 898              		.cfi_offset 14, -4
 260:System/shell/shell.c ****     SHELL_ASSERT(shell->write, return 0);
 899              		.loc 1 260 5 is_stmt 1 view .LVU268
 900              	.LVL76:
 261:System/shell/shell.c **** 
 901              		.loc 1 261 5 view .LVU269
 902 0002 856E     		ldr	r5, [r0, #104]
 903 0004 35B1     		cbz	r5, .L84
 904 0006 0C46     		mov	r4, r1
 261:System/shell/shell.c **** 
 905              		.loc 1 261 41 discriminator 2 view .LVU270
 263:System/shell/shell.c ****     return count;
 906              		.loc 1 263 5 discriminator 2 view .LVU271
ARM GAS  C:\Users\8bit\AppData\Local\Temp\ccdhdvRO.s 			page 43


 263:System/shell/shell.c ****     return count;
 907              		.loc 1 263 26 is_stmt 0 discriminator 2 view .LVU272
 908 0008 0846     		mov	r0, r1
 909              	.LVL77:
 263:System/shell/shell.c ****     return count;
 910              		.loc 1 263 26 discriminator 2 view .LVU273
 911 000a FFF7FEFF 		bl	strlen
 912              	.LVL78:
 263:System/shell/shell.c ****     return count;
 913              		.loc 1 263 5 discriminator 2 view .LVU274
 914 000e 81B2     		uxth	r1, r0
 915 0010 2046     		mov	r0, r4
 916 0012 A847     		blx	r5
 917              	.LVL79:
 264:System/shell/shell.c **** }
 918              		.loc 1 264 5 is_stmt 1 discriminator 2 view .LVU275
 919              	.L84:
 265:System/shell/shell.c **** 
 920              		.loc 1 265 1 is_stmt 0 view .LVU276
 921 0014 0020     		movs	r0, #0
 922 0016 38BD     		pop	{r3, r4, r5, pc}
 923              		.cfi_endproc
 924              	.LFE7:
 926              		.section	.rodata.shellSetUser.str1.4,"aMS",%progbits,1
 927              		.align	2
 928              	.LC0:
 929 0000 1B5B324A 		.ascii	"\033[2J\033[1H\000"
 929      1B5B3148 
 929      00
 930 0009 000000   		.align	2
 931              	.LC1:
 932 000c 0D0A0D0A 		.ascii	"\015\012\015\012/************  BitRtos  ***********"
 932      2F2A2A2A 
 932      2A2A2A2A 
 932      2A2A2A2A 
 932      2A202042 
 933 0033 2A5C720A 		.ascii	"*\\r\012\015\012Team Mate:        8_B!T0\015\012   "
 933      0D0A5465 
 933      616D204D 
 933      6174653A 
 933      20202020 
 934 0056 20202020 		.ascii	"               WHY\015\012\015\012Build:           "
 934      20202020 
 934      20202020 
 934      20202057 
 934      48590D0A 
 935 007d 204F6374 		.ascii	" Oct 10 2024 20:32:09\015\012Shell   Version:  3.0."
 935      20313020 
 935      32303234 
 935      2032303A 
 935      33323A30 
 936 00aa 360D0A00 		.ascii	"6\015\012\000"
 937              		.section	.text.shellSetUser,"ax",%progbits
 938              		.align	1
 939              		.syntax unified
 940              		.thumb
 941              		.thumb_func
ARM GAS  C:\Users\8bit\AppData\Local\Temp\ccdhdvRO.s 			page 44


 943              	shellSetUser:
 944              	.LVL80:
 945              	.LFB38:
1165:System/shell/shell.c ****     shell->info.user = user;
 946              		.loc 1 1165 1 is_stmt 1 view -0
 947              		.cfi_startproc
 948              		@ args = 0, pretend = 0, frame = 0
 949              		@ frame_needed = 0, uses_anonymous_args = 0
1165:System/shell/shell.c ****     shell->info.user = user;
 950              		.loc 1 1165 1 is_stmt 0 view .LVU278
 951 0000 10B5     		push	{r4, lr}
 952              	.LCFI11:
 953              		.cfi_def_cfa_offset 8
 954              		.cfi_offset 4, -8
 955              		.cfi_offset 14, -4
 956 0002 0446     		mov	r4, r0
1166:System/shell/shell.c ****     shell->status.isChecked =
 957              		.loc 1 1166 5 is_stmt 1 view .LVU279
1166:System/shell/shell.c ****     shell->status.isChecked =
 958              		.loc 1 1166 22 is_stmt 0 view .LVU280
 959 0004 0160     		str	r1, [r0]
1167:System/shell/shell.c ****         ((user->data.user.password && strlen(user->data.user.password) != 0) && (shell->parser.para
 960              		.loc 1 1167 5 is_stmt 1 view .LVU281
1168:System/shell/shell.c ****             ? 0
 961              		.loc 1 1168 26 is_stmt 0 view .LVU282
 962 0006 8868     		ldr	r0, [r1, #8]
 963              	.LVL81:
1170:System/shell/shell.c **** 
 964              		.loc 1 1170 13 view .LVU283
 965 0008 50B1     		cbz	r0, .L89
1168:System/shell/shell.c ****             ? 0
 966              		.loc 1 1168 72 view .LVU284
 967 000a 0378     		ldrb	r3, [r0]	@ zero_extendqisi2
1168:System/shell/shell.c ****             ? 0
 968              		.loc 1 1168 36 view .LVU285
 969 000c 53B1     		cbz	r3, .L90
1168:System/shell/shell.c ****             ? 0
 970              		.loc 1 1168 95 discriminator 1 view .LVU286
 971 000e E38E     		ldrh	r3, [r4, #54]
1170:System/shell/shell.c **** 
 972              		.loc 1 1170 13 discriminator 1 view .LVU287
 973 0010 012B     		cmp	r3, #1
 974 0012 18D9     		bls	.L91
1168:System/shell/shell.c ****             ? 0
 975              		.loc 1 1168 114 view .LVU288
 976 0014 A169     		ldr	r1, [r4, #24]
 977              	.LVL82:
1168:System/shell/shell.c ****             ? 0
 978              		.loc 1 1168 114 view .LVU289
 979 0016 FFF7FEFF 		bl	strcmp
 980              	.LVL83:
1168:System/shell/shell.c ****             ? 0
 981              		.loc 1 1168 111 view .LVU290
 982 001a B0B1     		cbz	r0, .L92
1170:System/shell/shell.c **** 
 983              		.loc 1 1170 13 view .LVU291
 984 001c 0022     		movs	r2, #0
ARM GAS  C:\Users\8bit\AppData\Local\Temp\ccdhdvRO.s 			page 45


 985 001e 02E0     		b	.L87
 986              	.LVL84:
 987              	.L89:
1170:System/shell/shell.c **** 
 988              		.loc 1 1170 13 view .LVU292
 989 0020 0122     		movs	r2, #1
 990 0022 00E0     		b	.L87
 991              	.L90:
 992 0024 0122     		movs	r2, #1
 993              	.LVL85:
 994              	.L87:
1167:System/shell/shell.c ****         ((user->data.user.password && strlen(user->data.user.password) != 0) && (shell->parser.para
 995              		.loc 1 1167 29 discriminator 4 view .LVU293
 996 0026 94F86030 		ldrb	r3, [r4, #96]	@ zero_extendqisi2
 997 002a 62F30003 		bfi	r3, r2, #0, #1
 998 002e 84F86030 		strb	r3, [r4, #96]
1173:System/shell/shell.c **** #endif
 999              		.loc 1 1173 5 is_stmt 1 discriminator 4 view .LVU294
 1000 0032 0949     		ldr	r1, .L95
 1001 0034 2046     		mov	r0, r4
 1002 0036 FFF7FEFF 		bl	shellWriteString
 1003              	.LVL86:
1176:System/shell/shell.c ****     {
 1004              		.loc 1 1176 5 discriminator 4 view .LVU295
1176:System/shell/shell.c ****     {
 1005              		.loc 1 1176 9 is_stmt 0 discriminator 4 view .LVU296
 1006 003a 94F86030 		ldrb	r3, [r4, #96]	@ zero_extendqisi2
1176:System/shell/shell.c ****     {
 1007              		.loc 1 1176 8 discriminator 4 view .LVU297
 1008 003e 13F0010F 		tst	r3, #1
 1009 0042 04D1     		bne	.L94
 1010              	.L86:
1181:System/shell/shell.c **** 
 1011              		.loc 1 1181 1 view .LVU298
 1012 0044 10BD     		pop	{r4, pc}
 1013              	.LVL87:
 1014              	.L91:
1170:System/shell/shell.c **** 
 1015              		.loc 1 1170 13 view .LVU299
 1016 0046 0022     		movs	r2, #0
 1017 0048 EDE7     		b	.L87
 1018              	.LVL88:
 1019              	.L92:
1170:System/shell/shell.c **** 
 1020              		.loc 1 1170 13 view .LVU300
 1021 004a 0122     		movs	r2, #1
 1022 004c EBE7     		b	.L87
 1023              	.L94:
1178:System/shell/shell.c ****     }
 1024              		.loc 1 1178 9 is_stmt 1 view .LVU301
 1025 004e 0349     		ldr	r1, .L95+4
 1026 0050 2046     		mov	r0, r4
 1027 0052 FFF7FEFF 		bl	shellWriteString
 1028              	.LVL89:
1181:System/shell/shell.c **** 
 1029              		.loc 1 1181 1 is_stmt 0 view .LVU302
 1030 0056 F5E7     		b	.L86
ARM GAS  C:\Users\8bit\AppData\Local\Temp\ccdhdvRO.s 			page 46


 1031              	.L96:
 1032              		.align	2
 1033              	.L95:
 1034 0058 00000000 		.word	.LC0
 1035 005c 0C000000 		.word	.LC1
 1036              		.cfi_endproc
 1037              	.LFE38:
 1039              		.section	.rodata.shellWriteCommandLine.str1.4,"aMS",%progbits,1
 1040              		.align	2
 1041              	.LC2:
 1042 0000 2F00     		.ascii	"/\000"
 1043 0002 0000     		.align	2
 1044              	.LC3:
 1045 0004 0D0A00   		.ascii	"\015\012\000"
 1046 0007 00       		.align	2
 1047              	.LC4:
 1048 0008 3A00     		.ascii	":\000"
 1049 000a 0000     		.align	2
 1050              	.LC5:
 1051 000c 242000   		.ascii	"$ \000"
 1052 000f 00       		.align	2
 1053              	.LC6:
 1054 0010 0D0A506C 		.ascii	"\015\012Please input password:\000"
 1054      65617365 
 1054      20696E70 
 1054      75742070 
 1054      61737377 
 1055              		.section	.text.shellWriteCommandLine,"ax",%progbits
 1056              		.align	1
 1057              		.syntax unified
 1058              		.thumb
 1059              		.thumb_func
 1061              	shellWriteCommandLine:
 1062              	.LVL90:
 1063              	.LFB9:
 302:System/shell/shell.c ****     if (shell->status.isChecked)
 1064              		.loc 1 302 1 is_stmt 1 view -0
 1065              		.cfi_startproc
 1066              		@ args = 0, pretend = 0, frame = 0
 1067              		@ frame_needed = 0, uses_anonymous_args = 0
 302:System/shell/shell.c ****     if (shell->status.isChecked)
 1068              		.loc 1 302 1 is_stmt 0 view .LVU304
 1069 0000 10B5     		push	{r4, lr}
 1070              	.LCFI12:
 1071              		.cfi_def_cfa_offset 8
 1072              		.cfi_offset 4, -8
 1073              		.cfi_offset 14, -4
 1074 0002 0446     		mov	r4, r0
 303:System/shell/shell.c ****     {
 1075              		.loc 1 303 5 is_stmt 1 view .LVU305
 303:System/shell/shell.c ****     {
 1076              		.loc 1 303 9 is_stmt 0 view .LVU306
 1077 0004 90F86030 		ldrb	r3, [r0, #96]	@ zero_extendqisi2
 303:System/shell/shell.c ****     {
 1078              		.loc 1 303 8 view .LVU307
 1079 0008 13F0010F 		tst	r3, #1
 1080 000c 19D0     		beq	.L98
ARM GAS  C:\Users\8bit\AppData\Local\Temp\ccdhdvRO.s 			page 47


 305:System/shell/shell.c ****         {
 1081              		.loc 1 305 9 is_stmt 1 view .LVU308
 305:System/shell/shell.c ****         {
 1082              		.loc 1 305 12 is_stmt 0 view .LVU309
 1083 000e 91B9     		cbnz	r1, .L103
 1084              	.LVL91:
 1085              	.L99:
 309:System/shell/shell.c ****         shellWriteString(shell, ":");
 1086              		.loc 1 309 9 is_stmt 1 view .LVU310
 309:System/shell/shell.c ****         shellWriteString(shell, ":");
 1087              		.loc 1 309 44 is_stmt 0 view .LVU311
 1088 0010 2368     		ldr	r3, [r4]
 309:System/shell/shell.c ****         shellWriteString(shell, ":");
 1089              		.loc 1 309 9 view .LVU312
 1090 0012 5968     		ldr	r1, [r3, #4]
 1091 0014 2046     		mov	r0, r4
 1092 0016 FFF7FEFF 		bl	shellWriteString
 1093              	.LVL92:
 310:System/shell/shell.c ****         shellWriteString(shell, shell->info.path ? shell->info.path : "/");
 1094              		.loc 1 310 9 is_stmt 1 view .LVU313
 1095 001a 0C49     		ldr	r1, .L105
 1096 001c 2046     		mov	r0, r4
 1097 001e FFF7FEFF 		bl	shellWriteString
 1098              	.LVL93:
 311:System/shell/shell.c ****         shellWriteString(shell, "$ ");
 1099              		.loc 1 311 9 view .LVU314
 311:System/shell/shell.c ****         shellWriteString(shell, "$ ");
 1100              		.loc 1 311 44 is_stmt 0 view .LVU315
 1101 0022 A168     		ldr	r1, [r4, #8]
 311:System/shell/shell.c ****         shellWriteString(shell, "$ ");
 1102              		.loc 1 311 9 view .LVU316
 1103 0024 59B1     		cbz	r1, .L104
 1104              	.L100:
 311:System/shell/shell.c ****         shellWriteString(shell, "$ ");
 1105              		.loc 1 311 9 discriminator 4 view .LVU317
 1106 0026 2046     		mov	r0, r4
 1107 0028 FFF7FEFF 		bl	shellWriteString
 1108              	.LVL94:
 312:System/shell/shell.c ****     }
 1109              		.loc 1 312 9 is_stmt 1 discriminator 4 view .LVU318
 1110 002c 0849     		ldr	r1, .L105+4
 1111 002e 2046     		mov	r0, r4
 1112 0030 FFF7FEFF 		bl	shellWriteString
 1113              	.LVL95:
 1114              	.L97:
 318:System/shell/shell.c **** 
 1115              		.loc 1 318 1 is_stmt 0 view .LVU319
 1116 0034 10BD     		pop	{r4, pc}
 1117              	.LVL96:
 1118              	.L103:
 307:System/shell/shell.c ****         }
 1119              		.loc 1 307 13 is_stmt 1 view .LVU320
 1120 0036 0749     		ldr	r1, .L105+8
 1121              	.LVL97:
 307:System/shell/shell.c ****         }
 1122              		.loc 1 307 13 is_stmt 0 view .LVU321
 1123 0038 FFF7FEFF 		bl	shellWriteString
ARM GAS  C:\Users\8bit\AppData\Local\Temp\ccdhdvRO.s 			page 48


 1124              	.LVL98:
 307:System/shell/shell.c ****         }
 1125              		.loc 1 307 13 view .LVU322
 1126 003c E8E7     		b	.L99
 1127              	.L104:
 311:System/shell/shell.c ****         shellWriteString(shell, "$ ");
 1128              		.loc 1 311 9 view .LVU323
 1129 003e 0649     		ldr	r1, .L105+12
 1130 0040 F1E7     		b	.L100
 1131              	.LVL99:
 1132              	.L98:
 316:System/shell/shell.c ****     }
 1133              		.loc 1 316 9 is_stmt 1 view .LVU324
 1134 0042 0649     		ldr	r1, .L105+16
 1135              	.LVL100:
 316:System/shell/shell.c ****     }
 1136              		.loc 1 316 9 is_stmt 0 view .LVU325
 1137 0044 FFF7FEFF 		bl	shellWriteString
 1138              	.LVL101:
 318:System/shell/shell.c **** 
 1139              		.loc 1 318 1 view .LVU326
 1140 0048 F4E7     		b	.L97
 1141              	.L106:
 1142 004a 00BF     		.align	2
 1143              	.L105:
 1144 004c 08000000 		.word	.LC4
 1145 0050 0C000000 		.word	.LC5
 1146 0054 04000000 		.word	.LC3
 1147 0058 00000000 		.word	.LC2
 1148 005c 10000000 		.word	.LC6
 1149              		.cfi_endproc
 1150              	.LFE9:
 1152              		.section	.rodata.shellCheckPassword.str1.4,"aMS",%progbits,1
 1153              		.align	2
 1154              	.LC7:
 1155 0000 0D0A7061 		.ascii	"\015\012password error\015\012\000"
 1155      7373776F 
 1155      72642065 
 1155      72726F72 
 1155      0D0A00
 1156              		.section	.text.shellCheckPassword,"ax",%progbits
 1157              		.align	1
 1158              		.syntax unified
 1159              		.thumb
 1160              		.thumb_func
 1162              	shellCheckPassword:
 1163              	.LVL102:
 1164              	.LFB37:
1142:System/shell/shell.c ****     if (strcmp(shell->parser.buffer, shell->info.user->data.user.password) == 0)
 1165              		.loc 1 1142 1 is_stmt 1 view -0
 1166              		.cfi_startproc
 1167              		@ args = 0, pretend = 0, frame = 0
 1168              		@ frame_needed = 0, uses_anonymous_args = 0
1142:System/shell/shell.c ****     if (strcmp(shell->parser.buffer, shell->info.user->data.user.password) == 0)
 1169              		.loc 1 1142 1 is_stmt 0 view .LVU328
 1170 0000 10B5     		push	{r4, lr}
 1171              	.LCFI13:
ARM GAS  C:\Users\8bit\AppData\Local\Temp\ccdhdvRO.s 			page 49


 1172              		.cfi_def_cfa_offset 8
 1173              		.cfi_offset 4, -8
 1174              		.cfi_offset 14, -4
 1175 0002 0446     		mov	r4, r0
1143:System/shell/shell.c ****     {
 1176              		.loc 1 1143 5 is_stmt 1 view .LVU329
1143:System/shell/shell.c ****     {
 1177              		.loc 1 1143 49 is_stmt 0 view .LVU330
 1178 0004 0368     		ldr	r3, [r0]
1143:System/shell/shell.c ****     {
 1179              		.loc 1 1143 9 view .LVU331
 1180 0006 9968     		ldr	r1, [r3, #8]
 1181 0008 0069     		ldr	r0, [r0, #16]
 1182              	.LVL103:
1143:System/shell/shell.c ****     {
 1183              		.loc 1 1143 9 view .LVU332
 1184 000a FFF7FEFF 		bl	strcmp
 1185              	.LVL104:
1143:System/shell/shell.c ****     {
 1186              		.loc 1 1143 8 view .LVU333
 1187 000e 68B9     		cbnz	r0, .L108
1145:System/shell/shell.c **** #if SHELL_SHOW_INFO == 1
 1188              		.loc 1 1145 9 is_stmt 1 view .LVU334
1145:System/shell/shell.c **** #if SHELL_SHOW_INFO == 1
 1189              		.loc 1 1145 33 is_stmt 0 view .LVU335
 1190 0010 94F86030 		ldrb	r3, [r4, #96]	@ zero_extendqisi2
 1191 0014 43F00103 		orr	r3, r3, #1
 1192 0018 84F86030 		strb	r3, [r4, #96]
1147:System/shell/shell.c **** #endif
 1193              		.loc 1 1147 9 is_stmt 1 view .LVU336
 1194 001c 0649     		ldr	r1, .L111
 1195 001e 2046     		mov	r0, r4
 1196 0020 FFF7FEFF 		bl	shellWriteString
 1197              	.LVL105:
 1198              	.L109:
1154:System/shell/shell.c ****     shell->parser.cursor = 0;
 1199              		.loc 1 1154 5 view .LVU337
1154:System/shell/shell.c ****     shell->parser.cursor = 0;
 1200              		.loc 1 1154 26 is_stmt 0 view .LVU338
 1201 0024 0023     		movs	r3, #0
 1202 0026 A381     		strh	r3, [r4, #12]	@ movhi
1155:System/shell/shell.c **** }
 1203              		.loc 1 1155 5 is_stmt 1 view .LVU339
1155:System/shell/shell.c **** }
 1204              		.loc 1 1155 26 is_stmt 0 view .LVU340
 1205 0028 E381     		strh	r3, [r4, #14]	@ movhi
1156:System/shell/shell.c **** 
 1206              		.loc 1 1156 1 view .LVU341
 1207 002a 10BD     		pop	{r4, pc}
 1208              	.LVL106:
 1209              	.L108:
1152:System/shell/shell.c ****     }
 1210              		.loc 1 1152 9 is_stmt 1 view .LVU342
 1211 002c 0349     		ldr	r1, .L111+4
 1212 002e 2046     		mov	r0, r4
 1213 0030 FFF7FEFF 		bl	shellWriteString
 1214              	.LVL107:
ARM GAS  C:\Users\8bit\AppData\Local\Temp\ccdhdvRO.s 			page 50


 1215 0034 F6E7     		b	.L109
 1216              	.L112:
 1217 0036 00BF     		.align	2
 1218              	.L111:
 1219 0038 0C000000 		.word	.LC1
 1220 003c 00000000 		.word	.LC7
 1221              		.cfi_endproc
 1222              	.LFE37:
 1224              		.section	.text.shellClear,"ax",%progbits
 1225              		.align	1
 1226              		.global	shellClear
 1227              		.syntax unified
 1228              		.thumb
 1229              		.thumb_func
 1231              	shellClear:
 1232              	.LFB59:
1386:System/shell/shell.c **** SHELL_EXPORT_KEY(SHELL_CMD_PERMISSION(0) | SHELL_CMD_ENABLE_UNCHECKED,
1387:System/shell/shell.c ****                  0x1B5B4400, shellLeft, left);
1388:System/shell/shell.c **** 
1389:System/shell/shell.c **** /**
1390:System/shell/shell.c ****  * @brief shell Tab按键处理
1391:System/shell/shell.c ****  *
1392:System/shell/shell.c ****  * @param shell shell对象
1393:System/shell/shell.c ****  */
1394:System/shell/shell.c **** void shellTab(Shell *shell)
1395:System/shell/shell.c **** {
1396:System/shell/shell.c ****     unsigned short maxMatch = shell->parser.bufferSize;
1397:System/shell/shell.c ****     unsigned short lastMatchIndex = 0;
1398:System/shell/shell.c ****     unsigned short matchNum = 0;
1399:System/shell/shell.c ****     unsigned short length;
1400:System/shell/shell.c **** 
1401:System/shell/shell.c ****     if (shell->parser.length == 0)
1402:System/shell/shell.c ****     {
1403:System/shell/shell.c ****         shellListAll(shell);
1404:System/shell/shell.c ****         shellWriteCommandLine(shell, 1);
1405:System/shell/shell.c ****     }
1406:System/shell/shell.c ****     else if (shell->parser.length > 0)
1407:System/shell/shell.c ****     {
1408:System/shell/shell.c ****         shell->parser.buffer[shell->parser.length] = 0;
1409:System/shell/shell.c ****         ShellCommand *base = (ShellCommand *)shell->commandList.base;
1410:System/shell/shell.c ****         for (short i = 0; i < shell->commandList.count; i++)
1411:System/shell/shell.c ****         {
1412:System/shell/shell.c ****             if (shellCheckPermission(shell, &base[i]) == 0 && shellStringCompare(shell->parser.buff
1413:System/shell/shell.c ****                                                                                  (char *)shellGetCo
1414:System/shell/shell.c ****             {
1415:System/shell/shell.c ****                 if (matchNum != 0)
1416:System/shell/shell.c ****                 {
1417:System/shell/shell.c ****                     if (matchNum == 1)
1418:System/shell/shell.c ****                     {
1419:System/shell/shell.c ****                         shellWriteString(shell, "\r\n");
1420:System/shell/shell.c ****                     }
1421:System/shell/shell.c ****                     shellListItem(shell, &base[lastMatchIndex]);
1422:System/shell/shell.c ****                     length =
1423:System/shell/shell.c ****                         shellStringCompare((char *)shellGetCommandName(&base[lastMatchIndex]),
1424:System/shell/shell.c ****                                            (char *)shellGetCommandName(&base[i]));
1425:System/shell/shell.c ****                     maxMatch = (maxMatch > length) ? length : maxMatch;
1426:System/shell/shell.c ****                 }
ARM GAS  C:\Users\8bit\AppData\Local\Temp\ccdhdvRO.s 			page 51


1427:System/shell/shell.c ****                 lastMatchIndex = i;
1428:System/shell/shell.c ****                 matchNum++;
1429:System/shell/shell.c ****             }
1430:System/shell/shell.c ****         }
1431:System/shell/shell.c ****         if (matchNum == 0)
1432:System/shell/shell.c ****         {
1433:System/shell/shell.c ****             return;
1434:System/shell/shell.c ****         }
1435:System/shell/shell.c ****         if (matchNum == 1)
1436:System/shell/shell.c ****         {
1437:System/shell/shell.c ****             shellClearCommandLine(shell);
1438:System/shell/shell.c ****         }
1439:System/shell/shell.c ****         if (matchNum != 0)
1440:System/shell/shell.c ****         {
1441:System/shell/shell.c ****             shell->parser.length =
1442:System/shell/shell.c ****                 shellStringCopy(shell->parser.buffer,
1443:System/shell/shell.c ****                                 (char *)shellGetCommandName(&base[lastMatchIndex]));
1444:System/shell/shell.c ****         }
1445:System/shell/shell.c ****         if (matchNum > 1)
1446:System/shell/shell.c ****         {
1447:System/shell/shell.c ****             shellListItem(shell, &base[lastMatchIndex]);
1448:System/shell/shell.c ****             shellWriteCommandLine(shell, 1);
1449:System/shell/shell.c ****             shell->parser.length = maxMatch;
1450:System/shell/shell.c ****         }
1451:System/shell/shell.c ****         shell->parser.buffer[shell->parser.length] = 0;
1452:System/shell/shell.c ****         shell->parser.cursor = shell->parser.length;
1453:System/shell/shell.c ****         shellWriteString(shell, shell->parser.buffer);
1454:System/shell/shell.c ****     }
1455:System/shell/shell.c **** 
1456:System/shell/shell.c ****     if (SHELL_GET_TICK())
1457:System/shell/shell.c ****     {
1458:System/shell/shell.c ****         if (matchNum == 1 && shell->status.tabFlag && SHELL_GET_TICK() - shell->info.activeTime < S
1459:System/shell/shell.c ****         {
1460:System/shell/shell.c ****             shellClearCommandLine(shell);
1461:System/shell/shell.c ****             for (short i = shell->parser.length; i >= 0; i--)
1462:System/shell/shell.c ****             {
1463:System/shell/shell.c ****                 shell->parser.buffer[i + 5] = shell->parser.buffer[i];
1464:System/shell/shell.c ****             }
1465:System/shell/shell.c ****             shellStringCopy(shell->parser.buffer, "help");
1466:System/shell/shell.c ****             shell->parser.buffer[4] = ' ';
1467:System/shell/shell.c ****             shell->parser.length += 5;
1468:System/shell/shell.c ****             shell->parser.cursor = shell->parser.length;
1469:System/shell/shell.c ****             shellWriteString(shell, shell->parser.buffer);
1470:System/shell/shell.c ****         }
1471:System/shell/shell.c ****         else
1472:System/shell/shell.c ****         {
1473:System/shell/shell.c ****             shell->status.tabFlag = 1;
1474:System/shell/shell.c ****         }
1475:System/shell/shell.c ****     }
1476:System/shell/shell.c **** }
1477:System/shell/shell.c **** SHELL_EXPORT_KEY(SHELL_CMD_PERMISSION(0), 0x09000000, shellTab, tab);
1478:System/shell/shell.c **** 
1479:System/shell/shell.c **** /**
1480:System/shell/shell.c ****  * @brief shell 退格
1481:System/shell/shell.c ****  *
1482:System/shell/shell.c ****  * @param shell shell对象
1483:System/shell/shell.c ****  */
ARM GAS  C:\Users\8bit\AppData\Local\Temp\ccdhdvRO.s 			page 52


1484:System/shell/shell.c **** void shellBackspace(Shell *shell)
1485:System/shell/shell.c **** {
1486:System/shell/shell.c ****     shellDeleteByte(shell, 1);
1487:System/shell/shell.c **** }
1488:System/shell/shell.c **** SHELL_EXPORT_KEY(SHELL_CMD_PERMISSION(0) | SHELL_CMD_ENABLE_UNCHECKED,
1489:System/shell/shell.c ****                  0x08000000, shellBackspace, backspace);
1490:System/shell/shell.c **** SHELL_EXPORT_KEY(SHELL_CMD_PERMISSION(0) | SHELL_CMD_ENABLE_UNCHECKED,
1491:System/shell/shell.c ****                  0x7F000000, shellBackspace, backspace);
1492:System/shell/shell.c **** 
1493:System/shell/shell.c **** /**
1494:System/shell/shell.c ****  * @brief shell 删除
1495:System/shell/shell.c ****  *
1496:System/shell/shell.c ****  * @param shell shell对象
1497:System/shell/shell.c ****  */
1498:System/shell/shell.c **** void shellDelete(Shell *shell)
1499:System/shell/shell.c **** {
1500:System/shell/shell.c ****     shellDeleteByte(shell, -1);
1501:System/shell/shell.c **** }
1502:System/shell/shell.c **** SHELL_EXPORT_KEY(SHELL_CMD_PERMISSION(0) | SHELL_CMD_ENABLE_UNCHECKED,
1503:System/shell/shell.c ****                  0x1B5B337E, shellDelete, delete);
1504:System/shell/shell.c **** 
1505:System/shell/shell.c **** /**
1506:System/shell/shell.c ****  * @brief shell 回车处理
1507:System/shell/shell.c ****  *
1508:System/shell/shell.c ****  * @param shell shell对象
1509:System/shell/shell.c ****  */
1510:System/shell/shell.c **** void shellEnter(Shell *shell)
1511:System/shell/shell.c **** {
1512:System/shell/shell.c ****     shellExec(shell);
1513:System/shell/shell.c ****     shellWriteCommandLine(shell, 1);
1514:System/shell/shell.c **** }
1515:System/shell/shell.c **** #if SHELL_ENTER_LF == 1
1516:System/shell/shell.c **** SHELL_EXPORT_KEY(SHELL_CMD_PERMISSION(0) | SHELL_CMD_ENABLE_UNCHECKED,
1517:System/shell/shell.c ****                  0x0A000000, shellEnter, enter);
1518:System/shell/shell.c **** #endif
1519:System/shell/shell.c **** #if SHELL_ENTER_CR == 1
1520:System/shell/shell.c **** SHELL_EXPORT_KEY(SHELL_CMD_PERMISSION(0) | SHELL_CMD_ENABLE_UNCHECKED,
1521:System/shell/shell.c ****                  0x0D000000, shellEnter, enter);
1522:System/shell/shell.c **** #endif
1523:System/shell/shell.c **** #if SHELL_ENTER_CRLF == 1
1524:System/shell/shell.c **** SHELL_EXPORT_KEY(SHELL_CMD_PERMISSION(0) | SHELL_CMD_ENABLE_UNCHECKED,
1525:System/shell/shell.c ****                  0x0D0A0000, shellEnter, enter);
1526:System/shell/shell.c **** #endif
1527:System/shell/shell.c **** 
1528:System/shell/shell.c **** /**
1529:System/shell/shell.c ****  * @brief shell help
1530:System/shell/shell.c ****  *
1531:System/shell/shell.c ****  * @param argc 参数个数
1532:System/shell/shell.c ****  * @param argv 参数
1533:System/shell/shell.c ****  */
1534:System/shell/shell.c **** void shellHelp(int argc, char *argv[])
1535:System/shell/shell.c **** {
1536:System/shell/shell.c ****     Shell *shell = shellGetCurrent();
1537:System/shell/shell.c ****     SHELL_ASSERT(shell, return );
1538:System/shell/shell.c ****     if (argc == 1)
1539:System/shell/shell.c ****     {
1540:System/shell/shell.c ****         shellListAll(shell);
ARM GAS  C:\Users\8bit\AppData\Local\Temp\ccdhdvRO.s 			page 53


1541:System/shell/shell.c ****     }
1542:System/shell/shell.c ****     else if (argc > 1)
1543:System/shell/shell.c ****     {
1544:System/shell/shell.c ****         ShellCommand *command = shellSeekCommand(shell,
1545:System/shell/shell.c ****                                                  argv[1],
1546:System/shell/shell.c ****                                                  shell->commandList.base,
1547:System/shell/shell.c ****                                                  0);
1548:System/shell/shell.c ****         if (command)
1549:System/shell/shell.c ****         {
1550:System/shell/shell.c ****             shellWriteString(shell, shellText[SHELL_TEXT_HELP_HEADER]);
1551:System/shell/shell.c ****             shellWriteString(shell, shellGetCommandName(command));
1552:System/shell/shell.c ****             shellWriteString(shell, "\r\n");
1553:System/shell/shell.c ****             shellWriteString(shell, shellGetCommandDesc(command));
1554:System/shell/shell.c ****             shellWriteString(shell, "\r\n");
1555:System/shell/shell.c ****         }
1556:System/shell/shell.c ****         else
1557:System/shell/shell.c ****         {
1558:System/shell/shell.c ****             shellWriteString(shell, shellText[SHELL_TEXT_CMD_NOT_FOUND]);
1559:System/shell/shell.c ****         }
1560:System/shell/shell.c ****     }
1561:System/shell/shell.c **** }
1562:System/shell/shell.c **** SHELL_EXPORT_CMD(
1563:System/shell/shell.c ****     SHELL_CMD_PERMISSION(0) | SHELL_CMD_TYPE(SHELL_TYPE_CMD_MAIN) | SHELL_CMD_DISABLE_RETURN,
1564:System/shell/shell.c ****     help, shellHelp, show command info\r\nhelp[cmd]);
1565:System/shell/shell.c **** 
1566:System/shell/shell.c **** /**
1567:System/shell/shell.c ****  * @brief shell 输入处理
1568:System/shell/shell.c ****  *
1569:System/shell/shell.c ****  * @param shell shell对象
1570:System/shell/shell.c ****  * @param data 输入数据
1571:System/shell/shell.c ****  */
1572:System/shell/shell.c **** void shellHandler(Shell *shell, char data)
1573:System/shell/shell.c **** {
1574:System/shell/shell.c ****     SHELL_ASSERT(data, return );
1575:System/shell/shell.c **** 
1576:System/shell/shell.c **** #if SHELL_LOCK_TIMEOUT > 0
1577:System/shell/shell.c ****     if (shell->info.user->data.user.password && strlen(shell->info.user->data.user.password) != 0 &
1578:System/shell/shell.c ****     {
1579:System/shell/shell.c ****         if (SHELL_GET_TICK() - shell->info.activeTime > SHELL_LOCK_TIMEOUT)
1580:System/shell/shell.c ****         {
1581:System/shell/shell.c ****             shell->status.isChecked = 0;
1582:System/shell/shell.c ****         }
1583:System/shell/shell.c ****     }
1584:System/shell/shell.c **** #endif
1585:System/shell/shell.c **** 
1586:System/shell/shell.c ****     /* 根据记录的按键键值计算当前字节在按键键值中的偏移 */
1587:System/shell/shell.c ****     char keyByteOffset = 24;
1588:System/shell/shell.c ****     int keyFilter = 0x00000000;
1589:System/shell/shell.c ****     if ((shell->parser.keyValue & 0x0000FF00) != 0x00000000)
1590:System/shell/shell.c ****     {
1591:System/shell/shell.c ****         keyByteOffset = 0;
1592:System/shell/shell.c ****         keyFilter = 0xFFFFFF00;
1593:System/shell/shell.c ****     }
1594:System/shell/shell.c ****     else if ((shell->parser.keyValue & 0x00FF0000) != 0x00000000)
1595:System/shell/shell.c ****     {
1596:System/shell/shell.c ****         keyByteOffset = 8;
1597:System/shell/shell.c ****         keyFilter = 0xFFFF0000;
ARM GAS  C:\Users\8bit\AppData\Local\Temp\ccdhdvRO.s 			page 54


1598:System/shell/shell.c ****     }
1599:System/shell/shell.c ****     else if ((shell->parser.keyValue & 0xFF000000) != 0x00000000)
1600:System/shell/shell.c ****     {
1601:System/shell/shell.c ****         keyByteOffset = 16;
1602:System/shell/shell.c ****         keyFilter = 0xFF000000;
1603:System/shell/shell.c ****     }
1604:System/shell/shell.c **** 
1605:System/shell/shell.c ****     /* 遍历ShellCommand列表，尝试进行按键键值匹配 */
1606:System/shell/shell.c ****     ShellCommand *base = (ShellCommand *)shell->commandList.base;
1607:System/shell/shell.c ****     for (short i = 0; i < shell->commandList.count; i++)
1608:System/shell/shell.c ****     {
1609:System/shell/shell.c ****         /* 判断是否是按键定义并验证权限 */
1610:System/shell/shell.c ****         if (base[i].attr.attrs.type == SHELL_TYPE_KEY && shellCheckPermission(shell, &(base[i])) ==
1611:System/shell/shell.c ****         {
1612:System/shell/shell.c ****             /* 对输入的字节同按键键值进行匹配 */
1613:System/shell/shell.c ****             if ((base[i].data.key.value & keyFilter) == shell->parser.keyValue && (base[i].data.key
1614:System/shell/shell.c ****             {
1615:System/shell/shell.c ****                 shell->parser.keyValue |= data << keyByteOffset;
1616:System/shell/shell.c ****                 data = 0x00;
1617:System/shell/shell.c ****                 if (keyByteOffset == 0 || (base[i].data.key.value & (0xFF << (keyByteOffset - 8))) 
1618:System/shell/shell.c ****                 {
1619:System/shell/shell.c ****                     if (base[i].data.key.function)
1620:System/shell/shell.c ****                     {
1621:System/shell/shell.c ****                         base[i].data.key.function(shell);
1622:System/shell/shell.c ****                     }
1623:System/shell/shell.c ****                     shell->parser.keyValue = 0x00000000;
1624:System/shell/shell.c ****                     break;
1625:System/shell/shell.c ****                 }
1626:System/shell/shell.c ****             }
1627:System/shell/shell.c ****         }
1628:System/shell/shell.c ****     }
1629:System/shell/shell.c **** 
1630:System/shell/shell.c ****     if (data != 0x00)
1631:System/shell/shell.c ****     {
1632:System/shell/shell.c ****         shell->parser.keyValue = 0x00000000;
1633:System/shell/shell.c ****         shellNormalInput(shell, data);
1634:System/shell/shell.c ****     }
1635:System/shell/shell.c **** 
1636:System/shell/shell.c ****     if (SHELL_GET_TICK())
1637:System/shell/shell.c ****     {
1638:System/shell/shell.c ****         shell->info.activeTime = SHELL_GET_TICK();
1639:System/shell/shell.c ****     }
1640:System/shell/shell.c **** }
1641:System/shell/shell.c **** 
1642:System/shell/shell.c **** #if SHELL_SUPPORT_END_LINE == 1
1643:System/shell/shell.c **** void shellWriteEndLine(Shell *shell, char *buffer, int len)
1644:System/shell/shell.c **** {
1645:System/shell/shell.c ****     if (!shell->status.isActive)
1646:System/shell/shell.c ****     {
1647:System/shell/shell.c ****         shellWriteString(shell, shellText[SHELL_TEXT_CLEAR_LINE]);
1648:System/shell/shell.c ****     }
1649:System/shell/shell.c ****     while (len--)
1650:System/shell/shell.c ****     {
1651:System/shell/shell.c ****         shell->write(*buffer++);
1652:System/shell/shell.c ****     }
1653:System/shell/shell.c ****     if (!shell->status.isActive)
1654:System/shell/shell.c ****     {
ARM GAS  C:\Users\8bit\AppData\Local\Temp\ccdhdvRO.s 			page 55


1655:System/shell/shell.c ****         shellWriteCommandLine(shell, 0);
1656:System/shell/shell.c ****         if (shell->parser.length > 0)
1657:System/shell/shell.c ****         {
1658:System/shell/shell.c ****             shellWriteString(shell, shell->parser.buffer);
1659:System/shell/shell.c ****             for (short i = 0; i < shell->parser.length - shell->parser.cursor; i++)
1660:System/shell/shell.c ****             {
1661:System/shell/shell.c ****                 shell->write('\b');
1662:System/shell/shell.c ****             }
1663:System/shell/shell.c ****         }
1664:System/shell/shell.c ****     }
1665:System/shell/shell.c **** }
1666:System/shell/shell.c **** #endif /** SHELL_SUPPORT_END_LINE == 1 */
1667:System/shell/shell.c **** 
1668:System/shell/shell.c **** /**
1669:System/shell/shell.c ****  * @brief shell 任务
1670:System/shell/shell.c ****  *
1671:System/shell/shell.c ****  * @param param 参数(shell对象)
1672:System/shell/shell.c ****  *
1673:System/shell/shell.c ****  */
1674:System/shell/shell.c **** void shellTask(void *param)
1675:System/shell/shell.c **** {
1676:System/shell/shell.c ****     Shell *shell = (Shell *)param;
1677:System/shell/shell.c ****     char data;
1678:System/shell/shell.c **** #if SHELL_TASK_WHILE == 1
1679:System/shell/shell.c ****     while (1)
1680:System/shell/shell.c ****     {
1681:System/shell/shell.c **** #endif
1682:System/shell/shell.c ****         if (shell->read && shell->read(&data) == 0)
1683:System/shell/shell.c ****         {
1684:System/shell/shell.c ****             shellHandler(shell, data);
1685:System/shell/shell.c ****         }
1686:System/shell/shell.c **** #if SHELL_TASK_WHILE == 1
1687:System/shell/shell.c ****     }
1688:System/shell/shell.c **** #endif
1689:System/shell/shell.c **** }
1690:System/shell/shell.c **** 
1691:System/shell/shell.c **** /**
1692:System/shell/shell.c ****  * @brief shell 输出用户列表(shell调用)
1693:System/shell/shell.c ****  */
1694:System/shell/shell.c **** void shellUsers(void)
1695:System/shell/shell.c **** {
1696:System/shell/shell.c ****     Shell *shell = shellGetCurrent();
1697:System/shell/shell.c ****     if (shell)
1698:System/shell/shell.c ****     {
1699:System/shell/shell.c ****         shellListUser(shell);
1700:System/shell/shell.c ****     }
1701:System/shell/shell.c **** }
1702:System/shell/shell.c **** SHELL_EXPORT_CMD(
1703:System/shell/shell.c ****     SHELL_CMD_PERMISSION(0) | SHELL_CMD_TYPE(SHELL_TYPE_CMD_FUNC) | SHELL_CMD_DISABLE_RETURN,
1704:System/shell/shell.c ****     users, shellUsers, list all user);
1705:System/shell/shell.c **** 
1706:System/shell/shell.c **** /**
1707:System/shell/shell.c ****  * @brief shell 输出命令列表(shell调用)
1708:System/shell/shell.c ****  */
1709:System/shell/shell.c **** void shellCmds(void)
1710:System/shell/shell.c **** {
1711:System/shell/shell.c ****     Shell *shell = shellGetCurrent();
ARM GAS  C:\Users\8bit\AppData\Local\Temp\ccdhdvRO.s 			page 56


1712:System/shell/shell.c ****     if (shell)
1713:System/shell/shell.c ****     {
1714:System/shell/shell.c ****         shellListCommand(shell);
1715:System/shell/shell.c ****     }
1716:System/shell/shell.c **** }
1717:System/shell/shell.c **** SHELL_EXPORT_CMD(
1718:System/shell/shell.c ****     SHELL_CMD_PERMISSION(0) | SHELL_CMD_TYPE(SHELL_TYPE_CMD_FUNC) | SHELL_CMD_DISABLE_RETURN,
1719:System/shell/shell.c ****     cmds, shellCmds, list all cmd);
1720:System/shell/shell.c **** 
1721:System/shell/shell.c **** /**
1722:System/shell/shell.c ****  * @brief shell 输出变量列表(shell调用)
1723:System/shell/shell.c ****  */
1724:System/shell/shell.c **** void shellVars(void)
1725:System/shell/shell.c **** {
1726:System/shell/shell.c ****     Shell *shell = shellGetCurrent();
1727:System/shell/shell.c ****     if (shell)
1728:System/shell/shell.c ****     {
1729:System/shell/shell.c ****         shellListVar(shell);
1730:System/shell/shell.c ****     }
1731:System/shell/shell.c **** }
1732:System/shell/shell.c **** SHELL_EXPORT_CMD(
1733:System/shell/shell.c ****     SHELL_CMD_PERMISSION(0) | SHELL_CMD_TYPE(SHELL_TYPE_CMD_FUNC) | SHELL_CMD_DISABLE_RETURN,
1734:System/shell/shell.c ****     vars, shellVars, list all var);
1735:System/shell/shell.c **** 
1736:System/shell/shell.c **** /**
1737:System/shell/shell.c ****  * @brief shell 输出按键列表(shell调用)
1738:System/shell/shell.c ****  */
1739:System/shell/shell.c **** void shellKeys(void)
1740:System/shell/shell.c **** {
1741:System/shell/shell.c ****     Shell *shell = shellGetCurrent();
1742:System/shell/shell.c ****     if (shell)
1743:System/shell/shell.c ****     {
1744:System/shell/shell.c ****         shellListKey(shell);
1745:System/shell/shell.c ****     }
1746:System/shell/shell.c **** }
1747:System/shell/shell.c **** SHELL_EXPORT_CMD(
1748:System/shell/shell.c ****     SHELL_CMD_PERMISSION(0) | SHELL_CMD_TYPE(SHELL_TYPE_CMD_FUNC) | SHELL_CMD_DISABLE_RETURN,
1749:System/shell/shell.c ****     keys, shellKeys, list all key);
1750:System/shell/shell.c **** 
1751:System/shell/shell.c **** /**
1752:System/shell/shell.c ****  * @brief shell 清空控制台(shell调用)
1753:System/shell/shell.c ****  */
1754:System/shell/shell.c **** void shellClear(void)
1755:System/shell/shell.c **** {
 1233              		.loc 1 1755 1 view -0
 1234              		.cfi_startproc
 1235              		@ args = 0, pretend = 0, frame = 0
 1236              		@ frame_needed = 0, uses_anonymous_args = 0
 1237 0000 08B5     		push	{r3, lr}
 1238              	.LCFI14:
 1239              		.cfi_def_cfa_offset 8
 1240              		.cfi_offset 3, -8
 1241              		.cfi_offset 14, -4
1756:System/shell/shell.c ****     Shell *shell = shellGetCurrent();
 1242              		.loc 1 1756 5 view .LVU344
 1243              		.loc 1 1756 20 is_stmt 0 view .LVU345
 1244 0002 FFF7FEFF 		bl	shellGetCurrent
ARM GAS  C:\Users\8bit\AppData\Local\Temp\ccdhdvRO.s 			page 57


 1245              	.LVL108:
1757:System/shell/shell.c ****     if (shell)
 1246              		.loc 1 1757 5 is_stmt 1 view .LVU346
 1247              		.loc 1 1757 8 is_stmt 0 view .LVU347
 1248 0006 10B1     		cbz	r0, .L113
1758:System/shell/shell.c ****     {
1759:System/shell/shell.c ****         shellWriteString(shell, shellText[SHELL_TEXT_CLEAR_CONSOLE]);
 1249              		.loc 1 1759 9 is_stmt 1 view .LVU348
 1250 0008 0149     		ldr	r1, .L116
 1251 000a FFF7FEFF 		bl	shellWriteString
 1252              	.LVL109:
 1253              	.L113:
1760:System/shell/shell.c ****     }
1761:System/shell/shell.c **** }
 1254              		.loc 1 1761 1 is_stmt 0 view .LVU349
 1255 000e 08BD     		pop	{r3, pc}
 1256              	.L117:
 1257              		.align	2
 1258              	.L116:
 1259 0010 00000000 		.word	.LC0
 1260              		.cfi_endproc
 1261              	.LFE59:
 1263              		.section	.text.shellPrint,"ax",%progbits
 1264              		.align	1
 1265              		.global	shellPrint
 1266              		.syntax unified
 1267              		.thumb
 1268              		.thumb_func
 1270              	shellPrint:
 1271              	.LVL110:
 1272              	.LFB10:
 329:System/shell/shell.c ****     char buffer[SHELL_PRINT_BUFFER];
 1273              		.loc 1 329 1 is_stmt 1 view -0
 1274              		.cfi_startproc
 1275              		@ args = 4, pretend = 12, frame = 136
 1276              		@ frame_needed = 0, uses_anonymous_args = 1
 330:System/shell/shell.c ****     va_list vargs;
 1277              		.loc 1 330 5 view .LVU351
 331:System/shell/shell.c **** 
 1278              		.loc 1 331 5 view .LVU352
 333:System/shell/shell.c **** 
 1279              		.loc 1 333 5 view .LVU353
 1280 0000 98B1     		cbz	r0, .L122
 329:System/shell/shell.c ****     char buffer[SHELL_PRINT_BUFFER];
 1281              		.loc 1 329 1 is_stmt 0 discriminator 2 view .LVU354
 1282 0002 0EB4     		push	{r1, r2, r3}
 1283              	.LCFI15:
 1284              		.cfi_def_cfa_offset 12
 1285              		.cfi_offset 1, -12
 1286              		.cfi_offset 2, -8
 1287              		.cfi_offset 3, -4
 1288 0004 10B5     		push	{r4, lr}
 1289              	.LCFI16:
 1290              		.cfi_def_cfa_offset 20
 1291              		.cfi_offset 4, -20
 1292              		.cfi_offset 14, -16
 1293 0006 A3B0     		sub	sp, sp, #140
ARM GAS  C:\Users\8bit\AppData\Local\Temp\ccdhdvRO.s 			page 58


 1294              	.LCFI17:
 1295              		.cfi_def_cfa_offset 160
 1296 0008 0446     		mov	r4, r0
 333:System/shell/shell.c **** 
 1297              		.loc 1 333 33 is_stmt 1 discriminator 2 view .LVU355
 335:System/shell/shell.c ****     vsnprintf(buffer, SHELL_PRINT_BUFFER - 1, fmt, vargs);
 1298              		.loc 1 335 5 discriminator 2 view .LVU356
 1299 000a 26AB     		add	r3, sp, #152
 1300 000c 0193     		str	r3, [sp, #4]
 336:System/shell/shell.c ****     va_end(vargs);
 1301              		.loc 1 336 5 discriminator 2 view .LVU357
 1302 000e 259A     		ldr	r2, [sp, #148]
 1303 0010 7F21     		movs	r1, #127
 1304 0012 02A8     		add	r0, sp, #8
 1305 0014 FFF7FEFF 		bl	vsnprintf
 1306              	.LVL111:
 337:System/shell/shell.c **** 
 1307              		.loc 1 337 5 discriminator 2 view .LVU358
 339:System/shell/shell.c **** }
 1308              		.loc 1 339 5 discriminator 2 view .LVU359
 1309 0018 02A9     		add	r1, sp, #8
 1310 001a 2046     		mov	r0, r4
 1311 001c FFF7FEFF 		bl	shellWriteString
 1312              	.LVL112:
 340:System/shell/shell.c **** #endif
 1313              		.loc 1 340 1 is_stmt 0 discriminator 2 view .LVU360
 1314 0020 23B0     		add	sp, sp, #140
 1315              	.LCFI18:
 1316              		.cfi_def_cfa_offset 20
 1317              		@ sp needed
 1318 0022 BDE81040 		pop	{r4, lr}
 1319              	.LCFI19:
 1320              		.cfi_restore 14
 1321              		.cfi_restore 4
 1322              		.cfi_def_cfa_offset 12
 1323              	.LVL113:
 340:System/shell/shell.c **** #endif
 1324              		.loc 1 340 1 discriminator 2 view .LVU361
 1325 0026 03B0     		add	sp, sp, #12
 1326              	.LCFI20:
 1327              		.cfi_restore 3
 1328              		.cfi_restore 2
 1329              		.cfi_restore 1
 1330              		.cfi_def_cfa_offset 0
 1331 0028 7047     		bx	lr
 1332              	.LVL114:
 1333              	.L122:
 340:System/shell/shell.c **** #endif
 1334              		.loc 1 340 1 discriminator 2 view .LVU362
 1335 002a 7047     		bx	lr
 1336              		.cfi_endproc
 1337              	.LFE10:
 1339              		.section	.text.shellScan,"ax",%progbits
 1340              		.align	1
 1341              		.global	shellScan
 1342              		.syntax unified
 1343              		.thumb
ARM GAS  C:\Users\8bit\AppData\Local\Temp\ccdhdvRO.s 			page 59


 1344              		.thumb_func
 1346              	shellScan:
 1347              	.LVL115:
 1348              	.LFB11:
 352:System/shell/shell.c ****     char buffer[SHELL_SCAN_BUFFER];
 1349              		.loc 1 352 1 is_stmt 1 view -0
 1350              		.cfi_startproc
 1351              		@ args = 4, pretend = 12, frame = 8
 1352              		@ frame_needed = 0, uses_anonymous_args = 1
 353:System/shell/shell.c ****     va_list vargs;
 1353              		.loc 1 353 5 view .LVU364
 354:System/shell/shell.c ****     short index = 0;
 1354              		.loc 1 354 5 view .LVU365
 355:System/shell/shell.c **** 
 1355              		.loc 1 355 5 view .LVU366
 357:System/shell/shell.c **** 
 1356              		.loc 1 357 5 view .LVU367
 1357 0000 0028     		cmp	r0, #0
 1358 0002 36D0     		beq	.L133
 352:System/shell/shell.c ****     char buffer[SHELL_SCAN_BUFFER];
 1359              		.loc 1 352 1 is_stmt 0 discriminator 2 view .LVU368
 1360 0004 0EB4     		push	{r1, r2, r3}
 1361              	.LCFI21:
 1362              		.cfi_def_cfa_offset 12
 1363              		.cfi_offset 1, -12
 1364              		.cfi_offset 2, -8
 1365              		.cfi_offset 3, -4
 1366 0006 70B5     		push	{r4, r5, r6, lr}
 1367              	.LCFI22:
 1368              		.cfi_def_cfa_offset 28
 1369              		.cfi_offset 4, -28
 1370              		.cfi_offset 5, -24
 1371              		.cfi_offset 6, -20
 1372              		.cfi_offset 14, -16
 1373 0008 83B0     		sub	sp, sp, #12
 1374              	.LCFI23:
 1375              		.cfi_def_cfa_offset 40
 1376 000a 0646     		mov	r6, r0
 357:System/shell/shell.c **** 
 1377              		.loc 1 357 33 is_stmt 1 discriminator 2 view .LVU369
 359:System/shell/shell.c ****     {
 1378              		.loc 1 359 5 discriminator 2 view .LVU370
 359:System/shell/shell.c ****     {
 1379              		.loc 1 359 14 is_stmt 0 discriminator 2 view .LVU371
 1380 000c 436E     		ldr	r3, [r0, #100]
 359:System/shell/shell.c ****     {
 1381              		.loc 1 359 8 discriminator 2 view .LVU372
 1382 000e 2BB3     		cbz	r3, .L128
 355:System/shell/shell.c **** 
 1383              		.loc 1 355 11 view .LVU373
 1384 0010 0024     		movs	r4, #0
 1385 0012 10E0     		b	.L131
 1386              	.LVL116:
 1387              	.L136:
 365:System/shell/shell.c ****                 index++;
 1388              		.loc 1 365 17 is_stmt 1 view .LVU374
 365:System/shell/shell.c ****                 index++;
ARM GAS  C:\Users\8bit\AppData\Local\Temp\ccdhdvRO.s 			page 60


 1389              		.loc 1 365 22 is_stmt 0 view .LVU375
 1390 0014 B36E     		ldr	r3, [r6, #104]
 365:System/shell/shell.c ****                 index++;
 1391              		.loc 1 365 17 view .LVU376
 1392 0016 0121     		movs	r1, #1
 1393 0018 2846     		mov	r0, r5
 1394 001a 9847     		blx	r3
 1395              	.LVL117:
 366:System/shell/shell.c ****             }
 1396              		.loc 1 366 17 is_stmt 1 view .LVU377
 366:System/shell/shell.c ****             }
 1397              		.loc 1 366 22 is_stmt 0 view .LVU378
 1398 001c 0134     		adds	r4, r4, #1
 1399              	.LVL118:
 366:System/shell/shell.c ****             }
 1400              		.loc 1 366 22 view .LVU379
 1401 001e 24B2     		sxth	r4, r4
 1402              	.LVL119:
 1403              	.L129:
 368:System/shell/shell.c ****         shellWriteString(shell, "\r\n");
 1404              		.loc 1 368 17 is_stmt 1 view .LVU380
 368:System/shell/shell.c ****         shellWriteString(shell, "\r\n");
 1405              		.loc 1 368 31 is_stmt 0 view .LVU381
 1406 0020 2546     		mov	r5, r4
 368:System/shell/shell.c ****         shellWriteString(shell, "\r\n");
 1407              		.loc 1 368 24 view .LVU382
 1408 0022 E31D     		adds	r3, r4, #7
 1409 0024 6B44     		add	r3, sp, r3
 1410 0026 13F8043C 		ldrb	r3, [r3, #-4]	@ zero_extendqisi2
 368:System/shell/shell.c ****         shellWriteString(shell, "\r\n");
 1411              		.loc 1 368 9 view .LVU383
 1412 002a 0D2B     		cmp	r3, #13
 1413 002c 0BD0     		beq	.L130
 368:System/shell/shell.c ****         shellWriteString(shell, "\r\n");
 1414              		.loc 1 368 44 discriminator 1 view .LVU384
 1415 002e 0A2B     		cmp	r3, #10
 1416 0030 09D0     		beq	.L130
 368:System/shell/shell.c ****         shellWriteString(shell, "\r\n");
 1417              		.loc 1 368 73 discriminator 2 view .LVU385
 1418 0032 002C     		cmp	r4, #0
 1419 0034 07DC     		bgt	.L130
 1420              	.LVL120:
 1421              	.L131:
 361:System/shell/shell.c ****         {
 1422              		.loc 1 361 9 is_stmt 1 view .LVU386
 363:System/shell/shell.c ****             {
 1423              		.loc 1 363 13 view .LVU387
 363:System/shell/shell.c ****             {
 1424              		.loc 1 363 22 is_stmt 0 view .LVU388
 1425 0036 736E     		ldr	r3, [r6, #100]
 363:System/shell/shell.c ****             {
 1426              		.loc 1 363 17 view .LVU389
 1427 0038 01AA     		add	r2, sp, #4
 1428 003a 1519     		adds	r5, r2, r4
 1429 003c 2846     		mov	r0, r5
 1430 003e 9847     		blx	r3
 1431              	.LVL121:
ARM GAS  C:\Users\8bit\AppData\Local\Temp\ccdhdvRO.s 			page 61


 363:System/shell/shell.c ****             {
 1432              		.loc 1 363 16 view .LVU390
 1433 0040 0028     		cmp	r0, #0
 1434 0042 EDD1     		bne	.L129
 1435 0044 E6E7     		b	.L136
 1436              	.L130:
 369:System/shell/shell.c ****         buffer[index] = '\0';
 1437              		.loc 1 369 9 is_stmt 1 view .LVU391
 1438 0046 0B49     		ldr	r1, .L137
 1439 0048 3046     		mov	r0, r6
 1440 004a FFF7FEFF 		bl	shellWriteString
 1441              	.LVL122:
 370:System/shell/shell.c ****     }
 1442              		.loc 1 370 9 view .LVU392
 370:System/shell/shell.c ****     }
 1443              		.loc 1 370 23 is_stmt 0 view .LVU393
 1444 004e 05F10803 		add	r3, r5, #8
 1445 0052 0DEB0305 		add	r5, sp, r3
 1446 0056 0023     		movs	r3, #0
 1447 0058 05F8043C 		strb	r3, [r5, #-4]
 1448              	.LVL123:
 1449              	.L128:
 373:System/shell/shell.c ****     vsscanf(buffer, fmt, vargs);
 1450              		.loc 1 373 5 is_stmt 1 view .LVU394
 1451 005c 08AA     		add	r2, sp, #32
 1452 005e 0092     		str	r2, [sp]
 374:System/shell/shell.c ****     va_end(vargs);
 1453              		.loc 1 374 5 view .LVU395
 1454 0060 0799     		ldr	r1, [sp, #28]
 1455 0062 01A8     		add	r0, sp, #4
 1456 0064 FFF7FEFF 		bl	vsscanf
 1457              	.LVL124:
 375:System/shell/shell.c **** }
 1458              		.loc 1 375 5 view .LVU396
 376:System/shell/shell.c **** #endif
 1459              		.loc 1 376 1 is_stmt 0 view .LVU397
 1460 0068 03B0     		add	sp, sp, #12
 1461              	.LCFI24:
 1462              		.cfi_def_cfa_offset 28
 1463              		@ sp needed
 1464 006a BDE87040 		pop	{r4, r5, r6, lr}
 1465              	.LCFI25:
 1466              		.cfi_restore 14
 1467              		.cfi_restore 6
 1468              		.cfi_restore 5
 1469              		.cfi_restore 4
 1470              		.cfi_def_cfa_offset 12
 1471              	.LVL125:
 376:System/shell/shell.c **** #endif
 1472              		.loc 1 376 1 view .LVU398
 1473 006e 03B0     		add	sp, sp, #12
 1474              	.LCFI26:
 1475              		.cfi_restore 3
 1476              		.cfi_restore 2
 1477              		.cfi_restore 1
 1478              		.cfi_def_cfa_offset 0
 1479 0070 7047     		bx	lr
ARM GAS  C:\Users\8bit\AppData\Local\Temp\ccdhdvRO.s 			page 62


 1480              	.LVL126:
 1481              	.L133:
 376:System/shell/shell.c **** #endif
 1482              		.loc 1 376 1 view .LVU399
 1483 0072 7047     		bx	lr
 1484              	.L138:
 1485              		.align	2
 1486              	.L137:
 1487 0074 04000000 		.word	.LC3
 1488              		.cfi_endproc
 1489              	.LFE11:
 1491              		.section	.text.shellCheckPermission,"ax",%progbits
 1492              		.align	1
 1493              		.global	shellCheckPermission
 1494              		.syntax unified
 1495              		.thumb
 1496              		.thumb_func
 1498              	shellCheckPermission:
 1499              	.LVL127:
 1500              	.LFB12:
 389:System/shell/shell.c ****     return ((!command->attr.attrs.permission || command->attr.attrs.type == SHELL_TYPE_USER || (com
 1501              		.loc 1 389 1 is_stmt 1 view -0
 1502              		.cfi_startproc
 1503              		@ args = 0, pretend = 0, frame = 0
 1504              		@ frame_needed = 0, uses_anonymous_args = 0
 1505              		@ link register save eliminated.
 390:System/shell/shell.c ****                ? 0
 1506              		.loc 1 390 5 view .LVU401
 390:System/shell/shell.c ****                ? 0
 1507              		.loc 1 390 34 is_stmt 0 view .LVU402
 1508 0000 0B78     		ldrb	r3, [r1]	@ zero_extendqisi2
 392:System/shell/shell.c **** }
 1509              		.loc 1 392 16 view .LVU403
 1510 0002 43B1     		cbz	r3, .L140
 390:System/shell/shell.c ****                ? 0
 1511              		.loc 1 390 74 view .LVU404
 1512 0004 4A78     		ldrb	r2, [r1, #1]	@ zero_extendqisi2
 1513 0006 02F00F02 		and	r2, r2, #15
 390:System/shell/shell.c ****                ? 0
 1514              		.loc 1 390 46 view .LVU405
 1515 000a 082A     		cmp	r2, #8
 1516 000c 03D0     		beq	.L140
 390:System/shell/shell.c ****                ? 0
 1517              		.loc 1 390 141 discriminator 2 view .LVU406
 1518 000e 0268     		ldr	r2, [r0]
 390:System/shell/shell.c ****                ? 0
 1519              		.loc 1 390 158 discriminator 2 view .LVU407
 1520 0010 1278     		ldrb	r2, [r2]	@ zero_extendqisi2
 390:System/shell/shell.c ****                ? 0
 1521              		.loc 1 390 93 discriminator 2 view .LVU408
 1522 0012 1342     		tst	r3, r2
 1523 0014 0DD0     		beq	.L142
 1524              	.L140:
 390:System/shell/shell.c ****                ? 0
 1525              		.loc 1 390 176 discriminator 3 view .LVU409
 1526 0016 90F86030 		ldrb	r3, [r0, #96]	@ zero_extendqisi2
 390:System/shell/shell.c ****                ? 0
ARM GAS  C:\Users\8bit\AppData\Local\Temp\ccdhdvRO.s 			page 63


 1527              		.loc 1 390 172 discriminator 3 view .LVU410
 1528 001a 13F0010F 		tst	r3, #1
 1529 001e 0BD1     		bne	.L143
 390:System/shell/shell.c ****                ? 0
 1530              		.loc 1 390 200 discriminator 4 view .LVU411
 1531 0020 4B78     		ldrb	r3, [r1, #1]	@ zero_extendqisi2
 1532 0022 13F0100F 		tst	r3, #16
 1533 0026 01D0     		beq	.L145
 392:System/shell/shell.c **** }
 1534              		.loc 1 392 16 view .LVU412
 1535 0028 0020     		movs	r0, #0
 1536              	.LVL128:
 393:System/shell/shell.c **** 
 1537              		.loc 1 393 1 view .LVU413
 1538 002a 7047     		bx	lr
 1539              	.LVL129:
 1540              	.L145:
 392:System/shell/shell.c **** }
 1541              		.loc 1 392 16 view .LVU414
 1542 002c 4FF0FF30 		mov	r0, #-1
 1543              	.LVL130:
 392:System/shell/shell.c **** }
 1544              		.loc 1 392 16 view .LVU415
 1545 0030 7047     		bx	lr
 1546              	.LVL131:
 1547              	.L142:
 392:System/shell/shell.c **** }
 1548              		.loc 1 392 16 view .LVU416
 1549 0032 4FF0FF30 		mov	r0, #-1
 1550              	.LVL132:
 392:System/shell/shell.c **** }
 1551              		.loc 1 392 16 view .LVU417
 1552 0036 7047     		bx	lr
 1553              	.LVL133:
 1554              	.L143:
 392:System/shell/shell.c **** }
 1555              		.loc 1 392 16 view .LVU418
 1556 0038 0020     		movs	r0, #0
 1557              	.LVL134:
 392:System/shell/shell.c **** }
 1558              		.loc 1 392 16 view .LVU419
 1559 003a 7047     		bx	lr
 1560              		.cfi_endproc
 1561              	.LFE12:
 1563              		.section	.text.shellToHex,"ax",%progbits
 1564              		.align	1
 1565              		.global	shellToHex
 1566              		.syntax unified
 1567              		.thumb
 1568              		.thumb_func
 1570              	shellToHex:
 1571              	.LVL135:
 1572              	.LFB13:
 404:System/shell/shell.c ****     char byte;
 1573              		.loc 1 404 1 is_stmt 1 view -0
 1574              		.cfi_startproc
 1575              		@ args = 0, pretend = 0, frame = 0
ARM GAS  C:\Users\8bit\AppData\Local\Temp\ccdhdvRO.s 			page 64


 1576              		@ frame_needed = 0, uses_anonymous_args = 0
 1577              		@ link register save eliminated.
 405:System/shell/shell.c ****     unsigned char i = 8;
 1578              		.loc 1 405 5 view .LVU421
 406:System/shell/shell.c ****     buffer[8] = 0;
 1579              		.loc 1 406 5 view .LVU422
 407:System/shell/shell.c ****     while (value)
 1580              		.loc 1 407 5 view .LVU423
 407:System/shell/shell.c ****     while (value)
 1581              		.loc 1 407 15 is_stmt 0 view .LVU424
 1582 0000 0023     		movs	r3, #0
 1583 0002 0B72     		strb	r3, [r1, #8]
 408:System/shell/shell.c ****     {
 1584              		.loc 1 408 5 is_stmt 1 view .LVU425
 406:System/shell/shell.c ****     buffer[8] = 0;
 1585              		.loc 1 406 19 is_stmt 0 view .LVU426
 1586 0004 0823     		movs	r3, #8
 408:System/shell/shell.c ****     {
 1587              		.loc 1 408 11 view .LVU427
 1588 0006 04E0     		b	.L147
 1589              	.LVL136:
 1590              	.L148:
 411:System/shell/shell.c ****         value >>= 4;
 1591              		.loc 1 411 21 discriminator 2 view .LVU428
 1592 0008 3032     		adds	r2, r2, #48
 1593              	.LVL137:
 1594              	.L149:
 411:System/shell/shell.c ****         value >>= 4;
 1595              		.loc 1 411 21 discriminator 4 view .LVU429
 1596 000a 013B     		subs	r3, r3, #1
 1597              	.LVL138:
 411:System/shell/shell.c ****         value >>= 4;
 1598              		.loc 1 411 21 discriminator 4 view .LVU430
 1599 000c DBB2     		uxtb	r3, r3
 1600              	.LVL139:
 411:System/shell/shell.c ****         value >>= 4;
 1601              		.loc 1 411 21 discriminator 4 view .LVU431
 1602 000e CA54     		strb	r2, [r1, r3]
 412:System/shell/shell.c ****     }
 1603              		.loc 1 412 9 is_stmt 1 discriminator 4 view .LVU432
 412:System/shell/shell.c ****     }
 1604              		.loc 1 412 15 is_stmt 0 discriminator 4 view .LVU433
 1605 0010 0009     		lsrs	r0, r0, #4
 1606              	.LVL140:
 1607              	.L147:
 408:System/shell/shell.c ****     {
 1608              		.loc 1 408 11 is_stmt 1 view .LVU434
 1609 0012 28B1     		cbz	r0, .L151
 410:System/shell/shell.c ****         buffer[--i] = (byte > 9) ? (byte + 87) : (byte + 48);
 1610              		.loc 1 410 9 view .LVU435
 410:System/shell/shell.c ****         buffer[--i] = (byte > 9) ? (byte + 87) : (byte + 48);
 1611              		.loc 1 410 14 is_stmt 0 view .LVU436
 1612 0014 00F00F02 		and	r2, r0, #15
 1613              	.LVL141:
 411:System/shell/shell.c ****         value >>= 4;
 1614              		.loc 1 411 9 is_stmt 1 view .LVU437
 411:System/shell/shell.c ****         value >>= 4;
ARM GAS  C:\Users\8bit\AppData\Local\Temp\ccdhdvRO.s 			page 65


 1615              		.loc 1 411 21 is_stmt 0 view .LVU438
 1616 0018 092A     		cmp	r2, #9
 1617 001a F5D9     		bls	.L148
 411:System/shell/shell.c ****         value >>= 4;
 1618              		.loc 1 411 21 discriminator 1 view .LVU439
 1619 001c 5732     		adds	r2, r2, #87
 1620              	.LVL142:
 411:System/shell/shell.c ****         value >>= 4;
 1621              		.loc 1 411 21 discriminator 1 view .LVU440
 1622 001e F4E7     		b	.L149
 1623              	.LVL143:
 1624              	.L151:
 414:System/shell/shell.c **** }
 1625              		.loc 1 414 5 is_stmt 1 view .LVU441
 414:System/shell/shell.c **** }
 1626              		.loc 1 414 14 is_stmt 0 view .LVU442
 1627 0020 C3F10800 		rsb	r0, r3, #8
 1628              	.LVL144:
 415:System/shell/shell.c **** 
 1629              		.loc 1 415 1 view .LVU443
 1630 0024 40B2     		sxtb	r0, r0
 1631 0026 7047     		bx	lr
 1632              		.cfi_endproc
 1633              	.LFE13:
 1635              		.section	.text.shellGetCommandName,"ax",%progbits
 1636              		.align	1
 1637              		.syntax unified
 1638              		.thumb
 1639              		.thumb_func
 1641              	shellGetCommandName:
 1642              	.LVL145:
 1643              	.LFB17:
 500:System/shell/shell.c ****     static char buffer[9];
 1644              		.loc 1 500 1 is_stmt 1 view -0
 1645              		.cfi_startproc
 1646              		@ args = 0, pretend = 0, frame = 0
 1647              		@ frame_needed = 0, uses_anonymous_args = 0
 501:System/shell/shell.c ****     for (unsigned char i = 0; i < 9; i++)
 1648              		.loc 1 501 5 view .LVU445
 502:System/shell/shell.c ****     {
 1649              		.loc 1 502 5 view .LVU446
 1650              	.LBB8:
 502:System/shell/shell.c ****     {
 1651              		.loc 1 502 10 view .LVU447
 502:System/shell/shell.c ****     {
 1652              		.loc 1 502 24 is_stmt 0 view .LVU448
 1653 0000 0023     		movs	r3, #0
 502:System/shell/shell.c ****     {
 1654              		.loc 1 502 5 view .LVU449
 1655 0002 04E0     		b	.L153
 1656              	.LVL146:
 1657              	.L154:
 504:System/shell/shell.c ****     }
 1658              		.loc 1 504 9 is_stmt 1 discriminator 3 view .LVU450
 504:System/shell/shell.c ****     }
 1659              		.loc 1 504 19 is_stmt 0 discriminator 3 view .LVU451
 1660 0004 0E4A     		ldr	r2, .L164
ARM GAS  C:\Users\8bit\AppData\Local\Temp\ccdhdvRO.s 			page 66


 1661 0006 3021     		movs	r1, #48
 1662 0008 D154     		strb	r1, [r2, r3]
 502:System/shell/shell.c ****     {
 1663              		.loc 1 502 38 is_stmt 1 discriminator 3 view .LVU452
 502:System/shell/shell.c ****     {
 1664              		.loc 1 502 39 is_stmt 0 discriminator 3 view .LVU453
 1665 000a 0133     		adds	r3, r3, #1
 1666              	.LVL147:
 502:System/shell/shell.c ****     {
 1667              		.loc 1 502 39 discriminator 3 view .LVU454
 1668 000c DBB2     		uxtb	r3, r3
 1669              	.LVL148:
 1670              	.L153:
 502:System/shell/shell.c ****     {
 1671              		.loc 1 502 31 is_stmt 1 discriminator 1 view .LVU455
 502:System/shell/shell.c ****     {
 1672              		.loc 1 502 5 is_stmt 0 discriminator 1 view .LVU456
 1673 000e 082B     		cmp	r3, #8
 1674 0010 F8D9     		bls	.L154
 1675              	.LBE8:
 506:System/shell/shell.c ****     {
 1676              		.loc 1 506 5 is_stmt 1 view .LVU457
 506:System/shell/shell.c ****     {
 1677              		.loc 1 506 28 is_stmt 0 view .LVU458
 1678 0012 4378     		ldrb	r3, [r0, #1]	@ zero_extendqisi2
 1679              	.LVL149:
 506:System/shell/shell.c ****     {
 1680              		.loc 1 506 28 view .LVU459
 1681 0014 03F00F03 		and	r3, r3, #15
 506:System/shell/shell.c ****     {
 1682              		.loc 1 506 8 view .LVU460
 1683 0018 012B     		cmp	r3, #1
 1684 001a 05D9     		bls	.L162
 510:System/shell/shell.c ****     {
 1685              		.loc 1 510 10 is_stmt 1 view .LVU461
 510:System/shell/shell.c ****     {
 1686              		.loc 1 510 13 is_stmt 0 view .LVU462
 1687 001c 072B     		cmp	r3, #7
 1688 001e 05D9     		bls	.L163
 514:System/shell/shell.c ****     {
 1689              		.loc 1 514 10 is_stmt 1 view .LVU463
 514:System/shell/shell.c ****     {
 1690              		.loc 1 514 13 is_stmt 0 view .LVU464
 1691 0020 082B     		cmp	r3, #8
 1692 0022 05D8     		bhi	.L158
 516:System/shell/shell.c ****     }
 1693              		.loc 1 516 9 is_stmt 1 view .LVU465
 516:System/shell/shell.c ****     }
 1694              		.loc 1 516 34 is_stmt 0 view .LVU466
 1695 0024 4068     		ldr	r0, [r0, #4]
 1696              	.LVL150:
 523:System/shell/shell.c **** 
 1697              		.loc 1 523 1 view .LVU467
 1698 0026 7047     		bx	lr
 1699              	.LVL151:
 1700              	.L162:
 508:System/shell/shell.c ****     }
ARM GAS  C:\Users\8bit\AppData\Local\Temp\ccdhdvRO.s 			page 67


 1701              		.loc 1 508 9 is_stmt 1 view .LVU468
 508:System/shell/shell.c ****     }
 1702              		.loc 1 508 33 is_stmt 0 view .LVU469
 1703 0028 4068     		ldr	r0, [r0, #4]
 1704              	.LVL152:
 508:System/shell/shell.c ****     }
 1705              		.loc 1 508 33 view .LVU470
 1706 002a 7047     		bx	lr
 1707              	.LVL153:
 1708              	.L163:
 512:System/shell/shell.c ****     }
 1709              		.loc 1 512 9 is_stmt 1 view .LVU471
 512:System/shell/shell.c ****     }
 1710              		.loc 1 512 33 is_stmt 0 view .LVU472
 1711 002c 4068     		ldr	r0, [r0, #4]
 1712              	.LVL154:
 512:System/shell/shell.c ****     }
 1713              		.loc 1 512 33 view .LVU473
 1714 002e 7047     		bx	lr
 1715              	.LVL155:
 1716              	.L158:
 500:System/shell/shell.c ****     static char buffer[9];
 1717              		.loc 1 500 1 view .LVU474
 1718 0030 10B5     		push	{r4, lr}
 1719              	.LCFI27:
 1720              		.cfi_def_cfa_offset 8
 1721              		.cfi_offset 4, -8
 1722              		.cfi_offset 14, -4
 520:System/shell/shell.c ****         return buffer;
 1723              		.loc 1 520 9 is_stmt 1 view .LVU475
 1724 0032 034C     		ldr	r4, .L164
 1725 0034 2146     		mov	r1, r4
 1726 0036 4068     		ldr	r0, [r0, #4]
 1727              	.LVL156:
 520:System/shell/shell.c ****         return buffer;
 1728              		.loc 1 520 9 is_stmt 0 view .LVU476
 1729 0038 FFF7FEFF 		bl	shellToHex
 1730              	.LVL157:
 521:System/shell/shell.c ****     }
 1731              		.loc 1 521 9 is_stmt 1 view .LVU477
 521:System/shell/shell.c ****     }
 1732              		.loc 1 521 16 is_stmt 0 view .LVU478
 1733 003c 2046     		mov	r0, r4
 523:System/shell/shell.c **** 
 1734              		.loc 1 523 1 view .LVU479
 1735 003e 10BD     		pop	{r4, pc}
 1736              	.L165:
 1737              		.align	2
 1738              	.L164:
 1739 0040 00000000 		.word	.LANCHOR1
 1740              		.cfi_endproc
 1741              	.LFE17:
 1743              		.section	.text.shellToDec,"ax",%progbits
 1744              		.align	1
 1745              		.global	shellToDec
 1746              		.syntax unified
 1747              		.thumb
ARM GAS  C:\Users\8bit\AppData\Local\Temp\ccdhdvRO.s 			page 68


 1748              		.thumb_func
 1750              	shellToDec:
 1751              	.LVL158:
 1752              	.LFB14:
 426:System/shell/shell.c ****     unsigned char i = 11;
 1753              		.loc 1 426 1 is_stmt 1 view -0
 1754              		.cfi_startproc
 1755              		@ args = 0, pretend = 0, frame = 0
 1756              		@ frame_needed = 0, uses_anonymous_args = 0
 1757              		@ link register save eliminated.
 426:System/shell/shell.c ****     unsigned char i = 11;
 1758              		.loc 1 426 1 is_stmt 0 view .LVU481
 1759 0000 10B4     		push	{r4}
 1760              	.LCFI28:
 1761              		.cfi_def_cfa_offset 4
 1762              		.cfi_offset 4, -4
 427:System/shell/shell.c ****     int v = value;
 1763              		.loc 1 427 5 is_stmt 1 view .LVU482
 1764              	.LVL159:
 428:System/shell/shell.c ****     if (value < 0)
 1765              		.loc 1 428 5 view .LVU483
 429:System/shell/shell.c ****     {
 1766              		.loc 1 429 5 view .LVU484
 429:System/shell/shell.c ****     {
 1767              		.loc 1 429 8 is_stmt 0 view .LVU485
 1768 0002 041E     		subs	r4, r0, #0
 1769 0004 04DB     		blt	.L174
 428:System/shell/shell.c ****     if (value < 0)
 1770              		.loc 1 428 9 view .LVU486
 1771 0006 2246     		mov	r2, r4
 1772              	.LVL160:
 1773              	.L167:
 433:System/shell/shell.c ****     while (v)
 1774              		.loc 1 433 5 is_stmt 1 view .LVU487
 433:System/shell/shell.c ****     while (v)
 1775              		.loc 1 433 16 is_stmt 0 view .LVU488
 1776 0008 0023     		movs	r3, #0
 1777 000a CB72     		strb	r3, [r1, #11]
 434:System/shell/shell.c ****     {
 1778              		.loc 1 434 5 is_stmt 1 view .LVU489
 427:System/shell/shell.c ****     int v = value;
 1779              		.loc 1 427 19 is_stmt 0 view .LVU490
 1780 000c 0B20     		movs	r0, #11
 1781              	.LVL161:
 434:System/shell/shell.c ****     {
 1782              		.loc 1 434 11 view .LVU491
 1783 000e 11E0     		b	.L168
 1784              	.LVL162:
 1785              	.L174:
 431:System/shell/shell.c ****     }
 1786              		.loc 1 431 9 is_stmt 1 view .LVU492
 431:System/shell/shell.c ****     }
 1787              		.loc 1 431 11 is_stmt 0 view .LVU493
 1788 0010 6242     		rsbs	r2, r4, #0
 1789              	.LVL163:
 431:System/shell/shell.c ****     }
 1790              		.loc 1 431 11 view .LVU494
ARM GAS  C:\Users\8bit\AppData\Local\Temp\ccdhdvRO.s 			page 69


 1791 0012 F9E7     		b	.L167
 1792              	.LVL164:
 1793              	.L169:
 436:System/shell/shell.c ****         v /= 10;
 1794              		.loc 1 436 9 is_stmt 1 view .LVU495
 436:System/shell/shell.c ****         v /= 10;
 1795              		.loc 1 436 25 is_stmt 0 view .LVU496
 1796 0014 114B     		ldr	r3, .L176
 1797 0016 83FB023C 		smull	r3, ip, r3, r2
 1798 001a D317     		asrs	r3, r2, #31
 1799 001c C3EBAC03 		rsb	r3, r3, ip, asr #2
 1800 0020 9C46     		mov	ip, r3
 1801 0022 03EB8303 		add	r3, r3, r3, lsl #2
 1802 0026 A2EB4303 		sub	r3, r2, r3, lsl #1
 436:System/shell/shell.c ****         v /= 10;
 1803              		.loc 1 436 21 view .LVU497
 1804 002a 0138     		subs	r0, r0, #1
 1805              	.LVL165:
 436:System/shell/shell.c ****         v /= 10;
 1806              		.loc 1 436 21 view .LVU498
 1807 002c C0B2     		uxtb	r0, r0
 1808              	.LVL166:
 436:System/shell/shell.c ****         v /= 10;
 1809              		.loc 1 436 30 view .LVU499
 1810 002e 3033     		adds	r3, r3, #48
 436:System/shell/shell.c ****         v /= 10;
 1811              		.loc 1 436 21 view .LVU500
 1812 0030 0B54     		strb	r3, [r1, r0]
 437:System/shell/shell.c ****     }
 1813              		.loc 1 437 9 is_stmt 1 view .LVU501
 437:System/shell/shell.c ****     }
 1814              		.loc 1 437 11 is_stmt 0 view .LVU502
 1815 0032 6246     		mov	r2, ip
 1816              	.LVL167:
 1817              	.L168:
 434:System/shell/shell.c ****     {
 1818              		.loc 1 434 11 is_stmt 1 view .LVU503
 1819 0034 002A     		cmp	r2, #0
 1820 0036 EDD1     		bne	.L169
 439:System/shell/shell.c ****     {
 1821              		.loc 1 439 5 view .LVU504
 439:System/shell/shell.c ****     {
 1822              		.loc 1 439 8 is_stmt 0 view .LVU505
 1823 0038 002C     		cmp	r4, #0
 1824 003a 0ADB     		blt	.L175
 1825              	.L170:
 443:System/shell/shell.c ****     {
 1826              		.loc 1 443 5 is_stmt 1 view .LVU506
 443:System/shell/shell.c ****     {
 1827              		.loc 1 443 8 is_stmt 0 view .LVU507
 1828 003c 1CB9     		cbnz	r4, .L171
 445:System/shell/shell.c ****     }
 1829              		.loc 1 445 9 is_stmt 1 view .LVU508
 445:System/shell/shell.c ****     }
 1830              		.loc 1 445 21 is_stmt 0 view .LVU509
 1831 003e 0138     		subs	r0, r0, #1
 1832              	.LVL168:
ARM GAS  C:\Users\8bit\AppData\Local\Temp\ccdhdvRO.s 			page 70


 445:System/shell/shell.c ****     }
 1833              		.loc 1 445 21 view .LVU510
 1834 0040 C0B2     		uxtb	r0, r0
 1835              	.LVL169:
 445:System/shell/shell.c ****     }
 1836              		.loc 1 445 21 view .LVU511
 1837 0042 3023     		movs	r3, #48
 1838 0044 0B54     		strb	r3, [r1, r0]
 1839              	.L171:
 447:System/shell/shell.c **** }
 1840              		.loc 1 447 5 is_stmt 1 view .LVU512
 447:System/shell/shell.c **** }
 1841              		.loc 1 447 15 is_stmt 0 view .LVU513
 1842 0046 C0F10B00 		rsb	r0, r0, #11
 1843              	.LVL170:
 448:System/shell/shell.c **** 
 1844              		.loc 1 448 1 view .LVU514
 1845 004a 40B2     		sxtb	r0, r0
 1846 004c 5DF8044B 		ldr	r4, [sp], #4
 1847              	.LCFI29:
 1848              		.cfi_remember_state
 1849              		.cfi_restore 4
 1850              		.cfi_def_cfa_offset 0
 1851              	.LVL171:
 448:System/shell/shell.c **** 
 1852              		.loc 1 448 1 view .LVU515
 1853 0050 7047     		bx	lr
 1854              	.LVL172:
 1855              	.L175:
 1856              	.LCFI30:
 1857              		.cfi_restore_state
 441:System/shell/shell.c ****     }
 1858              		.loc 1 441 9 is_stmt 1 view .LVU516
 441:System/shell/shell.c ****     }
 1859              		.loc 1 441 21 is_stmt 0 view .LVU517
 1860 0052 0138     		subs	r0, r0, #1
 1861              	.LVL173:
 441:System/shell/shell.c ****     }
 1862              		.loc 1 441 21 view .LVU518
 1863 0054 C0B2     		uxtb	r0, r0
 1864              	.LVL174:
 441:System/shell/shell.c ****     }
 1865              		.loc 1 441 21 view .LVU519
 1866 0056 2D23     		movs	r3, #45
 1867 0058 0B54     		strb	r3, [r1, r0]
 1868 005a EFE7     		b	.L170
 1869              	.L177:
 1870              		.align	2
 1871              	.L176:
 1872 005c 67666666 		.word	1717986919
 1873              		.cfi_endproc
 1874              	.LFE14:
 1876              		.section	.rodata.shellWriteReturnValue.str1.4,"aMS",%progbits,1
 1877              		.align	2
 1878              	.LC9:
 1879 0000 52657475 		.ascii	"Return: \000"
 1879      726E3A20 
ARM GAS  C:\Users\8bit\AppData\Local\Temp\ccdhdvRO.s 			page 71


 1879      00
 1880 0009 000000   		.align	2
 1881              	.LC10:
 1882 000c 2C203078 		.ascii	", 0x\000"
 1882      00
 1883 0011 000000   		.align	2
 1884              	.LC8:
 1885 0014 30303030 		.ascii	"00000000000\000"
 1885      30303030 
 1885      30303000 
 1886              		.section	.text.shellWriteReturnValue,"ax",%progbits
 1887              		.align	1
 1888              		.syntax unified
 1889              		.thumb
 1890              		.thumb_func
 1892              	shellWriteReturnValue:
 1893              	.LVL175:
 1894              	.LFB39:
1190:System/shell/shell.c ****     char buffer[12] = "00000000000";
 1895              		.loc 1 1190 1 is_stmt 1 view -0
 1896              		.cfi_startproc
 1897              		@ args = 0, pretend = 0, frame = 16
 1898              		@ frame_needed = 0, uses_anonymous_args = 0
1190:System/shell/shell.c ****     char buffer[12] = "00000000000";
 1899              		.loc 1 1190 1 is_stmt 0 view .LVU521
 1900 0000 70B5     		push	{r4, r5, r6, lr}
 1901              	.LCFI31:
 1902              		.cfi_def_cfa_offset 16
 1903              		.cfi_offset 4, -16
 1904              		.cfi_offset 5, -12
 1905              		.cfi_offset 6, -8
 1906              		.cfi_offset 14, -4
 1907 0002 84B0     		sub	sp, sp, #16
 1908              	.LCFI32:
 1909              		.cfi_def_cfa_offset 32
 1910 0004 0446     		mov	r4, r0
 1911 0006 0E46     		mov	r6, r1
1191:System/shell/shell.c ****     shellWriteString(shell, "Return: ");
 1912              		.loc 1 1191 5 is_stmt 1 view .LVU522
1191:System/shell/shell.c ****     shellWriteString(shell, "Return: ");
 1913              		.loc 1 1191 10 is_stmt 0 view .LVU523
 1914 0008 194B     		ldr	r3, .L182
 1915 000a 01AD     		add	r5, sp, #4
 1916 000c 93E80700 		ldm	r3, {r0, r1, r2}
 1917              	.LVL176:
1191:System/shell/shell.c ****     shellWriteString(shell, "Return: ");
 1918              		.loc 1 1191 10 view .LVU524
 1919 0010 85E80700 		stm	r5, {r0, r1, r2}
1192:System/shell/shell.c ****     shellWriteString(shell, &buffer[11 - shellToDec(value, buffer)]);
 1920              		.loc 1 1192 5 is_stmt 1 view .LVU525
 1921 0014 1749     		ldr	r1, .L182+4
 1922 0016 2046     		mov	r0, r4
 1923 0018 FFF7FEFF 		bl	shellWriteString
 1924              	.LVL177:
1193:System/shell/shell.c ****     shellWriteString(shell, ", 0x");
 1925              		.loc 1 1193 5 view .LVU526
1193:System/shell/shell.c ****     shellWriteString(shell, ", 0x");
ARM GAS  C:\Users\8bit\AppData\Local\Temp\ccdhdvRO.s 			page 72


 1926              		.loc 1 1193 42 is_stmt 0 view .LVU527
 1927 001c 2946     		mov	r1, r5
 1928 001e 3046     		mov	r0, r6
 1929 0020 FFF7FEFF 		bl	shellToDec
 1930              	.LVL178:
1193:System/shell/shell.c ****     shellWriteString(shell, ", 0x");
 1931              		.loc 1 1193 40 view .LVU528
 1932 0024 C0F10B01 		rsb	r1, r0, #11
1193:System/shell/shell.c ****     shellWriteString(shell, ", 0x");
 1933              		.loc 1 1193 5 view .LVU529
 1934 0028 2944     		add	r1, r1, r5
 1935 002a 2046     		mov	r0, r4
 1936 002c FFF7FEFF 		bl	shellWriteString
 1937              	.LVL179:
1194:System/shell/shell.c ****     for (short i = 0; i < 11; i++)
 1938              		.loc 1 1194 5 is_stmt 1 view .LVU530
 1939 0030 1149     		ldr	r1, .L182+8
 1940 0032 2046     		mov	r0, r4
 1941 0034 FFF7FEFF 		bl	shellWriteString
 1942              	.LVL180:
1195:System/shell/shell.c ****     {
 1943              		.loc 1 1195 5 view .LVU531
 1944              	.LBB9:
1195:System/shell/shell.c ****     {
 1945              		.loc 1 1195 10 view .LVU532
1195:System/shell/shell.c ****     {
 1946              		.loc 1 1195 16 is_stmt 0 view .LVU533
 1947 0038 0023     		movs	r3, #0
1195:System/shell/shell.c ****     {
 1948              		.loc 1 1195 5 view .LVU534
 1949 003a 08E0     		b	.L179
 1950              	.LVL181:
 1951              	.L180:
1197:System/shell/shell.c ****     }
 1952              		.loc 1 1197 9 is_stmt 1 discriminator 3 view .LVU535
1197:System/shell/shell.c ****     }
 1953              		.loc 1 1197 19 is_stmt 0 discriminator 3 view .LVU536
 1954 003c 03F11002 		add	r2, r3, #16
 1955 0040 6A44     		add	r2, sp, r2
 1956 0042 4FF0300C 		mov	ip, #48
 1957 0046 02F80CCC 		strb	ip, [r2, #-12]
1195:System/shell/shell.c ****     {
 1958              		.loc 1 1195 31 is_stmt 1 discriminator 3 view .LVU537
1195:System/shell/shell.c ****     {
 1959              		.loc 1 1195 32 is_stmt 0 discriminator 3 view .LVU538
 1960 004a 0133     		adds	r3, r3, #1
 1961              	.LVL182:
1195:System/shell/shell.c ****     {
 1962              		.loc 1 1195 32 discriminator 3 view .LVU539
 1963 004c 1BB2     		sxth	r3, r3
 1964              	.LVL183:
 1965              	.L179:
1195:System/shell/shell.c ****     {
 1966              		.loc 1 1195 23 is_stmt 1 discriminator 1 view .LVU540
1195:System/shell/shell.c ****     {
 1967              		.loc 1 1195 5 is_stmt 0 discriminator 1 view .LVU541
 1968 004e 0A2B     		cmp	r3, #10
ARM GAS  C:\Users\8bit\AppData\Local\Temp\ccdhdvRO.s 			page 73


 1969 0050 F4DD     		ble	.L180
 1970              	.LBE9:
1199:System/shell/shell.c ****     shellWriteString(shell, buffer);
 1971              		.loc 1 1199 5 is_stmt 1 view .LVU542
 1972 0052 01A9     		add	r1, sp, #4
 1973 0054 3046     		mov	r0, r6
 1974 0056 FFF7FEFF 		bl	shellToHex
 1975              	.LVL184:
1200:System/shell/shell.c ****     shellWriteString(shell, "\r\n");
 1976              		.loc 1 1200 5 view .LVU543
 1977 005a 01A9     		add	r1, sp, #4
 1978 005c 2046     		mov	r0, r4
 1979 005e FFF7FEFF 		bl	shellWriteString
 1980              	.LVL185:
1201:System/shell/shell.c **** }
 1981              		.loc 1 1201 5 view .LVU544
 1982 0062 0649     		ldr	r1, .L182+12
 1983 0064 2046     		mov	r0, r4
 1984 0066 FFF7FEFF 		bl	shellWriteString
 1985              	.LVL186:
1202:System/shell/shell.c **** 
 1986              		.loc 1 1202 1 is_stmt 0 view .LVU545
 1987 006a 04B0     		add	sp, sp, #16
 1988              	.LCFI33:
 1989              		.cfi_def_cfa_offset 16
 1990              		@ sp needed
 1991 006c 70BD     		pop	{r4, r5, r6, pc}
 1992              	.LVL187:
 1993              	.L183:
1202:System/shell/shell.c **** 
 1994              		.loc 1 1202 1 view .LVU546
 1995 006e 00BF     		.align	2
 1996              	.L182:
 1997 0070 14000000 		.word	.LC8
 1998 0074 00000000 		.word	.LC9
 1999 0078 0C000000 		.word	.LC10
 2000 007c 04000000 		.word	.LC3
 2001              		.cfi_endproc
 2002              	.LFE39:
 2004              		.section	.rodata.shellListItem.str1.4,"aMS",%progbits,1
 2005              		.align	2
 2006              	.LC11:
 2007 0000 434D4420 		.ascii	"CMD \015\012\000"
 2007      0D0A00
 2008 0007 00       		.align	2
 2009              	.LC12:
 2010 0008 56415200 		.ascii	"VAR\000"
 2011              		.align	2
 2012              	.LC13:
 2013 000c 55534552 		.ascii	"USER\000"
 2013      00
 2014 0011 000000   		.align	2
 2015              	.LC14:
 2016 0014 4B455900 		.ascii	"KEY\000"
 2017              		.align	2
 2018              	.LC15:
 2019 0018 4E4F4E45 		.ascii	"NONE\000"
ARM GAS  C:\Users\8bit\AppData\Local\Temp\ccdhdvRO.s 			page 74


 2019      00
 2020              		.section	.text.shellListItem,"ax",%progbits
 2021              		.align	1
 2022              		.global	shellListItem
 2023              		.syntax unified
 2024              		.thumb
 2025              		.thumb_func
 2027              	shellListItem:
 2028              	.LVL188:
 2029              	.LFB19:
 558:System/shell/shell.c ****     short spaceLength;
 2030              		.loc 1 558 1 is_stmt 1 view -0
 2031              		.cfi_startproc
 2032              		@ args = 0, pretend = 0, frame = 0
 2033              		@ frame_needed = 0, uses_anonymous_args = 0
 558:System/shell/shell.c ****     short spaceLength;
 2034              		.loc 1 558 1 is_stmt 0 view .LVU548
 2035 0000 70B5     		push	{r4, r5, r6, lr}
 2036              	.LCFI34:
 2037              		.cfi_def_cfa_offset 16
 2038              		.cfi_offset 4, -16
 2039              		.cfi_offset 5, -12
 2040              		.cfi_offset 6, -8
 2041              		.cfi_offset 14, -4
 2042 0002 0546     		mov	r5, r0
 2043 0004 0E46     		mov	r6, r1
 559:System/shell/shell.c **** 
 2044              		.loc 1 559 5 is_stmt 1 view .LVU549
 561:System/shell/shell.c ****     spaceLength = (spaceLength > 0) ? spaceLength : 4;
 2045              		.loc 1 561 5 view .LVU550
 561:System/shell/shell.c ****     spaceLength = (spaceLength > 0) ? spaceLength : 4;
 2046              		.loc 1 561 24 is_stmt 0 view .LVU551
 2047 0006 0846     		mov	r0, r1
 2048              	.LVL189:
 561:System/shell/shell.c ****     spaceLength = (spaceLength > 0) ? spaceLength : 4;
 2049              		.loc 1 561 24 view .LVU552
 2050 0008 FFF7FEFF 		bl	shellGetCommandName
 2051              	.LVL190:
 561:System/shell/shell.c ****     spaceLength = (spaceLength > 0) ? spaceLength : 4;
 2052              		.loc 1 561 24 view .LVU553
 2053 000c 0146     		mov	r1, r0
 2054 000e 2846     		mov	r0, r5
 2055 0010 FFF7FEFF 		bl	shellWriteString
 2056              	.LVL191:
 561:System/shell/shell.c ****     spaceLength = (spaceLength > 0) ? spaceLength : 4;
 2057              		.loc 1 561 22 view .LVU554
 2058 0014 C0F11604 		rsb	r4, r0, #22
 561:System/shell/shell.c ****     spaceLength = (spaceLength > 0) ? spaceLength : 4;
 2059              		.loc 1 561 17 view .LVU555
 2060 0018 24B2     		sxth	r4, r4
 2061              	.LVL192:
 562:System/shell/shell.c ****     do
 2062              		.loc 1 562 5 is_stmt 1 view .LVU556
 562:System/shell/shell.c ****     do
 2063              		.loc 1 562 17 is_stmt 0 view .LVU557
 2064 001a 002C     		cmp	r4, #0
 2065 001c 17DD     		ble	.L194
ARM GAS  C:\Users\8bit\AppData\Local\Temp\ccdhdvRO.s 			page 75


 2066              	.LVL193:
 2067              	.L186:
 563:System/shell/shell.c ****     {
 2068              		.loc 1 563 5 is_stmt 1 discriminator 1 view .LVU558
 565:System/shell/shell.c ****     } while (--spaceLength);
 2069              		.loc 1 565 9 discriminator 1 view .LVU559
 2070 001e 2D21     		movs	r1, #45
 2071 0020 2846     		mov	r0, r5
 2072 0022 FFF7FEFF 		bl	shellWriteByte
 2073              	.LVL194:
 566:System/shell/shell.c ****     if (item->attr.attrs.type <= SHELL_TYPE_CMD_FUNC)
 2074              		.loc 1 566 13 discriminator 1 view .LVU560
 566:System/shell/shell.c ****     if (item->attr.attrs.type <= SHELL_TYPE_CMD_FUNC)
 2075              		.loc 1 566 14 is_stmt 0 discriminator 1 view .LVU561
 2076 0026 013C     		subs	r4, r4, #1
 2077              	.LVL195:
 566:System/shell/shell.c ****     if (item->attr.attrs.type <= SHELL_TYPE_CMD_FUNC)
 2078              		.loc 1 566 5 discriminator 1 view .LVU562
 2079 0028 24B2     		sxth	r4, r4
 2080              	.LVL196:
 566:System/shell/shell.c ****     if (item->attr.attrs.type <= SHELL_TYPE_CMD_FUNC)
 2081              		.loc 1 566 5 discriminator 1 view .LVU563
 2082 002a 002C     		cmp	r4, #0
 2083 002c F7D1     		bne	.L186
 567:System/shell/shell.c ****     {
 2084              		.loc 1 567 5 is_stmt 1 view .LVU564
 567:System/shell/shell.c ****     {
 2085              		.loc 1 567 25 is_stmt 0 view .LVU565
 2086 002e 7378     		ldrb	r3, [r6, #1]	@ zero_extendqisi2
 2087 0030 03F00F03 		and	r3, r3, #15
 567:System/shell/shell.c ****     {
 2088              		.loc 1 567 8 view .LVU566
 2089 0034 012B     		cmp	r3, #1
 2090 0036 0CD9     		bls	.L195
 571:System/shell/shell.c ****     {
 2091              		.loc 1 571 10 is_stmt 1 view .LVU567
 571:System/shell/shell.c ****     {
 2092              		.loc 1 571 13 is_stmt 0 view .LVU568
 2093 0038 072B     		cmp	r3, #7
 2094 003a 0FD9     		bls	.L196
 575:System/shell/shell.c ****     {
 2095              		.loc 1 575 10 is_stmt 1 view .LVU569
 575:System/shell/shell.c ****     {
 2096              		.loc 1 575 13 is_stmt 0 view .LVU570
 2097 003c 082B     		cmp	r3, #8
 2098 003e 12D9     		bls	.L197
 579:System/shell/shell.c ****     {
 2099              		.loc 1 579 10 is_stmt 1 view .LVU571
 579:System/shell/shell.c ****     {
 2100              		.loc 1 579 13 is_stmt 0 view .LVU572
 2101 0040 092B     		cmp	r3, #9
 2102 0042 15D8     		bhi	.L191
 581:System/shell/shell.c ****     }
 2103              		.loc 1 581 9 is_stmt 1 view .LVU573
 2104 0044 0D49     		ldr	r1, .L198
 2105 0046 2846     		mov	r0, r5
 2106 0048 FFF7FEFF 		bl	shellWriteString
ARM GAS  C:\Users\8bit\AppData\Local\Temp\ccdhdvRO.s 			page 76


 2107              	.LVL197:
 2108 004c 05E0     		b	.L184
 2109              	.L194:
 562:System/shell/shell.c ****     do
 2110              		.loc 1 562 17 is_stmt 0 view .LVU574
 2111 004e 0424     		movs	r4, #4
 2112              	.LVL198:
 562:System/shell/shell.c ****     do
 2113              		.loc 1 562 17 view .LVU575
 2114 0050 E5E7     		b	.L186
 2115              	.LVL199:
 2116              	.L195:
 569:System/shell/shell.c ****     }
 2117              		.loc 1 569 9 is_stmt 1 view .LVU576
 2118 0052 0B49     		ldr	r1, .L198+4
 2119 0054 2846     		mov	r0, r5
 2120 0056 FFF7FEFF 		bl	shellWriteString
 2121              	.LVL200:
 2122              	.L184:
 597:System/shell/shell.c **** 
 2123              		.loc 1 597 1 is_stmt 0 view .LVU577
 2124 005a 70BD     		pop	{r4, r5, r6, pc}
 2125              	.LVL201:
 2126              	.L196:
 573:System/shell/shell.c ****     }
 2127              		.loc 1 573 9 is_stmt 1 view .LVU578
 2128 005c 0949     		ldr	r1, .L198+8
 2129 005e 2846     		mov	r0, r5
 2130 0060 FFF7FEFF 		bl	shellWriteString
 2131              	.LVL202:
 2132 0064 F9E7     		b	.L184
 2133              	.L197:
 577:System/shell/shell.c ****     }
 2134              		.loc 1 577 9 view .LVU579
 2135 0066 0849     		ldr	r1, .L198+12
 2136 0068 2846     		mov	r0, r5
 2137 006a FFF7FEFF 		bl	shellWriteString
 2138              	.LVL203:
 2139 006e F4E7     		b	.L184
 2140              	.L191:
 585:System/shell/shell.c ****     }
 2141              		.loc 1 585 9 view .LVU580
 2142 0070 0649     		ldr	r1, .L198+16
 2143 0072 2846     		mov	r0, r5
 2144 0074 FFF7FEFF 		bl	shellWriteString
 2145              	.LVL204:
 597:System/shell/shell.c **** 
 2146              		.loc 1 597 1 is_stmt 0 view .LVU581
 2147 0078 EFE7     		b	.L184
 2148              	.L199:
 2149 007a 00BF     		.align	2
 2150              	.L198:
 2151 007c 14000000 		.word	.LC14
 2152 0080 00000000 		.word	.LC11
 2153 0084 08000000 		.word	.LC12
 2154 0088 0C000000 		.word	.LC13
 2155 008c 18000000 		.word	.LC15
ARM GAS  C:\Users\8bit\AppData\Local\Temp\ccdhdvRO.s 			page 77


 2156              		.cfi_endproc
 2157              	.LFE19:
 2159              		.section	.rodata.shellListCommand.str1.4,"aMS",%progbits,1
 2160              		.align	2
 2161              	.LC16:
 2162 0000 0D0A436F 		.ascii	"\015\012Command List:\015\012\000"
 2162      6D6D616E 
 2162      64204C69 
 2162      73743A0D 
 2162      0A00
 2163              		.section	.text.shellListCommand,"ax",%progbits
 2164              		.align	1
 2165              		.global	shellListCommand
 2166              		.syntax unified
 2167              		.thumb
 2168              		.thumb_func
 2170              	shellListCommand:
 2171              	.LVL205:
 2172              	.LFB20:
 605:System/shell/shell.c ****     ShellCommand *base = (ShellCommand *)shell->commandList.base;
 2173              		.loc 1 605 1 is_stmt 1 view -0
 2174              		.cfi_startproc
 2175              		@ args = 0, pretend = 0, frame = 0
 2176              		@ frame_needed = 0, uses_anonymous_args = 0
 605:System/shell/shell.c ****     ShellCommand *base = (ShellCommand *)shell->commandList.base;
 2177              		.loc 1 605 1 is_stmt 0 view .LVU583
 2178 0000 F8B5     		push	{r3, r4, r5, r6, r7, lr}
 2179              	.LCFI35:
 2180              		.cfi_def_cfa_offset 24
 2181              		.cfi_offset 3, -24
 2182              		.cfi_offset 4, -20
 2183              		.cfi_offset 5, -16
 2184              		.cfi_offset 6, -12
 2185              		.cfi_offset 7, -8
 2186              		.cfi_offset 14, -4
 2187 0002 0646     		mov	r6, r0
 606:System/shell/shell.c ****     shellWriteString(shell, shellText[SHELL_TEXT_CMD_LIST]);
 2188              		.loc 1 606 5 is_stmt 1 view .LVU584
 606:System/shell/shell.c ****     shellWriteString(shell, shellText[SHELL_TEXT_CMD_LIST]);
 2189              		.loc 1 606 19 is_stmt 0 view .LVU585
 2190 0004 876D     		ldr	r7, [r0, #88]
 2191              	.LVL206:
 607:System/shell/shell.c ****     for (short i = 0; i < shell->commandList.count; i++)
 2192              		.loc 1 607 5 is_stmt 1 view .LVU586
 2193 0006 0F49     		ldr	r1, .L206
 2194 0008 FFF7FEFF 		bl	shellWriteString
 2195              	.LVL207:
 608:System/shell/shell.c ****     {
 2196              		.loc 1 608 5 view .LVU587
 2197              	.LBB10:
 608:System/shell/shell.c ****     {
 2198              		.loc 1 608 10 view .LVU588
 608:System/shell/shell.c ****     {
 2199              		.loc 1 608 16 is_stmt 0 view .LVU589
 2200 000c 0024     		movs	r4, #0
 608:System/shell/shell.c ****     {
 2201              		.loc 1 608 5 view .LVU590
ARM GAS  C:\Users\8bit\AppData\Local\Temp\ccdhdvRO.s 			page 78


 2202 000e 01E0     		b	.L201
 2203              	.LVL208:
 2204              	.L202:
 608:System/shell/shell.c ****     {
 2205              		.loc 1 608 53 is_stmt 1 discriminator 2 view .LVU591
 608:System/shell/shell.c ****     {
 2206              		.loc 1 608 54 is_stmt 0 discriminator 2 view .LVU592
 2207 0010 0134     		adds	r4, r4, #1
 2208              	.LVL209:
 608:System/shell/shell.c ****     {
 2209              		.loc 1 608 54 discriminator 2 view .LVU593
 2210 0012 24B2     		sxth	r4, r4
 2211              	.LVL210:
 2212              	.L201:
 608:System/shell/shell.c ****     {
 2213              		.loc 1 608 23 is_stmt 1 discriminator 1 view .LVU594
 608:System/shell/shell.c ****     {
 2214              		.loc 1 608 45 is_stmt 0 discriminator 1 view .LVU595
 2215 0014 B6F85C30 		ldrh	r3, [r6, #92]
 608:System/shell/shell.c ****     {
 2216              		.loc 1 608 5 discriminator 1 view .LVU596
 2217 0018 9C42     		cmp	r4, r3
 2218 001a 11DA     		bge	.L205
 610:System/shell/shell.c ****         {
 2219              		.loc 1 610 9 is_stmt 1 view .LVU597
 610:System/shell/shell.c ****         {
 2220              		.loc 1 610 17 is_stmt 0 view .LVU598
 2221 001c 07EB0415 		add	r5, r7, r4, lsl #4
 610:System/shell/shell.c ****         {
 2222              		.loc 1 610 31 view .LVU599
 2223 0020 6B78     		ldrb	r3, [r5, #1]	@ zero_extendqisi2
 2224 0022 03F00F03 		and	r3, r3, #15
 610:System/shell/shell.c ****         {
 2225              		.loc 1 610 12 view .LVU600
 2226 0026 012B     		cmp	r3, #1
 2227 0028 F2D8     		bhi	.L202
 610:System/shell/shell.c ****         {
 2228              		.loc 1 610 63 discriminator 1 view .LVU601
 2229 002a 2946     		mov	r1, r5
 2230 002c 3046     		mov	r0, r6
 2231 002e FFF7FEFF 		bl	shellCheckPermission
 2232              	.LVL211:
 610:System/shell/shell.c ****         {
 2233              		.loc 1 610 60 discriminator 1 view .LVU602
 2234 0032 0028     		cmp	r0, #0
 2235 0034 ECD1     		bne	.L202
 612:System/shell/shell.c ****         }
 2236              		.loc 1 612 13 is_stmt 1 view .LVU603
 2237 0036 2946     		mov	r1, r5
 2238 0038 3046     		mov	r0, r6
 2239 003a FFF7FEFF 		bl	shellListItem
 2240              	.LVL212:
 2241 003e E7E7     		b	.L202
 2242              	.L205:
 612:System/shell/shell.c ****         }
 2243              		.loc 1 612 13 is_stmt 0 view .LVU604
 2244              	.LBE10:
ARM GAS  C:\Users\8bit\AppData\Local\Temp\ccdhdvRO.s 			page 79


 615:System/shell/shell.c **** 
 2245              		.loc 1 615 1 view .LVU605
 2246 0040 F8BD     		pop	{r3, r4, r5, r6, r7, pc}
 2247              	.LVL213:
 2248              	.L207:
 615:System/shell/shell.c **** 
 2249              		.loc 1 615 1 view .LVU606
 2250 0042 00BF     		.align	2
 2251              	.L206:
 2252 0044 00000000 		.word	.LC16
 2253              		.cfi_endproc
 2254              	.LFE20:
 2256              		.section	.text.shellCmds,"ax",%progbits
 2257              		.align	1
 2258              		.global	shellCmds
 2259              		.syntax unified
 2260              		.thumb
 2261              		.thumb_func
 2263              	shellCmds:
 2264              	.LFB56:
1710:System/shell/shell.c ****     Shell *shell = shellGetCurrent();
 2265              		.loc 1 1710 1 is_stmt 1 view -0
 2266              		.cfi_startproc
 2267              		@ args = 0, pretend = 0, frame = 0
 2268              		@ frame_needed = 0, uses_anonymous_args = 0
 2269 0000 08B5     		push	{r3, lr}
 2270              	.LCFI36:
 2271              		.cfi_def_cfa_offset 8
 2272              		.cfi_offset 3, -8
 2273              		.cfi_offset 14, -4
1711:System/shell/shell.c ****     if (shell)
 2274              		.loc 1 1711 5 view .LVU608
1711:System/shell/shell.c ****     if (shell)
 2275              		.loc 1 1711 20 is_stmt 0 view .LVU609
 2276 0002 FFF7FEFF 		bl	shellGetCurrent
 2277              	.LVL214:
1712:System/shell/shell.c ****     {
 2278              		.loc 1 1712 5 is_stmt 1 view .LVU610
1712:System/shell/shell.c ****     {
 2279              		.loc 1 1712 8 is_stmt 0 view .LVU611
 2280 0006 08B1     		cbz	r0, .L208
1714:System/shell/shell.c ****     }
 2281              		.loc 1 1714 9 is_stmt 1 view .LVU612
 2282 0008 FFF7FEFF 		bl	shellListCommand
 2283              	.LVL215:
 2284              	.L208:
1716:System/shell/shell.c **** SHELL_EXPORT_CMD(
 2285              		.loc 1 1716 1 is_stmt 0 view .LVU613
 2286 000c 08BD     		pop	{r3, pc}
 2287              		.cfi_endproc
 2288              	.LFE56:
 2290              		.section	.rodata.shellListVar.str1.4,"aMS",%progbits,1
 2291              		.align	2
 2292              	.LC17:
 2293 0000 0D0A5661 		.ascii	"\015\012Var List:\015\012\000"
 2293      72204C69 
 2293      73743A0D 
ARM GAS  C:\Users\8bit\AppData\Local\Temp\ccdhdvRO.s 			page 80


 2293      0A00
 2294              		.section	.text.shellListVar,"ax",%progbits
 2295              		.align	1
 2296              		.global	shellListVar
 2297              		.syntax unified
 2298              		.thumb
 2299              		.thumb_func
 2301              	shellListVar:
 2302              	.LVL216:
 2303              	.LFB21:
 623:System/shell/shell.c ****     ShellCommand *base = (ShellCommand *)shell->commandList.base;
 2304              		.loc 1 623 1 is_stmt 1 view -0
 2305              		.cfi_startproc
 2306              		@ args = 0, pretend = 0, frame = 0
 2307              		@ frame_needed = 0, uses_anonymous_args = 0
 623:System/shell/shell.c ****     ShellCommand *base = (ShellCommand *)shell->commandList.base;
 2308              		.loc 1 623 1 is_stmt 0 view .LVU615
 2309 0000 F8B5     		push	{r3, r4, r5, r6, r7, lr}
 2310              	.LCFI37:
 2311              		.cfi_def_cfa_offset 24
 2312              		.cfi_offset 3, -24
 2313              		.cfi_offset 4, -20
 2314              		.cfi_offset 5, -16
 2315              		.cfi_offset 6, -12
 2316              		.cfi_offset 7, -8
 2317              		.cfi_offset 14, -4
 2318 0002 0646     		mov	r6, r0
 624:System/shell/shell.c ****     shellWriteString(shell, shellText[SHELL_TEXT_VAR_LIST]);
 2319              		.loc 1 624 5 is_stmt 1 view .LVU616
 624:System/shell/shell.c ****     shellWriteString(shell, shellText[SHELL_TEXT_VAR_LIST]);
 2320              		.loc 1 624 19 is_stmt 0 view .LVU617
 2321 0004 876D     		ldr	r7, [r0, #88]
 2322              	.LVL217:
 625:System/shell/shell.c ****     for (short i = 0; i < shell->commandList.count; i++)
 2323              		.loc 1 625 5 is_stmt 1 view .LVU618
 2324 0006 1049     		ldr	r1, .L217
 2325 0008 FFF7FEFF 		bl	shellWriteString
 2326              	.LVL218:
 626:System/shell/shell.c ****     {
 2327              		.loc 1 626 5 view .LVU619
 2328              	.LBB11:
 626:System/shell/shell.c ****     {
 2329              		.loc 1 626 10 view .LVU620
 626:System/shell/shell.c ****     {
 2330              		.loc 1 626 16 is_stmt 0 view .LVU621
 2331 000c 0024     		movs	r4, #0
 626:System/shell/shell.c ****     {
 2332              		.loc 1 626 5 view .LVU622
 2333 000e 01E0     		b	.L212
 2334              	.LVL219:
 2335              	.L213:
 626:System/shell/shell.c ****     {
 2336              		.loc 1 626 53 is_stmt 1 discriminator 2 view .LVU623
 626:System/shell/shell.c ****     {
 2337              		.loc 1 626 54 is_stmt 0 discriminator 2 view .LVU624
 2338 0010 0134     		adds	r4, r4, #1
 2339              	.LVL220:
ARM GAS  C:\Users\8bit\AppData\Local\Temp\ccdhdvRO.s 			page 81


 626:System/shell/shell.c ****     {
 2340              		.loc 1 626 54 discriminator 2 view .LVU625
 2341 0012 24B2     		sxth	r4, r4
 2342              	.LVL221:
 2343              	.L212:
 626:System/shell/shell.c ****     {
 2344              		.loc 1 626 23 is_stmt 1 discriminator 1 view .LVU626
 626:System/shell/shell.c ****     {
 2345              		.loc 1 626 45 is_stmt 0 discriminator 1 view .LVU627
 2346 0014 B6F85C30 		ldrh	r3, [r6, #92]
 626:System/shell/shell.c ****     {
 2347              		.loc 1 626 5 discriminator 1 view .LVU628
 2348 0018 9C42     		cmp	r4, r3
 2349 001a 14DA     		bge	.L216
 628:System/shell/shell.c ****         {
 2350              		.loc 1 628 9 is_stmt 1 view .LVU629
 628:System/shell/shell.c ****         {
 2351              		.loc 1 628 17 is_stmt 0 view .LVU630
 2352 001c 07EB0415 		add	r5, r7, r4, lsl #4
 628:System/shell/shell.c ****         {
 2353              		.loc 1 628 31 view .LVU631
 2354 0020 6B78     		ldrb	r3, [r5, #1]	@ zero_extendqisi2
 2355 0022 03F00F03 		and	r3, r3, #15
 628:System/shell/shell.c ****         {
 2356              		.loc 1 628 59 view .LVU632
 2357 0026 0E33     		adds	r3, r3, #14
 2358 0028 03F00F03 		and	r3, r3, #15
 628:System/shell/shell.c ****         {
 2359              		.loc 1 628 12 view .LVU633
 2360 002c 052B     		cmp	r3, #5
 2361 002e EFD8     		bhi	.L213
 628:System/shell/shell.c ****         {
 2362              		.loc 1 628 112 discriminator 1 view .LVU634
 2363 0030 2946     		mov	r1, r5
 2364 0032 3046     		mov	r0, r6
 2365 0034 FFF7FEFF 		bl	shellCheckPermission
 2366              	.LVL222:
 628:System/shell/shell.c ****         {
 2367              		.loc 1 628 109 discriminator 1 view .LVU635
 2368 0038 0028     		cmp	r0, #0
 2369 003a E9D1     		bne	.L213
 630:System/shell/shell.c ****         }
 2370              		.loc 1 630 13 is_stmt 1 view .LVU636
 2371 003c 2946     		mov	r1, r5
 2372 003e 3046     		mov	r0, r6
 2373 0040 FFF7FEFF 		bl	shellListItem
 2374              	.LVL223:
 2375 0044 E4E7     		b	.L213
 2376              	.L216:
 630:System/shell/shell.c ****         }
 2377              		.loc 1 630 13 is_stmt 0 view .LVU637
 2378              	.LBE11:
 633:System/shell/shell.c **** 
 2379              		.loc 1 633 1 view .LVU638
 2380 0046 F8BD     		pop	{r3, r4, r5, r6, r7, pc}
 2381              	.LVL224:
 2382              	.L218:
ARM GAS  C:\Users\8bit\AppData\Local\Temp\ccdhdvRO.s 			page 82


 633:System/shell/shell.c **** 
 2383              		.loc 1 633 1 view .LVU639
 2384              		.align	2
 2385              	.L217:
 2386 0048 00000000 		.word	.LC17
 2387              		.cfi_endproc
 2388              	.LFE21:
 2390              		.section	.text.shellVars,"ax",%progbits
 2391              		.align	1
 2392              		.global	shellVars
 2393              		.syntax unified
 2394              		.thumb
 2395              		.thumb_func
 2397              	shellVars:
 2398              	.LFB57:
1725:System/shell/shell.c ****     Shell *shell = shellGetCurrent();
 2399              		.loc 1 1725 1 is_stmt 1 view -0
 2400              		.cfi_startproc
 2401              		@ args = 0, pretend = 0, frame = 0
 2402              		@ frame_needed = 0, uses_anonymous_args = 0
 2403 0000 08B5     		push	{r3, lr}
 2404              	.LCFI38:
 2405              		.cfi_def_cfa_offset 8
 2406              		.cfi_offset 3, -8
 2407              		.cfi_offset 14, -4
1726:System/shell/shell.c ****     if (shell)
 2408              		.loc 1 1726 5 view .LVU641
1726:System/shell/shell.c ****     if (shell)
 2409              		.loc 1 1726 20 is_stmt 0 view .LVU642
 2410 0002 FFF7FEFF 		bl	shellGetCurrent
 2411              	.LVL225:
1727:System/shell/shell.c ****     {
 2412              		.loc 1 1727 5 is_stmt 1 view .LVU643
1727:System/shell/shell.c ****     {
 2413              		.loc 1 1727 8 is_stmt 0 view .LVU644
 2414 0006 08B1     		cbz	r0, .L219
1729:System/shell/shell.c ****     }
 2415              		.loc 1 1729 9 is_stmt 1 view .LVU645
 2416 0008 FFF7FEFF 		bl	shellListVar
 2417              	.LVL226:
 2418              	.L219:
1731:System/shell/shell.c **** SHELL_EXPORT_CMD(
 2419              		.loc 1 1731 1 is_stmt 0 view .LVU646
 2420 000c 08BD     		pop	{r3, pc}
 2421              		.cfi_endproc
 2422              	.LFE57:
 2424              		.section	.rodata.shellListUser.str1.4,"aMS",%progbits,1
 2425              		.align	2
 2426              	.LC18:
 2427 0000 0D0A5573 		.ascii	"\015\012User List:\015\012\000"
 2427      6572204C 
 2427      6973743A 
 2427      0D0A00
 2428              		.section	.text.shellListUser,"ax",%progbits
 2429              		.align	1
 2430              		.global	shellListUser
 2431              		.syntax unified
ARM GAS  C:\Users\8bit\AppData\Local\Temp\ccdhdvRO.s 			page 83


 2432              		.thumb
 2433              		.thumb_func
 2435              	shellListUser:
 2436              	.LVL227:
 2437              	.LFB22:
 641:System/shell/shell.c ****     ShellCommand *base = (ShellCommand *)shell->commandList.base;
 2438              		.loc 1 641 1 is_stmt 1 view -0
 2439              		.cfi_startproc
 2440              		@ args = 0, pretend = 0, frame = 0
 2441              		@ frame_needed = 0, uses_anonymous_args = 0
 641:System/shell/shell.c ****     ShellCommand *base = (ShellCommand *)shell->commandList.base;
 2442              		.loc 1 641 1 is_stmt 0 view .LVU648
 2443 0000 F8B5     		push	{r3, r4, r5, r6, r7, lr}
 2444              	.LCFI39:
 2445              		.cfi_def_cfa_offset 24
 2446              		.cfi_offset 3, -24
 2447              		.cfi_offset 4, -20
 2448              		.cfi_offset 5, -16
 2449              		.cfi_offset 6, -12
 2450              		.cfi_offset 7, -8
 2451              		.cfi_offset 14, -4
 2452 0002 0646     		mov	r6, r0
 642:System/shell/shell.c ****     shellWriteString(shell, shellText[SHELL_TEXT_USER_LIST]);
 2453              		.loc 1 642 5 is_stmt 1 view .LVU649
 642:System/shell/shell.c ****     shellWriteString(shell, shellText[SHELL_TEXT_USER_LIST]);
 2454              		.loc 1 642 19 is_stmt 0 view .LVU650
 2455 0004 876D     		ldr	r7, [r0, #88]
 2456              	.LVL228:
 643:System/shell/shell.c ****     for (short i = 0; i < shell->commandList.count; i++)
 2457              		.loc 1 643 5 is_stmt 1 view .LVU651
 2458 0006 0F49     		ldr	r1, .L228
 2459 0008 FFF7FEFF 		bl	shellWriteString
 2460              	.LVL229:
 644:System/shell/shell.c ****     {
 2461              		.loc 1 644 5 view .LVU652
 2462              	.LBB12:
 644:System/shell/shell.c ****     {
 2463              		.loc 1 644 10 view .LVU653
 644:System/shell/shell.c ****     {
 2464              		.loc 1 644 16 is_stmt 0 view .LVU654
 2465 000c 0024     		movs	r4, #0
 644:System/shell/shell.c ****     {
 2466              		.loc 1 644 5 view .LVU655
 2467 000e 01E0     		b	.L223
 2468              	.LVL230:
 2469              	.L224:
 644:System/shell/shell.c ****     {
 2470              		.loc 1 644 53 is_stmt 1 discriminator 2 view .LVU656
 644:System/shell/shell.c ****     {
 2471              		.loc 1 644 54 is_stmt 0 discriminator 2 view .LVU657
 2472 0010 0134     		adds	r4, r4, #1
 2473              	.LVL231:
 644:System/shell/shell.c ****     {
 2474              		.loc 1 644 54 discriminator 2 view .LVU658
 2475 0012 24B2     		sxth	r4, r4
 2476              	.LVL232:
 2477              	.L223:
ARM GAS  C:\Users\8bit\AppData\Local\Temp\ccdhdvRO.s 			page 84


 644:System/shell/shell.c ****     {
 2478              		.loc 1 644 23 is_stmt 1 discriminator 1 view .LVU659
 644:System/shell/shell.c ****     {
 2479              		.loc 1 644 45 is_stmt 0 discriminator 1 view .LVU660
 2480 0014 B6F85C30 		ldrh	r3, [r6, #92]
 644:System/shell/shell.c ****     {
 2481              		.loc 1 644 5 discriminator 1 view .LVU661
 2482 0018 9C42     		cmp	r4, r3
 2483 001a 11DA     		bge	.L227
 646:System/shell/shell.c ****         {
 2484              		.loc 1 646 9 is_stmt 1 view .LVU662
 646:System/shell/shell.c ****         {
 2485              		.loc 1 646 17 is_stmt 0 view .LVU663
 2486 001c 07EB0415 		add	r5, r7, r4, lsl #4
 646:System/shell/shell.c ****         {
 2487              		.loc 1 646 59 view .LVU664
 2488 0020 6B78     		ldrb	r3, [r5, #1]	@ zero_extendqisi2
 2489 0022 03F00F03 		and	r3, r3, #15
 646:System/shell/shell.c ****         {
 2490              		.loc 1 646 12 view .LVU665
 2491 0026 082B     		cmp	r3, #8
 2492 0028 F2D1     		bne	.L224
 646:System/shell/shell.c ****         {
 2493              		.loc 1 646 108 discriminator 1 view .LVU666
 2494 002a 2946     		mov	r1, r5
 2495 002c 3046     		mov	r0, r6
 2496 002e FFF7FEFF 		bl	shellCheckPermission
 2497              	.LVL233:
 646:System/shell/shell.c ****         {
 2498              		.loc 1 646 105 discriminator 1 view .LVU667
 2499 0032 0028     		cmp	r0, #0
 2500 0034 ECD1     		bne	.L224
 648:System/shell/shell.c ****         }
 2501              		.loc 1 648 13 is_stmt 1 view .LVU668
 2502 0036 2946     		mov	r1, r5
 2503 0038 3046     		mov	r0, r6
 2504 003a FFF7FEFF 		bl	shellListItem
 2505              	.LVL234:
 2506 003e E7E7     		b	.L224
 2507              	.L227:
 648:System/shell/shell.c ****         }
 2508              		.loc 1 648 13 is_stmt 0 view .LVU669
 2509              	.LBE12:
 651:System/shell/shell.c **** 
 2510              		.loc 1 651 1 view .LVU670
 2511 0040 F8BD     		pop	{r3, r4, r5, r6, r7, pc}
 2512              	.LVL235:
 2513              	.L229:
 651:System/shell/shell.c **** 
 2514              		.loc 1 651 1 view .LVU671
 2515 0042 00BF     		.align	2
 2516              	.L228:
 2517 0044 00000000 		.word	.LC18
 2518              		.cfi_endproc
 2519              	.LFE22:
 2521              		.section	.text.shellUsers,"ax",%progbits
 2522              		.align	1
ARM GAS  C:\Users\8bit\AppData\Local\Temp\ccdhdvRO.s 			page 85


 2523              		.global	shellUsers
 2524              		.syntax unified
 2525              		.thumb
 2526              		.thumb_func
 2528              	shellUsers:
 2529              	.LFB55:
1695:System/shell/shell.c ****     Shell *shell = shellGetCurrent();
 2530              		.loc 1 1695 1 is_stmt 1 view -0
 2531              		.cfi_startproc
 2532              		@ args = 0, pretend = 0, frame = 0
 2533              		@ frame_needed = 0, uses_anonymous_args = 0
 2534 0000 08B5     		push	{r3, lr}
 2535              	.LCFI40:
 2536              		.cfi_def_cfa_offset 8
 2537              		.cfi_offset 3, -8
 2538              		.cfi_offset 14, -4
1696:System/shell/shell.c ****     if (shell)
 2539              		.loc 1 1696 5 view .LVU673
1696:System/shell/shell.c ****     if (shell)
 2540              		.loc 1 1696 20 is_stmt 0 view .LVU674
 2541 0002 FFF7FEFF 		bl	shellGetCurrent
 2542              	.LVL236:
1697:System/shell/shell.c ****     {
 2543              		.loc 1 1697 5 is_stmt 1 view .LVU675
1697:System/shell/shell.c ****     {
 2544              		.loc 1 1697 8 is_stmt 0 view .LVU676
 2545 0006 08B1     		cbz	r0, .L230
1699:System/shell/shell.c ****     }
 2546              		.loc 1 1699 9 is_stmt 1 view .LVU677
 2547 0008 FFF7FEFF 		bl	shellListUser
 2548              	.LVL237:
 2549              	.L230:
1701:System/shell/shell.c **** SHELL_EXPORT_CMD(
 2550              		.loc 1 1701 1 is_stmt 0 view .LVU678
 2551 000c 08BD     		pop	{r3, pc}
 2552              		.cfi_endproc
 2553              	.LFE55:
 2555              		.section	.rodata.shellListKey.str1.4,"aMS",%progbits,1
 2556              		.align	2
 2557              	.LC19:
 2558 0000 0D0A4B65 		.ascii	"\015\012Key List:\015\012\000"
 2558      79204C69 
 2558      73743A0D 
 2558      0A00
 2559              		.section	.text.shellListKey,"ax",%progbits
 2560              		.align	1
 2561              		.global	shellListKey
 2562              		.syntax unified
 2563              		.thumb
 2564              		.thumb_func
 2566              	shellListKey:
 2567              	.LVL238:
 2568              	.LFB23:
 659:System/shell/shell.c ****     ShellCommand *base = (ShellCommand *)shell->commandList.base;
 2569              		.loc 1 659 1 is_stmt 1 view -0
 2570              		.cfi_startproc
 2571              		@ args = 0, pretend = 0, frame = 0
ARM GAS  C:\Users\8bit\AppData\Local\Temp\ccdhdvRO.s 			page 86


 2572              		@ frame_needed = 0, uses_anonymous_args = 0
 659:System/shell/shell.c ****     ShellCommand *base = (ShellCommand *)shell->commandList.base;
 2573              		.loc 1 659 1 is_stmt 0 view .LVU680
 2574 0000 F8B5     		push	{r3, r4, r5, r6, r7, lr}
 2575              	.LCFI41:
 2576              		.cfi_def_cfa_offset 24
 2577              		.cfi_offset 3, -24
 2578              		.cfi_offset 4, -20
 2579              		.cfi_offset 5, -16
 2580              		.cfi_offset 6, -12
 2581              		.cfi_offset 7, -8
 2582              		.cfi_offset 14, -4
 2583 0002 0646     		mov	r6, r0
 660:System/shell/shell.c ****     shellWriteString(shell, shellText[SHELL_TEXT_KEY_LIST]);
 2584              		.loc 1 660 5 is_stmt 1 view .LVU681
 660:System/shell/shell.c ****     shellWriteString(shell, shellText[SHELL_TEXT_KEY_LIST]);
 2585              		.loc 1 660 19 is_stmt 0 view .LVU682
 2586 0004 876D     		ldr	r7, [r0, #88]
 2587              	.LVL239:
 661:System/shell/shell.c ****     for (short i = 0; i < shell->commandList.count; i++)
 2588              		.loc 1 661 5 is_stmt 1 view .LVU683
 2589 0006 0F49     		ldr	r1, .L239
 2590 0008 FFF7FEFF 		bl	shellWriteString
 2591              	.LVL240:
 662:System/shell/shell.c ****     {
 2592              		.loc 1 662 5 view .LVU684
 2593              	.LBB13:
 662:System/shell/shell.c ****     {
 2594              		.loc 1 662 10 view .LVU685
 662:System/shell/shell.c ****     {
 2595              		.loc 1 662 16 is_stmt 0 view .LVU686
 2596 000c 0024     		movs	r4, #0
 662:System/shell/shell.c ****     {
 2597              		.loc 1 662 5 view .LVU687
 2598 000e 01E0     		b	.L234
 2599              	.LVL241:
 2600              	.L235:
 662:System/shell/shell.c ****     {
 2601              		.loc 1 662 53 is_stmt 1 discriminator 2 view .LVU688
 662:System/shell/shell.c ****     {
 2602              		.loc 1 662 54 is_stmt 0 discriminator 2 view .LVU689
 2603 0010 0134     		adds	r4, r4, #1
 2604              	.LVL242:
 662:System/shell/shell.c ****     {
 2605              		.loc 1 662 54 discriminator 2 view .LVU690
 2606 0012 24B2     		sxth	r4, r4
 2607              	.LVL243:
 2608              	.L234:
 662:System/shell/shell.c ****     {
 2609              		.loc 1 662 23 is_stmt 1 discriminator 1 view .LVU691
 662:System/shell/shell.c ****     {
 2610              		.loc 1 662 45 is_stmt 0 discriminator 1 view .LVU692
 2611 0014 B6F85C30 		ldrh	r3, [r6, #92]
 662:System/shell/shell.c ****     {
 2612              		.loc 1 662 5 discriminator 1 view .LVU693
 2613 0018 9C42     		cmp	r4, r3
 2614 001a 11DA     		bge	.L238
ARM GAS  C:\Users\8bit\AppData\Local\Temp\ccdhdvRO.s 			page 87


 664:System/shell/shell.c ****         {
 2615              		.loc 1 664 9 is_stmt 1 view .LVU694
 664:System/shell/shell.c ****         {
 2616              		.loc 1 664 17 is_stmt 0 view .LVU695
 2617 001c 07EB0415 		add	r5, r7, r4, lsl #4
 664:System/shell/shell.c ****         {
 2618              		.loc 1 664 55 view .LVU696
 2619 0020 6B78     		ldrb	r3, [r5, #1]	@ zero_extendqisi2
 2620 0022 03F00F03 		and	r3, r3, #15
 664:System/shell/shell.c ****         {
 2621              		.loc 1 664 12 view .LVU697
 2622 0026 092B     		cmp	r3, #9
 2623 0028 F2D1     		bne	.L235
 664:System/shell/shell.c ****         {
 2624              		.loc 1 664 103 discriminator 1 view .LVU698
 2625 002a 2946     		mov	r1, r5
 2626 002c 3046     		mov	r0, r6
 2627 002e FFF7FEFF 		bl	shellCheckPermission
 2628              	.LVL244:
 664:System/shell/shell.c ****         {
 2629              		.loc 1 664 100 discriminator 1 view .LVU699
 2630 0032 0028     		cmp	r0, #0
 2631 0034 ECD1     		bne	.L235
 666:System/shell/shell.c ****         }
 2632              		.loc 1 666 13 is_stmt 1 view .LVU700
 2633 0036 2946     		mov	r1, r5
 2634 0038 3046     		mov	r0, r6
 2635 003a FFF7FEFF 		bl	shellListItem
 2636              	.LVL245:
 2637 003e E7E7     		b	.L235
 2638              	.L238:
 666:System/shell/shell.c ****         }
 2639              		.loc 1 666 13 is_stmt 0 view .LVU701
 2640              	.LBE13:
 669:System/shell/shell.c **** 
 2641              		.loc 1 669 1 view .LVU702
 2642 0040 F8BD     		pop	{r3, r4, r5, r6, r7, pc}
 2643              	.LVL246:
 2644              	.L240:
 669:System/shell/shell.c **** 
 2645              		.loc 1 669 1 view .LVU703
 2646 0042 00BF     		.align	2
 2647              	.L239:
 2648 0044 00000000 		.word	.LC19
 2649              		.cfi_endproc
 2650              	.LFE23:
 2652              		.section	.text.shellKeys,"ax",%progbits
 2653              		.align	1
 2654              		.global	shellKeys
 2655              		.syntax unified
 2656              		.thumb
 2657              		.thumb_func
 2659              	shellKeys:
 2660              	.LFB58:
1740:System/shell/shell.c ****     Shell *shell = shellGetCurrent();
 2661              		.loc 1 1740 1 is_stmt 1 view -0
 2662              		.cfi_startproc
ARM GAS  C:\Users\8bit\AppData\Local\Temp\ccdhdvRO.s 			page 88


 2663              		@ args = 0, pretend = 0, frame = 0
 2664              		@ frame_needed = 0, uses_anonymous_args = 0
 2665 0000 08B5     		push	{r3, lr}
 2666              	.LCFI42:
 2667              		.cfi_def_cfa_offset 8
 2668              		.cfi_offset 3, -8
 2669              		.cfi_offset 14, -4
1741:System/shell/shell.c ****     if (shell)
 2670              		.loc 1 1741 5 view .LVU705
1741:System/shell/shell.c ****     if (shell)
 2671              		.loc 1 1741 20 is_stmt 0 view .LVU706
 2672 0002 FFF7FEFF 		bl	shellGetCurrent
 2673              	.LVL247:
1742:System/shell/shell.c ****     {
 2674              		.loc 1 1742 5 is_stmt 1 view .LVU707
1742:System/shell/shell.c ****     {
 2675              		.loc 1 1742 8 is_stmt 0 view .LVU708
 2676 0006 08B1     		cbz	r0, .L241
1744:System/shell/shell.c ****     }
 2677              		.loc 1 1744 9 is_stmt 1 view .LVU709
 2678 0008 FFF7FEFF 		bl	shellListKey
 2679              	.LVL248:
 2680              	.L241:
1746:System/shell/shell.c **** SHELL_EXPORT_CMD(
 2681              		.loc 1 1746 1 is_stmt 0 view .LVU710
 2682 000c 08BD     		pop	{r3, pc}
 2683              		.cfi_endproc
 2684              	.LFE58:
 2686              		.section	.text.shellListAll,"ax",%progbits
 2687              		.align	1
 2688              		.global	shellListAll
 2689              		.syntax unified
 2690              		.thumb
 2691              		.thumb_func
 2693              	shellListAll:
 2694              	.LVL249:
 2695              	.LFB24:
 677:System/shell/shell.c **** #if SHELL_HELP_LIST_USER == 1
 2696              		.loc 1 677 1 is_stmt 1 view -0
 2697              		.cfi_startproc
 2698              		@ args = 0, pretend = 0, frame = 0
 2699              		@ frame_needed = 0, uses_anonymous_args = 0
 677:System/shell/shell.c **** #if SHELL_HELP_LIST_USER == 1
 2700              		.loc 1 677 1 is_stmt 0 view .LVU712
 2701 0000 08B5     		push	{r3, lr}
 2702              	.LCFI43:
 2703              		.cfi_def_cfa_offset 8
 2704              		.cfi_offset 3, -8
 2705              		.cfi_offset 14, -4
 681:System/shell/shell.c **** #if SHELL_HELP_LIST_VAR == 1
 2706              		.loc 1 681 5 is_stmt 1 view .LVU713
 2707 0002 FFF7FEFF 		bl	shellListCommand
 2708              	.LVL250:
 688:System/shell/shell.c **** 
 2709              		.loc 1 688 1 is_stmt 0 view .LVU714
 2710 0006 08BD     		pop	{r3, pc}
 2711              		.cfi_endproc
ARM GAS  C:\Users\8bit\AppData\Local\Temp\ccdhdvRO.s 			page 89


 2712              	.LFE24:
 2714              		.section	.rodata.shellDeleteCommandLine.str1.4,"aMS",%progbits,1
 2715              		.align	2
 2716              	.LC20:
 2717 0000 08200800 		.ascii	"\010 \010\000"
 2718              		.section	.text.shellDeleteCommandLine,"ax",%progbits
 2719              		.align	1
 2720              		.global	shellDeleteCommandLine
 2721              		.syntax unified
 2722              		.thumb
 2723              		.thumb_func
 2725              	shellDeleteCommandLine:
 2726              	.LVL251:
 2727              	.LFB25:
 697:System/shell/shell.c ****     while (length--)
 2728              		.loc 1 697 1 is_stmt 1 view -0
 2729              		.cfi_startproc
 2730              		@ args = 0, pretend = 0, frame = 0
 2731              		@ frame_needed = 0, uses_anonymous_args = 0
 697:System/shell/shell.c ****     while (length--)
 2732              		.loc 1 697 1 is_stmt 0 view .LVU716
 2733 0000 38B5     		push	{r3, r4, r5, lr}
 2734              	.LCFI44:
 2735              		.cfi_def_cfa_offset 16
 2736              		.cfi_offset 3, -16
 2737              		.cfi_offset 4, -12
 2738              		.cfi_offset 5, -8
 2739              		.cfi_offset 14, -4
 2740 0002 0546     		mov	r5, r0
 698:System/shell/shell.c ****     {
 2741              		.loc 1 698 5 is_stmt 1 view .LVU717
 698:System/shell/shell.c ****     {
 2742              		.loc 1 698 11 is_stmt 0 view .LVU718
 2743 0004 04E0     		b	.L247
 2744              	.LVL252:
 2745              	.L248:
 700:System/shell/shell.c ****     }
 2746              		.loc 1 700 9 is_stmt 1 view .LVU719
 2747 0006 0549     		ldr	r1, .L250
 2748 0008 2846     		mov	r0, r5
 2749 000a FFF7FEFF 		bl	shellWriteString
 2750              	.LVL253:
 698:System/shell/shell.c ****     {
 2751              		.loc 1 698 18 is_stmt 0 view .LVU720
 2752 000e 2146     		mov	r1, r4
 2753              	.LVL254:
 2754              	.L247:
 698:System/shell/shell.c ****     {
 2755              		.loc 1 698 11 is_stmt 1 view .LVU721
 698:System/shell/shell.c ****     {
 2756              		.loc 1 698 18 is_stmt 0 view .LVU722
 2757 0010 4B1E     		subs	r3, r1, #1
 2758 0012 DCB2     		uxtb	r4, r3
 2759              	.LVL255:
 698:System/shell/shell.c ****     {
 2760              		.loc 1 698 11 view .LVU723
 2761 0014 0029     		cmp	r1, #0
ARM GAS  C:\Users\8bit\AppData\Local\Temp\ccdhdvRO.s 			page 90


 2762 0016 F6D1     		bne	.L248
 702:System/shell/shell.c **** 
 2763              		.loc 1 702 1 view .LVU724
 2764 0018 38BD     		pop	{r3, r4, r5, pc}
 2765              	.LVL256:
 2766              	.L251:
 702:System/shell/shell.c **** 
 2767              		.loc 1 702 1 view .LVU725
 2768 001a 00BF     		.align	2
 2769              	.L250:
 2770 001c 00000000 		.word	.LC20
 2771              		.cfi_endproc
 2772              	.LFE25:
 2774              		.section	.text.shellClearCommandLine,"ax",%progbits
 2775              		.align	1
 2776              		.global	shellClearCommandLine
 2777              		.syntax unified
 2778              		.thumb
 2779              		.thumb_func
 2781              	shellClearCommandLine:
 2782              	.LVL257:
 2783              	.LFB26:
 710:System/shell/shell.c ****     for (short i = shell->parser.length - shell->parser.cursor; i > 0; i--)
 2784              		.loc 1 710 1 is_stmt 1 view -0
 2785              		.cfi_startproc
 2786              		@ args = 0, pretend = 0, frame = 0
 2787              		@ frame_needed = 0, uses_anonymous_args = 0
 710:System/shell/shell.c ****     for (short i = shell->parser.length - shell->parser.cursor; i > 0; i--)
 2788              		.loc 1 710 1 is_stmt 0 view .LVU727
 2789 0000 38B5     		push	{r3, r4, r5, lr}
 2790              	.LCFI45:
 2791              		.cfi_def_cfa_offset 16
 2792              		.cfi_offset 3, -16
 2793              		.cfi_offset 4, -12
 2794              		.cfi_offset 5, -8
 2795              		.cfi_offset 14, -4
 2796 0002 0546     		mov	r5, r0
 711:System/shell/shell.c ****     {
 2797              		.loc 1 711 5 is_stmt 1 view .LVU728
 2798              	.LBB14:
 711:System/shell/shell.c ****     {
 2799              		.loc 1 711 10 view .LVU729
 711:System/shell/shell.c ****     {
 2800              		.loc 1 711 33 is_stmt 0 view .LVU730
 2801 0004 8489     		ldrh	r4, [r0, #12]
 711:System/shell/shell.c ****     {
 2802              		.loc 1 711 56 view .LVU731
 2803 0006 C389     		ldrh	r3, [r0, #14]
 711:System/shell/shell.c ****     {
 2804              		.loc 1 711 41 view .LVU732
 2805 0008 E41A     		subs	r4, r4, r3
 711:System/shell/shell.c ****     {
 2806              		.loc 1 711 16 view .LVU733
 2807 000a 24B2     		sxth	r4, r4
 2808              	.LVL258:
 711:System/shell/shell.c ****     {
 2809              		.loc 1 711 5 view .LVU734
ARM GAS  C:\Users\8bit\AppData\Local\Temp\ccdhdvRO.s 			page 91


 2810 000c 05E0     		b	.L253
 2811              	.LVL259:
 2812              	.L254:
 713:System/shell/shell.c ****     }
 2813              		.loc 1 713 9 is_stmt 1 discriminator 3 view .LVU735
 2814 000e 2021     		movs	r1, #32
 2815 0010 2846     		mov	r0, r5
 2816 0012 FFF7FEFF 		bl	shellWriteByte
 2817              	.LVL260:
 711:System/shell/shell.c ****     {
 2818              		.loc 1 711 72 discriminator 3 view .LVU736
 711:System/shell/shell.c ****     {
 2819              		.loc 1 711 73 is_stmt 0 discriminator 3 view .LVU737
 2820 0016 013C     		subs	r4, r4, #1
 2821              	.LVL261:
 711:System/shell/shell.c ****     {
 2822              		.loc 1 711 73 discriminator 3 view .LVU738
 2823 0018 24B2     		sxth	r4, r4
 2824              	.LVL262:
 2825              	.L253:
 711:System/shell/shell.c ****     {
 2826              		.loc 1 711 65 is_stmt 1 discriminator 1 view .LVU739
 711:System/shell/shell.c ****     {
 2827              		.loc 1 711 5 is_stmt 0 discriminator 1 view .LVU740
 2828 001a 002C     		cmp	r4, #0
 2829 001c F7DC     		bgt	.L254
 711:System/shell/shell.c ****     {
 2830              		.loc 1 711 5 discriminator 1 view .LVU741
 2831              	.LBE14:
 715:System/shell/shell.c **** }
 2832              		.loc 1 715 5 is_stmt 1 view .LVU742
 2833 001e 297B     		ldrb	r1, [r5, #12]	@ zero_extendqisi2
 2834 0020 2846     		mov	r0, r5
 2835 0022 FFF7FEFF 		bl	shellDeleteCommandLine
 2836              	.LVL263:
 716:System/shell/shell.c **** 
 2837              		.loc 1 716 1 is_stmt 0 view .LVU743
 2838 0026 38BD     		pop	{r3, r4, r5, pc}
 716:System/shell/shell.c **** 
 2839              		.loc 1 716 1 view .LVU744
 2840              		.cfi_endproc
 2841              	.LFE26:
 2843              		.section	.text.shellHistory,"ax",%progbits
 2844              		.align	1
 2845              		.syntax unified
 2846              		.thumb
 2847              		.thumb_func
 2849              	shellHistory:
 2850              	.LVL264:
 2851              	.LFB41:
1239:System/shell/shell.c ****     if (dir > 0)
 2852              		.loc 1 1239 1 is_stmt 1 view -0
 2853              		.cfi_startproc
 2854              		@ args = 0, pretend = 0, frame = 0
 2855              		@ frame_needed = 0, uses_anonymous_args = 0
1239:System/shell/shell.c ****     if (dir > 0)
 2856              		.loc 1 1239 1 is_stmt 0 view .LVU746
ARM GAS  C:\Users\8bit\AppData\Local\Temp\ccdhdvRO.s 			page 92


 2857 0000 10B5     		push	{r4, lr}
 2858              	.LCFI46:
 2859              		.cfi_def_cfa_offset 8
 2860              		.cfi_offset 4, -8
 2861              		.cfi_offset 14, -4
 2862 0002 0446     		mov	r4, r0
1240:System/shell/shell.c ****     {
 2863              		.loc 1 1240 5 is_stmt 1 view .LVU747
1240:System/shell/shell.c ****     {
 2864              		.loc 1 1240 8 is_stmt 0 view .LVU748
 2865 0004 0029     		cmp	r1, #0
 2866              	.LVL265:
1240:System/shell/shell.c ****     {
 2867              		.loc 1 1240 8 view .LVU749
 2868 0006 19DD     		ble	.L257
1242:System/shell/shell.c ****             -((shell->history.number > shell->history.record) ? shell->history.number : shell->hist
 2869              		.loc 1 1242 9 is_stmt 1 view .LVU750
