ARM GAS  C:\Users\8bit\AppData\Local\Temp\ccdhdvRO.s 			page 1


   1              		.cpu cortex-m4
   2              		.arch armv7e-m
   3              		.fpu fpv4-sp-d16
   4              		.eabi_attribute 27, 1
   5              		.eabi_attribute 28, 1
   6              		.eabi_attribute 20, 1
   7              		.eabi_attribute 21, 1
   8              		.eabi_attribute 23, 3
   9              		.eabi_attribute 24, 1
  10              		.eabi_attribute 25, 1
  11              		.eabi_attribute 26, 1
  12              		.eabi_attribute 30, 1
  13              		.eabi_attribute 34, 1
  14              		.eabi_attribute 18, 4
  15              		.file	"shell.c"
  16              		.text
  17              	.Ltext0:
  18              		.cfi_sections	.debug_frame
  19              		.section	.text.shellAdd,"ax",%progbits
  20              		.align	1
  21              		.syntax unified
  22              		.thumb
  23              		.thumb_func
  25              	shellAdd:
  26              	.LVL0:
  27              	.LFB4:
  28              		.file 1 "System/shell/shell.c"
   1:System/shell/shell.c **** /**
   2:System/shell/shell.c ****  * @file shell.c
   3:System/shell/shell.c ****  * @author Letter (NevermindZZT@gmail.com)
   4:System/shell/shell.c ****  * @version 3.0.0
   5:System/shell/shell.c ****  * @date 2019-12-30
   6:System/shell/shell.c ****  *
   7:System/shell/shell.c ****  * @copyright (c) 2020 Letter
   8:System/shell/shell.c ****  *
   9:System/shell/shell.c ****  */
  10:System/shell/shell.c **** 
  11:System/shell/shell.c **** #include "shell.h"
  12:System/shell/shell.c **** #include "string.h"
  13:System/shell/shell.c **** #include "stdio.h"
  14:System/shell/shell.c **** #include "stdarg.h"
  15:System/shell/shell.c **** #include "shell_ext.h"
  16:System/shell/shell.c **** 
  17:System/shell/shell.c **** #if SHELL_USING_CMD_EXPORT == 1
  18:System/shell/shell.c **** /**
  19:System/shell/shell.c ****  * @brief 默认用户
  20:System/shell/shell.c ****  */
  21:System/shell/shell.c **** const char shellCmdDefaultUser[] = SHELL_DEFAULT_USER;
  22:System/shell/shell.c **** const char shellPasswordDefaultUser[] = SHELL_DEFAULT_USER_PASSWORD;
  23:System/shell/shell.c **** const char shellDesDefaultUser[] = "default user";
  24:System/shell/shell.c **** const ShellCommand shellUserDefault SECTION("shellCommand") =
  25:System/shell/shell.c ****     {
  26:System/shell/shell.c ****         .attr.value = SHELL_CMD_PERMISSION(0) | SHELL_CMD_TYPE(SHELL_TYPE_USER),
  27:System/shell/shell.c ****         .data.user.name = shellCmdDefaultUser,
  28:System/shell/shell.c ****         .data.user.password = shellPasswordDefaultUser,
  29:System/shell/shell.c ****         .data.user.desc = shellDesDefaultUser};
  30:System/shell/shell.c **** #endif
ARM GAS  C:\Users\8bit\AppData\Local\Temp\ccdhdvRO.s 			page 2


  31:System/shell/shell.c **** 
  32:System/shell/shell.c **** #if SHELL_USING_CMD_EXPORT == 1
  33:System/shell/shell.c **** #if defined(__CC_ARM) || (defined(__ARMCC_VERSION) && __ARMCC_VERSION >= 6000000)
  34:System/shell/shell.c **** extern const unsigned int shellCommand$$Base;
  35:System/shell/shell.c **** extern const unsigned int shellCommand$$Limit;
  36:System/shell/shell.c **** #elif defined(__ICCARM__) || defined(__ICCRX__)
  37:System/shell/shell.c **** #pragma section = "shellCommand"
  38:System/shell/shell.c **** #elif defined(__GNUC__)
  39:System/shell/shell.c **** extern const unsigned int _shell_command_start;
  40:System/shell/shell.c **** extern const unsigned int _shell_command_end;
  41:System/shell/shell.c **** #endif
  42:System/shell/shell.c **** #else
  43:System/shell/shell.c **** extern const ShellCommand shellCommandList[];
  44:System/shell/shell.c **** extern const unsigned short shellCommandCount;
  45:System/shell/shell.c **** #endif
  46:System/shell/shell.c **** 
  47:System/shell/shell.c **** /**
  48:System/shell/shell.c ****  * @brief shell 常量文本索引
  49:System/shell/shell.c ****  */
  50:System/shell/shell.c **** enum
  51:System/shell/shell.c **** {
  52:System/shell/shell.c **** #if SHELL_SHOW_INFO == 1
  53:System/shell/shell.c ****     SHELL_TEXT_INFO, /**< shell信息 */
  54:System/shell/shell.c **** #endif
  55:System/shell/shell.c ****     SHELL_TEXT_CMD_TOO_LONG,                /**< 命令过长 */
  56:System/shell/shell.c ****     SHELL_TEXT_CMD_LIST,                    /**< 可执行命令列表标题 */
  57:System/shell/shell.c ****     SHELL_TEXT_VAR_LIST,                    /**< 变量列表标题 */
  58:System/shell/shell.c ****     SHELL_TEXT_USER_LIST,                   /**< 用户列表标题 */
  59:System/shell/shell.c ****     SHELL_TEXT_KEY_LIST,                    /**< 按键列表标题 */
  60:System/shell/shell.c ****     SHELL_TEXT_CMD_NOT_FOUND,               /**< 命令未找到 */
  61:System/shell/shell.c ****     SHELL_TEXT_POINT_CANNOT_MODIFY,         /**< 指针变量不允许修改 */
  62:System/shell/shell.c ****     SHELL_TEXT_VAR_READ_ONLY_CANNOT_MODIFY, /**< 只读变量不允许修改 */
  63:System/shell/shell.c ****     SHELL_TEXT_NOT_VAR,                     /**< 命令不是变量 */
  64:System/shell/shell.c ****     SHELL_TEXT_VAR_NOT_FOUND,               /**< 变量未找到 */
  65:System/shell/shell.c ****     SHELL_TEXT_HELP_HEADER,                 /**< help头 */
  66:System/shell/shell.c ****     SHELL_TEXT_PASSWORD_HINT,               /**< 密码输入提示 */
  67:System/shell/shell.c ****     SHELL_TEXT_PASSWORD_ERROR,              /**< 密码错误 */
  68:System/shell/shell.c ****     SHELL_TEXT_CLEAR_CONSOLE,               /**< 清空控制台 */
  69:System/shell/shell.c ****     SHELL_TEXT_CLEAR_LINE,                  /**< 清空当前行 */
  70:System/shell/shell.c ****     SHELL_TEXT_TYPE_CMD,                    /**< 命令类型 */
  71:System/shell/shell.c ****     SHELL_TEXT_TYPE_VAR,                    /**< 变量类型 */
  72:System/shell/shell.c ****     SHELL_TEXT_TYPE_USER,                   /**< 用户类型 */
  73:System/shell/shell.c ****     SHELL_TEXT_TYPE_KEY,                    /**< 按键类型 */
  74:System/shell/shell.c ****     SHELL_TEXT_TYPE_NONE,                   /**< 非法类型 */
  75:System/shell/shell.c **** #if SHELL_EXEC_UNDEF_FUNC == 1
  76:System/shell/shell.c ****     SHELL_TEXT_PARAM_ERROR, /**< 参数错误 */
  77:System/shell/shell.c **** #endif
  78:System/shell/shell.c **** };
  79:System/shell/shell.c **** 
  80:System/shell/shell.c **** static const char *shellText[] =
  81:System/shell/shell.c ****     {
  82:System/shell/shell.c **** #if SHELL_SHOW_INFO == 1
  83:System/shell/shell.c ****         [SHELL_TEXT_INFO] =
  84:System/shell/shell.c ****             "\r\n\r\n"
  85:System/shell/shell.c ****             "/************  BitRtos  ************\\r\n\r\n"
  86:System/shell/shell.c ****             "Team Mate:        8_B!T0\r\n"
  87:System/shell/shell.c ****             "                  WHY\r\n"
ARM GAS  C:\Users\8bit\AppData\Local\Temp\ccdhdvRO.s 			page 3


  88:System/shell/shell.c ****             "\r\n"
  89:System/shell/shell.c ****             "Build:            "__DATE__
  90:System/shell/shell.c ****             " "__TIME__
  91:System/shell/shell.c ****             "\r\n"
  92:System/shell/shell.c ****             "Shell   Version:  " SHELL_VERSION "\r\n",
  93:System/shell/shell.c **** #endif
  94:System/shell/shell.c ****         [SHELL_TEXT_CMD_TOO_LONG] =
  95:System/shell/shell.c ****             "\r\nWarning: Command is too long\r\n",
  96:System/shell/shell.c ****         [SHELL_TEXT_CMD_LIST] =
  97:System/shell/shell.c ****             "\r\nCommand List:\r\n",
  98:System/shell/shell.c ****         [SHELL_TEXT_VAR_LIST] =
  99:System/shell/shell.c ****             "\r\nVar List:\r\n",
 100:System/shell/shell.c ****         [SHELL_TEXT_USER_LIST] =
 101:System/shell/shell.c ****             "\r\nUser List:\r\n",
 102:System/shell/shell.c ****         [SHELL_TEXT_KEY_LIST] =
 103:System/shell/shell.c ****             "\r\nKey List:\r\n",
 104:System/shell/shell.c ****         [SHELL_TEXT_CMD_NOT_FOUND] =
 105:System/shell/shell.c ****             "Command not Found\r\n",
 106:System/shell/shell.c ****         [SHELL_TEXT_POINT_CANNOT_MODIFY] =
 107:System/shell/shell.c ****             "can't set pointer\r\n",
 108:System/shell/shell.c ****         [SHELL_TEXT_VAR_READ_ONLY_CANNOT_MODIFY] =
 109:System/shell/shell.c ****             "can't set read only var\r\n",
 110:System/shell/shell.c ****         [SHELL_TEXT_NOT_VAR] =
 111:System/shell/shell.c ****             " is not a var\r\n",
 112:System/shell/shell.c ****         [SHELL_TEXT_VAR_NOT_FOUND] =
 113:System/shell/shell.c ****             "Var not Fount\r\n",
 114:System/shell/shell.c ****         [SHELL_TEXT_HELP_HEADER] =
 115:System/shell/shell.c ****             "command help of ",
 116:System/shell/shell.c ****         [SHELL_TEXT_PASSWORD_HINT] =
 117:System/shell/shell.c ****             "\r\nPlease input password:",
 118:System/shell/shell.c ****         [SHELL_TEXT_PASSWORD_ERROR] =
 119:System/shell/shell.c ****             "\r\npassword error\r\n",
 120:System/shell/shell.c ****         [SHELL_TEXT_CLEAR_CONSOLE] =
 121:System/shell/shell.c ****             "\033[2J\033[1H",
 122:System/shell/shell.c ****         [SHELL_TEXT_CLEAR_LINE] =
 123:System/shell/shell.c ****             "\033[2K\r",
 124:System/shell/shell.c ****         [SHELL_TEXT_TYPE_CMD] =
 125:System/shell/shell.c ****             "CMD \r\n",
 126:System/shell/shell.c ****         [SHELL_TEXT_TYPE_VAR] =
 127:System/shell/shell.c ****             "VAR",
 128:System/shell/shell.c ****         [SHELL_TEXT_TYPE_USER] =
 129:System/shell/shell.c ****             "USER",
 130:System/shell/shell.c ****         [SHELL_TEXT_TYPE_KEY] =
 131:System/shell/shell.c ****             "KEY",
 132:System/shell/shell.c ****         [SHELL_TEXT_TYPE_NONE] =
 133:System/shell/shell.c ****             "NONE",
 134:System/shell/shell.c **** #if SHELL_EXEC_UNDEF_FUNC == 1
 135:System/shell/shell.c ****         [SHELL_TEXT_PARAM_ERROR] =
 136:System/shell/shell.c ****             "Parameter error\r\n",
 137:System/shell/shell.c **** #endif
 138:System/shell/shell.c **** };
 139:System/shell/shell.c **** 
 140:System/shell/shell.c **** /**
 141:System/shell/shell.c ****  * @brief shell对象表
 142:System/shell/shell.c ****  */
 143:System/shell/shell.c **** static Shell *shellList[SHELL_MAX_NUMBER] = {NULL};
 144:System/shell/shell.c **** 
ARM GAS  C:\Users\8bit\AppData\Local\Temp\ccdhdvRO.s 			page 4


 145:System/shell/shell.c **** static void shellAdd(Shell *shell);
 146:System/shell/shell.c **** static void shellWriteCommandLine(Shell *shell, unsigned char newline);
 147:System/shell/shell.c **** static void shellWriteReturnValue(Shell *shell, int value);
 148:System/shell/shell.c **** static int shellShowVar(Shell *shell, ShellCommand *command);
 149:System/shell/shell.c **** static void shellSetUser(Shell *shell, const ShellCommand *user);
 150:System/shell/shell.c **** ShellCommand *shellSeekCommand(Shell *shell,
 151:System/shell/shell.c ****                                const char *cmd,
 152:System/shell/shell.c ****                                ShellCommand *base,
 153:System/shell/shell.c ****                                unsigned short compareLength);
 154:System/shell/shell.c **** 
 155:System/shell/shell.c **** /**
 156:System/shell/shell.c ****  * @brief shell 初始化
 157:System/shell/shell.c ****  *
 158:System/shell/shell.c ****  * @param shell shell对象
 159:System/shell/shell.c ****  */
 160:System/shell/shell.c **** void shellInit(Shell *shell, char *buffer, unsigned short size)
 161:System/shell/shell.c **** {
 162:System/shell/shell.c ****     shell->parser.length = 0;
 163:System/shell/shell.c ****     shell->parser.cursor = 0;
 164:System/shell/shell.c ****     shell->history.offset = 0;
 165:System/shell/shell.c ****     shell->history.number = 0;
 166:System/shell/shell.c ****     shell->history.record = 0;
 167:System/shell/shell.c ****     shell->info.user = NULL;
 168:System/shell/shell.c ****     shell->status.isChecked = 1;
 169:System/shell/shell.c **** 
 170:System/shell/shell.c ****     shell->parser.buffer = buffer;
 171:System/shell/shell.c ****     shell->parser.bufferSize = size / (SHELL_HISTORY_MAX_NUMBER + 1);
 172:System/shell/shell.c ****     for (short i = 0; i < SHELL_HISTORY_MAX_NUMBER; i++)
 173:System/shell/shell.c ****     {
 174:System/shell/shell.c ****         shell->history.item[i] = buffer + shell->parser.bufferSize * (i + 1);
 175:System/shell/shell.c ****     }
 176:System/shell/shell.c **** 
 177:System/shell/shell.c **** #if SHELL_USING_CMD_EXPORT == 1
 178:System/shell/shell.c **** #if defined(__CC_ARM) || (defined(__ARMCC_VERSION) && __ARMCC_VERSION >= 6000000)
 179:System/shell/shell.c ****     shell->commandList.base = (ShellCommand *)(&shellCommand$$Base);
 180:System/shell/shell.c ****     shell->commandList.count = ((unsigned int)(&shellCommand$$Limit) - (unsigned int)(&shellCommand
 181:System/shell/shell.c **** 
 182:System/shell/shell.c **** #elif defined(__ICCARM__) || defined(__ICCRX__)
 183:System/shell/shell.c ****     shell->commandList.base = (ShellCommand *)(__section_begin("shellCommand"));
 184:System/shell/shell.c ****     shell->commandList.count = ((unsigned int)(__section_end("shellCommand")) - (unsigned int)(__se
 185:System/shell/shell.c **** #elif defined(__GNUC__)
 186:System/shell/shell.c ****     shell->commandList.base = (ShellCommand *)(&_shell_command_start);
 187:System/shell/shell.c ****     shell->commandList.count = ((unsigned int)(&_shell_command_end) - (unsigned int)(&_shell_comman
 188:System/shell/shell.c **** #else
 189:System/shell/shell.c **** #error not supported compiler, please use command table mode
 190:System/shell/shell.c **** #endif
 191:System/shell/shell.c **** #else
 192:System/shell/shell.c ****     shell->commandList.base = (ShellCommand *)shellCommandList;
 193:System/shell/shell.c ****     shell->commandList.count = shellCommandCount;
 194:System/shell/shell.c **** #endif
 195:System/shell/shell.c **** 
 196:System/shell/shell.c ****     shellAdd(shell);
 197:System/shell/shell.c **** 
 198:System/shell/shell.c ****     shellSetUser(shell, shellSeekCommand(shell,
 199:System/shell/shell.c ****                                          SHELL_DEFAULT_USER,
 200:System/shell/shell.c ****                                          shell->commandList.base,
 201:System/shell/shell.c ****                                          0));
ARM GAS  C:\Users\8bit\AppData\Local\Temp\ccdhdvRO.s 			page 5


 202:System/shell/shell.c ****     shellWriteCommandLine(shell, 1);
 203:System/shell/shell.c **** }
 204:System/shell/shell.c **** 
 205:System/shell/shell.c **** /**
 206:System/shell/shell.c ****  * @brief 添加shell
 207:System/shell/shell.c ****  *
 208:System/shell/shell.c ****  * @param shell shell对象
 209:System/shell/shell.c ****  */
 210:System/shell/shell.c **** static void shellAdd(Shell *shell)
 211:System/shell/shell.c **** {
  29              		.loc 1 211 1 view -0
  30              		.cfi_startproc
  31              		@ args = 0, pretend = 0, frame = 0
  32              		@ frame_needed = 0, uses_anonymous_args = 0
  33              		@ link register save eliminated.
 212:System/shell/shell.c ****     for (short i = 0; i < SHELL_MAX_NUMBER; i++)
  34              		.loc 1 212 5 view .LVU1
  35              	.LBB2:
  36              		.loc 1 212 10 view .LVU2
  37              		.loc 1 212 16 is_stmt 0 view .LVU3
  38 0000 0023     		movs	r3, #0
  39              	.LVL1:
  40              	.L2:
  41              		.loc 1 212 23 is_stmt 1 discriminator 1 view .LVU4
  42              		.loc 1 212 5 is_stmt 0 discriminator 1 view .LVU5
  43 0002 042B     		cmp	r3, #4
  44 0004 0BDC     		bgt	.L6
 213:System/shell/shell.c ****     {
 214:System/shell/shell.c ****         if (shellList[i] == NULL)
  45              		.loc 1 214 9 is_stmt 1 view .LVU6
  46              		.loc 1 214 22 is_stmt 0 view .LVU7
  47 0006 1946     		mov	r1, r3
  48 0008 054A     		ldr	r2, .L8
  49 000a 52F82320 		ldr	r2, [r2, r3, lsl #2]
  50              		.loc 1 214 12 view .LVU8
  51 000e 12B1     		cbz	r2, .L7
 212:System/shell/shell.c ****     for (short i = 0; i < SHELL_MAX_NUMBER; i++)
  52              		.loc 1 212 45 is_stmt 1 discriminator 2 view .LVU9
 212:System/shell/shell.c ****     for (short i = 0; i < SHELL_MAX_NUMBER; i++)
  53              		.loc 1 212 46 is_stmt 0 discriminator 2 view .LVU10
  54 0010 0133     		adds	r3, r3, #1
  55              	.LVL2:
 212:System/shell/shell.c ****     for (short i = 0; i < SHELL_MAX_NUMBER; i++)
  56              		.loc 1 212 46 discriminator 2 view .LVU11
  57 0012 1BB2     		sxth	r3, r3
  58              	.LVL3:
 212:System/shell/shell.c ****     for (short i = 0; i < SHELL_MAX_NUMBER; i++)
  59              		.loc 1 212 46 discriminator 2 view .LVU12
  60 0014 F5E7     		b	.L2
  61              	.L7:
 215:System/shell/shell.c ****         {
 216:System/shell/shell.c ****             shellList[i] = shell;
  62              		.loc 1 216 13 is_stmt 1 view .LVU13
  63              		.loc 1 216 26 is_stmt 0 view .LVU14
  64 0016 024B     		ldr	r3, .L8
  65              	.LVL4:
  66              		.loc 1 216 26 view .LVU15
ARM GAS  C:\Users\8bit\AppData\Local\Temp\ccdhdvRO.s 			page 6


  67 0018 43F82100 		str	r0, [r3, r1, lsl #2]
 217:System/shell/shell.c ****             return;
  68              		.loc 1 217 13 is_stmt 1 view .LVU16
  69 001c 7047     		bx	lr
  70              	.LVL5:
  71              	.L6:
  72              		.loc 1 217 13 is_stmt 0 view .LVU17
  73              	.LBE2:
 218:System/shell/shell.c ****         }
 219:System/shell/shell.c ****     }
 220:System/shell/shell.c **** }
  74              		.loc 1 220 1 view .LVU18
  75 001e 7047     		bx	lr
  76              	.L9:
  77              		.align	2
  78              	.L8:
  79 0020 00000000 		.word	.LANCHOR0
  80              		.cfi_endproc
  81              	.LFE4:
  83              		.section	.text.shellStringCopy,"ax",%progbits
  84              		.align	1
  85              		.syntax unified
  86              		.thumb
  87              		.thumb_func
  89              	shellStringCopy:
  90              	.LVL6:
  91              	.LFB15:
 221:System/shell/shell.c **** 
 222:System/shell/shell.c **** /**
 223:System/shell/shell.c ****  * @brief 获取当前活动shell
 224:System/shell/shell.c ****  *
 225:System/shell/shell.c ****  * @return Shell* 当前活动shell对象
 226:System/shell/shell.c ****  */
 227:System/shell/shell.c **** Shell *shellGetCurrent(void)
 228:System/shell/shell.c **** {
 229:System/shell/shell.c ****     for (short i = 0; i < SHELL_MAX_NUMBER; i++)
 230:System/shell/shell.c ****     {
 231:System/shell/shell.c ****         if (shellList[i] && shellList[i]->status.isActive)
 232:System/shell/shell.c ****         {
 233:System/shell/shell.c ****             return shellList[i];
 234:System/shell/shell.c ****         }
 235:System/shell/shell.c ****     }
 236:System/shell/shell.c ****     return NULL;
 237:System/shell/shell.c **** }
 238:System/shell/shell.c **** 
 239:System/shell/shell.c **** /**
 240:System/shell/shell.c ****  * @brief shell写字符
 241:System/shell/shell.c ****  *
 242:System/shell/shell.c ****  * @param shell shell对象
 243:System/shell/shell.c ****  * @param data 字符数据
 244:System/shell/shell.c ****  */
 245:System/shell/shell.c **** void shellWriteByte(Shell *shell, const char data)
 246:System/shell/shell.c **** {
 247:System/shell/shell.c ****     shell->write(&data, sizeof(data));
 248:System/shell/shell.c **** }
 249:System/shell/shell.c **** 
 250:System/shell/shell.c **** /**
ARM GAS  C:\Users\8bit\AppData\Local\Temp\ccdhdvRO.s 			page 7


 251:System/shell/shell.c ****  * @brief shell 写字符串
 252:System/shell/shell.c ****  *
 253:System/shell/shell.c ****  * @param shell shell对象
 254:System/shell/shell.c ****  * @param string 字符串数据
 255:System/shell/shell.c ****  *
 256:System/shell/shell.c ****  * @return unsigned short 写入字符的数量
 257:System/shell/shell.c ****  */
 258:System/shell/shell.c **** unsigned short shellWriteString(Shell *shell, const char *string)
 259:System/shell/shell.c **** {
 260:System/shell/shell.c ****     unsigned short count = 0;
 261:System/shell/shell.c ****     SHELL_ASSERT(shell->write, return 0);
 262:System/shell/shell.c **** 
 263:System/shell/shell.c ****     shell->write(string, strlen(string));
 264:System/shell/shell.c ****     return count;
 265:System/shell/shell.c **** }
 266:System/shell/shell.c **** 
 267:System/shell/shell.c **** /**
 268:System/shell/shell.c ****  * @brief shell 写命令描述字符串
 269:System/shell/shell.c ****  *
 270:System/shell/shell.c ****  * @param shell shell对象
 271:System/shell/shell.c ****  * @param string 字符串数据
 272:System/shell/shell.c ****  *
 273:System/shell/shell.c ****  * @return unsigned short 写入字符的数量
 274:System/shell/shell.c ****  */
 275:System/shell/shell.c **** static unsigned short shellWriteCommandDesc(Shell *shell, const char *string)
 276:System/shell/shell.c **** {
 277:System/shell/shell.c ****     const char dot = '.';
 278:System/shell/shell.c ****     unsigned short count = 0;
 279:System/shell/shell.c ****     SHELL_ASSERT(shell->write, return 0);
 280:System/shell/shell.c ****     while (*string && *string != '\r' && *string != '\n' && count < 36)
 281:System/shell/shell.c ****     {
 282:System/shell/shell.c ****         shell->write(*string++, 1);
 283:System/shell/shell.c ****         count++;
 284:System/shell/shell.c ****         if (count >= 36 && *(string + 1))
 285:System/shell/shell.c ****         {
 286:System/shell/shell.c ****             shell->write(&dot, sizeof(dot));
 287:System/shell/shell.c ****             shell->write(&dot, sizeof(dot));
 288:System/shell/shell.c ****             shell->write(&dot, sizeof(dot));
 289:System/shell/shell.c ****         }
 290:System/shell/shell.c ****     }
 291:System/shell/shell.c ****     return count;
 292:System/shell/shell.c **** }
 293:System/shell/shell.c **** 
 294:System/shell/shell.c **** /**
 295:System/shell/shell.c ****  * @brief shell写命令提示符
 296:System/shell/shell.c ****  *
 297:System/shell/shell.c ****  * @param shell shell对象
 298:System/shell/shell.c ****  * @param newline 新行
 299:System/shell/shell.c ****  *
 300:System/shell/shell.c ****  */
 301:System/shell/shell.c **** static void shellWriteCommandLine(Shell *shell, unsigned char newline)
 302:System/shell/shell.c **** {
 303:System/shell/shell.c ****     if (shell->status.isChecked)
 304:System/shell/shell.c ****     {
 305:System/shell/shell.c ****         if (newline)
 306:System/shell/shell.c ****         {
 307:System/shell/shell.c ****             shellWriteString(shell, "\r\n");
ARM GAS  C:\Users\8bit\AppData\Local\Temp\ccdhdvRO.s 			page 8


 308:System/shell/shell.c ****         }
 309:System/shell/shell.c ****         shellWriteString(shell, shell->info.user->data.user.name);
 310:System/shell/shell.c ****         shellWriteString(shell, ":");
 311:System/shell/shell.c ****         shellWriteString(shell, shell->info.path ? shell->info.path : "/");
 312:System/shell/shell.c ****         shellWriteString(shell, "$ ");
 313:System/shell/shell.c ****     }
 314:System/shell/shell.c ****     else
 315:System/shell/shell.c ****     {
 316:System/shell/shell.c ****         shellWriteString(shell, shellText[SHELL_TEXT_PASSWORD_HINT]);
 317:System/shell/shell.c ****     }
 318:System/shell/shell.c **** }
 319:System/shell/shell.c **** 
 320:System/shell/shell.c **** #if SHELL_PRINT_BUFFER > 0
 321:System/shell/shell.c **** /**
 322:System/shell/shell.c ****  * @brief shell格式化输出
 323:System/shell/shell.c ****  *
 324:System/shell/shell.c ****  * @param shell shell对象
 325:System/shell/shell.c ****  * @param fmt 格式化字符串
 326:System/shell/shell.c ****  * @param ... 参数
 327:System/shell/shell.c ****  */
 328:System/shell/shell.c **** void shellPrint(Shell *shell, char *fmt, ...)
 329:System/shell/shell.c **** {
 330:System/shell/shell.c ****     char buffer[SHELL_PRINT_BUFFER];
 331:System/shell/shell.c ****     va_list vargs;
 332:System/shell/shell.c **** 
 333:System/shell/shell.c ****     SHELL_ASSERT(shell, return );
 334:System/shell/shell.c **** 
 335:System/shell/shell.c ****     va_start(vargs, fmt);
 336:System/shell/shell.c ****     vsnprintf(buffer, SHELL_PRINT_BUFFER - 1, fmt, vargs);
 337:System/shell/shell.c ****     va_end(vargs);
 338:System/shell/shell.c **** 
 339:System/shell/shell.c ****     shellWriteString(shell, buffer);
 340:System/shell/shell.c **** }
 341:System/shell/shell.c **** #endif
 342:System/shell/shell.c **** 
 343:System/shell/shell.c **** #if SHELL_SCAN_BUFFER > 0
 344:System/shell/shell.c **** /**
 345:System/shell/shell.c ****  * @brief shell格式化输入
 346:System/shell/shell.c ****  *
 347:System/shell/shell.c ****  * @param shell shell对象
 348:System/shell/shell.c ****  * @param fmt 格式化字符串
 349:System/shell/shell.c ****  * @param ... 参数
 350:System/shell/shell.c ****  */
 351:System/shell/shell.c **** void shellScan(Shell *shell, char *fmt, ...)
 352:System/shell/shell.c **** {
 353:System/shell/shell.c ****     char buffer[SHELL_SCAN_BUFFER];
 354:System/shell/shell.c ****     va_list vargs;
 355:System/shell/shell.c ****     short index = 0;
 356:System/shell/shell.c **** 
 357:System/shell/shell.c ****     SHELL_ASSERT(shell, return );
 358:System/shell/shell.c **** 
 359:System/shell/shell.c ****     if (shell->read)
 360:System/shell/shell.c ****     {
 361:System/shell/shell.c ****         do
 362:System/shell/shell.c ****         {
 363:System/shell/shell.c ****             if (shell->read(&buffer[index]) == 0)
 364:System/shell/shell.c ****             {
ARM GAS  C:\Users\8bit\AppData\Local\Temp\ccdhdvRO.s 			page 9


 365:System/shell/shell.c ****                 shell->write(&buffer[index], sizeof(buffer[index]));
 366:System/shell/shell.c ****                 index++;
 367:System/shell/shell.c ****             }
 368:System/shell/shell.c ****         } while (buffer[index - 1] != '\r' && buffer[index - 1] != '\n' && index < SHELL_SCAN_BUFFE
 369:System/shell/shell.c ****         shellWriteString(shell, "\r\n");
 370:System/shell/shell.c ****         buffer[index] = '\0';
 371:System/shell/shell.c ****     }
 372:System/shell/shell.c **** 
 373:System/shell/shell.c ****     va_start(vargs, fmt);
 374:System/shell/shell.c ****     vsscanf(buffer, fmt, vargs);
 375:System/shell/shell.c ****     va_end(vargs);
 376:System/shell/shell.c **** }
 377:System/shell/shell.c **** #endif
 378:System/shell/shell.c **** 
 379:System/shell/shell.c **** /**
 380:System/shell/shell.c ****  * @brief shell 检查命令权限
 381:System/shell/shell.c ****  *
 382:System/shell/shell.c ****  * @param shell shell对象
 383:System/shell/shell.c ****  * @param command ShellCommand
 384:System/shell/shell.c ****  *
 385:System/shell/shell.c ****  * @return signed char 0 当前用户具有该命令权限
 386:System/shell/shell.c ****  * @return signec char -1 当前用户不具有该命令权限
 387:System/shell/shell.c ****  */
 388:System/shell/shell.c **** signed char shellCheckPermission(Shell *shell, ShellCommand *command)
 389:System/shell/shell.c **** {
 390:System/shell/shell.c ****     return ((!command->attr.attrs.permission || command->attr.attrs.type == SHELL_TYPE_USER || (com
 391:System/shell/shell.c ****                ? 0
 392:System/shell/shell.c ****                : -1;
 393:System/shell/shell.c **** }
 394:System/shell/shell.c **** 
 395:System/shell/shell.c **** /**
 396:System/shell/shell.c ****  * @brief int转16进制字符串
 397:System/shell/shell.c ****  *
 398:System/shell/shell.c ****  * @param value 数值
 399:System/shell/shell.c ****  * @param buffer 缓冲
 400:System/shell/shell.c ****  *
 401:System/shell/shell.c ****  * @return signed char 转换后有效数据长度
 402:System/shell/shell.c ****  */
 403:System/shell/shell.c **** signed char shellToHex(unsigned int value, char *buffer)
 404:System/shell/shell.c **** {
 405:System/shell/shell.c ****     char byte;
 406:System/shell/shell.c ****     unsigned char i = 8;
 407:System/shell/shell.c ****     buffer[8] = 0;
 408:System/shell/shell.c ****     while (value)
 409:System/shell/shell.c ****     {
 410:System/shell/shell.c ****         byte = value & 0x0000000F;
 411:System/shell/shell.c ****         buffer[--i] = (byte > 9) ? (byte + 87) : (byte + 48);
 412:System/shell/shell.c ****         value >>= 4;
 413:System/shell/shell.c ****     }
 414:System/shell/shell.c ****     return 8 - i;
 415:System/shell/shell.c **** }
 416:System/shell/shell.c **** 
 417:System/shell/shell.c **** /**
 418:System/shell/shell.c ****  * @brief int转10进制字符串
 419:System/shell/shell.c ****  *
 420:System/shell/shell.c ****  * @param value 数值
 421:System/shell/shell.c ****  * @param buffer 缓冲
ARM GAS  C:\Users\8bit\AppData\Local\Temp\ccdhdvRO.s 			page 10


 422:System/shell/shell.c ****  *
 423:System/shell/shell.c ****  * @return signed char 转换后有效数据长度
 424:System/shell/shell.c ****  */
 425:System/shell/shell.c **** signed char shellToDec(int value, char *buffer)
 426:System/shell/shell.c **** {
 427:System/shell/shell.c ****     unsigned char i = 11;
 428:System/shell/shell.c ****     int v = value;
 429:System/shell/shell.c ****     if (value < 0)
 430:System/shell/shell.c ****     {
 431:System/shell/shell.c ****         v = -value;
 432:System/shell/shell.c ****     }
 433:System/shell/shell.c ****     buffer[11] = 0;
 434:System/shell/shell.c ****     while (v)
 435:System/shell/shell.c ****     {
 436:System/shell/shell.c ****         buffer[--i] = v % 10 + 48;
 437:System/shell/shell.c ****         v /= 10;
 438:System/shell/shell.c ****     }
 439:System/shell/shell.c ****     if (value < 0)
 440:System/shell/shell.c ****     {
 441:System/shell/shell.c ****         buffer[--i] = '-';
 442:System/shell/shell.c ****     }
 443:System/shell/shell.c ****     if (value == 0)
 444:System/shell/shell.c ****     {
 445:System/shell/shell.c ****         buffer[--i] = '0';
 446:System/shell/shell.c ****     }
 447:System/shell/shell.c ****     return 11 - i;
 448:System/shell/shell.c **** }
 449:System/shell/shell.c **** 
 450:System/shell/shell.c **** /**
 451:System/shell/shell.c ****  * @brief shell字符串复制
 452:System/shell/shell.c ****  *
 453:System/shell/shell.c ****  * @param dest 目标字符串
 454:System/shell/shell.c ****  * @param src 源字符串
 455:System/shell/shell.c ****  * @return unsigned short 字符串长度
 456:System/shell/shell.c ****  */
 457:System/shell/shell.c **** static unsigned short shellStringCopy(char *dest, char *src)
 458:System/shell/shell.c **** {
  92              		.loc 1 458 1 is_stmt 1 view -0
  93              		.cfi_startproc
  94              		@ args = 0, pretend = 0, frame = 0
  95              		@ frame_needed = 0, uses_anonymous_args = 0
  96              		@ link register save eliminated.
  97              		.loc 1 458 1 is_stmt 0 view .LVU20
  98 0000 0246     		mov	r2, r0
 459:System/shell/shell.c ****     unsigned short count = 0;
  99              		.loc 1 459 5 is_stmt 1 view .LVU21
 100              	.LVL7:
 460:System/shell/shell.c ****     while (*(src + count))
 101              		.loc 1 460 5 view .LVU22
 459:System/shell/shell.c ****     unsigned short count = 0;
 102              		.loc 1 459 20 is_stmt 0 view .LVU23
 103 0002 0020     		movs	r0, #0
 104              	.LVL8:
 105              		.loc 1 460 11 view .LVU24
 106 0004 02E0     		b	.L11
 107              	.LVL9:
 108              	.L12:
ARM GAS  C:\Users\8bit\AppData\Local\Temp\ccdhdvRO.s 			page 11


 461:System/shell/shell.c ****     {
 462:System/shell/shell.c ****         *(dest + count) = *(src + count);
 109              		.loc 1 462 9 is_stmt 1 view .LVU25
 110              		.loc 1 462 25 is_stmt 0 view .LVU26
 111 0006 1354     		strb	r3, [r2, r0]
 463:System/shell/shell.c ****         count++;
 112              		.loc 1 463 9 is_stmt 1 view .LVU27
 113              		.loc 1 463 14 is_stmt 0 view .LVU28
 114 0008 0130     		adds	r0, r0, #1
 115              	.LVL10:
 116              		.loc 1 463 14 view .LVU29
 117 000a 80B2     		uxth	r0, r0
 118              	.LVL11:
 119              	.L11:
 460:System/shell/shell.c ****     while (*(src + count))
 120              		.loc 1 460 11 is_stmt 1 view .LVU30
 460:System/shell/shell.c ****     while (*(src + count))
 121              		.loc 1 460 12 is_stmt 0 view .LVU31
 122 000c 0B5C     		ldrb	r3, [r1, r0]	@ zero_extendqisi2
 460:System/shell/shell.c ****     while (*(src + count))
 123              		.loc 1 460 11 view .LVU32
 124 000e 002B     		cmp	r3, #0
 125 0010 F9D1     		bne	.L12
 464:System/shell/shell.c ****     }
 465:System/shell/shell.c ****     *(dest + count) = 0;
 126              		.loc 1 465 5 is_stmt 1 view .LVU33
 127              		.loc 1 465 21 is_stmt 0 view .LVU34
 128 0012 1354     		strb	r3, [r2, r0]
 466:System/shell/shell.c ****     return count;
 129              		.loc 1 466 5 is_stmt 1 view .LVU35
 467:System/shell/shell.c **** }
 130              		.loc 1 467 1 is_stmt 0 view .LVU36
 131 0014 7047     		bx	lr
 132              		.cfi_endproc
 133              	.LFE15:
 135              		.section	.text.shellStringCompare,"ax",%progbits
 136              		.align	1
 137              		.syntax unified
 138              		.thumb
 139              		.thumb_func
 141              	shellStringCompare:
 142              	.LVL12:
 143              	.LFB16:
 468:System/shell/shell.c **** 
 469:System/shell/shell.c **** /**
 470:System/shell/shell.c ****  * @brief shell字符串比较
 471:System/shell/shell.c ****  *
 472:System/shell/shell.c ****  * @param dest 目标字符串
 473:System/shell/shell.c ****  * @param src 源字符串
 474:System/shell/shell.c ****  * @return unsigned short 匹配长度
 475:System/shell/shell.c ****  */
 476:System/shell/shell.c **** static unsigned short shellStringCompare(char *dest, char *src)
 477:System/shell/shell.c **** {
 144              		.loc 1 477 1 is_stmt 1 view -0
 145              		.cfi_startproc
 146              		@ args = 0, pretend = 0, frame = 0
 147              		@ frame_needed = 0, uses_anonymous_args = 0
ARM GAS  C:\Users\8bit\AppData\Local\Temp\ccdhdvRO.s 			page 12


 148              		@ link register save eliminated.
 149              		.loc 1 477 1 is_stmt 0 view .LVU38
 150 0000 8446     		mov	ip, r0
 478:System/shell/shell.c ****     unsigned short match = 0;
 151              		.loc 1 478 5 is_stmt 1 view .LVU39
 152              	.LVL13:
 479:System/shell/shell.c ****     unsigned short i = 0;
 153              		.loc 1 479 5 view .LVU40
 480:System/shell/shell.c **** 
 481:System/shell/shell.c ****     while (*(dest + i) && *(src + i))
 154              		.loc 1 481 5 view .LVU41
 479:System/shell/shell.c ****     unsigned short i = 0;
 155              		.loc 1 479 20 is_stmt 0 view .LVU42
 156 0002 0023     		movs	r3, #0
 478:System/shell/shell.c ****     unsigned short i = 0;
 157              		.loc 1 478 20 view .LVU43
 158 0004 1846     		mov	r0, r3
 159              	.LVL14:
 160              		.loc 1 481 11 is_stmt 1 view .LVU44
 161              		.loc 1 481 12 is_stmt 0 view .LVU45
 162 0006 1CF80320 		ldrb	r2, [ip, r3]	@ zero_extendqisi2
 163              		.loc 1 481 11 view .LVU46
 164 000a 7AB1     		cbz	r2, .L22
 477:System/shell/shell.c ****     unsigned short match = 0;
 165              		.loc 1 477 1 view .LVU47
 166 000c 10B4     		push	{r4}
 167              	.LCFI0:
 168              		.cfi_def_cfa_offset 4
 169              		.cfi_offset 4, -4
 170              	.LVL15:
 171              	.L19:
 172              		.loc 1 481 27 discriminator 1 view .LVU48
 173 000e CC5C     		ldrb	r4, [r1, r3]	@ zero_extendqisi2
 174              		.loc 1 481 24 discriminator 1 view .LVU49
 175 0010 4CB1     		cbz	r4, .L15
 482:System/shell/shell.c ****     {
 483:System/shell/shell.c ****         if (*(dest + i) != *(src + i))
 176              		.loc 1 483 9 is_stmt 1 view .LVU50
 177              		.loc 1 483 12 is_stmt 0 view .LVU51
 178 0012 A242     		cmp	r2, r4
 179 0014 07D1     		bne	.L15
 484:System/shell/shell.c ****         {
 485:System/shell/shell.c ****             break;
 486:System/shell/shell.c ****         }
 487:System/shell/shell.c ****         match++;
 180              		.loc 1 487 9 is_stmt 1 view .LVU52
 181              		.loc 1 487 14 is_stmt 0 view .LVU53
 182 0016 0130     		adds	r0, r0, #1
 183 0018 80B2     		uxth	r0, r0
 184              	.LVL16:
 488:System/shell/shell.c ****         i++;
 185              		.loc 1 488 9 is_stmt 1 view .LVU54
 186              		.loc 1 488 10 is_stmt 0 view .LVU55
 187 001a 0133     		adds	r3, r3, #1
 188              	.LVL17:
 189              		.loc 1 488 10 view .LVU56
 190 001c 9BB2     		uxth	r3, r3
ARM GAS  C:\Users\8bit\AppData\Local\Temp\ccdhdvRO.s 			page 13


 191              	.LVL18:
 481:System/shell/shell.c ****     {
 192              		.loc 1 481 11 is_stmt 1 view .LVU57
 481:System/shell/shell.c ****     {
 193              		.loc 1 481 12 is_stmt 0 view .LVU58
 194 001e 1CF80320 		ldrb	r2, [ip, r3]	@ zero_extendqisi2
 481:System/shell/shell.c ****     {
 195              		.loc 1 481 11 view .LVU59
 196 0022 002A     		cmp	r2, #0
 197 0024 F3D1     		bne	.L19
 198              	.LVL19:
 199              	.L15:
 489:System/shell/shell.c ****     }
 490:System/shell/shell.c ****     return match;
 200              		.loc 1 490 5 is_stmt 1 view .LVU60
 491:System/shell/shell.c **** }
 201              		.loc 1 491 1 is_stmt 0 view .LVU61
 202 0026 5DF8044B 		ldr	r4, [sp], #4
 203              	.LCFI1:
 204              		.cfi_restore 4
 205              		.cfi_def_cfa_offset 0
 206 002a 7047     		bx	lr
 207              	.LVL20:
 208              	.L22:
 490:System/shell/shell.c **** }
 209              		.loc 1 490 5 is_stmt 1 view .LVU62
 210              		.loc 1 491 1 is_stmt 0 view .LVU63
 211 002c 7047     		bx	lr
 212              		.cfi_endproc
 213              	.LFE16:
 215              		.section	.text.shellGetCommandDesc,"ax",%progbits
 216              		.align	1
 217              		.syntax unified
 218              		.thumb
 219              		.thumb_func
 221              	shellGetCommandDesc:
 222              	.LVL21:
 223              	.LFB18:
 492:System/shell/shell.c **** 
 493:System/shell/shell.c **** /**
 494:System/shell/shell.c ****  * @brief shell获取命令名
 495:System/shell/shell.c ****  *
 496:System/shell/shell.c ****  * @param command 命令
 497:System/shell/shell.c ****  * @return const char* 命令名
 498:System/shell/shell.c ****  */
 499:System/shell/shell.c **** static const char *shellGetCommandName(ShellCommand *command)
 500:System/shell/shell.c **** {
 501:System/shell/shell.c ****     static char buffer[9];
 502:System/shell/shell.c ****     for (unsigned char i = 0; i < 9; i++)
 503:System/shell/shell.c ****     {
 504:System/shell/shell.c ****         buffer[i] = '0';
 505:System/shell/shell.c ****     }
 506:System/shell/shell.c ****     if (command->attr.attrs.type <= SHELL_TYPE_CMD_FUNC)
 507:System/shell/shell.c ****     {
 508:System/shell/shell.c ****         return command->data.cmd.name;
 509:System/shell/shell.c ****     }
 510:System/shell/shell.c ****     else if (command->attr.attrs.type <= SHELL_TYPE_VAR_NODE)
ARM GAS  C:\Users\8bit\AppData\Local\Temp\ccdhdvRO.s 			page 14


 511:System/shell/shell.c ****     {
 512:System/shell/shell.c ****         return command->data.var.name;
 513:System/shell/shell.c ****     }
 514:System/shell/shell.c ****     else if (command->attr.attrs.type <= SHELL_TYPE_USER)
 515:System/shell/shell.c ****     {
 516:System/shell/shell.c ****         return command->data.user.name;
 517:System/shell/shell.c ****     }
 518:System/shell/shell.c ****     else
 519:System/shell/shell.c ****     {
 520:System/shell/shell.c ****         shellToHex(command->data.key.value, buffer);
 521:System/shell/shell.c ****         return buffer;
 522:System/shell/shell.c ****     }
 523:System/shell/shell.c **** }
 524:System/shell/shell.c **** 
 525:System/shell/shell.c **** /**
 526:System/shell/shell.c ****  * @brief shell获取命令描述
 527:System/shell/shell.c ****  *
 528:System/shell/shell.c ****  * @param command 命令
 529:System/shell/shell.c ****  * @return const char* 命令描述
 530:System/shell/shell.c ****  */
 531:System/shell/shell.c **** static const char *shellGetCommandDesc(ShellCommand *command)
 532:System/shell/shell.c **** {
 224              		.loc 1 532 1 is_stmt 1 view -0
 225              		.cfi_startproc
 226              		@ args = 0, pretend = 0, frame = 0
 227              		@ frame_needed = 0, uses_anonymous_args = 0
 228              		@ link register save eliminated.
 533:System/shell/shell.c ****     if (command->attr.attrs.type <= SHELL_TYPE_CMD_FUNC)
 229              		.loc 1 533 5 view .LVU65
 230              		.loc 1 533 28 is_stmt 0 view .LVU66
 231 0000 4378     		ldrb	r3, [r0, #1]	@ zero_extendqisi2
 232 0002 03F00F03 		and	r3, r3, #15
 233              		.loc 1 533 8 view .LVU67
 234 0006 012B     		cmp	r3, #1
 235 0008 05D9     		bls	.L28
 534:System/shell/shell.c ****     {
 535:System/shell/shell.c ****         return command->data.cmd.desc;
 536:System/shell/shell.c ****     }
 537:System/shell/shell.c ****     else if (command->attr.attrs.type <= SHELL_TYPE_VAR_NODE)
 236              		.loc 1 537 10 is_stmt 1 view .LVU68
 237              		.loc 1 537 13 is_stmt 0 view .LVU69
 238 000a 072B     		cmp	r3, #7
 239 000c 05D9     		bls	.L29
 538:System/shell/shell.c ****     {
 539:System/shell/shell.c ****         return command->data.var.desc;
 540:System/shell/shell.c ****     }
 541:System/shell/shell.c ****     else if (command->attr.attrs.type <= SHELL_TYPE_USER)
 240              		.loc 1 541 10 is_stmt 1 view .LVU70
 241              		.loc 1 541 13 is_stmt 0 view .LVU71
 242 000e 082B     		cmp	r3, #8
 243 0010 05D8     		bhi	.L27
 542:System/shell/shell.c ****     {
 543:System/shell/shell.c ****         return command->data.user.desc;
 244              		.loc 1 543 9 is_stmt 1 view .LVU72
 245              		.loc 1 543 34 is_stmt 0 view .LVU73
 246 0012 C068     		ldr	r0, [r0, #12]
 247              	.LVL22:
ARM GAS  C:\Users\8bit\AppData\Local\Temp\ccdhdvRO.s 			page 15


 248              		.loc 1 543 34 view .LVU74
 249 0014 7047     		bx	lr
 250              	.LVL23:
 251              	.L28:
 535:System/shell/shell.c ****     }
 252              		.loc 1 535 9 is_stmt 1 view .LVU75
 535:System/shell/shell.c ****     }
 253              		.loc 1 535 33 is_stmt 0 view .LVU76
 254 0016 C068     		ldr	r0, [r0, #12]
 255              	.LVL24:
 535:System/shell/shell.c ****     }
 256              		.loc 1 535 33 view .LVU77
 257 0018 7047     		bx	lr
 258              	.LVL25:
 259              	.L29:
 539:System/shell/shell.c ****     }
 260              		.loc 1 539 9 is_stmt 1 view .LVU78
 539:System/shell/shell.c ****     }
 261              		.loc 1 539 33 is_stmt 0 view .LVU79
 262 001a C068     		ldr	r0, [r0, #12]
 263              	.LVL26:
 539:System/shell/shell.c ****     }
 264              		.loc 1 539 33 view .LVU80
 265 001c 7047     		bx	lr
 266              	.LVL27:
 267              	.L27:
 544:System/shell/shell.c ****     }
 545:System/shell/shell.c ****     else
 546:System/shell/shell.c ****     {
 547:System/shell/shell.c ****         return command->data.key.desc;
 268              		.loc 1 547 9 is_stmt 1 view .LVU81
 269              		.loc 1 547 33 is_stmt 0 view .LVU82
 270 001e C068     		ldr	r0, [r0, #12]
 271              	.LVL28:
 548:System/shell/shell.c ****     }
 549:System/shell/shell.c **** }
 272              		.loc 1 549 1 view .LVU83
 273 0020 7047     		bx	lr
 274              		.cfi_endproc
 275              	.LFE18:
 277              		.section	.text.shellParserParam,"ax",%progbits
 278              		.align	1
 279              		.syntax unified
 280              		.thumb
 281              		.thumb_func
 283              	shellParserParam:
 284              	.LVL29:
 285              	.LFB29:
 550:System/shell/shell.c **** 
 551:System/shell/shell.c **** /**
 552:System/shell/shell.c ****  * @brief shell 列出命令条目
 553:System/shell/shell.c ****  *
 554:System/shell/shell.c ****  * @param shell shell对象
 555:System/shell/shell.c ****  * @param item 命令条目
 556:System/shell/shell.c ****  */
 557:System/shell/shell.c **** void shellListItem(Shell *shell, ShellCommand *item)
 558:System/shell/shell.c **** {
ARM GAS  C:\Users\8bit\AppData\Local\Temp\ccdhdvRO.s 			page 16


 559:System/shell/shell.c ****     short spaceLength;
 560:System/shell/shell.c **** 
 561:System/shell/shell.c ****     spaceLength = 22 - shellWriteString(shell, shellGetCommandName(item));
 562:System/shell/shell.c ****     spaceLength = (spaceLength > 0) ? spaceLength : 4;
 563:System/shell/shell.c ****     do
 564:System/shell/shell.c ****     {
 565:System/shell/shell.c ****         shellWriteByte(shell, '-');
 566:System/shell/shell.c ****     } while (--spaceLength);
 567:System/shell/shell.c ****     if (item->attr.attrs.type <= SHELL_TYPE_CMD_FUNC)
 568:System/shell/shell.c ****     {
 569:System/shell/shell.c ****         shellWriteString(shell, shellText[SHELL_TEXT_TYPE_CMD]);
 570:System/shell/shell.c ****     }
 571:System/shell/shell.c ****     else if (item->attr.attrs.type <= SHELL_TYPE_VAR_NODE)
 572:System/shell/shell.c ****     {
 573:System/shell/shell.c ****         shellWriteString(shell, shellText[SHELL_TEXT_TYPE_VAR]);
 574:System/shell/shell.c ****     }
 575:System/shell/shell.c ****     else if (item->attr.attrs.type <= SHELL_TYPE_USER)
 576:System/shell/shell.c ****     {
 577:System/shell/shell.c ****         shellWriteString(shell, shellText[SHELL_TEXT_TYPE_USER]);
 578:System/shell/shell.c ****     }
 579:System/shell/shell.c ****     else if (item->attr.attrs.type <= SHELL_TYPE_KEY)
 580:System/shell/shell.c ****     {
 581:System/shell/shell.c ****         shellWriteString(shell, shellText[SHELL_TEXT_TYPE_KEY]);
 582:System/shell/shell.c ****     }
 583:System/shell/shell.c ****     else
 584:System/shell/shell.c ****     {
 585:System/shell/shell.c ****         shellWriteString(shell, shellText[SHELL_TEXT_TYPE_NONE]);
 586:System/shell/shell.c ****     }
 587:System/shell/shell.c **** #if SHELL_HELP_SHOW_PERMISSION == 1
 588:System/shell/shell.c ****     shellWriteString(shell, " ");
 589:System/shell/shell.c ****     for (signed char i = 7; i >= 0; i--)
 590:System/shell/shell.c ****     {
 591:System/shell/shell.c ****         shellWriteByte(shell, item->attr.attrs.permission & (1 << i) ? 'x' : '-');
 592:System/shell/shell.c ****     }
 593:System/shell/shell.c **** #endif
 594:System/shell/shell.c ****     // shellWriteString(shell, " ");
 595:System/shell/shell.c ****     // shellWriteCommandDesc(shell, shellGetCommandDesc(item));
 596:System/shell/shell.c ****     // shellWriteString(shell, "\r\n");
 597:System/shell/shell.c **** }
 598:System/shell/shell.c **** 
 599:System/shell/shell.c **** /**
 600:System/shell/shell.c ****  * @brief shell列出可执行命令
 601:System/shell/shell.c ****  *
 602:System/shell/shell.c ****  * @param shell shell对象
 603:System/shell/shell.c ****  */
 604:System/shell/shell.c **** void shellListCommand(Shell *shell)
 605:System/shell/shell.c **** {
 606:System/shell/shell.c ****     ShellCommand *base = (ShellCommand *)shell->commandList.base;
 607:System/shell/shell.c ****     shellWriteString(shell, shellText[SHELL_TEXT_CMD_LIST]);
 608:System/shell/shell.c ****     for (short i = 0; i < shell->commandList.count; i++)
 609:System/shell/shell.c ****     {
 610:System/shell/shell.c ****         if (base[i].attr.attrs.type <= SHELL_TYPE_CMD_FUNC && shellCheckPermission(shell, &base[i])
 611:System/shell/shell.c ****         {
 612:System/shell/shell.c ****             shellListItem(shell, &base[i]);
 613:System/shell/shell.c ****         }
 614:System/shell/shell.c ****     }
 615:System/shell/shell.c **** }
ARM GAS  C:\Users\8bit\AppData\Local\Temp\ccdhdvRO.s 			page 17


 616:System/shell/shell.c **** 
 617:System/shell/shell.c **** /**
 618:System/shell/shell.c ****  * @brief shell列出变量
 619:System/shell/shell.c ****  *
 620:System/shell/shell.c ****  * @param shell shell对象
 621:System/shell/shell.c ****  */
 622:System/shell/shell.c **** void shellListVar(Shell *shell)
 623:System/shell/shell.c **** {
 624:System/shell/shell.c ****     ShellCommand *base = (ShellCommand *)shell->commandList.base;
 625:System/shell/shell.c ****     shellWriteString(shell, shellText[SHELL_TEXT_VAR_LIST]);
 626:System/shell/shell.c ****     for (short i = 0; i < shell->commandList.count; i++)
 627:System/shell/shell.c ****     {
 628:System/shell/shell.c ****         if (base[i].attr.attrs.type > SHELL_TYPE_CMD_FUNC && base[i].attr.attrs.type <= SHELL_TYPE_
 629:System/shell/shell.c ****         {
 630:System/shell/shell.c ****             shellListItem(shell, &base[i]);
 631:System/shell/shell.c ****         }
 632:System/shell/shell.c ****     }
 633:System/shell/shell.c **** }
 634:System/shell/shell.c **** 
 635:System/shell/shell.c **** /**
 636:System/shell/shell.c ****  * @brief shell列出用户
 637:System/shell/shell.c ****  *
 638:System/shell/shell.c ****  * @param shell shell对象
 639:System/shell/shell.c ****  */
 640:System/shell/shell.c **** void shellListUser(Shell *shell)
 641:System/shell/shell.c **** {
 642:System/shell/shell.c ****     ShellCommand *base = (ShellCommand *)shell->commandList.base;
 643:System/shell/shell.c ****     shellWriteString(shell, shellText[SHELL_TEXT_USER_LIST]);
 644:System/shell/shell.c ****     for (short i = 0; i < shell->commandList.count; i++)
 645:System/shell/shell.c ****     {
 646:System/shell/shell.c ****         if (base[i].attr.attrs.type > SHELL_TYPE_VAR_NODE && base[i].attr.attrs.type <= SHELL_TYPE_
 647:System/shell/shell.c ****         {
 648:System/shell/shell.c ****             shellListItem(shell, &base[i]);
 649:System/shell/shell.c ****         }
 650:System/shell/shell.c ****     }
 651:System/shell/shell.c **** }
 652:System/shell/shell.c **** 
 653:System/shell/shell.c **** /**
 654:System/shell/shell.c ****  * @brief shell列出按键
 655:System/shell/shell.c ****  *
 656:System/shell/shell.c ****  * @param shell shell对象
 657:System/shell/shell.c ****  */
 658:System/shell/shell.c **** void shellListKey(Shell *shell)
 659:System/shell/shell.c **** {
 660:System/shell/shell.c ****     ShellCommand *base = (ShellCommand *)shell->commandList.base;
 661:System/shell/shell.c ****     shellWriteString(shell, shellText[SHELL_TEXT_KEY_LIST]);
 662:System/shell/shell.c ****     for (short i = 0; i < shell->commandList.count; i++)
 663:System/shell/shell.c ****     {
 664:System/shell/shell.c ****         if (base[i].attr.attrs.type > SHELL_TYPE_USER && base[i].attr.attrs.type <= SHELL_TYPE_KEY 
 665:System/shell/shell.c ****         {
 666:System/shell/shell.c ****             shellListItem(shell, &base[i]);
 667:System/shell/shell.c ****         }
 668:System/shell/shell.c ****     }
 669:System/shell/shell.c **** }
 670:System/shell/shell.c **** 
 671:System/shell/shell.c **** /**
 672:System/shell/shell.c ****  * @brief shell列出所有命令
ARM GAS  C:\Users\8bit\AppData\Local\Temp\ccdhdvRO.s 			page 18


 673:System/shell/shell.c ****  *
 674:System/shell/shell.c ****  * @param shell shell对象
 675:System/shell/shell.c ****  */
 676:System/shell/shell.c **** void shellListAll(Shell *shell)
 677:System/shell/shell.c **** {
 678:System/shell/shell.c **** #if SHELL_HELP_LIST_USER == 1
 679:System/shell/shell.c ****     shellListUser(shell);
 680:System/shell/shell.c **** #endif
 681:System/shell/shell.c ****     shellListCommand(shell);
 682:System/shell/shell.c **** #if SHELL_HELP_LIST_VAR == 1
 683:System/shell/shell.c ****     shellListVar(shell);
 684:System/shell/shell.c **** #endif
 685:System/shell/shell.c **** #if SHELL_HELP_LIST_KEY == 1
 686:System/shell/shell.c ****     shellListKey(shell);
 687:System/shell/shell.c **** #endif
 688:System/shell/shell.c **** }
 689:System/shell/shell.c **** 
 690:System/shell/shell.c **** /**
 691:System/shell/shell.c ****  * @brief shell删除命令行数据
 692:System/shell/shell.c ****  *
 693:System/shell/shell.c ****  * @param shell shell对象
 694:System/shell/shell.c ****  * @param length 删除长度
 695:System/shell/shell.c ****  */
 696:System/shell/shell.c **** void shellDeleteCommandLine(Shell *shell, unsigned char length)
 697:System/shell/shell.c **** {
 698:System/shell/shell.c ****     while (length--)
 699:System/shell/shell.c ****     {
 700:System/shell/shell.c ****         shellWriteString(shell, "\b \b");
 701:System/shell/shell.c ****     }
 702:System/shell/shell.c **** }
 703:System/shell/shell.c **** 
 704:System/shell/shell.c **** /**
 705:System/shell/shell.c ****  * @brief shell 清空命令行输入
 706:System/shell/shell.c ****  *
 707:System/shell/shell.c ****  * @param shell shell对象
 708:System/shell/shell.c ****  */
 709:System/shell/shell.c **** void shellClearCommandLine(Shell *shell)
 710:System/shell/shell.c **** {
 711:System/shell/shell.c ****     for (short i = shell->parser.length - shell->parser.cursor; i > 0; i--)
 712:System/shell/shell.c ****     {
 713:System/shell/shell.c ****         shellWriteByte(shell, ' ');
 714:System/shell/shell.c ****     }
 715:System/shell/shell.c ****     shellDeleteCommandLine(shell, shell->parser.length);
 716:System/shell/shell.c **** }
 717:System/shell/shell.c **** 
 718:System/shell/shell.c **** /**
 719:System/shell/shell.c ****  * @brief shell插入一个字符到光标位置
 720:System/shell/shell.c ****  *
 721:System/shell/shell.c ****  * @param shell shell对象
 722:System/shell/shell.c ****  * @param data 字符数据
 723:System/shell/shell.c ****  */
 724:System/shell/shell.c **** void shellInsertByte(Shell *shell, char data)
 725:System/shell/shell.c **** {
 726:System/shell/shell.c ****     /* 判断输入数据是否过长 */
 727:System/shell/shell.c ****     if (shell->parser.length >= shell->parser.bufferSize - 1)
 728:System/shell/shell.c ****     {
 729:System/shell/shell.c ****         shellWriteString(shell, shellText[SHELL_TEXT_CMD_TOO_LONG]);
ARM GAS  C:\Users\8bit\AppData\Local\Temp\ccdhdvRO.s 			page 19


 730:System/shell/shell.c ****         shellWriteCommandLine(shell, 1);
 731:System/shell/shell.c ****         shellWriteString(shell, shell->parser.buffer);
 732:System/shell/shell.c ****         return;
 733:System/shell/shell.c ****     }
 734:System/shell/shell.c **** 
 735:System/shell/shell.c ****     /* 插入数据 */
 736:System/shell/shell.c ****     if (shell->parser.cursor == shell->parser.length)
 737:System/shell/shell.c ****     {
 738:System/shell/shell.c ****         shell->parser.buffer[shell->parser.length++] = data;
 739:System/shell/shell.c ****         shell->parser.buffer[shell->parser.length] = 0;
 740:System/shell/shell.c ****         shell->parser.cursor++;
 741:System/shell/shell.c ****         shellWriteByte(shell, data);
 742:System/shell/shell.c ****     }
 743:System/shell/shell.c ****     else if (shell->parser.cursor < shell->parser.length)
 744:System/shell/shell.c ****     {
 745:System/shell/shell.c ****         for (short i = shell->parser.length - shell->parser.cursor; i > 0; i--)
 746:System/shell/shell.c ****         {
 747:System/shell/shell.c ****             shell->parser.buffer[shell->parser.cursor + i] =
 748:System/shell/shell.c ****                 shell->parser.buffer[shell->parser.cursor + i - 1];
 749:System/shell/shell.c ****         }
 750:System/shell/shell.c ****         shell->parser.buffer[shell->parser.cursor++] = data;
 751:System/shell/shell.c ****         shell->parser.buffer[++shell->parser.length] = 0;
 752:System/shell/shell.c ****         for (short i = shell->parser.cursor - 1; i < shell->parser.length; i++)
 753:System/shell/shell.c ****         {
 754:System/shell/shell.c ****             shellWriteByte(shell, shell->parser.buffer[i]);
 755:System/shell/shell.c ****         }
 756:System/shell/shell.c ****         for (short i = shell->parser.length - shell->parser.cursor; i > 0; i--)
 757:System/shell/shell.c ****         {
 758:System/shell/shell.c ****             shellWriteByte(shell, '\b');
 759:System/shell/shell.c ****         }
 760:System/shell/shell.c ****     }
 761:System/shell/shell.c **** }
 762:System/shell/shell.c **** 
 763:System/shell/shell.c **** /**
 764:System/shell/shell.c ****  * @brief shell 删除字节
 765:System/shell/shell.c ****  *
 766:System/shell/shell.c ****  * @param shell shell对象
 767:System/shell/shell.c ****  * @param direction 删除方向 {@code 1}删除光标前字符 {@code -1}删除光标处字符
 768:System/shell/shell.c ****  */
 769:System/shell/shell.c **** void shellDeleteByte(Shell *shell, signed char direction)
 770:System/shell/shell.c **** {
 771:System/shell/shell.c ****     char offset = (direction == -1) ? 1 : 0;
 772:System/shell/shell.c **** 
 773:System/shell/shell.c ****     if ((shell->parser.cursor == 0 && direction == 1) || (shell->parser.cursor == shell->parser.len
 774:System/shell/shell.c ****     {
 775:System/shell/shell.c ****         return;
 776:System/shell/shell.c ****     }
 777:System/shell/shell.c ****     if (shell->parser.cursor == shell->parser.length && direction == 1)
 778:System/shell/shell.c ****     {
 779:System/shell/shell.c ****         shell->parser.cursor--;
 780:System/shell/shell.c ****         shell->parser.length--;
 781:System/shell/shell.c ****         shell->parser.buffer[shell->parser.length] = 0;
 782:System/shell/shell.c ****         shellDeleteCommandLine(shell, 1);
 783:System/shell/shell.c ****     }
 784:System/shell/shell.c ****     else
 785:System/shell/shell.c ****     {
 786:System/shell/shell.c ****         for (short i = offset; i < shell->parser.length - shell->parser.cursor; i++)
ARM GAS  C:\Users\8bit\AppData\Local\Temp\ccdhdvRO.s 			page 20


 787:System/shell/shell.c ****         {
 788:System/shell/shell.c ****             shell->parser.buffer[shell->parser.cursor + i - 1] =
 789:System/shell/shell.c ****                 shell->parser.buffer[shell->parser.cursor + i];
 790:System/shell/shell.c ****         }
 791:System/shell/shell.c ****         shell->parser.length--;
 792:System/shell/shell.c ****         if (!offset)
 793:System/shell/shell.c ****         {
 794:System/shell/shell.c ****             shell->parser.cursor--;
 795:System/shell/shell.c ****             shellWriteByte(shell, '\b');
 796:System/shell/shell.c ****         }
 797:System/shell/shell.c ****         shell->parser.buffer[shell->parser.length] = 0;
 798:System/shell/shell.c ****         for (short i = shell->parser.cursor; i < shell->parser.length; i++)
 799:System/shell/shell.c ****         {
 800:System/shell/shell.c ****             shellWriteByte(shell, shell->parser.buffer[i]);
 801:System/shell/shell.c ****         }
 802:System/shell/shell.c ****         shellWriteByte(shell, ' ');
 803:System/shell/shell.c ****         for (short i = shell->parser.length - shell->parser.cursor + 1; i > 0; i--)
 804:System/shell/shell.c ****         {
 805:System/shell/shell.c ****             shellWriteByte(shell, '\b');
 806:System/shell/shell.c ****         }
 807:System/shell/shell.c ****     }
 808:System/shell/shell.c **** }
 809:System/shell/shell.c **** 
 810:System/shell/shell.c **** /**
 811:System/shell/shell.c ****  * @brief shell 解析参数
 812:System/shell/shell.c ****  *
 813:System/shell/shell.c ****  * @param shell shell对象
 814:System/shell/shell.c ****  */
 815:System/shell/shell.c **** static void shellParserParam(Shell *shell)
 816:System/shell/shell.c **** {
 286              		.loc 1 816 1 is_stmt 1 view -0
 287              		.cfi_startproc
 288              		@ args = 0, pretend = 0, frame = 0
 289              		@ frame_needed = 0, uses_anonymous_args = 0
 290              		.loc 1 816 1 is_stmt 0 view .LVU85
 291 0000 30B5     		push	{r4, r5, lr}
 292              	.LCFI2:
 293              		.cfi_def_cfa_offset 12
 294              		.cfi_offset 4, -12
 295              		.cfi_offset 5, -8
 296              		.cfi_offset 14, -4
 817:System/shell/shell.c ****     unsigned char quotes = 0;
 297              		.loc 1 817 5 is_stmt 1 view .LVU86
 298              	.LVL30:
 818:System/shell/shell.c ****     unsigned char record = 1;
 299              		.loc 1 818 5 view .LVU87
 819:System/shell/shell.c **** 
 820:System/shell/shell.c ****     for (short i = 0; i < SHELL_PARAMETER_MAX_NUMBER; i++)
 300              		.loc 1 820 5 view .LVU88
 301              	.LBB3:
 302              		.loc 1 820 10 view .LVU89
 303              		.loc 1 820 16 is_stmt 0 view .LVU90
 304 0002 0023     		movs	r3, #0
 305              		.loc 1 820 5 view .LVU91
 306 0004 06E0     		b	.L31
 307              	.LVL31:
 308              	.L32:
ARM GAS  C:\Users\8bit\AppData\Local\Temp\ccdhdvRO.s 			page 21


 821:System/shell/shell.c ****     {
 822:System/shell/shell.c ****         shell->parser.param[i] = NULL;
 309              		.loc 1 822 9 is_stmt 1 discriminator 3 view .LVU92
 310              		.loc 1 822 32 is_stmt 0 discriminator 3 view .LVU93
 311 0006 1A1D     		adds	r2, r3, #4
 312 0008 00EB8202 		add	r2, r0, r2, lsl #2
 313 000c 0021     		movs	r1, #0
 314 000e 5160     		str	r1, [r2, #4]
 820:System/shell/shell.c ****     {
 315              		.loc 1 820 55 is_stmt 1 discriminator 3 view .LVU94
 820:System/shell/shell.c ****     {
 316              		.loc 1 820 56 is_stmt 0 discriminator 3 view .LVU95
 317 0010 0133     		adds	r3, r3, #1
 318              	.LVL32:
 820:System/shell/shell.c ****     {
 319              		.loc 1 820 56 discriminator 3 view .LVU96
 320 0012 1BB2     		sxth	r3, r3
 321              	.LVL33:
 322              	.L31:
 820:System/shell/shell.c ****     {
 323              		.loc 1 820 23 is_stmt 1 discriminator 1 view .LVU97
 820:System/shell/shell.c ****     {
 324              		.loc 1 820 5 is_stmt 0 discriminator 1 view .LVU98
 325 0014 072B     		cmp	r3, #7
 326 0016 F6DD     		ble	.L32
 327              	.LBE3:
 823:System/shell/shell.c ****     }
 824:System/shell/shell.c **** 
 825:System/shell/shell.c ****     shell->parser.paramCount = 0;
 328              		.loc 1 825 5 is_stmt 1 view .LVU99
 329              		.loc 1 825 30 is_stmt 0 view .LVU100
 330 0018 0021     		movs	r1, #0
 331 001a C186     		strh	r1, [r0, #54]	@ movhi
 826:System/shell/shell.c ****     for (unsigned short i = 0; i < shell->parser.length; i++)
 332              		.loc 1 826 5 is_stmt 1 view .LVU101
 333              	.LBB4:
 334              		.loc 1 826 10 view .LVU102
 335              	.LVL34:
 336              		.loc 1 826 25 is_stmt 0 view .LVU103
 337 001c 0B46     		mov	r3, r1
 338              	.LVL35:
 339              		.loc 1 826 25 view .LVU104
 340              	.LBE4:
 818:System/shell/shell.c **** 
 341              		.loc 1 818 19 view .LVU105
 342 001e 0125     		movs	r5, #1
 343              	.LBB5:
 344              		.loc 1 826 5 view .LVU106
 345 0020 0DE0     		b	.L33
 346              	.LVL36:
 347              	.L34:
 827:System/shell/shell.c ****     {
 828:System/shell/shell.c ****         if (quotes != 0 || (shell->parser.buffer[i] != ' ' && shell->parser.buffer[i] != 0))
 829:System/shell/shell.c ****         {
 830:System/shell/shell.c ****             if (shell->parser.buffer[i] == '\"')
 348              		.loc 1 830 13 is_stmt 1 view .LVU107
 349              		.loc 1 830 30 is_stmt 0 view .LVU108
ARM GAS  C:\Users\8bit\AppData\Local\Temp\ccdhdvRO.s 			page 22


 350 0022 0269     		ldr	r2, [r0, #16]
 351              		.loc 1 830 37 view .LVU109
 352 0024 9E46     		mov	lr, r3
 353 0026 D418     		adds	r4, r2, r3
 354 0028 12F803C0 		ldrb	ip, [r2, r3]	@ zero_extendqisi2
 355              		.loc 1 830 16 view .LVU110
 356 002c BCF1220F 		cmp	ip, #34
 357 0030 15D0     		beq	.L42
 358              	.L36:
 831:System/shell/shell.c ****             {
 832:System/shell/shell.c ****                 quotes = quotes ? 0 : 1;
 833:System/shell/shell.c ****             }
 834:System/shell/shell.c ****             if (record == 1)
 359              		.loc 1 834 13 is_stmt 1 view .LVU111
 360              		.loc 1 834 16 is_stmt 0 view .LVU112
 361 0032 BDB9     		cbnz	r5, .L43
 362              	.LVL37:
 363              	.L37:
 835:System/shell/shell.c ****             {
 836:System/shell/shell.c ****                 if (shell->parser.paramCount < SHELL_PARAMETER_MAX_NUMBER)
 837:System/shell/shell.c ****                 {
 838:System/shell/shell.c ****                     shell->parser.param[shell->parser.paramCount++] =
 839:System/shell/shell.c ****                         &(shell->parser.buffer[i]);
 840:System/shell/shell.c ****                 }
 841:System/shell/shell.c ****                 record = 0;
 842:System/shell/shell.c ****             }
 843:System/shell/shell.c ****             if (shell->parser.buffer[i] == '\\' && shell->parser.buffer[i + 1] != 0)
 364              		.loc 1 843 13 is_stmt 1 view .LVU113
 365              		.loc 1 843 37 is_stmt 0 view .LVU114
 366 0034 2478     		ldrb	r4, [r4]	@ zero_extendqisi2
 367              		.loc 1 843 16 view .LVU115
 368 0036 5C2C     		cmp	r4, #92
 369 0038 23D0     		beq	.L44
 370              	.LVL38:
 371              	.L38:
 826:System/shell/shell.c ****     {
 372              		.loc 1 826 58 is_stmt 1 discriminator 2 view .LVU116
 826:System/shell/shell.c ****     {
 373              		.loc 1 826 59 is_stmt 0 discriminator 2 view .LVU117
 374 003a 0133     		adds	r3, r3, #1
 375              	.LVL39:
 826:System/shell/shell.c ****     {
 376              		.loc 1 826 59 discriminator 2 view .LVU118
 377 003c 9BB2     		uxth	r3, r3
 378              	.LVL40:
 379              	.L33:
 826:System/shell/shell.c ****     {
 380              		.loc 1 826 32 is_stmt 1 discriminator 1 view .LVU119
 826:System/shell/shell.c ****     {
 381              		.loc 1 826 49 is_stmt 0 discriminator 1 view .LVU120
 382 003e 8289     		ldrh	r2, [r0, #12]
 826:System/shell/shell.c ****     {
 383              		.loc 1 826 5 discriminator 1 view .LVU121
 384 0040 9A42     		cmp	r2, r3
 385 0042 25D9     		bls	.L45
 828:System/shell/shell.c ****         {
 386              		.loc 1 828 9 is_stmt 1 view .LVU122
ARM GAS  C:\Users\8bit\AppData\Local\Temp\ccdhdvRO.s 			page 23


 828:System/shell/shell.c ****         {
 387              		.loc 1 828 12 is_stmt 0 view .LVU123
 388 0044 0029     		cmp	r1, #0
 389 0046 ECD1     		bne	.L34
 828:System/shell/shell.c ****         {
 390              		.loc 1 828 42 discriminator 1 view .LVU124
 391 0048 0269     		ldr	r2, [r0, #16]
 828:System/shell/shell.c ****         {
 392              		.loc 1 828 49 discriminator 1 view .LVU125
 393 004a D418     		adds	r4, r2, r3
 394 004c D25C     		ldrb	r2, [r2, r3]	@ zero_extendqisi2
 828:System/shell/shell.c ****         {
 395              		.loc 1 828 25 discriminator 1 view .LVU126
 396 004e 202A     		cmp	r2, #32
 397 0050 01D0     		beq	.L35
 828:System/shell/shell.c ****         {
 398              		.loc 1 828 60 discriminator 2 view .LVU127
 399 0052 002A     		cmp	r2, #0
 400 0054 E5D1     		bne	.L34
 401              	.L35:
 844:System/shell/shell.c ****             {
 845:System/shell/shell.c ****                 i++;
 846:System/shell/shell.c ****             }
 847:System/shell/shell.c ****         }
 848:System/shell/shell.c ****         else
 849:System/shell/shell.c ****         {
 850:System/shell/shell.c ****             shell->parser.buffer[i] = 0;
 402              		.loc 1 850 13 is_stmt 1 view .LVU128
 403              		.loc 1 850 37 is_stmt 0 view .LVU129
 404 0056 0022     		movs	r2, #0
 405 0058 2270     		strb	r2, [r4]
 851:System/shell/shell.c ****             record = 1;
 406              		.loc 1 851 13 is_stmt 1 view .LVU130
 407              	.LVL41:
 408              		.loc 1 851 20 is_stmt 0 view .LVU131
 409 005a 0125     		movs	r5, #1
 410 005c EDE7     		b	.L38
 411              	.LVL42:
 412              	.L42:
 832:System/shell/shell.c ****             }
 413              		.loc 1 832 17 is_stmt 1 view .LVU132
 832:System/shell/shell.c ****             }
 414              		.loc 1 832 37 is_stmt 0 view .LVU133
 415 005e 81F00101 		eor	r1, r1, #1
 416              	.LVL43:
 832:System/shell/shell.c ****             }
 417              		.loc 1 832 37 view .LVU134
 418 0062 E6E7     		b	.L36
 419              	.L43:
 836:System/shell/shell.c ****                 {
 420              		.loc 1 836 17 is_stmt 1 view .LVU135
 836:System/shell/shell.c ****                 {
 421              		.loc 1 836 34 is_stmt 0 view .LVU136
 422 0064 C58E     		ldrh	r5, [r0, #54]
 423              	.LVL44:
 836:System/shell/shell.c ****                 {
 424              		.loc 1 836 20 view .LVU137
ARM GAS  C:\Users\8bit\AppData\Local\Temp\ccdhdvRO.s 			page 24


 425 0066 072D     		cmp	r5, #7
 426 0068 09D8     		bhi	.L40
 838:System/shell/shell.c ****                         &(shell->parser.buffer[i]);
 427              		.loc 1 838 21 is_stmt 1 view .LVU138
 838:System/shell/shell.c ****                         &(shell->parser.buffer[i]);
 428              		.loc 1 838 65 is_stmt 0 view .LVU139
 429 006a 05F1010C 		add	ip, r5, #1
 430 006e A0F836C0 		strh	ip, [r0, #54]	@ movhi
 838:System/shell/shell.c ****                         &(shell->parser.buffer[i]);
 431              		.loc 1 838 69 view .LVU140
 432 0072 0435     		adds	r5, r5, #4
 433 0074 00EB8505 		add	r5, r0, r5, lsl #2
 434 0078 6C60     		str	r4, [r5, #4]
 841:System/shell/shell.c ****             }
 435              		.loc 1 841 24 view .LVU141
 436 007a 0025     		movs	r5, #0
 437 007c DAE7     		b	.L37
 438              	.L40:
 439 007e 0025     		movs	r5, #0
 440 0080 D8E7     		b	.L37
 441              	.LVL45:
 442              	.L44:
 843:System/shell/shell.c ****             {
 443              		.loc 1 843 72 discriminator 1 view .LVU142
 444 0082 7244     		add	r2, r2, lr
 445 0084 5278     		ldrb	r2, [r2, #1]	@ zero_extendqisi2
 843:System/shell/shell.c ****             {
 446              		.loc 1 843 49 discriminator 1 view .LVU143
 447 0086 002A     		cmp	r2, #0
 448 0088 D7D0     		beq	.L38
 845:System/shell/shell.c ****             }
 449              		.loc 1 845 17 is_stmt 1 view .LVU144
 845:System/shell/shell.c ****             }
 450              		.loc 1 845 18 is_stmt 0 view .LVU145
 451 008a 0133     		adds	r3, r3, #1
 452              	.LVL46:
 845:System/shell/shell.c ****             }
 453              		.loc 1 845 18 view .LVU146
 454 008c 9BB2     		uxth	r3, r3
 455              	.LVL47:
 845:System/shell/shell.c ****             }
 456              		.loc 1 845 18 view .LVU147
 457 008e D4E7     		b	.L38
 458              	.L45:
 845:System/shell/shell.c ****             }
 459              		.loc 1 845 18 view .LVU148
 460              	.LBE5:
 852:System/shell/shell.c ****         }
 853:System/shell/shell.c ****     }
 854:System/shell/shell.c **** }
 461              		.loc 1 854 1 view .LVU149
 462 0090 30BD     		pop	{r4, r5, pc}
 463              		.loc 1 854 1 view .LVU150
 464              		.cfi_endproc
 465              	.LFE29:
 467              		.section	.text.shellHistoryAdd,"ax",%progbits
 468              		.align	1
ARM GAS  C:\Users\8bit\AppData\Local\Temp\ccdhdvRO.s 			page 25


 469              		.syntax unified
 470              		.thumb
 471              		.thumb_func
 473              	shellHistoryAdd:
 474              	.LVL48:
 475              	.LFB40:
 855:System/shell/shell.c **** 
 856:System/shell/shell.c **** /**
 857:System/shell/shell.c ****  * @brief shell去除字符串参数头尾的双引号
 858:System/shell/shell.c ****  *
 859:System/shell/shell.c ****  * @param shell shell对象
 860:System/shell/shell.c ****  */
 861:System/shell/shell.c **** static void shellRemoveParamQuotes(Shell *shell)
 862:System/shell/shell.c **** {
 863:System/shell/shell.c ****     unsigned short paramLength;
 864:System/shell/shell.c ****     for (unsigned short i = 0; i < shell->parser.paramCount; i++)
 865:System/shell/shell.c ****     {
 866:System/shell/shell.c ****         if (shell->parser.param[i][0] == '\"')
 867:System/shell/shell.c ****         {
 868:System/shell/shell.c ****             shell->parser.param[i][0] = 0;
 869:System/shell/shell.c ****             shell->parser.param[i] = &shell->parser.param[i][1];
 870:System/shell/shell.c ****         }
 871:System/shell/shell.c ****         paramLength = strlen(shell->parser.param[i]);
 872:System/shell/shell.c ****         if (shell->parser.param[i][paramLength - 1] == '\"')
 873:System/shell/shell.c ****         {
 874:System/shell/shell.c ****             shell->parser.param[i][paramLength - 1] = 0;
 875:System/shell/shell.c ****         }
 876:System/shell/shell.c ****     }
 877:System/shell/shell.c **** }
 878:System/shell/shell.c **** 
 879:System/shell/shell.c **** /**
 880:System/shell/shell.c ****  * @brief shell匹配命令
 881:System/shell/shell.c ****  *
 882:System/shell/shell.c ****  * @param shell shell对象
 883:System/shell/shell.c ****  * @param cmd 命令
 884:System/shell/shell.c ****  * @param base 匹配命令表基址
 885:System/shell/shell.c ****  * @param compareLength 匹配字符串长度
 886:System/shell/shell.c ****  * @return ShellCommand* 匹配到的命令
 887:System/shell/shell.c ****  */
 888:System/shell/shell.c **** ShellCommand *shellSeekCommand(Shell *shell,
 889:System/shell/shell.c ****                                const char *cmd,
 890:System/shell/shell.c ****                                ShellCommand *base,
 891:System/shell/shell.c ****                                unsigned short compareLength)
 892:System/shell/shell.c **** {
 893:System/shell/shell.c ****     const char *name;
 894:System/shell/shell.c ****     int ret;
 895:System/shell/shell.c ****     unsigned short count = shell->commandList.count -
 896:System/shell/shell.c ****                            ((int)base - (int)shell->commandList.base) / sizeof(ShellCommand);
 897:System/shell/shell.c ****     for (unsigned short i = 0; i < count; i++)
 898:System/shell/shell.c ****     {
 899:System/shell/shell.c ****         if (base[i].attr.attrs.type == SHELL_TYPE_KEY || shellCheckPermission(shell, &base[i]) != 0
 900:System/shell/shell.c ****         {
 901:System/shell/shell.c ****             continue;
 902:System/shell/shell.c ****         }
 903:System/shell/shell.c ****         name = shellGetCommandName(&base[i]);
 904:System/shell/shell.c ****         if (!compareLength)
 905:System/shell/shell.c ****         {
ARM GAS  C:\Users\8bit\AppData\Local\Temp\ccdhdvRO.s 			page 26


 906:System/shell/shell.c ****             ret = strcmp(cmd, name);
 907:System/shell/shell.c ****             if (strcmp(cmd, name) == 0)
 908:System/shell/shell.c ****             {
 909:System/shell/shell.c ****                 return &base[i];
 910:System/shell/shell.c ****             }
 911:System/shell/shell.c ****         }
 912:System/shell/shell.c ****         else
 913:System/shell/shell.c ****         {
 914:System/shell/shell.c ****             if (strncmp(cmd, name, compareLength) == 0)
 915:System/shell/shell.c ****             {
 916:System/shell/shell.c ****                 return &base[i];
 917:System/shell/shell.c ****             }
 918:System/shell/shell.c ****         }
 919:System/shell/shell.c ****     }
 920:System/shell/shell.c ****     return NULL;
 921:System/shell/shell.c **** }
 922:System/shell/shell.c **** 
 923:System/shell/shell.c **** /**
 924:System/shell/shell.c ****  * @brief shell 获取变量值
 925:System/shell/shell.c ****  *
 926:System/shell/shell.c ****  * @param shell shell对象
 927:System/shell/shell.c ****  * @param command 命令
 928:System/shell/shell.c ****  * @return int 变量值
 929:System/shell/shell.c ****  */
 930:System/shell/shell.c **** int shellGetVarValue(Shell *shell, ShellCommand *command)
 931:System/shell/shell.c **** {
 932:System/shell/shell.c ****     int value = 0;
 933:System/shell/shell.c ****     switch (command->attr.attrs.type)
 934:System/shell/shell.c ****     {
 935:System/shell/shell.c ****     case SHELL_TYPE_VAR_INT:
 936:System/shell/shell.c ****         value = *((int *)(command->data.var.value));
 937:System/shell/shell.c ****         break;
 938:System/shell/shell.c ****     case SHELL_TYPE_VAR_SHORT:
 939:System/shell/shell.c ****         value = *((short *)(command->data.var.value));
 940:System/shell/shell.c ****         break;
 941:System/shell/shell.c ****     case SHELL_TYPE_VAR_CHAR:
 942:System/shell/shell.c ****         value = *((char *)(command->data.var.value));
 943:System/shell/shell.c ****         break;
 944:System/shell/shell.c ****     case SHELL_TYPE_VAR_STRING:
 945:System/shell/shell.c ****     case SHELL_TYPE_VAR_POINT:
 946:System/shell/shell.c ****         value = (int)(command->data.var.value);
 947:System/shell/shell.c ****         break;
 948:System/shell/shell.c ****     case SHELL_TYPE_VAR_NODE:
 949:System/shell/shell.c ****         value = ((ShellNodeVarAttr *)command->data.var.value)->get ? ((ShellNodeVarAttr *)command->
 950:System/shell/shell.c ****                                                                          ->get(((ShellNodeVarAttr *
 951:System/shell/shell.c ****                                                                    : 0;
 952:System/shell/shell.c ****         break;
 953:System/shell/shell.c ****     default:
 954:System/shell/shell.c ****         break;
 955:System/shell/shell.c ****     }
 956:System/shell/shell.c ****     return value;
 957:System/shell/shell.c **** }
 958:System/shell/shell.c **** 
 959:System/shell/shell.c **** /**
 960:System/shell/shell.c ****  * @brief shell设置变量值
 961:System/shell/shell.c ****  *
 962:System/shell/shell.c ****  * @param shell shell对象
ARM GAS  C:\Users\8bit\AppData\Local\Temp\ccdhdvRO.s 			page 27


 963:System/shell/shell.c ****  * @param command 命令
 964:System/shell/shell.c ****  * @param value 值
 965:System/shell/shell.c ****  * @return int 返回变量值
 966:System/shell/shell.c ****  */
 967:System/shell/shell.c **** int shellSetVarValue(Shell *shell, ShellCommand *command, int value)
 968:System/shell/shell.c **** {
 969:System/shell/shell.c ****     if (command->attr.attrs.readOnly)
 970:System/shell/shell.c ****     {
 971:System/shell/shell.c ****         shellWriteString(shell, shellText[SHELL_TEXT_VAR_READ_ONLY_CANNOT_MODIFY]);
 972:System/shell/shell.c ****     }
 973:System/shell/shell.c ****     else
 974:System/shell/shell.c ****     {
 975:System/shell/shell.c ****         switch (command->attr.attrs.type)
 976:System/shell/shell.c ****         {
 977:System/shell/shell.c ****         case SHELL_TYPE_VAR_INT:
 978:System/shell/shell.c ****             *((int *)(command->data.var.value)) = value;
 979:System/shell/shell.c ****             break;
 980:System/shell/shell.c ****         case SHELL_TYPE_VAR_SHORT:
 981:System/shell/shell.c ****             *((short *)(command->data.var.value)) = value;
 982:System/shell/shell.c ****             break;
 983:System/shell/shell.c ****         case SHELL_TYPE_VAR_CHAR:
 984:System/shell/shell.c ****             *((char *)(command->data.var.value)) = value;
 985:System/shell/shell.c ****             break;
 986:System/shell/shell.c ****         case SHELL_TYPE_VAR_STRING:
 987:System/shell/shell.c ****             shellStringCopy(((char *)(command->data.var.value)), (char *)value);
 988:System/shell/shell.c ****             break;
 989:System/shell/shell.c ****         case SHELL_TYPE_VAR_POINT:
 990:System/shell/shell.c ****             shellWriteString(shell, shellText[SHELL_TEXT_POINT_CANNOT_MODIFY]);
 991:System/shell/shell.c ****             break;
 992:System/shell/shell.c ****         case SHELL_TYPE_VAR_NODE:
 993:System/shell/shell.c ****             if (((ShellNodeVarAttr *)command->data.var.value)->set)
 994:System/shell/shell.c ****             {
 995:System/shell/shell.c ****                 if (((ShellNodeVarAttr *)command->data.var.value)->var)
 996:System/shell/shell.c ****                 {
 997:System/shell/shell.c ****                     ((ShellNodeVarAttr *)command->data.var.value)
 998:System/shell/shell.c ****                         ->set(((ShellNodeVarAttr *)command->data.var.value)->var, value);
 999:System/shell/shell.c ****                 }
1000:System/shell/shell.c ****                 else
1001:System/shell/shell.c ****                 {
1002:System/shell/shell.c ****                     ((ShellNodeVarAttr *)command->data.var.value)->set(value);
1003:System/shell/shell.c ****                 }
1004:System/shell/shell.c ****             }
1005:System/shell/shell.c ****             break;
1006:System/shell/shell.c ****         default:
1007:System/shell/shell.c ****             break;
1008:System/shell/shell.c ****         }
1009:System/shell/shell.c ****     }
1010:System/shell/shell.c ****     return shellShowVar(shell, command);
1011:System/shell/shell.c **** }
1012:System/shell/shell.c **** 
1013:System/shell/shell.c **** /**
1014:System/shell/shell.c ****  * @brief shell变量输出
1015:System/shell/shell.c ****  *
1016:System/shell/shell.c ****  * @param shell shell对象
1017:System/shell/shell.c ****  * @param command 命令
1018:System/shell/shell.c ****  * @return int 返回变量值
1019:System/shell/shell.c ****  */
ARM GAS  C:\Users\8bit\AppData\Local\Temp\ccdhdvRO.s 			page 28


1020:System/shell/shell.c **** static int shellShowVar(Shell *shell, ShellCommand *command)
1021:System/shell/shell.c **** {
1022:System/shell/shell.c ****     char buffer[12] = "00000000000";
1023:System/shell/shell.c ****     int value = shellGetVarValue(shell, command);
1024:System/shell/shell.c **** 
1025:System/shell/shell.c ****     shellWriteString(shell, command->data.var.name);
1026:System/shell/shell.c ****     shellWriteString(shell, " = ");
1027:System/shell/shell.c **** 
1028:System/shell/shell.c ****     switch (command->attr.attrs.type)
1029:System/shell/shell.c ****     {
1030:System/shell/shell.c ****     case SHELL_TYPE_VAR_STRING:
1031:System/shell/shell.c ****         shellWriteString(shell, "\"");
1032:System/shell/shell.c ****         shellWriteString(shell, (char *)value);
1033:System/shell/shell.c ****         shellWriteString(shell, "\"");
1034:System/shell/shell.c ****         break;
1035:System/shell/shell.c ****     // case SHELL_TYPE_VAR_INT:
1036:System/shell/shell.c ****     // case SHELL_TYPE_VAR_SHORT:
1037:System/shell/shell.c ****     // case SHELL_TYPE_VAR_CHAR:
1038:System/shell/shell.c ****     // case SHELL_TYPE_VAR_POINT:
1039:System/shell/shell.c ****     default:
1040:System/shell/shell.c ****         shellWriteString(shell, &buffer[11 - shellToDec(value, buffer)]);
1041:System/shell/shell.c ****         shellWriteString(shell, ", 0x");
1042:System/shell/shell.c ****         for (short i = 0; i < 11; i++)
1043:System/shell/shell.c ****         {
1044:System/shell/shell.c ****             buffer[i] = '0';
1045:System/shell/shell.c ****         }
1046:System/shell/shell.c ****         shellToHex(value, buffer);
1047:System/shell/shell.c ****         shellWriteString(shell, buffer);
1048:System/shell/shell.c ****         break;
1049:System/shell/shell.c ****     }
1050:System/shell/shell.c **** 
1051:System/shell/shell.c ****     shellWriteString(shell, "\r\n");
1052:System/shell/shell.c ****     return value;
1053:System/shell/shell.c **** }
1054:System/shell/shell.c **** 
1055:System/shell/shell.c **** /**
1056:System/shell/shell.c ****  * @brief shell设置变量
1057:System/shell/shell.c ****  *
1058:System/shell/shell.c ****  * @param name 变量名
1059:System/shell/shell.c ****  * @param value 变量值
1060:System/shell/shell.c ****  * @return int 返回变量值
1061:System/shell/shell.c ****  */
1062:System/shell/shell.c **** int shellSetVar(char *name, int value)
1063:System/shell/shell.c **** {
1064:System/shell/shell.c ****     Shell *shell = shellGetCurrent();
1065:System/shell/shell.c ****     if (shell == NULL)
1066:System/shell/shell.c ****     {
1067:System/shell/shell.c ****         return 0;
1068:System/shell/shell.c ****     }
1069:System/shell/shell.c ****     ShellCommand *command = shellSeekCommand(shell,
1070:System/shell/shell.c ****                                              name,
1071:System/shell/shell.c ****                                              shell->commandList.base,
1072:System/shell/shell.c ****                                              0);
1073:System/shell/shell.c ****     if (!command)
1074:System/shell/shell.c ****     {
1075:System/shell/shell.c ****         shellWriteString(shell, shellText[SHELL_TEXT_VAR_NOT_FOUND]);
1076:System/shell/shell.c ****         return 0;
ARM GAS  C:\Users\8bit\AppData\Local\Temp\ccdhdvRO.s 			page 29


1077:System/shell/shell.c ****     }
1078:System/shell/shell.c ****     if (command->attr.attrs.type < SHELL_TYPE_VAR_INT || command->attr.attrs.type > SHELL_TYPE_VAR_
1079:System/shell/shell.c ****     {
1080:System/shell/shell.c ****         shellWriteString(shell, name);
1081:System/shell/shell.c ****         shellWriteString(shell, shellText[SHELL_TEXT_NOT_VAR]);
1082:System/shell/shell.c ****         return 0;
1083:System/shell/shell.c ****     }
1084:System/shell/shell.c ****     return shellSetVarValue(shell, command, value);
1085:System/shell/shell.c **** }
1086:System/shell/shell.c **** SHELL_EXPORT_CMD(
1087:System/shell/shell.c ****     SHELL_CMD_PERMISSION(0) | SHELL_CMD_TYPE(SHELL_TYPE_CMD_FUNC) | SHELL_CMD_DISABLE_RETURN,
1088:System/shell/shell.c ****     setVar, shellSetVar, set var);
1089:System/shell/shell.c **** 
1090:System/shell/shell.c **** /**
1091:System/shell/shell.c ****  * @brief shell运行命令
1092:System/shell/shell.c ****  *
1093:System/shell/shell.c ****  * @param shell shell对象
1094:System/shell/shell.c ****  * @param command 命令
1095:System/shell/shell.c ****  *
1096:System/shell/shell.c ****  * @return unsigned int 命令返回值
1097:System/shell/shell.c ****  */
1098:System/shell/shell.c **** unsigned int shellRunCommand(Shell *shell, ShellCommand *command)
1099:System/shell/shell.c **** {
1100:System/shell/shell.c ****     int returnValue = 0;
1101:System/shell/shell.c ****     shell->status.isActive = 1;
1102:System/shell/shell.c ****     if (command->attr.attrs.type == SHELL_TYPE_CMD_MAIN)
1103:System/shell/shell.c ****     {
1104:System/shell/shell.c ****         shellRemoveParamQuotes(shell);
1105:System/shell/shell.c ****         returnValue = command->data.cmd.function(shell->parser.paramCount,
1106:System/shell/shell.c ****                                                  shell->parser.param);
1107:System/shell/shell.c ****         if (!command->attr.attrs.disableReturn)
1108:System/shell/shell.c ****         {
1109:System/shell/shell.c ****             shellWriteReturnValue(shell, returnValue);
1110:System/shell/shell.c ****         }
1111:System/shell/shell.c ****     }
1112:System/shell/shell.c ****     else if (command->attr.attrs.type == SHELL_TYPE_CMD_FUNC)
1113:System/shell/shell.c ****     {
1114:System/shell/shell.c ****         returnValue = shellExtRun(shell,
1115:System/shell/shell.c ****                                   command,
1116:System/shell/shell.c ****                                   shell->parser.paramCount,
1117:System/shell/shell.c ****                                   shell->parser.param);
1118:System/shell/shell.c ****         if (!command->attr.attrs.disableReturn)
1119:System/shell/shell.c ****         {
1120:System/shell/shell.c ****             shellWriteReturnValue(shell, returnValue);
1121:System/shell/shell.c ****         }
1122:System/shell/shell.c ****     }
1123:System/shell/shell.c ****     else if (command->attr.attrs.type >= SHELL_TYPE_VAR_INT && command->attr.attrs.type <= SHELL_TY
1124:System/shell/shell.c ****     {
1125:System/shell/shell.c ****         shellShowVar(shell, command);
1126:System/shell/shell.c ****     }
1127:System/shell/shell.c ****     else if (command->attr.attrs.type == SHELL_TYPE_USER)
1128:System/shell/shell.c ****     {
1129:System/shell/shell.c ****         shellSetUser(shell, command);
1130:System/shell/shell.c ****     }
1131:System/shell/shell.c ****     shell->status.isActive = 0;
1132:System/shell/shell.c **** 
1133:System/shell/shell.c ****     return returnValue;
ARM GAS  C:\Users\8bit\AppData\Local\Temp\ccdhdvRO.s 			page 30


1134:System/shell/shell.c **** }
1135:System/shell/shell.c **** 
1136:System/shell/shell.c **** /**
1137:System/shell/shell.c ****  * @brief shell校验密码
1138:System/shell/shell.c ****  *
1139:System/shell/shell.c ****  * @param shell shell对象
1140:System/shell/shell.c ****  */
1141:System/shell/shell.c **** static void shellCheckPassword(Shell *shell)
1142:System/shell/shell.c **** {
1143:System/shell/shell.c ****     if (strcmp(shell->parser.buffer, shell->info.user->data.user.password) == 0)
1144:System/shell/shell.c ****     {
1145:System/shell/shell.c ****         shell->status.isChecked = 1;
1146:System/shell/shell.c **** #if SHELL_SHOW_INFO == 1
1147:System/shell/shell.c ****         shellWriteString(shell, shellText[SHELL_TEXT_INFO]);
1148:System/shell/shell.c **** #endif
1149:System/shell/shell.c ****     }
1150:System/shell/shell.c ****     else
1151:System/shell/shell.c ****     {
1152:System/shell/shell.c ****         shellWriteString(shell, shellText[SHELL_TEXT_PASSWORD_ERROR]);
1153:System/shell/shell.c ****     }
1154:System/shell/shell.c ****     shell->parser.length = 0;
1155:System/shell/shell.c ****     shell->parser.cursor = 0;
1156:System/shell/shell.c **** }
1157:System/shell/shell.c **** 
1158:System/shell/shell.c **** /**
1159:System/shell/shell.c ****  * @brief shell设置用户
1160:System/shell/shell.c ****  *
1161:System/shell/shell.c ****  * @param shell shell对象
1162:System/shell/shell.c ****  * @param user 用户
1163:System/shell/shell.c ****  */
1164:System/shell/shell.c **** static void shellSetUser(Shell *shell, const ShellCommand *user)
1165:System/shell/shell.c **** {
1166:System/shell/shell.c ****     shell->info.user = user;
1167:System/shell/shell.c ****     shell->status.isChecked =
1168:System/shell/shell.c ****         ((user->data.user.password && strlen(user->data.user.password) != 0) && (shell->parser.para
1169:System/shell/shell.c ****             ? 0
1170:System/shell/shell.c ****             : 1;
1171:System/shell/shell.c **** 
1172:System/shell/shell.c **** #if SHELL_CLS_WHEN_LOGIN == 1
1173:System/shell/shell.c ****     shellWriteString(shell, shellText[SHELL_TEXT_CLEAR_CONSOLE]);
1174:System/shell/shell.c **** #endif
1175:System/shell/shell.c **** #if SHELL_SHOW_INFO == 1
1176:System/shell/shell.c ****     if (shell->status.isChecked)
1177:System/shell/shell.c ****     {
1178:System/shell/shell.c ****         shellWriteString(shell, shellText[SHELL_TEXT_INFO]);
1179:System/shell/shell.c ****     }
1180:System/shell/shell.c **** #endif
1181:System/shell/shell.c **** }
1182:System/shell/shell.c **** 
1183:System/shell/shell.c **** /**
1184:System/shell/shell.c ****  * @brief shell写返回值
1185:System/shell/shell.c ****  *
1186:System/shell/shell.c ****  * @param shell shell对象
1187:System/shell/shell.c ****  * @param value 返回值
1188:System/shell/shell.c ****  */
1189:System/shell/shell.c **** static void shellWriteReturnValue(Shell *shell, int value)
1190:System/shell/shell.c **** {
ARM GAS  C:\Users\8bit\AppData\Local\Temp\ccdhdvRO.s 			page 31


1191:System/shell/shell.c ****     char buffer[12] = "00000000000";
1192:System/shell/shell.c ****     shellWriteString(shell, "Return: ");
1193:System/shell/shell.c ****     shellWriteString(shell, &buffer[11 - shellToDec(value, buffer)]);
1194:System/shell/shell.c ****     shellWriteString(shell, ", 0x");
1195:System/shell/shell.c ****     for (short i = 0; i < 11; i++)
1196:System/shell/shell.c ****     {
1197:System/shell/shell.c ****         buffer[i] = '0';
1198:System/shell/shell.c ****     }
1199:System/shell/shell.c ****     shellToHex(value, buffer);
1200:System/shell/shell.c ****     shellWriteString(shell, buffer);
1201:System/shell/shell.c ****     shellWriteString(shell, "\r\n");
1202:System/shell/shell.c **** }
1203:System/shell/shell.c **** 
1204:System/shell/shell.c **** /**
1205:System/shell/shell.c ****  * @brief shell历史记录添加
1206:System/shell/shell.c ****  *
1207:System/shell/shell.c ****  * @param shell shell对象
1208:System/shell/shell.c ****  */
1209:System/shell/shell.c **** static void shellHistoryAdd(Shell *shell)
1210:System/shell/shell.c **** {
 476              		.loc 1 1210 1 is_stmt 1 view -0
 477              		.cfi_startproc
 478              		@ args = 0, pretend = 0, frame = 0
 479              		@ frame_needed = 0, uses_anonymous_args = 0
 480              		.loc 1 1210 1 is_stmt 0 view .LVU152
 481 0000 10B5     		push	{r4, lr}
 482              	.LCFI3:
 483              		.cfi_def_cfa_offset 8
 484              		.cfi_offset 4, -8
 485              		.cfi_offset 14, -4
 486 0002 0446     		mov	r4, r0
1211:System/shell/shell.c ****     shell->history.offset = 0;
 487              		.loc 1 1211 5 is_stmt 1 view .LVU153
 488              		.loc 1 1211 27 is_stmt 0 view .LVU154
 489 0004 0023     		movs	r3, #0
 490 0006 A0F85430 		strh	r3, [r0, #84]	@ movhi
1212:System/shell/shell.c ****     if (shell->history.number > 0 && strcmp(shell->history.item[(shell->history.record == 0 ? SHELL
 491              		.loc 1 1212 5 is_stmt 1 view .LVU155
 492              		.loc 1 1212 23 is_stmt 0 view .LVU156
 493 000a B0F85030 		ldrh	r3, [r0, #80]
 494              		.loc 1 1212 8 view .LVU157
 495 000e 5BB1     		cbz	r3, .L47
 496              		.loc 1 1212 80 discriminator 1 view .LVU158
 497 0010 B0F85230 		ldrh	r3, [r0, #82]
 498              		.loc 1 1212 145 discriminator 1 view .LVU159
 499 0014 53B3     		cbz	r3, .L52
 500              		.loc 1 1212 145 discriminator 2 view .LVU160
 501 0016 013B     		subs	r3, r3, #1
 502              	.L48:
 503              		.loc 1 1212 64 discriminator 5 view .LVU161
 504 0018 0E33     		adds	r3, r3, #14
 505 001a 04EB8303 		add	r3, r4, r3, lsl #2
 506              		.loc 1 1212 38 discriminator 5 view .LVU162
 507 001e 2169     		ldr	r1, [r4, #16]
 508 0020 5868     		ldr	r0, [r3, #4]
 509              	.LVL49:
 510              		.loc 1 1212 38 discriminator 5 view .LVU163
ARM GAS  C:\Users\8bit\AppData\Local\Temp\ccdhdvRO.s 			page 32


 511 0022 FFF7FEFF 		bl	strcmp
 512              	.LVL50:
 513              		.loc 1 1212 35 discriminator 5 view .LVU164
 514 0026 00B3     		cbz	r0, .L46
 515              	.L47:
1213:System/shell/shell.c ****                                             shell->parser.buffer) == 0)
1214:System/shell/shell.c ****     {
1215:System/shell/shell.c ****         return;
1216:System/shell/shell.c ****     }
1217:System/shell/shell.c ****     if (shellStringCopy(shell->history.item[shell->history.record],
 516              		.loc 1 1217 5 is_stmt 1 view .LVU165
 517              		.loc 1 1217 59 is_stmt 0 view .LVU166
 518 0028 B4F85230 		ldrh	r3, [r4, #82]
 519              		.loc 1 1217 9 view .LVU167
 520 002c 0E33     		adds	r3, r3, #14
 521 002e 04EB8303 		add	r3, r4, r3, lsl #2
 522 0032 2169     		ldr	r1, [r4, #16]
 523 0034 5868     		ldr	r0, [r3, #4]
 524 0036 FFF7FEFF 		bl	shellStringCopy
 525              	.LVL51:
 526              		.loc 1 1217 8 view .LVU168
 527 003a 20B1     		cbz	r0, .L50
1218:System/shell/shell.c ****                         shell->parser.buffer) != 0)
1219:System/shell/shell.c ****     {
1220:System/shell/shell.c ****         shell->history.record++;
 528              		.loc 1 1220 9 is_stmt 1 view .LVU169
 529              		.loc 1 1220 23 is_stmt 0 view .LVU170
 530 003c B4F85230 		ldrh	r3, [r4, #82]
 531              		.loc 1 1220 30 view .LVU171
 532 0040 0133     		adds	r3, r3, #1
 533 0042 A4F85230 		strh	r3, [r4, #82]	@ movhi
 534              	.L50:
1221:System/shell/shell.c ****     }
1222:System/shell/shell.c ****     if (++shell->history.number > SHELL_HISTORY_MAX_NUMBER)
 535              		.loc 1 1222 5 is_stmt 1 view .LVU172
 536              		.loc 1 1222 25 is_stmt 0 view .LVU173
 537 0046 B4F85030 		ldrh	r3, [r4, #80]
 538              		.loc 1 1222 9 view .LVU174
 539 004a 0133     		adds	r3, r3, #1
 540 004c 9BB2     		uxth	r3, r3
 541              		.loc 1 1222 8 view .LVU175
 542 004e A4F85030 		strh	r3, [r4, #80]	@ movhi
 543 0052 052B     		cmp	r3, #5
 544 0054 02D9     		bls	.L51
1223:System/shell/shell.c ****     {
1224:System/shell/shell.c ****         shell->history.number = SHELL_HISTORY_MAX_NUMBER;
 545              		.loc 1 1224 9 is_stmt 1 view .LVU176
 546              		.loc 1 1224 31 is_stmt 0 view .LVU177
 547 0056 0523     		movs	r3, #5
 548 0058 A4F85030 		strh	r3, [r4, #80]	@ movhi
 549              	.L51:
1225:System/shell/shell.c ****     }
1226:System/shell/shell.c ****     if (shell->history.record >= SHELL_HISTORY_MAX_NUMBER)
 550              		.loc 1 1226 5 is_stmt 1 view .LVU178
 551              		.loc 1 1226 23 is_stmt 0 view .LVU179
 552 005c B4F85230 		ldrh	r3, [r4, #82]
 553              		.loc 1 1226 8 view .LVU180
ARM GAS  C:\Users\8bit\AppData\Local\Temp\ccdhdvRO.s 			page 33


 554 0060 042B     		cmp	r3, #4
 555 0062 02D9     		bls	.L46
1227:System/shell/shell.c ****     {
1228:System/shell/shell.c ****         shell->history.record = 0;
 556              		.loc 1 1228 9 is_stmt 1 view .LVU181
 557              		.loc 1 1228 31 is_stmt 0 view .LVU182
 558 0064 0023     		movs	r3, #0
 559 0066 A4F85230 		strh	r3, [r4, #82]	@ movhi
 560              	.L46:
1229:System/shell/shell.c ****     }
1230:System/shell/shell.c **** }
 561              		.loc 1 1230 1 view .LVU183
 562 006a 10BD     		pop	{r4, pc}
 563              	.LVL52:
 564              	.L52:
1212:System/shell/shell.c ****                                             shell->parser.buffer) == 0)
 565              		.loc 1 1212 145 view .LVU184
 566 006c 0423     		movs	r3, #4
 567 006e D3E7     		b	.L48
 568              		.cfi_endproc
 569              	.LFE40:
 571              		.section	.text.shellRemoveParamQuotes,"ax",%progbits
 572              		.align	1
 573              		.syntax unified
 574              		.thumb
 575              		.thumb_func
 577              	shellRemoveParamQuotes:
 578              	.LVL53:
 579              	.LFB30:
 862:System/shell/shell.c ****     unsigned short paramLength;
 580              		.loc 1 862 1 is_stmt 1 view -0
 581              		.cfi_startproc
 582              		@ args = 0, pretend = 0, frame = 0
 583              		@ frame_needed = 0, uses_anonymous_args = 0
 862:System/shell/shell.c ****     unsigned short paramLength;
 584              		.loc 1 862 1 is_stmt 0 view .LVU186
 585 0000 70B5     		push	{r4, r5, r6, lr}
 586              	.LCFI4:
 587              		.cfi_def_cfa_offset 16
 588              		.cfi_offset 4, -16
 589              		.cfi_offset 5, -12
 590              		.cfi_offset 6, -8
 591              		.cfi_offset 14, -4
 592 0002 0546     		mov	r5, r0
 863:System/shell/shell.c ****     for (unsigned short i = 0; i < shell->parser.paramCount; i++)
 593              		.loc 1 863 5 is_stmt 1 view .LVU187
 864:System/shell/shell.c ****     {
 594              		.loc 1 864 5 view .LVU188
 595              	.LBB6:
 864:System/shell/shell.c ****     {
 596              		.loc 1 864 10 view .LVU189
 597              	.LVL54:
 864:System/shell/shell.c ****     {
 598              		.loc 1 864 25 is_stmt 0 view .LVU190
 599 0004 0024     		movs	r4, #0
 864:System/shell/shell.c ****     {
 600              		.loc 1 864 5 view .LVU191
ARM GAS  C:\Users\8bit\AppData\Local\Temp\ccdhdvRO.s 			page 34


 601 0006 0AE0     		b	.L55
 602              	.LVL55:
 603              	.L61:
 868:System/shell/shell.c ****             shell->parser.param[i] = &shell->parser.param[i][1];
 604              		.loc 1 868 13 is_stmt 1 view .LVU192
 868:System/shell/shell.c ****             shell->parser.param[i] = &shell->parser.param[i][1];
 605              		.loc 1 868 39 is_stmt 0 view .LVU193
 606 0008 0021     		movs	r1, #0
 607 000a 1170     		strb	r1, [r2]
 869:System/shell/shell.c ****         }
 608              		.loc 1 869 13 is_stmt 1 view .LVU194
 869:System/shell/shell.c ****         }
 609              		.loc 1 869 58 is_stmt 0 view .LVU195
 610 000c 221D     		adds	r2, r4, #4
 611 000e 05EB8202 		add	r2, r5, r2, lsl #2
 612 0012 5168     		ldr	r1, [r2, #4]
 869:System/shell/shell.c ****         }
 613              		.loc 1 869 38 view .LVU196
 614 0014 0131     		adds	r1, r1, #1
 869:System/shell/shell.c ****         }
 615              		.loc 1 869 36 view .LVU197
 616 0016 5160     		str	r1, [r2, #4]
 617 0018 0CE0     		b	.L56
 618              	.LVL56:
 619              	.L57:
 864:System/shell/shell.c ****     {
 620              		.loc 1 864 62 is_stmt 1 discriminator 2 view .LVU198
 864:System/shell/shell.c ****     {
 621              		.loc 1 864 63 is_stmt 0 discriminator 2 view .LVU199
 622 001a 0134     		adds	r4, r4, #1
 623              	.LVL57:
 864:System/shell/shell.c ****     {
 624              		.loc 1 864 63 discriminator 2 view .LVU200
 625 001c A4B2     		uxth	r4, r4
 626              	.LVL58:
 627              	.L55:
 864:System/shell/shell.c ****     {
 628              		.loc 1 864 32 is_stmt 1 discriminator 1 view .LVU201
 864:System/shell/shell.c ****     {
 629              		.loc 1 864 49 is_stmt 0 discriminator 1 view .LVU202
 630 001e EB8E     		ldrh	r3, [r5, #54]
 864:System/shell/shell.c ****     {
 631              		.loc 1 864 5 discriminator 1 view .LVU203
 632 0020 A342     		cmp	r3, r4
 633 0022 16D9     		bls	.L60
 866:System/shell/shell.c ****         {
 634              		.loc 1 866 9 is_stmt 1 view .LVU204
 866:System/shell/shell.c ****         {
 635              		.loc 1 866 32 is_stmt 0 view .LVU205
 636 0024 2346     		mov	r3, r4
 637 0026 221D     		adds	r2, r4, #4
 638 0028 05EB8202 		add	r2, r5, r2, lsl #2
 639 002c 5268     		ldr	r2, [r2, #4]
 866:System/shell/shell.c ****         {
 640              		.loc 1 866 35 view .LVU206
 641 002e 1178     		ldrb	r1, [r2]	@ zero_extendqisi2
 866:System/shell/shell.c ****         {
ARM GAS  C:\Users\8bit\AppData\Local\Temp\ccdhdvRO.s 			page 35


 642              		.loc 1 866 12 view .LVU207
 643 0030 2229     		cmp	r1, #34
 644 0032 E9D0     		beq	.L61
 645              	.L56:
 871:System/shell/shell.c ****         if (shell->parser.param[i][paramLength - 1] == '\"')
 646              		.loc 1 871 9 is_stmt 1 view .LVU208
 871:System/shell/shell.c ****         if (shell->parser.param[i][paramLength - 1] == '\"')
 647              		.loc 1 871 49 is_stmt 0 view .LVU209
 648 0034 0433     		adds	r3, r3, #4
 649 0036 05EB8303 		add	r3, r5, r3, lsl #2
 650 003a 5E68     		ldr	r6, [r3, #4]
 871:System/shell/shell.c ****         if (shell->parser.param[i][paramLength - 1] == '\"')
 651              		.loc 1 871 23 view .LVU210
 652 003c 3046     		mov	r0, r6
 653 003e FFF7FEFF 		bl	strlen
 654              	.LVL59:
 872:System/shell/shell.c ****         {
 655              		.loc 1 872 9 is_stmt 1 view .LVU211
 872:System/shell/shell.c ****         {
 656              		.loc 1 872 35 is_stmt 0 view .LVU212
 657 0042 83B2     		uxth	r3, r0
 658 0044 013B     		subs	r3, r3, #1
 659 0046 F25C     		ldrb	r2, [r6, r3]	@ zero_extendqisi2
 872:System/shell/shell.c ****         {
 660              		.loc 1 872 12 view .LVU213
 661 0048 222A     		cmp	r2, #34
 662 004a E6D1     		bne	.L57
 874:System/shell/shell.c ****         }
 663              		.loc 1 874 13 is_stmt 1 view .LVU214
 874:System/shell/shell.c ****         }
 664              		.loc 1 874 53 is_stmt 0 view .LVU215
 665 004c 0022     		movs	r2, #0
 666 004e F254     		strb	r2, [r6, r3]
 667 0050 E3E7     		b	.L57
 668              	.LVL60:
 669              	.L60:
 874:System/shell/shell.c ****         }
 670              		.loc 1 874 53 view .LVU216
 671              	.LBE6:
 877:System/shell/shell.c **** 
 672              		.loc 1 877 1 view .LVU217
 673 0052 70BD     		pop	{r4, r5, r6, pc}
 877:System/shell/shell.c **** 
 674              		.loc 1 877 1 view .LVU218
 675              		.cfi_endproc
 676              	.LFE30:
 678              		.section	.text.shellGetCurrent,"ax",%progbits
 679              		.align	1
 680              		.global	shellGetCurrent
 681              		.syntax unified
 682              		.thumb
 683              		.thumb_func
 685              	shellGetCurrent:
 686              	.LFB5:
 228:System/shell/shell.c ****     for (short i = 0; i < SHELL_MAX_NUMBER; i++)
 687              		.loc 1 228 1 is_stmt 1 view -0
 688              		.cfi_startproc
ARM GAS  C:\Users\8bit\AppData\Local\Temp\ccdhdvRO.s 			page 36


 689              		@ args = 0, pretend = 0, frame = 0
 690              		@ frame_needed = 0, uses_anonymous_args = 0
 691              		@ link register save eliminated.
 229:System/shell/shell.c ****     {
 692              		.loc 1 229 5 view .LVU220
 693              	.LBB7:
 229:System/shell/shell.c ****     {
 694              		.loc 1 229 10 view .LVU221
 695              	.LVL61:
 229:System/shell/shell.c ****     {
 696              		.loc 1 229 16 is_stmt 0 view .LVU222
 697 0000 0023     		movs	r3, #0
 229:System/shell/shell.c ****     {
 698              		.loc 1 229 5 view .LVU223
 699 0002 01E0     		b	.L63
 700              	.LVL62:
 701              	.L64:
 229:System/shell/shell.c ****     {
 702              		.loc 1 229 45 is_stmt 1 discriminator 2 view .LVU224
 229:System/shell/shell.c ****     {
 703              		.loc 1 229 46 is_stmt 0 discriminator 2 view .LVU225
 704 0004 0133     		adds	r3, r3, #1
 705              	.LVL63:
 229:System/shell/shell.c ****     {
 706              		.loc 1 229 46 discriminator 2 view .LVU226
 707 0006 1BB2     		sxth	r3, r3
 708              	.LVL64:
 709              	.L63:
 229:System/shell/shell.c ****     {
 710              		.loc 1 229 23 is_stmt 1 discriminator 1 view .LVU227
 229:System/shell/shell.c ****     {
 711              		.loc 1 229 5 is_stmt 0 discriminator 1 view .LVU228
 712 0008 042B     		cmp	r3, #4
 713 000a 0ADC     		bgt	.L67
 231:System/shell/shell.c ****         {
 714              		.loc 1 231 9 is_stmt 1 view .LVU229
 231:System/shell/shell.c ****         {
 715              		.loc 1 231 22 is_stmt 0 view .LVU230
 716 000c 064A     		ldr	r2, .L68
 717 000e 52F82300 		ldr	r0, [r2, r3, lsl #2]
 231:System/shell/shell.c ****         {
 718              		.loc 1 231 12 view .LVU231
 719 0012 0028     		cmp	r0, #0
 720 0014 F6D0     		beq	.L64
 231:System/shell/shell.c ****         {
 721              		.loc 1 231 26 discriminator 1 view .LVU232
 722 0016 90F86020 		ldrb	r2, [r0, #96]	@ zero_extendqisi2
 723 001a 12F0020F 		tst	r2, #2
 724 001e F1D0     		beq	.L64
 725 0020 00E0     		b	.L62
 726              	.L67:
 727              	.LBE7:
 236:System/shell/shell.c **** }
 728              		.loc 1 236 12 view .LVU233
 729 0022 0020     		movs	r0, #0
 730              	.L62:
 237:System/shell/shell.c **** 
ARM GAS  C:\Users\8bit\AppData\Local\Temp\ccdhdvRO.s 			page 37


 731              		.loc 1 237 1 view .LVU234
 732 0024 7047     		bx	lr
 733              	.L69:
 734 0026 00BF     		.align	2
 735              	.L68:
 736 0028 00000000 		.word	.LANCHOR0
 737              		.cfi_endproc
 738              	.LFE5:
 740              		.section	.text.shellWriteByte,"ax",%progbits
 741              		.align	1
 742              		.global	shellWriteByte
 743              		.syntax unified
 744              		.thumb
 745              		.thumb_func
 747              	shellWriteByte:
 748              	.LVL65:
 749              	.LFB6:
 246:System/shell/shell.c ****     shell->write(&data, sizeof(data));
 750              		.loc 1 246 1 is_stmt 1 view -0
 751              		.cfi_startproc
 752              		@ args = 0, pretend = 0, frame = 8
 753              		@ frame_needed = 0, uses_anonymous_args = 0
 246:System/shell/shell.c ****     shell->write(&data, sizeof(data));
 754              		.loc 1 246 1 is_stmt 0 view .LVU236
 755 0000 00B5     		push	{lr}
 756              	.LCFI5:
 757              		.cfi_def_cfa_offset 4
 758              		.cfi_offset 14, -4
 759 0002 83B0     		sub	sp, sp, #12
 760              	.LCFI6:
 761              		.cfi_def_cfa_offset 16
 762 0004 8DF80710 		strb	r1, [sp, #7]
 247:System/shell/shell.c **** }
 763              		.loc 1 247 5 is_stmt 1 view .LVU237
 247:System/shell/shell.c **** }
 764              		.loc 1 247 10 is_stmt 0 view .LVU238
 765 0008 836E     		ldr	r3, [r0, #104]
 247:System/shell/shell.c **** }
 766              		.loc 1 247 5 view .LVU239
 767 000a 0121     		movs	r1, #1
 768              	.LVL66:
 247:System/shell/shell.c **** }
 769              		.loc 1 247 5 view .LVU240
 770 000c 0DF10700 		add	r0, sp, #7
 771              	.LVL67:
 247:System/shell/shell.c **** }
 772              		.loc 1 247 5 view .LVU241
 773 0010 9847     		blx	r3
 774              	.LVL68:
 248:System/shell/shell.c **** 
 775              		.loc 1 248 1 view .LVU242
 776 0012 03B0     		add	sp, sp, #12
 777              	.LCFI7:
 778              		.cfi_def_cfa_offset 4
 779              		@ sp needed
 780 0014 5DF804FB 		ldr	pc, [sp], #4
 781              		.cfi_endproc
ARM GAS  C:\Users\8bit\AppData\Local\Temp\ccdhdvRO.s 			page 38


 782              	.LFE6:
 784              		.section	.text.shellRight,"ax",%progbits
 785              		.align	1
 786              		.global	shellRight
 787              		.syntax unified
 788              		.thumb
 789              		.thumb_func
 791              	shellRight:
 792              	.LVL69:
 793              	.LFB46:
1231:System/shell/shell.c **** 
1232:System/shell/shell.c **** /**
1233:System/shell/shell.c ****  * @brief shell历史记录查找
1234:System/shell/shell.c ****  *
1235:System/shell/shell.c ****  * @param shell shell对象
1236:System/shell/shell.c ****  * @param dir 方向 {@code <0}往上查找 {@code >0}往下查找
1237:System/shell/shell.c ****  */
1238:System/shell/shell.c **** static void shellHistory(Shell *shell, signed char dir)
1239:System/shell/shell.c **** {
1240:System/shell/shell.c ****     if (dir > 0)
1241:System/shell/shell.c ****     {
1242:System/shell/shell.c ****         if (shell->history.offset-- <=
1243:System/shell/shell.c ****             -((shell->history.number > shell->history.record) ? shell->history.number : shell->hist
1244:System/shell/shell.c ****         {
1245:System/shell/shell.c ****             shell->history.offset = -((shell->history.number > shell->history.record)
1246:System/shell/shell.c ****                                           ? shell->history.number
1247:System/shell/shell.c ****                                           : shell->history.record);
1248:System/shell/shell.c ****         }
1249:System/shell/shell.c ****     }
1250:System/shell/shell.c ****     else if (dir < 0)
1251:System/shell/shell.c ****     {
1252:System/shell/shell.c ****         if (++shell->history.offset > 0)
1253:System/shell/shell.c ****         {
1254:System/shell/shell.c ****             shell->history.offset = 0;
1255:System/shell/shell.c ****             return;
1256:System/shell/shell.c ****         }
1257:System/shell/shell.c ****     }
1258:System/shell/shell.c ****     else
1259:System/shell/shell.c ****     {
1260:System/shell/shell.c ****         return;
1261:System/shell/shell.c ****     }
1262:System/shell/shell.c ****     shellClearCommandLine(shell);
1263:System/shell/shell.c ****     if (shell->history.offset == 0)
1264:System/shell/shell.c ****     {
1265:System/shell/shell.c ****         shell->parser.cursor = shell->parser.length = 0;
1266:System/shell/shell.c ****     }
1267:System/shell/shell.c ****     else
1268:System/shell/shell.c ****     {
1269:System/shell/shell.c ****         if ((shell->parser.length = shellStringCopy(shell->parser.buffer,
1270:System/shell/shell.c ****                                                     shell->history.item[(shell->history.record + SH
1271:System/shell/shell.c ****         {
1272:System/shell/shell.c ****             return;
1273:System/shell/shell.c ****         }
1274:System/shell/shell.c ****         shell->parser.cursor = shell->parser.length;
1275:System/shell/shell.c ****         shellWriteString(shell, shell->parser.buffer);
1276:System/shell/shell.c ****     }
1277:System/shell/shell.c **** }
ARM GAS  C:\Users\8bit\AppData\Local\Temp\ccdhdvRO.s 			page 39


1278:System/shell/shell.c **** 
1279:System/shell/shell.c **** /**
1280:System/shell/shell.c ****  * @brief shell 常规输入
1281:System/shell/shell.c ****  *
1282:System/shell/shell.c ****  * @param shell shell 对象
1283:System/shell/shell.c ****  * @param data 输入字符
1284:System/shell/shell.c ****  */
1285:System/shell/shell.c **** void shellNormalInput(Shell *shell, char data)
1286:System/shell/shell.c **** {
1287:System/shell/shell.c ****     shell->status.tabFlag = 0;
1288:System/shell/shell.c ****     shellInsertByte(shell, data);
1289:System/shell/shell.c **** }
1290:System/shell/shell.c **** 
1291:System/shell/shell.c **** /**
1292:System/shell/shell.c ****  * @brief shell运行命令
1293:System/shell/shell.c ****  *
1294:System/shell/shell.c ****  * @param shell shell对象
1295:System/shell/shell.c ****  */
1296:System/shell/shell.c **** void shellExec(Shell *shell)
1297:System/shell/shell.c **** {
1298:System/shell/shell.c **** 
1299:System/shell/shell.c ****     if (shell->parser.length == 0)
1300:System/shell/shell.c ****     {
1301:System/shell/shell.c ****         return;
1302:System/shell/shell.c ****     }
1303:System/shell/shell.c **** 
1304:System/shell/shell.c ****     shell->parser.buffer[shell->parser.length] = 0;
1305:System/shell/shell.c **** 
1306:System/shell/shell.c ****     if (shell->status.isChecked)
1307:System/shell/shell.c ****     {
1308:System/shell/shell.c ****         shellHistoryAdd(shell);
1309:System/shell/shell.c ****         shellParserParam(shell);
1310:System/shell/shell.c ****         shell->parser.length = shell->parser.cursor = 0;
1311:System/shell/shell.c ****         if (shell->parser.paramCount == 0)
1312:System/shell/shell.c ****         {
1313:System/shell/shell.c ****             return;
1314:System/shell/shell.c ****         }
1315:System/shell/shell.c ****         shellWriteString(shell, "\r\n");
1316:System/shell/shell.c **** 
1317:System/shell/shell.c ****         ShellCommand *command = shellSeekCommand(shell,
1318:System/shell/shell.c ****                                                  shell->parser.param[0],
1319:System/shell/shell.c ****                                                  shell->commandList.base,
1320:System/shell/shell.c ****                                                  0);
1321:System/shell/shell.c ****         if (command != NULL)
1322:System/shell/shell.c ****         {
1323:System/shell/shell.c ****             shellRunCommand(shell, command);
1324:System/shell/shell.c ****         }
1325:System/shell/shell.c ****         else
1326:System/shell/shell.c ****         {
1327:System/shell/shell.c ****             shellWriteString(shell, shellText[SHELL_TEXT_CMD_NOT_FOUND]);
1328:System/shell/shell.c ****         }
1329:System/shell/shell.c ****     }
1330:System/shell/shell.c ****     else
1331:System/shell/shell.c ****     {
1332:System/shell/shell.c ****         shellCheckPassword(shell);
1333:System/shell/shell.c ****     }
1334:System/shell/shell.c **** }
ARM GAS  C:\Users\8bit\AppData\Local\Temp\ccdhdvRO.s 			page 40


1335:System/shell/shell.c **** 
1336:System/shell/shell.c **** /**
1337:System/shell/shell.c ****  * @brief shell上方向键输入
1338:System/shell/shell.c ****  *
1339:System/shell/shell.c ****  * @param shell shell对象
1340:System/shell/shell.c ****  */
1341:System/shell/shell.c **** void shellUp(Shell *shell)
1342:System/shell/shell.c **** {
1343:System/shell/shell.c ****     shellHistory(shell, 1);
1344:System/shell/shell.c **** }
1345:System/shell/shell.c **** SHELL_EXPORT_KEY(SHELL_CMD_PERMISSION(0), 0x1B5B4100, shellUp, up);
1346:System/shell/shell.c **** 
1347:System/shell/shell.c **** /**
1348:System/shell/shell.c ****  * @brief shell下方向键输入
1349:System/shell/shell.c ****  *
1350:System/shell/shell.c ****  * @param shell shell对象
1351:System/shell/shell.c ****  */
1352:System/shell/shell.c **** void shellDown(Shell *shell)
1353:System/shell/shell.c **** {
1354:System/shell/shell.c ****     shellHistory(shell, -1);
1355:System/shell/shell.c **** }
1356:System/shell/shell.c **** SHELL_EXPORT_KEY(SHELL_CMD_PERMISSION(0), 0x1B5B4200, shellDown, down);
1357:System/shell/shell.c **** 
1358:System/shell/shell.c **** /**
1359:System/shell/shell.c ****  * @brief shell右方向键输入
1360:System/shell/shell.c ****  *
1361:System/shell/shell.c ****  * @param shell shell对象
1362:System/shell/shell.c ****  */
1363:System/shell/shell.c **** void shellRight(Shell *shell)
1364:System/shell/shell.c **** {
 794              		.loc 1 1364 1 is_stmt 1 view -0
 795              		.cfi_startproc
 796              		@ args = 0, pretend = 0, frame = 0
 797              		@ frame_needed = 0, uses_anonymous_args = 0
 798              		.loc 1 1364 1 is_stmt 0 view .LVU244
 799 0000 08B5     		push	{r3, lr}
 800              	.LCFI8:
 801              		.cfi_def_cfa_offset 8
 802              		.cfi_offset 3, -8
 803              		.cfi_offset 14, -4
1365:System/shell/shell.c ****     if (shell->parser.cursor < shell->parser.length)
 804              		.loc 1 1365 5 is_stmt 1 view .LVU245
 805              		.loc 1 1365 22 is_stmt 0 view .LVU246
 806 0002 C389     		ldrh	r3, [r0, #14]
 807              		.loc 1 1365 45 view .LVU247
 808 0004 8289     		ldrh	r2, [r0, #12]
 809              		.loc 1 1365 8 view .LVU248
 810 0006 9342     		cmp	r3, r2
 811 0008 00D3     		bcc	.L75
 812              	.LVL70:
 813              	.L72:
1366:System/shell/shell.c ****     {
1367:System/shell/shell.c ****         shellWriteByte(shell, shell->parser.buffer[shell->parser.cursor++]);
1368:System/shell/shell.c ****     }
1369:System/shell/shell.c **** }
 814              		.loc 1 1369 1 view .LVU249
 815 000a 08BD     		pop	{r3, pc}
ARM GAS  C:\Users\8bit\AppData\Local\Temp\ccdhdvRO.s 			page 41


 816              	.LVL71:
 817              	.L75:
1367:System/shell/shell.c ****     }
 818              		.loc 1 1367 9 is_stmt 1 view .LVU250
1367:System/shell/shell.c ****     }
 819              		.loc 1 1367 44 is_stmt 0 view .LVU251
 820 000c 0269     		ldr	r2, [r0, #16]
1367:System/shell/shell.c ****     }
 821              		.loc 1 1367 72 view .LVU252
 822 000e 591C     		adds	r1, r3, #1
 823 0010 C181     		strh	r1, [r0, #14]	@ movhi
1367:System/shell/shell.c ****     }
 824              		.loc 1 1367 9 view .LVU253
 825 0012 D15C     		ldrb	r1, [r2, r3]	@ zero_extendqisi2
 826 0014 FFF7FEFF 		bl	shellWriteByte
 827              	.LVL72:
 828              		.loc 1 1369 1 view .LVU254
 829 0018 F7E7     		b	.L72
 830              		.cfi_endproc
 831              	.LFE46:
 833              		.section	.text.shellLeft,"ax",%progbits
 834              		.align	1
 835              		.global	shellLeft
 836              		.syntax unified
 837              		.thumb
 838              		.thumb_func
 840              	shellLeft:
 841              	.LVL73:
 842              	.LFB47:
1370:System/shell/shell.c **** SHELL_EXPORT_KEY(SHELL_CMD_PERMISSION(0) | SHELL_CMD_ENABLE_UNCHECKED,
1371:System/shell/shell.c ****                  0x1B5B4300, shellRight, right);
1372:System/shell/shell.c **** 
1373:System/shell/shell.c **** /**
1374:System/shell/shell.c ****  * @brief shell左方向键输入
1375:System/shell/shell.c ****  *
1376:System/shell/shell.c ****  * @param shell shell对象
1377:System/shell/shell.c ****  */
1378:System/shell/shell.c **** void shellLeft(Shell *shell)
1379:System/shell/shell.c **** {
 843              		.loc 1 1379 1 is_stmt 1 view -0
 844              		.cfi_startproc
 845              		@ args = 0, pretend = 0, frame = 0
 846              		@ frame_needed = 0, uses_anonymous_args = 0
1380:System/shell/shell.c ****     if (shell->parser.cursor > 0)
 847              		.loc 1 1380 5 view .LVU256
 848              		.loc 1 1380 22 is_stmt 0 view .LVU257
 849 0000 C389     		ldrh	r3, [r0, #14]
 850              		.loc 1 1380 8 view .LVU258
 851 0002 03B9     		cbnz	r3, .L82
 852 0004 7047     		bx	lr
 853              	.L82:
1379:System/shell/shell.c ****     if (shell->parser.cursor > 0)
 854              		.loc 1 1379 1 view .LVU259
 855 0006 10B5     		push	{r4, lr}
 856              	.LCFI9:
 857              		.cfi_def_cfa_offset 8
 858              		.cfi_offset 4, -8
ARM GAS  C:\Users\8bit\AppData\Local\Temp\ccdhdvRO.s 			page 42


 859              		.cfi_offset 14, -4
 860 0008 0446     		mov	r4, r0
1381:System/shell/shell.c ****     {
1382:System/shell/shell.c ****         shellWriteByte(shell, '\b');
 861              		.loc 1 1382 9 is_stmt 1 view .LVU260
 862 000a 0821     		movs	r1, #8
 863 000c FFF7FEFF 		bl	shellWriteByte
 864              	.LVL74:
1383:System/shell/shell.c ****         shell->parser.cursor--;
 865              		.loc 1 1383 9 view .LVU261
 866              		.loc 1 1383 22 is_stmt 0 view .LVU262
 867 0010 E389     		ldrh	r3, [r4, #14]
 868              		.loc 1 1383 29 view .LVU263
 869 0012 013B     		subs	r3, r3, #1
 870 0014 E381     		strh	r3, [r4, #14]	@ movhi
1384:System/shell/shell.c ****     }
1385:System/shell/shell.c **** }
 871              		.loc 1 1385 1 view .LVU264
 872 0016 10BD     		pop	{r4, pc}
 873              		.loc 1 1385 1 view .LVU265
 874              		.cfi_endproc
 875              	.LFE47:
 877              		.section	.text.shellWriteString,"ax",%progbits
 878              		.align	1
 879              		.global	shellWriteString
 880              		.syntax unified
 881              		.thumb
 882              		.thumb_func
 884              	shellWriteString:
 885              	.LVL75:
 886              	.LFB7:
 259:System/shell/shell.c ****     unsigned short count = 0;
 887              		.loc 1 259 1 is_stmt 1 view -0
 888              		.cfi_startproc
 889              		@ args = 0, pretend = 0, frame = 0
 890              		@ frame_needed = 0, uses_anonymous_args = 0
 259:System/shell/shell.c ****     unsigned short count = 0;
 891              		.loc 1 259 1 is_stmt 0 view .LVU267
 892 0000 38B5     		push	{r3, r4, r5, lr}
 893              	.LCFI10:
 894              		.cfi_def_cfa_offset 16
 895              		.cfi_offset 3, -16
 896              		.cfi_offset 4, -12
 897              		.cfi_offset 5, -8
 898              		.cfi_offset 14, -4
 260:System/shell/shell.c ****     SHELL_ASSERT(shell->write, return 0);
 899              		.loc 1 260 5 is_stmt 1 view .LVU268
 900              	.LVL76:
 261:System/shell/shell.c **** 
 901              		.loc 1 261 5 view .LVU269
 902 0002 856E     		ldr	r5, [r0, #104]
 903 0004 35B1     		cbz	r5, .L84
 904 0006 0C46     		mov	r4, r1
 261:System/shell/shell.c **** 
 905              		.loc 1 261 41 discriminator 2 view .LVU270
 263:System/shell/shell.c ****     return count;
 906              		.loc 1 263 5 discriminator 2 view .LVU271
ARM GAS  C:\Users\8bit\AppData\Local\Temp\ccdhdvRO.s 			page 43


 263:System/shell/shell.c ****     return count;
 907              		.loc 1 263 26 is_stmt 0 discriminator 2 view .LVU272
 908 0008 0846     		mov	r0, r1
 909              	.LVL77:
 263:System/shell/shell.c ****     return count;
 910              		.loc 1 263 26 discriminator 2 view .LVU273
 911 000a FFF7FEFF 		bl	strlen
 912              	.LVL78:
 263:System/shell/shell.c ****     return count;
 913              		.loc 1 263 5 discriminator 2 view .LVU274
 914 000e 81B2     		uxth	r1, r0
 915 0010 2046     		mov	r0, r4
 916 0012 A847     		blx	r5
 917              	.LVL79:
 264:System/shell/shell.c **** }
 918              		.loc 1 264 5 is_stmt 1 discriminator 2 view .LVU275
 919              	.L84:
 265:System/shell/shell.c **** 
 920              		.loc 1 265 1 is_stmt 0 view .LVU276
 921 0014 0020     		movs	r0, #0
 922 0016 38BD     		pop	{r3, r4, r5, pc}
 923              		.cfi_endproc
 924              	.LFE7:
 926              		.section	.rodata.shellSetUser.str1.4,"aMS",%progbits,1
 927              		.align	2
 928              	.LC0:
 929 0000 1B5B324A 		.ascii	"\033[2J\033[1H\000"
 929      1B5B3148 
 929      00
 930 0009 000000   		.align	2
 931              	.LC1:
 932 000c 0D0A0D0A 		.ascii	"\015\012\015\012/************  BitRtos  ***********"
 932      2F2A2A2A 
 932      2A2A2A2A 
 932      2A2A2A2A 
 932      2A202042 
 933 0033 2A5C720A 		.ascii	"*\\r\012\015\012Team Mate:        8_B!T0\015\012   "
 933      0D0A5465 
 933      616D204D 
 933      6174653A 
 933      20202020 
 934 0056 20202020 		.ascii	"               WHY\015\012\015\012Build:           "
 934      20202020 
 934      20202020 
 934      20202057 
 934      48590D0A 
 935 007d 204F6374 		.ascii	" Oct 10 2024 20:32:09\015\012Shell   Version:  3.0."
 935      20313020 
 935      32303234 
 935      2032303A 
 935      33323A30 
 936 00aa 360D0A00 		.ascii	"6\015\012\000"
 937              		.section	.text.shellSetUser,"ax",%progbits
 938              		.align	1
 939              		.syntax unified
 940              		.thumb
 941              		.thumb_func
ARM GAS  C:\Users\8bit\AppData\Local\Temp\ccdhdvRO.s 			page 44


 943              	shellSetUser:
 944              	.LVL80:
 945              	.LFB38:
1165:System/shell/shell.c ****     shell->info.user = user;
 946              		.loc 1 1165 1 is_stmt 1 view -0
 947              		.cfi_startproc
 948              		@ args = 0, pretend = 0, frame = 0
 949              		@ frame_needed = 0, uses_anonymous_args = 0
1165:System/shell/shell.c ****     shell->info.user = user;
 950              		.loc 1 1165 1 is_stmt 0 view .LVU278
 951 0000 10B5     		push	{r4, lr}
 952              	.LCFI11:
 953              		.cfi_def_cfa_offset 8
 954              		.cfi_offset 4, -8
 955              		.cfi_offset 14, -4
 956 0002 0446     		mov	r4, r0
1166:System/shell/shell.c ****     shell->status.isChecked =
 957              		.loc 1 1166 5 is_stmt 1 view .LVU279
1166:System/shell/shell.c ****     shell->status.isChecked =
 958              		.loc 1 1166 22 is_stmt 0 view .LVU280
 959 0004 0160     		str	r1, [r0]
1167:System/shell/shell.c ****         ((user->data.user.password && strlen(user->data.user.password) != 0) && (shell->parser.para
 960              		.loc 1 1167 5 is_stmt 1 view .LVU281
1168:System/shell/shell.c ****             ? 0
 961              		.loc 1 1168 26 is_stmt 0 view .LVU282
 962 0006 8868     		ldr	r0, [r1, #8]
 963              	.LVL81:
1170:System/shell/shell.c **** 
 964              		.loc 1 1170 13 view .LVU283
 965 0008 50B1     		cbz	r0, .L89
1168:System/shell/shell.c ****             ? 0
 966              		.loc 1 1168 72 view .LVU284
 967 000a 0378     		ldrb	r3, [r0]	@ zero_extendqisi2
1168:System/shell/shell.c ****             ? 0
 968              		.loc 1 1168 36 view .LVU285
 969 000c 53B1     		cbz	r3, .L90
1168:System/shell/shell.c ****             ? 0
 970              		.loc 1 1168 95 discriminator 1 view .LVU286
 971 000e E38E     		ldrh	r3, [r4, #54]
1170:System/shell/shell.c **** 
 972              		.loc 1 1170 13 discriminator 1 view .LVU287
 973 0010 012B     		cmp	r3, #1
 974 0012 18D9     		bls	.L91
1168:System/shell/shell.c ****             ? 0
 975              		.loc 1 1168 114 view .LVU288
 976 0014 A169     		ldr	r1, [r4, #24]
 977              	.LVL82:
1168:System/shell/shell.c ****             ? 0
 978              		.loc 1 1168 114 view .LVU289
 979 0016 FFF7FEFF 		bl	strcmp
 980              	.LVL83:
1168:System/shell/shell.c ****             ? 0
 981              		.loc 1 1168 111 view .LVU290
 982 001a B0B1     		cbz	r0, .L92
1170:System/shell/shell.c **** 
 983              		.loc 1 1170 13 view .LVU291
 984 001c 0022     		movs	r2, #0
ARM GAS  C:\Users\8bit\AppData\Local\Temp\ccdhdvRO.s 			page 45


 985 001e 02E0     		b	.L87
 986              	.LVL84:
 987              	.L89:
1170:System/shell/shell.c **** 
 988              		.loc 1 1170 13 view .LVU292
 989 0020 0122     		movs	r2, #1
 990 0022 00E0     		b	.L87
 991              	.L90:
 992 0024 0122     		movs	r2, #1
 993              	.LVL85:
 994              	.L87:
1167:System/shell/shell.c ****         ((user->data.user.password && strlen(user->data.user.password) != 0) && (shell->parser.para
 995              		.loc 1 1167 29 discriminator 4 view .LVU293
 996 0026 94F86030 		ldrb	r3, [r4, #96]	@ zero_extendqisi2
 997 002a 62F30003 		bfi	r3, r2, #0, #1
 998 002e 84F86030 		strb	r3, [r4, #96]
1173:System/shell/shell.c **** #endif
 999              		.loc 1 1173 5 is_stmt 1 discriminator 4 view .LVU294
 1000 0032 0949     		ldr	r1, .L95
 1001 0034 2046     		mov	r0, r4
 1002 0036 FFF7FEFF 		bl	shellWriteString
 1003              	.LVL86:
1176:System/shell/shell.c ****     {
 1004              		.loc 1 1176 5 discriminator 4 view .LVU295
1176:System/shell/shell.c ****     {
 1005              		.loc 1 1176 9 is_stmt 0 discriminator 4 view .LVU296
 1006 003a 94F86030 		ldrb	r3, [r4, #96]	@ zero_extendqisi2
1176:System/shell/shell.c ****     {
 1007              		.loc 1 1176 8 discriminator 4 view .LVU297
 1008 003e 13F0010F 		tst	r3, #1
 1009 0042 04D1     		bne	.L94
 1010              	.L86:
1181:System/shell/shell.c **** 
 1011              		.loc 1 1181 1 view .LVU298
 1012 0044 10BD     		pop	{r4, pc}
 1013              	.LVL87:
 1014              	.L91:
1170:System/shell/shell.c **** 
 1015              		.loc 1 1170 13 view .LVU299
 1016 0046 0022     		movs	r2, #0
 1017 0048 EDE7     		b	.L87
 1018              	.LVL88:
 1019              	.L92:
1170:System/shell/shell.c **** 
 1020              		.loc 1 1170 13 view .LVU300
 1021 004a 0122     		movs	r2, #1
 1022 004c EBE7     		b	.L87
 1023              	.L94:
1178:System/shell/shell.c ****     }
 1024              		.loc 1 1178 9 is_stmt 1 view .LVU301
 1025 004e 0349     		ldr	r1, .L95+4
 1026 0050 2046     		mov	r0, r4
 1027 0052 FFF7FEFF 		bl	shellWriteString
 1028              	.LVL89:
1181:System/shell/shell.c **** 
 1029              		.loc 1 1181 1 is_stmt 0 view .LVU302
 1030 0056 F5E7     		b	.L86
ARM GAS  C:\Users\8bit\AppData\Local\Temp\ccdhdvRO.s 			page 46


 1031              	.L96:
 1032              		.align	2
 1033              	.L95:
 1034 0058 00000000 		.word	.LC0
 1035 005c 0C000000 		.word	.LC1
 1036              		.cfi_endproc
 1037              	.LFE38:
 1039              		.section	.rodata.shellWriteCommandLine.str1.4,"aMS",%progbits,1
 1040              		.align	2
 1041              	.LC2:
 1042 0000 2F00     		.ascii	"/\000"
 1043 0002 0000     		.align	2
 1044              	.LC3:
 1045 0004 0D0A00   		.ascii	"\015\012\000"
 1046 0007 00       		.align	2
 1047              	.LC4:
 1048 0008 3A00     		.ascii	":\000"
 1049 000a 0000     		.align	2
 1050              	.LC5:
 1051 000c 242000   		.ascii	"$ \000"
 1052 000f 00       		.align	2
 1053              	.LC6:
 1054 0010 0D0A506C 		.ascii	"\015\012Please input password:\000"
 1054      65617365 
 1054      20696E70 
 1054      75742070 
 1054      61737377 
 1055              		.section	.text.shellWriteCommandLine,"ax",%progbits
 1056              		.align	1
 1057              		.syntax unified
 1058              		.thumb
 1059              		.thumb_func
 1061              	shellWriteCommandLine:
 1062              	.LVL90:
 1063              	.LFB9:
 302:System/shell/shell.c ****     if (shell->status.isChecked)
 1064              		.loc 1 302 1 is_stmt 1 view -0
 1065              		.cfi_startproc
 1066              		@ args = 0, pretend = 0, frame = 0
 1067              		@ frame_needed = 0, uses_anonymous_args = 0
 302:System/shell/shell.c ****     if (shell->status.isChecked)
 1068              		.loc 1 302 1 is_stmt 0 view .LVU304
 1069 0000 10B5     		push	{r4, lr}
 1070              	.LCFI12:
 1071              		.cfi_def_cfa_offset 8
 1072              		.cfi_offset 4, -8
 1073              		.cfi_offset 14, -4
 1074 0002 0446     		mov	r4, r0
 303:System/shell/shell.c ****     {
 1075              		.loc 1 303 5 is_stmt 1 view .LVU305
 303:System/shell/shell.c ****     {
 1076              		.loc 1 303 9 is_stmt 0 view .LVU306
 1077 0004 90F86030 		ldrb	r3, [r0, #96]	@ zero_extendqisi2
 303:System/shell/shell.c ****     {
 1078              		.loc 1 303 8 view .LVU307
 1079 0008 13F0010F 		tst	r3, #1
 1080 000c 19D0     		beq	.L98
ARM GAS  C:\Users\8bit\AppData\Local\Temp\ccdhdvRO.s 			page 47


 305:System/shell/shell.c ****         {
 1081              		.loc 1 305 9 is_stmt 1 view .LVU308
 305:System/shell/shell.c ****         {
 1082              		.loc 1 305 12 is_stmt 0 view .LVU309
 1083 000e 91B9     		cbnz	r1, .L103
 1084              	.LVL91:
 1085              	.L99:
 309:System/shell/shell.c ****         shellWriteString(shell, ":");
 1086              		.loc 1 309 9 is_stmt 1 view .LVU310
 309:System/shell/shell.c ****         shellWriteString(shell, ":");
 1087              		.loc 1 309 44 is_stmt 0 view .LVU311
 1088 0010 2368     		ldr	r3, [r4]
 309:System/shell/shell.c ****         shellWriteString(shell, ":");
 1089              		.loc 1 309 9 view .LVU312
 1090 0012 5968     		ldr	r1, [r3, #4]
 1091 0014 2046     		mov	r0, r4
 1092 0016 FFF7FEFF 		bl	shellWriteString
 1093              	.LVL92:
 310:System/shell/shell.c ****         shellWriteString(shell, shell->info.path ? shell->info.path : "/");
 1094              		.loc 1 310 9 is_stmt 1 view .LVU313
 1095 001a 0C49     		ldr	r1, .L105
 1096 001c 2046     		mov	r0, r4
 1097 001e FFF7FEFF 		bl	shellWriteString
 1098              	.LVL93:
 311:System/shell/shell.c ****         shellWriteString(shell, "$ ");
 1099              		.loc 1 311 9 view .LVU314
 311:System/shell/shell.c ****         shellWriteString(shell, "$ ");
 1100              		.loc 1 311 44 is_stmt 0 view .LVU315
 1101 0022 A168     		ldr	r1, [r4, #8]
 311:System/shell/shell.c ****         shellWriteString(shell, "$ ");
 1102              		.loc 1 311 9 view .LVU316
 1103 0024 59B1     		cbz	r1, .L104
 1104              	.L100:
 311:System/shell/shell.c ****         shellWriteString(shell, "$ ");
 1105              		.loc 1 311 9 discriminator 4 view .LVU317
 1106 0026 2046     		mov	r0, r4
 1107 0028 FFF7FEFF 		bl	shellWriteString
 1108              	.LVL94:
 312:System/shell/shell.c ****     }
 1109              		.loc 1 312 9 is_stmt 1 discriminator 4 view .LVU318
 1110 002c 0849     		ldr	r1, .L105+4
 1111 002e 2046     		mov	r0, r4
 1112 0030 FFF7FEFF 		bl	shellWriteString
 1113              	.LVL95:
 1114              	.L97:
 318:System/shell/shell.c **** 
 1115              		.loc 1 318 1 is_stmt 0 view .LVU319
 1116 0034 10BD     		pop	{r4, pc}
 1117              	.LVL96:
 1118              	.L103:
 307:System/shell/shell.c ****         }
 1119              		.loc 1 307 13 is_stmt 1 view .LVU320
 1120 0036 0749     		ldr	r1, .L105+8
 1121              	.LVL97:
 307:System/shell/shell.c ****         }
 1122              		.loc 1 307 13 is_stmt 0 view .LVU321
 1123 0038 FFF7FEFF 		bl	shellWriteString
ARM GAS  C:\Users\8bit\AppData\Local\Temp\ccdhdvRO.s 			page 48


 1124              	.LVL98:
 307:System/shell/shell.c ****         }
 1125              		.loc 1 307 13 view .LVU322
 1126 003c E8E7     		b	.L99
 1127              	.L104:
 311:System/shell/shell.c ****         shellWriteString(shell, "$ ");
 1128              		.loc 1 311 9 view .LVU323
 1129 003e 0649     		ldr	r1, .L105+12
 1130 0040 F1E7     		b	.L100
 1131              	.LVL99:
 1132              	.L98:
 316:System/shell/shell.c ****     }
 1133              		.loc 1 316 9 is_stmt 1 view .LVU324
 1134 0042 0649     		ldr	r1, .L105+16
 1135              	.LVL100:
 316:System/shell/shell.c ****     }
 1136              		.loc 1 316 9 is_stmt 0 view .LVU325
 1137 0044 FFF7FEFF 		bl	shellWriteString
 1138              	.LVL101:
 318:System/shell/shell.c **** 
 1139              		.loc 1 318 1 view .LVU326
 1140 0048 F4E7     		b	.L97
 1141              	.L106:
 1142 004a 00BF     		.align	2
 1143              	.L105:
 1144 004c 08000000 		.word	.LC4
 1145 0050 0C000000 		.word	.LC5
 1146 0054 04000000 		.word	.LC3
 1147 0058 00000000 		.word	.LC2
 1148 005c 10000000 		.word	.LC6
 1149              		.cfi_endproc
 1150              	.LFE9:
 1152              		.section	.rodata.shellCheckPassword.str1.4,"aMS",%progbits,1
 1153              		.align	2
 1154              	.LC7:
 1155 0000 0D0A7061 		.ascii	"\015\012password error\015\012\000"
 1155      7373776F 
 1155      72642065 
 1155      72726F72 
 1155      0D0A00
 1156              		.section	.text.shellCheckPassword,"ax",%progbits
 1157              		.align	1
 1158              		.syntax unified
 1159              		.thumb
 1160              		.thumb_func
 1162              	shellCheckPassword:
 1163              	.LVL102:
 1164              	.LFB37:
1142:System/shell/shell.c ****     if (strcmp(shell->parser.buffer, shell->info.user->data.user.password) == 0)
 1165              		.loc 1 1142 1 is_stmt 1 view -0
 1166              		.cfi_startproc
 1167              		@ args = 0, pretend = 0, frame = 0
 1168              		@ frame_needed = 0, uses_anonymous_args = 0
1142:System/shell/shell.c ****     if (strcmp(shell->parser.buffer, shell->info.user->data.user.password) == 0)
 1169              		.loc 1 1142 1 is_stmt 0 view .LVU328
 1170 0000 10B5     		push	{r4, lr}
 1171              	.LCFI13:
ARM GAS  C:\Users\8bit\AppData\Local\Temp\ccdhdvRO.s 			page 49


 1172              		.cfi_def_cfa_offset 8
 1173              		.cfi_offset 4, -8
 1174              		.cfi_offset 14, -4
 1175 0002 0446     		mov	r4, r0
1143:System/shell/shell.c ****     {
 1176              		.loc 1 1143 5 is_stmt 1 view .LVU329
1143:System/shell/shell.c ****     {
 1177              		.loc 1 1143 49 is_stmt 0 view .LVU330
 1178 0004 0368     		ldr	r3, [r0]
1143:System/shell/shell.c ****     {
 1179              		.loc 1 1143 9 view .LVU331
 1180 0006 9968     		ldr	r1, [r3, #8]
 1181 0008 0069     		ldr	r0, [r0, #16]
 1182              	.LVL103:
1143:System/shell/shell.c ****     {
 1183              		.loc 1 1143 9 view .LVU332
 1184 000a FFF7FEFF 		bl	strcmp
 1185              	.LVL104:
1143:System/shell/shell.c ****     {
 1186              		.loc 1 1143 8 view .LVU333
 1187 000e 68B9     		cbnz	r0, .L108
1145:System/shell/shell.c **** #if SHELL_SHOW_INFO == 1
 1188              		.loc 1 1145 9 is_stmt 1 view .LVU334
1145:System/shell/shell.c **** #if SHELL_SHOW_INFO == 1
 1189              		.loc 1 1145 33 is_stmt 0 view .LVU335
 1190 0010 94F86030 		ldrb	r3, [r4, #96]	@ zero_extendqisi2
 1191 0014 43F00103 		orr	r3, r3, #1
 1192 0018 84F86030 		strb	r3, [r4, #96]
1147:System/shell/shell.c **** #endif
 1193              		.loc 1 1147 9 is_stmt 1 view .LVU336
 1194 001c 0649     		ldr	r1, .L111
 1195 001e 2046     		mov	r0, r4
 1196 0020 FFF7FEFF 		bl	shellWriteString
 1197              	.LVL105:
 1198              	.L109:
1154:System/shell/shell.c ****     shell->parser.cursor = 0;
 1199              		.loc 1 1154 5 view .LVU337
1154:System/shell/shell.c ****     shell->parser.cursor = 0;
 1200              		.loc 1 1154 26 is_stmt 0 view .LVU338
 1201 0024 0023     		movs	r3, #0
 1202 0026 A381     		strh	r3, [r4, #12]	@ movhi
1155:System/shell/shell.c **** }
 1203              		.loc 1 1155 5 is_stmt 1 view .LVU339
1155:System/shell/shell.c **** }
 1204              		.loc 1 1155 26 is_stmt 0 view .LVU340
 1205 0028 E381     		strh	r3, [r4, #14]	@ movhi
1156:System/shell/shell.c **** 
 1206              		.loc 1 1156 1 view .LVU341
 1207 002a 10BD     		pop	{r4, pc}
 1208              	.LVL106:
 1209              	.L108:
1152:System/shell/shell.c ****     }
 1210              		.loc 1 1152 9 is_stmt 1 view .LVU342
 1211 002c 0349     		ldr	r1, .L111+4
 1212 002e 2046     		mov	r0, r4
 1213 0030 FFF7FEFF 		bl	shellWriteString
 1214              	.LVL107:
ARM GAS  C:\Users\8bit\AppData\Local\Temp\ccdhdvRO.s 			page 50


 1215 0034 F6E7     		b	.L109
 1216              	.L112:
 1217 0036 00BF     		.align	2
 1218              	.L111:
 1219 0038 0C000000 		.word	.LC1
 1220 003c 00000000 		.word	.LC7
 1221              		.cfi_endproc
 1222              	.LFE37:
 1224              		.section	.text.shellClear,"ax",%progbits
 1225              		.align	1
 1226              		.global	shellClear
 1227              		.syntax unified
 1228              		.thumb
 1229              		.thumb_func
 1231              	shellClear:
 1232              	.LFB59:
1386:System/shell/shell.c **** SHELL_EXPORT_KEY(SHELL_CMD_PERMISSION(0) | SHELL_CMD_ENABLE_UNCHECKED,
1387:System/shell/shell.c ****                  0x1B5B4400, shellLeft, left);
1388:System/shell/shell.c **** 
1389:System/shell/shell.c **** /**
1390:System/shell/shell.c ****  * @brief shell Tab按键处理
1391:System/shell/shell.c ****  *
1392:System/shell/shell.c ****  * @param shell shell对象
1393:System/shell/shell.c ****  */
1394:System/shell/shell.c **** void shellTab(Shell *shell)
1395:System/shell/shell.c **** {
1396:System/shell/shell.c ****     unsigned short maxMatch = shell->parser.bufferSize;
1397:System/shell/shell.c ****     unsigned short lastMatchIndex = 0;
1398:System/shell/shell.c ****     unsigned short matchNum = 0;
1399:System/shell/shell.c ****     unsigned short length;
1400:System/shell/shell.c **** 
1401:System/shell/shell.c ****     if (shell->parser.length == 0)
1402:System/shell/shell.c ****     {
1403:System/shell/shell.c ****         shellListAll(shell);
1404:System/shell/shell.c ****         shellWriteCommandLine(shell, 1);
1405:System/shell/shell.c ****     }
1406:System/shell/shell.c ****     else if (shell->parser.length > 0)
1407:System/shell/shell.c ****     {
1408:System/shell/shell.c ****         shell->parser.buffer[shell->parser.length] = 0;
1409:System/shell/shell.c ****         ShellCommand *base = (ShellCommand *)shell->commandList.base;
1410:System/shell/shell.c ****         for (short i = 0; i < shell->commandList.count; i++)
1411:System/shell/shell.c ****         {
1412:System/shell/shell.c ****             if (shellCheckPermission(shell, &base[i]) == 0 && shellStringCompare(shell->parser.buff
1413:System/shell/shell.c ****                                                                                  (char *)shellGetCo
1414:System/shell/shell.c ****             {
1415:System/shell/shell.c ****                 if (matchNum != 0)
1416:System/shell/shell.c ****                 {
1417:System/shell/shell.c ****                     if (matchNum == 1)
1418:System/shell/shell.c ****                     {
1419:System/shell/shell.c ****                         shellWriteString(shell, "\r\n");
1420:System/shell/shell.c ****                     }
1421:System/shell/shell.c ****                     shellListItem(shell, &base[lastMatchIndex]);
1422:System/shell/shell.c ****                     length =
1423:System/shell/shell.c ****                         shellStringCompare((char *)shellGetCommandName(&base[lastMatchIndex]),
1424:System/shell/shell.c ****                                            (char *)shellGetCommandName(&base[i]));
1425:System/shell/shell.c ****                     maxMatch = (maxMatch > length) ? length : maxMatch;
1426:System/shell/shell.c ****                 }
ARM GAS  C:\Users\8bit\AppData\Local\Temp\ccdhdvRO.s 			page 51


1427:System/shell/shell.c ****                 lastMatchIndex = i;
1428:System/shell/shell.c ****                 matchNum++;
1429:System/shell/shell.c ****             }
1430:System/shell/shell.c ****         }
1431:System/shell/shell.c ****         if (matchNum == 0)
1432:System/shell/shell.c ****         {
1433:System/shell/shell.c ****             return;
1434:System/shell/shell.c ****         }
1435:System/shell/shell.c ****         if (matchNum == 1)
1436:System/shell/shell.c ****         {
1437:System/shell/shell.c ****             shellClearCommandLine(shell);
1438:System/shell/shell.c ****         }
1439:System/shell/shell.c ****         if (matchNum != 0)
1440:System/shell/shell.c ****         {
1441:System/shell/shell.c ****             shell->parser.length =
1442:System/shell/shell.c ****                 shellStringCopy(shell->parser.buffer,
1443:System/shell/shell.c ****                                 (char *)shellGetCommandName(&base[lastMatchIndex]));
1444:System/shell/shell.c ****         }
1445:System/shell/shell.c ****         if (matchNum > 1)
1446:System/shell/shell.c ****         {
1447:System/shell/shell.c ****             shellListItem(shell, &base[lastMatchIndex]);
1448:System/shell/shell.c ****             shellWriteCommandLine(shell, 1);
1449:System/shell/shell.c ****             shell->parser.length = maxMatch;
1450:System/shell/shell.c ****         }
1451:System/shell/shell.c ****         shell->parser.buffer[shell->parser.length] = 0;
1452:System/shell/shell.c ****         shell->parser.cursor = shell->parser.length;
1453:System/shell/shell.c ****         shellWriteString(shell, shell->parser.buffer);
1454:System/shell/shell.c ****     }
1455:System/shell/shell.c **** 
1456:System/shell/shell.c ****     if (SHELL_GET_TICK())
1457:System/shell/shell.c ****     {
1458:System/shell/shell.c ****         if (matchNum == 1 && shell->status.tabFlag && SHELL_GET_TICK() - shell->info.activeTime < S
1459:System/shell/shell.c ****         {
1460:System/shell/shell.c ****             shellClearCommandLine(shell);
1461:System/shell/shell.c ****             for (short i = shell->parser.length; i >= 0; i--)
1462:System/shell/shell.c ****             {
1463:System/shell/shell.c ****                 shell->parser.buffer[i + 5] = shell->parser.buffer[i];
1464:System/shell/shell.c ****             }
1465:System/shell/shell.c ****             shellStringCopy(shell->parser.buffer, "help");
1466:System/shell/shell.c ****             shell->parser.buffer[4] = ' ';
1467:System/shell/shell.c ****             shell->parser.length += 5;
1468:System/shell/shell.c ****             shell->parser.cursor = shell->parser.length;
1469:System/shell/shell.c ****             shellWriteString(shell, shell->parser.buffer);
1470:System/shell/shell.c ****         }
1471:System/shell/shell.c ****         else
1472:System/shell/shell.c ****         {
1473:System/shell/shell.c ****             shell->status.tabFlag = 1;
1474:System/shell/shell.c ****         }
1475:System/shell/shell.c ****     }
1476:System/shell/shell.c **** }
1477:System/shell/shell.c **** SHELL_EXPORT_KEY(SHELL_CMD_PERMISSION(0), 0x09000000, shellTab, tab);
1478:System/shell/shell.c **** 
1479:System/shell/shell.c **** /**
1480:System/shell/shell.c ****  * @brief shell 退格
1481:System/shell/shell.c ****  *
1482:System/shell/shell.c ****  * @param shell shell对象
1483:System/shell/shell.c ****  */
ARM GAS  C:\Users\8bit\AppData\Local\Temp\ccdhdvRO.s 			page 52


1484:System/shell/shell.c **** void shellBackspace(Shell *shell)
1485:System/shell/shell.c **** {
1486:System/shell/shell.c ****     shellDeleteByte(shell, 1);
1487:System/shell/shell.c **** }
1488:System/shell/shell.c **** SHELL_EXPORT_KEY(SHELL_CMD_PERMISSION(0) | SHELL_CMD_ENABLE_UNCHECKED,
1489:System/shell/shell.c ****                  0x08000000, shellBackspace, backspace);
1490:System/shell/shell.c **** SHELL_EXPORT_KEY(SHELL_CMD_PERMISSION(0) | SHELL_CMD_ENABLE_UNCHECKED,
1491:System/shell/shell.c ****                  0x7F000000, shellBackspace, backspace);
1492:System/shell/shell.c **** 
1493:System/shell/shell.c **** /**
1494:System/shell/shell.c ****  * @brief shell 删除
1495:System/shell/shell.c ****  *
1496:System/shell/shell.c ****  * @param shell shell对象
1497:System/shell/shell.c ****  */
1498:System/shell/shell.c **** void shellDelete(Shell *shell)
1499:System/shell/shell.c **** {
1500:System/shell/shell.c ****     shellDeleteByte(shell, -1);
1501:System/shell/shell.c **** }
1502:System/shell/shell.c **** SHELL_EXPORT_KEY(SHELL_CMD_PERMISSION(0) | SHELL_CMD_ENABLE_UNCHECKED,
1503:System/shell/shell.c ****                  0x1B5B337E, shellDelete, delete);
1504:System/shell/shell.c **** 
1505:System/shell/shell.c **** /**
1506:System/shell/shell.c ****  * @brief shell 回车处理
1507:System/shell/shell.c ****  *
1508:System/shell/shell.c ****  * @param shell shell对象
1509:System/shell/shell.c ****  */
1510:System/shell/shell.c **** void shellEnter(Shell *shell)
1511:System/shell/shell.c **** {
1512:System/shell/shell.c ****     shellExec(shell);
1513:System/shell/shell.c ****     shellWriteCommandLine(shell, 1);
1514:System/shell/shell.c **** }
1515:System/shell/shell.c **** #if SHELL_ENTER_LF == 1
1516:System/shell/shell.c **** SHELL_EXPORT_KEY(SHELL_CMD_PERMISSION(0) | SHELL_CMD_ENABLE_UNCHECKED,
1517:System/shell/shell.c ****                  0x0A000000, shellEnter, enter);
1518:System/shell/shell.c **** #endif
1519:System/shell/shell.c **** #if SHELL_ENTER_CR == 1
1520:System/shell/shell.c **** SHELL_EXPORT_KEY(SHELL_CMD_PERMISSION(0) | SHELL_CMD_ENABLE_UNCHECKED,
1521:System/shell/shell.c ****                  0x0D000000, shellEnter, enter);
1522:System/shell/shell.c **** #endif
1523:System/shell/shell.c **** #if SHELL_ENTER_CRLF == 1
1524:System/shell/shell.c **** SHELL_EXPORT_KEY(SHELL_CMD_PERMISSION(0) | SHELL_CMD_ENABLE_UNCHECKED,
1525:System/shell/shell.c ****                  0x0D0A0000, shellEnter, enter);
1526:System/shell/shell.c **** #endif
1527:System/shell/shell.c **** 
1528:System/shell/shell.c **** /**
1529:System/shell/shell.c ****  * @brief shell help
1530:System/shell/shell.c ****  *
1531:System/shell/shell.c ****  * @param argc 参数个数
1532:System/shell/shell.c ****  * @param argv 参数
1533:System/shell/shell.c ****  */
1534:System/shell/shell.c **** void shellHelp(int argc, char *argv[])
1535:System/shell/shell.c **** {
1536:System/shell/shell.c ****     Shell *shell = shellGetCurrent();
1537:System/shell/shell.c ****     SHELL_ASSERT(shell, return );
1538:System/shell/shell.c ****     if (argc == 1)
1539:System/shell/shell.c ****     {
1540:System/shell/shell.c ****         shellListAll(shell);
ARM GAS  C:\Users\8bit\AppData\Local\Temp\ccdhdvRO.s 			page 53


1541:System/shell/shell.c ****     }
1542:System/shell/shell.c ****     else if (argc > 1)
1543:System/shell/shell.c ****     {
1544:System/shell/shell.c ****         ShellCommand *command = shellSeekCommand(shell,
1545:System/shell/shell.c ****                                                  argv[1],
1546:System/shell/shell.c ****                                                  shell->commandList.base,
1547:System/shell/shell.c ****                                                  0);
1548:System/shell/shell.c ****         if (command)
1549:System/shell/shell.c ****         {
1550:System/shell/shell.c ****             shellWriteString(shell, shellText[SHELL_TEXT_HELP_HEADER]);
1551:System/shell/shell.c ****             shellWriteString(shell, shellGetCommandName(command));
1552:System/shell/shell.c ****             shellWriteString(shell, "\r\n");
1553:System/shell/shell.c ****             shellWriteString(shell, shellGetCommandDesc(command));
1554:System/shell/shell.c ****             shellWriteString(shell, "\r\n");
1555:System/shell/shell.c ****         }
1556:System/shell/shell.c ****         else
1557:System/shell/shell.c ****         {
1558:System/shell/shell.c ****             shellWriteString(shell, shellText[SHELL_TEXT_CMD_NOT_FOUND]);
1559:System/shell/shell.c ****         }
1560:System/shell/shell.c ****     }
1561:System/shell/shell.c **** }
1562:System/shell/shell.c **** SHELL_EXPORT_CMD(
1563:System/shell/shell.c ****     SHELL_CMD_PERMISSION(0) | SHELL_CMD_TYPE(SHELL_TYPE_CMD_MAIN) | SHELL_CMD_DISABLE_RETURN,
1564:System/shell/shell.c ****     help, shellHelp, show command info\r\nhelp[cmd]);
1565:System/shell/shell.c **** 
1566:System/shell/shell.c **** /**
1567:System/shell/shell.c ****  * @brief shell 输入处理
1568:System/shell/shell.c ****  *
1569:System/shell/shell.c ****  * @param shell shell对象
1570:System/shell/shell.c ****  * @param data 输入数据
1571:System/shell/shell.c ****  */
1572:System/shell/shell.c **** void shellHandler(Shell *shell, char data)
1573:System/shell/shell.c **** {
1574:System/shell/shell.c ****     SHELL_ASSERT(data, return );
1575:System/shell/shell.c **** 
1576:System/shell/shell.c **** #if SHELL_LOCK_TIMEOUT > 0
1577:System/shell/shell.c ****     if (shell->info.user->data.user.password && strlen(shell->info.user->data.user.password) != 0 &
1578:System/shell/shell.c ****     {
1579:System/shell/shell.c ****         if (SHELL_GET_TICK() - shell->info.activeTime > SHELL_LOCK_TIMEOUT)
1580:System/shell/shell.c ****         {
1581:System/shell/shell.c ****             shell->status.isChecked = 0;
1582:System/shell/shell.c ****         }
1583:System/shell/shell.c ****     }
1584:System/shell/shell.c **** #endif
1585:System/shell/shell.c **** 
1586:System/shell/shell.c ****     /* 根据记录的按键键值计算当前字节在按键键值中的偏移 */
1587:System/shell/shell.c ****     char keyByteOffset = 24;
1588:System/shell/shell.c ****     int keyFilter = 0x00000000;
1589:System/shell/shell.c ****     if ((shell->parser.keyValue & 0x0000FF00) != 0x00000000)
1590:System/shell/shell.c ****     {
1591:System/shell/shell.c ****         keyByteOffset = 0;
1592:System/shell/shell.c ****         keyFilter = 0xFFFFFF00;
1593:System/shell/shell.c ****     }
1594:System/shell/shell.c ****     else if ((shell->parser.keyValue & 0x00FF0000) != 0x00000000)
1595:System/shell/shell.c ****     {
1596:System/shell/shell.c ****         keyByteOffset = 8;
1597:System/shell/shell.c ****         keyFilter = 0xFFFF0000;
ARM GAS  C:\Users\8bit\AppData\Local\Temp\ccdhdvRO.s 			page 54


1598:System/shell/shell.c ****     }
1599:System/shell/shell.c ****     else if ((shell->parser.keyValue & 0xFF000000) != 0x00000000)
1600:System/shell/shell.c ****     {
1601:System/shell/shell.c ****         keyByteOffset = 16;
1602:System/shell/shell.c ****         keyFilter = 0xFF000000;
1603:System/shell/shell.c ****     }
1604:System/shell/shell.c **** 
1605:System/shell/shell.c ****     /* 遍历ShellCommand列表，尝试进行按键键值匹配 */
1606:System/shell/shell.c ****     ShellCommand *base = (ShellCommand *)shell->commandList.base;
1607:System/shell/shell.c ****     for (short i = 0; i < shell->commandList.count; i++)
1608:System/shell/shell.c ****     {
1609:System/shell/shell.c ****         /* 判断是否是按键定义并验证权限 */
1610:System/shell/shell.c ****         if (base[i].attr.attrs.type == SHELL_TYPE_KEY && shellCheckPermission(shell, &(base[i])) ==
1611:System/shell/shell.c ****         {
1612:System/shell/shell.c ****             /* 对输入的字节同按键键值进行匹配 */
1613:System/shell/shell.c ****             if ((base[i].data.key.value & keyFilter) == shell->parser.keyValue && (base[i].data.key
1614:System/shell/shell.c ****             {
1615:System/shell/shell.c ****                 shell->parser.keyValue |= data << keyByteOffset;
1616:System/shell/shell.c ****                 data = 0x00;
1617:System/shell/shell.c ****                 if (keyByteOffset == 0 || (base[i].data.key.value & (0xFF << (keyByteOffset - 8))) 
1618:System/shell/shell.c ****                 {
1619:System/shell/shell.c ****                     if (base[i].data.key.function)
1620:System/shell/shell.c ****                     {
1621:System/shell/shell.c ****                         base[i].data.key.function(shell);
1622:System/shell/shell.c ****                     }
1623:System/shell/shell.c ****                     shell->parser.keyValue = 0x00000000;
1624:System/shell/shell.c ****                     break;
1625:System/shell/shell.c ****                 }
1626:System/shell/shell.c ****             }
1627:System/shell/shell.c ****         }
1628:System/shell/shell.c ****     }
1629:System/shell/shell.c **** 
1630:System/shell/shell.c ****     if (data != 0x00)
1631:System/shell/shell.c ****     {
1632:System/shell/shell.c ****         shell->parser.keyValue = 0x00000000;
1633:System/shell/shell.c ****         shellNormalInput(shell, data);
1634:System/shell/shell.c ****     }
1635:System/shell/shell.c **** 
1636:System/shell/shell.c ****     if (SHELL_GET_TICK())
1637:System/shell/shell.c ****     {
1638:System/shell/shell.c ****         shell->info.activeTime = SHELL_GET_TICK();
1639:System/shell/shell.c ****     }
1640:System/shell/shell.c **** }
1641:System/shell/shell.c **** 
1642:System/shell/shell.c **** #if SHELL_SUPPORT_END_LINE == 1
1643:System/shell/shell.c **** void shellWriteEndLine(Shell *shell, char *buffer, int len)
1644:System/shell/shell.c **** {
1645:System/shell/shell.c ****     if (!shell->status.isActive)
1646:System/shell/shell.c ****     {
1647:System/shell/shell.c ****         shellWriteString(shell, shellText[SHELL_TEXT_CLEAR_LINE]);
1648:System/shell/shell.c ****     }
1649:System/shell/shell.c ****     while (len--)
1650:System/shell/shell.c ****     {
1651:System/shell/shell.c ****         shell->write(*buffer++);
1652:System/shell/shell.c ****     }
1653:System/shell/shell.c ****     if (!shell->status.isActive)
1654:System/shell/shell.c ****     {
ARM GAS  C:\Users\8bit\AppData\Local\Temp\ccdhdvRO.s 			page 55


1655:System/shell/shell.c ****         shellWriteCommandLine(shell, 0);
1656:System/shell/shell.c ****         if (shell->parser.length > 0)
1657:System/shell/shell.c ****         {
1658:System/shell/shell.c ****             shellWriteString(shell, shell->parser.buffer);
1659:System/shell/shell.c ****             for (short i = 0; i < shell->parser.length - shell->parser.cursor; i++)
1660:System/shell/shell.c ****             {
1661:System/shell/shell.c ****                 shell->write('\b');
1662:System/shell/shell.c ****             }
1663:System/shell/shell.c ****         }
1664:System/shell/shell.c ****     }
1665:System/shell/shell.c **** }
1666:System/shell/shell.c **** #endif /** SHELL_SUPPORT_END_LINE == 1 */
1667:System/shell/shell.c **** 
1668:System/shell/shell.c **** /**
1669:System/shell/shell.c ****  * @brief shell 任务
1670:System/shell/shell.c ****  *
1671:System/shell/shell.c ****  * @param param 参数(shell对象)
1672:System/shell/shell.c ****  *
1673:System/shell/shell.c ****  */
1674:System/shell/shell.c **** void shellTask(void *param)
1675:System/shell/shell.c **** {
1676:System/shell/shell.c ****     Shell *shell = (Shell *)param;
1677:System/shell/shell.c ****     char data;
1678:System/shell/shell.c **** #if SHELL_TASK_WHILE == 1
1679:System/shell/shell.c ****     while (1)
1680:System/shell/shell.c ****     {
1681:System/shell/shell.c **** #endif
1682:System/shell/shell.c ****         if (shell->read && shell->read(&data) == 0)
1683:System/shell/shell.c ****         {
1684:System/shell/shell.c ****             shellHandler(shell, data);
1685:System/shell/shell.c ****         }
1686:System/shell/shell.c **** #if SHELL_TASK_WHILE == 1
1687:System/shell/shell.c ****     }
1688:System/shell/shell.c **** #endif
1689:System/shell/shell.c **** }
1690:System/shell/shell.c **** 
1691:System/shell/shell.c **** /**
1692:System/shell/shell.c ****  * @brief shell 输出用户列表(shell调用)
1693:System/shell/shell.c ****  */
1694:System/shell/shell.c **** void shellUsers(void)
1695:System/shell/shell.c **** {
1696:System/shell/shell.c ****     Shell *shell = shellGetCurrent();
1697:System/shell/shell.c ****     if (shell)
1698:System/shell/shell.c ****     {
1699:System/shell/shell.c ****         shellListUser(shell);
1700:System/shell/shell.c ****     }
1701:System/shell/shell.c **** }
1702:System/shell/shell.c **** SHELL_EXPORT_CMD(
1703:System/shell/shell.c ****     SHELL_CMD_PERMISSION(0) | SHELL_CMD_TYPE(SHELL_TYPE_CMD_FUNC) | SHELL_CMD_DISABLE_RETURN,
1704:System/shell/shell.c ****     users, shellUsers, list all user);
1705:System/shell/shell.c **** 
1706:System/shell/shell.c **** /**
1707:System/shell/shell.c ****  * @brief shell 输出命令列表(shell调用)
1708:System/shell/shell.c ****  */
1709:System/shell/shell.c **** void shellCmds(void)
1710:System/shell/shell.c **** {
1711:System/shell/shell.c ****     Shell *shell = shellGetCurrent();
ARM GAS  C:\Users\8bit\AppData\Local\Temp\ccdhdvRO.s 			page 56


1712:System/shell/shell.c ****     if (shell)
1713:System/shell/shell.c ****     {
1714:System/shell/shell.c ****         shellListCommand(shell);
1715:System/shell/shell.c ****     }
1716:System/shell/shell.c **** }
1717:System/shell/shell.c **** SHELL_EXPORT_CMD(
1718:System/shell/shell.c ****     SHELL_CMD_PERMISSION(0) | SHELL_CMD_TYPE(SHELL_TYPE_CMD_FUNC) | SHELL_CMD_DISABLE_RETURN,
1719:System/shell/shell.c ****     cmds, shellCmds, list all cmd);
1720:System/shell/shell.c **** 
1721:System/shell/shell.c **** /**
1722:System/shell/shell.c ****  * @brief shell 输出变量列表(shell调用)
1723:System/shell/shell.c ****  */
1724:System/shell/shell.c **** void shellVars(void)
1725:System/shell/shell.c **** {
1726:System/shell/shell.c ****     Shell *shell = shellGetCurrent();
1727:System/shell/shell.c ****     if (shell)
1728:System/shell/shell.c ****     {
1729:System/shell/shell.c ****         shellListVar(shell);
1730:System/shell/shell.c ****     }
1731:System/shell/shell.c **** }
1732:System/shell/shell.c **** SHELL_EXPORT_CMD(
1733:System/shell/shell.c ****     SHELL_CMD_PERMISSION(0) | SHELL_CMD_TYPE(SHELL_TYPE_CMD_FUNC) | SHELL_CMD_DISABLE_RETURN,
1734:System/shell/shell.c ****     vars, shellVars, list all var);
1735:System/shell/shell.c **** 
1736:System/shell/shell.c **** /**
1737:System/shell/shell.c ****  * @brief shell 输出按键列表(shell调用)
1738:System/shell/shell.c ****  */
1739:System/shell/shell.c **** void shellKeys(void)
1740:System/shell/shell.c **** {
1741:System/shell/shell.c ****     Shell *shell = shellGetCurrent();
1742:System/shell/shell.c ****     if (shell)
1743:System/shell/shell.c ****     {
1744:System/shell/shell.c ****         shellListKey(shell);
1745:System/shell/shell.c ****     }
1746:System/shell/shell.c **** }
1747:System/shell/shell.c **** SHELL_EXPORT_CMD(
1748:System/shell/shell.c ****     SHELL_CMD_PERMISSION(0) | SHELL_CMD_TYPE(SHELL_TYPE_CMD_FUNC) | SHELL_CMD_DISABLE_RETURN,
1749:System/shell/shell.c ****     keys, shellKeys, list all key);
1750:System/shell/shell.c **** 
1751:System/shell/shell.c **** /**
1752:System/shell/shell.c ****  * @brief shell 清空控制台(shell调用)
1753:System/shell/shell.c ****  */
1754:System/shell/shell.c **** void shellClear(void)
1755:System/shell/shell.c **** {
 1233              		.loc 1 1755 1 view -0
 1234              		.cfi_startproc
 1235              		@ args = 0, pretend = 0, frame = 0
 1236              		@ frame_needed = 0, uses_anonymous_args = 0
 1237 0000 08B5     		push	{r3, lr}
 1238              	.LCFI14:
 1239              		.cfi_def_cfa_offset 8
 1240              		.cfi_offset 3, -8
 1241              		.cfi_offset 14, -4
1756:System/shell/shell.c ****     Shell *shell = shellGetCurrent();
 1242              		.loc 1 1756 5 view .LVU344
 1243              		.loc 1 1756 20 is_stmt 0 view .LVU345
 1244 0002 FFF7FEFF 		bl	shellGetCurrent
ARM GAS  C:\Users\8bit\AppData\Local\Temp\ccdhdvRO.s 			page 57


 1245              	.LVL108:
1757:System/shell/shell.c ****     if (shell)
 1246              		.loc 1 1757 5 is_stmt 1 view .LVU346
 1247              		.loc 1 1757 8 is_stmt 0 view .LVU347
 1248 0006 10B1     		cbz	r0, .L113
1758:System/shell/shell.c ****     {
1759:System/shell/shell.c ****         shellWriteString(shell, shellText[SHELL_TEXT_CLEAR_CONSOLE]);
 1249              		.loc 1 1759 9 is_stmt 1 view .LVU348
 1250 0008 0149     		ldr	r1, .L116
 1251 000a FFF7FEFF 		bl	shellWriteString
 1252              	.LVL109:
 1253              	.L113:
1760:System/shell/shell.c ****     }
1761:System/shell/shell.c **** }
 1254              		.loc 1 1761 1 is_stmt 0 view .LVU349
 1255 000e 08BD     		pop	{r3, pc}
 1256              	.L117:
 1257              		.align	2
 1258              	.L116:
 1259 0010 00000000 		.word	.LC0
 1260              		.cfi_endproc
 1261              	.LFE59:
 1263              		.section	.text.shellPrint,"ax",%progbits
 1264              		.align	1
 1265              		.global	shellPrint
 1266              		.syntax unified
 1267              		.thumb
 1268              		.thumb_func
 1270              	shellPrint:
 1271              	.LVL110:
 1272              	.LFB10:
 329:System/shell/shell.c ****     char buffer[SHELL_PRINT_BUFFER];
 1273              		.loc 1 329 1 is_stmt 1 view -0
 1274              		.cfi_startproc
 1275              		@ args = 4, pretend = 12, frame = 136
 1276              		@ frame_needed = 0, uses_anonymous_args = 1
 330:System/shell/shell.c ****     va_list vargs;
 1277              		.loc 1 330 5 view .LVU351
 331:System/shell/shell.c **** 
 1278              		.loc 1 331 5 view .LVU352
 333:System/shell/shell.c **** 
 1279              		.loc 1 333 5 view .LVU353
 1280 0000 98B1     		cbz	r0, .L122
 329:System/shell/shell.c ****     char buffer[SHELL_PRINT_BUFFER];
 1281              		.loc 1 329 1 is_stmt 0 discriminator 2 view .LVU354
 1282 0002 0EB4     		push	{r1, r2, r3}
 1283              	.LCFI15:
 1284              		.cfi_def_cfa_offset 12
 1285              		.cfi_offset 1, -12
 1286              		.cfi_offset 2, -8
 1287              		.cfi_offset 3, -4
 1288 0004 10B5     		push	{r4, lr}
 1289              	.LCFI16:
 1290              		.cfi_def_cfa_offset 20
 1291              		.cfi_offset 4, -20
 1292              		.cfi_offset 14, -16
 1293 0006 A3B0     		sub	sp, sp, #140
ARM GAS  C:\Users\8bit\AppData\Local\Temp\ccdhdvRO.s 			page 58


 1294              	.LCFI17:
 1295              		.cfi_def_cfa_offset 160
 1296 0008 0446     		mov	r4, r0
 333:System/shell/shell.c **** 
 1297              		.loc 1 333 33 is_stmt 1 discriminator 2 view .LVU355
 335:System/shell/shell.c ****     vsnprintf(buffer, SHELL_PRINT_BUFFER - 1, fmt, vargs);
 1298              		.loc 1 335 5 discriminator 2 view .LVU356
 1299 000a 26AB     		add	r3, sp, #152
 1300 000c 0193     		str	r3, [sp, #4]
 336:System/shell/shell.c ****     va_end(vargs);
 1301              		.loc 1 336 5 discriminator 2 view .LVU357
 1302 000e 259A     		ldr	r2, [sp, #148]
 1303 0010 7F21     		movs	r1, #127
 1304 0012 02A8     		add	r0, sp, #8
 1305 0014 FFF7FEFF 		bl	vsnprintf
 1306              	.LVL111:
 337:System/shell/shell.c **** 
 1307              		.loc 1 337 5 discriminator 2 view .LVU358
 339:System/shell/shell.c **** }
 1308              		.loc 1 339 5 discriminator 2 view .LVU359
 1309 0018 02A9     		add	r1, sp, #8
 1310 001a 2046     		mov	r0, r4
 1311 001c FFF7FEFF 		bl	shellWriteString
 1312              	.LVL112:
 340:System/shell/shell.c **** #endif
 1313              		.loc 1 340 1 is_stmt 0 discriminator 2 view .LVU360
 1314 0020 23B0     		add	sp, sp, #140
 1315              	.LCFI18:
 1316              		.cfi_def_cfa_offset 20
 1317              		@ sp needed
 1318 0022 BDE81040 		pop	{r4, lr}
 1319              	.LCFI19:
 1320              		.cfi_restore 14
 1321              		.cfi_restore 4
 1322              		.cfi_def_cfa_offset 12
 1323              	.LVL113:
 340:System/shell/shell.c **** #endif
 1324              		.loc 1 340 1 discriminator 2 view .LVU361
 1325 0026 03B0     		add	sp, sp, #12
 1326              	.LCFI20:
 1327              		.cfi_restore 3
 1328              		.cfi_restore 2
 1329              		.cfi_restore 1
 1330              		.cfi_def_cfa_offset 0
 1331 0028 7047     		bx	lr
 1332              	.LVL114:
 1333              	.L122:
 340:System/shell/shell.c **** #endif
 1334              		.loc 1 340 1 discriminator 2 view .LVU362
 1335 002a 7047     		bx	lr
 1336              		.cfi_endproc
 1337              	.LFE10:
 1339              		.section	.text.shellScan,"ax",%progbits
 1340              		.align	1
 1341              		.global	shellScan
 1342              		.syntax unified
 1343              		.thumb
ARM GAS  C:\Users\8bit\AppData\Local\Temp\ccdhdvRO.s 			page 59


 1344              		.thumb_func
 1346              	shellScan:
 1347              	.LVL115:
 1348              	.LFB11:
 352:System/shell/shell.c ****     char buffer[SHELL_SCAN_BUFFER];
 1349              		.loc 1 352 1 is_stmt 1 view -0
 1350              		.cfi_startproc
 1351              		@ args = 4, pretend = 12, frame = 8
 1352              		@ frame_needed = 0, uses_anonymous_args = 1
 353:System/shell/shell.c ****     va_list vargs;
 1353              		.loc 1 353 5 view .LVU364
 354:System/shell/shell.c ****     short index = 0;
 1354              		.loc 1 354 5 view .LVU365
 355:System/shell/shell.c **** 
 1355              		.loc 1 355 5 view .LVU366
 357:System/shell/shell.c **** 
 1356              		.loc 1 357 5 view .LVU367
 1357 0000 0028     		cmp	r0, #0
 1358 0002 36D0     		beq	.L133
 352:System/shell/shell.c ****     char buffer[SHELL_SCAN_BUFFER];
 1359              		.loc 1 352 1 is_stmt 0 discriminator 2 view .LVU368
 1360 0004 0EB4     		push	{r1, r2, r3}
 1361              	.LCFI21:
 1362              		.cfi_def_cfa_offset 12
 1363              		.cfi_offset 1, -12
 1364              		.cfi_offset 2, -8
 1365              		.cfi_offset 3, -4
 1366 0006 70B5     		push	{r4, r5, r6, lr}
 1367              	.LCFI22:
 1368              		.cfi_def_cfa_offset 28
 1369              		.cfi_offset 4, -28
 1370              		.cfi_offset 5, -24
 1371              		.cfi_offset 6, -20
 1372              		.cfi_offset 14, -16
 1373 0008 83B0     		sub	sp, sp, #12
 1374              	.LCFI23:
 1375              		.cfi_def_cfa_offset 40
 1376 000a 0646     		mov	r6, r0
 357:System/shell/shell.c **** 
 1377              		.loc 1 357 33 is_stmt 1 discriminator 2 view .LVU369
 359:System/shell/shell.c ****     {
 1378              		.loc 1 359 5 discriminator 2 view .LVU370
 359:System/shell/shell.c ****     {
 1379              		.loc 1 359 14 is_stmt 0 discriminator 2 view .LVU371
 1380 000c 436E     		ldr	r3, [r0, #100]
 359:System/shell/shell.c ****     {
 1381              		.loc 1 359 8 discriminator 2 view .LVU372
 1382 000e 2BB3     		cbz	r3, .L128
 355:System/shell/shell.c **** 
 1383              		.loc 1 355 11 view .LVU373
 1384 0010 0024     		movs	r4, #0
 1385 0012 10E0     		b	.L131
 1386              	.LVL116:
 1387              	.L136:
 365:System/shell/shell.c ****                 index++;
 1388              		.loc 1 365 17 is_stmt 1 view .LVU374
 365:System/shell/shell.c ****                 index++;
ARM GAS  C:\Users\8bit\AppData\Local\Temp\ccdhdvRO.s 			page 60


 1389              		.loc 1 365 22 is_stmt 0 view .LVU375
 1390 0014 B36E     		ldr	r3, [r6, #104]
 365:System/shell/shell.c ****                 index++;
 1391              		.loc 1 365 17 view .LVU376
 1392 0016 0121     		movs	r1, #1
 1393 0018 2846     		mov	r0, r5
 1394 001a 9847     		blx	r3
 1395              	.LVL117:
 366:System/shell/shell.c ****             }
 1396              		.loc 1 366 17 is_stmt 1 view .LVU377
 366:System/shell/shell.c ****             }
 1397              		.loc 1 366 22 is_stmt 0 view .LVU378
 1398 001c 0134     		adds	r4, r4, #1
 1399              	.LVL118:
 366:System/shell/shell.c ****             }
 1400              		.loc 1 366 22 view .LVU379
 1401 001e 24B2     		sxth	r4, r4
 1402              	.LVL119:
 1403              	.L129:
 368:System/shell/shell.c ****         shellWriteString(shell, "\r\n");
 1404              		.loc 1 368 17 is_stmt 1 view .LVU380
 368:System/shell/shell.c ****         shellWriteString(shell, "\r\n");
 1405              		.loc 1 368 31 is_stmt 0 view .LVU381
 1406 0020 2546     		mov	r5, r4
 368:System/shell/shell.c ****         shellWriteString(shell, "\r\n");
 1407              		.loc 1 368 24 view .LVU382
 1408 0022 E31D     		adds	r3, r4, #7
 1409 0024 6B44     		add	r3, sp, r3
 1410 0026 13F8043C 		ldrb	r3, [r3, #-4]	@ zero_extendqisi2
 368:System/shell/shell.c ****         shellWriteString(shell, "\r\n");
 1411              		.loc 1 368 9 view .LVU383
 1412 002a 0D2B     		cmp	r3, #13
 1413 002c 0BD0     		beq	.L130
 368:System/shell/shell.c ****         shellWriteString(shell, "\r\n");
 1414              		.loc 1 368 44 discriminator 1 view .LVU384
 1415 002e 0A2B     		cmp	r3, #10
 1416 0030 09D0     		beq	.L130
 368:System/shell/shell.c ****         shellWriteString(shell, "\r\n");
 1417              		.loc 1 368 73 discriminator 2 view .LVU385
 1418 0032 002C     		cmp	r4, #0
 1419 0034 07DC     		bgt	.L130
 1420              	.LVL120:
 1421              	.L131:
 361:System/shell/shell.c ****         {
 1422              		.loc 1 361 9 is_stmt 1 view .LVU386
 363:System/shell/shell.c ****             {
 1423              		.loc 1 363 13 view .LVU387
 363:System/shell/shell.c ****             {
 1424              		.loc 1 363 22 is_stmt 0 view .LVU388
 1425 0036 736E     		ldr	r3, [r6, #100]
 363:System/shell/shell.c ****             {
 1426              		.loc 1 363 17 view .LVU389
 1427 0038 01AA     		add	r2, sp, #4
 1428 003a 1519     		adds	r5, r2, r4
 1429 003c 2846     		mov	r0, r5
 1430 003e 9847     		blx	r3
 1431              	.LVL121:
ARM GAS  C:\Users\8bit\AppData\Local\Temp\ccdhdvRO.s 			page 61


 363:System/shell/shell.c ****             {
 1432              		.loc 1 363 16 view .LVU390
 1433 0040 0028     		cmp	r0, #0
 1434 0042 EDD1     		bne	.L129
 1435 0044 E6E7     		b	.L136
 1436              	.L130:
 369:System/shell/shell.c ****         buffer[index] = '\0';
 1437              		.loc 1 369 9 is_stmt 1 view .LVU391
 1438 0046 0B49     		ldr	r1, .L137
 1439 0048 3046     		mov	r0, r6
 1440 004a FFF7FEFF 		bl	shellWriteString
 1441              	.LVL122:
 370:System/shell/shell.c ****     }
 1442              		.loc 1 370 9 view .LVU392
 370:System/shell/shell.c ****     }
 1443              		.loc 1 370 23 is_stmt 0 view .LVU393
 1444 004e 05F10803 		add	r3, r5, #8
 1445 0052 0DEB0305 		add	r5, sp, r3
 1446 0056 0023     		movs	r3, #0
 1447 0058 05F8043C 		strb	r3, [r5, #-4]
 1448              	.LVL123:
 1449              	.L128:
 373:System/shell/shell.c ****     vsscanf(buffer, fmt, vargs);
 1450              		.loc 1 373 5 is_stmt 1 view .LVU394
 1451 005c 08AA     		add	r2, sp, #32
 1452 005e 0092     		str	r2, [sp]
 374:System/shell/shell.c ****     va_end(vargs);
 1453              		.loc 1 374 5 view .LVU395
 1454 0060 0799     		ldr	r1, [sp, #28]
 1455 0062 01A8     		add	r0, sp, #4
 1456 0064 FFF7FEFF 		bl	vsscanf
 1457              	.LVL124:
 375:System/shell/shell.c **** }
 1458              		.loc 1 375 5 view .LVU396
 376:System/shell/shell.c **** #endif
 1459              		.loc 1 376 1 is_stmt 0 view .LVU397
 1460 0068 03B0     		add	sp, sp, #12
 1461              	.LCFI24:
 1462              		.cfi_def_cfa_offset 28
 1463              		@ sp needed
 1464 006a BDE87040 		pop	{r4, r5, r6, lr}
 1465              	.LCFI25:
 1466              		.cfi_restore 14
 1467              		.cfi_restore 6
 1468              		.cfi_restore 5
 1469              		.cfi_restore 4
 1470              		.cfi_def_cfa_offset 12
 1471              	.LVL125:
 376:System/shell/shell.c **** #endif
 1472              		.loc 1 376 1 view .LVU398
 1473 006e 03B0     		add	sp, sp, #12
 1474              	.LCFI26:
 1475              		.cfi_restore 3
 1476              		.cfi_restore 2
 1477              		.cfi_restore 1
 1478              		.cfi_def_cfa_offset 0
 1479 0070 7047     		bx	lr
ARM GAS  C:\Users\8bit\AppData\Local\Temp\ccdhdvRO.s 			page 62


 1480              	.LVL126:
 1481              	.L133:
 376:System/shell/shell.c **** #endif
 1482              		.loc 1 376 1 view .LVU399
 1483 0072 7047     		bx	lr
 1484              	.L138:
 1485              		.align	2
 1486              	.L137:
 1487 0074 04000000 		.word	.LC3
 1488              		.cfi_endproc
 1489              	.LFE11:
 1491              		.section	.text.shellCheckPermission,"ax",%progbits
 1492              		.align	1
 1493              		.global	shellCheckPermission
 1494              		.syntax unified
 1495              		.thumb
 1496              		.thumb_func
 1498              	shellCheckPermission:
 1499              	.LVL127:
 1500              	.LFB12:
 389:System/shell/shell.c ****     return ((!command->attr.attrs.permission || command->attr.attrs.type == SHELL_TYPE_USER || (com
 1501              		.loc 1 389 1 is_stmt 1 view -0
 1502              		.cfi_startproc
 1503              		@ args = 0, pretend = 0, frame = 0
 1504              		@ frame_needed = 0, uses_anonymous_args = 0
 1505              		@ link register save eliminated.
 390:System/shell/shell.c ****                ? 0
 1506              		.loc 1 390 5 view .LVU401
 390:System/shell/shell.c ****                ? 0
 1507              		.loc 1 390 34 is_stmt 0 view .LVU402
 1508 0000 0B78     		ldrb	r3, [r1]	@ zero_extendqisi2
 392:System/shell/shell.c **** }
 1509              		.loc 1 392 16 view .LVU403
 1510 0002 43B1     		cbz	r3, .L140
 390:System/shell/shell.c ****                ? 0
 1511              		.loc 1 390 74 view .LVU404
 1512 0004 4A78     		ldrb	r2, [r1, #1]	@ zero_extendqisi2
 1513 0006 02F00F02 		and	r2, r2, #15
 390:System/shell/shell.c ****                ? 0
 1514              		.loc 1 390 46 view .LVU405
 1515 000a 082A     		cmp	r2, #8
 1516 000c 03D0     		beq	.L140
 390:System/shell/shell.c ****                ? 0
 1517              		.loc 1 390 141 discriminator 2 view .LVU406
 1518 000e 0268     		ldr	r2, [r0]
 390:System/shell/shell.c ****                ? 0
 1519              		.loc 1 390 158 discriminator 2 view .LVU407
 1520 0010 1278     		ldrb	r2, [r2]	@ zero_extendqisi2
 390:System/shell/shell.c ****                ? 0
 1521              		.loc 1 390 93 discriminator 2 view .LVU408
 1522 0012 1342     		tst	r3, r2
 1523 0014 0DD0     		beq	.L142
 1524              	.L140:
 390:System/shell/shell.c ****                ? 0
 1525              		.loc 1 390 176 discriminator 3 view .LVU409
 1526 0016 90F86030 		ldrb	r3, [r0, #96]	@ zero_extendqisi2
 390:System/shell/shell.c ****                ? 0
ARM GAS  C:\Users\8bit\AppData\Local\Temp\ccdhdvRO.s 			page 63


 1527              		.loc 1 390 172 discriminator 3 view .LVU410
 1528 001a 13F0010F 		tst	r3, #1
 1529 001e 0BD1     		bne	.L143
 390:System/shell/shell.c ****                ? 0
 1530              		.loc 1 390 200 discriminator 4 view .LVU411
 1531 0020 4B78     		ldrb	r3, [r1, #1]	@ zero_extendqisi2
 1532 0022 13F0100F 		tst	r3, #16
 1533 0026 01D0     		beq	.L145
 392:System/shell/shell.c **** }
 1534              		.loc 1 392 16 view .LVU412
 1535 0028 0020     		movs	r0, #0
 1536              	.LVL128:
 393:System/shell/shell.c **** 
 1537              		.loc 1 393 1 view .LVU413
 1538 002a 7047     		bx	lr
 1539              	.LVL129:
 1540              	.L145:
 392:System/shell/shell.c **** }
 1541              		.loc 1 392 16 view .LVU414
 1542 002c 4FF0FF30 		mov	r0, #-1
 1543              	.LVL130:
 392:System/shell/shell.c **** }
 1544              		.loc 1 392 16 view .LVU415
 1545 0030 7047     		bx	lr
 1546              	.LVL131:
 1547              	.L142:
 392:System/shell/shell.c **** }
 1548              		.loc 1 392 16 view .LVU416
 1549 0032 4FF0FF30 		mov	r0, #-1
 1550              	.LVL132:
 392:System/shell/shell.c **** }
 1551              		.loc 1 392 16 view .LVU417
 1552 0036 7047     		bx	lr
 1553              	.LVL133:
 1554              	.L143:
 392:System/shell/shell.c **** }
 1555              		.loc 1 392 16 view .LVU418
 1556 0038 0020     		movs	r0, #0
 1557              	.LVL134:
 392:System/shell/shell.c **** }
 1558              		.loc 1 392 16 view .LVU419
 1559 003a 7047     		bx	lr
 1560              		.cfi_endproc
 1561              	.LFE12:
 1563              		.section	.text.shellToHex,"ax",%progbits
 1564              		.align	1
 1565              		.global	shellToHex
 1566              		.syntax unified
 1567              		.thumb
 1568              		.thumb_func
 1570              	shellToHex:
 1571              	.LVL135:
 1572              	.LFB13:
 404:System/shell/shell.c ****     char byte;
 1573              		.loc 1 404 1 is_stmt 1 view -0
 1574              		.cfi_startproc
 1575              		@ args = 0, pretend = 0, frame = 0
ARM GAS  C:\Users\8bit\AppData\Local\Temp\ccdhdvRO.s 			page 64


 1576              		@ frame_needed = 0, uses_anonymous_args = 0
 1577              		@ link register save eliminated.
 405:System/shell/shell.c ****     unsigned char i = 8;
 1578              		.loc 1 405 5 view .LVU421
 406:System/shell/shell.c ****     buffer[8] = 0;
 1579              		.loc 1 406 5 view .LVU422
 407:System/shell/shell.c ****     while (value)
 1580              		.loc 1 407 5 view .LVU423
 407:System/shell/shell.c ****     while (value)
 1581              		.loc 1 407 15 is_stmt 0 view .LVU424
 1582 0000 0023     		movs	r3, #0
 1583 0002 0B72     		strb	r3, [r1, #8]
 408:System/shell/shell.c ****     {
 1584              		.loc 1 408 5 is_stmt 1 view .LVU425
 406:System/shell/shell.c ****     buffer[8] = 0;
 1585              		.loc 1 406 19 is_stmt 0 view .LVU426
 1586 0004 0823     		movs	r3, #8
 408:System/shell/shell.c ****     {
 1587              		.loc 1 408 11 view .LVU427
 1588 0006 04E0     		b	.L147
 1589              	.LVL136:
 1590              	.L148:
 411:System/shell/shell.c ****         value >>= 4;
 1591              		.loc 1 411 21 discriminator 2 view .LVU428
 1592 0008 3032     		adds	r2, r2, #48
 1593              	.LVL137:
 1594              	.L149:
 411:System/shell/shell.c ****         value >>= 4;
 1595              		.loc 1 411 21 discriminator 4 view .LVU429
 1596 000a 013B     		subs	r3, r3, #1
 1597              	.LVL138:
 411:System/shell/shell.c ****         value >>= 4;
 1598              		.loc 1 411 21 discriminator 4 view .LVU430
 1599 000c DBB2     		uxtb	r3, r3
 1600              	.LVL139:
 411:System/shell/shell.c ****         value >>= 4;
 1601              		.loc 1 411 21 discriminator 4 view .LVU431
 1602 000e CA54     		strb	r2, [r1, r3]
 412:System/shell/shell.c ****     }
 1603              		.loc 1 412 9 is_stmt 1 discriminator 4 view .LVU432
 412:System/shell/shell.c ****     }
 1604              		.loc 1 412 15 is_stmt 0 discriminator 4 view .LVU433
 1605 0010 0009     		lsrs	r0, r0, #4
 1606              	.LVL140:
 1607              	.L147:
 408:System/shell/shell.c ****     {
 1608              		.loc 1 408 11 is_stmt 1 view .LVU434
 1609 0012 28B1     		cbz	r0, .L151
 410:System/shell/shell.c ****         buffer[--i] = (byte > 9) ? (byte + 87) : (byte + 48);
 1610              		.loc 1 410 9 view .LVU435
 410:System/shell/shell.c ****         buffer[--i] = (byte > 9) ? (byte + 87) : (byte + 48);
 1611              		.loc 1 410 14 is_stmt 0 view .LVU436
 1612 0014 00F00F02 		and	r2, r0, #15
 1613              	.LVL141:
 411:System/shell/shell.c ****         value >>= 4;
 1614              		.loc 1 411 9 is_stmt 1 view .LVU437
 411:System/shell/shell.c ****         value >>= 4;
ARM GAS  C:\Users\8bit\AppData\Local\Temp\ccdhdvRO.s 			page 65


 1615              		.loc 1 411 21 is_stmt 0 view .LVU438
 1616 0018 092A     		cmp	r2, #9
 1617 001a F5D9     		bls	.L148
 411:System/shell/shell.c ****         value >>= 4;
 1618              		.loc 1 411 21 discriminator 1 view .LVU439
 1619 001c 5732     		adds	r2, r2, #87
 1620              	.LVL142:
 411:System/shell/shell.c ****         value >>= 4;
 1621              		.loc 1 411 21 discriminator 1 view .LVU440
 1622 001e F4E7     		b	.L149
 1623              	.LVL143:
 1624              	.L151:
 414:System/shell/shell.c **** }
 1625              		.loc 1 414 5 is_stmt 1 view .LVU441
 414:System/shell/shell.c **** }
 1626              		.loc 1 414 14 is_stmt 0 view .LVU442
 1627 0020 C3F10800 		rsb	r0, r3, #8
 1628              	.LVL144:
 415:System/shell/shell.c **** 
 1629              		.loc 1 415 1 view .LVU443
 1630 0024 40B2     		sxtb	r0, r0
 1631 0026 7047     		bx	lr
 1632              		.cfi_endproc
 1633              	.LFE13:
 1635              		.section	.text.shellGetCommandName,"ax",%progbits
 1636              		.align	1
 1637              		.syntax unified
 1638              		.thumb
 1639              		.thumb_func
 1641              	shellGetCommandName:
 1642              	.LVL145:
 1643              	.LFB17:
 500:System/shell/shell.c ****     static char buffer[9];
 1644              		.loc 1 500 1 is_stmt 1 view -0
 1645              		.cfi_startproc
 1646              		@ args = 0, pretend = 0, frame = 0
 1647              		@ frame_needed = 0, uses_anonymous_args = 0
 501:System/shell/shell.c ****     for (unsigned char i = 0; i < 9; i++)
 1648              		.loc 1 501 5 view .LVU445
 502:System/shell/shell.c ****     {
 1649              		.loc 1 502 5 view .LVU446
 1650              	.LBB8:
 502:System/shell/shell.c ****     {
 1651              		.loc 1 502 10 view .LVU447
 502:System/shell/shell.c ****     {
 1652              		.loc 1 502 24 is_stmt 0 view .LVU448
 1653 0000 0023     		movs	r3, #0
 502:System/shell/shell.c ****     {
 1654              		.loc 1 502 5 view .LVU449
 1655 0002 04E0     		b	.L153
 1656              	.LVL146:
 1657              	.L154:
 504:System/shell/shell.c ****     }
 1658              		.loc 1 504 9 is_stmt 1 discriminator 3 view .LVU450
 504:System/shell/shell.c ****     }
 1659              		.loc 1 504 19 is_stmt 0 discriminator 3 view .LVU451
 1660 0004 0E4A     		ldr	r2, .L164
ARM GAS  C:\Users\8bit\AppData\Local\Temp\ccdhdvRO.s 			page 66


 1661 0006 3021     		movs	r1, #48
 1662 0008 D154     		strb	r1, [r2, r3]
 502:System/shell/shell.c ****     {
 1663              		.loc 1 502 38 is_stmt 1 discriminator 3 view .LVU452
 502:System/shell/shell.c ****     {
 1664              		.loc 1 502 39 is_stmt 0 discriminator 3 view .LVU453
 1665 000a 0133     		adds	r3, r3, #1
 1666              	.LVL147:
 502:System/shell/shell.c ****     {
 1667              		.loc 1 502 39 discriminator 3 view .LVU454
 1668 000c DBB2     		uxtb	r3, r3
 1669              	.LVL148:
 1670              	.L153:
 502:System/shell/shell.c ****     {
 1671              		.loc 1 502 31 is_stmt 1 discriminator 1 view .LVU455
 502:System/shell/shell.c ****     {
 1672              		.loc 1 502 5 is_stmt 0 discriminator 1 view .LVU456
 1673 000e 082B     		cmp	r3, #8
 1674 0010 F8D9     		bls	.L154
 1675              	.LBE8:
 506:System/shell/shell.c ****     {
 1676              		.loc 1 506 5 is_stmt 1 view .LVU457
 506:System/shell/shell.c ****     {
 1677              		.loc 1 506 28 is_stmt 0 view .LVU458
 1678 0012 4378     		ldrb	r3, [r0, #1]	@ zero_extendqisi2
 1679              	.LVL149:
 506:System/shell/shell.c ****     {
 1680              		.loc 1 506 28 view .LVU459
 1681 0014 03F00F03 		and	r3, r3, #15
 506:System/shell/shell.c ****     {
 1682              		.loc 1 506 8 view .LVU460
 1683 0018 012B     		cmp	r3, #1
 1684 001a 05D9     		bls	.L162
 510:System/shell/shell.c ****     {
 1685              		.loc 1 510 10 is_stmt 1 view .LVU461
 510:System/shell/shell.c ****     {
 1686              		.loc 1 510 13 is_stmt 0 view .LVU462
 1687 001c 072B     		cmp	r3, #7
 1688 001e 05D9     		bls	.L163
 514:System/shell/shell.c ****     {
 1689              		.loc 1 514 10 is_stmt 1 view .LVU463
 514:System/shell/shell.c ****     {
 1690              		.loc 1 514 13 is_stmt 0 view .LVU464
 1691 0020 082B     		cmp	r3, #8
 1692 0022 05D8     		bhi	.L158
 516:System/shell/shell.c ****     }
 1693              		.loc 1 516 9 is_stmt 1 view .LVU465
 516:System/shell/shell.c ****     }
 1694              		.loc 1 516 34 is_stmt 0 view .LVU466
 1695 0024 4068     		ldr	r0, [r0, #4]
 1696              	.LVL150:
 523:System/shell/shell.c **** 
 1697              		.loc 1 523 1 view .LVU467
 1698 0026 7047     		bx	lr
 1699              	.LVL151:
 1700              	.L162:
 508:System/shell/shell.c ****     }
ARM GAS  C:\Users\8bit\AppData\Local\Temp\ccdhdvRO.s 			page 67


 1701              		.loc 1 508 9 is_stmt 1 view .LVU468
 508:System/shell/shell.c ****     }
 1702              		.loc 1 508 33 is_stmt 0 view .LVU469
 1703 0028 4068     		ldr	r0, [r0, #4]
 1704              	.LVL152:
 508:System/shell/shell.c ****     }
 1705              		.loc 1 508 33 view .LVU470
 1706 002a 7047     		bx	lr
 1707              	.LVL153:
 1708              	.L163:
 512:System/shell/shell.c ****     }
 1709              		.loc 1 512 9 is_stmt 1 view .LVU471
 512:System/shell/shell.c ****     }
 1710              		.loc 1 512 33 is_stmt 0 view .LVU472
 1711 002c 4068     		ldr	r0, [r0, #4]
 1712              	.LVL154:
 512:System/shell/shell.c ****     }
 1713              		.loc 1 512 33 view .LVU473
 1714 002e 7047     		bx	lr
 1715              	.LVL155:
 1716              	.L158:
 500:System/shell/shell.c ****     static char buffer[9];
 1717              		.loc 1 500 1 view .LVU474
 1718 0030 10B5     		push	{r4, lr}
 1719              	.LCFI27:
 1720              		.cfi_def_cfa_offset 8
 1721              		.cfi_offset 4, -8
 1722              		.cfi_offset 14, -4
 520:System/shell/shell.c ****         return buffer;
 1723              		.loc 1 520 9 is_stmt 1 view .LVU475
 1724 0032 034C     		ldr	r4, .L164
 1725 0034 2146     		mov	r1, r4
 1726 0036 4068     		ldr	r0, [r0, #4]
 1727              	.LVL156:
 520:System/shell/shell.c ****         return buffer;
 1728              		.loc 1 520 9 is_stmt 0 view .LVU476
 1729 0038 FFF7FEFF 		bl	shellToHex
 1730              	.LVL157:
 521:System/shell/shell.c ****     }
 1731              		.loc 1 521 9 is_stmt 1 view .LVU477
 521:System/shell/shell.c ****     }
 1732              		.loc 1 521 16 is_stmt 0 view .LVU478
 1733 003c 2046     		mov	r0, r4
 523:System/shell/shell.c **** 
 1734              		.loc 1 523 1 view .LVU479
 1735 003e 10BD     		pop	{r4, pc}
 1736              	.L165:
 1737              		.align	2
 1738              	.L164:
 1739 0040 00000000 		.word	.LANCHOR1
 1740              		.cfi_endproc
 1741              	.LFE17:
 1743              		.section	.text.shellToDec,"ax",%progbits
 1744              		.align	1
 1745              		.global	shellToDec
 1746              		.syntax unified
 1747              		.thumb
ARM GAS  C:\Users\8bit\AppData\Local\Temp\ccdhdvRO.s 			page 68


 1748              		.thumb_func
 1750              	shellToDec:
 1751              	.LVL158:
 1752              	.LFB14:
 426:System/shell/shell.c ****     unsigned char i = 11;
 1753              		.loc 1 426 1 is_stmt 1 view -0
 1754              		.cfi_startproc
 1755              		@ args = 0, pretend = 0, frame = 0
 1756              		@ frame_needed = 0, uses_anonymous_args = 0
 1757              		@ link register save eliminated.
 426:System/shell/shell.c ****     unsigned char i = 11;
 1758              		.loc 1 426 1 is_stmt 0 view .LVU481
 1759 0000 10B4     		push	{r4}
 1760              	.LCFI28:
 1761              		.cfi_def_cfa_offset 4
 1762              		.cfi_offset 4, -4
 427:System/shell/shell.c ****     int v = value;
 1763              		.loc 1 427 5 is_stmt 1 view .LVU482
 1764              	.LVL159:
 428:System/shell/shell.c ****     if (value < 0)
 1765              		.loc 1 428 5 view .LVU483
 429:System/shell/shell.c ****     {
 1766              		.loc 1 429 5 view .LVU484
 429:System/shell/shell.c ****     {
 1767              		.loc 1 429 8 is_stmt 0 view .LVU485
 1768 0002 041E     		subs	r4, r0, #0
 1769 0004 04DB     		blt	.L174
 428:System/shell/shell.c ****     if (value < 0)
 1770              		.loc 1 428 9 view .LVU486
 1771 0006 2246     		mov	r2, r4
 1772              	.LVL160:
 1773              	.L167:
 433:System/shell/shell.c ****     while (v)
 1774              		.loc 1 433 5 is_stmt 1 view .LVU487
 433:System/shell/shell.c ****     while (v)
 1775              		.loc 1 433 16 is_stmt 0 view .LVU488
 1776 0008 0023     		movs	r3, #0
 1777 000a CB72     		strb	r3, [r1, #11]
 434:System/shell/shell.c ****     {
 1778              		.loc 1 434 5 is_stmt 1 view .LVU489
 427:System/shell/shell.c ****     int v = value;
 1779              		.loc 1 427 19 is_stmt 0 view .LVU490
 1780 000c 0B20     		movs	r0, #11
 1781              	.LVL161:
 434:System/shell/shell.c ****     {
 1782              		.loc 1 434 11 view .LVU491
 1783 000e 11E0     		b	.L168
 1784              	.LVL162:
 1785              	.L174:
 431:System/shell/shell.c ****     }
 1786              		.loc 1 431 9 is_stmt 1 view .LVU492
 431:System/shell/shell.c ****     }
 1787              		.loc 1 431 11 is_stmt 0 view .LVU493
 1788 0010 6242     		rsbs	r2, r4, #0
 1789              	.LVL163:
 431:System/shell/shell.c ****     }
 1790              		.loc 1 431 11 view .LVU494
ARM GAS  C:\Users\8bit\AppData\Local\Temp\ccdhdvRO.s 			page 69


 1791 0012 F9E7     		b	.L167
 1792              	.LVL164:
 1793              	.L169:
 436:System/shell/shell.c ****         v /= 10;
 1794              		.loc 1 436 9 is_stmt 1 view .LVU495
 436:System/shell/shell.c ****         v /= 10;
 1795              		.loc 1 436 25 is_stmt 0 view .LVU496
 1796 0014 114B     		ldr	r3, .L176
 1797 0016 83FB023C 		smull	r3, ip, r3, r2
 1798 001a D317     		asrs	r3, r2, #31
 1799 001c C3EBAC03 		rsb	r3, r3, ip, asr #2
 1800 0020 9C46     		mov	ip, r3
 1801 0022 03EB8303 		add	r3, r3, r3, lsl #2
 1802 0026 A2EB4303 		sub	r3, r2, r3, lsl #1
 436:System/shell/shell.c ****         v /= 10;
 1803              		.loc 1 436 21 view .LVU497
 1804 002a 0138     		subs	r0, r0, #1
 1805              	.LVL165:
 436:System/shell/shell.c ****         v /= 10;
 1806              		.loc 1 436 21 view .LVU498
 1807 002c C0B2     		uxtb	r0, r0
 1808              	.LVL166:
 436:System/shell/shell.c ****         v /= 10;
 1809              		.loc 1 436 30 view .LVU499
 1810 002e 3033     		adds	r3, r3, #48
 436:System/shell/shell.c ****         v /= 10;
 1811              		.loc 1 436 21 view .LVU500
 1812 0030 0B54     		strb	r3, [r1, r0]
 437:System/shell/shell.c ****     }
 1813              		.loc 1 437 9 is_stmt 1 view .LVU501
 437:System/shell/shell.c ****     }
 1814              		.loc 1 437 11 is_stmt 0 view .LVU502
 1815 0032 6246     		mov	r2, ip
 1816              	.LVL167:
 1817              	.L168:
 434:System/shell/shell.c ****     {
 1818              		.loc 1 434 11 is_stmt 1 view .LVU503
 1819 0034 002A     		cmp	r2, #0
 1820 0036 EDD1     		bne	.L169
 439:System/shell/shell.c ****     {
 1821              		.loc 1 439 5 view .LVU504
 439:System/shell/shell.c ****     {
 1822              		.loc 1 439 8 is_stmt 0 view .LVU505
 1823 0038 002C     		cmp	r4, #0
 1824 003a 0ADB     		blt	.L175
 1825              	.L170:
 443:System/shell/shell.c ****     {
 1826              		.loc 1 443 5 is_stmt 1 view .LVU506
 443:System/shell/shell.c ****     {
 1827              		.loc 1 443 8 is_stmt 0 view .LVU507
 1828 003c 1CB9     		cbnz	r4, .L171
 445:System/shell/shell.c ****     }
 1829              		.loc 1 445 9 is_stmt 1 view .LVU508
 445:System/shell/shell.c ****     }
 1830              		.loc 1 445 21 is_stmt 0 view .LVU509
 1831 003e 0138     		subs	r0, r0, #1
 1832              	.LVL168:
ARM GAS  C:\Users\8bit\AppData\Local\Temp\ccdhdvRO.s 			page 70


 445:System/shell/shell.c ****     }
 1833              		.loc 1 445 21 view .LVU510
 1834 0040 C0B2     		uxtb	r0, r0
 1835              	.LVL169:
 445:System/shell/shell.c ****     }
 1836              		.loc 1 445 21 view .LVU511
 1837 0042 3023     		movs	r3, #48
 1838 0044 0B54     		strb	r3, [r1, r0]
 1839              	.L171:
 447:System/shell/shell.c **** }
 1840              		.loc 1 447 5 is_stmt 1 view .LVU512
 447:System/shell/shell.c **** }
 1841              		.loc 1 447 15 is_stmt 0 view .LVU513
 1842 0046 C0F10B00 		rsb	r0, r0, #11
 1843              	.LVL170:
 448:System/shell/shell.c **** 
 1844              		.loc 1 448 1 view .LVU514
 1845 004a 40B2     		sxtb	r0, r0
 1846 004c 5DF8044B 		ldr	r4, [sp], #4
 1847              	.LCFI29:
 1848              		.cfi_remember_state
 1849              		.cfi_restore 4
 1850              		.cfi_def_cfa_offset 0
 1851              	.LVL171:
 448:System/shell/shell.c **** 
 1852              		.loc 1 448 1 view .LVU515
 1853 0050 7047     		bx	lr
 1854              	.LVL172:
 1855              	.L175:
 1856              	.LCFI30:
 1857              		.cfi_restore_state
 441:System/shell/shell.c ****     }
 1858              		.loc 1 441 9 is_stmt 1 view .LVU516
 441:System/shell/shell.c ****     }
 1859              		.loc 1 441 21 is_stmt 0 view .LVU517
 1860 0052 0138     		subs	r0, r0, #1
 1861              	.LVL173:
 441:System/shell/shell.c ****     }
 1862              		.loc 1 441 21 view .LVU518
 1863 0054 C0B2     		uxtb	r0, r0
 1864              	.LVL174:
 441:System/shell/shell.c ****     }
 1865              		.loc 1 441 21 view .LVU519
 1866 0056 2D23     		movs	r3, #45
 1867 0058 0B54     		strb	r3, [r1, r0]
 1868 005a EFE7     		b	.L170
 1869              	.L177:
 1870              		.align	2
 1871              	.L176:
 1872 005c 67666666 		.word	1717986919
 1873              		.cfi_endproc
 1874              	.LFE14:
 1876              		.section	.rodata.shellWriteReturnValue.str1.4,"aMS",%progbits,1
 1877              		.align	2
 1878              	.LC9:
 1879 0000 52657475 		.ascii	"Return: \000"
 1879      726E3A20 
ARM GAS  C:\Users\8bit\AppData\Local\Temp\ccdhdvRO.s 			page 71


 1879      00
 1880 0009 000000   		.align	2
 1881              	.LC10:
 1882 000c 2C203078 		.ascii	", 0x\000"
 1882      00
 1883 0011 000000   		.align	2
 1884              	.LC8:
 1885 0014 30303030 		.ascii	"00000000000\000"
 1885      30303030 
 1885      30303000 
 1886              		.section	.text.shellWriteReturnValue,"ax",%progbits
 1887              		.align	1
 1888              		.syntax unified
 1889              		.thumb
 1890              		.thumb_func
 1892              	shellWriteReturnValue:
 1893              	.LVL175:
 1894              	.LFB39:
1190:System/shell/shell.c ****     char buffer[12] = "00000000000";
 1895              		.loc 1 1190 1 is_stmt 1 view -0
 1896              		.cfi_startproc
 1897              		@ args = 0, pretend = 0, frame = 16
 1898              		@ frame_needed = 0, uses_anonymous_args = 0
1190:System/shell/shell.c ****     char buffer[12] = "00000000000";
 1899              		.loc 1 1190 1 is_stmt 0 view .LVU521
 1900 0000 70B5     		push	{r4, r5, r6, lr}
 1901              	.LCFI31:
 1902              		.cfi_def_cfa_offset 16
 1903              		.cfi_offset 4, -16
 1904              		.cfi_offset 5, -12
 1905              		.cfi_offset 6, -8
 1906              		.cfi_offset 14, -4
 1907 0002 84B0     		sub	sp, sp, #16
 1908              	.LCFI32:
 1909              		.cfi_def_cfa_offset 32
 1910 0004 0446     		mov	r4, r0
 1911 0006 0E46     		mov	r6, r1
1191:System/shell/shell.c ****     shellWriteString(shell, "Return: ");
 1912              		.loc 1 1191 5 is_stmt 1 view .LVU522
1191:System/shell/shell.c ****     shellWriteString(shell, "Return: ");
 1913              		.loc 1 1191 10 is_stmt 0 view .LVU523
 1914 0008 194B     		ldr	r3, .L182
 1915 000a 01AD     		add	r5, sp, #4
 1916 000c 93E80700 		ldm	r3, {r0, r1, r2}
 1917              	.LVL176:
1191:System/shell/shell.c ****     shellWriteString(shell, "Return: ");
 1918              		.loc 1 1191 10 view .LVU524
 1919 0010 85E80700 		stm	r5, {r0, r1, r2}
1192:System/shell/shell.c ****     shellWriteString(shell, &buffer[11 - shellToDec(value, buffer)]);
 1920              		.loc 1 1192 5 is_stmt 1 view .LVU525
 1921 0014 1749     		ldr	r1, .L182+4
 1922 0016 2046     		mov	r0, r4
 1923 0018 FFF7FEFF 		bl	shellWriteString
 1924              	.LVL177:
1193:System/shell/shell.c ****     shellWriteString(shell, ", 0x");
 1925              		.loc 1 1193 5 view .LVU526
1193:System/shell/shell.c ****     shellWriteString(shell, ", 0x");
ARM GAS  C:\Users\8bit\AppData\Local\Temp\ccdhdvRO.s 			page 72


 1926              		.loc 1 1193 42 is_stmt 0 view .LVU527
 1927 001c 2946     		mov	r1, r5
 1928 001e 3046     		mov	r0, r6
 1929 0020 FFF7FEFF 		bl	shellToDec
 1930              	.LVL178:
1193:System/shell/shell.c ****     shellWriteString(shell, ", 0x");
 1931              		.loc 1 1193 40 view .LVU528
 1932 0024 C0F10B01 		rsb	r1, r0, #11
1193:System/shell/shell.c ****     shellWriteString(shell, ", 0x");
 1933              		.loc 1 1193 5 view .LVU529
 1934 0028 2944     		add	r1, r1, r5
 1935 002a 2046     		mov	r0, r4
 1936 002c FFF7FEFF 		bl	shellWriteString
 1937              	.LVL179:
1194:System/shell/shell.c ****     for (short i = 0; i < 11; i++)
 1938              		.loc 1 1194 5 is_stmt 1 view .LVU530
 1939 0030 1149     		ldr	r1, .L182+8
 1940 0032 2046     		mov	r0, r4
 1941 0034 FFF7FEFF 		bl	shellWriteString
 1942              	.LVL180:
1195:System/shell/shell.c ****     {
 1943              		.loc 1 1195 5 view .LVU531
 1944              	.LBB9:
1195:System/shell/shell.c ****     {
 1945              		.loc 1 1195 10 view .LVU532
1195:System/shell/shell.c ****     {
 1946              		.loc 1 1195 16 is_stmt 0 view .LVU533
 1947 0038 0023     		movs	r3, #0
1195:System/shell/shell.c ****     {
 1948              		.loc 1 1195 5 view .LVU534
 1949 003a 08E0     		b	.L179
 1950              	.LVL181:
 1951              	.L180:
1197:System/shell/shell.c ****     }
 1952              		.loc 1 1197 9 is_stmt 1 discriminator 3 view .LVU535
1197:System/shell/shell.c ****     }
 1953              		.loc 1 1197 19 is_stmt 0 discriminator 3 view .LVU536
 1954 003c 03F11002 		add	r2, r3, #16
 1955 0040 6A44     		add	r2, sp, r2
 1956 0042 4FF0300C 		mov	ip, #48
 1957 0046 02F80CCC 		strb	ip, [r2, #-12]
1195:System/shell/shell.c ****     {
 1958              		.loc 1 1195 31 is_stmt 1 discriminator 3 view .LVU537
1195:System/shell/shell.c ****     {
 1959              		.loc 1 1195 32 is_stmt 0 discriminator 3 view .LVU538
 1960 004a 0133     		adds	r3, r3, #1
 1961              	.LVL182:
1195:System/shell/shell.c ****     {
 1962              		.loc 1 1195 32 discriminator 3 view .LVU539
 1963 004c 1BB2     		sxth	r3, r3
 1964              	.LVL183:
 1965              	.L179:
1195:System/shell/shell.c ****     {
 1966              		.loc 1 1195 23 is_stmt 1 discriminator 1 view .LVU540
1195:System/shell/shell.c ****     {
 1967              		.loc 1 1195 5 is_stmt 0 discriminator 1 view .LVU541
 1968 004e 0A2B     		cmp	r3, #10
ARM GAS  C:\Users\8bit\AppData\Local\Temp\ccdhdvRO.s 			page 73


 1969 0050 F4DD     		ble	.L180
 1970              	.LBE9:
1199:System/shell/shell.c ****     shellWriteString(shell, buffer);
 1971              		.loc 1 1199 5 is_stmt 1 view .LVU542
 1972 0052 01A9     		add	r1, sp, #4
 1973 0054 3046     		mov	r0, r6
 1974 0056 FFF7FEFF 		bl	shellToHex
 1975              	.LVL184:
1200:System/shell/shell.c ****     shellWriteString(shell, "\r\n");
 1976              		.loc 1 1200 5 view .LVU543
 1977 005a 01A9     		add	r1, sp, #4
 1978 005c 2046     		mov	r0, r4
 1979 005e FFF7FEFF 		bl	shellWriteString
 1980              	.LVL185:
1201:System/shell/shell.c **** }
 1981              		.loc 1 1201 5 view .LVU544
 1982 0062 0649     		ldr	r1, .L182+12
 1983 0064 2046     		mov	r0, r4
 1984 0066 FFF7FEFF 		bl	shellWriteString
 1985              	.LVL186:
1202:System/shell/shell.c **** 
 1986              		.loc 1 1202 1 is_stmt 0 view .LVU545
 1987 006a 04B0     		add	sp, sp, #16
 1988              	.LCFI33:
 1989              		.cfi_def_cfa_offset 16
 1990              		@ sp needed
 1991 006c 70BD     		pop	{r4, r5, r6, pc}
 1992              	.LVL187:
 1993              	.L183:
1202:System/shell/shell.c **** 
 1994              		.loc 1 1202 1 view .LVU546
 1995 006e 00BF     		.align	2
 1996              	.L182:
 1997 0070 14000000 		.word	.LC8
 1998 0074 00000000 		.word	.LC9
 1999 0078 0C000000 		.word	.LC10
 2000 007c 04000000 		.word	.LC3
 2001              		.cfi_endproc
 2002              	.LFE39:
 2004              		.section	.rodata.shellListItem.str1.4,"aMS",%progbits,1
 2005              		.align	2
 2006              	.LC11:
 2007 0000 434D4420 		.ascii	"CMD \015\012\000"
 2007      0D0A00
 2008 0007 00       		.align	2
 2009              	.LC12:
 2010 0008 56415200 		.ascii	"VAR\000"
 2011              		.align	2
 2012              	.LC13:
 2013 000c 55534552 		.ascii	"USER\000"
 2013      00
 2014 0011 000000   		.align	2
 2015              	.LC14:
 2016 0014 4B455900 		.ascii	"KEY\000"
 2017              		.align	2
 2018              	.LC15:
 2019 0018 4E4F4E45 		.ascii	"NONE\000"
ARM GAS  C:\Users\8bit\AppData\Local\Temp\ccdhdvRO.s 			page 74


 2019      00
 2020              		.section	.text.shellListItem,"ax",%progbits
 2021              		.align	1
 2022              		.global	shellListItem
 2023              		.syntax unified
 2024              		.thumb
 2025              		.thumb_func
 2027              	shellListItem:
 2028              	.LVL188:
 2029              	.LFB19:
 558:System/shell/shell.c ****     short spaceLength;
 2030              		.loc 1 558 1 is_stmt 1 view -0
 2031              		.cfi_startproc
 2032              		@ args = 0, pretend = 0, frame = 0
 2033              		@ frame_needed = 0, uses_anonymous_args = 0
 558:System/shell/shell.c ****     short spaceLength;
 2034              		.loc 1 558 1 is_stmt 0 view .LVU548
 2035 0000 70B5     		push	{r4, r5, r6, lr}
 2036              	.LCFI34:
 2037              		.cfi_def_cfa_offset 16
 2038              		.cfi_offset 4, -16
 2039              		.cfi_offset 5, -12
 2040              		.cfi_offset 6, -8
 2041              		.cfi_offset 14, -4
 2042 0002 0546     		mov	r5, r0
 2043 0004 0E46     		mov	r6, r1
 559:System/shell/shell.c **** 
 2044              		.loc 1 559 5 is_stmt 1 view .LVU549
 561:System/shell/shell.c ****     spaceLength = (spaceLength > 0) ? spaceLength : 4;
 2045              		.loc 1 561 5 view .LVU550
 561:System/shell/shell.c ****     spaceLength = (spaceLength > 0) ? spaceLength : 4;
 2046              		.loc 1 561 24 is_stmt 0 view .LVU551
 2047 0006 0846     		mov	r0, r1
 2048              	.LVL189:
 561:System/shell/shell.c ****     spaceLength = (spaceLength > 0) ? spaceLength : 4;
 2049              		.loc 1 561 24 view .LVU552
 2050 0008 FFF7FEFF 		bl	shellGetCommandName
 2051              	.LVL190:
 561:System/shell/shell.c ****     spaceLength = (spaceLength > 0) ? spaceLength : 4;
 2052              		.loc 1 561 24 view .LVU553
 2053 000c 0146     		mov	r1, r0
 2054 000e 2846     		mov	r0, r5
 2055 0010 FFF7FEFF 		bl	shellWriteString
 2056              	.LVL191:
 561:System/shell/shell.c ****     spaceLength = (spaceLength > 0) ? spaceLength : 4;
 2057              		.loc 1 561 22 view .LVU554
 2058 0014 C0F11604 		rsb	r4, r0, #22
 561:System/shell/shell.c ****     spaceLength = (spaceLength > 0) ? spaceLength : 4;
 2059              		.loc 1 561 17 view .LVU555
 2060 0018 24B2     		sxth	r4, r4
 2061              	.LVL192:
 562:System/shell/shell.c ****     do
 2062              		.loc 1 562 5 is_stmt 1 view .LVU556
 562:System/shell/shell.c ****     do
 2063              		.loc 1 562 17 is_stmt 0 view .LVU557
 2064 001a 002C     		cmp	r4, #0
 2065 001c 17DD     		ble	.L194
ARM GAS  C:\Users\8bit\AppData\Local\Temp\ccdhdvRO.s 			page 75


 2066              	.LVL193:
 2067              	.L186:
 563:System/shell/shell.c ****     {
 2068              		.loc 1 563 5 is_stmt 1 discriminator 1 view .LVU558
 565:System/shell/shell.c ****     } while (--spaceLength);
 2069              		.loc 1 565 9 discriminator 1 view .LVU559
 2070 001e 2D21     		movs	r1, #45
 2071 0020 2846     		mov	r0, r5
 2072 0022 FFF7FEFF 		bl	shellWriteByte
 2073              	.LVL194:
 566:System/shell/shell.c ****     if (item->attr.attrs.type <= SHELL_TYPE_CMD_FUNC)
 2074              		.loc 1 566 13 discriminator 1 view .LVU560
 566:System/shell/shell.c ****     if (item->attr.attrs.type <= SHELL_TYPE_CMD_FUNC)
 2075              		.loc 1 566 14 is_stmt 0 discriminator 1 view .LVU561
 2076 0026 013C     		subs	r4, r4, #1
 2077              	.LVL195:
 566:System/shell/shell.c ****     if (item->attr.attrs.type <= SHELL_TYPE_CMD_FUNC)
 2078              		.loc 1 566 5 discriminator 1 view .LVU562
 2079 0028 24B2     		sxth	r4, r4
 2080              	.LVL196:
 566:System/shell/shell.c ****     if (item->attr.attrs.type <= SHELL_TYPE_CMD_FUNC)
 2081              		.loc 1 566 5 discriminator 1 view .LVU563
 2082 002a 002C     		cmp	r4, #0
 2083 002c F7D1     		bne	.L186
 567:System/shell/shell.c ****     {
 2084              		.loc 1 567 5 is_stmt 1 view .LVU564
 567:System/shell/shell.c ****     {
 2085              		.loc 1 567 25 is_stmt 0 view .LVU565
 2086 002e 7378     		ldrb	r3, [r6, #1]	@ zero_extendqisi2
 2087 0030 03F00F03 		and	r3, r3, #15
 567:System/shell/shell.c ****     {
 2088              		.loc 1 567 8 view .LVU566
 2089 0034 012B     		cmp	r3, #1
 2090 0036 0CD9     		bls	.L195
 571:System/shell/shell.c ****     {
 2091              		.loc 1 571 10 is_stmt 1 view .LVU567
 571:System/shell/shell.c ****     {
 2092              		.loc 1 571 13 is_stmt 0 view .LVU568
 2093 0038 072B     		cmp	r3, #7
 2094 003a 0FD9     		bls	.L196
 575:System/shell/shell.c ****     {
 2095              		.loc 1 575 10 is_stmt 1 view .LVU569
 575:System/shell/shell.c ****     {
 2096              		.loc 1 575 13 is_stmt 0 view .LVU570
 2097 003c 082B     		cmp	r3, #8
 2098 003e 12D9     		bls	.L197
 579:System/shell/shell.c ****     {
 2099              		.loc 1 579 10 is_stmt 1 view .LVU571
 579:System/shell/shell.c ****     {
 2100              		.loc 1 579 13 is_stmt 0 view .LVU572
 2101 0040 092B     		cmp	r3, #9
 2102 0042 15D8     		bhi	.L191
 581:System/shell/shell.c ****     }
 2103              		.loc 1 581 9 is_stmt 1 view .LVU573
 2104 0044 0D49     		ldr	r1, .L198
 2105 0046 2846     		mov	r0, r5
 2106 0048 FFF7FEFF 		bl	shellWriteString
ARM GAS  C:\Users\8bit\AppData\Local\Temp\ccdhdvRO.s 			page 76


 2107              	.LVL197:
 2108 004c 05E0     		b	.L184
 2109              	.L194:
 562:System/shell/shell.c ****     do
 2110              		.loc 1 562 17 is_stmt 0 view .LVU574
 2111 004e 0424     		movs	r4, #4
 2112              	.LVL198:
 562:System/shell/shell.c ****     do
 2113              		.loc 1 562 17 view .LVU575
 2114 0050 E5E7     		b	.L186
 2115              	.LVL199:
 2116              	.L195:
 569:System/shell/shell.c ****     }
 2117              		.loc 1 569 9 is_stmt 1 view .LVU576
 2118 0052 0B49     		ldr	r1, .L198+4
 2119 0054 2846     		mov	r0, r5
 2120 0056 FFF7FEFF 		bl	shellWriteString
 2121              	.LVL200:
 2122              	.L184:
 597:System/shell/shell.c **** 
 2123              		.loc 1 597 1 is_stmt 0 view .LVU577
 2124 005a 70BD     		pop	{r4, r5, r6, pc}
 2125              	.LVL201:
 2126              	.L196:
 573:System/shell/shell.c ****     }
 2127              		.loc 1 573 9 is_stmt 1 view .LVU578
 2128 005c 0949     		ldr	r1, .L198+8
 2129 005e 2846     		mov	r0, r5
 2130 0060 FFF7FEFF 		bl	shellWriteString
 2131              	.LVL202:
 2132 0064 F9E7     		b	.L184
 2133              	.L197:
 577:System/shell/shell.c ****     }
 2134              		.loc 1 577 9 view .LVU579
 2135 0066 0849     		ldr	r1, .L198+12
 2136 0068 2846     		mov	r0, r5
 2137 006a FFF7FEFF 		bl	shellWriteString
 2138              	.LVL203:
 2139 006e F4E7     		b	.L184
 2140              	.L191:
 585:System/shell/shell.c ****     }
 2141              		.loc 1 585 9 view .LVU580
 2142 0070 0649     		ldr	r1, .L198+16
 2143 0072 2846     		mov	r0, r5
 2144 0074 FFF7FEFF 		bl	shellWriteString
 2145              	.LVL204:
 597:System/shell/shell.c **** 
 2146              		.loc 1 597 1 is_stmt 0 view .LVU581
 2147 0078 EFE7     		b	.L184
 2148              	.L199:
 2149 007a 00BF     		.align	2
 2150              	.L198:
 2151 007c 14000000 		.word	.LC14
 2152 0080 00000000 		.word	.LC11
 2153 0084 08000000 		.word	.LC12
 2154 0088 0C000000 		.word	.LC13
 2155 008c 18000000 		.word	.LC15
ARM GAS  C:\Users\8bit\AppData\Local\Temp\ccdhdvRO.s 			page 77


 2156              		.cfi_endproc
 2157              	.LFE19:
 2159              		.section	.rodata.shellListCommand.str1.4,"aMS",%progbits,1
 2160              		.align	2
 2161              	.LC16:
 2162 0000 0D0A436F 		.ascii	"\015\012Command List:\015\012\000"
 2162      6D6D616E 
 2162      64204C69 
 2162      73743A0D 
 2162      0A00
 2163              		.section	.text.shellListCommand,"ax",%progbits
 2164              		.align	1
 2165              		.global	shellListCommand
 2166              		.syntax unified
 2167              		.thumb
 2168              		.thumb_func
 2170              	shellListCommand:
 2171              	.LVL205:
 2172              	.LFB20:
 605:System/shell/shell.c ****     ShellCommand *base = (ShellCommand *)shell->commandList.base;
 2173              		.loc 1 605 1 is_stmt 1 view -0
 2174              		.cfi_startproc
 2175              		@ args = 0, pretend = 0, frame = 0
 2176              		@ frame_needed = 0, uses_anonymous_args = 0
 605:System/shell/shell.c ****     ShellCommand *base = (ShellCommand *)shell->commandList.base;
 2177              		.loc 1 605 1 is_stmt 0 view .LVU583
 2178 0000 F8B5     		push	{r3, r4, r5, r6, r7, lr}
 2179              	.LCFI35:
 2180              		.cfi_def_cfa_offset 24
 2181              		.cfi_offset 3, -24
 2182              		.cfi_offset 4, -20
 2183              		.cfi_offset 5, -16
 2184              		.cfi_offset 6, -12
 2185              		.cfi_offset 7, -8
 2186              		.cfi_offset 14, -4
 2187 0002 0646     		mov	r6, r0
 606:System/shell/shell.c ****     shellWriteString(shell, shellText[SHELL_TEXT_CMD_LIST]);
 2188              		.loc 1 606 5 is_stmt 1 view .LVU584
 606:System/shell/shell.c ****     shellWriteString(shell, shellText[SHELL_TEXT_CMD_LIST]);
 2189              		.loc 1 606 19 is_stmt 0 view .LVU585
 2190 0004 876D     		ldr	r7, [r0, #88]
 2191              	.LVL206:
 607:System/shell/shell.c ****     for (short i = 0; i < shell->commandList.count; i++)
 2192              		.loc 1 607 5 is_stmt 1 view .LVU586
 2193 0006 0F49     		ldr	r1, .L206
 2194 0008 FFF7FEFF 		bl	shellWriteString
 2195              	.LVL207:
 608:System/shell/shell.c ****     {
 2196              		.loc 1 608 5 view .LVU587
 2197              	.LBB10:
 608:System/shell/shell.c ****     {
 2198              		.loc 1 608 10 view .LVU588
 608:System/shell/shell.c ****     {
 2199              		.loc 1 608 16 is_stmt 0 view .LVU589
 2200 000c 0024     		movs	r4, #0
 608:System/shell/shell.c ****     {
 2201              		.loc 1 608 5 view .LVU590
ARM GAS  C:\Users\8bit\AppData\Local\Temp\ccdhdvRO.s 			page 78


 2202 000e 01E0     		b	.L201
 2203              	.LVL208:
 2204              	.L202:
 608:System/shell/shell.c ****     {
 2205              		.loc 1 608 53 is_stmt 1 discriminator 2 view .LVU591
 608:System/shell/shell.c ****     {
 2206              		.loc 1 608 54 is_stmt 0 discriminator 2 view .LVU592
 2207 0010 0134     		adds	r4, r4, #1
 2208              	.LVL209:
 608:System/shell/shell.c ****     {
 2209              		.loc 1 608 54 discriminator 2 view .LVU593
 2210 0012 24B2     		sxth	r4, r4
 2211              	.LVL210:
 2212              	.L201:
 608:System/shell/shell.c ****     {
 2213              		.loc 1 608 23 is_stmt 1 discriminator 1 view .LVU594
 608:System/shell/shell.c ****     {
 2214              		.loc 1 608 45 is_stmt 0 discriminator 1 view .LVU595
 2215 0014 B6F85C30 		ldrh	r3, [r6, #92]
 608:System/shell/shell.c ****     {
 2216              		.loc 1 608 5 discriminator 1 view .LVU596
 2217 0018 9C42     		cmp	r4, r3
 2218 001a 11DA     		bge	.L205
 610:System/shell/shell.c ****         {
 2219              		.loc 1 610 9 is_stmt 1 view .LVU597
 610:System/shell/shell.c ****         {
 2220              		.loc 1 610 17 is_stmt 0 view .LVU598
 2221 001c 07EB0415 		add	r5, r7, r4, lsl #4
 610:System/shell/shell.c ****         {
 2222              		.loc 1 610 31 view .LVU599
 2223 0020 6B78     		ldrb	r3, [r5, #1]	@ zero_extendqisi2
 2224 0022 03F00F03 		and	r3, r3, #15
 610:System/shell/shell.c ****         {
 2225              		.loc 1 610 12 view .LVU600
 2226 0026 012B     		cmp	r3, #1
 2227 0028 F2D8     		bhi	.L202
 610:System/shell/shell.c ****         {
 2228              		.loc 1 610 63 discriminator 1 view .LVU601
 2229 002a 2946     		mov	r1, r5
 2230 002c 3046     		mov	r0, r6
 2231 002e FFF7FEFF 		bl	shellCheckPermission
 2232              	.LVL211:
 610:System/shell/shell.c ****         {
 2233              		.loc 1 610 60 discriminator 1 view .LVU602
 2234 0032 0028     		cmp	r0, #0
 2235 0034 ECD1     		bne	.L202
 612:System/shell/shell.c ****         }
 2236              		.loc 1 612 13 is_stmt 1 view .LVU603
 2237 0036 2946     		mov	r1, r5
 2238 0038 3046     		mov	r0, r6
 2239 003a FFF7FEFF 		bl	shellListItem
 2240              	.LVL212:
 2241 003e E7E7     		b	.L202
 2242              	.L205:
 612:System/shell/shell.c ****         }
 2243              		.loc 1 612 13 is_stmt 0 view .LVU604
 2244              	.LBE10:
ARM GAS  C:\Users\8bit\AppData\Local\Temp\ccdhdvRO.s 			page 79


 615:System/shell/shell.c **** 
 2245              		.loc 1 615 1 view .LVU605
 2246 0040 F8BD     		pop	{r3, r4, r5, r6, r7, pc}
 2247              	.LVL213:
 2248              	.L207:
 615:System/shell/shell.c **** 
 2249              		.loc 1 615 1 view .LVU606
 2250 0042 00BF     		.align	2
 2251              	.L206:
 2252 0044 00000000 		.word	.LC16
 2253              		.cfi_endproc
 2254              	.LFE20:
 2256              		.section	.text.shellCmds,"ax",%progbits
 2257              		.align	1
 2258              		.global	shellCmds
 2259              		.syntax unified
 2260              		.thumb
 2261              		.thumb_func
 2263              	shellCmds:
 2264              	.LFB56:
1710:System/shell/shell.c ****     Shell *shell = shellGetCurrent();
 2265              		.loc 1 1710 1 is_stmt 1 view -0
 2266              		.cfi_startproc
 2267              		@ args = 0, pretend = 0, frame = 0
 2268              		@ frame_needed = 0, uses_anonymous_args = 0
 2269 0000 08B5     		push	{r3, lr}
 2270              	.LCFI36:
 2271              		.cfi_def_cfa_offset 8
 2272              		.cfi_offset 3, -8
 2273              		.cfi_offset 14, -4
1711:System/shell/shell.c ****     if (shell)
 2274              		.loc 1 1711 5 view .LVU608
1711:System/shell/shell.c ****     if (shell)
 2275              		.loc 1 1711 20 is_stmt 0 view .LVU609
 2276 0002 FFF7FEFF 		bl	shellGetCurrent
 2277              	.LVL214:
1712:System/shell/shell.c ****     {
 2278              		.loc 1 1712 5 is_stmt 1 view .LVU610
1712:System/shell/shell.c ****     {
 2279              		.loc 1 1712 8 is_stmt 0 view .LVU611
 2280 0006 08B1     		cbz	r0, .L208
1714:System/shell/shell.c ****     }
 2281              		.loc 1 1714 9 is_stmt 1 view .LVU612
 2282 0008 FFF7FEFF 		bl	shellListCommand
 2283              	.LVL215:
 2284              	.L208:
1716:System/shell/shell.c **** SHELL_EXPORT_CMD(
 2285              		.loc 1 1716 1 is_stmt 0 view .LVU613
 2286 000c 08BD     		pop	{r3, pc}
 2287              		.cfi_endproc
 2288              	.LFE56:
 2290              		.section	.rodata.shellListVar.str1.4,"aMS",%progbits,1
 2291              		.align	2
 2292              	.LC17:
 2293 0000 0D0A5661 		.ascii	"\015\012Var List:\015\012\000"
 2293      72204C69 
 2293      73743A0D 
ARM GAS  C:\Users\8bit\AppData\Local\Temp\ccdhdvRO.s 			page 80


 2293      0A00
 2294              		.section	.text.shellListVar,"ax",%progbits
 2295              		.align	1
 2296              		.global	shellListVar
 2297              		.syntax unified
 2298              		.thumb
 2299              		.thumb_func
 2301              	shellListVar:
 2302              	.LVL216:
 2303              	.LFB21:
 623:System/shell/shell.c ****     ShellCommand *base = (ShellCommand *)shell->commandList.base;
 2304              		.loc 1 623 1 is_stmt 1 view -0
 2305              		.cfi_startproc
 2306              		@ args = 0, pretend = 0, frame = 0
 2307              		@ frame_needed = 0, uses_anonymous_args = 0
 623:System/shell/shell.c ****     ShellCommand *base = (ShellCommand *)shell->commandList.base;
 2308              		.loc 1 623 1 is_stmt 0 view .LVU615
 2309 0000 F8B5     		push	{r3, r4, r5, r6, r7, lr}
 2310              	.LCFI37:
 2311              		.cfi_def_cfa_offset 24
 2312              		.cfi_offset 3, -24
 2313              		.cfi_offset 4, -20
 2314              		.cfi_offset 5, -16
 2315              		.cfi_offset 6, -12
 2316              		.cfi_offset 7, -8
 2317              		.cfi_offset 14, -4
 2318 0002 0646     		mov	r6, r0
 624:System/shell/shell.c ****     shellWriteString(shell, shellText[SHELL_TEXT_VAR_LIST]);
 2319              		.loc 1 624 5 is_stmt 1 view .LVU616
 624:System/shell/shell.c ****     shellWriteString(shell, shellText[SHELL_TEXT_VAR_LIST]);
 2320              		.loc 1 624 19 is_stmt 0 view .LVU617
 2321 0004 876D     		ldr	r7, [r0, #88]
 2322              	.LVL217:
 625:System/shell/shell.c ****     for (short i = 0; i < shell->commandList.count; i++)
 2323              		.loc 1 625 5 is_stmt 1 view .LVU618
 2324 0006 1049     		ldr	r1, .L217
 2325 0008 FFF7FEFF 		bl	shellWriteString
 2326              	.LVL218:
 626:System/shell/shell.c ****     {
 2327              		.loc 1 626 5 view .LVU619
 2328              	.LBB11:
 626:System/shell/shell.c ****     {
 2329              		.loc 1 626 10 view .LVU620
 626:System/shell/shell.c ****     {
 2330              		.loc 1 626 16 is_stmt 0 view .LVU621
 2331 000c 0024     		movs	r4, #0
 626:System/shell/shell.c ****     {
 2332              		.loc 1 626 5 view .LVU622
 2333 000e 01E0     		b	.L212
 2334              	.LVL219:
 2335              	.L213:
 626:System/shell/shell.c ****     {
 2336              		.loc 1 626 53 is_stmt 1 discriminator 2 view .LVU623
 626:System/shell/shell.c ****     {
 2337              		.loc 1 626 54 is_stmt 0 discriminator 2 view .LVU624
 2338 0010 0134     		adds	r4, r4, #1
 2339              	.LVL220:
ARM GAS  C:\Users\8bit\AppData\Local\Temp\ccdhdvRO.s 			page 81


 626:System/shell/shell.c ****     {
 2340              		.loc 1 626 54 discriminator 2 view .LVU625
 2341 0012 24B2     		sxth	r4, r4
 2342              	.LVL221:
 2343              	.L212:
 626:System/shell/shell.c ****     {
 2344              		.loc 1 626 23 is_stmt 1 discriminator 1 view .LVU626
 626:System/shell/shell.c ****     {
 2345              		.loc 1 626 45 is_stmt 0 discriminator 1 view .LVU627
 2346 0014 B6F85C30 		ldrh	r3, [r6, #92]
 626:System/shell/shell.c ****     {
 2347              		.loc 1 626 5 discriminator 1 view .LVU628
 2348 0018 9C42     		cmp	r4, r3
 2349 001a 14DA     		bge	.L216
 628:System/shell/shell.c ****         {
 2350              		.loc 1 628 9 is_stmt 1 view .LVU629
 628:System/shell/shell.c ****         {
 2351              		.loc 1 628 17 is_stmt 0 view .LVU630
 2352 001c 07EB0415 		add	r5, r7, r4, lsl #4
 628:System/shell/shell.c ****         {
 2353              		.loc 1 628 31 view .LVU631
 2354 0020 6B78     		ldrb	r3, [r5, #1]	@ zero_extendqisi2
 2355 0022 03F00F03 		and	r3, r3, #15
 628:System/shell/shell.c ****         {
 2356              		.loc 1 628 59 view .LVU632
 2357 0026 0E33     		adds	r3, r3, #14
 2358 0028 03F00F03 		and	r3, r3, #15
 628:System/shell/shell.c ****         {
 2359              		.loc 1 628 12 view .LVU633
 2360 002c 052B     		cmp	r3, #5
 2361 002e EFD8     		bhi	.L213
 628:System/shell/shell.c ****         {
 2362              		.loc 1 628 112 discriminator 1 view .LVU634
 2363 0030 2946     		mov	r1, r5
 2364 0032 3046     		mov	r0, r6
 2365 0034 FFF7FEFF 		bl	shellCheckPermission
 2366              	.LVL222:
 628:System/shell/shell.c ****         {
 2367              		.loc 1 628 109 discriminator 1 view .LVU635
 2368 0038 0028     		cmp	r0, #0
 2369 003a E9D1     		bne	.L213
 630:System/shell/shell.c ****         }
 2370              		.loc 1 630 13 is_stmt 1 view .LVU636
 2371 003c 2946     		mov	r1, r5
 2372 003e 3046     		mov	r0, r6
 2373 0040 FFF7FEFF 		bl	shellListItem
 2374              	.LVL223:
 2375 0044 E4E7     		b	.L213
 2376              	.L216:
 630:System/shell/shell.c ****         }
 2377              		.loc 1 630 13 is_stmt 0 view .LVU637
 2378              	.LBE11:
 633:System/shell/shell.c **** 
 2379              		.loc 1 633 1 view .LVU638
 2380 0046 F8BD     		pop	{r3, r4, r5, r6, r7, pc}
 2381              	.LVL224:
 2382              	.L218:
ARM GAS  C:\Users\8bit\AppData\Local\Temp\ccdhdvRO.s 			page 82


 633:System/shell/shell.c **** 
 2383              		.loc 1 633 1 view .LVU639
 2384              		.align	2
 2385              	.L217:
 2386 0048 00000000 		.word	.LC17
 2387              		.cfi_endproc
 2388              	.LFE21:
 2390              		.section	.text.shellVars,"ax",%progbits
 2391              		.align	1
 2392              		.global	shellVars
 2393              		.syntax unified
 2394              		.thumb
 2395              		.thumb_func
 2397              	shellVars:
 2398              	.LFB57:
1725:System/shell/shell.c ****     Shell *shell = shellGetCurrent();
 2399              		.loc 1 1725 1 is_stmt 1 view -0
 2400              		.cfi_startproc
 2401              		@ args = 0, pretend = 0, frame = 0
 2402              		@ frame_needed = 0, uses_anonymous_args = 0
 2403 0000 08B5     		push	{r3, lr}
 2404              	.LCFI38:
 2405              		.cfi_def_cfa_offset 8
 2406              		.cfi_offset 3, -8
 2407              		.cfi_offset 14, -4
1726:System/shell/shell.c ****     if (shell)
 2408              		.loc 1 1726 5 view .LVU641
1726:System/shell/shell.c ****     if (shell)
 2409              		.loc 1 1726 20 is_stmt 0 view .LVU642
 2410 0002 FFF7FEFF 		bl	shellGetCurrent
 2411              	.LVL225:
1727:System/shell/shell.c ****     {
 2412              		.loc 1 1727 5 is_stmt 1 view .LVU643
1727:System/shell/shell.c ****     {
 2413              		.loc 1 1727 8 is_stmt 0 view .LVU644
 2414 0006 08B1     		cbz	r0, .L219
1729:System/shell/shell.c ****     }
 2415              		.loc 1 1729 9 is_stmt 1 view .LVU645
 2416 0008 FFF7FEFF 		bl	shellListVar
 2417              	.LVL226:
 2418              	.L219:
1731:System/shell/shell.c **** SHELL_EXPORT_CMD(
 2419              		.loc 1 1731 1 is_stmt 0 view .LVU646
 2420 000c 08BD     		pop	{r3, pc}
 2421              		.cfi_endproc
 2422              	.LFE57:
 2424              		.section	.rodata.shellListUser.str1.4,"aMS",%progbits,1
 2425              		.align	2
 2426              	.LC18:
 2427 0000 0D0A5573 		.ascii	"\015\012User List:\015\012\000"
 2427      6572204C 
 2427      6973743A 
 2427      0D0A00
 2428              		.section	.text.shellListUser,"ax",%progbits
 2429              		.align	1
 2430              		.global	shellListUser
 2431              		.syntax unified
ARM GAS  C:\Users\8bit\AppData\Local\Temp\ccdhdvRO.s 			page 83


 2432              		.thumb
 2433              		.thumb_func
 2435              	shellListUser:
 2436              	.LVL227:
 2437              	.LFB22:
 641:System/shell/shell.c ****     ShellCommand *base = (ShellCommand *)shell->commandList.base;
 2438              		.loc 1 641 1 is_stmt 1 view -0
 2439              		.cfi_startproc
 2440              		@ args = 0, pretend = 0, frame = 0
 2441              		@ frame_needed = 0, uses_anonymous_args = 0
 641:System/shell/shell.c ****     ShellCommand *base = (ShellCommand *)shell->commandList.base;
 2442              		.loc 1 641 1 is_stmt 0 view .LVU648
 2443 0000 F8B5     		push	{r3, r4, r5, r6, r7, lr}
 2444              	.LCFI39:
 2445              		.cfi_def_cfa_offset 24
 2446              		.cfi_offset 3, -24
 2447              		.cfi_offset 4, -20
 2448              		.cfi_offset 5, -16
 2449              		.cfi_offset 6, -12
 2450              		.cfi_offset 7, -8
 2451              		.cfi_offset 14, -4
 2452 0002 0646     		mov	r6, r0
 642:System/shell/shell.c ****     shellWriteString(shell, shellText[SHELL_TEXT_USER_LIST]);
 2453              		.loc 1 642 5 is_stmt 1 view .LVU649
 642:System/shell/shell.c ****     shellWriteString(shell, shellText[SHELL_TEXT_USER_LIST]);
 2454              		.loc 1 642 19 is_stmt 0 view .LVU650
 2455 0004 876D     		ldr	r7, [r0, #88]
 2456              	.LVL228:
 643:System/shell/shell.c ****     for (short i = 0; i < shell->commandList.count; i++)
 2457              		.loc 1 643 5 is_stmt 1 view .LVU651
 2458 0006 0F49     		ldr	r1, .L228
 2459 0008 FFF7FEFF 		bl	shellWriteString
 2460              	.LVL229:
 644:System/shell/shell.c ****     {
 2461              		.loc 1 644 5 view .LVU652
 2462              	.LBB12:
 644:System/shell/shell.c ****     {
 2463              		.loc 1 644 10 view .LVU653
 644:System/shell/shell.c ****     {
 2464              		.loc 1 644 16 is_stmt 0 view .LVU654
 2465 000c 0024     		movs	r4, #0
 644:System/shell/shell.c ****     {
 2466              		.loc 1 644 5 view .LVU655
 2467 000e 01E0     		b	.L223
 2468              	.LVL230:
 2469              	.L224:
 644:System/shell/shell.c ****     {
 2470              		.loc 1 644 53 is_stmt 1 discriminator 2 view .LVU656
 644:System/shell/shell.c ****     {
 2471              		.loc 1 644 54 is_stmt 0 discriminator 2 view .LVU657
 2472 0010 0134     		adds	r4, r4, #1
 2473              	.LVL231:
 644:System/shell/shell.c ****     {
 2474              		.loc 1 644 54 discriminator 2 view .LVU658
 2475 0012 24B2     		sxth	r4, r4
 2476              	.LVL232:
 2477              	.L223:
ARM GAS  C:\Users\8bit\AppData\Local\Temp\ccdhdvRO.s 			page 84


 644:System/shell/shell.c ****     {
 2478              		.loc 1 644 23 is_stmt 1 discriminator 1 view .LVU659
 644:System/shell/shell.c ****     {
 2479              		.loc 1 644 45 is_stmt 0 discriminator 1 view .LVU660
 2480 0014 B6F85C30 		ldrh	r3, [r6, #92]
 644:System/shell/shell.c ****     {
 2481              		.loc 1 644 5 discriminator 1 view .LVU661
 2482 0018 9C42     		cmp	r4, r3
 2483 001a 11DA     		bge	.L227
 646:System/shell/shell.c ****         {
 2484              		.loc 1 646 9 is_stmt 1 view .LVU662
 646:System/shell/shell.c ****         {
 2485              		.loc 1 646 17 is_stmt 0 view .LVU663
 2486 001c 07EB0415 		add	r5, r7, r4, lsl #4
 646:System/shell/shell.c ****         {
 2487              		.loc 1 646 59 view .LVU664
 2488 0020 6B78     		ldrb	r3, [r5, #1]	@ zero_extendqisi2
 2489 0022 03F00F03 		and	r3, r3, #15
 646:System/shell/shell.c ****         {
 2490              		.loc 1 646 12 view .LVU665
 2491 0026 082B     		cmp	r3, #8
 2492 0028 F2D1     		bne	.L224
 646:System/shell/shell.c ****         {
 2493              		.loc 1 646 108 discriminator 1 view .LVU666
 2494 002a 2946     		mov	r1, r5
 2495 002c 3046     		mov	r0, r6
 2496 002e FFF7FEFF 		bl	shellCheckPermission
 2497              	.LVL233:
 646:System/shell/shell.c ****         {
 2498              		.loc 1 646 105 discriminator 1 view .LVU667
 2499 0032 0028     		cmp	r0, #0
 2500 0034 ECD1     		bne	.L224
 648:System/shell/shell.c ****         }
 2501              		.loc 1 648 13 is_stmt 1 view .LVU668
 2502 0036 2946     		mov	r1, r5
 2503 0038 3046     		mov	r0, r6
 2504 003a FFF7FEFF 		bl	shellListItem
 2505              	.LVL234:
 2506 003e E7E7     		b	.L224
 2507              	.L227:
 648:System/shell/shell.c ****         }
 2508              		.loc 1 648 13 is_stmt 0 view .LVU669
 2509              	.LBE12:
 651:System/shell/shell.c **** 
 2510              		.loc 1 651 1 view .LVU670
 2511 0040 F8BD     		pop	{r3, r4, r5, r6, r7, pc}
 2512              	.LVL235:
 2513              	.L229:
 651:System/shell/shell.c **** 
 2514              		.loc 1 651 1 view .LVU671
 2515 0042 00BF     		.align	2
 2516              	.L228:
 2517 0044 00000000 		.word	.LC18
 2518              		.cfi_endproc
 2519              	.LFE22:
 2521              		.section	.text.shellUsers,"ax",%progbits
 2522              		.align	1
ARM GAS  C:\Users\8bit\AppData\Local\Temp\ccdhdvRO.s 			page 85


 2523              		.global	shellUsers
 2524              		.syntax unified
 2525              		.thumb
 2526              		.thumb_func
 2528              	shellUsers:
 2529              	.LFB55:
1695:System/shell/shell.c ****     Shell *shell = shellGetCurrent();
 2530              		.loc 1 1695 1 is_stmt 1 view -0
 2531              		.cfi_startproc
 2532              		@ args = 0, pretend = 0, frame = 0
 2533              		@ frame_needed = 0, uses_anonymous_args = 0
 2534 0000 08B5     		push	{r3, lr}
 2535              	.LCFI40:
 2536              		.cfi_def_cfa_offset 8
 2537              		.cfi_offset 3, -8
 2538              		.cfi_offset 14, -4
1696:System/shell/shell.c ****     if (shell)
 2539              		.loc 1 1696 5 view .LVU673
1696:System/shell/shell.c ****     if (shell)
 2540              		.loc 1 1696 20 is_stmt 0 view .LVU674
 2541 0002 FFF7FEFF 		bl	shellGetCurrent
 2542              	.LVL236:
1697:System/shell/shell.c ****     {
 2543              		.loc 1 1697 5 is_stmt 1 view .LVU675
1697:System/shell/shell.c ****     {
 2544              		.loc 1 1697 8 is_stmt 0 view .LVU676
 2545 0006 08B1     		cbz	r0, .L230
1699:System/shell/shell.c ****     }
 2546              		.loc 1 1699 9 is_stmt 1 view .LVU677
 2547 0008 FFF7FEFF 		bl	shellListUser
 2548              	.LVL237:
 2549              	.L230:
1701:System/shell/shell.c **** SHELL_EXPORT_CMD(
 2550              		.loc 1 1701 1 is_stmt 0 view .LVU678
 2551 000c 08BD     		pop	{r3, pc}
 2552              		.cfi_endproc
 2553              	.LFE55:
 2555              		.section	.rodata.shellListKey.str1.4,"aMS",%progbits,1
 2556              		.align	2
 2557              	.LC19:
 2558 0000 0D0A4B65 		.ascii	"\015\012Key List:\015\012\000"
 2558      79204C69 
 2558      73743A0D 
 2558      0A00
 2559              		.section	.text.shellListKey,"ax",%progbits
 2560              		.align	1
 2561              		.global	shellListKey
 2562              		.syntax unified
 2563              		.thumb
 2564              		.thumb_func
 2566              	shellListKey:
 2567              	.LVL238:
 2568              	.LFB23:
 659:System/shell/shell.c ****     ShellCommand *base = (ShellCommand *)shell->commandList.base;
 2569              		.loc 1 659 1 is_stmt 1 view -0
 2570              		.cfi_startproc
 2571              		@ args = 0, pretend = 0, frame = 0
ARM GAS  C:\Users\8bit\AppData\Local\Temp\ccdhdvRO.s 			page 86


 2572              		@ frame_needed = 0, uses_anonymous_args = 0
 659:System/shell/shell.c ****     ShellCommand *base = (ShellCommand *)shell->commandList.base;
 2573              		.loc 1 659 1 is_stmt 0 view .LVU680
 2574 0000 F8B5     		push	{r3, r4, r5, r6, r7, lr}
 2575              	.LCFI41:
 2576              		.cfi_def_cfa_offset 24
 2577              		.cfi_offset 3, -24
 2578              		.cfi_offset 4, -20
 2579              		.cfi_offset 5, -16
 2580              		.cfi_offset 6, -12
 2581              		.cfi_offset 7, -8
 2582              		.cfi_offset 14, -4
 2583 0002 0646     		mov	r6, r0
 660:System/shell/shell.c ****     shellWriteString(shell, shellText[SHELL_TEXT_KEY_LIST]);
 2584              		.loc 1 660 5 is_stmt 1 view .LVU681
 660:System/shell/shell.c ****     shellWriteString(shell, shellText[SHELL_TEXT_KEY_LIST]);
 2585              		.loc 1 660 19 is_stmt 0 view .LVU682
 2586 0004 876D     		ldr	r7, [r0, #88]
 2587              	.LVL239:
 661:System/shell/shell.c ****     for (short i = 0; i < shell->commandList.count; i++)
 2588              		.loc 1 661 5 is_stmt 1 view .LVU683
 2589 0006 0F49     		ldr	r1, .L239
 2590 0008 FFF7FEFF 		bl	shellWriteString
 2591              	.LVL240:
 662:System/shell/shell.c ****     {
 2592              		.loc 1 662 5 view .LVU684
 2593              	.LBB13:
 662:System/shell/shell.c ****     {
 2594              		.loc 1 662 10 view .LVU685
 662:System/shell/shell.c ****     {
 2595              		.loc 1 662 16 is_stmt 0 view .LVU686
 2596 000c 0024     		movs	r4, #0
 662:System/shell/shell.c ****     {
 2597              		.loc 1 662 5 view .LVU687
 2598 000e 01E0     		b	.L234
 2599              	.LVL241:
 2600              	.L235:
 662:System/shell/shell.c ****     {
 2601              		.loc 1 662 53 is_stmt 1 discriminator 2 view .LVU688
 662:System/shell/shell.c ****     {
 2602              		.loc 1 662 54 is_stmt 0 discriminator 2 view .LVU689
 2603 0010 0134     		adds	r4, r4, #1
 2604              	.LVL242:
 662:System/shell/shell.c ****     {
 2605              		.loc 1 662 54 discriminator 2 view .LVU690
 2606 0012 24B2     		sxth	r4, r4
 2607              	.LVL243:
 2608              	.L234:
 662:System/shell/shell.c ****     {
 2609              		.loc 1 662 23 is_stmt 1 discriminator 1 view .LVU691
 662:System/shell/shell.c ****     {
 2610              		.loc 1 662 45 is_stmt 0 discriminator 1 view .LVU692
 2611 0014 B6F85C30 		ldrh	r3, [r6, #92]
 662:System/shell/shell.c ****     {
 2612              		.loc 1 662 5 discriminator 1 view .LVU693
 2613 0018 9C42     		cmp	r4, r3
 2614 001a 11DA     		bge	.L238
ARM GAS  C:\Users\8bit\AppData\Local\Temp\ccdhdvRO.s 			page 87


 664:System/shell/shell.c ****         {
 2615              		.loc 1 664 9 is_stmt 1 view .LVU694
 664:System/shell/shell.c ****         {
 2616              		.loc 1 664 17 is_stmt 0 view .LVU695
 2617 001c 07EB0415 		add	r5, r7, r4, lsl #4
 664:System/shell/shell.c ****         {
 2618              		.loc 1 664 55 view .LVU696
 2619 0020 6B78     		ldrb	r3, [r5, #1]	@ zero_extendqisi2
 2620 0022 03F00F03 		and	r3, r3, #15
 664:System/shell/shell.c ****         {
 2621              		.loc 1 664 12 view .LVU697
 2622 0026 092B     		cmp	r3, #9
 2623 0028 F2D1     		bne	.L235
 664:System/shell/shell.c ****         {
 2624              		.loc 1 664 103 discriminator 1 view .LVU698
 2625 002a 2946     		mov	r1, r5
 2626 002c 3046     		mov	r0, r6
 2627 002e FFF7FEFF 		bl	shellCheckPermission
 2628              	.LVL244:
 664:System/shell/shell.c ****         {
 2629              		.loc 1 664 100 discriminator 1 view .LVU699
 2630 0032 0028     		cmp	r0, #0
 2631 0034 ECD1     		bne	.L235
 666:System/shell/shell.c ****         }
 2632              		.loc 1 666 13 is_stmt 1 view .LVU700
 2633 0036 2946     		mov	r1, r5
 2634 0038 3046     		mov	r0, r6
 2635 003a FFF7FEFF 		bl	shellListItem
 2636              	.LVL245:
 2637 003e E7E7     		b	.L235
 2638              	.L238:
 666:System/shell/shell.c ****         }
 2639              		.loc 1 666 13 is_stmt 0 view .LVU701
 2640              	.LBE13:
 669:System/shell/shell.c **** 
 2641              		.loc 1 669 1 view .LVU702
 2642 0040 F8BD     		pop	{r3, r4, r5, r6, r7, pc}
 2643              	.LVL246:
 2644              	.L240:
 669:System/shell/shell.c **** 
 2645              		.loc 1 669 1 view .LVU703
 2646 0042 00BF     		.align	2
 2647              	.L239:
 2648 0044 00000000 		.word	.LC19
 2649              		.cfi_endproc
 2650              	.LFE23:
 2652              		.section	.text.shellKeys,"ax",%progbits
 2653              		.align	1
 2654              		.global	shellKeys
 2655              		.syntax unified
 2656              		.thumb
 2657              		.thumb_func
 2659              	shellKeys:
 2660              	.LFB58:
1740:System/shell/shell.c ****     Shell *shell = shellGetCurrent();
 2661              		.loc 1 1740 1 is_stmt 1 view -0
 2662              		.cfi_startproc
ARM GAS  C:\Users\8bit\AppData\Local\Temp\ccdhdvRO.s 			page 88


 2663              		@ args = 0, pretend = 0, frame = 0
 2664              		@ frame_needed = 0, uses_anonymous_args = 0
 2665 0000 08B5     		push	{r3, lr}
 2666              	.LCFI42:
 2667              		.cfi_def_cfa_offset 8
 2668              		.cfi_offset 3, -8
 2669              		.cfi_offset 14, -4
1741:System/shell/shell.c ****     if (shell)
 2670              		.loc 1 1741 5 view .LVU705
1741:System/shell/shell.c ****     if (shell)
 2671              		.loc 1 1741 20 is_stmt 0 view .LVU706
 2672 0002 FFF7FEFF 		bl	shellGetCurrent
 2673              	.LVL247:
1742:System/shell/shell.c ****     {
 2674              		.loc 1 1742 5 is_stmt 1 view .LVU707
1742:System/shell/shell.c ****     {
 2675              		.loc 1 1742 8 is_stmt 0 view .LVU708
 2676 0006 08B1     		cbz	r0, .L241
1744:System/shell/shell.c ****     }
 2677              		.loc 1 1744 9 is_stmt 1 view .LVU709
 2678 0008 FFF7FEFF 		bl	shellListKey
 2679              	.LVL248:
 2680              	.L241:
1746:System/shell/shell.c **** SHELL_EXPORT_CMD(
 2681              		.loc 1 1746 1 is_stmt 0 view .LVU710
 2682 000c 08BD     		pop	{r3, pc}
 2683              		.cfi_endproc
 2684              	.LFE58:
 2686              		.section	.text.shellListAll,"ax",%progbits
 2687              		.align	1
 2688              		.global	shellListAll
 2689              		.syntax unified
 2690              		.thumb
 2691              		.thumb_func
 2693              	shellListAll:
 2694              	.LVL249:
 2695              	.LFB24:
 677:System/shell/shell.c **** #if SHELL_HELP_LIST_USER == 1
 2696              		.loc 1 677 1 is_stmt 1 view -0
 2697              		.cfi_startproc
 2698              		@ args = 0, pretend = 0, frame = 0
 2699              		@ frame_needed = 0, uses_anonymous_args = 0
 677:System/shell/shell.c **** #if SHELL_HELP_LIST_USER == 1
 2700              		.loc 1 677 1 is_stmt 0 view .LVU712
 2701 0000 08B5     		push	{r3, lr}
 2702              	.LCFI43:
 2703              		.cfi_def_cfa_offset 8
 2704              		.cfi_offset 3, -8
 2705              		.cfi_offset 14, -4
 681:System/shell/shell.c **** #if SHELL_HELP_LIST_VAR == 1
 2706              		.loc 1 681 5 is_stmt 1 view .LVU713
 2707 0002 FFF7FEFF 		bl	shellListCommand
 2708              	.LVL250:
 688:System/shell/shell.c **** 
 2709              		.loc 1 688 1 is_stmt 0 view .LVU714
 2710 0006 08BD     		pop	{r3, pc}
 2711              		.cfi_endproc
ARM GAS  C:\Users\8bit\AppData\Local\Temp\ccdhdvRO.s 			page 89


 2712              	.LFE24:
 2714              		.section	.rodata.shellDeleteCommandLine.str1.4,"aMS",%progbits,1
 2715              		.align	2
 2716              	.LC20:
 2717 0000 08200800 		.ascii	"\010 \010\000"
 2718              		.section	.text.shellDeleteCommandLine,"ax",%progbits
 2719              		.align	1
 2720              		.global	shellDeleteCommandLine
 2721              		.syntax unified
 2722              		.thumb
 2723              		.thumb_func
 2725              	shellDeleteCommandLine:
 2726              	.LVL251:
 2727              	.LFB25:
 697:System/shell/shell.c ****     while (length--)
 2728              		.loc 1 697 1 is_stmt 1 view -0
 2729              		.cfi_startproc
 2730              		@ args = 0, pretend = 0, frame = 0
 2731              		@ frame_needed = 0, uses_anonymous_args = 0
 697:System/shell/shell.c ****     while (length--)
 2732              		.loc 1 697 1 is_stmt 0 view .LVU716
 2733 0000 38B5     		push	{r3, r4, r5, lr}
 2734              	.LCFI44:
 2735              		.cfi_def_cfa_offset 16
 2736              		.cfi_offset 3, -16
 2737              		.cfi_offset 4, -12
 2738              		.cfi_offset 5, -8
 2739              		.cfi_offset 14, -4
 2740 0002 0546     		mov	r5, r0
 698:System/shell/shell.c ****     {
 2741              		.loc 1 698 5 is_stmt 1 view .LVU717
 698:System/shell/shell.c ****     {
 2742              		.loc 1 698 11 is_stmt 0 view .LVU718
 2743 0004 04E0     		b	.L247
 2744              	.LVL252:
 2745              	.L248:
 700:System/shell/shell.c ****     }
 2746              		.loc 1 700 9 is_stmt 1 view .LVU719
 2747 0006 0549     		ldr	r1, .L250
 2748 0008 2846     		mov	r0, r5
 2749 000a FFF7FEFF 		bl	shellWriteString
 2750              	.LVL253:
 698:System/shell/shell.c ****     {
 2751              		.loc 1 698 18 is_stmt 0 view .LVU720
 2752 000e 2146     		mov	r1, r4
 2753              	.LVL254:
 2754              	.L247:
 698:System/shell/shell.c ****     {
 2755              		.loc 1 698 11 is_stmt 1 view .LVU721
 698:System/shell/shell.c ****     {
 2756              		.loc 1 698 18 is_stmt 0 view .LVU722
 2757 0010 4B1E     		subs	r3, r1, #1
 2758 0012 DCB2     		uxtb	r4, r3
 2759              	.LVL255:
 698:System/shell/shell.c ****     {
 2760              		.loc 1 698 11 view .LVU723
 2761 0014 0029     		cmp	r1, #0
ARM GAS  C:\Users\8bit\AppData\Local\Temp\ccdhdvRO.s 			page 90


 2762 0016 F6D1     		bne	.L248
 702:System/shell/shell.c **** 
 2763              		.loc 1 702 1 view .LVU724
 2764 0018 38BD     		pop	{r3, r4, r5, pc}
 2765              	.LVL256:
 2766              	.L251:
 702:System/shell/shell.c **** 
 2767              		.loc 1 702 1 view .LVU725
 2768 001a 00BF     		.align	2
 2769              	.L250:
 2770 001c 00000000 		.word	.LC20
 2771              		.cfi_endproc
 2772              	.LFE25:
 2774              		.section	.text.shellClearCommandLine,"ax",%progbits
 2775              		.align	1
 2776              		.global	shellClearCommandLine
 2777              		.syntax unified
 2778              		.thumb
 2779              		.thumb_func
 2781              	shellClearCommandLine:
 2782              	.LVL257:
 2783              	.LFB26:
 710:System/shell/shell.c ****     for (short i = shell->parser.length - shell->parser.cursor; i > 0; i--)
 2784              		.loc 1 710 1 is_stmt 1 view -0
 2785              		.cfi_startproc
 2786              		@ args = 0, pretend = 0, frame = 0
 2787              		@ frame_needed = 0, uses_anonymous_args = 0
 710:System/shell/shell.c ****     for (short i = shell->parser.length - shell->parser.cursor; i > 0; i--)
 2788              		.loc 1 710 1 is_stmt 0 view .LVU727
 2789 0000 38B5     		push	{r3, r4, r5, lr}
 2790              	.LCFI45:
 2791              		.cfi_def_cfa_offset 16
 2792              		.cfi_offset 3, -16
 2793              		.cfi_offset 4, -12
 2794              		.cfi_offset 5, -8
 2795              		.cfi_offset 14, -4
 2796 0002 0546     		mov	r5, r0
 711:System/shell/shell.c ****     {
 2797              		.loc 1 711 5 is_stmt 1 view .LVU728
 2798              	.LBB14:
 711:System/shell/shell.c ****     {
 2799              		.loc 1 711 10 view .LVU729
 711:System/shell/shell.c ****     {
 2800              		.loc 1 711 33 is_stmt 0 view .LVU730
 2801 0004 8489     		ldrh	r4, [r0, #12]
 711:System/shell/shell.c ****     {
 2802              		.loc 1 711 56 view .LVU731
 2803 0006 C389     		ldrh	r3, [r0, #14]
 711:System/shell/shell.c ****     {
 2804              		.loc 1 711 41 view .LVU732
 2805 0008 E41A     		subs	r4, r4, r3
 711:System/shell/shell.c ****     {
 2806              		.loc 1 711 16 view .LVU733
 2807 000a 24B2     		sxth	r4, r4
 2808              	.LVL258:
 711:System/shell/shell.c ****     {
 2809              		.loc 1 711 5 view .LVU734
ARM GAS  C:\Users\8bit\AppData\Local\Temp\ccdhdvRO.s 			page 91


 2810 000c 05E0     		b	.L253
 2811              	.LVL259:
 2812              	.L254:
 713:System/shell/shell.c ****     }
 2813              		.loc 1 713 9 is_stmt 1 discriminator 3 view .LVU735
 2814 000e 2021     		movs	r1, #32
 2815 0010 2846     		mov	r0, r5
 2816 0012 FFF7FEFF 		bl	shellWriteByte
 2817              	.LVL260:
 711:System/shell/shell.c ****     {
 2818              		.loc 1 711 72 discriminator 3 view .LVU736
 711:System/shell/shell.c ****     {
 2819              		.loc 1 711 73 is_stmt 0 discriminator 3 view .LVU737
 2820 0016 013C     		subs	r4, r4, #1
 2821              	.LVL261:
 711:System/shell/shell.c ****     {
 2822              		.loc 1 711 73 discriminator 3 view .LVU738
 2823 0018 24B2     		sxth	r4, r4
 2824              	.LVL262:
 2825              	.L253:
 711:System/shell/shell.c ****     {
 2826              		.loc 1 711 65 is_stmt 1 discriminator 1 view .LVU739
 711:System/shell/shell.c ****     {
 2827              		.loc 1 711 5 is_stmt 0 discriminator 1 view .LVU740
 2828 001a 002C     		cmp	r4, #0
 2829 001c F7DC     		bgt	.L254
 711:System/shell/shell.c ****     {
 2830              		.loc 1 711 5 discriminator 1 view .LVU741
 2831              	.LBE14:
 715:System/shell/shell.c **** }
 2832              		.loc 1 715 5 is_stmt 1 view .LVU742
 2833 001e 297B     		ldrb	r1, [r5, #12]	@ zero_extendqisi2
 2834 0020 2846     		mov	r0, r5
 2835 0022 FFF7FEFF 		bl	shellDeleteCommandLine
 2836              	.LVL263:
 716:System/shell/shell.c **** 
 2837              		.loc 1 716 1 is_stmt 0 view .LVU743
 2838 0026 38BD     		pop	{r3, r4, r5, pc}
 716:System/shell/shell.c **** 
 2839              		.loc 1 716 1 view .LVU744
 2840              		.cfi_endproc
 2841              	.LFE26:
 2843              		.section	.text.shellHistory,"ax",%progbits
 2844              		.align	1
 2845              		.syntax unified
 2846              		.thumb
 2847              		.thumb_func
 2849              	shellHistory:
 2850              	.LVL264:
 2851              	.LFB41:
1239:System/shell/shell.c ****     if (dir > 0)
 2852              		.loc 1 1239 1 is_stmt 1 view -0
 2853              		.cfi_startproc
 2854              		@ args = 0, pretend = 0, frame = 0
 2855              		@ frame_needed = 0, uses_anonymous_args = 0
1239:System/shell/shell.c ****     if (dir > 0)
 2856              		.loc 1 1239 1 is_stmt 0 view .LVU746
ARM GAS  C:\Users\8bit\AppData\Local\Temp\ccdhdvRO.s 			page 92


 2857 0000 10B5     		push	{r4, lr}
 2858              	.LCFI46:
 2859              		.cfi_def_cfa_offset 8
 2860              		.cfi_offset 4, -8
 2861              		.cfi_offset 14, -4
 2862 0002 0446     		mov	r4, r0
1240:System/shell/shell.c ****     {
 2863              		.loc 1 1240 5 is_stmt 1 view .LVU747
1240:System/shell/shell.c ****     {
 2864              		.loc 1 1240 8 is_stmt 0 view .LVU748
 2865 0004 0029     		cmp	r1, #0
 2866              	.LVL265:
1240:System/shell/shell.c ****     {
 2867              		.loc 1 1240 8 view .LVU749
 2868 0006 19DD     		ble	.L257
1242:System/shell/shell.c ****             -((shell->history.number > shell->history.record) ? shell->history.number : shell->hist
 2869              		.loc 1 1242 9 is_stmt 1 view .LVU750
1242:System/shell/shell.c ****             -((shell->history.number > shell->history.record) ? shell->history.number : shell->hist
 2870              		.loc 1 1242 27 is_stmt 0 view .LVU751
 2871 0008 B0F95420 		ldrsh	r2, [r0, #84]
1242:System/shell/shell.c ****             -((shell->history.number > shell->history.record) ? shell->history.number : shell->hist
 2872              		.loc 1 1242 34 view .LVU752
 2873 000c 531E     		subs	r3, r2, #1
 2874 000e A0F85430 		strh	r3, [r0, #84]	@ movhi
1243:System/shell/shell.c ****         {
 2875              		.loc 1 1243 54 view .LVU753
 2876 0012 B0F85230 		ldrh	r3, [r0, #82]
1243:System/shell/shell.c ****         {
 2877              		.loc 1 1243 30 view .LVU754
 2878 0016 B0F85010 		ldrh	r1, [r0, #80]
1243:System/shell/shell.c ****         {
 2879              		.loc 1 1243 87 view .LVU755
 2880 001a 8B42     		cmp	r3, r1
 2881 001c 38BF     		it	cc
 2882 001e 0B46     		movcc	r3, r1
1243:System/shell/shell.c ****         {
 2883              		.loc 1 1243 13 view .LVU756
 2884 0020 5942     		rsbs	r1, r3, #0
1242:System/shell/shell.c ****             -((shell->history.number > shell->history.record) ? shell->history.number : shell->hist
 2885              		.loc 1 1242 12 view .LVU757
 2886 0022 8A42     		cmp	r2, r1
 2887 0024 01DC     		bgt	.L258
1245:System/shell/shell.c ****                                           ? shell->history.number
 2888              		.loc 1 1245 13 is_stmt 1 view .LVU758
1245:System/shell/shell.c ****                                           ? shell->history.number
 2889              		.loc 1 1245 35 is_stmt 0 view .LVU759
 2890 0026 A4F85410 		strh	r1, [r4, #84]	@ movhi
 2891              	.L258:
1262:System/shell/shell.c ****     if (shell->history.offset == 0)
 2892              		.loc 1 1262 5 is_stmt 1 view .LVU760
 2893 002a 2046     		mov	r0, r4
 2894              	.LVL266:
1262:System/shell/shell.c ****     if (shell->history.offset == 0)
 2895              		.loc 1 1262 5 is_stmt 0 view .LVU761
 2896 002c FFF7FEFF 		bl	shellClearCommandLine
 2897              	.LVL267:
1263:System/shell/shell.c ****     {
ARM GAS  C:\Users\8bit\AppData\Local\Temp\ccdhdvRO.s 			page 93


 2898              		.loc 1 1263 5 is_stmt 1 view .LVU762
1263:System/shell/shell.c ****     {
 2899              		.loc 1 1263 23 is_stmt 0 view .LVU763
 2900 0030 B4F95430 		ldrsh	r3, [r4, #84]
1263:System/shell/shell.c ****     {
 2901              		.loc 1 1263 8 view .LVU764
 2902 0034 83B9     		cbnz	r3, .L260
1265:System/shell/shell.c ****     }
 2903              		.loc 1 1265 9 is_stmt 1 view .LVU765
1265:System/shell/shell.c ****     }
 2904              		.loc 1 1265 53 is_stmt 0 view .LVU766
 2905 0036 A381     		strh	r3, [r4, #12]	@ movhi
1265:System/shell/shell.c ****     }
 2906              		.loc 1 1265 30 view .LVU767
 2907 0038 E381     		strh	r3, [r4, #14]	@ movhi
 2908              	.L256:
1277:System/shell/shell.c **** 
 2909              		.loc 1 1277 1 view .LVU768
 2910 003a 10BD     		pop	{r4, pc}
 2911              	.LVL268:
 2912              	.L257:
1250:System/shell/shell.c ****     {
 2913              		.loc 1 1250 10 is_stmt 1 view .LVU769
1250:System/shell/shell.c ****     {
 2914              		.loc 1 1250 13 is_stmt 0 view .LVU770
 2915 003c 0029     		cmp	r1, #0
 2916 003e FCDA     		bge	.L256
1252:System/shell/shell.c ****         {
 2917              		.loc 1 1252 9 is_stmt 1 view .LVU771
1252:System/shell/shell.c ****         {
 2918              		.loc 1 1252 29 is_stmt 0 view .LVU772
 2919 0040 B0F95430 		ldrsh	r3, [r0, #84]
1252:System/shell/shell.c ****         {
 2920              		.loc 1 1252 13 view .LVU773
 2921 0044 0133     		adds	r3, r3, #1
 2922 0046 1BB2     		sxth	r3, r3
1252:System/shell/shell.c ****         {
 2923              		.loc 1 1252 12 view .LVU774
 2924 0048 A0F85430 		strh	r3, [r0, #84]	@ movhi
 2925 004c 002B     		cmp	r3, #0
 2926 004e ECDD     		ble	.L258
1254:System/shell/shell.c ****             return;
 2927              		.loc 1 1254 13 is_stmt 1 view .LVU775
1254:System/shell/shell.c ****             return;
 2928              		.loc 1 1254 35 is_stmt 0 view .LVU776
 2929 0050 0023     		movs	r3, #0
 2930 0052 A0F85430 		strh	r3, [r0, #84]	@ movhi
1255:System/shell/shell.c ****         }
 2931              		.loc 1 1255 13 is_stmt 1 view .LVU777
 2932 0056 F0E7     		b	.L256
 2933              	.LVL269:
 2934              	.L260:
1269:System/shell/shell.c ****                                                     shell->history.item[(shell->history.record + SH
 2935              		.loc 1 1269 9 view .LVU778
1270:System/shell/shell.c ****         {
 2936              		.loc 1 1270 88 is_stmt 0 view .LVU779
 2937 0058 B4F85220 		ldrh	r2, [r4, #82]
ARM GAS  C:\Users\8bit\AppData\Local\Temp\ccdhdvRO.s 			page 94


1270:System/shell/shell.c ****         {
 2938              		.loc 1 1270 96 view .LVU780
 2939 005c 0532     		adds	r2, r2, #5
1270:System/shell/shell.c ****         {
 2940              		.loc 1 1270 123 view .LVU781
 2941 005e 1A44     		add	r2, r2, r3
1270:System/shell/shell.c ****         {
 2942              		.loc 1 1270 148 view .LVU782
 2943 0060 0C49     		ldr	r1, .L262
 2944 0062 81FB0231 		smull	r3, r1, r1, r2
 2945 0066 D317     		asrs	r3, r2, #31
 2946 0068 C3EB6103 		rsb	r3, r3, r1, asr #1
 2947 006c 03EB8303 		add	r3, r3, r3, lsl #2
 2948 0070 D31A     		subs	r3, r2, r3
1269:System/shell/shell.c ****                                                     shell->history.item[(shell->history.record + SH
 2949              		.loc 1 1269 37 view .LVU783
 2950 0072 0E33     		adds	r3, r3, #14
 2951 0074 04EB8303 		add	r3, r4, r3, lsl #2
 2952 0078 5968     		ldr	r1, [r3, #4]
 2953 007a 2069     		ldr	r0, [r4, #16]
 2954 007c FFF7FEFF 		bl	shellStringCopy
 2955              	.LVL270:
1269:System/shell/shell.c ****                                                     shell->history.item[(shell->history.record + SH
 2956              		.loc 1 1269 35 view .LVU784
 2957 0080 A081     		strh	r0, [r4, #12]	@ movhi
1269:System/shell/shell.c ****                                                     shell->history.item[(shell->history.record + SH
 2958              		.loc 1 1269 12 view .LVU785
 2959 0082 0028     		cmp	r0, #0
 2960 0084 D9D0     		beq	.L256
1274:System/shell/shell.c ****         shellWriteString(shell, shell->parser.buffer);
 2961              		.loc 1 1274 9 is_stmt 1 view .LVU786
1274:System/shell/shell.c ****         shellWriteString(shell, shell->parser.buffer);
 2962              		.loc 1 1274 30 is_stmt 0 view .LVU787
 2963 0086 E081     		strh	r0, [r4, #14]	@ movhi
1275:System/shell/shell.c ****     }
 2964              		.loc 1 1275 9 is_stmt 1 view .LVU788
 2965 0088 2169     		ldr	r1, [r4, #16]
 2966 008a 2046     		mov	r0, r4
 2967 008c FFF7FEFF 		bl	shellWriteString
 2968              	.LVL271:
 2969 0090 D3E7     		b	.L256
 2970              	.L263:
 2971 0092 00BF     		.align	2
 2972              	.L262:
 2973 0094 67666666 		.word	1717986919
 2974              		.cfi_endproc
 2975              	.LFE41:
 2977              		.section	.text.shellUp,"ax",%progbits
 2978              		.align	1
 2979              		.global	shellUp
 2980              		.syntax unified
 2981              		.thumb
 2982              		.thumb_func
 2984              	shellUp:
 2985              	.LVL272:
 2986              	.LFB44:
1342:System/shell/shell.c ****     shellHistory(shell, 1);
ARM GAS  C:\Users\8bit\AppData\Local\Temp\ccdhdvRO.s 			page 95


 2987              		.loc 1 1342 1 view -0
 2988              		.cfi_startproc
 2989              		@ args = 0, pretend = 0, frame = 0
 2990              		@ frame_needed = 0, uses_anonymous_args = 0
1342:System/shell/shell.c ****     shellHistory(shell, 1);
 2991              		.loc 1 1342 1 is_stmt 0 view .LVU790
 2992 0000 08B5     		push	{r3, lr}
 2993              	.LCFI47:
 2994              		.cfi_def_cfa_offset 8
 2995              		.cfi_offset 3, -8
 2996              		.cfi_offset 14, -4
1343:System/shell/shell.c **** }
 2997              		.loc 1 1343 5 is_stmt 1 view .LVU791
 2998 0002 0121     		movs	r1, #1
 2999 0004 FFF7FEFF 		bl	shellHistory
 3000              	.LVL273:
1344:System/shell/shell.c **** SHELL_EXPORT_KEY(SHELL_CMD_PERMISSION(0), 0x1B5B4100, shellUp, up);
 3001              		.loc 1 1344 1 is_stmt 0 view .LVU792
 3002 0008 08BD     		pop	{r3, pc}
 3003              		.cfi_endproc
 3004              	.LFE44:
 3006              		.section	.text.shellDown,"ax",%progbits
 3007              		.align	1
 3008              		.global	shellDown
 3009              		.syntax unified
 3010              		.thumb
 3011              		.thumb_func
 3013              	shellDown:
 3014              	.LVL274:
 3015              	.LFB45:
1353:System/shell/shell.c ****     shellHistory(shell, -1);
 3016              		.loc 1 1353 1 is_stmt 1 view -0
 3017              		.cfi_startproc
 3018              		@ args = 0, pretend = 0, frame = 0
 3019              		@ frame_needed = 0, uses_anonymous_args = 0
1353:System/shell/shell.c ****     shellHistory(shell, -1);
 3020              		.loc 1 1353 1 is_stmt 0 view .LVU794
 3021 0000 08B5     		push	{r3, lr}
 3022              	.LCFI48:
 3023              		.cfi_def_cfa_offset 8
 3024              		.cfi_offset 3, -8
 3025              		.cfi_offset 14, -4
1354:System/shell/shell.c **** }
 3026              		.loc 1 1354 5 is_stmt 1 view .LVU795
 3027 0002 4FF0FF31 		mov	r1, #-1
 3028 0006 FFF7FEFF 		bl	shellHistory
 3029              	.LVL275:
1355:System/shell/shell.c **** SHELL_EXPORT_KEY(SHELL_CMD_PERMISSION(0), 0x1B5B4200, shellDown, down);
 3030              		.loc 1 1355 1 is_stmt 0 view .LVU796
 3031 000a 08BD     		pop	{r3, pc}
 3032              		.cfi_endproc
 3033              	.LFE45:
 3035              		.section	.text.shellTab,"ax",%progbits
 3036              		.align	1
 3037              		.global	shellTab
 3038              		.syntax unified
 3039              		.thumb
ARM GAS  C:\Users\8bit\AppData\Local\Temp\ccdhdvRO.s 			page 96


 3040              		.thumb_func
 3042              	shellTab:
 3043              	.LVL276:
 3044              	.LFB48:
1395:System/shell/shell.c ****     unsigned short maxMatch = shell->parser.bufferSize;
 3045              		.loc 1 1395 1 is_stmt 1 view -0
 3046              		.cfi_startproc
 3047              		@ args = 0, pretend = 0, frame = 0
 3048              		@ frame_needed = 0, uses_anonymous_args = 0
1395:System/shell/shell.c ****     unsigned short maxMatch = shell->parser.bufferSize;
 3049              		.loc 1 1395 1 is_stmt 0 view .LVU798
 3050 0000 2DE9F84F 		push	{r3, r4, r5, r6, r7, r8, r9, r10, fp, lr}
 3051              	.LCFI49:
 3052              		.cfi_def_cfa_offset 40
 3053              		.cfi_offset 3, -40
 3054              		.cfi_offset 4, -36
 3055              		.cfi_offset 5, -32
 3056              		.cfi_offset 6, -28
 3057              		.cfi_offset 7, -24
 3058              		.cfi_offset 8, -20
 3059              		.cfi_offset 9, -16
 3060              		.cfi_offset 10, -12
 3061              		.cfi_offset 11, -8
 3062              		.cfi_offset 14, -4
 3063 0004 0546     		mov	r5, r0
1396:System/shell/shell.c ****     unsigned short lastMatchIndex = 0;
 3064              		.loc 1 1396 5 is_stmt 1 view .LVU799
1396:System/shell/shell.c ****     unsigned short lastMatchIndex = 0;
 3065              		.loc 1 1396 20 is_stmt 0 view .LVU800
 3066 0006 B0F834A0 		ldrh	r10, [r0, #52]
 3067              	.LVL277:
1397:System/shell/shell.c ****     unsigned short matchNum = 0;
 3068              		.loc 1 1397 5 is_stmt 1 view .LVU801
1398:System/shell/shell.c ****     unsigned short length;
 3069              		.loc 1 1398 5 view .LVU802
1399:System/shell/shell.c **** 
 3070              		.loc 1 1399 5 view .LVU803
1401:System/shell/shell.c ****     {
 3071              		.loc 1 1401 5 view .LVU804
1401:System/shell/shell.c ****     {
 3072              		.loc 1 1401 22 is_stmt 0 view .LVU805
 3073 000a 8389     		ldrh	r3, [r0, #12]
1401:System/shell/shell.c ****     {
 3074              		.loc 1 1401 8 view .LVU806
 3075 000c 43B1     		cbz	r3, .L279
1406:System/shell/shell.c ****     {
 3076              		.loc 1 1406 10 is_stmt 1 view .LVU807
 3077              	.LBB15:
1408:System/shell/shell.c ****         ShellCommand *base = (ShellCommand *)shell->commandList.base;
 3078              		.loc 1 1408 9 view .LVU808
1408:System/shell/shell.c ****         ShellCommand *base = (ShellCommand *)shell->commandList.base;
 3079              		.loc 1 1408 22 is_stmt 0 view .LVU809
 3080 000e 0269     		ldr	r2, [r0, #16]
1408:System/shell/shell.c ****         ShellCommand *base = (ShellCommand *)shell->commandList.base;
 3081              		.loc 1 1408 52 view .LVU810
 3082 0010 4FF00008 		mov	r8, #0
 3083 0014 02F80380 		strb	r8, [r2, r3]
ARM GAS  C:\Users\8bit\AppData\Local\Temp\ccdhdvRO.s 			page 97


1409:System/shell/shell.c ****         for (short i = 0; i < shell->commandList.count; i++)
 3084              		.loc 1 1409 9 is_stmt 1 view .LVU811
1409:System/shell/shell.c ****         for (short i = 0; i < shell->commandList.count; i++)
 3085              		.loc 1 1409 23 is_stmt 0 view .LVU812
 3086 0018 876D     		ldr	r7, [r0, #88]
 3087              	.LVL278:
1410:System/shell/shell.c ****         {
 3088              		.loc 1 1410 9 is_stmt 1 view .LVU813
 3089              	.LBB16:
1410:System/shell/shell.c ****         {
 3090              		.loc 1 1410 14 view .LVU814
1410:System/shell/shell.c ****         {
 3091              		.loc 1 1410 20 is_stmt 0 view .LVU815
 3092 001a 4446     		mov	r4, r8
 3093              	.LBE16:
 3094              	.LBE15:
1398:System/shell/shell.c ****     unsigned short length;
 3095              		.loc 1 1398 20 view .LVU816
 3096 001c C146     		mov	r9, r8
 3097              	.LBB19:
 3098              	.LBB17:
1410:System/shell/shell.c ****         {
 3099              		.loc 1 1410 9 view .LVU817
 3100 001e 24E0     		b	.L271
 3101              	.LVL279:
 3102              	.L279:
1410:System/shell/shell.c ****         {
 3103              		.loc 1 1410 9 view .LVU818
 3104              	.LBE17:
 3105              	.LBE19:
1403:System/shell/shell.c ****         shellWriteCommandLine(shell, 1);
 3106              		.loc 1 1403 9 is_stmt 1 view .LVU819
 3107 0020 FFF7FEFF 		bl	shellListAll
 3108              	.LVL280:
1404:System/shell/shell.c ****     }
 3109              		.loc 1 1404 9 view .LVU820
 3110 0024 0121     		movs	r1, #1
 3111 0026 2846     		mov	r0, r5
 3112 0028 FFF7FEFF 		bl	shellWriteCommandLine
 3113              	.LVL281:
 3114 002c 5EE0     		b	.L268
 3115              	.LVL282:
 3116              	.L274:
 3117              	.LBB20:
 3118              	.LBB18:
1421:System/shell/shell.c ****                     length =
 3119              		.loc 1 1421 21 view .LVU821
 3120 002e 07EB0818 		add	r8, r7, r8, lsl #4
 3121              	.LVL283:
1421:System/shell/shell.c ****                     length =
 3122              		.loc 1 1421 21 is_stmt 0 view .LVU822
 3123 0032 4146     		mov	r1, r8
 3124 0034 2846     		mov	r0, r5
 3125 0036 FFF7FEFF 		bl	shellListItem
 3126              	.LVL284:
1422:System/shell/shell.c ****                         shellStringCompare((char *)shellGetCommandName(&base[lastMatchIndex]),
 3127              		.loc 1 1422 21 is_stmt 1 view .LVU823
ARM GAS  C:\Users\8bit\AppData\Local\Temp\ccdhdvRO.s 			page 98


1423:System/shell/shell.c ****                                            (char *)shellGetCommandName(&base[i]));
 3128              		.loc 1 1423 52 is_stmt 0 view .LVU824
 3129 003a 4046     		mov	r0, r8
 3130 003c FFF7FEFF 		bl	shellGetCommandName
 3131              	.LVL285:
 3132 0040 8046     		mov	r8, r0
1424:System/shell/shell.c ****                     maxMatch = (maxMatch > length) ? length : maxMatch;
 3133              		.loc 1 1424 52 view .LVU825
 3134 0042 3046     		mov	r0, r6
 3135 0044 FFF7FEFF 		bl	shellGetCommandName
 3136              	.LVL286:
 3137 0048 0146     		mov	r1, r0
1423:System/shell/shell.c ****                                            (char *)shellGetCommandName(&base[i]));
 3138              		.loc 1 1423 25 view .LVU826
 3139 004a 4046     		mov	r0, r8
 3140 004c FFF7FEFF 		bl	shellStringCompare
 3141              	.LVL287:
1425:System/shell/shell.c ****                 }
 3142              		.loc 1 1425 21 is_stmt 1 view .LVU827
1425:System/shell/shell.c ****                 }
 3143              		.loc 1 1425 30 is_stmt 0 view .LVU828
 3144 0050 8245     		cmp	r10, r0
 3145 0052 28BF     		it	cs
 3146 0054 8246     		movcs	r10, r0
 3147              	.LVL288:
1425:System/shell/shell.c ****                 }
 3148              		.loc 1 1425 30 view .LVU829
 3149 0056 1FFA8AFA 		uxth	r10, r10
 3150              	.LVL289:
 3151              	.L273:
1427:System/shell/shell.c ****                 matchNum++;
 3152              		.loc 1 1427 17 is_stmt 1 view .LVU830
1427:System/shell/shell.c ****                 matchNum++;
 3153              		.loc 1 1427 32 is_stmt 0 view .LVU831
 3154 005a 1FFA84F8 		uxth	r8, r4
 3155              	.LVL290:
1428:System/shell/shell.c ****             }
 3156              		.loc 1 1428 17 is_stmt 1 view .LVU832
1428:System/shell/shell.c ****             }
 3157              		.loc 1 1428 25 is_stmt 0 view .LVU833
 3158 005e 09F10109 		add	r9, r9, #1
 3159              	.LVL291:
1428:System/shell/shell.c ****             }
 3160              		.loc 1 1428 25 view .LVU834
 3161 0062 1FFA89F9 		uxth	r9, r9
 3162              	.LVL292:
 3163              	.L272:
1410:System/shell/shell.c ****         {
 3164              		.loc 1 1410 57 is_stmt 1 discriminator 2 view .LVU835
1410:System/shell/shell.c ****         {
 3165              		.loc 1 1410 58 is_stmt 0 discriminator 2 view .LVU836
 3166 0066 0134     		adds	r4, r4, #1
 3167              	.LVL293:
1410:System/shell/shell.c ****         {
 3168              		.loc 1 1410 58 discriminator 2 view .LVU837
 3169 0068 24B2     		sxth	r4, r4
 3170              	.LVL294:
ARM GAS  C:\Users\8bit\AppData\Local\Temp\ccdhdvRO.s 			page 99


 3171              	.L271:
1410:System/shell/shell.c ****         {
 3172              		.loc 1 1410 27 is_stmt 1 discriminator 1 view .LVU838
1410:System/shell/shell.c ****         {
 3173              		.loc 1 1410 49 is_stmt 0 discriminator 1 view .LVU839
 3174 006a B5F85C30 		ldrh	r3, [r5, #92]
1410:System/shell/shell.c ****         {
 3175              		.loc 1 1410 9 discriminator 1 view .LVU840
 3176 006e 9C42     		cmp	r4, r3
 3177 0070 1EDA     		bge	.L280
1412:System/shell/shell.c ****                                                                                  (char *)shellGetCo
 3178              		.loc 1 1412 13 is_stmt 1 view .LVU841
1412:System/shell/shell.c ****                                                                                  (char *)shellGetCo
 3179              		.loc 1 1412 17 is_stmt 0 view .LVU842
 3180 0072 07EB0416 		add	r6, r7, r4, lsl #4
 3181 0076 3146     		mov	r1, r6
 3182 0078 2846     		mov	r0, r5
 3183 007a FFF7FEFF 		bl	shellCheckPermission
 3184              	.LVL295:
1412:System/shell/shell.c ****                                                                                  (char *)shellGetCo
 3185              		.loc 1 1412 16 view .LVU843
 3186 007e 0028     		cmp	r0, #0
 3187 0080 F1D1     		bne	.L272
1412:System/shell/shell.c ****                                                                                  (char *)shellGetCo
 3188              		.loc 1 1412 63 discriminator 1 view .LVU844
 3189 0082 D5F810B0 		ldr	fp, [r5, #16]
1413:System/shell/shell.c ****             {
 3190              		.loc 1 1413 90 discriminator 1 view .LVU845
 3191 0086 3046     		mov	r0, r6
 3192 0088 FFF7FEFF 		bl	shellGetCommandName
 3193              	.LVL296:
 3194 008c 0146     		mov	r1, r0
1412:System/shell/shell.c ****                                                                                  (char *)shellGetCo
 3195              		.loc 1 1412 63 discriminator 1 view .LVU846
 3196 008e 5846     		mov	r0, fp
 3197 0090 FFF7FEFF 		bl	shellStringCompare
 3198              	.LVL297:
1413:System/shell/shell.c ****             {
 3199              		.loc 1 1413 137 discriminator 1 view .LVU847
 3200 0094 AB89     		ldrh	r3, [r5, #12]
1412:System/shell/shell.c ****                                                                                  (char *)shellGetCo
 3201              		.loc 1 1412 60 discriminator 1 view .LVU848
 3202 0096 9842     		cmp	r0, r3
 3203 0098 E5D1     		bne	.L272
1415:System/shell/shell.c ****                 {
 3204              		.loc 1 1415 17 is_stmt 1 view .LVU849
1415:System/shell/shell.c ****                 {
 3205              		.loc 1 1415 20 is_stmt 0 view .LVU850
 3206 009a B9F1000F 		cmp	r9, #0
 3207 009e DCD0     		beq	.L273
1417:System/shell/shell.c ****                     {
 3208              		.loc 1 1417 21 is_stmt 1 view .LVU851
1417:System/shell/shell.c ****                     {
 3209              		.loc 1 1417 24 is_stmt 0 view .LVU852
 3210 00a0 B9F1010F 		cmp	r9, #1
 3211 00a4 C3D1     		bne	.L274
1419:System/shell/shell.c ****                     }
ARM GAS  C:\Users\8bit\AppData\Local\Temp\ccdhdvRO.s 			page 100


 3212              		.loc 1 1419 25 is_stmt 1 view .LVU853
 3213 00a6 1A49     		ldr	r1, .L283
 3214 00a8 2846     		mov	r0, r5
 3215 00aa FFF7FEFF 		bl	shellWriteString
 3216              	.LVL298:
 3217 00ae BEE7     		b	.L274
 3218              	.L280:
1419:System/shell/shell.c ****                     }
 3219              		.loc 1 1419 25 is_stmt 0 view .LVU854
 3220              	.LBE18:
1431:System/shell/shell.c ****         {
 3221              		.loc 1 1431 9 is_stmt 1 view .LVU855
1431:System/shell/shell.c ****         {
 3222              		.loc 1 1431 12 is_stmt 0 view .LVU856
 3223 00b0 B9F1000F 		cmp	r9, #0
 3224 00b4 1AD0     		beq	.L268
1435:System/shell/shell.c ****         {
 3225              		.loc 1 1435 9 is_stmt 1 view .LVU857
1435:System/shell/shell.c ****         {
 3226              		.loc 1 1435 12 is_stmt 0 view .LVU858
 3227 00b6 B9F1010F 		cmp	r9, #1
 3228 00ba 19D0     		beq	.L281
 3229              	.L276:
1439:System/shell/shell.c ****         {
 3230              		.loc 1 1439 9 is_stmt 1 view .LVU859
1441:System/shell/shell.c ****                 shellStringCopy(shell->parser.buffer,
 3231              		.loc 1 1441 13 view .LVU860
1442:System/shell/shell.c ****                                 (char *)shellGetCommandName(&base[lastMatchIndex]));
 3232              		.loc 1 1442 17 is_stmt 0 view .LVU861
 3233 00bc 2C69     		ldr	r4, [r5, #16]
 3234              	.LVL299:
1443:System/shell/shell.c ****         }
 3235              		.loc 1 1443 41 view .LVU862
 3236 00be 07EB0817 		add	r7, r7, r8, lsl #4
 3237              	.LVL300:
1443:System/shell/shell.c ****         }
 3238              		.loc 1 1443 41 view .LVU863
 3239 00c2 3846     		mov	r0, r7
 3240 00c4 FFF7FEFF 		bl	shellGetCommandName
 3241              	.LVL301:
 3242 00c8 0146     		mov	r1, r0
1442:System/shell/shell.c ****                                 (char *)shellGetCommandName(&base[lastMatchIndex]));
 3243              		.loc 1 1442 17 view .LVU864
 3244 00ca 2046     		mov	r0, r4
 3245 00cc FFF7FEFF 		bl	shellStringCopy
 3246              	.LVL302:
1441:System/shell/shell.c ****                 shellStringCopy(shell->parser.buffer,
 3247              		.loc 1 1441 34 view .LVU865
 3248 00d0 A881     		strh	r0, [r5, #12]	@ movhi
1445:System/shell/shell.c ****         {
 3249              		.loc 1 1445 9 is_stmt 1 view .LVU866
1445:System/shell/shell.c ****         {
 3250              		.loc 1 1445 12 is_stmt 0 view .LVU867
 3251 00d2 B9F1010F 		cmp	r9, #1
 3252 00d6 0FD8     		bhi	.L282
 3253              	.L277:
1451:System/shell/shell.c ****         shell->parser.cursor = shell->parser.length;
ARM GAS  C:\Users\8bit\AppData\Local\Temp\ccdhdvRO.s 			page 101


 3254              		.loc 1 1451 9 is_stmt 1 view .LVU868
1451:System/shell/shell.c ****         shell->parser.cursor = shell->parser.length;
 3255              		.loc 1 1451 22 is_stmt 0 view .LVU869
 3256 00d8 2A69     		ldr	r2, [r5, #16]
1451:System/shell/shell.c ****         shell->parser.cursor = shell->parser.length;
 3257              		.loc 1 1451 43 view .LVU870
 3258 00da AB89     		ldrh	r3, [r5, #12]
1451:System/shell/shell.c ****         shell->parser.cursor = shell->parser.length;
 3259              		.loc 1 1451 52 view .LVU871
 3260 00dc 0021     		movs	r1, #0
 3261 00de D154     		strb	r1, [r2, r3]
1452:System/shell/shell.c ****         shellWriteString(shell, shell->parser.buffer);
 3262              		.loc 1 1452 9 is_stmt 1 view .LVU872
1452:System/shell/shell.c ****         shellWriteString(shell, shell->parser.buffer);
 3263              		.loc 1 1452 45 is_stmt 0 view .LVU873
 3264 00e0 AB89     		ldrh	r3, [r5, #12]
1452:System/shell/shell.c ****         shellWriteString(shell, shell->parser.buffer);
 3265              		.loc 1 1452 30 view .LVU874
 3266 00e2 EB81     		strh	r3, [r5, #14]	@ movhi
1453:System/shell/shell.c ****     }
 3267              		.loc 1 1453 9 is_stmt 1 view .LVU875
 3268 00e4 2969     		ldr	r1, [r5, #16]
 3269 00e6 2846     		mov	r0, r5
 3270 00e8 FFF7FEFF 		bl	shellWriteString
 3271              	.LVL303:
 3272              	.L268:
1453:System/shell/shell.c ****     }
 3273              		.loc 1 1453 9 is_stmt 0 view .LVU876
 3274              	.LBE20:
1476:System/shell/shell.c **** SHELL_EXPORT_KEY(SHELL_CMD_PERMISSION(0), 0x09000000, shellTab, tab);
 3275              		.loc 1 1476 1 view .LVU877
 3276 00ec BDE8F88F 		pop	{r3, r4, r5, r6, r7, r8, r9, r10, fp, pc}
 3277              	.LVL304:
 3278              	.L281:
 3279              	.LBB21:
1437:System/shell/shell.c ****         }
 3280              		.loc 1 1437 13 is_stmt 1 view .LVU878
 3281 00f0 2846     		mov	r0, r5
 3282 00f2 FFF7FEFF 		bl	shellClearCommandLine
 3283              	.LVL305:
 3284 00f6 E1E7     		b	.L276
 3285              	.LVL306:
 3286              	.L282:
1447:System/shell/shell.c ****             shellWriteCommandLine(shell, 1);
 3287              		.loc 1 1447 13 view .LVU879
 3288 00f8 3946     		mov	r1, r7
 3289 00fa 2846     		mov	r0, r5
 3290 00fc FFF7FEFF 		bl	shellListItem
 3291              	.LVL307:
1448:System/shell/shell.c ****             shell->parser.length = maxMatch;
 3292              		.loc 1 1448 13 view .LVU880
 3293 0100 0121     		movs	r1, #1
 3294 0102 2846     		mov	r0, r5
 3295 0104 FFF7FEFF 		bl	shellWriteCommandLine
 3296              	.LVL308:
1449:System/shell/shell.c ****         }
 3297              		.loc 1 1449 13 view .LVU881
ARM GAS  C:\Users\8bit\AppData\Local\Temp\ccdhdvRO.s 			page 102


1449:System/shell/shell.c ****         }
 3298              		.loc 1 1449 34 is_stmt 0 view .LVU882
 3299 0108 A5F80CA0 		strh	r10, [r5, #12]	@ movhi
 3300 010c E4E7     		b	.L277
 3301              	.L284:
 3302 010e 00BF     		.align	2
 3303              	.L283:
 3304 0110 04000000 		.word	.LC3
 3305              	.LBE21:
 3306              		.cfi_endproc
 3307              	.LFE48:
 3309              		.section	.rodata.shellInsertByte.str1.4,"aMS",%progbits,1
 3310              		.align	2
 3311              	.LC21:
 3312 0000 0D0A5761 		.ascii	"\015\012Warning: Command is too long\015\012\000"
 3312      726E696E 
 3312      673A2043 
 3312      6F6D6D61 
 3312      6E642069 
 3313              		.section	.text.shellInsertByte,"ax",%progbits
 3314              		.align	1
 3315              		.global	shellInsertByte
 3316              		.syntax unified
 3317              		.thumb
 3318              		.thumb_func
 3320              	shellInsertByte:
 3321              	.LVL309:
 3322              	.LFB27:
 725:System/shell/shell.c ****     /* 判断输入数据是否过长 */
 3323              		.loc 1 725 1 is_stmt 1 view -0
 3324              		.cfi_startproc
 3325              		@ args = 0, pretend = 0, frame = 0
 3326              		@ frame_needed = 0, uses_anonymous_args = 0
 725:System/shell/shell.c ****     /* 判断输入数据是否过长 */
 3327              		.loc 1 725 1 is_stmt 0 view .LVU884
 3328 0000 70B5     		push	{r4, r5, r6, lr}
 3329              	.LCFI50:
 3330              		.cfi_def_cfa_offset 16
 3331              		.cfi_offset 4, -16
 3332              		.cfi_offset 5, -12
 3333              		.cfi_offset 6, -8
 3334              		.cfi_offset 14, -4
 3335 0002 0446     		mov	r4, r0
 727:System/shell/shell.c ****     {
 3336              		.loc 1 727 5 is_stmt 1 view .LVU885
 727:System/shell/shell.c ****     {
 3337              		.loc 1 727 22 is_stmt 0 view .LVU886
 3338 0004 8389     		ldrh	r3, [r0, #12]
 727:System/shell/shell.c ****     {
 3339              		.loc 1 727 46 view .LVU887
 3340 0006 828E     		ldrh	r2, [r0, #52]
 727:System/shell/shell.c ****     {
 3341              		.loc 1 727 58 view .LVU888
 3342 0008 013A     		subs	r2, r2, #1
 727:System/shell/shell.c ****     {
 3343              		.loc 1 727 8 view .LVU889
 3344 000a 9342     		cmp	r3, r2
ARM GAS  C:\Users\8bit\AppData\Local\Temp\ccdhdvRO.s 			page 103


 3345 000c 07DA     		bge	.L296
 736:System/shell/shell.c ****     {
 3346              		.loc 1 736 5 is_stmt 1 view .LVU890
 736:System/shell/shell.c ****     {
 3347              		.loc 1 736 22 is_stmt 0 view .LVU891
 3348 000e C289     		ldrh	r2, [r0, #14]
 736:System/shell/shell.c ****     {
 3349              		.loc 1 736 8 view .LVU892
 3350 0010 9342     		cmp	r3, r2
 3351 0012 10D0     		beq	.L297
 743:System/shell/shell.c ****     {
 3352              		.loc 1 743 10 is_stmt 1 view .LVU893
 743:System/shell/shell.c ****     {
 3353              		.loc 1 743 13 is_stmt 0 view .LVU894
 3354 0014 9342     		cmp	r3, r2
 3355 0016 4ED9     		bls	.L285
 745:System/shell/shell.c ****         {
 3356              		.loc 1 745 9 is_stmt 1 view .LVU895
 3357              	.LBB22:
 745:System/shell/shell.c ****         {
 3358              		.loc 1 745 14 view .LVU896
 745:System/shell/shell.c ****         {
 3359              		.loc 1 745 45 is_stmt 0 view .LVU897
 3360 0018 9B1A     		subs	r3, r3, r2
 745:System/shell/shell.c ****         {
 3361              		.loc 1 745 20 view .LVU898
 3362 001a 1BB2     		sxth	r3, r3
 3363              	.LVL310:
 745:System/shell/shell.c ****         {
 3364              		.loc 1 745 9 view .LVU899
 3365 001c 23E0     		b	.L289
 3366              	.LVL311:
 3367              	.L296:
 745:System/shell/shell.c ****         {
 3368              		.loc 1 745 9 view .LVU900
 3369              	.LBE22:
 729:System/shell/shell.c ****         shellWriteCommandLine(shell, 1);
 3370              		.loc 1 729 9 is_stmt 1 view .LVU901
 3371 001e 2649     		ldr	r1, .L298
 3372              	.LVL312:
 729:System/shell/shell.c ****         shellWriteCommandLine(shell, 1);
 3373              		.loc 1 729 9 is_stmt 0 view .LVU902
 3374 0020 FFF7FEFF 		bl	shellWriteString
 3375              	.LVL313:
 730:System/shell/shell.c ****         shellWriteString(shell, shell->parser.buffer);
 3376              		.loc 1 730 9 is_stmt 1 view .LVU903
 3377 0024 0121     		movs	r1, #1
 3378 0026 2046     		mov	r0, r4
 3379 0028 FFF7FEFF 		bl	shellWriteCommandLine
 3380              	.LVL314:
 731:System/shell/shell.c ****         return;
 3381              		.loc 1 731 9 view .LVU904
 3382 002c 2169     		ldr	r1, [r4, #16]
 3383 002e 2046     		mov	r0, r4
 3384 0030 FFF7FEFF 		bl	shellWriteString
 3385              	.LVL315:
 732:System/shell/shell.c ****     }
ARM GAS  C:\Users\8bit\AppData\Local\Temp\ccdhdvRO.s 			page 104


 3386              		.loc 1 732 9 view .LVU905
 3387 0034 3FE0     		b	.L285
 3388              	.LVL316:
 3389              	.L297:
 738:System/shell/shell.c ****         shell->parser.buffer[shell->parser.length] = 0;
 3390              		.loc 1 738 9 view .LVU906
 738:System/shell/shell.c ****         shell->parser.buffer[shell->parser.length] = 0;
 3391              		.loc 1 738 22 is_stmt 0 view .LVU907
 3392 0036 0269     		ldr	r2, [r0, #16]
 738:System/shell/shell.c ****         shell->parser.buffer[shell->parser.length] = 0;
 3393              		.loc 1 738 50 view .LVU908
 3394 0038 581C     		adds	r0, r3, #1
 3395              	.LVL317:
 738:System/shell/shell.c ****         shell->parser.buffer[shell->parser.length] = 0;
 3396              		.loc 1 738 50 view .LVU909
 3397 003a A081     		strh	r0, [r4, #12]	@ movhi
 738:System/shell/shell.c ****         shell->parser.buffer[shell->parser.length] = 0;
 3398              		.loc 1 738 54 view .LVU910
 3399 003c D154     		strb	r1, [r2, r3]
 739:System/shell/shell.c ****         shell->parser.cursor++;
 3400              		.loc 1 739 9 is_stmt 1 view .LVU911
 739:System/shell/shell.c ****         shell->parser.cursor++;
 3401              		.loc 1 739 22 is_stmt 0 view .LVU912
 3402 003e 2269     		ldr	r2, [r4, #16]
 739:System/shell/shell.c ****         shell->parser.cursor++;
 3403              		.loc 1 739 43 view .LVU913
 3404 0040 A389     		ldrh	r3, [r4, #12]
 739:System/shell/shell.c ****         shell->parser.cursor++;
 3405              		.loc 1 739 52 view .LVU914
 3406 0042 0020     		movs	r0, #0
 3407 0044 D054     		strb	r0, [r2, r3]
 740:System/shell/shell.c ****         shellWriteByte(shell, data);
 3408              		.loc 1 740 9 is_stmt 1 view .LVU915
 740:System/shell/shell.c ****         shellWriteByte(shell, data);
 3409              		.loc 1 740 22 is_stmt 0 view .LVU916
 3410 0046 E389     		ldrh	r3, [r4, #14]
 740:System/shell/shell.c ****         shellWriteByte(shell, data);
 3411              		.loc 1 740 29 view .LVU917
 3412 0048 0133     		adds	r3, r3, #1
 3413 004a E381     		strh	r3, [r4, #14]	@ movhi
 741:System/shell/shell.c ****     }
 3414              		.loc 1 741 9 is_stmt 1 view .LVU918
 3415 004c 2046     		mov	r0, r4
 3416 004e FFF7FEFF 		bl	shellWriteByte
 3417              	.LVL318:
 741:System/shell/shell.c ****     }
 3418              		.loc 1 741 9 is_stmt 0 view .LVU919
 3419 0052 30E0     		b	.L285
 3420              	.LVL319:
 3421              	.L290:
 3422              	.LBB23:
 747:System/shell/shell.c ****                 shell->parser.buffer[shell->parser.cursor + i - 1];
 3423              		.loc 1 747 13 is_stmt 1 discriminator 3 view .LVU920
 748:System/shell/shell.c ****         }
 3424              		.loc 1 748 30 is_stmt 0 discriminator 3 view .LVU921
 3425 0054 2069     		ldr	r0, [r4, #16]
 748:System/shell/shell.c ****         }
ARM GAS  C:\Users\8bit\AppData\Local\Temp\ccdhdvRO.s 			page 105


 3426              		.loc 1 748 51 discriminator 3 view .LVU922
 3427 0056 E289     		ldrh	r2, [r4, #14]
 748:System/shell/shell.c ****         }
 3428              		.loc 1 748 59 discriminator 3 view .LVU923
 3429 0058 1A44     		add	r2, r2, r3
 747:System/shell/shell.c ****                 shell->parser.buffer[shell->parser.cursor + i - 1];
 3430              		.loc 1 747 33 discriminator 3 view .LVU924
 3431 005a 8518     		adds	r5, r0, r2
 748:System/shell/shell.c ****         }
 3432              		.loc 1 748 37 discriminator 3 view .LVU925
 3433 005c 15F8015C 		ldrb	r5, [r5, #-1]	@ zero_extendqisi2
 747:System/shell/shell.c ****                 shell->parser.buffer[shell->parser.cursor + i - 1];
 3434              		.loc 1 747 60 discriminator 3 view .LVU926
 3435 0060 8554     		strb	r5, [r0, r2]
 745:System/shell/shell.c ****         {
 3436              		.loc 1 745 76 is_stmt 1 discriminator 3 view .LVU927
 745:System/shell/shell.c ****         {
 3437              		.loc 1 745 77 is_stmt 0 discriminator 3 view .LVU928
 3438 0062 013B     		subs	r3, r3, #1
 3439              	.LVL320:
 745:System/shell/shell.c ****         {
 3440              		.loc 1 745 77 discriminator 3 view .LVU929
 3441 0064 1BB2     		sxth	r3, r3
 3442              	.LVL321:
 3443              	.L289:
 745:System/shell/shell.c ****         {
 3444              		.loc 1 745 69 is_stmt 1 discriminator 1 view .LVU930
 745:System/shell/shell.c ****         {
 3445              		.loc 1 745 9 is_stmt 0 discriminator 1 view .LVU931
 3446 0066 002B     		cmp	r3, #0
 3447 0068 F4DC     		bgt	.L290
 745:System/shell/shell.c ****         {
 3448              		.loc 1 745 9 discriminator 1 view .LVU932
 3449              	.LBE23:
 750:System/shell/shell.c ****         shell->parser.buffer[++shell->parser.length] = 0;
 3450              		.loc 1 750 9 is_stmt 1 view .LVU933
 750:System/shell/shell.c ****         shell->parser.buffer[++shell->parser.length] = 0;
 3451              		.loc 1 750 22 is_stmt 0 view .LVU934
 3452 006a 2269     		ldr	r2, [r4, #16]
 750:System/shell/shell.c ****         shell->parser.buffer[++shell->parser.length] = 0;
 3453              		.loc 1 750 43 view .LVU935
 3454 006c E389     		ldrh	r3, [r4, #14]
 3455              	.LVL322:
 750:System/shell/shell.c ****         shell->parser.buffer[++shell->parser.length] = 0;
 3456              		.loc 1 750 50 view .LVU936
 3457 006e 581C     		adds	r0, r3, #1
 3458 0070 E081     		strh	r0, [r4, #14]	@ movhi
 750:System/shell/shell.c ****         shell->parser.buffer[++shell->parser.length] = 0;
 3459              		.loc 1 750 54 view .LVU937
 3460 0072 D154     		strb	r1, [r2, r3]
 751:System/shell/shell.c ****         for (short i = shell->parser.cursor - 1; i < shell->parser.length; i++)
 3461              		.loc 1 751 9 is_stmt 1 view .LVU938
 751:System/shell/shell.c ****         for (short i = shell->parser.cursor - 1; i < shell->parser.length; i++)
 3462              		.loc 1 751 22 is_stmt 0 view .LVU939
 3463 0074 2269     		ldr	r2, [r4, #16]
 751:System/shell/shell.c ****         for (short i = shell->parser.cursor - 1; i < shell->parser.length; i++)
 3464              		.loc 1 751 45 view .LVU940
ARM GAS  C:\Users\8bit\AppData\Local\Temp\ccdhdvRO.s 			page 106


 3465 0076 A389     		ldrh	r3, [r4, #12]
 751:System/shell/shell.c ****         for (short i = shell->parser.cursor - 1; i < shell->parser.length; i++)
 3466              		.loc 1 751 30 view .LVU941
 3467 0078 0133     		adds	r3, r3, #1
 3468 007a 9BB2     		uxth	r3, r3
 751:System/shell/shell.c ****         for (short i = shell->parser.cursor - 1; i < shell->parser.length; i++)
 3469              		.loc 1 751 54 view .LVU942
 3470 007c A381     		strh	r3, [r4, #12]	@ movhi
 3471 007e 0021     		movs	r1, #0
 3472              	.LVL323:
 751:System/shell/shell.c ****         for (short i = shell->parser.cursor - 1; i < shell->parser.length; i++)
 3473              		.loc 1 751 54 view .LVU943
 3474 0080 D154     		strb	r1, [r2, r3]
 752:System/shell/shell.c ****         {
 3475              		.loc 1 752 9 is_stmt 1 view .LVU944
 3476              	.LBB24:
 752:System/shell/shell.c ****         {
 3477              		.loc 1 752 14 view .LVU945
 752:System/shell/shell.c ****         {
 3478              		.loc 1 752 37 is_stmt 0 view .LVU946
 3479 0082 E689     		ldrh	r6, [r4, #14]
 752:System/shell/shell.c ****         {
 3480              		.loc 1 752 45 view .LVU947
 3481 0084 013E     		subs	r6, r6, #1
 752:System/shell/shell.c ****         {
 3482              		.loc 1 752 20 view .LVU948
 3483 0086 36B2     		sxth	r6, r6
 3484              	.LVL324:
 752:System/shell/shell.c ****         {
 3485              		.loc 1 752 9 view .LVU949
 3486 0088 06E0     		b	.L291
 3487              	.L292:
 754:System/shell/shell.c ****         }
 3488              		.loc 1 754 13 is_stmt 1 discriminator 3 view .LVU950
 754:System/shell/shell.c ****         }
 3489              		.loc 1 754 48 is_stmt 0 discriminator 3 view .LVU951
 3490 008a 2369     		ldr	r3, [r4, #16]
 754:System/shell/shell.c ****         }
 3491              		.loc 1 754 13 discriminator 3 view .LVU952
 3492 008c 995D     		ldrb	r1, [r3, r6]	@ zero_extendqisi2
 3493 008e 2046     		mov	r0, r4
 3494 0090 FFF7FEFF 		bl	shellWriteByte
 3495              	.LVL325:
 752:System/shell/shell.c ****         {
 3496              		.loc 1 752 76 is_stmt 1 discriminator 3 view .LVU953
 752:System/shell/shell.c ****         {
 3497              		.loc 1 752 77 is_stmt 0 discriminator 3 view .LVU954
 3498 0094 0136     		adds	r6, r6, #1
 3499              	.LVL326:
 752:System/shell/shell.c ****         {
 3500              		.loc 1 752 77 discriminator 3 view .LVU955
 3501 0096 36B2     		sxth	r6, r6
 3502              	.LVL327:
 3503              	.L291:
 752:System/shell/shell.c ****         {
 3504              		.loc 1 752 50 is_stmt 1 discriminator 1 view .LVU956
 752:System/shell/shell.c ****         {
ARM GAS  C:\Users\8bit\AppData\Local\Temp\ccdhdvRO.s 			page 107


 3505              		.loc 1 752 67 is_stmt 0 discriminator 1 view .LVU957
 3506 0098 A589     		ldrh	r5, [r4, #12]
 752:System/shell/shell.c ****         {
 3507              		.loc 1 752 9 discriminator 1 view .LVU958
 3508 009a AE42     		cmp	r6, r5
 3509 009c F5DB     		blt	.L292
 752:System/shell/shell.c ****         {
 3510              		.loc 1 752 9 discriminator 1 view .LVU959
 3511              	.LBE24:
 756:System/shell/shell.c ****         {
 3512              		.loc 1 756 9 is_stmt 1 view .LVU960
 3513              	.LBB25:
 756:System/shell/shell.c ****         {
 3514              		.loc 1 756 14 view .LVU961
 756:System/shell/shell.c ****         {
 3515              		.loc 1 756 60 is_stmt 0 view .LVU962
 3516 009e E389     		ldrh	r3, [r4, #14]
 756:System/shell/shell.c ****         {
 3517              		.loc 1 756 45 view .LVU963
 3518 00a0 ED1A     		subs	r5, r5, r3
 756:System/shell/shell.c ****         {
 3519              		.loc 1 756 20 view .LVU964
 3520 00a2 2DB2     		sxth	r5, r5
 3521              	.LVL328:
 756:System/shell/shell.c ****         {
 3522              		.loc 1 756 9 view .LVU965
 3523 00a4 05E0     		b	.L293
 3524              	.L294:
 758:System/shell/shell.c ****         }
 3525              		.loc 1 758 13 is_stmt 1 discriminator 3 view .LVU966
 3526 00a6 0821     		movs	r1, #8
 3527 00a8 2046     		mov	r0, r4
 3528 00aa FFF7FEFF 		bl	shellWriteByte
 3529              	.LVL329:
 756:System/shell/shell.c ****         {
 3530              		.loc 1 756 76 discriminator 3 view .LVU967
 756:System/shell/shell.c ****         {
 3531              		.loc 1 756 77 is_stmt 0 discriminator 3 view .LVU968
 3532 00ae 013D     		subs	r5, r5, #1
 3533              	.LVL330:
 756:System/shell/shell.c ****         {
 3534              		.loc 1 756 77 discriminator 3 view .LVU969
 3535 00b0 2DB2     		sxth	r5, r5
 3536              	.LVL331:
 3537              	.L293:
 756:System/shell/shell.c ****         {
 3538              		.loc 1 756 69 is_stmt 1 discriminator 1 view .LVU970
 756:System/shell/shell.c ****         {
 3539              		.loc 1 756 9 is_stmt 0 discriminator 1 view .LVU971
 3540 00b2 002D     		cmp	r5, #0
 3541 00b4 F7DC     		bgt	.L294
 3542              	.LVL332:
 3543              	.L285:
 756:System/shell/shell.c ****         {
 3544              		.loc 1 756 9 discriminator 1 view .LVU972
 3545              	.LBE25:
 761:System/shell/shell.c **** 
ARM GAS  C:\Users\8bit\AppData\Local\Temp\ccdhdvRO.s 			page 108


 3546              		.loc 1 761 1 view .LVU973
 3547 00b6 70BD     		pop	{r4, r5, r6, pc}
 3548              	.LVL333:
 3549              	.L299:
 761:System/shell/shell.c **** 
 3550              		.loc 1 761 1 view .LVU974
 3551              		.align	2
 3552              	.L298:
 3553 00b8 00000000 		.word	.LC21
 3554              		.cfi_endproc
 3555              	.LFE27:
 3557              		.section	.text.shellDeleteByte,"ax",%progbits
 3558              		.align	1
 3559              		.global	shellDeleteByte
 3560              		.syntax unified
 3561              		.thumb
 3562              		.thumb_func
 3564              	shellDeleteByte:
 3565              	.LVL334:
 3566              	.LFB28:
 770:System/shell/shell.c ****     char offset = (direction == -1) ? 1 : 0;
 3567              		.loc 1 770 1 is_stmt 1 view -0
 3568              		.cfi_startproc
 3569              		@ args = 0, pretend = 0, frame = 0
 3570              		@ frame_needed = 0, uses_anonymous_args = 0
 770:System/shell/shell.c ****     char offset = (direction == -1) ? 1 : 0;
 3571              		.loc 1 770 1 is_stmt 0 view .LVU976
 3572 0000 38B5     		push	{r3, r4, r5, lr}
 3573              	.LCFI51:
 3574              		.cfi_def_cfa_offset 16
 3575              		.cfi_offset 3, -16
 3576              		.cfi_offset 4, -12
 3577              		.cfi_offset 5, -8
 3578              		.cfi_offset 14, -4
 3579 0002 0446     		mov	r4, r0
 771:System/shell/shell.c **** 
 3580              		.loc 1 771 5 is_stmt 1 view .LVU977
 771:System/shell/shell.c **** 
 3581              		.loc 1 771 41 is_stmt 0 view .LVU978
 3582 0004 B1F1FF3F 		cmp	r1, #-1
 3583 0008 14BF     		ite	ne
 3584 000a 0023     		movne	r3, #0
 3585 000c 0123     		moveq	r3, #1
 3586              	.LVL335:
 773:System/shell/shell.c ****     {
 3587              		.loc 1 773 5 is_stmt 1 view .LVU979
 773:System/shell/shell.c ****     {
 3588              		.loc 1 773 23 is_stmt 0 view .LVU980
 3589 000e C289     		ldrh	r2, [r0, #14]
 773:System/shell/shell.c ****     {
 3590              		.loc 1 773 8 view .LVU981
 3591 0010 0AB9     		cbnz	r2, .L301
 773:System/shell/shell.c ****     {
 3592              		.loc 1 773 36 discriminator 1 view .LVU982
 3593 0012 0129     		cmp	r1, #1
 3594 0014 55D0     		beq	.L300
 3595              	.L301:
ARM GAS  C:\Users\8bit\AppData\Local\Temp\ccdhdvRO.s 			page 109


 773:System/shell/shell.c ****     {
 3596              		.loc 1 773 96 discriminator 3 view .LVU983
 3597 0016 A089     		ldrh	r0, [r4, #12]
 3598              	.LVL336:
 773:System/shell/shell.c ****     {
 3599              		.loc 1 773 55 discriminator 3 view .LVU984
 3600 0018 8242     		cmp	r2, r0
 3601 001a 03D0     		beq	.L313
 3602              	.L303:
 777:System/shell/shell.c ****     {
 3603              		.loc 1 777 5 is_stmt 1 view .LVU985
 777:System/shell/shell.c ****     {
 3604              		.loc 1 777 8 is_stmt 0 view .LVU986
 3605 001c 8242     		cmp	r2, r0
 3606 001e 05D0     		beq	.L314
 3607              	.L304:
 786:System/shell/shell.c ****         {
 3608              		.loc 1 786 9 is_stmt 1 view .LVU987
 3609              	.LBB26:
 786:System/shell/shell.c ****         {
 3610              		.loc 1 786 14 view .LVU988
 786:System/shell/shell.c ****         {
 3611              		.loc 1 786 20 is_stmt 0 view .LVU989
 3612 0020 1BB2     		sxth	r3, r3
 3613              	.LVL337:
 786:System/shell/shell.c ****         {
 3614              		.loc 1 786 9 view .LVU990
 3615 0022 19E0     		b	.L305
 3616              	.LVL338:
 3617              	.L313:
 786:System/shell/shell.c ****         {
 3618              		.loc 1 786 9 view .LVU991
 3619              	.LBE26:
 773:System/shell/shell.c ****     {
 3620              		.loc 1 773 104 discriminator 4 view .LVU992
 3621 0024 B1F1FF3F 		cmp	r1, #-1
 3622 0028 F8D1     		bne	.L303
 3623 002a 4AE0     		b	.L300
 3624              	.L314:
 777:System/shell/shell.c ****     {
 3625              		.loc 1 777 54 discriminator 1 view .LVU993
 3626 002c 0129     		cmp	r1, #1
 3627 002e F7D1     		bne	.L304
 779:System/shell/shell.c ****         shell->parser.length--;
 3628              		.loc 1 779 9 is_stmt 1 view .LVU994
 779:System/shell/shell.c ****         shell->parser.length--;
 3629              		.loc 1 779 29 is_stmt 0 view .LVU995
 3630 0030 013A     		subs	r2, r2, #1
 3631 0032 E281     		strh	r2, [r4, #14]	@ movhi
 780:System/shell/shell.c ****         shell->parser.buffer[shell->parser.length] = 0;
 3632              		.loc 1 780 9 is_stmt 1 view .LVU996
 780:System/shell/shell.c ****         shell->parser.buffer[shell->parser.length] = 0;
 3633              		.loc 1 780 29 is_stmt 0 view .LVU997
 3634 0034 431E     		subs	r3, r0, #1
 3635              	.LVL339:
 780:System/shell/shell.c ****         shell->parser.buffer[shell->parser.length] = 0;
 3636              		.loc 1 780 29 view .LVU998
ARM GAS  C:\Users\8bit\AppData\Local\Temp\ccdhdvRO.s 			page 110


 3637 0036 9BB2     		uxth	r3, r3
 3638 0038 A381     		strh	r3, [r4, #12]	@ movhi
 781:System/shell/shell.c ****         shellDeleteCommandLine(shell, 1);
 3639              		.loc 1 781 9 is_stmt 1 view .LVU999
 781:System/shell/shell.c ****         shellDeleteCommandLine(shell, 1);
 3640              		.loc 1 781 22 is_stmt 0 view .LVU1000
 3641 003a 2269     		ldr	r2, [r4, #16]
 781:System/shell/shell.c ****         shellDeleteCommandLine(shell, 1);
 3642              		.loc 1 781 52 view .LVU1001
 3643 003c 0021     		movs	r1, #0
 3644              	.LVL340:
 781:System/shell/shell.c ****         shellDeleteCommandLine(shell, 1);
 3645              		.loc 1 781 52 view .LVU1002
 3646 003e D154     		strb	r1, [r2, r3]
 782:System/shell/shell.c ****     }
 3647              		.loc 1 782 9 is_stmt 1 view .LVU1003
 3648 0040 0121     		movs	r1, #1
 3649 0042 2046     		mov	r0, r4
 3650 0044 FFF7FEFF 		bl	shellDeleteCommandLine
 3651              	.LVL341:
 3652 0048 3BE0     		b	.L300
 3653              	.LVL342:
 3654              	.L306:
 3655              	.LBB27:
 788:System/shell/shell.c ****                 shell->parser.buffer[shell->parser.cursor + i];
 3656              		.loc 1 788 13 discriminator 3 view .LVU1004
 789:System/shell/shell.c ****         }
 3657              		.loc 1 789 30 is_stmt 0 discriminator 3 view .LVU1005
 3658 004a 2069     		ldr	r0, [r4, #16]
 789:System/shell/shell.c ****         }
 3659              		.loc 1 789 59 discriminator 3 view .LVU1006
 3660 004c 1A44     		add	r2, r2, r3
 788:System/shell/shell.c ****                 shell->parser.buffer[shell->parser.cursor + i];
 3661              		.loc 1 788 33 discriminator 3 view .LVU1007
 3662 004e 551E     		subs	r5, r2, #1
 789:System/shell/shell.c ****         }
 3663              		.loc 1 789 37 discriminator 3 view .LVU1008
 3664 0050 825C     		ldrb	r2, [r0, r2]	@ zero_extendqisi2
 788:System/shell/shell.c ****                 shell->parser.buffer[shell->parser.cursor + i];
 3665              		.loc 1 788 64 discriminator 3 view .LVU1009
 3666 0052 4255     		strb	r2, [r0, r5]
 786:System/shell/shell.c ****         {
 3667              		.loc 1 786 81 is_stmt 1 discriminator 3 view .LVU1010
 786:System/shell/shell.c ****         {
 3668              		.loc 1 786 82 is_stmt 0 discriminator 3 view .LVU1011
 3669 0054 0133     		adds	r3, r3, #1
 3670              	.LVL343:
 786:System/shell/shell.c ****         {
 3671              		.loc 1 786 82 discriminator 3 view .LVU1012
 3672 0056 1BB2     		sxth	r3, r3
 3673              	.LVL344:
 3674              	.L305:
 786:System/shell/shell.c ****         {
 3675              		.loc 1 786 32 is_stmt 1 discriminator 1 view .LVU1013
 786:System/shell/shell.c ****         {
 3676              		.loc 1 786 49 is_stmt 0 discriminator 1 view .LVU1014
 3677 0058 A089     		ldrh	r0, [r4, #12]
ARM GAS  C:\Users\8bit\AppData\Local\Temp\ccdhdvRO.s 			page 111


 786:System/shell/shell.c ****         {
 3678              		.loc 1 786 72 discriminator 1 view .LVU1015
 3679 005a E289     		ldrh	r2, [r4, #14]
 786:System/shell/shell.c ****         {
 3680              		.loc 1 786 57 discriminator 1 view .LVU1016
 3681 005c 851A     		subs	r5, r0, r2
 786:System/shell/shell.c ****         {
 3682              		.loc 1 786 9 discriminator 1 view .LVU1017
 3683 005e AB42     		cmp	r3, r5
 3684 0060 F3DB     		blt	.L306
 786:System/shell/shell.c ****         {
 3685              		.loc 1 786 9 discriminator 1 view .LVU1018
 3686              	.LBE27:
 791:System/shell/shell.c ****         if (!offset)
 3687              		.loc 1 791 9 is_stmt 1 view .LVU1019
 791:System/shell/shell.c ****         if (!offset)
 3688              		.loc 1 791 29 is_stmt 0 view .LVU1020
 3689 0062 0138     		subs	r0, r0, #1
 3690 0064 A081     		strh	r0, [r4, #12]	@ movhi
 792:System/shell/shell.c ****         {
 3691              		.loc 1 792 9 is_stmt 1 view .LVU1021
 792:System/shell/shell.c ****         {
 3692              		.loc 1 792 12 is_stmt 0 view .LVU1022
 3693 0066 B1F1FF3F 		cmp	r1, #-1
 3694 006a 06D1     		bne	.L315
 3695              	.LVL345:
 3696              	.L307:
 797:System/shell/shell.c ****         for (short i = shell->parser.cursor; i < shell->parser.length; i++)
 3697              		.loc 1 797 9 is_stmt 1 view .LVU1023
 797:System/shell/shell.c ****         for (short i = shell->parser.cursor; i < shell->parser.length; i++)
 3698              		.loc 1 797 22 is_stmt 0 view .LVU1024
 3699 006c 2269     		ldr	r2, [r4, #16]
 797:System/shell/shell.c ****         for (short i = shell->parser.cursor; i < shell->parser.length; i++)
 3700              		.loc 1 797 43 view .LVU1025
 3701 006e A389     		ldrh	r3, [r4, #12]
 797:System/shell/shell.c ****         for (short i = shell->parser.cursor; i < shell->parser.length; i++)
 3702              		.loc 1 797 52 view .LVU1026
 3703 0070 0021     		movs	r1, #0
 3704 0072 D154     		strb	r1, [r2, r3]
 798:System/shell/shell.c ****         {
 3705              		.loc 1 798 9 is_stmt 1 view .LVU1027
 3706              	.LBB28:
 798:System/shell/shell.c ****         {
 3707              		.loc 1 798 14 view .LVU1028
 798:System/shell/shell.c ****         {
 3708              		.loc 1 798 20 is_stmt 0 view .LVU1029
 3709 0074 B4F90E50 		ldrsh	r5, [r4, #14]
 3710              	.LVL346:
 798:System/shell/shell.c ****         {
 3711              		.loc 1 798 9 view .LVU1030
 3712 0078 0DE0     		b	.L308
 3713              	.LVL347:
 3714              	.L315:
 798:System/shell/shell.c ****         {
 3715              		.loc 1 798 9 view .LVU1031
 3716              	.LBE28:
 794:System/shell/shell.c ****             shellWriteByte(shell, '\b');
ARM GAS  C:\Users\8bit\AppData\Local\Temp\ccdhdvRO.s 			page 112


 3717              		.loc 1 794 13 is_stmt 1 view .LVU1032
 794:System/shell/shell.c ****             shellWriteByte(shell, '\b');
 3718              		.loc 1 794 33 is_stmt 0 view .LVU1033
 3719 007a 013A     		subs	r2, r2, #1
 3720 007c E281     		strh	r2, [r4, #14]	@ movhi
 795:System/shell/shell.c ****         }
 3721              		.loc 1 795 13 is_stmt 1 view .LVU1034
 3722 007e 0821     		movs	r1, #8
 3723              	.LVL348:
 795:System/shell/shell.c ****         }
 3724              		.loc 1 795 13 is_stmt 0 view .LVU1035
 3725 0080 2046     		mov	r0, r4
 3726 0082 FFF7FEFF 		bl	shellWriteByte
 3727              	.LVL349:
 795:System/shell/shell.c ****         }
 3728              		.loc 1 795 13 view .LVU1036
 3729 0086 F1E7     		b	.L307
 3730              	.LVL350:
 3731              	.L309:
 3732              	.LBB29:
 800:System/shell/shell.c ****         }
 3733              		.loc 1 800 13 is_stmt 1 discriminator 3 view .LVU1037
 800:System/shell/shell.c ****         }
 3734              		.loc 1 800 48 is_stmt 0 discriminator 3 view .LVU1038
 3735 0088 2369     		ldr	r3, [r4, #16]
 800:System/shell/shell.c ****         }
 3736              		.loc 1 800 13 discriminator 3 view .LVU1039
 3737 008a 595D     		ldrb	r1, [r3, r5]	@ zero_extendqisi2
 3738 008c 2046     		mov	r0, r4
 3739 008e FFF7FEFF 		bl	shellWriteByte
 3740              	.LVL351:
 798:System/shell/shell.c ****         {
 3741              		.loc 1 798 72 is_stmt 1 discriminator 3 view .LVU1040
 798:System/shell/shell.c ****         {
 3742              		.loc 1 798 73 is_stmt 0 discriminator 3 view .LVU1041
 3743 0092 0135     		adds	r5, r5, #1
 3744              	.LVL352:
 798:System/shell/shell.c ****         {
 3745              		.loc 1 798 73 discriminator 3 view .LVU1042
 3746 0094 2DB2     		sxth	r5, r5
 3747              	.LVL353:
 3748              	.L308:
 798:System/shell/shell.c ****         {
 3749              		.loc 1 798 46 is_stmt 1 discriminator 1 view .LVU1043
 798:System/shell/shell.c ****         {
 3750              		.loc 1 798 63 is_stmt 0 discriminator 1 view .LVU1044
 3751 0096 A389     		ldrh	r3, [r4, #12]
 798:System/shell/shell.c ****         {
 3752              		.loc 1 798 9 discriminator 1 view .LVU1045
 3753 0098 9D42     		cmp	r5, r3
 3754 009a F5DB     		blt	.L309
 798:System/shell/shell.c ****         {
 3755              		.loc 1 798 9 discriminator 1 view .LVU1046
 3756              	.LBE29:
 802:System/shell/shell.c ****         for (short i = shell->parser.length - shell->parser.cursor + 1; i > 0; i--)
 3757              		.loc 1 802 9 is_stmt 1 view .LVU1047
 3758 009c 2021     		movs	r1, #32
ARM GAS  C:\Users\8bit\AppData\Local\Temp\ccdhdvRO.s 			page 113


 3759 009e 2046     		mov	r0, r4
 3760 00a0 FFF7FEFF 		bl	shellWriteByte
 3761              	.LVL354:
 803:System/shell/shell.c ****         {
 3762              		.loc 1 803 9 view .LVU1048
 3763              	.LBB30:
 803:System/shell/shell.c ****         {
 3764              		.loc 1 803 14 view .LVU1049
 803:System/shell/shell.c ****         {
 3765              		.loc 1 803 37 is_stmt 0 view .LVU1050
 3766 00a4 A589     		ldrh	r5, [r4, #12]
 3767              	.LVL355:
 803:System/shell/shell.c ****         {
 3768              		.loc 1 803 60 view .LVU1051
 3769 00a6 E389     		ldrh	r3, [r4, #14]
 803:System/shell/shell.c ****         {
 3770              		.loc 1 803 45 view .LVU1052
 3771 00a8 ED1A     		subs	r5, r5, r3
 3772 00aa ADB2     		uxth	r5, r5
 803:System/shell/shell.c ****         {
 3773              		.loc 1 803 68 view .LVU1053
 3774 00ac 0135     		adds	r5, r5, #1
 803:System/shell/shell.c ****         {
 3775              		.loc 1 803 20 view .LVU1054
 3776 00ae 2DB2     		sxth	r5, r5
 3777              	.LVL356:
 803:System/shell/shell.c ****         {
 3778              		.loc 1 803 9 view .LVU1055
 3779 00b0 05E0     		b	.L310
 3780              	.L311:
 805:System/shell/shell.c ****         }
 3781              		.loc 1 805 13 is_stmt 1 discriminator 3 view .LVU1056
 3782 00b2 0821     		movs	r1, #8
 3783 00b4 2046     		mov	r0, r4
 3784 00b6 FFF7FEFF 		bl	shellWriteByte
 3785              	.LVL357:
 803:System/shell/shell.c ****         {
 3786              		.loc 1 803 80 discriminator 3 view .LVU1057
 803:System/shell/shell.c ****         {
 3787              		.loc 1 803 81 is_stmt 0 discriminator 3 view .LVU1058
 3788 00ba 013D     		subs	r5, r5, #1
 3789              	.LVL358:
 803:System/shell/shell.c ****         {
 3790              		.loc 1 803 81 discriminator 3 view .LVU1059
 3791 00bc 2DB2     		sxth	r5, r5
 3792              	.LVL359:
 3793              	.L310:
 803:System/shell/shell.c ****         {
 3794              		.loc 1 803 73 is_stmt 1 discriminator 1 view .LVU1060
 803:System/shell/shell.c ****         {
 3795              		.loc 1 803 9 is_stmt 0 discriminator 1 view .LVU1061
 3796 00be 002D     		cmp	r5, #0
 3797 00c0 F7DC     		bgt	.L311
 3798              	.LVL360:
 3799              	.L300:
 803:System/shell/shell.c ****         {
 3800              		.loc 1 803 9 discriminator 1 view .LVU1062
ARM GAS  C:\Users\8bit\AppData\Local\Temp\ccdhdvRO.s 			page 114


 3801              	.LBE30:
 808:System/shell/shell.c **** 
 3802              		.loc 1 808 1 view .LVU1063
 3803 00c2 38BD     		pop	{r3, r4, r5, pc}
 808:System/shell/shell.c **** 
 3804              		.loc 1 808 1 view .LVU1064
 3805              		.cfi_endproc
 3806              	.LFE28:
 3808              		.section	.text.shellBackspace,"ax",%progbits
 3809              		.align	1
 3810              		.global	shellBackspace
 3811              		.syntax unified
 3812              		.thumb
 3813              		.thumb_func
 3815              	shellBackspace:
 3816              	.LVL361:
 3817              	.LFB49:
1485:System/shell/shell.c ****     shellDeleteByte(shell, 1);
 3818              		.loc 1 1485 1 is_stmt 1 view -0
 3819              		.cfi_startproc
 3820              		@ args = 0, pretend = 0, frame = 0
 3821              		@ frame_needed = 0, uses_anonymous_args = 0
1485:System/shell/shell.c ****     shellDeleteByte(shell, 1);
 3822              		.loc 1 1485 1 is_stmt 0 view .LVU1066
 3823 0000 08B5     		push	{r3, lr}
 3824              	.LCFI52:
 3825              		.cfi_def_cfa_offset 8
 3826              		.cfi_offset 3, -8
 3827              		.cfi_offset 14, -4
1486:System/shell/shell.c **** }
 3828              		.loc 1 1486 5 is_stmt 1 view .LVU1067
 3829 0002 0121     		movs	r1, #1
 3830 0004 FFF7FEFF 		bl	shellDeleteByte
 3831              	.LVL362:
1487:System/shell/shell.c **** SHELL_EXPORT_KEY(SHELL_CMD_PERMISSION(0) | SHELL_CMD_ENABLE_UNCHECKED,
 3832              		.loc 1 1487 1 is_stmt 0 view .LVU1068
 3833 0008 08BD     		pop	{r3, pc}
 3834              		.cfi_endproc
 3835              	.LFE49:
 3837              		.section	.text.shellDelete,"ax",%progbits
 3838              		.align	1
 3839              		.global	shellDelete
 3840              		.syntax unified
 3841              		.thumb
 3842              		.thumb_func
 3844              	shellDelete:
 3845              	.LVL363:
 3846              	.LFB50:
1499:System/shell/shell.c ****     shellDeleteByte(shell, -1);
 3847              		.loc 1 1499 1 is_stmt 1 view -0
 3848              		.cfi_startproc
 3849              		@ args = 0, pretend = 0, frame = 0
 3850              		@ frame_needed = 0, uses_anonymous_args = 0
1499:System/shell/shell.c ****     shellDeleteByte(shell, -1);
 3851              		.loc 1 1499 1 is_stmt 0 view .LVU1070
 3852 0000 08B5     		push	{r3, lr}
 3853              	.LCFI53:
ARM GAS  C:\Users\8bit\AppData\Local\Temp\ccdhdvRO.s 			page 115


 3854              		.cfi_def_cfa_offset 8
 3855              		.cfi_offset 3, -8
 3856              		.cfi_offset 14, -4
1500:System/shell/shell.c **** }
 3857              		.loc 1 1500 5 is_stmt 1 view .LVU1071
 3858 0002 4FF0FF31 		mov	r1, #-1
 3859 0006 FFF7FEFF 		bl	shellDeleteByte
 3860              	.LVL364:
1501:System/shell/shell.c **** SHELL_EXPORT_KEY(SHELL_CMD_PERMISSION(0) | SHELL_CMD_ENABLE_UNCHECKED,
 3861              		.loc 1 1501 1 is_stmt 0 view .LVU1072
 3862 000a 08BD     		pop	{r3, pc}
 3863              		.cfi_endproc
 3864              	.LFE50:
 3866              		.section	.text.shellSeekCommand,"ax",%progbits
 3867              		.align	1
 3868              		.global	shellSeekCommand
 3869              		.syntax unified
 3870              		.thumb
 3871              		.thumb_func
 3873              	shellSeekCommand:
 3874              	.LVL365:
 3875              	.LFB31:
 892:System/shell/shell.c ****     const char *name;
 3876              		.loc 1 892 1 is_stmt 1 view -0
 3877              		.cfi_startproc
 3878              		@ args = 0, pretend = 0, frame = 0
 3879              		@ frame_needed = 0, uses_anonymous_args = 0
 892:System/shell/shell.c ****     const char *name;
 3880              		.loc 1 892 1 is_stmt 0 view .LVU1074
 3881 0000 2DE9F047 		push	{r4, r5, r6, r7, r8, r9, r10, lr}
 3882              	.LCFI54:
 3883              		.cfi_def_cfa_offset 32
 3884              		.cfi_offset 4, -32
 3885              		.cfi_offset 5, -28
 3886              		.cfi_offset 6, -24
 3887              		.cfi_offset 7, -20
 3888              		.cfi_offset 8, -16
 3889              		.cfi_offset 9, -12
 3890              		.cfi_offset 10, -8
 3891              		.cfi_offset 14, -4
 3892 0004 8046     		mov	r8, r0
 3893 0006 8A46     		mov	r10, r1
 3894 0008 1746     		mov	r7, r2
 3895 000a 9946     		mov	r9, r3
 893:System/shell/shell.c ****     int ret;
 3896              		.loc 1 893 5 is_stmt 1 view .LVU1075
 894:System/shell/shell.c ****     unsigned short count = shell->commandList.count -
 3897              		.loc 1 894 5 view .LVU1076
 895:System/shell/shell.c ****                            ((int)base - (int)shell->commandList.base) / sizeof(ShellCommand);
 3898              		.loc 1 895 5 view .LVU1077
 895:System/shell/shell.c ****                            ((int)base - (int)shell->commandList.base) / sizeof(ShellCommand);
 3899              		.loc 1 895 46 is_stmt 0 view .LVU1078
 3900 000c B0F85C60 		ldrh	r6, [r0, #92]
 896:System/shell/shell.c ****     for (unsigned short i = 0; i < count; i++)
 3901              		.loc 1 896 64 view .LVU1079
 3902 0010 836D     		ldr	r3, [r0, #88]
 3903              	.LVL366:
ARM GAS  C:\Users\8bit\AppData\Local\Temp\ccdhdvRO.s 			page 116


 896:System/shell/shell.c ****     for (unsigned short i = 0; i < count; i++)
 3904              		.loc 1 896 39 view .LVU1080
 3905 0012 D31A     		subs	r3, r2, r3
 895:System/shell/shell.c ****                            ((int)base - (int)shell->commandList.base) / sizeof(ShellCommand);
 3906              		.loc 1 895 53 view .LVU1081
 3907 0014 C3F30F13 		ubfx	r3, r3, #4, #16
 895:System/shell/shell.c ****                            ((int)base - (int)shell->commandList.base) / sizeof(ShellCommand);
 3908              		.loc 1 895 20 view .LVU1082
 3909 0018 F31A     		subs	r3, r6, r3
 3910 001a 9EB2     		uxth	r6, r3
 3911              	.LVL367:
 897:System/shell/shell.c ****     {
 3912              		.loc 1 897 5 is_stmt 1 view .LVU1083
 3913              	.LBB31:
 897:System/shell/shell.c ****     {
 3914              		.loc 1 897 10 view .LVU1084
 897:System/shell/shell.c ****     {
 3915              		.loc 1 897 25 is_stmt 0 view .LVU1085
 3916 001c 0024     		movs	r4, #0
 897:System/shell/shell.c ****     {
 3917              		.loc 1 897 5 view .LVU1086
 3918 001e 06E0     		b	.L321
 3919              	.LVL368:
 3920              	.L323:
 914:System/shell/shell.c ****             {
 3921              		.loc 1 914 13 is_stmt 1 view .LVU1087
 914:System/shell/shell.c ****             {
 3922              		.loc 1 914 17 is_stmt 0 view .LVU1088
 3923 0020 4A46     		mov	r2, r9
 3924 0022 5046     		mov	r0, r10
 3925              	.LVL369:
 914:System/shell/shell.c ****             {
 3926              		.loc 1 914 17 view .LVU1089
 3927 0024 FFF7FEFF 		bl	strncmp
 3928              	.LVL370:
 914:System/shell/shell.c ****             {
 3929              		.loc 1 914 16 view .LVU1090
 3930 0028 00B3     		cbz	r0, .L320
 3931              	.L322:
 897:System/shell/shell.c ****     {
 3932              		.loc 1 897 43 is_stmt 1 discriminator 2 view .LVU1091
 897:System/shell/shell.c ****     {
 3933              		.loc 1 897 44 is_stmt 0 discriminator 2 view .LVU1092
 3934 002a 0134     		adds	r4, r4, #1
 3935              	.LVL371:
 897:System/shell/shell.c ****     {
 3936              		.loc 1 897 44 discriminator 2 view .LVU1093
 3937 002c A4B2     		uxth	r4, r4
 3938              	.LVL372:
 3939              	.L321:
 897:System/shell/shell.c ****     {
 3940              		.loc 1 897 32 is_stmt 1 discriminator 1 view .LVU1094
 897:System/shell/shell.c ****     {
 3941              		.loc 1 897 5 is_stmt 0 discriminator 1 view .LVU1095
 3942 002e B442     		cmp	r4, r6
 3943 0030 1BD2     		bcs	.L327
 899:System/shell/shell.c ****         {
ARM GAS  C:\Users\8bit\AppData\Local\Temp\ccdhdvRO.s 			page 117


 3944              		.loc 1 899 9 is_stmt 1 view .LVU1096
 899:System/shell/shell.c ****         {
 3945              		.loc 1 899 17 is_stmt 0 view .LVU1097
 3946 0032 07EB0415 		add	r5, r7, r4, lsl #4
 899:System/shell/shell.c ****         {
 3947              		.loc 1 899 37 view .LVU1098
 3948 0036 95F801C0 		ldrb	ip, [r5, #1]	@ zero_extendqisi2
 3949 003a 0CF00F0C 		and	ip, ip, #15
 899:System/shell/shell.c ****         {
 3950              		.loc 1 899 12 view .LVU1099
 3951 003e BCF1090F 		cmp	ip, #9
 3952 0042 F2D0     		beq	.L322
 899:System/shell/shell.c ****         {
 3953              		.loc 1 899 58 discriminator 1 view .LVU1100
 3954 0044 2946     		mov	r1, r5
 3955 0046 4046     		mov	r0, r8
 3956 0048 FFF7FEFF 		bl	shellCheckPermission
 3957              	.LVL373:
 899:System/shell/shell.c ****         {
 3958              		.loc 1 899 55 discriminator 1 view .LVU1101
 3959 004c 0028     		cmp	r0, #0
 3960 004e ECD1     		bne	.L322
 903:System/shell/shell.c ****         if (!compareLength)
 3961              		.loc 1 903 9 is_stmt 1 view .LVU1102
 903:System/shell/shell.c ****         if (!compareLength)
 3962              		.loc 1 903 16 is_stmt 0 view .LVU1103
 3963 0050 2846     		mov	r0, r5
 3964 0052 FFF7FEFF 		bl	shellGetCommandName
 3965              	.LVL374:
 3966 0056 0146     		mov	r1, r0
 3967              	.LVL375:
 904:System/shell/shell.c ****         {
 3968              		.loc 1 904 9 is_stmt 1 view .LVU1104
 904:System/shell/shell.c ****         {
 3969              		.loc 1 904 12 is_stmt 0 view .LVU1105
 3970 0058 B9F1000F 		cmp	r9, #0
 3971 005c E0D1     		bne	.L323
 906:System/shell/shell.c ****             if (strcmp(cmd, name) == 0)
 3972              		.loc 1 906 13 is_stmt 1 view .LVU1106
 906:System/shell/shell.c ****             if (strcmp(cmd, name) == 0)
 3973              		.loc 1 906 19 is_stmt 0 view .LVU1107
 3974 005e 5046     		mov	r0, r10
 3975              	.LVL376:
 906:System/shell/shell.c ****             if (strcmp(cmd, name) == 0)
 3976              		.loc 1 906 19 view .LVU1108
 3977 0060 FFF7FEFF 		bl	strcmp
 3978              	.LVL377:
 907:System/shell/shell.c ****             {
 3979              		.loc 1 907 13 is_stmt 1 view .LVU1109
 907:System/shell/shell.c ****             {
 3980              		.loc 1 907 16 is_stmt 0 view .LVU1110
 3981 0064 0028     		cmp	r0, #0
 3982 0066 E0D1     		bne	.L322
 3983 0068 00E0     		b	.L320
 3984              	.LVL378:
 3985              	.L327:
 907:System/shell/shell.c ****             {
ARM GAS  C:\Users\8bit\AppData\Local\Temp\ccdhdvRO.s 			page 118


 3986              		.loc 1 907 16 view .LVU1111
 3987              	.LBE31:
 920:System/shell/shell.c **** }
 3988              		.loc 1 920 12 view .LVU1112
 3989 006a 0025     		movs	r5, #0
 3990              	.L320:
 921:System/shell/shell.c **** 
 3991              		.loc 1 921 1 view .LVU1113
 3992 006c 2846     		mov	r0, r5
 3993 006e BDE8F087 		pop	{r4, r5, r6, r7, r8, r9, r10, pc}
 921:System/shell/shell.c **** 
 3994              		.loc 1 921 1 view .LVU1114
 3995              		.cfi_endproc
 3996              	.LFE31:
 3998              		.section	.rodata.shellInit.str1.4,"aMS",%progbits,1
 3999              		.align	2
 4000              	.LC22:
 4001 0000 502E302E 		.ascii	"P.0.Wder Squad\000"
 4001      57646572 
 4001      20537175 
 4001      616400
 4002              		.section	.text.shellInit,"ax",%progbits
 4003              		.align	1
 4004              		.global	shellInit
 4005              		.syntax unified
 4006              		.thumb
 4007              		.thumb_func
 4009              	shellInit:
 4010              	.LVL379:
 4011              	.LFB3:
 161:System/shell/shell.c ****     shell->parser.length = 0;
 4012              		.loc 1 161 1 is_stmt 1 view -0
 4013              		.cfi_startproc
 4014              		@ args = 0, pretend = 0, frame = 0
 4015              		@ frame_needed = 0, uses_anonymous_args = 0
 161:System/shell/shell.c ****     shell->parser.length = 0;
 4016              		.loc 1 161 1 is_stmt 0 view .LVU1116
 4017 0000 10B5     		push	{r4, lr}
 4018              	.LCFI55:
 4019              		.cfi_def_cfa_offset 8
 4020              		.cfi_offset 4, -8
 4021              		.cfi_offset 14, -4
 4022 0002 0446     		mov	r4, r0
 162:System/shell/shell.c ****     shell->parser.cursor = 0;
 4023              		.loc 1 162 5 is_stmt 1 view .LVU1117
 162:System/shell/shell.c ****     shell->parser.cursor = 0;
 4024              		.loc 1 162 26 is_stmt 0 view .LVU1118
 4025 0004 0023     		movs	r3, #0
 4026 0006 8381     		strh	r3, [r0, #12]	@ movhi
 163:System/shell/shell.c ****     shell->history.offset = 0;
 4027              		.loc 1 163 5 is_stmt 1 view .LVU1119
 163:System/shell/shell.c ****     shell->history.offset = 0;
 4028              		.loc 1 163 26 is_stmt 0 view .LVU1120
 4029 0008 C381     		strh	r3, [r0, #14]	@ movhi
 164:System/shell/shell.c ****     shell->history.number = 0;
 4030              		.loc 1 164 5 is_stmt 1 view .LVU1121
 164:System/shell/shell.c ****     shell->history.number = 0;
ARM GAS  C:\Users\8bit\AppData\Local\Temp\ccdhdvRO.s 			page 119


 4031              		.loc 1 164 27 is_stmt 0 view .LVU1122
 4032 000a A0F85430 		strh	r3, [r0, #84]	@ movhi
 165:System/shell/shell.c ****     shell->history.record = 0;
 4033              		.loc 1 165 5 is_stmt 1 view .LVU1123
 165:System/shell/shell.c ****     shell->history.record = 0;
 4034              		.loc 1 165 27 is_stmt 0 view .LVU1124
 4035 000e A0F85030 		strh	r3, [r0, #80]	@ movhi
 166:System/shell/shell.c ****     shell->info.user = NULL;
 4036              		.loc 1 166 5 is_stmt 1 view .LVU1125
 166:System/shell/shell.c ****     shell->info.user = NULL;
 4037              		.loc 1 166 27 is_stmt 0 view .LVU1126
 4038 0012 A0F85230 		strh	r3, [r0, #82]	@ movhi
 167:System/shell/shell.c ****     shell->status.isChecked = 1;
 4039              		.loc 1 167 5 is_stmt 1 view .LVU1127
 167:System/shell/shell.c ****     shell->status.isChecked = 1;
 4040              		.loc 1 167 22 is_stmt 0 view .LVU1128
 4041 0016 0360     		str	r3, [r0]
 168:System/shell/shell.c **** 
 4042              		.loc 1 168 5 is_stmt 1 view .LVU1129
 168:System/shell/shell.c **** 
 4043              		.loc 1 168 29 is_stmt 0 view .LVU1130
 4044 0018 90F86000 		ldrb	r0, [r0, #96]	@ zero_extendqisi2
 4045              	.LVL380:
 168:System/shell/shell.c **** 
 4046              		.loc 1 168 29 view .LVU1131
 4047 001c 40F00100 		orr	r0, r0, #1
 4048 0020 84F86000 		strb	r0, [r4, #96]
 170:System/shell/shell.c ****     shell->parser.bufferSize = size / (SHELL_HISTORY_MAX_NUMBER + 1);
 4049              		.loc 1 170 5 is_stmt 1 view .LVU1132
 170:System/shell/shell.c ****     shell->parser.bufferSize = size / (SHELL_HISTORY_MAX_NUMBER + 1);
 4050              		.loc 1 170 26 is_stmt 0 view .LVU1133
 4051 0024 2161     		str	r1, [r4, #16]
 171:System/shell/shell.c ****     for (short i = 0; i < SHELL_HISTORY_MAX_NUMBER; i++)
 4052              		.loc 1 171 5 is_stmt 1 view .LVU1134
 171:System/shell/shell.c ****     for (short i = 0; i < SHELL_HISTORY_MAX_NUMBER; i++)
 4053              		.loc 1 171 30 is_stmt 0 view .LVU1135
 4054 0026 1648     		ldr	r0, .L332
 4055 0028 A0FB022C 		umull	r2, ip, r0, r2
 4056              	.LVL381:
 171:System/shell/shell.c ****     for (short i = 0; i < SHELL_HISTORY_MAX_NUMBER; i++)
 4057              		.loc 1 171 30 view .LVU1136
 4058 002c 4FEA9C0C 		lsr	ip, ip, #2
 4059 0030 A4F834C0 		strh	ip, [r4, #52]	@ movhi
 172:System/shell/shell.c ****     {
 4060              		.loc 1 172 5 is_stmt 1 view .LVU1137
 4061              	.LBB32:
 172:System/shell/shell.c ****     {
 4062              		.loc 1 172 10 view .LVU1138
 4063              	.LVL382:
 172:System/shell/shell.c ****     {
 4064              		.loc 1 172 5 is_stmt 0 view .LVU1139
 4065 0034 09E0     		b	.L329
 4066              	.LVL383:
 4067              	.L330:
 174:System/shell/shell.c ****     }
 4068              		.loc 1 174 9 is_stmt 1 discriminator 3 view .LVU1140
 174:System/shell/shell.c ****     }
ARM GAS  C:\Users\8bit\AppData\Local\Temp\ccdhdvRO.s 			page 120


 4069              		.loc 1 174 68 is_stmt 0 discriminator 3 view .LVU1141
 4070 0036 03FB0CC0 		mla	r0, r3, ip, ip
 174:System/shell/shell.c ****     }
 4071              		.loc 1 174 41 discriminator 3 view .LVU1142
 4072 003a 0844     		add	r0, r0, r1
 174:System/shell/shell.c ****     }
 4073              		.loc 1 174 32 discriminator 3 view .LVU1143
 4074 003c 03F10E02 		add	r2, r3, #14
 4075 0040 04EB8202 		add	r2, r4, r2, lsl #2
 4076 0044 5060     		str	r0, [r2, #4]
 172:System/shell/shell.c ****     {
 4077              		.loc 1 172 53 is_stmt 1 discriminator 3 view .LVU1144
 172:System/shell/shell.c ****     {
 4078              		.loc 1 172 54 is_stmt 0 discriminator 3 view .LVU1145
 4079 0046 0133     		adds	r3, r3, #1
 4080              	.LVL384:
 172:System/shell/shell.c ****     {
 4081              		.loc 1 172 54 discriminator 3 view .LVU1146
 4082 0048 1BB2     		sxth	r3, r3
 4083              	.LVL385:
 4084              	.L329:
 172:System/shell/shell.c ****     {
 4085              		.loc 1 172 23 is_stmt 1 discriminator 1 view .LVU1147
 172:System/shell/shell.c ****     {
 4086              		.loc 1 172 5 is_stmt 0 discriminator 1 view .LVU1148
 4087 004a 042B     		cmp	r3, #4
 4088 004c F3DD     		ble	.L330
 4089              	.LBE32:
 186:System/shell/shell.c ****     shell->commandList.count = ((unsigned int)(&_shell_command_end) - (unsigned int)(&_shell_comman
 4090              		.loc 1 186 5 is_stmt 1 view .LVU1149
 186:System/shell/shell.c ****     shell->commandList.count = ((unsigned int)(&_shell_command_end) - (unsigned int)(&_shell_comman
 4091              		.loc 1 186 29 is_stmt 0 view .LVU1150
 4092 004e 0D4A     		ldr	r2, .L332+4
 4093 0050 A265     		str	r2, [r4, #88]
 187:System/shell/shell.c **** #else
 4094              		.loc 1 187 5 is_stmt 1 view .LVU1151
 187:System/shell/shell.c **** #else
 4095              		.loc 1 187 33 is_stmt 0 view .LVU1152
 4096 0052 0D4B     		ldr	r3, .L332+8
 4097              	.LVL386:
 187:System/shell/shell.c **** #else
 4098              		.loc 1 187 69 view .LVU1153
 4099 0054 9B1A     		subs	r3, r3, r2
 187:System/shell/shell.c **** #else
 4100              		.loc 1 187 110 view .LVU1154
 4101 0056 1B09     		lsrs	r3, r3, #4
 187:System/shell/shell.c **** #else
 4102              		.loc 1 187 30 view .LVU1155
 4103 0058 A4F85C30 		strh	r3, [r4, #92]	@ movhi
 196:System/shell/shell.c **** 
 4104              		.loc 1 196 5 is_stmt 1 view .LVU1156
 4105 005c 2046     		mov	r0, r4
 4106 005e FFF7FEFF 		bl	shellAdd
 4107              	.LVL387:
 198:System/shell/shell.c ****                                          SHELL_DEFAULT_USER,
 4108              		.loc 1 198 5 view .LVU1157
 198:System/shell/shell.c ****                                          SHELL_DEFAULT_USER,
ARM GAS  C:\Users\8bit\AppData\Local\Temp\ccdhdvRO.s 			page 121


 4109              		.loc 1 198 25 is_stmt 0 view .LVU1158
 4110 0062 0023     		movs	r3, #0
 4111 0064 A26D     		ldr	r2, [r4, #88]
 4112 0066 0949     		ldr	r1, .L332+12
 4113 0068 2046     		mov	r0, r4
 4114 006a FFF7FEFF 		bl	shellSeekCommand
 4115              	.LVL388:
 4116 006e 0146     		mov	r1, r0
 198:System/shell/shell.c ****                                          SHELL_DEFAULT_USER,
 4117              		.loc 1 198 5 view .LVU1159
 4118 0070 2046     		mov	r0, r4
 4119 0072 FFF7FEFF 		bl	shellSetUser
 4120              	.LVL389:
 202:System/shell/shell.c **** }
 4121              		.loc 1 202 5 is_stmt 1 view .LVU1160
 4122 0076 0121     		movs	r1, #1
 4123 0078 2046     		mov	r0, r4
 4124 007a FFF7FEFF 		bl	shellWriteCommandLine
 4125              	.LVL390:
 203:System/shell/shell.c **** 
 4126              		.loc 1 203 1 is_stmt 0 view .LVU1161
 4127 007e 10BD     		pop	{r4, pc}
 4128              	.LVL391:
 4129              	.L333:
 203:System/shell/shell.c **** 
 4130              		.loc 1 203 1 view .LVU1162
 4131              		.align	2
 4132              	.L332:
 4133 0080 ABAAAAAA 		.word	-1431655765
 4134 0084 00000000 		.word	_shell_command_start
 4135 0088 00000000 		.word	_shell_command_end
 4136 008c 00000000 		.word	.LC22
 4137              		.cfi_endproc
 4138              	.LFE3:
 4140              		.section	.rodata.shellHelp.str1.4,"aMS",%progbits,1
 4141              		.align	2
 4142              	.LC23:
 4143 0000 636F6D6D 		.ascii	"command help of \000"
 4143      616E6420 
 4143      68656C70 
 4143      206F6620 
 4143      00
 4144 0011 000000   		.align	2
 4145              	.LC24:
 4146 0014 436F6D6D 		.ascii	"Command not Found\015\012\000"
 4146      616E6420 
 4146      6E6F7420 
 4146      466F756E 
 4146      640D0A00 
 4147              		.section	.text.shellHelp,"ax",%progbits
 4148              		.align	1
 4149              		.global	shellHelp
 4150              		.syntax unified
 4151              		.thumb
 4152              		.thumb_func
 4154              	shellHelp:
 4155              	.LVL392:
ARM GAS  C:\Users\8bit\AppData\Local\Temp\ccdhdvRO.s 			page 122


 4156              	.LFB52:
1535:System/shell/shell.c ****     Shell *shell = shellGetCurrent();
 4157              		.loc 1 1535 1 is_stmt 1 view -0
 4158              		.cfi_startproc
 4159              		@ args = 0, pretend = 0, frame = 0
 4160              		@ frame_needed = 0, uses_anonymous_args = 0
1535:System/shell/shell.c ****     Shell *shell = shellGetCurrent();
 4161              		.loc 1 1535 1 is_stmt 0 view .LVU1164
 4162 0000 70B5     		push	{r4, r5, r6, lr}
 4163              	.LCFI56:
 4164              		.cfi_def_cfa_offset 16
 4165              		.cfi_offset 4, -16
 4166              		.cfi_offset 5, -12
 4167              		.cfi_offset 6, -8
 4168              		.cfi_offset 14, -4
 4169 0002 0446     		mov	r4, r0
 4170 0004 0D46     		mov	r5, r1
1536:System/shell/shell.c ****     SHELL_ASSERT(shell, return );
 4171              		.loc 1 1536 5 is_stmt 1 view .LVU1165
1536:System/shell/shell.c ****     SHELL_ASSERT(shell, return );
 4172              		.loc 1 1536 20 is_stmt 0 view .LVU1166
 4173 0006 FFF7FEFF 		bl	shellGetCurrent
 4174              	.LVL393:
1537:System/shell/shell.c ****     if (argc == 1)
 4175              		.loc 1 1537 5 is_stmt 1 view .LVU1167
 4176 000a 20B1     		cbz	r0, .L334
 4177 000c 0646     		mov	r6, r0
1537:System/shell/shell.c ****     if (argc == 1)
 4178              		.loc 1 1537 33 discriminator 2 view .LVU1168
1538:System/shell/shell.c ****     {
 4179              		.loc 1 1538 5 discriminator 2 view .LVU1169
1538:System/shell/shell.c ****     {
 4180              		.loc 1 1538 8 is_stmt 0 discriminator 2 view .LVU1170
 4181 000e 012C     		cmp	r4, #1
 4182 0010 02D0     		beq	.L339
1542:System/shell/shell.c ****     {
 4183              		.loc 1 1542 10 is_stmt 1 view .LVU1171
1542:System/shell/shell.c ****     {
 4184              		.loc 1 1542 13 is_stmt 0 view .LVU1172
 4185 0012 012C     		cmp	r4, #1
 4186 0014 03DC     		bgt	.L340
 4187              	.LVL394:
 4188              	.L334:
1561:System/shell/shell.c **** SHELL_EXPORT_CMD(
 4189              		.loc 1 1561 1 view .LVU1173
 4190 0016 70BD     		pop	{r4, r5, r6, pc}
 4191              	.LVL395:
 4192              	.L339:
1540:System/shell/shell.c ****     }
 4193              		.loc 1 1540 9 is_stmt 1 view .LVU1174
 4194 0018 FFF7FEFF 		bl	shellListAll
 4195              	.LVL396:
1540:System/shell/shell.c ****     }
 4196              		.loc 1 1540 9 is_stmt 0 view .LVU1175
 4197 001c FBE7     		b	.L334
 4198              	.LVL397:
 4199              	.L340:
ARM GAS  C:\Users\8bit\AppData\Local\Temp\ccdhdvRO.s 			page 123


 4200              	.LBB33:
1544:System/shell/shell.c ****                                                  argv[1],
 4201              		.loc 1 1544 9 is_stmt 1 view .LVU1176
1544:System/shell/shell.c ****                                                  argv[1],
 4202              		.loc 1 1544 33 is_stmt 0 view .LVU1177
 4203 001e 0023     		movs	r3, #0
 4204 0020 826D     		ldr	r2, [r0, #88]
 4205 0022 6968     		ldr	r1, [r5, #4]
 4206 0024 FFF7FEFF 		bl	shellSeekCommand
 4207              	.LVL398:
1548:System/shell/shell.c ****         {
 4208              		.loc 1 1548 9 is_stmt 1 view .LVU1178
1548:System/shell/shell.c ****         {
 4209              		.loc 1 1548 12 is_stmt 0 view .LVU1179
 4210 0028 0446     		mov	r4, r0
 4211              	.LVL399:
1548:System/shell/shell.c ****         {
 4212              		.loc 1 1548 12 view .LVU1180
 4213 002a D8B1     		cbz	r0, .L337
1550:System/shell/shell.c ****             shellWriteString(shell, shellGetCommandName(command));
 4214              		.loc 1 1550 13 is_stmt 1 view .LVU1181
 4215 002c 1049     		ldr	r1, .L341
 4216 002e 3046     		mov	r0, r6
 4217              	.LVL400:
1550:System/shell/shell.c ****             shellWriteString(shell, shellGetCommandName(command));
 4218              		.loc 1 1550 13 is_stmt 0 view .LVU1182
 4219 0030 FFF7FEFF 		bl	shellWriteString
 4220              	.LVL401:
1551:System/shell/shell.c ****             shellWriteString(shell, "\r\n");
 4221              		.loc 1 1551 13 is_stmt 1 view .LVU1183
 4222 0034 2046     		mov	r0, r4
 4223 0036 FFF7FEFF 		bl	shellGetCommandName
 4224              	.LVL402:
 4225 003a 0146     		mov	r1, r0
 4226 003c 3046     		mov	r0, r6
 4227 003e FFF7FEFF 		bl	shellWriteString
 4228              	.LVL403:
1552:System/shell/shell.c ****             shellWriteString(shell, shellGetCommandDesc(command));
 4229              		.loc 1 1552 13 view .LVU1184
 4230 0042 0C4D     		ldr	r5, .L341+4
 4231              	.LVL404:
1552:System/shell/shell.c ****             shellWriteString(shell, shellGetCommandDesc(command));
 4232              		.loc 1 1552 13 is_stmt 0 view .LVU1185
 4233 0044 2946     		mov	r1, r5
 4234 0046 3046     		mov	r0, r6
 4235 0048 FFF7FEFF 		bl	shellWriteString
 4236              	.LVL405:
1553:System/shell/shell.c ****             shellWriteString(shell, "\r\n");
 4237              		.loc 1 1553 13 is_stmt 1 view .LVU1186
 4238 004c 2046     		mov	r0, r4
 4239 004e FFF7FEFF 		bl	shellGetCommandDesc
 4240              	.LVL406:
 4241 0052 0146     		mov	r1, r0
 4242 0054 3046     		mov	r0, r6
 4243 0056 FFF7FEFF 		bl	shellWriteString
 4244              	.LVL407:
1554:System/shell/shell.c ****         }
ARM GAS  C:\Users\8bit\AppData\Local\Temp\ccdhdvRO.s 			page 124


 4245              		.loc 1 1554 13 view .LVU1187
 4246 005a 2946     		mov	r1, r5
 4247 005c 3046     		mov	r0, r6
 4248 005e FFF7FEFF 		bl	shellWriteString
 4249              	.LVL408:
 4250 0062 D8E7     		b	.L334
 4251              	.LVL409:
 4252              	.L337:
1558:System/shell/shell.c ****         }
 4253              		.loc 1 1558 13 view .LVU1188
 4254 0064 0449     		ldr	r1, .L341+8
 4255 0066 3046     		mov	r0, r6
 4256              	.LVL410:
1558:System/shell/shell.c ****         }
 4257              		.loc 1 1558 13 is_stmt 0 view .LVU1189
 4258 0068 FFF7FEFF 		bl	shellWriteString
 4259              	.LVL411:
 4260 006c D3E7     		b	.L334
 4261              	.L342:
 4262 006e 00BF     		.align	2
 4263              	.L341:
 4264 0070 00000000 		.word	.LC23
 4265 0074 04000000 		.word	.LC3
 4266 0078 14000000 		.word	.LC24
 4267              	.LBE33:
 4268              		.cfi_endproc
 4269              	.LFE52:
 4271              		.section	.text.shellGetVarValue,"ax",%progbits
 4272              		.align	1
 4273              		.global	shellGetVarValue
 4274              		.syntax unified
 4275              		.thumb
 4276              		.thumb_func
 4278              	shellGetVarValue:
 4279              	.LVL412:
 4280              	.LFB32:
 931:System/shell/shell.c ****     int value = 0;
 4281              		.loc 1 931 1 is_stmt 1 view -0
 4282              		.cfi_startproc
 4283              		@ args = 0, pretend = 0, frame = 0
 4284              		@ frame_needed = 0, uses_anonymous_args = 0
 931:System/shell/shell.c ****     int value = 0;
 4285              		.loc 1 931 1 is_stmt 0 view .LVU1191
 4286 0000 08B5     		push	{r3, lr}
 4287              	.LCFI57:
 4288              		.cfi_def_cfa_offset 8
 4289              		.cfi_offset 3, -8
 4290              		.cfi_offset 14, -4
 932:System/shell/shell.c ****     switch (command->attr.attrs.type)
 4291              		.loc 1 932 5 is_stmt 1 view .LVU1192
 4292              	.LVL413:
 933:System/shell/shell.c ****     {
 4293              		.loc 1 933 5 view .LVU1193
 933:System/shell/shell.c ****     {
 4294              		.loc 1 933 32 is_stmt 0 view .LVU1194
 4295 0002 4B78     		ldrb	r3, [r1, #1]	@ zero_extendqisi2
 4296 0004 03F00F03 		and	r3, r3, #15
ARM GAS  C:\Users\8bit\AppData\Local\Temp\ccdhdvRO.s 			page 125


 933:System/shell/shell.c ****     {
 4297              		.loc 1 933 5 view .LVU1195
 4298 0008 023B     		subs	r3, r3, #2
 4299 000a 052B     		cmp	r3, #5
 4300 000c 16D8     		bhi	.L351
 4301 000e DFE803F0 		tbb	[pc, r3]
 4302              	.L346:
 4303 0012 03       		.byte	(.L350-.L346)/2
 4304 0013 06       		.byte	(.L349-.L346)/2
 4305 0014 0A       		.byte	(.L348-.L346)/2
 4306 0015 0D       		.byte	(.L347-.L346)/2
 4307 0016 0D       		.byte	(.L347-.L346)/2
 4308 0017 0F       		.byte	(.L345-.L346)/2
 4309              		.p2align 1
 4310              	.L350:
 936:System/shell/shell.c ****         break;
 4311              		.loc 1 936 9 is_stmt 1 view .LVU1196
 936:System/shell/shell.c ****         break;
 4312              		.loc 1 936 44 is_stmt 0 view .LVU1197
 4313 0018 8B68     		ldr	r3, [r1, #8]
 936:System/shell/shell.c ****         break;
 4314              		.loc 1 936 15 view .LVU1198
 4315 001a 1868     		ldr	r0, [r3]
 4316              	.LVL414:
 937:System/shell/shell.c ****     case SHELL_TYPE_VAR_SHORT:
 4317              		.loc 1 937 9 is_stmt 1 view .LVU1199
 4318              	.L343:
 957:System/shell/shell.c **** 
 4319              		.loc 1 957 1 is_stmt 0 view .LVU1200
 4320 001c 08BD     		pop	{r3, pc}
 4321              	.LVL415:
 4322              	.L349:
 939:System/shell/shell.c ****         break;
 4323              		.loc 1 939 9 is_stmt 1 view .LVU1201
 939:System/shell/shell.c ****         break;
 4324              		.loc 1 939 46 is_stmt 0 view .LVU1202
 4325 001e 8B68     		ldr	r3, [r1, #8]
 939:System/shell/shell.c ****         break;
 4326              		.loc 1 939 17 view .LVU1203
 4327 0020 B3F90000 		ldrsh	r0, [r3]
 4328              	.LVL416:
 940:System/shell/shell.c ****     case SHELL_TYPE_VAR_CHAR:
 4329              		.loc 1 940 9 is_stmt 1 view .LVU1204
 4330 0024 FAE7     		b	.L343
 4331              	.LVL417:
 4332              	.L348:
 942:System/shell/shell.c ****         break;
 4333              		.loc 1 942 9 view .LVU1205
 942:System/shell/shell.c ****         break;
 4334              		.loc 1 942 45 is_stmt 0 view .LVU1206
 4335 0026 8B68     		ldr	r3, [r1, #8]
 942:System/shell/shell.c ****         break;
 4336              		.loc 1 942 17 view .LVU1207
 4337 0028 1878     		ldrb	r0, [r3]	@ zero_extendqisi2
 4338              	.LVL418:
 943:System/shell/shell.c ****     case SHELL_TYPE_VAR_STRING:
 4339              		.loc 1 943 9 is_stmt 1 view .LVU1208
ARM GAS  C:\Users\8bit\AppData\Local\Temp\ccdhdvRO.s 			page 126


 4340 002a F7E7     		b	.L343
 4341              	.LVL419:
 4342              	.L347:
 946:System/shell/shell.c ****         break;
 4343              		.loc 1 946 9 view .LVU1209
 946:System/shell/shell.c ****         break;
 4344              		.loc 1 946 40 is_stmt 0 view .LVU1210
 4345 002c 8868     		ldr	r0, [r1, #8]
 4346              	.LVL420:
 947:System/shell/shell.c ****     case SHELL_TYPE_VAR_NODE:
 4347              		.loc 1 947 9 is_stmt 1 view .LVU1211
 4348 002e F5E7     		b	.L343
 4349              	.LVL421:
 4350              	.L345:
 949:System/shell/shell.c ****                                                                          ->get(((ShellNodeVarAttr *
 4351              		.loc 1 949 9 view .LVU1212
 949:System/shell/shell.c ****                                                                          ->get(((ShellNodeVarAttr *
 4352              		.loc 1 949 55 is_stmt 0 view .LVU1213
 4353 0030 8A68     		ldr	r2, [r1, #8]
 949:System/shell/shell.c ****                                                                          ->get(((ShellNodeVarAttr *
 4354              		.loc 1 949 62 view .LVU1214
 4355 0032 5368     		ldr	r3, [r2, #4]
 951:System/shell/shell.c ****         break;
 4356              		.loc 1 951 68 view .LVU1215
 4357 0034 23B1     		cbz	r3, .L352
 949:System/shell/shell.c ****                                                                          ->get(((ShellNodeVarAttr *
 4358              		.loc 1 949 71 view .LVU1216
 4359 0036 1068     		ldr	r0, [r2]
 4360              	.LVL422:
 949:System/shell/shell.c ****                                                                          ->get(((ShellNodeVarAttr *
 4361              		.loc 1 949 71 view .LVU1217
 4362 0038 9847     		blx	r3
 4363              	.LVL423:
 949:System/shell/shell.c ****                                                                          ->get(((ShellNodeVarAttr *
 4364              		.loc 1 949 71 view .LVU1218
 4365 003a EFE7     		b	.L343
 4366              	.LVL424:
 4367              	.L351:
 933:System/shell/shell.c ****     {
 4368              		.loc 1 933 5 view .LVU1219
 4369 003c 0020     		movs	r0, #0
 4370              	.LVL425:
 933:System/shell/shell.c ****     {
 4371              		.loc 1 933 5 view .LVU1220
 4372 003e EDE7     		b	.L343
 4373              	.LVL426:
 4374              	.L352:
 951:System/shell/shell.c ****         break;
 4375              		.loc 1 951 68 view .LVU1221
 4376 0040 0020     		movs	r0, #0
 4377              	.LVL427:
 956:System/shell/shell.c **** }
 4378              		.loc 1 956 5 is_stmt 1 view .LVU1222
 956:System/shell/shell.c **** }
 4379              		.loc 1 956 12 is_stmt 0 view .LVU1223
 4380 0042 EBE7     		b	.L343
 4381              		.cfi_endproc
ARM GAS  C:\Users\8bit\AppData\Local\Temp\ccdhdvRO.s 			page 127


 4382              	.LFE32:
 4384              		.section	.rodata.shellShowVar.str1.4,"aMS",%progbits,1
 4385              		.align	2
 4386              	.LC25:
 4387 0000 203D2000 		.ascii	" = \000"
 4388              		.align	2
 4389              	.LC26:
 4390 0004 2200     		.ascii	"\"\000"
 4391              		.section	.text.shellShowVar,"ax",%progbits
 4392              		.align	1
 4393              		.syntax unified
 4394              		.thumb
 4395              		.thumb_func
 4397              	shellShowVar:
 4398              	.LVL428:
 4399              	.LFB34:
1021:System/shell/shell.c ****     char buffer[12] = "00000000000";
 4400              		.loc 1 1021 1 is_stmt 1 view -0
 4401              		.cfi_startproc
 4402              		@ args = 0, pretend = 0, frame = 16
 4403              		@ frame_needed = 0, uses_anonymous_args = 0
1021:System/shell/shell.c ****     char buffer[12] = "00000000000";
 4404              		.loc 1 1021 1 is_stmt 0 view .LVU1225
 4405 0000 70B5     		push	{r4, r5, r6, lr}
 4406              	.LCFI58:
 4407              		.cfi_def_cfa_offset 16
 4408              		.cfi_offset 4, -16
 4409              		.cfi_offset 5, -12
 4410              		.cfi_offset 6, -8
 4411              		.cfi_offset 14, -4
 4412 0002 84B0     		sub	sp, sp, #16
 4413              	.LCFI59:
 4414              		.cfi_def_cfa_offset 32
 4415 0004 0446     		mov	r4, r0
 4416 0006 0D46     		mov	r5, r1
1022:System/shell/shell.c ****     int value = shellGetVarValue(shell, command);
 4417              		.loc 1 1022 5 is_stmt 1 view .LVU1226
1022:System/shell/shell.c ****     int value = shellGetVarValue(shell, command);
 4418              		.loc 1 1022 10 is_stmt 0 view .LVU1227
 4419 0008 284B     		ldr	r3, .L361
 4420 000a 93E80700 		ldm	r3, {r0, r1, r2}
 4421              	.LVL429:
1022:System/shell/shell.c ****     int value = shellGetVarValue(shell, command);
 4422              		.loc 1 1022 10 view .LVU1228
 4423 000e 04AB     		add	r3, sp, #16
 4424 0010 03E90700 		stmdb	r3, {r0, r1, r2}
1023:System/shell/shell.c **** 
 4425              		.loc 1 1023 5 is_stmt 1 view .LVU1229
1023:System/shell/shell.c **** 
 4426              		.loc 1 1023 17 is_stmt 0 view .LVU1230
 4427 0014 2946     		mov	r1, r5
 4428 0016 2046     		mov	r0, r4
 4429 0018 FFF7FEFF 		bl	shellGetVarValue
 4430              	.LVL430:
 4431 001c 0646     		mov	r6, r0
 4432              	.LVL431:
1025:System/shell/shell.c ****     shellWriteString(shell, " = ");
ARM GAS  C:\Users\8bit\AppData\Local\Temp\ccdhdvRO.s 			page 128


 4433              		.loc 1 1025 5 is_stmt 1 view .LVU1231
 4434 001e 6968     		ldr	r1, [r5, #4]
 4435 0020 2046     		mov	r0, r4
 4436              	.LVL432:
1025:System/shell/shell.c ****     shellWriteString(shell, " = ");
 4437              		.loc 1 1025 5 is_stmt 0 view .LVU1232
 4438 0022 FFF7FEFF 		bl	shellWriteString
 4439              	.LVL433:
1026:System/shell/shell.c **** 
 4440              		.loc 1 1026 5 is_stmt 1 view .LVU1233
 4441 0026 2249     		ldr	r1, .L361+4
 4442 0028 2046     		mov	r0, r4
 4443 002a FFF7FEFF 		bl	shellWriteString
 4444              	.LVL434:
1028:System/shell/shell.c ****     {
 4445              		.loc 1 1028 5 view .LVU1234
1028:System/shell/shell.c ****     {
 4446              		.loc 1 1028 32 is_stmt 0 view .LVU1235
 4447 002e 6B78     		ldrb	r3, [r5, #1]	@ zero_extendqisi2
 4448 0030 03F00F03 		and	r3, r3, #15
1028:System/shell/shell.c ****     {
 4449              		.loc 1 1028 5 view .LVU1236
 4450 0034 052B     		cmp	r3, #5
 4451 0036 10D0     		beq	.L360
1040:System/shell/shell.c ****         shellWriteString(shell, ", 0x");
 4452              		.loc 1 1040 9 is_stmt 1 view .LVU1237
1040:System/shell/shell.c ****         shellWriteString(shell, ", 0x");
 4453              		.loc 1 1040 46 is_stmt 0 view .LVU1238
 4454 0038 01A9     		add	r1, sp, #4
 4455 003a 3046     		mov	r0, r6
 4456 003c FFF7FEFF 		bl	shellToDec
 4457              	.LVL435:
1040:System/shell/shell.c ****         shellWriteString(shell, ", 0x");
 4458              		.loc 1 1040 44 view .LVU1239
 4459 0040 C0F10B01 		rsb	r1, r0, #11
1040:System/shell/shell.c ****         shellWriteString(shell, ", 0x");
 4460              		.loc 1 1040 9 view .LVU1240
 4461 0044 01AB     		add	r3, sp, #4
 4462 0046 1944     		add	r1, r1, r3
 4463 0048 2046     		mov	r0, r4
 4464 004a FFF7FEFF 		bl	shellWriteString
 4465              	.LVL436:
1041:System/shell/shell.c ****         for (short i = 0; i < 11; i++)
 4466              		.loc 1 1041 9 is_stmt 1 view .LVU1241
 4467 004e 1949     		ldr	r1, .L361+8
 4468 0050 2046     		mov	r0, r4
 4469 0052 FFF7FEFF 		bl	shellWriteString
 4470              	.LVL437:
1042:System/shell/shell.c ****         {
 4471              		.loc 1 1042 9 view .LVU1242
 4472              	.LBB34:
1042:System/shell/shell.c ****         {
 4473              		.loc 1 1042 14 view .LVU1243
1042:System/shell/shell.c ****         {
 4474              		.loc 1 1042 20 is_stmt 0 view .LVU1244
 4475 0056 0023     		movs	r3, #0
1042:System/shell/shell.c ****         {
ARM GAS  C:\Users\8bit\AppData\Local\Temp\ccdhdvRO.s 			page 129


 4476              		.loc 1 1042 9 view .LVU1245
 4477 0058 16E0     		b	.L357
 4478              	.LVL438:
 4479              	.L360:
1042:System/shell/shell.c ****         {
 4480              		.loc 1 1042 9 view .LVU1246
 4481              	.LBE34:
1031:System/shell/shell.c ****         shellWriteString(shell, (char *)value);
 4482              		.loc 1 1031 9 is_stmt 1 view .LVU1247
 4483 005a 174D     		ldr	r5, .L361+12
 4484              	.LVL439:
1031:System/shell/shell.c ****         shellWriteString(shell, (char *)value);
 4485              		.loc 1 1031 9 is_stmt 0 view .LVU1248
 4486 005c 2946     		mov	r1, r5
 4487 005e 2046     		mov	r0, r4
 4488 0060 FFF7FEFF 		bl	shellWriteString
 4489              	.LVL440:
1032:System/shell/shell.c ****         shellWriteString(shell, "\"");
 4490              		.loc 1 1032 9 is_stmt 1 view .LVU1249
 4491 0064 3146     		mov	r1, r6
 4492 0066 2046     		mov	r0, r4
 4493 0068 FFF7FEFF 		bl	shellWriteString
 4494              	.LVL441:
1033:System/shell/shell.c ****         break;
 4495              		.loc 1 1033 9 view .LVU1250
 4496 006c 2946     		mov	r1, r5
 4497 006e 2046     		mov	r0, r4
 4498 0070 FFF7FEFF 		bl	shellWriteString
 4499              	.LVL442:
1034:System/shell/shell.c ****     // case SHELL_TYPE_VAR_INT:
 4500              		.loc 1 1034 9 view .LVU1251
 4501 0074 12E0     		b	.L356
 4502              	.LVL443:
 4503              	.L358:
 4504              	.LBB35:
1044:System/shell/shell.c ****         }
 4505              		.loc 1 1044 13 discriminator 3 view .LVU1252
1044:System/shell/shell.c ****         }
 4506              		.loc 1 1044 23 is_stmt 0 discriminator 3 view .LVU1253
 4507 0076 03F11002 		add	r2, r3, #16
 4508 007a 6A44     		add	r2, sp, r2
 4509 007c 4FF0300C 		mov	ip, #48
 4510 0080 02F80CCC 		strb	ip, [r2, #-12]
1042:System/shell/shell.c ****         {
 4511              		.loc 1 1042 35 is_stmt 1 discriminator 3 view .LVU1254
1042:System/shell/shell.c ****         {
 4512              		.loc 1 1042 36 is_stmt 0 discriminator 3 view .LVU1255
 4513 0084 0133     		adds	r3, r3, #1
 4514              	.LVL444:
1042:System/shell/shell.c ****         {
 4515              		.loc 1 1042 36 discriminator 3 view .LVU1256
 4516 0086 1BB2     		sxth	r3, r3
 4517              	.LVL445:
 4518              	.L357:
1042:System/shell/shell.c ****         {
 4519              		.loc 1 1042 27 is_stmt 1 discriminator 1 view .LVU1257
1042:System/shell/shell.c ****         {
ARM GAS  C:\Users\8bit\AppData\Local\Temp\ccdhdvRO.s 			page 130


 4520              		.loc 1 1042 9 is_stmt 0 discriminator 1 view .LVU1258
 4521 0088 0A2B     		cmp	r3, #10
 4522 008a F4DD     		ble	.L358
 4523              	.LBE35:
1046:System/shell/shell.c ****         shellWriteString(shell, buffer);
 4524              		.loc 1 1046 9 is_stmt 1 view .LVU1259
 4525 008c 01A9     		add	r1, sp, #4
 4526 008e 3046     		mov	r0, r6
 4527 0090 FFF7FEFF 		bl	shellToHex
 4528              	.LVL446:
1047:System/shell/shell.c ****         break;
 4529              		.loc 1 1047 9 view .LVU1260
 4530 0094 01A9     		add	r1, sp, #4
 4531 0096 2046     		mov	r0, r4
 4532 0098 FFF7FEFF 		bl	shellWriteString
 4533              	.LVL447:
1048:System/shell/shell.c ****     }
 4534              		.loc 1 1048 9 view .LVU1261
 4535              	.L356:
1051:System/shell/shell.c ****     return value;
 4536              		.loc 1 1051 5 view .LVU1262
 4537 009c 0749     		ldr	r1, .L361+16
 4538 009e 2046     		mov	r0, r4
 4539 00a0 FFF7FEFF 		bl	shellWriteString
 4540              	.LVL448:
1052:System/shell/shell.c **** }
 4541              		.loc 1 1052 5 view .LVU1263
1053:System/shell/shell.c **** 
 4542              		.loc 1 1053 1 is_stmt 0 view .LVU1264
 4543 00a4 3046     		mov	r0, r6
 4544 00a6 04B0     		add	sp, sp, #16
 4545              	.LCFI60:
 4546              		.cfi_def_cfa_offset 16
 4547              		@ sp needed
 4548 00a8 70BD     		pop	{r4, r5, r6, pc}
 4549              	.LVL449:
 4550              	.L362:
1053:System/shell/shell.c **** 
 4551              		.loc 1 1053 1 view .LVU1265
 4552 00aa 00BF     		.align	2
 4553              	.L361:
 4554 00ac 14000000 		.word	.LC8
 4555 00b0 00000000 		.word	.LC25
 4556 00b4 0C000000 		.word	.LC10
 4557 00b8 04000000 		.word	.LC26
 4558 00bc 04000000 		.word	.LC3
 4559              		.cfi_endproc
 4560              	.LFE34:
 4562              		.section	.rodata.shellSetVarValue.str1.4,"aMS",%progbits,1
 4563              		.align	2
 4564              	.LC27:
 4565 0000 63616E27 		.ascii	"can't set read only var\015\012\000"
 4565      74207365 
 4565      74207265 
 4565      6164206F 
 4565      6E6C7920 
 4566 001a 0000     		.align	2
ARM GAS  C:\Users\8bit\AppData\Local\Temp\ccdhdvRO.s 			page 131


 4567              	.LC28:
 4568 001c 63616E27 		.ascii	"can't set pointer\015\012\000"
 4568      74207365 
 4568      7420706F 
 4568      696E7465 
 4568      720D0A00 
 4569              		.section	.text.shellSetVarValue,"ax",%progbits
 4570              		.align	1
 4571              		.global	shellSetVarValue
 4572              		.syntax unified
 4573              		.thumb
 4574              		.thumb_func
 4576              	shellSetVarValue:
 4577              	.LVL450:
 4578              	.LFB33:
 968:System/shell/shell.c ****     if (command->attr.attrs.readOnly)
 4579              		.loc 1 968 1 is_stmt 1 view -0
 4580              		.cfi_startproc
 4581              		@ args = 0, pretend = 0, frame = 0
 4582              		@ frame_needed = 0, uses_anonymous_args = 0
 968:System/shell/shell.c ****     if (command->attr.attrs.readOnly)
 4583              		.loc 1 968 1 is_stmt 0 view .LVU1267
 4584 0000 70B5     		push	{r4, r5, r6, lr}
 4585              	.LCFI61:
 4586              		.cfi_def_cfa_offset 16
 4587              		.cfi_offset 4, -16
 4588              		.cfi_offset 5, -12
 4589              		.cfi_offset 6, -8
 4590              		.cfi_offset 14, -4
 4591 0002 0546     		mov	r5, r0
 4592 0004 0C46     		mov	r4, r1
 969:System/shell/shell.c ****     {
 4593              		.loc 1 969 5 is_stmt 1 view .LVU1268
 969:System/shell/shell.c ****     {
 4594              		.loc 1 969 9 is_stmt 0 view .LVU1269
 4595 0006 4B78     		ldrb	r3, [r1, #1]	@ zero_extendqisi2
 969:System/shell/shell.c ****     {
 4596              		.loc 1 969 8 view .LVU1270
 4597 0008 13F0400F 		tst	r3, #64
 4598 000c 0AD1     		bne	.L375
 975:System/shell/shell.c ****         {
 4599              		.loc 1 975 9 is_stmt 1 view .LVU1271
 975:System/shell/shell.c ****         {
 4600              		.loc 1 975 36 is_stmt 0 view .LVU1272
 4601 000e 4B78     		ldrb	r3, [r1, #1]	@ zero_extendqisi2
 4602 0010 03F00F03 		and	r3, r3, #15
 975:System/shell/shell.c ****         {
 4603              		.loc 1 975 9 view .LVU1273
 4604 0014 023B     		subs	r3, r3, #2
 4605 0016 052B     		cmp	r3, #5
 4606 0018 07D8     		bhi	.L365
 4607 001a DFE803F0 		tbb	[pc, r3]
 4608              	.LVL451:
 4609              	.L367:
 4610 001e 0B       		.byte	(.L372-.L367)/2
 4611 001f 0E       		.byte	(.L371-.L367)/2
 4612 0020 11       		.byte	(.L370-.L367)/2
ARM GAS  C:\Users\8bit\AppData\Local\Temp\ccdhdvRO.s 			page 132


 4613 0021 14       		.byte	(.L369-.L367)/2
 4614 0022 19       		.byte	(.L368-.L367)/2
 4615 0023 1D       		.byte	(.L366-.L367)/2
 4616              		.p2align 1
 4617              	.L375:
 971:System/shell/shell.c ****     }
 4618              		.loc 1 971 9 is_stmt 1 view .LVU1274
 4619 0024 1249     		ldr	r1, .L376
 4620              	.LVL452:
 971:System/shell/shell.c ****     }
 4621              		.loc 1 971 9 is_stmt 0 view .LVU1275
 4622 0026 FFF7FEFF 		bl	shellWriteString
 4623              	.LVL453:
 4624              	.L365:
1010:System/shell/shell.c **** }
 4625              		.loc 1 1010 5 is_stmt 1 view .LVU1276
1010:System/shell/shell.c **** }
 4626              		.loc 1 1010 12 is_stmt 0 view .LVU1277
 4627 002a 2146     		mov	r1, r4
 4628 002c 2846     		mov	r0, r5
 4629 002e FFF7FEFF 		bl	shellShowVar
 4630              	.LVL454:
1011:System/shell/shell.c **** 
 4631              		.loc 1 1011 1 view .LVU1278
 4632 0032 70BD     		pop	{r4, r5, r6, pc}
 4633              	.LVL455:
 4634              	.L372:
 978:System/shell/shell.c ****             break;
 4635              		.loc 1 978 13 is_stmt 1 view .LVU1279
 978:System/shell/shell.c ****             break;
 4636              		.loc 1 978 40 is_stmt 0 view .LVU1280
 4637 0034 A368     		ldr	r3, [r4, #8]
 978:System/shell/shell.c ****             break;
 4638              		.loc 1 978 49 view .LVU1281
 4639 0036 1A60     		str	r2, [r3]
 979:System/shell/shell.c ****         case SHELL_TYPE_VAR_SHORT:
 4640              		.loc 1 979 13 is_stmt 1 view .LVU1282
 4641 0038 F7E7     		b	.L365
 4642              	.L371:
 981:System/shell/shell.c ****             break;
 4643              		.loc 1 981 13 view .LVU1283
 981:System/shell/shell.c ****             break;
 4644              		.loc 1 981 42 is_stmt 0 view .LVU1284
 4645 003a A368     		ldr	r3, [r4, #8]
 981:System/shell/shell.c ****             break;
 4646              		.loc 1 981 51 view .LVU1285
 4647 003c 1A80     		strh	r2, [r3]	@ movhi
 982:System/shell/shell.c ****         case SHELL_TYPE_VAR_CHAR:
 4648              		.loc 1 982 13 is_stmt 1 view .LVU1286
 4649 003e F4E7     		b	.L365
 4650              	.L370:
 984:System/shell/shell.c ****             break;
 4651              		.loc 1 984 13 view .LVU1287
 984:System/shell/shell.c ****             break;
 4652              		.loc 1 984 41 is_stmt 0 view .LVU1288
 4653 0040 A368     		ldr	r3, [r4, #8]
 984:System/shell/shell.c ****             break;
ARM GAS  C:\Users\8bit\AppData\Local\Temp\ccdhdvRO.s 			page 133


 4654              		.loc 1 984 50 view .LVU1289
 4655 0042 1A70     		strb	r2, [r3]
 985:System/shell/shell.c ****         case SHELL_TYPE_VAR_STRING:
 4656              		.loc 1 985 13 is_stmt 1 view .LVU1290
 4657 0044 F1E7     		b	.L365
 4658              	.L369:
 987:System/shell/shell.c ****             break;
 4659              		.loc 1 987 13 view .LVU1291
 4660 0046 1146     		mov	r1, r2
 4661 0048 A068     		ldr	r0, [r4, #8]
 4662              	.LVL456:
 987:System/shell/shell.c ****             break;
 4663              		.loc 1 987 13 is_stmt 0 view .LVU1292
 4664 004a FFF7FEFF 		bl	shellStringCopy
 4665              	.LVL457:
 988:System/shell/shell.c ****         case SHELL_TYPE_VAR_POINT:
 4666              		.loc 1 988 13 is_stmt 1 view .LVU1293
 4667 004e ECE7     		b	.L365
 4668              	.LVL458:
 4669              	.L368:
 990:System/shell/shell.c ****             break;
 4670              		.loc 1 990 13 view .LVU1294
 4671 0050 0849     		ldr	r1, .L376+4
 4672 0052 FFF7FEFF 		bl	shellWriteString
 4673              	.LVL459:
 991:System/shell/shell.c ****         case SHELL_TYPE_VAR_NODE:
 4674              		.loc 1 991 13 view .LVU1295
 4675 0056 E8E7     		b	.L365
 4676              	.LVL460:
 4677              	.L366:
 993:System/shell/shell.c ****             {
 4678              		.loc 1 993 13 view .LVU1296
 993:System/shell/shell.c ****             {
 4679              		.loc 1 993 55 is_stmt 0 view .LVU1297
 4680 0058 A368     		ldr	r3, [r4, #8]
 993:System/shell/shell.c ****             {
 4681              		.loc 1 993 62 view .LVU1298
 4682 005a 9E68     		ldr	r6, [r3, #8]
 993:System/shell/shell.c ****             {
 4683              		.loc 1 993 16 view .LVU1299
 4684 005c 002E     		cmp	r6, #0
 4685 005e E4D0     		beq	.L365
 995:System/shell/shell.c ****                 {
 4686              		.loc 1 995 17 is_stmt 1 view .LVU1300
 995:System/shell/shell.c ****                 {
 4687              		.loc 1 995 66 is_stmt 0 view .LVU1301
 4688 0060 1868     		ldr	r0, [r3]
 4689              	.LVL461:
 995:System/shell/shell.c ****                 {
 4690              		.loc 1 995 20 view .LVU1302
 4691 0062 10B1     		cbz	r0, .L373
 997:System/shell/shell.c ****                         ->set(((ShellNodeVarAttr *)command->data.var.value)->var, value);
 4692              		.loc 1 997 21 is_stmt 1 view .LVU1303
 997:System/shell/shell.c ****                         ->set(((ShellNodeVarAttr *)command->data.var.value)->var, value);
 4693              		.loc 1 997 22 is_stmt 0 view .LVU1304
 4694 0064 1146     		mov	r1, r2
 4695 0066 B047     		blx	r6
ARM GAS  C:\Users\8bit\AppData\Local\Temp\ccdhdvRO.s 			page 134


 4696              	.LVL462:
 997:System/shell/shell.c ****                         ->set(((ShellNodeVarAttr *)command->data.var.value)->var, value);
 4697              		.loc 1 997 22 view .LVU1305
 4698 0068 DFE7     		b	.L365
 4699              	.LVL463:
 4700              	.L373:
1002:System/shell/shell.c ****                 }
 4701              		.loc 1 1002 21 is_stmt 1 view .LVU1306
1002:System/shell/shell.c ****                 }
 4702              		.loc 1 1002 22 is_stmt 0 view .LVU1307
 4703 006a 1046     		mov	r0, r2
 4704 006c B047     		blx	r6
 4705              	.LVL464:
1002:System/shell/shell.c ****                 }
 4706              		.loc 1 1002 22 view .LVU1308
 4707 006e DCE7     		b	.L365
 4708              	.L377:
 4709              		.align	2
 4710              	.L376:
 4711 0070 00000000 		.word	.LC27
 4712 0074 1C000000 		.word	.LC28
 4713              		.cfi_endproc
 4714              	.LFE33:
 4716              		.section	.rodata.shellSetVar.str1.4,"aMS",%progbits,1
 4717              		.align	2
 4718              	.LC29:
 4719 0000 56617220 		.ascii	"Var not Fount\015\012\000"
 4719      6E6F7420 
 4719      466F756E 
 4719      740D0A00 
 4720              		.align	2
 4721              	.LC30:
 4722 0010 20697320 		.ascii	" is not a var\015\012\000"
 4722      6E6F7420 
 4722      61207661 
 4722      720D0A00 
 4723              		.section	.text.shellSetVar,"ax",%progbits
 4724              		.align	1
 4725              		.global	shellSetVar
 4726              		.syntax unified
 4727              		.thumb
 4728              		.thumb_func
 4730              	shellSetVar:
 4731              	.LVL465:
 4732              	.LFB35:
1063:System/shell/shell.c ****     Shell *shell = shellGetCurrent();
 4733              		.loc 1 1063 1 is_stmt 1 view -0
 4734              		.cfi_startproc
 4735              		@ args = 0, pretend = 0, frame = 0
 4736              		@ frame_needed = 0, uses_anonymous_args = 0
1063:System/shell/shell.c ****     Shell *shell = shellGetCurrent();
 4737              		.loc 1 1063 1 is_stmt 0 view .LVU1310
 4738 0000 70B5     		push	{r4, r5, r6, lr}
 4739              	.LCFI62:
 4740              		.cfi_def_cfa_offset 16
 4741              		.cfi_offset 4, -16
 4742              		.cfi_offset 5, -12
ARM GAS  C:\Users\8bit\AppData\Local\Temp\ccdhdvRO.s 			page 135


 4743              		.cfi_offset 6, -8
 4744              		.cfi_offset 14, -4
 4745 0002 0446     		mov	r4, r0
 4746 0004 0D46     		mov	r5, r1
1064:System/shell/shell.c ****     if (shell == NULL)
 4747              		.loc 1 1064 5 is_stmt 1 view .LVU1311
1064:System/shell/shell.c ****     if (shell == NULL)
 4748              		.loc 1 1064 20 is_stmt 0 view .LVU1312
 4749 0006 FFF7FEFF 		bl	shellGetCurrent
 4750              	.LVL466:
1065:System/shell/shell.c ****     {
 4751              		.loc 1 1065 5 is_stmt 1 view .LVU1313
1065:System/shell/shell.c ****     {
 4752              		.loc 1 1065 8 is_stmt 0 view .LVU1314
 4753 000a 20B3     		cbz	r0, .L382
 4754 000c 0646     		mov	r6, r0
1069:System/shell/shell.c ****                                              name,
 4755              		.loc 1 1069 5 is_stmt 1 view .LVU1315
1069:System/shell/shell.c ****                                              name,
 4756              		.loc 1 1069 29 is_stmt 0 view .LVU1316
 4757 000e 0023     		movs	r3, #0
 4758 0010 826D     		ldr	r2, [r0, #88]
 4759 0012 2146     		mov	r1, r4
 4760 0014 FFF7FEFF 		bl	shellSeekCommand
 4761              	.LVL467:
1073:System/shell/shell.c ****     {
 4762              		.loc 1 1073 5 is_stmt 1 view .LVU1317
1073:System/shell/shell.c ****     {
 4763              		.loc 1 1073 8 is_stmt 0 view .LVU1318
 4764 0018 0146     		mov	r1, r0
 4765 001a 60B1     		cbz	r0, .L384
1078:System/shell/shell.c ****     {
 4766              		.loc 1 1078 5 is_stmt 1 view .LVU1319
1078:System/shell/shell.c ****     {
 4767              		.loc 1 1078 28 is_stmt 0 view .LVU1320
 4768 001c 4378     		ldrb	r3, [r0, #1]	@ zero_extendqisi2
 4769 001e 03F00F03 		and	r3, r3, #15
1078:System/shell/shell.c ****     {
 4770              		.loc 1 1078 55 view .LVU1321
 4771 0022 0E33     		adds	r3, r3, #14
 4772 0024 03F00F03 		and	r3, r3, #15
1078:System/shell/shell.c ****     {
 4773              		.loc 1 1078 8 view .LVU1322
 4774 0028 052B     		cmp	r3, #5
 4775 002a 0AD8     		bhi	.L385
1084:System/shell/shell.c **** }
 4776              		.loc 1 1084 5 is_stmt 1 view .LVU1323
1084:System/shell/shell.c **** }
 4777              		.loc 1 1084 12 is_stmt 0 view .LVU1324
 4778 002c 2A46     		mov	r2, r5
 4779 002e 3046     		mov	r0, r6
 4780              	.LVL468:
1084:System/shell/shell.c **** }
 4781              		.loc 1 1084 12 view .LVU1325
 4782 0030 FFF7FEFF 		bl	shellSetVarValue
 4783              	.LVL469:
 4784              	.L378:
ARM GAS  C:\Users\8bit\AppData\Local\Temp\ccdhdvRO.s 			page 136


1085:System/shell/shell.c **** SHELL_EXPORT_CMD(
 4785              		.loc 1 1085 1 view .LVU1326
 4786 0034 70BD     		pop	{r4, r5, r6, pc}
 4787              	.LVL470:
 4788              	.L384:
1075:System/shell/shell.c ****         return 0;
 4789              		.loc 1 1075 9 is_stmt 1 view .LVU1327
 4790 0036 0949     		ldr	r1, .L386
 4791 0038 3046     		mov	r0, r6
 4792              	.LVL471:
1075:System/shell/shell.c ****         return 0;
 4793              		.loc 1 1075 9 is_stmt 0 view .LVU1328
 4794 003a FFF7FEFF 		bl	shellWriteString
 4795              	.LVL472:
1076:System/shell/shell.c ****     }
 4796              		.loc 1 1076 9 is_stmt 1 view .LVU1329
1076:System/shell/shell.c ****     }
 4797              		.loc 1 1076 16 is_stmt 0 view .LVU1330
 4798 003e 0020     		movs	r0, #0
 4799 0040 F8E7     		b	.L378
 4800              	.LVL473:
 4801              	.L385:
1080:System/shell/shell.c ****         shellWriteString(shell, shellText[SHELL_TEXT_NOT_VAR]);
 4802              		.loc 1 1080 9 is_stmt 1 view .LVU1331
 4803 0042 2146     		mov	r1, r4
 4804 0044 3046     		mov	r0, r6
 4805              	.LVL474:
1080:System/shell/shell.c ****         shellWriteString(shell, shellText[SHELL_TEXT_NOT_VAR]);
 4806              		.loc 1 1080 9 is_stmt 0 view .LVU1332
 4807 0046 FFF7FEFF 		bl	shellWriteString
 4808              	.LVL475:
1081:System/shell/shell.c ****         return 0;
 4809              		.loc 1 1081 9 is_stmt 1 view .LVU1333
 4810 004a 0549     		ldr	r1, .L386+4
 4811 004c 3046     		mov	r0, r6
 4812 004e FFF7FEFF 		bl	shellWriteString
 4813              	.LVL476:
1082:System/shell/shell.c ****     }
 4814              		.loc 1 1082 9 view .LVU1334
1082:System/shell/shell.c ****     }
 4815              		.loc 1 1082 16 is_stmt 0 view .LVU1335
 4816 0052 0020     		movs	r0, #0
 4817 0054 EEE7     		b	.L378
 4818              	.LVL477:
 4819              	.L382:
1067:System/shell/shell.c ****     }
 4820              		.loc 1 1067 16 view .LVU1336
 4821 0056 0020     		movs	r0, #0
 4822              	.LVL478:
1067:System/shell/shell.c ****     }
 4823              		.loc 1 1067 16 view .LVU1337
 4824 0058 ECE7     		b	.L378
 4825              	.L387:
 4826 005a 00BF     		.align	2
 4827              	.L386:
 4828 005c 00000000 		.word	.LC29
 4829 0060 10000000 		.word	.LC30
ARM GAS  C:\Users\8bit\AppData\Local\Temp\ccdhdvRO.s 			page 137


 4830              		.cfi_endproc
 4831              	.LFE35:
 4833              		.section	.text.shellRunCommand,"ax",%progbits
 4834              		.align	1
 4835              		.global	shellRunCommand
 4836              		.syntax unified
 4837              		.thumb
 4838              		.thumb_func
 4840              	shellRunCommand:
 4841              	.LVL479:
 4842              	.LFB36:
1099:System/shell/shell.c ****     int returnValue = 0;
 4843              		.loc 1 1099 1 is_stmt 1 view -0
 4844              		.cfi_startproc
 4845              		@ args = 0, pretend = 0, frame = 0
 4846              		@ frame_needed = 0, uses_anonymous_args = 0
1099:System/shell/shell.c ****     int returnValue = 0;
 4847              		.loc 1 1099 1 is_stmt 0 view .LVU1339
 4848 0000 70B5     		push	{r4, r5, r6, lr}
 4849              	.LCFI63:
 4850              		.cfi_def_cfa_offset 16
 4851              		.cfi_offset 4, -16
 4852              		.cfi_offset 5, -12
 4853              		.cfi_offset 6, -8
 4854              		.cfi_offset 14, -4
 4855 0002 0446     		mov	r4, r0
 4856 0004 0D46     		mov	r5, r1
1100:System/shell/shell.c ****     shell->status.isActive = 1;
 4857              		.loc 1 1100 5 is_stmt 1 view .LVU1340
 4858              	.LVL480:
1101:System/shell/shell.c ****     if (command->attr.attrs.type == SHELL_TYPE_CMD_MAIN)
 4859              		.loc 1 1101 5 view .LVU1341
1101:System/shell/shell.c ****     if (command->attr.attrs.type == SHELL_TYPE_CMD_MAIN)
 4860              		.loc 1 1101 28 is_stmt 0 view .LVU1342
 4861 0006 90F86030 		ldrb	r3, [r0, #96]	@ zero_extendqisi2
 4862 000a 43F00203 		orr	r3, r3, #2
 4863 000e 80F86030 		strb	r3, [r0, #96]
1102:System/shell/shell.c ****     {
 4864              		.loc 1 1102 5 is_stmt 1 view .LVU1343
1102:System/shell/shell.c ****     {
 4865              		.loc 1 1102 34 is_stmt 0 view .LVU1344
 4866 0012 4B78     		ldrb	r3, [r1, #1]	@ zero_extendqisi2
1102:System/shell/shell.c ****     {
 4867              		.loc 1 1102 8 view .LVU1345
 4868 0014 13F00F03 		ands	r3, r3, #15
 4869 0018 14D0     		beq	.L395
1112:System/shell/shell.c ****     {
 4870              		.loc 1 1112 10 is_stmt 1 view .LVU1346
1112:System/shell/shell.c ****     {
 4871              		.loc 1 1112 13 is_stmt 0 view .LVU1347
 4872 001a 012B     		cmp	r3, #1
 4873 001c 23D0     		beq	.L396
1123:System/shell/shell.c ****     {
 4874              		.loc 1 1123 10 is_stmt 1 view .LVU1348
1123:System/shell/shell.c ****     {
 4875              		.loc 1 1123 33 is_stmt 0 view .LVU1349
 4876 001e 4A78     		ldrb	r2, [r1, #1]	@ zero_extendqisi2
ARM GAS  C:\Users\8bit\AppData\Local\Temp\ccdhdvRO.s 			page 138


 4877 0020 02F00F02 		and	r2, r2, #15
1123:System/shell/shell.c ****     {
 4878              		.loc 1 1123 61 view .LVU1350
 4879 0024 0E32     		adds	r2, r2, #14
 4880 0026 02F00F02 		and	r2, r2, #15
1123:System/shell/shell.c ****     {
 4881              		.loc 1 1123 13 view .LVU1351
 4882 002a 052A     		cmp	r2, #5
 4883 002c 2AD9     		bls	.L397
1127:System/shell/shell.c ****     {
 4884              		.loc 1 1127 10 is_stmt 1 view .LVU1352
1127:System/shell/shell.c ****     {
 4885              		.loc 1 1127 13 is_stmt 0 view .LVU1353
 4886 002e 082B     		cmp	r3, #8
 4887 0030 2CD0     		beq	.L398
1100:System/shell/shell.c ****     shell->status.isActive = 1;
 4888              		.loc 1 1100 9 view .LVU1354
 4889 0032 0026     		movs	r6, #0
 4890              	.LVL481:
 4891              	.L390:
1131:System/shell/shell.c **** 
 4892              		.loc 1 1131 5 is_stmt 1 view .LVU1355
1131:System/shell/shell.c **** 
 4893              		.loc 1 1131 28 is_stmt 0 view .LVU1356
 4894 0034 94F86030 		ldrb	r3, [r4, #96]	@ zero_extendqisi2
 4895 0038 6FF34103 		bfc	r3, #1, #1
 4896 003c 84F86030 		strb	r3, [r4, #96]
1133:System/shell/shell.c **** }
 4897              		.loc 1 1133 5 is_stmt 1 view .LVU1357
1134:System/shell/shell.c **** 
 4898              		.loc 1 1134 1 is_stmt 0 view .LVU1358
 4899 0040 3046     		mov	r0, r6
 4900 0042 70BD     		pop	{r4, r5, r6, pc}
 4901              	.LVL482:
 4902              	.L395:
1104:System/shell/shell.c ****         returnValue = command->data.cmd.function(shell->parser.paramCount,
 4903              		.loc 1 1104 9 is_stmt 1 view .LVU1359
 4904 0044 FFF7FEFF 		bl	shellRemoveParamQuotes
 4905              	.LVL483:
1105:System/shell/shell.c ****                                                  shell->parser.param);
 4906              		.loc 1 1105 9 view .LVU1360
1105:System/shell/shell.c ****                                                  shell->parser.param);
 4907              		.loc 1 1105 40 is_stmt 0 view .LVU1361
 4908 0048 AB68     		ldr	r3, [r5, #8]
1105:System/shell/shell.c ****                                                  shell->parser.param);
 4909              		.loc 1 1105 23 view .LVU1362
 4910 004a 04F11401 		add	r1, r4, #20
 4911 004e E08E     		ldrh	r0, [r4, #54]
 4912 0050 9847     		blx	r3
 4913              	.LVL484:
 4914 0052 0646     		mov	r6, r0
 4915              	.LVL485:
1107:System/shell/shell.c ****         {
 4916              		.loc 1 1107 9 is_stmt 1 view .LVU1363
1107:System/shell/shell.c ****         {
 4917              		.loc 1 1107 13 is_stmt 0 view .LVU1364
 4918 0054 6B78     		ldrb	r3, [r5, #1]	@ zero_extendqisi2
ARM GAS  C:\Users\8bit\AppData\Local\Temp\ccdhdvRO.s 			page 139


1107:System/shell/shell.c ****         {
 4919              		.loc 1 1107 12 view .LVU1365
 4920 0056 13F0200F 		tst	r3, #32
 4921 005a EBD1     		bne	.L390
1109:System/shell/shell.c ****         }
 4922              		.loc 1 1109 13 is_stmt 1 view .LVU1366
 4923 005c 0146     		mov	r1, r0
 4924 005e 2046     		mov	r0, r4
 4925              	.LVL486:
1109:System/shell/shell.c ****         }
 4926              		.loc 1 1109 13 is_stmt 0 view .LVU1367
 4927 0060 FFF7FEFF 		bl	shellWriteReturnValue
 4928              	.LVL487:
1109:System/shell/shell.c ****         }
 4929              		.loc 1 1109 13 view .LVU1368
 4930 0064 E6E7     		b	.L390
 4931              	.LVL488:
 4932              	.L396:
1114:System/shell/shell.c ****                                   command,
 4933              		.loc 1 1114 9 is_stmt 1 view .LVU1369
1114:System/shell/shell.c ****                                   command,
 4934              		.loc 1 1114 23 is_stmt 0 view .LVU1370
 4935 0066 00F11403 		add	r3, r0, #20
 4936 006a C28E     		ldrh	r2, [r0, #54]
 4937 006c FFF7FEFF 		bl	shellExtRun
 4938              	.LVL489:
1114:System/shell/shell.c ****                                   command,
 4939              		.loc 1 1114 23 view .LVU1371
 4940 0070 0646     		mov	r6, r0
 4941              	.LVL490:
1118:System/shell/shell.c ****         {
 4942              		.loc 1 1118 9 is_stmt 1 view .LVU1372
1118:System/shell/shell.c ****         {
 4943              		.loc 1 1118 13 is_stmt 0 view .LVU1373
 4944 0072 6B78     		ldrb	r3, [r5, #1]	@ zero_extendqisi2
1118:System/shell/shell.c ****         {
 4945              		.loc 1 1118 12 view .LVU1374
 4946 0074 13F0200F 		tst	r3, #32
 4947 0078 DCD1     		bne	.L390
1120:System/shell/shell.c ****         }
 4948              		.loc 1 1120 13 is_stmt 1 view .LVU1375
 4949 007a 0146     		mov	r1, r0
 4950 007c 2046     		mov	r0, r4
 4951              	.LVL491:
1120:System/shell/shell.c ****         }
 4952              		.loc 1 1120 13 is_stmt 0 view .LVU1376
 4953 007e FFF7FEFF 		bl	shellWriteReturnValue
 4954              	.LVL492:
1120:System/shell/shell.c ****         }
 4955              		.loc 1 1120 13 view .LVU1377
 4956 0082 D7E7     		b	.L390
 4957              	.LVL493:
 4958              	.L397:
1125:System/shell/shell.c ****     }
 4959              		.loc 1 1125 9 is_stmt 1 view .LVU1378
 4960 0084 FFF7FEFF 		bl	shellShowVar
 4961              	.LVL494:
ARM GAS  C:\Users\8bit\AppData\Local\Temp\ccdhdvRO.s 			page 140


1100:System/shell/shell.c ****     shell->status.isActive = 1;
 4962              		.loc 1 1100 9 is_stmt 0 view .LVU1379
 4963 0088 0026     		movs	r6, #0
 4964 008a D3E7     		b	.L390
 4965              	.LVL495:
 4966              	.L398:
1129:System/shell/shell.c ****     }
 4967              		.loc 1 1129 9 is_stmt 1 view .LVU1380
 4968 008c FFF7FEFF 		bl	shellSetUser
 4969              	.LVL496:
1100:System/shell/shell.c ****     shell->status.isActive = 1;
 4970              		.loc 1 1100 9 is_stmt 0 view .LVU1381
 4971 0090 0026     		movs	r6, #0
 4972 0092 CFE7     		b	.L390
 4973              		.cfi_endproc
 4974              	.LFE36:
 4976              		.section	.text.shellNormalInput,"ax",%progbits
 4977              		.align	1
 4978              		.global	shellNormalInput
 4979              		.syntax unified
 4980              		.thumb
 4981              		.thumb_func
 4983              	shellNormalInput:
 4984              	.LVL497:
 4985              	.LFB42:
1286:System/shell/shell.c ****     shell->status.tabFlag = 0;
 4986              		.loc 1 1286 1 is_stmt 1 view -0
 4987              		.cfi_startproc
 4988              		@ args = 0, pretend = 0, frame = 0
 4989              		@ frame_needed = 0, uses_anonymous_args = 0
1286:System/shell/shell.c ****     shell->status.tabFlag = 0;
 4990              		.loc 1 1286 1 is_stmt 0 view .LVU1383
 4991 0000 08B5     		push	{r3, lr}
 4992              	.LCFI64:
 4993              		.cfi_def_cfa_offset 8
 4994              		.cfi_offset 3, -8
 4995              		.cfi_offset 14, -4
1287:System/shell/shell.c ****     shellInsertByte(shell, data);
 4996              		.loc 1 1287 5 is_stmt 1 view .LVU1384
1287:System/shell/shell.c ****     shellInsertByte(shell, data);
 4997              		.loc 1 1287 27 is_stmt 0 view .LVU1385
 4998 0002 90F86020 		ldrb	r2, [r0, #96]	@ zero_extendqisi2
 4999 0006 6FF38202 		bfc	r2, #2, #1
 5000 000a 80F86020 		strb	r2, [r0, #96]
1288:System/shell/shell.c **** }
 5001              		.loc 1 1288 5 is_stmt 1 view .LVU1386
 5002 000e FFF7FEFF 		bl	shellInsertByte
 5003              	.LVL498:
1289:System/shell/shell.c **** 
 5004              		.loc 1 1289 1 is_stmt 0 view .LVU1387
 5005 0012 08BD     		pop	{r3, pc}
 5006              		.cfi_endproc
 5007              	.LFE42:
 5009              		.section	.text.shellExec,"ax",%progbits
 5010              		.align	1
 5011              		.global	shellExec
 5012              		.syntax unified
ARM GAS  C:\Users\8bit\AppData\Local\Temp\ccdhdvRO.s 			page 141


 5013              		.thumb
 5014              		.thumb_func
 5016              	shellExec:
 5017              	.LVL499:
 5018              	.LFB43:
1297:System/shell/shell.c **** 
 5019              		.loc 1 1297 1 is_stmt 1 view -0
 5020              		.cfi_startproc
 5021              		@ args = 0, pretend = 0, frame = 0
 5022              		@ frame_needed = 0, uses_anonymous_args = 0
1299:System/shell/shell.c ****     {
 5023              		.loc 1 1299 5 view .LVU1389
1299:System/shell/shell.c ****     {
 5024              		.loc 1 1299 22 is_stmt 0 view .LVU1390
 5025 0000 8389     		ldrh	r3, [r0, #12]
1299:System/shell/shell.c ****     {
 5026              		.loc 1 1299 8 view .LVU1391
 5027 0002 5BB3     		cbz	r3, .L406
1297:System/shell/shell.c **** 
 5028              		.loc 1 1297 1 view .LVU1392
 5029 0004 10B5     		push	{r4, lr}
 5030              	.LCFI65:
 5031              		.cfi_def_cfa_offset 8
 5032              		.cfi_offset 4, -8
 5033              		.cfi_offset 14, -4
 5034 0006 0446     		mov	r4, r0
1304:System/shell/shell.c **** 
 5035              		.loc 1 1304 5 is_stmt 1 view .LVU1393
1304:System/shell/shell.c **** 
 5036              		.loc 1 1304 18 is_stmt 0 view .LVU1394
 5037 0008 0269     		ldr	r2, [r0, #16]
1304:System/shell/shell.c **** 
 5038              		.loc 1 1304 48 view .LVU1395
 5039 000a 0021     		movs	r1, #0
 5040 000c D154     		strb	r1, [r2, r3]
1306:System/shell/shell.c ****     {
 5041              		.loc 1 1306 5 is_stmt 1 view .LVU1396
1306:System/shell/shell.c ****     {
 5042              		.loc 1 1306 9 is_stmt 0 view .LVU1397
 5043 000e 90F86030 		ldrb	r3, [r0, #96]	@ zero_extendqisi2
1306:System/shell/shell.c ****     {
 5044              		.loc 1 1306 8 view .LVU1398
 5045 0012 13F0010F 		tst	r3, #1
 5046 0016 1ED0     		beq	.L403
 5047              	.LBB36:
1308:System/shell/shell.c ****         shellParserParam(shell);
 5048              		.loc 1 1308 9 is_stmt 1 view .LVU1399
 5049 0018 FFF7FEFF 		bl	shellHistoryAdd
 5050              	.LVL500:
1309:System/shell/shell.c ****         shell->parser.length = shell->parser.cursor = 0;
 5051              		.loc 1 1309 9 view .LVU1400
 5052 001c 2046     		mov	r0, r4
 5053 001e FFF7FEFF 		bl	shellParserParam
 5054              	.LVL501:
1310:System/shell/shell.c ****         if (shell->parser.paramCount == 0)
 5055              		.loc 1 1310 9 view .LVU1401
1310:System/shell/shell.c ****         if (shell->parser.paramCount == 0)
ARM GAS  C:\Users\8bit\AppData\Local\Temp\ccdhdvRO.s 			page 142


 5056              		.loc 1 1310 53 is_stmt 0 view .LVU1402
 5057 0022 0023     		movs	r3, #0
 5058 0024 E381     		strh	r3, [r4, #14]	@ movhi
1310:System/shell/shell.c ****         if (shell->parser.paramCount == 0)
 5059              		.loc 1 1310 30 view .LVU1403
 5060 0026 A381     		strh	r3, [r4, #12]	@ movhi
1311:System/shell/shell.c ****         {
 5061              		.loc 1 1311 9 is_stmt 1 view .LVU1404
1311:System/shell/shell.c ****         {
 5062              		.loc 1 1311 26 is_stmt 0 view .LVU1405
 5063 0028 E38E     		ldrh	r3, [r4, #54]
1311:System/shell/shell.c ****         {
 5064              		.loc 1 1311 12 view .LVU1406
 5065 002a B3B1     		cbz	r3, .L401
1315:System/shell/shell.c **** 
 5066              		.loc 1 1315 9 is_stmt 1 view .LVU1407
 5067 002c 0C49     		ldr	r1, .L409
 5068 002e 2046     		mov	r0, r4
 5069 0030 FFF7FEFF 		bl	shellWriteString
 5070              	.LVL502:
1317:System/shell/shell.c ****                                                  shell->parser.param[0],
 5071              		.loc 1 1317 9 view .LVU1408
1317:System/shell/shell.c ****                                                  shell->parser.param[0],
 5072              		.loc 1 1317 33 is_stmt 0 view .LVU1409
 5073 0034 0023     		movs	r3, #0
 5074 0036 A26D     		ldr	r2, [r4, #88]
 5075 0038 6169     		ldr	r1, [r4, #20]
 5076 003a 2046     		mov	r0, r4
 5077 003c FFF7FEFF 		bl	shellSeekCommand
 5078              	.LVL503:
1321:System/shell/shell.c ****         {
 5079              		.loc 1 1321 9 is_stmt 1 view .LVU1410
1321:System/shell/shell.c ****         {
 5080              		.loc 1 1321 12 is_stmt 0 view .LVU1411
 5081 0040 0146     		mov	r1, r0
 5082 0042 18B1     		cbz	r0, .L404
1323:System/shell/shell.c ****         }
 5083              		.loc 1 1323 13 is_stmt 1 view .LVU1412
 5084 0044 2046     		mov	r0, r4
 5085              	.LVL504:
1323:System/shell/shell.c ****         }
 5086              		.loc 1 1323 13 is_stmt 0 view .LVU1413
 5087 0046 FFF7FEFF 		bl	shellRunCommand
 5088              	.LVL505:
1323:System/shell/shell.c ****         }
 5089              		.loc 1 1323 13 view .LVU1414
 5090 004a 06E0     		b	.L401
 5091              	.LVL506:
 5092              	.L404:
1327:System/shell/shell.c ****         }
 5093              		.loc 1 1327 13 is_stmt 1 view .LVU1415
 5094 004c 0549     		ldr	r1, .L409+4
 5095 004e 2046     		mov	r0, r4
 5096              	.LVL507:
1327:System/shell/shell.c ****         }
 5097              		.loc 1 1327 13 is_stmt 0 view .LVU1416
 5098 0050 FFF7FEFF 		bl	shellWriteString
ARM GAS  C:\Users\8bit\AppData\Local\Temp\ccdhdvRO.s 			page 143


 5099              	.LVL508:
 5100 0054 01E0     		b	.L401
 5101              	.LVL509:
 5102              	.L403:
1327:System/shell/shell.c ****         }
 5103              		.loc 1 1327 13 view .LVU1417
 5104              	.LBE36:
1332:System/shell/shell.c ****     }
 5105              		.loc 1 1332 9 is_stmt 1 view .LVU1418
 5106 0056 FFF7FEFF 		bl	shellCheckPassword
 5107              	.LVL510:
 5108              	.L401:
1334:System/shell/shell.c **** 
 5109              		.loc 1 1334 1 is_stmt 0 view .LVU1419
 5110 005a 10BD     		pop	{r4, pc}
 5111              	.LVL511:
 5112              	.L406:
 5113              	.LCFI66:
 5114              		.cfi_def_cfa_offset 0
 5115              		.cfi_restore 4
 5116              		.cfi_restore 14
1334:System/shell/shell.c **** 
 5117              		.loc 1 1334 1 view .LVU1420
 5118 005c 7047     		bx	lr
 5119              	.L410:
 5120 005e 00BF     		.align	2
 5121              	.L409:
 5122 0060 04000000 		.word	.LC3
 5123 0064 14000000 		.word	.LC24
 5124              		.cfi_endproc
 5125              	.LFE43:
 5127              		.section	.text.shellEnter,"ax",%progbits
 5128              		.align	1
 5129              		.global	shellEnter
 5130              		.syntax unified
 5131              		.thumb
 5132              		.thumb_func
 5134              	shellEnter:
 5135              	.LVL512:
 5136              	.LFB51:
1511:System/shell/shell.c ****     shellExec(shell);
 5137              		.loc 1 1511 1 is_stmt 1 view -0
 5138              		.cfi_startproc
 5139              		@ args = 0, pretend = 0, frame = 0
 5140              		@ frame_needed = 0, uses_anonymous_args = 0
1511:System/shell/shell.c ****     shellExec(shell);
 5141              		.loc 1 1511 1 is_stmt 0 view .LVU1422
 5142 0000 10B5     		push	{r4, lr}
 5143              	.LCFI67:
 5144              		.cfi_def_cfa_offset 8
 5145              		.cfi_offset 4, -8
 5146              		.cfi_offset 14, -4
 5147 0002 0446     		mov	r4, r0
1512:System/shell/shell.c ****     shellWriteCommandLine(shell, 1);
 5148              		.loc 1 1512 5 is_stmt 1 view .LVU1423
 5149 0004 FFF7FEFF 		bl	shellExec
 5150              	.LVL513:
ARM GAS  C:\Users\8bit\AppData\Local\Temp\ccdhdvRO.s 			page 144


1513:System/shell/shell.c **** }
 5151              		.loc 1 1513 5 view .LVU1424
 5152 0008 0121     		movs	r1, #1
 5153 000a 2046     		mov	r0, r4
 5154 000c FFF7FEFF 		bl	shellWriteCommandLine
 5155              	.LVL514:
1514:System/shell/shell.c **** #if SHELL_ENTER_LF == 1
 5156              		.loc 1 1514 1 is_stmt 0 view .LVU1425
 5157 0010 10BD     		pop	{r4, pc}
1514:System/shell/shell.c **** #if SHELL_ENTER_LF == 1
 5158              		.loc 1 1514 1 view .LVU1426
 5159              		.cfi_endproc
 5160              	.LFE51:
 5162              		.section	.text.shellHandler,"ax",%progbits
 5163              		.align	1
 5164              		.global	shellHandler
 5165              		.syntax unified
 5166              		.thumb
 5167              		.thumb_func
 5169              	shellHandler:
 5170              	.LVL515:
 5171              	.LFB53:
1573:System/shell/shell.c ****     SHELL_ASSERT(data, return );
 5172              		.loc 1 1573 1 is_stmt 1 view -0
 5173              		.cfi_startproc
 5174              		@ args = 0, pretend = 0, frame = 0
 5175              		@ frame_needed = 0, uses_anonymous_args = 0
1574:System/shell/shell.c **** 
 5176              		.loc 1 1574 5 view .LVU1428
 5177 0000 0029     		cmp	r1, #0
 5178 0002 65D0     		beq	.L426
1573:System/shell/shell.c ****     SHELL_ASSERT(data, return );
 5179              		.loc 1 1573 1 is_stmt 0 discriminator 2 view .LVU1429
 5180 0004 2DE9F047 		push	{r4, r5, r6, r7, r8, r9, r10, lr}
 5181              	.LCFI68:
 5182              		.cfi_def_cfa_offset 32
 5183              		.cfi_offset 4, -32
 5184              		.cfi_offset 5, -28
 5185              		.cfi_offset 6, -24
 5186              		.cfi_offset 7, -20
 5187              		.cfi_offset 8, -16
 5188              		.cfi_offset 9, -12
 5189              		.cfi_offset 10, -8
 5190              		.cfi_offset 14, -4
 5191 0008 0646     		mov	r6, r0
 5192 000a 8A46     		mov	r10, r1
1574:System/shell/shell.c **** 
 5193              		.loc 1 1574 32 is_stmt 1 discriminator 2 view .LVU1430
1587:System/shell/shell.c ****     int keyFilter = 0x00000000;
 5194              		.loc 1 1587 5 discriminator 2 view .LVU1431
 5195              	.LVL516:
1588:System/shell/shell.c ****     if ((shell->parser.keyValue & 0x0000FF00) != 0x00000000)
 5196              		.loc 1 1588 5 discriminator 2 view .LVU1432
1589:System/shell/shell.c ****     {
 5197              		.loc 1 1589 5 discriminator 2 view .LVU1433
1589:System/shell/shell.c ****     {
 5198              		.loc 1 1589 23 is_stmt 0 discriminator 2 view .LVU1434
ARM GAS  C:\Users\8bit\AppData\Local\Temp\ccdhdvRO.s 			page 145


 5199 000c 836B     		ldr	r3, [r0, #56]
1589:System/shell/shell.c ****     {
 5200              		.loc 1 1589 8 discriminator 2 view .LVU1435
 5201 000e 13F47F4F 		tst	r3, #65280
 5202 0012 08D1     		bne	.L421
1594:System/shell/shell.c ****     {
 5203              		.loc 1 1594 10 is_stmt 1 view .LVU1436
1594:System/shell/shell.c ****     {
 5204              		.loc 1 1594 13 is_stmt 0 view .LVU1437
 5205 0014 13F47F09 		ands	r9, r3, #16711680
 5206 0018 0AD1     		bne	.L422
1599:System/shell/shell.c ****     {
 5207              		.loc 1 1599 10 is_stmt 1 view .LVU1438
1599:System/shell/shell.c ****     {
 5208              		.loc 1 1599 13 is_stmt 0 view .LVU1439
 5209 001a 13F07F4F 		tst	r3, #-16777216
 5210 001e 0ED1     		bne	.L423
1587:System/shell/shell.c ****     int keyFilter = 0x00000000;
 5211              		.loc 1 1587 10 view .LVU1440
 5212 0020 4FF01808 		mov	r8, #24
 5213 0024 08E0     		b	.L415
 5214              	.L421:
1592:System/shell/shell.c ****     }
 5215              		.loc 1 1592 19 view .LVU1441
 5216 0026 6FF0FF09 		mvn	r9, #255
1591:System/shell/shell.c ****         keyFilter = 0xFFFFFF00;
 5217              		.loc 1 1591 23 view .LVU1442
 5218 002a 4FF00008 		mov	r8, #0
 5219 002e 03E0     		b	.L415
 5220              	.L422:
1597:System/shell/shell.c ****     }
 5221              		.loc 1 1597 19 view .LVU1443
 5222 0030 DFF8A090 		ldr	r9, .L431
1596:System/shell/shell.c ****         keyFilter = 0xFFFF0000;
 5223              		.loc 1 1596 23 view .LVU1444
 5224 0034 4FF00808 		mov	r8, #8
 5225              	.L415:
 5226              	.LVL517:
1606:System/shell/shell.c ****     for (short i = 0; i < shell->commandList.count; i++)
 5227              		.loc 1 1606 5 is_stmt 1 view .LVU1445
1606:System/shell/shell.c ****     for (short i = 0; i < shell->commandList.count; i++)
 5228              		.loc 1 1606 19 is_stmt 0 view .LVU1446
 5229 0038 B76D     		ldr	r7, [r6, #88]
 5230              	.LVL518:
1607:System/shell/shell.c ****     {
 5231              		.loc 1 1607 5 is_stmt 1 view .LVU1447
 5232              	.LBB37:
1607:System/shell/shell.c ****     {
 5233              		.loc 1 1607 10 view .LVU1448
1607:System/shell/shell.c ****     {
 5234              		.loc 1 1607 16 is_stmt 0 view .LVU1449
 5235 003a 0024     		movs	r4, #0
1607:System/shell/shell.c ****     {
 5236              		.loc 1 1607 5 view .LVU1450
 5237 003c 0DE0     		b	.L416
 5238              	.LVL519:
 5239              	.L423:
ARM GAS  C:\Users\8bit\AppData\Local\Temp\ccdhdvRO.s 			page 146


1607:System/shell/shell.c ****     {
 5240              		.loc 1 1607 5 view .LVU1451
 5241              	.LBE37:
1602:System/shell/shell.c ****     }
 5242              		.loc 1 1602 19 view .LVU1452
 5243 003e 4FF07F49 		mov	r9, #-16777216
1601:System/shell/shell.c ****         keyFilter = 0xFF000000;
 5244              		.loc 1 1601 23 view .LVU1453
 5245 0042 4FF01008 		mov	r8, #16
 5246 0046 F7E7     		b	.L415
 5247              	.LVL520:
 5248              	.L418:
 5249              	.LBB38:
1619:System/shell/shell.c ****                     {
 5250              		.loc 1 1619 21 is_stmt 1 view .LVU1454
1619:System/shell/shell.c ****                     {
 5251              		.loc 1 1619 41 is_stmt 0 view .LVU1455
 5252 0048 AB68     		ldr	r3, [r5, #8]
1619:System/shell/shell.c ****                     {
 5253              		.loc 1 1619 24 view .LVU1456
 5254 004a 0BB1     		cbz	r3, .L419
1621:System/shell/shell.c ****                     }
 5255              		.loc 1 1621 25 is_stmt 1 view .LVU1457
 5256 004c 3046     		mov	r0, r6
 5257 004e 9847     		blx	r3
 5258              	.LVL521:
 5259              	.L419:
1623:System/shell/shell.c ****                     break;
 5260              		.loc 1 1623 21 view .LVU1458
1623:System/shell/shell.c ****                     break;
 5261              		.loc 1 1623 44 is_stmt 0 view .LVU1459
 5262 0050 0023     		movs	r3, #0
 5263 0052 B363     		str	r3, [r6, #56]
1624:System/shell/shell.c ****                 }
 5264              		.loc 1 1624 21 is_stmt 1 view .LVU1460
1624:System/shell/shell.c ****                 }
 5265              		.loc 1 1624 21 is_stmt 0 view .LVU1461
 5266              	.LBE38:
1630:System/shell/shell.c ****     {
 5267              		.loc 1 1630 5 is_stmt 1 view .LVU1462
 5268 0054 33E0     		b	.L413
 5269              	.LVL522:
 5270              	.L417:
 5271              	.LBB39:
1607:System/shell/shell.c ****     {
 5272              		.loc 1 1607 53 discriminator 2 view .LVU1463
1607:System/shell/shell.c ****     {
 5273              		.loc 1 1607 54 is_stmt 0 discriminator 2 view .LVU1464
 5274 0056 0134     		adds	r4, r4, #1
 5275              	.LVL523:
1607:System/shell/shell.c ****     {
 5276              		.loc 1 1607 54 discriminator 2 view .LVU1465
 5277 0058 24B2     		sxth	r4, r4
 5278              	.LVL524:
 5279              	.L416:
1607:System/shell/shell.c ****     {
 5280              		.loc 1 1607 23 is_stmt 1 discriminator 1 view .LVU1466
ARM GAS  C:\Users\8bit\AppData\Local\Temp\ccdhdvRO.s 			page 147


1607:System/shell/shell.c ****     {
 5281              		.loc 1 1607 45 is_stmt 0 discriminator 1 view .LVU1467
 5282 005a B6F85C30 		ldrh	r3, [r6, #92]
1607:System/shell/shell.c ****     {
 5283              		.loc 1 1607 5 discriminator 1 view .LVU1468
 5284 005e 9C42     		cmp	r4, r3
 5285 0060 2ADA     		bge	.L429
1610:System/shell/shell.c ****         {
 5286              		.loc 1 1610 9 is_stmt 1 view .LVU1469
1610:System/shell/shell.c ****         {
 5287              		.loc 1 1610 17 is_stmt 0 view .LVU1470
 5288 0062 07EB0415 		add	r5, r7, r4, lsl #4
1610:System/shell/shell.c ****         {
 5289              		.loc 1 1610 37 view .LVU1471
 5290 0066 6B78     		ldrb	r3, [r5, #1]	@ zero_extendqisi2
 5291 0068 03F00F03 		and	r3, r3, #15
1610:System/shell/shell.c ****         {
 5292              		.loc 1 1610 12 view .LVU1472
 5293 006c 092B     		cmp	r3, #9
 5294 006e F2D1     		bne	.L417
1610:System/shell/shell.c ****         {
 5295              		.loc 1 1610 58 discriminator 1 view .LVU1473
 5296 0070 2946     		mov	r1, r5
 5297 0072 3046     		mov	r0, r6
 5298 0074 FFF7FEFF 		bl	shellCheckPermission
 5299              	.LVL525:
1610:System/shell/shell.c ****         {
 5300              		.loc 1 1610 55 discriminator 1 view .LVU1474
 5301 0078 0028     		cmp	r0, #0
 5302 007a ECD1     		bne	.L417
1613:System/shell/shell.c ****             {
 5303              		.loc 1 1613 13 is_stmt 1 view .LVU1475
1613:System/shell/shell.c ****             {
 5304              		.loc 1 1613 34 is_stmt 0 view .LVU1476
 5305 007c 6B68     		ldr	r3, [r5, #4]
1613:System/shell/shell.c ****             {
 5306              		.loc 1 1613 41 view .LVU1477
 5307 007e 03EA0901 		and	r1, r3, r9
1613:System/shell/shell.c ****             {
 5308              		.loc 1 1613 70 view .LVU1478
 5309 0082 B26B     		ldr	r2, [r6, #56]
1613:System/shell/shell.c ****             {
 5310              		.loc 1 1613 16 view .LVU1479
 5311 0084 9142     		cmp	r1, r2
 5312 0086 E6D1     		bne	.L417
1613:System/shell/shell.c ****             {
 5313              		.loc 1 1613 115 discriminator 1 view .LVU1480
 5314 0088 FF21     		movs	r1, #255
 5315 008a 01FA08F1 		lsl	r1, r1, r8
1613:System/shell/shell.c ****             {
 5316              		.loc 1 1613 107 discriminator 1 view .LVU1481
 5317 008e 0B40     		ands	r3, r3, r1
1613:System/shell/shell.c ****             {
 5318              		.loc 1 1613 143 discriminator 1 view .LVU1482
 5319 0090 0AFA08F1 		lsl	r1, r10, r8
1613:System/shell/shell.c ****             {
 5320              		.loc 1 1613 80 discriminator 1 view .LVU1483
ARM GAS  C:\Users\8bit\AppData\Local\Temp\ccdhdvRO.s 			page 148


 5321 0094 8B42     		cmp	r3, r1
 5322 0096 DED1     		bne	.L417
1615:System/shell/shell.c ****                 data = 0x00;
 5323              		.loc 1 1615 17 is_stmt 1 view .LVU1484
1615:System/shell/shell.c ****                 data = 0x00;
 5324              		.loc 1 1615 40 is_stmt 0 view .LVU1485
 5325 0098 0A43     		orrs	r2, r2, r1
 5326 009a B263     		str	r2, [r6, #56]
1616:System/shell/shell.c ****                 if (keyByteOffset == 0 || (base[i].data.key.value & (0xFF << (keyByteOffset - 8))) 
 5327              		.loc 1 1616 17 is_stmt 1 view .LVU1486
 5328              	.LVL526:
1617:System/shell/shell.c ****                 {
 5329              		.loc 1 1617 17 view .LVU1487
1617:System/shell/shell.c ****                 {
 5330              		.loc 1 1617 20 is_stmt 0 view .LVU1488
 5331 009c B8F1000F 		cmp	r8, #0
 5332 00a0 D2D0     		beq	.L418
1617:System/shell/shell.c ****                 {
 5333              		.loc 1 1617 60 discriminator 1 view .LVU1489
 5334 00a2 6B68     		ldr	r3, [r5, #4]
1617:System/shell/shell.c ****                 {
 5335              		.loc 1 1617 93 discriminator 1 view .LVU1490
 5336 00a4 A8F10800 		sub	r0, r8, #8
1617:System/shell/shell.c ****                 {
 5337              		.loc 1 1617 75 discriminator 1 view .LVU1491
 5338 00a8 FF22     		movs	r2, #255
 5339 00aa 02FA00F0 		lsl	r0, r2, r0
1617:System/shell/shell.c ****                 {
 5340              		.loc 1 1617 40 discriminator 1 view .LVU1492
 5341 00ae 0342     		tst	r3, r0
 5342 00b0 CAD0     		beq	.L418
1616:System/shell/shell.c ****                 if (keyByteOffset == 0 || (base[i].data.key.value & (0xFF << (keyByteOffset - 8))) 
 5343              		.loc 1 1616 22 view .LVU1493
 5344 00b2 4FF0000A 		mov	r10, #0
 5345 00b6 CEE7     		b	.L417
 5346              	.LVL527:
 5347              	.L429:
1616:System/shell/shell.c ****                 if (keyByteOffset == 0 || (base[i].data.key.value & (0xFF << (keyByteOffset - 8))) 
 5348              		.loc 1 1616 22 view .LVU1494
 5349              	.LBE39:
1630:System/shell/shell.c ****     {
 5350              		.loc 1 1630 5 is_stmt 1 view .LVU1495
1630:System/shell/shell.c ****     {
 5351              		.loc 1 1630 8 is_stmt 0 view .LVU1496
 5352 00b8 BAF1000F 		cmp	r10, #0
 5353 00bc 01D1     		bne	.L430
 5354              	.LVL528:
 5355              	.L413:
1640:System/shell/shell.c **** 
 5356              		.loc 1 1640 1 view .LVU1497
 5357 00be BDE8F087 		pop	{r4, r5, r6, r7, r8, r9, r10, pc}
 5358              	.LVL529:
 5359              	.L430:
1632:System/shell/shell.c ****         shellNormalInput(shell, data);
 5360              		.loc 1 1632 9 is_stmt 1 view .LVU1498
1632:System/shell/shell.c ****         shellNormalInput(shell, data);
 5361              		.loc 1 1632 32 is_stmt 0 view .LVU1499
ARM GAS  C:\Users\8bit\AppData\Local\Temp\ccdhdvRO.s 			page 149


 5362 00c2 0023     		movs	r3, #0
 5363 00c4 B363     		str	r3, [r6, #56]
1633:System/shell/shell.c ****     }
 5364              		.loc 1 1633 9 is_stmt 1 view .LVU1500
 5365 00c6 5146     		mov	r1, r10
 5366 00c8 3046     		mov	r0, r6
 5367 00ca FFF7FEFF 		bl	shellNormalInput
 5368              	.LVL530:
 5369 00ce F6E7     		b	.L413
 5370              	.LVL531:
 5371              	.L426:
 5372              	.LCFI69:
 5373              		.cfi_def_cfa_offset 0
 5374              		.cfi_restore 4
 5375              		.cfi_restore 5
 5376              		.cfi_restore 6
 5377              		.cfi_restore 7
 5378              		.cfi_restore 8
 5379              		.cfi_restore 9
 5380              		.cfi_restore 10
 5381              		.cfi_restore 14
1633:System/shell/shell.c ****     }
 5382              		.loc 1 1633 9 is_stmt 0 view .LVU1501
 5383 00d0 7047     		bx	lr
 5384              	.L432:
 5385 00d2 00BF     		.align	2
 5386              	.L431:
 5387 00d4 0000FFFF 		.word	-65536
 5388              		.cfi_endproc
 5389              	.LFE53:
 5391              		.section	.text.shellTask,"ax",%progbits
 5392              		.align	1
 5393              		.global	shellTask
 5394              		.syntax unified
 5395              		.thumb
 5396              		.thumb_func
 5398              	shellTask:
 5399              	.LVL532:
 5400              	.LFB54:
1675:System/shell/shell.c ****     Shell *shell = (Shell *)param;
 5401              		.loc 1 1675 1 is_stmt 1 view -0
 5402              		.cfi_startproc
 5403              		@ args = 0, pretend = 0, frame = 8
 5404              		@ frame_needed = 0, uses_anonymous_args = 0
1676:System/shell/shell.c ****     char data;
 5405              		.loc 1 1676 5 view .LVU1503
1677:System/shell/shell.c **** #if SHELL_TASK_WHILE == 1
 5406              		.loc 1 1677 5 view .LVU1504
1682:System/shell/shell.c ****         {
 5407              		.loc 1 1682 9 view .LVU1505
1682:System/shell/shell.c ****         {
 5408              		.loc 1 1682 18 is_stmt 0 view .LVU1506
 5409 0000 436E     		ldr	r3, [r0, #100]
1682:System/shell/shell.c ****         {
 5410              		.loc 1 1682 12 view .LVU1507
 5411 0002 73B1     		cbz	r3, .L436
1675:System/shell/shell.c ****     Shell *shell = (Shell *)param;
ARM GAS  C:\Users\8bit\AppData\Local\Temp\ccdhdvRO.s 			page 150


 5412              		.loc 1 1675 1 discriminator 1 view .LVU1508
 5413 0004 10B5     		push	{r4, lr}
 5414              	.LCFI70:
 5415              		.cfi_def_cfa_offset 8
 5416              		.cfi_offset 4, -8
 5417              		.cfi_offset 14, -4
 5418 0006 82B0     		sub	sp, sp, #8
 5419              	.LCFI71:
 5420              		.cfi_def_cfa_offset 16
 5421 0008 0446     		mov	r4, r0
1682:System/shell/shell.c ****         {
 5422              		.loc 1 1682 28 discriminator 1 view .LVU1509
 5423 000a 0DF10700 		add	r0, sp, #7
 5424              	.LVL533:
1682:System/shell/shell.c ****         {
 5425              		.loc 1 1682 28 discriminator 1 view .LVU1510
 5426 000e 9847     		blx	r3
 5427              	.LVL534:
1682:System/shell/shell.c ****         {
 5428              		.loc 1 1682 25 discriminator 1 view .LVU1511
 5429 0010 08B1     		cbz	r0, .L439
 5430              	.L433:
1689:System/shell/shell.c **** 
 5431              		.loc 1 1689 1 view .LVU1512
 5432 0012 02B0     		add	sp, sp, #8
 5433              	.LCFI72:
 5434              		.cfi_remember_state
 5435              		.cfi_def_cfa_offset 8
 5436              		@ sp needed
 5437 0014 10BD     		pop	{r4, pc}
 5438              	.LVL535:
 5439              	.L439:
 5440              	.LCFI73:
 5441              		.cfi_restore_state
1684:System/shell/shell.c ****         }
 5442              		.loc 1 1684 13 is_stmt 1 view .LVU1513
 5443 0016 9DF80710 		ldrb	r1, [sp, #7]	@ zero_extendqisi2
 5444 001a 2046     		mov	r0, r4
 5445 001c FFF7FEFF 		bl	shellHandler
 5446              	.LVL536:
1689:System/shell/shell.c **** 
 5447              		.loc 1 1689 1 is_stmt 0 view .LVU1514
 5448 0020 F7E7     		b	.L433
 5449              	.LVL537:
 5450              	.L436:
 5451              	.LCFI74:
 5452              		.cfi_def_cfa_offset 0
 5453              		.cfi_restore 4
 5454              		.cfi_restore 14
1689:System/shell/shell.c **** 
 5455              		.loc 1 1689 1 view .LVU1515
 5456 0022 7047     		bx	lr
 5457              		.cfi_endproc
 5458              	.LFE54:
 5460              		.section	.text.shellRun,"ax",%progbits
 5461              		.align	1
 5462              		.global	shellRun
ARM GAS  C:\Users\8bit\AppData\Local\Temp\ccdhdvRO.s 			page 151


 5463              		.syntax unified
 5464              		.thumb
 5465              		.thumb_func
 5467              	shellRun:
 5468              	.LVL538:
 5469              	.LFB60:
1762:System/shell/shell.c **** SHELL_EXPORT_CMD(
1763:System/shell/shell.c ****     SHELL_CMD_PERMISSION(0) | SHELL_CMD_TYPE(SHELL_TYPE_CMD_FUNC) | SHELL_CMD_DISABLE_RETURN,
1764:System/shell/shell.c ****     clear, shellClear, clear console);
1765:System/shell/shell.c **** 
1766:System/shell/shell.c **** /**
1767:System/shell/shell.c ****  * @brief shell执行命令
1768:System/shell/shell.c ****  *
1769:System/shell/shell.c ****  * @param shell shell对象
1770:System/shell/shell.c ****  * @param cmd 命令字符串
1771:System/shell/shell.c ****  * @return int 返回值
1772:System/shell/shell.c ****  */
1773:System/shell/shell.c **** int shellRun(Shell *shell, const char *cmd)
1774:System/shell/shell.c **** {
 5470              		.loc 1 1774 1 is_stmt 1 view -0
 5471              		.cfi_startproc
 5472              		@ args = 0, pretend = 0, frame = 0
 5473              		@ frame_needed = 0, uses_anonymous_args = 0
1775:System/shell/shell.c ****     SHELL_ASSERT(shell && cmd, return -1);
 5474              		.loc 1 1775 5 view .LVU1517
 5475 0000 28B3     		cbz	r0, .L443
1774:System/shell/shell.c ****     SHELL_ASSERT(shell && cmd, return -1);
 5476              		.loc 1 1774 1 is_stmt 0 discriminator 2 view .LVU1518
 5477 0002 70B5     		push	{r4, r5, r6, lr}
 5478              	.LCFI75:
 5479              		.cfi_def_cfa_offset 16
 5480              		.cfi_offset 4, -16
 5481              		.cfi_offset 5, -12
 5482              		.cfi_offset 6, -8
 5483              		.cfi_offset 14, -4
 5484 0004 0D46     		mov	r5, r1
 5485 0006 0446     		mov	r4, r0
 5486              		.loc 1 1775 5 discriminator 2 view .LVU1519
 5487 0008 21B3     		cbz	r1, .L444
 5488              		.loc 1 1775 42 is_stmt 1 discriminator 4 view .LVU1520
1776:System/shell/shell.c ****     char active = shell->status.isActive;
 5489              		.loc 1 1776 5 discriminator 4 view .LVU1521
 5490              		.loc 1 1776 32 is_stmt 0 discriminator 4 view .LVU1522
 5491 000a 90F86030 		ldrb	r3, [r0, #96]	@ zero_extendqisi2
 5492 000e C3F34006 		ubfx	r6, r3, #1, #1
 5493              	.LVL539:
1777:System/shell/shell.c ****     if (strlen(cmd) > shell->parser.bufferSize - 1)
 5494              		.loc 1 1777 5 is_stmt 1 discriminator 4 view .LVU1523
 5495              		.loc 1 1777 9 is_stmt 0 discriminator 4 view .LVU1524
 5496 0012 0846     		mov	r0, r1
 5497              	.LVL540:
 5498              		.loc 1 1777 9 discriminator 4 view .LVU1525
 5499 0014 FFF7FEFF 		bl	strlen
 5500              	.LVL541:
 5501              		.loc 1 1777 36 discriminator 4 view .LVU1526
 5502 0018 A38E     		ldrh	r3, [r4, #52]
 5503              		.loc 1 1777 48 discriminator 4 view .LVU1527
ARM GAS  C:\Users\8bit\AppData\Local\Temp\ccdhdvRO.s 			page 152


 5504 001a 013B     		subs	r3, r3, #1
 5505              		.loc 1 1777 8 discriminator 4 view .LVU1528
 5506 001c 9842     		cmp	r0, r3
 5507 001e 0FD8     		bhi	.L449
1778:System/shell/shell.c ****     {
1779:System/shell/shell.c ****         shellWriteString(shell, shellText[SHELL_TEXT_CMD_TOO_LONG]);
1780:System/shell/shell.c ****         return -1;
1781:System/shell/shell.c ****     }
1782:System/shell/shell.c ****     else
1783:System/shell/shell.c ****     {
1784:System/shell/shell.c ****         shell->parser.length = shellStringCopy(shell->parser.buffer, (char *)cmd);
 5508              		.loc 1 1784 9 is_stmt 1 view .LVU1529
 5509              		.loc 1 1784 32 is_stmt 0 view .LVU1530
 5510 0020 2946     		mov	r1, r5
 5511 0022 2069     		ldr	r0, [r4, #16]
 5512 0024 FFF7FEFF 		bl	shellStringCopy
 5513              	.LVL542:
 5514              		.loc 1 1784 30 view .LVU1531
 5515 0028 A081     		strh	r0, [r4, #12]	@ movhi
1785:System/shell/shell.c ****         shellExec(shell);
 5516              		.loc 1 1785 9 is_stmt 1 view .LVU1532
 5517 002a 2046     		mov	r0, r4
 5518 002c FFF7FEFF 		bl	shellExec
 5519              	.LVL543:
1786:System/shell/shell.c ****         shell->status.isActive = active;
 5520              		.loc 1 1786 9 view .LVU1533
 5521              		.loc 1 1786 32 is_stmt 0 view .LVU1534
 5522 0030 94F86030 		ldrb	r3, [r4, #96]	@ zero_extendqisi2
 5523 0034 66F34103 		bfi	r3, r6, #1, #1
 5524 0038 84F86030 		strb	r3, [r4, #96]
1787:System/shell/shell.c ****         return 0;
 5525              		.loc 1 1787 9 is_stmt 1 view .LVU1535
 5526              		.loc 1 1787 16 is_stmt 0 view .LVU1536
 5527 003c 0020     		movs	r0, #0
 5528              	.L440:
1788:System/shell/shell.c ****     }
1789:System/shell/shell.c **** }
 5529              		.loc 1 1789 1 view .LVU1537
 5530 003e 70BD     		pop	{r4, r5, r6, pc}
 5531              	.LVL544:
 5532              	.L449:
1779:System/shell/shell.c ****         return -1;
 5533              		.loc 1 1779 9 is_stmt 1 view .LVU1538
 5534 0040 0649     		ldr	r1, .L450
 5535 0042 2046     		mov	r0, r4
 5536 0044 FFF7FEFF 		bl	shellWriteString
 5537              	.LVL545:
1780:System/shell/shell.c ****     }
 5538              		.loc 1 1780 9 view .LVU1539
1780:System/shell/shell.c ****     }
 5539              		.loc 1 1780 16 is_stmt 0 view .LVU1540
 5540 0048 4FF0FF30 		mov	r0, #-1
 5541 004c F7E7     		b	.L440
 5542              	.LVL546:
 5543              	.L443:
 5544              	.LCFI76:
 5545              		.cfi_def_cfa_offset 0
ARM GAS  C:\Users\8bit\AppData\Local\Temp\ccdhdvRO.s 			page 153


 5546              		.cfi_restore 4
 5547              		.cfi_restore 5
 5548              		.cfi_restore 6
 5549              		.cfi_restore 14
1775:System/shell/shell.c ****     char active = shell->status.isActive;
 5550              		.loc 1 1775 5 view .LVU1541
 5551 004e 4FF0FF30 		mov	r0, #-1
 5552              	.LVL547:
 5553              		.loc 1 1789 1 view .LVU1542
 5554 0052 7047     		bx	lr
 5555              	.LVL548:
 5556              	.L444:
 5557              	.LCFI77:
 5558              		.cfi_def_cfa_offset 16
 5559              		.cfi_offset 4, -16
 5560              		.cfi_offset 5, -12
 5561              		.cfi_offset 6, -8
 5562              		.cfi_offset 14, -4
1775:System/shell/shell.c ****     char active = shell->status.isActive;
 5563              		.loc 1 1775 5 view .LVU1543
 5564 0054 4FF0FF30 		mov	r0, #-1
 5565              	.LVL549:
1775:System/shell/shell.c ****     char active = shell->status.isActive;
 5566              		.loc 1 1775 5 view .LVU1544
 5567 0058 F1E7     		b	.L440
 5568              	.L451:
 5569 005a 00BF     		.align	2
 5570              	.L450:
 5571 005c 00000000 		.word	.LC21
 5572              		.cfi_endproc
 5573              	.LFE60:
 5575              		.global	shellCommandclear
 5576              		.global	shellDescclear
 5577              		.global	shellCmdclear
 5578              		.global	shellCommandkeys
 5579              		.global	shellDesckeys
 5580              		.global	shellCmdkeys
 5581              		.global	shellCommandvars
 5582              		.global	shellDescvars
 5583              		.global	shellCmdvars
 5584              		.global	shellCommandcmds
 5585              		.global	shellDesccmds
 5586              		.global	shellCmdcmds
 5587              		.global	shellCommandusers
 5588              		.global	shellDescusers
 5589              		.global	shellCmdusers
 5590              		.global	shellCommandhelp
 5591              		.global	shellDeschelp
 5592              		.global	shellCmdhelp
 5593              		.global	shellKey0x0D000000
 5594              		.global	shellDesc0x0D000000
 5595              		.global	shellKey0x0A000000
 5596              		.global	shellDesc0x0A000000
 5597              		.global	shellKey0x1B5B337E
 5598              		.global	shellDesc0x1B5B337E
 5599              		.global	shellKey0x7F000000
 5600              		.global	shellDesc0x7F000000
ARM GAS  C:\Users\8bit\AppData\Local\Temp\ccdhdvRO.s 			page 154


 5601              		.global	shellKey0x08000000
 5602              		.global	shellDesc0x08000000
 5603              		.global	shellKey0x09000000
 5604              		.global	shellDesc0x09000000
 5605              		.global	shellKey0x1B5B4400
 5606              		.global	shellDesc0x1B5B4400
 5607              		.global	shellKey0x1B5B4300
 5608              		.global	shellDesc0x1B5B4300
 5609              		.global	shellKey0x1B5B4200
 5610              		.global	shellDesc0x1B5B4200
 5611              		.global	shellKey0x1B5B4100
 5612              		.global	shellDesc0x1B5B4100
 5613              		.global	shellCommandsetVar
 5614              		.global	shellDescsetVar
 5615              		.global	shellCmdsetVar
 5616              		.global	shellUserDefault
 5617              		.global	shellDesDefaultUser
 5618              		.global	shellPasswordDefaultUser
 5619              		.global	shellCmdDefaultUser
 5620              		.section	.bss.buffer.0,"aw",%nobits
 5621              		.align	2
 5622              		.set	.LANCHOR1,. + 0
 5625              	buffer.0:
 5626 0000 00000000 		.space	9
 5626      00000000 
 5626      00
 5627              		.section	.bss.shellList,"aw",%nobits
 5628              		.align	2
 5629              		.set	.LANCHOR0,. + 0
 5632              	shellList:
 5633 0000 00000000 		.space	20
 5633      00000000 
 5633      00000000 
 5633      00000000 
 5633      00000000 
 5634              		.section	.rodata.shellCmdDefaultUser,"a"
 5635              		.align	2
 5638              	shellCmdDefaultUser:
 5639 0000 502E302E 		.ascii	"P.0.Wder Squad\000"
 5639      57646572 
 5639      20537175 
 5639      616400
 5640              		.section	.rodata.shellCmdclear,"a"
 5641              		.align	2
 5644              	shellCmdclear:
 5645 0000 636C6561 		.ascii	"clear\000"
 5645      7200
 5646              		.section	.rodata.shellCmdcmds,"a"
 5647              		.align	2
 5650              	shellCmdcmds:
 5651 0000 636D6473 		.ascii	"cmds\000"
 5651      00
 5652              		.section	.rodata.shellCmdhelp,"a"
 5653              		.align	2
 5656              	shellCmdhelp:
 5657 0000 68656C70 		.ascii	"help\000"
 5657      00
ARM GAS  C:\Users\8bit\AppData\Local\Temp\ccdhdvRO.s 			page 155


 5658              		.section	.rodata.shellCmdkeys,"a"
 5659              		.align	2
 5662              	shellCmdkeys:
 5663 0000 6B657973 		.ascii	"keys\000"
 5663      00
 5664              		.section	.rodata.shellCmdsetVar,"a"
 5665              		.align	2
 5668              	shellCmdsetVar:
 5669 0000 73657456 		.ascii	"setVar\000"
 5669      617200
 5670              		.section	.rodata.shellCmdusers,"a"
 5671              		.align	2
 5674              	shellCmdusers:
 5675 0000 75736572 		.ascii	"users\000"
 5675      7300
 5676              		.section	.rodata.shellCmdvars,"a"
 5677              		.align	2
 5680              	shellCmdvars:
 5681 0000 76617273 		.ascii	"vars\000"
 5681      00
 5682              		.section	.rodata.shellDesDefaultUser,"a"
 5683              		.align	2
 5686              	shellDesDefaultUser:
 5687 0000 64656661 		.ascii	"default user\000"
 5687      756C7420 
 5687      75736572 
 5687      00
 5688              		.section	.rodata.shellDesc0x08000000,"a"
 5689              		.align	2
 5692              	shellDesc0x08000000:
 5693 0000 6261636B 		.ascii	"backspace\000"
 5693      73706163 
 5693      6500
 5694              		.section	.rodata.shellDesc0x09000000,"a"
 5695              		.align	2
 5698              	shellDesc0x09000000:
 5699 0000 74616200 		.ascii	"tab\000"
 5700              		.section	.rodata.shellDesc0x0A000000,"a"
 5701              		.align	2
 5704              	shellDesc0x0A000000:
 5705 0000 656E7465 		.ascii	"enter\000"
 5705      7200
 5706              		.section	.rodata.shellDesc0x0D000000,"a"
 5707              		.align	2
 5710              	shellDesc0x0D000000:
 5711 0000 656E7465 		.ascii	"enter\000"
 5711      7200
 5712              		.section	.rodata.shellDesc0x1B5B337E,"a"
 5713              		.align	2
 5716              	shellDesc0x1B5B337E:
 5717 0000 64656C65 		.ascii	"delete\000"
 5717      746500
 5718              		.section	.rodata.shellDesc0x1B5B4100,"a"
 5719              		.align	2
 5722              	shellDesc0x1B5B4100:
 5723 0000 757000   		.ascii	"up\000"
 5724              		.section	.rodata.shellDesc0x1B5B4200,"a"
ARM GAS  C:\Users\8bit\AppData\Local\Temp\ccdhdvRO.s 			page 156


 5725              		.align	2
 5728              	shellDesc0x1B5B4200:
 5729 0000 646F776E 		.ascii	"down\000"
 5729      00
 5730              		.section	.rodata.shellDesc0x1B5B4300,"a"
 5731              		.align	2
 5734              	shellDesc0x1B5B4300:
 5735 0000 72696768 		.ascii	"right\000"
 5735      7400
 5736              		.section	.rodata.shellDesc0x1B5B4400,"a"
 5737              		.align	2
 5740              	shellDesc0x1B5B4400:
 5741 0000 6C656674 		.ascii	"left\000"
 5741      00
 5742              		.section	.rodata.shellDesc0x7F000000,"a"
 5743              		.align	2
 5746              	shellDesc0x7F000000:
 5747 0000 6261636B 		.ascii	"backspace\000"
 5747      73706163 
 5747      6500
 5748              		.section	.rodata.shellDescclear,"a"
 5749              		.align	2
 5752              	shellDescclear:
 5753 0000 636C6561 		.ascii	"clear console\000"
 5753      7220636F 
 5753      6E736F6C 
 5753      6500
 5754              		.section	.rodata.shellDesccmds,"a"
 5755              		.align	2
 5758              	shellDesccmds:
 5759 0000 6C697374 		.ascii	"list all cmd\000"
 5759      20616C6C 
 5759      20636D64 
 5759      00
 5760              		.section	.rodata.shellDeschelp,"a"
 5761              		.align	2
 5764              	shellDeschelp:
 5765 0000 73686F77 		.ascii	"show command info\015\012help[cmd]\000"
 5765      20636F6D 
 5765      6D616E64 
 5765      20696E66 
 5765      6F0D0A68 
 5766              		.section	.rodata.shellDesckeys,"a"
 5767              		.align	2
 5770              	shellDesckeys:
 5771 0000 6C697374 		.ascii	"list all key\000"
 5771      20616C6C 
 5771      206B6579 
 5771      00
 5772              		.section	.rodata.shellDescsetVar,"a"
 5773              		.align	2
 5776              	shellDescsetVar:
 5777 0000 73657420 		.ascii	"set var\000"
 5777      76617200 
 5778              		.section	.rodata.shellDescusers,"a"
 5779              		.align	2
 5782              	shellDescusers:
ARM GAS  C:\Users\8bit\AppData\Local\Temp\ccdhdvRO.s 			page 157


 5783 0000 6C697374 		.ascii	"list all user\000"
 5783      20616C6C 
 5783      20757365 
 5783      7200
 5784              		.section	.rodata.shellDescvars,"a"
 5785              		.align	2
 5788              	shellDescvars:
 5789 0000 6C697374 		.ascii	"list all var\000"
 5789      20616C6C 
 5789      20766172 
 5789      00
 5790              		.section	.rodata.shellPasswordDefaultUser,"a"
 5791              		.align	2
 5794              	shellPasswordDefaultUser:
 5795 0000 00       		.space	1
 5796              		.section	shellCommand,"a"
 5797              		.align	2
 5800              	shellCommandclear:
 5801 0000 00210000 		.word	8448
 5802 0004 00000000 		.word	shellCmdclear
 5803 0008 00000000 		.word	shellClear
 5804 000c 00000000 		.word	shellDescclear
 5807              	shellCommandkeys:
 5808 0010 00210000 		.word	8448
 5809 0014 00000000 		.word	shellCmdkeys
 5810 0018 00000000 		.word	shellKeys
 5811 001c 00000000 		.word	shellDesckeys
 5814              	shellCommandvars:
 5815 0020 00210000 		.word	8448
 5816 0024 00000000 		.word	shellCmdvars
 5817 0028 00000000 		.word	shellVars
 5818 002c 00000000 		.word	shellDescvars
 5821              	shellCommandcmds:
 5822 0030 00210000 		.word	8448
 5823 0034 00000000 		.word	shellCmdcmds
 5824 0038 00000000 		.word	shellCmds
 5825 003c 00000000 		.word	shellDesccmds
 5828              	shellCommandusers:
 5829 0040 00210000 		.word	8448
 5830 0044 00000000 		.word	shellCmdusers
 5831 0048 00000000 		.word	shellUsers
 5832 004c 00000000 		.word	shellDescusers
 5835              	shellCommandhelp:
 5836 0050 00200000 		.word	8192
 5837 0054 00000000 		.word	shellCmdhelp
 5838 0058 00000000 		.word	shellHelp
 5839 005c 00000000 		.word	shellDeschelp
 5842              	shellKey0x0D000000:
 5843 0060 00190000 		.word	6400
 5844 0064 0000000D 		.word	218103808
 5845 0068 00000000 		.word	shellEnter
 5846 006c 00000000 		.word	shellDesc0x0D000000
 5849              	shellKey0x0A000000:
 5850 0070 00190000 		.word	6400
 5851 0074 0000000A 		.word	167772160
 5852 0078 00000000 		.word	shellEnter
 5853 007c 00000000 		.word	shellDesc0x0A000000
ARM GAS  C:\Users\8bit\AppData\Local\Temp\ccdhdvRO.s 			page 158


 5856              	shellKey0x1B5B337E:
 5857 0080 00190000 		.word	6400
 5858 0084 7E335B1B 		.word	458961790
 5859 0088 00000000 		.word	shellDelete
 5860 008c 00000000 		.word	shellDesc0x1B5B337E
 5863              	shellKey0x7F000000:
 5864 0090 00190000 		.word	6400
 5865 0094 0000007F 		.word	2130706432
 5866 0098 00000000 		.word	shellBackspace
 5867 009c 00000000 		.word	shellDesc0x7F000000
 5870              	shellKey0x08000000:
 5871 00a0 00190000 		.word	6400
 5872 00a4 00000008 		.word	134217728
 5873 00a8 00000000 		.word	shellBackspace
 5874 00ac 00000000 		.word	shellDesc0x08000000
 5877              	shellKey0x09000000:
 5878 00b0 00090000 		.word	2304
 5879 00b4 00000009 		.word	150994944
 5880 00b8 00000000 		.word	shellTab
 5881 00bc 00000000 		.word	shellDesc0x09000000
 5884              	shellKey0x1B5B4400:
 5885 00c0 00190000 		.word	6400
 5886 00c4 00445B1B 		.word	458966016
 5887 00c8 00000000 		.word	shellLeft
 5888 00cc 00000000 		.word	shellDesc0x1B5B4400
 5891              	shellKey0x1B5B4300:
 5892 00d0 00190000 		.word	6400
 5893 00d4 00435B1B 		.word	458965760
 5894 00d8 00000000 		.word	shellRight
 5895 00dc 00000000 		.word	shellDesc0x1B5B4300
 5898              	shellKey0x1B5B4200:
 5899 00e0 00090000 		.word	2304
 5900 00e4 00425B1B 		.word	458965504
 5901 00e8 00000000 		.word	shellDown
 5902 00ec 00000000 		.word	shellDesc0x1B5B4200
 5905              	shellKey0x1B5B4100:
 5906 00f0 00090000 		.word	2304
 5907 00f4 00415B1B 		.word	458965248
 5908 00f8 00000000 		.word	shellUp
 5909 00fc 00000000 		.word	shellDesc0x1B5B4100
 5912              	shellCommandsetVar:
 5913 0100 00210000 		.word	8448
 5914 0104 00000000 		.word	shellCmdsetVar
 5915 0108 00000000 		.word	shellSetVar
 5916 010c 00000000 		.word	shellDescsetVar
 5919              	shellUserDefault:
 5920 0110 00080000 		.word	2048
 5921 0114 00000000 		.word	shellCmdDefaultUser
 5922 0118 00000000 		.word	shellPasswordDefaultUser
 5923 011c 00000000 		.word	shellDesDefaultUser
 5924              		.text
 5925              	.Letext0:
 5926              		.file 2 "c:\\program files (x86)\\gnu arm embedded toolchain\\10 2021.10\\arm-none-eabi\\include\\
 5927              		.file 3 "c:\\program files (x86)\\gnu arm embedded toolchain\\10 2021.10\\arm-none-eabi\\include\\
 5928              		.file 4 "System/shell/shell.h"
 5929              		.file 5 "c:\\program files (x86)\\gnu arm embedded toolchain\\10 2021.10\\lib\\gcc\\arm-none-eabi\
 5930              		.file 6 "c:\\program files (x86)\\gnu arm embedded toolchain\\10 2021.10\\arm-none-eabi\\include\\
ARM GAS  C:\Users\8bit\AppData\Local\Temp\ccdhdvRO.s 			page 159


 5931              		.file 7 "System/shell/shell_ext.h"
 5932              		.file 8 "c:\\program files (x86)\\gnu arm embedded toolchain\\10 2021.10\\arm-none-eabi\\include\\
 5933              		.file 9 "<built-in>"
ARM GAS  C:\Users\8bit\AppData\Local\Temp\ccdhdvRO.s 			page 160


DEFINED SYMBOLS
                            *ABS*:00000000 shell.c
C:\Users\8bit\AppData\Local\Temp\ccdhdvRO.s:20     .text.shellAdd:00000000 $t
C:\Users\8bit\AppData\Local\Temp\ccdhdvRO.s:25     .text.shellAdd:00000000 shellAdd
C:\Users\8bit\AppData\Local\Temp\ccdhdvRO.s:79     .text.shellAdd:00000020 $d
C:\Users\8bit\AppData\Local\Temp\ccdhdvRO.s:84     .text.shellStringCopy:00000000 $t
C:\Users\8bit\AppData\Local\Temp\ccdhdvRO.s:89     .text.shellStringCopy:00000000 shellStringCopy
C:\Users\8bit\AppData\Local\Temp\ccdhdvRO.s:136    .text.shellStringCompare:00000000 $t
C:\Users\8bit\AppData\Local\Temp\ccdhdvRO.s:141    .text.shellStringCompare:00000000 shellStringCompare
C:\Users\8bit\AppData\Local\Temp\ccdhdvRO.s:216    .text.shellGetCommandDesc:00000000 $t
C:\Users\8bit\AppData\Local\Temp\ccdhdvRO.s:221    .text.shellGetCommandDesc:00000000 shellGetCommandDesc
C:\Users\8bit\AppData\Local\Temp\ccdhdvRO.s:278    .text.shellParserParam:00000000 $t
C:\Users\8bit\AppData\Local\Temp\ccdhdvRO.s:283    .text.shellParserParam:00000000 shellParserParam
C:\Users\8bit\AppData\Local\Temp\ccdhdvRO.s:468    .text.shellHistoryAdd:00000000 $t
C:\Users\8bit\AppData\Local\Temp\ccdhdvRO.s:473    .text.shellHistoryAdd:00000000 shellHistoryAdd
C:\Users\8bit\AppData\Local\Temp\ccdhdvRO.s:572    .text.shellRemoveParamQuotes:00000000 $t
C:\Users\8bit\AppData\Local\Temp\ccdhdvRO.s:577    .text.shellRemoveParamQuotes:00000000 shellRemoveParamQuotes
C:\Users\8bit\AppData\Local\Temp\ccdhdvRO.s:679    .text.shellGetCurrent:00000000 $t
C:\Users\8bit\AppData\Local\Temp\ccdhdvRO.s:685    .text.shellGetCurrent:00000000 shellGetCurrent
C:\Users\8bit\AppData\Local\Temp\ccdhdvRO.s:736    .text.shellGetCurrent:00000028 $d
C:\Users\8bit\AppData\Local\Temp\ccdhdvRO.s:741    .text.shellWriteByte:00000000 $t
C:\Users\8bit\AppData\Local\Temp\ccdhdvRO.s:747    .text.shellWriteByte:00000000 shellWriteByte
C:\Users\8bit\AppData\Local\Temp\ccdhdvRO.s:785    .text.shellRight:00000000 $t
C:\Users\8bit\AppData\Local\Temp\ccdhdvRO.s:791    .text.shellRight:00000000 shellRight
C:\Users\8bit\AppData\Local\Temp\ccdhdvRO.s:834    .text.shellLeft:00000000 $t
C:\Users\8bit\AppData\Local\Temp\ccdhdvRO.s:840    .text.shellLeft:00000000 shellLeft
C:\Users\8bit\AppData\Local\Temp\ccdhdvRO.s:878    .text.shellWriteString:00000000 $t
C:\Users\8bit\AppData\Local\Temp\ccdhdvRO.s:884    .text.shellWriteString:00000000 shellWriteString
C:\Users\8bit\AppData\Local\Temp\ccdhdvRO.s:927    .rodata.shellSetUser.str1.4:00000000 $d
C:\Users\8bit\AppData\Local\Temp\ccdhdvRO.s:938    .text.shellSetUser:00000000 $t
C:\Users\8bit\AppData\Local\Temp\ccdhdvRO.s:943    .text.shellSetUser:00000000 shellSetUser
C:\Users\8bit\AppData\Local\Temp\ccdhdvRO.s:1034   .text.shellSetUser:00000058 $d
C:\Users\8bit\AppData\Local\Temp\ccdhdvRO.s:1040   .rodata.shellWriteCommandLine.str1.4:00000000 $d
C:\Users\8bit\AppData\Local\Temp\ccdhdvRO.s:1056   .text.shellWriteCommandLine:00000000 $t
C:\Users\8bit\AppData\Local\Temp\ccdhdvRO.s:1061   .text.shellWriteCommandLine:00000000 shellWriteCommandLine
C:\Users\8bit\AppData\Local\Temp\ccdhdvRO.s:1144   .text.shellWriteCommandLine:0000004c $d
C:\Users\8bit\AppData\Local\Temp\ccdhdvRO.s:1153   .rodata.shellCheckPassword.str1.4:00000000 $d
C:\Users\8bit\AppData\Local\Temp\ccdhdvRO.s:1157   .text.shellCheckPassword:00000000 $t
C:\Users\8bit\AppData\Local\Temp\ccdhdvRO.s:1162   .text.shellCheckPassword:00000000 shellCheckPassword
C:\Users\8bit\AppData\Local\Temp\ccdhdvRO.s:1219   .text.shellCheckPassword:00000038 $d
C:\Users\8bit\AppData\Local\Temp\ccdhdvRO.s:1225   .text.shellClear:00000000 $t
C:\Users\8bit\AppData\Local\Temp\ccdhdvRO.s:1231   .text.shellClear:00000000 shellClear
C:\Users\8bit\AppData\Local\Temp\ccdhdvRO.s:1259   .text.shellClear:00000010 $d
C:\Users\8bit\AppData\Local\Temp\ccdhdvRO.s:1264   .text.shellPrint:00000000 $t
C:\Users\8bit\AppData\Local\Temp\ccdhdvRO.s:1270   .text.shellPrint:00000000 shellPrint
C:\Users\8bit\AppData\Local\Temp\ccdhdvRO.s:1340   .text.shellScan:00000000 $t
C:\Users\8bit\AppData\Local\Temp\ccdhdvRO.s:1346   .text.shellScan:00000000 shellScan
C:\Users\8bit\AppData\Local\Temp\ccdhdvRO.s:1487   .text.shellScan:00000074 $d
C:\Users\8bit\AppData\Local\Temp\ccdhdvRO.s:1492   .text.shellCheckPermission:00000000 $t
C:\Users\8bit\AppData\Local\Temp\ccdhdvRO.s:1498   .text.shellCheckPermission:00000000 shellCheckPermission
C:\Users\8bit\AppData\Local\Temp\ccdhdvRO.s:1564   .text.shellToHex:00000000 $t
C:\Users\8bit\AppData\Local\Temp\ccdhdvRO.s:1570   .text.shellToHex:00000000 shellToHex
C:\Users\8bit\AppData\Local\Temp\ccdhdvRO.s:1636   .text.shellGetCommandName:00000000 $t
C:\Users\8bit\AppData\Local\Temp\ccdhdvRO.s:1641   .text.shellGetCommandName:00000000 shellGetCommandName
C:\Users\8bit\AppData\Local\Temp\ccdhdvRO.s:1739   .text.shellGetCommandName:00000040 $d
C:\Users\8bit\AppData\Local\Temp\ccdhdvRO.s:1744   .text.shellToDec:00000000 $t
C:\Users\8bit\AppData\Local\Temp\ccdhdvRO.s:1750   .text.shellToDec:00000000 shellToDec
ARM GAS  C:\Users\8bit\AppData\Local\Temp\ccdhdvRO.s 			page 161


C:\Users\8bit\AppData\Local\Temp\ccdhdvRO.s:1872   .text.shellToDec:0000005c $d
C:\Users\8bit\AppData\Local\Temp\ccdhdvRO.s:1877   .rodata.shellWriteReturnValue.str1.4:00000000 $d
C:\Users\8bit\AppData\Local\Temp\ccdhdvRO.s:1887   .text.shellWriteReturnValue:00000000 $t
C:\Users\8bit\AppData\Local\Temp\ccdhdvRO.s:1892   .text.shellWriteReturnValue:00000000 shellWriteReturnValue
C:\Users\8bit\AppData\Local\Temp\ccdhdvRO.s:1997   .text.shellWriteReturnValue:00000070 $d
C:\Users\8bit\AppData\Local\Temp\ccdhdvRO.s:2005   .rodata.shellListItem.str1.4:00000000 $d
C:\Users\8bit\AppData\Local\Temp\ccdhdvRO.s:2021   .text.shellListItem:00000000 $t
C:\Users\8bit\AppData\Local\Temp\ccdhdvRO.s:2027   .text.shellListItem:00000000 shellListItem
C:\Users\8bit\AppData\Local\Temp\ccdhdvRO.s:2151   .text.shellListItem:0000007c $d
C:\Users\8bit\AppData\Local\Temp\ccdhdvRO.s:2160   .rodata.shellListCommand.str1.4:00000000 $d
C:\Users\8bit\AppData\Local\Temp\ccdhdvRO.s:2164   .text.shellListCommand:00000000 $t
C:\Users\8bit\AppData\Local\Temp\ccdhdvRO.s:2170   .text.shellListCommand:00000000 shellListCommand
C:\Users\8bit\AppData\Local\Temp\ccdhdvRO.s:2252   .text.shellListCommand:00000044 $d
C:\Users\8bit\AppData\Local\Temp\ccdhdvRO.s:2257   .text.shellCmds:00000000 $t
C:\Users\8bit\AppData\Local\Temp\ccdhdvRO.s:2263   .text.shellCmds:00000000 shellCmds
C:\Users\8bit\AppData\Local\Temp\ccdhdvRO.s:2291   .rodata.shellListVar.str1.4:00000000 $d
C:\Users\8bit\AppData\Local\Temp\ccdhdvRO.s:2295   .text.shellListVar:00000000 $t
C:\Users\8bit\AppData\Local\Temp\ccdhdvRO.s:2301   .text.shellListVar:00000000 shellListVar
C:\Users\8bit\AppData\Local\Temp\ccdhdvRO.s:2386   .text.shellListVar:00000048 $d
C:\Users\8bit\AppData\Local\Temp\ccdhdvRO.s:2391   .text.shellVars:00000000 $t
C:\Users\8bit\AppData\Local\Temp\ccdhdvRO.s:2397   .text.shellVars:00000000 shellVars
C:\Users\8bit\AppData\Local\Temp\ccdhdvRO.s:2425   .rodata.shellListUser.str1.4:00000000 $d
C:\Users\8bit\AppData\Local\Temp\ccdhdvRO.s:2429   .text.shellListUser:00000000 $t
C:\Users\8bit\AppData\Local\Temp\ccdhdvRO.s:2435   .text.shellListUser:00000000 shellListUser
C:\Users\8bit\AppData\Local\Temp\ccdhdvRO.s:2517   .text.shellListUser:00000044 $d
C:\Users\8bit\AppData\Local\Temp\ccdhdvRO.s:2522   .text.shellUsers:00000000 $t
C:\Users\8bit\AppData\Local\Temp\ccdhdvRO.s:2528   .text.shellUsers:00000000 shellUsers
C:\Users\8bit\AppData\Local\Temp\ccdhdvRO.s:2556   .rodata.shellListKey.str1.4:00000000 $d
C:\Users\8bit\AppData\Local\Temp\ccdhdvRO.s:2560   .text.shellListKey:00000000 $t
C:\Users\8bit\AppData\Local\Temp\ccdhdvRO.s:2566   .text.shellListKey:00000000 shellListKey
C:\Users\8bit\AppData\Local\Temp\ccdhdvRO.s:2648   .text.shellListKey:00000044 $d
C:\Users\8bit\AppData\Local\Temp\ccdhdvRO.s:2653   .text.shellKeys:00000000 $t
C:\Users\8bit\AppData\Local\Temp\ccdhdvRO.s:2659   .text.shellKeys:00000000 shellKeys
C:\Users\8bit\AppData\Local\Temp\ccdhdvRO.s:2687   .text.shellListAll:00000000 $t
C:\Users\8bit\AppData\Local\Temp\ccdhdvRO.s:2693   .text.shellListAll:00000000 shellListAll
C:\Users\8bit\AppData\Local\Temp\ccdhdvRO.s:2715   .rodata.shellDeleteCommandLine.str1.4:00000000 $d
C:\Users\8bit\AppData\Local\Temp\ccdhdvRO.s:2719   .text.shellDeleteCommandLine:00000000 $t
C:\Users\8bit\AppData\Local\Temp\ccdhdvRO.s:2725   .text.shellDeleteCommandLine:00000000 shellDeleteCommandLine
C:\Users\8bit\AppData\Local\Temp\ccdhdvRO.s:2770   .text.shellDeleteCommandLine:0000001c $d
C:\Users\8bit\AppData\Local\Temp\ccdhdvRO.s:2775   .text.shellClearCommandLine:00000000 $t
C:\Users\8bit\AppData\Local\Temp\ccdhdvRO.s:2781   .text.shellClearCommandLine:00000000 shellClearCommandLine
C:\Users\8bit\AppData\Local\Temp\ccdhdvRO.s:2844   .text.shellHistory:00000000 $t
C:\Users\8bit\AppData\Local\Temp\ccdhdvRO.s:2849   .text.shellHistory:00000000 shellHistory
C:\Users\8bit\AppData\Local\Temp\ccdhdvRO.s:2973   .text.shellHistory:00000094 $d
C:\Users\8bit\AppData\Local\Temp\ccdhdvRO.s:2978   .text.shellUp:00000000 $t
C:\Users\8bit\AppData\Local\Temp\ccdhdvRO.s:2984   .text.shellUp:00000000 shellUp
C:\Users\8bit\AppData\Local\Temp\ccdhdvRO.s:3007   .text.shellDown:00000000 $t
C:\Users\8bit\AppData\Local\Temp\ccdhdvRO.s:3013   .text.shellDown:00000000 shellDown
C:\Users\8bit\AppData\Local\Temp\ccdhdvRO.s:3036   .text.shellTab:00000000 $t
C:\Users\8bit\AppData\Local\Temp\ccdhdvRO.s:3042   .text.shellTab:00000000 shellTab
C:\Users\8bit\AppData\Local\Temp\ccdhdvRO.s:3304   .text.shellTab:00000110 $d
C:\Users\8bit\AppData\Local\Temp\ccdhdvRO.s:3310   .rodata.shellInsertByte.str1.4:00000000 $d
C:\Users\8bit\AppData\Local\Temp\ccdhdvRO.s:3314   .text.shellInsertByte:00000000 $t
C:\Users\8bit\AppData\Local\Temp\ccdhdvRO.s:3320   .text.shellInsertByte:00000000 shellInsertByte
C:\Users\8bit\AppData\Local\Temp\ccdhdvRO.s:3553   .text.shellInsertByte:000000b8 $d
C:\Users\8bit\AppData\Local\Temp\ccdhdvRO.s:3558   .text.shellDeleteByte:00000000 $t
C:\Users\8bit\AppData\Local\Temp\ccdhdvRO.s:3564   .text.shellDeleteByte:00000000 shellDeleteByte
ARM GAS  C:\Users\8bit\AppData\Local\Temp\ccdhdvRO.s 			page 162


C:\Users\8bit\AppData\Local\Temp\ccdhdvRO.s:3809   .text.shellBackspace:00000000 $t
C:\Users\8bit\AppData\Local\Temp\ccdhdvRO.s:3815   .text.shellBackspace:00000000 shellBackspace
C:\Users\8bit\AppData\Local\Temp\ccdhdvRO.s:3838   .text.shellDelete:00000000 $t
C:\Users\8bit\AppData\Local\Temp\ccdhdvRO.s:3844   .text.shellDelete:00000000 shellDelete
C:\Users\8bit\AppData\Local\Temp\ccdhdvRO.s:3867   .text.shellSeekCommand:00000000 $t
C:\Users\8bit\AppData\Local\Temp\ccdhdvRO.s:3873   .text.shellSeekCommand:00000000 shellSeekCommand
C:\Users\8bit\AppData\Local\Temp\ccdhdvRO.s:3999   .rodata.shellInit.str1.4:00000000 $d
C:\Users\8bit\AppData\Local\Temp\ccdhdvRO.s:4003   .text.shellInit:00000000 $t
C:\Users\8bit\AppData\Local\Temp\ccdhdvRO.s:4009   .text.shellInit:00000000 shellInit
C:\Users\8bit\AppData\Local\Temp\ccdhdvRO.s:4133   .text.shellInit:00000080 $d
C:\Users\8bit\AppData\Local\Temp\ccdhdvRO.s:4141   .rodata.shellHelp.str1.4:00000000 $d
C:\Users\8bit\AppData\Local\Temp\ccdhdvRO.s:4148   .text.shellHelp:00000000 $t
C:\Users\8bit\AppData\Local\Temp\ccdhdvRO.s:4154   .text.shellHelp:00000000 shellHelp
C:\Users\8bit\AppData\Local\Temp\ccdhdvRO.s:4264   .text.shellHelp:00000070 $d
C:\Users\8bit\AppData\Local\Temp\ccdhdvRO.s:4272   .text.shellGetVarValue:00000000 $t
C:\Users\8bit\AppData\Local\Temp\ccdhdvRO.s:4278   .text.shellGetVarValue:00000000 shellGetVarValue
C:\Users\8bit\AppData\Local\Temp\ccdhdvRO.s:4303   .text.shellGetVarValue:00000012 $d
C:\Users\8bit\AppData\Local\Temp\ccdhdvRO.s:4309   .text.shellGetVarValue:00000018 $t
C:\Users\8bit\AppData\Local\Temp\ccdhdvRO.s:4385   .rodata.shellShowVar.str1.4:00000000 $d
C:\Users\8bit\AppData\Local\Temp\ccdhdvRO.s:4392   .text.shellShowVar:00000000 $t
C:\Users\8bit\AppData\Local\Temp\ccdhdvRO.s:4397   .text.shellShowVar:00000000 shellShowVar
C:\Users\8bit\AppData\Local\Temp\ccdhdvRO.s:4554   .text.shellShowVar:000000ac $d
C:\Users\8bit\AppData\Local\Temp\ccdhdvRO.s:4563   .rodata.shellSetVarValue.str1.4:00000000 $d
C:\Users\8bit\AppData\Local\Temp\ccdhdvRO.s:4570   .text.shellSetVarValue:00000000 $t
C:\Users\8bit\AppData\Local\Temp\ccdhdvRO.s:4576   .text.shellSetVarValue:00000000 shellSetVarValue
C:\Users\8bit\AppData\Local\Temp\ccdhdvRO.s:4610   .text.shellSetVarValue:0000001e $d
C:\Users\8bit\AppData\Local\Temp\ccdhdvRO.s:4616   .text.shellSetVarValue:00000024 $t
C:\Users\8bit\AppData\Local\Temp\ccdhdvRO.s:4711   .text.shellSetVarValue:00000070 $d
C:\Users\8bit\AppData\Local\Temp\ccdhdvRO.s:4717   .rodata.shellSetVar.str1.4:00000000 $d
C:\Users\8bit\AppData\Local\Temp\ccdhdvRO.s:4724   .text.shellSetVar:00000000 $t
C:\Users\8bit\AppData\Local\Temp\ccdhdvRO.s:4730   .text.shellSetVar:00000000 shellSetVar
C:\Users\8bit\AppData\Local\Temp\ccdhdvRO.s:4828   .text.shellSetVar:0000005c $d
C:\Users\8bit\AppData\Local\Temp\ccdhdvRO.s:4834   .text.shellRunCommand:00000000 $t
C:\Users\8bit\AppData\Local\Temp\ccdhdvRO.s:4840   .text.shellRunCommand:00000000 shellRunCommand
C:\Users\8bit\AppData\Local\Temp\ccdhdvRO.s:4977   .text.shellNormalInput:00000000 $t
C:\Users\8bit\AppData\Local\Temp\ccdhdvRO.s:4983   .text.shellNormalInput:00000000 shellNormalInput
C:\Users\8bit\AppData\Local\Temp\ccdhdvRO.s:5010   .text.shellExec:00000000 $t
C:\Users\8bit\AppData\Local\Temp\ccdhdvRO.s:5016   .text.shellExec:00000000 shellExec
C:\Users\8bit\AppData\Local\Temp\ccdhdvRO.s:5122   .text.shellExec:00000060 $d
C:\Users\8bit\AppData\Local\Temp\ccdhdvRO.s:5128   .text.shellEnter:00000000 $t
C:\Users\8bit\AppData\Local\Temp\ccdhdvRO.s:5134   .text.shellEnter:00000000 shellEnter
C:\Users\8bit\AppData\Local\Temp\ccdhdvRO.s:5163   .text.shellHandler:00000000 $t
C:\Users\8bit\AppData\Local\Temp\ccdhdvRO.s:5169   .text.shellHandler:00000000 shellHandler
C:\Users\8bit\AppData\Local\Temp\ccdhdvRO.s:5387   .text.shellHandler:000000d4 $d
C:\Users\8bit\AppData\Local\Temp\ccdhdvRO.s:5392   .text.shellTask:00000000 $t
C:\Users\8bit\AppData\Local\Temp\ccdhdvRO.s:5398   .text.shellTask:00000000 shellTask
C:\Users\8bit\AppData\Local\Temp\ccdhdvRO.s:5461   .text.shellRun:00000000 $t
C:\Users\8bit\AppData\Local\Temp\ccdhdvRO.s:5467   .text.shellRun:00000000 shellRun
C:\Users\8bit\AppData\Local\Temp\ccdhdvRO.s:5571   .text.shellRun:0000005c $d
C:\Users\8bit\AppData\Local\Temp\ccdhdvRO.s:5800   shellCommand:00000000 shellCommandclear
C:\Users\8bit\AppData\Local\Temp\ccdhdvRO.s:5752   .rodata.shellDescclear:00000000 shellDescclear
C:\Users\8bit\AppData\Local\Temp\ccdhdvRO.s:5644   .rodata.shellCmdclear:00000000 shellCmdclear
C:\Users\8bit\AppData\Local\Temp\ccdhdvRO.s:5807   shellCommand:00000010 shellCommandkeys
C:\Users\8bit\AppData\Local\Temp\ccdhdvRO.s:5770   .rodata.shellDesckeys:00000000 shellDesckeys
C:\Users\8bit\AppData\Local\Temp\ccdhdvRO.s:5662   .rodata.shellCmdkeys:00000000 shellCmdkeys
C:\Users\8bit\AppData\Local\Temp\ccdhdvRO.s:5814   shellCommand:00000020 shellCommandvars
C:\Users\8bit\AppData\Local\Temp\ccdhdvRO.s:5788   .rodata.shellDescvars:00000000 shellDescvars
ARM GAS  C:\Users\8bit\AppData\Local\Temp\ccdhdvRO.s 			page 163


C:\Users\8bit\AppData\Local\Temp\ccdhdvRO.s:5680   .rodata.shellCmdvars:00000000 shellCmdvars
C:\Users\8bit\AppData\Local\Temp\ccdhdvRO.s:5821   shellCommand:00000030 shellCommandcmds
C:\Users\8bit\AppData\Local\Temp\ccdhdvRO.s:5758   .rodata.shellDesccmds:00000000 shellDesccmds
C:\Users\8bit\AppData\Local\Temp\ccdhdvRO.s:5650   .rodata.shellCmdcmds:00000000 shellCmdcmds
C:\Users\8bit\AppData\Local\Temp\ccdhdvRO.s:5828   shellCommand:00000040 shellCommandusers
C:\Users\8bit\AppData\Local\Temp\ccdhdvRO.s:5782   .rodata.shellDescusers:00000000 shellDescusers
C:\Users\8bit\AppData\Local\Temp\ccdhdvRO.s:5674   .rodata.shellCmdusers:00000000 shellCmdusers
C:\Users\8bit\AppData\Local\Temp\ccdhdvRO.s:5835   shellCommand:00000050 shellCommandhelp
C:\Users\8bit\AppData\Local\Temp\ccdhdvRO.s:5764   .rodata.shellDeschelp:00000000 shellDeschelp
C:\Users\8bit\AppData\Local\Temp\ccdhdvRO.s:5656   .rodata.shellCmdhelp:00000000 shellCmdhelp
C:\Users\8bit\AppData\Local\Temp\ccdhdvRO.s:5842   shellCommand:00000060 shellKey0x0D000000
C:\Users\8bit\AppData\Local\Temp\ccdhdvRO.s:5710   .rodata.shellDesc0x0D000000:00000000 shellDesc0x0D000000
C:\Users\8bit\AppData\Local\Temp\ccdhdvRO.s:5849   shellCommand:00000070 shellKey0x0A000000
C:\Users\8bit\AppData\Local\Temp\ccdhdvRO.s:5704   .rodata.shellDesc0x0A000000:00000000 shellDesc0x0A000000
C:\Users\8bit\AppData\Local\Temp\ccdhdvRO.s:5856   shellCommand:00000080 shellKey0x1B5B337E
C:\Users\8bit\AppData\Local\Temp\ccdhdvRO.s:5716   .rodata.shellDesc0x1B5B337E:00000000 shellDesc0x1B5B337E
C:\Users\8bit\AppData\Local\Temp\ccdhdvRO.s:5863   shellCommand:00000090 shellKey0x7F000000
C:\Users\8bit\AppData\Local\Temp\ccdhdvRO.s:5746   .rodata.shellDesc0x7F000000:00000000 shellDesc0x7F000000
C:\Users\8bit\AppData\Local\Temp\ccdhdvRO.s:5870   shellCommand:000000a0 shellKey0x08000000
C:\Users\8bit\AppData\Local\Temp\ccdhdvRO.s:5692   .rodata.shellDesc0x08000000:00000000 shellDesc0x08000000
C:\Users\8bit\AppData\Local\Temp\ccdhdvRO.s:5877   shellCommand:000000b0 shellKey0x09000000
C:\Users\8bit\AppData\Local\Temp\ccdhdvRO.s:5698   .rodata.shellDesc0x09000000:00000000 shellDesc0x09000000
C:\Users\8bit\AppData\Local\Temp\ccdhdvRO.s:5884   shellCommand:000000c0 shellKey0x1B5B4400
C:\Users\8bit\AppData\Local\Temp\ccdhdvRO.s:5740   .rodata.shellDesc0x1B5B4400:00000000 shellDesc0x1B5B4400
C:\Users\8bit\AppData\Local\Temp\ccdhdvRO.s:5891   shellCommand:000000d0 shellKey0x1B5B4300
C:\Users\8bit\AppData\Local\Temp\ccdhdvRO.s:5734   .rodata.shellDesc0x1B5B4300:00000000 shellDesc0x1B5B4300
C:\Users\8bit\AppData\Local\Temp\ccdhdvRO.s:5898   shellCommand:000000e0 shellKey0x1B5B4200
C:\Users\8bit\AppData\Local\Temp\ccdhdvRO.s:5728   .rodata.shellDesc0x1B5B4200:00000000 shellDesc0x1B5B4200
C:\Users\8bit\AppData\Local\Temp\ccdhdvRO.s:5905   shellCommand:000000f0 shellKey0x1B5B4100
C:\Users\8bit\AppData\Local\Temp\ccdhdvRO.s:5722   .rodata.shellDesc0x1B5B4100:00000000 shellDesc0x1B5B4100
C:\Users\8bit\AppData\Local\Temp\ccdhdvRO.s:5912   shellCommand:00000100 shellCommandsetVar
C:\Users\8bit\AppData\Local\Temp\ccdhdvRO.s:5776   .rodata.shellDescsetVar:00000000 shellDescsetVar
C:\Users\8bit\AppData\Local\Temp\ccdhdvRO.s:5668   .rodata.shellCmdsetVar:00000000 shellCmdsetVar
C:\Users\8bit\AppData\Local\Temp\ccdhdvRO.s:5919   shellCommand:00000110 shellUserDefault
C:\Users\8bit\AppData\Local\Temp\ccdhdvRO.s:5686   .rodata.shellDesDefaultUser:00000000 shellDesDefaultUser
C:\Users\8bit\AppData\Local\Temp\ccdhdvRO.s:5794   .rodata.shellPasswordDefaultUser:00000000 shellPasswordDefaultUser
C:\Users\8bit\AppData\Local\Temp\ccdhdvRO.s:5638   .rodata.shellCmdDefaultUser:00000000 shellCmdDefaultUser
C:\Users\8bit\AppData\Local\Temp\ccdhdvRO.s:5621   .bss.buffer.0:00000000 $d
C:\Users\8bit\AppData\Local\Temp\ccdhdvRO.s:5625   .bss.buffer.0:00000000 buffer.0
C:\Users\8bit\AppData\Local\Temp\ccdhdvRO.s:5628   .bss.shellList:00000000 $d
C:\Users\8bit\AppData\Local\Temp\ccdhdvRO.s:5632   .bss.shellList:00000000 shellList
C:\Users\8bit\AppData\Local\Temp\ccdhdvRO.s:5635   .rodata.shellCmdDefaultUser:00000000 $d
C:\Users\8bit\AppData\Local\Temp\ccdhdvRO.s:5641   .rodata.shellCmdclear:00000000 $d
C:\Users\8bit\AppData\Local\Temp\ccdhdvRO.s:5647   .rodata.shellCmdcmds:00000000 $d
C:\Users\8bit\AppData\Local\Temp\ccdhdvRO.s:5653   .rodata.shellCmdhelp:00000000 $d
C:\Users\8bit\AppData\Local\Temp\ccdhdvRO.s:5659   .rodata.shellCmdkeys:00000000 $d
C:\Users\8bit\AppData\Local\Temp\ccdhdvRO.s:5665   .rodata.shellCmdsetVar:00000000 $d
C:\Users\8bit\AppData\Local\Temp\ccdhdvRO.s:5671   .rodata.shellCmdusers:00000000 $d
C:\Users\8bit\AppData\Local\Temp\ccdhdvRO.s:5677   .rodata.shellCmdvars:00000000 $d
C:\Users\8bit\AppData\Local\Temp\ccdhdvRO.s:5683   .rodata.shellDesDefaultUser:00000000 $d
C:\Users\8bit\AppData\Local\Temp\ccdhdvRO.s:5689   .rodata.shellDesc0x08000000:00000000 $d
C:\Users\8bit\AppData\Local\Temp\ccdhdvRO.s:5695   .rodata.shellDesc0x09000000:00000000 $d
C:\Users\8bit\AppData\Local\Temp\ccdhdvRO.s:5701   .rodata.shellDesc0x0A000000:00000000 $d
C:\Users\8bit\AppData\Local\Temp\ccdhdvRO.s:5707   .rodata.shellDesc0x0D000000:00000000 $d
C:\Users\8bit\AppData\Local\Temp\ccdhdvRO.s:5713   .rodata.shellDesc0x1B5B337E:00000000 $d
C:\Users\8bit\AppData\Local\Temp\ccdhdvRO.s:5719   .rodata.shellDesc0x1B5B4100:00000000 $d
C:\Users\8bit\AppData\Local\Temp\ccdhdvRO.s:5725   .rodata.shellDesc0x1B5B4200:00000000 $d
ARM GAS  C:\Users\8bit\AppData\Local\Temp\ccdhdvRO.s 			page 164


C:\Users\8bit\AppData\Local\Temp\ccdhdvRO.s:5731   .rodata.shellDesc0x1B5B4300:00000000 $d
C:\Users\8bit\AppData\Local\Temp\ccdhdvRO.s:5737   .rodata.shellDesc0x1B5B4400:00000000 $d
C:\Users\8bit\AppData\Local\Temp\ccdhdvRO.s:5743   .rodata.shellDesc0x7F000000:00000000 $d
C:\Users\8bit\AppData\Local\Temp\ccdhdvRO.s:5749   .rodata.shellDescclear:00000000 $d
C:\Users\8bit\AppData\Local\Temp\ccdhdvRO.s:5755   .rodata.shellDesccmds:00000000 $d
C:\Users\8bit\AppData\Local\Temp\ccdhdvRO.s:5761   .rodata.shellDeschelp:00000000 $d
C:\Users\8bit\AppData\Local\Temp\ccdhdvRO.s:5767   .rodata.shellDesckeys:00000000 $d
C:\Users\8bit\AppData\Local\Temp\ccdhdvRO.s:5773   .rodata.shellDescsetVar:00000000 $d
C:\Users\8bit\AppData\Local\Temp\ccdhdvRO.s:5779   .rodata.shellDescusers:00000000 $d
C:\Users\8bit\AppData\Local\Temp\ccdhdvRO.s:5785   .rodata.shellDescvars:00000000 $d
C:\Users\8bit\AppData\Local\Temp\ccdhdvRO.s:5791   .rodata.shellPasswordDefaultUser:00000000 $d
C:\Users\8bit\AppData\Local\Temp\ccdhdvRO.s:5797   shellCommand:00000000 $d

UNDEFINED SYMBOLS
strcmp
strlen
vsnprintf
vsscanf
strncmp
_shell_command_start
_shell_command_end
shellExtRun
