ARM GAS  C:\Users\HUAV\AppData\Local\Temp\cceQMsJf.s 			page 1


   1              		.cpu cortex-m7
   2              		.eabi_attribute 28, 1
   3              		.eabi_attribute 20, 1
   4              		.eabi_attribute 21, 1
   5              		.eabi_attribute 23, 3
   6              		.eabi_attribute 24, 1
   7              		.eabi_attribute 25, 1
   8              		.eabi_attribute 26, 1
   9              		.eabi_attribute 30, 1
  10              		.eabi_attribute 34, 1
  11              		.eabi_attribute 18, 4
  12              		.file	"shell_ext.c"
  13              		.text
  14              	.Ltext0:
  15              		.cfi_sections	.debug_frame
  16              		.section	.text.shellExtNumType,"ax",%progbits
  17              		.align	1
  18              		.arch armv7e-m
  19              		.syntax unified
  20              		.thumb
  21              		.thumb_func
  22              		.fpu fpv5-d16
  24              	shellExtNumType:
  25              	.LVL0:
  26              	.LFB0:
  27              		.file 1 "System/shell/shell_ext.c"
   1:System/shell/shell_ext.c **** /**
   2:System/shell/shell_ext.c ****  * @file shell_ext.c
   3:System/shell/shell_ext.c ****  * @author Letter (NevermindZZT@gmail.com)
   4:System/shell/shell_ext.c ****  * @brief shell extensions
   5:System/shell/shell_ext.c ****  * @version 3.0.0
   6:System/shell/shell_ext.c ****  * @date 2019-12-31
   7:System/shell/shell_ext.c ****  * 
   8:System/shell/shell_ext.c ****  * @copyright (c) 2019 Letter
   9:System/shell/shell_ext.c ****  * 
  10:System/shell/shell_ext.c ****  */
  11:System/shell/shell_ext.c **** 
  12:System/shell/shell_ext.c **** #include "shell_cfg.h"
  13:System/shell/shell_ext.c **** #include "shell.h"
  14:System/shell/shell_ext.c **** #include "shell_ext.h"
  15:System/shell/shell_ext.c **** 
  16:System/shell/shell_ext.c **** 
  17:System/shell/shell_ext.c **** extern ShellCommand* shellSeekCommand(Shell *shell,
  18:System/shell/shell_ext.c ****                                       const char *cmd,
  19:System/shell/shell_ext.c ****                                       ShellCommand *base,
  20:System/shell/shell_ext.c ****                                       unsigned short compareLength);
  21:System/shell/shell_ext.c **** extern int shellGetVarValue(Shell *shell, ShellCommand *command);
  22:System/shell/shell_ext.c **** 
  23:System/shell/shell_ext.c **** /**
  24:System/shell/shell_ext.c ****  * @brief 判断数字进制
  25:System/shell/shell_ext.c ****  * 
  26:System/shell/shell_ext.c ****  * @param string 参数字符串
  27:System/shell/shell_ext.c ****  * @return ShellNumType 进制
  28:System/shell/shell_ext.c ****  */
  29:System/shell/shell_ext.c **** static ShellNumType shellExtNumType(char *string)
  30:System/shell/shell_ext.c **** {
  28              		.loc 1 30 1 view -0
ARM GAS  C:\Users\HUAV\AppData\Local\Temp\cceQMsJf.s 			page 2


  29              		.cfi_startproc
  30              		@ args = 0, pretend = 0, frame = 0
  31              		@ frame_needed = 0, uses_anonymous_args = 0
  32              		@ link register save eliminated.
  33              		.loc 1 30 1 is_stmt 0 view .LVU1
  34 0000 0246     		mov	r2, r0
  31:System/shell/shell_ext.c ****     char *p = string;
  35              		.loc 1 31 5 is_stmt 1 view .LVU2
  36              	.LVL1:
  32:System/shell/shell_ext.c ****     ShellNumType type = NUM_TYPE_DEC;
  37              		.loc 1 32 5 view .LVU3
  33:System/shell/shell_ext.c **** 
  34:System/shell/shell_ext.c ****     if ((*p == '0') && ((*(p + 1) == 'x') || (*(p + 1) == 'X')))
  38              		.loc 1 34 5 view .LVU4
  39              		.loc 1 34 10 is_stmt 0 view .LVU5
  40 0002 0378     		ldrb	r3, [r0]	@ zero_extendqisi2
  41              		.loc 1 34 8 view .LVU6
  42 0004 302B     		cmp	r3, #48
  43 0006 05D0     		beq	.L13
  44              	.L2:
  35:System/shell/shell_ext.c ****     {
  36:System/shell/shell_ext.c ****         type = NUM_TYPE_HEX;
  37:System/shell/shell_ext.c ****     }
  38:System/shell/shell_ext.c ****     else if ((*p == '0') && ((*(p + 1) == 'b') || (*(p + 1) == 'B')))
  45              		.loc 1 38 10 is_stmt 1 view .LVU7
  46              		.loc 1 38 13 is_stmt 0 view .LVU8
  47 0008 302B     		cmp	r3, #48
  48 000a 0AD0     		beq	.L14
  49              	.L4:
  39:System/shell/shell_ext.c ****     {
  40:System/shell/shell_ext.c ****         type = NUM_TYPE_BIN;
  41:System/shell/shell_ext.c ****     }
  42:System/shell/shell_ext.c ****     else if (*p == '0')
  50              		.loc 1 42 10 is_stmt 1 view .LVU9
  51              		.loc 1 42 13 is_stmt 0 view .LVU10
  52 000c 302B     		cmp	r3, #48
  53 000e 0FD0     		beq	.L11
  32:System/shell/shell_ext.c **** 
  54              		.loc 1 32 18 view .LVU11
  55 0010 0020     		movs	r0, #0
  56              	.LVL2:
  32:System/shell/shell_ext.c **** 
  57              		.loc 1 32 18 view .LVU12
  58 0012 10E0     		b	.L5
  59              	.LVL3:
  60              	.L13:
  34:System/shell/shell_ext.c ****     {
  61              		.loc 1 34 26 discriminator 1 view .LVU13
  62 0014 4178     		ldrb	r1, [r0, #1]	@ zero_extendqisi2
  34:System/shell/shell_ext.c ****     {
  63              		.loc 1 34 21 discriminator 1 view .LVU14
  64 0016 5829     		cmp	r1, #88
  65 0018 18BF     		it	ne
  66 001a 7829     		cmpne	r1, #120
  67 001c F4D1     		bne	.L2
  36:System/shell/shell_ext.c ****     }
  68              		.loc 1 36 14 view .LVU15
ARM GAS  C:\Users\HUAV\AppData\Local\Temp\cceQMsJf.s 			page 3


  69 001e 0320     		movs	r0, #3
  70              	.LVL4:
  36:System/shell/shell_ext.c ****     }
  71              		.loc 1 36 14 view .LVU16
  72 0020 09E0     		b	.L5
  73              	.LVL5:
  74              	.L14:
  38:System/shell/shell_ext.c ****     {
  75              		.loc 1 38 31 discriminator 1 view .LVU17
  76 0022 5178     		ldrb	r1, [r2, #1]	@ zero_extendqisi2
  38:System/shell/shell_ext.c ****     {
  77              		.loc 1 38 26 discriminator 1 view .LVU18
  78 0024 4229     		cmp	r1, #66
  79 0026 18BF     		it	ne
  80 0028 6229     		cmpne	r1, #98
  81 002a EFD1     		bne	.L4
  40:System/shell/shell_ext.c ****     }
  82              		.loc 1 40 14 view .LVU19
  83 002c 0120     		movs	r0, #1
  84              	.LVL6:
  40:System/shell/shell_ext.c ****     }
  85              		.loc 1 40 14 view .LVU20
  86 002e 02E0     		b	.L5
  87              	.LVL7:
  88              	.L11:
  43:System/shell/shell_ext.c ****     {
  44:System/shell/shell_ext.c ****         type = NUM_TYPE_OCT;
  89              		.loc 1 44 14 view .LVU21
  90 0030 0220     		movs	r0, #2
  91              	.LVL8:
  92              		.loc 1 44 14 view .LVU22
  93 0032 00E0     		b	.L5
  94              	.LVL9:
  95              	.L6:
  32:System/shell/shell_ext.c **** 
  96              		.loc 1 32 18 view .LVU23
  97 0034 1A46     		mov	r2, r3
  98              	.LVL10:
  99              	.L5:
  45:System/shell/shell_ext.c ****     }
  46:System/shell/shell_ext.c ****     
  47:System/shell/shell_ext.c ****     while (*p++)
 100              		.loc 1 47 11 is_stmt 1 view .LVU24
 101              		.loc 1 47 14 is_stmt 0 view .LVU25
 102 0036 1346     		mov	r3, r2
 103              	.LVL11:
 104              		.loc 1 47 12 view .LVU26
 105 0038 13F8011B 		ldrb	r1, [r3], #1	@ zero_extendqisi2
 106              	.LVL12:
 107              		.loc 1 47 11 view .LVU27
 108 003c 39B1     		cbz	r1, .L15
  48:System/shell/shell_ext.c ****     {
  49:System/shell/shell_ext.c ****         if (*p == '.' && *(p + 1) != 0)
 109              		.loc 1 49 9 is_stmt 1 view .LVU28
 110              		.loc 1 49 13 is_stmt 0 view .LVU29
 111 003e 5278     		ldrb	r2, [r2, #1]	@ zero_extendqisi2
 112              		.loc 1 49 12 view .LVU30
ARM GAS  C:\Users\HUAV\AppData\Local\Temp\cceQMsJf.s 			page 4


 113 0040 2E2A     		cmp	r2, #46
 114 0042 F7D1     		bne	.L6
 115              		.loc 1 49 26 discriminator 1 view .LVU31
 116 0044 5A78     		ldrb	r2, [r3, #1]	@ zero_extendqisi2
 117              		.loc 1 49 23 discriminator 1 view .LVU32
 118 0046 002A     		cmp	r2, #0
 119 0048 F4D0     		beq	.L6
  50:System/shell/shell_ext.c ****         {
  51:System/shell/shell_ext.c ****             type = NUM_TYPE_FLOAT;
 120              		.loc 1 51 18 view .LVU33
 121 004a 0420     		movs	r0, #4
 122              	.LVL13:
  52:System/shell/shell_ext.c ****             break;
  53:System/shell/shell_ext.c ****         }
  54:System/shell/shell_ext.c ****     }
  55:System/shell/shell_ext.c **** 
  56:System/shell/shell_ext.c ****     return type;
 123              		.loc 1 56 5 is_stmt 1 view .LVU34
  57:System/shell/shell_ext.c **** }
 124              		.loc 1 57 1 is_stmt 0 view .LVU35
 125 004c 7047     		bx	lr
 126              	.L15:
 127              		.loc 1 57 1 view .LVU36
 128 004e 7047     		bx	lr
 129              		.cfi_endproc
 130              	.LFE0:
 132              		.section	.text.shellExtToNum,"ax",%progbits
 133              		.align	1
 134              		.syntax unified
 135              		.thumb
 136              		.thumb_func
 137              		.fpu fpv5-d16
 139              	shellExtToNum:
 140              	.LVL14:
 141              	.LFB1:
  58:System/shell/shell_ext.c **** 
  59:System/shell/shell_ext.c **** 
  60:System/shell/shell_ext.c **** /**
  61:System/shell/shell_ext.c ****  * @brief 字符转数字
  62:System/shell/shell_ext.c ****  * 
  63:System/shell/shell_ext.c ****  * @param code 字符
  64:System/shell/shell_ext.c ****  * @return char 数字
  65:System/shell/shell_ext.c ****  */
  66:System/shell/shell_ext.c **** static char shellExtToNum(char code)
  67:System/shell/shell_ext.c **** {
 142              		.loc 1 67 1 is_stmt 1 view -0
 143              		.cfi_startproc
 144              		@ args = 0, pretend = 0, frame = 0
 145              		@ frame_needed = 0, uses_anonymous_args = 0
 146              		@ link register save eliminated.
 147              		.loc 1 67 1 is_stmt 0 view .LVU38
 148 0000 0346     		mov	r3, r0
  68:System/shell/shell_ext.c ****     if ((code >= '0') && (code <= '9'))
 149              		.loc 1 68 5 is_stmt 1 view .LVU39
 150              		.loc 1 68 23 is_stmt 0 view .LVU40
 151 0002 3038     		subs	r0, r0, #48
 152              	.LVL15:
ARM GAS  C:\Users\HUAV\AppData\Local\Temp\cceQMsJf.s 			page 5


 153              		.loc 1 68 23 view .LVU41
 154 0004 C0B2     		uxtb	r0, r0
 155              		.loc 1 68 8 view .LVU42
 156 0006 0928     		cmp	r0, #9
 157 0008 10D9     		bls	.L17
  69:System/shell/shell_ext.c ****     {
  70:System/shell/shell_ext.c ****         return code -'0';
  71:System/shell/shell_ext.c ****     }
  72:System/shell/shell_ext.c ****     else if ((code >= 'a') && (code <= 'f'))
 158              		.loc 1 72 10 is_stmt 1 view .LVU43
 159              		.loc 1 72 28 is_stmt 0 view .LVU44
 160 000a A3F16102 		sub	r2, r3, #97
 161 000e D2B2     		uxtb	r2, r2
 162              		.loc 1 72 13 view .LVU45
 163 0010 052A     		cmp	r2, #5
 164 0012 07D9     		bls	.L20
  73:System/shell/shell_ext.c ****     {
  74:System/shell/shell_ext.c ****         return code - 'a' + 10;
  75:System/shell/shell_ext.c ****     }
  76:System/shell/shell_ext.c ****     else if ((code >= 'A') && (code <= 'F'))
 165              		.loc 1 76 10 is_stmt 1 view .LVU46
 166              		.loc 1 76 28 is_stmt 0 view .LVU47
 167 0014 A3F14102 		sub	r2, r3, #65
 168 0018 D2B2     		uxtb	r2, r2
 169              		.loc 1 76 13 view .LVU48
 170 001a 052A     		cmp	r2, #5
 171 001c 05D8     		bhi	.L19
  77:System/shell/shell_ext.c ****     {
  78:System/shell/shell_ext.c ****         return code - 'A' + 10;
 172              		.loc 1 78 9 is_stmt 1 view .LVU49
 173              		.loc 1 78 27 is_stmt 0 view .LVU50
 174 001e 373B     		subs	r3, r3, #55
 175 0020 D8B2     		uxtb	r0, r3
 176 0022 7047     		bx	lr
 177              	.L20:
  74:System/shell/shell_ext.c ****     }
 178              		.loc 1 74 9 is_stmt 1 view .LVU51
  74:System/shell/shell_ext.c ****     }
 179              		.loc 1 74 27 is_stmt 0 view .LVU52
 180 0024 573B     		subs	r3, r3, #87
 181 0026 D8B2     		uxtb	r0, r3
 182 0028 7047     		bx	lr
 183              	.L19:
  79:System/shell/shell_ext.c ****     }
  80:System/shell/shell_ext.c ****     else
  81:System/shell/shell_ext.c ****     {
  82:System/shell/shell_ext.c ****         return 0;
 184              		.loc 1 82 16 view .LVU53
 185 002a 0020     		movs	r0, #0
 186              	.L17:
  83:System/shell/shell_ext.c ****     }
  84:System/shell/shell_ext.c **** }
 187              		.loc 1 84 1 view .LVU54
 188 002c 7047     		bx	lr
 189              		.cfi_endproc
 190              	.LFE1:
 192              		.section	.text.shellExtParseChar,"ax",%progbits
ARM GAS  C:\Users\HUAV\AppData\Local\Temp\cceQMsJf.s 			page 6


 193              		.align	1
 194              		.syntax unified
 195              		.thumb
 196              		.thumb_func
 197              		.fpu fpv5-d16
 199              	shellExtParseChar:
 200              	.LVL16:
 201              	.LFB2:
  85:System/shell/shell_ext.c **** 
  86:System/shell/shell_ext.c **** 
  87:System/shell/shell_ext.c **** /**
  88:System/shell/shell_ext.c ****  * @brief 解析字符参数
  89:System/shell/shell_ext.c ****  * 
  90:System/shell/shell_ext.c ****  * @param string 字符串参数
  91:System/shell/shell_ext.c ****  * @return char 解析出的字符
  92:System/shell/shell_ext.c ****  */
  93:System/shell/shell_ext.c **** static char shellExtParseChar(char *string)
  94:System/shell/shell_ext.c **** {
 202              		.loc 1 94 1 is_stmt 1 view -0
 203              		.cfi_startproc
 204              		@ args = 0, pretend = 0, frame = 0
 205              		@ frame_needed = 0, uses_anonymous_args = 0
 206              		@ link register save eliminated.
 207              		.loc 1 94 1 is_stmt 0 view .LVU56
 208 0000 0346     		mov	r3, r0
  95:System/shell/shell_ext.c ****     char *p = string + 1;
 209              		.loc 1 95 5 is_stmt 1 view .LVU57
 210              	.LVL17:
  96:System/shell/shell_ext.c ****     char value = 0;
 211              		.loc 1 96 5 view .LVU58
  97:System/shell/shell_ext.c **** 
  98:System/shell/shell_ext.c ****     if (*p == '\\')
 212              		.loc 1 98 5 view .LVU59
 213              		.loc 1 98 9 is_stmt 0 view .LVU60
 214 0002 4078     		ldrb	r0, [r0, #1]	@ zero_extendqisi2
 215              	.LVL18:
 216              		.loc 1 98 8 view .LVU61
 217 0004 5C28     		cmp	r0, #92
 218 0006 00D0     		beq	.L30
 219              	.LVL19:
 220              	.L22:
  99:System/shell/shell_ext.c ****     {
 100:System/shell/shell_ext.c ****         switch (*(p + 1))
 101:System/shell/shell_ext.c ****         {
 102:System/shell/shell_ext.c ****         case 'b':
 103:System/shell/shell_ext.c ****             value = '\b';
 104:System/shell/shell_ext.c ****             break;
 105:System/shell/shell_ext.c ****         case 'r':
 106:System/shell/shell_ext.c ****             value = '\r';
 107:System/shell/shell_ext.c ****             break;
 108:System/shell/shell_ext.c ****         case 'n':
 109:System/shell/shell_ext.c ****             value = '\n';
 110:System/shell/shell_ext.c ****             break;
 111:System/shell/shell_ext.c ****         case 't':
 112:System/shell/shell_ext.c ****             value = '\t';
 113:System/shell/shell_ext.c ****             break;
 114:System/shell/shell_ext.c ****         case '0':
ARM GAS  C:\Users\HUAV\AppData\Local\Temp\cceQMsJf.s 			page 7


 115:System/shell/shell_ext.c ****             value = 0;
 116:System/shell/shell_ext.c ****             break;
 117:System/shell/shell_ext.c ****         default:
 118:System/shell/shell_ext.c ****             value = *(p + 1);
 119:System/shell/shell_ext.c ****             break;
 120:System/shell/shell_ext.c ****         }
 121:System/shell/shell_ext.c ****     }
 122:System/shell/shell_ext.c ****     else
 123:System/shell/shell_ext.c ****     {
 124:System/shell/shell_ext.c ****         value = *p;
 125:System/shell/shell_ext.c ****     }
 126:System/shell/shell_ext.c ****     return value;
 221              		.loc 1 126 5 is_stmt 1 view .LVU62
 127:System/shell/shell_ext.c **** }
 222              		.loc 1 127 1 is_stmt 0 view .LVU63
 223 0008 7047     		bx	lr
 224              	.LVL20:
 225              	.L30:
 100:System/shell/shell_ext.c ****         {
 226              		.loc 1 100 9 is_stmt 1 view .LVU64
 100:System/shell/shell_ext.c ****         {
 227              		.loc 1 100 17 is_stmt 0 view .LVU65
 228 000a 9878     		ldrb	r0, [r3, #2]	@ zero_extendqisi2
 100:System/shell/shell_ext.c ****         {
 229              		.loc 1 100 9 view .LVU66
 230 000c 3028     		cmp	r0, #48
 231 000e 37D0     		beq	.L28
 232 0010 FAD3     		bcc	.L22
 233 0012 7428     		cmp	r0, #116
 234 0014 F8D8     		bhi	.L22
 235 0016 6228     		cmp	r0, #98
 236 0018 F6D3     		bcc	.L22
 237 001a A0F16203 		sub	r3, r0, #98
 238              	.LVL21:
 100:System/shell/shell_ext.c ****         {
 239              		.loc 1 100 9 view .LVU67
 240 001e 122B     		cmp	r3, #18
 241 0020 F2D8     		bhi	.L22
 242 0022 01A2     		adr	r2, .L25
 243 0024 52F823F0 		ldr	pc, [r2, r3, lsl #2]
 244              		.p2align 2
 245              	.L25:
 246 0028 75000000 		.word	.L27+1
 247 002c 09000000 		.word	.L22+1
 248 0030 09000000 		.word	.L22+1
 249 0034 09000000 		.word	.L22+1
 250 0038 09000000 		.word	.L22+1
 251 003c 09000000 		.word	.L22+1
 252 0040 09000000 		.word	.L22+1
 253 0044 09000000 		.word	.L22+1
 254 0048 09000000 		.word	.L22+1
 255 004c 09000000 		.word	.L22+1
 256 0050 09000000 		.word	.L22+1
 257 0054 09000000 		.word	.L22+1
 258 0058 79000000 		.word	.L26+1
 259 005c 09000000 		.word	.L22+1
 260 0060 09000000 		.word	.L22+1
ARM GAS  C:\Users\HUAV\AppData\Local\Temp\cceQMsJf.s 			page 8


 261 0064 09000000 		.word	.L22+1
 262 0068 85000000 		.word	.L29+1
 263 006c 09000000 		.word	.L22+1
 264 0070 7D000000 		.word	.L24+1
 265              		.p2align 1
 266              	.L27:
 267 0074 0820     		movs	r0, #8
 268 0076 7047     		bx	lr
 269              	.L26:
 109:System/shell/shell_ext.c ****             break;
 270              		.loc 1 109 13 is_stmt 1 view .LVU68
 271              	.LVL22:
 110:System/shell/shell_ext.c ****         case 't':
 272              		.loc 1 110 13 view .LVU69
 109:System/shell/shell_ext.c ****             break;
 273              		.loc 1 109 19 is_stmt 0 view .LVU70
 274 0078 0A20     		movs	r0, #10
 110:System/shell/shell_ext.c ****         case 't':
 275              		.loc 1 110 13 view .LVU71
 276 007a 7047     		bx	lr
 277              	.LVL23:
 278              	.L24:
 112:System/shell/shell_ext.c ****             break;
 279              		.loc 1 112 13 is_stmt 1 view .LVU72
 113:System/shell/shell_ext.c ****         case '0':
 280              		.loc 1 113 13 view .LVU73
 112:System/shell/shell_ext.c ****             break;
 281              		.loc 1 112 19 is_stmt 0 view .LVU74
 282 007c 0920     		movs	r0, #9
 113:System/shell/shell_ext.c ****         case '0':
 283              		.loc 1 113 13 view .LVU75
 284 007e 7047     		bx	lr
 285              	.LVL24:
 286              	.L28:
 115:System/shell/shell_ext.c ****             break;
 287              		.loc 1 115 19 view .LVU76
 288 0080 0020     		movs	r0, #0
 289 0082 7047     		bx	lr
 290              	.LVL25:
 291              	.L29:
 106:System/shell/shell_ext.c ****             break;
 292              		.loc 1 106 19 view .LVU77
 293 0084 0D20     		movs	r0, #13
 294 0086 BFE7     		b	.L22
 295              		.cfi_endproc
 296              	.LFE2:
 298              		.section	.text.shellExtParseString,"ax",%progbits
 299              		.align	1
 300              		.syntax unified
 301              		.thumb
 302              		.thumb_func
 303              		.fpu fpv5-d16
 305              	shellExtParseString:
 306              	.LVL26:
 307              	.LFB3:
 128:System/shell/shell_ext.c **** 
 129:System/shell/shell_ext.c **** 
ARM GAS  C:\Users\HUAV\AppData\Local\Temp\cceQMsJf.s 			page 9


 130:System/shell/shell_ext.c **** /**
 131:System/shell/shell_ext.c ****  * @brief 解析字符串参数
 132:System/shell/shell_ext.c ****  * 
 133:System/shell/shell_ext.c ****  * @param string 字符串参数
 134:System/shell/shell_ext.c ****  * @return char* 解析出的字符串
 135:System/shell/shell_ext.c ****  */
 136:System/shell/shell_ext.c **** static char* shellExtParseString(char *string)
 137:System/shell/shell_ext.c **** {
 308              		.loc 1 137 1 is_stmt 1 view -0
 309              		.cfi_startproc
 310              		@ args = 0, pretend = 0, frame = 0
 311              		@ frame_needed = 0, uses_anonymous_args = 0
 312              		.loc 1 137 1 is_stmt 0 view .LVU79
 313 0000 70B5     		push	{r4, r5, r6, lr}
 314              	.LCFI0:
 315              		.cfi_def_cfa_offset 16
 316              		.cfi_offset 4, -16
 317              		.cfi_offset 5, -12
 318              		.cfi_offset 6, -8
 319              		.cfi_offset 14, -4
 320 0002 0646     		mov	r6, r0
 138:System/shell/shell_ext.c ****     char *p = string;
 321              		.loc 1 138 5 is_stmt 1 view .LVU80
 322              	.LVL27:
 139:System/shell/shell_ext.c ****     unsigned short index = 0;
 323              		.loc 1 139 5 view .LVU81
 140:System/shell/shell_ext.c **** 
 141:System/shell/shell_ext.c ****     if (*string == '\"')
 324              		.loc 1 141 5 view .LVU82
 325              		.loc 1 141 9 is_stmt 0 view .LVU83
 326 0004 0378     		ldrb	r3, [r0]	@ zero_extendqisi2
 327              		.loc 1 141 8 view .LVU84
 328 0006 222B     		cmp	r3, #34
 329 0008 02D0     		beq	.L39
 330              	.LVL28:
 331              	.L32:
 137:System/shell/shell_ext.c ****     char *p = string;
 332              		.loc 1 137 1 view .LVU85
 333 000a 3546     		mov	r5, r6
 334 000c 0024     		movs	r4, #0
 335 000e 0BE0     		b	.L36
 336              	.LVL29:
 337              	.L39:
 142:System/shell/shell_ext.c ****     {
 143:System/shell/shell_ext.c ****         p = ++string;
 338              		.loc 1 143 9 is_stmt 1 view .LVU86
 339              		.loc 1 143 11 is_stmt 0 view .LVU87
 340 0010 0136     		adds	r6, r6, #1
 341              	.LVL30:
 342              		.loc 1 143 11 view .LVU88
 343 0012 FAE7     		b	.L32
 344              	.LVL31:
 345              	.L41:
 144:System/shell/shell_ext.c ****     }
 145:System/shell/shell_ext.c **** 
 146:System/shell/shell_ext.c ****     while (*p)
 147:System/shell/shell_ext.c ****     {
ARM GAS  C:\Users\HUAV\AppData\Local\Temp\cceQMsJf.s 			page 10


 148:System/shell/shell_ext.c ****         if (*p == '\\')
 149:System/shell/shell_ext.c ****         {
 150:System/shell/shell_ext.c ****             *(string + index) = shellExtParseChar(p - 1);
 346              		.loc 1 150 13 is_stmt 1 view .LVU89
 347              		.loc 1 150 33 is_stmt 0 view .LVU90
 348 0014 681E     		subs	r0, r5, #1
 349 0016 FFF7FEFF 		bl	shellExtParseChar
 350              	.LVL32:
 351              		.loc 1 150 31 view .LVU91
 352 001a 3055     		strb	r0, [r6, r4]
 151:System/shell/shell_ext.c ****             p++;
 353              		.loc 1 151 13 is_stmt 1 view .LVU92
 354              		.loc 1 151 14 is_stmt 0 view .LVU93
 355 001c 0135     		adds	r5, r5, #1
 356              	.LVL33:
 357              		.loc 1 151 14 view .LVU94
 358 001e 00E0     		b	.L34
 359              	.L35:
 152:System/shell/shell_ext.c ****         }
 153:System/shell/shell_ext.c ****         else if (*p == '\"')
 154:System/shell/shell_ext.c ****         {
 155:System/shell/shell_ext.c ****             *(string + index) = 0;
 156:System/shell/shell_ext.c ****         }
 157:System/shell/shell_ext.c ****         else
 158:System/shell/shell_ext.c ****         {
 159:System/shell/shell_ext.c ****             *(string + index) = *p;
 360              		.loc 1 159 13 is_stmt 1 view .LVU95
 361              		.loc 1 159 31 is_stmt 0 view .LVU96
 362 0020 3355     		strb	r3, [r6, r4]
 363              	.L34:
 160:System/shell/shell_ext.c ****         }
 161:System/shell/shell_ext.c ****         p++;
 364              		.loc 1 161 9 is_stmt 1 view .LVU97
 365              		.loc 1 161 10 is_stmt 0 view .LVU98
 366 0022 0135     		adds	r5, r5, #1
 367              	.LVL34:
 162:System/shell/shell_ext.c ****         index ++;
 368              		.loc 1 162 9 is_stmt 1 view .LVU99
 369              		.loc 1 162 15 is_stmt 0 view .LVU100
 370 0024 0134     		adds	r4, r4, #1
 371              	.LVL35:
 372              		.loc 1 162 15 view .LVU101
 373 0026 A4B2     		uxth	r4, r4
 374              	.LVL36:
 375              	.L36:
 146:System/shell/shell_ext.c ****     {
 376              		.loc 1 146 11 is_stmt 1 view .LVU102
 146:System/shell/shell_ext.c ****     {
 377              		.loc 1 146 12 is_stmt 0 view .LVU103
 378 0028 2B78     		ldrb	r3, [r5]	@ zero_extendqisi2
 146:System/shell/shell_ext.c ****     {
 379              		.loc 1 146 11 view .LVU104
 380 002a 33B1     		cbz	r3, .L40
 148:System/shell/shell_ext.c ****         {
 381              		.loc 1 148 9 is_stmt 1 view .LVU105
 148:System/shell/shell_ext.c ****         {
 382              		.loc 1 148 12 is_stmt 0 view .LVU106
ARM GAS  C:\Users\HUAV\AppData\Local\Temp\cceQMsJf.s 			page 11


 383 002c 5C2B     		cmp	r3, #92
 384 002e F1D0     		beq	.L41
 153:System/shell/shell_ext.c ****         {
 385              		.loc 1 153 14 is_stmt 1 view .LVU107
 153:System/shell/shell_ext.c ****         {
 386              		.loc 1 153 17 is_stmt 0 view .LVU108
 387 0030 222B     		cmp	r3, #34
 388 0032 F5D1     		bne	.L35
 155:System/shell/shell_ext.c ****         }
 389              		.loc 1 155 13 is_stmt 1 view .LVU109
 155:System/shell/shell_ext.c ****         }
 390              		.loc 1 155 31 is_stmt 0 view .LVU110
 391 0034 0023     		movs	r3, #0
 392 0036 3355     		strb	r3, [r6, r4]
 393 0038 F3E7     		b	.L34
 394              	.L40:
 163:System/shell/shell_ext.c ****     }
 164:System/shell/shell_ext.c ****     *(string + index) = 0;
 395              		.loc 1 164 5 is_stmt 1 view .LVU111
 396              		.loc 1 164 23 is_stmt 0 view .LVU112
 397 003a 3355     		strb	r3, [r6, r4]
 165:System/shell/shell_ext.c ****     return string;
 398              		.loc 1 165 5 is_stmt 1 view .LVU113
 166:System/shell/shell_ext.c **** }
 399              		.loc 1 166 1 is_stmt 0 view .LVU114
 400 003c 3046     		mov	r0, r6
 401 003e 70BD     		pop	{r4, r5, r6, pc}
 402              		.loc 1 166 1 view .LVU115
 403              		.cfi_endproc
 404              	.LFE3:
 406              		.section	.text.shellExtParseNumber,"ax",%progbits
 407              		.align	1
 408              		.syntax unified
 409              		.thumb
 410              		.thumb_func
 411              		.fpu fpv5-d16
 413              	shellExtParseNumber:
 414              	.LVL37:
 415              	.LFB4:
 167:System/shell/shell_ext.c **** 
 168:System/shell/shell_ext.c **** 
 169:System/shell/shell_ext.c **** /**
 170:System/shell/shell_ext.c ****  * @brief 解析数字参数
 171:System/shell/shell_ext.c ****  * 
 172:System/shell/shell_ext.c ****  * @param string 字符串参数
 173:System/shell/shell_ext.c ****  * @return unsigned int 解析出的数字
 174:System/shell/shell_ext.c ****  */
 175:System/shell/shell_ext.c **** static unsigned int shellExtParseNumber(char *string)
 176:System/shell/shell_ext.c **** {
 416              		.loc 1 176 1 is_stmt 1 view -0
 417              		.cfi_startproc
 418              		@ args = 0, pretend = 0, frame = 0
 419              		@ frame_needed = 0, uses_anonymous_args = 0
 420              		.loc 1 176 1 is_stmt 0 view .LVU117
 421 0000 2DE9F843 		push	{r3, r4, r5, r6, r7, r8, r9, lr}
 422              	.LCFI1:
 423              		.cfi_def_cfa_offset 32
ARM GAS  C:\Users\HUAV\AppData\Local\Temp\cceQMsJf.s 			page 12


 424              		.cfi_offset 3, -32
 425              		.cfi_offset 4, -28
 426              		.cfi_offset 5, -24
 427              		.cfi_offset 6, -20
 428              		.cfi_offset 7, -16
 429              		.cfi_offset 8, -12
 430              		.cfi_offset 9, -8
 431              		.cfi_offset 14, -4
 432 0004 0646     		mov	r6, r0
 177:System/shell/shell_ext.c ****     ShellNumType type = NUM_TYPE_DEC;
 433              		.loc 1 177 5 is_stmt 1 view .LVU118
 434              	.LVL38:
 178:System/shell/shell_ext.c ****     char radix = 10;
 435              		.loc 1 178 5 view .LVU119
 179:System/shell/shell_ext.c ****     char *p = string;
 436              		.loc 1 179 5 view .LVU120
 180:System/shell/shell_ext.c ****     char offset = 0;
 437              		.loc 1 180 5 view .LVU121
 181:System/shell/shell_ext.c ****     signed char sign = 1;
 438              		.loc 1 181 5 view .LVU122
 182:System/shell/shell_ext.c ****     unsigned int valueInt = 0;
 439              		.loc 1 182 5 view .LVU123
 183:System/shell/shell_ext.c ****     float valueFloat = 0.0;
 440              		.loc 1 183 5 view .LVU124
 184:System/shell/shell_ext.c ****     unsigned int devide = 0;
 441              		.loc 1 184 5 view .LVU125
 185:System/shell/shell_ext.c **** 
 186:System/shell/shell_ext.c ****     if (*string == '-')
 442              		.loc 1 186 5 view .LVU126
 443              		.loc 1 186 9 is_stmt 0 view .LVU127
 444 0006 0378     		ldrb	r3, [r0]	@ zero_extendqisi2
 445              		.loc 1 186 8 view .LVU128
 446 0008 2D2B     		cmp	r3, #45
 447 000a 18D0     		beq	.L52
 181:System/shell/shell_ext.c ****     unsigned int valueInt = 0;
 448              		.loc 1 181 17 view .LVU129
 449 000c 4FF00109 		mov	r9, #1
 187:System/shell/shell_ext.c ****     {
 188:System/shell/shell_ext.c ****         sign = -1;
 189:System/shell/shell_ext.c ****     }
 190:System/shell/shell_ext.c **** 
 191:System/shell/shell_ext.c ****     type = shellExtNumType(string + ((sign == -1) ? 1 : 0));
 450              		.loc 1 191 55 view .LVU130
 451 0010 0020     		movs	r0, #0
 452              	.LVL39:
 453              	.L43:
 454              		.loc 1 191 12 discriminator 4 view .LVU131
 455 0012 3044     		add	r0, r0, r6
 456 0014 FFF7FEFF 		bl	shellExtNumType
 457              	.LVL40:
 458 0018 0746     		mov	r7, r0
 459              	.LVL41:
 192:System/shell/shell_ext.c **** 
 193:System/shell/shell_ext.c ****     switch ((char)type)
 460              		.loc 1 193 5 is_stmt 1 discriminator 4 view .LVU132
 461 001a 0228     		cmp	r0, #2
 462 001c 16D0     		beq	.L53
ARM GAS  C:\Users\HUAV\AppData\Local\Temp\cceQMsJf.s 			page 13


 463              		.loc 1 193 5 is_stmt 0 view .LVU133
 464 001e 0328     		cmp	r0, #3
 465 0020 18D0     		beq	.L54
 466 0022 0128     		cmp	r0, #1
 467 0024 0FD0     		beq	.L58
 468 0026 0023     		movs	r3, #0
 469 0028 4FF00A08 		mov	r8, #10
 470              	.L44:
 471              	.LVL42:
 194:System/shell/shell_ext.c ****     {
 195:System/shell/shell_ext.c ****     case NUM_TYPE_HEX:
 196:System/shell/shell_ext.c ****         radix = 16;
 197:System/shell/shell_ext.c ****         offset = 2;
 198:System/shell/shell_ext.c ****         break;
 199:System/shell/shell_ext.c ****     
 200:System/shell/shell_ext.c ****     case NUM_TYPE_OCT:
 201:System/shell/shell_ext.c ****         radix = 8;
 202:System/shell/shell_ext.c ****         offset = 1;
 203:System/shell/shell_ext.c ****         break;
 204:System/shell/shell_ext.c **** 
 205:System/shell/shell_ext.c ****     case NUM_TYPE_BIN:
 206:System/shell/shell_ext.c ****         radix = 2;
 207:System/shell/shell_ext.c ****         offset = 2;
 208:System/shell/shell_ext.c ****         break;
 209:System/shell/shell_ext.c ****     
 210:System/shell/shell_ext.c ****     default:
 211:System/shell/shell_ext.c ****         break;
 212:System/shell/shell_ext.c ****     }
 213:System/shell/shell_ext.c **** 
 214:System/shell/shell_ext.c ****     p = string + offset + ((sign == -1) ? 1 : 0);
 472              		.loc 1 214 5 is_stmt 1 view .LVU134
 473              		.loc 1 214 45 is_stmt 0 view .LVU135
 474 002c B9F1FF3F 		cmp	r9, #-1
 475 0030 14D0     		beq	.L59
 476 0032 0022     		movs	r2, #0
 477              	.L45:
 478              		.loc 1 214 25 discriminator 4 view .LVU136
 479 0034 1344     		add	r3, r3, r2
 480              	.LVL43:
 481              		.loc 1 214 7 discriminator 4 view .LVU137
 482 0036 1E44     		add	r6, r6, r3
 483              	.LVL44:
 215:System/shell/shell_ext.c **** 
 216:System/shell/shell_ext.c ****     while (*p)
 484              		.loc 1 216 5 is_stmt 1 discriminator 4 view .LVU138
 184:System/shell/shell_ext.c **** 
 485              		.loc 1 184 18 is_stmt 0 discriminator 4 view .LVU139
 486 0038 0024     		movs	r4, #0
 182:System/shell/shell_ext.c ****     float valueFloat = 0.0;
 487              		.loc 1 182 18 discriminator 4 view .LVU140
 488 003a 2346     		mov	r3, r4
 489              		.loc 1 216 11 discriminator 4 view .LVU141
 490 003c 12E0     		b	.L46
 491              	.LVL45:
 492              	.L52:
 188:System/shell/shell_ext.c ****     }
 493              		.loc 1 188 14 view .LVU142
ARM GAS  C:\Users\HUAV\AppData\Local\Temp\cceQMsJf.s 			page 14


 494 003e 4FF0FF39 		mov	r9, #-1
 191:System/shell/shell_ext.c **** 
 495              		.loc 1 191 55 view .LVU143
 496 0042 0120     		movs	r0, #1
 497              	.LVL46:
 191:System/shell/shell_ext.c **** 
 498              		.loc 1 191 55 view .LVU144
 499 0044 E5E7     		b	.L43
 500              	.LVL47:
 501              	.L58:
 207:System/shell/shell_ext.c ****         break;
 502              		.loc 1 207 16 view .LVU145
 503 0046 0223     		movs	r3, #2
 206:System/shell/shell_ext.c ****         offset = 2;
 504              		.loc 1 206 15 view .LVU146
 505 0048 9846     		mov	r8, r3
 506 004a EFE7     		b	.L44
 507              	.L53:
 202:System/shell/shell_ext.c ****         break;
 508              		.loc 1 202 16 view .LVU147
 509 004c 0123     		movs	r3, #1
 201:System/shell/shell_ext.c ****         offset = 1;
 510              		.loc 1 201 15 view .LVU148
 511 004e 4FF00808 		mov	r8, #8
 512 0052 EBE7     		b	.L44
 513              	.L54:
 197:System/shell/shell_ext.c ****         break;
 514              		.loc 1 197 16 view .LVU149
 515 0054 0223     		movs	r3, #2
 196:System/shell/shell_ext.c ****         offset = 2;
 516              		.loc 1 196 15 view .LVU150
 517 0056 4FF01008 		mov	r8, #16
 518 005a E7E7     		b	.L44
 519              	.LVL48:
 520              	.L59:
 214:System/shell/shell_ext.c **** 
 521              		.loc 1 214 45 view .LVU151
 522 005c 0122     		movs	r2, #1
 523 005e E9E7     		b	.L45
 524              	.LVL49:
 525              	.L61:
 217:System/shell/shell_ext.c ****     {
 218:System/shell/shell_ext.c ****         if (*p == '.')
 219:System/shell/shell_ext.c ****         {
 220:System/shell/shell_ext.c ****             devide = 1;
 526              		.loc 1 220 13 is_stmt 1 view .LVU152
 221:System/shell/shell_ext.c ****             p++;
 527              		.loc 1 221 13 view .LVU153
 528              		.loc 1 221 14 is_stmt 0 view .LVU154
 529 0060 0136     		adds	r6, r6, #1
 530              	.LVL50:
 222:System/shell/shell_ext.c ****             continue;
 531              		.loc 1 222 13 is_stmt 1 view .LVU155
 220:System/shell/shell_ext.c ****             p++;
 532              		.loc 1 220 20 is_stmt 0 view .LVU156
 533 0062 0124     		movs	r4, #1
 534              	.LVL51:
ARM GAS  C:\Users\HUAV\AppData\Local\Temp\cceQMsJf.s 			page 15


 535              	.L46:
 216:System/shell/shell_ext.c ****     {
 536              		.loc 1 216 11 is_stmt 1 view .LVU157
 216:System/shell/shell_ext.c ****     {
 537              		.loc 1 216 12 is_stmt 0 view .LVU158
 538 0064 3078     		ldrb	r0, [r6]	@ zero_extendqisi2
 216:System/shell/shell_ext.c ****     {
 539              		.loc 1 216 11 view .LVU159
 540 0066 58B1     		cbz	r0, .L60
 218:System/shell/shell_ext.c ****         {
 541              		.loc 1 218 9 is_stmt 1 view .LVU160
 218:System/shell/shell_ext.c ****         {
 542              		.loc 1 218 12 is_stmt 0 view .LVU161
 543 0068 2E28     		cmp	r0, #46
 544 006a F9D0     		beq	.L61
 223:System/shell/shell_ext.c ****         }
 224:System/shell/shell_ext.c ****         valueInt = valueInt * radix + shellExtToNum(*p);
 545              		.loc 1 224 9 is_stmt 1 view .LVU162
 546              		.loc 1 224 29 is_stmt 0 view .LVU163
 547 006c 03FB08F5 		mul	r5, r3, r8
 548              		.loc 1 224 39 view .LVU164
 549 0070 FFF7FEFF 		bl	shellExtToNum
 550              	.LVL52:
 551              		.loc 1 224 18 view .LVU165
 552 0074 2B18     		adds	r3, r5, r0
 553              	.LVL53:
 225:System/shell/shell_ext.c ****         devide *= 10;
 554              		.loc 1 225 9 is_stmt 1 view .LVU166
 555              		.loc 1 225 16 is_stmt 0 view .LVU167
 556 0076 04EB8404 		add	r4, r4, r4, lsl #2
 557              	.LVL54:
 558              		.loc 1 225 16 view .LVU168
 559 007a 6400     		lsls	r4, r4, #1
 560              	.LVL55:
 226:System/shell/shell_ext.c ****         p++;
 561              		.loc 1 226 9 is_stmt 1 view .LVU169
 562              		.loc 1 226 10 is_stmt 0 view .LVU170
 563 007c 0136     		adds	r6, r6, #1
 564              	.LVL56:
 565              		.loc 1 226 10 view .LVU171
 566 007e F1E7     		b	.L46
 567              	.L60:
 227:System/shell/shell_ext.c ****     }
 228:System/shell/shell_ext.c ****     if (type == NUM_TYPE_FLOAT && devide != 0)
 568              		.loc 1 228 5 is_stmt 1 view .LVU172
 569              		.loc 1 228 32 is_stmt 0 view .LVU173
 570 0080 042F     		cmp	r7, #4
 571 0082 14BF     		ite	ne
 572 0084 0027     		movne	r7, #0
 573 0086 0127     		moveq	r7, #1
 574 0088 002C     		cmp	r4, #0
 575 008a 08BF     		it	eq
 576 008c 0027     		moveq	r7, #0
 577              		.loc 1 228 8 view .LVU174
 578 008e 9FB1     		cbz	r7, .L50
 229:System/shell/shell_ext.c ****     {
 230:System/shell/shell_ext.c ****         valueFloat = (float)valueInt / devide * sign;
ARM GAS  C:\Users\HUAV\AppData\Local\Temp\cceQMsJf.s 			page 16


 579              		.loc 1 230 9 is_stmt 1 view .LVU175
 580              		.loc 1 230 22 is_stmt 0 view .LVU176
 581 0090 07EE903A 		vmov	s15, r3	@ int
 582 0094 F8EE677A 		vcvt.f32.u32	s15, s15
 583              		.loc 1 230 38 view .LVU177
 584 0098 07EE104A 		vmov	s14, r4	@ int
 585 009c B8EE477A 		vcvt.f32.u32	s14, s14
 586 00a0 C7EE876A 		vdiv.f32	s13, s15, s14
 587              		.loc 1 230 47 view .LVU178
 588 00a4 07EE909A 		vmov	s15, r9	@ int
 589 00a8 F8EEE77A 		vcvt.f32.s32	s15, s15
 590              	.LVL57:
 231:System/shell/shell_ext.c ****         return *(unsigned int *)(&valueFloat);
 591              		.loc 1 231 9 is_stmt 1 view .LVU179
 592              		.loc 1 231 16 is_stmt 0 view .LVU180
 593 00ac 67EEA67A 		vmul.f32	s15, s15, s13
 594              	.LVL58:
 595              		.loc 1 231 16 view .LVU181
 596 00b0 17EE900A 		vmov	r0, s15
 597              	.LVL59:
 598              	.L42:
 232:System/shell/shell_ext.c ****     }
 233:System/shell/shell_ext.c ****     else
 234:System/shell/shell_ext.c ****     {
 235:System/shell/shell_ext.c ****         return valueInt * sign;
 236:System/shell/shell_ext.c ****     }
 237:System/shell/shell_ext.c **** }
 599              		.loc 1 237 1 view .LVU182
 600 00b4 BDE8F883 		pop	{r3, r4, r5, r6, r7, r8, r9, pc}
 601              	.LVL60:
 602              	.L50:
 235:System/shell/shell_ext.c ****     }
 603              		.loc 1 235 9 is_stmt 1 view .LVU183
 235:System/shell/shell_ext.c ****     }
 604              		.loc 1 235 25 is_stmt 0 view .LVU184
 605 00b8 03FB09F0 		mul	r0, r3, r9
 606              	.LVL61:
 235:System/shell/shell_ext.c ****     }
 607              		.loc 1 235 25 view .LVU185
 608 00bc FAE7     		b	.L42
 609              		.cfi_endproc
 610              	.LFE4:
 612              		.section	.text.shellExtParseVar,"ax",%progbits
 613              		.align	1
 614              		.syntax unified
 615              		.thumb
 616              		.thumb_func
 617              		.fpu fpv5-d16
 619              	shellExtParseVar:
 620              	.LVL62:
 621              	.LFB5:
 238:System/shell/shell_ext.c **** 
 239:System/shell/shell_ext.c **** 
 240:System/shell/shell_ext.c **** /**
 241:System/shell/shell_ext.c ****  * @brief 解析变量参数
 242:System/shell/shell_ext.c ****  * 
 243:System/shell/shell_ext.c ****  * @param shell shell对象
ARM GAS  C:\Users\HUAV\AppData\Local\Temp\cceQMsJf.s 			page 17


 244:System/shell/shell_ext.c ****  * @param var 变量
 245:System/shell/shell_ext.c ****  * @return unsigned int 变量值
 246:System/shell/shell_ext.c ****  */
 247:System/shell/shell_ext.c **** static unsigned int shellExtParseVar(Shell *shell, char *var)
 248:System/shell/shell_ext.c **** {
 622              		.loc 1 248 1 is_stmt 1 view -0
 623              		.cfi_startproc
 624              		@ args = 0, pretend = 0, frame = 0
 625              		@ frame_needed = 0, uses_anonymous_args = 0
 626              		.loc 1 248 1 is_stmt 0 view .LVU187
 627 0000 10B5     		push	{r4, lr}
 628              	.LCFI2:
 629              		.cfi_def_cfa_offset 8
 630              		.cfi_offset 4, -8
 631              		.cfi_offset 14, -4
 632 0002 0446     		mov	r4, r0
 249:System/shell/shell_ext.c ****     ShellCommand *command = shellSeekCommand(shell,
 633              		.loc 1 249 5 is_stmt 1 view .LVU188
 634              		.loc 1 249 29 is_stmt 0 view .LVU189
 635 0004 0023     		movs	r3, #0
 636 0006 826D     		ldr	r2, [r0, #88]
 637 0008 0131     		adds	r1, r1, #1
 638              	.LVL63:
 639              		.loc 1 249 29 view .LVU190
 640 000a FFF7FEFF 		bl	shellSeekCommand
 641              	.LVL64:
 250:System/shell/shell_ext.c ****                                              var + 1,
 251:System/shell/shell_ext.c ****                                              shell->commandList.base,
 252:System/shell/shell_ext.c ****                                              0);
 253:System/shell/shell_ext.c ****     if (command)
 642              		.loc 1 253 5 is_stmt 1 view .LVU191
 643              		.loc 1 253 8 is_stmt 0 view .LVU192
 644 000e 20B1     		cbz	r0, .L64
 645 0010 0146     		mov	r1, r0
 254:System/shell/shell_ext.c ****     {
 255:System/shell/shell_ext.c ****         return shellGetVarValue(shell, command);
 646              		.loc 1 255 9 is_stmt 1 view .LVU193
 647              		.loc 1 255 16 is_stmt 0 view .LVU194
 648 0012 2046     		mov	r0, r4
 649              	.LVL65:
 650              		.loc 1 255 16 view .LVU195
 651 0014 FFF7FEFF 		bl	shellGetVarValue
 652              	.LVL66:
 653              	.L62:
 256:System/shell/shell_ext.c ****     }
 257:System/shell/shell_ext.c ****     else
 258:System/shell/shell_ext.c ****     {
 259:System/shell/shell_ext.c ****         return 0;
 260:System/shell/shell_ext.c ****     }
 261:System/shell/shell_ext.c **** }
 654              		.loc 1 261 1 view .LVU196
 655 0018 10BD     		pop	{r4, pc}
 656              	.LVL67:
 657              	.L64:
 259:System/shell/shell_ext.c ****     }
 658              		.loc 1 259 16 view .LVU197
 659 001a 0020     		movs	r0, #0
ARM GAS  C:\Users\HUAV\AppData\Local\Temp\cceQMsJf.s 			page 18


 660              	.LVL68:
 259:System/shell/shell_ext.c ****     }
 661              		.loc 1 259 16 view .LVU198
 662 001c FCE7     		b	.L62
 663              		.cfi_endproc
 664              	.LFE5:
 666              		.section	.text.shellExtParsePara,"ax",%progbits
 667              		.align	1
 668              		.global	shellExtParsePara
 669              		.syntax unified
 670              		.thumb
 671              		.thumb_func
 672              		.fpu fpv5-d16
 674              	shellExtParsePara:
 675              	.LVL69:
 676              	.LFB6:
 262:System/shell/shell_ext.c **** 
 263:System/shell/shell_ext.c **** 
 264:System/shell/shell_ext.c **** /**
 265:System/shell/shell_ext.c ****  * @brief 解析参数
 266:System/shell/shell_ext.c ****  * 
 267:System/shell/shell_ext.c ****  * @param shell shell对象
 268:System/shell/shell_ext.c ****  * @param string 参数
 269:System/shell/shell_ext.c ****  * @return unsigned int 解析结果
 270:System/shell/shell_ext.c ****  */
 271:System/shell/shell_ext.c **** unsigned int shellExtParsePara(Shell *shell, char *string)
 272:System/shell/shell_ext.c **** {
 677              		.loc 1 272 1 is_stmt 1 view -0
 678              		.cfi_startproc
 679              		@ args = 0, pretend = 0, frame = 0
 680              		@ frame_needed = 0, uses_anonymous_args = 0
 681              		.loc 1 272 1 is_stmt 0 view .LVU200
 682 0000 08B5     		push	{r3, lr}
 683              	.LCFI3:
 684              		.cfi_def_cfa_offset 8
 685              		.cfi_offset 3, -8
 686              		.cfi_offset 14, -4
 273:System/shell/shell_ext.c ****     if (*string == '\'' && *(string + 1))
 687              		.loc 1 273 5 is_stmt 1 view .LVU201
 688              		.loc 1 273 9 is_stmt 0 view .LVU202
 689 0002 0B78     		ldrb	r3, [r1]	@ zero_extendqisi2
 690              		.loc 1 273 8 view .LVU203
 691 0004 272B     		cmp	r3, #39
 692 0006 0BD0     		beq	.L73
 693              	.L67:
 274:System/shell/shell_ext.c ****     {
 275:System/shell/shell_ext.c ****         return (unsigned int)shellExtParseChar(string);
 276:System/shell/shell_ext.c ****     }
 277:System/shell/shell_ext.c ****     else if (*string == '-' || (*string >= '0' && *string <= '9'))
 694              		.loc 1 277 10 is_stmt 1 view .LVU204
 695              		.loc 1 277 29 is_stmt 0 view .LVU205
 696 0008 A3F13002 		sub	r2, r3, #48
 697 000c D2B2     		uxtb	r2, r2
 698              		.loc 1 277 13 view .LVU206
 699 000e 2D2B     		cmp	r3, #45
 700 0010 18BF     		it	ne
 701 0012 092A     		cmpne	r2, #9
ARM GAS  C:\Users\HUAV\AppData\Local\Temp\cceQMsJf.s 			page 19


 702 0014 0BD9     		bls	.L74
 278:System/shell/shell_ext.c ****     {
 279:System/shell/shell_ext.c ****         return (unsigned int)shellExtParseNumber(string);
 280:System/shell/shell_ext.c ****     }
 281:System/shell/shell_ext.c ****     else if (*string == '$' && *(string + 1))
 703              		.loc 1 281 10 is_stmt 1 view .LVU207
 704              		.loc 1 281 13 is_stmt 0 view .LVU208
 705 0016 242B     		cmp	r3, #36
 706 0018 0DD0     		beq	.L75
 707              	.L70:
 282:System/shell/shell_ext.c ****     {
 283:System/shell/shell_ext.c ****         return shellExtParseVar(shell, string);
 284:System/shell/shell_ext.c ****     }
 285:System/shell/shell_ext.c ****     else if (*string)
 708              		.loc 1 285 10 is_stmt 1 view .LVU209
 709              		.loc 1 285 13 is_stmt 0 view .LVU210
 710 001a 93B9     		cbnz	r3, .L76
 286:System/shell/shell_ext.c ****     {
 287:System/shell/shell_ext.c ****         return (unsigned int)shellExtParseString(string);
 288:System/shell/shell_ext.c ****     }
 289:System/shell/shell_ext.c ****     return 0;
 711              		.loc 1 289 12 view .LVU211
 712 001c 0020     		movs	r0, #0
 713              	.LVL70:
 714              	.L66:
 290:System/shell/shell_ext.c **** }
 715              		.loc 1 290 1 view .LVU212
 716 001e 08BD     		pop	{r3, pc}
 717              	.LVL71:
 718              	.L73:
 273:System/shell/shell_ext.c ****     {
 719              		.loc 1 273 28 discriminator 1 view .LVU213
 720 0020 4A78     		ldrb	r2, [r1, #1]	@ zero_extendqisi2
 273:System/shell/shell_ext.c ****     {
 721              		.loc 1 273 25 discriminator 1 view .LVU214
 722 0022 002A     		cmp	r2, #0
 723 0024 F0D0     		beq	.L67
 275:System/shell/shell_ext.c ****     }
 724              		.loc 1 275 9 is_stmt 1 view .LVU215
 275:System/shell/shell_ext.c ****     }
 725              		.loc 1 275 30 is_stmt 0 view .LVU216
 726 0026 0846     		mov	r0, r1
 727              	.LVL72:
 275:System/shell/shell_ext.c ****     }
 728              		.loc 1 275 30 view .LVU217
 729 0028 FFF7FEFF 		bl	shellExtParseChar
 730              	.LVL73:
 275:System/shell/shell_ext.c ****     }
 731              		.loc 1 275 16 view .LVU218
 732 002c F7E7     		b	.L66
 733              	.LVL74:
 734              	.L74:
 279:System/shell/shell_ext.c ****     }
 735              		.loc 1 279 9 is_stmt 1 view .LVU219
 279:System/shell/shell_ext.c ****     }
 736              		.loc 1 279 16 is_stmt 0 view .LVU220
 737 002e 0846     		mov	r0, r1
ARM GAS  C:\Users\HUAV\AppData\Local\Temp\cceQMsJf.s 			page 20


 738              	.LVL75:
 279:System/shell/shell_ext.c ****     }
 739              		.loc 1 279 16 view .LVU221
 740 0030 FFF7FEFF 		bl	shellExtParseNumber
 741              	.LVL76:
 279:System/shell/shell_ext.c ****     }
 742              		.loc 1 279 16 view .LVU222
 743 0034 F3E7     		b	.L66
 744              	.LVL77:
 745              	.L75:
 281:System/shell/shell_ext.c ****     {
 746              		.loc 1 281 32 discriminator 1 view .LVU223
 747 0036 4A78     		ldrb	r2, [r1, #1]	@ zero_extendqisi2
 281:System/shell/shell_ext.c ****     {
 748              		.loc 1 281 29 discriminator 1 view .LVU224
 749 0038 002A     		cmp	r2, #0
 750 003a EED0     		beq	.L70
 283:System/shell/shell_ext.c ****     }
 751              		.loc 1 283 9 is_stmt 1 view .LVU225
 283:System/shell/shell_ext.c ****     }
 752              		.loc 1 283 16 is_stmt 0 view .LVU226
 753 003c FFF7FEFF 		bl	shellExtParseVar
 754              	.LVL78:
 283:System/shell/shell_ext.c ****     }
 755              		.loc 1 283 16 view .LVU227
 756 0040 EDE7     		b	.L66
 757              	.LVL79:
 758              	.L76:
 287:System/shell/shell_ext.c ****     }
 759              		.loc 1 287 9 is_stmt 1 view .LVU228
 287:System/shell/shell_ext.c ****     }
 760              		.loc 1 287 30 is_stmt 0 view .LVU229
 761 0042 0846     		mov	r0, r1
 762              	.LVL80:
 287:System/shell/shell_ext.c ****     }
 763              		.loc 1 287 30 view .LVU230
 764 0044 FFF7FEFF 		bl	shellExtParseString
 765              	.LVL81:
 287:System/shell/shell_ext.c ****     }
 766              		.loc 1 287 16 view .LVU231
 767 0048 E9E7     		b	.L66
 768              		.cfi_endproc
 769              	.LFE6:
 771              		.section	.text.shellExtRun,"ax",%progbits
 772              		.align	1
 773              		.global	shellExtRun
 774              		.syntax unified
 775              		.thumb
 776              		.thumb_func
 777              		.fpu fpv5-d16
 779              	shellExtRun:
 780              	.LVL82:
 781              	.LFB7:
 291:System/shell/shell_ext.c **** 
 292:System/shell/shell_ext.c **** 
 293:System/shell/shell_ext.c **** /**
 294:System/shell/shell_ext.c ****  * @brief 执行命令
ARM GAS  C:\Users\HUAV\AppData\Local\Temp\cceQMsJf.s 			page 21


 295:System/shell/shell_ext.c ****  * 
 296:System/shell/shell_ext.c ****  * @param shell shell对象
 297:System/shell/shell_ext.c ****  * @param command 命令
 298:System/shell/shell_ext.c ****  * @param argc 参数个数
 299:System/shell/shell_ext.c ****  * @param argv 参数
 300:System/shell/shell_ext.c ****  * @return int 返回值
 301:System/shell/shell_ext.c ****  */
 302:System/shell/shell_ext.c **** int shellExtRun(Shell *shell, ShellCommand *command, int argc, char *argv[])
 303:System/shell/shell_ext.c **** {
 782              		.loc 1 303 1 is_stmt 1 view -0
 783              		.cfi_startproc
 784              		@ args = 0, pretend = 0, frame = 32
 785              		@ frame_needed = 0, uses_anonymous_args = 0
 786              		.loc 1 303 1 is_stmt 0 view .LVU233
 787 0000 2DE9F047 		push	{r4, r5, r6, r7, r8, r9, r10, lr}
 788              	.LCFI4:
 789              		.cfi_def_cfa_offset 32
 790              		.cfi_offset 4, -32
 791              		.cfi_offset 5, -28
 792              		.cfi_offset 6, -24
 793              		.cfi_offset 7, -20
 794              		.cfi_offset 8, -16
 795              		.cfi_offset 9, -12
 796              		.cfi_offset 10, -8
 797              		.cfi_offset 14, -4
 798 0004 8CB0     		sub	sp, sp, #48
 799              	.LCFI5:
 800              		.cfi_def_cfa_offset 80
 801 0006 8046     		mov	r8, r0
 802 0008 8A46     		mov	r10, r1
 803 000a 1746     		mov	r7, r2
 804 000c 9946     		mov	r9, r3
 304:System/shell/shell_ext.c ****     unsigned int params[SHELL_PARAMETER_MAX_NUMBER] = {0};
 805              		.loc 1 304 5 is_stmt 1 view .LVU234
 806              		.loc 1 304 18 is_stmt 0 view .LVU235
 807 000e 2022     		movs	r2, #32
 808              	.LVL83:
 809              		.loc 1 304 18 view .LVU236
 810 0010 0021     		movs	r1, #0
 811              	.LVL84:
 812              		.loc 1 304 18 view .LVU237
 813 0012 04A8     		add	r0, sp, #16
 814              	.LVL85:
 815              		.loc 1 304 18 view .LVU238
 816 0014 FFF7FEFF 		bl	memset
 817              	.LVL86:
 305:System/shell/shell_ext.c ****     int paramNum = command->attr.attrs.paramNum > (argc - 1) ? 
 818              		.loc 1 305 5 is_stmt 1 view .LVU239
 819              		.loc 1 305 39 is_stmt 0 view .LVU240
 820 0018 9AF80260 		ldrb	r6, [r10, #2]	@ zero_extendqisi2
 821 001c 06F00F06 		and	r6, r6, #15
 306:System/shell/shell_ext.c ****         command->attr.attrs.paramNum : (argc - 1);
 822              		.loc 1 306 38 view .LVU241
 823 0020 BE42     		cmp	r6, r7
 824 0022 00DA     		bge	.L78
 825              		.loc 1 306 38 discriminator 2 view .LVU242
 826 0024 7E1E     		subs	r6, r7, #1
ARM GAS  C:\Users\HUAV\AppData\Local\Temp\cceQMsJf.s 			page 22


 827              	.L78:
 828              	.LVL87:
 307:System/shell/shell_ext.c ****     for (int i = 0; i < argc - 1; i++)
 829              		.loc 1 307 5 is_stmt 1 view .LVU243
 830              	.LBB2:
 831              		.loc 1 307 10 view .LVU244
 832              		.loc 1 307 14 is_stmt 0 view .LVU245
 833 0026 0024     		movs	r4, #0
 834              	.LVL88:
 835              	.L79:
 836              		.loc 1 307 21 is_stmt 1 discriminator 1 view .LVU246
 837              		.loc 1 307 30 is_stmt 0 discriminator 1 view .LVU247
 838 0028 7D1E     		subs	r5, r7, #1
 839              		.loc 1 307 5 discriminator 1 view .LVU248
 840 002a A542     		cmp	r5, r4
 841 002c 0CDD     		ble	.L93
 308:System/shell/shell_ext.c ****     {
 309:System/shell/shell_ext.c ****         params[i] = shellExtParsePara(shell, argv[i + 1]);
 842              		.loc 1 309 9 is_stmt 1 discriminator 3 view .LVU249
 843              		.loc 1 309 50 is_stmt 0 discriminator 3 view .LVU250
 844 002e 651C     		adds	r5, r4, #1
 845              		.loc 1 309 21 discriminator 3 view .LVU251
 846 0030 59F82510 		ldr	r1, [r9, r5, lsl #2]
 847 0034 4046     		mov	r0, r8
 848 0036 FFF7FEFF 		bl	shellExtParsePara
 849              	.LVL89:
 850              		.loc 1 309 19 discriminator 3 view .LVU252
 851 003a 0CAB     		add	r3, sp, #48
 852 003c 03EB8404 		add	r4, r3, r4, lsl #2
 853              	.LVL90:
 854              		.loc 1 309 19 discriminator 3 view .LVU253
 855 0040 44F8200C 		str	r0, [r4, #-32]
 307:System/shell/shell_ext.c ****     for (int i = 0; i < argc - 1; i++)
 856              		.loc 1 307 35 is_stmt 1 discriminator 3 view .LVU254
 307:System/shell/shell_ext.c ****     for (int i = 0; i < argc - 1; i++)
 857              		.loc 1 307 36 is_stmt 0 discriminator 3 view .LVU255
 858 0044 2C46     		mov	r4, r5
 859              	.LVL91:
 307:System/shell/shell_ext.c ****     for (int i = 0; i < argc - 1; i++)
 860              		.loc 1 307 36 discriminator 3 view .LVU256
 861 0046 EFE7     		b	.L79
 862              	.LVL92:
 863              	.L93:
 307:System/shell/shell_ext.c ****     for (int i = 0; i < argc - 1; i++)
 864              		.loc 1 307 36 discriminator 3 view .LVU257
 865              	.LBE2:
 310:System/shell/shell_ext.c ****     }
 311:System/shell/shell_ext.c ****     switch (paramNum)
 866              		.loc 1 311 5 is_stmt 1 view .LVU258
 867 0048 072E     		cmp	r6, #7
 868 004a 49D8     		bhi	.L91
 869 004c DFE806F0 		tbb	[pc, r6]
 870              	.L83:
 871 0050 04       		.byte	(.L90-.L83)/2
 872 0051 0A       		.byte	(.L89-.L83)/2
 873 0052 0F       		.byte	(.L88-.L83)/2
 874 0053 15       		.byte	(.L87-.L83)/2
ARM GAS  C:\Users\HUAV\AppData\Local\Temp\cceQMsJf.s 			page 23


 875 0054 1C       		.byte	(.L86-.L83)/2
 876 0055 24       		.byte	(.L85-.L83)/2
 877 0056 2E       		.byte	(.L84-.L83)/2
 878 0057 3A       		.byte	(.L82-.L83)/2
 879              		.p2align 1
 880              	.L90:
 312:System/shell/shell_ext.c ****     {
 313:System/shell/shell_ext.c **** #if SHELL_PARAMETER_MAX_NUMBER >= 1
 314:System/shell/shell_ext.c ****     case 0:
 315:System/shell/shell_ext.c ****         return command->data.cmd.function();
 881              		.loc 1 315 9 view .LVU259
 882              		.loc 1 315 33 is_stmt 0 view .LVU260
 883 0058 DAF80830 		ldr	r3, [r10, #8]
 884              		.loc 1 315 16 view .LVU261
 885 005c 9847     		blx	r3
 886              	.LVL93:
 887              	.L77:
 316:System/shell/shell_ext.c ****         // break;
 317:System/shell/shell_ext.c **** #endif /** SHELL_PARAMETER_MAX_NUMBER >= 1 */
 318:System/shell/shell_ext.c **** #if SHELL_PARAMETER_MAX_NUMBER >= 2
 319:System/shell/shell_ext.c ****     case 1:
 320:System/shell/shell_ext.c ****         return command->data.cmd.function(params[0]);
 321:System/shell/shell_ext.c ****         // break;
 322:System/shell/shell_ext.c **** #endif /** SHELL_PARAMETER_MAX_NUMBER >= 2 */
 323:System/shell/shell_ext.c **** #if SHELL_PARAMETER_MAX_NUMBER >= 3
 324:System/shell/shell_ext.c ****     case 2:
 325:System/shell/shell_ext.c ****         return command->data.cmd.function(params[0], params[1]);
 326:System/shell/shell_ext.c ****         // break;
 327:System/shell/shell_ext.c **** #endif /** SHELL_PARAMETER_MAX_NUMBER >= 3 */
 328:System/shell/shell_ext.c **** #if SHELL_PARAMETER_MAX_NUMBER >= 4
 329:System/shell/shell_ext.c ****     case 3:
 330:System/shell/shell_ext.c ****         return command->data.cmd.function(params[0], params[1],
 331:System/shell/shell_ext.c ****                                           params[2]);
 332:System/shell/shell_ext.c ****         // break;
 333:System/shell/shell_ext.c **** #endif /** SHELL_PARAMETER_MAX_NUMBER >= 4 */
 334:System/shell/shell_ext.c **** #if SHELL_PARAMETER_MAX_NUMBER >= 5
 335:System/shell/shell_ext.c ****     case 4:
 336:System/shell/shell_ext.c ****         return command->data.cmd.function(params[0], params[1],
 337:System/shell/shell_ext.c ****                                           params[2], params[3]);
 338:System/shell/shell_ext.c ****         // break;
 339:System/shell/shell_ext.c **** #endif /** SHELL_PARAMETER_MAX_NUMBER >= 5 */
 340:System/shell/shell_ext.c **** #if SHELL_PARAMETER_MAX_NUMBER >= 6
 341:System/shell/shell_ext.c ****     case 5:
 342:System/shell/shell_ext.c ****         return command->data.cmd.function(params[0], params[1],
 343:System/shell/shell_ext.c ****                                           params[2], params[3],
 344:System/shell/shell_ext.c ****                                           params[4]);
 345:System/shell/shell_ext.c ****         // break;
 346:System/shell/shell_ext.c **** #endif /** SHELL_PARAMETER_MAX_NUMBER >= 6 */
 347:System/shell/shell_ext.c **** #if SHELL_PARAMETER_MAX_NUMBER >= 7
 348:System/shell/shell_ext.c ****     case 6:
 349:System/shell/shell_ext.c ****         return command->data.cmd.function(params[0], params[1],
 350:System/shell/shell_ext.c ****                                           params[2], params[3],
 351:System/shell/shell_ext.c ****                                           params[4], params[5]);
 352:System/shell/shell_ext.c ****         // break;
 353:System/shell/shell_ext.c **** #endif /** SHELL_PARAMETER_MAX_NUMBER >= 7 */
 354:System/shell/shell_ext.c **** #if SHELL_PARAMETER_MAX_NUMBER >= 8
 355:System/shell/shell_ext.c ****     case 7:
ARM GAS  C:\Users\HUAV\AppData\Local\Temp\cceQMsJf.s 			page 24


 356:System/shell/shell_ext.c ****         return command->data.cmd.function(params[0], params[1],
 357:System/shell/shell_ext.c ****                                           params[2], params[3],
 358:System/shell/shell_ext.c ****                                           params[4], params[5],
 359:System/shell/shell_ext.c ****                                           params[6]);
 360:System/shell/shell_ext.c ****         // break;
 361:System/shell/shell_ext.c **** #endif /** SHELL_PARAMETER_MAX_NUMBER >= 8 */
 362:System/shell/shell_ext.c **** #if SHELL_PARAMETER_MAX_NUMBER >= 9
 363:System/shell/shell_ext.c ****     case 8:
 364:System/shell/shell_ext.c ****         return command->data.cmd.function(params[0], params[1],
 365:System/shell/shell_ext.c ****                                           params[2], params[3],
 366:System/shell/shell_ext.c ****                                           params[4], params[5],
 367:System/shell/shell_ext.c ****                                           params[6], params[7]);
 368:System/shell/shell_ext.c ****         // break;
 369:System/shell/shell_ext.c **** #endif /** SHELL_PARAMETER_MAX_NUMBER >= 9 */
 370:System/shell/shell_ext.c **** #if SHELL_PARAMETER_MAX_NUMBER >= 10
 371:System/shell/shell_ext.c ****     case 9:
 372:System/shell/shell_ext.c ****         return command->data.cmd.function(params[0], params[1],
 373:System/shell/shell_ext.c ****                                           params[2], params[3],
 374:System/shell/shell_ext.c ****                                           params[4], params[5],
 375:System/shell/shell_ext.c ****                                           params[6], params[7],
 376:System/shell/shell_ext.c ****                                           params[8]);
 377:System/shell/shell_ext.c ****         // break;
 378:System/shell/shell_ext.c **** #endif /** SHELL_PARAMETER_MAX_NUMBER >= 10 */
 379:System/shell/shell_ext.c **** #if SHELL_PARAMETER_MAX_NUMBER >= 11
 380:System/shell/shell_ext.c ****     case 10:
 381:System/shell/shell_ext.c ****         return command->data.cmd.function(params[0], params[1],
 382:System/shell/shell_ext.c ****                                           params[2], params[3],
 383:System/shell/shell_ext.c ****                                           params[4], params[5],
 384:System/shell/shell_ext.c ****                                           params[6], params[7],
 385:System/shell/shell_ext.c ****                                           params[8], params[9]);
 386:System/shell/shell_ext.c ****         // break;
 387:System/shell/shell_ext.c **** #endif /** SHELL_PARAMETER_MAX_NUMBER >= 11 */
 388:System/shell/shell_ext.c **** #if SHELL_PARAMETER_MAX_NUMBER >= 12
 389:System/shell/shell_ext.c ****     case 11:
 390:System/shell/shell_ext.c ****         return command->data.cmd.function(params[0], params[1],
 391:System/shell/shell_ext.c ****                                           params[2], params[3],
 392:System/shell/shell_ext.c ****                                           params[4], params[5],
 393:System/shell/shell_ext.c ****                                           params[6], params[7],
 394:System/shell/shell_ext.c ****                                           params[8], params[9],
 395:System/shell/shell_ext.c ****                                           params[10]);
 396:System/shell/shell_ext.c ****         // break;
 397:System/shell/shell_ext.c **** #endif /** SHELL_PARAMETER_MAX_NUMBER >= 12 */
 398:System/shell/shell_ext.c **** #if SHELL_PARAMETER_MAX_NUMBER >= 13
 399:System/shell/shell_ext.c ****     case 12:
 400:System/shell/shell_ext.c ****         return command->data.cmd.function(params[0], params[1],
 401:System/shell/shell_ext.c ****                                           params[2], params[3],
 402:System/shell/shell_ext.c ****                                           params[4], params[5],
 403:System/shell/shell_ext.c ****                                           params[6], params[7],
 404:System/shell/shell_ext.c ****                                           params[8], params[9],
 405:System/shell/shell_ext.c ****                                           params[10], params[11]);
 406:System/shell/shell_ext.c ****         // break;
 407:System/shell/shell_ext.c **** #endif /** SHELL_PARAMETER_MAX_NUMBER >= 13 */
 408:System/shell/shell_ext.c **** #if SHELL_PARAMETER_MAX_NUMBER >= 14
 409:System/shell/shell_ext.c ****     case 13:
 410:System/shell/shell_ext.c ****         return command->data.cmd.function(params[0], params[1],
 411:System/shell/shell_ext.c ****                                           params[2], params[3],
 412:System/shell/shell_ext.c ****                                           params[4], params[5],
ARM GAS  C:\Users\HUAV\AppData\Local\Temp\cceQMsJf.s 			page 25


 413:System/shell/shell_ext.c ****                                           params[6], params[7],
 414:System/shell/shell_ext.c ****                                           params[8], params[9],
 415:System/shell/shell_ext.c ****                                           params[10], params[11],
 416:System/shell/shell_ext.c ****                                           params[12]);
 417:System/shell/shell_ext.c ****         // break;
 418:System/shell/shell_ext.c **** #endif /** SHELL_PARAMETER_MAX_NUMBER >= 14 */
 419:System/shell/shell_ext.c **** #if SHELL_PARAMETER_MAX_NUMBER >= 15
 420:System/shell/shell_ext.c ****     case 14:
 421:System/shell/shell_ext.c ****         return command->data.cmd.function(params[0], params[1],
 422:System/shell/shell_ext.c ****                                           params[2], params[3],
 423:System/shell/shell_ext.c ****                                           params[4], params[5],
 424:System/shell/shell_ext.c ****                                           params[6], params[7],
 425:System/shell/shell_ext.c ****                                           params[8], params[9],
 426:System/shell/shell_ext.c ****                                           params[10], params[11],
 427:System/shell/shell_ext.c ****                                           params[12], params[13]);
 428:System/shell/shell_ext.c ****         // break;
 429:System/shell/shell_ext.c **** #endif /** SHELL_PARAMETER_MAX_NUMBER >= 15 */
 430:System/shell/shell_ext.c **** #if SHELL_PARAMETER_MAX_NUMBER >= 16
 431:System/shell/shell_ext.c ****     case 15:
 432:System/shell/shell_ext.c ****         return command->data.cmd.function(params[0], params[1],
 433:System/shell/shell_ext.c ****                                           params[2], params[3],
 434:System/shell/shell_ext.c ****                                           params[4], params[5],
 435:System/shell/shell_ext.c ****                                           params[6], params[7],
 436:System/shell/shell_ext.c ****                                           params[8], params[9],
 437:System/shell/shell_ext.c ****                                           params[10], params[11],
 438:System/shell/shell_ext.c ****                                           params[12], params[13],
 439:System/shell/shell_ext.c ****                                           params[14]);
 440:System/shell/shell_ext.c ****         // break;
 441:System/shell/shell_ext.c **** #endif /** SHELL_PARAMETER_MAX_NUMBER >= 16 */
 442:System/shell/shell_ext.c ****     default:
 443:System/shell/shell_ext.c ****         return -1;
 444:System/shell/shell_ext.c ****         // break;
 445:System/shell/shell_ext.c ****     }
 446:System/shell/shell_ext.c **** }
 888              		.loc 1 446 1 view .LVU262
 889 005e 0CB0     		add	sp, sp, #48
 890              	.LCFI6:
 891              		.cfi_remember_state
 892              		.cfi_def_cfa_offset 32
 893              		@ sp needed
 894 0060 BDE8F087 		pop	{r4, r5, r6, r7, r8, r9, r10, pc}
 895              	.LVL94:
 896              	.L89:
 897              	.LCFI7:
 898              		.cfi_restore_state
 320:System/shell/shell_ext.c ****         // break;
 899              		.loc 1 320 9 is_stmt 1 view .LVU263
 320:System/shell/shell_ext.c ****         // break;
 900              		.loc 1 320 33 is_stmt 0 view .LVU264
 901 0064 DAF80830 		ldr	r3, [r10, #8]
 320:System/shell/shell_ext.c ****         // break;
 902              		.loc 1 320 16 view .LVU265
 903 0068 0498     		ldr	r0, [sp, #16]
 904 006a 9847     		blx	r3
 905              	.LVL95:
 906 006c F7E7     		b	.L77
 907              	.L88:
ARM GAS  C:\Users\HUAV\AppData\Local\Temp\cceQMsJf.s 			page 26


 325:System/shell/shell_ext.c ****         // break;
 908              		.loc 1 325 9 is_stmt 1 view .LVU266
 325:System/shell/shell_ext.c ****         // break;
 909              		.loc 1 325 33 is_stmt 0 view .LVU267
 910 006e DAF80830 		ldr	r3, [r10, #8]
 325:System/shell/shell_ext.c ****         // break;
 911              		.loc 1 325 16 view .LVU268
 912 0072 0599     		ldr	r1, [sp, #20]
 913 0074 0498     		ldr	r0, [sp, #16]
 914 0076 9847     		blx	r3
 915              	.LVL96:
 916 0078 F1E7     		b	.L77
 917              	.L87:
 330:System/shell/shell_ext.c ****                                           params[2]);
 918              		.loc 1 330 9 is_stmt 1 view .LVU269
 330:System/shell/shell_ext.c ****                                           params[2]);
 919              		.loc 1 330 33 is_stmt 0 view .LVU270
 920 007a DAF80830 		ldr	r3, [r10, #8]
 330:System/shell/shell_ext.c ****                                           params[2]);
 921              		.loc 1 330 16 view .LVU271
 922 007e 069A     		ldr	r2, [sp, #24]
 923 0080 0599     		ldr	r1, [sp, #20]
 924 0082 0498     		ldr	r0, [sp, #16]
 925 0084 9847     		blx	r3
 926              	.LVL97:
 927 0086 EAE7     		b	.L77
 928              	.L86:
 336:System/shell/shell_ext.c ****                                           params[2], params[3]);
 929              		.loc 1 336 9 is_stmt 1 view .LVU272
 336:System/shell/shell_ext.c ****                                           params[2], params[3]);
 930              		.loc 1 336 33 is_stmt 0 view .LVU273
 931 0088 DAF80840 		ldr	r4, [r10, #8]
 932              	.LVL98:
 336:System/shell/shell_ext.c ****                                           params[2], params[3]);
 933              		.loc 1 336 16 view .LVU274
 934 008c 079B     		ldr	r3, [sp, #28]
 935 008e 069A     		ldr	r2, [sp, #24]
 936 0090 0599     		ldr	r1, [sp, #20]
 937 0092 0498     		ldr	r0, [sp, #16]
 938 0094 A047     		blx	r4
 939              	.LVL99:
 940 0096 E2E7     		b	.L77
 941              	.LVL100:
 942              	.L85:
 342:System/shell/shell_ext.c ****                                           params[2], params[3],
 943              		.loc 1 342 9 is_stmt 1 view .LVU275
 342:System/shell/shell_ext.c ****                                           params[2], params[3],
 944              		.loc 1 342 33 is_stmt 0 view .LVU276
 945 0098 DAF80840 		ldr	r4, [r10, #8]
 946              	.LVL101:
 342:System/shell/shell_ext.c ****                                           params[2], params[3],
 947              		.loc 1 342 16 view .LVU277
 948 009c 089B     		ldr	r3, [sp, #32]
 949 009e 0093     		str	r3, [sp]
 950 00a0 079B     		ldr	r3, [sp, #28]
 951 00a2 069A     		ldr	r2, [sp, #24]
 952 00a4 0599     		ldr	r1, [sp, #20]
ARM GAS  C:\Users\HUAV\AppData\Local\Temp\cceQMsJf.s 			page 27


 953 00a6 0498     		ldr	r0, [sp, #16]
 954 00a8 A047     		blx	r4
 955              	.LVL102:
 956 00aa D8E7     		b	.L77
 957              	.LVL103:
 958              	.L84:
 349:System/shell/shell_ext.c ****                                           params[2], params[3],
 959              		.loc 1 349 9 is_stmt 1 view .LVU278
 349:System/shell/shell_ext.c ****                                           params[2], params[3],
 960              		.loc 1 349 33 is_stmt 0 view .LVU279
 961 00ac DAF80840 		ldr	r4, [r10, #8]
 962              	.LVL104:
 349:System/shell/shell_ext.c ****                                           params[2], params[3],
 963              		.loc 1 349 16 view .LVU280
 964 00b0 099B     		ldr	r3, [sp, #36]
 965 00b2 0193     		str	r3, [sp, #4]
 966 00b4 089B     		ldr	r3, [sp, #32]
 967 00b6 0093     		str	r3, [sp]
 968 00b8 079B     		ldr	r3, [sp, #28]
 969 00ba 069A     		ldr	r2, [sp, #24]
 970 00bc 0599     		ldr	r1, [sp, #20]
 971 00be 0498     		ldr	r0, [sp, #16]
 972 00c0 A047     		blx	r4
 973              	.LVL105:
 974 00c2 CCE7     		b	.L77
 975              	.LVL106:
 976              	.L82:
 356:System/shell/shell_ext.c ****                                           params[2], params[3],
 977              		.loc 1 356 9 is_stmt 1 view .LVU281
 356:System/shell/shell_ext.c ****                                           params[2], params[3],
 978              		.loc 1 356 33 is_stmt 0 view .LVU282
 979 00c4 DAF80840 		ldr	r4, [r10, #8]
 980              	.LVL107:
 356:System/shell/shell_ext.c ****                                           params[2], params[3],
 981              		.loc 1 356 16 view .LVU283
 982 00c8 0A9B     		ldr	r3, [sp, #40]
 983 00ca 0293     		str	r3, [sp, #8]
 984 00cc 099B     		ldr	r3, [sp, #36]
 985 00ce 0193     		str	r3, [sp, #4]
 986 00d0 089B     		ldr	r3, [sp, #32]
 987 00d2 0093     		str	r3, [sp]
 988 00d4 079B     		ldr	r3, [sp, #28]
 989 00d6 069A     		ldr	r2, [sp, #24]
 990 00d8 0599     		ldr	r1, [sp, #20]
 991 00da 0498     		ldr	r0, [sp, #16]
 992 00dc A047     		blx	r4
 993              	.LVL108:
 994 00de BEE7     		b	.L77
 995              	.LVL109:
 996              	.L91:
 997              	.LBB3:
 307:System/shell/shell_ext.c ****     {
 998              		.loc 1 307 5 view .LVU284
 999 00e0 4FF0FF30 		mov	r0, #-1
 1000 00e4 BBE7     		b	.L77
 1001              	.LBE3:
 1002              		.cfi_endproc
ARM GAS  C:\Users\HUAV\AppData\Local\Temp\cceQMsJf.s 			page 28


 1003              	.LFE7:
 1005              		.text
 1006              	.Letext0:
 1007              		.file 2 "d:\\software\\zephyr_env_gcc\\gcc-arm-none-eabi-9-2019-q4-major-win32\\arm-none-eabi\\inc
 1008              		.file 3 "d:\\software\\zephyr_env_gcc\\gcc-arm-none-eabi-9-2019-q4-major-win32\\arm-none-eabi\\inc
 1009              		.file 4 "System/shell/shell.h"
 1010              		.file 5 "System/shell/shell_ext.h"
 1011              		.file 6 "<built-in>"
ARM GAS  C:\Users\HUAV\AppData\Local\Temp\cceQMsJf.s 			page 29


DEFINED SYMBOLS
                            *ABS*:00000000 shell_ext.c
C:\Users\HUAV\AppData\Local\Temp\cceQMsJf.s:17     .text.shellExtNumType:00000000 $t
C:\Users\HUAV\AppData\Local\Temp\cceQMsJf.s:24     .text.shellExtNumType:00000000 shellExtNumType
C:\Users\HUAV\AppData\Local\Temp\cceQMsJf.s:133    .text.shellExtToNum:00000000 $t
C:\Users\HUAV\AppData\Local\Temp\cceQMsJf.s:139    .text.shellExtToNum:00000000 shellExtToNum
C:\Users\HUAV\AppData\Local\Temp\cceQMsJf.s:193    .text.shellExtParseChar:00000000 $t
C:\Users\HUAV\AppData\Local\Temp\cceQMsJf.s:199    .text.shellExtParseChar:00000000 shellExtParseChar
C:\Users\HUAV\AppData\Local\Temp\cceQMsJf.s:246    .text.shellExtParseChar:00000028 $d
C:\Users\HUAV\AppData\Local\Temp\cceQMsJf.s:265    .text.shellExtParseChar:00000074 $t
C:\Users\HUAV\AppData\Local\Temp\cceQMsJf.s:299    .text.shellExtParseString:00000000 $t
C:\Users\HUAV\AppData\Local\Temp\cceQMsJf.s:305    .text.shellExtParseString:00000000 shellExtParseString
C:\Users\HUAV\AppData\Local\Temp\cceQMsJf.s:407    .text.shellExtParseNumber:00000000 $t
C:\Users\HUAV\AppData\Local\Temp\cceQMsJf.s:413    .text.shellExtParseNumber:00000000 shellExtParseNumber
C:\Users\HUAV\AppData\Local\Temp\cceQMsJf.s:613    .text.shellExtParseVar:00000000 $t
C:\Users\HUAV\AppData\Local\Temp\cceQMsJf.s:619    .text.shellExtParseVar:00000000 shellExtParseVar
C:\Users\HUAV\AppData\Local\Temp\cceQMsJf.s:667    .text.shellExtParsePara:00000000 $t
C:\Users\HUAV\AppData\Local\Temp\cceQMsJf.s:674    .text.shellExtParsePara:00000000 shellExtParsePara
C:\Users\HUAV\AppData\Local\Temp\cceQMsJf.s:772    .text.shellExtRun:00000000 $t
C:\Users\HUAV\AppData\Local\Temp\cceQMsJf.s:779    .text.shellExtRun:00000000 shellExtRun
C:\Users\HUAV\AppData\Local\Temp\cceQMsJf.s:871    .text.shellExtRun:00000050 $d
C:\Users\HUAV\AppData\Local\Temp\cceQMsJf.s:879    .text.shellExtRun:00000058 $t

UNDEFINED SYMBOLS
shellSeekCommand
shellGetVarValue
memset
