ARM GAS  C:\Users\HUAV\AppData\Local\Temp\ccyiM7Rc.s 			page 1


   1              		.cpu cortex-m7
   2              		.eabi_attribute 28, 1
   3              		.eabi_attribute 20, 1
   4              		.eabi_attribute 21, 1
   5              		.eabi_attribute 23, 3
   6              		.eabi_attribute 24, 1
   7              		.eabi_attribute 25, 1
   8              		.eabi_attribute 26, 1
   9              		.eabi_attribute 30, 1
  10              		.eabi_attribute 34, 1
  11              		.eabi_attribute 18, 4
  12              		.file	"Srv_IMUSample.c"
  13              		.text
  14              	.Ltext0:
  15              		.cfi_sections	.debug_frame
  16              		.section	.text.SrvIMU_PriIMU_CS_Ctl,"ax",%progbits
  17              		.align	1
  18              		.arch armv7e-m
  19              		.syntax unified
  20              		.thumb
  21              		.thumb_func
  22              		.fpu fpv5-d16
  24              	SrvIMU_PriIMU_CS_Ctl:
  25              	.LVL0:
  26              	.LFB151:
  27              		.file 1 "Service/Srv_IMUSample.c"
   1:Service/Srv_IMUSample.c **** /*
   2:Service/Srv_IMUSample.c ****  * CODE: 8_B!T0
   3:Service/Srv_IMUSample.c ****  */
   4:Service/Srv_IMUSample.c **** #include "Srv_IMUSample.h"
   5:Service/Srv_IMUSample.c **** #include "Dev_MPU6000.h"
   6:Service/Srv_IMUSample.c **** #include "Dev_ICM20602.h"
   7:Service/Srv_IMUSample.c **** #include "Dev_ICM426xx.h"
   8:Service/Srv_IMUSample.c **** #include "IO_Definition.h"
   9:Service/Srv_IMUSample.c **** #include "runtime.h"
  10:Service/Srv_IMUSample.c **** #include "debug_util.h"
  11:Service/Srv_IMUSample.c **** #include "Bsp_SPI.h"
  12:Service/Srv_IMUSample.c **** #include "error_log.h"
  13:Service/Srv_IMUSample.c **** #include "Dev_Led.h"
  14:Service/Srv_IMUSample.c **** #include "filter.h"
  15:Service/Srv_IMUSample.c **** #include <math.h>
  16:Service/Srv_IMUSample.c **** 
  17:Service/Srv_IMUSample.c **** /* use ENU coordinate */
  18:Service/Srv_IMUSample.c **** 
  19:Service/Srv_IMUSample.c **** #define IMU_Commu_TimeOut 1000
  20:Service/Srv_IMUSample.c **** #define MPU_MODULE_INIT_RETRY 10 // init retry count 10
  21:Service/Srv_IMUSample.c **** #define ANGULAR_SPEED_ACCURACY 1e3
  22:Service/Srv_IMUSample.c **** 
  23:Service/Srv_IMUSample.c **** #define GYR_STATIC_CALIB_CYCLE 100
  24:Service/Srv_IMUSample.c **** #define GYR_STATIC_CALIB_ACCURACY ANGULAR_SPEED_ACCURACY
  25:Service/Srv_IMUSample.c **** #define GYR_STATIC_CALIB_ANGULAR_SPEED_THRESHOLD (3 * GYR_STATIC_CALIB_ACCURACY)
  26:Service/Srv_IMUSample.c **** #define GYR_STATIC_CALIB_ANGULAR_SPEED_DIFF_THRESHOLD (2 * GYR_STATIC_CALIB_ACCURACY)
  27:Service/Srv_IMUSample.c **** 
  28:Service/Srv_IMUSample.c **** #define IMU_DATA_SIZE sizeof(SrvIMU_Data_TypeDef)
  29:Service/Srv_IMUSample.c **** 
  30:Service/Srv_IMUSample.c **** /*
  31:Service/Srv_IMUSample.c ****  * Angular Speed Over Speed Threshold
ARM GAS  C:\Users\HUAV\AppData\Local\Temp\ccyiM7Rc.s 			page 2


  32:Service/Srv_IMUSample.c ****  * Angular Speed Per Millscond
  33:Service/Srv_IMUSample.c ****  */
  34:Service/Srv_IMUSample.c **** #define ANGULAR_ACCECLERATION_THRESHOLD 300 / 10.0f // angular speed accelerate from 0 to 300 deg/s
  35:Service/Srv_IMUSample.c **** 
  36:Service/Srv_IMUSample.c **** typedef struct
  37:Service/Srv_IMUSample.c **** {
  38:Service/Srv_IMUSample.c ****     SrvIMU_SensorID_List type;
  39:Service/Srv_IMUSample.c ****     void *obj_ptr;
  40:Service/Srv_IMUSample.c ****     IMUData_TypeDef *OriData_ptr;
  41:Service/Srv_IMUSample.c **** 
  42:Service/Srv_IMUSample.c ****     uint8_t acc_trip;
  43:Service/Srv_IMUSample.c ****     uint16_t gyr_trip;
  44:Service/Srv_IMUSample.c **** 
  45:Service/Srv_IMUSample.c ****     bool (*get_drdy)(void *obj);
  46:Service/Srv_IMUSample.c ****     bool (*sample)(void *obj);
  47:Service/Srv_IMUSample.c ****     IMUModuleScale_TypeDef (*get_scale)(void *obj);
  48:Service/Srv_IMUSample.c ****     void (*set_drdy)(void *obj);
  49:Service/Srv_IMUSample.c ****     IMU_Error_TypeDef (*get_error)(void *obj);
  50:Service/Srv_IMUSample.c **** }SrvIMU_InuseSensorObj_TypeDef;
  51:Service/Srv_IMUSample.c **** 
  52:Service/Srv_IMUSample.c **** /* test var */
  53:Service/Srv_IMUSample.c **** static uint32_t SrvIMU_PriIMU_Init_Error_CNT = 0;
  54:Service/Srv_IMUSample.c **** static uint32_t SrvIMU_SecIMU_Init_Error_CNT = 0;
  55:Service/Srv_IMUSample.c **** static uint32_t SrvIMU_ALLModule_Init_Error_CNT = 0;
  56:Service/Srv_IMUSample.c **** static uint32_t SrvIMU_Reupdate_Statistics_CNT = 0;
  57:Service/Srv_IMUSample.c **** 
  58:Service/Srv_IMUSample.c **** /* PriIMU Butterworth filter object handle */
  59:Service/Srv_IMUSample.c **** static BWF_Object_Handle PriIMU_Gyr_LPF_Handle[Axis_Sum] = {0};
  60:Service/Srv_IMUSample.c **** static BWF_Object_Handle PriIMU_Acc_LPF_Handle[Axis_Sum] = {0};
  61:Service/Srv_IMUSample.c **** 
  62:Service/Srv_IMUSample.c **** /* SecIMU Butterworth filter object handle */
  63:Service/Srv_IMUSample.c **** static BWF_Object_Handle SecIMU_Gyr_LPF_Handle[Axis_Sum] = {0};
  64:Service/Srv_IMUSample.c **** static BWF_Object_Handle SecIMU_Acc_LPF_Handle[Axis_Sum] = {0};
  65:Service/Srv_IMUSample.c **** 
  66:Service/Srv_IMUSample.c **** /* Gyro Calibration Zero Offset Val */
  67:Service/Srv_IMUSample.c **** static float PriIMU_Gyr_ZeroOffset[Axis_Sum] = {0.0f};
  68:Service/Srv_IMUSample.c **** static float SecIMU_Gyr_ZeroOffset[Axis_Sum] = {0.0f};
  69:Service/Srv_IMUSample.c **** 
  70:Service/Srv_IMUSample.c **** /*
  71:Service/Srv_IMUSample.c ****  *   PriIMU -> MPU6000
  72:Service/Srv_IMUSample.c ****  *   SecIMU -> ICM20602
  73:Service/Srv_IMUSample.c ****  */
  74:Service/Srv_IMUSample.c **** static SrvMpu_Reg_TypeDef SrvMpu_Init_Reg;
  75:Service/Srv_IMUSample.c **** static SrvMpu_Reg_TypeDef SrvMpu_Update_Reg;
  76:Service/Srv_IMUSample.c **** static SrvIMU_Data_TypeDef PriIMU_Data;
  77:Service/Srv_IMUSample.c **** static SrvIMU_Data_TypeDef SecIMU_Data;
  78:Service/Srv_IMUSample.c **** static SrvIMU_Data_TypeDef PriIMU_Data_Lst;
  79:Service/Srv_IMUSample.c **** static SrvIMU_Data_TypeDef SecIMU_Data_Lst;
  80:Service/Srv_IMUSample.c **** static SrvIMU_Data_TypeDef IMU_Data;
  81:Service/Srv_IMUSample.c **** static SrvIMU_Data_TypeDef IMU_Data_Lst;
  82:Service/Srv_IMUSample.c **** static Error_Handler SrvMPU_Error_Handle = NULL;
  83:Service/Srv_IMUSample.c **** 
  84:Service/Srv_IMUSample.c **** /* internal variable */
  85:Service/Srv_IMUSample.c **** /* MPU6000 Instance */
  86:Service/Srv_IMUSample.c **** static SPI_HandleTypeDef PriIMU_Bus_Instance;
  87:Service/Srv_IMUSample.c **** static BspSPI_NorModeConfig_TypeDef PriIMU_BusCfg = {
  88:Service/Srv_IMUSample.c ****     .Instance = PriIMU_SPI_BUS,
ARM GAS  C:\Users\HUAV\AppData\Local\Temp\ccyiM7Rc.s 			page 3


  89:Service/Srv_IMUSample.c ****     .CLKPolarity = SPI_POLARITY_HIGH,
  90:Service/Srv_IMUSample.c ****     .CLKPhase = SPI_PHASE_2EDGE,
  91:Service/Srv_IMUSample.c ****     .BaudRatePrescaler = SPI_BAUDRATEPRESCALER_4,
  92:Service/Srv_IMUSample.c **** };
  93:Service/Srv_IMUSample.c **** 
  94:Service/Srv_IMUSample.c **** /* ICM20602 Instance */
  95:Service/Srv_IMUSample.c **** static SPI_HandleTypeDef SecIMU_Bus_Instance;
  96:Service/Srv_IMUSample.c **** static BspSPI_NorModeConfig_TypeDef SecIMU_BusCfg = {
  97:Service/Srv_IMUSample.c ****     .Instance = SecIMU_SPI_BUS,
  98:Service/Srv_IMUSample.c ****     .CLKPolarity = SPI_POLARITY_LOW,
  99:Service/Srv_IMUSample.c ****     .CLKPhase = SPI_PHASE_1EDGE,
 100:Service/Srv_IMUSample.c ****     .BaudRatePrescaler = SPI_BAUDRATEPRESCALER_2,
 101:Service/Srv_IMUSample.c **** };
 102:Service/Srv_IMUSample.c **** 
 103:Service/Srv_IMUSample.c **** static DevMPU6000Obj_TypeDef MPU6000Obj;
 104:Service/Srv_IMUSample.c **** static DevICM20602Obj_TypeDef ICM20602Obj;
 105:Service/Srv_IMUSample.c **** static DevICM426xxObj_TypeDef ICM42688PObj;
 106:Service/Srv_IMUSample.c **** static DevICM426xxObj_TypeDef ICM42605Obj;
 107:Service/Srv_IMUSample.c **** 
 108:Service/Srv_IMUSample.c **** static SrvIMU_InuseSensorObj_TypeDef InUse_PriIMU_Obj;
 109:Service/Srv_IMUSample.c **** static SrvIMU_InuseSensorObj_TypeDef InUse_SecIMU_Obj;
 110:Service/Srv_IMUSample.c **** 
 111:Service/Srv_IMUSample.c **** /************************************************************************ Error Tree Item *********
 112:Service/Srv_IMUSample.c **** static void SrvIMU_PriDev_Filter_InitError(int16_t code, uint8_t *p_arg, uint16_t size);
 113:Service/Srv_IMUSample.c **** static void SrvIMU_SecDev_Filter_InitError(int16_t code, uint8_t *p_arg, uint16_t size);
 114:Service/Srv_IMUSample.c **** static void SrvIMU_Dev_InitError(int16_t code, uint8_t *p_arg, uint16_t size);
 115:Service/Srv_IMUSample.c **** static void SrvIMU_AllModule_InitError(int16_t code, uint8_t *p_arg, uint16_t size);
 116:Service/Srv_IMUSample.c **** static void SrvIMU_PriSample_Undrdy(uint8_t *p_arg, uint16_t size);
 117:Service/Srv_IMUSample.c **** static void SrvIMU_SecSample_Undrdy(uint8_t *p_arg, uint16_t size);
 118:Service/Srv_IMUSample.c **** 
 119:Service/Srv_IMUSample.c **** static Error_Obj_Typedef SrvIMU_ErrorList[] = {
 120:Service/Srv_IMUSample.c ****     {
 121:Service/Srv_IMUSample.c ****         .out = true,
 122:Service/Srv_IMUSample.c ****         .log = false,
 123:Service/Srv_IMUSample.c ****         .prc_callback = NULL,
 124:Service/Srv_IMUSample.c ****         .code = SrvIMU_SecDev_Detect_Error,
 125:Service/Srv_IMUSample.c ****         .desc = "Sec IMU None Detected\r\n",
 126:Service/Srv_IMUSample.c ****         .proc_type = Error_Proc_Ignore,
 127:Service/Srv_IMUSample.c ****         .prc_data_stream = {
 128:Service/Srv_IMUSample.c ****             .p_data = NULL,
 129:Service/Srv_IMUSample.c ****             .size = 0,
 130:Service/Srv_IMUSample.c ****         },
 131:Service/Srv_IMUSample.c ****     },
 132:Service/Srv_IMUSample.c ****     {
 133:Service/Srv_IMUSample.c ****         .out = true,
 134:Service/Srv_IMUSample.c ****         .log = false,
 135:Service/Srv_IMUSample.c ****         .prc_callback = NULL,
 136:Service/Srv_IMUSample.c ****         .code = SrvIMU_PriDev_Detect_Error,
 137:Service/Srv_IMUSample.c ****         .desc = "Pri IMU None Detected\r\n",
 138:Service/Srv_IMUSample.c ****         .proc_type = Error_Proc_Ignore,
 139:Service/Srv_IMUSample.c ****         .prc_data_stream = {
 140:Service/Srv_IMUSample.c ****             .p_data = NULL,
 141:Service/Srv_IMUSample.c ****             .size = 0,
 142:Service/Srv_IMUSample.c ****         },
 143:Service/Srv_IMUSample.c ****     },
 144:Service/Srv_IMUSample.c ****     {
 145:Service/Srv_IMUSample.c ****         .out = true,
ARM GAS  C:\Users\HUAV\AppData\Local\Temp\ccyiM7Rc.s 			page 4


 146:Service/Srv_IMUSample.c ****         .log = false,
 147:Service/Srv_IMUSample.c ****         .prc_callback = SrvIMU_SecDev_Filter_InitError,
 148:Service/Srv_IMUSample.c ****         .code = SrvIMU_SecIMU_Filter_Init_Error,
 149:Service/Srv_IMUSample.c ****         .desc = "Sec IMU Filter Init Failed\r\n",
 150:Service/Srv_IMUSample.c ****         .proc_type = Error_Proc_Ignore,
 151:Service/Srv_IMUSample.c ****         .prc_data_stream = {
 152:Service/Srv_IMUSample.c ****             .p_data = NULL,
 153:Service/Srv_IMUSample.c ****             .size = 0,
 154:Service/Srv_IMUSample.c ****         },
 155:Service/Srv_IMUSample.c ****     },
 156:Service/Srv_IMUSample.c ****     {
 157:Service/Srv_IMUSample.c ****         .out = true,
 158:Service/Srv_IMUSample.c ****         .log = false,
 159:Service/Srv_IMUSample.c ****         .prc_callback = SrvIMU_PriDev_Filter_InitError,
 160:Service/Srv_IMUSample.c ****         .code = SrvIMU_PriIMU_Filter_Init_Error,
 161:Service/Srv_IMUSample.c ****         .desc = "Pri IMU Filter Init Failed\r\n",
 162:Service/Srv_IMUSample.c ****         .proc_type = Error_Proc_Ignore,
 163:Service/Srv_IMUSample.c ****         .prc_data_stream = {
 164:Service/Srv_IMUSample.c ****             .p_data = NULL,
 165:Service/Srv_IMUSample.c ****             .size = 0,
 166:Service/Srv_IMUSample.c ****         },
 167:Service/Srv_IMUSample.c ****     },
 168:Service/Srv_IMUSample.c ****     {
 169:Service/Srv_IMUSample.c ****         .out = true,
 170:Service/Srv_IMUSample.c ****         .log = false,
 171:Service/Srv_IMUSample.c ****         .prc_callback = NULL,
 172:Service/Srv_IMUSample.c ****         .code = SrvIMU_PriCSPin_Init_Error,
 173:Service/Srv_IMUSample.c ****         .desc = "Pri CS Pin Init Failed\r\n",
 174:Service/Srv_IMUSample.c ****         .proc_type = Error_Proc_Ignore,
 175:Service/Srv_IMUSample.c ****         .prc_data_stream = {
 176:Service/Srv_IMUSample.c ****             .p_data = NULL,
 177:Service/Srv_IMUSample.c ****             .size = 0,
 178:Service/Srv_IMUSample.c ****         },
 179:Service/Srv_IMUSample.c ****     },
 180:Service/Srv_IMUSample.c ****     {
 181:Service/Srv_IMUSample.c ****         .out = true,
 182:Service/Srv_IMUSample.c ****         .log = false,
 183:Service/Srv_IMUSample.c ****         .prc_callback = NULL,
 184:Service/Srv_IMUSample.c ****         .code = SrvIMU_PriExtiPin_Init_Error,
 185:Service/Srv_IMUSample.c ****         .desc = "Pri Ext Pin Init Failed\r\n",
 186:Service/Srv_IMUSample.c ****         .proc_type = Error_Proc_Ignore,
 187:Service/Srv_IMUSample.c ****         .prc_data_stream = {
 188:Service/Srv_IMUSample.c ****             .p_data = NULL,
 189:Service/Srv_IMUSample.c ****             .size = 0,
 190:Service/Srv_IMUSample.c ****         },
 191:Service/Srv_IMUSample.c ****     },
 192:Service/Srv_IMUSample.c ****     {
 193:Service/Srv_IMUSample.c ****         .out = true,
 194:Service/Srv_IMUSample.c ****         .log = false,
 195:Service/Srv_IMUSample.c ****         .prc_callback = NULL,
 196:Service/Srv_IMUSample.c ****         .code = SrvIMU_PriBus_Init_Error,
 197:Service/Srv_IMUSample.c ****         .desc = "Pri Bus Init Failed\r\n",
 198:Service/Srv_IMUSample.c ****         .proc_type = Error_Proc_Ignore,
 199:Service/Srv_IMUSample.c ****         .prc_data_stream = {
 200:Service/Srv_IMUSample.c ****             .p_data = NULL,
 201:Service/Srv_IMUSample.c ****             .size = 0,
 202:Service/Srv_IMUSample.c ****         },
ARM GAS  C:\Users\HUAV\AppData\Local\Temp\ccyiM7Rc.s 			page 5


 203:Service/Srv_IMUSample.c ****     },
 204:Service/Srv_IMUSample.c ****     {
 205:Service/Srv_IMUSample.c ****         .out = true,
 206:Service/Srv_IMUSample.c ****         .log = false,
 207:Service/Srv_IMUSample.c ****         .prc_callback = SrvIMU_Dev_InitError,
 208:Service/Srv_IMUSample.c ****         .code = SrvIMU_PriDev_Init_Error,
 209:Service/Srv_IMUSample.c ****         .desc = "Pri Dev Init Failed\r\n",
 210:Service/Srv_IMUSample.c ****         .proc_type = Error_Proc_Immd,
 211:Service/Srv_IMUSample.c ****         .prc_data_stream = {
 212:Service/Srv_IMUSample.c ****             .p_data = NULL,
 213:Service/Srv_IMUSample.c ****             .size = 0,
 214:Service/Srv_IMUSample.c ****         },
 215:Service/Srv_IMUSample.c ****     },
 216:Service/Srv_IMUSample.c ****     {
 217:Service/Srv_IMUSample.c ****         .out = true,
 218:Service/Srv_IMUSample.c ****         .log = false,
 219:Service/Srv_IMUSample.c ****         .prc_callback = NULL,
 220:Service/Srv_IMUSample.c ****         .code = SrvIMU_SecCSPin_Init_Error,
 221:Service/Srv_IMUSample.c ****         .desc = "Sec CS Pin Init Failed\r\n",
 222:Service/Srv_IMUSample.c ****         .proc_type = Error_Proc_Ignore,
 223:Service/Srv_IMUSample.c ****         .prc_data_stream = {
 224:Service/Srv_IMUSample.c ****             .p_data = NULL,
 225:Service/Srv_IMUSample.c ****             .size = 0,
 226:Service/Srv_IMUSample.c ****         },
 227:Service/Srv_IMUSample.c ****     },
 228:Service/Srv_IMUSample.c ****     {
 229:Service/Srv_IMUSample.c ****         .out = true,
 230:Service/Srv_IMUSample.c ****         .log = false,
 231:Service/Srv_IMUSample.c ****         .prc_callback = NULL,
 232:Service/Srv_IMUSample.c ****         .code = SrvIMU_SecExtiPin_Init_Error,
 233:Service/Srv_IMUSample.c ****         .desc = "Sec Ext Pin Init Failed\r\n",
 234:Service/Srv_IMUSample.c ****         .proc_type = Error_Proc_Ignore,
 235:Service/Srv_IMUSample.c ****         .prc_data_stream = {
 236:Service/Srv_IMUSample.c ****             .p_data = NULL,
 237:Service/Srv_IMUSample.c ****             .size = 0,
 238:Service/Srv_IMUSample.c ****         },
 239:Service/Srv_IMUSample.c ****     },
 240:Service/Srv_IMUSample.c ****     {
 241:Service/Srv_IMUSample.c ****         .out = true,
 242:Service/Srv_IMUSample.c ****         .log = false,
 243:Service/Srv_IMUSample.c ****         .prc_callback = NULL,
 244:Service/Srv_IMUSample.c ****         .code = SrvIMU_SecBus_Init_Error,
 245:Service/Srv_IMUSample.c ****         .desc = "Sec Bus Init Failed\r\n",
 246:Service/Srv_IMUSample.c ****         .proc_type = Error_Proc_Ignore,
 247:Service/Srv_IMUSample.c ****         .prc_data_stream = {
 248:Service/Srv_IMUSample.c ****             .p_data = NULL,
 249:Service/Srv_IMUSample.c ****             .size = 0,
 250:Service/Srv_IMUSample.c ****         },
 251:Service/Srv_IMUSample.c ****     },
 252:Service/Srv_IMUSample.c ****     {
 253:Service/Srv_IMUSample.c ****         .out = true,
 254:Service/Srv_IMUSample.c ****         .log = false,
 255:Service/Srv_IMUSample.c ****         .prc_callback = SrvIMU_Dev_InitError,
 256:Service/Srv_IMUSample.c ****         .code = SrvIMU_SecDev_Init_Error,
 257:Service/Srv_IMUSample.c ****         .desc = "Sec Dev Init Failed\r\n",
 258:Service/Srv_IMUSample.c ****         .proc_type = Error_Proc_Immd,
 259:Service/Srv_IMUSample.c ****         .prc_data_stream = {
ARM GAS  C:\Users\HUAV\AppData\Local\Temp\ccyiM7Rc.s 			page 6


 260:Service/Srv_IMUSample.c ****             .p_data = NULL,
 261:Service/Srv_IMUSample.c ****             .size = 0,
 262:Service/Srv_IMUSample.c ****         },
 263:Service/Srv_IMUSample.c ****     },
 264:Service/Srv_IMUSample.c ****     {
 265:Service/Srv_IMUSample.c ****         .out = true,
 266:Service/Srv_IMUSample.c ****         .log = false,
 267:Service/Srv_IMUSample.c ****         .prc_callback = SrvIMU_AllModule_InitError,
 268:Service/Srv_IMUSample.c ****         .code = SrvIMU_AllModule_Init_Error,
 269:Service/Srv_IMUSample.c ****         .desc = "All IMU Module Init Failed\r\n",
 270:Service/Srv_IMUSample.c ****         .proc_type = Error_Proc_Immd,
 271:Service/Srv_IMUSample.c ****         .prc_data_stream = {
 272:Service/Srv_IMUSample.c ****             .p_data = NULL,
 273:Service/Srv_IMUSample.c ****             .size = 0,
 274:Service/Srv_IMUSample.c ****         },
 275:Service/Srv_IMUSample.c ****     },
 276:Service/Srv_IMUSample.c **** };
 277:Service/Srv_IMUSample.c **** /************************************************************************ Error Tree Item *********
 278:Service/Srv_IMUSample.c **** 
 279:Service/Srv_IMUSample.c **** /* external function */
 280:Service/Srv_IMUSample.c **** static SrvIMU_ErrorCode_List SrvIMU_Init(void);
 281:Service/Srv_IMUSample.c **** static bool SrvIMU_Sample(SrvIMU_SampleMode_List mode);
 282:Service/Srv_IMUSample.c **** static SrvIMU_Data_TypeDef SrvIMU_Get_Data(SrvIMU_Module_Type type);
 283:Service/Srv_IMUSample.c **** static void SrvIMU_ErrorProc(void);
 284:Service/Srv_IMUSample.c **** static float SrvIMU_Get_MaxAngularSpeed_Diff(void);
 285:Service/Srv_IMUSample.c **** static SrvIMU_GyroCalib_State_List SrvIMU_Calib_GyroZeroOffset(float *pri_gyr, float *sec_gyr);
 286:Service/Srv_IMUSample.c **** 
 287:Service/Srv_IMUSample.c **** /* internal function */
 288:Service/Srv_IMUSample.c **** static int8_t SrvIMU_PriIMU_Init(void);
 289:Service/Srv_IMUSample.c **** static int8_t SrvIMU_SecIMU_Init(void);
 290:Service/Srv_IMUSample.c **** static void SrvIMU_PriIMU_ExtiCallback(void);
 291:Service/Srv_IMUSample.c **** static void SrvIMU_SecIMU_ExtiCallback(void);
 292:Service/Srv_IMUSample.c **** static void SrvIMU_PriIMU_CS_Ctl(bool state);
 293:Service/Srv_IMUSample.c **** static void SrvIMU_SecIMU_CS_Ctl(bool state);
 294:Service/Srv_IMUSample.c **** static bool SrvIMU_PriIMU_BusTrans_Rec(uint8_t *Tx, uint8_t *Rx, uint16_t size);
 295:Service/Srv_IMUSample.c **** static bool SrvIMU_SecIMU_BusTrans_Rec(uint8_t *Tx, uint8_t *Rx, uint16_t size);
 296:Service/Srv_IMUSample.c **** static bool SrvIMU_Detect_AngularOverSpeed(float angular_speed, float lst_angular_speed, float ms_d
 297:Service/Srv_IMUSample.c **** static SrvIMU_SensorID_List SrvIMU_AutoDetect(bus_trans_callback trans, cs_ctl_callback cs_ctl);
 298:Service/Srv_IMUSample.c **** 
 299:Service/Srv_IMUSample.c **** SrvIMU_TypeDef SrvIMU = {
 300:Service/Srv_IMUSample.c ****     .init = SrvIMU_Init,
 301:Service/Srv_IMUSample.c ****     .sample = SrvIMU_Sample,
 302:Service/Srv_IMUSample.c ****     .get_data = SrvIMU_Get_Data,
 303:Service/Srv_IMUSample.c ****     .error_proc = SrvIMU_ErrorProc,
 304:Service/Srv_IMUSample.c ****     .calib = SrvIMU_Calib_GyroZeroOffset,
 305:Service/Srv_IMUSample.c ****     .get_max_angular_speed_diff = SrvIMU_Get_MaxAngularSpeed_Diff,
 306:Service/Srv_IMUSample.c **** };
 307:Service/Srv_IMUSample.c **** 
 308:Service/Srv_IMUSample.c **** static SrvIMU_ErrorCode_List SrvIMU_Init(void)
 309:Service/Srv_IMUSample.c **** {
 310:Service/Srv_IMUSample.c ****     FilterParam_Obj_TypeDef *Gyr_Filter_Ptr = NULL;
 311:Service/Srv_IMUSample.c ****     FilterParam_Obj_TypeDef *Acc_Filter_Ptr = NULL;
 312:Service/Srv_IMUSample.c **** 
 313:Service/Srv_IMUSample.c ****     CREATE_FILTER_PARAM_OBJ(Gyr, 5, 50Hz, 2K, Gyr_Filter_Ptr);
 314:Service/Srv_IMUSample.c ****     CREATE_FILTER_PARAM_OBJ(Acc, 5, 50Hz, 2K, Acc_Filter_Ptr);
 315:Service/Srv_IMUSample.c **** 
 316:Service/Srv_IMUSample.c ****     memset(&InUse_PriIMU_Obj, 0, sizeof(InUse_PriIMU_Obj));
ARM GAS  C:\Users\HUAV\AppData\Local\Temp\ccyiM7Rc.s 			page 7


 317:Service/Srv_IMUSample.c ****     memset(&InUse_SecIMU_Obj, 0, sizeof(InUse_SecIMU_Obj));
 318:Service/Srv_IMUSample.c **** 
 319:Service/Srv_IMUSample.c ****     /* create error log handle */
 320:Service/Srv_IMUSample.c ****     SrvMPU_Error_Handle = ErrorLog.create("SrvIMU_Error");
 321:Service/Srv_IMUSample.c **** 
 322:Service/Srv_IMUSample.c ****     /* regist all error to the error tree */
 323:Service/Srv_IMUSample.c ****     ErrorLog.registe(SrvMPU_Error_Handle, SrvIMU_ErrorList, sizeof(SrvIMU_ErrorList) / sizeof(SrvIM
 324:Service/Srv_IMUSample.c **** 
 325:Service/Srv_IMUSample.c ****     SrvIMU_ErrorCode_List PriIMU_Init_State = SrvIMU_PriIMU_Init();
 326:Service/Srv_IMUSample.c ****     SrvIMU_ErrorCode_List SecIMU_Init_State = SrvIMU_SecIMU_Init();
 327:Service/Srv_IMUSample.c **** 
 328:Service/Srv_IMUSample.c ****     SrvMpu_Init_Reg.val = 0;
 329:Service/Srv_IMUSample.c ****     SrvMpu_Update_Reg.val = 0;
 330:Service/Srv_IMUSample.c **** 
 331:Service/Srv_IMUSample.c ****     if (PriIMU_Init_State == SrvIMU_No_Error)
 332:Service/Srv_IMUSample.c ****     {
 333:Service/Srv_IMUSample.c ****         SrvMpu_Init_Reg.sec.Pri_State = true;
 334:Service/Srv_IMUSample.c **** 
 335:Service/Srv_IMUSample.c ****         /* init filter */
 336:Service/Srv_IMUSample.c ****         PriIMU_Gyr_LPF_Handle[Axis_X] = Butterworth.init(Gyr_Filter_Ptr);
 337:Service/Srv_IMUSample.c ****         PriIMU_Gyr_LPF_Handle[Axis_Y] = Butterworth.init(Gyr_Filter_Ptr);
 338:Service/Srv_IMUSample.c ****         PriIMU_Gyr_LPF_Handle[Axis_Z] = Butterworth.init(Gyr_Filter_Ptr);
 339:Service/Srv_IMUSample.c **** 
 340:Service/Srv_IMUSample.c ****         PriIMU_Acc_LPF_Handle[Axis_X] = Butterworth.init(Acc_Filter_Ptr);
 341:Service/Srv_IMUSample.c ****         PriIMU_Acc_LPF_Handle[Axis_Y] = Butterworth.init(Acc_Filter_Ptr);
 342:Service/Srv_IMUSample.c ****         PriIMU_Acc_LPF_Handle[Axis_Z] = Butterworth.init(Acc_Filter_Ptr);
 343:Service/Srv_IMUSample.c **** 
 344:Service/Srv_IMUSample.c ****         for(uint8_t i = Axis_X; i < Axis_Sum; i++)
 345:Service/Srv_IMUSample.c ****         {
 346:Service/Srv_IMUSample.c ****             if( (PriIMU_Gyr_LPF_Handle[i] == 0) || 
 347:Service/Srv_IMUSample.c ****                 (PriIMU_Acc_LPF_Handle[i] == 0))
 348:Service/Srv_IMUSample.c ****             {
 349:Service/Srv_IMUSample.c ****                 ErrorLog.trigger(SrvMPU_Error_Handle, SrvIMU_PriIMU_Filter_Init_Error, NULL, 0);
 350:Service/Srv_IMUSample.c ****                 return SrvIMU_PriIMU_Filter_Init_Error;
 351:Service/Srv_IMUSample.c ****             }
 352:Service/Srv_IMUSample.c ****         }
 353:Service/Srv_IMUSample.c ****     }
 354:Service/Srv_IMUSample.c ****     else
 355:Service/Srv_IMUSample.c ****         ErrorLog.trigger(SrvMPU_Error_Handle, PriIMU_Init_State, &InUse_PriIMU_Obj, sizeof(InUse_Pr
 356:Service/Srv_IMUSample.c **** 
 357:Service/Srv_IMUSample.c ****     if (SecIMU_Init_State == SrvIMU_No_Error)
 358:Service/Srv_IMUSample.c ****     {
 359:Service/Srv_IMUSample.c ****         SrvMpu_Init_Reg.sec.Sec_State = true;
 360:Service/Srv_IMUSample.c **** 
 361:Service/Srv_IMUSample.c ****         /* init filter */
 362:Service/Srv_IMUSample.c ****         SecIMU_Gyr_LPF_Handle[Axis_X] = Butterworth.init(Gyr_Filter_Ptr);
 363:Service/Srv_IMUSample.c ****         SecIMU_Gyr_LPF_Handle[Axis_Y] = Butterworth.init(Gyr_Filter_Ptr);
 364:Service/Srv_IMUSample.c ****         SecIMU_Gyr_LPF_Handle[Axis_Z] = Butterworth.init(Gyr_Filter_Ptr);
 365:Service/Srv_IMUSample.c **** 
 366:Service/Srv_IMUSample.c ****         SecIMU_Acc_LPF_Handle[Axis_X] = Butterworth.init(Acc_Filter_Ptr);
 367:Service/Srv_IMUSample.c ****         SecIMU_Acc_LPF_Handle[Axis_Y] = Butterworth.init(Acc_Filter_Ptr);
 368:Service/Srv_IMUSample.c ****         SecIMU_Acc_LPF_Handle[Axis_Z] = Butterworth.init(Acc_Filter_Ptr);
 369:Service/Srv_IMUSample.c **** 
 370:Service/Srv_IMUSample.c ****         for(uint8_t i = Axis_X; i < Axis_Sum; i++)
 371:Service/Srv_IMUSample.c ****         {
 372:Service/Srv_IMUSample.c ****             if( (SecIMU_Gyr_LPF_Handle[i] == 0) || 
 373:Service/Srv_IMUSample.c ****                 (SecIMU_Acc_LPF_Handle[i] == 0))
ARM GAS  C:\Users\HUAV\AppData\Local\Temp\ccyiM7Rc.s 			page 8


 374:Service/Srv_IMUSample.c ****             {
 375:Service/Srv_IMUSample.c ****                 ErrorLog.trigger(SrvMPU_Error_Handle, SrvIMU_SecIMU_Filter_Init_Error, NULL, 0);
 376:Service/Srv_IMUSample.c ****                 return SrvIMU_SecIMU_Filter_Init_Error;
 377:Service/Srv_IMUSample.c ****             }
 378:Service/Srv_IMUSample.c ****         }
 379:Service/Srv_IMUSample.c ****     }
 380:Service/Srv_IMUSample.c ****     else
 381:Service/Srv_IMUSample.c ****         ErrorLog.trigger(SrvMPU_Error_Handle, SecIMU_Init_State, &InUse_SecIMU_Obj, sizeof(InUse_Se
 382:Service/Srv_IMUSample.c **** 
 383:Service/Srv_IMUSample.c ****     memset(&PriIMU_Data, NULL, sizeof(PriIMU_Data));
 384:Service/Srv_IMUSample.c ****     memset(&SecIMU_Data, NULL, sizeof(SecIMU_Data));
 385:Service/Srv_IMUSample.c **** 
 386:Service/Srv_IMUSample.c ****     memset(&PriIMU_Data_Lst, NULL, sizeof(PriIMU_Data_Lst));
 387:Service/Srv_IMUSample.c ****     memset(&SecIMU_Data_Lst, NULL, sizeof(SecIMU_Data_Lst));
 388:Service/Srv_IMUSample.c **** 
 389:Service/Srv_IMUSample.c ****     if (!SrvMpu_Init_Reg.sec.Pri_State && !SrvMpu_Init_Reg.sec.Sec_State)
 390:Service/Srv_IMUSample.c ****     {
 391:Service/Srv_IMUSample.c ****         ErrorLog.trigger(SrvMPU_Error_Handle, SrvIMU_AllModule_Init_Error, &SrvIMU_ALLModule_Init_E
 392:Service/Srv_IMUSample.c ****         return SrvIMU_AllModule_Init_Error;
 393:Service/Srv_IMUSample.c ****     }
 394:Service/Srv_IMUSample.c ****     else if (!SrvMpu_Init_Reg.sec.Pri_State && SrvMpu_Init_Reg.sec.Sec_State)
 395:Service/Srv_IMUSample.c ****     {
 396:Service/Srv_IMUSample.c ****         return SrvIMU_PriDev_Init_Error;
 397:Service/Srv_IMUSample.c ****     }
 398:Service/Srv_IMUSample.c ****     else if (SrvMpu_Init_Reg.sec.Pri_State && !SrvMpu_Init_Reg.sec.Sec_State)
 399:Service/Srv_IMUSample.c ****     {
 400:Service/Srv_IMUSample.c ****         return SrvIMU_SecDev_Init_Error;
 401:Service/Srv_IMUSample.c ****     }
 402:Service/Srv_IMUSample.c ****     else
 403:Service/Srv_IMUSample.c ****         return SrvIMU_No_Error;
 404:Service/Srv_IMUSample.c **** }
 405:Service/Srv_IMUSample.c **** 
 406:Service/Srv_IMUSample.c **** /* init primary IMU Device */
 407:Service/Srv_IMUSample.c **** static SrvIMU_ErrorCode_List SrvIMU_PriIMU_Init(void)
 408:Service/Srv_IMUSample.c **** {
 409:Service/Srv_IMUSample.c ****     /* primary IMU Pin & Bus Init */
 410:Service/Srv_IMUSample.c ****     if (!BspGPIO.out_init(PriIMU_CSPin))
 411:Service/Srv_IMUSample.c ****         return SrvIMU_PriCSPin_Init_Error;
 412:Service/Srv_IMUSample.c **** 
 413:Service/Srv_IMUSample.c ****     if (!BspGPIO.exti_init(PriIMU_INTPin, SrvIMU_PriIMU_ExtiCallback))
 414:Service/Srv_IMUSample.c ****         return SrvIMU_PriExtiPin_Init_Error;
 415:Service/Srv_IMUSample.c **** 
 416:Service/Srv_IMUSample.c ****     PriIMU_BusCfg.Pin = PriIMU_BusPin;
 417:Service/Srv_IMUSample.c ****     if (!BspSPI.init(PriIMU_BusCfg, &PriIMU_Bus_Instance))
 418:Service/Srv_IMUSample.c ****         return SrvIMU_PriBus_Init_Error;
 419:Service/Srv_IMUSample.c **** 
 420:Service/Srv_IMUSample.c ****     switch(SrvIMU_AutoDetect(SrvIMU_PriIMU_BusTrans_Rec, SrvIMU_PriIMU_CS_Ctl))
 421:Service/Srv_IMUSample.c ****     {
 422:Service/Srv_IMUSample.c ****         case SrvIMU_Dev_MPU6000:
 423:Service/Srv_IMUSample.c ****             InUse_PriIMU_Obj.type = SrvIMU_Dev_MPU6000;
 424:Service/Srv_IMUSample.c ****             DevMPU6000.pre_init(&MPU6000Obj,
 425:Service/Srv_IMUSample.c ****                                 SrvIMU_PriIMU_CS_Ctl,
 426:Service/Srv_IMUSample.c ****                                 SrvIMU_PriIMU_BusTrans_Rec,
 427:Service/Srv_IMUSample.c ****                                 Runtime_DelayMs,
 428:Service/Srv_IMUSample.c ****                                 Get_CurrentRunningUs);
 429:Service/Srv_IMUSample.c **** 
 430:Service/Srv_IMUSample.c ****             DevMPU6000.config(&MPU6000Obj,
ARM GAS  C:\Users\HUAV\AppData\Local\Temp\ccyiM7Rc.s 			page 9


 431:Service/Srv_IMUSample.c ****                                MPU6000_SampleRate_4K,
 432:Service/Srv_IMUSample.c ****                                MPU6000_Acc_16G,
 433:Service/Srv_IMUSample.c ****                                MPU6000_Gyr_2000DPS);
 434:Service/Srv_IMUSample.c **** 
 435:Service/Srv_IMUSample.c ****             InUse_PriIMU_Obj.obj_ptr = &MPU6000Obj;
 436:Service/Srv_IMUSample.c ****             InUse_PriIMU_Obj.OriData_ptr = &(MPU6000Obj.OriData);
 437:Service/Srv_IMUSample.c ****             InUse_PriIMU_Obj.acc_trip = MPU6000Obj.PHY_AccTrip_Val;
 438:Service/Srv_IMUSample.c ****             InUse_PriIMU_Obj.gyr_trip = MPU6000Obj.PHY_GyrTrip_Val;
 439:Service/Srv_IMUSample.c ****             
 440:Service/Srv_IMUSample.c ****             InUse_PriIMU_Obj.set_drdy = DevMPU6000.set_ready;
 441:Service/Srv_IMUSample.c ****             InUse_PriIMU_Obj.get_drdy = DevMPU6000.get_ready;
 442:Service/Srv_IMUSample.c ****             InUse_PriIMU_Obj.get_scale = DevMPU6000.get_scale;
 443:Service/Srv_IMUSample.c ****             InUse_PriIMU_Obj.sample = DevMPU6000.sample;
 444:Service/Srv_IMUSample.c ****             InUse_PriIMU_Obj.get_error = DevMPU6000.get_error;
 445:Service/Srv_IMUSample.c **** 
 446:Service/Srv_IMUSample.c ****             if (!DevMPU6000.init(&MPU6000Obj))
 447:Service/Srv_IMUSample.c ****                 return SrvIMU_PriDev_Init_Error;
 448:Service/Srv_IMUSample.c ****         break;
 449:Service/Srv_IMUSample.c **** 
 450:Service/Srv_IMUSample.c ****         case SrvIMU_Dev_ICM20602:
 451:Service/Srv_IMUSample.c ****             InUse_PriIMU_Obj.type = SrvIMU_Dev_ICM20602;
 452:Service/Srv_IMUSample.c ****             DevICM20602.pre_init(&ICM20602Obj,
 453:Service/Srv_IMUSample.c ****                                  SrvIMU_PriIMU_CS_Ctl,
 454:Service/Srv_IMUSample.c ****                                  SrvIMU_PriIMU_BusTrans_Rec,
 455:Service/Srv_IMUSample.c ****                                  Runtime_DelayMs,
 456:Service/Srv_IMUSample.c ****                                  Get_CurrentRunningUs);
 457:Service/Srv_IMUSample.c **** 
 458:Service/Srv_IMUSample.c ****             DevICM20602.config(&ICM20602Obj,
 459:Service/Srv_IMUSample.c ****                                 ICM20602_SampleRate_4K,
 460:Service/Srv_IMUSample.c ****                                 ICM20602_Acc_16G,
 461:Service/Srv_IMUSample.c ****                                 ICM20602_Gyr_2000DPS);
 462:Service/Srv_IMUSample.c **** 
 463:Service/Srv_IMUSample.c ****             InUse_PriIMU_Obj.obj_ptr = &ICM20602Obj;
 464:Service/Srv_IMUSample.c ****             InUse_PriIMU_Obj.OriData_ptr = &(ICM20602Obj.OriData);
 465:Service/Srv_IMUSample.c ****             InUse_PriIMU_Obj.acc_trip = ICM20602Obj.PHY_AccTrip_Val;
 466:Service/Srv_IMUSample.c ****             InUse_PriIMU_Obj.gyr_trip = ICM20602Obj.PHY_GyrTrip_Val;
 467:Service/Srv_IMUSample.c **** 
 468:Service/Srv_IMUSample.c ****             InUse_PriIMU_Obj.set_drdy = DevICM20602.set_ready;
 469:Service/Srv_IMUSample.c ****             InUse_PriIMU_Obj.get_drdy = DevICM20602.get_ready;
 470:Service/Srv_IMUSample.c ****             InUse_PriIMU_Obj.get_scale = DevICM20602.get_scale;
 471:Service/Srv_IMUSample.c ****             InUse_PriIMU_Obj.sample = DevICM20602.sample;
 472:Service/Srv_IMUSample.c ****             InUse_PriIMU_Obj.get_error = DevICM20602.get_error;
 473:Service/Srv_IMUSample.c **** 
 474:Service/Srv_IMUSample.c ****             if (!DevICM20602.init(&ICM20602Obj))
 475:Service/Srv_IMUSample.c ****                 return SrvIMU_PriDev_Init_Error;
 476:Service/Srv_IMUSample.c ****         break;
 477:Service/Srv_IMUSample.c **** 
 478:Service/Srv_IMUSample.c ****         case SrvIMU_Dev_ICM42688P:
 479:Service/Srv_IMUSample.c ****             InUse_PriIMU_Obj.type = SrvIMU_Dev_ICM42688P;
 480:Service/Srv_IMUSample.c ****             DevICM426xx.pre_init(&ICM42688PObj,
 481:Service/Srv_IMUSample.c ****                                  SrvIMU_PriIMU_CS_Ctl,
 482:Service/Srv_IMUSample.c ****                                  SrvIMU_PriIMU_BusTrans_Rec,
 483:Service/Srv_IMUSample.c ****                                  Runtime_DelayMs,
 484:Service/Srv_IMUSample.c ****                                  Get_CurrentRunningUs);
 485:Service/Srv_IMUSample.c **** 
 486:Service/Srv_IMUSample.c ****             DevICM426xx.config(&ICM42688PObj,
 487:Service/Srv_IMUSample.c ****                                 ICM426xx_SampleRate_4K,
ARM GAS  C:\Users\HUAV\AppData\Local\Temp\ccyiM7Rc.s 			page 10


 488:Service/Srv_IMUSample.c ****                                 ICM426xx_Acc_16G,
 489:Service/Srv_IMUSample.c ****                                 ICM426xx_Gyr_2000DPS);
 490:Service/Srv_IMUSample.c **** 
 491:Service/Srv_IMUSample.c ****             InUse_PriIMU_Obj.obj_ptr = &ICM42688PObj;
 492:Service/Srv_IMUSample.c ****             InUse_PriIMU_Obj.OriData_ptr = &(ICM42688PObj.OriData);
 493:Service/Srv_IMUSample.c ****             InUse_PriIMU_Obj.acc_trip = ICM42688PObj.PHY_AccTrip_Val;
 494:Service/Srv_IMUSample.c ****             InUse_PriIMU_Obj.gyr_trip = ICM42688PObj.PHY_GyrTrip_Val;
 495:Service/Srv_IMUSample.c **** 
 496:Service/Srv_IMUSample.c ****             InUse_PriIMU_Obj.set_drdy = DevICM426xx.set_ready;
 497:Service/Srv_IMUSample.c ****             InUse_PriIMU_Obj.get_drdy = DevICM426xx.get_ready;
 498:Service/Srv_IMUSample.c ****             InUse_PriIMU_Obj.get_scale = DevICM426xx.get_scale;
 499:Service/Srv_IMUSample.c ****             InUse_PriIMU_Obj.sample = DevICM426xx.sample;
 500:Service/Srv_IMUSample.c ****             InUse_PriIMU_Obj.get_error = DevICM426xx.get_error;
 501:Service/Srv_IMUSample.c **** 
 502:Service/Srv_IMUSample.c ****             if (!DevICM426xx.init(&ICM42688PObj))
 503:Service/Srv_IMUSample.c ****                 return SrvIMU_PriDev_Init_Error;
 504:Service/Srv_IMUSample.c ****         break;
 505:Service/Srv_IMUSample.c **** 
 506:Service/Srv_IMUSample.c ****         case SrvIMU_Dev_ICM42605:
 507:Service/Srv_IMUSample.c ****             InUse_PriIMU_Obj.type = SrvIMU_Dev_ICM42605;
 508:Service/Srv_IMUSample.c ****             DevICM426xx.pre_init(&ICM42605Obj,
 509:Service/Srv_IMUSample.c ****                                  SrvIMU_PriIMU_CS_Ctl,
 510:Service/Srv_IMUSample.c ****                                  SrvIMU_PriIMU_BusTrans_Rec,
 511:Service/Srv_IMUSample.c ****                                  Runtime_DelayMs,
 512:Service/Srv_IMUSample.c ****                                  Get_CurrentRunningUs);
 513:Service/Srv_IMUSample.c **** 
 514:Service/Srv_IMUSample.c ****             DevICM426xx.config(&ICM42605Obj,
 515:Service/Srv_IMUSample.c ****                                 ICM426xx_SampleRate_4K,
 516:Service/Srv_IMUSample.c ****                                 ICM426xx_Acc_16G,
 517:Service/Srv_IMUSample.c ****                                 ICM426xx_Gyr_2000DPS);
 518:Service/Srv_IMUSample.c **** 
 519:Service/Srv_IMUSample.c ****             InUse_PriIMU_Obj.obj_ptr = &ICM42605Obj;
 520:Service/Srv_IMUSample.c ****             InUse_PriIMU_Obj.OriData_ptr = &(ICM42605Obj.OriData);
 521:Service/Srv_IMUSample.c ****             InUse_PriIMU_Obj.acc_trip = ICM42605Obj.PHY_AccTrip_Val;
 522:Service/Srv_IMUSample.c ****             InUse_PriIMU_Obj.gyr_trip = ICM42605Obj.PHY_GyrTrip_Val;
 523:Service/Srv_IMUSample.c **** 
 524:Service/Srv_IMUSample.c ****             InUse_PriIMU_Obj.set_drdy = DevICM426xx.set_ready;
 525:Service/Srv_IMUSample.c ****             InUse_PriIMU_Obj.get_drdy = DevICM426xx.get_ready;
 526:Service/Srv_IMUSample.c ****             InUse_PriIMU_Obj.get_scale = DevICM426xx.get_scale;
 527:Service/Srv_IMUSample.c ****             InUse_PriIMU_Obj.sample = DevICM426xx.sample;
 528:Service/Srv_IMUSample.c ****             InUse_PriIMU_Obj.get_error = DevICM426xx.get_error;
 529:Service/Srv_IMUSample.c **** 
 530:Service/Srv_IMUSample.c ****             if (!DevICM426xx.init(&ICM42605Obj))
 531:Service/Srv_IMUSample.c ****                 return SrvIMU_PriDev_Init_Error;
 532:Service/Srv_IMUSample.c ****         break;
 533:Service/Srv_IMUSample.c **** 
 534:Service/Srv_IMUSample.c ****         default: return SrvIMU_PriDev_Detect_Error;
 535:Service/Srv_IMUSample.c ****     }
 536:Service/Srv_IMUSample.c **** 
 537:Service/Srv_IMUSample.c ****     return SrvIMU_No_Error;
 538:Service/Srv_IMUSample.c **** }
 539:Service/Srv_IMUSample.c **** 
 540:Service/Srv_IMUSample.c **** /* init primary IMU Device */
 541:Service/Srv_IMUSample.c **** static SrvIMU_ErrorCode_List SrvIMU_SecIMU_Init(void)
 542:Service/Srv_IMUSample.c **** {
 543:Service/Srv_IMUSample.c ****     /* primary IMU Pin & Bus Init */
 544:Service/Srv_IMUSample.c ****     if (!BspGPIO.out_init(SecIMU_CSPin))
ARM GAS  C:\Users\HUAV\AppData\Local\Temp\ccyiM7Rc.s 			page 11


 545:Service/Srv_IMUSample.c ****         return SrvIMU_SecCSPin_Init_Error;
 546:Service/Srv_IMUSample.c **** 
 547:Service/Srv_IMUSample.c ****     if (!BspGPIO.exti_init(SecIMU_INTPin, SrvIMU_SecIMU_ExtiCallback))
 548:Service/Srv_IMUSample.c ****         return SrvIMU_SecExtiPin_Init_Error;
 549:Service/Srv_IMUSample.c **** 
 550:Service/Srv_IMUSample.c ****     SecIMU_BusCfg.Pin = SecIMU_BusPin;
 551:Service/Srv_IMUSample.c ****     if (!BspSPI.init(SecIMU_BusCfg, &SecIMU_Bus_Instance))
 552:Service/Srv_IMUSample.c ****         return SrvIMU_SecBus_Init_Error;
 553:Service/Srv_IMUSample.c **** 
 554:Service/Srv_IMUSample.c ****     switch(SrvIMU_AutoDetect(SrvIMU_SecIMU_BusTrans_Rec, SrvIMU_SecIMU_CS_Ctl))
 555:Service/Srv_IMUSample.c ****     {
 556:Service/Srv_IMUSample.c ****         case SrvIMU_Dev_MPU6000:
 557:Service/Srv_IMUSample.c ****             InUse_SecIMU_Obj.type = SrvIMU_Dev_MPU6000;
 558:Service/Srv_IMUSample.c ****             DevMPU6000.pre_init(&MPU6000Obj,
 559:Service/Srv_IMUSample.c ****                                 SrvIMU_SecIMU_CS_Ctl,
 560:Service/Srv_IMUSample.c ****                                 SrvIMU_SecIMU_BusTrans_Rec,
 561:Service/Srv_IMUSample.c ****                                 Runtime_DelayMs,
 562:Service/Srv_IMUSample.c ****                                 Get_CurrentRunningUs);
 563:Service/Srv_IMUSample.c **** 
 564:Service/Srv_IMUSample.c ****             DevMPU6000.config(&MPU6000Obj,
 565:Service/Srv_IMUSample.c ****                                MPU6000_SampleRate_4K,
 566:Service/Srv_IMUSample.c ****                                MPU6000_Acc_16G,
 567:Service/Srv_IMUSample.c ****                                MPU6000_Gyr_2000DPS);
 568:Service/Srv_IMUSample.c **** 
 569:Service/Srv_IMUSample.c ****             InUse_SecIMU_Obj.obj_ptr = &MPU6000Obj;
 570:Service/Srv_IMUSample.c ****             InUse_SecIMU_Obj.OriData_ptr = &(MPU6000Obj.OriData);
 571:Service/Srv_IMUSample.c ****             InUse_SecIMU_Obj.acc_trip = MPU6000Obj.PHY_AccTrip_Val;
 572:Service/Srv_IMUSample.c ****             InUse_SecIMU_Obj.gyr_trip = MPU6000Obj.PHY_GyrTrip_Val;
 573:Service/Srv_IMUSample.c **** 
 574:Service/Srv_IMUSample.c ****             InUse_SecIMU_Obj.set_drdy = DevMPU6000.set_ready;
 575:Service/Srv_IMUSample.c ****             InUse_SecIMU_Obj.get_drdy = DevMPU6000.get_ready;
 576:Service/Srv_IMUSample.c ****             InUse_SecIMU_Obj.get_scale = DevMPU6000.get_scale;
 577:Service/Srv_IMUSample.c ****             InUse_SecIMU_Obj.sample = DevMPU6000.sample;
 578:Service/Srv_IMUSample.c ****             InUse_SecIMU_Obj.get_error = DevMPU6000.get_error;
 579:Service/Srv_IMUSample.c **** 
 580:Service/Srv_IMUSample.c ****             if (!DevMPU6000.init(&MPU6000Obj))
 581:Service/Srv_IMUSample.c ****                 return SrvIMU_SecDev_Init_Error;
 582:Service/Srv_IMUSample.c ****         break;
 583:Service/Srv_IMUSample.c **** 
 584:Service/Srv_IMUSample.c ****         case SrvIMU_Dev_ICM20602:
 585:Service/Srv_IMUSample.c ****             InUse_SecIMU_Obj.type = SrvIMU_Dev_ICM20602;
 586:Service/Srv_IMUSample.c ****             DevICM20602.pre_init(&ICM20602Obj,
 587:Service/Srv_IMUSample.c ****                                  SrvIMU_SecIMU_CS_Ctl,
 588:Service/Srv_IMUSample.c ****                                  SrvIMU_SecIMU_BusTrans_Rec,
 589:Service/Srv_IMUSample.c ****                                  Runtime_DelayMs,
 590:Service/Srv_IMUSample.c ****                                  Get_CurrentRunningUs);
 591:Service/Srv_IMUSample.c **** 
 592:Service/Srv_IMUSample.c ****             DevICM20602.config(&ICM20602Obj,
 593:Service/Srv_IMUSample.c ****                                 ICM20602_SampleRate_4K,
 594:Service/Srv_IMUSample.c ****                                 ICM20602_Acc_16G,
 595:Service/Srv_IMUSample.c ****                                 ICM20602_Gyr_2000DPS);
 596:Service/Srv_IMUSample.c **** 
 597:Service/Srv_IMUSample.c ****             InUse_SecIMU_Obj.obj_ptr = &ICM20602Obj;
 598:Service/Srv_IMUSample.c ****             InUse_SecIMU_Obj.OriData_ptr = &(ICM20602Obj.OriData);
 599:Service/Srv_IMUSample.c ****             InUse_SecIMU_Obj.acc_trip = ICM20602Obj.PHY_AccTrip_Val;
 600:Service/Srv_IMUSample.c ****             InUse_SecIMU_Obj.gyr_trip = ICM20602Obj.PHY_GyrTrip_Val;
 601:Service/Srv_IMUSample.c **** 
ARM GAS  C:\Users\HUAV\AppData\Local\Temp\ccyiM7Rc.s 			page 12


 602:Service/Srv_IMUSample.c ****             InUse_SecIMU_Obj.set_drdy = DevICM20602.set_ready;
 603:Service/Srv_IMUSample.c ****             InUse_SecIMU_Obj.get_drdy = DevICM20602.get_ready;
 604:Service/Srv_IMUSample.c ****             InUse_SecIMU_Obj.get_scale = DevICM20602.get_scale;
 605:Service/Srv_IMUSample.c ****             InUse_SecIMU_Obj.sample = DevICM20602.sample;
 606:Service/Srv_IMUSample.c ****             InUse_SecIMU_Obj.get_error = DevICM20602.get_error;
 607:Service/Srv_IMUSample.c **** 
 608:Service/Srv_IMUSample.c ****             if (!DevICM20602.init(&ICM20602Obj))
 609:Service/Srv_IMUSample.c ****                 return SrvIMU_SecDev_Init_Error;
 610:Service/Srv_IMUSample.c ****         break;
 611:Service/Srv_IMUSample.c **** 
 612:Service/Srv_IMUSample.c ****         case SrvIMU_Dev_ICM42688P:
 613:Service/Srv_IMUSample.c ****             InUse_SecIMU_Obj.type = SrvIMU_Dev_ICM42688P;
 614:Service/Srv_IMUSample.c ****             DevICM426xx.pre_init(&ICM42688PObj,
 615:Service/Srv_IMUSample.c ****                                  SrvIMU_SecIMU_CS_Ctl,
 616:Service/Srv_IMUSample.c ****                                  SrvIMU_SecIMU_BusTrans_Rec,
 617:Service/Srv_IMUSample.c ****                                  Runtime_DelayMs,
 618:Service/Srv_IMUSample.c ****                                  Get_CurrentRunningUs);
 619:Service/Srv_IMUSample.c **** 
 620:Service/Srv_IMUSample.c ****             DevICM426xx.config(&ICM42688PObj,
 621:Service/Srv_IMUSample.c ****                                 ICM426xx_SampleRate_4K,
 622:Service/Srv_IMUSample.c ****                                 ICM426xx_Acc_16G,
 623:Service/Srv_IMUSample.c ****                                 ICM426xx_Gyr_2000DPS);
 624:Service/Srv_IMUSample.c **** 
 625:Service/Srv_IMUSample.c ****             InUse_SecIMU_Obj.obj_ptr = &ICM42688PObj;
 626:Service/Srv_IMUSample.c ****             InUse_SecIMU_Obj.OriData_ptr = &(ICM42688PObj.OriData);
 627:Service/Srv_IMUSample.c ****             InUse_SecIMU_Obj.acc_trip = ICM42688PObj.PHY_AccTrip_Val;
 628:Service/Srv_IMUSample.c ****             InUse_SecIMU_Obj.gyr_trip = ICM42688PObj.PHY_GyrTrip_Val;
 629:Service/Srv_IMUSample.c **** 
 630:Service/Srv_IMUSample.c ****             InUse_SecIMU_Obj.set_drdy = DevICM426xx.set_ready;
 631:Service/Srv_IMUSample.c ****             InUse_SecIMU_Obj.get_drdy = DevICM426xx.get_ready;
 632:Service/Srv_IMUSample.c ****             InUse_SecIMU_Obj.get_scale = DevICM426xx.get_scale;
 633:Service/Srv_IMUSample.c ****             InUse_SecIMU_Obj.sample = DevICM426xx.sample;
 634:Service/Srv_IMUSample.c ****             InUse_SecIMU_Obj.get_error = DevICM426xx.get_error;
 635:Service/Srv_IMUSample.c **** 
 636:Service/Srv_IMUSample.c ****             if (!DevICM426xx.init(&ICM42688PObj))
 637:Service/Srv_IMUSample.c ****                 return SrvIMU_SecDev_Init_Error;
 638:Service/Srv_IMUSample.c ****         break;
 639:Service/Srv_IMUSample.c **** 
 640:Service/Srv_IMUSample.c ****         case SrvIMU_Dev_ICM42605:
 641:Service/Srv_IMUSample.c ****             InUse_SecIMU_Obj.type = SrvIMU_Dev_ICM42605;
 642:Service/Srv_IMUSample.c ****             DevICM426xx.pre_init(&ICM42605Obj,
 643:Service/Srv_IMUSample.c ****                                  SrvIMU_SecIMU_CS_Ctl,
 644:Service/Srv_IMUSample.c ****                                  SrvIMU_SecIMU_BusTrans_Rec,
 645:Service/Srv_IMUSample.c ****                                  Runtime_DelayMs,
 646:Service/Srv_IMUSample.c ****                                  Get_CurrentRunningUs);
 647:Service/Srv_IMUSample.c **** 
 648:Service/Srv_IMUSample.c ****             DevICM426xx.config(&ICM42605Obj,
 649:Service/Srv_IMUSample.c ****                                 ICM426xx_SampleRate_4K,
 650:Service/Srv_IMUSample.c ****                                 ICM426xx_Acc_16G,
 651:Service/Srv_IMUSample.c ****                                 ICM426xx_Gyr_2000DPS);
 652:Service/Srv_IMUSample.c **** 
 653:Service/Srv_IMUSample.c ****             InUse_SecIMU_Obj.obj_ptr = &ICM42605Obj;
 654:Service/Srv_IMUSample.c ****             InUse_SecIMU_Obj.OriData_ptr = &(ICM42605Obj.OriData);
 655:Service/Srv_IMUSample.c ****             InUse_SecIMU_Obj.acc_trip = ICM42605Obj.PHY_AccTrip_Val;
 656:Service/Srv_IMUSample.c ****             InUse_SecIMU_Obj.gyr_trip = ICM42605Obj.PHY_GyrTrip_Val;
 657:Service/Srv_IMUSample.c **** 
 658:Service/Srv_IMUSample.c ****             InUse_SecIMU_Obj.set_drdy = DevICM426xx.set_ready;
ARM GAS  C:\Users\HUAV\AppData\Local\Temp\ccyiM7Rc.s 			page 13


 659:Service/Srv_IMUSample.c ****             InUse_SecIMU_Obj.get_drdy = DevICM426xx.get_ready;
 660:Service/Srv_IMUSample.c ****             InUse_SecIMU_Obj.get_scale = DevICM426xx.get_scale;
 661:Service/Srv_IMUSample.c ****             InUse_SecIMU_Obj.sample = DevICM426xx.sample;
 662:Service/Srv_IMUSample.c ****             InUse_SecIMU_Obj.get_error = DevICM426xx.get_error;
 663:Service/Srv_IMUSample.c **** 
 664:Service/Srv_IMUSample.c ****             if (!DevICM426xx.init(&ICM42605Obj))
 665:Service/Srv_IMUSample.c ****                 return SrvIMU_SecDev_Init_Error;
 666:Service/Srv_IMUSample.c ****         break;
 667:Service/Srv_IMUSample.c **** 
 668:Service/Srv_IMUSample.c ****         default: return SrvIMU_SecDev_Detect_Error;
 669:Service/Srv_IMUSample.c ****     }
 670:Service/Srv_IMUSample.c **** 
 671:Service/Srv_IMUSample.c ****     return SrvIMU_No_Error;
 672:Service/Srv_IMUSample.c **** }
 673:Service/Srv_IMUSample.c **** 
 674:Service/Srv_IMUSample.c **** /* input true selected / false deselected */
 675:Service/Srv_IMUSample.c **** static void SrvIMU_PriIMU_CS_Ctl(bool state)
 676:Service/Srv_IMUSample.c **** {
  28              		.loc 1 676 1 view -0
  29              		.cfi_startproc
  30              		@ args = 0, pretend = 0, frame = 0
  31              		@ frame_needed = 0, uses_anonymous_args = 0
  32              		.loc 1 676 1 is_stmt 0 view .LVU1
  33 0000 10B5     		push	{r4, lr}
  34              	.LCFI0:
  35              		.cfi_def_cfa_offset 8
  36              		.cfi_offset 4, -8
  37              		.cfi_offset 14, -4
  38 0002 0246     		mov	r2, r0
 677:Service/Srv_IMUSample.c ****     BspGPIO.write(PriIMU_CSPin.port, PriIMU_CSPin.pin, state);
  39              		.loc 1 677 5 is_stmt 1 view .LVU2
  40              		.loc 1 677 12 is_stmt 0 view .LVU3
  41 0004 034B     		ldr	r3, .L3
  42 0006 DC69     		ldr	r4, [r3, #28]
  43              		.loc 1 677 31 view .LVU4
  44 0008 034B     		ldr	r3, .L3+4
  45              		.loc 1 677 5 view .LVU5
  46 000a 9988     		ldrh	r1, [r3, #4]
  47 000c 1868     		ldr	r0, [r3]
  48              	.LVL1:
  49              		.loc 1 677 5 view .LVU6
  50 000e A047     		blx	r4
  51              	.LVL2:
 678:Service/Srv_IMUSample.c **** }
  52              		.loc 1 678 1 view .LVU7
  53 0010 10BD     		pop	{r4, pc}
  54              	.L4:
  55 0012 00BF     		.align	2
  56              	.L3:
  57 0014 00000000 		.word	BspGPIO
  58 0018 00000000 		.word	PriIMU_CSPin
  59              		.cfi_endproc
  60              	.LFE151:
  62              		.section	.text.SrvIMU_SecIMU_CS_Ctl,"ax",%progbits
  63              		.align	1
  64              		.syntax unified
  65              		.thumb
ARM GAS  C:\Users\HUAV\AppData\Local\Temp\ccyiM7Rc.s 			page 14


  66              		.thumb_func
  67              		.fpu fpv5-d16
  69              	SrvIMU_SecIMU_CS_Ctl:
  70              	.LVL3:
  71              	.LFB152:
 679:Service/Srv_IMUSample.c **** 
 680:Service/Srv_IMUSample.c **** static void SrvIMU_SecIMU_CS_Ctl(bool state)
 681:Service/Srv_IMUSample.c **** {
  72              		.loc 1 681 1 is_stmt 1 view -0
  73              		.cfi_startproc
  74              		@ args = 0, pretend = 0, frame = 0
  75              		@ frame_needed = 0, uses_anonymous_args = 0
  76              		.loc 1 681 1 is_stmt 0 view .LVU9
  77 0000 10B5     		push	{r4, lr}
  78              	.LCFI1:
  79              		.cfi_def_cfa_offset 8
  80              		.cfi_offset 4, -8
  81              		.cfi_offset 14, -4
  82 0002 0246     		mov	r2, r0
 682:Service/Srv_IMUSample.c ****     BspGPIO.write(SecIMU_CSPin.port, SecIMU_CSPin.pin, state);
  83              		.loc 1 682 5 is_stmt 1 view .LVU10
  84              		.loc 1 682 12 is_stmt 0 view .LVU11
  85 0004 034B     		ldr	r3, .L7
  86 0006 DC69     		ldr	r4, [r3, #28]
  87              		.loc 1 682 31 view .LVU12
  88 0008 034B     		ldr	r3, .L7+4
  89              		.loc 1 682 5 view .LVU13
  90 000a 9988     		ldrh	r1, [r3, #4]
  91 000c 1868     		ldr	r0, [r3]
  92              	.LVL4:
  93              		.loc 1 682 5 view .LVU14
  94 000e A047     		blx	r4
  95              	.LVL5:
 683:Service/Srv_IMUSample.c **** }
  96              		.loc 1 683 1 view .LVU15
  97 0010 10BD     		pop	{r4, pc}
  98              	.L8:
  99 0012 00BF     		.align	2
 100              	.L7:
 101 0014 00000000 		.word	BspGPIO
 102 0018 00000000 		.word	SecIMU_CSPin
 103              		.cfi_endproc
 104              	.LFE152:
 106              		.section	.text.SrvIMU_PriIMU_BusTrans_Rec,"ax",%progbits
 107              		.align	1
 108              		.syntax unified
 109              		.thumb
 110              		.thumb_func
 111              		.fpu fpv5-d16
 113              	SrvIMU_PriIMU_BusTrans_Rec:
 114              	.LVL6:
 115              	.LFB153:
 684:Service/Srv_IMUSample.c **** 
 685:Service/Srv_IMUSample.c **** static bool SrvIMU_PriIMU_BusTrans_Rec(uint8_t *Tx, uint8_t *Rx, uint16_t size)
 686:Service/Srv_IMUSample.c **** {
 116              		.loc 1 686 1 is_stmt 1 view -0
 117              		.cfi_startproc
ARM GAS  C:\Users\HUAV\AppData\Local\Temp\ccyiM7Rc.s 			page 15


 118              		@ args = 0, pretend = 0, frame = 0
 119              		@ frame_needed = 0, uses_anonymous_args = 0
 120              		.loc 1 686 1 is_stmt 0 view .LVU17
 121 0000 10B5     		push	{r4, lr}
 122              	.LCFI2:
 123              		.cfi_def_cfa_offset 8
 124              		.cfi_offset 4, -8
 125              		.cfi_offset 14, -4
 126 0002 82B0     		sub	sp, sp, #8
 127              	.LCFI3:
 128              		.cfi_def_cfa_offset 16
 129 0004 1346     		mov	r3, r2
 687:Service/Srv_IMUSample.c ****     return BspSPI.trans_receive(&PriIMU_Bus_Instance, Tx, Rx, size, IMU_Commu_TimeOut);
 130              		.loc 1 687 5 is_stmt 1 view .LVU18
 131              		.loc 1 687 18 is_stmt 0 view .LVU19
 132 0006 054A     		ldr	r2, .L11
 133              	.LVL7:
 134              		.loc 1 687 18 view .LVU20
 135 0008 1469     		ldr	r4, [r2, #16]
 136              		.loc 1 687 12 view .LVU21
 137 000a 4FF47A72 		mov	r2, #1000
 138 000e 0092     		str	r2, [sp]
 139 0010 0A46     		mov	r2, r1
 140 0012 0146     		mov	r1, r0
 141              	.LVL8:
 142              		.loc 1 687 12 view .LVU22
 143 0014 0248     		ldr	r0, .L11+4
 144              	.LVL9:
 145              		.loc 1 687 12 view .LVU23
 146 0016 A047     		blx	r4
 147              	.LVL10:
 688:Service/Srv_IMUSample.c **** }
 148              		.loc 1 688 1 view .LVU24
 149 0018 02B0     		add	sp, sp, #8
 150              	.LCFI4:
 151              		.cfi_def_cfa_offset 8
 152              		@ sp needed
 153 001a 10BD     		pop	{r4, pc}
 154              	.L12:
 155              		.align	2
 156              	.L11:
 157 001c 00000000 		.word	BspSPI
 158 0020 00000000 		.word	.LANCHOR0
 159              		.cfi_endproc
 160              	.LFE153:
 162              		.section	.text.SrvIMU_SecIMU_BusTrans_Rec,"ax",%progbits
 163              		.align	1
 164              		.syntax unified
 165              		.thumb
 166              		.thumb_func
 167              		.fpu fpv5-d16
 169              	SrvIMU_SecIMU_BusTrans_Rec:
 170              	.LVL11:
 171              	.LFB154:
 689:Service/Srv_IMUSample.c **** 
 690:Service/Srv_IMUSample.c **** static bool SrvIMU_SecIMU_BusTrans_Rec(uint8_t *Tx, uint8_t *Rx, uint16_t size)
 691:Service/Srv_IMUSample.c **** {
ARM GAS  C:\Users\HUAV\AppData\Local\Temp\ccyiM7Rc.s 			page 16


 172              		.loc 1 691 1 is_stmt 1 view -0
 173              		.cfi_startproc
 174              		@ args = 0, pretend = 0, frame = 0
 175              		@ frame_needed = 0, uses_anonymous_args = 0
 176              		.loc 1 691 1 is_stmt 0 view .LVU26
 177 0000 10B5     		push	{r4, lr}
 178              	.LCFI5:
 179              		.cfi_def_cfa_offset 8
 180              		.cfi_offset 4, -8
 181              		.cfi_offset 14, -4
 182 0002 82B0     		sub	sp, sp, #8
 183              	.LCFI6:
 184              		.cfi_def_cfa_offset 16
 185 0004 1346     		mov	r3, r2
 692:Service/Srv_IMUSample.c ****     return BspSPI.trans_receive(&SecIMU_Bus_Instance, Tx, Rx, size, IMU_Commu_TimeOut);
 186              		.loc 1 692 5 is_stmt 1 view .LVU27
 187              		.loc 1 692 18 is_stmt 0 view .LVU28
 188 0006 054A     		ldr	r2, .L15
 189              	.LVL12:
 190              		.loc 1 692 18 view .LVU29
 191 0008 1469     		ldr	r4, [r2, #16]
 192              		.loc 1 692 12 view .LVU30
 193 000a 4FF47A72 		mov	r2, #1000
 194 000e 0092     		str	r2, [sp]
 195 0010 0A46     		mov	r2, r1
 196 0012 0146     		mov	r1, r0
 197              	.LVL13:
 198              		.loc 1 692 12 view .LVU31
 199 0014 0248     		ldr	r0, .L15+4
 200              	.LVL14:
 201              		.loc 1 692 12 view .LVU32
 202 0016 A047     		blx	r4
 203              	.LVL15:
 693:Service/Srv_IMUSample.c **** }
 204              		.loc 1 693 1 view .LVU33
 205 0018 02B0     		add	sp, sp, #8
 206              	.LCFI7:
 207              		.cfi_def_cfa_offset 8
 208              		@ sp needed
 209 001a 10BD     		pop	{r4, pc}
 210              	.L16:
 211              		.align	2
 212              	.L15:
 213 001c 00000000 		.word	BspSPI
 214 0020 00000000 		.word	.LANCHOR1
 215              		.cfi_endproc
 216              	.LFE154:
 218              		.section	.text.SrvIMU_DataCheck,"ax",%progbits
 219              		.align	1
 220              		.syntax unified
 221              		.thumb
 222              		.thumb_func
 223              		.fpu fpv5-d16
 225              	SrvIMU_DataCheck:
 226              	.LVL16:
 227              	.LFB155:
 694:Service/Srv_IMUSample.c **** 
ARM GAS  C:\Users\HUAV\AppData\Local\Temp\ccyiM7Rc.s 			page 17


 695:Service/Srv_IMUSample.c **** /************************************************************ Module Sample API Function **********
 696:Service/Srv_IMUSample.c **** static SrvIMU_SampleErrorCode_List SrvIMU_DataCheck(IMUData_TypeDef *data, uint8_t acc_range, uint1
 697:Service/Srv_IMUSample.c **** {
 228              		.loc 1 697 1 is_stmt 1 view -0
 229              		.cfi_startproc
 230              		@ args = 0, pretend = 0, frame = 0
 231              		@ frame_needed = 0, uses_anonymous_args = 0
 232              		@ link register save eliminated.
 233              		.loc 1 697 1 is_stmt 0 view .LVU35
 234 0000 07EE101A 		vmov	s14, r1	@ int
 235 0004 07EE902A 		vmov	s15, r2	@ int
 698:Service/Srv_IMUSample.c ****     float Acc_Range_Max = acc_range * MPU_RANGE_MAX_THRESHOLD;
 236              		.loc 1 698 5 is_stmt 1 view .LVU36
 237              		.loc 1 698 37 is_stmt 0 view .LVU37
 238 0008 B8EEC77A 		vcvt.f32.s32	s14, s14
 239              		.loc 1 698 11 view .LVU38
 240 000c DFED425A 		vldr.32	s11, .L33
 241 0010 27EE255A 		vmul.f32	s10, s14, s11
 242              	.LVL17:
 699:Service/Srv_IMUSample.c ****     float Gyr_Range_Max = gyr_range * MPU_RANGE_MAX_THRESHOLD;
 243              		.loc 1 699 5 is_stmt 1 view .LVU39
 244              		.loc 1 699 37 is_stmt 0 view .LVU40
 245 0014 F8EEE77A 		vcvt.f32.s32	s15, s15
 246              		.loc 1 699 11 view .LVU41
 247 0018 67EEA55A 		vmul.f32	s11, s15, s11
 248              	.LVL18:
 700:Service/Srv_IMUSample.c ****     float Acc_Range_Min = acc_range * MPU_RANGE_MIN_THRESHOLD;
 249              		.loc 1 700 5 is_stmt 1 view .LVU42
 250              		.loc 1 700 11 is_stmt 0 view .LVU43
 251 001c DFED3F6A 		vldr.32	s13, .L33+4
 252 0020 27EE266A 		vmul.f32	s12, s14, s13
 253              	.LVL19:
 701:Service/Srv_IMUSample.c ****     float Gyr_Range_Min = gyr_range * MPU_RANGE_MIN_THRESHOLD;
 254              		.loc 1 701 5 is_stmt 1 view .LVU44
 255              		.loc 1 701 11 is_stmt 0 view .LVU45
 256 0024 67EEA66A 		vmul.f32	s13, s15, s13
 257              	.LVL20:
 702:Service/Srv_IMUSample.c **** 
 703:Service/Srv_IMUSample.c ****     for (uint8_t axis = Axis_X; axis < Axis_Sum; axis++)
 258              		.loc 1 703 5 is_stmt 1 view .LVU46
 259              	.LBB2:
 260              		.loc 1 703 10 view .LVU47
 261              		.loc 1 703 18 is_stmt 0 view .LVU48
 262 0028 0023     		movs	r3, #0
 263              		.loc 1 703 5 view .LVU49
 264 002a 15E0     		b	.L18
 265              	.LVL21:
 266              	.L32:
 704:Service/Srv_IMUSample.c ****     {
 705:Service/Srv_IMUSample.c ****         /* over range chack */
 706:Service/Srv_IMUSample.c ****         {
 707:Service/Srv_IMUSample.c ****             /* check acc data range */
 708:Service/Srv_IMUSample.c ****             if (fabs(data->acc_flt[axis]) > Acc_Range_Max)
 709:Service/Srv_IMUSample.c ****                 return SrvIMU_Sample_Data_Acc_OverRange;
 710:Service/Srv_IMUSample.c **** 
 711:Service/Srv_IMUSample.c ****             /* check gyr data range */
 712:Service/Srv_IMUSample.c ****             if (fabs(data->gyr_flt[axis]) > Gyr_Range_Max)
ARM GAS  C:\Users\HUAV\AppData\Local\Temp\ccyiM7Rc.s 			page 18


 713:Service/Srv_IMUSample.c ****                 return SrvIMU_Sample_Data_Gyr_OverRange;
 714:Service/Srv_IMUSample.c ****         }
 715:Service/Srv_IMUSample.c **** 
 716:Service/Srv_IMUSample.c ****         /* blunt data check */
 717:Service/Srv_IMUSample.c ****         {
 718:Service/Srv_IMUSample.c ****             if (data->acc_int_lst[axis] != 0)
 719:Service/Srv_IMUSample.c ****             {
 720:Service/Srv_IMUSample.c ****                 if ((fabs(data->acc_flt[axis]) <= Acc_Range_Min) && (data->acc_int[axis] == data->a
 721:Service/Srv_IMUSample.c ****                 {
 722:Service/Srv_IMUSample.c ****                     data->acc_blunt_cnt[axis]++;
 267              		.loc 1 722 21 is_stmt 1 view .LVU50
 268              		.loc 1 722 40 is_stmt 0 view .LVU51
 269 002c 00EB030C 		add	ip, r0, r3
 270 0030 9CF84910 		ldrb	r1, [ip, #73]	@ zero_extendqisi2
 271              		.loc 1 722 46 view .LVU52
 272 0034 0131     		adds	r1, r1, #1
 273 0036 8CF84910 		strb	r1, [ip, #73]
 723:Service/Srv_IMUSample.c **** 
 724:Service/Srv_IMUSample.c ****                     if (data->acc_blunt_cnt >= IMU_BLUNT_SAMPLE_CNT)
 274              		.loc 1 724 21 is_stmt 1 view .LVU53
 275              		.loc 1 724 25 is_stmt 0 view .LVU54
 276 003a 00F14901 		add	r1, r0, #73
 277              		.loc 1 724 24 view .LVU55
 278 003e 6329     		cmp	r1, #99
 279 0040 40D9     		bls	.L20
 725:Service/Srv_IMUSample.c ****                     {
 726:Service/Srv_IMUSample.c ****                         data->acc_blunt_cnt[axis] = 0;
 280              		.loc 1 726 25 is_stmt 1 view .LVU56
 281              		.loc 1 726 51 is_stmt 0 view .LVU57
 282 0042 0023     		movs	r3, #0
 283              	.LVL22:
 284              		.loc 1 726 51 view .LVU58
 285 0044 8CF84930 		strb	r3, [ip, #73]
 727:Service/Srv_IMUSample.c ****                         return SrvIMU_Sample_Data_Acc_Blunt;
 286              		.loc 1 727 25 is_stmt 1 view .LVU59
 287              		.loc 1 727 32 is_stmt 0 view .LVU60
 288 0048 0220     		movs	r0, #2
 289              	.LVL23:
 290              		.loc 1 727 32 view .LVU61
 291 004a 7047     		bx	lr
 292              	.LVL24:
 293              	.L24:
 728:Service/Srv_IMUSample.c ****                     }
 729:Service/Srv_IMUSample.c ****                 }
 730:Service/Srv_IMUSample.c ****                 else
 731:Service/Srv_IMUSample.c ****                     data->acc_blunt_cnt[axis] = 0;
 732:Service/Srv_IMUSample.c ****             }
 733:Service/Srv_IMUSample.c **** 
 734:Service/Srv_IMUSample.c ****             if (data->gyr_int_lst[axis] != 0)
 735:Service/Srv_IMUSample.c ****             {
 736:Service/Srv_IMUSample.c ****                 if ((fabs(data->gyr_flt[axis]) <= Gyr_Range_Min) && (data->gyr_int[axis] == data->g
 737:Service/Srv_IMUSample.c ****                 {
 738:Service/Srv_IMUSample.c ****                     data->gyr_blunt_cnt[axis]++;
 739:Service/Srv_IMUSample.c **** 
 740:Service/Srv_IMUSample.c ****                     if (data->gyr_blunt_cnt[axis] >= IMU_BLUNT_SAMPLE_CNT)
 741:Service/Srv_IMUSample.c ****                     {
 742:Service/Srv_IMUSample.c ****                         data->gyr_blunt_cnt[axis] = 0;
ARM GAS  C:\Users\HUAV\AppData\Local\Temp\ccyiM7Rc.s 			page 19


 743:Service/Srv_IMUSample.c ****                         return SrvIMU_Sample_Data_Gyr_Blunt;
 744:Service/Srv_IMUSample.c ****                     }
 745:Service/Srv_IMUSample.c ****                 }
 746:Service/Srv_IMUSample.c ****                 else
 747:Service/Srv_IMUSample.c ****                     data->gyr_blunt_cnt[axis] = 0;
 294              		.loc 1 747 21 is_stmt 1 view .LVU62
 295              		.loc 1 747 47 is_stmt 0 view .LVU63
 296 004c 0244     		add	r2, r2, r0
 297 004e 0021     		movs	r1, #0
 298 0050 82F84610 		strb	r1, [r2, #70]
 299              	.L23:
 703:Service/Srv_IMUSample.c ****     {
 300              		.loc 1 703 50 is_stmt 1 discriminator 2 view .LVU64
 703:Service/Srv_IMUSample.c ****     {
 301              		.loc 1 703 54 is_stmt 0 discriminator 2 view .LVU65
 302 0054 0133     		adds	r3, r3, #1
 303              	.LVL25:
 703:Service/Srv_IMUSample.c ****     {
 304              		.loc 1 703 54 discriminator 2 view .LVU66
 305 0056 DBB2     		uxtb	r3, r3
 306              	.LVL26:
 307              	.L18:
 703:Service/Srv_IMUSample.c ****     {
 308              		.loc 1 703 33 is_stmt 1 discriminator 1 view .LVU67
 703:Service/Srv_IMUSample.c ****     {
 309              		.loc 1 703 5 is_stmt 0 discriminator 1 view .LVU68
 310 0058 022B     		cmp	r3, #2
 311 005a 57D8     		bhi	.L31
 708:Service/Srv_IMUSample.c ****                 return SrvIMU_Sample_Data_Acc_OverRange;
 312              		.loc 1 708 13 is_stmt 1 view .LVU69
 708:Service/Srv_IMUSample.c ****                 return SrvIMU_Sample_Data_Acc_OverRange;
 313              		.loc 1 708 35 is_stmt 0 view .LVU70
 314 005c 1A46     		mov	r2, r3
 315 005e 03F10A01 		add	r1, r3, #10
 316 0062 00EB8101 		add	r1, r0, r1, lsl #2
 317 0066 D1F80610 		ldr	r1, [r1, #6]	@ unaligned
 318 006a 07EE901A 		vmov	s15, r1	@ int
 708:Service/Srv_IMUSample.c ****                 return SrvIMU_Sample_Data_Acc_OverRange;
 319              		.loc 1 708 17 view .LVU71
 320 006e F0EEE77A 		vabs.f32	s15, s15
 708:Service/Srv_IMUSample.c ****                 return SrvIMU_Sample_Data_Acc_OverRange;
 321              		.loc 1 708 16 view .LVU72
 322 0072 F4EEC57A 		vcmpe.f32	s15, s10
 323 0076 F1EE10FA 		vmrs	APSR_nzcv, FPSCR
 324 007a 49DC     		bgt	.L27
 712:Service/Srv_IMUSample.c ****                 return SrvIMU_Sample_Data_Gyr_OverRange;
 325              		.loc 1 712 13 is_stmt 1 view .LVU73
 712:Service/Srv_IMUSample.c ****                 return SrvIMU_Sample_Data_Gyr_OverRange;
 326              		.loc 1 712 35 is_stmt 0 view .LVU74
 327 007c 03F10801 		add	r1, r3, #8
 328 0080 00EB8101 		add	r1, r0, r1, lsl #2
 329 0084 D1F80210 		ldr	r1, [r1, #2]	@ unaligned
 330 0088 07EE101A 		vmov	s14, r1	@ int
 712:Service/Srv_IMUSample.c ****                 return SrvIMU_Sample_Data_Gyr_OverRange;
 331              		.loc 1 712 17 view .LVU75
 332 008c B0EEC77A 		vabs.f32	s14, s14
 712:Service/Srv_IMUSample.c ****                 return SrvIMU_Sample_Data_Gyr_OverRange;
ARM GAS  C:\Users\HUAV\AppData\Local\Temp\ccyiM7Rc.s 			page 20


 333              		.loc 1 712 16 view .LVU76
 334 0090 B4EEE57A 		vcmpe.f32	s14, s11
 335 0094 F1EE10FA 		vmrs	APSR_nzcv, FPSCR
 336 0098 3CDC     		bgt	.L28
 718:Service/Srv_IMUSample.c ****             {
 337              		.loc 1 718 13 is_stmt 1 view .LVU77
 718:Service/Srv_IMUSample.c ****             {
 338              		.loc 1 718 34 is_stmt 0 view .LVU78
 339 009a 03F12001 		add	r1, r3, #32
 340 009e 30F91110 		ldrsh	r1, [r0, r1, lsl #1]	@ unaligned
 718:Service/Srv_IMUSample.c ****             {
 341              		.loc 1 718 16 view .LVU79
 342 00a2 79B1     		cbz	r1, .L20
 720:Service/Srv_IMUSample.c ****                 {
 343              		.loc 1 720 17 is_stmt 1 view .LVU80
 720:Service/Srv_IMUSample.c ****                 {
 344              		.loc 1 720 20 is_stmt 0 view .LVU81
 345 00a4 F4EEC67A 		vcmpe.f32	s15, s12
 346 00a8 F1EE10FA 		vmrs	APSR_nzcv, FPSCR
 347 00ac 05D8     		bhi	.L21
 720:Service/Srv_IMUSample.c ****                 {
 348              		.loc 1 720 83 discriminator 1 view .LVU82
 349 00ae 03F10C0C 		add	ip, r3, #12
 350 00b2 30F91CC0 		ldrsh	ip, [r0, ip, lsl #1]	@ unaligned
 720:Service/Srv_IMUSample.c ****                 {
 351              		.loc 1 720 66 discriminator 1 view .LVU83
 352 00b6 6145     		cmp	r1, ip
 353 00b8 B8D0     		beq	.L32
 354              	.L21:
 731:Service/Srv_IMUSample.c ****             }
 355              		.loc 1 731 21 is_stmt 1 view .LVU84
 731:Service/Srv_IMUSample.c ****             }
 356              		.loc 1 731 47 is_stmt 0 view .LVU85
 357 00ba 8118     		adds	r1, r0, r2
 358 00bc 4FF0000C 		mov	ip, #0
 359 00c0 81F849C0 		strb	ip, [r1, #73]
 360              	.L20:
 734:Service/Srv_IMUSample.c ****             {
 361              		.loc 1 734 13 is_stmt 1 view .LVU86
 734:Service/Srv_IMUSample.c ****             {
 362              		.loc 1 734 34 is_stmt 0 view .LVU87
 363 00c4 02F11C01 		add	r1, r2, #28
 364 00c8 00EB4101 		add	r1, r0, r1, lsl #1
 365 00cc B1F90210 		ldrsh	r1, [r1, #2]	@ unaligned
 734:Service/Srv_IMUSample.c ****             {
 366              		.loc 1 734 16 view .LVU88
 367 00d0 0029     		cmp	r1, #0
 368 00d2 BFD0     		beq	.L23
 736:Service/Srv_IMUSample.c ****                 {
 369              		.loc 1 736 17 is_stmt 1 view .LVU89
 736:Service/Srv_IMUSample.c ****                 {
 370              		.loc 1 736 20 is_stmt 0 view .LVU90
 371 00d4 B4EEE67A 		vcmpe.f32	s14, s13
 372 00d8 F1EE10FA 		vmrs	APSR_nzcv, FPSCR
 373 00dc B6D8     		bhi	.L24
 736:Service/Srv_IMUSample.c ****                 {
 374              		.loc 1 736 83 discriminator 1 view .LVU91
ARM GAS  C:\Users\HUAV\AppData\Local\Temp\ccyiM7Rc.s 			page 21


 375 00de 02F1080C 		add	ip, r2, #8
 376 00e2 00EB4C0C 		add	ip, r0, ip, lsl #1
 377 00e6 BCF902C0 		ldrsh	ip, [ip, #2]	@ unaligned
 736:Service/Srv_IMUSample.c ****                 {
 378              		.loc 1 736 66 discriminator 1 view .LVU92
 379 00ea 6145     		cmp	r1, ip
 380 00ec AED1     		bne	.L24
 738:Service/Srv_IMUSample.c **** 
 381              		.loc 1 738 21 is_stmt 1 view .LVU93
 738:Service/Srv_IMUSample.c **** 
 382              		.loc 1 738 40 is_stmt 0 view .LVU94
 383 00ee 00EB020C 		add	ip, r0, r2
 384 00f2 9CF84610 		ldrb	r1, [ip, #70]	@ zero_extendqisi2
 738:Service/Srv_IMUSample.c **** 
 385              		.loc 1 738 46 view .LVU95
 386 00f6 0131     		adds	r1, r1, #1
 387 00f8 C9B2     		uxtb	r1, r1
 388 00fa 8CF84610 		strb	r1, [ip, #70]
 740:Service/Srv_IMUSample.c ****                     {
 389              		.loc 1 740 21 is_stmt 1 view .LVU96
 740:Service/Srv_IMUSample.c ****                     {
 390              		.loc 1 740 24 is_stmt 0 view .LVU97
 391 00fe 6329     		cmp	r1, #99
 392 0100 A8D9     		bls	.L23
 742:Service/Srv_IMUSample.c ****                         return SrvIMU_Sample_Data_Gyr_Blunt;
 393              		.loc 1 742 25 is_stmt 1 view .LVU98
 742:Service/Srv_IMUSample.c ****                         return SrvIMU_Sample_Data_Gyr_Blunt;
 394              		.loc 1 742 51 is_stmt 0 view .LVU99
 395 0102 0023     		movs	r3, #0
 396              	.LVL27:
 742:Service/Srv_IMUSample.c ****                         return SrvIMU_Sample_Data_Gyr_Blunt;
 397              		.loc 1 742 51 view .LVU100
 398 0104 8CF84630 		strb	r3, [ip, #70]
 743:Service/Srv_IMUSample.c ****                     }
 399              		.loc 1 743 25 is_stmt 1 view .LVU101
 743:Service/Srv_IMUSample.c ****                     }
 400              		.loc 1 743 32 is_stmt 0 view .LVU102
 401 0108 0320     		movs	r0, #3
 402              	.LVL28:
 743:Service/Srv_IMUSample.c ****                     }
 403              		.loc 1 743 32 view .LVU103
 404 010a 7047     		bx	lr
 405              	.LVL29:
 406              	.L31:
 743:Service/Srv_IMUSample.c ****                     }
 407              		.loc 1 743 32 view .LVU104
 408              	.LBE2:
 748:Service/Srv_IMUSample.c ****             }
 749:Service/Srv_IMUSample.c ****         }
 750:Service/Srv_IMUSample.c ****     }
 751:Service/Srv_IMUSample.c **** 
 752:Service/Srv_IMUSample.c ****     return SrvIMU_Sample_NoError;
 409              		.loc 1 752 12 view .LVU105
 410 010c 0020     		movs	r0, #0
 411              	.LVL30:
 412              	.LBB3:
 413              		.loc 1 752 12 view .LVU106
ARM GAS  C:\Users\HUAV\AppData\Local\Temp\ccyiM7Rc.s 			page 22


 414 010e 7047     		bx	lr
 415              	.LVL31:
 416              	.L27:
 709:Service/Srv_IMUSample.c **** 
 417              		.loc 1 709 24 view .LVU107
 418 0110 0420     		movs	r0, #4
 419              	.LVL32:
 709:Service/Srv_IMUSample.c **** 
 420              		.loc 1 709 24 view .LVU108
 421 0112 7047     		bx	lr
 422              	.LVL33:
 423              	.L28:
 713:Service/Srv_IMUSample.c ****         }
 424              		.loc 1 713 24 view .LVU109
 425 0114 0520     		movs	r0, #5
 426              	.LVL34:
 713:Service/Srv_IMUSample.c ****         }
 427              		.loc 1 713 24 view .LVU110
 428              	.LBE3:
 753:Service/Srv_IMUSample.c **** }
 429              		.loc 1 753 1 view .LVU111
 430 0116 7047     		bx	lr
 431              	.L34:
 432              		.align	2
 433              	.L33:
 434 0118 9A99993F 		.word	1067030938
 435 011c 6666663F 		.word	1063675494
 436              		.cfi_endproc
 437              	.LFE155:
 439              		.section	.text.SrvIMU_Calib_GyroZeroOffset,"ax",%progbits
 440              		.align	1
 441              		.syntax unified
 442              		.thumb
 443              		.thumb_func
 444              		.fpu fpv5-d16
 446              	SrvIMU_Calib_GyroZeroOffset:
 447              	.LVL35:
 448              	.LFB156:
 754:Service/Srv_IMUSample.c **** 
 755:Service/Srv_IMUSample.c **** static SrvIMU_GyroCalib_State_List SrvIMU_Calib_GyroZeroOffset(float *pri_gyr, float *sec_gyr)
 756:Service/Srv_IMUSample.c **** {
 449              		.loc 1 756 1 is_stmt 1 view -0
 450              		.cfi_startproc
 451              		@ args = 0, pretend = 0, frame = 16
 452              		@ frame_needed = 0, uses_anonymous_args = 0
 453              		.loc 1 756 1 is_stmt 0 view .LVU113
 454 0000 70B5     		push	{r4, r5, r6, lr}
 455              	.LCFI8:
 456              		.cfi_def_cfa_offset 16
 457              		.cfi_offset 4, -16
 458              		.cfi_offset 5, -12
 459              		.cfi_offset 6, -8
 460              		.cfi_offset 14, -4
 461 0002 84B0     		sub	sp, sp, #16
 462              	.LCFI9:
 463              		.cfi_def_cfa_offset 32
 757:Service/Srv_IMUSample.c ****     uint8_t i = Axis_X;
ARM GAS  C:\Users\HUAV\AppData\Local\Temp\ccyiM7Rc.s 			page 23


 464              		.loc 1 757 5 is_stmt 1 view .LVU114
 465              	.LVL36:
 758:Service/Srv_IMUSample.c ****     SrvIMU_GyroCalib_State_List state = SrvIMU_Gyr_CalibFailed;
 466              		.loc 1 758 5 view .LVU115
 759:Service/Srv_IMUSample.c ****     static uint8_t Gyr_Static_Calib = GYR_STATIC_CALIB_CYCLE;
 467              		.loc 1 759 5 view .LVU116
 760:Service/Srv_IMUSample.c ****     static int16_t lst_pri_gyr[Axis_Sum] = {0};
 468              		.loc 1 760 5 view .LVU117
 761:Service/Srv_IMUSample.c ****     static int16_t lst_sec_gyr[Axis_Sum] = {0};
 469              		.loc 1 761 5 view .LVU118
 762:Service/Srv_IMUSample.c ****     static int16_t PriIMU_Prc_Gyr_ZeroOffset[Axis_Sum] = {0};
 470              		.loc 1 762 5 view .LVU119
 763:Service/Srv_IMUSample.c ****     static int16_t SecIMU_Prc_Gyr_ZeroOffset[Axis_Sum] = {0};
 471              		.loc 1 763 5 view .LVU120
 764:Service/Srv_IMUSample.c **** 
 765:Service/Srv_IMUSample.c ****     int16_t pri_gyr_tmp[Axis_Sum] = {0};
 472              		.loc 1 765 5 view .LVU121
 473              		.loc 1 765 13 is_stmt 0 view .LVU122
 474 0004 0023     		movs	r3, #0
 475 0006 0293     		str	r3, [sp, #8]
 476 0008 ADF80C30 		strh	r3, [sp, #12]	@ movhi
 766:Service/Srv_IMUSample.c ****     int16_t sec_gyr_tmp[Axis_Sum] = {0};
 477              		.loc 1 766 5 is_stmt 1 view .LVU123
 478              		.loc 1 766 13 is_stmt 0 view .LVU124
 479 000c 0093     		str	r3, [sp]
 480 000e ADF80430 		strh	r3, [sp, #4]	@ movhi
 767:Service/Srv_IMUSample.c **** 
 768:Service/Srv_IMUSample.c ****     if((pri_gyr == NULL) || 
 481              		.loc 1 768 5 is_stmt 1 view .LVU125
 482              		.loc 1 768 7 is_stmt 0 view .LVU126
 483 0012 9942     		cmp	r1, r3
 484 0014 18BF     		it	ne
 485 0016 9842     		cmpne	r0, r3
 486 0018 00F09680 		beq	.L44
 487 001c 0446     		mov	r4, r0
 488 001e 0D46     		mov	r5, r1
 769:Service/Srv_IMUSample.c ****        (sec_gyr == NULL))
 770:Service/Srv_IMUSample.c ****         goto reset_calib_var;
 771:Service/Srv_IMUSample.c **** 
 772:Service/Srv_IMUSample.c ****     if(Gyr_Static_Calib)
 489              		.loc 1 772 5 is_stmt 1 view .LVU127
 490              		.loc 1 772 8 is_stmt 0 view .LVU128
 491 0020 5D4B     		ldr	r3, .L52+8
 492 0022 1B78     		ldrb	r3, [r3]	@ zero_extendqisi2
 493              		.loc 1 772 7 view .LVU129
 494 0024 0BB9     		cbnz	r3, .L45
 758:Service/Srv_IMUSample.c ****     static uint8_t Gyr_Static_Calib = GYR_STATIC_CALIB_CYCLE;
 495              		.loc 1 758 33 view .LVU130
 496 0026 0120     		movs	r0, #1
 497              	.LVL37:
 758:Service/Srv_IMUSample.c ****     static uint8_t Gyr_Static_Calib = GYR_STATIC_CALIB_CYCLE;
 498              		.loc 1 758 33 view .LVU131
 499 0028 8FE0     		b	.L36
 500              	.LVL38:
 501              	.L45:
 757:Service/Srv_IMUSample.c ****     SrvIMU_GyroCalib_State_List state = SrvIMU_Gyr_CalibFailed;
 502              		.loc 1 757 13 view .LVU132
ARM GAS  C:\Users\HUAV\AppData\Local\Temp\ccyiM7Rc.s 			page 24


 503 002a 0022     		movs	r2, #0
 504              	.LVL39:
 505              	.L37:
 773:Service/Srv_IMUSample.c ****     {
 774:Service/Srv_IMUSample.c ****         for(; i < Axis_Sum; i++)
 506              		.loc 1 774 15 is_stmt 1 discriminator 1 view .LVU133
 507              		.loc 1 774 9 is_stmt 0 discriminator 1 view .LVU134
 508 002c 022A     		cmp	r2, #2
 509 002e 5AD8     		bhi	.L51
 775:Service/Srv_IMUSample.c ****         {
 776:Service/Srv_IMUSample.c ****             pri_gyr_tmp[i] = (int16_t)(pri_gyr[i] * GYR_STATIC_CALIB_ACCURACY);
 510              		.loc 1 776 13 is_stmt 1 view .LVU135
 511              		.loc 1 776 47 is_stmt 0 view .LVU136
 512 0030 04EB8201 		add	r1, r4, r2, lsl #2
 513 0034 91ED006A 		vldr.32	s12, [r1]
 514 0038 B7EEC66A 		vcvt.f64.f32	d6, s12
 515              		.loc 1 776 51 view .LVU137
 516 003c 9FED545B 		vldr.64	d5, .L52
 517 0040 26EE056B 		vmul.f64	d6, d6, d5
 518              		.loc 1 776 30 view .LVU138
 519 0044 BDEEC66B 		vcvt.s32.f64	s12, d6
 520 0048 16EE100A 		vmov	r0, s12	@ int
 521 004c 0FFA80FC 		sxth	ip, r0
 522              		.loc 1 776 28 view .LVU139
 523 0050 04A8     		add	r0, sp, #16
 524 0052 00EB420E 		add	lr, r0, r2, lsl #1
 525 0056 2EF808CC 		strh	ip, [lr, #-8]	@ movhi
 777:Service/Srv_IMUSample.c ****             sec_gyr_tmp[i] = (int16_t)(sec_gyr[i] * GYR_STATIC_CALIB_ACCURACY);
 526              		.loc 1 777 13 is_stmt 1 view .LVU140
 527              		.loc 1 777 47 is_stmt 0 view .LVU141
 528 005a 05EB8200 		add	r0, r5, r2, lsl #2
 529 005e 90ED007A 		vldr.32	s14, [r0]
 530 0062 B7EEC77A 		vcvt.f64.f32	d7, s14
 531              		.loc 1 777 51 view .LVU142
 532 0066 27EE057B 		vmul.f64	d7, d7, d5
 533              		.loc 1 777 30 view .LVU143
 534 006a BDEEC77B 		vcvt.s32.f64	s14, d7
 535 006e 17EE100A 		vmov	r0, s14	@ int
 536 0072 00B2     		sxth	r0, r0
 537              		.loc 1 777 28 view .LVU144
 538 0074 2EF8100C 		strh	r0, [lr, #-16]	@ movhi
 778:Service/Srv_IMUSample.c **** 
 779:Service/Srv_IMUSample.c ****             /* motion detect */
 780:Service/Srv_IMUSample.c ****             if((pri_gyr_tmp[i] >= GYR_STATIC_CALIB_ANGULAR_SPEED_THRESHOLD) || 
 539              		.loc 1 780 13 is_stmt 1 view .LVU145
 540              		.loc 1 780 15 is_stmt 0 view .LVU146
 541 0078 40F6B736 		movw	r6, #2999
 542 007c B445     		cmp	ip, r6
 543 007e 66DC     		bgt	.L46
 544              		.loc 1 780 77 discriminator 1 view .LVU147
 545 0080 B042     		cmp	r0, r6
 546 0082 66DC     		bgt	.L47
 781:Service/Srv_IMUSample.c ****                (sec_gyr_tmp[i] >= GYR_STATIC_CALIB_ANGULAR_SPEED_THRESHOLD) ||
 782:Service/Srv_IMUSample.c ****                (abs(pri_gyr_tmp[i] - lst_pri_gyr[i]) >= GYR_STATIC_CALIB_ANGULAR_SPEED_DIFF_THRESHO
 547              		.loc 1 782 49 view .LVU148
 548 0084 454E     		ldr	r6, .L52+12
 549 0086 36F912E0 		ldrsh	lr, [r6, r2, lsl #1]
ARM GAS  C:\Users\HUAV\AppData\Local\Temp\ccyiM7Rc.s 			page 25


 550              		.loc 1 782 36 view .LVU149
 551 008a ACEB0E0E 		sub	lr, ip, lr
 552              		.loc 1 782 17 view .LVU150
 553 008e BEF1000F 		cmp	lr, #0
 554 0092 B8BF     		it	lt
 555 0094 CEF1000E 		rsblt	lr, lr, #0
 781:Service/Srv_IMUSample.c ****                (sec_gyr_tmp[i] >= GYR_STATIC_CALIB_ANGULAR_SPEED_THRESHOLD) ||
 556              		.loc 1 781 77 view .LVU151
 557 0098 BEF5FA6F 		cmp	lr, #2000
 558 009c 5BDA     		bge	.L48
 783:Service/Srv_IMUSample.c ****                (abs(sec_gyr_tmp[i] - lst_sec_gyr[i]) >= GYR_STATIC_CALIB_ANGULAR_SPEED_DIFF_THRESHO
 559              		.loc 1 783 49 view .LVU152
 560 009e 404E     		ldr	r6, .L52+16
 561 00a0 36F912E0 		ldrsh	lr, [r6, r2, lsl #1]
 562              		.loc 1 783 36 view .LVU153
 563 00a4 A0EB0E0E 		sub	lr, r0, lr
 564              		.loc 1 783 17 view .LVU154
 565 00a8 BEF1000F 		cmp	lr, #0
 566 00ac B8BF     		it	lt
 567 00ae CEF1000E 		rsblt	lr, lr, #0
 782:Service/Srv_IMUSample.c ****                (abs(sec_gyr_tmp[i] - lst_sec_gyr[i]) >= GYR_STATIC_CALIB_ANGULAR_SPEED_DIFF_THRESHO
 568              		.loc 1 782 104 view .LVU155
 569 00b2 BEF5FA6F 		cmp	lr, #2000
 570 00b6 50DA     		bge	.L49
 784:Service/Srv_IMUSample.c ****             {
 785:Service/Srv_IMUSample.c ****                 /* reset variable */
 786:Service/Srv_IMUSample.c ****                 state = SrvIMU_Gyr_CalibFailed;
 787:Service/Srv_IMUSample.c ****                 goto reset_calib_var;
 788:Service/Srv_IMUSample.c ****             }
 789:Service/Srv_IMUSample.c **** 
 790:Service/Srv_IMUSample.c ****             /* we need to keep sensor for static statment for entiry calibration proce */
 791:Service/Srv_IMUSample.c **** 
 792:Service/Srv_IMUSample.c ****             PriIMU_Prc_Gyr_ZeroOffset[i] += pri_gyr_tmp[i];
 571              		.loc 1 792 13 is_stmt 1 view .LVU156
 572              		.loc 1 792 42 is_stmt 0 view .LVU157
 573 00b8 3A4E     		ldr	r6, .L52+20
 574 00ba 36F812E0 		ldrh	lr, [r6, r2, lsl #1]
 575 00be 1EFA8CFE 		uxtah	lr, lr, ip
 576 00c2 26F812E0 		strh	lr, [r6, r2, lsl #1]	@ movhi
 793:Service/Srv_IMUSample.c ****             SecIMU_Prc_Gyr_ZeroOffset[i] += sec_gyr_tmp[i];
 577              		.loc 1 793 13 is_stmt 1 view .LVU158
 578              		.loc 1 793 42 is_stmt 0 view .LVU159
 579 00c6 384E     		ldr	r6, .L52+24
 580 00c8 36F812E0 		ldrh	lr, [r6, r2, lsl #1]
 581 00cc 1EFA80FE 		uxtah	lr, lr, r0
 582 00d0 26F812E0 		strh	lr, [r6, r2, lsl #1]	@ movhi
 794:Service/Srv_IMUSample.c **** 
 795:Service/Srv_IMUSample.c ****             lst_pri_gyr[i] = pri_gyr_tmp[i];
 583              		.loc 1 795 13 is_stmt 1 view .LVU160
 584              		.loc 1 795 28 is_stmt 0 view .LVU161
 585 00d4 314E     		ldr	r6, .L52+12
 586 00d6 26F812C0 		strh	ip, [r6, r2, lsl #1]	@ movhi
 796:Service/Srv_IMUSample.c ****             lst_sec_gyr[i] = sec_gyr_tmp[i];
 587              		.loc 1 796 13 is_stmt 1 view .LVU162
 588              		.loc 1 796 28 is_stmt 0 view .LVU163
 589 00da 314E     		ldr	r6, .L52+16
 590 00dc 26F81200 		strh	r0, [r6, r2, lsl #1]	@ movhi
ARM GAS  C:\Users\HUAV\AppData\Local\Temp\ccyiM7Rc.s 			page 26


 774:Service/Srv_IMUSample.c ****         {
 591              		.loc 1 774 29 is_stmt 1 view .LVU164
 774:Service/Srv_IMUSample.c ****         {
 592              		.loc 1 774 30 is_stmt 0 view .LVU165
 593 00e0 0132     		adds	r2, r2, #1
 594              	.LVL40:
 774:Service/Srv_IMUSample.c ****         {
 595              		.loc 1 774 30 view .LVU166
 596 00e2 D2B2     		uxtb	r2, r2
 597              	.LVL41:
 774:Service/Srv_IMUSample.c ****         {
 598              		.loc 1 774 30 view .LVU167
 599 00e4 A2E7     		b	.L37
 600              	.L51:
 797:Service/Srv_IMUSample.c ****         }
 798:Service/Srv_IMUSample.c **** 
 799:Service/Srv_IMUSample.c ****         Gyr_Static_Calib--;
 601              		.loc 1 799 9 is_stmt 1 view .LVU168
 602              		.loc 1 799 25 is_stmt 0 view .LVU169
 603 00e6 013B     		subs	r3, r3, #1
 604 00e8 DBB2     		uxtb	r3, r3
 605 00ea 2B4A     		ldr	r2, .L52+8
 606              	.LVL42:
 607              		.loc 1 799 25 view .LVU170
 608 00ec 1370     		strb	r3, [r2]
 800:Service/Srv_IMUSample.c **** 
 801:Service/Srv_IMUSample.c ****         /* calib done */
 802:Service/Srv_IMUSample.c ****         if(Gyr_Static_Calib == 0)
 609              		.loc 1 802 9 is_stmt 1 view .LVU171
 610              		.loc 1 802 11 is_stmt 0 view .LVU172
 611 00ee 3BB3     		cbz	r3, .L39
 803:Service/Srv_IMUSample.c ****         {
 804:Service/Srv_IMUSample.c ****             for(i = Axis_X; i < Axis_Sum; i++)
 805:Service/Srv_IMUSample.c ****             {
 806:Service/Srv_IMUSample.c ****                 PriIMU_Gyr_ZeroOffset[i] = (PriIMU_Prc_Gyr_ZeroOffset[i] / (float)GYR_STATIC_CALIB_
 807:Service/Srv_IMUSample.c ****                 SecIMU_Gyr_ZeroOffset[i] = (SecIMU_Prc_Gyr_ZeroOffset[i] / (float)GYR_STATIC_CALIB_
 808:Service/Srv_IMUSample.c ****             }
 809:Service/Srv_IMUSample.c **** 
 810:Service/Srv_IMUSample.c ****             state = SrvIMU_Gyr_CalibDone;
 811:Service/Srv_IMUSample.c ****         }
 812:Service/Srv_IMUSample.c ****         else
 813:Service/Srv_IMUSample.c ****             return SrvIMU_Gyr_Calibarting;
 612              		.loc 1 813 20 view .LVU173
 613 00f0 0020     		movs	r0, #0
 614 00f2 48E0     		b	.L40
 615              	.LVL43:
 616              	.L41:
 806:Service/Srv_IMUSample.c ****                 SecIMU_Gyr_ZeroOffset[i] = (SecIMU_Prc_Gyr_ZeroOffset[i] / (float)GYR_STATIC_CALIB_
 617              		.loc 1 806 17 is_stmt 1 discriminator 3 view .LVU174
 806:Service/Srv_IMUSample.c ****                 SecIMU_Gyr_ZeroOffset[i] = (SecIMU_Prc_Gyr_ZeroOffset[i] / (float)GYR_STATIC_CALIB_
 618              		.loc 1 806 70 is_stmt 0 discriminator 3 view .LVU175
 619 00f4 2B4A     		ldr	r2, .L52+20
 620 00f6 32F91320 		ldrsh	r2, [r2, r3, lsl #1]
 621 00fa 07EE902A 		vmov	s15, r2	@ int
 806:Service/Srv_IMUSample.c ****                 SecIMU_Gyr_ZeroOffset[i] = (SecIMU_Prc_Gyr_ZeroOffset[i] / (float)GYR_STATIC_CALIB_
 622              		.loc 1 806 74 discriminator 3 view .LVU176
 623 00fe F8EEE77A 		vcvt.f32.s32	s15, s15
ARM GAS  C:\Users\HUAV\AppData\Local\Temp\ccyiM7Rc.s 			page 27


 624 0102 DFED2A6A 		vldr.32	s13, .L52+28
 625 0106 87EEA66A 		vdiv.f32	s12, s15, s13
 806:Service/Srv_IMUSample.c ****                 SecIMU_Gyr_ZeroOffset[i] = (SecIMU_Prc_Gyr_ZeroOffset[i] / (float)GYR_STATIC_CALIB_
 626              		.loc 1 806 110 discriminator 3 view .LVU177
 627 010a 9FED297A 		vldr.32	s14, .L52+32
 628 010e C6EE077A 		vdiv.f32	s15, s12, s14
 806:Service/Srv_IMUSample.c ****                 SecIMU_Gyr_ZeroOffset[i] = (SecIMU_Prc_Gyr_ZeroOffset[i] / (float)GYR_STATIC_CALIB_
 629              		.loc 1 806 42 discriminator 3 view .LVU178
 630 0112 284A     		ldr	r2, .L52+36
 631 0114 02EB8302 		add	r2, r2, r3, lsl #2
 632 0118 C2ED007A 		vstr.32	s15, [r2]
 807:Service/Srv_IMUSample.c ****             }
 633              		.loc 1 807 17 is_stmt 1 discriminator 3 view .LVU179
 807:Service/Srv_IMUSample.c ****             }
 634              		.loc 1 807 70 is_stmt 0 discriminator 3 view .LVU180
 635 011c 224A     		ldr	r2, .L52+24
 636 011e 32F91320 		ldrsh	r2, [r2, r3, lsl #1]
 637 0122 07EE902A 		vmov	s15, r2	@ int
 807:Service/Srv_IMUSample.c ****             }
 638              		.loc 1 807 74 discriminator 3 view .LVU181
 639 0126 F8EEE77A 		vcvt.f32.s32	s15, s15
 640 012a 87EEA66A 		vdiv.f32	s12, s15, s13
 807:Service/Srv_IMUSample.c ****             }
 641              		.loc 1 807 110 discriminator 3 view .LVU182
 642 012e C6EE077A 		vdiv.f32	s15, s12, s14
 807:Service/Srv_IMUSample.c ****             }
 643              		.loc 1 807 42 discriminator 3 view .LVU183
 644 0132 214A     		ldr	r2, .L52+40
 645 0134 02EB8302 		add	r2, r2, r3, lsl #2
 646 0138 C2ED007A 		vstr.32	s15, [r2]
 804:Service/Srv_IMUSample.c ****             {
 647              		.loc 1 804 43 is_stmt 1 discriminator 3 view .LVU184
 804:Service/Srv_IMUSample.c ****             {
 648              		.loc 1 804 44 is_stmt 0 discriminator 3 view .LVU185
 649 013c 0133     		adds	r3, r3, #1
 650              	.LVL44:
 804:Service/Srv_IMUSample.c ****             {
 651              		.loc 1 804 44 discriminator 3 view .LVU186
 652 013e DBB2     		uxtb	r3, r3
 653              	.LVL45:
 654              	.L39:
 804:Service/Srv_IMUSample.c ****             {
 655              		.loc 1 804 29 is_stmt 1 discriminator 1 view .LVU187
 804:Service/Srv_IMUSample.c ****             {
 656              		.loc 1 804 13 is_stmt 0 discriminator 1 view .LVU188
 657 0140 022B     		cmp	r3, #2
 658 0142 D7D9     		bls	.L41
 810:Service/Srv_IMUSample.c ****         }
 659              		.loc 1 810 19 view .LVU189
 660 0144 0220     		movs	r0, #2
 661 0146 00E0     		b	.L36
 662              	.LVL46:
 663              	.L44:
 758:Service/Srv_IMUSample.c ****     static uint8_t Gyr_Static_Calib = GYR_STATIC_CALIB_CYCLE;
 664              		.loc 1 758 33 view .LVU190
 665 0148 0120     		movs	r0, #1
 666              	.LVL47:
ARM GAS  C:\Users\HUAV\AppData\Local\Temp\ccyiM7Rc.s 			page 28


 667              	.L36:
 814:Service/Srv_IMUSample.c ****     }
 815:Service/Srv_IMUSample.c **** 
 816:Service/Srv_IMUSample.c **** reset_calib_var:
 817:Service/Srv_IMUSample.c ****     /* for test */
 818:Service/Srv_IMUSample.c ****     for(i = Axis_X; i < Axis_Sum; i++)
 668              		.loc 1 818 5 is_stmt 1 view .LVU191
 669              		.loc 1 818 11 is_stmt 0 view .LVU192
 670 014a 0023     		movs	r3, #0
 671              		.loc 1 818 5 view .LVU193
 672 014c 16E0     		b	.L42
 673              	.LVL48:
 674              	.L46:
 786:Service/Srv_IMUSample.c ****                 goto reset_calib_var;
 675              		.loc 1 786 23 view .LVU194
 676 014e 0120     		movs	r0, #1
 677 0150 FBE7     		b	.L36
 678              	.L47:
 679 0152 0120     		movs	r0, #1
 680 0154 F9E7     		b	.L36
 681              	.L48:
 682 0156 0120     		movs	r0, #1
 683 0158 F7E7     		b	.L36
 684              	.L49:
 685 015a 0120     		movs	r0, #1
 686 015c F5E7     		b	.L36
 687              	.LVL49:
 688              	.L43:
 819:Service/Srv_IMUSample.c ****     {
 820:Service/Srv_IMUSample.c ****         PriIMU_Prc_Gyr_ZeroOffset[i] = 0;
 689              		.loc 1 820 9 is_stmt 1 discriminator 3 view .LVU195
 690              		.loc 1 820 38 is_stmt 0 discriminator 3 view .LVU196
 691 015e 0022     		movs	r2, #0
 692 0160 1049     		ldr	r1, .L52+20
 693 0162 21F81320 		strh	r2, [r1, r3, lsl #1]	@ movhi
 821:Service/Srv_IMUSample.c ****         SecIMU_Prc_Gyr_ZeroOffset[i] = 0;
 694              		.loc 1 821 9 is_stmt 1 discriminator 3 view .LVU197
 695              		.loc 1 821 38 is_stmt 0 discriminator 3 view .LVU198
 696 0166 1049     		ldr	r1, .L52+24
 697 0168 21F81320 		strh	r2, [r1, r3, lsl #1]	@ movhi
 822:Service/Srv_IMUSample.c **** 
 823:Service/Srv_IMUSample.c ****         lst_pri_gyr[i] = 0;
 698              		.loc 1 823 9 is_stmt 1 discriminator 3 view .LVU199
 699              		.loc 1 823 24 is_stmt 0 discriminator 3 view .LVU200
 700 016c 0B49     		ldr	r1, .L52+12
 701 016e 21F81320 		strh	r2, [r1, r3, lsl #1]	@ movhi
 824:Service/Srv_IMUSample.c ****         lst_sec_gyr[i] = 0;
 702              		.loc 1 824 9 is_stmt 1 discriminator 3 view .LVU201
 703              		.loc 1 824 24 is_stmt 0 discriminator 3 view .LVU202
 704 0172 0B49     		ldr	r1, .L52+16
 705 0174 21F81320 		strh	r2, [r1, r3, lsl #1]	@ movhi
 818:Service/Srv_IMUSample.c ****     {
 706              		.loc 1 818 35 is_stmt 1 discriminator 3 view .LVU203
 818:Service/Srv_IMUSample.c ****     {
 707              		.loc 1 818 36 is_stmt 0 discriminator 3 view .LVU204
 708 0178 0133     		adds	r3, r3, #1
 709              	.LVL50:
ARM GAS  C:\Users\HUAV\AppData\Local\Temp\ccyiM7Rc.s 			page 29


 818:Service/Srv_IMUSample.c ****     {
 710              		.loc 1 818 36 discriminator 3 view .LVU205
 711 017a DBB2     		uxtb	r3, r3
 712              	.LVL51:
 713              	.L42:
 818:Service/Srv_IMUSample.c ****     {
 714              		.loc 1 818 21 is_stmt 1 discriminator 1 view .LVU206
 818:Service/Srv_IMUSample.c ****     {
 715              		.loc 1 818 5 is_stmt 0 discriminator 1 view .LVU207
 716 017c 022B     		cmp	r3, #2
 717 017e EED9     		bls	.L43
 825:Service/Srv_IMUSample.c ****     }
 826:Service/Srv_IMUSample.c ****             
 827:Service/Srv_IMUSample.c ****     /* reset calib cycle count for next */
 828:Service/Srv_IMUSample.c ****     Gyr_Static_Calib = GYR_STATIC_CALIB_CYCLE;
 718              		.loc 1 828 5 is_stmt 1 view .LVU208
 719              		.loc 1 828 22 is_stmt 0 view .LVU209
 720 0180 054B     		ldr	r3, .L52+8
 721              	.LVL52:
 722              		.loc 1 828 22 view .LVU210
 723 0182 6422     		movs	r2, #100
 724 0184 1A70     		strb	r2, [r3]
 829:Service/Srv_IMUSample.c **** 
 830:Service/Srv_IMUSample.c ****     return state;
 725              		.loc 1 830 5 is_stmt 1 view .LVU211
 726              	.LVL53:
 727              	.L40:
 831:Service/Srv_IMUSample.c **** }
 728              		.loc 1 831 1 is_stmt 0 view .LVU212
 729 0186 04B0     		add	sp, sp, #16
 730              	.LCFI10:
 731              		.cfi_def_cfa_offset 16
 732              		@ sp needed
 733 0188 70BD     		pop	{r4, r5, r6, pc}
 734              	.L53:
 735 018a 00BFAFF3 		.align	3
 735      0080
 736              	.L52:
 737 0190 00000000 		.word	0
 738 0194 00408F40 		.word	1083129856
 739 0198 00000000 		.word	.LANCHOR2
 740 019c 00000000 		.word	.LANCHOR3
 741 01a0 00000000 		.word	.LANCHOR4
 742 01a4 00000000 		.word	.LANCHOR5
 743 01a8 00000000 		.word	.LANCHOR6
 744 01ac 00007A44 		.word	1148846080
 745 01b0 0000C842 		.word	1120403456
 746 01b4 00000000 		.word	.LANCHOR7
 747 01b8 00000000 		.word	.LANCHOR8
 748              		.cfi_endproc
 749              	.LFE156:
 751              		.section	.text.SrvIMU_Get_MaxAngularSpeed_Diff,"ax",%progbits
 752              		.align	1
 753              		.syntax unified
 754              		.thumb
 755              		.thumb_func
 756              		.fpu fpv5-d16
ARM GAS  C:\Users\HUAV\AppData\Local\Temp\ccyiM7Rc.s 			page 30


 758              	SrvIMU_Get_MaxAngularSpeed_Diff:
 759              	.LFB159:
 832:Service/Srv_IMUSample.c **** 
 833:Service/Srv_IMUSample.c **** static bool SrvIMU_Sample(SrvIMU_SampleMode_List mode)
 834:Service/Srv_IMUSample.c **** {
 835:Service/Srv_IMUSample.c ****     static SYSTEM_RunTime PriSample_Rt_Lst = 0;
 836:Service/Srv_IMUSample.c ****     static SYSTEM_RunTime SecSample_Rt_Lst = 0;
 837:Service/Srv_IMUSample.c ****     uint8_t i = Axis_X;
 838:Service/Srv_IMUSample.c ****     bool pri_sample_state = true;
 839:Service/Srv_IMUSample.c ****     bool sec_sample_state = true;
 840:Service/Srv_IMUSample.c ****     IMUModuleScale_TypeDef pri_imu_scale;
 841:Service/Srv_IMUSample.c ****     IMUModuleScale_TypeDef sec_imu_scale;
 842:Service/Srv_IMUSample.c ****     float Sample_MsDiff = 0.0f;
 843:Service/Srv_IMUSample.c ****     bool PriSample_Enable = mode & SrvIMU_Priori_Pri;
 844:Service/Srv_IMUSample.c ****     bool SecSample_Enable = mode & SrvIMU_Priori_Sec;
 845:Service/Srv_IMUSample.c **** 
 846:Service/Srv_IMUSample.c ****     /* don`t use error tree down below it may decrease code efficient */
 847:Service/Srv_IMUSample.c ****     /* trigger error directly when sampling */
 848:Service/Srv_IMUSample.c **** 
 849:Service/Srv_IMUSample.c ****     if(mode > SrvIMU_Both_Sample)
 850:Service/Srv_IMUSample.c ****         return false;
 851:Service/Srv_IMUSample.c **** 
 852:Service/Srv_IMUSample.c ****     /* lock fus data */
 853:Service/Srv_IMUSample.c ****     SrvMpu_Update_Reg.sec.Fus_State = true;
 854:Service/Srv_IMUSample.c **** 
 855:Service/Srv_IMUSample.c ****     /* pri imu init successed */
 856:Service/Srv_IMUSample.c ****     if (SrvMpu_Init_Reg.sec.Pri_State & PriSample_Enable)
 857:Service/Srv_IMUSample.c ****     {
 858:Service/Srv_IMUSample.c ****         pri_imu_scale = InUse_PriIMU_Obj.get_scale(InUse_PriIMU_Obj.obj_ptr);
 859:Service/Srv_IMUSample.c ****         PriIMU_Data.acc_scale = pri_imu_scale.acc_scale;
 860:Service/Srv_IMUSample.c ****         PriIMU_Data.gyr_scale = pri_imu_scale.gyr_scale;
 861:Service/Srv_IMUSample.c **** 
 862:Service/Srv_IMUSample.c ****         /* pri imu module data ready triggered */
 863:Service/Srv_IMUSample.c ****         if (InUse_PriIMU_Obj.get_drdy(InUse_PriIMU_Obj.obj_ptr) && InUse_PriIMU_Obj.sample(InUse_Pr
 864:Service/Srv_IMUSample.c ****         {
 865:Service/Srv_IMUSample.c ****             /* lock */
 866:Service/Srv_IMUSample.c ****             SrvMpu_Update_Reg.sec.Pri_State = true;
 867:Service/Srv_IMUSample.c **** 
 868:Service/Srv_IMUSample.c ****             PriIMU_Data.cycle_cnt++;
 869:Service/Srv_IMUSample.c ****             PriIMU_Data.time_stamp = InUse_PriIMU_Obj.OriData_ptr->time_stamp;
 870:Service/Srv_IMUSample.c **** 
 871:Service/Srv_IMUSample.c ****             /* check Primary IMU module Sample is correct or not */
 872:Service/Srv_IMUSample.c ****             if (PriSample_Rt_Lst)
 873:Service/Srv_IMUSample.c ****             {
 874:Service/Srv_IMUSample.c ****                 if (PriIMU_Data.time_stamp <= PriSample_Rt_Lst)
 875:Service/Srv_IMUSample.c ****                     pri_sample_state = false;
 876:Service/Srv_IMUSample.c ****             }
 877:Service/Srv_IMUSample.c **** 
 878:Service/Srv_IMUSample.c ****             if (pri_sample_state)
 879:Service/Srv_IMUSample.c ****             {
 880:Service/Srv_IMUSample.c ****                 /* update pri imu data */
 881:Service/Srv_IMUSample.c ****                 PriIMU_Data.tempera = InUse_PriIMU_Obj.OriData_ptr->temp_flt;
 882:Service/Srv_IMUSample.c **** 
 883:Service/Srv_IMUSample.c ****                 /* Pri imu data validation check */
 884:Service/Srv_IMUSample.c ****                 PriIMU_Data.error_code = SrvIMU_DataCheck(InUse_PriIMU_Obj.OriData_ptr, InUse_PriIM
 885:Service/Srv_IMUSample.c ****                 Sample_MsDiff = (PriIMU_Data.time_stamp - PriSample_Rt_Lst) / 1000.0f;
 886:Service/Srv_IMUSample.c **** 
ARM GAS  C:\Users\HUAV\AppData\Local\Temp\ccyiM7Rc.s 			page 31


 887:Service/Srv_IMUSample.c ****                 for (i = Axis_X; i < Axis_Sum; i++)
 888:Service/Srv_IMUSample.c ****                 {
 889:Service/Srv_IMUSample.c ****                     PriIMU_Data.org_acc[i] = InUse_PriIMU_Obj.OriData_ptr->acc_flt[i];
 890:Service/Srv_IMUSample.c ****                     PriIMU_Data.org_gyr[i] = InUse_PriIMU_Obj.OriData_ptr->gyr_flt[i] - PriIMU_Gyr_
 891:Service/Srv_IMUSample.c **** 
 892:Service/Srv_IMUSample.c ****                     /* filted imu data */
 893:Service/Srv_IMUSample.c ****                     PriIMU_Data.flt_gyr[i] = Butterworth.update(PriIMU_Gyr_LPF_Handle[i], PriIMU_Da
 894:Service/Srv_IMUSample.c ****                     PriIMU_Data.flt_acc[i] = Butterworth.update(PriIMU_Acc_LPF_Handle[i], PriIMU_Da
 895:Service/Srv_IMUSample.c **** 
 896:Service/Srv_IMUSample.c ****                     /* update last time value */
 897:Service/Srv_IMUSample.c ****                     if ((PriIMU_Data.error_code != SrvIMU_Sample_Data_Acc_OverRange) &&
 898:Service/Srv_IMUSample.c ****                         (PriIMU_Data.error_code != SrvIMU_Sample_Data_Gyr_OverRange))
 899:Service/Srv_IMUSample.c ****                     {
 900:Service/Srv_IMUSample.c ****                         InUse_PriIMU_Obj.OriData_ptr->acc_int_lst[i] = InUse_PriIMU_Obj.OriData_ptr
 901:Service/Srv_IMUSample.c ****                         InUse_PriIMU_Obj.OriData_ptr->gyr_int_lst[i] = InUse_PriIMU_Obj.OriData_ptr
 902:Service/Srv_IMUSample.c ****                     
 903:Service/Srv_IMUSample.c ****                         /* over angular accelerate error detect */
 904:Service/Srv_IMUSample.c ****                         if (SrvIMU_Detect_AngularOverSpeed(PriIMU_Data.org_gyr[i], PriIMU_Data_Lst.
 905:Service/Srv_IMUSample.c ****                             PriIMU_Data.error_code = SrvIMU_Sample_Over_Angular_Accelerate;
 906:Service/Srv_IMUSample.c ****                     }
 907:Service/Srv_IMUSample.c ****                 }
 908:Service/Srv_IMUSample.c **** 
 909:Service/Srv_IMUSample.c ****                 /* unlock */
 910:Service/Srv_IMUSample.c ****                 SrvMpu_Update_Reg.sec.Pri_State = false;
 911:Service/Srv_IMUSample.c ****                 PriIMU_Data_Lst = PriIMU_Data;
 912:Service/Srv_IMUSample.c ****             }
 913:Service/Srv_IMUSample.c ****         }
 914:Service/Srv_IMUSample.c ****         else
 915:Service/Srv_IMUSample.c ****         {
 916:Service/Srv_IMUSample.c ****             SrvIMU_PriSample_Undrdy(NULL, 0);
 917:Service/Srv_IMUSample.c ****             pri_sample_state = false;
 918:Service/Srv_IMUSample.c ****             PriIMU_Data_Lst.error_code = SrvIMU_Sample_Module_UnReady;
 919:Service/Srv_IMUSample.c ****         }
 920:Service/Srv_IMUSample.c **** 
 921:Service/Srv_IMUSample.c ****         PriSample_Rt_Lst = PriIMU_Data.time_stamp;
 922:Service/Srv_IMUSample.c ****     }
 923:Service/Srv_IMUSample.c ****     else
 924:Service/Srv_IMUSample.c ****         pri_sample_state = false;
 925:Service/Srv_IMUSample.c **** 
 926:Service/Srv_IMUSample.c ****     /* sec imu init successed */
 927:Service/Srv_IMUSample.c ****     if (SrvMpu_Init_Reg.sec.Sec_State & SecSample_Enable)
 928:Service/Srv_IMUSample.c ****     {
 929:Service/Srv_IMUSample.c ****         sec_imu_scale = InUse_SecIMU_Obj.get_scale(InUse_SecIMU_Obj.obj_ptr);
 930:Service/Srv_IMUSample.c ****         SecIMU_Data.acc_scale = sec_imu_scale.acc_scale;
 931:Service/Srv_IMUSample.c ****         SecIMU_Data.gyr_scale = sec_imu_scale.gyr_scale;
 932:Service/Srv_IMUSample.c **** 
 933:Service/Srv_IMUSample.c ****         /* sec imu module data ready triggered */
 934:Service/Srv_IMUSample.c ****         if (InUse_SecIMU_Obj.get_drdy(InUse_SecIMU_Obj.obj_ptr) && InUse_SecIMU_Obj.sample(InUse_Se
 935:Service/Srv_IMUSample.c ****         {
 936:Service/Srv_IMUSample.c ****             /* lock */
 937:Service/Srv_IMUSample.c ****             SrvMpu_Update_Reg.sec.Sec_State = true;
 938:Service/Srv_IMUSample.c **** 
 939:Service/Srv_IMUSample.c ****             SecIMU_Data.cycle_cnt++;
 940:Service/Srv_IMUSample.c ****             SecIMU_Data.time_stamp = InUse_SecIMU_Obj.OriData_ptr->time_stamp;
 941:Service/Srv_IMUSample.c **** 
 942:Service/Srv_IMUSample.c ****             /* check Secondry IMU module Sample is correct or not */
 943:Service/Srv_IMUSample.c ****             if (SecSample_Rt_Lst)
ARM GAS  C:\Users\HUAV\AppData\Local\Temp\ccyiM7Rc.s 			page 32


 944:Service/Srv_IMUSample.c ****             {
 945:Service/Srv_IMUSample.c ****                 if (SecIMU_Data.time_stamp <= SecSample_Rt_Lst)
 946:Service/Srv_IMUSample.c ****                     sec_sample_state = false;
 947:Service/Srv_IMUSample.c ****             }
 948:Service/Srv_IMUSample.c **** 
 949:Service/Srv_IMUSample.c ****             if (sec_sample_state)
 950:Service/Srv_IMUSample.c ****             {
 951:Service/Srv_IMUSample.c ****                 /* update sec imu data */
 952:Service/Srv_IMUSample.c ****                 SecIMU_Data.tempera = InUse_SecIMU_Obj.OriData_ptr->temp_flt;
 953:Service/Srv_IMUSample.c **** 
 954:Service/Srv_IMUSample.c ****                 /* Sec imu data validation check */
 955:Service/Srv_IMUSample.c ****                 SecIMU_Data.error_code = SrvIMU_DataCheck(InUse_SecIMU_Obj.OriData_ptr, InUse_SecIM
 956:Service/Srv_IMUSample.c ****                 Sample_MsDiff = (SecIMU_Data.time_stamp - SecSample_Rt_Lst) / 1000.0f;
 957:Service/Srv_IMUSample.c **** 
 958:Service/Srv_IMUSample.c ****                 for (i = Axis_X; i < Axis_Sum; i++)
 959:Service/Srv_IMUSample.c ****                 {
 960:Service/Srv_IMUSample.c ****                     SecIMU_Data.org_acc[i] = InUse_SecIMU_Obj.OriData_ptr->acc_flt[i];
 961:Service/Srv_IMUSample.c ****                     SecIMU_Data.org_gyr[i] = InUse_SecIMU_Obj.OriData_ptr->gyr_flt[i] - SecIMU_Gyr_
 962:Service/Srv_IMUSample.c **** 
 963:Service/Srv_IMUSample.c ****                     SecIMU_Data.flt_gyr[i] = Butterworth.update(SecIMU_Gyr_LPF_Handle[i], SecIMU_Da
 964:Service/Srv_IMUSample.c ****                     SecIMU_Data.flt_acc[i] = Butterworth.update(SecIMU_Acc_LPF_Handle[i], SecIMU_Da
 965:Service/Srv_IMUSample.c **** 
 966:Service/Srv_IMUSample.c ****                     /* update Sec last value */
 967:Service/Srv_IMUSample.c ****                     if ((SecIMU_Data.error_code != SrvIMU_Sample_Data_Acc_OverRange) &&
 968:Service/Srv_IMUSample.c ****                         (SecIMU_Data.error_code != SrvIMU_Sample_Data_Gyr_OverRange))
 969:Service/Srv_IMUSample.c ****                     {
 970:Service/Srv_IMUSample.c ****                         InUse_SecIMU_Obj.OriData_ptr->acc_int_lst[i] = InUse_SecIMU_Obj.OriData_ptr
 971:Service/Srv_IMUSample.c ****                         InUse_SecIMU_Obj.OriData_ptr->gyr_int_lst[i] = InUse_SecIMU_Obj.OriData_ptr
 972:Service/Srv_IMUSample.c ****                     
 973:Service/Srv_IMUSample.c ****                         if (SrvIMU_Detect_AngularOverSpeed(SecIMU_Data.org_gyr[i], SecIMU_Data_Lst.
 974:Service/Srv_IMUSample.c ****                             SecIMU_Data.error_code = SrvIMU_Sample_Over_Angular_Accelerate;
 975:Service/Srv_IMUSample.c ****                     }
 976:Service/Srv_IMUSample.c ****                 }
 977:Service/Srv_IMUSample.c **** 
 978:Service/Srv_IMUSample.c ****                 /* unlock */
 979:Service/Srv_IMUSample.c ****                 SrvMpu_Update_Reg.sec.Sec_State = false;
 980:Service/Srv_IMUSample.c ****                 SecIMU_Data_Lst = SecIMU_Data;
 981:Service/Srv_IMUSample.c ****             }
 982:Service/Srv_IMUSample.c ****         }
 983:Service/Srv_IMUSample.c ****         else
 984:Service/Srv_IMUSample.c ****         {
 985:Service/Srv_IMUSample.c ****             SrvIMU_SecSample_Undrdy(NULL, 0);
 986:Service/Srv_IMUSample.c ****             sec_sample_state = false;
 987:Service/Srv_IMUSample.c ****             SecIMU_Data.error_code = SrvIMU_Sample_Module_UnReady;
 988:Service/Srv_IMUSample.c ****         }
 989:Service/Srv_IMUSample.c **** 
 990:Service/Srv_IMUSample.c ****         SecSample_Rt_Lst = SecIMU_Data.time_stamp;
 991:Service/Srv_IMUSample.c ****     }
 992:Service/Srv_IMUSample.c ****     else
 993:Service/Srv_IMUSample.c ****         sec_sample_state = false;
 994:Service/Srv_IMUSample.c **** 
 995:Service/Srv_IMUSample.c ****     switch(mode)
 996:Service/Srv_IMUSample.c ****     {
 997:Service/Srv_IMUSample.c ****         case SrvIMU_Priori_Pri:
 998:Service/Srv_IMUSample.c ****             IMU_Data = PriIMU_Data;
 999:Service/Srv_IMUSample.c ****         break;
1000:Service/Srv_IMUSample.c **** 
ARM GAS  C:\Users\HUAV\AppData\Local\Temp\ccyiM7Rc.s 			page 33


1001:Service/Srv_IMUSample.c ****         case SrvIMU_Priori_Sec:
1002:Service/Srv_IMUSample.c ****             IMU_Data = SecIMU_Data;
1003:Service/Srv_IMUSample.c ****         break;
1004:Service/Srv_IMUSample.c **** 
1005:Service/Srv_IMUSample.c ****         case SrvIMU_Both_Sample:
1006:Service/Srv_IMUSample.c ****             if((PriIMU_Data.error_code == SrvIMU_Sample_NoError) || 
1007:Service/Srv_IMUSample.c ****                (PriIMU_Data.error_code == SrvIMU_Sample_Data_Acc_Blunt))
1008:Service/Srv_IMUSample.c ****             {
1009:Service/Srv_IMUSample.c ****                 IMU_Data = PriIMU_Data;
1010:Service/Srv_IMUSample.c ****             }
1011:Service/Srv_IMUSample.c ****             else if((SecIMU_Data.error_code == SrvIMU_Sample_NoError) || 
1012:Service/Srv_IMUSample.c ****                     (SecIMU_Data.error_code == SrvIMU_Sample_Data_Acc_Blunt))
1013:Service/Srv_IMUSample.c ****             {
1014:Service/Srv_IMUSample.c ****                 IMU_Data = SecIMU_Data;
1015:Service/Srv_IMUSample.c ****             }
1016:Service/Srv_IMUSample.c ****             else
1017:Service/Srv_IMUSample.c ****             {
1018:Service/Srv_IMUSample.c ****                 IMU_Data = IMU_Data_Lst;
1019:Service/Srv_IMUSample.c ****                 IMU_Data.time_stamp = Get_CurrentRunningUs();
1020:Service/Srv_IMUSample.c ****             }
1021:Service/Srv_IMUSample.c ****         break;
1022:Service/Srv_IMUSample.c **** 
1023:Service/Srv_IMUSample.c ****         default:
1024:Service/Srv_IMUSample.c ****             return false;
1025:Service/Srv_IMUSample.c ****     }
1026:Service/Srv_IMUSample.c **** 
1027:Service/Srv_IMUSample.c ****     /* unlock fus data */
1028:Service/Srv_IMUSample.c ****     SrvMpu_Update_Reg.sec.Fus_State = false;
1029:Service/Srv_IMUSample.c ****     IMU_Data_Lst = IMU_Data;
1030:Service/Srv_IMUSample.c **** 
1031:Service/Srv_IMUSample.c ****     return (pri_sample_state | sec_sample_state);
1032:Service/Srv_IMUSample.c **** }
1033:Service/Srv_IMUSample.c **** 
1034:Service/Srv_IMUSample.c **** static SrvIMU_Data_TypeDef SrvIMU_Get_Data(SrvIMU_Module_Type type)
1035:Service/Srv_IMUSample.c **** {
1036:Service/Srv_IMUSample.c ****     SrvIMU_Data_TypeDef imu_data_tmp;
1037:Service/Srv_IMUSample.c **** 
1038:Service/Srv_IMUSample.c ****     memset(&imu_data_tmp, NULL, IMU_DATA_SIZE);
1039:Service/Srv_IMUSample.c **** 
1040:Service/Srv_IMUSample.c **** reupdate_imu:
1041:Service/Srv_IMUSample.c ****     if (type == SrvIMU_PriModule)
1042:Service/Srv_IMUSample.c ****     {
1043:Service/Srv_IMUSample.c ****         if (!SrvMpu_Update_Reg.sec.Pri_State)
1044:Service/Srv_IMUSample.c ****         {
1045:Service/Srv_IMUSample.c ****             memcpy(&imu_data_tmp, &PriIMU_Data, IMU_DATA_SIZE);
1046:Service/Srv_IMUSample.c ****         }
1047:Service/Srv_IMUSample.c ****         else
1048:Service/Srv_IMUSample.c ****             goto reupdate_imu_statistics;
1049:Service/Srv_IMUSample.c ****     }
1050:Service/Srv_IMUSample.c ****     else if (type == SrvIMU_SecModule)
1051:Service/Srv_IMUSample.c ****     {
1052:Service/Srv_IMUSample.c ****         if (!SrvMpu_Update_Reg.sec.Sec_State)
1053:Service/Srv_IMUSample.c ****         {
1054:Service/Srv_IMUSample.c ****             memcpy(&imu_data_tmp, &SecIMU_Data, IMU_DATA_SIZE);
1055:Service/Srv_IMUSample.c ****         }
1056:Service/Srv_IMUSample.c ****         else
1057:Service/Srv_IMUSample.c ****             goto reupdate_imu_statistics;
ARM GAS  C:\Users\HUAV\AppData\Local\Temp\ccyiM7Rc.s 			page 34


1058:Service/Srv_IMUSample.c ****     }
1059:Service/Srv_IMUSample.c ****     else if(type == SrvIMU_FusModule)
1060:Service/Srv_IMUSample.c ****     {
1061:Service/Srv_IMUSample.c ****         if(!SrvMpu_Update_Reg.sec.Fus_State)
1062:Service/Srv_IMUSample.c ****         {
1063:Service/Srv_IMUSample.c ****             memcpy(&imu_data_tmp, &IMU_Data, IMU_DATA_SIZE);
1064:Service/Srv_IMUSample.c ****         }
1065:Service/Srv_IMUSample.c ****         else
1066:Service/Srv_IMUSample.c ****             goto reupdate_imu_statistics;
1067:Service/Srv_IMUSample.c ****     }
1068:Service/Srv_IMUSample.c **** 
1069:Service/Srv_IMUSample.c ****     return imu_data_tmp;
1070:Service/Srv_IMUSample.c **** 
1071:Service/Srv_IMUSample.c **** reupdate_imu_statistics:
1072:Service/Srv_IMUSample.c ****     SrvIMU_Reupdate_Statistics_CNT ++;
1073:Service/Srv_IMUSample.c ****     goto reupdate_imu;
1074:Service/Srv_IMUSample.c **** }
1075:Service/Srv_IMUSample.c **** 
1076:Service/Srv_IMUSample.c **** static float SrvIMU_Get_MaxAngularSpeed_Diff(void)
1077:Service/Srv_IMUSample.c **** {
 760              		.loc 1 1077 1 is_stmt 1 view -0
 761              		.cfi_startproc
 762              		@ args = 0, pretend = 0, frame = 0
 763              		@ frame_needed = 0, uses_anonymous_args = 0
 764 0000 10B5     		push	{r4, lr}
 765              	.LCFI11:
 766              		.cfi_def_cfa_offset 8
 767              		.cfi_offset 4, -8
 768              		.cfi_offset 14, -4
1078:Service/Srv_IMUSample.c ****     uint16_t pri_angular_diff = 0;
 769              		.loc 1 1078 5 view .LVU214
 770              	.LVL54:
1079:Service/Srv_IMUSample.c ****     uint16_t sec_angular_diff = 0;
 771              		.loc 1 1079 5 view .LVU215
1080:Service/Srv_IMUSample.c **** 
1081:Service/Srv_IMUSample.c ****     if (SrvMpu_Init_Reg.sec.Pri_State)
 772              		.loc 1 1081 5 view .LVU216
 773              		.loc 1 1081 9 is_stmt 0 view .LVU217
 774 0002 234B     		ldr	r3, .L63+8
 775 0004 1B78     		ldrb	r3, [r3]	@ zero_extendqisi2
 776              		.loc 1 1081 8 view .LVU218
 777 0006 13F0030F 		tst	r3, #3
 778 000a 2DD0     		beq	.L59
1082:Service/Srv_IMUSample.c ****     {
1083:Service/Srv_IMUSample.c ****         pri_angular_diff = (uint16_t)(DevMPU6000.get_gyr_angular_speed_diff(&MPU6000Obj) * ANGULAR_
 779              		.loc 1 1083 9 is_stmt 1 view .LVU219
 780              		.loc 1 1083 49 is_stmt 0 view .LVU220
 781 000c 214B     		ldr	r3, .L63+12
 782 000e DB6A     		ldr	r3, [r3, #44]
 783              		.loc 1 1083 39 view .LVU221
 784 0010 2148     		ldr	r0, .L63+16
 785 0012 9847     		blx	r3
 786              	.LVL55:
 787 0014 B7EEC00A 		vcvt.f64.f32	d0, s0
 788              		.loc 1 1083 90 view .LVU222
 789 0018 9FED1B7B 		vldr.64	d7, .L63
 790 001c 20EE070B 		vmul.f64	d0, d0, d7
ARM GAS  C:\Users\HUAV\AppData\Local\Temp\ccyiM7Rc.s 			page 35


 791              		.loc 1 1083 26 view .LVU223
 792 0020 BCEEC00B 		vcvt.u32.f64	s0, d0
 793 0024 10EE103A 		vmov	r3, s0	@ int
 794 0028 9CB2     		uxth	r4, r3
 795              	.LVL56:
 796              	.L55:
1084:Service/Srv_IMUSample.c ****     }
1085:Service/Srv_IMUSample.c **** 
1086:Service/Srv_IMUSample.c ****     if (SrvMpu_Init_Reg.sec.Sec_State)
 797              		.loc 1 1086 5 is_stmt 1 view .LVU224
 798              		.loc 1 1086 9 is_stmt 0 view .LVU225
 799 002a 194B     		ldr	r3, .L63+8
 800 002c 1B78     		ldrb	r3, [r3]	@ zero_extendqisi2
 801              		.loc 1 1086 8 view .LVU226
 802 002e 13F00C0F 		tst	r3, #12
 803 0032 1BD0     		beq	.L60
1087:Service/Srv_IMUSample.c ****     {
1088:Service/Srv_IMUSample.c ****         sec_angular_diff = (uint16_t)(DevICM20602.get_gyr_angular_speed_diff(&ICM20602Obj) * ANGULA
 804              		.loc 1 1088 9 is_stmt 1 view .LVU227
 805              		.loc 1 1088 50 is_stmt 0 view .LVU228
 806 0034 194B     		ldr	r3, .L63+20
 807 0036 DB6A     		ldr	r3, [r3, #44]
 808              		.loc 1 1088 39 view .LVU229
 809 0038 1948     		ldr	r0, .L63+24
 810 003a 9847     		blx	r3
 811              	.LVL57:
 812 003c B7EEC00A 		vcvt.f64.f32	d0, s0
 813              		.loc 1 1088 92 view .LVU230
 814 0040 9FED117B 		vldr.64	d7, .L63
 815 0044 20EE070B 		vmul.f64	d0, d0, d7
 816              		.loc 1 1088 26 view .LVU231
 817 0048 BCEEC00B 		vcvt.u32.f64	s0, d0
 818 004c 10EE103A 		vmov	r3, s0	@ int
 819 0050 9BB2     		uxth	r3, r3
 820              	.LVL58:
 821              	.L56:
1089:Service/Srv_IMUSample.c ****     }
1090:Service/Srv_IMUSample.c **** 
1091:Service/Srv_IMUSample.c ****     if (pri_angular_diff >= sec_angular_diff)
 822              		.loc 1 1091 5 is_stmt 1 view .LVU232
 823              		.loc 1 1091 8 is_stmt 0 view .LVU233
 824 0052 9C42     		cmp	r4, r3
 825 0054 0CD2     		bcs	.L62
1092:Service/Srv_IMUSample.c ****         return pri_angular_diff / (float)ANGULAR_SPEED_ACCURACY;
1093:Service/Srv_IMUSample.c **** 
1094:Service/Srv_IMUSample.c ****     return sec_angular_diff / (float)ANGULAR_SPEED_ACCURACY;
 826              		.loc 1 1094 5 is_stmt 1 view .LVU234
 827              		.loc 1 1094 29 is_stmt 0 view .LVU235
 828 0056 07EE903A 		vmov	s15, r3	@ int
 829 005a F8EEE77A 		vcvt.f32.s32	s15, s15
 830 005e 9FED117A 		vldr.32	s14, .L63+28
 831 0062 87EE870A 		vdiv.f32	s0, s15, s14
 832              	.L54:
1095:Service/Srv_IMUSample.c **** }
 833              		.loc 1 1095 1 view .LVU236
 834 0066 10BD     		pop	{r4, pc}
 835              	.LVL59:
ARM GAS  C:\Users\HUAV\AppData\Local\Temp\ccyiM7Rc.s 			page 36


 836              	.L59:
1078:Service/Srv_IMUSample.c ****     uint16_t sec_angular_diff = 0;
 837              		.loc 1 1078 14 view .LVU237
 838 0068 0024     		movs	r4, #0
 839 006a DEE7     		b	.L55
 840              	.LVL60:
 841              	.L60:
1079:Service/Srv_IMUSample.c **** 
 842              		.loc 1 1079 14 view .LVU238
 843 006c 0023     		movs	r3, #0
 844 006e F0E7     		b	.L56
 845              	.LVL61:
 846              	.L62:
1092:Service/Srv_IMUSample.c **** 
 847              		.loc 1 1092 9 is_stmt 1 view .LVU239
1092:Service/Srv_IMUSample.c **** 
 848              		.loc 1 1092 33 is_stmt 0 view .LVU240
 849 0070 07EE904A 		vmov	s15, r4	@ int
 850 0074 F8EEE77A 		vcvt.f32.s32	s15, s15
 851 0078 9FED0A7A 		vldr.32	s14, .L63+28
 852 007c 87EE870A 		vdiv.f32	s0, s15, s14
 853 0080 F1E7     		b	.L54
 854              	.L64:
 855 0082 00BFAFF3 		.align	3
 855      0080
 856              	.L63:
 857 0088 00000000 		.word	0
 858 008c 00408F40 		.word	1083129856
 859 0090 00000000 		.word	.LANCHOR9
 860 0094 00000000 		.word	DevMPU6000
 861 0098 00000000 		.word	.LANCHOR10
 862 009c 00000000 		.word	DevICM20602
 863 00a0 00000000 		.word	.LANCHOR11
 864 00a4 00007A44 		.word	1148846080
 865              		.cfi_endproc
 866              	.LFE159:
 868              		.section	.text.SrvIMU_Detect_AngularOverSpeed,"ax",%progbits
 869              		.align	1
 870              		.syntax unified
 871              		.thumb
 872              		.thumb_func
 873              		.fpu fpv5-d16
 875              	SrvIMU_Detect_AngularOverSpeed:
 876              	.LVL62:
 877              	.LFB160:
1096:Service/Srv_IMUSample.c **** 
1097:Service/Srv_IMUSample.c **** static bool SrvIMU_Detect_AngularOverSpeed(float angular_speed, float lst_angular_speed, float ms_d
1098:Service/Srv_IMUSample.c **** {
 878              		.loc 1 1098 1 is_stmt 1 view -0
 879              		.cfi_startproc
 880              		@ args = 0, pretend = 0, frame = 0
 881              		@ frame_needed = 0, uses_anonymous_args = 0
 882              		@ link register save eliminated.
1099:Service/Srv_IMUSample.c ****     uint16_t AngularSpeed_Diff = (uint16_t)(fabs(angular_speed - lst_angular_speed) / ms_diff * ANG
 883              		.loc 1 1099 5 view .LVU242
 884              		.loc 1 1099 64 is_stmt 0 view .LVU243
 885 0000 30EE600A 		vsub.f32	s0, s0, s1
ARM GAS  C:\Users\HUAV\AppData\Local\Temp\ccyiM7Rc.s 			page 37


 886              	.LVL63:
 887              		.loc 1 1099 45 view .LVU244
 888 0004 B0EEC00A 		vabs.f32	s0, s0
 889 0008 B7EEC00A 		vcvt.f64.f32	d0, s0
 890              		.loc 1 1099 85 view .LVU245
 891 000c B7EEC11A 		vcvt.f64.f32	d1, s2
 892              	.LVL64:
 893              		.loc 1 1099 85 view .LVU246
 894 0010 80EE017B 		vdiv.f64	d7, d0, d1
 895              		.loc 1 1099 95 view .LVU247
 896 0014 9FED086B 		vldr.64	d6, .L68
 897 0018 27EE067B 		vmul.f64	d7, d7, d6
 898              		.loc 1 1099 14 view .LVU248
 899 001c BCEEC77B 		vcvt.u32.f64	s14, d7
 900 0020 17EE103A 		vmov	r3, s14	@ int
 901 0024 9BB2     		uxth	r3, r3
 902              	.LVL65:
1100:Service/Srv_IMUSample.c **** 
1101:Service/Srv_IMUSample.c ****     if (AngularSpeed_Diff >= (uint16_t)(ANGULAR_ACCECLERATION_THRESHOLD * ANGULAR_SPEED_ACCURACY))
 903              		.loc 1 1101 5 is_stmt 1 view .LVU249
 904              		.loc 1 1101 8 is_stmt 0 view .LVU250
 905 0026 47F22F52 		movw	r2, #29999
 906 002a 9342     		cmp	r3, r2
 907 002c 01D8     		bhi	.L67
1102:Service/Srv_IMUSample.c ****         return true;
1103:Service/Srv_IMUSample.c **** 
1104:Service/Srv_IMUSample.c ****     return false;
 908              		.loc 1 1104 12 view .LVU251
 909 002e 0020     		movs	r0, #0
 910 0030 7047     		bx	lr
 911              	.L67:
1102:Service/Srv_IMUSample.c ****         return true;
 912              		.loc 1 1102 16 view .LVU252
 913 0032 0120     		movs	r0, #1
1105:Service/Srv_IMUSample.c **** }
 914              		.loc 1 1105 1 view .LVU253
 915 0034 7047     		bx	lr
 916              	.L69:
 917 0036 00BF     		.align	3
 918              	.L68:
 919 0038 00000000 		.word	0
 920 003c 00408F40 		.word	1083129856
 921              		.cfi_endproc
 922              	.LFE160:
 924              		.section	.text.SrvIMU_ErrorProc,"ax",%progbits
 925              		.align	1
 926              		.syntax unified
 927              		.thumb
 928              		.thumb_func
 929              		.fpu fpv5-d16
 931              	SrvIMU_ErrorProc:
 932              	.LFB161:
1106:Service/Srv_IMUSample.c **** 
1107:Service/Srv_IMUSample.c **** static void SrvIMU_ErrorProc(void)
1108:Service/Srv_IMUSample.c **** {
 933              		.loc 1 1108 1 is_stmt 1 view -0
 934              		.cfi_startproc
ARM GAS  C:\Users\HUAV\AppData\Local\Temp\ccyiM7Rc.s 			page 38


 935              		@ args = 0, pretend = 0, frame = 0
 936              		@ frame_needed = 0, uses_anonymous_args = 0
 937 0000 08B5     		push	{r3, lr}
 938              	.LCFI12:
 939              		.cfi_def_cfa_offset 8
 940              		.cfi_offset 3, -8
 941              		.cfi_offset 14, -4
1109:Service/Srv_IMUSample.c ****     ErrorLog.proc(SrvMPU_Error_Handle);
 942              		.loc 1 1109 5 view .LVU255
 943              		.loc 1 1109 13 is_stmt 0 view .LVU256
 944 0002 034B     		ldr	r3, .L72
 945 0004 DB68     		ldr	r3, [r3, #12]
 946              		.loc 1 1109 5 view .LVU257
 947 0006 034A     		ldr	r2, .L72+4
 948 0008 1068     		ldr	r0, [r2]
 949 000a 9847     		blx	r3
 950              	.LVL66:
1110:Service/Srv_IMUSample.c **** }
 951              		.loc 1 1110 1 view .LVU258
 952 000c 08BD     		pop	{r3, pc}
 953              	.L73:
 954 000e 00BF     		.align	2
 955              	.L72:
 956 0010 00000000 		.word	ErrorLog
 957 0014 00000000 		.word	.LANCHOR12
 958              		.cfi_endproc
 959              	.LFE161:
 961              		.section	.rodata.SrvIMU_GetSensorType_Str.str1.4,"aMS",%progbits,1
 962              		.align	2
 963              	.LC1:
 964 0000 4E6F6E65 		.ascii	"None\015\012\000"
 964      0D0A00
 965 0007 00       		.align	2
 966              	.LC2:
 967 0008 49434D32 		.ascii	"ICM20602\015\012\000"
 967      30363032 
 967      0D0A00
 968 0013 00       		.align	2
 969              	.LC3:
 970 0014 49434D34 		.ascii	"ICM42688P\015\012\000"
 970      32363838 
 970      500D0A00 
 971              		.align	2
 972              	.LC4:
 973 0020 49434D34 		.ascii	"ICM42605\015\012\000"
 973      32363035 
 973      0D0A00
 974 002b 00       		.align	2
 975              	.LC5:
 976 002c 4D505536 		.ascii	"MPU6000\015\012\000"
 976      3030300D 
 976      0A00
 977              		.section	.text.SrvIMU_GetSensorType_Str,"ax",%progbits
 978              		.align	1
 979              		.syntax unified
 980              		.thumb
 981              		.thumb_func
ARM GAS  C:\Users\HUAV\AppData\Local\Temp\ccyiM7Rc.s 			page 39


 982              		.fpu fpv5-d16
 984              	SrvIMU_GetSensorType_Str:
 985              	.LVL67:
 986              	.LFB163:
1111:Service/Srv_IMUSample.c **** 
1112:Service/Srv_IMUSample.c **** static SrvIMU_SensorID_List SrvIMU_AutoDetect(bus_trans_callback trans, cs_ctl_callback cs_ctl)
1113:Service/Srv_IMUSample.c **** {
1114:Service/Srv_IMUSample.c ****     Runtime_DelayMs(20);
1115:Service/Srv_IMUSample.c **** 
1116:Service/Srv_IMUSample.c ****     if(DevMPU6000.detect(trans, cs_ctl))
1117:Service/Srv_IMUSample.c ****         return SrvIMU_Dev_MPU6000;
1118:Service/Srv_IMUSample.c **** 
1119:Service/Srv_IMUSample.c ****     if(DevICM20602.detect(trans, cs_ctl))
1120:Service/Srv_IMUSample.c ****         return SrvIMU_Dev_ICM20602;
1121:Service/Srv_IMUSample.c **** 
1122:Service/Srv_IMUSample.c ****     switch(DevICM426xx.detect(trans, cs_ctl))
1123:Service/Srv_IMUSample.c ****     {
1124:Service/Srv_IMUSample.c ****         case ICM42605: return SrvIMU_Dev_ICM42605;
1125:Service/Srv_IMUSample.c ****         case ICM42688P: return SrvIMU_Dev_ICM42688P;
1126:Service/Srv_IMUSample.c ****         default: break;
1127:Service/Srv_IMUSample.c ****     }
1128:Service/Srv_IMUSample.c **** 
1129:Service/Srv_IMUSample.c ****     return SrvIMU_Dev_None;
1130:Service/Srv_IMUSample.c **** }
1131:Service/Srv_IMUSample.c **** 
1132:Service/Srv_IMUSample.c **** /************************************************************ general function ********************
1133:Service/Srv_IMUSample.c **** static char* SrvIMU_GetSensorType_Str(SrvIMU_SensorID_List type)
1134:Service/Srv_IMUSample.c **** {
 987              		.loc 1 1134 1 is_stmt 1 view -0
 988              		.cfi_startproc
 989              		@ args = 0, pretend = 0, frame = 0
 990              		@ frame_needed = 0, uses_anonymous_args = 0
 991              		@ link register save eliminated.
1135:Service/Srv_IMUSample.c ****     switch(type)
 992              		.loc 1 1135 5 view .LVU260
 993 0000 0428     		cmp	r0, #4
 994 0002 0CD8     		bhi	.L75
 995 0004 DFE800F0 		tbb	[pc, r0]
 996              	.L77:
 997 0008 03       		.byte	(.L81-.L77)/2
 998 0009 0D       		.byte	(.L82-.L77)/2
 999 000a 05       		.byte	(.L79-.L77)/2
 1000 000b 07       		.byte	(.L78-.L77)/2
 1001 000c 09       		.byte	(.L76-.L77)/2
 1002 000d 00       		.p2align 1
 1003              	.L81:
1136:Service/Srv_IMUSample.c ****     {
1137:Service/Srv_IMUSample.c ****         case SrvIMU_Dev_MPU6000:
1138:Service/Srv_IMUSample.c ****             return "MPU6000\r\n";
1139:Service/Srv_IMUSample.c ****         break;
1140:Service/Srv_IMUSample.c **** 
1141:Service/Srv_IMUSample.c ****         case SrvIMU_Dev_ICM20602:
1142:Service/Srv_IMUSample.c ****             return "ICM20602\r\n";
1143:Service/Srv_IMUSample.c ****         break;
1144:Service/Srv_IMUSample.c **** 
1145:Service/Srv_IMUSample.c ****         case SrvIMU_Dev_ICM42688P:
1146:Service/Srv_IMUSample.c ****             return "ICM42688P\r\n";
ARM GAS  C:\Users\HUAV\AppData\Local\Temp\ccyiM7Rc.s 			page 40


1147:Service/Srv_IMUSample.c ****         break;
1148:Service/Srv_IMUSample.c **** 
1149:Service/Srv_IMUSample.c ****         case SrvIMU_Dev_ICM42605:
1150:Service/Srv_IMUSample.c ****             return "ICM42605\r\n";
1151:Service/Srv_IMUSample.c ****         break;
1152:Service/Srv_IMUSample.c **** 
1153:Service/Srv_IMUSample.c ****         case SrvIMU_Dev_None:
1154:Service/Srv_IMUSample.c ****             return "None\r\n";
 1004              		.loc 1 1154 20 is_stmt 0 view .LVU261
 1005 000e 0648     		ldr	r0, .L83
 1006              	.LVL68:
 1007              		.loc 1 1154 20 view .LVU262
 1008 0010 7047     		bx	lr
 1009              	.LVL69:
 1010              	.L79:
1143:Service/Srv_IMUSample.c **** 
 1011              		.loc 1 1143 9 is_stmt 1 view .LVU263
1146:Service/Srv_IMUSample.c ****         break;
 1012              		.loc 1 1146 13 view .LVU264
1146:Service/Srv_IMUSample.c ****         break;
 1013              		.loc 1 1146 20 is_stmt 0 view .LVU265
 1014 0012 0648     		ldr	r0, .L83+4
 1015              	.LVL70:
1146:Service/Srv_IMUSample.c ****         break;
 1016              		.loc 1 1146 20 view .LVU266
 1017 0014 7047     		bx	lr
 1018              	.LVL71:
 1019              	.L78:
1147:Service/Srv_IMUSample.c **** 
 1020              		.loc 1 1147 9 is_stmt 1 view .LVU267
1150:Service/Srv_IMUSample.c ****         break;
 1021              		.loc 1 1150 13 view .LVU268
1150:Service/Srv_IMUSample.c ****         break;
 1022              		.loc 1 1150 20 is_stmt 0 view .LVU269
 1023 0016 0648     		ldr	r0, .L83+8
 1024              	.LVL72:
1150:Service/Srv_IMUSample.c ****         break;
 1025              		.loc 1 1150 20 view .LVU270
 1026 0018 7047     		bx	lr
 1027              	.LVL73:
 1028              	.L76:
1151:Service/Srv_IMUSample.c **** 
 1029              		.loc 1 1151 9 is_stmt 1 view .LVU271
 1030              		.loc 1 1154 13 view .LVU272
 1031              		.loc 1 1154 20 is_stmt 0 view .LVU273
 1032 001a 0648     		ldr	r0, .L83+12
 1033              	.LVL74:
 1034              		.loc 1 1154 20 view .LVU274
 1035 001c 7047     		bx	lr
 1036              	.LVL75:
 1037              	.L75:
1155:Service/Srv_IMUSample.c ****         break;
 1038              		.loc 1 1155 9 is_stmt 1 view .LVU275
1156:Service/Srv_IMUSample.c **** 
1157:Service/Srv_IMUSample.c ****         default:
1158:Service/Srv_IMUSample.c ****             return "None\r\n";
 1039              		.loc 1 1158 13 view .LVU276
ARM GAS  C:\Users\HUAV\AppData\Local\Temp\ccyiM7Rc.s 			page 41


 1040              		.loc 1 1158 20 is_stmt 0 view .LVU277
 1041 001e 0548     		ldr	r0, .L83+12
 1042              	.LVL76:
 1043              		.loc 1 1158 20 view .LVU278
 1044 0020 7047     		bx	lr
 1045              	.LVL77:
 1046              	.L82:
1142:Service/Srv_IMUSample.c ****         break;
 1047              		.loc 1 1142 20 view .LVU279
 1048 0022 0548     		ldr	r0, .L83+16
 1049              	.LVL78:
1159:Service/Srv_IMUSample.c ****     }
1160:Service/Srv_IMUSample.c **** }
 1050              		.loc 1 1160 1 view .LVU280
 1051 0024 7047     		bx	lr
 1052              	.L84:
 1053 0026 00BF     		.align	2
 1054              	.L83:
 1055 0028 2C000000 		.word	.LC5
 1056 002c 14000000 		.word	.LC3
 1057 0030 20000000 		.word	.LC4
 1058 0034 00000000 		.word	.LC1
 1059 0038 08000000 		.word	.LC2
 1060              		.cfi_endproc
 1061              	.LFE163:
 1063              		.section	.text.SrvIMU_PriIMU_ExtiCallback,"ax",%progbits
 1064              		.align	1
 1065              		.syntax unified
 1066              		.thumb
 1067              		.thumb_func
 1068              		.fpu fpv5-d16
 1070              	SrvIMU_PriIMU_ExtiCallback:
 1071              	.LFB164:
1161:Service/Srv_IMUSample.c **** 
1162:Service/Srv_IMUSample.c **** /************************************************************ DataReady Pin Exti Callback *********
1163:Service/Srv_IMUSample.c **** static void SrvIMU_PriIMU_ExtiCallback(void)
1164:Service/Srv_IMUSample.c **** {
 1072              		.loc 1 1164 1 is_stmt 1 view -0
 1073              		.cfi_startproc
 1074              		@ args = 0, pretend = 0, frame = 0
 1075              		@ frame_needed = 0, uses_anonymous_args = 0
 1076 0000 08B5     		push	{r3, lr}
 1077              	.LCFI13:
 1078              		.cfi_def_cfa_offset 8
 1079              		.cfi_offset 3, -8
 1080              		.cfi_offset 14, -4
1165:Service/Srv_IMUSample.c ****     if (SrvMpu_Init_Reg.sec.Pri_State)
 1081              		.loc 1 1165 5 view .LVU282
 1082              		.loc 1 1165 9 is_stmt 0 view .LVU283
 1083 0002 054B     		ldr	r3, .L88
 1084 0004 1B78     		ldrb	r3, [r3]	@ zero_extendqisi2
 1085              		.loc 1 1165 8 view .LVU284
 1086 0006 13F0030F 		tst	r3, #3
 1087 000a 03D0     		beq	.L85
1166:Service/Srv_IMUSample.c ****         InUse_PriIMU_Obj.set_drdy(InUse_PriIMU_Obj.obj_ptr);
 1088              		.loc 1 1166 9 is_stmt 1 view .LVU285
 1089              		.loc 1 1166 25 is_stmt 0 view .LVU286
ARM GAS  C:\Users\HUAV\AppData\Local\Temp\ccyiM7Rc.s 			page 42


 1090 000c 034B     		ldr	r3, .L88+4
 1091 000e DA69     		ldr	r2, [r3, #28]
 1092              		.loc 1 1166 9 view .LVU287
 1093 0010 5868     		ldr	r0, [r3, #4]
 1094 0012 9047     		blx	r2
 1095              	.LVL79:
 1096              	.L85:
1167:Service/Srv_IMUSample.c **** }
 1097              		.loc 1 1167 1 view .LVU288
 1098 0014 08BD     		pop	{r3, pc}
 1099              	.L89:
 1100 0016 00BF     		.align	2
 1101              	.L88:
 1102 0018 00000000 		.word	.LANCHOR9
 1103 001c 00000000 		.word	.LANCHOR13
 1104              		.cfi_endproc
 1105              	.LFE164:
 1107              		.section	.text.SrvIMU_SecIMU_ExtiCallback,"ax",%progbits
 1108              		.align	1
 1109              		.syntax unified
 1110              		.thumb
 1111              		.thumb_func
 1112              		.fpu fpv5-d16
 1114              	SrvIMU_SecIMU_ExtiCallback:
 1115              	.LFB165:
1168:Service/Srv_IMUSample.c **** 
1169:Service/Srv_IMUSample.c **** static void SrvIMU_SecIMU_ExtiCallback(void)
1170:Service/Srv_IMUSample.c **** {
 1116              		.loc 1 1170 1 is_stmt 1 view -0
 1117              		.cfi_startproc
 1118              		@ args = 0, pretend = 0, frame = 0
 1119              		@ frame_needed = 0, uses_anonymous_args = 0
 1120 0000 08B5     		push	{r3, lr}
 1121              	.LCFI14:
 1122              		.cfi_def_cfa_offset 8
 1123              		.cfi_offset 3, -8
 1124              		.cfi_offset 14, -4
1171:Service/Srv_IMUSample.c ****     if (SrvMpu_Init_Reg.sec.Sec_State)
 1125              		.loc 1 1171 5 view .LVU290
 1126              		.loc 1 1171 9 is_stmt 0 view .LVU291
 1127 0002 054B     		ldr	r3, .L93
 1128 0004 1B78     		ldrb	r3, [r3]	@ zero_extendqisi2
 1129              		.loc 1 1171 8 view .LVU292
 1130 0006 13F00C0F 		tst	r3, #12
 1131 000a 03D0     		beq	.L90
1172:Service/Srv_IMUSample.c ****         InUse_SecIMU_Obj.set_drdy(InUse_SecIMU_Obj.obj_ptr);
 1132              		.loc 1 1172 9 is_stmt 1 view .LVU293
 1133              		.loc 1 1172 25 is_stmt 0 view .LVU294
 1134 000c 034B     		ldr	r3, .L93+4
 1135 000e DA69     		ldr	r2, [r3, #28]
 1136              		.loc 1 1172 9 view .LVU295
 1137 0010 5868     		ldr	r0, [r3, #4]
 1138 0012 9047     		blx	r2
 1139              	.LVL80:
 1140              	.L90:
1173:Service/Srv_IMUSample.c **** }
 1141              		.loc 1 1173 1 view .LVU296
ARM GAS  C:\Users\HUAV\AppData\Local\Temp\ccyiM7Rc.s 			page 43


 1142 0014 08BD     		pop	{r3, pc}
 1143              	.L94:
 1144 0016 00BF     		.align	2
 1145              	.L93:
 1146 0018 00000000 		.word	.LANCHOR9
 1147 001c 00000000 		.word	.LANCHOR14
 1148              		.cfi_endproc
 1149              	.LFE165:
 1151              		.section	.text.SrvIMU_PriDev_Filter_InitError,"ax",%progbits
 1152              		.align	1
 1153              		.syntax unified
 1154              		.thumb
 1155              		.thumb_func
 1156              		.fpu fpv5-d16
 1158              	SrvIMU_PriDev_Filter_InitError:
 1159              	.LVL81:
 1160              	.LFB166:
1174:Service/Srv_IMUSample.c **** 
1175:Service/Srv_IMUSample.c **** /*************************************************************** Error Process Callback ***********
1176:Service/Srv_IMUSample.c **** static void SrvIMU_PriDev_Filter_InitError(int16_t code, uint8_t *p_arg, uint16_t size)
1177:Service/Srv_IMUSample.c **** {
 1161              		.loc 1 1177 1 is_stmt 1 view -0
 1162              		.cfi_startproc
 1163              		@ args = 0, pretend = 0, frame = 0
 1164              		@ frame_needed = 0, uses_anonymous_args = 0
 1165              		@ link register save eliminated.
1178:Service/Srv_IMUSample.c **** 
1179:Service/Srv_IMUSample.c **** }
 1166              		.loc 1 1179 1 view .LVU298
 1167 0000 7047     		bx	lr
 1168              		.cfi_endproc
 1169              	.LFE166:
 1171              		.section	.text.SrvIMU_SecDev_Filter_InitError,"ax",%progbits
 1172              		.align	1
 1173              		.syntax unified
 1174              		.thumb
 1175              		.thumb_func
 1176              		.fpu fpv5-d16
 1178              	SrvIMU_SecDev_Filter_InitError:
 1179              	.LVL82:
 1180              	.LFB167:
1180:Service/Srv_IMUSample.c **** 
1181:Service/Srv_IMUSample.c **** static void SrvIMU_SecDev_Filter_InitError(int16_t code, uint8_t *p_arg, uint16_t size)
1182:Service/Srv_IMUSample.c **** {
 1181              		.loc 1 1182 1 view -0
 1182              		.cfi_startproc
 1183              		@ args = 0, pretend = 0, frame = 0
 1184              		@ frame_needed = 0, uses_anonymous_args = 0
 1185              		@ link register save eliminated.
1183:Service/Srv_IMUSample.c **** 
1184:Service/Srv_IMUSample.c **** }
 1186              		.loc 1 1184 1 view .LVU300
 1187 0000 7047     		bx	lr
 1188              		.cfi_endproc
 1189              	.LFE167:
 1191              		.section	.rodata.SrvIMU_Dev_InitError.str1.4,"aMS",%progbits,1
 1192              		.align	2
ARM GAS  C:\Users\HUAV\AppData\Local\Temp\ccyiM7Rc.s 			page 44


 1193              	.LC6:
 1194 0000 494D5520 		.ascii	"IMU   Type:   %s\000"
 1194      20205479 
 1194      70653A20 
 1194      20202573 
 1194      00
 1195 0011 000000   		.align	2
 1196              	.LC7:
 1197 0014 6572726F 		.ascii	"error code:   %d\015\012\000"
 1197      7220636F 
 1197      64653A20 
 1197      20202564 
 1197      0D0A00
 1198 0027 00       		.align	2
 1199              	.LC8:
 1200 0028 6572726F 		.ascii	"error func:   %s\015\012\000"
 1200      72206675 
 1200      6E633A20 
 1200      20202573 
 1200      0D0A00
 1201 003b 00       		.align	2
 1202              	.LC9:
 1203 003c 6572726F 		.ascii	"error line:   %d\015\012\000"
 1203      72206C69 
 1203      6E653A20 
 1203      20202564 
 1203      0D0A00
 1204 004f 00       		.align	2
 1205              	.LC10:
 1206 0050 6572726F 		.ascii	"error reg:    %02x\015\012\000"
 1206      72207265 
 1206      673A2020 
 1206      20202530 
 1206      32780D0A 
 1207 0065 000000   		.align	2
 1208              	.LC11:
 1209 0068 6572726F 		.ascii	"error reg rx: %02x\015\012\000"
 1209      72207265 
 1209      67207278 
 1209      3A202530 
 1209      32780D0A 
 1210 007d 000000   		.align	2
 1211              	.LC12:
 1212 0080 6572726F 		.ascii	"error reg tx: %02x\015\012\000"
 1212      72207265 
 1212      67207478 
 1212      3A202530 
 1212      32780D0A 
 1213 0095 000000   		.align	2
 1214              	.LC13:
 1215 0098 0D0A00   		.ascii	"\015\012\000"
 1216              		.section	.text.SrvIMU_Dev_InitError,"ax",%progbits
 1217              		.align	1
 1218              		.syntax unified
 1219              		.thumb
 1220              		.thumb_func
 1221              		.fpu fpv5-d16
ARM GAS  C:\Users\HUAV\AppData\Local\Temp\ccyiM7Rc.s 			page 45


 1223              	SrvIMU_Dev_InitError:
 1224              	.LVL83:
 1225              	.LFB168:
1185:Service/Srv_IMUSample.c **** 
1186:Service/Srv_IMUSample.c **** static void SrvIMU_Dev_InitError(int16_t code, uint8_t *p_arg, uint16_t size)
1187:Service/Srv_IMUSample.c **** {
 1226              		.loc 1 1187 1 view -0
 1227              		.cfi_startproc
 1228              		@ args = 0, pretend = 0, frame = 96
 1229              		@ frame_needed = 0, uses_anonymous_args = 0
1188:Service/Srv_IMUSample.c ****     SrvIMU_InuseSensorObj_TypeDef *InUseObj_Ptr = NULL;
 1230              		.loc 1 1188 5 view .LVU302
1189:Service/Srv_IMUSample.c **** 
1190:Service/Srv_IMUSample.c ****     if(p_arg && size)
 1231              		.loc 1 1190 5 view .LVU303
 1232              		.loc 1 1190 7 is_stmt 0 view .LVU304
 1233 0000 0029     		cmp	r1, #0
 1234 0002 18BF     		it	ne
 1235 0004 002A     		cmpne	r2, #0
 1236 0006 44D0     		beq	.L100
1187:Service/Srv_IMUSample.c ****     SrvIMU_InuseSensorObj_TypeDef *InUseObj_Ptr = NULL;
 1237              		.loc 1 1187 1 view .LVU305
 1238 0008 70B5     		push	{r4, r5, r6, lr}
 1239              	.LCFI15:
 1240              		.cfi_def_cfa_offset 16
 1241              		.cfi_offset 4, -16
 1242              		.cfi_offset 5, -12
 1243              		.cfi_offset 6, -8
 1244              		.cfi_offset 14, -4
 1245 000a 98B0     		sub	sp, sp, #96
 1246              	.LCFI16:
 1247              		.cfi_def_cfa_offset 112
 1248 000c 0C46     		mov	r4, r1
1191:Service/Srv_IMUSample.c ****     {
1192:Service/Srv_IMUSample.c ****         InUseObj_Ptr = (SrvIMU_InuseSensorObj_TypeDef *)p_arg;
 1249              		.loc 1 1192 9 is_stmt 1 view .LVU306
 1250              	.LVL84:
1193:Service/Srv_IMUSample.c ****         
1194:Service/Srv_IMUSample.c ****         ErrorLog.add_desc("IMU   Type:   %s", SrvIMU_GetSensorType_Str(InUseObj_Ptr->type));
 1251              		.loc 1 1194 9 view .LVU307
 1252              		.loc 1 1194 17 is_stmt 0 view .LVU308
 1253 000e 214D     		ldr	r5, .L103
 1254 0010 6E69     		ldr	r6, [r5, #20]
 1255              		.loc 1 1194 9 view .LVU309
 1256 0012 0878     		ldrb	r0, [r1]	@ zero_extendqisi2
 1257              	.LVL85:
 1258              		.loc 1 1194 9 view .LVU310
 1259 0014 FFF7FEFF 		bl	SrvIMU_GetSensorType_Str
 1260              	.LVL86:
 1261              		.loc 1 1194 9 view .LVU311
 1262 0018 0146     		mov	r1, r0
 1263 001a 1F48     		ldr	r0, .L103+4
 1264 001c B047     		blx	r6
 1265              	.LVL87:
1195:Service/Srv_IMUSample.c ****         ErrorLog.add_desc("error code:   %d\r\n", InUseObj_Ptr->get_error(InUseObj_Ptr->obj_ptr).co
 1266              		.loc 1 1195 9 is_stmt 1 view .LVU312
 1267              		.loc 1 1195 17 is_stmt 0 view .LVU313
ARM GAS  C:\Users\HUAV\AppData\Local\Temp\ccyiM7Rc.s 			page 46


 1268 001e 6E69     		ldr	r6, [r5, #20]
 1269              		.loc 1 1195 63 view .LVU314
 1270 0020 236A     		ldr	r3, [r4, #32]
 1271              		.loc 1 1195 51 view .LVU315
 1272 0022 6168     		ldr	r1, [r4, #4]
 1273 0024 6846     		mov	r0, sp
 1274 0026 9847     		blx	r3
 1275              	.LVL88:
 1276              		.loc 1 1195 9 view .LVU316
 1277 0028 9DF80010 		ldrb	r1, [sp]	@ zero_extendqisi2
 1278 002c 1B48     		ldr	r0, .L103+8
 1279 002e B047     		blx	r6
 1280              	.LVL89:
1196:Service/Srv_IMUSample.c ****         ErrorLog.add_desc("error func:   %s\r\n", InUseObj_Ptr->get_error(InUseObj_Ptr->obj_ptr).fu
 1281              		.loc 1 1196 9 is_stmt 1 view .LVU317
 1282              		.loc 1 1196 17 is_stmt 0 view .LVU318
 1283 0030 6E69     		ldr	r6, [r5, #20]
 1284              		.loc 1 1196 63 view .LVU319
 1285 0032 236A     		ldr	r3, [r4, #32]
 1286              		.loc 1 1196 51 view .LVU320
 1287 0034 6168     		ldr	r1, [r4, #4]
 1288 0036 04A8     		add	r0, sp, #16
 1289 0038 9847     		blx	r3
 1290              	.LVL90:
 1291              		.loc 1 1196 9 view .LVU321
 1292 003a 0599     		ldr	r1, [sp, #20]
 1293 003c 1848     		ldr	r0, .L103+12
 1294 003e B047     		blx	r6
 1295              	.LVL91:
1197:Service/Srv_IMUSample.c ****         ErrorLog.add_desc("error line:   %d\r\n", InUseObj_Ptr->get_error(InUseObj_Ptr->obj_ptr).li
 1296              		.loc 1 1197 9 is_stmt 1 view .LVU322
 1297              		.loc 1 1197 17 is_stmt 0 view .LVU323
 1298 0040 6E69     		ldr	r6, [r5, #20]
 1299              		.loc 1 1197 63 view .LVU324
 1300 0042 236A     		ldr	r3, [r4, #32]
 1301              		.loc 1 1197 51 view .LVU325
 1302 0044 6168     		ldr	r1, [r4, #4]
 1303 0046 08A8     		add	r0, sp, #32
 1304 0048 9847     		blx	r3
 1305              	.LVL92:
 1306              		.loc 1 1197 9 view .LVU326
 1307 004a BDF82810 		ldrh	r1, [sp, #40]
 1308 004e 1548     		ldr	r0, .L103+16
 1309 0050 B047     		blx	r6
 1310              	.LVL93:
1198:Service/Srv_IMUSample.c ****         ErrorLog.add_desc("error reg:    %02x\r\n", InUseObj_Ptr->get_error(InUseObj_Ptr->obj_ptr).
 1311              		.loc 1 1198 9 is_stmt 1 view .LVU327
 1312              		.loc 1 1198 17 is_stmt 0 view .LVU328
 1313 0052 6E69     		ldr	r6, [r5, #20]
 1314              		.loc 1 1198 65 view .LVU329
 1315 0054 236A     		ldr	r3, [r4, #32]
 1316              		.loc 1 1198 53 view .LVU330
 1317 0056 6168     		ldr	r1, [r4, #4]
 1318 0058 0CA8     		add	r0, sp, #48
 1319 005a 9847     		blx	r3
 1320              	.LVL94:
 1321              		.loc 1 1198 9 view .LVU331
ARM GAS  C:\Users\HUAV\AppData\Local\Temp\ccyiM7Rc.s 			page 47


 1322 005c 9DF83A10 		ldrb	r1, [sp, #58]	@ zero_extendqisi2
 1323 0060 1148     		ldr	r0, .L103+20
 1324 0062 B047     		blx	r6
 1325              	.LVL95:
1199:Service/Srv_IMUSample.c ****         ErrorLog.add_desc("error reg rx: %02x\r\n", InUseObj_Ptr->get_error(InUseObj_Ptr->obj_ptr).
 1326              		.loc 1 1199 9 is_stmt 1 view .LVU332
 1327              		.loc 1 1199 17 is_stmt 0 view .LVU333
 1328 0064 6E69     		ldr	r6, [r5, #20]
 1329              		.loc 1 1199 65 view .LVU334
 1330 0066 236A     		ldr	r3, [r4, #32]
 1331              		.loc 1 1199 53 view .LVU335
 1332 0068 6168     		ldr	r1, [r4, #4]
 1333 006a 10A8     		add	r0, sp, #64
 1334 006c 9847     		blx	r3
 1335              	.LVL96:
 1336              		.loc 1 1199 9 view .LVU336
 1337 006e 9DF84B10 		ldrb	r1, [sp, #75]	@ zero_extendqisi2
 1338 0072 0E48     		ldr	r0, .L103+24
 1339 0074 B047     		blx	r6
 1340              	.LVL97:
1200:Service/Srv_IMUSample.c ****         ErrorLog.add_desc("error reg tx: %02x\r\n", InUseObj_Ptr->get_error(InUseObj_Ptr->obj_ptr).
 1341              		.loc 1 1200 9 is_stmt 1 view .LVU337
 1342              		.loc 1 1200 17 is_stmt 0 view .LVU338
 1343 0076 6E69     		ldr	r6, [r5, #20]
 1344              		.loc 1 1200 65 view .LVU339
 1345 0078 236A     		ldr	r3, [r4, #32]
 1346              		.loc 1 1200 53 view .LVU340
 1347 007a 6168     		ldr	r1, [r4, #4]
 1348 007c 14A8     		add	r0, sp, #80
 1349 007e 9847     		blx	r3
 1350              	.LVL98:
 1351              		.loc 1 1200 9 view .LVU341
 1352 0080 9DF85C10 		ldrb	r1, [sp, #92]	@ zero_extendqisi2
 1353 0084 0A48     		ldr	r0, .L103+28
 1354 0086 B047     		blx	r6
 1355              	.LVL99:
1201:Service/Srv_IMUSample.c **** 
1202:Service/Srv_IMUSample.c ****         ErrorLog.add_desc("\r\n");
 1356              		.loc 1 1202 9 is_stmt 1 view .LVU342
 1357              		.loc 1 1202 17 is_stmt 0 view .LVU343
 1358 0088 6B69     		ldr	r3, [r5, #20]
 1359              		.loc 1 1202 9 view .LVU344
 1360 008a 0A48     		ldr	r0, .L103+32
 1361 008c 9847     		blx	r3
 1362              	.LVL100:
1203:Service/Srv_IMUSample.c ****     }
1204:Service/Srv_IMUSample.c **** }
 1363              		.loc 1 1204 1 view .LVU345
 1364 008e 18B0     		add	sp, sp, #96
 1365              	.LCFI17:
 1366              		.cfi_def_cfa_offset 16
 1367              		@ sp needed
 1368 0090 70BD     		pop	{r4, r5, r6, pc}
 1369              	.LVL101:
 1370              	.L100:
 1371              	.LCFI18:
 1372              		.cfi_def_cfa_offset 0
ARM GAS  C:\Users\HUAV\AppData\Local\Temp\ccyiM7Rc.s 			page 48


 1373              		.cfi_restore 4
 1374              		.cfi_restore 5
 1375              		.cfi_restore 6
 1376              		.cfi_restore 14
 1377              		.loc 1 1204 1 view .LVU346
 1378 0092 7047     		bx	lr
 1379              	.L104:
 1380              		.align	2
 1381              	.L103:
 1382 0094 00000000 		.word	ErrorLog
 1383 0098 00000000 		.word	.LC6
 1384 009c 14000000 		.word	.LC7
 1385 00a0 28000000 		.word	.LC8
 1386 00a4 3C000000 		.word	.LC9
 1387 00a8 50000000 		.word	.LC10
 1388 00ac 68000000 		.word	.LC11
 1389 00b0 80000000 		.word	.LC12
 1390 00b4 98000000 		.word	.LC13
 1391              		.cfi_endproc
 1392              	.LFE168:
 1394              		.section	.text.SrvIMU_AllModule_InitError,"ax",%progbits
 1395              		.align	1
 1396              		.syntax unified
 1397              		.thumb
 1398              		.thumb_func
 1399              		.fpu fpv5-d16
 1401              	SrvIMU_AllModule_InitError:
 1402              	.LVL102:
 1403              	.LFB169:
1205:Service/Srv_IMUSample.c **** 
1206:Service/Srv_IMUSample.c **** static void SrvIMU_AllModule_InitError(int16_t code, uint8_t *p_arg, uint16_t size)
1207:Service/Srv_IMUSample.c **** {
 1404              		.loc 1 1207 1 is_stmt 1 view -0
 1405              		.cfi_startproc
 1406              		@ args = 0, pretend = 0, frame = 0
 1407              		@ frame_needed = 0, uses_anonymous_args = 0
 1408              		@ link register save eliminated.
1208:Service/Srv_IMUSample.c ****     if(p_arg && size)
 1409              		.loc 1 1208 5 view .LVU348
 1410              		.loc 1 1208 7 is_stmt 0 view .LVU349
 1411 0000 0029     		cmp	r1, #0
 1412 0002 18BF     		it	ne
 1413 0004 002A     		cmpne	r2, #0
 1414 0006 02D0     		beq	.L105
1209:Service/Srv_IMUSample.c ****         (*(uint32_t *)p_arg)++;
 1415              		.loc 1 1209 9 is_stmt 1 view .LVU350
 1416              		.loc 1 1209 10 is_stmt 0 view .LVU351
 1417 0008 0A68     		ldr	r2, [r1]
 1418              	.LVL103:
 1419              		.loc 1 1209 29 view .LVU352
 1420 000a 0132     		adds	r2, r2, #1
 1421 000c 0A60     		str	r2, [r1]
 1422              	.L105:
1210:Service/Srv_IMUSample.c **** }
 1423              		.loc 1 1210 1 view .LVU353
 1424 000e 7047     		bx	lr
 1425              		.cfi_endproc
ARM GAS  C:\Users\HUAV\AppData\Local\Temp\ccyiM7Rc.s 			page 49


 1426              	.LFE169:
 1428              		.section	.text.SrvIMU_Get_Data,"ax",%progbits
 1429              		.align	1
 1430              		.syntax unified
 1431              		.thumb
 1432              		.thumb_func
 1433              		.fpu fpv5-d16
 1435              	SrvIMU_Get_Data:
 1436              	.LVL104:
 1437              	.LFB158:
1035:Service/Srv_IMUSample.c ****     SrvIMU_Data_TypeDef imu_data_tmp;
 1438              		.loc 1 1035 1 is_stmt 1 view -0
 1439              		.cfi_startproc
 1440              		@ args = 0, pretend = 0, frame = 80
 1441              		@ frame_needed = 0, uses_anonymous_args = 0
1035:Service/Srv_IMUSample.c ****     SrvIMU_Data_TypeDef imu_data_tmp;
 1442              		.loc 1 1035 1 is_stmt 0 view .LVU355
 1443 0000 30B5     		push	{r4, r5, lr}
 1444              	.LCFI19:
 1445              		.cfi_def_cfa_offset 12
 1446              		.cfi_offset 4, -12
 1447              		.cfi_offset 5, -8
 1448              		.cfi_offset 14, -4
 1449 0002 95B0     		sub	sp, sp, #84
 1450              	.LCFI20:
 1451              		.cfi_def_cfa_offset 96
 1452 0004 0546     		mov	r5, r0
 1453 0006 0C46     		mov	r4, r1
1036:Service/Srv_IMUSample.c **** 
 1454              		.loc 1 1036 5 is_stmt 1 view .LVU356
1038:Service/Srv_IMUSample.c **** 
 1455              		.loc 1 1038 5 view .LVU357
 1456 0008 4F22     		movs	r2, #79
 1457 000a 0021     		movs	r1, #0
 1458              	.LVL105:
1038:Service/Srv_IMUSample.c **** 
 1459              		.loc 1 1038 5 is_stmt 0 view .LVU358
 1460 000c 6846     		mov	r0, sp
 1461              	.LVL106:
1038:Service/Srv_IMUSample.c **** 
 1462              		.loc 1 1038 5 view .LVU359
 1463 000e FFF7FEFF 		bl	memset
 1464              	.LVL107:
 1465 0012 08E0     		b	.L108
 1466              	.L116:
1043:Service/Srv_IMUSample.c ****         {
 1467              		.loc 1 1043 9 is_stmt 1 view .LVU360
1043:Service/Srv_IMUSample.c ****         {
 1468              		.loc 1 1043 13 is_stmt 0 view .LVU361
 1469 0014 184B     		ldr	r3, .L118
 1470 0016 1B78     		ldrb	r3, [r3]	@ zero_extendqisi2
1043:Service/Srv_IMUSample.c ****         {
 1471              		.loc 1 1043 12 view .LVU362
 1472 0018 13F0030F 		tst	r3, #3
 1473 001c 1BD0     		beq	.L115
 1474              	.L110:
1072:Service/Srv_IMUSample.c ****     goto reupdate_imu;
ARM GAS  C:\Users\HUAV\AppData\Local\Temp\ccyiM7Rc.s 			page 50


 1475              		.loc 1 1072 5 is_stmt 1 view .LVU363
1072:Service/Srv_IMUSample.c ****     goto reupdate_imu;
 1476              		.loc 1 1072 36 is_stmt 0 view .LVU364
 1477 001e 174A     		ldr	r2, .L118+4
 1478 0020 1368     		ldr	r3, [r2]
 1479 0022 0133     		adds	r3, r3, #1
 1480 0024 1360     		str	r3, [r2]
1073:Service/Srv_IMUSample.c **** }
 1481              		.loc 1 1073 5 is_stmt 1 view .LVU365
 1482              	.L108:
1041:Service/Srv_IMUSample.c ****     {
 1483              		.loc 1 1041 5 view .LVU366
1041:Service/Srv_IMUSample.c ****     {
 1484              		.loc 1 1041 8 is_stmt 0 view .LVU367
 1485 0026 012C     		cmp	r4, #1
 1486 0028 F4D0     		beq	.L116
1050:Service/Srv_IMUSample.c ****     {
 1487              		.loc 1 1050 10 is_stmt 1 view .LVU368
1050:Service/Srv_IMUSample.c ****     {
 1488              		.loc 1 1050 13 is_stmt 0 view .LVU369
 1489 002a 022C     		cmp	r4, #2
 1490 002c 19D0     		beq	.L117
1059:Service/Srv_IMUSample.c ****     {
 1491              		.loc 1 1059 10 is_stmt 1 view .LVU370
1059:Service/Srv_IMUSample.c ****     {
 1492              		.loc 1 1059 12 is_stmt 0 view .LVU371
 1493 002e 032C     		cmp	r4, #3
 1494 0030 09D1     		bne	.L111
1061:Service/Srv_IMUSample.c ****         {
 1495              		.loc 1 1061 9 is_stmt 1 view .LVU372
1061:Service/Srv_IMUSample.c ****         {
 1496              		.loc 1 1061 12 is_stmt 0 view .LVU373
 1497 0032 114B     		ldr	r3, .L118
 1498 0034 1B78     		ldrb	r3, [r3]	@ zero_extendqisi2
1061:Service/Srv_IMUSample.c ****         {
 1499              		.loc 1 1061 11 view .LVU374
 1500 0036 13F0300F 		tst	r3, #48
 1501 003a F0D1     		bne	.L110
1063:Service/Srv_IMUSample.c ****         }
 1502              		.loc 1 1063 13 is_stmt 1 view .LVU375
 1503 003c 4F22     		movs	r2, #79
 1504 003e 1049     		ldr	r1, .L118+8
 1505 0040 6846     		mov	r0, sp
 1506 0042 FFF7FEFF 		bl	memcpy
 1507              	.LVL108:
 1508              	.L111:
1069:Service/Srv_IMUSample.c **** 
 1509              		.loc 1 1069 5 view .LVU376
1069:Service/Srv_IMUSample.c **** 
 1510              		.loc 1 1069 12 is_stmt 0 view .LVU377
 1511 0046 4F22     		movs	r2, #79
 1512 0048 6946     		mov	r1, sp
 1513 004a 2846     		mov	r0, r5
 1514 004c FFF7FEFF 		bl	memcpy
 1515              	.LVL109:
1074:Service/Srv_IMUSample.c **** 
 1516              		.loc 1 1074 1 view .LVU378
ARM GAS  C:\Users\HUAV\AppData\Local\Temp\ccyiM7Rc.s 			page 51


 1517 0050 2846     		mov	r0, r5
 1518 0052 15B0     		add	sp, sp, #84
 1519              	.LCFI21:
 1520              		.cfi_remember_state
 1521              		.cfi_def_cfa_offset 12
 1522              		@ sp needed
 1523 0054 30BD     		pop	{r4, r5, pc}
 1524              	.LVL110:
 1525              	.L115:
 1526              	.LCFI22:
 1527              		.cfi_restore_state
1045:Service/Srv_IMUSample.c ****         }
 1528              		.loc 1 1045 13 is_stmt 1 view .LVU379
 1529 0056 4F22     		movs	r2, #79
 1530 0058 0A49     		ldr	r1, .L118+12
 1531 005a 6846     		mov	r0, sp
 1532 005c FFF7FEFF 		bl	memcpy
 1533              	.LVL111:
 1534 0060 F1E7     		b	.L111
 1535              	.L117:
1052:Service/Srv_IMUSample.c ****         {
 1536              		.loc 1 1052 9 view .LVU380
1052:Service/Srv_IMUSample.c ****         {
 1537              		.loc 1 1052 13 is_stmt 0 view .LVU381
 1538 0062 054B     		ldr	r3, .L118
 1539 0064 1B78     		ldrb	r3, [r3]	@ zero_extendqisi2
1052:Service/Srv_IMUSample.c ****         {
 1540              		.loc 1 1052 12 view .LVU382
 1541 0066 13F00C0F 		tst	r3, #12
 1542 006a D8D1     		bne	.L110
1054:Service/Srv_IMUSample.c ****         }
 1543              		.loc 1 1054 13 is_stmt 1 view .LVU383
 1544 006c 4F22     		movs	r2, #79
 1545 006e 0649     		ldr	r1, .L118+16
 1546 0070 6846     		mov	r0, sp
 1547 0072 FFF7FEFF 		bl	memcpy
 1548              	.LVL112:
 1549 0076 E6E7     		b	.L111
 1550              	.L119:
 1551              		.align	2
 1552              	.L118:
 1553 0078 00000000 		.word	.LANCHOR15
 1554 007c 00000000 		.word	.LANCHOR19
 1555 0080 00000000 		.word	.LANCHOR18
 1556 0084 00000000 		.word	.LANCHOR16
 1557 0088 00000000 		.word	.LANCHOR17
 1558              		.cfi_endproc
 1559              	.LFE158:
 1561              		.global	__aeabi_ul2f
 1562              		.section	.text.SrvIMU_Sample,"ax",%progbits
 1563              		.align	1
 1564              		.syntax unified
 1565              		.thumb
 1566              		.thumb_func
 1567              		.fpu fpv5-d16
 1569              	SrvIMU_Sample:
 1570              	.LVL113:
ARM GAS  C:\Users\HUAV\AppData\Local\Temp\ccyiM7Rc.s 			page 52


 1571              	.LFB157:
 834:Service/Srv_IMUSample.c ****     static SYSTEM_RunTime PriSample_Rt_Lst = 0;
 1572              		.loc 1 834 1 view -0
 1573              		.cfi_startproc
 1574              		@ args = 0, pretend = 0, frame = 16
 1575              		@ frame_needed = 0, uses_anonymous_args = 0
 834:Service/Srv_IMUSample.c ****     static SYSTEM_RunTime PriSample_Rt_Lst = 0;
 1576              		.loc 1 834 1 is_stmt 0 view .LVU385
 1577 0000 2DE9F047 		push	{r4, r5, r6, r7, r8, r9, r10, lr}
 1578              	.LCFI23:
 1579              		.cfi_def_cfa_offset 32
 1580              		.cfi_offset 4, -32
 1581              		.cfi_offset 5, -28
 1582              		.cfi_offset 6, -24
 1583              		.cfi_offset 7, -20
 1584              		.cfi_offset 8, -16
 1585              		.cfi_offset 9, -12
 1586              		.cfi_offset 10, -8
 1587              		.cfi_offset 14, -4
 1588 0004 2DED028B 		vpush.64	{d8}
 1589              	.LCFI24:
 1590              		.cfi_def_cfa_offset 40
 1591              		.cfi_offset 80, -40
 1592              		.cfi_offset 81, -36
 1593 0008 84B0     		sub	sp, sp, #16
 1594              	.LCFI25:
 1595              		.cfi_def_cfa_offset 56
 835:Service/Srv_IMUSample.c ****     static SYSTEM_RunTime SecSample_Rt_Lst = 0;
 1596              		.loc 1 835 5 is_stmt 1 view .LVU386
 836:Service/Srv_IMUSample.c ****     uint8_t i = Axis_X;
 1597              		.loc 1 836 5 view .LVU387
 837:Service/Srv_IMUSample.c ****     bool pri_sample_state = true;
 1598              		.loc 1 837 5 view .LVU388
 1599              	.LVL114:
 838:Service/Srv_IMUSample.c ****     bool sec_sample_state = true;
 1600              		.loc 1 838 5 view .LVU389
 839:Service/Srv_IMUSample.c ****     IMUModuleScale_TypeDef pri_imu_scale;
 1601              		.loc 1 839 5 view .LVU390
 840:Service/Srv_IMUSample.c ****     IMUModuleScale_TypeDef sec_imu_scale;
 1602              		.loc 1 840 5 view .LVU391
 841:Service/Srv_IMUSample.c ****     float Sample_MsDiff = 0.0f;
 1603              		.loc 1 841 5 view .LVU392
 842:Service/Srv_IMUSample.c ****     bool PriSample_Enable = mode & SrvIMU_Priori_Pri;
 1604              		.loc 1 842 5 view .LVU393
 843:Service/Srv_IMUSample.c ****     bool SecSample_Enable = mode & SrvIMU_Priori_Sec;
 1605              		.loc 1 843 5 view .LVU394
 844:Service/Srv_IMUSample.c **** 
 1606              		.loc 1 844 5 view .LVU395
 844:Service/Srv_IMUSample.c **** 
 1607              		.loc 1 844 10 is_stmt 0 view .LVU396
 1608 000a C0F34007 		ubfx	r7, r0, #1, #1
 1609              	.LVL115:
 849:Service/Srv_IMUSample.c ****         return false;
 1610              		.loc 1 849 5 is_stmt 1 view .LVU397
 849:Service/Srv_IMUSample.c ****         return false;
 1611              		.loc 1 849 7 is_stmt 0 view .LVU398
 1612 000e 0328     		cmp	r0, #3
ARM GAS  C:\Users\HUAV\AppData\Local\Temp\ccyiM7Rc.s 			page 53


 1613 0010 00F23982 		bhi	.L141
 1614 0014 0446     		mov	r4, r0
 1615 0016 00F00101 		and	r1, r0, #1
 853:Service/Srv_IMUSample.c **** 
 1616              		.loc 1 853 5 is_stmt 1 view .LVU399
 853:Service/Srv_IMUSample.c **** 
 1617              		.loc 1 853 37 is_stmt 0 view .LVU400
 1618 001a A24B     		ldr	r3, .L151
 1619 001c 1A78     		ldrb	r2, [r3]	@ zero_extendqisi2
 1620 001e 0120     		movs	r0, #1
 1621              	.LVL116:
 853:Service/Srv_IMUSample.c **** 
 1622              		.loc 1 853 37 view .LVU401
 1623 0020 60F30512 		bfi	r2, r0, #4, #2
 1624 0024 1A70     		strb	r2, [r3]
 856:Service/Srv_IMUSample.c ****     {
 1625              		.loc 1 856 5 is_stmt 1 view .LVU402
 856:Service/Srv_IMUSample.c ****     {
 1626              		.loc 1 856 28 is_stmt 0 view .LVU403
 1627 0026 A04B     		ldr	r3, .L151+4
 1628 0028 1B78     		ldrb	r3, [r3]	@ zero_extendqisi2
 856:Service/Srv_IMUSample.c ****     {
 1629              		.loc 1 856 8 view .LVU404
 1630 002a 0B42     		tst	r3, r1
 1631 002c 00F0DF80 		beq	.L142
 858:Service/Srv_IMUSample.c ****         PriIMU_Data.acc_scale = pri_imu_scale.acc_scale;
 1632              		.loc 1 858 9 is_stmt 1 view .LVU405
 858:Service/Srv_IMUSample.c ****         PriIMU_Data.acc_scale = pri_imu_scale.acc_scale;
 1633              		.loc 1 858 41 is_stmt 0 view .LVU406
 1634 0030 9E4D     		ldr	r5, .L151+8
 1635 0032 AB69     		ldr	r3, [r5, #24]
 858:Service/Srv_IMUSample.c ****         PriIMU_Data.acc_scale = pri_imu_scale.acc_scale;
 1636              		.loc 1 858 25 view .LVU407
 1637 0034 6868     		ldr	r0, [r5, #4]
 1638 0036 9847     		blx	r3
 1639              	.LVL117:
 1640 0038 8DED020A 		vstr.32	s0, [sp, #8]
 1641 003c CDED030A 		vstr.32	s1, [sp, #12]
 859:Service/Srv_IMUSample.c ****         PriIMU_Data.gyr_scale = pri_imu_scale.gyr_scale;
 1642              		.loc 1 859 9 is_stmt 1 view .LVU408
 859:Service/Srv_IMUSample.c ****         PriIMU_Data.gyr_scale = pri_imu_scale.gyr_scale;
 1643              		.loc 1 859 31 is_stmt 0 view .LVU409
 1644 0040 9B4A     		ldr	r2, .L151+12
 1645 0042 10EE103A 		vmov	r3, s0
 1646 0046 C2F84530 		str	r3, [r2, #69]	@ unaligned
 860:Service/Srv_IMUSample.c **** 
 1647              		.loc 1 860 9 is_stmt 1 view .LVU410
 860:Service/Srv_IMUSample.c **** 
 1648              		.loc 1 860 31 is_stmt 0 view .LVU411
 1649 004a 10EE903A 		vmov	r3, s1
 1650 004e C2F84930 		str	r3, [r2, #73]	@ unaligned
 863:Service/Srv_IMUSample.c ****         {
 1651              		.loc 1 863 9 is_stmt 1 view .LVU412
 863:Service/Srv_IMUSample.c ****         {
 1652              		.loc 1 863 29 is_stmt 0 view .LVU413
 1653 0052 2B69     		ldr	r3, [r5, #16]
 863:Service/Srv_IMUSample.c ****         {
ARM GAS  C:\Users\HUAV\AppData\Local\Temp\ccyiM7Rc.s 			page 54


 1654              		.loc 1 863 13 view .LVU414
 1655 0054 6868     		ldr	r0, [r5, #4]
 1656 0056 9847     		blx	r3
 1657              	.LVL118:
 863:Service/Srv_IMUSample.c ****         {
 1658              		.loc 1 863 12 view .LVU415
 1659 0058 0028     		cmp	r0, #0
 1660 005a 00F0BA80 		beq	.L123
 863:Service/Srv_IMUSample.c ****         {
 1661              		.loc 1 863 84 discriminator 1 view .LVU416
 1662 005e 6A69     		ldr	r2, [r5, #20]
 863:Service/Srv_IMUSample.c ****         {
 1663              		.loc 1 863 68 discriminator 1 view .LVU417
 1664 0060 6868     		ldr	r0, [r5, #4]
 1665 0062 9047     		blx	r2
 1666              	.LVL119:
 863:Service/Srv_IMUSample.c ****         {
 1667              		.loc 1 863 65 discriminator 1 view .LVU418
 1668 0064 0546     		mov	r5, r0
 1669 0066 0028     		cmp	r0, #0
 1670 0068 00F0B380 		beq	.L123
 866:Service/Srv_IMUSample.c **** 
 1671              		.loc 1 866 13 is_stmt 1 view .LVU419
 866:Service/Srv_IMUSample.c **** 
 1672              		.loc 1 866 45 is_stmt 0 view .LVU420
 1673 006c 8D4B     		ldr	r3, .L151
 1674 006e 1A78     		ldrb	r2, [r3]	@ zero_extendqisi2
 1675 0070 0121     		movs	r1, #1
 1676 0072 61F30102 		bfi	r2, r1, #0, #2
 1677 0076 1A70     		strb	r2, [r3]
 868:Service/Srv_IMUSample.c ****             PriIMU_Data.time_stamp = InUse_PriIMU_Obj.OriData_ptr->time_stamp;
 1678              		.loc 1 868 13 is_stmt 1 view .LVU421
 868:Service/Srv_IMUSample.c ****             PriIMU_Data.time_stamp = InUse_PriIMU_Obj.OriData_ptr->time_stamp;
 1679              		.loc 1 868 24 is_stmt 0 view .LVU422
 1680 0078 8D4B     		ldr	r3, .L151+12
 1681 007a 9A68     		ldr	r2, [r3, #8]
 868:Service/Srv_IMUSample.c ****             PriIMU_Data.time_stamp = InUse_PriIMU_Obj.OriData_ptr->time_stamp;
 1682              		.loc 1 868 34 view .LVU423
 1683 007c 0A44     		add	r2, r2, r1
 1684 007e 9A60     		str	r2, [r3, #8]
 869:Service/Srv_IMUSample.c **** 
 1685              		.loc 1 869 13 is_stmt 1 view .LVU424
 869:Service/Srv_IMUSample.c **** 
 1686              		.loc 1 869 54 is_stmt 0 view .LVU425
 1687 0080 8A4A     		ldr	r2, .L151+8
 1688 0082 9068     		ldr	r0, [r2, #8]
 869:Service/Srv_IMUSample.c **** 
 1689              		.loc 1 869 66 view .LVU426
 1690 0084 0168     		ldr	r1, [r0]	@ unaligned
 1691 0086 4268     		ldr	r2, [r0, #4]	@ unaligned
 869:Service/Srv_IMUSample.c **** 
 1692              		.loc 1 869 36 view .LVU427
 1693 0088 1960     		str	r1, [r3]
 1694 008a 5A60     		str	r2, [r3, #4]
 872:Service/Srv_IMUSample.c ****             {
 1695              		.loc 1 872 13 is_stmt 1 view .LVU428
 872:Service/Srv_IMUSample.c ****             {
ARM GAS  C:\Users\HUAV\AppData\Local\Temp\ccyiM7Rc.s 			page 55


 1696              		.loc 1 872 17 is_stmt 0 view .LVU429
 1697 008c 894B     		ldr	r3, .L151+16
 1698 008e 1E68     		ldr	r6, [r3]
 1699 0090 5B68     		ldr	r3, [r3, #4]
 872:Service/Srv_IMUSample.c ****             {
 1700              		.loc 1 872 16 view .LVU430
 1701 0092 56EA030C 		orrs	ip, r6, r3
 1702 0096 03D0     		beq	.L124
 874:Service/Srv_IMUSample.c ****                     pri_sample_state = false;
 1703              		.loc 1 874 17 is_stmt 1 view .LVU431
 874:Service/Srv_IMUSample.c ****                     pri_sample_state = false;
 1704              		.loc 1 874 20 is_stmt 0 view .LVU432
 1705 0098 8E42     		cmp	r6, r1
 1706 009a 9341     		sbcs	r3, r3, r2
 1707 009c 80F0A580 		bcs	.L143
 1708              	.L124:
 1709              	.LVL120:
 881:Service/Srv_IMUSample.c **** 
 1710              		.loc 1 881 17 is_stmt 1 view .LVU433
 881:Service/Srv_IMUSample.c **** 
 1711              		.loc 1 881 67 is_stmt 0 view .LVU434
 1712 00a0 D0F81E30 		ldr	r3, [r0, #30]	@ unaligned
 881:Service/Srv_IMUSample.c **** 
 1713              		.loc 1 881 37 view .LVU435
 1714 00a4 824E     		ldr	r6, .L151+12
 1715 00a6 F360     		str	r3, [r6, #12]	@ float
 884:Service/Srv_IMUSample.c ****                 Sample_MsDiff = (PriIMU_Data.time_stamp - PriSample_Rt_Lst) / 1000.0f;
 1716              		.loc 1 884 17 is_stmt 1 view .LVU436
 884:Service/Srv_IMUSample.c ****                 Sample_MsDiff = (PriIMU_Data.time_stamp - PriSample_Rt_Lst) / 1000.0f;
 1717              		.loc 1 884 42 is_stmt 0 view .LVU437
 1718 00a8 804B     		ldr	r3, .L151+8
 1719 00aa DA89     		ldrh	r2, [r3, #14]
 1720 00ac 197B     		ldrb	r1, [r3, #12]	@ zero_extendqisi2
 1721 00ae FFF7FEFF 		bl	SrvIMU_DataCheck
 1722              	.LVL121:
 884:Service/Srv_IMUSample.c ****                 Sample_MsDiff = (PriIMU_Data.time_stamp - PriSample_Rt_Lst) / 1000.0f;
 1723              		.loc 1 884 40 view .LVU438
 1724 00b2 86F84400 		strb	r0, [r6, #68]
 885:Service/Srv_IMUSample.c **** 
 1725              		.loc 1 885 17 is_stmt 1 view .LVU439
 885:Service/Srv_IMUSample.c **** 
 1726              		.loc 1 885 45 is_stmt 0 view .LVU440
 1727 00b6 3068     		ldr	r0, [r6]
 1728 00b8 7168     		ldr	r1, [r6, #4]
 885:Service/Srv_IMUSample.c **** 
 1729              		.loc 1 885 57 view .LVU441
 1730 00ba 7E4A     		ldr	r2, .L151+16
 1731 00bc 1368     		ldr	r3, [r2]
 1732 00be 5268     		ldr	r2, [r2, #4]
 1733 00c0 C01A     		subs	r0, r0, r3
 885:Service/Srv_IMUSample.c **** 
 1734              		.loc 1 885 77 view .LVU442
 1735 00c2 61EB0201 		sbc	r1, r1, r2
 1736 00c6 FFF7FEFF 		bl	__aeabi_ul2f
 1737              	.LVL122:
 1738 00ca 07EE100A 		vmov	s14, r0
 885:Service/Srv_IMUSample.c **** 
ARM GAS  C:\Users\HUAV\AppData\Local\Temp\ccyiM7Rc.s 			page 56


 1739              		.loc 1 885 31 view .LVU443
 1740 00ce DFED7A7A 		vldr.32	s15, .L151+20
 1741 00d2 87EE278A 		vdiv.f32	s16, s14, s15
 1742              	.LVL123:
 887:Service/Srv_IMUSample.c ****                 {
 1743              		.loc 1 887 17 is_stmt 1 view .LVU444
 887:Service/Srv_IMUSample.c ****                 {
 1744              		.loc 1 887 24 is_stmt 0 view .LVU445
 1745 00d6 0026     		movs	r6, #0
 887:Service/Srv_IMUSample.c ****                 {
 1746              		.loc 1 887 17 view .LVU446
 1747 00d8 01E0     		b	.L126
 1748              	.LVL124:
 1749              	.L127:
 887:Service/Srv_IMUSample.c ****                 {
 1750              		.loc 1 887 48 is_stmt 1 discriminator 2 view .LVU447
 887:Service/Srv_IMUSample.c ****                 {
 1751              		.loc 1 887 49 is_stmt 0 discriminator 2 view .LVU448
 1752 00da 0136     		adds	r6, r6, #1
 1753              	.LVL125:
 887:Service/Srv_IMUSample.c ****                 {
 1754              		.loc 1 887 49 discriminator 2 view .LVU449
 1755 00dc F6B2     		uxtb	r6, r6
 1756              	.LVL126:
 1757              	.L126:
 887:Service/Srv_IMUSample.c ****                 {
 1758              		.loc 1 887 34 is_stmt 1 discriminator 1 view .LVU450
 887:Service/Srv_IMUSample.c ****                 {
 1759              		.loc 1 887 17 is_stmt 0 discriminator 1 view .LVU451
 1760 00de 022E     		cmp	r6, #2
 1761 00e0 6CD8     		bhi	.L148
 889:Service/Srv_IMUSample.c ****                     PriIMU_Data.org_gyr[i] = InUse_PriIMU_Obj.OriData_ptr->gyr_flt[i] - PriIMU_Gyr_
 1762              		.loc 1 889 21 is_stmt 1 view .LVU452
 889:Service/Srv_IMUSample.c ****                     PriIMU_Data.org_gyr[i] = InUse_PriIMU_Obj.OriData_ptr->gyr_flt[i] - PriIMU_Gyr_
 1763              		.loc 1 889 62 is_stmt 0 view .LVU453
 1764 00e2 724B     		ldr	r3, .L151+8
 1765 00e4 9A68     		ldr	r2, [r3, #8]
 889:Service/Srv_IMUSample.c ****                     PriIMU_Data.org_gyr[i] = InUse_PriIMU_Obj.OriData_ptr->gyr_flt[i] - PriIMU_Gyr_
 1766              		.loc 1 889 83 view .LVU454
 1767 00e6 06F10A03 		add	r3, r6, #10
 1768 00ea 02EB8301 		add	r1, r2, r3, lsl #2
 1769 00ee D1F80610 		ldr	r1, [r1, #6]	@ unaligned
 889:Service/Srv_IMUSample.c ****                     PriIMU_Data.org_gyr[i] = InUse_PriIMU_Obj.OriData_ptr->gyr_flt[i] - PriIMU_Gyr_
 1770              		.loc 1 889 44 view .LVU455
 1771 00f2 DFF8BC81 		ldr	r8, .L151+12
 1772 00f6 06F10C09 		add	r9, r6, #12
 1773 00fa 08EB8909 		add	r9, r8, r9, lsl #2
 1774 00fe C9F80410 		str	r1, [r9, #4]	@ float
 890:Service/Srv_IMUSample.c **** 
 1775              		.loc 1 890 21 is_stmt 1 view .LVU456
 890:Service/Srv_IMUSample.c **** 
 1776              		.loc 1 890 83 is_stmt 0 view .LVU457
 1777 0102 06F10801 		add	r1, r6, #8
 1778 0106 02EB8102 		add	r2, r2, r1, lsl #2
 1779 010a D2F80220 		ldr	r2, [r2, #2]	@ unaligned
 1780 010e 00EE102A 		vmov	s0, r2	@ int
 890:Service/Srv_IMUSample.c **** 
ARM GAS  C:\Users\HUAV\AppData\Local\Temp\ccyiM7Rc.s 			page 57


 1781              		.loc 1 890 110 view .LVU458
 1782 0112 6A4A     		ldr	r2, .L151+24
 1783 0114 02EB8602 		add	r2, r2, r6, lsl #2
 1784 0118 D2ED007A 		vldr.32	s15, [r2]
 890:Service/Srv_IMUSample.c **** 
 1785              		.loc 1 890 87 view .LVU459
 1786 011c 30EE670A 		vsub.f32	s0, s0, s15
 890:Service/Srv_IMUSample.c **** 
 1787              		.loc 1 890 44 view .LVU460
 1788 0120 08EB8303 		add	r3, r8, r3, lsl #2
 1789 0124 83ED000A 		vstr.32	s0, [r3]
 893:Service/Srv_IMUSample.c ****                     PriIMU_Data.flt_acc[i] = Butterworth.update(PriIMU_Acc_LPF_Handle[i], PriIMU_Da
 1790              		.loc 1 893 21 is_stmt 1 view .LVU461
 893:Service/Srv_IMUSample.c ****                     PriIMU_Data.flt_acc[i] = Butterworth.update(PriIMU_Acc_LPF_Handle[i], PriIMU_Da
 1791              		.loc 1 893 57 is_stmt 0 view .LVU462
 1792 0128 DFF8ACA1 		ldr	r10, .L151+52
 1793 012c DAF80430 		ldr	r3, [r10, #4]
 893:Service/Srv_IMUSample.c ****                     PriIMU_Data.flt_acc[i] = Butterworth.update(PriIMU_Acc_LPF_Handle[i], PriIMU_Da
 1794              		.loc 1 893 46 view .LVU463
 1795 0130 634A     		ldr	r2, .L151+28
 1796 0132 52F82600 		ldr	r0, [r2, r6, lsl #2]
 1797 0136 9847     		blx	r3
 1798              	.LVL127:
 893:Service/Srv_IMUSample.c ****                     PriIMU_Data.flt_acc[i] = Butterworth.update(PriIMU_Acc_LPF_Handle[i], PriIMU_Da
 1799              		.loc 1 893 44 view .LVU464
 1800 0138 331D     		adds	r3, r6, #4
 1801 013a 08EB8303 		add	r3, r8, r3, lsl #2
 1802 013e 83ED000A 		vstr.32	s0, [r3]
 894:Service/Srv_IMUSample.c **** 
 1803              		.loc 1 894 21 is_stmt 1 view .LVU465
 894:Service/Srv_IMUSample.c **** 
 1804              		.loc 1 894 57 is_stmt 0 view .LVU466
 1805 0142 DAF80430 		ldr	r3, [r10, #4]
 894:Service/Srv_IMUSample.c **** 
 1806              		.loc 1 894 46 view .LVU467
 1807 0146 99ED010A 		vldr.32	s0, [r9, #4]
 1808 014a 5E4A     		ldr	r2, .L151+32
 1809 014c 52F82600 		ldr	r0, [r2, r6, lsl #2]
 1810 0150 9847     		blx	r3
 1811              	.LVL128:
 894:Service/Srv_IMUSample.c **** 
 1812              		.loc 1 894 44 view .LVU468
 1813 0152 B31D     		adds	r3, r6, #6
 1814 0154 08EB8303 		add	r3, r8, r3, lsl #2
 1815 0158 83ED010A 		vstr.32	s0, [r3, #4]
 897:Service/Srv_IMUSample.c ****                         (PriIMU_Data.error_code != SrvIMU_Sample_Data_Gyr_OverRange))
 1816              		.loc 1 897 21 is_stmt 1 view .LVU469
 897:Service/Srv_IMUSample.c ****                         (PriIMU_Data.error_code != SrvIMU_Sample_Data_Gyr_OverRange))
 1817              		.loc 1 897 37 is_stmt 0 view .LVU470
 1818 015c 98F84430 		ldrb	r3, [r8, #68]	@ zero_extendqisi2
 897:Service/Srv_IMUSample.c ****                         (PriIMU_Data.error_code != SrvIMU_Sample_Data_Gyr_OverRange))
 1819              		.loc 1 897 86 view .LVU471
 1820 0160 043B     		subs	r3, r3, #4
 1821 0162 DBB2     		uxtb	r3, r3
 897:Service/Srv_IMUSample.c ****                         (PriIMU_Data.error_code != SrvIMU_Sample_Data_Gyr_OverRange))
 1822              		.loc 1 897 24 view .LVU472
 1823 0164 012B     		cmp	r3, #1
ARM GAS  C:\Users\HUAV\AppData\Local\Temp\ccyiM7Rc.s 			page 58


 1824 0166 B8D9     		bls	.L127
 900:Service/Srv_IMUSample.c ****                         InUse_PriIMU_Obj.OriData_ptr->gyr_int_lst[i] = InUse_PriIMU_Obj.OriData_ptr
 1825              		.loc 1 900 25 is_stmt 1 view .LVU473
 900:Service/Srv_IMUSample.c ****                         InUse_PriIMU_Obj.OriData_ptr->gyr_int_lst[i] = InUse_PriIMU_Obj.OriData_ptr
 1826              		.loc 1 900 88 is_stmt 0 view .LVU474
 1827 0168 504B     		ldr	r3, .L151+8
 1828 016a 9B68     		ldr	r3, [r3, #8]
 900:Service/Srv_IMUSample.c ****                         InUse_PriIMU_Obj.OriData_ptr->gyr_int_lst[i] = InUse_PriIMU_Obj.OriData_ptr
 1829              		.loc 1 900 109 view .LVU475
 1830 016c 06F10C02 		add	r2, r6, #12
 1831 0170 33F91210 		ldrsh	r1, [r3, r2, lsl #1]	@ unaligned
 900:Service/Srv_IMUSample.c ****                         InUse_PriIMU_Obj.OriData_ptr->gyr_int_lst[i] = InUse_PriIMU_Obj.OriData_ptr
 1832              		.loc 1 900 70 view .LVU476
 1833 0174 06F12002 		add	r2, r6, #32
 1834 0178 23F81210 		strh	r1, [r3, r2, lsl #1]	@ unaligned
 901:Service/Srv_IMUSample.c ****                     
 1835              		.loc 1 901 25 is_stmt 1 view .LVU477
 901:Service/Srv_IMUSample.c ****                     
 1836              		.loc 1 901 109 is_stmt 0 view .LVU478
 1837 017c 06F10802 		add	r2, r6, #8
 1838 0180 03EB4202 		add	r2, r3, r2, lsl #1
 1839 0184 B2F90220 		ldrsh	r2, [r2, #2]	@ unaligned
 901:Service/Srv_IMUSample.c ****                     
 1840              		.loc 1 901 70 view .LVU479
 1841 0188 06F11C01 		add	r1, r6, #28
 1842 018c 03EB4103 		add	r3, r3, r1, lsl #1
 1843 0190 5A80     		strh	r2, [r3, #2]	@ unaligned
 904:Service/Srv_IMUSample.c ****                             PriIMU_Data.error_code = SrvIMU_Sample_Over_Angular_Accelerate;
 1844              		.loc 1 904 25 is_stmt 1 view .LVU480
 904:Service/Srv_IMUSample.c ****                             PriIMU_Data.error_code = SrvIMU_Sample_Over_Angular_Accelerate;
 1845              		.loc 1 904 29 is_stmt 0 view .LVU481
 1846 0192 06F10A03 		add	r3, r6, #10
 1847 0196 4C49     		ldr	r1, .L151+36
 1848 0198 01EB8301 		add	r1, r1, r3, lsl #2
 1849 019c 08EB8303 		add	r3, r8, r3, lsl #2
 1850 01a0 B0EE481A 		vmov.f32	s2, s16
 1851 01a4 D1ED000A 		vldr.32	s1, [r1]
 1852 01a8 93ED000A 		vldr.32	s0, [r3]
 1853 01ac FFF7FEFF 		bl	SrvIMU_Detect_AngularOverSpeed
 1854              	.LVL129:
 904:Service/Srv_IMUSample.c ****                             PriIMU_Data.error_code = SrvIMU_Sample_Over_Angular_Accelerate;
 1855              		.loc 1 904 28 view .LVU482
 1856 01b0 0028     		cmp	r0, #0
 1857 01b2 92D0     		beq	.L127
 905:Service/Srv_IMUSample.c ****                     }
 1858              		.loc 1 905 29 is_stmt 1 view .LVU483
 905:Service/Srv_IMUSample.c ****                     }
 1859              		.loc 1 905 52 is_stmt 0 view .LVU484
 1860 01b4 0622     		movs	r2, #6
 1861 01b6 88F84420 		strb	r2, [r8, #68]
 1862 01ba 8EE7     		b	.L127
 1863              	.L148:
 910:Service/Srv_IMUSample.c ****                 PriIMU_Data_Lst = PriIMU_Data;
 1864              		.loc 1 910 17 is_stmt 1 view .LVU485
 910:Service/Srv_IMUSample.c ****                 PriIMU_Data_Lst = PriIMU_Data;
 1865              		.loc 1 910 49 is_stmt 0 view .LVU486
 1866 01bc 394B     		ldr	r3, .L151
ARM GAS  C:\Users\HUAV\AppData\Local\Temp\ccyiM7Rc.s 			page 59


 1867 01be 1A78     		ldrb	r2, [r3]	@ zero_extendqisi2
 1868 01c0 6FF30102 		bfc	r2, #0, #2
 1869 01c4 1A70     		strb	r2, [r3]
 911:Service/Srv_IMUSample.c ****             }
 1870              		.loc 1 911 17 is_stmt 1 view .LVU487
 911:Service/Srv_IMUSample.c ****             }
 1871              		.loc 1 911 33 is_stmt 0 view .LVU488
 1872 01c6 4F22     		movs	r2, #79
 1873 01c8 3949     		ldr	r1, .L151+12
 1874 01ca 3F48     		ldr	r0, .L151+36
 1875 01cc FFF7FEFF 		bl	memcpy
 1876              	.LVL130:
 1877 01d0 04E0     		b	.L125
 1878              	.LVL131:
 1879              	.L123:
 916:Service/Srv_IMUSample.c ****             pri_sample_state = false;
 1880              		.loc 1 916 13 is_stmt 1 view .LVU489
 917:Service/Srv_IMUSample.c ****             PriIMU_Data_Lst.error_code = SrvIMU_Sample_Module_UnReady;
 1881              		.loc 1 917 13 view .LVU490
 918:Service/Srv_IMUSample.c ****         }
 1882              		.loc 1 918 13 view .LVU491
 918:Service/Srv_IMUSample.c ****         }
 1883              		.loc 1 918 40 is_stmt 0 view .LVU492
 1884 01d2 3D4B     		ldr	r3, .L151+36
 1885 01d4 0122     		movs	r2, #1
 1886 01d6 83F84420 		strb	r2, [r3, #68]
 917:Service/Srv_IMUSample.c ****             PriIMU_Data_Lst.error_code = SrvIMU_Sample_Module_UnReady;
 1887              		.loc 1 917 30 view .LVU493
 1888 01da 0025     		movs	r5, #0
 1889              	.LVL132:
 1890              	.L125:
 921:Service/Srv_IMUSample.c ****     }
 1891              		.loc 1 921 9 is_stmt 1 view .LVU494
 921:Service/Srv_IMUSample.c ****     }
 1892              		.loc 1 921 39 is_stmt 0 view .LVU495
 1893 01dc 344B     		ldr	r3, .L151+12
 1894 01de 1968     		ldr	r1, [r3]
 1895 01e0 5A68     		ldr	r2, [r3, #4]
 921:Service/Srv_IMUSample.c ****     }
 1896              		.loc 1 921 26 view .LVU496
 1897 01e2 344B     		ldr	r3, .L151+16
 1898 01e4 1960     		str	r1, [r3]
 1899 01e6 5A60     		str	r2, [r3, #4]
 1900 01e8 02E0     		b	.L122
 1901              	.LVL133:
 1902              	.L143:
 875:Service/Srv_IMUSample.c ****             }
 1903              		.loc 1 875 38 view .LVU497
 1904 01ea 0025     		movs	r5, #0
 1905 01ec F6E7     		b	.L125
 1906              	.L142:
 924:Service/Srv_IMUSample.c **** 
 1907              		.loc 1 924 26 view .LVU498
 1908 01ee 0025     		movs	r5, #0
 1909              	.LVL134:
 1910              	.L122:
 927:Service/Srv_IMUSample.c ****     {
ARM GAS  C:\Users\HUAV\AppData\Local\Temp\ccyiM7Rc.s 			page 60


 1911              		.loc 1 927 5 is_stmt 1 view .LVU499
 927:Service/Srv_IMUSample.c ****     {
 1912              		.loc 1 927 28 is_stmt 0 view .LVU500
 1913 01f0 2D4B     		ldr	r3, .L151+4
 1914 01f2 1B78     		ldrb	r3, [r3]	@ zero_extendqisi2
 927:Service/Srv_IMUSample.c ****     {
 1915              		.loc 1 927 8 view .LVU501
 1916 01f4 17EA9303 		ands	r3, r7, r3, lsr #2
 1917 01f8 00F0FA80 		beq	.L144
 929:Service/Srv_IMUSample.c ****         SecIMU_Data.acc_scale = sec_imu_scale.acc_scale;
 1918              		.loc 1 929 9 is_stmt 1 view .LVU502
 929:Service/Srv_IMUSample.c ****         SecIMU_Data.acc_scale = sec_imu_scale.acc_scale;
 1919              		.loc 1 929 41 is_stmt 0 view .LVU503
 1920 01fc 334E     		ldr	r6, .L151+40
 1921 01fe B369     		ldr	r3, [r6, #24]
 929:Service/Srv_IMUSample.c ****         SecIMU_Data.acc_scale = sec_imu_scale.acc_scale;
 1922              		.loc 1 929 25 view .LVU504
 1923 0200 7068     		ldr	r0, [r6, #4]
 1924 0202 9847     		blx	r3
 1925              	.LVL135:
 1926 0204 8DED000A 		vstr.32	s0, [sp]
 1927 0208 CDED010A 		vstr.32	s1, [sp, #4]
 930:Service/Srv_IMUSample.c ****         SecIMU_Data.gyr_scale = sec_imu_scale.gyr_scale;
 1928              		.loc 1 930 9 is_stmt 1 view .LVU505
 930:Service/Srv_IMUSample.c ****         SecIMU_Data.gyr_scale = sec_imu_scale.gyr_scale;
 1929              		.loc 1 930 31 is_stmt 0 view .LVU506
 1930 020c 304A     		ldr	r2, .L151+44
 1931 020e 10EE103A 		vmov	r3, s0
 1932 0212 C2F84530 		str	r3, [r2, #69]	@ unaligned
 931:Service/Srv_IMUSample.c **** 
 1933              		.loc 1 931 9 is_stmt 1 view .LVU507
 931:Service/Srv_IMUSample.c **** 
 1934              		.loc 1 931 31 is_stmt 0 view .LVU508
 1935 0216 10EE903A 		vmov	r3, s1
 1936 021a C2F84930 		str	r3, [r2, #73]	@ unaligned
 934:Service/Srv_IMUSample.c ****         {
 1937              		.loc 1 934 9 is_stmt 1 view .LVU509
 934:Service/Srv_IMUSample.c ****         {
 1938              		.loc 1 934 29 is_stmt 0 view .LVU510
 1939 021e 3369     		ldr	r3, [r6, #16]
 934:Service/Srv_IMUSample.c ****         {
 1940              		.loc 1 934 13 view .LVU511
 1941 0220 7068     		ldr	r0, [r6, #4]
 1942 0222 9847     		blx	r3
 1943              	.LVL136:
 934:Service/Srv_IMUSample.c ****         {
 1944              		.loc 1 934 12 view .LVU512
 1945 0224 0028     		cmp	r0, #0
 1946 0226 00F0D580 		beq	.L130
 934:Service/Srv_IMUSample.c ****         {
 1947              		.loc 1 934 84 discriminator 1 view .LVU513
 1948 022a 7269     		ldr	r2, [r6, #20]
 934:Service/Srv_IMUSample.c ****         {
 1949              		.loc 1 934 68 discriminator 1 view .LVU514
 1950 022c 7068     		ldr	r0, [r6, #4]
 1951 022e 9047     		blx	r2
 1952              	.LVL137:
ARM GAS  C:\Users\HUAV\AppData\Local\Temp\ccyiM7Rc.s 			page 61


 934:Service/Srv_IMUSample.c ****         {
 1953              		.loc 1 934 65 discriminator 1 view .LVU515
 1954 0230 0746     		mov	r7, r0
 1955              	.LVL138:
 934:Service/Srv_IMUSample.c ****         {
 1956              		.loc 1 934 65 discriminator 1 view .LVU516
 1957 0232 0028     		cmp	r0, #0
 1958 0234 00F0CE80 		beq	.L130
 937:Service/Srv_IMUSample.c **** 
 1959              		.loc 1 937 13 is_stmt 1 view .LVU517
 937:Service/Srv_IMUSample.c **** 
 1960              		.loc 1 937 45 is_stmt 0 view .LVU518
 1961 0238 1A4B     		ldr	r3, .L151
 1962 023a 1A78     		ldrb	r2, [r3]	@ zero_extendqisi2
 1963 023c 0121     		movs	r1, #1
 1964 023e 61F38302 		bfi	r2, r1, #2, #2
 1965 0242 1A70     		strb	r2, [r3]
 939:Service/Srv_IMUSample.c ****             SecIMU_Data.time_stamp = InUse_SecIMU_Obj.OriData_ptr->time_stamp;
 1966              		.loc 1 939 13 is_stmt 1 view .LVU519
 939:Service/Srv_IMUSample.c ****             SecIMU_Data.time_stamp = InUse_SecIMU_Obj.OriData_ptr->time_stamp;
 1967              		.loc 1 939 24 is_stmt 0 view .LVU520
 1968 0244 224B     		ldr	r3, .L151+44
 1969 0246 9A68     		ldr	r2, [r3, #8]
 939:Service/Srv_IMUSample.c ****             SecIMU_Data.time_stamp = InUse_SecIMU_Obj.OriData_ptr->time_stamp;
 1970              		.loc 1 939 34 view .LVU521
 1971 0248 0A44     		add	r2, r2, r1
 1972 024a 9A60     		str	r2, [r3, #8]
 940:Service/Srv_IMUSample.c **** 
 1973              		.loc 1 940 13 is_stmt 1 view .LVU522
 940:Service/Srv_IMUSample.c **** 
 1974              		.loc 1 940 54 is_stmt 0 view .LVU523
 1975 024c B068     		ldr	r0, [r6, #8]
 940:Service/Srv_IMUSample.c **** 
 1976              		.loc 1 940 66 view .LVU524
 1977 024e 0168     		ldr	r1, [r0]	@ unaligned
 1978 0250 4268     		ldr	r2, [r0, #4]	@ unaligned
 940:Service/Srv_IMUSample.c **** 
 1979              		.loc 1 940 36 view .LVU525
 1980 0252 1960     		str	r1, [r3]
 1981 0254 5A60     		str	r2, [r3, #4]
 943:Service/Srv_IMUSample.c ****             {
 1982              		.loc 1 943 13 is_stmt 1 view .LVU526
 943:Service/Srv_IMUSample.c ****             {
 1983              		.loc 1 943 17 is_stmt 0 view .LVU527
 1984 0256 1F4B     		ldr	r3, .L151+48
 1985 0258 1E68     		ldr	r6, [r3]
 1986 025a 5B68     		ldr	r3, [r3, #4]
 943:Service/Srv_IMUSample.c ****             {
 1987              		.loc 1 943 16 view .LVU528
 1988 025c 56EA030C 		orrs	ip, r6, r3
 1989 0260 03D0     		beq	.L131
 945:Service/Srv_IMUSample.c ****                     sec_sample_state = false;
 1990              		.loc 1 945 17 is_stmt 1 view .LVU529
 945:Service/Srv_IMUSample.c ****                     sec_sample_state = false;
 1991              		.loc 1 945 20 is_stmt 0 view .LVU530
 1992 0262 8E42     		cmp	r6, r1
 1993 0264 9341     		sbcs	r3, r3, r2
ARM GAS  C:\Users\HUAV\AppData\Local\Temp\ccyiM7Rc.s 			page 62


 1994 0266 80F0C180 		bcs	.L145
 1995              	.L131:
 1996              	.LVL139:
 952:Service/Srv_IMUSample.c **** 
 1997              		.loc 1 952 17 is_stmt 1 view .LVU531
 952:Service/Srv_IMUSample.c **** 
 1998              		.loc 1 952 67 is_stmt 0 view .LVU532
 1999 026a D0F81E30 		ldr	r3, [r0, #30]	@ unaligned
 952:Service/Srv_IMUSample.c **** 
 2000              		.loc 1 952 37 view .LVU533
 2001 026e 184E     		ldr	r6, .L151+44
 2002 0270 F360     		str	r3, [r6, #12]	@ float
 955:Service/Srv_IMUSample.c ****                 Sample_MsDiff = (SecIMU_Data.time_stamp - SecSample_Rt_Lst) / 1000.0f;
 2003              		.loc 1 955 17 is_stmt 1 view .LVU534
 955:Service/Srv_IMUSample.c ****                 Sample_MsDiff = (SecIMU_Data.time_stamp - SecSample_Rt_Lst) / 1000.0f;
 2004              		.loc 1 955 42 is_stmt 0 view .LVU535
 2005 0272 164B     		ldr	r3, .L151+40
 2006 0274 DA89     		ldrh	r2, [r3, #14]
 2007 0276 197B     		ldrb	r1, [r3, #12]	@ zero_extendqisi2
 2008 0278 FFF7FEFF 		bl	SrvIMU_DataCheck
 2009              	.LVL140:
 955:Service/Srv_IMUSample.c ****                 Sample_MsDiff = (SecIMU_Data.time_stamp - SecSample_Rt_Lst) / 1000.0f;
 2010              		.loc 1 955 40 view .LVU536
 2011 027c 86F84400 		strb	r0, [r6, #68]
 956:Service/Srv_IMUSample.c **** 
 2012              		.loc 1 956 17 is_stmt 1 view .LVU537
 956:Service/Srv_IMUSample.c **** 
 2013              		.loc 1 956 45 is_stmt 0 view .LVU538
 2014 0280 3068     		ldr	r0, [r6]
 2015 0282 7168     		ldr	r1, [r6, #4]
 956:Service/Srv_IMUSample.c **** 
 2016              		.loc 1 956 57 view .LVU539
 2017 0284 134A     		ldr	r2, .L151+48
 2018 0286 1368     		ldr	r3, [r2]
 2019 0288 5268     		ldr	r2, [r2, #4]
 2020 028a C01A     		subs	r0, r0, r3
 956:Service/Srv_IMUSample.c **** 
 2021              		.loc 1 956 77 view .LVU540
 2022 028c 61EB0201 		sbc	r1, r1, r2
 2023 0290 FFF7FEFF 		bl	__aeabi_ul2f
 2024              	.LVL141:
 2025 0294 07EE100A 		vmov	s14, r0
 956:Service/Srv_IMUSample.c **** 
 2026              		.loc 1 956 31 view .LVU541
 2027 0298 DFED077A 		vldr.32	s15, .L151+20
 2028 029c 87EE278A 		vdiv.f32	s16, s14, s15
 2029              	.LVL142:
 958:Service/Srv_IMUSample.c ****                 {
 2030              		.loc 1 958 17 is_stmt 1 view .LVU542
 958:Service/Srv_IMUSample.c ****                 {
 2031              		.loc 1 958 24 is_stmt 0 view .LVU543
 2032 02a0 0026     		movs	r6, #0
 958:Service/Srv_IMUSample.c ****                 {
 2033              		.loc 1 958 17 view .LVU544
 2034 02a2 1DE0     		b	.L133
 2035              	.L152:
 2036              		.align	2
ARM GAS  C:\Users\HUAV\AppData\Local\Temp\ccyiM7Rc.s 			page 63


 2037              	.L151:
 2038 02a4 00000000 		.word	.LANCHOR15
 2039 02a8 00000000 		.word	.LANCHOR9
 2040 02ac 00000000 		.word	.LANCHOR13
 2041 02b0 00000000 		.word	.LANCHOR16
 2042 02b4 00000000 		.word	.LANCHOR20
 2043 02b8 00007A44 		.word	1148846080
 2044 02bc 00000000 		.word	.LANCHOR7
 2045 02c0 00000000 		.word	.LANCHOR21
 2046 02c4 00000000 		.word	.LANCHOR22
 2047 02c8 00000000 		.word	.LANCHOR23
 2048 02cc 00000000 		.word	.LANCHOR14
 2049 02d0 00000000 		.word	.LANCHOR17
 2050 02d4 00000000 		.word	.LANCHOR24
 2051 02d8 00000000 		.word	Butterworth
 2052              	.LVL143:
 2053              	.L134:
 958:Service/Srv_IMUSample.c ****                 {
 2054              		.loc 1 958 48 is_stmt 1 discriminator 2 view .LVU545
 958:Service/Srv_IMUSample.c ****                 {
 2055              		.loc 1 958 49 is_stmt 0 discriminator 2 view .LVU546
 2056 02dc 0136     		adds	r6, r6, #1
 2057              	.LVL144:
 958:Service/Srv_IMUSample.c ****                 {
 2058              		.loc 1 958 49 discriminator 2 view .LVU547
 2059 02de F6B2     		uxtb	r6, r6
 2060              	.LVL145:
 2061              	.L133:
 958:Service/Srv_IMUSample.c ****                 {
 2062              		.loc 1 958 34 is_stmt 1 discriminator 1 view .LVU548
 958:Service/Srv_IMUSample.c ****                 {
 2063              		.loc 1 958 17 is_stmt 0 discriminator 1 view .LVU549
 2064 02e0 022E     		cmp	r6, #2
 2065 02e2 6CD8     		bhi	.L149
 960:Service/Srv_IMUSample.c ****                     SecIMU_Data.org_gyr[i] = InUse_SecIMU_Obj.OriData_ptr->gyr_flt[i] - SecIMU_Gyr_
 2066              		.loc 1 960 21 is_stmt 1 view .LVU550
 960:Service/Srv_IMUSample.c ****                     SecIMU_Data.org_gyr[i] = InUse_SecIMU_Obj.OriData_ptr->gyr_flt[i] - SecIMU_Gyr_
 2067              		.loc 1 960 62 is_stmt 0 view .LVU551
 2068 02e4 694B     		ldr	r3, .L153
 2069 02e6 9A68     		ldr	r2, [r3, #8]
 960:Service/Srv_IMUSample.c ****                     SecIMU_Data.org_gyr[i] = InUse_SecIMU_Obj.OriData_ptr->gyr_flt[i] - SecIMU_Gyr_
 2070              		.loc 1 960 83 view .LVU552
 2071 02e8 06F10A03 		add	r3, r6, #10
 2072 02ec 02EB8301 		add	r1, r2, r3, lsl #2
 2073 02f0 D1F80610 		ldr	r1, [r1, #6]	@ unaligned
 960:Service/Srv_IMUSample.c ****                     SecIMU_Data.org_gyr[i] = InUse_SecIMU_Obj.OriData_ptr->gyr_flt[i] - SecIMU_Gyr_
 2074              		.loc 1 960 44 view .LVU553
 2075 02f4 DFF8AC81 		ldr	r8, .L153+24
 2076 02f8 06F10C09 		add	r9, r6, #12
 2077 02fc 08EB8909 		add	r9, r8, r9, lsl #2
 2078 0300 C9F80410 		str	r1, [r9, #4]	@ float
 961:Service/Srv_IMUSample.c **** 
 2079              		.loc 1 961 21 is_stmt 1 view .LVU554
 961:Service/Srv_IMUSample.c **** 
 2080              		.loc 1 961 83 is_stmt 0 view .LVU555
 2081 0304 06F10801 		add	r1, r6, #8
 2082 0308 02EB8102 		add	r2, r2, r1, lsl #2
ARM GAS  C:\Users\HUAV\AppData\Local\Temp\ccyiM7Rc.s 			page 64


 2083 030c D2F80220 		ldr	r2, [r2, #2]	@ unaligned
 2084 0310 00EE102A 		vmov	s0, r2	@ int
 961:Service/Srv_IMUSample.c **** 
 2085              		.loc 1 961 110 view .LVU556
 2086 0314 5E4A     		ldr	r2, .L153+4
 2087 0316 02EB8602 		add	r2, r2, r6, lsl #2
 2088 031a D2ED007A 		vldr.32	s15, [r2]
 961:Service/Srv_IMUSample.c **** 
 2089              		.loc 1 961 87 view .LVU557
 2090 031e 30EE670A 		vsub.f32	s0, s0, s15
 961:Service/Srv_IMUSample.c **** 
 2091              		.loc 1 961 44 view .LVU558
 2092 0322 08EB8303 		add	r3, r8, r3, lsl #2
 2093 0326 83ED000A 		vstr.32	s0, [r3]
 963:Service/Srv_IMUSample.c ****                     SecIMU_Data.flt_acc[i] = Butterworth.update(SecIMU_Acc_LPF_Handle[i], SecIMU_Da
 2094              		.loc 1 963 21 is_stmt 1 view .LVU559
 963:Service/Srv_IMUSample.c ****                     SecIMU_Data.flt_acc[i] = Butterworth.update(SecIMU_Acc_LPF_Handle[i], SecIMU_Da
 2095              		.loc 1 963 57 is_stmt 0 view .LVU560
 2096 032a DFF88CA1 		ldr	r10, .L153+44
 2097 032e DAF80430 		ldr	r3, [r10, #4]
 963:Service/Srv_IMUSample.c ****                     SecIMU_Data.flt_acc[i] = Butterworth.update(SecIMU_Acc_LPF_Handle[i], SecIMU_Da
 2098              		.loc 1 963 46 view .LVU561
 2099 0332 584A     		ldr	r2, .L153+8
 2100 0334 52F82600 		ldr	r0, [r2, r6, lsl #2]
 2101 0338 9847     		blx	r3
 2102              	.LVL146:
 963:Service/Srv_IMUSample.c ****                     SecIMU_Data.flt_acc[i] = Butterworth.update(SecIMU_Acc_LPF_Handle[i], SecIMU_Da
 2103              		.loc 1 963 44 view .LVU562
 2104 033a 331D     		adds	r3, r6, #4
 2105 033c 08EB8303 		add	r3, r8, r3, lsl #2
 2106 0340 83ED000A 		vstr.32	s0, [r3]
 964:Service/Srv_IMUSample.c **** 
 2107              		.loc 1 964 21 is_stmt 1 view .LVU563
 964:Service/Srv_IMUSample.c **** 
 2108              		.loc 1 964 57 is_stmt 0 view .LVU564
 2109 0344 DAF80430 		ldr	r3, [r10, #4]
 964:Service/Srv_IMUSample.c **** 
 2110              		.loc 1 964 46 view .LVU565
 2111 0348 99ED010A 		vldr.32	s0, [r9, #4]
 2112 034c 524A     		ldr	r2, .L153+12
 2113 034e 52F82600 		ldr	r0, [r2, r6, lsl #2]
 2114 0352 9847     		blx	r3
 2115              	.LVL147:
 964:Service/Srv_IMUSample.c **** 
 2116              		.loc 1 964 44 view .LVU566
 2117 0354 B31D     		adds	r3, r6, #6
 2118 0356 08EB8303 		add	r3, r8, r3, lsl #2
 2119 035a 83ED010A 		vstr.32	s0, [r3, #4]
 967:Service/Srv_IMUSample.c ****                         (SecIMU_Data.error_code != SrvIMU_Sample_Data_Gyr_OverRange))
 2120              		.loc 1 967 21 is_stmt 1 view .LVU567
 967:Service/Srv_IMUSample.c ****                         (SecIMU_Data.error_code != SrvIMU_Sample_Data_Gyr_OverRange))
 2121              		.loc 1 967 37 is_stmt 0 view .LVU568
 2122 035e 98F84430 		ldrb	r3, [r8, #68]	@ zero_extendqisi2
 967:Service/Srv_IMUSample.c ****                         (SecIMU_Data.error_code != SrvIMU_Sample_Data_Gyr_OverRange))
 2123              		.loc 1 967 86 view .LVU569
 2124 0362 043B     		subs	r3, r3, #4
 2125 0364 DBB2     		uxtb	r3, r3
ARM GAS  C:\Users\HUAV\AppData\Local\Temp\ccyiM7Rc.s 			page 65


 967:Service/Srv_IMUSample.c ****                         (SecIMU_Data.error_code != SrvIMU_Sample_Data_Gyr_OverRange))
 2126              		.loc 1 967 24 view .LVU570
 2127 0366 012B     		cmp	r3, #1
 2128 0368 B8D9     		bls	.L134
 970:Service/Srv_IMUSample.c ****                         InUse_SecIMU_Obj.OriData_ptr->gyr_int_lst[i] = InUse_SecIMU_Obj.OriData_ptr
 2129              		.loc 1 970 25 is_stmt 1 view .LVU571
 970:Service/Srv_IMUSample.c ****                         InUse_SecIMU_Obj.OriData_ptr->gyr_int_lst[i] = InUse_SecIMU_Obj.OriData_ptr
 2130              		.loc 1 970 88 is_stmt 0 view .LVU572
 2131 036a 484B     		ldr	r3, .L153
 2132 036c 9B68     		ldr	r3, [r3, #8]
 970:Service/Srv_IMUSample.c ****                         InUse_SecIMU_Obj.OriData_ptr->gyr_int_lst[i] = InUse_SecIMU_Obj.OriData_ptr
 2133              		.loc 1 970 109 view .LVU573
 2134 036e 06F10C02 		add	r2, r6, #12
 2135 0372 33F91210 		ldrsh	r1, [r3, r2, lsl #1]	@ unaligned
 970:Service/Srv_IMUSample.c ****                         InUse_SecIMU_Obj.OriData_ptr->gyr_int_lst[i] = InUse_SecIMU_Obj.OriData_ptr
 2136              		.loc 1 970 70 view .LVU574
 2137 0376 06F12002 		add	r2, r6, #32
 2138 037a 23F81210 		strh	r1, [r3, r2, lsl #1]	@ unaligned
 971:Service/Srv_IMUSample.c ****                     
 2139              		.loc 1 971 25 is_stmt 1 view .LVU575
 971:Service/Srv_IMUSample.c ****                     
 2140              		.loc 1 971 109 is_stmt 0 view .LVU576
 2141 037e 06F10802 		add	r2, r6, #8
 2142 0382 03EB4202 		add	r2, r3, r2, lsl #1
 2143 0386 B2F90220 		ldrsh	r2, [r2, #2]	@ unaligned
 971:Service/Srv_IMUSample.c ****                     
 2144              		.loc 1 971 70 view .LVU577
 2145 038a 06F11C01 		add	r1, r6, #28
 2146 038e 03EB4103 		add	r3, r3, r1, lsl #1
 2147 0392 5A80     		strh	r2, [r3, #2]	@ unaligned
 973:Service/Srv_IMUSample.c ****                             SecIMU_Data.error_code = SrvIMU_Sample_Over_Angular_Accelerate;
 2148              		.loc 1 973 25 is_stmt 1 view .LVU578
 973:Service/Srv_IMUSample.c ****                             SecIMU_Data.error_code = SrvIMU_Sample_Over_Angular_Accelerate;
 2149              		.loc 1 973 29 is_stmt 0 view .LVU579
 2150 0394 06F10A03 		add	r3, r6, #10
 2151 0398 4049     		ldr	r1, .L153+16
 2152 039a 01EB8301 		add	r1, r1, r3, lsl #2
 2153 039e 08EB8303 		add	r3, r8, r3, lsl #2
 2154 03a2 B0EE481A 		vmov.f32	s2, s16
 2155 03a6 D1ED000A 		vldr.32	s1, [r1]
 2156 03aa 93ED000A 		vldr.32	s0, [r3]
 2157 03ae FFF7FEFF 		bl	SrvIMU_Detect_AngularOverSpeed
 2158              	.LVL148:
 973:Service/Srv_IMUSample.c ****                             SecIMU_Data.error_code = SrvIMU_Sample_Over_Angular_Accelerate;
 2159              		.loc 1 973 28 view .LVU580
 2160 03b2 0028     		cmp	r0, #0
 2161 03b4 92D0     		beq	.L134
 974:Service/Srv_IMUSample.c ****                     }
 2162              		.loc 1 974 29 is_stmt 1 view .LVU581
 974:Service/Srv_IMUSample.c ****                     }
 2163              		.loc 1 974 52 is_stmt 0 view .LVU582
 2164 03b6 0622     		movs	r2, #6
 2165 03b8 88F84420 		strb	r2, [r8, #68]
 2166 03bc 8EE7     		b	.L134
 2167              	.L149:
 979:Service/Srv_IMUSample.c ****                 SecIMU_Data_Lst = SecIMU_Data;
 2168              		.loc 1 979 17 is_stmt 1 view .LVU583
ARM GAS  C:\Users\HUAV\AppData\Local\Temp\ccyiM7Rc.s 			page 66


 979:Service/Srv_IMUSample.c ****                 SecIMU_Data_Lst = SecIMU_Data;
 2169              		.loc 1 979 49 is_stmt 0 view .LVU584
 2170 03be 384B     		ldr	r3, .L153+20
 2171 03c0 1A78     		ldrb	r2, [r3]	@ zero_extendqisi2
 2172 03c2 6FF38302 		bfc	r2, #2, #2
 2173 03c6 1A70     		strb	r2, [r3]
 980:Service/Srv_IMUSample.c ****             }
 2174              		.loc 1 980 17 is_stmt 1 view .LVU585
 980:Service/Srv_IMUSample.c ****             }
 2175              		.loc 1 980 33 is_stmt 0 view .LVU586
 2176 03c8 4F22     		movs	r2, #79
 2177 03ca 3649     		ldr	r1, .L153+24
 2178 03cc 3348     		ldr	r0, .L153+16
 2179 03ce FFF7FEFF 		bl	memcpy
 2180              	.LVL149:
 2181 03d2 04E0     		b	.L132
 2182              	.LVL150:
 2183              	.L130:
 985:Service/Srv_IMUSample.c ****             sec_sample_state = false;
 2184              		.loc 1 985 13 is_stmt 1 view .LVU587
 986:Service/Srv_IMUSample.c ****             SecIMU_Data.error_code = SrvIMU_Sample_Module_UnReady;
 2185              		.loc 1 986 13 view .LVU588
 987:Service/Srv_IMUSample.c ****         }
 2186              		.loc 1 987 13 view .LVU589
 987:Service/Srv_IMUSample.c ****         }
 2187              		.loc 1 987 36 is_stmt 0 view .LVU590
 2188 03d4 334B     		ldr	r3, .L153+24
 2189 03d6 0122     		movs	r2, #1
 2190 03d8 83F84420 		strb	r2, [r3, #68]
 986:Service/Srv_IMUSample.c ****             SecIMU_Data.error_code = SrvIMU_Sample_Module_UnReady;
 2191              		.loc 1 986 30 view .LVU591
 2192 03dc 0027     		movs	r7, #0
 2193              	.LVL151:
 2194              	.L132:
 990:Service/Srv_IMUSample.c ****     }
 2195              		.loc 1 990 9 is_stmt 1 view .LVU592
 990:Service/Srv_IMUSample.c ****     }
 2196              		.loc 1 990 39 is_stmt 0 view .LVU593
 2197 03de 314B     		ldr	r3, .L153+24
 2198 03e0 1968     		ldr	r1, [r3]
 2199 03e2 5A68     		ldr	r2, [r3, #4]
 990:Service/Srv_IMUSample.c ****     }
 2200              		.loc 1 990 26 view .LVU594
 2201 03e4 304B     		ldr	r3, .L153+28
 2202 03e6 1960     		str	r1, [r3]
 2203 03e8 5A60     		str	r2, [r3, #4]
 2204 03ea 02E0     		b	.L129
 2205              	.LVL152:
 2206              	.L145:
 946:Service/Srv_IMUSample.c ****             }
 2207              		.loc 1 946 38 view .LVU595
 2208 03ec 0027     		movs	r7, #0
 2209 03ee F6E7     		b	.L132
 2210              	.LVL153:
 2211              	.L144:
 993:Service/Srv_IMUSample.c **** 
 2212              		.loc 1 993 26 view .LVU596
ARM GAS  C:\Users\HUAV\AppData\Local\Temp\ccyiM7Rc.s 			page 67


 2213 03f0 0027     		movs	r7, #0
 2214              	.LVL154:
 2215              	.L129:
 995:Service/Srv_IMUSample.c ****     {
 2216              		.loc 1 995 5 is_stmt 1 view .LVU597
 2217 03f2 022C     		cmp	r4, #2
 2218 03f4 1CD0     		beq	.L136
 2219 03f6 032C     		cmp	r4, #3
 2220 03f8 20D0     		beq	.L137
 2221 03fa 012C     		cmp	r4, #1
 2222 03fc 01D0     		beq	.L150
 2223 03fe 0020     		movs	r0, #0
 2224 0400 11E0     		b	.L121
 2225              	.L150:
 998:Service/Srv_IMUSample.c ****         break;
 2226              		.loc 1 998 13 view .LVU598
 998:Service/Srv_IMUSample.c ****         break;
 2227              		.loc 1 998 22 is_stmt 0 view .LVU599
 2228 0402 4F22     		movs	r2, #79
 2229 0404 2949     		ldr	r1, .L153+32
 2230 0406 2A48     		ldr	r0, .L153+36
 2231 0408 FFF7FEFF 		bl	memcpy
 2232              	.LVL155:
 999:Service/Srv_IMUSample.c **** 
 2233              		.loc 1 999 9 is_stmt 1 view .LVU600
 2234              	.L138:
1028:Service/Srv_IMUSample.c ****     IMU_Data_Lst = IMU_Data;
 2235              		.loc 1 1028 5 view .LVU601
1028:Service/Srv_IMUSample.c ****     IMU_Data_Lst = IMU_Data;
 2236              		.loc 1 1028 37 is_stmt 0 view .LVU602
 2237 040c 244B     		ldr	r3, .L153+20
 2238 040e 1A78     		ldrb	r2, [r3]	@ zero_extendqisi2
 2239 0410 6FF30512 		bfc	r2, #4, #2
 2240 0414 1A70     		strb	r2, [r3]
1029:Service/Srv_IMUSample.c **** 
 2241              		.loc 1 1029 5 is_stmt 1 view .LVU603
1029:Service/Srv_IMUSample.c **** 
 2242              		.loc 1 1029 18 is_stmt 0 view .LVU604
 2243 0416 4F22     		movs	r2, #79
 2244 0418 2549     		ldr	r1, .L153+36
 2245 041a 2648     		ldr	r0, .L153+40
 2246 041c FFF7FEFF 		bl	memcpy
 2247              	.LVL156:
1031:Service/Srv_IMUSample.c **** }
 2248              		.loc 1 1031 5 is_stmt 1 view .LVU605
1031:Service/Srv_IMUSample.c **** }
 2249              		.loc 1 1031 30 is_stmt 0 view .LVU606
 2250 0420 45EA0700 		orr	r0, r5, r7
 2251 0424 C0B2     		uxtb	r0, r0
 2252              	.LVL157:
 2253              	.L121:
1032:Service/Srv_IMUSample.c **** 
 2254              		.loc 1 1032 1 view .LVU607
 2255 0426 04B0     		add	sp, sp, #16
 2256              	.LCFI26:
 2257              		.cfi_remember_state
 2258              		.cfi_def_cfa_offset 40
ARM GAS  C:\Users\HUAV\AppData\Local\Temp\ccyiM7Rc.s 			page 68


 2259              		@ sp needed
 2260 0428 BDEC028B 		vldm	sp!, {d8}
 2261              	.LCFI27:
 2262              		.cfi_restore 80
 2263              		.cfi_restore 81
 2264              		.cfi_def_cfa_offset 32
 2265 042c BDE8F087 		pop	{r4, r5, r6, r7, r8, r9, r10, pc}
 2266              	.LVL158:
 2267              	.L136:
 2268              	.LCFI28:
 2269              		.cfi_restore_state
1002:Service/Srv_IMUSample.c ****         break;
 2270              		.loc 1 1002 13 is_stmt 1 view .LVU608
1002:Service/Srv_IMUSample.c ****         break;
 2271              		.loc 1 1002 22 is_stmt 0 view .LVU609
 2272 0430 4F22     		movs	r2, #79
 2273 0432 1C49     		ldr	r1, .L153+24
 2274 0434 1E48     		ldr	r0, .L153+36
 2275 0436 FFF7FEFF 		bl	memcpy
 2276              	.LVL159:
1003:Service/Srv_IMUSample.c **** 
 2277              		.loc 1 1003 9 is_stmt 1 view .LVU610
 2278 043a E7E7     		b	.L138
 2279              	.L137:
1006:Service/Srv_IMUSample.c ****                (PriIMU_Data.error_code == SrvIMU_Sample_Data_Acc_Blunt))
 2280              		.loc 1 1006 13 view .LVU611
1006:Service/Srv_IMUSample.c ****                (PriIMU_Data.error_code == SrvIMU_Sample_Data_Acc_Blunt))
 2281              		.loc 1 1006 28 is_stmt 0 view .LVU612
 2282 043c 1B4B     		ldr	r3, .L153+32
 2283 043e 93F84430 		ldrb	r3, [r3, #68]	@ zero_extendqisi2
1006:Service/Srv_IMUSample.c ****                (PriIMU_Data.error_code == SrvIMU_Sample_Data_Acc_Blunt))
 2284              		.loc 1 1006 15 view .LVU613
 2285 0442 022B     		cmp	r3, #2
 2286 0444 18BF     		it	ne
 2287 0446 002B     		cmpne	r3, #0
 2288 0448 05D1     		bne	.L139
1009:Service/Srv_IMUSample.c ****             }
 2289              		.loc 1 1009 17 is_stmt 1 view .LVU614
1009:Service/Srv_IMUSample.c ****             }
 2290              		.loc 1 1009 26 is_stmt 0 view .LVU615
 2291 044a 4F22     		movs	r2, #79
 2292 044c 1749     		ldr	r1, .L153+32
 2293 044e 1848     		ldr	r0, .L153+36
 2294 0450 FFF7FEFF 		bl	memcpy
 2295              	.LVL160:
 2296 0454 DAE7     		b	.L138
 2297              	.L139:
1011:Service/Srv_IMUSample.c ****                     (SecIMU_Data.error_code == SrvIMU_Sample_Data_Acc_Blunt))
 2298              		.loc 1 1011 18 is_stmt 1 view .LVU616
1011:Service/Srv_IMUSample.c ****                     (SecIMU_Data.error_code == SrvIMU_Sample_Data_Acc_Blunt))
 2299              		.loc 1 1011 33 is_stmt 0 view .LVU617
 2300 0456 134B     		ldr	r3, .L153+24
 2301 0458 93F84430 		ldrb	r3, [r3, #68]	@ zero_extendqisi2
1011:Service/Srv_IMUSample.c ****                     (SecIMU_Data.error_code == SrvIMU_Sample_Data_Acc_Blunt))
 2302              		.loc 1 1011 20 view .LVU618
 2303 045c 022B     		cmp	r3, #2
 2304 045e 18BF     		it	ne
ARM GAS  C:\Users\HUAV\AppData\Local\Temp\ccyiM7Rc.s 			page 69


 2305 0460 002B     		cmpne	r3, #0
 2306 0462 05D1     		bne	.L140
1014:Service/Srv_IMUSample.c ****             }
 2307              		.loc 1 1014 17 is_stmt 1 view .LVU619
1014:Service/Srv_IMUSample.c ****             }
 2308              		.loc 1 1014 26 is_stmt 0 view .LVU620
 2309 0464 4F22     		movs	r2, #79
 2310 0466 0F49     		ldr	r1, .L153+24
 2311 0468 1148     		ldr	r0, .L153+36
 2312 046a FFF7FEFF 		bl	memcpy
 2313              	.LVL161:
 2314 046e CDE7     		b	.L138
 2315              	.L140:
1018:Service/Srv_IMUSample.c ****                 IMU_Data.time_stamp = Get_CurrentRunningUs();
 2316              		.loc 1 1018 17 is_stmt 1 view .LVU621
1018:Service/Srv_IMUSample.c ****                 IMU_Data.time_stamp = Get_CurrentRunningUs();
 2317              		.loc 1 1018 26 is_stmt 0 view .LVU622
 2318 0470 0F4C     		ldr	r4, .L153+36
 2319              	.LVL162:
1018:Service/Srv_IMUSample.c ****                 IMU_Data.time_stamp = Get_CurrentRunningUs();
 2320              		.loc 1 1018 26 view .LVU623
 2321 0472 4F22     		movs	r2, #79
 2322 0474 0F49     		ldr	r1, .L153+40
 2323 0476 2046     		mov	r0, r4
 2324 0478 FFF7FEFF 		bl	memcpy
 2325              	.LVL163:
1019:Service/Srv_IMUSample.c ****             }
 2326              		.loc 1 1019 17 is_stmt 1 view .LVU624
1019:Service/Srv_IMUSample.c ****             }
 2327              		.loc 1 1019 39 is_stmt 0 view .LVU625
 2328 047c FFF7FEFF 		bl	Get_CurrentRunningUs
 2329              	.LVL164:
1019:Service/Srv_IMUSample.c ****             }
 2330              		.loc 1 1019 37 view .LVU626
 2331 0480 2060     		str	r0, [r4]
 2332 0482 6160     		str	r1, [r4, #4]
 2333 0484 C2E7     		b	.L138
 2334              	.LVL165:
 2335              	.L141:
 850:Service/Srv_IMUSample.c **** 
 2336              		.loc 1 850 16 view .LVU627
 2337 0486 0020     		movs	r0, #0
 2338              	.LVL166:
 850:Service/Srv_IMUSample.c **** 
 2339              		.loc 1 850 16 view .LVU628
 2340 0488 CDE7     		b	.L121
 2341              	.L154:
 2342 048a 00BF     		.align	2
 2343              	.L153:
 2344 048c 00000000 		.word	.LANCHOR14
 2345 0490 00000000 		.word	.LANCHOR8
 2346 0494 00000000 		.word	.LANCHOR25
 2347 0498 00000000 		.word	.LANCHOR26
 2348 049c 00000000 		.word	.LANCHOR27
 2349 04a0 00000000 		.word	.LANCHOR15
 2350 04a4 00000000 		.word	.LANCHOR17
 2351 04a8 00000000 		.word	.LANCHOR24
ARM GAS  C:\Users\HUAV\AppData\Local\Temp\ccyiM7Rc.s 			page 70


 2352 04ac 00000000 		.word	.LANCHOR16
 2353 04b0 00000000 		.word	.LANCHOR18
 2354 04b4 00000000 		.word	.LANCHOR28
 2355 04b8 00000000 		.word	Butterworth
 2356              		.cfi_endproc
 2357              	.LFE157:
 2359              		.section	.text.SrvIMU_AutoDetect,"ax",%progbits
 2360              		.align	1
 2361              		.syntax unified
 2362              		.thumb
 2363              		.thumb_func
 2364              		.fpu fpv5-d16
 2366              	SrvIMU_AutoDetect:
 2367              	.LVL167:
 2368              	.LFB162:
1113:Service/Srv_IMUSample.c ****     Runtime_DelayMs(20);
 2369              		.loc 1 1113 1 is_stmt 1 view -0
 2370              		.cfi_startproc
 2371              		@ args = 0, pretend = 0, frame = 0
 2372              		@ frame_needed = 0, uses_anonymous_args = 0
1113:Service/Srv_IMUSample.c ****     Runtime_DelayMs(20);
 2373              		.loc 1 1113 1 is_stmt 0 view .LVU630
 2374 0000 38B5     		push	{r3, r4, r5, lr}
 2375              	.LCFI29:
 2376              		.cfi_def_cfa_offset 16
 2377              		.cfi_offset 3, -16
 2378              		.cfi_offset 4, -12
 2379              		.cfi_offset 5, -8
 2380              		.cfi_offset 14, -4
 2381 0002 0446     		mov	r4, r0
 2382 0004 0D46     		mov	r5, r1
1114:Service/Srv_IMUSample.c **** 
 2383              		.loc 1 1114 5 is_stmt 1 view .LVU631
 2384 0006 1420     		movs	r0, #20
 2385              	.LVL168:
1114:Service/Srv_IMUSample.c **** 
 2386              		.loc 1 1114 5 is_stmt 0 view .LVU632
 2387 0008 FFF7FEFF 		bl	Runtime_DelayMs
 2388              	.LVL169:
1116:Service/Srv_IMUSample.c ****         return SrvIMU_Dev_MPU6000;
 2389              		.loc 1 1116 5 is_stmt 1 view .LVU633
1116:Service/Srv_IMUSample.c ****         return SrvIMU_Dev_MPU6000;
 2390              		.loc 1 1116 18 is_stmt 0 view .LVU634
 2391 000c 0E4B     		ldr	r3, .L162
 2392 000e 1B68     		ldr	r3, [r3]
1116:Service/Srv_IMUSample.c ****         return SrvIMU_Dev_MPU6000;
 2393              		.loc 1 1116 8 view .LVU635
 2394 0010 2946     		mov	r1, r5
 2395 0012 2046     		mov	r0, r4
 2396 0014 9847     		blx	r3
 2397              	.LVL170:
1116:Service/Srv_IMUSample.c ****         return SrvIMU_Dev_MPU6000;
 2398              		.loc 1 1116 7 view .LVU636
 2399 0016 78B9     		cbnz	r0, .L157
1119:Service/Srv_IMUSample.c ****         return SrvIMU_Dev_ICM20602;
 2400              		.loc 1 1119 5 is_stmt 1 view .LVU637
1119:Service/Srv_IMUSample.c ****         return SrvIMU_Dev_ICM20602;
ARM GAS  C:\Users\HUAV\AppData\Local\Temp\ccyiM7Rc.s 			page 71


 2401              		.loc 1 1119 19 is_stmt 0 view .LVU638
 2402 0018 0C4B     		ldr	r3, .L162+4
 2403 001a 1B68     		ldr	r3, [r3]
1119:Service/Srv_IMUSample.c ****         return SrvIMU_Dev_ICM20602;
 2404              		.loc 1 1119 8 view .LVU639
 2405 001c 2946     		mov	r1, r5
 2406 001e 2046     		mov	r0, r4
 2407 0020 9847     		blx	r3
 2408              	.LVL171:
1119:Service/Srv_IMUSample.c ****         return SrvIMU_Dev_ICM20602;
 2409              		.loc 1 1119 7 view .LVU640
 2410 0022 58B9     		cbnz	r0, .L158
1122:Service/Srv_IMUSample.c ****     {
 2411              		.loc 1 1122 5 is_stmt 1 view .LVU641
1122:Service/Srv_IMUSample.c ****     {
 2412              		.loc 1 1122 23 is_stmt 0 view .LVU642
 2413 0024 0A4B     		ldr	r3, .L162+8
 2414 0026 1B68     		ldr	r3, [r3]
1122:Service/Srv_IMUSample.c ****     {
 2415              		.loc 1 1122 12 view .LVU643
 2416 0028 2946     		mov	r1, r5
 2417 002a 2046     		mov	r0, r4
 2418 002c 9847     		blx	r3
 2419              	.LVL172:
1122:Service/Srv_IMUSample.c ****     {
 2420              		.loc 1 1122 5 view .LVU644
 2421 002e 38B1     		cbz	r0, .L159
 2422 0030 0128     		cmp	r0, #1
 2423 0032 07D1     		bne	.L160
 2424 0034 0320     		movs	r0, #3
 2425 0036 00E0     		b	.L156
 2426              	.L157:
1117:Service/Srv_IMUSample.c **** 
 2427              		.loc 1 1117 16 view .LVU645
 2428 0038 0020     		movs	r0, #0
 2429              	.L156:
1130:Service/Srv_IMUSample.c **** 
 2430              		.loc 1 1130 1 view .LVU646
 2431 003a 38BD     		pop	{r3, r4, r5, pc}
 2432              	.LVL173:
 2433              	.L158:
1120:Service/Srv_IMUSample.c **** 
 2434              		.loc 1 1120 16 view .LVU647
 2435 003c 0120     		movs	r0, #1
 2436 003e FCE7     		b	.L156
 2437              	.L159:
1125:Service/Srv_IMUSample.c ****         default: break;
 2438              		.loc 1 1125 32 view .LVU648
 2439 0040 0220     		movs	r0, #2
 2440 0042 FAE7     		b	.L156
 2441              	.L160:
1129:Service/Srv_IMUSample.c **** }
 2442              		.loc 1 1129 12 view .LVU649
 2443 0044 0420     		movs	r0, #4
 2444 0046 F8E7     		b	.L156
 2445              	.L163:
 2446              		.align	2
ARM GAS  C:\Users\HUAV\AppData\Local\Temp\ccyiM7Rc.s 			page 72


 2447              	.L162:
 2448 0048 00000000 		.word	DevMPU6000
 2449 004c 00000000 		.word	DevICM20602
 2450 0050 00000000 		.word	DevICM426xx
 2451              		.cfi_endproc
 2452              	.LFE162:
 2454              		.section	.text.SrvIMU_PriIMU_Init,"ax",%progbits
 2455              		.align	1
 2456              		.syntax unified
 2457              		.thumb
 2458              		.thumb_func
 2459              		.fpu fpv5-d16
 2461              	SrvIMU_PriIMU_Init:
 2462              	.LFB149:
 408:Service/Srv_IMUSample.c ****     /* primary IMU Pin & Bus Init */
 2463              		.loc 1 408 1 is_stmt 1 view -0
 2464              		.cfi_startproc
 2465              		@ args = 0, pretend = 0, frame = 0
 2466              		@ frame_needed = 0, uses_anonymous_args = 0
 2467 0000 2DE9F041 		push	{r4, r5, r6, r7, r8, lr}
 2468              	.LCFI30:
 2469              		.cfi_def_cfa_offset 24
 2470              		.cfi_offset 4, -24
 2471              		.cfi_offset 5, -20
 2472              		.cfi_offset 6, -16
 2473              		.cfi_offset 7, -12
 2474              		.cfi_offset 8, -8
 2475              		.cfi_offset 14, -4
 2476 0004 88B0     		sub	sp, sp, #32
 2477              	.LCFI31:
 2478              		.cfi_def_cfa_offset 56
 410:Service/Srv_IMUSample.c ****         return SrvIMU_PriCSPin_Init_Error;
 2479              		.loc 1 410 5 view .LVU651
 410:Service/Srv_IMUSample.c ****         return SrvIMU_PriCSPin_Init_Error;
 2480              		.loc 1 410 17 is_stmt 0 view .LVU652
 2481 0006 874B     		ldr	r3, .L180
 2482 0008 5C68     		ldr	r4, [r3, #4]
 410:Service/Srv_IMUSample.c ****         return SrvIMU_PriCSPin_Init_Error;
 2483              		.loc 1 410 10 view .LVU653
 2484 000a 874B     		ldr	r3, .L180+4
 2485 000c 93E80700 		ldm	r3, {r0, r1, r2}
 2486 0010 A047     		blx	r4
 2487              	.LVL174:
 410:Service/Srv_IMUSample.c ****         return SrvIMU_PriCSPin_Init_Error;
 2488              		.loc 1 410 8 view .LVU654
 2489 0012 0028     		cmp	r0, #0
 2490 0014 00F0ED80 		beq	.L171
 413:Service/Srv_IMUSample.c ****         return SrvIMU_PriExtiPin_Init_Error;
 2491              		.loc 1 413 5 is_stmt 1 view .LVU655
 413:Service/Srv_IMUSample.c ****         return SrvIMU_PriExtiPin_Init_Error;
 2492              		.loc 1 413 17 is_stmt 0 view .LVU656
 2493 0018 824B     		ldr	r3, .L180
 2494 001a 1C68     		ldr	r4, [r3]
 413:Service/Srv_IMUSample.c ****         return SrvIMU_PriExtiPin_Init_Error;
 2495              		.loc 1 413 10 view .LVU657
 2496 001c 834A     		ldr	r2, .L180+8
 2497 001e 844B     		ldr	r3, .L180+12
ARM GAS  C:\Users\HUAV\AppData\Local\Temp\ccyiM7Rc.s 			page 73


 2498 0020 07CA     		ldm	r2, {r0, r1, r2}
 2499 0022 A047     		blx	r4
 2500              	.LVL175:
 413:Service/Srv_IMUSample.c ****         return SrvIMU_PriExtiPin_Init_Error;
 2501              		.loc 1 413 8 view .LVU658
 2502 0024 0028     		cmp	r0, #0
 2503 0026 00F0E780 		beq	.L172
 416:Service/Srv_IMUSample.c ****     if (!BspSPI.init(PriIMU_BusCfg, &PriIMU_Bus_Instance))
 2504              		.loc 1 416 5 is_stmt 1 view .LVU659
 416:Service/Srv_IMUSample.c ****     if (!BspSPI.init(PriIMU_BusCfg, &PriIMU_Bus_Instance))
 2505              		.loc 1 416 23 is_stmt 0 view .LVU660
 2506 002a 824D     		ldr	r5, .L180+16
 2507 002c 824C     		ldr	r4, .L180+20
 2508 002e AC46     		mov	ip, r5
 2509 0030 2068     		ldr	r0, [r4]	@ unaligned
 2510 0032 6168     		ldr	r1, [r4, #4]	@ unaligned
 2511 0034 A268     		ldr	r2, [r4, #8]	@ unaligned
 2512 0036 E368     		ldr	r3, [r4, #12]	@ unaligned
 2513 0038 ACE80F00 		stmia	ip!, {r0, r1, r2, r3}
 2514 003c 2069     		ldr	r0, [r4, #16]	@ unaligned
 2515 003e 6169     		ldr	r1, [r4, #20]	@ unaligned
 2516 0040 A269     		ldr	r2, [r4, #24]	@ unaligned
 2517 0042 ACE80700 		stmia	ip!, {r0, r1, r2}
 417:Service/Srv_IMUSample.c ****         return SrvIMU_PriBus_Init_Error;
 2518              		.loc 1 417 5 is_stmt 1 view .LVU661
 417:Service/Srv_IMUSample.c ****         return SrvIMU_PriBus_Init_Error;
 2519              		.loc 1 417 16 is_stmt 0 view .LVU662
 2520 0046 7D4B     		ldr	r3, .L180+24
 2521 0048 1C68     		ldr	r4, [r3]
 417:Service/Srv_IMUSample.c ****         return SrvIMU_PriBus_Init_Error;
 2522              		.loc 1 417 10 view .LVU663
 2523 004a 7D4B     		ldr	r3, .L180+28
 2524 004c 0793     		str	r3, [sp, #28]
 2525 004e EC46     		mov	ip, sp
 2526 0050 05F1100E 		add	lr, r5, #16
 2527 0054 BEE80F00 		ldmia	lr!, {r0, r1, r2, r3}
 2528 0058 ACE80F00 		stmia	ip!, {r0, r1, r2, r3}
 2529 005c 9EE80700 		ldm	lr, {r0, r1, r2}
 2530 0060 8CE80700 		stm	ip, {r0, r1, r2}
 2531 0064 95E80F00 		ldm	r5, {r0, r1, r2, r3}
 2532 0068 A047     		blx	r4
 2533              	.LVL176:
 417:Service/Srv_IMUSample.c ****         return SrvIMU_PriBus_Init_Error;
 2534              		.loc 1 417 8 view .LVU664
 2535 006a 0028     		cmp	r0, #0
 2536 006c 00F0C780 		beq	.L173
 420:Service/Srv_IMUSample.c ****     {
 2537              		.loc 1 420 5 is_stmt 1 view .LVU665
 420:Service/Srv_IMUSample.c ****     {
 2538              		.loc 1 420 12 is_stmt 0 view .LVU666
 2539 0070 7449     		ldr	r1, .L180+32
 2540 0072 7548     		ldr	r0, .L180+36
 2541 0074 FFF7FEFF 		bl	SrvIMU_AutoDetect
 2542              	.LVL177:
 2543 0078 0328     		cmp	r0, #3
 2544 007a 00F2C380 		bhi	.L174
 2545 007e DFE800F0 		tbb	[pc, r0]
ARM GAS  C:\Users\HUAV\AppData\Local\Temp\ccyiM7Rc.s 			page 74


 2546              	.L167:
 2547 0082 02       		.byte	(.L170-.L167)/2
 2548 0083 31       		.byte	(.L169-.L167)/2
 2549 0084 5F       		.byte	(.L168-.L167)/2
 2550 0085 8B       		.byte	(.L166-.L167)/2
 2551              		.p2align 1
 2552              	.L170:
 423:Service/Srv_IMUSample.c ****             DevMPU6000.pre_init(&MPU6000Obj,
 2553              		.loc 1 423 13 is_stmt 1 view .LVU667
 423:Service/Srv_IMUSample.c ****             DevMPU6000.pre_init(&MPU6000Obj,
 2554              		.loc 1 423 35 is_stmt 0 view .LVU668
 2555 0086 714C     		ldr	r4, .L180+40
 2556 0088 0023     		movs	r3, #0
 2557 008a 2370     		strb	r3, [r4]
 424:Service/Srv_IMUSample.c ****                                 SrvIMU_PriIMU_CS_Ctl,
 2558              		.loc 1 424 13 is_stmt 1 view .LVU669
 424:Service/Srv_IMUSample.c ****                                 SrvIMU_PriIMU_CS_Ctl,
 2559              		.loc 1 424 23 is_stmt 0 view .LVU670
 2560 008c 704D     		ldr	r5, .L180+44
 2561 008e 6F68     		ldr	r7, [r5, #4]
 424:Service/Srv_IMUSample.c ****                                 SrvIMU_PriIMU_CS_Ctl,
 2562              		.loc 1 424 13 view .LVU671
 2563 0090 704E     		ldr	r6, .L180+48
 2564 0092 714B     		ldr	r3, .L180+52
 2565 0094 0093     		str	r3, [sp]
 2566 0096 714B     		ldr	r3, .L180+56
 2567 0098 6B4A     		ldr	r2, .L180+36
 2568 009a 6A49     		ldr	r1, .L180+32
 2569 009c 3046     		mov	r0, r6
 2570 009e B847     		blx	r7
 2571              	.LVL178:
 430:Service/Srv_IMUSample.c ****                                MPU6000_SampleRate_4K,
 2572              		.loc 1 430 13 is_stmt 1 view .LVU672
 430:Service/Srv_IMUSample.c ****                                MPU6000_SampleRate_4K,
 2573              		.loc 1 430 23 is_stmt 0 view .LVU673
 2574 00a0 AF68     		ldr	r7, [r5, #8]
 430:Service/Srv_IMUSample.c ****                                MPU6000_SampleRate_4K,
 2575              		.loc 1 430 13 view .LVU674
 2576 00a2 0323     		movs	r3, #3
 2577 00a4 1A46     		mov	r2, r3
 2578 00a6 0121     		movs	r1, #1
 2579 00a8 3046     		mov	r0, r6
 2580 00aa B847     		blx	r7
 2581              	.LVL179:
 435:Service/Srv_IMUSample.c ****             InUse_PriIMU_Obj.OriData_ptr = &(MPU6000Obj.OriData);
 2582              		.loc 1 435 13 is_stmt 1 view .LVU675
 435:Service/Srv_IMUSample.c ****             InUse_PriIMU_Obj.OriData_ptr = &(MPU6000Obj.OriData);
 2583              		.loc 1 435 38 is_stmt 0 view .LVU676
 2584 00ac 6660     		str	r6, [r4, #4]
 436:Service/Srv_IMUSample.c ****             InUse_PriIMU_Obj.acc_trip = MPU6000Obj.PHY_AccTrip_Val;
 2585              		.loc 1 436 13 is_stmt 1 view .LVU677
 436:Service/Srv_IMUSample.c ****             InUse_PriIMU_Obj.acc_trip = MPU6000Obj.PHY_AccTrip_Val;
 2586              		.loc 1 436 42 is_stmt 0 view .LVU678
 2587 00ae 06F12203 		add	r3, r6, #34
 2588 00b2 A360     		str	r3, [r4, #8]
 437:Service/Srv_IMUSample.c ****             InUse_PriIMU_Obj.gyr_trip = MPU6000Obj.PHY_GyrTrip_Val;
 2589              		.loc 1 437 13 is_stmt 1 view .LVU679
ARM GAS  C:\Users\HUAV\AppData\Local\Temp\ccyiM7Rc.s 			page 75


 437:Service/Srv_IMUSample.c ****             InUse_PriIMU_Obj.gyr_trip = MPU6000Obj.PHY_GyrTrip_Val;
 2590              		.loc 1 437 51 is_stmt 0 view .LVU680
 2591 00b4 B37C     		ldrb	r3, [r6, #18]	@ zero_extendqisi2
 437:Service/Srv_IMUSample.c ****             InUse_PriIMU_Obj.gyr_trip = MPU6000Obj.PHY_GyrTrip_Val;
 2592              		.loc 1 437 39 view .LVU681
 2593 00b6 2373     		strb	r3, [r4, #12]
 438:Service/Srv_IMUSample.c ****             
 2594              		.loc 1 438 13 is_stmt 1 view .LVU682
 438:Service/Srv_IMUSample.c ****             
 2595              		.loc 1 438 51 is_stmt 0 view .LVU683
 2596 00b8 B38A     		ldrh	r3, [r6, #20]
 438:Service/Srv_IMUSample.c ****             
 2597              		.loc 1 438 39 view .LVU684
 2598 00ba E381     		strh	r3, [r4, #14]	@ movhi
 440:Service/Srv_IMUSample.c ****             InUse_PriIMU_Obj.get_drdy = DevMPU6000.get_ready;
 2599              		.loc 1 440 13 is_stmt 1 view .LVU685
 440:Service/Srv_IMUSample.c ****             InUse_PriIMU_Obj.get_drdy = DevMPU6000.get_ready;
 2600              		.loc 1 440 51 is_stmt 0 view .LVU686
 2601 00bc AB69     		ldr	r3, [r5, #24]
 440:Service/Srv_IMUSample.c ****             InUse_PriIMU_Obj.get_drdy = DevMPU6000.get_ready;
 2602              		.loc 1 440 39 view .LVU687
 2603 00be E361     		str	r3, [r4, #28]
 441:Service/Srv_IMUSample.c ****             InUse_PriIMU_Obj.get_scale = DevMPU6000.get_scale;
 2604              		.loc 1 441 13 is_stmt 1 view .LVU688
 441:Service/Srv_IMUSample.c ****             InUse_PriIMU_Obj.get_scale = DevMPU6000.get_scale;
 2605              		.loc 1 441 51 is_stmt 0 view .LVU689
 2606 00c0 6B69     		ldr	r3, [r5, #20]
 441:Service/Srv_IMUSample.c ****             InUse_PriIMU_Obj.get_scale = DevMPU6000.get_scale;
 2607              		.loc 1 441 39 view .LVU690
 2608 00c2 2361     		str	r3, [r4, #16]
 442:Service/Srv_IMUSample.c ****             InUse_PriIMU_Obj.sample = DevMPU6000.sample;
 2609              		.loc 1 442 13 is_stmt 1 view .LVU691
 442:Service/Srv_IMUSample.c ****             InUse_PriIMU_Obj.sample = DevMPU6000.sample;
 2610              		.loc 1 442 52 is_stmt 0 view .LVU692
 2611 00c4 AB6A     		ldr	r3, [r5, #40]
 442:Service/Srv_IMUSample.c ****             InUse_PriIMU_Obj.sample = DevMPU6000.sample;
 2612              		.loc 1 442 40 view .LVU693
 2613 00c6 A361     		str	r3, [r4, #24]
 443:Service/Srv_IMUSample.c ****             InUse_PriIMU_Obj.get_error = DevMPU6000.get_error;
 2614              		.loc 1 443 13 is_stmt 1 view .LVU694
 443:Service/Srv_IMUSample.c ****             InUse_PriIMU_Obj.get_error = DevMPU6000.get_error;
 2615              		.loc 1 443 49 is_stmt 0 view .LVU695
 2616 00c8 EB69     		ldr	r3, [r5, #28]
 443:Service/Srv_IMUSample.c ****             InUse_PriIMU_Obj.get_error = DevMPU6000.get_error;
 2617              		.loc 1 443 37 view .LVU696
 2618 00ca 6361     		str	r3, [r4, #20]
 444:Service/Srv_IMUSample.c **** 
 2619              		.loc 1 444 13 is_stmt 1 view .LVU697
 444:Service/Srv_IMUSample.c **** 
 2620              		.loc 1 444 52 is_stmt 0 view .LVU698
 2621 00cc 6B6A     		ldr	r3, [r5, #36]
 444:Service/Srv_IMUSample.c **** 
 2622              		.loc 1 444 40 view .LVU699
 2623 00ce 2362     		str	r3, [r4, #32]
 446:Service/Srv_IMUSample.c ****                 return SrvIMU_PriDev_Init_Error;
 2624              		.loc 1 446 13 is_stmt 1 view .LVU700
 446:Service/Srv_IMUSample.c ****                 return SrvIMU_PriDev_Init_Error;
ARM GAS  C:\Users\HUAV\AppData\Local\Temp\ccyiM7Rc.s 			page 76


 2625              		.loc 1 446 28 is_stmt 0 view .LVU701
 2626 00d0 EB68     		ldr	r3, [r5, #12]
 446:Service/Srv_IMUSample.c ****                 return SrvIMU_PriDev_Init_Error;
 2627              		.loc 1 446 18 view .LVU702
 2628 00d2 3046     		mov	r0, r6
 2629 00d4 9847     		blx	r3
 2630              	.LVL180:
 446:Service/Srv_IMUSample.c ****                 return SrvIMU_PriDev_Init_Error;
 2631              		.loc 1 446 16 view .LVU703
 2632 00d6 0028     		cmp	r0, #0
 2633 00d8 00F09780 		beq	.L175
 537:Service/Srv_IMUSample.c **** }
 2634              		.loc 1 537 12 view .LVU704
 2635 00dc 0020     		movs	r0, #0
 2636              	.L165:
 538:Service/Srv_IMUSample.c **** 
 2637              		.loc 1 538 1 view .LVU705
 2638 00de 08B0     		add	sp, sp, #32
 2639              	.LCFI32:
 2640              		.cfi_remember_state
 2641              		.cfi_def_cfa_offset 24
 2642              		@ sp needed
 2643 00e0 BDE8F081 		pop	{r4, r5, r6, r7, r8, pc}
 2644              	.L169:
 2645              	.LCFI33:
 2646              		.cfi_restore_state
 451:Service/Srv_IMUSample.c ****             DevICM20602.pre_init(&ICM20602Obj,
 2647              		.loc 1 451 13 is_stmt 1 view .LVU706
 451:Service/Srv_IMUSample.c ****             DevICM20602.pre_init(&ICM20602Obj,
 2648              		.loc 1 451 35 is_stmt 0 view .LVU707
 2649 00e4 594C     		ldr	r4, .L180+40
 2650 00e6 4FF00108 		mov	r8, #1
 2651 00ea 84F80080 		strb	r8, [r4]
 452:Service/Srv_IMUSample.c ****                                  SrvIMU_PriIMU_CS_Ctl,
 2652              		.loc 1 452 13 is_stmt 1 view .LVU708
 452:Service/Srv_IMUSample.c ****                                  SrvIMU_PriIMU_CS_Ctl,
 2653              		.loc 1 452 24 is_stmt 0 view .LVU709
 2654 00ee 5C4D     		ldr	r5, .L180+60
 2655 00f0 AF68     		ldr	r7, [r5, #8]
 452:Service/Srv_IMUSample.c ****                                  SrvIMU_PriIMU_CS_Ctl,
 2656              		.loc 1 452 13 view .LVU710
 2657 00f2 5C4E     		ldr	r6, .L180+64
 2658 00f4 584B     		ldr	r3, .L180+52
 2659 00f6 0093     		str	r3, [sp]
 2660 00f8 584B     		ldr	r3, .L180+56
 2661 00fa 534A     		ldr	r2, .L180+36
 2662 00fc 5149     		ldr	r1, .L180+32
 2663 00fe 3046     		mov	r0, r6
 2664 0100 B847     		blx	r7
 2665              	.LVL181:
 458:Service/Srv_IMUSample.c ****                                 ICM20602_SampleRate_4K,
 2666              		.loc 1 458 13 is_stmt 1 view .LVU711
 458:Service/Srv_IMUSample.c ****                                 ICM20602_SampleRate_4K,
 2667              		.loc 1 458 24 is_stmt 0 view .LVU712
 2668 0102 6F68     		ldr	r7, [r5, #4]
 458:Service/Srv_IMUSample.c ****                                 ICM20602_SampleRate_4K,
 2669              		.loc 1 458 13 view .LVU713
ARM GAS  C:\Users\HUAV\AppData\Local\Temp\ccyiM7Rc.s 			page 77


 2670 0104 0323     		movs	r3, #3
 2671 0106 1A46     		mov	r2, r3
 2672 0108 4146     		mov	r1, r8
 2673 010a 3046     		mov	r0, r6
 2674 010c B847     		blx	r7
 2675              	.LVL182:
 463:Service/Srv_IMUSample.c ****             InUse_PriIMU_Obj.OriData_ptr = &(ICM20602Obj.OriData);
 2676              		.loc 1 463 13 is_stmt 1 view .LVU714
 463:Service/Srv_IMUSample.c ****             InUse_PriIMU_Obj.OriData_ptr = &(ICM20602Obj.OriData);
 2677              		.loc 1 463 38 is_stmt 0 view .LVU715
 2678 010e 6660     		str	r6, [r4, #4]
 464:Service/Srv_IMUSample.c ****             InUse_PriIMU_Obj.acc_trip = ICM20602Obj.PHY_AccTrip_Val;
 2679              		.loc 1 464 13 is_stmt 1 view .LVU716
 464:Service/Srv_IMUSample.c ****             InUse_PriIMU_Obj.acc_trip = ICM20602Obj.PHY_AccTrip_Val;
 2680              		.loc 1 464 42 is_stmt 0 view .LVU717
 2681 0110 06F13103 		add	r3, r6, #49
 2682 0114 A360     		str	r3, [r4, #8]
 465:Service/Srv_IMUSample.c ****             InUse_PriIMU_Obj.gyr_trip = ICM20602Obj.PHY_GyrTrip_Val;
 2683              		.loc 1 465 13 is_stmt 1 view .LVU718
 465:Service/Srv_IMUSample.c ****             InUse_PriIMU_Obj.gyr_trip = ICM20602Obj.PHY_GyrTrip_Val;
 2684              		.loc 1 465 52 is_stmt 0 view .LVU719
 2685 0116 337D     		ldrb	r3, [r6, #20]	@ zero_extendqisi2
 465:Service/Srv_IMUSample.c ****             InUse_PriIMU_Obj.gyr_trip = ICM20602Obj.PHY_GyrTrip_Val;
 2686              		.loc 1 465 39 view .LVU720
 2687 0118 2373     		strb	r3, [r4, #12]
 466:Service/Srv_IMUSample.c **** 
 2688              		.loc 1 466 13 is_stmt 1 view .LVU721
 466:Service/Srv_IMUSample.c **** 
 2689              		.loc 1 466 52 is_stmt 0 view .LVU722
 2690 011a F38A     		ldrh	r3, [r6, #22]
 466:Service/Srv_IMUSample.c **** 
 2691              		.loc 1 466 39 view .LVU723
 2692 011c E381     		strh	r3, [r4, #14]	@ movhi
 468:Service/Srv_IMUSample.c ****             InUse_PriIMU_Obj.get_drdy = DevICM20602.get_ready;
 2693              		.loc 1 468 13 is_stmt 1 view .LVU724
 468:Service/Srv_IMUSample.c ****             InUse_PriIMU_Obj.get_drdy = DevICM20602.get_ready;
 2694              		.loc 1 468 52 is_stmt 0 view .LVU725
 2695 011e 2B69     		ldr	r3, [r5, #16]
 468:Service/Srv_IMUSample.c ****             InUse_PriIMU_Obj.get_drdy = DevICM20602.get_ready;
 2696              		.loc 1 468 39 view .LVU726
 2697 0120 E361     		str	r3, [r4, #28]
 469:Service/Srv_IMUSample.c ****             InUse_PriIMU_Obj.get_scale = DevICM20602.get_scale;
 2698              		.loc 1 469 13 is_stmt 1 view .LVU727
 469:Service/Srv_IMUSample.c ****             InUse_PriIMU_Obj.get_scale = DevICM20602.get_scale;
 2699              		.loc 1 469 52 is_stmt 0 view .LVU728
 2700 0122 6B69     		ldr	r3, [r5, #20]
 469:Service/Srv_IMUSample.c ****             InUse_PriIMU_Obj.get_scale = DevICM20602.get_scale;
 2701              		.loc 1 469 39 view .LVU729
 2702 0124 2361     		str	r3, [r4, #16]
 470:Service/Srv_IMUSample.c ****             InUse_PriIMU_Obj.sample = DevICM20602.sample;
 2703              		.loc 1 470 13 is_stmt 1 view .LVU730
 470:Service/Srv_IMUSample.c ****             InUse_PriIMU_Obj.sample = DevICM20602.sample;
 2704              		.loc 1 470 53 is_stmt 0 view .LVU731
 2705 0126 AB6A     		ldr	r3, [r5, #40]
 470:Service/Srv_IMUSample.c ****             InUse_PriIMU_Obj.sample = DevICM20602.sample;
 2706              		.loc 1 470 40 view .LVU732
 2707 0128 A361     		str	r3, [r4, #24]
ARM GAS  C:\Users\HUAV\AppData\Local\Temp\ccyiM7Rc.s 			page 78


 471:Service/Srv_IMUSample.c ****             InUse_PriIMU_Obj.get_error = DevICM20602.get_error;
 2708              		.loc 1 471 13 is_stmt 1 view .LVU733
 471:Service/Srv_IMUSample.c ****             InUse_PriIMU_Obj.get_error = DevICM20602.get_error;
 2709              		.loc 1 471 50 is_stmt 0 view .LVU734
 2710 012a EB69     		ldr	r3, [r5, #28]
 471:Service/Srv_IMUSample.c ****             InUse_PriIMU_Obj.get_error = DevICM20602.get_error;
 2711              		.loc 1 471 37 view .LVU735
 2712 012c 6361     		str	r3, [r4, #20]
 472:Service/Srv_IMUSample.c **** 
 2713              		.loc 1 472 13 is_stmt 1 view .LVU736
 472:Service/Srv_IMUSample.c **** 
 2714              		.loc 1 472 53 is_stmt 0 view .LVU737
 2715 012e 6B6A     		ldr	r3, [r5, #36]
 472:Service/Srv_IMUSample.c **** 
 2716              		.loc 1 472 40 view .LVU738
 2717 0130 2362     		str	r3, [r4, #32]
 474:Service/Srv_IMUSample.c ****                 return SrvIMU_PriDev_Init_Error;
 2718              		.loc 1 474 13 is_stmt 1 view .LVU739
 474:Service/Srv_IMUSample.c ****                 return SrvIMU_PriDev_Init_Error;
 2719              		.loc 1 474 29 is_stmt 0 view .LVU740
 2720 0132 EB68     		ldr	r3, [r5, #12]
 474:Service/Srv_IMUSample.c ****                 return SrvIMU_PriDev_Init_Error;
 2721              		.loc 1 474 18 view .LVU741
 2722 0134 3046     		mov	r0, r6
 2723 0136 9847     		blx	r3
 2724              	.LVL183:
 474:Service/Srv_IMUSample.c ****                 return SrvIMU_PriDev_Init_Error;
 2725              		.loc 1 474 16 view .LVU742
 2726 0138 0028     		cmp	r0, #0
 2727 013a 69D0     		beq	.L176
 537:Service/Srv_IMUSample.c **** }
 2728              		.loc 1 537 12 view .LVU743
 2729 013c 0020     		movs	r0, #0
 2730 013e CEE7     		b	.L165
 2731              	.L168:
 479:Service/Srv_IMUSample.c ****             DevICM426xx.pre_init(&ICM42688PObj,
 2732              		.loc 1 479 13 is_stmt 1 view .LVU744
 479:Service/Srv_IMUSample.c ****             DevICM426xx.pre_init(&ICM42688PObj,
 2733              		.loc 1 479 35 is_stmt 0 view .LVU745
 2734 0140 424C     		ldr	r4, .L180+40
 2735 0142 0223     		movs	r3, #2
 2736 0144 2370     		strb	r3, [r4]
 480:Service/Srv_IMUSample.c ****                                  SrvIMU_PriIMU_CS_Ctl,
 2737              		.loc 1 480 13 is_stmt 1 view .LVU746
 480:Service/Srv_IMUSample.c ****                                  SrvIMU_PriIMU_CS_Ctl,
 2738              		.loc 1 480 24 is_stmt 0 view .LVU747
 2739 0146 484D     		ldr	r5, .L180+68
 2740 0148 AF68     		ldr	r7, [r5, #8]
 480:Service/Srv_IMUSample.c ****                                  SrvIMU_PriIMU_CS_Ctl,
 2741              		.loc 1 480 13 view .LVU748
 2742 014a 484E     		ldr	r6, .L180+72
 2743 014c 424B     		ldr	r3, .L180+52
 2744 014e 0093     		str	r3, [sp]
 2745 0150 424B     		ldr	r3, .L180+56
 2746 0152 3D4A     		ldr	r2, .L180+36
 2747 0154 3B49     		ldr	r1, .L180+32
 2748 0156 3046     		mov	r0, r6
ARM GAS  C:\Users\HUAV\AppData\Local\Temp\ccyiM7Rc.s 			page 79


 2749 0158 B847     		blx	r7
 2750              	.LVL184:
 486:Service/Srv_IMUSample.c ****                                 ICM426xx_SampleRate_4K,
 2751              		.loc 1 486 13 is_stmt 1 view .LVU749
 486:Service/Srv_IMUSample.c ****                                 ICM426xx_SampleRate_4K,
 2752              		.loc 1 486 24 is_stmt 0 view .LVU750
 2753 015a 6F68     		ldr	r7, [r5, #4]
 486:Service/Srv_IMUSample.c ****                                 ICM426xx_SampleRate_4K,
 2754              		.loc 1 486 13 view .LVU751
 2755 015c 0323     		movs	r3, #3
 2756 015e 1A46     		mov	r2, r3
 2757 0160 0121     		movs	r1, #1
 2758 0162 3046     		mov	r0, r6
 2759 0164 B847     		blx	r7
 2760              	.LVL185:
 491:Service/Srv_IMUSample.c ****             InUse_PriIMU_Obj.OriData_ptr = &(ICM42688PObj.OriData);
 2761              		.loc 1 491 13 is_stmt 1 view .LVU752
 491:Service/Srv_IMUSample.c ****             InUse_PriIMU_Obj.OriData_ptr = &(ICM42688PObj.OriData);
 2762              		.loc 1 491 38 is_stmt 0 view .LVU753
 2763 0166 6660     		str	r6, [r4, #4]
 492:Service/Srv_IMUSample.c ****             InUse_PriIMU_Obj.acc_trip = ICM42688PObj.PHY_AccTrip_Val;
 2764              		.loc 1 492 13 is_stmt 1 view .LVU754
 492:Service/Srv_IMUSample.c ****             InUse_PriIMU_Obj.acc_trip = ICM42688PObj.PHY_AccTrip_Val;
 2765              		.loc 1 492 42 is_stmt 0 view .LVU755
 2766 0168 06F13503 		add	r3, r6, #53
 2767 016c A360     		str	r3, [r4, #8]
 493:Service/Srv_IMUSample.c ****             InUse_PriIMU_Obj.gyr_trip = ICM42688PObj.PHY_GyrTrip_Val;
 2768              		.loc 1 493 13 is_stmt 1 view .LVU756
 493:Service/Srv_IMUSample.c ****             InUse_PriIMU_Obj.gyr_trip = ICM42688PObj.PHY_GyrTrip_Val;
 2769              		.loc 1 493 53 is_stmt 0 view .LVU757
 2770 016e 337E     		ldrb	r3, [r6, #24]	@ zero_extendqisi2
 493:Service/Srv_IMUSample.c ****             InUse_PriIMU_Obj.gyr_trip = ICM42688PObj.PHY_GyrTrip_Val;
 2771              		.loc 1 493 39 view .LVU758
 2772 0170 2373     		strb	r3, [r4, #12]
 494:Service/Srv_IMUSample.c **** 
 2773              		.loc 1 494 13 is_stmt 1 view .LVU759
 494:Service/Srv_IMUSample.c **** 
 2774              		.loc 1 494 53 is_stmt 0 view .LVU760
 2775 0172 738B     		ldrh	r3, [r6, #26]
 494:Service/Srv_IMUSample.c **** 
 2776              		.loc 1 494 39 view .LVU761
 2777 0174 E381     		strh	r3, [r4, #14]	@ movhi
 496:Service/Srv_IMUSample.c ****             InUse_PriIMU_Obj.get_drdy = DevICM426xx.get_ready;
 2778              		.loc 1 496 13 is_stmt 1 view .LVU762
 496:Service/Srv_IMUSample.c ****             InUse_PriIMU_Obj.get_drdy = DevICM426xx.get_ready;
 2779              		.loc 1 496 52 is_stmt 0 view .LVU763
 2780 0176 2B69     		ldr	r3, [r5, #16]
 496:Service/Srv_IMUSample.c ****             InUse_PriIMU_Obj.get_drdy = DevICM426xx.get_ready;
 2781              		.loc 1 496 39 view .LVU764
 2782 0178 E361     		str	r3, [r4, #28]
 497:Service/Srv_IMUSample.c ****             InUse_PriIMU_Obj.get_scale = DevICM426xx.get_scale;
 2783              		.loc 1 497 13 is_stmt 1 view .LVU765
 497:Service/Srv_IMUSample.c ****             InUse_PriIMU_Obj.get_scale = DevICM426xx.get_scale;
 2784              		.loc 1 497 52 is_stmt 0 view .LVU766
 2785 017a 6B69     		ldr	r3, [r5, #20]
 497:Service/Srv_IMUSample.c ****             InUse_PriIMU_Obj.get_scale = DevICM426xx.get_scale;
 2786              		.loc 1 497 39 view .LVU767
ARM GAS  C:\Users\HUAV\AppData\Local\Temp\ccyiM7Rc.s 			page 80


 2787 017c 2361     		str	r3, [r4, #16]
 498:Service/Srv_IMUSample.c ****             InUse_PriIMU_Obj.sample = DevICM426xx.sample;
 2788              		.loc 1 498 13 is_stmt 1 view .LVU768
 498:Service/Srv_IMUSample.c ****             InUse_PriIMU_Obj.sample = DevICM426xx.sample;
 2789              		.loc 1 498 53 is_stmt 0 view .LVU769
 2790 017e 6B6A     		ldr	r3, [r5, #36]
 498:Service/Srv_IMUSample.c ****             InUse_PriIMU_Obj.sample = DevICM426xx.sample;
 2791              		.loc 1 498 40 view .LVU770
 2792 0180 A361     		str	r3, [r4, #24]
 499:Service/Srv_IMUSample.c ****             InUse_PriIMU_Obj.get_error = DevICM426xx.get_error;
 2793              		.loc 1 499 13 is_stmt 1 view .LVU771
 499:Service/Srv_IMUSample.c ****             InUse_PriIMU_Obj.get_error = DevICM426xx.get_error;
 2794              		.loc 1 499 50 is_stmt 0 view .LVU772
 2795 0182 AB69     		ldr	r3, [r5, #24]
 499:Service/Srv_IMUSample.c ****             InUse_PriIMU_Obj.get_error = DevICM426xx.get_error;
 2796              		.loc 1 499 37 view .LVU773
 2797 0184 6361     		str	r3, [r4, #20]
 500:Service/Srv_IMUSample.c **** 
 2798              		.loc 1 500 13 is_stmt 1 view .LVU774
 500:Service/Srv_IMUSample.c **** 
 2799              		.loc 1 500 53 is_stmt 0 view .LVU775
 2800 0186 EB69     		ldr	r3, [r5, #28]
 500:Service/Srv_IMUSample.c **** 
 2801              		.loc 1 500 40 view .LVU776
 2802 0188 2362     		str	r3, [r4, #32]
 502:Service/Srv_IMUSample.c ****                 return SrvIMU_PriDev_Init_Error;
 2803              		.loc 1 502 13 is_stmt 1 view .LVU777
 502:Service/Srv_IMUSample.c ****                 return SrvIMU_PriDev_Init_Error;
 2804              		.loc 1 502 29 is_stmt 0 view .LVU778
 2805 018a EB68     		ldr	r3, [r5, #12]
 502:Service/Srv_IMUSample.c ****                 return SrvIMU_PriDev_Init_Error;
 2806              		.loc 1 502 18 view .LVU779
 2807 018c 3046     		mov	r0, r6
 2808 018e 9847     		blx	r3
 2809              	.LVL186:
 502:Service/Srv_IMUSample.c ****                 return SrvIMU_PriDev_Init_Error;
 2810              		.loc 1 502 16 view .LVU780
 2811 0190 0028     		cmp	r0, #0
 2812 0192 40D0     		beq	.L177
 537:Service/Srv_IMUSample.c **** }
 2813              		.loc 1 537 12 view .LVU781
 2814 0194 0020     		movs	r0, #0
 2815 0196 A2E7     		b	.L165
 2816              	.L166:
 507:Service/Srv_IMUSample.c ****             DevICM426xx.pre_init(&ICM42605Obj,
 2817              		.loc 1 507 13 is_stmt 1 view .LVU782
 507:Service/Srv_IMUSample.c ****             DevICM426xx.pre_init(&ICM42605Obj,
 2818              		.loc 1 507 35 is_stmt 0 view .LVU783
 2819 0198 2C4C     		ldr	r4, .L180+40
 2820 019a 4FF00308 		mov	r8, #3
 2821 019e 84F80080 		strb	r8, [r4]
 508:Service/Srv_IMUSample.c ****                                  SrvIMU_PriIMU_CS_Ctl,
 2822              		.loc 1 508 13 is_stmt 1 view .LVU784
 508:Service/Srv_IMUSample.c ****                                  SrvIMU_PriIMU_CS_Ctl,
 2823              		.loc 1 508 24 is_stmt 0 view .LVU785
 2824 01a2 314D     		ldr	r5, .L180+68
 508:Service/Srv_IMUSample.c ****                                  SrvIMU_PriIMU_CS_Ctl,
ARM GAS  C:\Users\HUAV\AppData\Local\Temp\ccyiM7Rc.s 			page 81


 2825              		.loc 1 508 13 view .LVU786
 2826 01a4 324E     		ldr	r6, .L180+76
 2827 01a6 2C4B     		ldr	r3, .L180+52
 2828 01a8 0093     		str	r3, [sp]
 2829 01aa 2C4B     		ldr	r3, .L180+56
 2830 01ac 264A     		ldr	r2, .L180+36
 2831 01ae 2549     		ldr	r1, .L180+32
 2832 01b0 3046     		mov	r0, r6
 2833 01b2 AF68     		ldr	r7, [r5, #8]
 2834 01b4 B847     		blx	r7
 2835              	.LVL187:
 514:Service/Srv_IMUSample.c ****                                 ICM426xx_SampleRate_4K,
 2836              		.loc 1 514 13 is_stmt 1 view .LVU787
 2837 01b6 4346     		mov	r3, r8
 2838 01b8 4246     		mov	r2, r8
 2839 01ba 0121     		movs	r1, #1
 2840 01bc 3046     		mov	r0, r6
 2841 01be 6F68     		ldr	r7, [r5, #4]
 2842 01c0 B847     		blx	r7
 2843              	.LVL188:
 519:Service/Srv_IMUSample.c ****             InUse_PriIMU_Obj.OriData_ptr = &(ICM42605Obj.OriData);
 2844              		.loc 1 519 13 view .LVU788
 519:Service/Srv_IMUSample.c ****             InUse_PriIMU_Obj.OriData_ptr = &(ICM42605Obj.OriData);
 2845              		.loc 1 519 38 is_stmt 0 view .LVU789
 2846 01c2 6660     		str	r6, [r4, #4]
 520:Service/Srv_IMUSample.c ****             InUse_PriIMU_Obj.acc_trip = ICM42605Obj.PHY_AccTrip_Val;
 2847              		.loc 1 520 13 is_stmt 1 view .LVU790
 520:Service/Srv_IMUSample.c ****             InUse_PriIMU_Obj.acc_trip = ICM42605Obj.PHY_AccTrip_Val;
 2848              		.loc 1 520 42 is_stmt 0 view .LVU791
 2849 01c4 06F13503 		add	r3, r6, #53
 2850 01c8 A360     		str	r3, [r4, #8]
 521:Service/Srv_IMUSample.c ****             InUse_PriIMU_Obj.gyr_trip = ICM42605Obj.PHY_GyrTrip_Val;
 2851              		.loc 1 521 13 is_stmt 1 view .LVU792
 521:Service/Srv_IMUSample.c ****             InUse_PriIMU_Obj.gyr_trip = ICM42605Obj.PHY_GyrTrip_Val;
 2852              		.loc 1 521 52 is_stmt 0 view .LVU793
 2853 01ca 337E     		ldrb	r3, [r6, #24]	@ zero_extendqisi2
 521:Service/Srv_IMUSample.c ****             InUse_PriIMU_Obj.gyr_trip = ICM42605Obj.PHY_GyrTrip_Val;
 2854              		.loc 1 521 39 view .LVU794
 2855 01cc 2373     		strb	r3, [r4, #12]
 522:Service/Srv_IMUSample.c **** 
 2856              		.loc 1 522 13 is_stmt 1 view .LVU795
 522:Service/Srv_IMUSample.c **** 
 2857              		.loc 1 522 52 is_stmt 0 view .LVU796
 2858 01ce 738B     		ldrh	r3, [r6, #26]
 522:Service/Srv_IMUSample.c **** 
 2859              		.loc 1 522 39 view .LVU797
 2860 01d0 E381     		strh	r3, [r4, #14]	@ movhi
 524:Service/Srv_IMUSample.c ****             InUse_PriIMU_Obj.get_drdy = DevICM426xx.get_ready;
 2861              		.loc 1 524 13 is_stmt 1 view .LVU798
 524:Service/Srv_IMUSample.c ****             InUse_PriIMU_Obj.get_drdy = DevICM426xx.get_ready;
 2862              		.loc 1 524 52 is_stmt 0 view .LVU799
 2863 01d2 2B69     		ldr	r3, [r5, #16]
 524:Service/Srv_IMUSample.c ****             InUse_PriIMU_Obj.get_drdy = DevICM426xx.get_ready;
 2864              		.loc 1 524 39 view .LVU800
 2865 01d4 E361     		str	r3, [r4, #28]
 525:Service/Srv_IMUSample.c ****             InUse_PriIMU_Obj.get_scale = DevICM426xx.get_scale;
 2866              		.loc 1 525 13 is_stmt 1 view .LVU801
ARM GAS  C:\Users\HUAV\AppData\Local\Temp\ccyiM7Rc.s 			page 82


 525:Service/Srv_IMUSample.c ****             InUse_PriIMU_Obj.get_scale = DevICM426xx.get_scale;
 2867              		.loc 1 525 52 is_stmt 0 view .LVU802
 2868 01d6 6B69     		ldr	r3, [r5, #20]
 525:Service/Srv_IMUSample.c ****             InUse_PriIMU_Obj.get_scale = DevICM426xx.get_scale;
 2869              		.loc 1 525 39 view .LVU803
 2870 01d8 2361     		str	r3, [r4, #16]
 526:Service/Srv_IMUSample.c ****             InUse_PriIMU_Obj.sample = DevICM426xx.sample;
 2871              		.loc 1 526 13 is_stmt 1 view .LVU804
 526:Service/Srv_IMUSample.c ****             InUse_PriIMU_Obj.sample = DevICM426xx.sample;
 2872              		.loc 1 526 53 is_stmt 0 view .LVU805
 2873 01da 6B6A     		ldr	r3, [r5, #36]
 526:Service/Srv_IMUSample.c ****             InUse_PriIMU_Obj.sample = DevICM426xx.sample;
 2874              		.loc 1 526 40 view .LVU806
 2875 01dc A361     		str	r3, [r4, #24]
 527:Service/Srv_IMUSample.c ****             InUse_PriIMU_Obj.get_error = DevICM426xx.get_error;
 2876              		.loc 1 527 13 is_stmt 1 view .LVU807
 527:Service/Srv_IMUSample.c ****             InUse_PriIMU_Obj.get_error = DevICM426xx.get_error;
 2877              		.loc 1 527 50 is_stmt 0 view .LVU808
 2878 01de AB69     		ldr	r3, [r5, #24]
 527:Service/Srv_IMUSample.c ****             InUse_PriIMU_Obj.get_error = DevICM426xx.get_error;
 2879              		.loc 1 527 37 view .LVU809
 2880 01e0 6361     		str	r3, [r4, #20]
 528:Service/Srv_IMUSample.c **** 
 2881              		.loc 1 528 13 is_stmt 1 view .LVU810
 528:Service/Srv_IMUSample.c **** 
 2882              		.loc 1 528 53 is_stmt 0 view .LVU811
 2883 01e2 EB69     		ldr	r3, [r5, #28]
 528:Service/Srv_IMUSample.c **** 
 2884              		.loc 1 528 40 view .LVU812
 2885 01e4 2362     		str	r3, [r4, #32]
 530:Service/Srv_IMUSample.c ****                 return SrvIMU_PriDev_Init_Error;
 2886              		.loc 1 530 13 is_stmt 1 view .LVU813
 530:Service/Srv_IMUSample.c ****                 return SrvIMU_PriDev_Init_Error;
 2887              		.loc 1 530 29 is_stmt 0 view .LVU814
 2888 01e6 EB68     		ldr	r3, [r5, #12]
 530:Service/Srv_IMUSample.c ****                 return SrvIMU_PriDev_Init_Error;
 2889              		.loc 1 530 18 view .LVU815
 2890 01e8 3046     		mov	r0, r6
 2891 01ea 9847     		blx	r3
 2892              	.LVL189:
 530:Service/Srv_IMUSample.c ****                 return SrvIMU_PriDev_Init_Error;
 2893              		.loc 1 530 16 view .LVU816
 2894 01ec B0B1     		cbz	r0, .L178
 537:Service/Srv_IMUSample.c **** }
 2895              		.loc 1 537 12 view .LVU817
 2896 01ee 0020     		movs	r0, #0
 2897 01f0 75E7     		b	.L165
 2898              	.L171:
 411:Service/Srv_IMUSample.c **** 
 2899              		.loc 1 411 16 view .LVU818
 2900 01f2 6FF00700 		mvn	r0, #7
 2901 01f6 72E7     		b	.L165
 2902              	.L172:
 414:Service/Srv_IMUSample.c **** 
 2903              		.loc 1 414 16 view .LVU819
 2904 01f8 6FF00600 		mvn	r0, #6
 2905 01fc 6FE7     		b	.L165
ARM GAS  C:\Users\HUAV\AppData\Local\Temp\ccyiM7Rc.s 			page 83


 2906              	.L173:
 418:Service/Srv_IMUSample.c **** 
 2907              		.loc 1 418 16 view .LVU820
 2908 01fe 6FF00500 		mvn	r0, #5
 2909 0202 6CE7     		b	.L165
 2910              	.L174:
 420:Service/Srv_IMUSample.c ****     {
 2911              		.loc 1 420 12 view .LVU821
 2912 0204 6FF00B00 		mvn	r0, #11
 2913 0208 69E7     		b	.L165
 2914              	.L175:
 447:Service/Srv_IMUSample.c ****         break;
 2915              		.loc 1 447 24 view .LVU822
 2916 020a 6FF00400 		mvn	r0, #4
 2917 020e 66E7     		b	.L165
 2918              	.L176:
 475:Service/Srv_IMUSample.c ****         break;
 2919              		.loc 1 475 24 view .LVU823
 2920 0210 6FF00400 		mvn	r0, #4
 2921 0214 63E7     		b	.L165
 2922              	.L177:
 503:Service/Srv_IMUSample.c ****         break;
 2923              		.loc 1 503 24 view .LVU824
 2924 0216 6FF00400 		mvn	r0, #4
 2925 021a 60E7     		b	.L165
 2926              	.L178:
 531:Service/Srv_IMUSample.c ****         break;
 2927              		.loc 1 531 24 view .LVU825
 2928 021c 6FF00400 		mvn	r0, #4
 2929 0220 5DE7     		b	.L165
 2930              	.L181:
 2931 0222 00BF     		.align	2
 2932              	.L180:
 2933 0224 00000000 		.word	BspGPIO
 2934 0228 00000000 		.word	PriIMU_CSPin
 2935 022c 00000000 		.word	PriIMU_INTPin
 2936 0230 00000000 		.word	SrvIMU_PriIMU_ExtiCallback
 2937 0234 00000000 		.word	.LANCHOR29
 2938 0238 00000000 		.word	PriIMU_BusPin
 2939 023c 00000000 		.word	BspSPI
 2940 0240 00000000 		.word	.LANCHOR0
 2941 0244 00000000 		.word	SrvIMU_PriIMU_CS_Ctl
 2942 0248 00000000 		.word	SrvIMU_PriIMU_BusTrans_Rec
 2943 024c 00000000 		.word	.LANCHOR13
 2944 0250 00000000 		.word	DevMPU6000
 2945 0254 00000000 		.word	.LANCHOR10
 2946 0258 00000000 		.word	Get_CurrentRunningUs
 2947 025c 00000000 		.word	Runtime_DelayMs
 2948 0260 00000000 		.word	DevICM20602
 2949 0264 00000000 		.word	.LANCHOR11
 2950 0268 00000000 		.word	DevICM426xx
 2951 026c 00000000 		.word	.LANCHOR30
 2952 0270 00000000 		.word	.LANCHOR31
 2953              		.cfi_endproc
 2954              	.LFE149:
 2956              		.section	.text.SrvIMU_SecIMU_Init,"ax",%progbits
 2957              		.align	1
ARM GAS  C:\Users\HUAV\AppData\Local\Temp\ccyiM7Rc.s 			page 84


 2958              		.syntax unified
 2959              		.thumb
 2960              		.thumb_func
 2961              		.fpu fpv5-d16
 2963              	SrvIMU_SecIMU_Init:
 2964              	.LFB150:
 542:Service/Srv_IMUSample.c ****     /* primary IMU Pin & Bus Init */
 2965              		.loc 1 542 1 is_stmt 1 view -0
