ARM GAS  C:\Users\8bit\AppData\Local\Temp\ccCRhmZR.s 			page 1


   1              		.cpu cortex-m4
   2              		.arch armv7e-m
   3              		.fpu fpv4-sp-d16
   4              		.eabi_attribute 27, 1
   5              		.eabi_attribute 28, 1
   6              		.eabi_attribute 20, 1
   7              		.eabi_attribute 21, 1
   8              		.eabi_attribute 23, 3
   9              		.eabi_attribute 24, 1
  10              		.eabi_attribute 25, 1
  11              		.eabi_attribute 26, 1
  12              		.eabi_attribute 30, 1
  13              		.eabi_attribute 34, 1
  14              		.eabi_attribute 18, 4
  15              		.file	"Srv_ComProto.c"
  16              		.text
  17              	.Ltext0:
  18              		.cfi_sections	.debug_frame
  19              		.section	.text.Srv_ComProto_GetType,"ax",%progbits
  20              		.align	1
  21              		.syntax unified
  22              		.thumb
  23              		.thumb_func
  25              	Srv_ComProto_GetType:
  26              	.LFB2075:
  27              		.file 1 "Service/Srv_ComProto.c"
   1:Service/Srv_ComProto.c **** #include "Srv_ComProto.h"
   2:Service/Srv_ComProto.c **** #include "Srv_DataHub.h"
   3:Service/Srv_ComProto.c **** #include "DataPipe.h"
   4:Service/Srv_ComProto.c **** #include "Srv_OsCommon.h"
   5:Service/Srv_ComProto.c **** #include "Bsp_Uart.h"
   6:Service/Srv_ComProto.c **** 
   7:Service/Srv_ComProto.c **** #define To_DataPack_Callback(x) (DataPack_Callback)x
   8:Service/Srv_ComProto.c **** 
   9:Service/Srv_ComProto.c **** /* only can use one hardware port at one time */
  10:Service/Srv_ComProto.c **** /* still can be optmize / use multi port proto mavlink frame */
  11:Service/Srv_ComProto.c **** 
  12:Service/Srv_ComProto.c **** SrvComProto_Monitor_TypeDef SrvComProto_monitor = {
  13:Service/Srv_ComProto.c ****     .Proto_Type = SrvComProto_Type_None,
  14:Service/Srv_ComProto.c ****     .init_state = false,
  15:Service/Srv_ComProto.c **** };
  16:Service/Srv_ComProto.c **** 
  17:Service/Srv_ComProto.c **** /* internal function */
  18:Service/Srv_ComProto.c **** static uint16_t SrvComProto_MavMsg_Raw_IMU(SrvComProto_MsgInfo_TypeDef *pck);
  19:Service/Srv_ComProto.c **** static uint16_t SrvComProto_MavMsg_Scaled_IMU(SrvComProto_MsgInfo_TypeDef *pck);
  20:Service/Srv_ComProto.c **** static uint16_t SrvComProto_MavMsg_Attitude(SrvComProto_MsgInfo_TypeDef *pck);
  21:Service/Srv_ComProto.c **** static uint16_t SrvConProto_MavMsg_RC(SrvComProto_MsgInfo_TypeDef *pck);
  22:Service/Srv_ComProto.c **** static uint16_t SrvComProto_MavMsg_Altitude(SrvComProto_MsgInfo_TypeDef *pck);
  23:Service/Srv_ComProto.c **** static uint16_t SrvComProto_MavMsg_MotoActuator(SrvComProto_MsgInfo_TypeDef *pck);
  24:Service/Srv_ComProto.c **** 
  25:Service/Srv_ComProto.c **** /* just fot temporary will create custom message in the next */
  26:Service/Srv_ComProto.c **** static uint16_t SrvComProto_MavMsg_Exp_Attitude(SrvComProto_MsgInfo_TypeDef *pck);
  27:Service/Srv_ComProto.c **** 
  28:Service/Srv_ComProto.c **** /* external function */
  29:Service/Srv_ComProto.c **** static bool Srv_ComProto_Init(SrvComProto_Type_List type, uint8_t *arg);
  30:Service/Srv_ComProto.c **** static bool Srv_ComProto_MsgObj_Init(SrvComProto_MsgInfo_TypeDef *msg, SrvComProto_MavPackInfo_Type
  31:Service/Srv_ComProto.c **** static void SrvComProto_MsgToStream(SrvComProto_MsgInfo_TypeDef *msg, SrvComProto_Stream_TypeDef *c
ARM GAS  C:\Users\8bit\AppData\Local\Temp\ccCRhmZR.s 			page 2


  32:Service/Srv_ComProto.c **** static bool SrvComProto_MsgEnable_Control(SrvComProto_MsgInfo_TypeDef *msg, bool state);
  33:Service/Srv_ComProto.c **** static SrvComProto_Type_List Srv_ComProto_GetType(void);
  34:Service/Srv_ComProto.c **** static SrvComProto_Msg_StreamIn_TypeDef SrvComProto_MavMsg_Input_DecodeAll(SrvComProto_MsgObj_TypeD
  35:Service/Srv_ComProto.c **** static void SrvComProto_Set_MavMsgIn_Callback(SrvComProto_MsgObj_TypeDef *obj, SrvComProto_MavInMsg
  36:Service/Srv_ComProto.c **** 
  37:Service/Srv_ComProto.c **** SrvComProto_TypeDef SrvComProto = {
  38:Service/Srv_ComProto.c ****     .init = Srv_ComProto_Init,
  39:Service/Srv_ComProto.c ****     .mav_msg_obj_init = Srv_ComProto_MsgObj_Init,
  40:Service/Srv_ComProto.c ****     .get_msg_type = Srv_ComProto_GetType,
  41:Service/Srv_ComProto.c ****     .mav_msg_stream = SrvComProto_MsgToStream,
  42:Service/Srv_ComProto.c ****     .mav_msg_enable_ctl = SrvComProto_MsgEnable_Control,
  43:Service/Srv_ComProto.c ****     .msg_decode = SrvComProto_MavMsg_Input_DecodeAll,
  44:Service/Srv_ComProto.c ****     .mav_msg_set_input_callback = SrvComProto_Set_MavMsgIn_Callback,
  45:Service/Srv_ComProto.c **** };
  46:Service/Srv_ComProto.c **** 
  47:Service/Srv_ComProto.c **** static bool Srv_ComProto_Init(SrvComProto_Type_List type, uint8_t *arg)
  48:Service/Srv_ComProto.c **** {
  49:Service/Srv_ComProto.c ****     UNUSED(arg);
  50:Service/Srv_ComProto.c **** 
  51:Service/Srv_ComProto.c ****     /* only init one time */
  52:Service/Srv_ComProto.c ****     if (SrvComProto_monitor.init_state)
  53:Service/Srv_ComProto.c ****         return true;
  54:Service/Srv_ComProto.c **** 
  55:Service/Srv_ComProto.c ****     SrvDataHub.init();
  56:Service/Srv_ComProto.c **** 
  57:Service/Srv_ComProto.c ****     memset(&SrvComProto_monitor, 0, sizeof(SrvComProto_monitor));
  58:Service/Srv_ComProto.c ****     SrvComProto_monitor.Proto_Type = type;
  59:Service/Srv_ComProto.c ****     SrvComProto_monitor.init_state = true;
  60:Service/Srv_ComProto.c **** 
  61:Service/Srv_ComProto.c ****     return true;
  62:Service/Srv_ComProto.c **** }
  63:Service/Srv_ComProto.c **** 
  64:Service/Srv_ComProto.c **** static SrvComProto_Type_List Srv_ComProto_GetType(void)
  65:Service/Srv_ComProto.c **** {
  28              		.loc 1 65 1 view -0
  29              		.cfi_startproc
  30              		@ args = 0, pretend = 0, frame = 0
  31              		@ frame_needed = 0, uses_anonymous_args = 0
  32              		@ link register save eliminated.
  66:Service/Srv_ComProto.c ****     return SrvComProto_monitor.Proto_Type;
  33              		.loc 1 66 5 view .LVU1
  67:Service/Srv_ComProto.c **** }
  34              		.loc 1 67 1 is_stmt 0 view .LVU2
  35 0000 014B     		ldr	r3, .L2
  36 0002 5878     		ldrb	r0, [r3, #1]	@ zero_extendqisi2
  37 0004 7047     		bx	lr
  38              	.L3:
  39 0006 00BF     		.align	2
  40              	.L2:
  41 0008 00000000 		.word	.LANCHOR0
  42              		.cfi_endproc
  43              	.LFE2075:
  45              		.section	.text.SrvComProto_MsgEnable_Control,"ax",%progbits
  46              		.align	1
  47              		.syntax unified
  48              		.thumb
  49              		.thumb_func
ARM GAS  C:\Users\8bit\AppData\Local\Temp\ccCRhmZR.s 			page 3


  51              	SrvComProto_MsgEnable_Control:
  52              	.LVL0:
  53              	.LFB2078:
  68:Service/Srv_ComProto.c **** 
  69:Service/Srv_ComProto.c **** static bool Srv_ComProto_MsgObj_Init(SrvComProto_MsgInfo_TypeDef *msg, SrvComProto_MavPackInfo_Type
  70:Service/Srv_ComProto.c **** {
  71:Service/Srv_ComProto.c ****     if ((msg == NULL) || \
  72:Service/Srv_ComProto.c ****         (period == 0))
  73:Service/Srv_ComProto.c ****         return false;
  74:Service/Srv_ComProto.c **** 
  75:Service/Srv_ComProto.c ****     msg->in_proto = false;
  76:Service/Srv_ComProto.c ****     msg->lock_proto = true;
  77:Service/Srv_ComProto.c **** 
  78:Service/Srv_ComProto.c ****     msg->pck_info = pck_info;
  79:Service/Srv_ComProto.c ****     msg->period = period;
  80:Service/Srv_ComProto.c ****     msg->proto_time = 0;
  81:Service/Srv_ComProto.c **** 
  82:Service/Srv_ComProto.c ****     /* create mavlink message object */
  83:Service/Srv_ComProto.c ****     msg->msg_obj = (mavlink_message_t *)SrvOsCommon.malloc(sizeof(mavlink_message_t));
  84:Service/Srv_ComProto.c **** 
  85:Service/Srv_ComProto.c ****     if (msg->msg_obj == NULL)
  86:Service/Srv_ComProto.c ****     {
  87:Service/Srv_ComProto.c ****         SrvOsCommon.free(msg->msg_obj);
  88:Service/Srv_ComProto.c ****         return false;
  89:Service/Srv_ComProto.c ****     }
  90:Service/Srv_ComProto.c **** 
  91:Service/Srv_ComProto.c ****     memset(msg->msg_obj, 0, sizeof(mavlink_message_t));
  92:Service/Srv_ComProto.c **** 
  93:Service/Srv_ComProto.c ****     /* set mavlink data structure value set function */
  94:Service/Srv_ComProto.c ****     switch ((uint8_t)pck_info.component_id)
  95:Service/Srv_ComProto.c ****     {
  96:Service/Srv_ComProto.c ****     case MAV_CompoID_Attitude:
  97:Service/Srv_ComProto.c ****         msg->pack_callback = To_DataPack_Callback(SrvComProto_MavMsg_Attitude);
  98:Service/Srv_ComProto.c ****         break;
  99:Service/Srv_ComProto.c **** 
 100:Service/Srv_ComProto.c ****     case MAV_CompoID_Exp_Attitude:
 101:Service/Srv_ComProto.c ****         msg->pack_callback = To_DataPack_Callback(SrvComProto_MavMsg_Exp_Attitude);
 102:Service/Srv_ComProto.c ****         break;
 103:Service/Srv_ComProto.c ****     
 104:Service/Srv_ComProto.c ****     case MAV_CompoID_Altitude:
 105:Service/Srv_ComProto.c ****         msg->pack_callback = To_DataPack_Callback(SrvComProto_MavMsg_Altitude);
 106:Service/Srv_ComProto.c ****         break;
 107:Service/Srv_ComProto.c **** 
 108:Service/Srv_ComProto.c ****     case MAV_CompoID_RC_Channel:
 109:Service/Srv_ComProto.c ****         msg->pack_callback = To_DataPack_Callback(SrvConProto_MavMsg_RC);
 110:Service/Srv_ComProto.c ****         break;
 111:Service/Srv_ComProto.c **** 
 112:Service/Srv_ComProto.c ****     case MAV_CompoID_Raw_IMU:
 113:Service/Srv_ComProto.c ****         msg->pack_callback = To_DataPack_Callback(SrvComProto_MavMsg_Raw_IMU);
 114:Service/Srv_ComProto.c ****         break;
 115:Service/Srv_ComProto.c **** 
 116:Service/Srv_ComProto.c ****     case MAV_CompoID_Scaled_IMU:
 117:Service/Srv_ComProto.c ****         msg->pack_callback = To_DataPack_Callback(SrvComProto_MavMsg_Scaled_IMU);
 118:Service/Srv_ComProto.c ****         break;
 119:Service/Srv_ComProto.c **** 
 120:Service/Srv_ComProto.c ****     case MAV_CompoID_MotoCtl:
 121:Service/Srv_ComProto.c ****         break;
ARM GAS  C:\Users\8bit\AppData\Local\Temp\ccCRhmZR.s 			page 4


 122:Service/Srv_ComProto.c **** 
 123:Service/Srv_ComProto.c ****     case MAV_CompoID_ServoCtl:
 124:Service/Srv_ComProto.c ****         break;
 125:Service/Srv_ComProto.c **** 
 126:Service/Srv_ComProto.c ****     default:
 127:Service/Srv_ComProto.c ****         SrvOsCommon.free(msg->msg_obj);
 128:Service/Srv_ComProto.c ****         msg->lock_proto = false;
 129:Service/Srv_ComProto.c ****         return false;
 130:Service/Srv_ComProto.c ****     }
 131:Service/Srv_ComProto.c **** 
 132:Service/Srv_ComProto.c ****     msg->lock_proto = false;
 133:Service/Srv_ComProto.c **** 
 134:Service/Srv_ComProto.c ****     return true;
 135:Service/Srv_ComProto.c **** }
 136:Service/Srv_ComProto.c **** 
 137:Service/Srv_ComProto.c **** static void SrvComProto_MsgToStream(SrvComProto_MsgInfo_TypeDef *msg, SrvComProto_Stream_TypeDef *c
 138:Service/Srv_ComProto.c **** {
 139:Service/Srv_ComProto.c ****     uint32_t sys_time = SrvOsCommon.get_os_ms();
 140:Service/Srv_ComProto.c **** 
 141:Service/Srv_ComProto.c ****     if (msg->enable && com_stream && com_stream->p_buf && msg->pack_callback)
 142:Service/Srv_ComProto.c ****     {
 143:Service/Srv_ComProto.c ****         msg->in_proto = true;
 144:Service/Srv_ComProto.c **** 
 145:Service/Srv_ComProto.c ****         if ((msg->proto_time) && (sys_time - msg->proto_time < msg->period))
 146:Service/Srv_ComProto.c ****         {
 147:Service/Srv_ComProto.c ****             msg->in_proto = false;
 148:Service/Srv_ComProto.c ****             return;
 149:Service/Srv_ComProto.c ****         }
 150:Service/Srv_ComProto.c **** 
 151:Service/Srv_ComProto.c ****         com_stream->size = msg->pack_callback((uint8_t *)msg);
 152:Service/Srv_ComProto.c **** 
 153:Service/Srv_ComProto.c ****         if (com_stream->size && ((com_stream->size + MAVLINK_NUM_NON_PAYLOAD_BYTES) <= com_stream->
 154:Service/Srv_ComProto.c ****         {
 155:Service/Srv_ComProto.c ****             com_stream->size = mavlink_msg_to_send_buffer(com_stream->p_buf, msg->msg_obj);
 156:Service/Srv_ComProto.c **** 
 157:Service/Srv_ComProto.c ****             if (tx_cb)
 158:Service/Srv_ComProto.c ****             {
 159:Service/Srv_ComProto.c ****                 tx_cb(arg, com_stream->p_buf, com_stream->size);
 160:Service/Srv_ComProto.c ****                 msg->proto_cnt ++;
 161:Service/Srv_ComProto.c ****                 memset(com_stream->p_buf, 0, com_stream->size);
 162:Service/Srv_ComProto.c ****             }
 163:Service/Srv_ComProto.c **** 
 164:Service/Srv_ComProto.c ****             msg->proto_time = sys_time;
 165:Service/Srv_ComProto.c ****         }
 166:Service/Srv_ComProto.c **** 
 167:Service/Srv_ComProto.c ****         msg->in_proto = false;
 168:Service/Srv_ComProto.c ****     }
 169:Service/Srv_ComProto.c **** }
 170:Service/Srv_ComProto.c **** 
 171:Service/Srv_ComProto.c **** static bool SrvComProto_MsgEnable_Control(SrvComProto_MsgInfo_TypeDef *msg, bool state)
 172:Service/Srv_ComProto.c **** {
  54              		.loc 1 172 1 is_stmt 1 view -0
  55              		.cfi_startproc
  56              		@ args = 0, pretend = 0, frame = 0
  57              		@ frame_needed = 0, uses_anonymous_args = 0
  58              		@ link register save eliminated.
 173:Service/Srv_ComProto.c ****     if (msg == NULL)
ARM GAS  C:\Users\8bit\AppData\Local\Temp\ccCRhmZR.s 			page 5


  59              		.loc 1 173 5 view .LVU4
  60              		.loc 1 173 8 is_stmt 0 view .LVU5
  61 0000 10B1     		cbz	r0, .L6
 174:Service/Srv_ComProto.c ****         return false;
 175:Service/Srv_ComProto.c **** 
 176:Service/Srv_ComProto.c ****     msg->enable = state;
  62              		.loc 1 176 5 is_stmt 1 view .LVU6
  63              		.loc 1 176 17 is_stmt 0 view .LVU7
  64 0002 0170     		strb	r1, [r0]
 177:Service/Srv_ComProto.c ****     return true;
  65              		.loc 1 177 5 is_stmt 1 view .LVU8
  66              		.loc 1 177 12 is_stmt 0 view .LVU9
  67 0004 0120     		movs	r0, #1
  68              	.LVL1:
  69              		.loc 1 177 12 view .LVU10
  70 0006 7047     		bx	lr
  71              	.LVL2:
  72              	.L6:
 174:Service/Srv_ComProto.c ****         return false;
  73              		.loc 1 174 16 view .LVU11
  74 0008 0020     		movs	r0, #0
  75              	.LVL3:
 178:Service/Srv_ComProto.c **** }
  76              		.loc 1 178 1 view .LVU12
  77 000a 7047     		bx	lr
  78              		.cfi_endproc
  79              	.LFE2078:
  81              		.section	.text.SrvComProto_Set_MavMsgIn_Callback,"ax",%progbits
  82              		.align	1
  83              		.syntax unified
  84              		.thumb
  85              		.thumb_func
  87              	SrvComProto_Set_MavMsgIn_Callback:
  88              	.LVL4:
  89              	.LFB2086:
 179:Service/Srv_ComProto.c **** 
 180:Service/Srv_ComProto.c **** /******************************************* Frame Out ****************************************/
 181:Service/Srv_ComProto.c **** static uint16_t SrvComProto_MavMsg_Raw_IMU(SrvComProto_MsgInfo_TypeDef *pck)
 182:Service/Srv_ComProto.c **** {
 183:Service/Srv_ComProto.c ****     uint32_t time_stamp = 0;
 184:Service/Srv_ComProto.c ****     float acc_scale = 0.0f;
 185:Service/Srv_ComProto.c ****     float gyr_scale = 0.0f;
 186:Service/Srv_ComProto.c ****     float acc_x = 0.0f;
 187:Service/Srv_ComProto.c ****     float acc_y = 0.0f;
 188:Service/Srv_ComProto.c ****     float acc_z = 0.0f;
 189:Service/Srv_ComProto.c ****     float gyr_x = 0.0f;
 190:Service/Srv_ComProto.c ****     float gyr_y = 0.0f;
 191:Service/Srv_ComProto.c ****     float gyr_z = 0.0f;
 192:Service/Srv_ComProto.c ****     float tmpr = 0.0f;
 193:Service/Srv_ComProto.c ****     uint8_t imu_err_code = 0;
 194:Service/Srv_ComProto.c **** 
 195:Service/Srv_ComProto.c ****     SrvDataHub.get_raw_imu(&time_stamp, &acc_scale, &gyr_scale, &acc_x, &acc_y, &acc_z, &gyr_x, &gy
 196:Service/Srv_ComProto.c **** 
 197:Service/Srv_ComProto.c ****     int16_t i_acc_x = (int16_t)(acc_x * acc_scale);
 198:Service/Srv_ComProto.c ****     int16_t i_acc_y = (int16_t)(acc_y * acc_scale);
 199:Service/Srv_ComProto.c ****     int16_t i_acc_z = (int16_t)(acc_z * acc_scale);
 200:Service/Srv_ComProto.c **** 
ARM GAS  C:\Users\8bit\AppData\Local\Temp\ccCRhmZR.s 			page 6


 201:Service/Srv_ComProto.c ****     int16_t i_gyr_x = (int16_t)(gyr_x * gyr_scale);
 202:Service/Srv_ComProto.c ****     int16_t i_gyr_y = (int16_t)(gyr_y * gyr_scale);
 203:Service/Srv_ComProto.c ****     int16_t i_gyr_z = (int16_t)(gyr_z * gyr_scale);
 204:Service/Srv_ComProto.c **** 
 205:Service/Srv_ComProto.c ****     /* we dont have any mag sensor currently */
 206:Service/Srv_ComProto.c ****     return mavlink_msg_scaled_imu_pack_chan(pck->pck_info.system_id,
 207:Service/Srv_ComProto.c ****                                             pck->pck_info.component_id,
 208:Service/Srv_ComProto.c ****                                             pck->pck_info.chan, pck->msg_obj,
 209:Service/Srv_ComProto.c ****                                             time_stamp,
 210:Service/Srv_ComProto.c ****                                             i_acc_x, i_acc_y, i_acc_z,
 211:Service/Srv_ComProto.c ****                                             i_gyr_x, i_gyr_y, i_gyr_z,
 212:Service/Srv_ComProto.c ****                                             0, 0, 0);
 213:Service/Srv_ComProto.c **** }
 214:Service/Srv_ComProto.c **** 
 215:Service/Srv_ComProto.c **** static uint16_t SrvComProto_MavMsg_Scaled_IMU(SrvComProto_MsgInfo_TypeDef *pck)
 216:Service/Srv_ComProto.c **** {
 217:Service/Srv_ComProto.c ****     uint32_t time_stamp = 0;
 218:Service/Srv_ComProto.c ****     float acc_scale = 0.0f;
 219:Service/Srv_ComProto.c ****     float gyr_scale = 0.0f;
 220:Service/Srv_ComProto.c ****     float acc_x = 0.0f;
 221:Service/Srv_ComProto.c ****     float acc_y = 0.0f;
 222:Service/Srv_ComProto.c ****     float acc_z = 0.0f;
 223:Service/Srv_ComProto.c ****     float gyr_x = 0.0f;
 224:Service/Srv_ComProto.c ****     float gyr_y = 0.0f;
 225:Service/Srv_ComProto.c ****     float gyr_z = 0.0f;
 226:Service/Srv_ComProto.c ****     float tmpr = 0.0f;
 227:Service/Srv_ComProto.c ****     uint8_t imu_err_code = 0;
 228:Service/Srv_ComProto.c **** 
 229:Service/Srv_ComProto.c ****     SrvDataHub.get_scaled_imu(&time_stamp, &acc_scale, &gyr_scale, &acc_x, &acc_y, &acc_z, &gyr_x, 
 230:Service/Srv_ComProto.c **** 
 231:Service/Srv_ComProto.c ****     int16_t i_acc_x = (int16_t)(acc_x * acc_scale);
 232:Service/Srv_ComProto.c ****     int16_t i_acc_y = (int16_t)(acc_y * acc_scale);
 233:Service/Srv_ComProto.c ****     int16_t i_acc_z = (int16_t)(acc_z * acc_scale);
 234:Service/Srv_ComProto.c **** 
 235:Service/Srv_ComProto.c ****     int16_t i_gyr_x = (int16_t)(gyr_x * gyr_scale);
 236:Service/Srv_ComProto.c ****     int16_t i_gyr_y = (int16_t)(gyr_y * gyr_scale);
 237:Service/Srv_ComProto.c ****     int16_t i_gyr_z = (int16_t)(gyr_z * gyr_scale);
 238:Service/Srv_ComProto.c **** 
 239:Service/Srv_ComProto.c ****     /* we dont have any mag sensor currently */
 240:Service/Srv_ComProto.c ****     return mavlink_msg_scaled_imu_pack_chan(pck->pck_info.system_id,
 241:Service/Srv_ComProto.c ****                                             pck->pck_info.component_id,
 242:Service/Srv_ComProto.c ****                                             pck->pck_info.chan, pck->msg_obj,
 243:Service/Srv_ComProto.c ****                                             time_stamp,
 244:Service/Srv_ComProto.c ****                                             i_acc_x, i_acc_y, i_acc_z,
 245:Service/Srv_ComProto.c ****                                             i_gyr_x, i_gyr_y, i_gyr_z,
 246:Service/Srv_ComProto.c ****                                             0, 0, 0);
 247:Service/Srv_ComProto.c **** }
 248:Service/Srv_ComProto.c **** 
 249:Service/Srv_ComProto.c **** /* just fot temporary will create custom message in the next */
 250:Service/Srv_ComProto.c **** static uint16_t SrvComProto_MavMsg_Exp_Attitude(SrvComProto_MsgInfo_TypeDef *pck)
 251:Service/Srv_ComProto.c **** {
 252:Service/Srv_ComProto.c ****     uint32_t time = 0;
 253:Service/Srv_ComProto.c ****     float pitch = 0.0f;
 254:Service/Srv_ComProto.c ****     float roll = 0.0f;
 255:Service/Srv_ComProto.c ****     float gx = 0.0f;
 256:Service/Srv_ComProto.c ****     float gy = 0.0f;
 257:Service/Srv_ComProto.c ****     float gz = 0.0f;
ARM GAS  C:\Users\8bit\AppData\Local\Temp\ccCRhmZR.s 			page 7


 258:Service/Srv_ComProto.c ****     uint8_t mode = 0;
 259:Service/Srv_ComProto.c **** 
 260:Service/Srv_ComProto.c ****     SrvDataHub.get_cnv_control_data(&time, NULL, NULL, &mode, &pitch, &roll, &gx, &gy, &gz);
 261:Service/Srv_ComProto.c ****     return mavlink_msg_attitude_pack_chan(pck->pck_info.system_id,
 262:Service/Srv_ComProto.c ****                                           pck->pck_info.component_id,
 263:Service/Srv_ComProto.c ****                                           pck->pck_info.chan, pck->msg_obj,
 264:Service/Srv_ComProto.c ****                                           time, roll, pitch, 0.0f, gx, gy, gz);
 265:Service/Srv_ComProto.c **** }
 266:Service/Srv_ComProto.c **** 
 267:Service/Srv_ComProto.c **** static uint16_t SrvComProto_MavMsg_Attitude(SrvComProto_MsgInfo_TypeDef *pck)
 268:Service/Srv_ComProto.c **** {
 269:Service/Srv_ComProto.c ****     uint32_t time_stamp = 0;
 270:Service/Srv_ComProto.c ****     
 271:Service/Srv_ComProto.c ****     float pitch = 0.0f;
 272:Service/Srv_ComProto.c ****     float roll = 0.0f;
 273:Service/Srv_ComProto.c ****     float yaw = 0.0f;
 274:Service/Srv_ComProto.c **** 
 275:Service/Srv_ComProto.c ****     SrvDataHub.get_attitude(&time_stamp, &pitch, &roll, &yaw, NULL, NULL, NULL, NULL, NULL);
 276:Service/Srv_ComProto.c ****     return mavlink_msg_attitude_pack_chan(pck->pck_info.system_id,
 277:Service/Srv_ComProto.c ****                                           pck->pck_info.component_id,
 278:Service/Srv_ComProto.c ****                                           pck->pck_info.chan, pck->msg_obj,
 279:Service/Srv_ComProto.c ****                                           time_stamp,
 280:Service/Srv_ComProto.c ****                                           roll, pitch, yaw, 
 281:Service/Srv_ComProto.c ****                                           0.0f, 0.0f, 0.0f);
 282:Service/Srv_ComProto.c **** }
 283:Service/Srv_ComProto.c **** 
 284:Service/Srv_ComProto.c **** static uint16_t SrvConProto_MavMsg_RC(SrvComProto_MsgInfo_TypeDef *pck)
 285:Service/Srv_ComProto.c **** {
 286:Service/Srv_ComProto.c ****     ControlData_TypeDef inuse_ctldata;
 287:Service/Srv_ComProto.c **** 
 288:Service/Srv_ComProto.c ****     memset(&inuse_ctldata, 0, sizeof(ControlData_TypeDef));
 289:Service/Srv_ComProto.c ****     SrvDataHub.get_rc_control_data(&inuse_ctldata);
 290:Service/Srv_ComProto.c **** 
 291:Service/Srv_ComProto.c ****     return mavlink_msg_rc_channels_pack_chan(pck->pck_info.system_id,
 292:Service/Srv_ComProto.c ****                                              pck->pck_info.component_id,
 293:Service/Srv_ComProto.c ****                                              pck->pck_info.chan, pck->msg_obj,
 294:Service/Srv_ComProto.c ****                                              inuse_ctldata.update_time_stamp, 
 295:Service/Srv_ComProto.c ****                                              inuse_ctldata.channel_sum,
 296:Service/Srv_ComProto.c ****                                              inuse_ctldata.all_ch[0],  inuse_ctldata.all_ch[1],  in
 297:Service/Srv_ComProto.c ****                                              inuse_ctldata.all_ch[4],  inuse_ctldata.all_ch[5],  in
 298:Service/Srv_ComProto.c ****                                              inuse_ctldata.all_ch[8],  inuse_ctldata.all_ch[9],  in
 299:Service/Srv_ComProto.c ****                                              inuse_ctldata.all_ch[12], inuse_ctldata.all_ch[13], in
 300:Service/Srv_ComProto.c ****                                              inuse_ctldata.all_ch[16], inuse_ctldata.all_ch[17], in
 301:Service/Srv_ComProto.c **** }
 302:Service/Srv_ComProto.c **** 
 303:Service/Srv_ComProto.c **** static uint16_t SrvComProto_MavMsg_Altitude(SrvComProto_MsgInfo_TypeDef *pck)
 304:Service/Srv_ComProto.c **** {
 305:Service/Srv_ComProto.c ****     uint32_t time_stamp = 0;
 306:Service/Srv_ComProto.c ****     uint8_t error = 0;
 307:Service/Srv_ComProto.c ****     float baro_pressure = 0.0f;
 308:Service/Srv_ComProto.c ****     float baro_alt = 0.0f;
 309:Service/Srv_ComProto.c ****     float baro_alt_offset = 0.0f;
 310:Service/Srv_ComProto.c ****     float baro_tempra = 0.0f;
 311:Service/Srv_ComProto.c **** 
 312:Service/Srv_ComProto.c ****     SrvDataHub.get_baro_altitude(&time_stamp, &baro_pressure, &baro_alt, &baro_alt_offset, &baro_te
 313:Service/Srv_ComProto.c **** 
 314:Service/Srv_ComProto.c ****     return mavlink_msg_altitude_pack_chan(pck->pck_info.system_id,
ARM GAS  C:\Users\8bit\AppData\Local\Temp\ccCRhmZR.s 			page 8


 315:Service/Srv_ComProto.c ****                                           pck->pck_info.component_id,
 316:Service/Srv_ComProto.c ****                                           pck->pck_info.chan, pck->msg_obj,
 317:Service/Srv_ComProto.c ****                                           time_stamp,
 318:Service/Srv_ComProto.c ****                                           baro_alt, baro_pressure, 0, 0, 0, 0);
 319:Service/Srv_ComProto.c **** }
 320:Service/Srv_ComProto.c **** 
 321:Service/Srv_ComProto.c **** /******************************************* Frame Out ****************************************/
 322:Service/Srv_ComProto.c **** /******************************************* Frame In  ****************************************/
 323:Service/Srv_ComProto.c **** static void SrvComProto_MavMsg_Ack(SrvComProto_MsgObj_TypeDef *obj, uint16_t sys_id, uint16_t compo
 324:Service/Srv_ComProto.c **** {
 325:Service/Srv_ComProto.c ****     if (obj)
 326:Service/Srv_ComProto.c ****     {
 327:Service/Srv_ComProto.c **** 
 328:Service/Srv_ComProto.c ****     }
 329:Service/Srv_ComProto.c **** }
 330:Service/Srv_ComProto.c **** 
 331:Service/Srv_ComProto.c **** static void SrvComProto_Set_MavMsgIn_Callback(SrvComProto_MsgObj_TypeDef *obj, SrvComProto_MavInMsg
 332:Service/Srv_ComProto.c **** {
  90              		.loc 1 332 1 is_stmt 1 view -0
  91              		.cfi_startproc
  92              		@ args = 0, pretend = 0, frame = 0
  93              		@ frame_needed = 0, uses_anonymous_args = 0
  94              		@ link register save eliminated.
 333:Service/Srv_ComProto.c ****     if (obj && p_cus_data)
  95              		.loc 1 333 5 view .LVU14
  96              		.loc 1 333 8 is_stmt 0 view .LVU15
  97 0000 8446     		mov	ip, r0
  98 0002 F8B1     		cbz	r0, .L7
  99              		.loc 1 333 13 discriminator 1 view .LVU16
 100 0004 F3B1     		cbz	r3, .L7
 334:Service/Srv_ComProto.c ****     {
 335:Service/Srv_ComProto.c ****         switch ((uint8_t)type)
 101              		.loc 1 335 9 is_stmt 1 view .LVU17
 102 0006 0429     		cmp	r1, #4
 103 0008 1CD8     		bhi	.L7
 104 000a DFE801F0 		tbb	[pc, r1]
 105              	.LVL5:
 106              	.L10:
 107 000e 03       		.byte	(.L14-.L10)/2
 108 000f 08       		.byte	(.L13-.L10)/2
 109 0010 0D       		.byte	(.L12-.L10)/2
 110 0011 12       		.byte	(.L11-.L10)/2
 111 0012 17       		.byte	(.L9-.L10)/2
 112 0013 00       		.p2align 1
 113              	.L14:
 336:Service/Srv_ComProto.c ****         {
 337:Service/Srv_ComProto.c ****             case MavIn_Msg_Gyr:         obj->MavMsg_Gyr_Callback         = callback; obj->cus_p_gyr
 114              		.loc 1 337 41 view .LVU18
 115              		.loc 1 337 74 is_stmt 0 view .LVU19
 116 0014 CCF86420 		str	r2, [ip, #100]
 117              		.loc 1 337 86 is_stmt 1 view .LVU20
 118              		.loc 1 337 109 is_stmt 0 view .LVU21
 119 0018 CCF80430 		str	r3, [ip, #4]
 120              		.loc 1 337 123 is_stmt 1 view .LVU22
 121              		.loc 1 337 13 is_stmt 0 view .LVU23
 122 001c 7047     		bx	lr
 123              	.L13:
ARM GAS  C:\Users\8bit\AppData\Local\Temp\ccCRhmZR.s 			page 9


 338:Service/Srv_ComProto.c ****             case MavIn_Msg_Att:         obj->MavMsg_Att_Callback         = callback; obj->cus_p_att
 124              		.loc 1 338 41 is_stmt 1 view .LVU24
 125              		.loc 1 338 74 is_stmt 0 view .LVU25
 126 001e CCF86820 		str	r2, [ip, #104]
 127              		.loc 1 338 86 is_stmt 1 view .LVU26
 128              		.loc 1 338 109 is_stmt 0 view .LVU27
 129 0022 CCF80830 		str	r3, [ip, #8]
 130              		.loc 1 338 123 is_stmt 1 view .LVU28
 131              		.loc 1 338 13 is_stmt 0 view .LVU29
 132 0026 7047     		bx	lr
 133              	.L12:
 339:Service/Srv_ComProto.c ****             case MavIn_Msg_Alt:         obj->MavMsg_Alt_Callback         = callback; obj->cus_p_alt
 134              		.loc 1 339 41 is_stmt 1 view .LVU30
 135              		.loc 1 339 74 is_stmt 0 view .LVU31
 136 0028 CCF86C20 		str	r2, [ip, #108]
 137              		.loc 1 339 86 is_stmt 1 view .LVU32
 138              		.loc 1 339 109 is_stmt 0 view .LVU33
 139 002c CCF80C30 		str	r3, [ip, #12]
 140              		.loc 1 339 123 is_stmt 1 view .LVU34
 141              		.loc 1 339 13 is_stmt 0 view .LVU35
 142 0030 7047     		bx	lr
 143              	.L11:
 340:Service/Srv_ComProto.c ****             case MavIn_Msg_RC:          obj->MavMsg_RC_Callback          = callback; obj->cus_p_RC 
 144              		.loc 1 340 41 is_stmt 1 view .LVU36
 145              		.loc 1 340 74 is_stmt 0 view .LVU37
 146 0032 CCF87020 		str	r2, [ip, #112]
 147              		.loc 1 340 86 is_stmt 1 view .LVU38
 148              		.loc 1 340 109 is_stmt 0 view .LVU39
 149 0036 CCF81030 		str	r3, [ip, #16]
 150              		.loc 1 340 123 is_stmt 1 view .LVU40
 151              		.loc 1 340 13 is_stmt 0 view .LVU41
 152 003a 7047     		bx	lr
 153              	.L9:
 341:Service/Srv_ComProto.c ****             case MavIn_Msg_MotoCtl:     obj->MavMsg_MotoCtl_Callback     = callback; obj->cus_p_mot
 154              		.loc 1 341 41 is_stmt 1 view .LVU42
 155              		.loc 1 341 74 is_stmt 0 view .LVU43
 156 003c CCF87420 		str	r2, [ip, #116]
 157              		.loc 1 341 86 is_stmt 1 view .LVU44
 158              		.loc 1 341 109 is_stmt 0 view .LVU45
 159 0040 CCF81430 		str	r3, [ip, #20]
 160              		.loc 1 341 123 is_stmt 1 view .LVU46
 161              	.L7:
 342:Service/Srv_ComProto.c ****             default: break;
 343:Service/Srv_ComProto.c ****         }
 344:Service/Srv_ComProto.c ****     }
 345:Service/Srv_ComProto.c **** }
 162              		.loc 1 345 1 is_stmt 0 view .LVU47
 163 0044 7047     		bx	lr
 164              		.cfi_endproc
 165              	.LFE2086:
 167              		.section	.text.Srv_ComProto_MsgObj_Init,"ax",%progbits
 168              		.align	1
 169              		.syntax unified
 170              		.thumb
 171              		.thumb_func
 173              	Srv_ComProto_MsgObj_Init:
 174              	.LVL6:
ARM GAS  C:\Users\8bit\AppData\Local\Temp\ccCRhmZR.s 			page 10


 175              	.LFB2076:
  70:Service/Srv_ComProto.c ****     if ((msg == NULL) || \
 176              		.loc 1 70 1 is_stmt 1 view -0
 177              		.cfi_startproc
 178              		@ args = 0, pretend = 0, frame = 8
 179              		@ frame_needed = 0, uses_anonymous_args = 0
  70:Service/Srv_ComProto.c ****     if ((msg == NULL) || \
 180              		.loc 1 70 1 is_stmt 0 view .LVU49
 181 0000 10B5     		push	{r4, lr}
 182              	.LCFI0:
 183              		.cfi_def_cfa_offset 8
 184              		.cfi_offset 4, -8
 185              		.cfi_offset 14, -4
 186 0002 82B0     		sub	sp, sp, #8
 187              	.LCFI1:
 188              		.cfi_def_cfa_offset 16
 189 0004 0191     		str	r1, [sp, #4]
  71:Service/Srv_ComProto.c ****         (period == 0))
 190              		.loc 1 71 5 is_stmt 1 view .LVU50
  71:Service/Srv_ComProto.c ****         (period == 0))
 191              		.loc 1 71 8 is_stmt 0 view .LVU51
 192 0006 0028     		cmp	r0, #0
 193 0008 46D0     		beq	.L27
 194 000a 0446     		mov	r4, r0
  71:Service/Srv_ComProto.c ****         (period == 0))
 195              		.loc 1 71 23 discriminator 1 view .LVU52
 196 000c 002A     		cmp	r2, #0
 197 000e 45D0     		beq	.L28
  75:Service/Srv_ComProto.c ****     msg->lock_proto = true;
 198              		.loc 1 75 5 is_stmt 1 view .LVU53
  75:Service/Srv_ComProto.c ****     msg->lock_proto = true;
 199              		.loc 1 75 19 is_stmt 0 view .LVU54
 200 0010 0021     		movs	r1, #0
 201 0012 0176     		strb	r1, [r0, #24]
  76:Service/Srv_ComProto.c **** 
 202              		.loc 1 76 5 is_stmt 1 view .LVU55
  76:Service/Srv_ComProto.c **** 
 203              		.loc 1 76 21 is_stmt 0 view .LVU56
 204 0014 0123     		movs	r3, #1
 205 0016 4376     		strb	r3, [r0, #25]
  78:Service/Srv_ComProto.c ****     msg->period = period;
 206              		.loc 1 78 5 is_stmt 1 view .LVU57
  78:Service/Srv_ComProto.c ****     msg->period = period;
 207              		.loc 1 78 19 is_stmt 0 view .LVU58
 208 0018 019B     		ldr	r3, [sp, #4]
 209 001a 0381     		strh	r3, [r0, #8]	@ movhi
 210 001c 1B0C     		lsrs	r3, r3, #16
 211 001e 8372     		strb	r3, [r0, #10]
  79:Service/Srv_ComProto.c ****     msg->proto_time = 0;
 212              		.loc 1 79 5 is_stmt 1 view .LVU59
  79:Service/Srv_ComProto.c ****     msg->proto_time = 0;
 213              		.loc 1 79 17 is_stmt 0 view .LVU60
 214 0020 4280     		strh	r2, [r0, #2]	@ movhi
  80:Service/Srv_ComProto.c **** 
 215              		.loc 1 80 5 is_stmt 1 view .LVU61
  80:Service/Srv_ComProto.c **** 
 216              		.loc 1 80 21 is_stmt 0 view .LVU62
ARM GAS  C:\Users\8bit\AppData\Local\Temp\ccCRhmZR.s 			page 11


 217 0022 4161     		str	r1, [r0, #20]
  83:Service/Srv_ComProto.c **** 
 218              		.loc 1 83 5 is_stmt 1 view .LVU63
  83:Service/Srv_ComProto.c **** 
 219              		.loc 1 83 52 is_stmt 0 view .LVU64
 220 0024 1E4B     		ldr	r3, .L31
 221 0026 DB6A     		ldr	r3, [r3, #44]
  83:Service/Srv_ComProto.c **** 
 222              		.loc 1 83 41 view .LVU65
 223 0028 4FF48870 		mov	r0, #272
 224              	.LVL7:
  83:Service/Srv_ComProto.c **** 
 225              		.loc 1 83 41 view .LVU66
 226 002c 9847     		blx	r3
 227              	.LVL8:
  83:Service/Srv_ComProto.c **** 
 228              		.loc 1 83 18 view .LVU67
 229 002e E060     		str	r0, [r4, #12]
  85:Service/Srv_ComProto.c ****     {
 230              		.loc 1 85 5 is_stmt 1 view .LVU68
  85:Service/Srv_ComProto.c ****     {
 231              		.loc 1 85 8 is_stmt 0 view .LVU69
 232 0030 80B1     		cbz	r0, .L30
  91:Service/Srv_ComProto.c **** 
 233              		.loc 1 91 5 is_stmt 1 view .LVU70
 234 0032 4FF48872 		mov	r2, #272
 235 0036 0021     		movs	r1, #0
 236 0038 FFF7FEFF 		bl	memset
 237              	.LVL9:
  94:Service/Srv_ComProto.c ****     {
 238              		.loc 1 94 5 view .LVU71
  94:Service/Srv_ComProto.c ****     {
 239              		.loc 1 94 30 is_stmt 0 view .LVU72
 240 003c 9DF80530 		ldrb	r3, [sp, #5]	@ zero_extendqisi2
  94:Service/Srv_ComProto.c ****     {
 241              		.loc 1 94 5 view .LVU73
 242 0040 013B     		subs	r3, r3, #1
 243 0042 092B     		cmp	r3, #9
 244 0044 21D8     		bhi	.L18
 245 0046 DFE803F0 		tbb	[pc, r3]
 246              	.L20:
 247 004a 1A       		.byte	(.L26-.L20)/2
 248 004b 1D       		.byte	(.L25-.L20)/2
 249 004c 20       		.byte	(.L18-.L20)/2
 250 004d 20       		.byte	(.L18-.L20)/2
 251 004e 0A       		.byte	(.L24-.L20)/2
 252 004f 11       		.byte	(.L23-.L20)/2
 253 0050 14       		.byte	(.L22-.L20)/2
 254 0051 17       		.byte	(.L21-.L20)/2
 255 0052 0C       		.byte	(.L19-.L20)/2
 256 0053 0C       		.byte	(.L19-.L20)/2
 257              		.p2align 1
 258              	.L30:
  87:Service/Srv_ComProto.c ****         return false;
 259              		.loc 1 87 9 is_stmt 1 view .LVU74
  87:Service/Srv_ComProto.c ****         return false;
 260              		.loc 1 87 20 is_stmt 0 view .LVU75
ARM GAS  C:\Users\8bit\AppData\Local\Temp\ccCRhmZR.s 			page 12


 261 0054 124B     		ldr	r3, .L31
 262 0056 1B6B     		ldr	r3, [r3, #48]
  87:Service/Srv_ComProto.c ****         return false;
 263              		.loc 1 87 9 view .LVU76
 264 0058 9847     		blx	r3
 265              	.LVL10:
  88:Service/Srv_ComProto.c ****     }
 266              		.loc 1 88 9 is_stmt 1 view .LVU77
  88:Service/Srv_ComProto.c ****     }
 267              		.loc 1 88 16 is_stmt 0 view .LVU78
 268 005a 0020     		movs	r0, #0
 269 005c 04E0     		b	.L16
 270              	.L24:
  97:Service/Srv_ComProto.c ****         break;
 271              		.loc 1 97 9 is_stmt 1 view .LVU79
  97:Service/Srv_ComProto.c ****         break;
 272              		.loc 1 97 28 is_stmt 0 view .LVU80
 273 005e 114B     		ldr	r3, .L31+4
 274 0060 2361     		str	r3, [r4, #16]
  98:Service/Srv_ComProto.c **** 
 275              		.loc 1 98 9 is_stmt 1 view .LVU81
 276              	.L19:
 132:Service/Srv_ComProto.c **** 
 277              		.loc 1 132 5 view .LVU82
 132:Service/Srv_ComProto.c **** 
 278              		.loc 1 132 21 is_stmt 0 view .LVU83
 279 0062 0023     		movs	r3, #0
 280 0064 6376     		strb	r3, [r4, #25]
 134:Service/Srv_ComProto.c **** }
 281              		.loc 1 134 5 is_stmt 1 view .LVU84
 134:Service/Srv_ComProto.c **** }
 282              		.loc 1 134 12 is_stmt 0 view .LVU85
 283 0066 0120     		movs	r0, #1
 284              	.LVL11:
 285              	.L16:
 135:Service/Srv_ComProto.c **** 
 286              		.loc 1 135 1 view .LVU86
 287 0068 02B0     		add	sp, sp, #8
 288              	.LCFI2:
 289              		.cfi_remember_state
 290              		.cfi_def_cfa_offset 8
 291              		@ sp needed
 292 006a 10BD     		pop	{r4, pc}
 293              	.LVL12:
 294              	.L23:
 295              	.LCFI3:
 296              		.cfi_restore_state
 101:Service/Srv_ComProto.c ****         break;
 297              		.loc 1 101 9 is_stmt 1 view .LVU87
 101:Service/Srv_ComProto.c ****         break;
 298              		.loc 1 101 28 is_stmt 0 view .LVU88
 299 006c 0E4B     		ldr	r3, .L31+8
 300 006e 2361     		str	r3, [r4, #16]
 102:Service/Srv_ComProto.c ****     
 301              		.loc 1 102 9 is_stmt 1 view .LVU89
 302 0070 F7E7     		b	.L19
 303              	.L22:
ARM GAS  C:\Users\8bit\AppData\Local\Temp\ccCRhmZR.s 			page 13


 105:Service/Srv_ComProto.c ****         break;
 304              		.loc 1 105 9 view .LVU90
 105:Service/Srv_ComProto.c ****         break;
 305              		.loc 1 105 28 is_stmt 0 view .LVU91
 306 0072 0E4B     		ldr	r3, .L31+12
 307 0074 2361     		str	r3, [r4, #16]
 106:Service/Srv_ComProto.c **** 
 308              		.loc 1 106 9 is_stmt 1 view .LVU92
 309 0076 F4E7     		b	.L19
 310              	.L21:
 109:Service/Srv_ComProto.c ****         break;
 311              		.loc 1 109 9 view .LVU93
 109:Service/Srv_ComProto.c ****         break;
 312              		.loc 1 109 28 is_stmt 0 view .LVU94
 313 0078 0D4B     		ldr	r3, .L31+16
 314 007a 2361     		str	r3, [r4, #16]
 110:Service/Srv_ComProto.c **** 
 315              		.loc 1 110 9 is_stmt 1 view .LVU95
 316 007c F1E7     		b	.L19
 317              	.L26:
 113:Service/Srv_ComProto.c ****         break;
 318              		.loc 1 113 9 view .LVU96
 113:Service/Srv_ComProto.c ****         break;
 319              		.loc 1 113 28 is_stmt 0 view .LVU97
 320 007e 0D4B     		ldr	r3, .L31+20
 321 0080 2361     		str	r3, [r4, #16]
 114:Service/Srv_ComProto.c **** 
 322              		.loc 1 114 9 is_stmt 1 view .LVU98
 323 0082 EEE7     		b	.L19
 324              	.L25:
 117:Service/Srv_ComProto.c ****         break;
 325              		.loc 1 117 9 view .LVU99
 117:Service/Srv_ComProto.c ****         break;
 326              		.loc 1 117 28 is_stmt 0 view .LVU100
 327 0084 0C4B     		ldr	r3, .L31+24
 328 0086 2361     		str	r3, [r4, #16]
 118:Service/Srv_ComProto.c **** 
 329              		.loc 1 118 9 is_stmt 1 view .LVU101
 330 0088 EBE7     		b	.L19
 331              	.L18:
 127:Service/Srv_ComProto.c ****         msg->lock_proto = false;
 332              		.loc 1 127 9 view .LVU102
 127:Service/Srv_ComProto.c ****         msg->lock_proto = false;
 333              		.loc 1 127 20 is_stmt 0 view .LVU103
 334 008a 054B     		ldr	r3, .L31
 335 008c 1B6B     		ldr	r3, [r3, #48]
 127:Service/Srv_ComProto.c ****         msg->lock_proto = false;
 336              		.loc 1 127 9 view .LVU104
 337 008e E068     		ldr	r0, [r4, #12]
 338 0090 9847     		blx	r3
 339              	.LVL13:
 128:Service/Srv_ComProto.c ****         return false;
 340              		.loc 1 128 9 is_stmt 1 view .LVU105
 128:Service/Srv_ComProto.c ****         return false;
 341              		.loc 1 128 25 is_stmt 0 view .LVU106
 342 0092 0020     		movs	r0, #0
 343 0094 6076     		strb	r0, [r4, #25]
ARM GAS  C:\Users\8bit\AppData\Local\Temp\ccCRhmZR.s 			page 14


 129:Service/Srv_ComProto.c ****     }
 344              		.loc 1 129 9 is_stmt 1 view .LVU107
 129:Service/Srv_ComProto.c ****     }
 345              		.loc 1 129 16 is_stmt 0 view .LVU108
 346 0096 E7E7     		b	.L16
 347              	.LVL14:
 348              	.L27:
  73:Service/Srv_ComProto.c **** 
 349              		.loc 1 73 16 view .LVU109
 350 0098 0020     		movs	r0, #0
 351              	.LVL15:
  73:Service/Srv_ComProto.c **** 
 352              		.loc 1 73 16 view .LVU110
 353 009a E5E7     		b	.L16
 354              	.LVL16:
 355              	.L28:
  73:Service/Srv_ComProto.c **** 
 356              		.loc 1 73 16 view .LVU111
 357 009c 0020     		movs	r0, #0
 358              	.LVL17:
  73:Service/Srv_ComProto.c **** 
 359              		.loc 1 73 16 view .LVU112
 360 009e E3E7     		b	.L16
 361              	.L32:
 362              		.align	2
 363              	.L31:
 364 00a0 00000000 		.word	SrvOsCommon
 365 00a4 00000000 		.word	SrvComProto_MavMsg_Attitude
 366 00a8 00000000 		.word	SrvComProto_MavMsg_Exp_Attitude
 367 00ac 00000000 		.word	SrvComProto_MavMsg_Altitude
 368 00b0 00000000 		.word	SrvConProto_MavMsg_RC
 369 00b4 00000000 		.word	SrvComProto_MavMsg_Raw_IMU
 370 00b8 00000000 		.word	SrvComProto_MavMsg_Scaled_IMU
 371              		.cfi_endproc
 372              	.LFE2076:
 374              		.section	.text.Srv_ComProto_Init,"ax",%progbits
 375              		.align	1
 376              		.syntax unified
 377              		.thumb
 378              		.thumb_func
 380              	Srv_ComProto_Init:
 381              	.LVL18:
 382              	.LFB2074:
  48:Service/Srv_ComProto.c ****     UNUSED(arg);
 383              		.loc 1 48 1 is_stmt 1 view -0
 384              		.cfi_startproc
 385              		@ args = 0, pretend = 0, frame = 0
 386              		@ frame_needed = 0, uses_anonymous_args = 0
  49:Service/Srv_ComProto.c **** 
 387              		.loc 1 49 5 view .LVU114
  52:Service/Srv_ComProto.c ****         return true;
 388              		.loc 1 52 5 view .LVU115
  52:Service/Srv_ComProto.c ****         return true;
 389              		.loc 1 52 28 is_stmt 0 view .LVU116
 390 0000 084B     		ldr	r3, .L39
 391 0002 1B78     		ldrb	r3, [r3]	@ zero_extendqisi2
  52:Service/Srv_ComProto.c ****         return true;
ARM GAS  C:\Users\8bit\AppData\Local\Temp\ccCRhmZR.s 			page 15


 392              		.loc 1 52 8 view .LVU117
 393 0004 63B9     		cbnz	r3, .L36
  48:Service/Srv_ComProto.c ****     UNUSED(arg);
 394              		.loc 1 48 1 view .LVU118
 395 0006 10B5     		push	{r4, lr}
 396              	.LCFI4:
 397              		.cfi_def_cfa_offset 8
 398              		.cfi_offset 4, -8
 399              		.cfi_offset 14, -4
 400 0008 0446     		mov	r4, r0
  55:Service/Srv_ComProto.c **** 
 401              		.loc 1 55 5 is_stmt 1 view .LVU119
  55:Service/Srv_ComProto.c **** 
 402              		.loc 1 55 15 is_stmt 0 view .LVU120
 403 000a 074B     		ldr	r3, .L39+4
 404 000c 1B68     		ldr	r3, [r3]
  55:Service/Srv_ComProto.c **** 
 405              		.loc 1 55 5 view .LVU121
 406 000e 9847     		blx	r3
 407              	.LVL19:
  57:Service/Srv_ComProto.c ****     SrvComProto_monitor.Proto_Type = type;
 408              		.loc 1 57 5 is_stmt 1 view .LVU122
 409 0010 044B     		ldr	r3, .L39
 410 0012 0022     		movs	r2, #0
 411 0014 1A80     		strh	r2, [r3]	@ movhi
  58:Service/Srv_ComProto.c ****     SrvComProto_monitor.init_state = true;
 412              		.loc 1 58 5 view .LVU123
  58:Service/Srv_ComProto.c ****     SrvComProto_monitor.init_state = true;
 413              		.loc 1 58 36 is_stmt 0 view .LVU124
 414 0016 5C70     		strb	r4, [r3, #1]
  59:Service/Srv_ComProto.c **** 
 415              		.loc 1 59 5 is_stmt 1 view .LVU125
  59:Service/Srv_ComProto.c **** 
 416              		.loc 1 59 36 is_stmt 0 view .LVU126
 417 0018 0122     		movs	r2, #1
 418 001a 1A70     		strb	r2, [r3]
  61:Service/Srv_ComProto.c **** }
 419              		.loc 1 61 5 is_stmt 1 view .LVU127
  62:Service/Srv_ComProto.c **** 
 420              		.loc 1 62 1 is_stmt 0 view .LVU128
 421 001c 0120     		movs	r0, #1
 422 001e 10BD     		pop	{r4, pc}
 423              	.LVL20:
 424              	.L36:
 425              	.LCFI5:
 426              		.cfi_def_cfa_offset 0
 427              		.cfi_restore 4
 428              		.cfi_restore 14
  62:Service/Srv_ComProto.c **** 
 429              		.loc 1 62 1 view .LVU129
 430 0020 0120     		movs	r0, #1
 431              	.LVL21:
  62:Service/Srv_ComProto.c **** 
 432              		.loc 1 62 1 view .LVU130
 433 0022 7047     		bx	lr
 434              	.L40:
 435              		.align	2
ARM GAS  C:\Users\8bit\AppData\Local\Temp\ccCRhmZR.s 			page 16


 436              	.L39:
 437 0024 00000000 		.word	.LANCHOR0
 438 0028 00000000 		.word	SrvDataHub
 439              		.cfi_endproc
 440              	.LFE2074:
 442              		.section	.text.SrvComProto_MsgToStream,"ax",%progbits
 443              		.align	1
 444              		.syntax unified
 445              		.thumb
 446              		.thumb_func
 448              	SrvComProto_MsgToStream:
 449              	.LVL22:
 450              	.LFB2077:
 138:Service/Srv_ComProto.c ****     uint32_t sys_time = SrvOsCommon.get_os_ms();
 451              		.loc 1 138 1 is_stmt 1 view -0
 452              		.cfi_startproc
 453              		@ args = 0, pretend = 0, frame = 0
 454              		@ frame_needed = 0, uses_anonymous_args = 0
 138:Service/Srv_ComProto.c ****     uint32_t sys_time = SrvOsCommon.get_os_ms();
 455              		.loc 1 138 1 is_stmt 0 view .LVU132
 456 0000 2DE9F047 		push	{r4, r5, r6, r7, r8, r9, r10, lr}
 457              	.LCFI6:
 458              		.cfi_def_cfa_offset 32
 459              		.cfi_offset 4, -32
 460              		.cfi_offset 5, -28
 461              		.cfi_offset 6, -24
 462              		.cfi_offset 7, -20
 463              		.cfi_offset 8, -16
 464              		.cfi_offset 9, -12
 465              		.cfi_offset 10, -8
 466              		.cfi_offset 14, -4
 467 0004 0446     		mov	r4, r0
 468 0006 0D46     		mov	r5, r1
 469 0008 9046     		mov	r8, r2
 470 000a 1F46     		mov	r7, r3
 139:Service/Srv_ComProto.c **** 
 471              		.loc 1 139 5 is_stmt 1 view .LVU133
 139:Service/Srv_ComProto.c **** 
 472              		.loc 1 139 36 is_stmt 0 view .LVU134
 473 000c 264B     		ldr	r3, .L49
 474              	.LVL23:
 139:Service/Srv_ComProto.c **** 
 475              		.loc 1 139 36 view .LVU135
 476 000e 5B68     		ldr	r3, [r3, #4]
 139:Service/Srv_ComProto.c **** 
 477              		.loc 1 139 25 view .LVU136
 478 0010 9847     		blx	r3
 479              	.LVL24:
 141:Service/Srv_ComProto.c ****     {
 480              		.loc 1 141 5 is_stmt 1 view .LVU137
 141:Service/Srv_ComProto.c ****     {
 481              		.loc 1 141 12 is_stmt 0 view .LVU138
 482 0012 2178     		ldrb	r1, [r4]	@ zero_extendqisi2
 141:Service/Srv_ComProto.c ****     {
 483              		.loc 1 141 8 view .LVU139
 484 0014 B9B1     		cbz	r1, .L41
 485 0016 0646     		mov	r6, r0
ARM GAS  C:\Users\8bit\AppData\Local\Temp\ccCRhmZR.s 			page 17


 141:Service/Srv_ComProto.c ****     {
 486              		.loc 1 141 21 discriminator 1 view .LVU140
 487 0018 ADB1     		cbz	r5, .L41
 141:Service/Srv_ComProto.c ****     {
 488              		.loc 1 141 48 discriminator 2 view .LVU141
 489 001a 2B68     		ldr	r3, [r5]
 141:Service/Srv_ComProto.c ****     {
 490              		.loc 1 141 35 discriminator 2 view .LVU142
 491 001c 9BB1     		cbz	r3, .L41
 141:Service/Srv_ComProto.c ****     {
 492              		.loc 1 141 62 discriminator 3 view .LVU143
 493 001e 2369     		ldr	r3, [r4, #16]
 141:Service/Srv_ComProto.c ****     {
 494              		.loc 1 141 56 discriminator 3 view .LVU144
 495 0020 8BB1     		cbz	r3, .L41
 143:Service/Srv_ComProto.c **** 
 496              		.loc 1 143 9 is_stmt 1 view .LVU145
 143:Service/Srv_ComProto.c **** 
 497              		.loc 1 143 23 is_stmt 0 view .LVU146
 498 0022 0122     		movs	r2, #1
 499 0024 2276     		strb	r2, [r4, #24]
 145:Service/Srv_ComProto.c ****         {
 500              		.loc 1 145 9 is_stmt 1 view .LVU147
 145:Service/Srv_ComProto.c ****         {
 501              		.loc 1 145 17 is_stmt 0 view .LVU148
 502 0026 6269     		ldr	r2, [r4, #20]
 145:Service/Srv_ComProto.c ****         {
 503              		.loc 1 145 12 view .LVU149
 504 0028 1AB1     		cbz	r2, .L43
 145:Service/Srv_ComProto.c ****         {
 505              		.loc 1 145 44 discriminator 1 view .LVU150
 506 002a 821A     		subs	r2, r0, r2
 145:Service/Srv_ComProto.c ****         {
 507              		.loc 1 145 67 discriminator 1 view .LVU151
 508 002c 6188     		ldrh	r1, [r4, #2]
 145:Service/Srv_ComProto.c ****         {
 509              		.loc 1 145 31 discriminator 1 view .LVU152
 510 002e 8A42     		cmp	r2, r1
 511 0030 0BD3     		bcc	.L47
 512              	.L43:
 151:Service/Srv_ComProto.c **** 
 513              		.loc 1 151 9 is_stmt 1 view .LVU153
 151:Service/Srv_ComProto.c **** 
 514              		.loc 1 151 28 is_stmt 0 view .LVU154
 515 0032 2046     		mov	r0, r4
 516              	.LVL25:
 151:Service/Srv_ComProto.c **** 
 517              		.loc 1 151 28 view .LVU155
 518 0034 9847     		blx	r3
 519              	.LVL26:
 151:Service/Srv_ComProto.c **** 
 520              		.loc 1 151 26 view .LVU156
 521 0036 A880     		strh	r0, [r5, #4]	@ movhi
 153:Service/Srv_ComProto.c ****         {
 522              		.loc 1 153 9 is_stmt 1 view .LVU157
 153:Service/Srv_ComProto.c ****         {
 523              		.loc 1 153 12 is_stmt 0 view .LVU158
ARM GAS  C:\Users\8bit\AppData\Local\Temp\ccCRhmZR.s 			page 18


 524 0038 18B1     		cbz	r0, .L44
 153:Service/Srv_ComProto.c ****         {
 525              		.loc 1 153 85 discriminator 1 view .LVU159
 526 003a 0730     		adds	r0, r0, #7
 153:Service/Srv_ComProto.c ****         {
 527              		.loc 1 153 98 discriminator 1 view .LVU160
 528 003c EB88     		ldrh	r3, [r5, #6]
 153:Service/Srv_ComProto.c ****         {
 529              		.loc 1 153 30 discriminator 1 view .LVU161
 530 003e 9842     		cmp	r0, r3
 531 0040 06DB     		blt	.L48
 532              	.L44:
 167:Service/Srv_ComProto.c ****     }
 533              		.loc 1 167 9 is_stmt 1 view .LVU162
 167:Service/Srv_ComProto.c ****     }
 534              		.loc 1 167 23 is_stmt 0 view .LVU163
 535 0042 0023     		movs	r3, #0
 536 0044 2376     		strb	r3, [r4, #24]
 537              	.LVL27:
 538              	.L41:
 169:Service/Srv_ComProto.c **** 
 539              		.loc 1 169 1 view .LVU164
 540 0046 BDE8F087 		pop	{r4, r5, r6, r7, r8, r9, r10, pc}
 541              	.LVL28:
 542              	.L47:
 147:Service/Srv_ComProto.c ****             return;
 543              		.loc 1 147 13 is_stmt 1 view .LVU165
 147:Service/Srv_ComProto.c ****             return;
 544              		.loc 1 147 27 is_stmt 0 view .LVU166
 545 004a 0023     		movs	r3, #0
 546 004c 2376     		strb	r3, [r4, #24]
 148:Service/Srv_ComProto.c ****         }
 547              		.loc 1 148 13 is_stmt 1 view .LVU167
 548 004e FAE7     		b	.L41
 549              	.LVL29:
 550              	.L48:
 155:Service/Srv_ComProto.c **** 
 551              		.loc 1 155 13 view .LVU168
 155:Service/Srv_ComProto.c **** 
 552              		.loc 1 155 32 is_stmt 0 view .LVU169
 553 0050 D5F800A0 		ldr	r10, [r5]
 155:Service/Srv_ComProto.c **** 
 554              		.loc 1 155 81 view .LVU170
 555 0054 D4F80C90 		ldr	r9, [r4, #12]
 556              	.LVL30:
 557              	.LBB43:
 558              	.LBI43:
 559              		.file 2 "Service/../MAVLink/common/../mavlink_helpers.h"
   1:Service/../MAVLink/common/../mavlink_helpers.h **** #ifndef  _MAVLINK_HELPERS_H_
   2:Service/../MAVLink/common/../mavlink_helpers.h **** #define  _MAVLINK_HELPERS_H_
   3:Service/../MAVLink/common/../mavlink_helpers.h **** 
   4:Service/../MAVLink/common/../mavlink_helpers.h **** #include "string.h"
   5:Service/../MAVLink/common/../mavlink_helpers.h **** #include "checksum.h"
   6:Service/../MAVLink/common/../mavlink_helpers.h **** #include "mavlink_types.h"
   7:Service/../MAVLink/common/../mavlink_helpers.h **** #include "mavlink_conversions.h"
   8:Service/../MAVLink/common/../mavlink_helpers.h **** 
   9:Service/../MAVLink/common/../mavlink_helpers.h **** #ifndef MAVLINK_HELPER
ARM GAS  C:\Users\8bit\AppData\Local\Temp\ccCRhmZR.s 			page 19


  10:Service/../MAVLink/common/../mavlink_helpers.h **** #define MAVLINK_HELPER
  11:Service/../MAVLink/common/../mavlink_helpers.h **** #endif
  12:Service/../MAVLink/common/../mavlink_helpers.h **** 
  13:Service/../MAVLink/common/../mavlink_helpers.h **** /*
  14:Service/../MAVLink/common/../mavlink_helpers.h ****  * Internal function to give access to the channel status for each channel
  15:Service/../MAVLink/common/../mavlink_helpers.h ****  */
  16:Service/../MAVLink/common/../mavlink_helpers.h **** #ifndef MAVLINK_GET_CHANNEL_STATUS
  17:Service/../MAVLink/common/../mavlink_helpers.h **** MAVLINK_HELPER mavlink_status_t* mavlink_get_channel_status(uint8_t chan)
  18:Service/../MAVLink/common/../mavlink_helpers.h **** {
  19:Service/../MAVLink/common/../mavlink_helpers.h **** #ifdef MAVLINK_EXTERNAL_RX_STATUS
  20:Service/../MAVLink/common/../mavlink_helpers.h **** 	// No m_mavlink_status array defined in function,
  21:Service/../MAVLink/common/../mavlink_helpers.h **** 	// has to be defined externally
  22:Service/../MAVLink/common/../mavlink_helpers.h **** #else
  23:Service/../MAVLink/common/../mavlink_helpers.h **** 	static mavlink_status_t m_mavlink_status[MAVLINK_COMM_NUM_BUFFERS];
  24:Service/../MAVLink/common/../mavlink_helpers.h **** #endif
  25:Service/../MAVLink/common/../mavlink_helpers.h **** 	return &m_mavlink_status[chan];
  26:Service/../MAVLink/common/../mavlink_helpers.h **** }
  27:Service/../MAVLink/common/../mavlink_helpers.h **** #endif
  28:Service/../MAVLink/common/../mavlink_helpers.h **** 
  29:Service/../MAVLink/common/../mavlink_helpers.h **** /*
  30:Service/../MAVLink/common/../mavlink_helpers.h ****  * Internal function to give access to the channel buffer for each channel
  31:Service/../MAVLink/common/../mavlink_helpers.h ****  */
  32:Service/../MAVLink/common/../mavlink_helpers.h **** #ifndef MAVLINK_GET_CHANNEL_BUFFER
  33:Service/../MAVLink/common/../mavlink_helpers.h **** MAVLINK_HELPER mavlink_message_t* mavlink_get_channel_buffer(uint8_t chan)
  34:Service/../MAVLink/common/../mavlink_helpers.h **** {
  35:Service/../MAVLink/common/../mavlink_helpers.h **** 	
  36:Service/../MAVLink/common/../mavlink_helpers.h **** #ifdef MAVLINK_EXTERNAL_RX_BUFFER
  37:Service/../MAVLink/common/../mavlink_helpers.h **** 	// No m_mavlink_buffer array defined in function,
  38:Service/../MAVLink/common/../mavlink_helpers.h **** 	// has to be defined externally
  39:Service/../MAVLink/common/../mavlink_helpers.h **** #else
  40:Service/../MAVLink/common/../mavlink_helpers.h **** 	static mavlink_message_t m_mavlink_buffer[MAVLINK_COMM_NUM_BUFFERS];
  41:Service/../MAVLink/common/../mavlink_helpers.h **** #endif
  42:Service/../MAVLink/common/../mavlink_helpers.h **** 	return &m_mavlink_buffer[chan];
  43:Service/../MAVLink/common/../mavlink_helpers.h **** }
  44:Service/../MAVLink/common/../mavlink_helpers.h **** #endif
  45:Service/../MAVLink/common/../mavlink_helpers.h **** 
  46:Service/../MAVLink/common/../mavlink_helpers.h **** /**
  47:Service/../MAVLink/common/../mavlink_helpers.h ****  * @brief Reset the status of a channel.
  48:Service/../MAVLink/common/../mavlink_helpers.h ****  */
  49:Service/../MAVLink/common/../mavlink_helpers.h **** MAVLINK_HELPER void mavlink_reset_channel_status(uint8_t chan)
  50:Service/../MAVLink/common/../mavlink_helpers.h **** {
  51:Service/../MAVLink/common/../mavlink_helpers.h **** 	mavlink_status_t *status = mavlink_get_channel_status(chan);
  52:Service/../MAVLink/common/../mavlink_helpers.h **** 	status->parse_state = MAVLINK_PARSE_STATE_IDLE;
  53:Service/../MAVLink/common/../mavlink_helpers.h **** }
  54:Service/../MAVLink/common/../mavlink_helpers.h **** 
  55:Service/../MAVLink/common/../mavlink_helpers.h **** /**
  56:Service/../MAVLink/common/../mavlink_helpers.h ****  * @brief Finalize a MAVLink message with channel assignment
  57:Service/../MAVLink/common/../mavlink_helpers.h ****  *
  58:Service/../MAVLink/common/../mavlink_helpers.h ****  * This function calculates the checksum and sets length and aircraft id correctly.
  59:Service/../MAVLink/common/../mavlink_helpers.h ****  * It assumes that the message id and the payload are already correctly set. This function
  60:Service/../MAVLink/common/../mavlink_helpers.h ****  * can also be used if the message header has already been written before (as in mavlink_msg_xxx_pa
  61:Service/../MAVLink/common/../mavlink_helpers.h ****  * instead of mavlink_msg_xxx_pack_headerless), it just introduces little extra overhead.
  62:Service/../MAVLink/common/../mavlink_helpers.h ****  *
  63:Service/../MAVLink/common/../mavlink_helpers.h ****  * @param msg Message to finalize
  64:Service/../MAVLink/common/../mavlink_helpers.h ****  * @param system_id Id of the sending (this) system, 1-127
  65:Service/../MAVLink/common/../mavlink_helpers.h ****  * @param length Message length
  66:Service/../MAVLink/common/../mavlink_helpers.h ****  */
ARM GAS  C:\Users\8bit\AppData\Local\Temp\ccCRhmZR.s 			page 20


  67:Service/../MAVLink/common/../mavlink_helpers.h **** #if MAVLINK_CRC_EXTRA
  68:Service/../MAVLink/common/../mavlink_helpers.h **** MAVLINK_HELPER uint16_t mavlink_finalize_message_chan(mavlink_message_t* msg, uint8_t system_id, ui
  69:Service/../MAVLink/common/../mavlink_helpers.h **** 						      uint8_t chan, uint8_t min_length, uint8_t length, uint8_t crc_extra)
  70:Service/../MAVLink/common/../mavlink_helpers.h **** #else
  71:Service/../MAVLink/common/../mavlink_helpers.h **** MAVLINK_HELPER uint16_t mavlink_finalize_message_chan(mavlink_message_t* msg, uint8_t system_id, ui
  72:Service/../MAVLink/common/../mavlink_helpers.h **** 						      uint8_t chan, uint8_t length)
  73:Service/../MAVLink/common/../mavlink_helpers.h **** #endif
  74:Service/../MAVLink/common/../mavlink_helpers.h **** {
  75:Service/../MAVLink/common/../mavlink_helpers.h **** 	// This is only used for the v2 protocol and we silence it here
  76:Service/../MAVLink/common/../mavlink_helpers.h **** 	(void)min_length;
  77:Service/../MAVLink/common/../mavlink_helpers.h **** 	// This code part is the same for all messages;
  78:Service/../MAVLink/common/../mavlink_helpers.h **** 	msg->magic = MAVLINK_STX;
  79:Service/../MAVLink/common/../mavlink_helpers.h **** 	msg->len = length;
  80:Service/../MAVLink/common/../mavlink_helpers.h **** 	msg->sysid = system_id;
  81:Service/../MAVLink/common/../mavlink_helpers.h **** 	msg->compid = component_id;
  82:Service/../MAVLink/common/../mavlink_helpers.h **** 	// One sequence number per channel
  83:Service/../MAVLink/common/../mavlink_helpers.h **** 	msg->seq = mavlink_get_channel_status(chan)->current_tx_seq;
  84:Service/../MAVLink/common/../mavlink_helpers.h **** 	mavlink_get_channel_status(chan)->current_tx_seq = mavlink_get_channel_status(chan)->current_tx_se
  85:Service/../MAVLink/common/../mavlink_helpers.h **** 	msg->checksum = crc_calculate(((const uint8_t*)(msg)) + 3, MAVLINK_CORE_HEADER_LEN);
  86:Service/../MAVLink/common/../mavlink_helpers.h **** 	crc_accumulate_buffer(&msg->checksum, _MAV_PAYLOAD(msg), msg->len);
  87:Service/../MAVLink/common/../mavlink_helpers.h **** #if MAVLINK_CRC_EXTRA
  88:Service/../MAVLink/common/../mavlink_helpers.h **** 	crc_accumulate(crc_extra, &msg->checksum);
  89:Service/../MAVLink/common/../mavlink_helpers.h **** #endif
  90:Service/../MAVLink/common/../mavlink_helpers.h **** 	mavlink_ck_a(msg) = (uint8_t)(msg->checksum & 0xFF);
  91:Service/../MAVLink/common/../mavlink_helpers.h **** 	mavlink_ck_b(msg) = (uint8_t)(msg->checksum >> 8);
  92:Service/../MAVLink/common/../mavlink_helpers.h **** 
  93:Service/../MAVLink/common/../mavlink_helpers.h **** 	return length + MAVLINK_NUM_NON_PAYLOAD_BYTES;
  94:Service/../MAVLink/common/../mavlink_helpers.h **** }
  95:Service/../MAVLink/common/../mavlink_helpers.h **** 
  96:Service/../MAVLink/common/../mavlink_helpers.h **** 
  97:Service/../MAVLink/common/../mavlink_helpers.h **** /**
  98:Service/../MAVLink/common/../mavlink_helpers.h ****  * @brief Finalize a MAVLink message with MAVLINK_COMM_0 as default channel
  99:Service/../MAVLink/common/../mavlink_helpers.h ****  */
 100:Service/../MAVLink/common/../mavlink_helpers.h **** #if MAVLINK_CRC_EXTRA
 101:Service/../MAVLink/common/../mavlink_helpers.h **** MAVLINK_HELPER uint16_t mavlink_finalize_message(mavlink_message_t* msg, uint8_t system_id, uint8_t
 102:Service/../MAVLink/common/../mavlink_helpers.h **** 						 uint8_t min_length, uint8_t length, uint8_t crc_extra)
 103:Service/../MAVLink/common/../mavlink_helpers.h **** {
 104:Service/../MAVLink/common/../mavlink_helpers.h ****     return mavlink_finalize_message_chan(msg, system_id, component_id, MAVLINK_COMM_0, min_length, 
 105:Service/../MAVLink/common/../mavlink_helpers.h **** }
 106:Service/../MAVLink/common/../mavlink_helpers.h **** #else
 107:Service/../MAVLink/common/../mavlink_helpers.h **** MAVLINK_HELPER uint16_t mavlink_finalize_message(mavlink_message_t* msg, uint8_t system_id, uint8_t
 108:Service/../MAVLink/common/../mavlink_helpers.h **** 						 uint8_t length)
 109:Service/../MAVLink/common/../mavlink_helpers.h **** {
 110:Service/../MAVLink/common/../mavlink_helpers.h **** 	return mavlink_finalize_message_chan(msg, system_id, component_id, MAVLINK_COMM_0, length);
 111:Service/../MAVLink/common/../mavlink_helpers.h **** }
 112:Service/../MAVLink/common/../mavlink_helpers.h **** #endif
 113:Service/../MAVLink/common/../mavlink_helpers.h **** 
 114:Service/../MAVLink/common/../mavlink_helpers.h **** #ifdef MAVLINK_USE_CONVENIENCE_FUNCTIONS
 115:Service/../MAVLink/common/../mavlink_helpers.h **** MAVLINK_HELPER void _mavlink_send_uart(mavlink_channel_t chan, const char *buf, uint16_t len);
 116:Service/../MAVLink/common/../mavlink_helpers.h **** 
 117:Service/../MAVLink/common/../mavlink_helpers.h **** /**
 118:Service/../MAVLink/common/../mavlink_helpers.h ****  * @brief Finalize a MAVLink message with channel assignment and send
 119:Service/../MAVLink/common/../mavlink_helpers.h ****  */
 120:Service/../MAVLink/common/../mavlink_helpers.h **** #if MAVLINK_CRC_EXTRA
 121:Service/../MAVLink/common/../mavlink_helpers.h **** MAVLINK_HELPER void _mav_finalize_message_chan_send(mavlink_channel_t chan, uint8_t msgid, const ch
 122:Service/../MAVLink/common/../mavlink_helpers.h **** 						    uint8_t min_length, uint8_t length, uint8_t crc_extra)
 123:Service/../MAVLink/common/../mavlink_helpers.h **** #else
ARM GAS  C:\Users\8bit\AppData\Local\Temp\ccCRhmZR.s 			page 21


 124:Service/../MAVLink/common/../mavlink_helpers.h **** MAVLINK_HELPER void _mav_finalize_message_chan_send(mavlink_channel_t chan, uint8_t msgid, const ch
 125:Service/../MAVLink/common/../mavlink_helpers.h **** #endif
 126:Service/../MAVLink/common/../mavlink_helpers.h **** {
 127:Service/../MAVLink/common/../mavlink_helpers.h **** 	uint16_t checksum;
 128:Service/../MAVLink/common/../mavlink_helpers.h **** 	uint8_t buf[MAVLINK_NUM_HEADER_BYTES];
 129:Service/../MAVLink/common/../mavlink_helpers.h **** 	uint8_t ck[2];
 130:Service/../MAVLink/common/../mavlink_helpers.h **** 	mavlink_status_t *status = mavlink_get_channel_status(chan);
 131:Service/../MAVLink/common/../mavlink_helpers.h **** 	buf[0] = MAVLINK_STX;
 132:Service/../MAVLink/common/../mavlink_helpers.h **** 	buf[1] = length;
 133:Service/../MAVLink/common/../mavlink_helpers.h **** 	buf[2] = status->current_tx_seq;
 134:Service/../MAVLink/common/../mavlink_helpers.h **** 	buf[3] = mavlink_system.sysid;
 135:Service/../MAVLink/common/../mavlink_helpers.h **** 	buf[4] = mavlink_system.compid;
 136:Service/../MAVLink/common/../mavlink_helpers.h **** 	buf[5] = msgid;
 137:Service/../MAVLink/common/../mavlink_helpers.h **** 	status->current_tx_seq++;
 138:Service/../MAVLink/common/../mavlink_helpers.h **** 	checksum = crc_calculate((const uint8_t*)&buf[1], MAVLINK_CORE_HEADER_LEN);
 139:Service/../MAVLink/common/../mavlink_helpers.h **** 	crc_accumulate_buffer(&checksum, packet, length);
 140:Service/../MAVLink/common/../mavlink_helpers.h **** #if MAVLINK_CRC_EXTRA
 141:Service/../MAVLink/common/../mavlink_helpers.h **** 	crc_accumulate(crc_extra, &checksum);
 142:Service/../MAVLink/common/../mavlink_helpers.h **** #endif
 143:Service/../MAVLink/common/../mavlink_helpers.h **** 	ck[0] = (uint8_t)(checksum & 0xFF);
 144:Service/../MAVLink/common/../mavlink_helpers.h **** 	ck[1] = (uint8_t)(checksum >> 8);
 145:Service/../MAVLink/common/../mavlink_helpers.h **** 
 146:Service/../MAVLink/common/../mavlink_helpers.h **** 	MAVLINK_START_UART_SEND(chan, MAVLINK_NUM_NON_PAYLOAD_BYTES + (uint16_t)length);
 147:Service/../MAVLink/common/../mavlink_helpers.h **** 	_mavlink_send_uart(chan, (const char *)buf, MAVLINK_NUM_HEADER_BYTES);
 148:Service/../MAVLink/common/../mavlink_helpers.h **** 	_mavlink_send_uart(chan, packet, length);
 149:Service/../MAVLink/common/../mavlink_helpers.h **** 	_mavlink_send_uart(chan, (const char *)ck, 2);
 150:Service/../MAVLink/common/../mavlink_helpers.h **** 	MAVLINK_END_UART_SEND(chan, MAVLINK_NUM_NON_PAYLOAD_BYTES + (uint16_t)length);
 151:Service/../MAVLink/common/../mavlink_helpers.h **** }
 152:Service/../MAVLink/common/../mavlink_helpers.h **** 
 153:Service/../MAVLink/common/../mavlink_helpers.h **** /**
 154:Service/../MAVLink/common/../mavlink_helpers.h ****  * @brief re-send a message over a uart channel
 155:Service/../MAVLink/common/../mavlink_helpers.h ****  * this is more stack efficient than re-marshalling the message
 156:Service/../MAVLink/common/../mavlink_helpers.h ****  */
 157:Service/../MAVLink/common/../mavlink_helpers.h **** MAVLINK_HELPER void _mavlink_resend_uart(mavlink_channel_t chan, const mavlink_message_t *msg)
 158:Service/../MAVLink/common/../mavlink_helpers.h **** {
 159:Service/../MAVLink/common/../mavlink_helpers.h **** 	uint8_t ck[2];
 160:Service/../MAVLink/common/../mavlink_helpers.h **** 
 161:Service/../MAVLink/common/../mavlink_helpers.h **** 	ck[0] = (uint8_t)(msg->checksum & 0xFF);
 162:Service/../MAVLink/common/../mavlink_helpers.h **** 	ck[1] = (uint8_t)(msg->checksum >> 8);
 163:Service/../MAVLink/common/../mavlink_helpers.h **** 	// XXX use the right sequence here
 164:Service/../MAVLink/common/../mavlink_helpers.h **** 
 165:Service/../MAVLink/common/../mavlink_helpers.h **** 	MAVLINK_START_UART_SEND(chan, MAVLINK_NUM_NON_PAYLOAD_BYTES + msg->len);
 166:Service/../MAVLink/common/../mavlink_helpers.h **** 	_mavlink_send_uart(chan, (const char *)&msg->magic, MAVLINK_NUM_HEADER_BYTES);
 167:Service/../MAVLink/common/../mavlink_helpers.h **** 	_mavlink_send_uart(chan, _MAV_PAYLOAD(msg), msg->len);
 168:Service/../MAVLink/common/../mavlink_helpers.h **** 	_mavlink_send_uart(chan, (const char *)ck, 2);
 169:Service/../MAVLink/common/../mavlink_helpers.h **** 	MAVLINK_END_UART_SEND(chan, MAVLINK_NUM_NON_PAYLOAD_BYTES + msg->len);
 170:Service/../MAVLink/common/../mavlink_helpers.h **** }
 171:Service/../MAVLink/common/../mavlink_helpers.h **** #endif // MAVLINK_USE_CONVENIENCE_FUNCTIONS
 172:Service/../MAVLink/common/../mavlink_helpers.h **** 
 173:Service/../MAVLink/common/../mavlink_helpers.h **** /**
 174:Service/../MAVLink/common/../mavlink_helpers.h ****  * @brief Pack a message to send it over a serial byte stream
 175:Service/../MAVLink/common/../mavlink_helpers.h ****  */
 176:Service/../MAVLink/common/../mavlink_helpers.h **** MAVLINK_HELPER uint16_t mavlink_msg_to_send_buffer(uint8_t *buffer, const mavlink_message_t *msg)
 560              		.loc 2 176 25 is_stmt 1 view .LVU171
 561              	.LBB44:
 177:Service/../MAVLink/common/../mavlink_helpers.h **** {
 178:Service/../MAVLink/common/../mavlink_helpers.h **** 	memcpy(buffer, (const uint8_t *)&msg->magic, MAVLINK_NUM_HEADER_BYTES + (uint16_t)msg->len);
ARM GAS  C:\Users\8bit\AppData\Local\Temp\ccCRhmZR.s 			page 22


 562              		.loc 2 178 2 view .LVU172
 563              		.loc 2 178 87 is_stmt 0 view .LVU173
 564 0058 99F80320 		ldrb	r2, [r9, #3]	@ zero_extendqisi2
 565              		.loc 2 178 2 view .LVU174
 566 005c 0632     		adds	r2, r2, #6
 567 005e 09F10201 		add	r1, r9, #2
 568 0062 5046     		mov	r0, r10
 569 0064 FFF7FEFF 		bl	memcpy
 570              	.LVL31:
 179:Service/../MAVLink/common/../mavlink_helpers.h **** 
 180:Service/../MAVLink/common/../mavlink_helpers.h **** 	uint8_t *ck = buffer + (MAVLINK_NUM_HEADER_BYTES + (uint16_t)msg->len);
 571              		.loc 2 180 2 is_stmt 1 view .LVU175
 572              		.loc 2 180 66 is_stmt 0 view .LVU176
 573 0068 99F80330 		ldrb	r3, [r9, #3]	@ zero_extendqisi2
 574              		.loc 2 180 51 view .LVU177
 575 006c 0633     		adds	r3, r3, #6
 576              		.loc 2 180 11 view .LVU178
 577 006e 0AEB0302 		add	r2, r10, r3
 578              	.LVL32:
 181:Service/../MAVLink/common/../mavlink_helpers.h **** 
 182:Service/../MAVLink/common/../mavlink_helpers.h **** 	ck[0] = (uint8_t)(msg->checksum & 0xFF);
 579              		.loc 2 182 2 is_stmt 1 view .LVU179
 580              		.loc 2 182 23 is_stmt 0 view .LVU180
 581 0072 B9F80010 		ldrh	r1, [r9]	@ unaligned
 582              		.loc 2 182 8 view .LVU181
 583 0076 0AF80310 		strb	r1, [r10, r3]
 183:Service/../MAVLink/common/../mavlink_helpers.h **** 	ck[1] = (uint8_t)(msg->checksum >> 8);
 584              		.loc 2 183 2 is_stmt 1 view .LVU182
 585              		.loc 2 183 23 is_stmt 0 view .LVU183
 586 007a B9F80030 		ldrh	r3, [r9]	@ unaligned
 587              		.loc 2 183 10 view .LVU184
 588 007e 1B0A     		lsrs	r3, r3, #8
 589              		.loc 2 183 8 view .LVU185
 590 0080 5370     		strb	r3, [r2, #1]
 184:Service/../MAVLink/common/../mavlink_helpers.h **** 
 185:Service/../MAVLink/common/../mavlink_helpers.h **** 	return MAVLINK_NUM_NON_PAYLOAD_BYTES + (uint16_t)msg->len;
 591              		.loc 2 185 2 is_stmt 1 view .LVU186
 592              		.loc 2 185 54 is_stmt 0 view .LVU187
 593 0082 99F80320 		ldrb	r2, [r9, #3]	@ zero_extendqisi2
 594              	.LVL33:
 595              		.loc 2 185 39 view .LVU188
 596 0086 0832     		adds	r2, r2, #8
 597              	.LVL34:
 598              		.loc 2 185 39 view .LVU189
 599              	.LBE44:
 600              	.LBE43:
 155:Service/Srv_ComProto.c **** 
 601              		.loc 1 155 30 view .LVU190
 602 0088 AA80     		strh	r2, [r5, #4]	@ movhi
 157:Service/Srv_ComProto.c ****             {
 603              		.loc 1 157 13 is_stmt 1 view .LVU191
 157:Service/Srv_ComProto.c ****             {
 604              		.loc 1 157 16 is_stmt 0 view .LVU192
 605 008a 57B1     		cbz	r7, .L45
 159:Service/Srv_ComProto.c ****                 msg->proto_cnt ++;
 606              		.loc 1 159 17 is_stmt 1 view .LVU193
 607 008c 2968     		ldr	r1, [r5]
ARM GAS  C:\Users\8bit\AppData\Local\Temp\ccCRhmZR.s 			page 23


 608 008e 4046     		mov	r0, r8
 609 0090 B847     		blx	r7
 610              	.LVL35:
 160:Service/Srv_ComProto.c ****                 memset(com_stream->p_buf, 0, com_stream->size);
 611              		.loc 1 160 17 view .LVU194
 160:Service/Srv_ComProto.c ****                 memset(com_stream->p_buf, 0, com_stream->size);
 612              		.loc 1 160 20 is_stmt 0 view .LVU195
 613 0092 6368     		ldr	r3, [r4, #4]
 160:Service/Srv_ComProto.c ****                 memset(com_stream->p_buf, 0, com_stream->size);
 614              		.loc 1 160 32 view .LVU196
 615 0094 0133     		adds	r3, r3, #1
 616 0096 6360     		str	r3, [r4, #4]
 161:Service/Srv_ComProto.c ****             }
 617              		.loc 1 161 17 is_stmt 1 view .LVU197
 618 0098 AA88     		ldrh	r2, [r5, #4]
 619 009a 0021     		movs	r1, #0
 620 009c 2868     		ldr	r0, [r5]
 621 009e FFF7FEFF 		bl	memset
 622              	.LVL36:
 623              	.L45:
 164:Service/Srv_ComProto.c ****         }
 624              		.loc 1 164 13 view .LVU198
 164:Service/Srv_ComProto.c ****         }
 625              		.loc 1 164 29 is_stmt 0 view .LVU199
 626 00a2 6661     		str	r6, [r4, #20]
 627 00a4 CDE7     		b	.L44
 628              	.L50:
 629 00a6 00BF     		.align	2
 630              	.L49:
 631 00a8 00000000 		.word	SrvOsCommon
 632              		.cfi_endproc
 633              	.LFE2077:
 635              		.section	.text.SrvComProto_MavMsg_Decode_ExpGyro,"ax",%progbits
 636              		.align	1
 637              		.syntax unified
 638              		.thumb
 639              		.thumb_func
 641              	SrvComProto_MavMsg_Decode_ExpGyro:
 642              	.LVL37:
 643              	.LFB2088:
 346:Service/Srv_ComProto.c **** 
 347:Service/Srv_ComProto.c **** static bool SrvComProto_MavMsg_Decode_ExpAttiude(SrvComProto_MsgObj_TypeDef *obj, const mavlink_mes
 348:Service/Srv_ComProto.c **** {
 349:Service/Srv_ComProto.c ****     mavlink_attitude_t msg_att;
 350:Service/Srv_ComProto.c **** 
 351:Service/Srv_ComProto.c ****     if (obj)
 352:Service/Srv_ComProto.c ****     {
 353:Service/Srv_ComProto.c ****         obj->Att_Cnt ++;
 354:Service/Srv_ComProto.c **** 
 355:Service/Srv_ComProto.c ****         memset(&msg_att, 0, sizeof(mavlink_attitude_t));
 356:Service/Srv_ComProto.c ****         mavlink_msg_attitude_decode(&msg, &msg_att);
 357:Service/Srv_ComProto.c **** 
 358:Service/Srv_ComProto.c ****         if (obj->MavMsg_Att_Callback)
 359:Service/Srv_ComProto.c ****             return obj->MavMsg_Att_Callback(&msg_att, obj->cus_p_att);
 360:Service/Srv_ComProto.c ****     }
 361:Service/Srv_ComProto.c **** 
 362:Service/Srv_ComProto.c ****     return false;
ARM GAS  C:\Users\8bit\AppData\Local\Temp\ccCRhmZR.s 			page 24


 363:Service/Srv_ComProto.c **** }
 364:Service/Srv_ComProto.c **** 
 365:Service/Srv_ComProto.c **** static bool SrvComProto_MavMsg_Decode_ExpGyro(SrvComProto_MsgObj_TypeDef *obj, const mavlink_messag
 366:Service/Srv_ComProto.c **** {
 644              		.loc 1 366 1 is_stmt 1 view -0
 645              		.cfi_startproc
 646              		@ args = 276, pretend = 16, frame = 32
 647              		@ frame_needed = 0, uses_anonymous_args = 0
 648              		.loc 1 366 1 is_stmt 0 view .LVU201
 649 0000 84B0     		sub	sp, sp, #16
 650              	.LCFI7:
 651              		.cfi_def_cfa_offset 16
 652 0002 10B5     		push	{r4, lr}
 653              	.LCFI8:
 654              		.cfi_def_cfa_offset 24
 655              		.cfi_offset 4, -24
 656              		.cfi_offset 14, -20
 657 0004 88B0     		sub	sp, sp, #32
 658              	.LCFI9:
 659              		.cfi_def_cfa_offset 56
 660 0006 0DF12C0C 		add	ip, sp, #44
 661 000a 8CE80E00 		stm	ip, {r1, r2, r3}
 367:Service/Srv_ComProto.c ****     mavlink_raw_imu_t msg_imu;
 662              		.loc 1 367 5 is_stmt 1 view .LVU202
 368:Service/Srv_ComProto.c **** 
 369:Service/Srv_ComProto.c ****     if (obj)
 663              		.loc 1 369 5 view .LVU203
 664              		.loc 1 369 8 is_stmt 0 view .LVU204
 665 000e 00B3     		cbz	r0, .L53
 666 0010 0446     		mov	r4, r0
 370:Service/Srv_ComProto.c ****     {
 371:Service/Srv_ComProto.c ****         obj->Gyr_Cnt ++;
 667              		.loc 1 371 9 is_stmt 1 view .LVU205
 668              		.loc 1 371 12 is_stmt 0 view .LVU206
 669 0012 436B     		ldr	r3, [r0, #52]
 670              		.loc 1 371 22 view .LVU207
 671 0014 0133     		adds	r3, r3, #1
 672 0016 4363     		str	r3, [r0, #52]
 372:Service/Srv_ComProto.c **** 
 373:Service/Srv_ComProto.c ****         memset(&msg_imu, 0, sizeof(mavlink_raw_imu_t));
 673              		.loc 1 373 9 is_stmt 1 view .LVU208
 674 0018 2022     		movs	r2, #32
 675 001a 0021     		movs	r1, #0
 676 001c 6846     		mov	r0, sp
 677 001e FFF7FEFF 		bl	memset
 678              	.LVL38:
 374:Service/Srv_ComProto.c ****         mavlink_msg_raw_imu_decode(&msg, &msg_imu);
 679              		.loc 1 374 9 view .LVU209
 680              	.LBB47:
 681              	.LBI47:
 682              		.file 3 "Service/../MAVLink/common/./mavlink_msg_raw_imu.h"
   1:Service/../MAVLink/common/./mavlink_msg_raw_imu.h **** #pragma once
   2:Service/../MAVLink/common/./mavlink_msg_raw_imu.h **** // MESSAGE RAW_IMU PACKING
   3:Service/../MAVLink/common/./mavlink_msg_raw_imu.h **** 
   4:Service/../MAVLink/common/./mavlink_msg_raw_imu.h **** #define MAVLINK_MSG_ID_RAW_IMU 27
   5:Service/../MAVLink/common/./mavlink_msg_raw_imu.h **** 
   6:Service/../MAVLink/common/./mavlink_msg_raw_imu.h **** 
ARM GAS  C:\Users\8bit\AppData\Local\Temp\ccCRhmZR.s 			page 25


   7:Service/../MAVLink/common/./mavlink_msg_raw_imu.h **** typedef struct __mavlink_raw_imu_t {
   8:Service/../MAVLink/common/./mavlink_msg_raw_imu.h ****  uint64_t time_usec; /*< [us] Timestamp (UNIX Epoch time or time since system boot). The receiving 
   9:Service/../MAVLink/common/./mavlink_msg_raw_imu.h ****  int16_t xacc; /*<  X acceleration (raw)*/
  10:Service/../MAVLink/common/./mavlink_msg_raw_imu.h ****  int16_t yacc; /*<  Y acceleration (raw)*/
  11:Service/../MAVLink/common/./mavlink_msg_raw_imu.h ****  int16_t zacc; /*<  Z acceleration (raw)*/
  12:Service/../MAVLink/common/./mavlink_msg_raw_imu.h ****  int16_t xgyro; /*<  Angular speed around X axis (raw)*/
  13:Service/../MAVLink/common/./mavlink_msg_raw_imu.h ****  int16_t ygyro; /*<  Angular speed around Y axis (raw)*/
  14:Service/../MAVLink/common/./mavlink_msg_raw_imu.h ****  int16_t zgyro; /*<  Angular speed around Z axis (raw)*/
  15:Service/../MAVLink/common/./mavlink_msg_raw_imu.h ****  int16_t xmag; /*<  X Magnetic field (raw)*/
  16:Service/../MAVLink/common/./mavlink_msg_raw_imu.h ****  int16_t ymag; /*<  Y Magnetic field (raw)*/
  17:Service/../MAVLink/common/./mavlink_msg_raw_imu.h ****  int16_t zmag; /*<  Z Magnetic field (raw)*/
  18:Service/../MAVLink/common/./mavlink_msg_raw_imu.h **** } mavlink_raw_imu_t;
  19:Service/../MAVLink/common/./mavlink_msg_raw_imu.h **** 
  20:Service/../MAVLink/common/./mavlink_msg_raw_imu.h **** #define MAVLINK_MSG_ID_RAW_IMU_LEN 26
  21:Service/../MAVLink/common/./mavlink_msg_raw_imu.h **** #define MAVLINK_MSG_ID_RAW_IMU_MIN_LEN 26
  22:Service/../MAVLink/common/./mavlink_msg_raw_imu.h **** #define MAVLINK_MSG_ID_27_LEN 26
  23:Service/../MAVLink/common/./mavlink_msg_raw_imu.h **** #define MAVLINK_MSG_ID_27_MIN_LEN 26
  24:Service/../MAVLink/common/./mavlink_msg_raw_imu.h **** 
  25:Service/../MAVLink/common/./mavlink_msg_raw_imu.h **** #define MAVLINK_MSG_ID_RAW_IMU_CRC 144
  26:Service/../MAVLink/common/./mavlink_msg_raw_imu.h **** #define MAVLINK_MSG_ID_27_CRC 144
  27:Service/../MAVLink/common/./mavlink_msg_raw_imu.h **** 
  28:Service/../MAVLink/common/./mavlink_msg_raw_imu.h **** 
  29:Service/../MAVLink/common/./mavlink_msg_raw_imu.h **** 
  30:Service/../MAVLink/common/./mavlink_msg_raw_imu.h **** #if MAVLINK_COMMAND_24BIT
  31:Service/../MAVLink/common/./mavlink_msg_raw_imu.h **** #define MAVLINK_MESSAGE_INFO_RAW_IMU { \
  32:Service/../MAVLink/common/./mavlink_msg_raw_imu.h ****     27, \
  33:Service/../MAVLink/common/./mavlink_msg_raw_imu.h ****     "RAW_IMU", \
  34:Service/../MAVLink/common/./mavlink_msg_raw_imu.h ****     10, \
  35:Service/../MAVLink/common/./mavlink_msg_raw_imu.h ****     {  { "time_usec", NULL, MAVLINK_TYPE_UINT64_T, 0, 0, offsetof(mavlink_raw_imu_t, time_usec) }, 
  36:Service/../MAVLink/common/./mavlink_msg_raw_imu.h ****          { "xacc", NULL, MAVLINK_TYPE_INT16_T, 0, 8, offsetof(mavlink_raw_imu_t, xacc) }, \
  37:Service/../MAVLink/common/./mavlink_msg_raw_imu.h ****          { "yacc", NULL, MAVLINK_TYPE_INT16_T, 0, 10, offsetof(mavlink_raw_imu_t, yacc) }, \
  38:Service/../MAVLink/common/./mavlink_msg_raw_imu.h ****          { "zacc", NULL, MAVLINK_TYPE_INT16_T, 0, 12, offsetof(mavlink_raw_imu_t, zacc) }, \
  39:Service/../MAVLink/common/./mavlink_msg_raw_imu.h ****          { "xgyro", NULL, MAVLINK_TYPE_INT16_T, 0, 14, offsetof(mavlink_raw_imu_t, xgyro) }, \
  40:Service/../MAVLink/common/./mavlink_msg_raw_imu.h ****          { "ygyro", NULL, MAVLINK_TYPE_INT16_T, 0, 16, offsetof(mavlink_raw_imu_t, ygyro) }, \
  41:Service/../MAVLink/common/./mavlink_msg_raw_imu.h ****          { "zgyro", NULL, MAVLINK_TYPE_INT16_T, 0, 18, offsetof(mavlink_raw_imu_t, zgyro) }, \
  42:Service/../MAVLink/common/./mavlink_msg_raw_imu.h ****          { "xmag", NULL, MAVLINK_TYPE_INT16_T, 0, 20, offsetof(mavlink_raw_imu_t, xmag) }, \
  43:Service/../MAVLink/common/./mavlink_msg_raw_imu.h ****          { "ymag", NULL, MAVLINK_TYPE_INT16_T, 0, 22, offsetof(mavlink_raw_imu_t, ymag) }, \
  44:Service/../MAVLink/common/./mavlink_msg_raw_imu.h ****          { "zmag", NULL, MAVLINK_TYPE_INT16_T, 0, 24, offsetof(mavlink_raw_imu_t, zmag) }, \
  45:Service/../MAVLink/common/./mavlink_msg_raw_imu.h ****          } \
  46:Service/../MAVLink/common/./mavlink_msg_raw_imu.h **** }
  47:Service/../MAVLink/common/./mavlink_msg_raw_imu.h **** #else
  48:Service/../MAVLink/common/./mavlink_msg_raw_imu.h **** #define MAVLINK_MESSAGE_INFO_RAW_IMU { \
  49:Service/../MAVLink/common/./mavlink_msg_raw_imu.h ****     "RAW_IMU", \
  50:Service/../MAVLink/common/./mavlink_msg_raw_imu.h ****     10, \
  51:Service/../MAVLink/common/./mavlink_msg_raw_imu.h ****     {  { "time_usec", NULL, MAVLINK_TYPE_UINT64_T, 0, 0, offsetof(mavlink_raw_imu_t, time_usec) }, 
  52:Service/../MAVLink/common/./mavlink_msg_raw_imu.h ****          { "xacc", NULL, MAVLINK_TYPE_INT16_T, 0, 8, offsetof(mavlink_raw_imu_t, xacc) }, \
  53:Service/../MAVLink/common/./mavlink_msg_raw_imu.h ****          { "yacc", NULL, MAVLINK_TYPE_INT16_T, 0, 10, offsetof(mavlink_raw_imu_t, yacc) }, \
  54:Service/../MAVLink/common/./mavlink_msg_raw_imu.h ****          { "zacc", NULL, MAVLINK_TYPE_INT16_T, 0, 12, offsetof(mavlink_raw_imu_t, zacc) }, \
  55:Service/../MAVLink/common/./mavlink_msg_raw_imu.h ****          { "xgyro", NULL, MAVLINK_TYPE_INT16_T, 0, 14, offsetof(mavlink_raw_imu_t, xgyro) }, \
  56:Service/../MAVLink/common/./mavlink_msg_raw_imu.h ****          { "ygyro", NULL, MAVLINK_TYPE_INT16_T, 0, 16, offsetof(mavlink_raw_imu_t, ygyro) }, \
  57:Service/../MAVLink/common/./mavlink_msg_raw_imu.h ****          { "zgyro", NULL, MAVLINK_TYPE_INT16_T, 0, 18, offsetof(mavlink_raw_imu_t, zgyro) }, \
  58:Service/../MAVLink/common/./mavlink_msg_raw_imu.h ****          { "xmag", NULL, MAVLINK_TYPE_INT16_T, 0, 20, offsetof(mavlink_raw_imu_t, xmag) }, \
  59:Service/../MAVLink/common/./mavlink_msg_raw_imu.h ****          { "ymag", NULL, MAVLINK_TYPE_INT16_T, 0, 22, offsetof(mavlink_raw_imu_t, ymag) }, \
  60:Service/../MAVLink/common/./mavlink_msg_raw_imu.h ****          { "zmag", NULL, MAVLINK_TYPE_INT16_T, 0, 24, offsetof(mavlink_raw_imu_t, zmag) }, \
  61:Service/../MAVLink/common/./mavlink_msg_raw_imu.h ****          } \
  62:Service/../MAVLink/common/./mavlink_msg_raw_imu.h **** }
  63:Service/../MAVLink/common/./mavlink_msg_raw_imu.h **** #endif
ARM GAS  C:\Users\8bit\AppData\Local\Temp\ccCRhmZR.s 			page 26


  64:Service/../MAVLink/common/./mavlink_msg_raw_imu.h **** 
  65:Service/../MAVLink/common/./mavlink_msg_raw_imu.h **** /**
  66:Service/../MAVLink/common/./mavlink_msg_raw_imu.h ****  * @brief Pack a raw_imu message
  67:Service/../MAVLink/common/./mavlink_msg_raw_imu.h ****  * @param system_id ID of this system
  68:Service/../MAVLink/common/./mavlink_msg_raw_imu.h ****  * @param component_id ID of this component (e.g. 200 for IMU)
  69:Service/../MAVLink/common/./mavlink_msg_raw_imu.h ****  * @param msg The MAVLink message to compress the data into
  70:Service/../MAVLink/common/./mavlink_msg_raw_imu.h ****  *
  71:Service/../MAVLink/common/./mavlink_msg_raw_imu.h ****  * @param time_usec [us] Timestamp (UNIX Epoch time or time since system boot). The receiving end c
  72:Service/../MAVLink/common/./mavlink_msg_raw_imu.h ****  * @param xacc  X acceleration (raw)
  73:Service/../MAVLink/common/./mavlink_msg_raw_imu.h ****  * @param yacc  Y acceleration (raw)
  74:Service/../MAVLink/common/./mavlink_msg_raw_imu.h ****  * @param zacc  Z acceleration (raw)
  75:Service/../MAVLink/common/./mavlink_msg_raw_imu.h ****  * @param xgyro  Angular speed around X axis (raw)
  76:Service/../MAVLink/common/./mavlink_msg_raw_imu.h ****  * @param ygyro  Angular speed around Y axis (raw)
  77:Service/../MAVLink/common/./mavlink_msg_raw_imu.h ****  * @param zgyro  Angular speed around Z axis (raw)
  78:Service/../MAVLink/common/./mavlink_msg_raw_imu.h ****  * @param xmag  X Magnetic field (raw)
  79:Service/../MAVLink/common/./mavlink_msg_raw_imu.h ****  * @param ymag  Y Magnetic field (raw)
  80:Service/../MAVLink/common/./mavlink_msg_raw_imu.h ****  * @param zmag  Z Magnetic field (raw)
  81:Service/../MAVLink/common/./mavlink_msg_raw_imu.h ****  * @return length of the message in bytes (excluding serial stream start sign)
  82:Service/../MAVLink/common/./mavlink_msg_raw_imu.h ****  */
  83:Service/../MAVLink/common/./mavlink_msg_raw_imu.h **** static inline uint16_t mavlink_msg_raw_imu_pack(uint8_t system_id, uint8_t component_id, mavlink_me
  84:Service/../MAVLink/common/./mavlink_msg_raw_imu.h ****                                uint64_t time_usec, int16_t xacc, int16_t yacc, int16_t zacc, int16_
  85:Service/../MAVLink/common/./mavlink_msg_raw_imu.h **** {
  86:Service/../MAVLink/common/./mavlink_msg_raw_imu.h **** #if MAVLINK_NEED_BYTE_SWAP || !MAVLINK_ALIGNED_FIELDS
  87:Service/../MAVLink/common/./mavlink_msg_raw_imu.h ****     char buf[MAVLINK_MSG_ID_RAW_IMU_LEN];
  88:Service/../MAVLink/common/./mavlink_msg_raw_imu.h ****     _mav_put_uint64_t(buf, 0, time_usec);
  89:Service/../MAVLink/common/./mavlink_msg_raw_imu.h ****     _mav_put_int16_t(buf, 8, xacc);
  90:Service/../MAVLink/common/./mavlink_msg_raw_imu.h ****     _mav_put_int16_t(buf, 10, yacc);
  91:Service/../MAVLink/common/./mavlink_msg_raw_imu.h ****     _mav_put_int16_t(buf, 12, zacc);
  92:Service/../MAVLink/common/./mavlink_msg_raw_imu.h ****     _mav_put_int16_t(buf, 14, xgyro);
  93:Service/../MAVLink/common/./mavlink_msg_raw_imu.h ****     _mav_put_int16_t(buf, 16, ygyro);
  94:Service/../MAVLink/common/./mavlink_msg_raw_imu.h ****     _mav_put_int16_t(buf, 18, zgyro);
  95:Service/../MAVLink/common/./mavlink_msg_raw_imu.h ****     _mav_put_int16_t(buf, 20, xmag);
  96:Service/../MAVLink/common/./mavlink_msg_raw_imu.h ****     _mav_put_int16_t(buf, 22, ymag);
  97:Service/../MAVLink/common/./mavlink_msg_raw_imu.h ****     _mav_put_int16_t(buf, 24, zmag);
  98:Service/../MAVLink/common/./mavlink_msg_raw_imu.h **** 
  99:Service/../MAVLink/common/./mavlink_msg_raw_imu.h ****         memcpy(_MAV_PAYLOAD_NON_CONST(msg), buf, MAVLINK_MSG_ID_RAW_IMU_LEN);
 100:Service/../MAVLink/common/./mavlink_msg_raw_imu.h **** #else
 101:Service/../MAVLink/common/./mavlink_msg_raw_imu.h ****     mavlink_raw_imu_t packet;
 102:Service/../MAVLink/common/./mavlink_msg_raw_imu.h ****     packet.time_usec = time_usec;
 103:Service/../MAVLink/common/./mavlink_msg_raw_imu.h ****     packet.xacc = xacc;
 104:Service/../MAVLink/common/./mavlink_msg_raw_imu.h ****     packet.yacc = yacc;
 105:Service/../MAVLink/common/./mavlink_msg_raw_imu.h ****     packet.zacc = zacc;
 106:Service/../MAVLink/common/./mavlink_msg_raw_imu.h ****     packet.xgyro = xgyro;
 107:Service/../MAVLink/common/./mavlink_msg_raw_imu.h ****     packet.ygyro = ygyro;
 108:Service/../MAVLink/common/./mavlink_msg_raw_imu.h ****     packet.zgyro = zgyro;
 109:Service/../MAVLink/common/./mavlink_msg_raw_imu.h ****     packet.xmag = xmag;
 110:Service/../MAVLink/common/./mavlink_msg_raw_imu.h ****     packet.ymag = ymag;
 111:Service/../MAVLink/common/./mavlink_msg_raw_imu.h ****     packet.zmag = zmag;
 112:Service/../MAVLink/common/./mavlink_msg_raw_imu.h **** 
 113:Service/../MAVLink/common/./mavlink_msg_raw_imu.h ****         memcpy(_MAV_PAYLOAD_NON_CONST(msg), &packet, MAVLINK_MSG_ID_RAW_IMU_LEN);
 114:Service/../MAVLink/common/./mavlink_msg_raw_imu.h **** #endif
 115:Service/../MAVLink/common/./mavlink_msg_raw_imu.h **** 
 116:Service/../MAVLink/common/./mavlink_msg_raw_imu.h ****     msg->msgid = MAVLINK_MSG_ID_RAW_IMU;
 117:Service/../MAVLink/common/./mavlink_msg_raw_imu.h ****     return mavlink_finalize_message(msg, system_id, component_id, MAVLINK_MSG_ID_RAW_IMU_MIN_LEN, M
 118:Service/../MAVLink/common/./mavlink_msg_raw_imu.h **** }
 119:Service/../MAVLink/common/./mavlink_msg_raw_imu.h **** 
 120:Service/../MAVLink/common/./mavlink_msg_raw_imu.h **** /**
ARM GAS  C:\Users\8bit\AppData\Local\Temp\ccCRhmZR.s 			page 27


 121:Service/../MAVLink/common/./mavlink_msg_raw_imu.h ****  * @brief Pack a raw_imu message on a channel
 122:Service/../MAVLink/common/./mavlink_msg_raw_imu.h ****  * @param system_id ID of this system
 123:Service/../MAVLink/common/./mavlink_msg_raw_imu.h ****  * @param component_id ID of this component (e.g. 200 for IMU)
 124:Service/../MAVLink/common/./mavlink_msg_raw_imu.h ****  * @param chan The MAVLink channel this message will be sent over
 125:Service/../MAVLink/common/./mavlink_msg_raw_imu.h ****  * @param msg The MAVLink message to compress the data into
 126:Service/../MAVLink/common/./mavlink_msg_raw_imu.h ****  * @param time_usec [us] Timestamp (UNIX Epoch time or time since system boot). The receiving end c
 127:Service/../MAVLink/common/./mavlink_msg_raw_imu.h ****  * @param xacc  X acceleration (raw)
 128:Service/../MAVLink/common/./mavlink_msg_raw_imu.h ****  * @param yacc  Y acceleration (raw)
 129:Service/../MAVLink/common/./mavlink_msg_raw_imu.h ****  * @param zacc  Z acceleration (raw)
 130:Service/../MAVLink/common/./mavlink_msg_raw_imu.h ****  * @param xgyro  Angular speed around X axis (raw)
 131:Service/../MAVLink/common/./mavlink_msg_raw_imu.h ****  * @param ygyro  Angular speed around Y axis (raw)
 132:Service/../MAVLink/common/./mavlink_msg_raw_imu.h ****  * @param zgyro  Angular speed around Z axis (raw)
 133:Service/../MAVLink/common/./mavlink_msg_raw_imu.h ****  * @param xmag  X Magnetic field (raw)
 134:Service/../MAVLink/common/./mavlink_msg_raw_imu.h ****  * @param ymag  Y Magnetic field (raw)
 135:Service/../MAVLink/common/./mavlink_msg_raw_imu.h ****  * @param zmag  Z Magnetic field (raw)
 136:Service/../MAVLink/common/./mavlink_msg_raw_imu.h ****  * @return length of the message in bytes (excluding serial stream start sign)
 137:Service/../MAVLink/common/./mavlink_msg_raw_imu.h ****  */
 138:Service/../MAVLink/common/./mavlink_msg_raw_imu.h **** static inline uint16_t mavlink_msg_raw_imu_pack_chan(uint8_t system_id, uint8_t component_id, uint8
 139:Service/../MAVLink/common/./mavlink_msg_raw_imu.h ****                                mavlink_message_t* msg,
 140:Service/../MAVLink/common/./mavlink_msg_raw_imu.h ****                                    uint64_t time_usec,int16_t xacc,int16_t yacc,int16_t zacc,int16_
 141:Service/../MAVLink/common/./mavlink_msg_raw_imu.h **** {
 142:Service/../MAVLink/common/./mavlink_msg_raw_imu.h **** #if MAVLINK_NEED_BYTE_SWAP || !MAVLINK_ALIGNED_FIELDS
 143:Service/../MAVLink/common/./mavlink_msg_raw_imu.h ****     char buf[MAVLINK_MSG_ID_RAW_IMU_LEN];
 144:Service/../MAVLink/common/./mavlink_msg_raw_imu.h ****     _mav_put_uint64_t(buf, 0, time_usec);
 145:Service/../MAVLink/common/./mavlink_msg_raw_imu.h ****     _mav_put_int16_t(buf, 8, xacc);
 146:Service/../MAVLink/common/./mavlink_msg_raw_imu.h ****     _mav_put_int16_t(buf, 10, yacc);
 147:Service/../MAVLink/common/./mavlink_msg_raw_imu.h ****     _mav_put_int16_t(buf, 12, zacc);
 148:Service/../MAVLink/common/./mavlink_msg_raw_imu.h ****     _mav_put_int16_t(buf, 14, xgyro);
 149:Service/../MAVLink/common/./mavlink_msg_raw_imu.h ****     _mav_put_int16_t(buf, 16, ygyro);
 150:Service/../MAVLink/common/./mavlink_msg_raw_imu.h ****     _mav_put_int16_t(buf, 18, zgyro);
 151:Service/../MAVLink/common/./mavlink_msg_raw_imu.h ****     _mav_put_int16_t(buf, 20, xmag);
 152:Service/../MAVLink/common/./mavlink_msg_raw_imu.h ****     _mav_put_int16_t(buf, 22, ymag);
 153:Service/../MAVLink/common/./mavlink_msg_raw_imu.h ****     _mav_put_int16_t(buf, 24, zmag);
 154:Service/../MAVLink/common/./mavlink_msg_raw_imu.h **** 
 155:Service/../MAVLink/common/./mavlink_msg_raw_imu.h ****         memcpy(_MAV_PAYLOAD_NON_CONST(msg), buf, MAVLINK_MSG_ID_RAW_IMU_LEN);
 156:Service/../MAVLink/common/./mavlink_msg_raw_imu.h **** #else
 157:Service/../MAVLink/common/./mavlink_msg_raw_imu.h ****     mavlink_raw_imu_t packet;
 158:Service/../MAVLink/common/./mavlink_msg_raw_imu.h ****     packet.time_usec = time_usec;
 159:Service/../MAVLink/common/./mavlink_msg_raw_imu.h ****     packet.xacc = xacc;
 160:Service/../MAVLink/common/./mavlink_msg_raw_imu.h ****     packet.yacc = yacc;
 161:Service/../MAVLink/common/./mavlink_msg_raw_imu.h ****     packet.zacc = zacc;
 162:Service/../MAVLink/common/./mavlink_msg_raw_imu.h ****     packet.xgyro = xgyro;
 163:Service/../MAVLink/common/./mavlink_msg_raw_imu.h ****     packet.ygyro = ygyro;
 164:Service/../MAVLink/common/./mavlink_msg_raw_imu.h ****     packet.zgyro = zgyro;
 165:Service/../MAVLink/common/./mavlink_msg_raw_imu.h ****     packet.xmag = xmag;
 166:Service/../MAVLink/common/./mavlink_msg_raw_imu.h ****     packet.ymag = ymag;
 167:Service/../MAVLink/common/./mavlink_msg_raw_imu.h ****     packet.zmag = zmag;
 168:Service/../MAVLink/common/./mavlink_msg_raw_imu.h **** 
 169:Service/../MAVLink/common/./mavlink_msg_raw_imu.h ****         memcpy(_MAV_PAYLOAD_NON_CONST(msg), &packet, MAVLINK_MSG_ID_RAW_IMU_LEN);
 170:Service/../MAVLink/common/./mavlink_msg_raw_imu.h **** #endif
 171:Service/../MAVLink/common/./mavlink_msg_raw_imu.h **** 
 172:Service/../MAVLink/common/./mavlink_msg_raw_imu.h ****     msg->msgid = MAVLINK_MSG_ID_RAW_IMU;
 173:Service/../MAVLink/common/./mavlink_msg_raw_imu.h ****     return mavlink_finalize_message_chan(msg, system_id, component_id, chan, MAVLINK_MSG_ID_RAW_IMU
 174:Service/../MAVLink/common/./mavlink_msg_raw_imu.h **** }
 175:Service/../MAVLink/common/./mavlink_msg_raw_imu.h **** 
 176:Service/../MAVLink/common/./mavlink_msg_raw_imu.h **** /**
 177:Service/../MAVLink/common/./mavlink_msg_raw_imu.h ****  * @brief Encode a raw_imu struct
ARM GAS  C:\Users\8bit\AppData\Local\Temp\ccCRhmZR.s 			page 28


 178:Service/../MAVLink/common/./mavlink_msg_raw_imu.h ****  *
 179:Service/../MAVLink/common/./mavlink_msg_raw_imu.h ****  * @param system_id ID of this system
 180:Service/../MAVLink/common/./mavlink_msg_raw_imu.h ****  * @param component_id ID of this component (e.g. 200 for IMU)
 181:Service/../MAVLink/common/./mavlink_msg_raw_imu.h ****  * @param msg The MAVLink message to compress the data into
 182:Service/../MAVLink/common/./mavlink_msg_raw_imu.h ****  * @param raw_imu C-struct to read the message contents from
 183:Service/../MAVLink/common/./mavlink_msg_raw_imu.h ****  */
 184:Service/../MAVLink/common/./mavlink_msg_raw_imu.h **** static inline uint16_t mavlink_msg_raw_imu_encode(uint8_t system_id, uint8_t component_id, mavlink_
 185:Service/../MAVLink/common/./mavlink_msg_raw_imu.h **** {
 186:Service/../MAVLink/common/./mavlink_msg_raw_imu.h ****     return mavlink_msg_raw_imu_pack(system_id, component_id, msg, raw_imu->time_usec, raw_imu->xacc
 187:Service/../MAVLink/common/./mavlink_msg_raw_imu.h **** }
 188:Service/../MAVLink/common/./mavlink_msg_raw_imu.h **** 
 189:Service/../MAVLink/common/./mavlink_msg_raw_imu.h **** /**
 190:Service/../MAVLink/common/./mavlink_msg_raw_imu.h ****  * @brief Encode a raw_imu struct on a channel
 191:Service/../MAVLink/common/./mavlink_msg_raw_imu.h ****  *
 192:Service/../MAVLink/common/./mavlink_msg_raw_imu.h ****  * @param system_id ID of this system
 193:Service/../MAVLink/common/./mavlink_msg_raw_imu.h ****  * @param component_id ID of this component (e.g. 200 for IMU)
 194:Service/../MAVLink/common/./mavlink_msg_raw_imu.h ****  * @param chan The MAVLink channel this message will be sent over
 195:Service/../MAVLink/common/./mavlink_msg_raw_imu.h ****  * @param msg The MAVLink message to compress the data into
 196:Service/../MAVLink/common/./mavlink_msg_raw_imu.h ****  * @param raw_imu C-struct to read the message contents from
 197:Service/../MAVLink/common/./mavlink_msg_raw_imu.h ****  */
 198:Service/../MAVLink/common/./mavlink_msg_raw_imu.h **** static inline uint16_t mavlink_msg_raw_imu_encode_chan(uint8_t system_id, uint8_t component_id, uin
 199:Service/../MAVLink/common/./mavlink_msg_raw_imu.h **** {
 200:Service/../MAVLink/common/./mavlink_msg_raw_imu.h ****     return mavlink_msg_raw_imu_pack_chan(system_id, component_id, chan, msg, raw_imu->time_usec, ra
 201:Service/../MAVLink/common/./mavlink_msg_raw_imu.h **** }
 202:Service/../MAVLink/common/./mavlink_msg_raw_imu.h **** 
 203:Service/../MAVLink/common/./mavlink_msg_raw_imu.h **** /**
 204:Service/../MAVLink/common/./mavlink_msg_raw_imu.h ****  * @brief Send a raw_imu message
 205:Service/../MAVLink/common/./mavlink_msg_raw_imu.h ****  * @param chan MAVLink channel to send the message
 206:Service/../MAVLink/common/./mavlink_msg_raw_imu.h ****  *
 207:Service/../MAVLink/common/./mavlink_msg_raw_imu.h ****  * @param time_usec [us] Timestamp (UNIX Epoch time or time since system boot). The receiving end c
 208:Service/../MAVLink/common/./mavlink_msg_raw_imu.h ****  * @param xacc  X acceleration (raw)
 209:Service/../MAVLink/common/./mavlink_msg_raw_imu.h ****  * @param yacc  Y acceleration (raw)
 210:Service/../MAVLink/common/./mavlink_msg_raw_imu.h ****  * @param zacc  Z acceleration (raw)
 211:Service/../MAVLink/common/./mavlink_msg_raw_imu.h ****  * @param xgyro  Angular speed around X axis (raw)
 212:Service/../MAVLink/common/./mavlink_msg_raw_imu.h ****  * @param ygyro  Angular speed around Y axis (raw)
 213:Service/../MAVLink/common/./mavlink_msg_raw_imu.h ****  * @param zgyro  Angular speed around Z axis (raw)
 214:Service/../MAVLink/common/./mavlink_msg_raw_imu.h ****  * @param xmag  X Magnetic field (raw)
 215:Service/../MAVLink/common/./mavlink_msg_raw_imu.h ****  * @param ymag  Y Magnetic field (raw)
 216:Service/../MAVLink/common/./mavlink_msg_raw_imu.h ****  * @param zmag  Z Magnetic field (raw)
 217:Service/../MAVLink/common/./mavlink_msg_raw_imu.h ****  */
 218:Service/../MAVLink/common/./mavlink_msg_raw_imu.h **** #ifdef MAVLINK_USE_CONVENIENCE_FUNCTIONS
 219:Service/../MAVLink/common/./mavlink_msg_raw_imu.h **** 
 220:Service/../MAVLink/common/./mavlink_msg_raw_imu.h **** static inline void mavlink_msg_raw_imu_send(mavlink_channel_t chan, uint64_t time_usec, int16_t xac
 221:Service/../MAVLink/common/./mavlink_msg_raw_imu.h **** {
 222:Service/../MAVLink/common/./mavlink_msg_raw_imu.h **** #if MAVLINK_NEED_BYTE_SWAP || !MAVLINK_ALIGNED_FIELDS
 223:Service/../MAVLink/common/./mavlink_msg_raw_imu.h ****     char buf[MAVLINK_MSG_ID_RAW_IMU_LEN];
 224:Service/../MAVLink/common/./mavlink_msg_raw_imu.h ****     _mav_put_uint64_t(buf, 0, time_usec);
 225:Service/../MAVLink/common/./mavlink_msg_raw_imu.h ****     _mav_put_int16_t(buf, 8, xacc);
 226:Service/../MAVLink/common/./mavlink_msg_raw_imu.h ****     _mav_put_int16_t(buf, 10, yacc);
 227:Service/../MAVLink/common/./mavlink_msg_raw_imu.h ****     _mav_put_int16_t(buf, 12, zacc);
 228:Service/../MAVLink/common/./mavlink_msg_raw_imu.h ****     _mav_put_int16_t(buf, 14, xgyro);
 229:Service/../MAVLink/common/./mavlink_msg_raw_imu.h ****     _mav_put_int16_t(buf, 16, ygyro);
 230:Service/../MAVLink/common/./mavlink_msg_raw_imu.h ****     _mav_put_int16_t(buf, 18, zgyro);
 231:Service/../MAVLink/common/./mavlink_msg_raw_imu.h ****     _mav_put_int16_t(buf, 20, xmag);
 232:Service/../MAVLink/common/./mavlink_msg_raw_imu.h ****     _mav_put_int16_t(buf, 22, ymag);
 233:Service/../MAVLink/common/./mavlink_msg_raw_imu.h ****     _mav_put_int16_t(buf, 24, zmag);
 234:Service/../MAVLink/common/./mavlink_msg_raw_imu.h **** 
ARM GAS  C:\Users\8bit\AppData\Local\Temp\ccCRhmZR.s 			page 29


 235:Service/../MAVLink/common/./mavlink_msg_raw_imu.h ****     _mav_finalize_message_chan_send(chan, MAVLINK_MSG_ID_RAW_IMU, buf, MAVLINK_MSG_ID_RAW_IMU_MIN_L
 236:Service/../MAVLink/common/./mavlink_msg_raw_imu.h **** #else
 237:Service/../MAVLink/common/./mavlink_msg_raw_imu.h ****     mavlink_raw_imu_t packet;
 238:Service/../MAVLink/common/./mavlink_msg_raw_imu.h ****     packet.time_usec = time_usec;
 239:Service/../MAVLink/common/./mavlink_msg_raw_imu.h ****     packet.xacc = xacc;
 240:Service/../MAVLink/common/./mavlink_msg_raw_imu.h ****     packet.yacc = yacc;
 241:Service/../MAVLink/common/./mavlink_msg_raw_imu.h ****     packet.zacc = zacc;
 242:Service/../MAVLink/common/./mavlink_msg_raw_imu.h ****     packet.xgyro = xgyro;
 243:Service/../MAVLink/common/./mavlink_msg_raw_imu.h ****     packet.ygyro = ygyro;
 244:Service/../MAVLink/common/./mavlink_msg_raw_imu.h ****     packet.zgyro = zgyro;
 245:Service/../MAVLink/common/./mavlink_msg_raw_imu.h ****     packet.xmag = xmag;
 246:Service/../MAVLink/common/./mavlink_msg_raw_imu.h ****     packet.ymag = ymag;
 247:Service/../MAVLink/common/./mavlink_msg_raw_imu.h ****     packet.zmag = zmag;
 248:Service/../MAVLink/common/./mavlink_msg_raw_imu.h **** 
 249:Service/../MAVLink/common/./mavlink_msg_raw_imu.h ****     _mav_finalize_message_chan_send(chan, MAVLINK_MSG_ID_RAW_IMU, (const char *)&packet, MAVLINK_MS
 250:Service/../MAVLink/common/./mavlink_msg_raw_imu.h **** #endif
 251:Service/../MAVLink/common/./mavlink_msg_raw_imu.h **** }
 252:Service/../MAVLink/common/./mavlink_msg_raw_imu.h **** 
 253:Service/../MAVLink/common/./mavlink_msg_raw_imu.h **** /**
 254:Service/../MAVLink/common/./mavlink_msg_raw_imu.h ****  * @brief Send a raw_imu message
 255:Service/../MAVLink/common/./mavlink_msg_raw_imu.h ****  * @param chan MAVLink channel to send the message
 256:Service/../MAVLink/common/./mavlink_msg_raw_imu.h ****  * @param struct The MAVLink struct to serialize
 257:Service/../MAVLink/common/./mavlink_msg_raw_imu.h ****  */
 258:Service/../MAVLink/common/./mavlink_msg_raw_imu.h **** static inline void mavlink_msg_raw_imu_send_struct(mavlink_channel_t chan, const mavlink_raw_imu_t*
 259:Service/../MAVLink/common/./mavlink_msg_raw_imu.h **** {
 260:Service/../MAVLink/common/./mavlink_msg_raw_imu.h **** #if MAVLINK_NEED_BYTE_SWAP || !MAVLINK_ALIGNED_FIELDS
 261:Service/../MAVLink/common/./mavlink_msg_raw_imu.h ****     mavlink_msg_raw_imu_send(chan, raw_imu->time_usec, raw_imu->xacc, raw_imu->yacc, raw_imu->zacc,
 262:Service/../MAVLink/common/./mavlink_msg_raw_imu.h **** #else
 263:Service/../MAVLink/common/./mavlink_msg_raw_imu.h ****     _mav_finalize_message_chan_send(chan, MAVLINK_MSG_ID_RAW_IMU, (const char *)raw_imu, MAVLINK_MS
 264:Service/../MAVLink/common/./mavlink_msg_raw_imu.h **** #endif
 265:Service/../MAVLink/common/./mavlink_msg_raw_imu.h **** }
 266:Service/../MAVLink/common/./mavlink_msg_raw_imu.h **** 
 267:Service/../MAVLink/common/./mavlink_msg_raw_imu.h **** #if MAVLINK_MSG_ID_RAW_IMU_LEN <= MAVLINK_MAX_PAYLOAD_LEN
 268:Service/../MAVLink/common/./mavlink_msg_raw_imu.h **** /*
 269:Service/../MAVLink/common/./mavlink_msg_raw_imu.h ****   This variant of _send() can be used to save stack space by re-using
 270:Service/../MAVLink/common/./mavlink_msg_raw_imu.h ****   memory from the receive buffer.  The caller provides a
 271:Service/../MAVLink/common/./mavlink_msg_raw_imu.h ****   mavlink_message_t which is the size of a full mavlink message. This
 272:Service/../MAVLink/common/./mavlink_msg_raw_imu.h ****   is usually the receive buffer for the channel, and allows a reply to an
 273:Service/../MAVLink/common/./mavlink_msg_raw_imu.h ****   incoming message with minimum stack space usage.
 274:Service/../MAVLink/common/./mavlink_msg_raw_imu.h ****  */
 275:Service/../MAVLink/common/./mavlink_msg_raw_imu.h **** static inline void mavlink_msg_raw_imu_send_buf(mavlink_message_t *msgbuf, mavlink_channel_t chan, 
 276:Service/../MAVLink/common/./mavlink_msg_raw_imu.h **** {
 277:Service/../MAVLink/common/./mavlink_msg_raw_imu.h **** #if MAVLINK_NEED_BYTE_SWAP || !MAVLINK_ALIGNED_FIELDS
 278:Service/../MAVLink/common/./mavlink_msg_raw_imu.h ****     char *buf = (char *)msgbuf;
 279:Service/../MAVLink/common/./mavlink_msg_raw_imu.h ****     _mav_put_uint64_t(buf, 0, time_usec);
 280:Service/../MAVLink/common/./mavlink_msg_raw_imu.h ****     _mav_put_int16_t(buf, 8, xacc);
 281:Service/../MAVLink/common/./mavlink_msg_raw_imu.h ****     _mav_put_int16_t(buf, 10, yacc);
 282:Service/../MAVLink/common/./mavlink_msg_raw_imu.h ****     _mav_put_int16_t(buf, 12, zacc);
 283:Service/../MAVLink/common/./mavlink_msg_raw_imu.h ****     _mav_put_int16_t(buf, 14, xgyro);
 284:Service/../MAVLink/common/./mavlink_msg_raw_imu.h ****     _mav_put_int16_t(buf, 16, ygyro);
 285:Service/../MAVLink/common/./mavlink_msg_raw_imu.h ****     _mav_put_int16_t(buf, 18, zgyro);
 286:Service/../MAVLink/common/./mavlink_msg_raw_imu.h ****     _mav_put_int16_t(buf, 20, xmag);
 287:Service/../MAVLink/common/./mavlink_msg_raw_imu.h ****     _mav_put_int16_t(buf, 22, ymag);
 288:Service/../MAVLink/common/./mavlink_msg_raw_imu.h ****     _mav_put_int16_t(buf, 24, zmag);
 289:Service/../MAVLink/common/./mavlink_msg_raw_imu.h **** 
 290:Service/../MAVLink/common/./mavlink_msg_raw_imu.h ****     _mav_finalize_message_chan_send(chan, MAVLINK_MSG_ID_RAW_IMU, buf, MAVLINK_MSG_ID_RAW_IMU_MIN_L
 291:Service/../MAVLink/common/./mavlink_msg_raw_imu.h **** #else
ARM GAS  C:\Users\8bit\AppData\Local\Temp\ccCRhmZR.s 			page 30


 292:Service/../MAVLink/common/./mavlink_msg_raw_imu.h ****     mavlink_raw_imu_t *packet = (mavlink_raw_imu_t *)msgbuf;
 293:Service/../MAVLink/common/./mavlink_msg_raw_imu.h ****     packet->time_usec = time_usec;
 294:Service/../MAVLink/common/./mavlink_msg_raw_imu.h ****     packet->xacc = xacc;
 295:Service/../MAVLink/common/./mavlink_msg_raw_imu.h ****     packet->yacc = yacc;
 296:Service/../MAVLink/common/./mavlink_msg_raw_imu.h ****     packet->zacc = zacc;
 297:Service/../MAVLink/common/./mavlink_msg_raw_imu.h ****     packet->xgyro = xgyro;
 298:Service/../MAVLink/common/./mavlink_msg_raw_imu.h ****     packet->ygyro = ygyro;
 299:Service/../MAVLink/common/./mavlink_msg_raw_imu.h ****     packet->zgyro = zgyro;
 300:Service/../MAVLink/common/./mavlink_msg_raw_imu.h ****     packet->xmag = xmag;
 301:Service/../MAVLink/common/./mavlink_msg_raw_imu.h ****     packet->ymag = ymag;
 302:Service/../MAVLink/common/./mavlink_msg_raw_imu.h ****     packet->zmag = zmag;
 303:Service/../MAVLink/common/./mavlink_msg_raw_imu.h **** 
 304:Service/../MAVLink/common/./mavlink_msg_raw_imu.h ****     _mav_finalize_message_chan_send(chan, MAVLINK_MSG_ID_RAW_IMU, (const char *)packet, MAVLINK_MSG
 305:Service/../MAVLink/common/./mavlink_msg_raw_imu.h **** #endif
 306:Service/../MAVLink/common/./mavlink_msg_raw_imu.h **** }
 307:Service/../MAVLink/common/./mavlink_msg_raw_imu.h **** #endif
 308:Service/../MAVLink/common/./mavlink_msg_raw_imu.h **** 
 309:Service/../MAVLink/common/./mavlink_msg_raw_imu.h **** #endif
 310:Service/../MAVLink/common/./mavlink_msg_raw_imu.h **** 
 311:Service/../MAVLink/common/./mavlink_msg_raw_imu.h **** // MESSAGE RAW_IMU UNPACKING
 312:Service/../MAVLink/common/./mavlink_msg_raw_imu.h **** 
 313:Service/../MAVLink/common/./mavlink_msg_raw_imu.h **** 
 314:Service/../MAVLink/common/./mavlink_msg_raw_imu.h **** /**
 315:Service/../MAVLink/common/./mavlink_msg_raw_imu.h ****  * @brief Get field time_usec from raw_imu message
 316:Service/../MAVLink/common/./mavlink_msg_raw_imu.h ****  *
 317:Service/../MAVLink/common/./mavlink_msg_raw_imu.h ****  * @return [us] Timestamp (UNIX Epoch time or time since system boot). The receiving end can infer 
 318:Service/../MAVLink/common/./mavlink_msg_raw_imu.h ****  */
 319:Service/../MAVLink/common/./mavlink_msg_raw_imu.h **** static inline uint64_t mavlink_msg_raw_imu_get_time_usec(const mavlink_message_t* msg)
 320:Service/../MAVLink/common/./mavlink_msg_raw_imu.h **** {
 321:Service/../MAVLink/common/./mavlink_msg_raw_imu.h ****     return _MAV_RETURN_uint64_t(msg,  0);
 322:Service/../MAVLink/common/./mavlink_msg_raw_imu.h **** }
 323:Service/../MAVLink/common/./mavlink_msg_raw_imu.h **** 
 324:Service/../MAVLink/common/./mavlink_msg_raw_imu.h **** /**
 325:Service/../MAVLink/common/./mavlink_msg_raw_imu.h ****  * @brief Get field xacc from raw_imu message
 326:Service/../MAVLink/common/./mavlink_msg_raw_imu.h ****  *
 327:Service/../MAVLink/common/./mavlink_msg_raw_imu.h ****  * @return  X acceleration (raw)
 328:Service/../MAVLink/common/./mavlink_msg_raw_imu.h ****  */
 329:Service/../MAVLink/common/./mavlink_msg_raw_imu.h **** static inline int16_t mavlink_msg_raw_imu_get_xacc(const mavlink_message_t* msg)
 330:Service/../MAVLink/common/./mavlink_msg_raw_imu.h **** {
 331:Service/../MAVLink/common/./mavlink_msg_raw_imu.h ****     return _MAV_RETURN_int16_t(msg,  8);
 332:Service/../MAVLink/common/./mavlink_msg_raw_imu.h **** }
 333:Service/../MAVLink/common/./mavlink_msg_raw_imu.h **** 
 334:Service/../MAVLink/common/./mavlink_msg_raw_imu.h **** /**
 335:Service/../MAVLink/common/./mavlink_msg_raw_imu.h ****  * @brief Get field yacc from raw_imu message
 336:Service/../MAVLink/common/./mavlink_msg_raw_imu.h ****  *
 337:Service/../MAVLink/common/./mavlink_msg_raw_imu.h ****  * @return  Y acceleration (raw)
 338:Service/../MAVLink/common/./mavlink_msg_raw_imu.h ****  */
 339:Service/../MAVLink/common/./mavlink_msg_raw_imu.h **** static inline int16_t mavlink_msg_raw_imu_get_yacc(const mavlink_message_t* msg)
 340:Service/../MAVLink/common/./mavlink_msg_raw_imu.h **** {
 341:Service/../MAVLink/common/./mavlink_msg_raw_imu.h ****     return _MAV_RETURN_int16_t(msg,  10);
 342:Service/../MAVLink/common/./mavlink_msg_raw_imu.h **** }
 343:Service/../MAVLink/common/./mavlink_msg_raw_imu.h **** 
 344:Service/../MAVLink/common/./mavlink_msg_raw_imu.h **** /**
 345:Service/../MAVLink/common/./mavlink_msg_raw_imu.h ****  * @brief Get field zacc from raw_imu message
 346:Service/../MAVLink/common/./mavlink_msg_raw_imu.h ****  *
 347:Service/../MAVLink/common/./mavlink_msg_raw_imu.h ****  * @return  Z acceleration (raw)
 348:Service/../MAVLink/common/./mavlink_msg_raw_imu.h ****  */
ARM GAS  C:\Users\8bit\AppData\Local\Temp\ccCRhmZR.s 			page 31


 349:Service/../MAVLink/common/./mavlink_msg_raw_imu.h **** static inline int16_t mavlink_msg_raw_imu_get_zacc(const mavlink_message_t* msg)
 350:Service/../MAVLink/common/./mavlink_msg_raw_imu.h **** {
 351:Service/../MAVLink/common/./mavlink_msg_raw_imu.h ****     return _MAV_RETURN_int16_t(msg,  12);
 352:Service/../MAVLink/common/./mavlink_msg_raw_imu.h **** }
 353:Service/../MAVLink/common/./mavlink_msg_raw_imu.h **** 
 354:Service/../MAVLink/common/./mavlink_msg_raw_imu.h **** /**
 355:Service/../MAVLink/common/./mavlink_msg_raw_imu.h ****  * @brief Get field xgyro from raw_imu message
 356:Service/../MAVLink/common/./mavlink_msg_raw_imu.h ****  *
 357:Service/../MAVLink/common/./mavlink_msg_raw_imu.h ****  * @return  Angular speed around X axis (raw)
 358:Service/../MAVLink/common/./mavlink_msg_raw_imu.h ****  */
 359:Service/../MAVLink/common/./mavlink_msg_raw_imu.h **** static inline int16_t mavlink_msg_raw_imu_get_xgyro(const mavlink_message_t* msg)
 360:Service/../MAVLink/common/./mavlink_msg_raw_imu.h **** {
 361:Service/../MAVLink/common/./mavlink_msg_raw_imu.h ****     return _MAV_RETURN_int16_t(msg,  14);
 362:Service/../MAVLink/common/./mavlink_msg_raw_imu.h **** }
 363:Service/../MAVLink/common/./mavlink_msg_raw_imu.h **** 
 364:Service/../MAVLink/common/./mavlink_msg_raw_imu.h **** /**
 365:Service/../MAVLink/common/./mavlink_msg_raw_imu.h ****  * @brief Get field ygyro from raw_imu message
 366:Service/../MAVLink/common/./mavlink_msg_raw_imu.h ****  *
 367:Service/../MAVLink/common/./mavlink_msg_raw_imu.h ****  * @return  Angular speed around Y axis (raw)
 368:Service/../MAVLink/common/./mavlink_msg_raw_imu.h ****  */
 369:Service/../MAVLink/common/./mavlink_msg_raw_imu.h **** static inline int16_t mavlink_msg_raw_imu_get_ygyro(const mavlink_message_t* msg)
 370:Service/../MAVLink/common/./mavlink_msg_raw_imu.h **** {
 371:Service/../MAVLink/common/./mavlink_msg_raw_imu.h ****     return _MAV_RETURN_int16_t(msg,  16);
 372:Service/../MAVLink/common/./mavlink_msg_raw_imu.h **** }
 373:Service/../MAVLink/common/./mavlink_msg_raw_imu.h **** 
 374:Service/../MAVLink/common/./mavlink_msg_raw_imu.h **** /**
 375:Service/../MAVLink/common/./mavlink_msg_raw_imu.h ****  * @brief Get field zgyro from raw_imu message
 376:Service/../MAVLink/common/./mavlink_msg_raw_imu.h ****  *
 377:Service/../MAVLink/common/./mavlink_msg_raw_imu.h ****  * @return  Angular speed around Z axis (raw)
 378:Service/../MAVLink/common/./mavlink_msg_raw_imu.h ****  */
 379:Service/../MAVLink/common/./mavlink_msg_raw_imu.h **** static inline int16_t mavlink_msg_raw_imu_get_zgyro(const mavlink_message_t* msg)
 380:Service/../MAVLink/common/./mavlink_msg_raw_imu.h **** {
 381:Service/../MAVLink/common/./mavlink_msg_raw_imu.h ****     return _MAV_RETURN_int16_t(msg,  18);
 382:Service/../MAVLink/common/./mavlink_msg_raw_imu.h **** }
 383:Service/../MAVLink/common/./mavlink_msg_raw_imu.h **** 
 384:Service/../MAVLink/common/./mavlink_msg_raw_imu.h **** /**
 385:Service/../MAVLink/common/./mavlink_msg_raw_imu.h ****  * @brief Get field xmag from raw_imu message
 386:Service/../MAVLink/common/./mavlink_msg_raw_imu.h ****  *
 387:Service/../MAVLink/common/./mavlink_msg_raw_imu.h ****  * @return  X Magnetic field (raw)
 388:Service/../MAVLink/common/./mavlink_msg_raw_imu.h ****  */
 389:Service/../MAVLink/common/./mavlink_msg_raw_imu.h **** static inline int16_t mavlink_msg_raw_imu_get_xmag(const mavlink_message_t* msg)
 390:Service/../MAVLink/common/./mavlink_msg_raw_imu.h **** {
 391:Service/../MAVLink/common/./mavlink_msg_raw_imu.h ****     return _MAV_RETURN_int16_t(msg,  20);
 392:Service/../MAVLink/common/./mavlink_msg_raw_imu.h **** }
 393:Service/../MAVLink/common/./mavlink_msg_raw_imu.h **** 
 394:Service/../MAVLink/common/./mavlink_msg_raw_imu.h **** /**
 395:Service/../MAVLink/common/./mavlink_msg_raw_imu.h ****  * @brief Get field ymag from raw_imu message
 396:Service/../MAVLink/common/./mavlink_msg_raw_imu.h ****  *
 397:Service/../MAVLink/common/./mavlink_msg_raw_imu.h ****  * @return  Y Magnetic field (raw)
 398:Service/../MAVLink/common/./mavlink_msg_raw_imu.h ****  */
 399:Service/../MAVLink/common/./mavlink_msg_raw_imu.h **** static inline int16_t mavlink_msg_raw_imu_get_ymag(const mavlink_message_t* msg)
 400:Service/../MAVLink/common/./mavlink_msg_raw_imu.h **** {
 401:Service/../MAVLink/common/./mavlink_msg_raw_imu.h ****     return _MAV_RETURN_int16_t(msg,  22);
 402:Service/../MAVLink/common/./mavlink_msg_raw_imu.h **** }
 403:Service/../MAVLink/common/./mavlink_msg_raw_imu.h **** 
 404:Service/../MAVLink/common/./mavlink_msg_raw_imu.h **** /**
 405:Service/../MAVLink/common/./mavlink_msg_raw_imu.h ****  * @brief Get field zmag from raw_imu message
ARM GAS  C:\Users\8bit\AppData\Local\Temp\ccCRhmZR.s 			page 32


 406:Service/../MAVLink/common/./mavlink_msg_raw_imu.h ****  *
 407:Service/../MAVLink/common/./mavlink_msg_raw_imu.h ****  * @return  Z Magnetic field (raw)
 408:Service/../MAVLink/common/./mavlink_msg_raw_imu.h ****  */
 409:Service/../MAVLink/common/./mavlink_msg_raw_imu.h **** static inline int16_t mavlink_msg_raw_imu_get_zmag(const mavlink_message_t* msg)
 410:Service/../MAVLink/common/./mavlink_msg_raw_imu.h **** {
 411:Service/../MAVLink/common/./mavlink_msg_raw_imu.h ****     return _MAV_RETURN_int16_t(msg,  24);
 412:Service/../MAVLink/common/./mavlink_msg_raw_imu.h **** }
 413:Service/../MAVLink/common/./mavlink_msg_raw_imu.h **** 
 414:Service/../MAVLink/common/./mavlink_msg_raw_imu.h **** /**
 415:Service/../MAVLink/common/./mavlink_msg_raw_imu.h ****  * @brief Decode a raw_imu message into a struct
 416:Service/../MAVLink/common/./mavlink_msg_raw_imu.h ****  *
 417:Service/../MAVLink/common/./mavlink_msg_raw_imu.h ****  * @param msg The message to decode
 418:Service/../MAVLink/common/./mavlink_msg_raw_imu.h ****  * @param raw_imu C-struct to decode the message contents into
 419:Service/../MAVLink/common/./mavlink_msg_raw_imu.h ****  */
 420:Service/../MAVLink/common/./mavlink_msg_raw_imu.h **** static inline void mavlink_msg_raw_imu_decode(const mavlink_message_t* msg, mavlink_raw_imu_t* raw_
 683              		.loc 3 420 20 view .LVU210
 684              	.LBB48:
 421:Service/../MAVLink/common/./mavlink_msg_raw_imu.h **** {
 422:Service/../MAVLink/common/./mavlink_msg_raw_imu.h **** #if MAVLINK_NEED_BYTE_SWAP || !MAVLINK_ALIGNED_FIELDS
 423:Service/../MAVLink/common/./mavlink_msg_raw_imu.h ****     raw_imu->time_usec = mavlink_msg_raw_imu_get_time_usec(msg);
 424:Service/../MAVLink/common/./mavlink_msg_raw_imu.h ****     raw_imu->xacc = mavlink_msg_raw_imu_get_xacc(msg);
 425:Service/../MAVLink/common/./mavlink_msg_raw_imu.h ****     raw_imu->yacc = mavlink_msg_raw_imu_get_yacc(msg);
 426:Service/../MAVLink/common/./mavlink_msg_raw_imu.h ****     raw_imu->zacc = mavlink_msg_raw_imu_get_zacc(msg);
 427:Service/../MAVLink/common/./mavlink_msg_raw_imu.h ****     raw_imu->xgyro = mavlink_msg_raw_imu_get_xgyro(msg);
 428:Service/../MAVLink/common/./mavlink_msg_raw_imu.h ****     raw_imu->ygyro = mavlink_msg_raw_imu_get_ygyro(msg);
 429:Service/../MAVLink/common/./mavlink_msg_raw_imu.h ****     raw_imu->zgyro = mavlink_msg_raw_imu_get_zgyro(msg);
 430:Service/../MAVLink/common/./mavlink_msg_raw_imu.h ****     raw_imu->xmag = mavlink_msg_raw_imu_get_xmag(msg);
 431:Service/../MAVLink/common/./mavlink_msg_raw_imu.h ****     raw_imu->ymag = mavlink_msg_raw_imu_get_ymag(msg);
 432:Service/../MAVLink/common/./mavlink_msg_raw_imu.h ****     raw_imu->zmag = mavlink_msg_raw_imu_get_zmag(msg);
 433:Service/../MAVLink/common/./mavlink_msg_raw_imu.h **** #else
 434:Service/../MAVLink/common/./mavlink_msg_raw_imu.h ****         uint8_t len = msg->len < MAVLINK_MSG_ID_RAW_IMU_LEN? msg->len : MAVLINK_MSG_ID_RAW_IMU_LEN;
 685              		.loc 3 434 9 view .LVU211
 686              		.loc 3 434 26 is_stmt 0 view .LVU212
 687 0022 9DF82F20 		ldrb	r2, [sp, #47]	@ zero_extendqisi2
 688              	.LVL39:
 435:Service/../MAVLink/common/./mavlink_msg_raw_imu.h ****         memset(raw_imu, 0, MAVLINK_MSG_ID_RAW_IMU_LEN);
 689              		.loc 3 435 9 is_stmt 1 view .LVU213
 690 0026 0023     		movs	r3, #0
 691 0028 0093     		str	r3, [sp]
 692 002a 0193     		str	r3, [sp, #4]
 693 002c 0293     		str	r3, [sp, #8]
 694 002e 0393     		str	r3, [sp, #12]
 695 0030 0493     		str	r3, [sp, #16]
 696 0032 0593     		str	r3, [sp, #20]
 697 0034 ADF81830 		strh	r3, [sp, #24]	@ movhi
 436:Service/../MAVLink/common/./mavlink_msg_raw_imu.h ****     memcpy(raw_imu, _MAV_PAYLOAD(msg), len);
 698              		.loc 3 436 5 view .LVU214
 699 0038 1A2A     		cmp	r2, #26
 700 003a 28BF     		it	cs
 701 003c 1A22     		movcs	r2, #26
 702              	.LVL40:
 703              		.loc 3 436 5 is_stmt 0 view .LVU215
 704 003e 0DA9     		add	r1, sp, #52
 705 0040 6846     		mov	r0, sp
 706 0042 FFF7FEFF 		bl	memcpy
 707              	.LVL41:
 708              		.loc 3 436 5 view .LVU216
ARM GAS  C:\Users\8bit\AppData\Local\Temp\ccCRhmZR.s 			page 33


 709              	.LBE48:
 710              	.LBE47:
 375:Service/Srv_ComProto.c **** 
 376:Service/Srv_ComProto.c ****         if (obj->MavMsg_Gyr_Callback)
 711              		.loc 1 376 9 is_stmt 1 view .LVU217
 712              		.loc 1 376 16 is_stmt 0 view .LVU218
 713 0046 636E     		ldr	r3, [r4, #100]
 714              		.loc 1 376 12 view .LVU219
 715 0048 4BB1     		cbz	r3, .L54
 377:Service/Srv_ComProto.c ****             return obj->MavMsg_Gyr_Callback(&msg_imu, obj->cus_p_gyr);
 716              		.loc 1 377 13 is_stmt 1 view .LVU220
 717              		.loc 1 377 20 is_stmt 0 view .LVU221
 718 004a 6168     		ldr	r1, [r4, #4]
 719 004c 6846     		mov	r0, sp
 720 004e 9847     		blx	r3
 721              	.LVL42:
 722 0050 00E0     		b	.L52
 723              	.LVL43:
 724              	.L53:
 378:Service/Srv_ComProto.c ****     }
 379:Service/Srv_ComProto.c **** 
 380:Service/Srv_ComProto.c ****     return false;
 725              		.loc 1 380 12 view .LVU222
 726 0052 0020     		movs	r0, #0
 727              	.LVL44:
 728              	.L52:
 381:Service/Srv_ComProto.c **** }
 729              		.loc 1 381 1 view .LVU223
 730 0054 08B0     		add	sp, sp, #32
 731              	.LCFI10:
 732              		.cfi_remember_state
 733              		.cfi_def_cfa_offset 24
 734              		@ sp needed
 735 0056 BDE81040 		pop	{r4, lr}
 736              	.LCFI11:
 737              		.cfi_restore 14
 738              		.cfi_restore 4
 739              		.cfi_def_cfa_offset 16
 740 005a 04B0     		add	sp, sp, #16
 741              	.LCFI12:
 742              		.cfi_def_cfa_offset 0
 743 005c 7047     		bx	lr
 744              	.LVL45:
 745              	.L54:
 746              	.LCFI13:
 747              		.cfi_restore_state
 380:Service/Srv_ComProto.c **** }
 748              		.loc 1 380 12 view .LVU224
 749 005e 0020     		movs	r0, #0
 750 0060 F8E7     		b	.L52
 751              		.cfi_endproc
 752              	.LFE2088:
 754              		.section	.text.SrvComProto_MavMsg_Decode_ExpAttiude,"ax",%progbits
 755              		.align	1
 756              		.syntax unified
 757              		.thumb
 758              		.thumb_func
ARM GAS  C:\Users\8bit\AppData\Local\Temp\ccCRhmZR.s 			page 34


 760              	SrvComProto_MavMsg_Decode_ExpAttiude:
 761              	.LVL46:
 762              	.LFB2087:
 348:Service/Srv_ComProto.c ****     mavlink_attitude_t msg_att;
 763              		.loc 1 348 1 is_stmt 1 view -0
 764              		.cfi_startproc
 765              		@ args = 276, pretend = 16, frame = 32
 766              		@ frame_needed = 0, uses_anonymous_args = 0
 348:Service/Srv_ComProto.c ****     mavlink_attitude_t msg_att;
 767              		.loc 1 348 1 is_stmt 0 view .LVU226
 768 0000 84B0     		sub	sp, sp, #16
 769              	.LCFI14:
 770              		.cfi_def_cfa_offset 16
 771 0002 10B5     		push	{r4, lr}
 772              	.LCFI15:
 773              		.cfi_def_cfa_offset 24
 774              		.cfi_offset 4, -24
 775              		.cfi_offset 14, -20
 776 0004 88B0     		sub	sp, sp, #32
 777              	.LCFI16:
 778              		.cfi_def_cfa_offset 56
 779 0006 0DF12C0C 		add	ip, sp, #44
 780 000a 8CE80E00 		stm	ip, {r1, r2, r3}
 349:Service/Srv_ComProto.c **** 
 781              		.loc 1 349 5 is_stmt 1 view .LVU227
 351:Service/Srv_ComProto.c ****     {
 782              		.loc 1 351 5 view .LVU228
 351:Service/Srv_ComProto.c ****     {
 783              		.loc 1 351 8 is_stmt 0 view .LVU229
 784 000e D0B1     		cbz	r0, .L58
 785 0010 0446     		mov	r4, r0
 353:Service/Srv_ComProto.c **** 
 786              		.loc 1 353 9 is_stmt 1 view .LVU230
 353:Service/Srv_ComProto.c **** 
 787              		.loc 1 353 12 is_stmt 0 view .LVU231
 788 0012 836B     		ldr	r3, [r0, #56]
 353:Service/Srv_ComProto.c **** 
 789              		.loc 1 353 22 view .LVU232
 790 0014 0133     		adds	r3, r3, #1
 791 0016 8363     		str	r3, [r0, #56]
 355:Service/Srv_ComProto.c ****         mavlink_msg_attitude_decode(&msg, &msg_att);
 792              		.loc 1 355 9 is_stmt 1 view .LVU233
 793 0018 0023     		movs	r3, #0
 794 001a 0193     		str	r3, [sp, #4]
 795 001c 0293     		str	r3, [sp, #8]
 796 001e 0393     		str	r3, [sp, #12]
 797 0020 0493     		str	r3, [sp, #16]
 798 0022 0593     		str	r3, [sp, #20]
 799 0024 0693     		str	r3, [sp, #24]
 800 0026 0793     		str	r3, [sp, #28]
 356:Service/Srv_ComProto.c **** 
 801              		.loc 1 356 9 view .LVU234
 802              	.LVL47:
 803              	.LBB51:
 804              	.LBI51:
 805              		.file 4 "Service/../MAVLink/common/./mavlink_msg_attitude.h"
   1:Service/../MAVLink/common/./mavlink_msg_attitude.h **** #pragma once
ARM GAS  C:\Users\8bit\AppData\Local\Temp\ccCRhmZR.s 			page 35


   2:Service/../MAVLink/common/./mavlink_msg_attitude.h **** // MESSAGE ATTITUDE PACKING
   3:Service/../MAVLink/common/./mavlink_msg_attitude.h **** 
   4:Service/../MAVLink/common/./mavlink_msg_attitude.h **** #define MAVLINK_MSG_ID_ATTITUDE 30
   5:Service/../MAVLink/common/./mavlink_msg_attitude.h **** 
   6:Service/../MAVLink/common/./mavlink_msg_attitude.h **** 
   7:Service/../MAVLink/common/./mavlink_msg_attitude.h **** typedef struct __mavlink_attitude_t {
   8:Service/../MAVLink/common/./mavlink_msg_attitude.h ****  uint32_t time_boot_ms; /*< [ms] Timestamp (time since system boot).*/
   9:Service/../MAVLink/common/./mavlink_msg_attitude.h ****  float roll; /*< [rad] Roll angle (-pi..+pi)*/
  10:Service/../MAVLink/common/./mavlink_msg_attitude.h ****  float pitch; /*< [rad] Pitch angle (-pi..+pi)*/
  11:Service/../MAVLink/common/./mavlink_msg_attitude.h ****  float yaw; /*< [rad] Yaw angle (-pi..+pi)*/
  12:Service/../MAVLink/common/./mavlink_msg_attitude.h ****  float rollspeed; /*< [rad/s] Roll angular speed*/
  13:Service/../MAVLink/common/./mavlink_msg_attitude.h ****  float pitchspeed; /*< [rad/s] Pitch angular speed*/
  14:Service/../MAVLink/common/./mavlink_msg_attitude.h ****  float yawspeed; /*< [rad/s] Yaw angular speed*/
  15:Service/../MAVLink/common/./mavlink_msg_attitude.h **** } mavlink_attitude_t;
  16:Service/../MAVLink/common/./mavlink_msg_attitude.h **** 
  17:Service/../MAVLink/common/./mavlink_msg_attitude.h **** #define MAVLINK_MSG_ID_ATTITUDE_LEN 28
  18:Service/../MAVLink/common/./mavlink_msg_attitude.h **** #define MAVLINK_MSG_ID_ATTITUDE_MIN_LEN 28
  19:Service/../MAVLink/common/./mavlink_msg_attitude.h **** #define MAVLINK_MSG_ID_30_LEN 28
  20:Service/../MAVLink/common/./mavlink_msg_attitude.h **** #define MAVLINK_MSG_ID_30_MIN_LEN 28
  21:Service/../MAVLink/common/./mavlink_msg_attitude.h **** 
  22:Service/../MAVLink/common/./mavlink_msg_attitude.h **** #define MAVLINK_MSG_ID_ATTITUDE_CRC 39
  23:Service/../MAVLink/common/./mavlink_msg_attitude.h **** #define MAVLINK_MSG_ID_30_CRC 39
  24:Service/../MAVLink/common/./mavlink_msg_attitude.h **** 
  25:Service/../MAVLink/common/./mavlink_msg_attitude.h **** 
  26:Service/../MAVLink/common/./mavlink_msg_attitude.h **** 
  27:Service/../MAVLink/common/./mavlink_msg_attitude.h **** #if MAVLINK_COMMAND_24BIT
  28:Service/../MAVLink/common/./mavlink_msg_attitude.h **** #define MAVLINK_MESSAGE_INFO_ATTITUDE { \
  29:Service/../MAVLink/common/./mavlink_msg_attitude.h ****     30, \
  30:Service/../MAVLink/common/./mavlink_msg_attitude.h ****     "ATTITUDE", \
  31:Service/../MAVLink/common/./mavlink_msg_attitude.h ****     7, \
  32:Service/../MAVLink/common/./mavlink_msg_attitude.h ****     {  { "time_boot_ms", NULL, MAVLINK_TYPE_UINT32_T, 0, 0, offsetof(mavlink_attitude_t, time_boot_
  33:Service/../MAVLink/common/./mavlink_msg_attitude.h ****          { "roll", NULL, MAVLINK_TYPE_FLOAT, 0, 4, offsetof(mavlink_attitude_t, roll) }, \
  34:Service/../MAVLink/common/./mavlink_msg_attitude.h ****          { "pitch", NULL, MAVLINK_TYPE_FLOAT, 0, 8, offsetof(mavlink_attitude_t, pitch) }, \
  35:Service/../MAVLink/common/./mavlink_msg_attitude.h ****          { "yaw", NULL, MAVLINK_TYPE_FLOAT, 0, 12, offsetof(mavlink_attitude_t, yaw) }, \
  36:Service/../MAVLink/common/./mavlink_msg_attitude.h ****          { "rollspeed", NULL, MAVLINK_TYPE_FLOAT, 0, 16, offsetof(mavlink_attitude_t, rollspeed) },
  37:Service/../MAVLink/common/./mavlink_msg_attitude.h ****          { "pitchspeed", NULL, MAVLINK_TYPE_FLOAT, 0, 20, offsetof(mavlink_attitude_t, pitchspeed) 
  38:Service/../MAVLink/common/./mavlink_msg_attitude.h ****          { "yawspeed", NULL, MAVLINK_TYPE_FLOAT, 0, 24, offsetof(mavlink_attitude_t, yawspeed) }, \
  39:Service/../MAVLink/common/./mavlink_msg_attitude.h ****          } \
  40:Service/../MAVLink/common/./mavlink_msg_attitude.h **** }
  41:Service/../MAVLink/common/./mavlink_msg_attitude.h **** #else
  42:Service/../MAVLink/common/./mavlink_msg_attitude.h **** #define MAVLINK_MESSAGE_INFO_ATTITUDE { \
  43:Service/../MAVLink/common/./mavlink_msg_attitude.h ****     "ATTITUDE", \
  44:Service/../MAVLink/common/./mavlink_msg_attitude.h ****     7, \
  45:Service/../MAVLink/common/./mavlink_msg_attitude.h ****     {  { "time_boot_ms", NULL, MAVLINK_TYPE_UINT32_T, 0, 0, offsetof(mavlink_attitude_t, time_boot_
  46:Service/../MAVLink/common/./mavlink_msg_attitude.h ****          { "roll", NULL, MAVLINK_TYPE_FLOAT, 0, 4, offsetof(mavlink_attitude_t, roll) }, \
  47:Service/../MAVLink/common/./mavlink_msg_attitude.h ****          { "pitch", NULL, MAVLINK_TYPE_FLOAT, 0, 8, offsetof(mavlink_attitude_t, pitch) }, \
  48:Service/../MAVLink/common/./mavlink_msg_attitude.h ****          { "yaw", NULL, MAVLINK_TYPE_FLOAT, 0, 12, offsetof(mavlink_attitude_t, yaw) }, \
  49:Service/../MAVLink/common/./mavlink_msg_attitude.h ****          { "rollspeed", NULL, MAVLINK_TYPE_FLOAT, 0, 16, offsetof(mavlink_attitude_t, rollspeed) },
  50:Service/../MAVLink/common/./mavlink_msg_attitude.h ****          { "pitchspeed", NULL, MAVLINK_TYPE_FLOAT, 0, 20, offsetof(mavlink_attitude_t, pitchspeed) 
  51:Service/../MAVLink/common/./mavlink_msg_attitude.h ****          { "yawspeed", NULL, MAVLINK_TYPE_FLOAT, 0, 24, offsetof(mavlink_attitude_t, yawspeed) }, \
  52:Service/../MAVLink/common/./mavlink_msg_attitude.h ****          } \
  53:Service/../MAVLink/common/./mavlink_msg_attitude.h **** }
  54:Service/../MAVLink/common/./mavlink_msg_attitude.h **** #endif
  55:Service/../MAVLink/common/./mavlink_msg_attitude.h **** 
  56:Service/../MAVLink/common/./mavlink_msg_attitude.h **** /**
  57:Service/../MAVLink/common/./mavlink_msg_attitude.h ****  * @brief Pack a attitude message
  58:Service/../MAVLink/common/./mavlink_msg_attitude.h ****  * @param system_id ID of this system
ARM GAS  C:\Users\8bit\AppData\Local\Temp\ccCRhmZR.s 			page 36


  59:Service/../MAVLink/common/./mavlink_msg_attitude.h ****  * @param component_id ID of this component (e.g. 200 for IMU)
  60:Service/../MAVLink/common/./mavlink_msg_attitude.h ****  * @param msg The MAVLink message to compress the data into
  61:Service/../MAVLink/common/./mavlink_msg_attitude.h ****  *
  62:Service/../MAVLink/common/./mavlink_msg_attitude.h ****  * @param time_boot_ms [ms] Timestamp (time since system boot).
  63:Service/../MAVLink/common/./mavlink_msg_attitude.h ****  * @param roll [rad] Roll angle (-pi..+pi)
  64:Service/../MAVLink/common/./mavlink_msg_attitude.h ****  * @param pitch [rad] Pitch angle (-pi..+pi)
  65:Service/../MAVLink/common/./mavlink_msg_attitude.h ****  * @param yaw [rad] Yaw angle (-pi..+pi)
  66:Service/../MAVLink/common/./mavlink_msg_attitude.h ****  * @param rollspeed [rad/s] Roll angular speed
  67:Service/../MAVLink/common/./mavlink_msg_attitude.h ****  * @param pitchspeed [rad/s] Pitch angular speed
  68:Service/../MAVLink/common/./mavlink_msg_attitude.h ****  * @param yawspeed [rad/s] Yaw angular speed
  69:Service/../MAVLink/common/./mavlink_msg_attitude.h ****  * @return length of the message in bytes (excluding serial stream start sign)
  70:Service/../MAVLink/common/./mavlink_msg_attitude.h ****  */
  71:Service/../MAVLink/common/./mavlink_msg_attitude.h **** static inline uint16_t mavlink_msg_attitude_pack(uint8_t system_id, uint8_t component_id, mavlink_m
  72:Service/../MAVLink/common/./mavlink_msg_attitude.h ****                                uint32_t time_boot_ms, float roll, float pitch, float yaw, float rol
  73:Service/../MAVLink/common/./mavlink_msg_attitude.h **** {
  74:Service/../MAVLink/common/./mavlink_msg_attitude.h **** #if MAVLINK_NEED_BYTE_SWAP || !MAVLINK_ALIGNED_FIELDS
  75:Service/../MAVLink/common/./mavlink_msg_attitude.h ****     char buf[MAVLINK_MSG_ID_ATTITUDE_LEN];
  76:Service/../MAVLink/common/./mavlink_msg_attitude.h ****     _mav_put_uint32_t(buf, 0, time_boot_ms);
  77:Service/../MAVLink/common/./mavlink_msg_attitude.h ****     _mav_put_float(buf, 4, roll);
  78:Service/../MAVLink/common/./mavlink_msg_attitude.h ****     _mav_put_float(buf, 8, pitch);
  79:Service/../MAVLink/common/./mavlink_msg_attitude.h ****     _mav_put_float(buf, 12, yaw);
  80:Service/../MAVLink/common/./mavlink_msg_attitude.h ****     _mav_put_float(buf, 16, rollspeed);
  81:Service/../MAVLink/common/./mavlink_msg_attitude.h ****     _mav_put_float(buf, 20, pitchspeed);
  82:Service/../MAVLink/common/./mavlink_msg_attitude.h ****     _mav_put_float(buf, 24, yawspeed);
  83:Service/../MAVLink/common/./mavlink_msg_attitude.h **** 
  84:Service/../MAVLink/common/./mavlink_msg_attitude.h ****         memcpy(_MAV_PAYLOAD_NON_CONST(msg), buf, MAVLINK_MSG_ID_ATTITUDE_LEN);
  85:Service/../MAVLink/common/./mavlink_msg_attitude.h **** #else
  86:Service/../MAVLink/common/./mavlink_msg_attitude.h ****     mavlink_attitude_t packet;
  87:Service/../MAVLink/common/./mavlink_msg_attitude.h ****     packet.time_boot_ms = time_boot_ms;
  88:Service/../MAVLink/common/./mavlink_msg_attitude.h ****     packet.roll = roll;
  89:Service/../MAVLink/common/./mavlink_msg_attitude.h ****     packet.pitch = pitch;
  90:Service/../MAVLink/common/./mavlink_msg_attitude.h ****     packet.yaw = yaw;
  91:Service/../MAVLink/common/./mavlink_msg_attitude.h ****     packet.rollspeed = rollspeed;
  92:Service/../MAVLink/common/./mavlink_msg_attitude.h ****     packet.pitchspeed = pitchspeed;
  93:Service/../MAVLink/common/./mavlink_msg_attitude.h ****     packet.yawspeed = yawspeed;
  94:Service/../MAVLink/common/./mavlink_msg_attitude.h **** 
  95:Service/../MAVLink/common/./mavlink_msg_attitude.h ****         memcpy(_MAV_PAYLOAD_NON_CONST(msg), &packet, MAVLINK_MSG_ID_ATTITUDE_LEN);
  96:Service/../MAVLink/common/./mavlink_msg_attitude.h **** #endif
  97:Service/../MAVLink/common/./mavlink_msg_attitude.h **** 
  98:Service/../MAVLink/common/./mavlink_msg_attitude.h ****     msg->msgid = MAVLINK_MSG_ID_ATTITUDE;
  99:Service/../MAVLink/common/./mavlink_msg_attitude.h ****     return mavlink_finalize_message(msg, system_id, component_id, MAVLINK_MSG_ID_ATTITUDE_MIN_LEN, 
 100:Service/../MAVLink/common/./mavlink_msg_attitude.h **** }
 101:Service/../MAVLink/common/./mavlink_msg_attitude.h **** 
 102:Service/../MAVLink/common/./mavlink_msg_attitude.h **** /**
 103:Service/../MAVLink/common/./mavlink_msg_attitude.h ****  * @brief Pack a attitude message on a channel
 104:Service/../MAVLink/common/./mavlink_msg_attitude.h ****  * @param system_id ID of this system
 105:Service/../MAVLink/common/./mavlink_msg_attitude.h ****  * @param component_id ID of this component (e.g. 200 for IMU)
 106:Service/../MAVLink/common/./mavlink_msg_attitude.h ****  * @param chan The MAVLink channel this message will be sent over
 107:Service/../MAVLink/common/./mavlink_msg_attitude.h ****  * @param msg The MAVLink message to compress the data into
 108:Service/../MAVLink/common/./mavlink_msg_attitude.h ****  * @param time_boot_ms [ms] Timestamp (time since system boot).
 109:Service/../MAVLink/common/./mavlink_msg_attitude.h ****  * @param roll [rad] Roll angle (-pi..+pi)
 110:Service/../MAVLink/common/./mavlink_msg_attitude.h ****  * @param pitch [rad] Pitch angle (-pi..+pi)
 111:Service/../MAVLink/common/./mavlink_msg_attitude.h ****  * @param yaw [rad] Yaw angle (-pi..+pi)
 112:Service/../MAVLink/common/./mavlink_msg_attitude.h ****  * @param rollspeed [rad/s] Roll angular speed
 113:Service/../MAVLink/common/./mavlink_msg_attitude.h ****  * @param pitchspeed [rad/s] Pitch angular speed
 114:Service/../MAVLink/common/./mavlink_msg_attitude.h ****  * @param yawspeed [rad/s] Yaw angular speed
 115:Service/../MAVLink/common/./mavlink_msg_attitude.h ****  * @return length of the message in bytes (excluding serial stream start sign)
ARM GAS  C:\Users\8bit\AppData\Local\Temp\ccCRhmZR.s 			page 37


 116:Service/../MAVLink/common/./mavlink_msg_attitude.h ****  */
 117:Service/../MAVLink/common/./mavlink_msg_attitude.h **** static inline uint16_t mavlink_msg_attitude_pack_chan(uint8_t system_id, uint8_t component_id, uint
 118:Service/../MAVLink/common/./mavlink_msg_attitude.h ****                                mavlink_message_t* msg,
 119:Service/../MAVLink/common/./mavlink_msg_attitude.h ****                                    uint32_t time_boot_ms,float roll,float pitch,float yaw,float rol
 120:Service/../MAVLink/common/./mavlink_msg_attitude.h **** {
 121:Service/../MAVLink/common/./mavlink_msg_attitude.h **** #if MAVLINK_NEED_BYTE_SWAP || !MAVLINK_ALIGNED_FIELDS
 122:Service/../MAVLink/common/./mavlink_msg_attitude.h ****     char buf[MAVLINK_MSG_ID_ATTITUDE_LEN];
 123:Service/../MAVLink/common/./mavlink_msg_attitude.h ****     _mav_put_uint32_t(buf, 0, time_boot_ms);
 124:Service/../MAVLink/common/./mavlink_msg_attitude.h ****     _mav_put_float(buf, 4, roll);
 125:Service/../MAVLink/common/./mavlink_msg_attitude.h ****     _mav_put_float(buf, 8, pitch);
 126:Service/../MAVLink/common/./mavlink_msg_attitude.h ****     _mav_put_float(buf, 12, yaw);
 127:Service/../MAVLink/common/./mavlink_msg_attitude.h ****     _mav_put_float(buf, 16, rollspeed);
 128:Service/../MAVLink/common/./mavlink_msg_attitude.h ****     _mav_put_float(buf, 20, pitchspeed);
 129:Service/../MAVLink/common/./mavlink_msg_attitude.h ****     _mav_put_float(buf, 24, yawspeed);
 130:Service/../MAVLink/common/./mavlink_msg_attitude.h **** 
 131:Service/../MAVLink/common/./mavlink_msg_attitude.h ****         memcpy(_MAV_PAYLOAD_NON_CONST(msg), buf, MAVLINK_MSG_ID_ATTITUDE_LEN);
 132:Service/../MAVLink/common/./mavlink_msg_attitude.h **** #else
 133:Service/../MAVLink/common/./mavlink_msg_attitude.h ****     mavlink_attitude_t packet;
 134:Service/../MAVLink/common/./mavlink_msg_attitude.h ****     packet.time_boot_ms = time_boot_ms;
 135:Service/../MAVLink/common/./mavlink_msg_attitude.h ****     packet.roll = roll;
 136:Service/../MAVLink/common/./mavlink_msg_attitude.h ****     packet.pitch = pitch;
 137:Service/../MAVLink/common/./mavlink_msg_attitude.h ****     packet.yaw = yaw;
 138:Service/../MAVLink/common/./mavlink_msg_attitude.h ****     packet.rollspeed = rollspeed;
 139:Service/../MAVLink/common/./mavlink_msg_attitude.h ****     packet.pitchspeed = pitchspeed;
 140:Service/../MAVLink/common/./mavlink_msg_attitude.h ****     packet.yawspeed = yawspeed;
 141:Service/../MAVLink/common/./mavlink_msg_attitude.h **** 
 142:Service/../MAVLink/common/./mavlink_msg_attitude.h ****         memcpy(_MAV_PAYLOAD_NON_CONST(msg), &packet, MAVLINK_MSG_ID_ATTITUDE_LEN);
 143:Service/../MAVLink/common/./mavlink_msg_attitude.h **** #endif
 144:Service/../MAVLink/common/./mavlink_msg_attitude.h **** 
 145:Service/../MAVLink/common/./mavlink_msg_attitude.h ****     msg->msgid = MAVLINK_MSG_ID_ATTITUDE;
 146:Service/../MAVLink/common/./mavlink_msg_attitude.h ****     return mavlink_finalize_message_chan(msg, system_id, component_id, chan, MAVLINK_MSG_ID_ATTITUD
 147:Service/../MAVLink/common/./mavlink_msg_attitude.h **** }
 148:Service/../MAVLink/common/./mavlink_msg_attitude.h **** 
 149:Service/../MAVLink/common/./mavlink_msg_attitude.h **** /**
 150:Service/../MAVLink/common/./mavlink_msg_attitude.h ****  * @brief Encode a attitude struct
 151:Service/../MAVLink/common/./mavlink_msg_attitude.h ****  *
 152:Service/../MAVLink/common/./mavlink_msg_attitude.h ****  * @param system_id ID of this system
 153:Service/../MAVLink/common/./mavlink_msg_attitude.h ****  * @param component_id ID of this component (e.g. 200 for IMU)
 154:Service/../MAVLink/common/./mavlink_msg_attitude.h ****  * @param msg The MAVLink message to compress the data into
 155:Service/../MAVLink/common/./mavlink_msg_attitude.h ****  * @param attitude C-struct to read the message contents from
 156:Service/../MAVLink/common/./mavlink_msg_attitude.h ****  */
 157:Service/../MAVLink/common/./mavlink_msg_attitude.h **** static inline uint16_t mavlink_msg_attitude_encode(uint8_t system_id, uint8_t component_id, mavlink
 158:Service/../MAVLink/common/./mavlink_msg_attitude.h **** {
 159:Service/../MAVLink/common/./mavlink_msg_attitude.h ****     return mavlink_msg_attitude_pack(system_id, component_id, msg, attitude->time_boot_ms, attitude
 160:Service/../MAVLink/common/./mavlink_msg_attitude.h **** }
 161:Service/../MAVLink/common/./mavlink_msg_attitude.h **** 
 162:Service/../MAVLink/common/./mavlink_msg_attitude.h **** /**
 163:Service/../MAVLink/common/./mavlink_msg_attitude.h ****  * @brief Encode a attitude struct on a channel
 164:Service/../MAVLink/common/./mavlink_msg_attitude.h ****  *
 165:Service/../MAVLink/common/./mavlink_msg_attitude.h ****  * @param system_id ID of this system
 166:Service/../MAVLink/common/./mavlink_msg_attitude.h ****  * @param component_id ID of this component (e.g. 200 for IMU)
 167:Service/../MAVLink/common/./mavlink_msg_attitude.h ****  * @param chan The MAVLink channel this message will be sent over
 168:Service/../MAVLink/common/./mavlink_msg_attitude.h ****  * @param msg The MAVLink message to compress the data into
 169:Service/../MAVLink/common/./mavlink_msg_attitude.h ****  * @param attitude C-struct to read the message contents from
 170:Service/../MAVLink/common/./mavlink_msg_attitude.h ****  */
 171:Service/../MAVLink/common/./mavlink_msg_attitude.h **** static inline uint16_t mavlink_msg_attitude_encode_chan(uint8_t system_id, uint8_t component_id, ui
 172:Service/../MAVLink/common/./mavlink_msg_attitude.h **** {
ARM GAS  C:\Users\8bit\AppData\Local\Temp\ccCRhmZR.s 			page 38


 173:Service/../MAVLink/common/./mavlink_msg_attitude.h ****     return mavlink_msg_attitude_pack_chan(system_id, component_id, chan, msg, attitude->time_boot_m
 174:Service/../MAVLink/common/./mavlink_msg_attitude.h **** }
 175:Service/../MAVLink/common/./mavlink_msg_attitude.h **** 
 176:Service/../MAVLink/common/./mavlink_msg_attitude.h **** /**
 177:Service/../MAVLink/common/./mavlink_msg_attitude.h ****  * @brief Send a attitude message
 178:Service/../MAVLink/common/./mavlink_msg_attitude.h ****  * @param chan MAVLink channel to send the message
 179:Service/../MAVLink/common/./mavlink_msg_attitude.h ****  *
 180:Service/../MAVLink/common/./mavlink_msg_attitude.h ****  * @param time_boot_ms [ms] Timestamp (time since system boot).
 181:Service/../MAVLink/common/./mavlink_msg_attitude.h ****  * @param roll [rad] Roll angle (-pi..+pi)
 182:Service/../MAVLink/common/./mavlink_msg_attitude.h ****  * @param pitch [rad] Pitch angle (-pi..+pi)
 183:Service/../MAVLink/common/./mavlink_msg_attitude.h ****  * @param yaw [rad] Yaw angle (-pi..+pi)
 184:Service/../MAVLink/common/./mavlink_msg_attitude.h ****  * @param rollspeed [rad/s] Roll angular speed
 185:Service/../MAVLink/common/./mavlink_msg_attitude.h ****  * @param pitchspeed [rad/s] Pitch angular speed
 186:Service/../MAVLink/common/./mavlink_msg_attitude.h ****  * @param yawspeed [rad/s] Yaw angular speed
 187:Service/../MAVLink/common/./mavlink_msg_attitude.h ****  */
 188:Service/../MAVLink/common/./mavlink_msg_attitude.h **** #ifdef MAVLINK_USE_CONVENIENCE_FUNCTIONS
 189:Service/../MAVLink/common/./mavlink_msg_attitude.h **** 
 190:Service/../MAVLink/common/./mavlink_msg_attitude.h **** static inline void mavlink_msg_attitude_send(mavlink_channel_t chan, uint32_t time_boot_ms, float r
 191:Service/../MAVLink/common/./mavlink_msg_attitude.h **** {
 192:Service/../MAVLink/common/./mavlink_msg_attitude.h **** #if MAVLINK_NEED_BYTE_SWAP || !MAVLINK_ALIGNED_FIELDS
 193:Service/../MAVLink/common/./mavlink_msg_attitude.h ****     char buf[MAVLINK_MSG_ID_ATTITUDE_LEN];
 194:Service/../MAVLink/common/./mavlink_msg_attitude.h ****     _mav_put_uint32_t(buf, 0, time_boot_ms);
 195:Service/../MAVLink/common/./mavlink_msg_attitude.h ****     _mav_put_float(buf, 4, roll);
 196:Service/../MAVLink/common/./mavlink_msg_attitude.h ****     _mav_put_float(buf, 8, pitch);
 197:Service/../MAVLink/common/./mavlink_msg_attitude.h ****     _mav_put_float(buf, 12, yaw);
 198:Service/../MAVLink/common/./mavlink_msg_attitude.h ****     _mav_put_float(buf, 16, rollspeed);
 199:Service/../MAVLink/common/./mavlink_msg_attitude.h ****     _mav_put_float(buf, 20, pitchspeed);
 200:Service/../MAVLink/common/./mavlink_msg_attitude.h ****     _mav_put_float(buf, 24, yawspeed);
 201:Service/../MAVLink/common/./mavlink_msg_attitude.h **** 
 202:Service/../MAVLink/common/./mavlink_msg_attitude.h ****     _mav_finalize_message_chan_send(chan, MAVLINK_MSG_ID_ATTITUDE, buf, MAVLINK_MSG_ID_ATTITUDE_MIN
 203:Service/../MAVLink/common/./mavlink_msg_attitude.h **** #else
 204:Service/../MAVLink/common/./mavlink_msg_attitude.h ****     mavlink_attitude_t packet;
 205:Service/../MAVLink/common/./mavlink_msg_attitude.h ****     packet.time_boot_ms = time_boot_ms;
 206:Service/../MAVLink/common/./mavlink_msg_attitude.h ****     packet.roll = roll;
 207:Service/../MAVLink/common/./mavlink_msg_attitude.h ****     packet.pitch = pitch;
 208:Service/../MAVLink/common/./mavlink_msg_attitude.h ****     packet.yaw = yaw;
 209:Service/../MAVLink/common/./mavlink_msg_attitude.h ****     packet.rollspeed = rollspeed;
 210:Service/../MAVLink/common/./mavlink_msg_attitude.h ****     packet.pitchspeed = pitchspeed;
 211:Service/../MAVLink/common/./mavlink_msg_attitude.h ****     packet.yawspeed = yawspeed;
 212:Service/../MAVLink/common/./mavlink_msg_attitude.h **** 
 213:Service/../MAVLink/common/./mavlink_msg_attitude.h ****     _mav_finalize_message_chan_send(chan, MAVLINK_MSG_ID_ATTITUDE, (const char *)&packet, MAVLINK_M
 214:Service/../MAVLink/common/./mavlink_msg_attitude.h **** #endif
 215:Service/../MAVLink/common/./mavlink_msg_attitude.h **** }
 216:Service/../MAVLink/common/./mavlink_msg_attitude.h **** 
 217:Service/../MAVLink/common/./mavlink_msg_attitude.h **** /**
 218:Service/../MAVLink/common/./mavlink_msg_attitude.h ****  * @brief Send a attitude message
 219:Service/../MAVLink/common/./mavlink_msg_attitude.h ****  * @param chan MAVLink channel to send the message
 220:Service/../MAVLink/common/./mavlink_msg_attitude.h ****  * @param struct The MAVLink struct to serialize
 221:Service/../MAVLink/common/./mavlink_msg_attitude.h ****  */
 222:Service/../MAVLink/common/./mavlink_msg_attitude.h **** static inline void mavlink_msg_attitude_send_struct(mavlink_channel_t chan, const mavlink_attitude_
 223:Service/../MAVLink/common/./mavlink_msg_attitude.h **** {
 224:Service/../MAVLink/common/./mavlink_msg_attitude.h **** #if MAVLINK_NEED_BYTE_SWAP || !MAVLINK_ALIGNED_FIELDS
 225:Service/../MAVLink/common/./mavlink_msg_attitude.h ****     mavlink_msg_attitude_send(chan, attitude->time_boot_ms, attitude->roll, attitude->pitch, attitu
 226:Service/../MAVLink/common/./mavlink_msg_attitude.h **** #else
 227:Service/../MAVLink/common/./mavlink_msg_attitude.h ****     _mav_finalize_message_chan_send(chan, MAVLINK_MSG_ID_ATTITUDE, (const char *)attitude, MAVLINK_
 228:Service/../MAVLink/common/./mavlink_msg_attitude.h **** #endif
 229:Service/../MAVLink/common/./mavlink_msg_attitude.h **** }
ARM GAS  C:\Users\8bit\AppData\Local\Temp\ccCRhmZR.s 			page 39


 230:Service/../MAVLink/common/./mavlink_msg_attitude.h **** 
 231:Service/../MAVLink/common/./mavlink_msg_attitude.h **** #if MAVLINK_MSG_ID_ATTITUDE_LEN <= MAVLINK_MAX_PAYLOAD_LEN
 232:Service/../MAVLink/common/./mavlink_msg_attitude.h **** /*
 233:Service/../MAVLink/common/./mavlink_msg_attitude.h ****   This variant of _send() can be used to save stack space by re-using
 234:Service/../MAVLink/common/./mavlink_msg_attitude.h ****   memory from the receive buffer.  The caller provides a
 235:Service/../MAVLink/common/./mavlink_msg_attitude.h ****   mavlink_message_t which is the size of a full mavlink message. This
 236:Service/../MAVLink/common/./mavlink_msg_attitude.h ****   is usually the receive buffer for the channel, and allows a reply to an
 237:Service/../MAVLink/common/./mavlink_msg_attitude.h ****   incoming message with minimum stack space usage.
 238:Service/../MAVLink/common/./mavlink_msg_attitude.h ****  */
 239:Service/../MAVLink/common/./mavlink_msg_attitude.h **** static inline void mavlink_msg_attitude_send_buf(mavlink_message_t *msgbuf, mavlink_channel_t chan,
 240:Service/../MAVLink/common/./mavlink_msg_attitude.h **** {
 241:Service/../MAVLink/common/./mavlink_msg_attitude.h **** #if MAVLINK_NEED_BYTE_SWAP || !MAVLINK_ALIGNED_FIELDS
 242:Service/../MAVLink/common/./mavlink_msg_attitude.h ****     char *buf = (char *)msgbuf;
 243:Service/../MAVLink/common/./mavlink_msg_attitude.h ****     _mav_put_uint32_t(buf, 0, time_boot_ms);
 244:Service/../MAVLink/common/./mavlink_msg_attitude.h ****     _mav_put_float(buf, 4, roll);
 245:Service/../MAVLink/common/./mavlink_msg_attitude.h ****     _mav_put_float(buf, 8, pitch);
 246:Service/../MAVLink/common/./mavlink_msg_attitude.h ****     _mav_put_float(buf, 12, yaw);
 247:Service/../MAVLink/common/./mavlink_msg_attitude.h ****     _mav_put_float(buf, 16, rollspeed);
 248:Service/../MAVLink/common/./mavlink_msg_attitude.h ****     _mav_put_float(buf, 20, pitchspeed);
 249:Service/../MAVLink/common/./mavlink_msg_attitude.h ****     _mav_put_float(buf, 24, yawspeed);
 250:Service/../MAVLink/common/./mavlink_msg_attitude.h **** 
 251:Service/../MAVLink/common/./mavlink_msg_attitude.h ****     _mav_finalize_message_chan_send(chan, MAVLINK_MSG_ID_ATTITUDE, buf, MAVLINK_MSG_ID_ATTITUDE_MIN
 252:Service/../MAVLink/common/./mavlink_msg_attitude.h **** #else
 253:Service/../MAVLink/common/./mavlink_msg_attitude.h ****     mavlink_attitude_t *packet = (mavlink_attitude_t *)msgbuf;
 254:Service/../MAVLink/common/./mavlink_msg_attitude.h ****     packet->time_boot_ms = time_boot_ms;
 255:Service/../MAVLink/common/./mavlink_msg_attitude.h ****     packet->roll = roll;
 256:Service/../MAVLink/common/./mavlink_msg_attitude.h ****     packet->pitch = pitch;
 257:Service/../MAVLink/common/./mavlink_msg_attitude.h ****     packet->yaw = yaw;
 258:Service/../MAVLink/common/./mavlink_msg_attitude.h ****     packet->rollspeed = rollspeed;
 259:Service/../MAVLink/common/./mavlink_msg_attitude.h ****     packet->pitchspeed = pitchspeed;
 260:Service/../MAVLink/common/./mavlink_msg_attitude.h ****     packet->yawspeed = yawspeed;
 261:Service/../MAVLink/common/./mavlink_msg_attitude.h **** 
 262:Service/../MAVLink/common/./mavlink_msg_attitude.h ****     _mav_finalize_message_chan_send(chan, MAVLINK_MSG_ID_ATTITUDE, (const char *)packet, MAVLINK_MS
 263:Service/../MAVLink/common/./mavlink_msg_attitude.h **** #endif
 264:Service/../MAVLink/common/./mavlink_msg_attitude.h **** }
 265:Service/../MAVLink/common/./mavlink_msg_attitude.h **** #endif
 266:Service/../MAVLink/common/./mavlink_msg_attitude.h **** 
 267:Service/../MAVLink/common/./mavlink_msg_attitude.h **** #endif
 268:Service/../MAVLink/common/./mavlink_msg_attitude.h **** 
 269:Service/../MAVLink/common/./mavlink_msg_attitude.h **** // MESSAGE ATTITUDE UNPACKING
 270:Service/../MAVLink/common/./mavlink_msg_attitude.h **** 
 271:Service/../MAVLink/common/./mavlink_msg_attitude.h **** 
 272:Service/../MAVLink/common/./mavlink_msg_attitude.h **** /**
 273:Service/../MAVLink/common/./mavlink_msg_attitude.h ****  * @brief Get field time_boot_ms from attitude message
 274:Service/../MAVLink/common/./mavlink_msg_attitude.h ****  *
 275:Service/../MAVLink/common/./mavlink_msg_attitude.h ****  * @return [ms] Timestamp (time since system boot).
 276:Service/../MAVLink/common/./mavlink_msg_attitude.h ****  */
 277:Service/../MAVLink/common/./mavlink_msg_attitude.h **** static inline uint32_t mavlink_msg_attitude_get_time_boot_ms(const mavlink_message_t* msg)
 278:Service/../MAVLink/common/./mavlink_msg_attitude.h **** {
 279:Service/../MAVLink/common/./mavlink_msg_attitude.h ****     return _MAV_RETURN_uint32_t(msg,  0);
 280:Service/../MAVLink/common/./mavlink_msg_attitude.h **** }
 281:Service/../MAVLink/common/./mavlink_msg_attitude.h **** 
 282:Service/../MAVLink/common/./mavlink_msg_attitude.h **** /**
 283:Service/../MAVLink/common/./mavlink_msg_attitude.h ****  * @brief Get field roll from attitude message
 284:Service/../MAVLink/common/./mavlink_msg_attitude.h ****  *
 285:Service/../MAVLink/common/./mavlink_msg_attitude.h ****  * @return [rad] Roll angle (-pi..+pi)
 286:Service/../MAVLink/common/./mavlink_msg_attitude.h ****  */
ARM GAS  C:\Users\8bit\AppData\Local\Temp\ccCRhmZR.s 			page 40


 287:Service/../MAVLink/common/./mavlink_msg_attitude.h **** static inline float mavlink_msg_attitude_get_roll(const mavlink_message_t* msg)
 288:Service/../MAVLink/common/./mavlink_msg_attitude.h **** {
 289:Service/../MAVLink/common/./mavlink_msg_attitude.h ****     return _MAV_RETURN_float(msg,  4);
 290:Service/../MAVLink/common/./mavlink_msg_attitude.h **** }
 291:Service/../MAVLink/common/./mavlink_msg_attitude.h **** 
 292:Service/../MAVLink/common/./mavlink_msg_attitude.h **** /**
 293:Service/../MAVLink/common/./mavlink_msg_attitude.h ****  * @brief Get field pitch from attitude message
 294:Service/../MAVLink/common/./mavlink_msg_attitude.h ****  *
 295:Service/../MAVLink/common/./mavlink_msg_attitude.h ****  * @return [rad] Pitch angle (-pi..+pi)
 296:Service/../MAVLink/common/./mavlink_msg_attitude.h ****  */
 297:Service/../MAVLink/common/./mavlink_msg_attitude.h **** static inline float mavlink_msg_attitude_get_pitch(const mavlink_message_t* msg)
 298:Service/../MAVLink/common/./mavlink_msg_attitude.h **** {
 299:Service/../MAVLink/common/./mavlink_msg_attitude.h ****     return _MAV_RETURN_float(msg,  8);
 300:Service/../MAVLink/common/./mavlink_msg_attitude.h **** }
 301:Service/../MAVLink/common/./mavlink_msg_attitude.h **** 
 302:Service/../MAVLink/common/./mavlink_msg_attitude.h **** /**
 303:Service/../MAVLink/common/./mavlink_msg_attitude.h ****  * @brief Get field yaw from attitude message
 304:Service/../MAVLink/common/./mavlink_msg_attitude.h ****  *
 305:Service/../MAVLink/common/./mavlink_msg_attitude.h ****  * @return [rad] Yaw angle (-pi..+pi)
 306:Service/../MAVLink/common/./mavlink_msg_attitude.h ****  */
 307:Service/../MAVLink/common/./mavlink_msg_attitude.h **** static inline float mavlink_msg_attitude_get_yaw(const mavlink_message_t* msg)
 308:Service/../MAVLink/common/./mavlink_msg_attitude.h **** {
 309:Service/../MAVLink/common/./mavlink_msg_attitude.h ****     return _MAV_RETURN_float(msg,  12);
 310:Service/../MAVLink/common/./mavlink_msg_attitude.h **** }
 311:Service/../MAVLink/common/./mavlink_msg_attitude.h **** 
 312:Service/../MAVLink/common/./mavlink_msg_attitude.h **** /**
 313:Service/../MAVLink/common/./mavlink_msg_attitude.h ****  * @brief Get field rollspeed from attitude message
 314:Service/../MAVLink/common/./mavlink_msg_attitude.h ****  *
 315:Service/../MAVLink/common/./mavlink_msg_attitude.h ****  * @return [rad/s] Roll angular speed
 316:Service/../MAVLink/common/./mavlink_msg_attitude.h ****  */
 317:Service/../MAVLink/common/./mavlink_msg_attitude.h **** static inline float mavlink_msg_attitude_get_rollspeed(const mavlink_message_t* msg)
 318:Service/../MAVLink/common/./mavlink_msg_attitude.h **** {
 319:Service/../MAVLink/common/./mavlink_msg_attitude.h ****     return _MAV_RETURN_float(msg,  16);
 320:Service/../MAVLink/common/./mavlink_msg_attitude.h **** }
 321:Service/../MAVLink/common/./mavlink_msg_attitude.h **** 
 322:Service/../MAVLink/common/./mavlink_msg_attitude.h **** /**
 323:Service/../MAVLink/common/./mavlink_msg_attitude.h ****  * @brief Get field pitchspeed from attitude message
 324:Service/../MAVLink/common/./mavlink_msg_attitude.h ****  *
 325:Service/../MAVLink/common/./mavlink_msg_attitude.h ****  * @return [rad/s] Pitch angular speed
 326:Service/../MAVLink/common/./mavlink_msg_attitude.h ****  */
 327:Service/../MAVLink/common/./mavlink_msg_attitude.h **** static inline float mavlink_msg_attitude_get_pitchspeed(const mavlink_message_t* msg)
 328:Service/../MAVLink/common/./mavlink_msg_attitude.h **** {
 329:Service/../MAVLink/common/./mavlink_msg_attitude.h ****     return _MAV_RETURN_float(msg,  20);
 330:Service/../MAVLink/common/./mavlink_msg_attitude.h **** }
 331:Service/../MAVLink/common/./mavlink_msg_attitude.h **** 
 332:Service/../MAVLink/common/./mavlink_msg_attitude.h **** /**
 333:Service/../MAVLink/common/./mavlink_msg_attitude.h ****  * @brief Get field yawspeed from attitude message
 334:Service/../MAVLink/common/./mavlink_msg_attitude.h ****  *
 335:Service/../MAVLink/common/./mavlink_msg_attitude.h ****  * @return [rad/s] Yaw angular speed
 336:Service/../MAVLink/common/./mavlink_msg_attitude.h ****  */
 337:Service/../MAVLink/common/./mavlink_msg_attitude.h **** static inline float mavlink_msg_attitude_get_yawspeed(const mavlink_message_t* msg)
 338:Service/../MAVLink/common/./mavlink_msg_attitude.h **** {
 339:Service/../MAVLink/common/./mavlink_msg_attitude.h ****     return _MAV_RETURN_float(msg,  24);
 340:Service/../MAVLink/common/./mavlink_msg_attitude.h **** }
 341:Service/../MAVLink/common/./mavlink_msg_attitude.h **** 
 342:Service/../MAVLink/common/./mavlink_msg_attitude.h **** /**
 343:Service/../MAVLink/common/./mavlink_msg_attitude.h ****  * @brief Decode a attitude message into a struct
ARM GAS  C:\Users\8bit\AppData\Local\Temp\ccCRhmZR.s 			page 41


 344:Service/../MAVLink/common/./mavlink_msg_attitude.h ****  *
 345:Service/../MAVLink/common/./mavlink_msg_attitude.h ****  * @param msg The message to decode
 346:Service/../MAVLink/common/./mavlink_msg_attitude.h ****  * @param attitude C-struct to decode the message contents into
 347:Service/../MAVLink/common/./mavlink_msg_attitude.h ****  */
 348:Service/../MAVLink/common/./mavlink_msg_attitude.h **** static inline void mavlink_msg_attitude_decode(const mavlink_message_t* msg, mavlink_attitude_t* at
 806              		.loc 4 348 20 view .LVU235
 807              	.LBB52:
 349:Service/../MAVLink/common/./mavlink_msg_attitude.h **** {
 350:Service/../MAVLink/common/./mavlink_msg_attitude.h **** #if MAVLINK_NEED_BYTE_SWAP || !MAVLINK_ALIGNED_FIELDS
 351:Service/../MAVLink/common/./mavlink_msg_attitude.h ****     attitude->time_boot_ms = mavlink_msg_attitude_get_time_boot_ms(msg);
 352:Service/../MAVLink/common/./mavlink_msg_attitude.h ****     attitude->roll = mavlink_msg_attitude_get_roll(msg);
 353:Service/../MAVLink/common/./mavlink_msg_attitude.h ****     attitude->pitch = mavlink_msg_attitude_get_pitch(msg);
 354:Service/../MAVLink/common/./mavlink_msg_attitude.h ****     attitude->yaw = mavlink_msg_attitude_get_yaw(msg);
 355:Service/../MAVLink/common/./mavlink_msg_attitude.h ****     attitude->rollspeed = mavlink_msg_attitude_get_rollspeed(msg);
 356:Service/../MAVLink/common/./mavlink_msg_attitude.h ****     attitude->pitchspeed = mavlink_msg_attitude_get_pitchspeed(msg);
 357:Service/../MAVLink/common/./mavlink_msg_attitude.h ****     attitude->yawspeed = mavlink_msg_attitude_get_yawspeed(msg);
 358:Service/../MAVLink/common/./mavlink_msg_attitude.h **** #else
 359:Service/../MAVLink/common/./mavlink_msg_attitude.h ****         uint8_t len = msg->len < MAVLINK_MSG_ID_ATTITUDE_LEN? msg->len : MAVLINK_MSG_ID_ATTITUDE_LE
 808              		.loc 4 359 9 view .LVU236
 809              		.loc 4 359 26 is_stmt 0 view .LVU237
 810 0028 9DF82F20 		ldrb	r2, [sp, #47]	@ zero_extendqisi2
 811              	.LVL48:
 360:Service/../MAVLink/common/./mavlink_msg_attitude.h ****         memset(attitude, 0, MAVLINK_MSG_ID_ATTITUDE_LEN);
 812              		.loc 4 360 9 is_stmt 1 view .LVU238
 361:Service/../MAVLink/common/./mavlink_msg_attitude.h ****     memcpy(attitude, _MAV_PAYLOAD(msg), len);
 813              		.loc 4 361 5 view .LVU239
 814 002c 1C2A     		cmp	r2, #28
 815 002e 28BF     		it	cs
 816 0030 1C22     		movcs	r2, #28
 817              	.LVL49:
 818              		.loc 4 361 5 is_stmt 0 view .LVU240
 819 0032 0DA9     		add	r1, sp, #52
 820 0034 01A8     		add	r0, sp, #4
 821 0036 FFF7FEFF 		bl	memcpy
 822              	.LVL50:
 823              		.loc 4 361 5 view .LVU241
 824              	.LBE52:
 825              	.LBE51:
 358:Service/Srv_ComProto.c ****             return obj->MavMsg_Att_Callback(&msg_att, obj->cus_p_att);
 826              		.loc 1 358 9 is_stmt 1 view .LVU242
 358:Service/Srv_ComProto.c ****             return obj->MavMsg_Att_Callback(&msg_att, obj->cus_p_att);
 827              		.loc 1 358 16 is_stmt 0 view .LVU243
 828 003a A36E     		ldr	r3, [r4, #104]
 358:Service/Srv_ComProto.c ****             return obj->MavMsg_Att_Callback(&msg_att, obj->cus_p_att);
 829              		.loc 1 358 12 view .LVU244
 830 003c 4BB1     		cbz	r3, .L59
 359:Service/Srv_ComProto.c ****     }
 831              		.loc 1 359 13 is_stmt 1 view .LVU245
 359:Service/Srv_ComProto.c ****     }
 832              		.loc 1 359 20 is_stmt 0 view .LVU246
 833 003e A168     		ldr	r1, [r4, #8]
 834 0040 01A8     		add	r0, sp, #4
 835 0042 9847     		blx	r3
 836              	.LVL51:
 837 0044 00E0     		b	.L57
 838              	.LVL52:
 839              	.L58:
ARM GAS  C:\Users\8bit\AppData\Local\Temp\ccCRhmZR.s 			page 42


 362:Service/Srv_ComProto.c **** }
 840              		.loc 1 362 12 view .LVU247
 841 0046 0020     		movs	r0, #0
 842              	.LVL53:
 843              	.L57:
 363:Service/Srv_ComProto.c **** 
 844              		.loc 1 363 1 view .LVU248
 845 0048 08B0     		add	sp, sp, #32
 846              	.LCFI17:
 847              		.cfi_remember_state
 848              		.cfi_def_cfa_offset 24
 849              		@ sp needed
 850 004a BDE81040 		pop	{r4, lr}
 851              	.LCFI18:
 852              		.cfi_restore 14
 853              		.cfi_restore 4
 854              		.cfi_def_cfa_offset 16
 855 004e 04B0     		add	sp, sp, #16
 856              	.LCFI19:
 857              		.cfi_def_cfa_offset 0
 858 0050 7047     		bx	lr
 859              	.LVL54:
 860              	.L59:
 861              	.LCFI20:
 862              		.cfi_restore_state
 362:Service/Srv_ComProto.c **** }
 863              		.loc 1 362 12 view .LVU249
 864 0052 0020     		movs	r0, #0
 865 0054 F8E7     		b	.L57
 866              		.cfi_endproc
 867              	.LFE2087:
 869              		.section	.text.SrvComProto_MavMsg_Decode_ExpAlt,"ax",%progbits
 870              		.align	1
 871              		.syntax unified
 872              		.thumb
 873              		.thumb_func
 875              	SrvComProto_MavMsg_Decode_ExpAlt:
 876              	.LVL55:
 877              	.LFB2089:
 382:Service/Srv_ComProto.c **** 
 383:Service/Srv_ComProto.c **** static bool SrvComProto_MavMsg_Decode_ExpAlt(SrvComProto_MsgObj_TypeDef *obj, const mavlink_message
 384:Service/Srv_ComProto.c **** {
 878              		.loc 1 384 1 is_stmt 1 view -0
 879              		.cfi_startproc
 880              		@ args = 276, pretend = 16, frame = 32
 881              		@ frame_needed = 0, uses_anonymous_args = 0
 882              		.loc 1 384 1 is_stmt 0 view .LVU251
 883 0000 84B0     		sub	sp, sp, #16
 884              	.LCFI21:
 885              		.cfi_def_cfa_offset 16
 886 0002 70B5     		push	{r4, r5, r6, lr}
 887              	.LCFI22:
 888              		.cfi_def_cfa_offset 32
 889              		.cfi_offset 4, -32
 890              		.cfi_offset 5, -28
 891              		.cfi_offset 6, -24
 892              		.cfi_offset 14, -20
ARM GAS  C:\Users\8bit\AppData\Local\Temp\ccCRhmZR.s 			page 43


 893 0004 88B0     		sub	sp, sp, #32
 894              	.LCFI23:
 895              		.cfi_def_cfa_offset 64
 896 0006 0DF1340C 		add	ip, sp, #52
 897 000a 8CE80E00 		stm	ip, {r1, r2, r3}
 385:Service/Srv_ComProto.c ****     mavlink_altitude_t msg_alt;
 898              		.loc 1 385 5 is_stmt 1 view .LVU252
 386:Service/Srv_ComProto.c **** 
 387:Service/Srv_ComProto.c ****     if (obj)
 899              		.loc 1 387 5 view .LVU253
 900              		.loc 1 387 8 is_stmt 0 view .LVU254
 901 000e F0B1     		cbz	r0, .L63
 902 0010 0446     		mov	r4, r0
 388:Service/Srv_ComProto.c ****     {
 389:Service/Srv_ComProto.c ****         obj->Alt_Cnt ++;
 903              		.loc 1 389 9 is_stmt 1 view .LVU255
 904              		.loc 1 389 12 is_stmt 0 view .LVU256
 905 0012 C36B     		ldr	r3, [r0, #60]
 906              		.loc 1 389 22 view .LVU257
 907 0014 0133     		adds	r3, r3, #1
 908 0016 C363     		str	r3, [r0, #60]
 390:Service/Srv_ComProto.c **** 
 391:Service/Srv_ComProto.c ****         memset(&msg_alt, 0, sizeof(mavlink_altitude_t));
 909              		.loc 1 391 9 is_stmt 1 view .LVU258
 910 0018 2026     		movs	r6, #32
 911 001a 3246     		mov	r2, r6
 912 001c 0021     		movs	r1, #0
 913 001e 6846     		mov	r0, sp
 914 0020 FFF7FEFF 		bl	memset
 915              	.LVL56:
 392:Service/Srv_ComProto.c ****         mavlink_msg_altitude_decode(&msg, &msg_alt);
 916              		.loc 1 392 9 view .LVU259
 917              	.LBB55:
 918              	.LBI55:
 919              		.file 5 "Service/../MAVLink/common/./mavlink_msg_altitude.h"
   1:Service/../MAVLink/common/./mavlink_msg_altitude.h **** #pragma once
   2:Service/../MAVLink/common/./mavlink_msg_altitude.h **** // MESSAGE ALTITUDE PACKING
   3:Service/../MAVLink/common/./mavlink_msg_altitude.h **** 
   4:Service/../MAVLink/common/./mavlink_msg_altitude.h **** #define MAVLINK_MSG_ID_ALTITUDE 141
   5:Service/../MAVLink/common/./mavlink_msg_altitude.h **** 
   6:Service/../MAVLink/common/./mavlink_msg_altitude.h **** 
   7:Service/../MAVLink/common/./mavlink_msg_altitude.h **** typedef struct __mavlink_altitude_t {
   8:Service/../MAVLink/common/./mavlink_msg_altitude.h ****  uint64_t time_usec; /*< [us] Timestamp (UNIX Epoch time or time since system boot). The receiving 
   9:Service/../MAVLink/common/./mavlink_msg_altitude.h ****  float altitude_monotonic; /*< [m] This altitude measure is initialized on system boot and monotoni
  10:Service/../MAVLink/common/./mavlink_msg_altitude.h ****  float altitude_amsl; /*< [m] This altitude measure is strictly above mean sea level and might be n
  11:Service/../MAVLink/common/./mavlink_msg_altitude.h ****  float altitude_local; /*< [m] This is the local altitude in the local coordinate frame. It is not 
  12:Service/../MAVLink/common/./mavlink_msg_altitude.h ****  float altitude_relative; /*< [m] This is the altitude above the home position. It resets on each c
  13:Service/../MAVLink/common/./mavlink_msg_altitude.h ****  float altitude_terrain; /*< [m] This is the altitude above terrain. It might be fed by a terrain d
  14:Service/../MAVLink/common/./mavlink_msg_altitude.h ****  float bottom_clearance; /*< [m] This is not the altitude, but the clear space below the system acc
  15:Service/../MAVLink/common/./mavlink_msg_altitude.h **** } mavlink_altitude_t;
  16:Service/../MAVLink/common/./mavlink_msg_altitude.h **** 
  17:Service/../MAVLink/common/./mavlink_msg_altitude.h **** #define MAVLINK_MSG_ID_ALTITUDE_LEN 32
  18:Service/../MAVLink/common/./mavlink_msg_altitude.h **** #define MAVLINK_MSG_ID_ALTITUDE_MIN_LEN 32
  19:Service/../MAVLink/common/./mavlink_msg_altitude.h **** #define MAVLINK_MSG_ID_141_LEN 32
  20:Service/../MAVLink/common/./mavlink_msg_altitude.h **** #define MAVLINK_MSG_ID_141_MIN_LEN 32
  21:Service/../MAVLink/common/./mavlink_msg_altitude.h **** 
  22:Service/../MAVLink/common/./mavlink_msg_altitude.h **** #define MAVLINK_MSG_ID_ALTITUDE_CRC 47
ARM GAS  C:\Users\8bit\AppData\Local\Temp\ccCRhmZR.s 			page 44


  23:Service/../MAVLink/common/./mavlink_msg_altitude.h **** #define MAVLINK_MSG_ID_141_CRC 47
  24:Service/../MAVLink/common/./mavlink_msg_altitude.h **** 
  25:Service/../MAVLink/common/./mavlink_msg_altitude.h **** 
  26:Service/../MAVLink/common/./mavlink_msg_altitude.h **** 
  27:Service/../MAVLink/common/./mavlink_msg_altitude.h **** #if MAVLINK_COMMAND_24BIT
  28:Service/../MAVLink/common/./mavlink_msg_altitude.h **** #define MAVLINK_MESSAGE_INFO_ALTITUDE { \
  29:Service/../MAVLink/common/./mavlink_msg_altitude.h ****     141, \
  30:Service/../MAVLink/common/./mavlink_msg_altitude.h ****     "ALTITUDE", \
  31:Service/../MAVLink/common/./mavlink_msg_altitude.h ****     7, \
  32:Service/../MAVLink/common/./mavlink_msg_altitude.h ****     {  { "time_usec", NULL, MAVLINK_TYPE_UINT64_T, 0, 0, offsetof(mavlink_altitude_t, time_usec) },
  33:Service/../MAVLink/common/./mavlink_msg_altitude.h ****          { "altitude_monotonic", NULL, MAVLINK_TYPE_FLOAT, 0, 8, offsetof(mavlink_altitude_t, altit
  34:Service/../MAVLink/common/./mavlink_msg_altitude.h ****          { "altitude_amsl", NULL, MAVLINK_TYPE_FLOAT, 0, 12, offsetof(mavlink_altitude_t, altitude_
  35:Service/../MAVLink/common/./mavlink_msg_altitude.h ****          { "altitude_local", NULL, MAVLINK_TYPE_FLOAT, 0, 16, offsetof(mavlink_altitude_t, altitude
  36:Service/../MAVLink/common/./mavlink_msg_altitude.h ****          { "altitude_relative", NULL, MAVLINK_TYPE_FLOAT, 0, 20, offsetof(mavlink_altitude_t, altit
  37:Service/../MAVLink/common/./mavlink_msg_altitude.h ****          { "altitude_terrain", NULL, MAVLINK_TYPE_FLOAT, 0, 24, offsetof(mavlink_altitude_t, altitu
  38:Service/../MAVLink/common/./mavlink_msg_altitude.h ****          { "bottom_clearance", NULL, MAVLINK_TYPE_FLOAT, 0, 28, offsetof(mavlink_altitude_t, bottom
  39:Service/../MAVLink/common/./mavlink_msg_altitude.h ****          } \
  40:Service/../MAVLink/common/./mavlink_msg_altitude.h **** }
  41:Service/../MAVLink/common/./mavlink_msg_altitude.h **** #else
  42:Service/../MAVLink/common/./mavlink_msg_altitude.h **** #define MAVLINK_MESSAGE_INFO_ALTITUDE { \
  43:Service/../MAVLink/common/./mavlink_msg_altitude.h ****     "ALTITUDE", \
  44:Service/../MAVLink/common/./mavlink_msg_altitude.h ****     7, \
  45:Service/../MAVLink/common/./mavlink_msg_altitude.h ****     {  { "time_usec", NULL, MAVLINK_TYPE_UINT64_T, 0, 0, offsetof(mavlink_altitude_t, time_usec) },
  46:Service/../MAVLink/common/./mavlink_msg_altitude.h ****          { "altitude_monotonic", NULL, MAVLINK_TYPE_FLOAT, 0, 8, offsetof(mavlink_altitude_t, altit
  47:Service/../MAVLink/common/./mavlink_msg_altitude.h ****          { "altitude_amsl", NULL, MAVLINK_TYPE_FLOAT, 0, 12, offsetof(mavlink_altitude_t, altitude_
  48:Service/../MAVLink/common/./mavlink_msg_altitude.h ****          { "altitude_local", NULL, MAVLINK_TYPE_FLOAT, 0, 16, offsetof(mavlink_altitude_t, altitude
  49:Service/../MAVLink/common/./mavlink_msg_altitude.h ****          { "altitude_relative", NULL, MAVLINK_TYPE_FLOAT, 0, 20, offsetof(mavlink_altitude_t, altit
  50:Service/../MAVLink/common/./mavlink_msg_altitude.h ****          { "altitude_terrain", NULL, MAVLINK_TYPE_FLOAT, 0, 24, offsetof(mavlink_altitude_t, altitu
  51:Service/../MAVLink/common/./mavlink_msg_altitude.h ****          { "bottom_clearance", NULL, MAVLINK_TYPE_FLOAT, 0, 28, offsetof(mavlink_altitude_t, bottom
  52:Service/../MAVLink/common/./mavlink_msg_altitude.h ****          } \
  53:Service/../MAVLink/common/./mavlink_msg_altitude.h **** }
  54:Service/../MAVLink/common/./mavlink_msg_altitude.h **** #endif
  55:Service/../MAVLink/common/./mavlink_msg_altitude.h **** 
  56:Service/../MAVLink/common/./mavlink_msg_altitude.h **** /**
  57:Service/../MAVLink/common/./mavlink_msg_altitude.h ****  * @brief Pack a altitude message
  58:Service/../MAVLink/common/./mavlink_msg_altitude.h ****  * @param system_id ID of this system
  59:Service/../MAVLink/common/./mavlink_msg_altitude.h ****  * @param component_id ID of this component (e.g. 200 for IMU)
  60:Service/../MAVLink/common/./mavlink_msg_altitude.h ****  * @param msg The MAVLink message to compress the data into
  61:Service/../MAVLink/common/./mavlink_msg_altitude.h ****  *
  62:Service/../MAVLink/common/./mavlink_msg_altitude.h ****  * @param time_usec [us] Timestamp (UNIX Epoch time or time since system boot). The receiving end c
  63:Service/../MAVLink/common/./mavlink_msg_altitude.h ****  * @param altitude_monotonic [m] This altitude measure is initialized on system boot and monotonic 
  64:Service/../MAVLink/common/./mavlink_msg_altitude.h ****  * @param altitude_amsl [m] This altitude measure is strictly above mean sea level and might be non
  65:Service/../MAVLink/common/./mavlink_msg_altitude.h ****  * @param altitude_local [m] This is the local altitude in the local coordinate frame. It is not th
  66:Service/../MAVLink/common/./mavlink_msg_altitude.h ****  * @param altitude_relative [m] This is the altitude above the home position. It resets on each cha
  67:Service/../MAVLink/common/./mavlink_msg_altitude.h ****  * @param altitude_terrain [m] This is the altitude above terrain. It might be fed by a terrain dat
  68:Service/../MAVLink/common/./mavlink_msg_altitude.h ****  * @param bottom_clearance [m] This is not the altitude, but the clear space below the system accor
  69:Service/../MAVLink/common/./mavlink_msg_altitude.h ****  * @return length of the message in bytes (excluding serial stream start sign)
  70:Service/../MAVLink/common/./mavlink_msg_altitude.h ****  */
  71:Service/../MAVLink/common/./mavlink_msg_altitude.h **** static inline uint16_t mavlink_msg_altitude_pack(uint8_t system_id, uint8_t component_id, mavlink_m
  72:Service/../MAVLink/common/./mavlink_msg_altitude.h ****                                uint64_t time_usec, float altitude_monotonic, float altitude_amsl, f
  73:Service/../MAVLink/common/./mavlink_msg_altitude.h **** {
  74:Service/../MAVLink/common/./mavlink_msg_altitude.h **** #if MAVLINK_NEED_BYTE_SWAP || !MAVLINK_ALIGNED_FIELDS
  75:Service/../MAVLink/common/./mavlink_msg_altitude.h ****     char buf[MAVLINK_MSG_ID_ALTITUDE_LEN];
  76:Service/../MAVLink/common/./mavlink_msg_altitude.h ****     _mav_put_uint64_t(buf, 0, time_usec);
  77:Service/../MAVLink/common/./mavlink_msg_altitude.h ****     _mav_put_float(buf, 8, altitude_monotonic);
  78:Service/../MAVLink/common/./mavlink_msg_altitude.h ****     _mav_put_float(buf, 12, altitude_amsl);
  79:Service/../MAVLink/common/./mavlink_msg_altitude.h ****     _mav_put_float(buf, 16, altitude_local);
ARM GAS  C:\Users\8bit\AppData\Local\Temp\ccCRhmZR.s 			page 45


  80:Service/../MAVLink/common/./mavlink_msg_altitude.h ****     _mav_put_float(buf, 20, altitude_relative);
  81:Service/../MAVLink/common/./mavlink_msg_altitude.h ****     _mav_put_float(buf, 24, altitude_terrain);
  82:Service/../MAVLink/common/./mavlink_msg_altitude.h ****     _mav_put_float(buf, 28, bottom_clearance);
  83:Service/../MAVLink/common/./mavlink_msg_altitude.h **** 
  84:Service/../MAVLink/common/./mavlink_msg_altitude.h ****         memcpy(_MAV_PAYLOAD_NON_CONST(msg), buf, MAVLINK_MSG_ID_ALTITUDE_LEN);
  85:Service/../MAVLink/common/./mavlink_msg_altitude.h **** #else
  86:Service/../MAVLink/common/./mavlink_msg_altitude.h ****     mavlink_altitude_t packet;
  87:Service/../MAVLink/common/./mavlink_msg_altitude.h ****     packet.time_usec = time_usec;
  88:Service/../MAVLink/common/./mavlink_msg_altitude.h ****     packet.altitude_monotonic = altitude_monotonic;
  89:Service/../MAVLink/common/./mavlink_msg_altitude.h ****     packet.altitude_amsl = altitude_amsl;
  90:Service/../MAVLink/common/./mavlink_msg_altitude.h ****     packet.altitude_local = altitude_local;
  91:Service/../MAVLink/common/./mavlink_msg_altitude.h ****     packet.altitude_relative = altitude_relative;
  92:Service/../MAVLink/common/./mavlink_msg_altitude.h ****     packet.altitude_terrain = altitude_terrain;
  93:Service/../MAVLink/common/./mavlink_msg_altitude.h ****     packet.bottom_clearance = bottom_clearance;
  94:Service/../MAVLink/common/./mavlink_msg_altitude.h **** 
  95:Service/../MAVLink/common/./mavlink_msg_altitude.h ****         memcpy(_MAV_PAYLOAD_NON_CONST(msg), &packet, MAVLINK_MSG_ID_ALTITUDE_LEN);
  96:Service/../MAVLink/common/./mavlink_msg_altitude.h **** #endif
  97:Service/../MAVLink/common/./mavlink_msg_altitude.h **** 
  98:Service/../MAVLink/common/./mavlink_msg_altitude.h ****     msg->msgid = MAVLINK_MSG_ID_ALTITUDE;
  99:Service/../MAVLink/common/./mavlink_msg_altitude.h ****     return mavlink_finalize_message(msg, system_id, component_id, MAVLINK_MSG_ID_ALTITUDE_MIN_LEN, 
 100:Service/../MAVLink/common/./mavlink_msg_altitude.h **** }
 101:Service/../MAVLink/common/./mavlink_msg_altitude.h **** 
 102:Service/../MAVLink/common/./mavlink_msg_altitude.h **** /**
 103:Service/../MAVLink/common/./mavlink_msg_altitude.h ****  * @brief Pack a altitude message on a channel
 104:Service/../MAVLink/common/./mavlink_msg_altitude.h ****  * @param system_id ID of this system
 105:Service/../MAVLink/common/./mavlink_msg_altitude.h ****  * @param component_id ID of this component (e.g. 200 for IMU)
 106:Service/../MAVLink/common/./mavlink_msg_altitude.h ****  * @param chan The MAVLink channel this message will be sent over
 107:Service/../MAVLink/common/./mavlink_msg_altitude.h ****  * @param msg The MAVLink message to compress the data into
 108:Service/../MAVLink/common/./mavlink_msg_altitude.h ****  * @param time_usec [us] Timestamp (UNIX Epoch time or time since system boot). The receiving end c
 109:Service/../MAVLink/common/./mavlink_msg_altitude.h ****  * @param altitude_monotonic [m] This altitude measure is initialized on system boot and monotonic 
 110:Service/../MAVLink/common/./mavlink_msg_altitude.h ****  * @param altitude_amsl [m] This altitude measure is strictly above mean sea level and might be non
 111:Service/../MAVLink/common/./mavlink_msg_altitude.h ****  * @param altitude_local [m] This is the local altitude in the local coordinate frame. It is not th
 112:Service/../MAVLink/common/./mavlink_msg_altitude.h ****  * @param altitude_relative [m] This is the altitude above the home position. It resets on each cha
 113:Service/../MAVLink/common/./mavlink_msg_altitude.h ****  * @param altitude_terrain [m] This is the altitude above terrain. It might be fed by a terrain dat
 114:Service/../MAVLink/common/./mavlink_msg_altitude.h ****  * @param bottom_clearance [m] This is not the altitude, but the clear space below the system accor
 115:Service/../MAVLink/common/./mavlink_msg_altitude.h ****  * @return length of the message in bytes (excluding serial stream start sign)
 116:Service/../MAVLink/common/./mavlink_msg_altitude.h ****  */
 117:Service/../MAVLink/common/./mavlink_msg_altitude.h **** static inline uint16_t mavlink_msg_altitude_pack_chan(uint8_t system_id, uint8_t component_id, uint
 118:Service/../MAVLink/common/./mavlink_msg_altitude.h ****                                mavlink_message_t* msg,
 119:Service/../MAVLink/common/./mavlink_msg_altitude.h ****                                    uint64_t time_usec,float altitude_monotonic,float altitude_amsl,
 120:Service/../MAVLink/common/./mavlink_msg_altitude.h **** {
 121:Service/../MAVLink/common/./mavlink_msg_altitude.h **** #if MAVLINK_NEED_BYTE_SWAP || !MAVLINK_ALIGNED_FIELDS
 122:Service/../MAVLink/common/./mavlink_msg_altitude.h ****     char buf[MAVLINK_MSG_ID_ALTITUDE_LEN];
 123:Service/../MAVLink/common/./mavlink_msg_altitude.h ****     _mav_put_uint64_t(buf, 0, time_usec);
 124:Service/../MAVLink/common/./mavlink_msg_altitude.h ****     _mav_put_float(buf, 8, altitude_monotonic);
 125:Service/../MAVLink/common/./mavlink_msg_altitude.h ****     _mav_put_float(buf, 12, altitude_amsl);
 126:Service/../MAVLink/common/./mavlink_msg_altitude.h ****     _mav_put_float(buf, 16, altitude_local);
 127:Service/../MAVLink/common/./mavlink_msg_altitude.h ****     _mav_put_float(buf, 20, altitude_relative);
 128:Service/../MAVLink/common/./mavlink_msg_altitude.h ****     _mav_put_float(buf, 24, altitude_terrain);
 129:Service/../MAVLink/common/./mavlink_msg_altitude.h ****     _mav_put_float(buf, 28, bottom_clearance);
 130:Service/../MAVLink/common/./mavlink_msg_altitude.h **** 
 131:Service/../MAVLink/common/./mavlink_msg_altitude.h ****         memcpy(_MAV_PAYLOAD_NON_CONST(msg), buf, MAVLINK_MSG_ID_ALTITUDE_LEN);
 132:Service/../MAVLink/common/./mavlink_msg_altitude.h **** #else
 133:Service/../MAVLink/common/./mavlink_msg_altitude.h ****     mavlink_altitude_t packet;
 134:Service/../MAVLink/common/./mavlink_msg_altitude.h ****     packet.time_usec = time_usec;
 135:Service/../MAVLink/common/./mavlink_msg_altitude.h ****     packet.altitude_monotonic = altitude_monotonic;
 136:Service/../MAVLink/common/./mavlink_msg_altitude.h ****     packet.altitude_amsl = altitude_amsl;
ARM GAS  C:\Users\8bit\AppData\Local\Temp\ccCRhmZR.s 			page 46


 137:Service/../MAVLink/common/./mavlink_msg_altitude.h ****     packet.altitude_local = altitude_local;
 138:Service/../MAVLink/common/./mavlink_msg_altitude.h ****     packet.altitude_relative = altitude_relative;
 139:Service/../MAVLink/common/./mavlink_msg_altitude.h ****     packet.altitude_terrain = altitude_terrain;
 140:Service/../MAVLink/common/./mavlink_msg_altitude.h ****     packet.bottom_clearance = bottom_clearance;
 141:Service/../MAVLink/common/./mavlink_msg_altitude.h **** 
 142:Service/../MAVLink/common/./mavlink_msg_altitude.h ****         memcpy(_MAV_PAYLOAD_NON_CONST(msg), &packet, MAVLINK_MSG_ID_ALTITUDE_LEN);
 143:Service/../MAVLink/common/./mavlink_msg_altitude.h **** #endif
 144:Service/../MAVLink/common/./mavlink_msg_altitude.h **** 
 145:Service/../MAVLink/common/./mavlink_msg_altitude.h ****     msg->msgid = MAVLINK_MSG_ID_ALTITUDE;
 146:Service/../MAVLink/common/./mavlink_msg_altitude.h ****     return mavlink_finalize_message_chan(msg, system_id, component_id, chan, MAVLINK_MSG_ID_ALTITUD
 147:Service/../MAVLink/common/./mavlink_msg_altitude.h **** }
 148:Service/../MAVLink/common/./mavlink_msg_altitude.h **** 
 149:Service/../MAVLink/common/./mavlink_msg_altitude.h **** /**
 150:Service/../MAVLink/common/./mavlink_msg_altitude.h ****  * @brief Encode a altitude struct
 151:Service/../MAVLink/common/./mavlink_msg_altitude.h ****  *
 152:Service/../MAVLink/common/./mavlink_msg_altitude.h ****  * @param system_id ID of this system
 153:Service/../MAVLink/common/./mavlink_msg_altitude.h ****  * @param component_id ID of this component (e.g. 200 for IMU)
 154:Service/../MAVLink/common/./mavlink_msg_altitude.h ****  * @param msg The MAVLink message to compress the data into
 155:Service/../MAVLink/common/./mavlink_msg_altitude.h ****  * @param altitude C-struct to read the message contents from
 156:Service/../MAVLink/common/./mavlink_msg_altitude.h ****  */
 157:Service/../MAVLink/common/./mavlink_msg_altitude.h **** static inline uint16_t mavlink_msg_altitude_encode(uint8_t system_id, uint8_t component_id, mavlink
 158:Service/../MAVLink/common/./mavlink_msg_altitude.h **** {
 159:Service/../MAVLink/common/./mavlink_msg_altitude.h ****     return mavlink_msg_altitude_pack(system_id, component_id, msg, altitude->time_usec, altitude->a
 160:Service/../MAVLink/common/./mavlink_msg_altitude.h **** }
 161:Service/../MAVLink/common/./mavlink_msg_altitude.h **** 
 162:Service/../MAVLink/common/./mavlink_msg_altitude.h **** /**
 163:Service/../MAVLink/common/./mavlink_msg_altitude.h ****  * @brief Encode a altitude struct on a channel
 164:Service/../MAVLink/common/./mavlink_msg_altitude.h ****  *
 165:Service/../MAVLink/common/./mavlink_msg_altitude.h ****  * @param system_id ID of this system
 166:Service/../MAVLink/common/./mavlink_msg_altitude.h ****  * @param component_id ID of this component (e.g. 200 for IMU)
 167:Service/../MAVLink/common/./mavlink_msg_altitude.h ****  * @param chan The MAVLink channel this message will be sent over
 168:Service/../MAVLink/common/./mavlink_msg_altitude.h ****  * @param msg The MAVLink message to compress the data into
 169:Service/../MAVLink/common/./mavlink_msg_altitude.h ****  * @param altitude C-struct to read the message contents from
 170:Service/../MAVLink/common/./mavlink_msg_altitude.h ****  */
 171:Service/../MAVLink/common/./mavlink_msg_altitude.h **** static inline uint16_t mavlink_msg_altitude_encode_chan(uint8_t system_id, uint8_t component_id, ui
 172:Service/../MAVLink/common/./mavlink_msg_altitude.h **** {
 173:Service/../MAVLink/common/./mavlink_msg_altitude.h ****     return mavlink_msg_altitude_pack_chan(system_id, component_id, chan, msg, altitude->time_usec, 
 174:Service/../MAVLink/common/./mavlink_msg_altitude.h **** }
 175:Service/../MAVLink/common/./mavlink_msg_altitude.h **** 
 176:Service/../MAVLink/common/./mavlink_msg_altitude.h **** /**
 177:Service/../MAVLink/common/./mavlink_msg_altitude.h ****  * @brief Send a altitude message
 178:Service/../MAVLink/common/./mavlink_msg_altitude.h ****  * @param chan MAVLink channel to send the message
 179:Service/../MAVLink/common/./mavlink_msg_altitude.h ****  *
 180:Service/../MAVLink/common/./mavlink_msg_altitude.h ****  * @param time_usec [us] Timestamp (UNIX Epoch time or time since system boot). The receiving end c
 181:Service/../MAVLink/common/./mavlink_msg_altitude.h ****  * @param altitude_monotonic [m] This altitude measure is initialized on system boot and monotonic 
 182:Service/../MAVLink/common/./mavlink_msg_altitude.h ****  * @param altitude_amsl [m] This altitude measure is strictly above mean sea level and might be non
 183:Service/../MAVLink/common/./mavlink_msg_altitude.h ****  * @param altitude_local [m] This is the local altitude in the local coordinate frame. It is not th
 184:Service/../MAVLink/common/./mavlink_msg_altitude.h ****  * @param altitude_relative [m] This is the altitude above the home position. It resets on each cha
 185:Service/../MAVLink/common/./mavlink_msg_altitude.h ****  * @param altitude_terrain [m] This is the altitude above terrain. It might be fed by a terrain dat
 186:Service/../MAVLink/common/./mavlink_msg_altitude.h ****  * @param bottom_clearance [m] This is not the altitude, but the clear space below the system accor
 187:Service/../MAVLink/common/./mavlink_msg_altitude.h ****  */
 188:Service/../MAVLink/common/./mavlink_msg_altitude.h **** #ifdef MAVLINK_USE_CONVENIENCE_FUNCTIONS
 189:Service/../MAVLink/common/./mavlink_msg_altitude.h **** 
 190:Service/../MAVLink/common/./mavlink_msg_altitude.h **** static inline void mavlink_msg_altitude_send(mavlink_channel_t chan, uint64_t time_usec, float alti
 191:Service/../MAVLink/common/./mavlink_msg_altitude.h **** {
 192:Service/../MAVLink/common/./mavlink_msg_altitude.h **** #if MAVLINK_NEED_BYTE_SWAP || !MAVLINK_ALIGNED_FIELDS
 193:Service/../MAVLink/common/./mavlink_msg_altitude.h ****     char buf[MAVLINK_MSG_ID_ALTITUDE_LEN];
ARM GAS  C:\Users\8bit\AppData\Local\Temp\ccCRhmZR.s 			page 47


 194:Service/../MAVLink/common/./mavlink_msg_altitude.h ****     _mav_put_uint64_t(buf, 0, time_usec);
 195:Service/../MAVLink/common/./mavlink_msg_altitude.h ****     _mav_put_float(buf, 8, altitude_monotonic);
 196:Service/../MAVLink/common/./mavlink_msg_altitude.h ****     _mav_put_float(buf, 12, altitude_amsl);
 197:Service/../MAVLink/common/./mavlink_msg_altitude.h ****     _mav_put_float(buf, 16, altitude_local);
 198:Service/../MAVLink/common/./mavlink_msg_altitude.h ****     _mav_put_float(buf, 20, altitude_relative);
 199:Service/../MAVLink/common/./mavlink_msg_altitude.h ****     _mav_put_float(buf, 24, altitude_terrain);
 200:Service/../MAVLink/common/./mavlink_msg_altitude.h ****     _mav_put_float(buf, 28, bottom_clearance);
 201:Service/../MAVLink/common/./mavlink_msg_altitude.h **** 
 202:Service/../MAVLink/common/./mavlink_msg_altitude.h ****     _mav_finalize_message_chan_send(chan, MAVLINK_MSG_ID_ALTITUDE, buf, MAVLINK_MSG_ID_ALTITUDE_MIN
 203:Service/../MAVLink/common/./mavlink_msg_altitude.h **** #else
 204:Service/../MAVLink/common/./mavlink_msg_altitude.h ****     mavlink_altitude_t packet;
 205:Service/../MAVLink/common/./mavlink_msg_altitude.h ****     packet.time_usec = time_usec;
 206:Service/../MAVLink/common/./mavlink_msg_altitude.h ****     packet.altitude_monotonic = altitude_monotonic;
 207:Service/../MAVLink/common/./mavlink_msg_altitude.h ****     packet.altitude_amsl = altitude_amsl;
 208:Service/../MAVLink/common/./mavlink_msg_altitude.h ****     packet.altitude_local = altitude_local;
 209:Service/../MAVLink/common/./mavlink_msg_altitude.h ****     packet.altitude_relative = altitude_relative;
 210:Service/../MAVLink/common/./mavlink_msg_altitude.h ****     packet.altitude_terrain = altitude_terrain;
 211:Service/../MAVLink/common/./mavlink_msg_altitude.h ****     packet.bottom_clearance = bottom_clearance;
 212:Service/../MAVLink/common/./mavlink_msg_altitude.h **** 
 213:Service/../MAVLink/common/./mavlink_msg_altitude.h ****     _mav_finalize_message_chan_send(chan, MAVLINK_MSG_ID_ALTITUDE, (const char *)&packet, MAVLINK_M
 214:Service/../MAVLink/common/./mavlink_msg_altitude.h **** #endif
 215:Service/../MAVLink/common/./mavlink_msg_altitude.h **** }
 216:Service/../MAVLink/common/./mavlink_msg_altitude.h **** 
 217:Service/../MAVLink/common/./mavlink_msg_altitude.h **** /**
 218:Service/../MAVLink/common/./mavlink_msg_altitude.h ****  * @brief Send a altitude message
 219:Service/../MAVLink/common/./mavlink_msg_altitude.h ****  * @param chan MAVLink channel to send the message
 220:Service/../MAVLink/common/./mavlink_msg_altitude.h ****  * @param struct The MAVLink struct to serialize
 221:Service/../MAVLink/common/./mavlink_msg_altitude.h ****  */
 222:Service/../MAVLink/common/./mavlink_msg_altitude.h **** static inline void mavlink_msg_altitude_send_struct(mavlink_channel_t chan, const mavlink_altitude_
 223:Service/../MAVLink/common/./mavlink_msg_altitude.h **** {
 224:Service/../MAVLink/common/./mavlink_msg_altitude.h **** #if MAVLINK_NEED_BYTE_SWAP || !MAVLINK_ALIGNED_FIELDS
 225:Service/../MAVLink/common/./mavlink_msg_altitude.h ****     mavlink_msg_altitude_send(chan, altitude->time_usec, altitude->altitude_monotonic, altitude->al
 226:Service/../MAVLink/common/./mavlink_msg_altitude.h **** #else
 227:Service/../MAVLink/common/./mavlink_msg_altitude.h ****     _mav_finalize_message_chan_send(chan, MAVLINK_MSG_ID_ALTITUDE, (const char *)altitude, MAVLINK_
 228:Service/../MAVLink/common/./mavlink_msg_altitude.h **** #endif
 229:Service/../MAVLink/common/./mavlink_msg_altitude.h **** }
 230:Service/../MAVLink/common/./mavlink_msg_altitude.h **** 
 231:Service/../MAVLink/common/./mavlink_msg_altitude.h **** #if MAVLINK_MSG_ID_ALTITUDE_LEN <= MAVLINK_MAX_PAYLOAD_LEN
 232:Service/../MAVLink/common/./mavlink_msg_altitude.h **** /*
 233:Service/../MAVLink/common/./mavlink_msg_altitude.h ****   This variant of _send() can be used to save stack space by re-using
 234:Service/../MAVLink/common/./mavlink_msg_altitude.h ****   memory from the receive buffer.  The caller provides a
 235:Service/../MAVLink/common/./mavlink_msg_altitude.h ****   mavlink_message_t which is the size of a full mavlink message. This
 236:Service/../MAVLink/common/./mavlink_msg_altitude.h ****   is usually the receive buffer for the channel, and allows a reply to an
 237:Service/../MAVLink/common/./mavlink_msg_altitude.h ****   incoming message with minimum stack space usage.
 238:Service/../MAVLink/common/./mavlink_msg_altitude.h ****  */
 239:Service/../MAVLink/common/./mavlink_msg_altitude.h **** static inline void mavlink_msg_altitude_send_buf(mavlink_message_t *msgbuf, mavlink_channel_t chan,
 240:Service/../MAVLink/common/./mavlink_msg_altitude.h **** {
 241:Service/../MAVLink/common/./mavlink_msg_altitude.h **** #if MAVLINK_NEED_BYTE_SWAP || !MAVLINK_ALIGNED_FIELDS
 242:Service/../MAVLink/common/./mavlink_msg_altitude.h ****     char *buf = (char *)msgbuf;
 243:Service/../MAVLink/common/./mavlink_msg_altitude.h ****     _mav_put_uint64_t(buf, 0, time_usec);
 244:Service/../MAVLink/common/./mavlink_msg_altitude.h ****     _mav_put_float(buf, 8, altitude_monotonic);
 245:Service/../MAVLink/common/./mavlink_msg_altitude.h ****     _mav_put_float(buf, 12, altitude_amsl);
 246:Service/../MAVLink/common/./mavlink_msg_altitude.h ****     _mav_put_float(buf, 16, altitude_local);
 247:Service/../MAVLink/common/./mavlink_msg_altitude.h ****     _mav_put_float(buf, 20, altitude_relative);
 248:Service/../MAVLink/common/./mavlink_msg_altitude.h ****     _mav_put_float(buf, 24, altitude_terrain);
 249:Service/../MAVLink/common/./mavlink_msg_altitude.h ****     _mav_put_float(buf, 28, bottom_clearance);
 250:Service/../MAVLink/common/./mavlink_msg_altitude.h **** 
ARM GAS  C:\Users\8bit\AppData\Local\Temp\ccCRhmZR.s 			page 48


 251:Service/../MAVLink/common/./mavlink_msg_altitude.h ****     _mav_finalize_message_chan_send(chan, MAVLINK_MSG_ID_ALTITUDE, buf, MAVLINK_MSG_ID_ALTITUDE_MIN
 252:Service/../MAVLink/common/./mavlink_msg_altitude.h **** #else
 253:Service/../MAVLink/common/./mavlink_msg_altitude.h ****     mavlink_altitude_t *packet = (mavlink_altitude_t *)msgbuf;
 254:Service/../MAVLink/common/./mavlink_msg_altitude.h ****     packet->time_usec = time_usec;
 255:Service/../MAVLink/common/./mavlink_msg_altitude.h ****     packet->altitude_monotonic = altitude_monotonic;
 256:Service/../MAVLink/common/./mavlink_msg_altitude.h ****     packet->altitude_amsl = altitude_amsl;
 257:Service/../MAVLink/common/./mavlink_msg_altitude.h ****     packet->altitude_local = altitude_local;
 258:Service/../MAVLink/common/./mavlink_msg_altitude.h ****     packet->altitude_relative = altitude_relative;
 259:Service/../MAVLink/common/./mavlink_msg_altitude.h ****     packet->altitude_terrain = altitude_terrain;
 260:Service/../MAVLink/common/./mavlink_msg_altitude.h ****     packet->bottom_clearance = bottom_clearance;
 261:Service/../MAVLink/common/./mavlink_msg_altitude.h **** 
 262:Service/../MAVLink/common/./mavlink_msg_altitude.h ****     _mav_finalize_message_chan_send(chan, MAVLINK_MSG_ID_ALTITUDE, (const char *)packet, MAVLINK_MS
 263:Service/../MAVLink/common/./mavlink_msg_altitude.h **** #endif
 264:Service/../MAVLink/common/./mavlink_msg_altitude.h **** }
 265:Service/../MAVLink/common/./mavlink_msg_altitude.h **** #endif
 266:Service/../MAVLink/common/./mavlink_msg_altitude.h **** 
 267:Service/../MAVLink/common/./mavlink_msg_altitude.h **** #endif
 268:Service/../MAVLink/common/./mavlink_msg_altitude.h **** 
 269:Service/../MAVLink/common/./mavlink_msg_altitude.h **** // MESSAGE ALTITUDE UNPACKING
 270:Service/../MAVLink/common/./mavlink_msg_altitude.h **** 
 271:Service/../MAVLink/common/./mavlink_msg_altitude.h **** 
 272:Service/../MAVLink/common/./mavlink_msg_altitude.h **** /**
 273:Service/../MAVLink/common/./mavlink_msg_altitude.h ****  * @brief Get field time_usec from altitude message
 274:Service/../MAVLink/common/./mavlink_msg_altitude.h ****  *
 275:Service/../MAVLink/common/./mavlink_msg_altitude.h ****  * @return [us] Timestamp (UNIX Epoch time or time since system boot). The receiving end can infer 
 276:Service/../MAVLink/common/./mavlink_msg_altitude.h ****  */
 277:Service/../MAVLink/common/./mavlink_msg_altitude.h **** static inline uint64_t mavlink_msg_altitude_get_time_usec(const mavlink_message_t* msg)
 278:Service/../MAVLink/common/./mavlink_msg_altitude.h **** {
 279:Service/../MAVLink/common/./mavlink_msg_altitude.h ****     return _MAV_RETURN_uint64_t(msg,  0);
 280:Service/../MAVLink/common/./mavlink_msg_altitude.h **** }
 281:Service/../MAVLink/common/./mavlink_msg_altitude.h **** 
 282:Service/../MAVLink/common/./mavlink_msg_altitude.h **** /**
 283:Service/../MAVLink/common/./mavlink_msg_altitude.h ****  * @brief Get field altitude_monotonic from altitude message
 284:Service/../MAVLink/common/./mavlink_msg_altitude.h ****  *
 285:Service/../MAVLink/common/./mavlink_msg_altitude.h ****  * @return [m] This altitude measure is initialized on system boot and monotonic (it is never reset
 286:Service/../MAVLink/common/./mavlink_msg_altitude.h ****  */
 287:Service/../MAVLink/common/./mavlink_msg_altitude.h **** static inline float mavlink_msg_altitude_get_altitude_monotonic(const mavlink_message_t* msg)
 288:Service/../MAVLink/common/./mavlink_msg_altitude.h **** {
 289:Service/../MAVLink/common/./mavlink_msg_altitude.h ****     return _MAV_RETURN_float(msg,  8);
 290:Service/../MAVLink/common/./mavlink_msg_altitude.h **** }
 291:Service/../MAVLink/common/./mavlink_msg_altitude.h **** 
 292:Service/../MAVLink/common/./mavlink_msg_altitude.h **** /**
 293:Service/../MAVLink/common/./mavlink_msg_altitude.h ****  * @brief Get field altitude_amsl from altitude message
 294:Service/../MAVLink/common/./mavlink_msg_altitude.h ****  *
 295:Service/../MAVLink/common/./mavlink_msg_altitude.h ****  * @return [m] This altitude measure is strictly above mean sea level and might be non-monotonic (i
 296:Service/../MAVLink/common/./mavlink_msg_altitude.h ****  */
 297:Service/../MAVLink/common/./mavlink_msg_altitude.h **** static inline float mavlink_msg_altitude_get_altitude_amsl(const mavlink_message_t* msg)
 298:Service/../MAVLink/common/./mavlink_msg_altitude.h **** {
 299:Service/../MAVLink/common/./mavlink_msg_altitude.h ****     return _MAV_RETURN_float(msg,  12);
 300:Service/../MAVLink/common/./mavlink_msg_altitude.h **** }
 301:Service/../MAVLink/common/./mavlink_msg_altitude.h **** 
 302:Service/../MAVLink/common/./mavlink_msg_altitude.h **** /**
 303:Service/../MAVLink/common/./mavlink_msg_altitude.h ****  * @brief Get field altitude_local from altitude message
 304:Service/../MAVLink/common/./mavlink_msg_altitude.h ****  *
 305:Service/../MAVLink/common/./mavlink_msg_altitude.h ****  * @return [m] This is the local altitude in the local coordinate frame. It is not the altitude abo
 306:Service/../MAVLink/common/./mavlink_msg_altitude.h ****  */
 307:Service/../MAVLink/common/./mavlink_msg_altitude.h **** static inline float mavlink_msg_altitude_get_altitude_local(const mavlink_message_t* msg)
ARM GAS  C:\Users\8bit\AppData\Local\Temp\ccCRhmZR.s 			page 49


 308:Service/../MAVLink/common/./mavlink_msg_altitude.h **** {
 309:Service/../MAVLink/common/./mavlink_msg_altitude.h ****     return _MAV_RETURN_float(msg,  16);
 310:Service/../MAVLink/common/./mavlink_msg_altitude.h **** }
 311:Service/../MAVLink/common/./mavlink_msg_altitude.h **** 
 312:Service/../MAVLink/common/./mavlink_msg_altitude.h **** /**
 313:Service/../MAVLink/common/./mavlink_msg_altitude.h ****  * @brief Get field altitude_relative from altitude message
 314:Service/../MAVLink/common/./mavlink_msg_altitude.h ****  *
 315:Service/../MAVLink/common/./mavlink_msg_altitude.h ****  * @return [m] This is the altitude above the home position. It resets on each change of the curren
 316:Service/../MAVLink/common/./mavlink_msg_altitude.h ****  */
 317:Service/../MAVLink/common/./mavlink_msg_altitude.h **** static inline float mavlink_msg_altitude_get_altitude_relative(const mavlink_message_t* msg)
 318:Service/../MAVLink/common/./mavlink_msg_altitude.h **** {
 319:Service/../MAVLink/common/./mavlink_msg_altitude.h ****     return _MAV_RETURN_float(msg,  20);
 320:Service/../MAVLink/common/./mavlink_msg_altitude.h **** }
 321:Service/../MAVLink/common/./mavlink_msg_altitude.h **** 
 322:Service/../MAVLink/common/./mavlink_msg_altitude.h **** /**
 323:Service/../MAVLink/common/./mavlink_msg_altitude.h ****  * @brief Get field altitude_terrain from altitude message
 324:Service/../MAVLink/common/./mavlink_msg_altitude.h ****  *
 325:Service/../MAVLink/common/./mavlink_msg_altitude.h ****  * @return [m] This is the altitude above terrain. It might be fed by a terrain database or an alti
 326:Service/../MAVLink/common/./mavlink_msg_altitude.h ****  */
 327:Service/../MAVLink/common/./mavlink_msg_altitude.h **** static inline float mavlink_msg_altitude_get_altitude_terrain(const mavlink_message_t* msg)
 328:Service/../MAVLink/common/./mavlink_msg_altitude.h **** {
 329:Service/../MAVLink/common/./mavlink_msg_altitude.h ****     return _MAV_RETURN_float(msg,  24);
 330:Service/../MAVLink/common/./mavlink_msg_altitude.h **** }
 331:Service/../MAVLink/common/./mavlink_msg_altitude.h **** 
 332:Service/../MAVLink/common/./mavlink_msg_altitude.h **** /**
 333:Service/../MAVLink/common/./mavlink_msg_altitude.h ****  * @brief Get field bottom_clearance from altitude message
 334:Service/../MAVLink/common/./mavlink_msg_altitude.h ****  *
 335:Service/../MAVLink/common/./mavlink_msg_altitude.h ****  * @return [m] This is not the altitude, but the clear space below the system according to the fuse
 336:Service/../MAVLink/common/./mavlink_msg_altitude.h ****  */
 337:Service/../MAVLink/common/./mavlink_msg_altitude.h **** static inline float mavlink_msg_altitude_get_bottom_clearance(const mavlink_message_t* msg)
 338:Service/../MAVLink/common/./mavlink_msg_altitude.h **** {
 339:Service/../MAVLink/common/./mavlink_msg_altitude.h ****     return _MAV_RETURN_float(msg,  28);
 340:Service/../MAVLink/common/./mavlink_msg_altitude.h **** }
 341:Service/../MAVLink/common/./mavlink_msg_altitude.h **** 
 342:Service/../MAVLink/common/./mavlink_msg_altitude.h **** /**
 343:Service/../MAVLink/common/./mavlink_msg_altitude.h ****  * @brief Decode a altitude message into a struct
 344:Service/../MAVLink/common/./mavlink_msg_altitude.h ****  *
 345:Service/../MAVLink/common/./mavlink_msg_altitude.h ****  * @param msg The message to decode
 346:Service/../MAVLink/common/./mavlink_msg_altitude.h ****  * @param altitude C-struct to decode the message contents into
 347:Service/../MAVLink/common/./mavlink_msg_altitude.h ****  */
 348:Service/../MAVLink/common/./mavlink_msg_altitude.h **** static inline void mavlink_msg_altitude_decode(const mavlink_message_t* msg, mavlink_altitude_t* al
 920              		.loc 5 348 20 view .LVU260
 921              	.LBB56:
 349:Service/../MAVLink/common/./mavlink_msg_altitude.h **** {
 350:Service/../MAVLink/common/./mavlink_msg_altitude.h **** #if MAVLINK_NEED_BYTE_SWAP || !MAVLINK_ALIGNED_FIELDS
 351:Service/../MAVLink/common/./mavlink_msg_altitude.h ****     altitude->time_usec = mavlink_msg_altitude_get_time_usec(msg);
 352:Service/../MAVLink/common/./mavlink_msg_altitude.h ****     altitude->altitude_monotonic = mavlink_msg_altitude_get_altitude_monotonic(msg);
 353:Service/../MAVLink/common/./mavlink_msg_altitude.h ****     altitude->altitude_amsl = mavlink_msg_altitude_get_altitude_amsl(msg);
 354:Service/../MAVLink/common/./mavlink_msg_altitude.h ****     altitude->altitude_local = mavlink_msg_altitude_get_altitude_local(msg);
 355:Service/../MAVLink/common/./mavlink_msg_altitude.h ****     altitude->altitude_relative = mavlink_msg_altitude_get_altitude_relative(msg);
 356:Service/../MAVLink/common/./mavlink_msg_altitude.h ****     altitude->altitude_terrain = mavlink_msg_altitude_get_altitude_terrain(msg);
 357:Service/../MAVLink/common/./mavlink_msg_altitude.h ****     altitude->bottom_clearance = mavlink_msg_altitude_get_bottom_clearance(msg);
 358:Service/../MAVLink/common/./mavlink_msg_altitude.h **** #else
 359:Service/../MAVLink/common/./mavlink_msg_altitude.h ****         uint8_t len = msg->len < MAVLINK_MSG_ID_ALTITUDE_LEN? msg->len : MAVLINK_MSG_ID_ALTITUDE_LE
 922              		.loc 5 359 9 view .LVU261
 923              		.loc 5 359 26 is_stmt 0 view .LVU262
 924 0024 9DF83750 		ldrb	r5, [sp, #55]	@ zero_extendqisi2
ARM GAS  C:\Users\8bit\AppData\Local\Temp\ccCRhmZR.s 			page 50


 925              		.loc 5 359 17 view .LVU263
 926 0028 B542     		cmp	r5, r6
 927 002a 28BF     		it	cs
 928 002c 3546     		movcs	r5, r6
 929              	.LVL57:
 360:Service/../MAVLink/common/./mavlink_msg_altitude.h ****         memset(altitude, 0, MAVLINK_MSG_ID_ALTITUDE_LEN);
 930              		.loc 5 360 9 is_stmt 1 view .LVU264
 931 002e 3246     		mov	r2, r6
 932 0030 0021     		movs	r1, #0
 933 0032 6846     		mov	r0, sp
 934 0034 FFF7FEFF 		bl	memset
 935              	.LVL58:
 361:Service/../MAVLink/common/./mavlink_msg_altitude.h ****     memcpy(altitude, _MAV_PAYLOAD(msg), len);
 936              		.loc 5 361 5 view .LVU265
 937 0038 2A46     		mov	r2, r5
 938 003a 0FA9     		add	r1, sp, #60
 939 003c 6846     		mov	r0, sp
 940 003e FFF7FEFF 		bl	memcpy
 941              	.LVL59:
 942              		.loc 5 361 5 is_stmt 0 view .LVU266
 943              	.LBE56:
 944              	.LBE55:
 393:Service/Srv_ComProto.c **** 
 394:Service/Srv_ComProto.c ****         if (obj->MavMsg_Alt_Callback)
 945              		.loc 1 394 9 is_stmt 1 view .LVU267
 946              		.loc 1 394 16 is_stmt 0 view .LVU268
 947 0042 E36E     		ldr	r3, [r4, #108]
 948              		.loc 1 394 12 view .LVU269
 949 0044 4BB1     		cbz	r3, .L64
 395:Service/Srv_ComProto.c ****             return obj->MavMsg_Alt_Callback(&msg_alt, obj->cus_p_alt);
 950              		.loc 1 395 13 is_stmt 1 view .LVU270
 951              		.loc 1 395 20 is_stmt 0 view .LVU271
 952 0046 E168     		ldr	r1, [r4, #12]
 953 0048 6846     		mov	r0, sp
 954 004a 9847     		blx	r3
 955              	.LVL60:
 956 004c 00E0     		b	.L62
 957              	.LVL61:
 958              	.L63:
 396:Service/Srv_ComProto.c ****     }
 397:Service/Srv_ComProto.c **** 
 398:Service/Srv_ComProto.c ****     return false;
 959              		.loc 1 398 12 view .LVU272
 960 004e 0020     		movs	r0, #0
 961              	.LVL62:
 962              	.L62:
 399:Service/Srv_ComProto.c **** }
 963              		.loc 1 399 1 view .LVU273
 964 0050 08B0     		add	sp, sp, #32
 965              	.LCFI24:
 966              		.cfi_remember_state
 967              		.cfi_def_cfa_offset 32
 968              		@ sp needed
 969 0052 BDE87040 		pop	{r4, r5, r6, lr}
 970              	.LCFI25:
 971              		.cfi_restore 14
 972              		.cfi_restore 6
ARM GAS  C:\Users\8bit\AppData\Local\Temp\ccCRhmZR.s 			page 51


 973              		.cfi_restore 5
 974              		.cfi_restore 4
 975              		.cfi_def_cfa_offset 16
 976 0056 04B0     		add	sp, sp, #16
 977              	.LCFI26:
 978              		.cfi_def_cfa_offset 0
 979 0058 7047     		bx	lr
 980              	.LVL63:
 981              	.L64:
 982              	.LCFI27:
 983              		.cfi_restore_state
 398:Service/Srv_ComProto.c **** }
 984              		.loc 1 398 12 view .LVU274
 985 005a 0020     		movs	r0, #0
 986 005c F8E7     		b	.L62
 987              		.cfi_endproc
 988              	.LFE2089:
 990              		.section	.text.SrvComProto_MavMsg_Decode_ExpRC,"ax",%progbits
 991              		.align	1
 992              		.syntax unified
 993              		.thumb
 994              		.thumb_func
 996              	SrvComProto_MavMsg_Decode_ExpRC:
 997              	.LVL64:
 998              	.LFB2091:
 400:Service/Srv_ComProto.c **** 
 401:Service/Srv_ComProto.c **** static bool SrvComProto_MavMsg_Decode_ExpMoto(SrvComProto_MsgObj_TypeDef *obj, const mavlink_messag
 402:Service/Srv_ComProto.c **** {
 403:Service/Srv_ComProto.c ****     mavlink_servo_output_raw_t msg_moto;
 404:Service/Srv_ComProto.c **** 
 405:Service/Srv_ComProto.c ****     if (obj)
 406:Service/Srv_ComProto.c ****     {
 407:Service/Srv_ComProto.c ****         obj->Moto_Cnt ++;
 408:Service/Srv_ComProto.c **** 
 409:Service/Srv_ComProto.c ****         memset(&msg_moto, 0, sizeof(mavlink_servo_output_raw_t));
 410:Service/Srv_ComProto.c ****         mavlink_msg_servo_output_raw_decode(&msg, &msg_moto);
 411:Service/Srv_ComProto.c **** 
 412:Service/Srv_ComProto.c ****         if (obj->MavMsg_MotoCtl_Callback)
 413:Service/Srv_ComProto.c ****             return obj->MavMsg_MotoCtl_Callback(&msg_moto, obj->cus_p_moto);
 414:Service/Srv_ComProto.c ****     }
 415:Service/Srv_ComProto.c **** 
 416:Service/Srv_ComProto.c ****     return false;
 417:Service/Srv_ComProto.c **** }
 418:Service/Srv_ComProto.c **** 
 419:Service/Srv_ComProto.c **** static bool SrvComProto_MavMsg_Decode_ExpRC(SrvComProto_MsgObj_TypeDef *obj, const mavlink_message_
 420:Service/Srv_ComProto.c **** {
 999              		.loc 1 420 1 is_stmt 1 view -0
 1000              		.cfi_startproc
 1001              		@ args = 276, pretend = 16, frame = 48
 1002              		@ frame_needed = 0, uses_anonymous_args = 0
 1003              		.loc 1 420 1 is_stmt 0 view .LVU276
 1004 0000 84B0     		sub	sp, sp, #16
 1005              	.LCFI28:
 1006              		.cfi_def_cfa_offset 16
 1007 0002 30B5     		push	{r4, r5, lr}
 1008              	.LCFI29:
 1009              		.cfi_def_cfa_offset 28
ARM GAS  C:\Users\8bit\AppData\Local\Temp\ccCRhmZR.s 			page 52


 1010              		.cfi_offset 4, -28
 1011              		.cfi_offset 5, -24
 1012              		.cfi_offset 14, -20
 1013 0004 8DB0     		sub	sp, sp, #52
 1014              	.LCFI30:
 1015              		.cfi_def_cfa_offset 80
 1016 0006 0DF1440C 		add	ip, sp, #68
 1017 000a 8CE80E00 		stm	ip, {r1, r2, r3}
 421:Service/Srv_ComProto.c ****     mavlink_rc_channels_t msg_rc;
 1018              		.loc 1 421 5 is_stmt 1 view .LVU277
 422:Service/Srv_ComProto.c **** 
 423:Service/Srv_ComProto.c ****     if (obj)
 1019              		.loc 1 423 5 view .LVU278
 1020              		.loc 1 423 8 is_stmt 0 view .LVU279
 1021 000e E8B1     		cbz	r0, .L68
 1022 0010 0446     		mov	r4, r0
 424:Service/Srv_ComProto.c ****     {
 425:Service/Srv_ComProto.c ****         obj->RC_Cnt ++;
 1023              		.loc 1 425 9 is_stmt 1 view .LVU280
 1024              		.loc 1 425 12 is_stmt 0 view .LVU281
 1025 0012 036C     		ldr	r3, [r0, #64]
 1026              		.loc 1 425 21 view .LVU282
 1027 0014 0133     		adds	r3, r3, #1
 1028 0016 0364     		str	r3, [r0, #64]
 426:Service/Srv_ComProto.c **** 
 427:Service/Srv_ComProto.c ****         memset(&msg_rc, 0, sizeof(mavlink_rc_channels_t));
 1029              		.loc 1 427 9 is_stmt 1 view .LVU283
 1030 0018 2C22     		movs	r2, #44
 1031 001a 0021     		movs	r1, #0
 1032 001c 01A8     		add	r0, sp, #4
 1033 001e FFF7FEFF 		bl	memset
 1034              	.LVL65:
 428:Service/Srv_ComProto.c ****         mavlink_msg_rc_channels_decode(&msg, &msg_rc);
 1035              		.loc 1 428 9 view .LVU284
 1036              	.LBB59:
 1037              	.LBI59:
 1038              		.file 6 "Service/../MAVLink/common/./mavlink_msg_rc_channels.h"
   1:Service/../MAVLink/common/./mavlink_msg_rc_channels.h **** #pragma once
   2:Service/../MAVLink/common/./mavlink_msg_rc_channels.h **** // MESSAGE RC_CHANNELS PACKING
   3:Service/../MAVLink/common/./mavlink_msg_rc_channels.h **** 
   4:Service/../MAVLink/common/./mavlink_msg_rc_channels.h **** #define MAVLINK_MSG_ID_RC_CHANNELS 65
   5:Service/../MAVLink/common/./mavlink_msg_rc_channels.h **** 
   6:Service/../MAVLink/common/./mavlink_msg_rc_channels.h **** 
   7:Service/../MAVLink/common/./mavlink_msg_rc_channels.h **** typedef struct __mavlink_rc_channels_t {
   8:Service/../MAVLink/common/./mavlink_msg_rc_channels.h ****  uint32_t time_boot_ms; /*< [ms] Timestamp (time since system boot).*/
   9:Service/../MAVLink/common/./mavlink_msg_rc_channels.h ****  uint16_t chan1_raw; /*< [us] RC channel 1 value.*/
  10:Service/../MAVLink/common/./mavlink_msg_rc_channels.h ****  uint16_t chan2_raw; /*< [us] RC channel 2 value.*/
  11:Service/../MAVLink/common/./mavlink_msg_rc_channels.h ****  uint16_t chan3_raw; /*< [us] RC channel 3 value.*/
  12:Service/../MAVLink/common/./mavlink_msg_rc_channels.h ****  uint16_t chan4_raw; /*< [us] RC channel 4 value.*/
  13:Service/../MAVLink/common/./mavlink_msg_rc_channels.h ****  uint16_t chan5_raw; /*< [us] RC channel 5 value.*/
  14:Service/../MAVLink/common/./mavlink_msg_rc_channels.h ****  uint16_t chan6_raw; /*< [us] RC channel 6 value.*/
  15:Service/../MAVLink/common/./mavlink_msg_rc_channels.h ****  uint16_t chan7_raw; /*< [us] RC channel 7 value.*/
  16:Service/../MAVLink/common/./mavlink_msg_rc_channels.h ****  uint16_t chan8_raw; /*< [us] RC channel 8 value.*/
  17:Service/../MAVLink/common/./mavlink_msg_rc_channels.h ****  uint16_t chan9_raw; /*< [us] RC channel 9 value.*/
  18:Service/../MAVLink/common/./mavlink_msg_rc_channels.h ****  uint16_t chan10_raw; /*< [us] RC channel 10 value.*/
  19:Service/../MAVLink/common/./mavlink_msg_rc_channels.h ****  uint16_t chan11_raw; /*< [us] RC channel 11 value.*/
  20:Service/../MAVLink/common/./mavlink_msg_rc_channels.h ****  uint16_t chan12_raw; /*< [us] RC channel 12 value.*/
ARM GAS  C:\Users\8bit\AppData\Local\Temp\ccCRhmZR.s 			page 53


  21:Service/../MAVLink/common/./mavlink_msg_rc_channels.h ****  uint16_t chan13_raw; /*< [us] RC channel 13 value.*/
  22:Service/../MAVLink/common/./mavlink_msg_rc_channels.h ****  uint16_t chan14_raw; /*< [us] RC channel 14 value.*/
  23:Service/../MAVLink/common/./mavlink_msg_rc_channels.h ****  uint16_t chan15_raw; /*< [us] RC channel 15 value.*/
  24:Service/../MAVLink/common/./mavlink_msg_rc_channels.h ****  uint16_t chan16_raw; /*< [us] RC channel 16 value.*/
  25:Service/../MAVLink/common/./mavlink_msg_rc_channels.h ****  uint16_t chan17_raw; /*< [us] RC channel 17 value.*/
  26:Service/../MAVLink/common/./mavlink_msg_rc_channels.h ****  uint16_t chan18_raw; /*< [us] RC channel 18 value.*/
  27:Service/../MAVLink/common/./mavlink_msg_rc_channels.h ****  uint8_t chancount; /*<  Total number of RC channels being received. This can be larger than 18, in
  28:Service/../MAVLink/common/./mavlink_msg_rc_channels.h ****  uint8_t rssi; /*<  Receive signal strength indicator in device-dependent units/scale. Values: [0-2
  29:Service/../MAVLink/common/./mavlink_msg_rc_channels.h **** } mavlink_rc_channels_t;
  30:Service/../MAVLink/common/./mavlink_msg_rc_channels.h **** 
  31:Service/../MAVLink/common/./mavlink_msg_rc_channels.h **** #define MAVLINK_MSG_ID_RC_CHANNELS_LEN 42
  32:Service/../MAVLink/common/./mavlink_msg_rc_channels.h **** #define MAVLINK_MSG_ID_RC_CHANNELS_MIN_LEN 42
  33:Service/../MAVLink/common/./mavlink_msg_rc_channels.h **** #define MAVLINK_MSG_ID_65_LEN 42
  34:Service/../MAVLink/common/./mavlink_msg_rc_channels.h **** #define MAVLINK_MSG_ID_65_MIN_LEN 42
  35:Service/../MAVLink/common/./mavlink_msg_rc_channels.h **** 
  36:Service/../MAVLink/common/./mavlink_msg_rc_channels.h **** #define MAVLINK_MSG_ID_RC_CHANNELS_CRC 118
  37:Service/../MAVLink/common/./mavlink_msg_rc_channels.h **** #define MAVLINK_MSG_ID_65_CRC 118
  38:Service/../MAVLink/common/./mavlink_msg_rc_channels.h **** 
  39:Service/../MAVLink/common/./mavlink_msg_rc_channels.h **** 
  40:Service/../MAVLink/common/./mavlink_msg_rc_channels.h **** 
  41:Service/../MAVLink/common/./mavlink_msg_rc_channels.h **** #if MAVLINK_COMMAND_24BIT
  42:Service/../MAVLink/common/./mavlink_msg_rc_channels.h **** #define MAVLINK_MESSAGE_INFO_RC_CHANNELS { \
  43:Service/../MAVLink/common/./mavlink_msg_rc_channels.h ****     65, \
  44:Service/../MAVLink/common/./mavlink_msg_rc_channels.h ****     "RC_CHANNELS", \
  45:Service/../MAVLink/common/./mavlink_msg_rc_channels.h ****     21, \
  46:Service/../MAVLink/common/./mavlink_msg_rc_channels.h ****     {  { "time_boot_ms", NULL, MAVLINK_TYPE_UINT32_T, 0, 0, offsetof(mavlink_rc_channels_t, time_bo
  47:Service/../MAVLink/common/./mavlink_msg_rc_channels.h ****          { "chancount", NULL, MAVLINK_TYPE_UINT8_T, 0, 40, offsetof(mavlink_rc_channels_t, chancoun
  48:Service/../MAVLink/common/./mavlink_msg_rc_channels.h ****          { "chan1_raw", NULL, MAVLINK_TYPE_UINT16_T, 0, 4, offsetof(mavlink_rc_channels_t, chan1_ra
  49:Service/../MAVLink/common/./mavlink_msg_rc_channels.h ****          { "chan2_raw", NULL, MAVLINK_TYPE_UINT16_T, 0, 6, offsetof(mavlink_rc_channels_t, chan2_ra
  50:Service/../MAVLink/common/./mavlink_msg_rc_channels.h ****          { "chan3_raw", NULL, MAVLINK_TYPE_UINT16_T, 0, 8, offsetof(mavlink_rc_channels_t, chan3_ra
  51:Service/../MAVLink/common/./mavlink_msg_rc_channels.h ****          { "chan4_raw", NULL, MAVLINK_TYPE_UINT16_T, 0, 10, offsetof(mavlink_rc_channels_t, chan4_r
  52:Service/../MAVLink/common/./mavlink_msg_rc_channels.h ****          { "chan5_raw", NULL, MAVLINK_TYPE_UINT16_T, 0, 12, offsetof(mavlink_rc_channels_t, chan5_r
  53:Service/../MAVLink/common/./mavlink_msg_rc_channels.h ****          { "chan6_raw", NULL, MAVLINK_TYPE_UINT16_T, 0, 14, offsetof(mavlink_rc_channels_t, chan6_r
  54:Service/../MAVLink/common/./mavlink_msg_rc_channels.h ****          { "chan7_raw", NULL, MAVLINK_TYPE_UINT16_T, 0, 16, offsetof(mavlink_rc_channels_t, chan7_r
  55:Service/../MAVLink/common/./mavlink_msg_rc_channels.h ****          { "chan8_raw", NULL, MAVLINK_TYPE_UINT16_T, 0, 18, offsetof(mavlink_rc_channels_t, chan8_r
  56:Service/../MAVLink/common/./mavlink_msg_rc_channels.h ****          { "chan9_raw", NULL, MAVLINK_TYPE_UINT16_T, 0, 20, offsetof(mavlink_rc_channels_t, chan9_r
  57:Service/../MAVLink/common/./mavlink_msg_rc_channels.h ****          { "chan10_raw", NULL, MAVLINK_TYPE_UINT16_T, 0, 22, offsetof(mavlink_rc_channels_t, chan10
  58:Service/../MAVLink/common/./mavlink_msg_rc_channels.h ****          { "chan11_raw", NULL, MAVLINK_TYPE_UINT16_T, 0, 24, offsetof(mavlink_rc_channels_t, chan11
  59:Service/../MAVLink/common/./mavlink_msg_rc_channels.h ****          { "chan12_raw", NULL, MAVLINK_TYPE_UINT16_T, 0, 26, offsetof(mavlink_rc_channels_t, chan12
  60:Service/../MAVLink/common/./mavlink_msg_rc_channels.h ****          { "chan13_raw", NULL, MAVLINK_TYPE_UINT16_T, 0, 28, offsetof(mavlink_rc_channels_t, chan13
  61:Service/../MAVLink/common/./mavlink_msg_rc_channels.h ****          { "chan14_raw", NULL, MAVLINK_TYPE_UINT16_T, 0, 30, offsetof(mavlink_rc_channels_t, chan14
  62:Service/../MAVLink/common/./mavlink_msg_rc_channels.h ****          { "chan15_raw", NULL, MAVLINK_TYPE_UINT16_T, 0, 32, offsetof(mavlink_rc_channels_t, chan15
  63:Service/../MAVLink/common/./mavlink_msg_rc_channels.h ****          { "chan16_raw", NULL, MAVLINK_TYPE_UINT16_T, 0, 34, offsetof(mavlink_rc_channels_t, chan16
  64:Service/../MAVLink/common/./mavlink_msg_rc_channels.h ****          { "chan17_raw", NULL, MAVLINK_TYPE_UINT16_T, 0, 36, offsetof(mavlink_rc_channels_t, chan17
  65:Service/../MAVLink/common/./mavlink_msg_rc_channels.h ****          { "chan18_raw", NULL, MAVLINK_TYPE_UINT16_T, 0, 38, offsetof(mavlink_rc_channels_t, chan18
  66:Service/../MAVLink/common/./mavlink_msg_rc_channels.h ****          { "rssi", NULL, MAVLINK_TYPE_UINT8_T, 0, 41, offsetof(mavlink_rc_channels_t, rssi) }, \
  67:Service/../MAVLink/common/./mavlink_msg_rc_channels.h ****          } \
  68:Service/../MAVLink/common/./mavlink_msg_rc_channels.h **** }
  69:Service/../MAVLink/common/./mavlink_msg_rc_channels.h **** #else
  70:Service/../MAVLink/common/./mavlink_msg_rc_channels.h **** #define MAVLINK_MESSAGE_INFO_RC_CHANNELS { \
  71:Service/../MAVLink/common/./mavlink_msg_rc_channels.h ****     "RC_CHANNELS", \
  72:Service/../MAVLink/common/./mavlink_msg_rc_channels.h ****     21, \
  73:Service/../MAVLink/common/./mavlink_msg_rc_channels.h ****     {  { "time_boot_ms", NULL, MAVLINK_TYPE_UINT32_T, 0, 0, offsetof(mavlink_rc_channels_t, time_bo
  74:Service/../MAVLink/common/./mavlink_msg_rc_channels.h ****          { "chancount", NULL, MAVLINK_TYPE_UINT8_T, 0, 40, offsetof(mavlink_rc_channels_t, chancoun
  75:Service/../MAVLink/common/./mavlink_msg_rc_channels.h ****          { "chan1_raw", NULL, MAVLINK_TYPE_UINT16_T, 0, 4, offsetof(mavlink_rc_channels_t, chan1_ra
  76:Service/../MAVLink/common/./mavlink_msg_rc_channels.h ****          { "chan2_raw", NULL, MAVLINK_TYPE_UINT16_T, 0, 6, offsetof(mavlink_rc_channels_t, chan2_ra
  77:Service/../MAVLink/common/./mavlink_msg_rc_channels.h ****          { "chan3_raw", NULL, MAVLINK_TYPE_UINT16_T, 0, 8, offsetof(mavlink_rc_channels_t, chan3_ra
ARM GAS  C:\Users\8bit\AppData\Local\Temp\ccCRhmZR.s 			page 54


  78:Service/../MAVLink/common/./mavlink_msg_rc_channels.h ****          { "chan4_raw", NULL, MAVLINK_TYPE_UINT16_T, 0, 10, offsetof(mavlink_rc_channels_t, chan4_r
  79:Service/../MAVLink/common/./mavlink_msg_rc_channels.h ****          { "chan5_raw", NULL, MAVLINK_TYPE_UINT16_T, 0, 12, offsetof(mavlink_rc_channels_t, chan5_r
  80:Service/../MAVLink/common/./mavlink_msg_rc_channels.h ****          { "chan6_raw", NULL, MAVLINK_TYPE_UINT16_T, 0, 14, offsetof(mavlink_rc_channels_t, chan6_r
  81:Service/../MAVLink/common/./mavlink_msg_rc_channels.h ****          { "chan7_raw", NULL, MAVLINK_TYPE_UINT16_T, 0, 16, offsetof(mavlink_rc_channels_t, chan7_r
  82:Service/../MAVLink/common/./mavlink_msg_rc_channels.h ****          { "chan8_raw", NULL, MAVLINK_TYPE_UINT16_T, 0, 18, offsetof(mavlink_rc_channels_t, chan8_r
  83:Service/../MAVLink/common/./mavlink_msg_rc_channels.h ****          { "chan9_raw", NULL, MAVLINK_TYPE_UINT16_T, 0, 20, offsetof(mavlink_rc_channels_t, chan9_r
  84:Service/../MAVLink/common/./mavlink_msg_rc_channels.h ****          { "chan10_raw", NULL, MAVLINK_TYPE_UINT16_T, 0, 22, offsetof(mavlink_rc_channels_t, chan10
  85:Service/../MAVLink/common/./mavlink_msg_rc_channels.h ****          { "chan11_raw", NULL, MAVLINK_TYPE_UINT16_T, 0, 24, offsetof(mavlink_rc_channels_t, chan11
  86:Service/../MAVLink/common/./mavlink_msg_rc_channels.h ****          { "chan12_raw", NULL, MAVLINK_TYPE_UINT16_T, 0, 26, offsetof(mavlink_rc_channels_t, chan12
  87:Service/../MAVLink/common/./mavlink_msg_rc_channels.h ****          { "chan13_raw", NULL, MAVLINK_TYPE_UINT16_T, 0, 28, offsetof(mavlink_rc_channels_t, chan13
  88:Service/../MAVLink/common/./mavlink_msg_rc_channels.h ****          { "chan14_raw", NULL, MAVLINK_TYPE_UINT16_T, 0, 30, offsetof(mavlink_rc_channels_t, chan14
  89:Service/../MAVLink/common/./mavlink_msg_rc_channels.h ****          { "chan15_raw", NULL, MAVLINK_TYPE_UINT16_T, 0, 32, offsetof(mavlink_rc_channels_t, chan15
  90:Service/../MAVLink/common/./mavlink_msg_rc_channels.h ****          { "chan16_raw", NULL, MAVLINK_TYPE_UINT16_T, 0, 34, offsetof(mavlink_rc_channels_t, chan16
  91:Service/../MAVLink/common/./mavlink_msg_rc_channels.h ****          { "chan17_raw", NULL, MAVLINK_TYPE_UINT16_T, 0, 36, offsetof(mavlink_rc_channels_t, chan17
  92:Service/../MAVLink/common/./mavlink_msg_rc_channels.h ****          { "chan18_raw", NULL, MAVLINK_TYPE_UINT16_T, 0, 38, offsetof(mavlink_rc_channels_t, chan18
  93:Service/../MAVLink/common/./mavlink_msg_rc_channels.h ****          { "rssi", NULL, MAVLINK_TYPE_UINT8_T, 0, 41, offsetof(mavlink_rc_channels_t, rssi) }, \
  94:Service/../MAVLink/common/./mavlink_msg_rc_channels.h ****          } \
  95:Service/../MAVLink/common/./mavlink_msg_rc_channels.h **** }
  96:Service/../MAVLink/common/./mavlink_msg_rc_channels.h **** #endif
  97:Service/../MAVLink/common/./mavlink_msg_rc_channels.h **** 
  98:Service/../MAVLink/common/./mavlink_msg_rc_channels.h **** /**
  99:Service/../MAVLink/common/./mavlink_msg_rc_channels.h ****  * @brief Pack a rc_channels message
 100:Service/../MAVLink/common/./mavlink_msg_rc_channels.h ****  * @param system_id ID of this system
 101:Service/../MAVLink/common/./mavlink_msg_rc_channels.h ****  * @param component_id ID of this component (e.g. 200 for IMU)
 102:Service/../MAVLink/common/./mavlink_msg_rc_channels.h ****  * @param msg The MAVLink message to compress the data into
 103:Service/../MAVLink/common/./mavlink_msg_rc_channels.h ****  *
 104:Service/../MAVLink/common/./mavlink_msg_rc_channels.h ****  * @param time_boot_ms [ms] Timestamp (time since system boot).
 105:Service/../MAVLink/common/./mavlink_msg_rc_channels.h ****  * @param chancount  Total number of RC channels being received. This can be larger than 18, indica
 106:Service/../MAVLink/common/./mavlink_msg_rc_channels.h ****  * @param chan1_raw [us] RC channel 1 value.
 107:Service/../MAVLink/common/./mavlink_msg_rc_channels.h ****  * @param chan2_raw [us] RC channel 2 value.
 108:Service/../MAVLink/common/./mavlink_msg_rc_channels.h ****  * @param chan3_raw [us] RC channel 3 value.
 109:Service/../MAVLink/common/./mavlink_msg_rc_channels.h ****  * @param chan4_raw [us] RC channel 4 value.
 110:Service/../MAVLink/common/./mavlink_msg_rc_channels.h ****  * @param chan5_raw [us] RC channel 5 value.
 111:Service/../MAVLink/common/./mavlink_msg_rc_channels.h ****  * @param chan6_raw [us] RC channel 6 value.
 112:Service/../MAVLink/common/./mavlink_msg_rc_channels.h ****  * @param chan7_raw [us] RC channel 7 value.
 113:Service/../MAVLink/common/./mavlink_msg_rc_channels.h ****  * @param chan8_raw [us] RC channel 8 value.
 114:Service/../MAVLink/common/./mavlink_msg_rc_channels.h ****  * @param chan9_raw [us] RC channel 9 value.
 115:Service/../MAVLink/common/./mavlink_msg_rc_channels.h ****  * @param chan10_raw [us] RC channel 10 value.
 116:Service/../MAVLink/common/./mavlink_msg_rc_channels.h ****  * @param chan11_raw [us] RC channel 11 value.
 117:Service/../MAVLink/common/./mavlink_msg_rc_channels.h ****  * @param chan12_raw [us] RC channel 12 value.
 118:Service/../MAVLink/common/./mavlink_msg_rc_channels.h ****  * @param chan13_raw [us] RC channel 13 value.
 119:Service/../MAVLink/common/./mavlink_msg_rc_channels.h ****  * @param chan14_raw [us] RC channel 14 value.
 120:Service/../MAVLink/common/./mavlink_msg_rc_channels.h ****  * @param chan15_raw [us] RC channel 15 value.
 121:Service/../MAVLink/common/./mavlink_msg_rc_channels.h ****  * @param chan16_raw [us] RC channel 16 value.
 122:Service/../MAVLink/common/./mavlink_msg_rc_channels.h ****  * @param chan17_raw [us] RC channel 17 value.
 123:Service/../MAVLink/common/./mavlink_msg_rc_channels.h ****  * @param chan18_raw [us] RC channel 18 value.
 124:Service/../MAVLink/common/./mavlink_msg_rc_channels.h ****  * @param rssi  Receive signal strength indicator in device-dependent units/scale. Values: [0-254],
 125:Service/../MAVLink/common/./mavlink_msg_rc_channels.h ****  * @return length of the message in bytes (excluding serial stream start sign)
 126:Service/../MAVLink/common/./mavlink_msg_rc_channels.h ****  */
 127:Service/../MAVLink/common/./mavlink_msg_rc_channels.h **** static inline uint16_t mavlink_msg_rc_channels_pack(uint8_t system_id, uint8_t component_id, mavlin
 128:Service/../MAVLink/common/./mavlink_msg_rc_channels.h ****                                uint32_t time_boot_ms, uint8_t chancount, uint16_t chan1_raw, uint16
 129:Service/../MAVLink/common/./mavlink_msg_rc_channels.h **** {
 130:Service/../MAVLink/common/./mavlink_msg_rc_channels.h **** #if MAVLINK_NEED_BYTE_SWAP || !MAVLINK_ALIGNED_FIELDS
 131:Service/../MAVLink/common/./mavlink_msg_rc_channels.h ****     char buf[MAVLINK_MSG_ID_RC_CHANNELS_LEN];
 132:Service/../MAVLink/common/./mavlink_msg_rc_channels.h ****     _mav_put_uint32_t(buf, 0, time_boot_ms);
 133:Service/../MAVLink/common/./mavlink_msg_rc_channels.h ****     _mav_put_uint16_t(buf, 4, chan1_raw);
 134:Service/../MAVLink/common/./mavlink_msg_rc_channels.h ****     _mav_put_uint16_t(buf, 6, chan2_raw);
ARM GAS  C:\Users\8bit\AppData\Local\Temp\ccCRhmZR.s 			page 55


 135:Service/../MAVLink/common/./mavlink_msg_rc_channels.h ****     _mav_put_uint16_t(buf, 8, chan3_raw);
 136:Service/../MAVLink/common/./mavlink_msg_rc_channels.h ****     _mav_put_uint16_t(buf, 10, chan4_raw);
 137:Service/../MAVLink/common/./mavlink_msg_rc_channels.h ****     _mav_put_uint16_t(buf, 12, chan5_raw);
 138:Service/../MAVLink/common/./mavlink_msg_rc_channels.h ****     _mav_put_uint16_t(buf, 14, chan6_raw);
 139:Service/../MAVLink/common/./mavlink_msg_rc_channels.h ****     _mav_put_uint16_t(buf, 16, chan7_raw);
 140:Service/../MAVLink/common/./mavlink_msg_rc_channels.h ****     _mav_put_uint16_t(buf, 18, chan8_raw);
 141:Service/../MAVLink/common/./mavlink_msg_rc_channels.h ****     _mav_put_uint16_t(buf, 20, chan9_raw);
 142:Service/../MAVLink/common/./mavlink_msg_rc_channels.h ****     _mav_put_uint16_t(buf, 22, chan10_raw);
 143:Service/../MAVLink/common/./mavlink_msg_rc_channels.h ****     _mav_put_uint16_t(buf, 24, chan11_raw);
 144:Service/../MAVLink/common/./mavlink_msg_rc_channels.h ****     _mav_put_uint16_t(buf, 26, chan12_raw);
 145:Service/../MAVLink/common/./mavlink_msg_rc_channels.h ****     _mav_put_uint16_t(buf, 28, chan13_raw);
 146:Service/../MAVLink/common/./mavlink_msg_rc_channels.h ****     _mav_put_uint16_t(buf, 30, chan14_raw);
 147:Service/../MAVLink/common/./mavlink_msg_rc_channels.h ****     _mav_put_uint16_t(buf, 32, chan15_raw);
 148:Service/../MAVLink/common/./mavlink_msg_rc_channels.h ****     _mav_put_uint16_t(buf, 34, chan16_raw);
 149:Service/../MAVLink/common/./mavlink_msg_rc_channels.h ****     _mav_put_uint16_t(buf, 36, chan17_raw);
 150:Service/../MAVLink/common/./mavlink_msg_rc_channels.h ****     _mav_put_uint16_t(buf, 38, chan18_raw);
 151:Service/../MAVLink/common/./mavlink_msg_rc_channels.h ****     _mav_put_uint8_t(buf, 40, chancount);
 152:Service/../MAVLink/common/./mavlink_msg_rc_channels.h ****     _mav_put_uint8_t(buf, 41, rssi);
 153:Service/../MAVLink/common/./mavlink_msg_rc_channels.h **** 
 154:Service/../MAVLink/common/./mavlink_msg_rc_channels.h ****         memcpy(_MAV_PAYLOAD_NON_CONST(msg), buf, MAVLINK_MSG_ID_RC_CHANNELS_LEN);
 155:Service/../MAVLink/common/./mavlink_msg_rc_channels.h **** #else
 156:Service/../MAVLink/common/./mavlink_msg_rc_channels.h ****     mavlink_rc_channels_t packet;
 157:Service/../MAVLink/common/./mavlink_msg_rc_channels.h ****     packet.time_boot_ms = time_boot_ms;
 158:Service/../MAVLink/common/./mavlink_msg_rc_channels.h ****     packet.chan1_raw = chan1_raw;
 159:Service/../MAVLink/common/./mavlink_msg_rc_channels.h ****     packet.chan2_raw = chan2_raw;
 160:Service/../MAVLink/common/./mavlink_msg_rc_channels.h ****     packet.chan3_raw = chan3_raw;
 161:Service/../MAVLink/common/./mavlink_msg_rc_channels.h ****     packet.chan4_raw = chan4_raw;
 162:Service/../MAVLink/common/./mavlink_msg_rc_channels.h ****     packet.chan5_raw = chan5_raw;
 163:Service/../MAVLink/common/./mavlink_msg_rc_channels.h ****     packet.chan6_raw = chan6_raw;
 164:Service/../MAVLink/common/./mavlink_msg_rc_channels.h ****     packet.chan7_raw = chan7_raw;
 165:Service/../MAVLink/common/./mavlink_msg_rc_channels.h ****     packet.chan8_raw = chan8_raw;
 166:Service/../MAVLink/common/./mavlink_msg_rc_channels.h ****     packet.chan9_raw = chan9_raw;
 167:Service/../MAVLink/common/./mavlink_msg_rc_channels.h ****     packet.chan10_raw = chan10_raw;
 168:Service/../MAVLink/common/./mavlink_msg_rc_channels.h ****     packet.chan11_raw = chan11_raw;
 169:Service/../MAVLink/common/./mavlink_msg_rc_channels.h ****     packet.chan12_raw = chan12_raw;
 170:Service/../MAVLink/common/./mavlink_msg_rc_channels.h ****     packet.chan13_raw = chan13_raw;
 171:Service/../MAVLink/common/./mavlink_msg_rc_channels.h ****     packet.chan14_raw = chan14_raw;
 172:Service/../MAVLink/common/./mavlink_msg_rc_channels.h ****     packet.chan15_raw = chan15_raw;
 173:Service/../MAVLink/common/./mavlink_msg_rc_channels.h ****     packet.chan16_raw = chan16_raw;
 174:Service/../MAVLink/common/./mavlink_msg_rc_channels.h ****     packet.chan17_raw = chan17_raw;
 175:Service/../MAVLink/common/./mavlink_msg_rc_channels.h ****     packet.chan18_raw = chan18_raw;
 176:Service/../MAVLink/common/./mavlink_msg_rc_channels.h ****     packet.chancount = chancount;
 177:Service/../MAVLink/common/./mavlink_msg_rc_channels.h ****     packet.rssi = rssi;
 178:Service/../MAVLink/common/./mavlink_msg_rc_channels.h **** 
 179:Service/../MAVLink/common/./mavlink_msg_rc_channels.h ****         memcpy(_MAV_PAYLOAD_NON_CONST(msg), &packet, MAVLINK_MSG_ID_RC_CHANNELS_LEN);
 180:Service/../MAVLink/common/./mavlink_msg_rc_channels.h **** #endif
 181:Service/../MAVLink/common/./mavlink_msg_rc_channels.h **** 
 182:Service/../MAVLink/common/./mavlink_msg_rc_channels.h ****     msg->msgid = MAVLINK_MSG_ID_RC_CHANNELS;
 183:Service/../MAVLink/common/./mavlink_msg_rc_channels.h ****     return mavlink_finalize_message(msg, system_id, component_id, MAVLINK_MSG_ID_RC_CHANNELS_MIN_LE
 184:Service/../MAVLink/common/./mavlink_msg_rc_channels.h **** }
 185:Service/../MAVLink/common/./mavlink_msg_rc_channels.h **** 
 186:Service/../MAVLink/common/./mavlink_msg_rc_channels.h **** /**
 187:Service/../MAVLink/common/./mavlink_msg_rc_channels.h ****  * @brief Pack a rc_channels message on a channel
 188:Service/../MAVLink/common/./mavlink_msg_rc_channels.h ****  * @param system_id ID of this system
 189:Service/../MAVLink/common/./mavlink_msg_rc_channels.h ****  * @param component_id ID of this component (e.g. 200 for IMU)
 190:Service/../MAVLink/common/./mavlink_msg_rc_channels.h ****  * @param chan The MAVLink channel this message will be sent over
 191:Service/../MAVLink/common/./mavlink_msg_rc_channels.h ****  * @param msg The MAVLink message to compress the data into
ARM GAS  C:\Users\8bit\AppData\Local\Temp\ccCRhmZR.s 			page 56


 192:Service/../MAVLink/common/./mavlink_msg_rc_channels.h ****  * @param time_boot_ms [ms] Timestamp (time since system boot).
 193:Service/../MAVLink/common/./mavlink_msg_rc_channels.h ****  * @param chancount  Total number of RC channels being received. This can be larger than 18, indica
 194:Service/../MAVLink/common/./mavlink_msg_rc_channels.h ****  * @param chan1_raw [us] RC channel 1 value.
 195:Service/../MAVLink/common/./mavlink_msg_rc_channels.h ****  * @param chan2_raw [us] RC channel 2 value.
 196:Service/../MAVLink/common/./mavlink_msg_rc_channels.h ****  * @param chan3_raw [us] RC channel 3 value.
 197:Service/../MAVLink/common/./mavlink_msg_rc_channels.h ****  * @param chan4_raw [us] RC channel 4 value.
 198:Service/../MAVLink/common/./mavlink_msg_rc_channels.h ****  * @param chan5_raw [us] RC channel 5 value.
 199:Service/../MAVLink/common/./mavlink_msg_rc_channels.h ****  * @param chan6_raw [us] RC channel 6 value.
 200:Service/../MAVLink/common/./mavlink_msg_rc_channels.h ****  * @param chan7_raw [us] RC channel 7 value.
 201:Service/../MAVLink/common/./mavlink_msg_rc_channels.h ****  * @param chan8_raw [us] RC channel 8 value.
 202:Service/../MAVLink/common/./mavlink_msg_rc_channels.h ****  * @param chan9_raw [us] RC channel 9 value.
 203:Service/../MAVLink/common/./mavlink_msg_rc_channels.h ****  * @param chan10_raw [us] RC channel 10 value.
 204:Service/../MAVLink/common/./mavlink_msg_rc_channels.h ****  * @param chan11_raw [us] RC channel 11 value.
 205:Service/../MAVLink/common/./mavlink_msg_rc_channels.h ****  * @param chan12_raw [us] RC channel 12 value.
 206:Service/../MAVLink/common/./mavlink_msg_rc_channels.h ****  * @param chan13_raw [us] RC channel 13 value.
 207:Service/../MAVLink/common/./mavlink_msg_rc_channels.h ****  * @param chan14_raw [us] RC channel 14 value.
 208:Service/../MAVLink/common/./mavlink_msg_rc_channels.h ****  * @param chan15_raw [us] RC channel 15 value.
 209:Service/../MAVLink/common/./mavlink_msg_rc_channels.h ****  * @param chan16_raw [us] RC channel 16 value.
 210:Service/../MAVLink/common/./mavlink_msg_rc_channels.h ****  * @param chan17_raw [us] RC channel 17 value.
 211:Service/../MAVLink/common/./mavlink_msg_rc_channels.h ****  * @param chan18_raw [us] RC channel 18 value.
 212:Service/../MAVLink/common/./mavlink_msg_rc_channels.h ****  * @param rssi  Receive signal strength indicator in device-dependent units/scale. Values: [0-254],
 213:Service/../MAVLink/common/./mavlink_msg_rc_channels.h ****  * @return length of the message in bytes (excluding serial stream start sign)
 214:Service/../MAVLink/common/./mavlink_msg_rc_channels.h ****  */
 215:Service/../MAVLink/common/./mavlink_msg_rc_channels.h **** static inline uint16_t mavlink_msg_rc_channels_pack_chan(uint8_t system_id, uint8_t component_id, u
 216:Service/../MAVLink/common/./mavlink_msg_rc_channels.h ****                                mavlink_message_t* msg,
 217:Service/../MAVLink/common/./mavlink_msg_rc_channels.h ****                                    uint32_t time_boot_ms,uint8_t chancount,uint16_t chan1_raw,uint1
 218:Service/../MAVLink/common/./mavlink_msg_rc_channels.h **** {
 219:Service/../MAVLink/common/./mavlink_msg_rc_channels.h **** #if MAVLINK_NEED_BYTE_SWAP || !MAVLINK_ALIGNED_FIELDS
 220:Service/../MAVLink/common/./mavlink_msg_rc_channels.h ****     char buf[MAVLINK_MSG_ID_RC_CHANNELS_LEN];
 221:Service/../MAVLink/common/./mavlink_msg_rc_channels.h ****     _mav_put_uint32_t(buf, 0, time_boot_ms);
 222:Service/../MAVLink/common/./mavlink_msg_rc_channels.h ****     _mav_put_uint16_t(buf, 4, chan1_raw);
 223:Service/../MAVLink/common/./mavlink_msg_rc_channels.h ****     _mav_put_uint16_t(buf, 6, chan2_raw);
 224:Service/../MAVLink/common/./mavlink_msg_rc_channels.h ****     _mav_put_uint16_t(buf, 8, chan3_raw);
 225:Service/../MAVLink/common/./mavlink_msg_rc_channels.h ****     _mav_put_uint16_t(buf, 10, chan4_raw);
 226:Service/../MAVLink/common/./mavlink_msg_rc_channels.h ****     _mav_put_uint16_t(buf, 12, chan5_raw);
 227:Service/../MAVLink/common/./mavlink_msg_rc_channels.h ****     _mav_put_uint16_t(buf, 14, chan6_raw);
 228:Service/../MAVLink/common/./mavlink_msg_rc_channels.h ****     _mav_put_uint16_t(buf, 16, chan7_raw);
 229:Service/../MAVLink/common/./mavlink_msg_rc_channels.h ****     _mav_put_uint16_t(buf, 18, chan8_raw);
 230:Service/../MAVLink/common/./mavlink_msg_rc_channels.h ****     _mav_put_uint16_t(buf, 20, chan9_raw);
 231:Service/../MAVLink/common/./mavlink_msg_rc_channels.h ****     _mav_put_uint16_t(buf, 22, chan10_raw);
 232:Service/../MAVLink/common/./mavlink_msg_rc_channels.h ****     _mav_put_uint16_t(buf, 24, chan11_raw);
 233:Service/../MAVLink/common/./mavlink_msg_rc_channels.h ****     _mav_put_uint16_t(buf, 26, chan12_raw);
 234:Service/../MAVLink/common/./mavlink_msg_rc_channels.h ****     _mav_put_uint16_t(buf, 28, chan13_raw);
 235:Service/../MAVLink/common/./mavlink_msg_rc_channels.h ****     _mav_put_uint16_t(buf, 30, chan14_raw);
 236:Service/../MAVLink/common/./mavlink_msg_rc_channels.h ****     _mav_put_uint16_t(buf, 32, chan15_raw);
 237:Service/../MAVLink/common/./mavlink_msg_rc_channels.h ****     _mav_put_uint16_t(buf, 34, chan16_raw);
 238:Service/../MAVLink/common/./mavlink_msg_rc_channels.h ****     _mav_put_uint16_t(buf, 36, chan17_raw);
 239:Service/../MAVLink/common/./mavlink_msg_rc_channels.h ****     _mav_put_uint16_t(buf, 38, chan18_raw);
 240:Service/../MAVLink/common/./mavlink_msg_rc_channels.h ****     _mav_put_uint8_t(buf, 40, chancount);
 241:Service/../MAVLink/common/./mavlink_msg_rc_channels.h ****     _mav_put_uint8_t(buf, 41, rssi);
 242:Service/../MAVLink/common/./mavlink_msg_rc_channels.h **** 
 243:Service/../MAVLink/common/./mavlink_msg_rc_channels.h ****         memcpy(_MAV_PAYLOAD_NON_CONST(msg), buf, MAVLINK_MSG_ID_RC_CHANNELS_LEN);
 244:Service/../MAVLink/common/./mavlink_msg_rc_channels.h **** #else
 245:Service/../MAVLink/common/./mavlink_msg_rc_channels.h ****     mavlink_rc_channels_t packet;
 246:Service/../MAVLink/common/./mavlink_msg_rc_channels.h ****     packet.time_boot_ms = time_boot_ms;
 247:Service/../MAVLink/common/./mavlink_msg_rc_channels.h ****     packet.chan1_raw = chan1_raw;
 248:Service/../MAVLink/common/./mavlink_msg_rc_channels.h ****     packet.chan2_raw = chan2_raw;
ARM GAS  C:\Users\8bit\AppData\Local\Temp\ccCRhmZR.s 			page 57


 249:Service/../MAVLink/common/./mavlink_msg_rc_channels.h ****     packet.chan3_raw = chan3_raw;
 250:Service/../MAVLink/common/./mavlink_msg_rc_channels.h ****     packet.chan4_raw = chan4_raw;
 251:Service/../MAVLink/common/./mavlink_msg_rc_channels.h ****     packet.chan5_raw = chan5_raw;
 252:Service/../MAVLink/common/./mavlink_msg_rc_channels.h ****     packet.chan6_raw = chan6_raw;
 253:Service/../MAVLink/common/./mavlink_msg_rc_channels.h ****     packet.chan7_raw = chan7_raw;
 254:Service/../MAVLink/common/./mavlink_msg_rc_channels.h ****     packet.chan8_raw = chan8_raw;
 255:Service/../MAVLink/common/./mavlink_msg_rc_channels.h ****     packet.chan9_raw = chan9_raw;
 256:Service/../MAVLink/common/./mavlink_msg_rc_channels.h ****     packet.chan10_raw = chan10_raw;
 257:Service/../MAVLink/common/./mavlink_msg_rc_channels.h ****     packet.chan11_raw = chan11_raw;
 258:Service/../MAVLink/common/./mavlink_msg_rc_channels.h ****     packet.chan12_raw = chan12_raw;
 259:Service/../MAVLink/common/./mavlink_msg_rc_channels.h ****     packet.chan13_raw = chan13_raw;
 260:Service/../MAVLink/common/./mavlink_msg_rc_channels.h ****     packet.chan14_raw = chan14_raw;
 261:Service/../MAVLink/common/./mavlink_msg_rc_channels.h ****     packet.chan15_raw = chan15_raw;
 262:Service/../MAVLink/common/./mavlink_msg_rc_channels.h ****     packet.chan16_raw = chan16_raw;
 263:Service/../MAVLink/common/./mavlink_msg_rc_channels.h ****     packet.chan17_raw = chan17_raw;
 264:Service/../MAVLink/common/./mavlink_msg_rc_channels.h ****     packet.chan18_raw = chan18_raw;
 265:Service/../MAVLink/common/./mavlink_msg_rc_channels.h ****     packet.chancount = chancount;
 266:Service/../MAVLink/common/./mavlink_msg_rc_channels.h ****     packet.rssi = rssi;
 267:Service/../MAVLink/common/./mavlink_msg_rc_channels.h **** 
 268:Service/../MAVLink/common/./mavlink_msg_rc_channels.h ****         memcpy(_MAV_PAYLOAD_NON_CONST(msg), &packet, MAVLINK_MSG_ID_RC_CHANNELS_LEN);
 269:Service/../MAVLink/common/./mavlink_msg_rc_channels.h **** #endif
 270:Service/../MAVLink/common/./mavlink_msg_rc_channels.h **** 
 271:Service/../MAVLink/common/./mavlink_msg_rc_channels.h ****     msg->msgid = MAVLINK_MSG_ID_RC_CHANNELS;
 272:Service/../MAVLink/common/./mavlink_msg_rc_channels.h ****     return mavlink_finalize_message_chan(msg, system_id, component_id, chan, MAVLINK_MSG_ID_RC_CHAN
 273:Service/../MAVLink/common/./mavlink_msg_rc_channels.h **** }
 274:Service/../MAVLink/common/./mavlink_msg_rc_channels.h **** 
 275:Service/../MAVLink/common/./mavlink_msg_rc_channels.h **** /**
 276:Service/../MAVLink/common/./mavlink_msg_rc_channels.h ****  * @brief Encode a rc_channels struct
 277:Service/../MAVLink/common/./mavlink_msg_rc_channels.h ****  *
 278:Service/../MAVLink/common/./mavlink_msg_rc_channels.h ****  * @param system_id ID of this system
 279:Service/../MAVLink/common/./mavlink_msg_rc_channels.h ****  * @param component_id ID of this component (e.g. 200 for IMU)
 280:Service/../MAVLink/common/./mavlink_msg_rc_channels.h ****  * @param msg The MAVLink message to compress the data into
 281:Service/../MAVLink/common/./mavlink_msg_rc_channels.h ****  * @param rc_channels C-struct to read the message contents from
 282:Service/../MAVLink/common/./mavlink_msg_rc_channels.h ****  */
 283:Service/../MAVLink/common/./mavlink_msg_rc_channels.h **** static inline uint16_t mavlink_msg_rc_channels_encode(uint8_t system_id, uint8_t component_id, mavl
 284:Service/../MAVLink/common/./mavlink_msg_rc_channels.h **** {
 285:Service/../MAVLink/common/./mavlink_msg_rc_channels.h ****     return mavlink_msg_rc_channels_pack(system_id, component_id, msg, rc_channels->time_boot_ms, rc
 286:Service/../MAVLink/common/./mavlink_msg_rc_channels.h **** }
 287:Service/../MAVLink/common/./mavlink_msg_rc_channels.h **** 
 288:Service/../MAVLink/common/./mavlink_msg_rc_channels.h **** /**
 289:Service/../MAVLink/common/./mavlink_msg_rc_channels.h ****  * @brief Encode a rc_channels struct on a channel
 290:Service/../MAVLink/common/./mavlink_msg_rc_channels.h ****  *
 291:Service/../MAVLink/common/./mavlink_msg_rc_channels.h ****  * @param system_id ID of this system
 292:Service/../MAVLink/common/./mavlink_msg_rc_channels.h ****  * @param component_id ID of this component (e.g. 200 for IMU)
 293:Service/../MAVLink/common/./mavlink_msg_rc_channels.h ****  * @param chan The MAVLink channel this message will be sent over
 294:Service/../MAVLink/common/./mavlink_msg_rc_channels.h ****  * @param msg The MAVLink message to compress the data into
 295:Service/../MAVLink/common/./mavlink_msg_rc_channels.h ****  * @param rc_channels C-struct to read the message contents from
 296:Service/../MAVLink/common/./mavlink_msg_rc_channels.h ****  */
 297:Service/../MAVLink/common/./mavlink_msg_rc_channels.h **** static inline uint16_t mavlink_msg_rc_channels_encode_chan(uint8_t system_id, uint8_t component_id,
 298:Service/../MAVLink/common/./mavlink_msg_rc_channels.h **** {
 299:Service/../MAVLink/common/./mavlink_msg_rc_channels.h ****     return mavlink_msg_rc_channels_pack_chan(system_id, component_id, chan, msg, rc_channels->time_
 300:Service/../MAVLink/common/./mavlink_msg_rc_channels.h **** }
 301:Service/../MAVLink/common/./mavlink_msg_rc_channels.h **** 
 302:Service/../MAVLink/common/./mavlink_msg_rc_channels.h **** /**
 303:Service/../MAVLink/common/./mavlink_msg_rc_channels.h ****  * @brief Send a rc_channels message
 304:Service/../MAVLink/common/./mavlink_msg_rc_channels.h ****  * @param chan MAVLink channel to send the message
 305:Service/../MAVLink/common/./mavlink_msg_rc_channels.h ****  *
ARM GAS  C:\Users\8bit\AppData\Local\Temp\ccCRhmZR.s 			page 58


 306:Service/../MAVLink/common/./mavlink_msg_rc_channels.h ****  * @param time_boot_ms [ms] Timestamp (time since system boot).
 307:Service/../MAVLink/common/./mavlink_msg_rc_channels.h ****  * @param chancount  Total number of RC channels being received. This can be larger than 18, indica
 308:Service/../MAVLink/common/./mavlink_msg_rc_channels.h ****  * @param chan1_raw [us] RC channel 1 value.
 309:Service/../MAVLink/common/./mavlink_msg_rc_channels.h ****  * @param chan2_raw [us] RC channel 2 value.
 310:Service/../MAVLink/common/./mavlink_msg_rc_channels.h ****  * @param chan3_raw [us] RC channel 3 value.
 311:Service/../MAVLink/common/./mavlink_msg_rc_channels.h ****  * @param chan4_raw [us] RC channel 4 value.
 312:Service/../MAVLink/common/./mavlink_msg_rc_channels.h ****  * @param chan5_raw [us] RC channel 5 value.
 313:Service/../MAVLink/common/./mavlink_msg_rc_channels.h ****  * @param chan6_raw [us] RC channel 6 value.
 314:Service/../MAVLink/common/./mavlink_msg_rc_channels.h ****  * @param chan7_raw [us] RC channel 7 value.
 315:Service/../MAVLink/common/./mavlink_msg_rc_channels.h ****  * @param chan8_raw [us] RC channel 8 value.
 316:Service/../MAVLink/common/./mavlink_msg_rc_channels.h ****  * @param chan9_raw [us] RC channel 9 value.
 317:Service/../MAVLink/common/./mavlink_msg_rc_channels.h ****  * @param chan10_raw [us] RC channel 10 value.
 318:Service/../MAVLink/common/./mavlink_msg_rc_channels.h ****  * @param chan11_raw [us] RC channel 11 value.
 319:Service/../MAVLink/common/./mavlink_msg_rc_channels.h ****  * @param chan12_raw [us] RC channel 12 value.
 320:Service/../MAVLink/common/./mavlink_msg_rc_channels.h ****  * @param chan13_raw [us] RC channel 13 value.
 321:Service/../MAVLink/common/./mavlink_msg_rc_channels.h ****  * @param chan14_raw [us] RC channel 14 value.
 322:Service/../MAVLink/common/./mavlink_msg_rc_channels.h ****  * @param chan15_raw [us] RC channel 15 value.
 323:Service/../MAVLink/common/./mavlink_msg_rc_channels.h ****  * @param chan16_raw [us] RC channel 16 value.
 324:Service/../MAVLink/common/./mavlink_msg_rc_channels.h ****  * @param chan17_raw [us] RC channel 17 value.
 325:Service/../MAVLink/common/./mavlink_msg_rc_channels.h ****  * @param chan18_raw [us] RC channel 18 value.
 326:Service/../MAVLink/common/./mavlink_msg_rc_channels.h ****  * @param rssi  Receive signal strength indicator in device-dependent units/scale. Values: [0-254],
 327:Service/../MAVLink/common/./mavlink_msg_rc_channels.h ****  */
 328:Service/../MAVLink/common/./mavlink_msg_rc_channels.h **** #ifdef MAVLINK_USE_CONVENIENCE_FUNCTIONS
 329:Service/../MAVLink/common/./mavlink_msg_rc_channels.h **** 
 330:Service/../MAVLink/common/./mavlink_msg_rc_channels.h **** static inline void mavlink_msg_rc_channels_send(mavlink_channel_t chan, uint32_t time_boot_ms, uint
 331:Service/../MAVLink/common/./mavlink_msg_rc_channels.h **** {
 332:Service/../MAVLink/common/./mavlink_msg_rc_channels.h **** #if MAVLINK_NEED_BYTE_SWAP || !MAVLINK_ALIGNED_FIELDS
 333:Service/../MAVLink/common/./mavlink_msg_rc_channels.h ****     char buf[MAVLINK_MSG_ID_RC_CHANNELS_LEN];
 334:Service/../MAVLink/common/./mavlink_msg_rc_channels.h ****     _mav_put_uint32_t(buf, 0, time_boot_ms);
 335:Service/../MAVLink/common/./mavlink_msg_rc_channels.h ****     _mav_put_uint16_t(buf, 4, chan1_raw);
 336:Service/../MAVLink/common/./mavlink_msg_rc_channels.h ****     _mav_put_uint16_t(buf, 6, chan2_raw);
 337:Service/../MAVLink/common/./mavlink_msg_rc_channels.h ****     _mav_put_uint16_t(buf, 8, chan3_raw);
 338:Service/../MAVLink/common/./mavlink_msg_rc_channels.h ****     _mav_put_uint16_t(buf, 10, chan4_raw);
 339:Service/../MAVLink/common/./mavlink_msg_rc_channels.h ****     _mav_put_uint16_t(buf, 12, chan5_raw);
 340:Service/../MAVLink/common/./mavlink_msg_rc_channels.h ****     _mav_put_uint16_t(buf, 14, chan6_raw);
 341:Service/../MAVLink/common/./mavlink_msg_rc_channels.h ****     _mav_put_uint16_t(buf, 16, chan7_raw);
