ARM GAS  C:\Users\8bit\AppData\Local\Temp\cclHXvfg.s 			page 1


   1              		.cpu cortex-m4
   2              		.arch armv7e-m
   3              		.fpu fpv4-sp-d16
   4              		.eabi_attribute 27, 1
   5              		.eabi_attribute 28, 1
   6              		.eabi_attribute 20, 1
   7              		.eabi_attribute 21, 1
   8              		.eabi_attribute 23, 3
   9              		.eabi_attribute 24, 1
  10              		.eabi_attribute 25, 1
  11              		.eabi_attribute 26, 1
  12              		.eabi_attribute 30, 1
  13              		.eabi_attribute 34, 1
  14              		.eabi_attribute 18, 4
  15              		.file	"Srv_BlackBox_Card.c"
  16              		.text
  17              	.Ltext0:
  18              		.cfi_sections	.debug_frame
  19              		.section	.text.SrvCard_BlackBox_Init,"ax",%progbits
  20              		.align	1
  21              		.syntax unified
  22              		.thumb
  23              		.thumb_func
  25              	SrvCard_BlackBox_Init:
  26              	.LVL0:
  27              	.LFB139:
  28              		.file 1 "Service/Srv_BlackBox_Card.c"
   1:Service/Srv_BlackBox_Card.c **** #include "Srv_BlackBox_Def.h"
   2:Service/Srv_BlackBox_Card.c **** 
   3:Service/Srv_BlackBox_Card.c **** /* external function */
   4:Service/Srv_BlackBox_Card.c **** static uint32_t SrvCard_BlackBox_Init(SrvBlackBox_Log_Callback callback, SrvBlackBox_DevInfo_TypeDe
   5:Service/Srv_BlackBox_Card.c **** static bool SrvCard_BlackBox_PushData(SrvBlackBox_write_callback p_write, uint8_t *p_data, uint32_t
   6:Service/Srv_BlackBox_Card.c **** static bool SrvCard_BlackBox_Read(SrvBlackBox_read_callback p_read, uint32_t addr_offset, uint8_t *
   7:Service/Srv_BlackBox_Card.c **** static bool SrvCard_BlackBox_GetInfo(SrvBlackBox_read_callback p_read, uint32_t *cnt, uint32_t *siz
   8:Service/Srv_BlackBox_Card.c **** static bool SrvCard_BlackBox_Enable(void);
   9:Service/Srv_BlackBox_Card.c **** static bool SrvCard_BlackBox_Disable(SrvBlackBox_write_callback p_write);
  10:Service/Srv_BlackBox_Card.c **** 
  11:Service/Srv_BlackBox_Card.c **** SrvBlackBox_TypeDef SrvCard_BlackBox = {
  12:Service/Srv_BlackBox_Card.c ****     .init = SrvCard_BlackBox_Init,
  13:Service/Srv_BlackBox_Card.c ****     .push = SrvCard_BlackBox_PushData,
  14:Service/Srv_BlackBox_Card.c ****     .read = SrvCard_BlackBox_Read,
  15:Service/Srv_BlackBox_Card.c ****     .enable = SrvCard_BlackBox_Enable,
  16:Service/Srv_BlackBox_Card.c ****     .disable = SrvCard_BlackBox_Disable,
  17:Service/Srv_BlackBox_Card.c ****     .get_info = SrvCard_BlackBox_GetInfo,
  18:Service/Srv_BlackBox_Card.c **** };
  19:Service/Srv_BlackBox_Card.c **** 
  20:Service/Srv_BlackBox_Card.c **** static uint32_t SrvCard_BlackBox_Init(SrvBlackBox_Log_Callback callback, SrvBlackBox_DevInfo_TypeDe
  21:Service/Srv_BlackBox_Card.c **** {
  29              		.loc 1 21 1 view -0
  30              		.cfi_startproc
  31              		@ args = 20, pretend = 16, frame = 0
  32              		@ frame_needed = 0, uses_anonymous_args = 0
  33              		@ link register save eliminated.
  34              		.loc 1 21 1 is_stmt 0 view .LVU1
  35 0000 84B0     		sub	sp, sp, #16
  36              	.LCFI0:
  37              		.cfi_def_cfa_offset 16
ARM GAS  C:\Users\8bit\AppData\Local\Temp\cclHXvfg.s 			page 2


  38 0002 01A8     		add	r0, sp, #4
  39 0004 80E80E00 		stm	r0, {r1, r2, r3}
  22:Service/Srv_BlackBox_Card.c ****     return 0;
  40              		.loc 1 22 5 is_stmt 1 view .LVU2
  23:Service/Srv_BlackBox_Card.c **** }
  41              		.loc 1 23 1 is_stmt 0 view .LVU3
  42 0008 0020     		movs	r0, #0
  43              	.LVL1:
  44              		.loc 1 23 1 view .LVU4
  45 000a 04B0     		add	sp, sp, #16
  46              	.LCFI1:
  47              		.cfi_def_cfa_offset 0
  48 000c 7047     		bx	lr
  49              		.cfi_endproc
  50              	.LFE139:
  52              		.section	.text.SrvCard_BlackBox_PushData,"ax",%progbits
  53              		.align	1
  54              		.syntax unified
  55              		.thumb
  56              		.thumb_func
  58              	SrvCard_BlackBox_PushData:
  59              	.LVL2:
  60              	.LFB140:
  24:Service/Srv_BlackBox_Card.c **** 
  25:Service/Srv_BlackBox_Card.c **** static bool SrvCard_BlackBox_PushData(SrvBlackBox_write_callback p_write, uint8_t *p_data, uint32_t
  26:Service/Srv_BlackBox_Card.c **** {
  61              		.loc 1 26 1 is_stmt 1 view -0
  62              		.cfi_startproc
  63              		@ args = 0, pretend = 0, frame = 0
  64              		@ frame_needed = 0, uses_anonymous_args = 0
  65              		@ link register save eliminated.
  27:Service/Srv_BlackBox_Card.c ****     return false;
  66              		.loc 1 27 5 view .LVU6
  28:Service/Srv_BlackBox_Card.c **** }
  67              		.loc 1 28 1 is_stmt 0 view .LVU7
  68 0000 0020     		movs	r0, #0
  69              	.LVL3:
  70              		.loc 1 28 1 view .LVU8
  71 0002 7047     		bx	lr
  72              		.cfi_endproc
  73              	.LFE140:
  75              		.section	.text.SrvCard_BlackBox_Read,"ax",%progbits
  76              		.align	1
  77              		.syntax unified
  78              		.thumb
  79              		.thumb_func
  81              	SrvCard_BlackBox_Read:
  82              	.LVL4:
  83              	.LFB141:
  29:Service/Srv_BlackBox_Card.c **** 
  30:Service/Srv_BlackBox_Card.c **** static bool SrvCard_BlackBox_Read(SrvBlackBox_read_callback p_read, uint32_t addr_offset, uint8_t *
  31:Service/Srv_BlackBox_Card.c **** {
  84              		.loc 1 31 1 is_stmt 1 view -0
  85              		.cfi_startproc
  86              		@ args = 0, pretend = 0, frame = 0
  87              		@ frame_needed = 0, uses_anonymous_args = 0
  88              		@ link register save eliminated.
ARM GAS  C:\Users\8bit\AppData\Local\Temp\cclHXvfg.s 			page 3


  32:Service/Srv_BlackBox_Card.c ****     return false;
  89              		.loc 1 32 5 view .LVU10
  33:Service/Srv_BlackBox_Card.c **** }
  90              		.loc 1 33 1 is_stmt 0 view .LVU11
  91 0000 0020     		movs	r0, #0
  92              	.LVL5:
  93              		.loc 1 33 1 view .LVU12
  94 0002 7047     		bx	lr
  95              		.cfi_endproc
  96              	.LFE141:
  98              		.section	.text.SrvCard_BlackBox_Enable,"ax",%progbits
  99              		.align	1
 100              		.syntax unified
 101              		.thumb
 102              		.thumb_func
 104              	SrvCard_BlackBox_Enable:
 105              	.LFB142:
  34:Service/Srv_BlackBox_Card.c **** 
  35:Service/Srv_BlackBox_Card.c **** static bool SrvCard_BlackBox_Enable(void)
  36:Service/Srv_BlackBox_Card.c **** {
 106              		.loc 1 36 1 is_stmt 1 view -0
 107              		.cfi_startproc
 108              		@ args = 0, pretend = 0, frame = 0
 109              		@ frame_needed = 0, uses_anonymous_args = 0
 110              		@ link register save eliminated.
  37:Service/Srv_BlackBox_Card.c ****     return false;
 111              		.loc 1 37 5 view .LVU14
  38:Service/Srv_BlackBox_Card.c **** }
 112              		.loc 1 38 1 is_stmt 0 view .LVU15
 113 0000 0020     		movs	r0, #0
 114 0002 7047     		bx	lr
 115              		.cfi_endproc
 116              	.LFE142:
 118              		.section	.text.SrvCard_BlackBox_Disable,"ax",%progbits
 119              		.align	1
 120              		.syntax unified
 121              		.thumb
 122              		.thumb_func
 124              	SrvCard_BlackBox_Disable:
 125              	.LVL6:
 126              	.LFB143:
  39:Service/Srv_BlackBox_Card.c **** 
  40:Service/Srv_BlackBox_Card.c **** static bool SrvCard_BlackBox_Disable(SrvBlackBox_write_callback p_write)
  41:Service/Srv_BlackBox_Card.c **** {
 127              		.loc 1 41 1 is_stmt 1 view -0
 128              		.cfi_startproc
 129              		@ args = 0, pretend = 0, frame = 0
 130              		@ frame_needed = 0, uses_anonymous_args = 0
 131              		@ link register save eliminated.
  42:Service/Srv_BlackBox_Card.c ****     return false;
 132              		.loc 1 42 5 view .LVU17
  43:Service/Srv_BlackBox_Card.c **** }
 133              		.loc 1 43 1 is_stmt 0 view .LVU18
 134 0000 0020     		movs	r0, #0
 135              	.LVL7:
 136              		.loc 1 43 1 view .LVU19
 137 0002 7047     		bx	lr
ARM GAS  C:\Users\8bit\AppData\Local\Temp\cclHXvfg.s 			page 4


 138              		.cfi_endproc
 139              	.LFE143:
 141              		.section	.text.SrvCard_BlackBox_GetInfo,"ax",%progbits
 142              		.align	1
 143              		.syntax unified
 144              		.thumb
 145              		.thumb_func
 147              	SrvCard_BlackBox_GetInfo:
 148              	.LVL8:
 149              	.LFB144:
  44:Service/Srv_BlackBox_Card.c **** 
  45:Service/Srv_BlackBox_Card.c **** static bool SrvCard_BlackBox_GetInfo(SrvBlackBox_read_callback p_read, uint32_t *cnt, uint32_t *siz
  46:Service/Srv_BlackBox_Card.c **** {
 150              		.loc 1 46 1 is_stmt 1 view -0
 151              		.cfi_startproc
 152              		@ args = 0, pretend = 0, frame = 0
 153              		@ frame_needed = 0, uses_anonymous_args = 0
 154              		@ link register save eliminated.
  47:Service/Srv_BlackBox_Card.c ****     if (cnt && size && enable_state)
 155              		.loc 1 47 5 view .LVU21
 156              		.loc 1 47 8 is_stmt 0 view .LVU22
 157 0000 0846     		mov	r0, r1
 158              	.LVL9:
 159              		.loc 1 47 8 view .LVU23
 160 0002 29B1     		cbz	r1, .L8
 161              		.loc 1 47 13 discriminator 1 view .LVU24
 162 0004 22B1     		cbz	r2, .L8
 163              		.loc 1 47 21 discriminator 2 view .LVU25
 164 0006 1BB1     		cbz	r3, .L8
  48:Service/Srv_BlackBox_Card.c ****     {
  49:Service/Srv_BlackBox_Card.c ****         *cnt = 0;
 165              		.loc 1 49 9 is_stmt 1 view .LVU26
 166              		.loc 1 49 14 is_stmt 0 view .LVU27
 167 0008 0021     		movs	r1, #0
 168              	.LVL10:
 169              		.loc 1 49 14 view .LVU28
 170 000a 0160     		str	r1, [r0]
  50:Service/Srv_BlackBox_Card.c ****         *size = 0;
 171              		.loc 1 50 9 is_stmt 1 view .LVU29
 172              		.loc 1 50 15 is_stmt 0 view .LVU30
 173 000c 1160     		str	r1, [r2]
  51:Service/Srv_BlackBox_Card.c ****         *enable_state = 0;
 174              		.loc 1 51 9 is_stmt 1 view .LVU31
 175              		.loc 1 51 23 is_stmt 0 view .LVU32
 176 000e 1970     		strb	r1, [r3]
 177              	.L8:
  52:Service/Srv_BlackBox_Card.c ****     }
  53:Service/Srv_BlackBox_Card.c **** 
  54:Service/Srv_BlackBox_Card.c ****     return false;
 178              		.loc 1 54 5 is_stmt 1 view .LVU33
  55:Service/Srv_BlackBox_Card.c **** }
 179              		.loc 1 55 1 is_stmt 0 view .LVU34
 180 0010 0020     		movs	r0, #0
 181              	.LVL11:
 182              		.loc 1 55 1 view .LVU35
 183 0012 7047     		bx	lr
 184              		.cfi_endproc
ARM GAS  C:\Users\8bit\AppData\Local\Temp\cclHXvfg.s 			page 5


 185              	.LFE144:
 187              		.global	SrvCard_BlackBox
 188              		.section	.data.SrvCard_BlackBox,"aw"
 189              		.align	2
 192              	SrvCard_BlackBox:
 193 0000 00000000 		.word	SrvCard_BlackBox_Init
 194 0004 00000000 		.word	SrvCard_BlackBox_Enable
 195 0008 00000000 		.word	SrvCard_BlackBox_Disable
 196 000c 00000000 		.word	SrvCard_BlackBox_PushData
 197 0010 00000000 		.word	SrvCard_BlackBox_Read
 198 0014 00000000 		.word	SrvCard_BlackBox_GetInfo
 199              		.text
 200              	.Letext0:
 201              		.file 2 "c:\\program files (x86)\\gnu arm embedded toolchain\\10 2021.10\\arm-none-eabi\\include\\
 202              		.file 3 "c:\\program files (x86)\\gnu arm embedded toolchain\\10 2021.10\\arm-none-eabi\\include\\
 203              		.file 4 "HW_Lib/AT32F435/drivers/inc/at32f435_437_tmr.h"
 204              		.file 5 "common/Error_Log/../../common/gen_physic_def/imu_data.h"
 205              		.file 6 "Service/Srv_BlackBox_Def.h"
 206              		.file 7 "System/FreeRTOS/FreeRTOSConfig.h"
ARM GAS  C:\Users\8bit\AppData\Local\Temp\cclHXvfg.s 			page 6


DEFINED SYMBOLS
                            *ABS*:00000000 Srv_BlackBox_Card.c
C:\Users\8bit\AppData\Local\Temp\cclHXvfg.s:20     .text.SrvCard_BlackBox_Init:00000000 $t
C:\Users\8bit\AppData\Local\Temp\cclHXvfg.s:25     .text.SrvCard_BlackBox_Init:00000000 SrvCard_BlackBox_Init
C:\Users\8bit\AppData\Local\Temp\cclHXvfg.s:53     .text.SrvCard_BlackBox_PushData:00000000 $t
C:\Users\8bit\AppData\Local\Temp\cclHXvfg.s:58     .text.SrvCard_BlackBox_PushData:00000000 SrvCard_BlackBox_PushData
C:\Users\8bit\AppData\Local\Temp\cclHXvfg.s:76     .text.SrvCard_BlackBox_Read:00000000 $t
C:\Users\8bit\AppData\Local\Temp\cclHXvfg.s:81     .text.SrvCard_BlackBox_Read:00000000 SrvCard_BlackBox_Read
C:\Users\8bit\AppData\Local\Temp\cclHXvfg.s:99     .text.SrvCard_BlackBox_Enable:00000000 $t
C:\Users\8bit\AppData\Local\Temp\cclHXvfg.s:104    .text.SrvCard_BlackBox_Enable:00000000 SrvCard_BlackBox_Enable
C:\Users\8bit\AppData\Local\Temp\cclHXvfg.s:119    .text.SrvCard_BlackBox_Disable:00000000 $t
C:\Users\8bit\AppData\Local\Temp\cclHXvfg.s:124    .text.SrvCard_BlackBox_Disable:00000000 SrvCard_BlackBox_Disable
C:\Users\8bit\AppData\Local\Temp\cclHXvfg.s:142    .text.SrvCard_BlackBox_GetInfo:00000000 $t
C:\Users\8bit\AppData\Local\Temp\cclHXvfg.s:147    .text.SrvCard_BlackBox_GetInfo:00000000 SrvCard_BlackBox_GetInfo
C:\Users\8bit\AppData\Local\Temp\cclHXvfg.s:192    .data.SrvCard_BlackBox:00000000 SrvCard_BlackBox
C:\Users\8bit\AppData\Local\Temp\cclHXvfg.s:189    .data.SrvCard_BlackBox:00000000 $d

NO UNDEFINED SYMBOLS
