ARM GAS  C:\Users\8bit\AppData\Local\Temp\ccUsvS0a.s 			page 1


   1              		.cpu cortex-m4
   2              		.arch armv7e-m
   3              		.fpu fpv4-sp-d16
   4              		.eabi_attribute 27, 1
   5              		.eabi_attribute 28, 1
   6              		.eabi_attribute 20, 1
   7              		.eabi_attribute 21, 1
   8              		.eabi_attribute 23, 3
   9              		.eabi_attribute 24, 1
  10              		.eabi_attribute 25, 1
  11              		.eabi_attribute 26, 1
  12              		.eabi_attribute 30, 1
  13              		.eabi_attribute 34, 1
  14              		.eabi_attribute 18, 4
  15              		.file	"Srv_BlackBox_Card.c"
  16              		.text
  17              	.Ltext0:
  18              		.cfi_sections	.debug_frame
  19              		.section	.text.SrvCard_BlackBox_Init,"ax",%progbits
  20              		.align	1
  21              		.syntax unified
  22              		.thumb
  23              		.thumb_func
  25              	SrvCard_BlackBox_Init:
  26              	.LVL0:
  27              	.LFB139:
  28              		.file 1 "Service/Srv_BlackBox_Card.c"
   1:Service/Srv_BlackBox_Card.c **** #include "Srv_BlackBox_Def.h"
   2:Service/Srv_BlackBox_Card.c **** 
   3:Service/Srv_BlackBox_Card.c **** /* external function */
   4:Service/Srv_BlackBox_Card.c **** static uint32_t SrvCard_BlackBox_Init(SrvBlackBox_Log_Callback callback);
   5:Service/Srv_BlackBox_Card.c **** static bool SrvCard_BlackBox_PushData(uint8_t *p_data, uint16_t len);
   6:Service/Srv_BlackBox_Card.c **** static bool SrvCard_BlackBox_Read(uint32_t addr_offset, uint8_t *p_data, uint16_t len);
   7:Service/Srv_BlackBox_Card.c **** static bool SrvCard_BlackBox_GetInfo(uint32_t *cnt, uint32_t *size, bool *enable_state);
   8:Service/Srv_BlackBox_Card.c **** static bool SrvCard_BlackBox_Enable(void);
   9:Service/Srv_BlackBox_Card.c **** static bool SrvCard_BlackBox_Disable(void);
  10:Service/Srv_BlackBox_Card.c **** 
  11:Service/Srv_BlackBox_Card.c **** SrvBlackBox_TypeDef SrvCard_BlackBox = {
  12:Service/Srv_BlackBox_Card.c ****     .init = SrvCard_BlackBox_Init,
  13:Service/Srv_BlackBox_Card.c ****     .push = SrvCard_BlackBox_PushData,
  14:Service/Srv_BlackBox_Card.c ****     .read = SrvCard_BlackBox_Read,
  15:Service/Srv_BlackBox_Card.c ****     .enable = SrvCard_BlackBox_Enable,
  16:Service/Srv_BlackBox_Card.c ****     .disable = SrvCard_BlackBox_Disable,
  17:Service/Srv_BlackBox_Card.c ****     .get_info = SrvCard_BlackBox_GetInfo,
  18:Service/Srv_BlackBox_Card.c **** };
  19:Service/Srv_BlackBox_Card.c **** 
  20:Service/Srv_BlackBox_Card.c **** static uint32_t SrvCard_BlackBox_Init(SrvBlackBox_Log_Callback callback)
  21:Service/Srv_BlackBox_Card.c **** {
  29              		.loc 1 21 1 view -0
  30              		.cfi_startproc
  31              		@ args = 0, pretend = 0, frame = 0
  32              		@ frame_needed = 0, uses_anonymous_args = 0
  33              		@ link register save eliminated.
  22:Service/Srv_BlackBox_Card.c ****     return 0;
  34              		.loc 1 22 5 view .LVU1
  23:Service/Srv_BlackBox_Card.c **** }
  35              		.loc 1 23 1 is_stmt 0 view .LVU2
ARM GAS  C:\Users\8bit\AppData\Local\Temp\ccUsvS0a.s 			page 2


  36 0000 0020     		movs	r0, #0
  37              	.LVL1:
  38              		.loc 1 23 1 view .LVU3
  39 0002 7047     		bx	lr
  40              		.cfi_endproc
  41              	.LFE139:
  43              		.section	.text.SrvCard_BlackBox_PushData,"ax",%progbits
  44              		.align	1
  45              		.syntax unified
  46              		.thumb
  47              		.thumb_func
  49              	SrvCard_BlackBox_PushData:
  50              	.LVL2:
  51              	.LFB140:
  24:Service/Srv_BlackBox_Card.c **** 
  25:Service/Srv_BlackBox_Card.c **** static bool SrvCard_BlackBox_PushData(uint8_t *p_data, uint16_t len)
  26:Service/Srv_BlackBox_Card.c **** {
  52              		.loc 1 26 1 is_stmt 1 view -0
  53              		.cfi_startproc
  54              		@ args = 0, pretend = 0, frame = 0
  55              		@ frame_needed = 0, uses_anonymous_args = 0
  56              		@ link register save eliminated.
  27:Service/Srv_BlackBox_Card.c ****     return false;
  57              		.loc 1 27 5 view .LVU5
  28:Service/Srv_BlackBox_Card.c **** }
  58              		.loc 1 28 1 is_stmt 0 view .LVU6
  59 0000 0020     		movs	r0, #0
  60              	.LVL3:
  61              		.loc 1 28 1 view .LVU7
  62 0002 7047     		bx	lr
  63              		.cfi_endproc
  64              	.LFE140:
  66              		.section	.text.SrvCard_BlackBox_Read,"ax",%progbits
  67              		.align	1
  68              		.syntax unified
  69              		.thumb
  70              		.thumb_func
  72              	SrvCard_BlackBox_Read:
  73              	.LVL4:
  74              	.LFB141:
  29:Service/Srv_BlackBox_Card.c **** 
  30:Service/Srv_BlackBox_Card.c **** static bool SrvCard_BlackBox_Read(uint32_t addr_offset, uint8_t *p_data, uint16_t len)
  31:Service/Srv_BlackBox_Card.c **** {
  75              		.loc 1 31 1 is_stmt 1 view -0
  76              		.cfi_startproc
  77              		@ args = 0, pretend = 0, frame = 0
  78              		@ frame_needed = 0, uses_anonymous_args = 0
  79              		@ link register save eliminated.
  32:Service/Srv_BlackBox_Card.c ****     return false;
  80              		.loc 1 32 5 view .LVU9
  33:Service/Srv_BlackBox_Card.c **** }
  81              		.loc 1 33 1 is_stmt 0 view .LVU10
  82 0000 0020     		movs	r0, #0
  83              	.LVL5:
  84              		.loc 1 33 1 view .LVU11
  85 0002 7047     		bx	lr
  86              		.cfi_endproc
ARM GAS  C:\Users\8bit\AppData\Local\Temp\ccUsvS0a.s 			page 3


  87              	.LFE141:
  89              		.section	.text.SrvCard_BlackBox_Enable,"ax",%progbits
  90              		.align	1
  91              		.syntax unified
  92              		.thumb
  93              		.thumb_func
  95              	SrvCard_BlackBox_Enable:
  96              	.LFB142:
  34:Service/Srv_BlackBox_Card.c **** 
  35:Service/Srv_BlackBox_Card.c **** static bool SrvCard_BlackBox_Enable(void)
  36:Service/Srv_BlackBox_Card.c **** {
  97              		.loc 1 36 1 is_stmt 1 view -0
  98              		.cfi_startproc
  99              		@ args = 0, pretend = 0, frame = 0
 100              		@ frame_needed = 0, uses_anonymous_args = 0
 101              		@ link register save eliminated.
  37:Service/Srv_BlackBox_Card.c ****     return false;
 102              		.loc 1 37 5 view .LVU13
  38:Service/Srv_BlackBox_Card.c **** }
 103              		.loc 1 38 1 is_stmt 0 view .LVU14
 104 0000 0020     		movs	r0, #0
 105 0002 7047     		bx	lr
 106              		.cfi_endproc
 107              	.LFE142:
 109              		.section	.text.SrvCard_BlackBox_Disable,"ax",%progbits
 110              		.align	1
 111              		.syntax unified
 112              		.thumb
 113              		.thumb_func
 115              	SrvCard_BlackBox_Disable:
 116              	.LFB143:
  39:Service/Srv_BlackBox_Card.c **** 
  40:Service/Srv_BlackBox_Card.c **** static bool SrvCard_BlackBox_Disable(void)
  41:Service/Srv_BlackBox_Card.c **** {
 117              		.loc 1 41 1 is_stmt 1 view -0
 118              		.cfi_startproc
 119              		@ args = 0, pretend = 0, frame = 0
 120              		@ frame_needed = 0, uses_anonymous_args = 0
 121              		@ link register save eliminated.
  42:Service/Srv_BlackBox_Card.c ****     return false;
 122              		.loc 1 42 5 view .LVU16
  43:Service/Srv_BlackBox_Card.c **** }
 123              		.loc 1 43 1 is_stmt 0 view .LVU17
 124 0000 0020     		movs	r0, #0
 125 0002 7047     		bx	lr
 126              		.cfi_endproc
 127              	.LFE143:
 129              		.section	.text.SrvCard_BlackBox_GetInfo,"ax",%progbits
 130              		.align	1
 131              		.syntax unified
 132              		.thumb
 133              		.thumb_func
 135              	SrvCard_BlackBox_GetInfo:
 136              	.LVL6:
 137              	.LFB144:
  44:Service/Srv_BlackBox_Card.c **** 
  45:Service/Srv_BlackBox_Card.c **** static bool SrvCard_BlackBox_GetInfo(uint32_t *cnt, uint32_t *size, bool *enable_state)
ARM GAS  C:\Users\8bit\AppData\Local\Temp\ccUsvS0a.s 			page 4


  46:Service/Srv_BlackBox_Card.c **** {
 138              		.loc 1 46 1 is_stmt 1 view -0
 139              		.cfi_startproc
 140              		@ args = 0, pretend = 0, frame = 0
 141              		@ frame_needed = 0, uses_anonymous_args = 0
 142              		@ link register save eliminated.
  47:Service/Srv_BlackBox_Card.c ****     if (cnt && size && enable_state)
 143              		.loc 1 47 5 view .LVU19
 144              		.loc 1 47 8 is_stmt 0 view .LVU20
 145 0000 28B1     		cbz	r0, .L7
 146              		.loc 1 47 13 discriminator 1 view .LVU21
 147 0002 21B1     		cbz	r1, .L7
 148              		.loc 1 47 21 discriminator 2 view .LVU22
 149 0004 1AB1     		cbz	r2, .L7
  48:Service/Srv_BlackBox_Card.c ****     {
  49:Service/Srv_BlackBox_Card.c ****         *cnt = 0;
 150              		.loc 1 49 9 is_stmt 1 view .LVU23
 151              		.loc 1 49 14 is_stmt 0 view .LVU24
 152 0006 0023     		movs	r3, #0
 153 0008 0360     		str	r3, [r0]
  50:Service/Srv_BlackBox_Card.c ****         *size = 0;
 154              		.loc 1 50 9 is_stmt 1 view .LVU25
 155              		.loc 1 50 15 is_stmt 0 view .LVU26
 156 000a 0B60     		str	r3, [r1]
  51:Service/Srv_BlackBox_Card.c ****         *enable_state = 0;
 157              		.loc 1 51 9 is_stmt 1 view .LVU27
 158              		.loc 1 51 23 is_stmt 0 view .LVU28
 159 000c 1370     		strb	r3, [r2]
 160              	.L7:
  52:Service/Srv_BlackBox_Card.c ****     }
  53:Service/Srv_BlackBox_Card.c **** 
  54:Service/Srv_BlackBox_Card.c ****     return false;
 161              		.loc 1 54 5 is_stmt 1 view .LVU29
  55:Service/Srv_BlackBox_Card.c **** }
 162              		.loc 1 55 1 is_stmt 0 view .LVU30
 163 000e 0020     		movs	r0, #0
 164              	.LVL7:
 165              		.loc 1 55 1 view .LVU31
 166 0010 7047     		bx	lr
 167              		.cfi_endproc
 168              	.LFE144:
 170              		.global	SrvCard_BlackBox
 171              		.section	.data.SrvCard_BlackBox,"aw"
 172              		.align	2
 175              	SrvCard_BlackBox:
 176 0000 00000000 		.word	SrvCard_BlackBox_Init
 177 0004 00000000 		.word	SrvCard_BlackBox_Enable
 178 0008 00000000 		.word	SrvCard_BlackBox_Disable
 179 000c 00000000 		.word	SrvCard_BlackBox_PushData
 180 0010 00000000 		.word	SrvCard_BlackBox_Read
 181 0014 00000000 		.word	SrvCard_BlackBox_GetInfo
 182              		.text
 183              	.Letext0:
 184              		.file 2 "c:\\program files (x86)\\gnu arm embedded toolchain\\10 2021.10\\arm-none-eabi\\include\\
 185              		.file 3 "c:\\program files (x86)\\gnu arm embedded toolchain\\10 2021.10\\arm-none-eabi\\include\\
 186              		.file 4 "HW_Lib/AT32F435/drivers/inc/at32f435_437_tmr.h"
 187              		.file 5 "common/Error_Log/../../common/gen_physic_def/imu_data.h"
ARM GAS  C:\Users\8bit\AppData\Local\Temp\ccUsvS0a.s 			page 5


 188              		.file 6 "Service/Srv_BlackBox_Def.h"
 189              		.file 7 "System/FreeRTOS/FreeRTOSConfig.h"
ARM GAS  C:\Users\8bit\AppData\Local\Temp\ccUsvS0a.s 			page 6

