ARM GAS  C:\Users\HUAV\AppData\Local\Temp\ccMGKi0w.s 			page 1


   1              		.cpu cortex-m7
   2              		.eabi_attribute 28, 1
   3              		.eabi_attribute 20, 1
   4              		.eabi_attribute 21, 1
   5              		.eabi_attribute 23, 3
   6              		.eabi_attribute 24, 1
   7              		.eabi_attribute 25, 1
   8              		.eabi_attribute 26, 1
   9              		.eabi_attribute 30, 1
  10              		.eabi_attribute 34, 1
  11              		.eabi_attribute 18, 4
  12              		.file	"Srv_Receiver.c"
  13              		.text
  14              	.Ltext0:
  15              		.cfi_sections	.debug_frame
  16              		.section	.text.SrvReceiver_Create_SPIObj,"ax",%progbits
  17              		.align	1
  18              		.arch armv7e-m
  19              		.syntax unified
  20              		.thumb
  21              		.thumb_func
  22              		.fpu fpv5-d16
  24              	SrvReceiver_Create_SPIObj:
  25              	.LFB148:
  26              		.file 1 "Service/Srv_Receiver.c"
   1:Service/Srv_Receiver.c **** #include "Srv_Receiver.h"
   2:Service/Srv_Receiver.c **** #include "Bsp_Uart.h"
   3:Service/Srv_Receiver.c **** #include "Bsp_SPI.h"
   4:Service/Srv_Receiver.c **** #include "Bsp_GPIO.h"
   5:Service/Srv_Receiver.c **** #include "error_log.h"
   6:Service/Srv_Receiver.c **** #include "IO_Definition.h"
   7:Service/Srv_Receiver.c **** #include "runtime.h"
   8:Service/Srv_Receiver.c **** #include "mmu.h"
   9:Service/Srv_Receiver.c **** 
  10:Service/Srv_Receiver.c **** static uint8_t SrvReceiver_Buff[SRV_RECEIVER_BUFF_SIZE] __attribute__((section(".Perph_Section")));
  11:Service/Srv_Receiver.c **** 
  12:Service/Srv_Receiver.c **** static Error_Handler SrvReceiver_Error_Handle = NULL;
  13:Service/Srv_Receiver.c **** static SrvReceiver_Monitor_TypeDef SrvReceiver_Monitor;
  14:Service/Srv_Receiver.c **** 
  15:Service/Srv_Receiver.c **** /* internal function */
  16:Service/Srv_Receiver.c **** static void SrvReceiver_SerialDecode_Callback(SrvReceiverObj_TypeDef *obj, uint8_t *p_data, uint16_
  17:Service/Srv_Receiver.c **** static bool SrvReceiver_Check(SrvReceiverObj_TypeDef *receiver_obj);
  18:Service/Srv_Receiver.c **** static void SrvReceiver_Set_Invert(SrvReceiverObj_TypeDef *receiver_obj, uint16_t channel_index);
  19:Service/Srv_Receiver.c **** 
  20:Service/Srv_Receiver.c **** /* external function */
  21:Service/Srv_Receiver.c **** static uint8_t *SrvReceiver_Create_UartObj(uint32_t serial_instance,
  22:Service/Srv_Receiver.c ****                                            uint32_t rx_dma,
  23:Service/Srv_Receiver.c ****                                            uint32_t rx_dma_stream,
  24:Service/Srv_Receiver.c ****                                            uint32_t tx_dma,
  25:Service/Srv_Receiver.c ****                                            uint32_t tx_dma_stream,
  26:Service/Srv_Receiver.c ****                                            bool swap,
  27:Service/Srv_Receiver.c ****                                            const BspGPIO_Obj_TypeDef tx_pin,
  28:Service/Srv_Receiver.c ****                                            const BspGPIO_Obj_TypeDef rx_pin);
  29:Service/Srv_Receiver.c **** static uint8_t *SrvReceiver_Create_SPIObj(void);
  30:Service/Srv_Receiver.c **** static bool SrvReceiver_Init(SrvReceiverObj_TypeDef *obj, uint8_t *port_obj);
  31:Service/Srv_Receiver.c **** static SrvReceiverData_TypeDef SrvReceiver_Get_Value(SrvReceiverObj_TypeDef *receiver_obj);
  32:Service/Srv_Receiver.c **** 
ARM GAS  C:\Users\HUAV\AppData\Local\Temp\ccMGKi0w.s 			page 2


  33:Service/Srv_Receiver.c **** SrvReceiver_TypeDef SrvReceiver = {
  34:Service/Srv_Receiver.c ****     .create_serial_obj = SrvReceiver_Create_UartObj,
  35:Service/Srv_Receiver.c ****     .create_spi_obj = SrvReceiver_Create_SPIObj,
  36:Service/Srv_Receiver.c ****     .init = SrvReceiver_Init,
  37:Service/Srv_Receiver.c ****     .get = SrvReceiver_Get_Value,
  38:Service/Srv_Receiver.c ****     .invert = SrvReceiver_Set_Invert,
  39:Service/Srv_Receiver.c **** };
  40:Service/Srv_Receiver.c **** 
  41:Service/Srv_Receiver.c **** static Error_Obj_Typedef SrvReceiver_ErrorList[] = {
  42:Service/Srv_Receiver.c ****     {
  43:Service/Srv_Receiver.c ****         .out = false,
  44:Service/Srv_Receiver.c ****         .log = false,
  45:Service/Srv_Receiver.c ****         .prc_callback = NULL,
  46:Service/Srv_Receiver.c ****         .code = Receiver_Obj_Error,
  47:Service/Srv_Receiver.c ****         .desc = "Receiver Object Input Error\r\n",
  48:Service/Srv_Receiver.c ****         .proc_type = Error_Proc_Ignore,
  49:Service/Srv_Receiver.c ****         .prc_data_stream = {
  50:Service/Srv_Receiver.c ****             .p_data = NULL,
  51:Service/Srv_Receiver.c ****             .size = 0,
  52:Service/Srv_Receiver.c ****         },
  53:Service/Srv_Receiver.c ****     },
  54:Service/Srv_Receiver.c ****     {
  55:Service/Srv_Receiver.c ****         .out = false,
  56:Service/Srv_Receiver.c ****         .log = false,
  57:Service/Srv_Receiver.c ****         .prc_callback = NULL,
  58:Service/Srv_Receiver.c ****         .code = Receiver_Port_Error,
  59:Service/Srv_Receiver.c ****         .desc = "Receiver Port Error\r\n",
  60:Service/Srv_Receiver.c ****         .proc_type = Error_Proc_Ignore,
  61:Service/Srv_Receiver.c ****         .prc_data_stream = {
  62:Service/Srv_Receiver.c ****             .p_data = NULL,
  63:Service/Srv_Receiver.c ****             .size = 0,
  64:Service/Srv_Receiver.c ****         },
  65:Service/Srv_Receiver.c ****     },
  66:Service/Srv_Receiver.c ****     {
  67:Service/Srv_Receiver.c ****         .out = false,
  68:Service/Srv_Receiver.c ****         .log = false,
  69:Service/Srv_Receiver.c ****         .prc_callback = NULL,
  70:Service/Srv_Receiver.c ****         .code = Receiver_Port_Init_Error,
  71:Service/Srv_Receiver.c ****         .desc = "Receiver Port Init Error\r\n",
  72:Service/Srv_Receiver.c ****         .proc_type = Error_Proc_Ignore,
  73:Service/Srv_Receiver.c ****         .prc_data_stream = {
  74:Service/Srv_Receiver.c ****             .p_data = NULL,
  75:Service/Srv_Receiver.c ****             .size = 0,
  76:Service/Srv_Receiver.c ****         },
  77:Service/Srv_Receiver.c ****     },
  78:Service/Srv_Receiver.c ****     {
  79:Service/Srv_Receiver.c ****         .out = false,
  80:Service/Srv_Receiver.c ****         .log = false,
  81:Service/Srv_Receiver.c ****         .prc_callback = NULL,
  82:Service/Srv_Receiver.c ****         .code = Receiver_FrameType_Error,
  83:Service/Srv_Receiver.c ****         .desc = "Receiver Frame Type Error\r\n",
  84:Service/Srv_Receiver.c ****         .proc_type = Error_Proc_Ignore,
  85:Service/Srv_Receiver.c ****         .prc_data_stream = {
  86:Service/Srv_Receiver.c ****             .p_data = NULL,
  87:Service/Srv_Receiver.c ****             .size = 0,
  88:Service/Srv_Receiver.c ****         },
  89:Service/Srv_Receiver.c ****     },
ARM GAS  C:\Users\HUAV\AppData\Local\Temp\ccMGKi0w.s 			page 3


  90:Service/Srv_Receiver.c **** };
  91:Service/Srv_Receiver.c **** 
  92:Service/Srv_Receiver.c **** static uint8_t *SrvReceiver_Create_UartObj(uint32_t serial_instance,
  93:Service/Srv_Receiver.c ****                                            uint32_t rx_dma,
  94:Service/Srv_Receiver.c ****                                            uint32_t rx_dma_stream,
  95:Service/Srv_Receiver.c ****                                            uint32_t tx_dma,
  96:Service/Srv_Receiver.c ****                                            uint32_t tx_dma_stream,
  97:Service/Srv_Receiver.c ****                                            bool swap,
  98:Service/Srv_Receiver.c ****                                            const BspGPIO_Obj_TypeDef tx_pin,
  99:Service/Srv_Receiver.c ****                                            const BspGPIO_Obj_TypeDef rx_pin)
 100:Service/Srv_Receiver.c **** {
 101:Service/Srv_Receiver.c ****     BspUARTObj_TypeDef *Uart_Receiver_Obj = NULL;
 102:Service/Srv_Receiver.c **** 
 103:Service/Srv_Receiver.c ****     Uart_Receiver_Obj = (BspUARTObj_TypeDef *)MMU_Malloc(sizeof(BspUARTObj_TypeDef));
 104:Service/Srv_Receiver.c **** 
 105:Service/Srv_Receiver.c ****     if (Uart_Receiver_Obj == NULL)
 106:Service/Srv_Receiver.c ****     {
 107:Service/Srv_Receiver.c ****         MMU_Free(Uart_Receiver_Obj);
 108:Service/Srv_Receiver.c ****         return NULL;
 109:Service/Srv_Receiver.c ****     }
 110:Service/Srv_Receiver.c **** 
 111:Service/Srv_Receiver.c ****     memset(Uart_Receiver_Obj, 0, sizeof(BspUARTObj_TypeDef));
 112:Service/Srv_Receiver.c **** 
 113:Service/Srv_Receiver.c ****     Uart_Receiver_Obj->instance = serial_instance;
 114:Service/Srv_Receiver.c ****     Uart_Receiver_Obj->tx_io = tx_pin;
 115:Service/Srv_Receiver.c ****     Uart_Receiver_Obj->rx_io = rx_pin;
 116:Service/Srv_Receiver.c ****     Uart_Receiver_Obj->pin_swap = swap;
 117:Service/Srv_Receiver.c ****     Uart_Receiver_Obj->rx_dma = rx_dma;
 118:Service/Srv_Receiver.c ****     Uart_Receiver_Obj->rx_stream = rx_dma_stream;
 119:Service/Srv_Receiver.c ****     Uart_Receiver_Obj->tx_dma = tx_dma;
 120:Service/Srv_Receiver.c ****     Uart_Receiver_Obj->tx_stream = tx_dma_stream;
 121:Service/Srv_Receiver.c **** 
 122:Service/Srv_Receiver.c ****     return Uart_Receiver_Obj;
 123:Service/Srv_Receiver.c **** }
 124:Service/Srv_Receiver.c **** 
 125:Service/Srv_Receiver.c **** static uint8_t *SrvReceiver_Create_SPIObj(void)
 126:Service/Srv_Receiver.c **** {
  27              		.loc 1 126 1 view -0
  28              		.cfi_startproc
  29              		@ args = 0, pretend = 0, frame = 0
  30              		@ frame_needed = 0, uses_anonymous_args = 0
  31              		@ link register save eliminated.
 127:Service/Srv_Receiver.c **** }
  32              		.loc 1 127 1 view .LVU1
  33 0000 7047     		bx	lr
  34              		.cfi_endproc
  35              	.LFE148:
  37              		.section	.text.SrvReceiver_Set_Invert,"ax",%progbits
  38              		.align	1
  39              		.syntax unified
  40              		.thumb
  41              		.thumb_func
  42              		.fpu fpv5-d16
  44              	SrvReceiver_Set_Invert:
  45              	.LVL0:
  46              	.LFB152:
 128:Service/Srv_Receiver.c **** 
ARM GAS  C:\Users\HUAV\AppData\Local\Temp\ccMGKi0w.s 			page 4


 129:Service/Srv_Receiver.c **** static bool SrvReceiver_Init(SrvReceiverObj_TypeDef *obj, uint8_t *port_obj)
 130:Service/Srv_Receiver.c **** {
 131:Service/Srv_Receiver.c ****     bool data_obj_error = false;
 132:Service/Srv_Receiver.c ****     BspUARTObj_TypeDef *Uart_Receiver_Obj = NULL;
 133:Service/Srv_Receiver.c **** 
 134:Service/Srv_Receiver.c ****     if ((obj == NULL) || (port_obj == NULL))
 135:Service/Srv_Receiver.c ****         return false;
 136:Service/Srv_Receiver.c **** 
 137:Service/Srv_Receiver.c ****     memset(SrvReceiver_Buff, NULL, SRV_RECEIVER_BUFF_SIZE);
 138:Service/Srv_Receiver.c **** 
 139:Service/Srv_Receiver.c ****     /* create error log handle */
 140:Service/Srv_Receiver.c ****     SrvReceiver_Error_Handle = ErrorLog.create("SrvReceiver_Error");
 141:Service/Srv_Receiver.c **** 
 142:Service/Srv_Receiver.c ****     /* regist all error to the error tree */
 143:Service/Srv_Receiver.c ****     ErrorLog.registe(SrvReceiver_Error_Handle, SrvReceiver_ErrorList, sizeof(SrvReceiver_ErrorList)
 144:Service/Srv_Receiver.c **** 
 145:Service/Srv_Receiver.c ****     switch (obj->port_type)
 146:Service/Srv_Receiver.c ****     {
 147:Service/Srv_Receiver.c ****     case Receiver_Port_Serial:
 148:Service/Srv_Receiver.c ****         Uart_Receiver_Obj = (BspUARTObj_TypeDef *)port_obj;
 149:Service/Srv_Receiver.c **** 
 150:Service/Srv_Receiver.c ****         memset(&SrvReceiver_Monitor, NULL, SRVRECEIVER_SIZE);
 151:Service/Srv_Receiver.c **** 
 152:Service/Srv_Receiver.c ****         switch (obj->Frame_type)
 153:Service/Srv_Receiver.c ****         {
 154:Service/Srv_Receiver.c ****         case Receiver_Type_Sbus:
 155:Service/Srv_Receiver.c ****             Uart_Receiver_Obj->baudrate = SBUS_BAUDRATE;
 156:Service/Srv_Receiver.c **** 
 157:Service/Srv_Receiver.c ****             /* create data obj */
 158:Service/Srv_Receiver.c ****             obj->frame_data_obj = MMU_Malloc(sizeof(DevSBUSObj_TypeDef));
 159:Service/Srv_Receiver.c ****             if (obj->frame_data_obj == NULL)
 160:Service/Srv_Receiver.c ****             {
 161:Service/Srv_Receiver.c ****                 data_obj_error = true;
 162:Service/Srv_Receiver.c ****                 break;
 163:Service/Srv_Receiver.c ****             }
 164:Service/Srv_Receiver.c **** 
 165:Service/Srv_Receiver.c ****             /* init inverter pin */
 166:Service/Srv_Receiver.c ****             // obj->inverter_init();
 167:Service/Srv_Receiver.c ****             // obj->invert_control();
 168:Service/Srv_Receiver.c **** 
 169:Service/Srv_Receiver.c ****             /* set max channel num */
 170:Service/Srv_Receiver.c ****             obj->channel_num = SBUS_MAX_CHANNEL;
 171:Service/Srv_Receiver.c **** 
 172:Service/Srv_Receiver.c ****             /* set receiver object frame object */
 173:Service/Srv_Receiver.c ****             obj->frame_api = &DevSBUS;
 174:Service/Srv_Receiver.c **** 
 175:Service/Srv_Receiver.c ****             if (!((DevSBUS_TypeDef *)(obj->frame_api))->init(obj->frame_data_obj))
 176:Service/Srv_Receiver.c ****                 return false;
 177:Service/Srv_Receiver.c ****             break;
 178:Service/Srv_Receiver.c **** 
 179:Service/Srv_Receiver.c ****         case Receiver_Type_CRSF:
 180:Service/Srv_Receiver.c ****             Uart_Receiver_Obj->baudrate = CRSF_BAUDRATE;
 181:Service/Srv_Receiver.c **** 
 182:Service/Srv_Receiver.c ****             /* create data obj */
 183:Service/Srv_Receiver.c ****             obj->frame_data_obj = MMU_Malloc(sizeof(DevCRSFObj_TypeDef));
 184:Service/Srv_Receiver.c ****             if (obj->frame_data_obj == NULL)
 185:Service/Srv_Receiver.c ****             {
ARM GAS  C:\Users\HUAV\AppData\Local\Temp\ccMGKi0w.s 			page 5


 186:Service/Srv_Receiver.c ****                 data_obj_error = true;
 187:Service/Srv_Receiver.c ****                 break;
 188:Service/Srv_Receiver.c ****             }
 189:Service/Srv_Receiver.c **** 
 190:Service/Srv_Receiver.c ****             /* for crsf receiver we dont need inverter */
 191:Service/Srv_Receiver.c ****             obj->invert_control = NULL;
 192:Service/Srv_Receiver.c ****             obj->inverter_init = NULL;
 193:Service/Srv_Receiver.c **** 
 194:Service/Srv_Receiver.c ****             /* set max channel num */
 195:Service/Srv_Receiver.c ****             obj->channel_num = CRSF_MAX_CHANNEL;
 196:Service/Srv_Receiver.c **** 
 197:Service/Srv_Receiver.c ****             /* set receiver object frame object */
 198:Service/Srv_Receiver.c ****             obj->frame_api = &DevCRSF;
 199:Service/Srv_Receiver.c **** 
 200:Service/Srv_Receiver.c ****             if (!((DevCRSF_TypeDef *)(obj->frame_api))->init(obj->frame_data_obj))
 201:Service/Srv_Receiver.c ****                 return false;
 202:Service/Srv_Receiver.c ****             break;
 203:Service/Srv_Receiver.c **** 
 204:Service/Srv_Receiver.c ****         default:
 205:Service/Srv_Receiver.c ****             return false;
 206:Service/Srv_Receiver.c ****         }
 207:Service/Srv_Receiver.c **** 
 208:Service/Srv_Receiver.c ****         obj->data.val_list = (uint16_t *)MMU_Malloc(sizeof(uint16_t) * obj->channel_num);
 209:Service/Srv_Receiver.c ****         if (!obj->data.val_list)
 210:Service/Srv_Receiver.c ****         {
 211:Service/Srv_Receiver.c ****             MMU_Free(obj->data.val_list);
 212:Service/Srv_Receiver.c ****             return false;
 213:Service/Srv_Receiver.c ****         }
 214:Service/Srv_Receiver.c **** 
 215:Service/Srv_Receiver.c ****         obj->port = (SrvReceiver_Port_TypeDef *)MMU_Malloc(sizeof(SrvReceiver_Port_TypeDef));
 216:Service/Srv_Receiver.c ****         if (!obj->port)
 217:Service/Srv_Receiver.c ****         {
 218:Service/Srv_Receiver.c ****             MMU_Free(obj->data.val_list);
 219:Service/Srv_Receiver.c ****             return false;
 220:Service/Srv_Receiver.c ****         }
 221:Service/Srv_Receiver.c **** 
 222:Service/Srv_Receiver.c ****         if (data_obj_error)
 223:Service/Srv_Receiver.c ****         {
 224:Service/Srv_Receiver.c ****             ErrorLog.trigger(SrvReceiver_Error_Handle, Receiver_Obj_Error, &SrvReceiver_Monitor, SR
 225:Service/Srv_Receiver.c ****             return false;
 226:Service/Srv_Receiver.c ****         }
 227:Service/Srv_Receiver.c **** 
 228:Service/Srv_Receiver.c ****         /* set uart init parameter */
 229:Service/Srv_Receiver.c ****         Uart_Receiver_Obj->rx_buf = SrvReceiver_Buff;
 230:Service/Srv_Receiver.c ****         Uart_Receiver_Obj->rx_size = SRV_RECEIVER_BUFF_SIZE;
 231:Service/Srv_Receiver.c ****         Uart_Receiver_Obj->cust_data_addr = obj;
 232:Service/Srv_Receiver.c **** 
 233:Service/Srv_Receiver.c ****         /* set uart callback */
 234:Service/Srv_Receiver.c ****         Uart_Receiver_Obj->RxCallback = SrvReceiver_SerialDecode_Callback;
 235:Service/Srv_Receiver.c **** 
 236:Service/Srv_Receiver.c ****         /* serial port init */
 237:Service/Srv_Receiver.c ****         if (!BspUart.init(Uart_Receiver_Obj))
 238:Service/Srv_Receiver.c ****         {
 239:Service/Srv_Receiver.c ****             ErrorLog.trigger(SrvReceiver_Error_Handle, Receiver_Port_Init_Error, &SrvReceiver_Monit
 240:Service/Srv_Receiver.c ****             return false;
 241:Service/Srv_Receiver.c ****         }
 242:Service/Srv_Receiver.c **** 
ARM GAS  C:\Users\HUAV\AppData\Local\Temp\ccMGKi0w.s 			page 6


 243:Service/Srv_Receiver.c ****         obj->port->api = &BspUart;
 244:Service/Srv_Receiver.c ****         obj->port->cfg = Uart_Receiver_Obj;
 245:Service/Srv_Receiver.c ****         break;
 246:Service/Srv_Receiver.c **** 
 247:Service/Srv_Receiver.c ****     case Receiver_Port_Spi:
 248:Service/Srv_Receiver.c ****         /* spi port init */
 249:Service/Srv_Receiver.c ****         break;
 250:Service/Srv_Receiver.c **** 
 251:Service/Srv_Receiver.c ****     default:
 252:Service/Srv_Receiver.c ****         ErrorLog.trigger(SrvReceiver_Error_Handle, Receiver_Obj_Error, &SrvReceiver_Monitor, SRVREC
 253:Service/Srv_Receiver.c ****         return false;
 254:Service/Srv_Receiver.c ****     }
 255:Service/Srv_Receiver.c **** 
 256:Service/Srv_Receiver.c ****     obj->invert_list = 0;
 257:Service/Srv_Receiver.c **** 
 258:Service/Srv_Receiver.c ****     return true;
 259:Service/Srv_Receiver.c **** }
 260:Service/Srv_Receiver.c **** 
 261:Service/Srv_Receiver.c **** static void SrvReceiver_SerialDecode_Callback(SrvReceiverObj_TypeDef *receiver_obj, uint8_t *p_data
 262:Service/Srv_Receiver.c **** {
 263:Service/Srv_Receiver.c ****     BspUARTObj_TypeDef *uart_obj = NULL;
 264:Service/Srv_Receiver.c ****     uint8_t *rx_buff_ptr = NULL;
 265:Service/Srv_Receiver.c ****     uint16_t rx_buff_size = 0;
 266:Service/Srv_Receiver.c ****     uint8_t decode_out = 0xFF;
 267:Service/Srv_Receiver.c **** 
 268:Service/Srv_Receiver.c ****     if (receiver_obj && receiver_obj->frame_api && receiver_obj->port && receiver_obj->frame_data_o
 269:Service/Srv_Receiver.c ****     {
 270:Service/Srv_Receiver.c ****         if (receiver_obj->port_type == Receiver_Port_Serial)
 271:Service/Srv_Receiver.c ****         {
 272:Service/Srv_Receiver.c ****             if (receiver_obj->in_use)
 273:Service/Srv_Receiver.c ****             {
 274:Service/Srv_Receiver.c ****                 receiver_obj->re_update = true;
 275:Service/Srv_Receiver.c ****             }
 276:Service/Srv_Receiver.c ****             else
 277:Service/Srv_Receiver.c ****                 receiver_obj->re_update = false;
 278:Service/Srv_Receiver.c **** 
 279:Service/Srv_Receiver.c ****             /* do serial decode funtion */
 280:Service/Srv_Receiver.c ****             if (receiver_obj->Frame_type == Receiver_Type_CRSF)
 281:Service/Srv_Receiver.c ****             {
 282:Service/Srv_Receiver.c ****                 decode_out = ((DevCRSF_TypeDef *)(receiver_obj->frame_api))->decode(receiver_obj->f
 283:Service/Srv_Receiver.c **** 
 284:Service/Srv_Receiver.c ****                 switch (decode_out)
 285:Service/Srv_Receiver.c ****                 {
 286:Service/Srv_Receiver.c ****                 case CRSF_FRAMETYPE_LINK_STATISTICS:
 287:Service/Srv_Receiver.c ****                     receiver_obj->data.rssi = ((DevCRSF_TypeDef *)(receiver_obj->frame_api))->get_s
 288:Service/Srv_Receiver.c ****                     receiver_obj->data.link_quality = ((DevCRSF_TypeDef *)(receiver_obj->frame_api)
 289:Service/Srv_Receiver.c ****                     break;
 290:Service/Srv_Receiver.c **** 
 291:Service/Srv_Receiver.c ****                 case CRSF_FRAMETYPE_RC_CHANNELS_PACKED:
 292:Service/Srv_Receiver.c ****                     ((DevCRSF_TypeDef *)(receiver_obj->frame_api))->get_channel(receiver_obj->frame
 293:Service/Srv_Receiver.c **** 
 294:Service/Srv_Receiver.c ****                     for (uint8_t i = 0; i < receiver_obj->channel_num; i++)
 295:Service/Srv_Receiver.c ****                     {
 296:Service/Srv_Receiver.c ****                         if (receiver_obj->data.val_list[i] < CRSF_DIGITAL_CHANNEL_MIN)
 297:Service/Srv_Receiver.c ****                         {
 298:Service/Srv_Receiver.c ****                             receiver_obj->data.val_list[i] = CRSF_DIGITAL_CHANNEL_MIN;
 299:Service/Srv_Receiver.c ****                         }
ARM GAS  C:\Users\HUAV\AppData\Local\Temp\ccMGKi0w.s 			page 7


 300:Service/Srv_Receiver.c ****                         else if (receiver_obj->data.val_list[i] > CRSF_DIGITAL_CHANNEL_MAX)
 301:Service/Srv_Receiver.c ****                         {
 302:Service/Srv_Receiver.c ****                             receiver_obj->data.val_list[i] = CRSF_DIGITAL_CHANNEL_MAX;
 303:Service/Srv_Receiver.c ****                         }
 304:Service/Srv_Receiver.c **** 
 305:Service/Srv_Receiver.c ****                         if (receiver_obj->invert_list && (receiver_obj->invert_list & 1 << i))
 306:Service/Srv_Receiver.c ****                         {
 307:Service/Srv_Receiver.c ****                             receiver_obj->data.val_list[i] -= CHANNEL_RANGE_MID;
 308:Service/Srv_Receiver.c ****                             receiver_obj->data.val_list[i] = CHANNEL_RANGE_MID - receiver_obj->data
 309:Service/Srv_Receiver.c ****                         }
 310:Service/Srv_Receiver.c ****                     }
 311:Service/Srv_Receiver.c **** 
 312:Service/Srv_Receiver.c ****                     receiver_obj->data.failsafe = false;
 313:Service/Srv_Receiver.c ****                     break;
 314:Service/Srv_Receiver.c **** 
 315:Service/Srv_Receiver.c ****                 default:
 316:Service/Srv_Receiver.c ****                     return;
 317:Service/Srv_Receiver.c ****                 }
 318:Service/Srv_Receiver.c ****             }
 319:Service/Srv_Receiver.c ****             else if (receiver_obj->Frame_type == Receiver_Type_Sbus)
 320:Service/Srv_Receiver.c ****             {
 321:Service/Srv_Receiver.c ****                 if (((DevSBUS_TypeDef *)(receiver_obj->frame_api))->decode(receiver_obj->frame_data
 322:Service/Srv_Receiver.c ****                 {
 323:Service/Srv_Receiver.c ****                     for (uint8_t i = 0; i < receiver_obj->channel_num; i++)
 324:Service/Srv_Receiver.c ****                     {
 325:Service/Srv_Receiver.c ****                         receiver_obj->data.val_list[i] = ((DevSBUSObj_TypeDef *)receiver_obj->frame
 326:Service/Srv_Receiver.c **** 
 327:Service/Srv_Receiver.c ****                         if (receiver_obj->invert_list && receiver_obj->invert_list & 1 << i)
 328:Service/Srv_Receiver.c ****                         {
 329:Service/Srv_Receiver.c ****                             receiver_obj->data.val_list[i] -= CHANNEL_RANGE_MID;
 330:Service/Srv_Receiver.c ****                             receiver_obj->data.val_list[i] = CHANNEL_RANGE_MID - receiver_obj->data
 331:Service/Srv_Receiver.c ****                         }
 332:Service/Srv_Receiver.c ****                     }
 333:Service/Srv_Receiver.c ****                 }
 334:Service/Srv_Receiver.c ****             }
 335:Service/Srv_Receiver.c **** 
 336:Service/Srv_Receiver.c ****             /* set decode time stamp */
 337:Service/Srv_Receiver.c ****             receiver_obj->data.time_stamp = Get_CurrentRunningMs();
 338:Service/Srv_Receiver.c **** 
 339:Service/Srv_Receiver.c ****             /* clear serial obj received data */
 340:Service/Srv_Receiver.c ****             if (receiver_obj->port->cfg)
 341:Service/Srv_Receiver.c ****             {
 342:Service/Srv_Receiver.c ****                 uart_obj = ((BspUARTObj_TypeDef *)(receiver_obj->port->cfg));
 343:Service/Srv_Receiver.c **** 
 344:Service/Srv_Receiver.c ****                 rx_buff_ptr = uart_obj->rx_buf;
 345:Service/Srv_Receiver.c **** 
 346:Service/Srv_Receiver.c ****                 if (rx_buff_ptr)
 347:Service/Srv_Receiver.c ****                     memset(rx_buff_ptr, NULL, size);
 348:Service/Srv_Receiver.c ****             }
 349:Service/Srv_Receiver.c ****         }
 350:Service/Srv_Receiver.c ****     }
 351:Service/Srv_Receiver.c **** }
 352:Service/Srv_Receiver.c **** 
 353:Service/Srv_Receiver.c **** static bool SrvReceiver_Check(SrvReceiverObj_TypeDef *receiver_obj)
 354:Service/Srv_Receiver.c **** {
 355:Service/Srv_Receiver.c ****     /* update check */
 356:Service/Srv_Receiver.c ****     /* update frequence less than 10hz switch into failsafe */
ARM GAS  C:\Users\HUAV\AppData\Local\Temp\ccMGKi0w.s 			page 8


 357:Service/Srv_Receiver.c ****     if ((Get_CurrentRunningMs() - receiver_obj->data.time_stamp) > SRV_RECEIVER_UPDATE_TIMEOUT_MS)
 358:Service/Srv_Receiver.c ****     {
 359:Service/Srv_Receiver.c ****         return false;
 360:Service/Srv_Receiver.c ****     }
 361:Service/Srv_Receiver.c **** 
 362:Service/Srv_Receiver.c ****     /* range check */
 363:Service/Srv_Receiver.c ****     for (uint8_t i = 0; i < receiver_obj->channel_num; i++)
 364:Service/Srv_Receiver.c ****     {
 365:Service/Srv_Receiver.c ****         if ((receiver_obj->data.val_list[i] > CHANNEL_RANGE_MAX) || (receiver_obj->data.val_list[i]
 366:Service/Srv_Receiver.c ****             return false;
 367:Service/Srv_Receiver.c ****     }
 368:Service/Srv_Receiver.c **** 
 369:Service/Srv_Receiver.c ****     /* other check */
 370:Service/Srv_Receiver.c **** 
 371:Service/Srv_Receiver.c ****     return true;
 372:Service/Srv_Receiver.c **** }
 373:Service/Srv_Receiver.c **** 
 374:Service/Srv_Receiver.c **** static void SrvReceiver_Set_Invert(SrvReceiverObj_TypeDef *receiver_obj, uint16_t channel_index)
 375:Service/Srv_Receiver.c **** {
  47              		.loc 1 375 1 view -0
  48              		.cfi_startproc
  49              		@ args = 0, pretend = 0, frame = 0
  50              		@ frame_needed = 0, uses_anonymous_args = 0
  51              		@ link register save eliminated.
 376:Service/Srv_Receiver.c ****     if (receiver_obj && (channel_index < receiver_obj->channel_num))
  52              		.loc 1 376 5 view .LVU3
  53              		.loc 1 376 8 is_stmt 0 view .LVU4
  54 0000 0346     		mov	r3, r0
  55 0002 88B1     		cbz	r0, .L2
  56              		.loc 1 376 54 discriminator 1 view .LVU5
  57 0004 827B     		ldrb	r2, [r0, #14]	@ zero_extendqisi2
  58              		.loc 1 376 22 discriminator 1 view .LVU6
  59 0006 8A42     		cmp	r2, r1
  60 0008 0ED9     		bls	.L2
 377:Service/Srv_Receiver.c ****     {
 378:Service/Srv_Receiver.c ****         if (receiver_obj->invert_list & (1 << channel_index))
  61              		.loc 1 378 9 is_stmt 1 view .LVU7
  62              		.loc 1 378 25 is_stmt 0 view .LVU8
  63 000a D0F82A20 		ldr	r2, [r0, #42]	@ unaligned
  64              		.loc 1 378 44 view .LVU9
  65 000e 0120     		movs	r0, #1
  66              	.LVL1:
  67              		.loc 1 378 44 view .LVU10
  68 0010 00FA01F1 		lsl	r1, r0, r1
  69              	.LVL2:
  70              		.loc 1 378 12 view .LVU11
  71 0014 0A42     		tst	r2, r1
  72 0016 04D0     		beq	.L4
 379:Service/Srv_Receiver.c ****         {
 380:Service/Srv_Receiver.c ****             receiver_obj->invert_list &= ~(1 << channel_index);
  73              		.loc 1 380 13 is_stmt 1 view .LVU12
  74              		.loc 1 380 39 is_stmt 0 view .LVU13
  75 0018 22EA0102 		bic	r2, r2, r1
  76 001c C3F82A20 		str	r2, [r3, #42]	@ unaligned
  77 0020 7047     		bx	lr
  78              	.L4:
 381:Service/Srv_Receiver.c ****         }
ARM GAS  C:\Users\HUAV\AppData\Local\Temp\ccMGKi0w.s 			page 9


 382:Service/Srv_Receiver.c ****         else
 383:Service/Srv_Receiver.c ****         {
 384:Service/Srv_Receiver.c ****             receiver_obj->invert_list |= (1 << channel_index);
  79              		.loc 1 384 13 is_stmt 1 view .LVU14
  80              		.loc 1 384 39 is_stmt 0 view .LVU15
  81 0022 0A43     		orrs	r2, r2, r1
  82 0024 C3F82A20 		str	r2, [r3, #42]	@ unaligned
  83              	.L2:
 385:Service/Srv_Receiver.c ****         }
 386:Service/Srv_Receiver.c ****     }
 387:Service/Srv_Receiver.c **** }
  84              		.loc 1 387 1 view .LVU16
  85 0028 7047     		bx	lr
  86              		.cfi_endproc
  87              	.LFE152:
  89              		.section	.text.SrvReceiver_Check,"ax",%progbits
  90              		.align	1
  91              		.syntax unified
  92              		.thumb
  93              		.thumb_func
  94              		.fpu fpv5-d16
  96              	SrvReceiver_Check:
  97              	.LVL3:
  98              	.LFB151:
 354:Service/Srv_Receiver.c ****     /* update check */
  99              		.loc 1 354 1 is_stmt 1 view -0
 100              		.cfi_startproc
 101              		@ args = 0, pretend = 0, frame = 0
 102              		@ frame_needed = 0, uses_anonymous_args = 0
 354:Service/Srv_Receiver.c ****     /* update check */
 103              		.loc 1 354 1 is_stmt 0 view .LVU18
 104 0000 10B5     		push	{r4, lr}
 105              	.LCFI0:
 106              		.cfi_def_cfa_offset 8
 107              		.cfi_offset 4, -8
 108              		.cfi_offset 14, -4
 109 0002 0446     		mov	r4, r0
 357:Service/Srv_Receiver.c ****     {
 110              		.loc 1 357 5 is_stmt 1 view .LVU19
 357:Service/Srv_Receiver.c ****     {
 111              		.loc 1 357 10 is_stmt 0 view .LVU20
 112 0004 FFF7FEFF 		bl	Get_CurrentRunningMs
 113              	.LVL4:
 357:Service/Srv_Receiver.c ****     {
 114              		.loc 1 357 53 view .LVU21
 115 0008 D4F81330 		ldr	r3, [r4, #19]	@ unaligned
 357:Service/Srv_Receiver.c ****     {
 116              		.loc 1 357 33 view .LVU22
 117 000c C01A     		subs	r0, r0, r3
 118 000e 61F10001 		sbc	r1, r1, #0
 357:Service/Srv_Receiver.c ****     {
 119              		.loc 1 357 8 view .LVU23
 120 0012 0029     		cmp	r1, #0
 121 0014 08BF     		it	eq
 122 0016 6528     		cmpeq	r0, #101
 123 0018 11D2     		bcs	.L9
 124              	.LBB2:
ARM GAS  C:\Users\HUAV\AppData\Local\Temp\ccMGKi0w.s 			page 10


 363:Service/Srv_Receiver.c ****     {
 125              		.loc 1 363 18 view .LVU24
 126 001a 0022     		movs	r2, #0
 127              	.L7:
 128              	.LVL5:
 363:Service/Srv_Receiver.c ****     {
 129              		.loc 1 363 25 is_stmt 1 discriminator 1 view .LVU25
 363:Service/Srv_Receiver.c ****     {
 130              		.loc 1 363 41 is_stmt 0 discriminator 1 view .LVU26
 131 001c A37B     		ldrb	r3, [r4, #14]	@ zero_extendqisi2
 363:Service/Srv_Receiver.c ****     {
 132              		.loc 1 363 5 discriminator 1 view .LVU27
 133 001e 9342     		cmp	r3, r2
 134 0020 0BD9     		bls	.L12
 365:Service/Srv_Receiver.c ****             return false;
 135              		.loc 1 365 9 is_stmt 1 view .LVU28
 365:Service/Srv_Receiver.c ****             return false;
 136              		.loc 1 365 32 is_stmt 0 view .LVU29
 137 0022 D4F81730 		ldr	r3, [r4, #23]	@ unaligned
 365:Service/Srv_Receiver.c ****             return false;
 138              		.loc 1 365 41 view .LVU30
 139 0026 33F81230 		ldrh	r3, [r3, r2, lsl #1]
 365:Service/Srv_Receiver.c ****             return false;
 140              		.loc 1 365 66 view .LVU31
 141 002a 643B     		subs	r3, r3, #100
 142 002c 9BB2     		uxth	r3, r3
 365:Service/Srv_Receiver.c ****             return false;
 143              		.loc 1 365 12 view .LVU32
 144 002e B3F5E16F 		cmp	r3, #1800
 145 0032 06D8     		bhi	.L10
 363:Service/Srv_Receiver.c ****     {
 146              		.loc 1 363 56 is_stmt 1 discriminator 2 view .LVU33
 363:Service/Srv_Receiver.c ****     {
 147              		.loc 1 363 57 is_stmt 0 discriminator 2 view .LVU34
 148 0034 0132     		adds	r2, r2, #1
 149              	.LVL6:
 363:Service/Srv_Receiver.c ****     {
 150              		.loc 1 363 57 discriminator 2 view .LVU35
 151 0036 D2B2     		uxtb	r2, r2
 152              	.LVL7:
 363:Service/Srv_Receiver.c ****     {
 153              		.loc 1 363 57 discriminator 2 view .LVU36
 154 0038 F0E7     		b	.L7
 155              	.L12:
 363:Service/Srv_Receiver.c ****     {
 156              		.loc 1 363 57 discriminator 2 view .LVU37
 157              	.LBE2:
 371:Service/Srv_Receiver.c **** }
 158              		.loc 1 371 12 view .LVU38
 159 003a 0120     		movs	r0, #1
 160              	.LBB3:
 161 003c 00E0     		b	.L6
 162              	.LVL8:
 163              	.L9:
 371:Service/Srv_Receiver.c **** }
 164              		.loc 1 371 12 view .LVU39
 165              	.LBE3:
ARM GAS  C:\Users\HUAV\AppData\Local\Temp\ccMGKi0w.s 			page 11


 359:Service/Srv_Receiver.c ****     }
 166              		.loc 1 359 16 view .LVU40
 167 003e 0020     		movs	r0, #0
 168              	.L6:
 372:Service/Srv_Receiver.c **** 
 169              		.loc 1 372 1 view .LVU41
 170 0040 10BD     		pop	{r4, pc}
 171              	.LVL9:
 172              	.L10:
 173              	.LBB4:
 366:Service/Srv_Receiver.c ****     }
 174              		.loc 1 366 20 view .LVU42
 175 0042 0020     		movs	r0, #0
 176 0044 FCE7     		b	.L6
 177              	.LBE4:
 178              		.cfi_endproc
 179              	.LFE151:
 181              		.section	.text.SrvReceiver_Get_Value,"ax",%progbits
 182              		.align	1
 183              		.syntax unified
 184              		.thumb
 185              		.thumb_func
 186              		.fpu fpv5-d16
 188              	SrvReceiver_Get_Value:
 189              	.LVL10:
 190              	.LFB153:
 388:Service/Srv_Receiver.c **** 
 389:Service/Srv_Receiver.c **** static SrvReceiverData_TypeDef SrvReceiver_Get_Value(SrvReceiverObj_TypeDef *receiver_obj)
 390:Service/Srv_Receiver.c **** {
 191              		.loc 1 390 1 is_stmt 1 view -0
 192              		.cfi_startproc
 193              		@ args = 0, pretend = 0, frame = 16
 194              		@ frame_needed = 0, uses_anonymous_args = 0
 195              		.loc 1 390 1 is_stmt 0 view .LVU44
 196 0000 70B5     		push	{r4, r5, r6, lr}
 197              	.LCFI1:
 198              		.cfi_def_cfa_offset 16
 199              		.cfi_offset 4, -16
 200              		.cfi_offset 5, -12
 201              		.cfi_offset 6, -8
 202              		.cfi_offset 14, -4
 203 0002 84B0     		sub	sp, sp, #16
 204              	.LCFI2:
 205              		.cfi_def_cfa_offset 32
 206 0004 0646     		mov	r6, r0
 391:Service/Srv_Receiver.c ****     SrvReceiverData_TypeDef receiver_data_tmp;
 207              		.loc 1 391 5 is_stmt 1 view .LVU45
 392:Service/Srv_Receiver.c **** 
 393:Service/Srv_Receiver.c ****     memset(&receiver_data_tmp, 0, sizeof(receiver_data_tmp));
 208              		.loc 1 393 5 view .LVU46
 209 0006 0023     		movs	r3, #0
 210 0008 0093     		str	r3, [sp]
 211 000a 0193     		str	r3, [sp, #4]
 212 000c 0293     		str	r3, [sp, #8]
 394:Service/Srv_Receiver.c ****     receiver_data_tmp.failsafe = true;
 213              		.loc 1 394 5 view .LVU47
 214              		.loc 1 394 32 is_stmt 0 view .LVU48
ARM GAS  C:\Users\HUAV\AppData\Local\Temp\ccMGKi0w.s 			page 12


 215 000e 0123     		movs	r3, #1
 216 0010 8DF80C30 		strb	r3, [sp, #12]
 395:Service/Srv_Receiver.c **** 
 396:Service/Srv_Receiver.c ****     if (receiver_obj == NULL)
 217              		.loc 1 396 5 is_stmt 1 view .LVU49
 218              		.loc 1 396 8 is_stmt 0 view .LVU50
 219 0014 0C46     		mov	r4, r1
 220 0016 C9B1     		cbz	r1, .L19
 221              	.LVL11:
 222              	.L14:
 397:Service/Srv_Receiver.c ****         return receiver_data_tmp;
 398:Service/Srv_Receiver.c **** 
 399:Service/Srv_Receiver.c **** re_do:
 400:Service/Srv_Receiver.c ****     receiver_obj->in_use = true;
 223              		.loc 1 400 5 is_stmt 1 view .LVU51
 224              		.loc 1 400 26 is_stmt 0 view .LVU52
 225 0018 0123     		movs	r3, #1
 226 001a 84F82930 		strb	r3, [r4, #41]
 401:Service/Srv_Receiver.c **** 
 402:Service/Srv_Receiver.c ****     if (!SrvReceiver_Check(receiver_obj))
 227              		.loc 1 402 5 is_stmt 1 view .LVU53
 228              		.loc 1 402 10 is_stmt 0 view .LVU54
 229 001e 2046     		mov	r0, r4
 230 0020 FFF7FEFF 		bl	SrvReceiver_Check
 231              	.LVL12:
 232              		.loc 1 402 8 view .LVU55
 233 0024 D0B1     		cbz	r0, .L20
 403:Service/Srv_Receiver.c ****         return receiver_data_tmp;
 404:Service/Srv_Receiver.c **** 
 405:Service/Srv_Receiver.c ****     receiver_data_tmp.failsafe = false;
 234              		.loc 1 405 5 is_stmt 1 view .LVU56
 406:Service/Srv_Receiver.c ****     receiver_data_tmp = receiver_obj->data;
 235              		.loc 1 406 5 view .LVU57
 236              		.loc 1 406 23 is_stmt 0 view .LVU58
 237 0026 6B46     		mov	r3, sp
 238 0028 2546     		mov	r5, r4
 239 002a 55F8130F 		ldr	r0, [r5, #19]!	@ unaligned
 240 002e 6968     		ldr	r1, [r5, #4]	@ unaligned
 241 0030 AA68     		ldr	r2, [r5, #8]	@ unaligned
 242 0032 07C3     		stmia	r3!, {r0, r1, r2}
 243 0034 2A7B     		ldrb	r2, [r5, #12]	@ zero_extendqisi2
 244 0036 1A70     		strb	r2, [r3]
 407:Service/Srv_Receiver.c **** 
 408:Service/Srv_Receiver.c ****     receiver_obj->in_use = false;
 245              		.loc 1 408 5 is_stmt 1 view .LVU59
 246              		.loc 1 408 26 is_stmt 0 view .LVU60
 247 0038 0023     		movs	r3, #0
 248 003a 84F82930 		strb	r3, [r4, #41]
 409:Service/Srv_Receiver.c **** 
 410:Service/Srv_Receiver.c ****     if (receiver_obj->re_update)
 249              		.loc 1 410 5 is_stmt 1 view .LVU61
 250              		.loc 1 410 21 is_stmt 0 view .LVU62
 251 003e 94F82830 		ldrb	r3, [r4, #40]	@ zero_extendqisi2
 252              		.loc 1 410 8 view .LVU63
 253 0042 ABB1     		cbz	r3, .L17
 411:Service/Srv_Receiver.c ****     {
 412:Service/Srv_Receiver.c ****         receiver_obj->re_update = false;
ARM GAS  C:\Users\HUAV\AppData\Local\Temp\ccMGKi0w.s 			page 13


 254              		.loc 1 412 9 is_stmt 1 view .LVU64
 255              		.loc 1 412 33 is_stmt 0 view .LVU65
 256 0044 0023     		movs	r3, #0
 257 0046 84F82830 		strb	r3, [r4, #40]
 413:Service/Srv_Receiver.c ****         goto re_do;
 258              		.loc 1 413 9 is_stmt 1 view .LVU66
 259 004a E5E7     		b	.L14
 260              	.LVL13:
 261              	.L19:
 397:Service/Srv_Receiver.c **** 
 262              		.loc 1 397 9 view .LVU67
 397:Service/Srv_Receiver.c **** 
 263              		.loc 1 397 16 is_stmt 0 view .LVU68
 264 004c 6B46     		mov	r3, sp
 265 004e 07CB     		ldmia	r3!, {r0, r1, r2}
 266              	.LVL14:
 397:Service/Srv_Receiver.c **** 
 267              		.loc 1 397 16 view .LVU69
 268 0050 3060     		str	r0, [r6]	@ unaligned
 269 0052 7160     		str	r1, [r6, #4]	@ unaligned
 270 0054 B260     		str	r2, [r6, #8]	@ unaligned
 271 0056 1B78     		ldrb	r3, [r3]	@ zero_extendqisi2
 272 0058 3373     		strb	r3, [r6, #12]
 273 005a 06E0     		b	.L13
 274              	.L20:
 403:Service/Srv_Receiver.c **** 
 275              		.loc 1 403 9 is_stmt 1 view .LVU70
 403:Service/Srv_Receiver.c **** 
 276              		.loc 1 403 16 is_stmt 0 view .LVU71
 277 005c 6B46     		mov	r3, sp
 278 005e 07CB     		ldmia	r3!, {r0, r1, r2}
 279 0060 3060     		str	r0, [r6]	@ unaligned
 280 0062 7160     		str	r1, [r6, #4]	@ unaligned
 281 0064 B260     		str	r2, [r6, #8]	@ unaligned
 282 0066 1B78     		ldrb	r3, [r3]	@ zero_extendqisi2
 283 0068 3373     		strb	r3, [r6, #12]
 284              	.L13:
 414:Service/Srv_Receiver.c ****     }
 415:Service/Srv_Receiver.c **** 
 416:Service/Srv_Receiver.c ****     return receiver_data_tmp;
 417:Service/Srv_Receiver.c **** }
 285              		.loc 1 417 1 view .LVU72
 286 006a 3046     		mov	r0, r6
 287 006c 04B0     		add	sp, sp, #16
 288              	.LCFI3:
 289              		.cfi_remember_state
 290              		.cfi_def_cfa_offset 16
 291              		@ sp needed
 292 006e 70BD     		pop	{r4, r5, r6, pc}
 293              	.LVL15:
 294              	.L17:
 295              	.LCFI4:
 296              		.cfi_restore_state
 416:Service/Srv_Receiver.c **** }
 297              		.loc 1 416 5 is_stmt 1 view .LVU73
 416:Service/Srv_Receiver.c **** }
 298              		.loc 1 416 12 is_stmt 0 view .LVU74
ARM GAS  C:\Users\HUAV\AppData\Local\Temp\ccMGKi0w.s 			page 14


 299 0070 6B46     		mov	r3, sp
 300 0072 07CB     		ldmia	r3!, {r0, r1, r2}
 301 0074 3060     		str	r0, [r6]	@ unaligned
 302 0076 7160     		str	r1, [r6, #4]	@ unaligned
 303 0078 B260     		str	r2, [r6, #8]	@ unaligned
 304 007a 1B78     		ldrb	r3, [r3]	@ zero_extendqisi2
 305 007c 3373     		strb	r3, [r6, #12]
 306 007e F4E7     		b	.L13
 307              		.cfi_endproc
 308              	.LFE153:
 310              		.section	.text.SrvReceiver_SerialDecode_Callback,"ax",%progbits
 311              		.align	1
 312              		.syntax unified
 313              		.thumb
 314              		.thumb_func
 315              		.fpu fpv5-d16
 317              	SrvReceiver_SerialDecode_Callback:
 318              	.LVL16:
 319              	.LFB150:
 262:Service/Srv_Receiver.c ****     BspUARTObj_TypeDef *uart_obj = NULL;
 320              		.loc 1 262 1 is_stmt 1 view -0
 321              		.cfi_startproc
 322              		@ args = 0, pretend = 0, frame = 24
 323              		@ frame_needed = 0, uses_anonymous_args = 0
 263:Service/Srv_Receiver.c ****     uint8_t *rx_buff_ptr = NULL;
 324              		.loc 1 263 5 view .LVU76
 264:Service/Srv_Receiver.c ****     uint16_t rx_buff_size = 0;
 325              		.loc 1 264 5 view .LVU77
 265:Service/Srv_Receiver.c ****     uint8_t decode_out = 0xFF;
 326              		.loc 1 265 5 view .LVU78
 266:Service/Srv_Receiver.c **** 
 327              		.loc 1 266 5 view .LVU79
 268:Service/Srv_Receiver.c ****     {
 328              		.loc 1 268 5 view .LVU80
 268:Service/Srv_Receiver.c ****     {
 329              		.loc 1 268 8 is_stmt 0 view .LVU81
 330 0000 0028     		cmp	r0, #0
 331 0002 00F0AB80 		beq	.L38
 262:Service/Srv_Receiver.c ****     BspUARTObj_TypeDef *uart_obj = NULL;
 332              		.loc 1 262 1 discriminator 1 view .LVU82
 333 0006 30B5     		push	{r4, r5, lr}
 334              	.LCFI5:
 335              		.cfi_def_cfa_offset 12
 336              		.cfi_offset 4, -12
 337              		.cfi_offset 5, -8
 338              		.cfi_offset 14, -4
 339 0008 87B0     		sub	sp, sp, #28
 340              	.LCFI6:
 341              		.cfi_def_cfa_offset 40
 342 000a 1546     		mov	r5, r2
 343 000c 0446     		mov	r4, r0
 268:Service/Srv_Receiver.c ****     {
 344              		.loc 1 268 37 discriminator 1 view .LVU83
 345 000e 036A     		ldr	r3, [r0, #32]	@ unaligned
 268:Service/Srv_Receiver.c ****     {
 346              		.loc 1 268 22 discriminator 1 view .LVU84
 347 0010 3BB1     		cbz	r3, .L21
ARM GAS  C:\Users\HUAV\AppData\Local\Temp\ccMGKi0w.s 			page 15


 268:Service/Srv_Receiver.c ****     {
 348              		.loc 1 268 64 discriminator 2 view .LVU85
 349 0012 426A     		ldr	r2, [r0, #36]	@ unaligned
 350              	.LVL17:
 268:Service/Srv_Receiver.c ****     {
 351              		.loc 1 268 49 discriminator 2 view .LVU86
 352 0014 2AB1     		cbz	r2, .L21
 268:Service/Srv_Receiver.c ****     {
 353              		.loc 1 268 86 discriminator 3 view .LVU87
 354 0016 D0F80F00 		ldr	r0, [r0, #15]	@ unaligned
 355              	.LVL18:
 268:Service/Srv_Receiver.c ****     {
 356              		.loc 1 268 71 discriminator 3 view .LVU88
 357 001a 10B1     		cbz	r0, .L21
 270:Service/Srv_Receiver.c ****         {
 358              		.loc 1 270 9 is_stmt 1 view .LVU89
 270:Service/Srv_Receiver.c ****         {
 359              		.loc 1 270 25 is_stmt 0 view .LVU90
 360 001c 6278     		ldrb	r2, [r4, #1]	@ zero_extendqisi2
 270:Service/Srv_Receiver.c ****         {
 361              		.loc 1 270 12 view .LVU91
 362 001e 012A     		cmp	r2, #1
 363 0020 01D0     		beq	.L41
 364              	.LVL19:
 365              	.L21:
 351:Service/Srv_Receiver.c **** 
 366              		.loc 1 351 1 view .LVU92
 367 0022 07B0     		add	sp, sp, #28
 368              	.LCFI7:
 369              		.cfi_remember_state
 370              		.cfi_def_cfa_offset 12
 371              		@ sp needed
 372 0024 30BD     		pop	{r4, r5, pc}
 373              	.LVL20:
 374              	.L41:
 375              	.LCFI8:
 376              		.cfi_restore_state
 272:Service/Srv_Receiver.c ****             {
 377              		.loc 1 272 13 is_stmt 1 view .LVU93
 272:Service/Srv_Receiver.c ****             {
 378              		.loc 1 272 29 is_stmt 0 view .LVU94
 379 0026 94F82920 		ldrb	r2, [r4, #41]	@ zero_extendqisi2
 272:Service/Srv_Receiver.c ****             {
 380              		.loc 1 272 16 view .LVU95
 381 002a EAB1     		cbz	r2, .L23
 274:Service/Srv_Receiver.c ****             }
 382              		.loc 1 274 17 is_stmt 1 view .LVU96
 274:Service/Srv_Receiver.c ****             }
 383              		.loc 1 274 41 is_stmt 0 view .LVU97
 384 002c 0122     		movs	r2, #1
 385 002e 84F82820 		strb	r2, [r4, #40]
 386              	.L24:
 280:Service/Srv_Receiver.c ****             {
 387              		.loc 1 280 13 is_stmt 1 view .LVU98
 280:Service/Srv_Receiver.c ****             {
 388              		.loc 1 280 29 is_stmt 0 view .LVU99
 389 0032 2278     		ldrb	r2, [r4]	@ zero_extendqisi2
ARM GAS  C:\Users\HUAV\AppData\Local\Temp\ccMGKi0w.s 			page 16


 280:Service/Srv_Receiver.c ****             {
 390              		.loc 1 280 16 view .LVU100
 391 0034 012A     		cmp	r2, #1
 392 0036 1BD0     		beq	.L42
 319:Service/Srv_Receiver.c ****             {
 393              		.loc 1 319 18 is_stmt 1 view .LVU101
 319:Service/Srv_Receiver.c ****             {
 394              		.loc 1 319 21 is_stmt 0 view .LVU102
 395 0038 2AB9     		cbnz	r2, .L28
 321:Service/Srv_Receiver.c ****                 {
 396              		.loc 1 321 17 is_stmt 1 view .LVU103
 321:Service/Srv_Receiver.c ****                 {
 397              		.loc 1 321 67 is_stmt 0 view .LVU104
 398 003a 5B68     		ldr	r3, [r3, #4]
 321:Service/Srv_Receiver.c ****                 {
 399              		.loc 1 321 22 view .LVU105
 400 003c 2A46     		mov	r2, r5
 401 003e 9847     		blx	r3
 402              	.LVL21:
 321:Service/Srv_Receiver.c ****                 {
 403              		.loc 1 321 20 view .LVU106
 404 0040 0346     		mov	r3, r0
 405 0042 0028     		cmp	r0, #0
 406 0044 69D0     		beq	.L34
 407              	.LVL22:
 408              	.L28:
 337:Service/Srv_Receiver.c **** 
 409              		.loc 1 337 13 is_stmt 1 view .LVU107
 337:Service/Srv_Receiver.c **** 
 410              		.loc 1 337 45 is_stmt 0 view .LVU108
 411 0046 FFF7FEFF 		bl	Get_CurrentRunningMs
 412              	.LVL23:
 337:Service/Srv_Receiver.c **** 
 413              		.loc 1 337 43 view .LVU109
 414 004a C4F81300 		str	r0, [r4, #19]	@ unaligned
 340:Service/Srv_Receiver.c ****             {
 415              		.loc 1 340 13 is_stmt 1 view .LVU110
 340:Service/Srv_Receiver.c ****             {
 416              		.loc 1 340 29 is_stmt 0 view .LVU111
 417 004e 636A     		ldr	r3, [r4, #36]	@ unaligned
 340:Service/Srv_Receiver.c ****             {
 418              		.loc 1 340 35 view .LVU112
 419 0050 5B68     		ldr	r3, [r3, #4]	@ unaligned
 340:Service/Srv_Receiver.c ****             {
 420              		.loc 1 340 16 view .LVU113
 421 0052 002B     		cmp	r3, #0
 422 0054 E5D0     		beq	.L21
 342:Service/Srv_Receiver.c **** 
 423              		.loc 1 342 17 is_stmt 1 view .LVU114
 424              	.LVL24:
 344:Service/Srv_Receiver.c **** 
 425              		.loc 1 344 17 view .LVU115
 344:Service/Srv_Receiver.c **** 
 426              		.loc 1 344 29 is_stmt 0 view .LVU116
 427 0056 D3F8AD01 		ldr	r0, [r3, #429]	@ unaligned
 428              	.LVL25:
 346:Service/Srv_Receiver.c ****                     memset(rx_buff_ptr, NULL, size);
ARM GAS  C:\Users\HUAV\AppData\Local\Temp\ccMGKi0w.s 			page 17


 429              		.loc 1 346 17 is_stmt 1 view .LVU117
 346:Service/Srv_Receiver.c ****                     memset(rx_buff_ptr, NULL, size);
 430              		.loc 1 346 20 is_stmt 0 view .LVU118
 431 005a 0028     		cmp	r0, #0
 432 005c E1D0     		beq	.L21
 347:Service/Srv_Receiver.c ****             }
 433              		.loc 1 347 21 is_stmt 1 view .LVU119
 434 005e 2A46     		mov	r2, r5
 435 0060 0021     		movs	r1, #0
 436 0062 FFF7FEFF 		bl	memset
 437              	.LVL26:
 347:Service/Srv_Receiver.c ****             }
 438              		.loc 1 347 21 is_stmt 0 view .LVU120
 439 0066 DCE7     		b	.L21
 440              	.LVL27:
 441              	.L23:
 277:Service/Srv_Receiver.c **** 
 442              		.loc 1 277 17 is_stmt 1 view .LVU121
 277:Service/Srv_Receiver.c **** 
 443              		.loc 1 277 41 is_stmt 0 view .LVU122
 444 0068 0022     		movs	r2, #0
 445 006a 84F82820 		strb	r2, [r4, #40]
 446 006e E0E7     		b	.L24
 447              	.L42:
 282:Service/Srv_Receiver.c **** 
 448              		.loc 1 282 17 is_stmt 1 view .LVU123
 282:Service/Srv_Receiver.c **** 
 449              		.loc 1 282 76 is_stmt 0 view .LVU124
 450 0070 5B68     		ldr	r3, [r3, #4]
 282:Service/Srv_Receiver.c **** 
 451              		.loc 1 282 31 view .LVU125
 452 0072 2A46     		mov	r2, r5
 453 0074 9847     		blx	r3
 454              	.LVL28:
 284:Service/Srv_Receiver.c ****                 {
 455              		.loc 1 284 17 is_stmt 1 view .LVU126
 456 0076 1428     		cmp	r0, #20
 457 0078 0AD0     		beq	.L26
 458 007a 1628     		cmp	r0, #22
 459 007c D1D1     		bne	.L21
 292:Service/Srv_Receiver.c **** 
 460              		.loc 1 292 21 view .LVU127
 292:Service/Srv_Receiver.c **** 
 461              		.loc 1 292 54 is_stmt 0 view .LVU128
 462 007e 236A     		ldr	r3, [r4, #32]	@ unaligned
 292:Service/Srv_Receiver.c **** 
 463              		.loc 1 292 67 view .LVU129
 464 0080 9B68     		ldr	r3, [r3, #8]
 292:Service/Srv_Receiver.c **** 
 465              		.loc 1 292 22 view .LVU130
 466 0082 D4F81710 		ldr	r1, [r4, #23]	@ unaligned
 467 0086 D4F80F00 		ldr	r0, [r4, #15]	@ unaligned
 468              	.LVL29:
 292:Service/Srv_Receiver.c **** 
 469              		.loc 1 292 22 view .LVU131
 470 008a 9847     		blx	r3
 471              	.LVL30:
ARM GAS  C:\Users\HUAV\AppData\Local\Temp\ccMGKi0w.s 			page 18


 294:Service/Srv_Receiver.c ****                     {
 472              		.loc 1 294 21 is_stmt 1 view .LVU132
 473              	.LBB5:
 294:Service/Srv_Receiver.c ****                     {
 474              		.loc 1 294 26 view .LVU133
 294:Service/Srv_Receiver.c ****                     {
 475              		.loc 1 294 34 is_stmt 0 view .LVU134
 476 008c 0023     		movs	r3, #0
 294:Service/Srv_Receiver.c ****                     {
 477              		.loc 1 294 21 view .LVU135
 478 008e 1DE0     		b	.L29
 479              	.LVL31:
 480              	.L26:
 294:Service/Srv_Receiver.c ****                     {
 481              		.loc 1 294 21 view .LVU136
 482              	.LBE5:
 287:Service/Srv_Receiver.c ****                     receiver_obj->data.link_quality = ((DevCRSF_TypeDef *)(receiver_obj->frame_api)
 483              		.loc 1 287 21 is_stmt 1 view .LVU137
 287:Service/Srv_Receiver.c ****                     receiver_obj->data.link_quality = ((DevCRSF_TypeDef *)(receiver_obj->frame_api)
 484              		.loc 1 287 80 is_stmt 0 view .LVU138
 485 0090 236A     		ldr	r3, [r4, #32]	@ unaligned
 287:Service/Srv_Receiver.c ****                     receiver_obj->data.link_quality = ((DevCRSF_TypeDef *)(receiver_obj->frame_api)
 486              		.loc 1 287 93 view .LVU139
 487 0092 DB68     		ldr	r3, [r3, #12]
 287:Service/Srv_Receiver.c ****                     receiver_obj->data.link_quality = ((DevCRSF_TypeDef *)(receiver_obj->frame_api)
 488              		.loc 1 287 48 view .LVU140
 489 0094 D4F80F10 		ldr	r1, [r4, #15]	@ unaligned
 490 0098 6846     		mov	r0, sp
 491              	.LVL32:
 287:Service/Srv_Receiver.c ****                     receiver_obj->data.link_quality = ((DevCRSF_TypeDef *)(receiver_obj->frame_api)
 492              		.loc 1 287 48 view .LVU141
 493 009a 9847     		blx	r3
 494              	.LVL33:
 287:Service/Srv_Receiver.c ****                     receiver_obj->data.link_quality = ((DevCRSF_TypeDef *)(receiver_obj->frame_api)
 495              		.loc 1 287 139 view .LVU142
 496 009c 9DF80030 		ldrb	r3, [sp]	@ zero_extendqisi2
 287:Service/Srv_Receiver.c ****                     receiver_obj->data.link_quality = ((DevCRSF_TypeDef *)(receiver_obj->frame_api)
 497              		.loc 1 287 45 view .LVU143
 498 00a0 A4F81B30 		strh	r3, [r4, #27]	@ unaligned
 288:Service/Srv_Receiver.c ****                     break;
 499              		.loc 1 288 21 is_stmt 1 view .LVU144
 288:Service/Srv_Receiver.c ****                     break;
 500              		.loc 1 288 88 is_stmt 0 view .LVU145
 501 00a4 236A     		ldr	r3, [r4, #32]	@ unaligned
 288:Service/Srv_Receiver.c ****                     break;
 502              		.loc 1 288 101 view .LVU146
 503 00a6 DB68     		ldr	r3, [r3, #12]
 288:Service/Srv_Receiver.c ****                     break;
 504              		.loc 1 288 56 view .LVU147
 505 00a8 D4F80F10 		ldr	r1, [r4, #15]	@ unaligned
 506 00ac 03A8     		add	r0, sp, #12
 507 00ae 9847     		blx	r3
 508              	.LVL34:
 288:Service/Srv_Receiver.c ****                     break;
 509              		.loc 1 288 147 view .LVU148
 510 00b0 9DF80E30 		ldrb	r3, [sp, #14]	@ zero_extendqisi2
 288:Service/Srv_Receiver.c ****                     break;
ARM GAS  C:\Users\HUAV\AppData\Local\Temp\ccMGKi0w.s 			page 19


 511              		.loc 1 288 53 view .LVU149
 512 00b4 A4F81D30 		strh	r3, [r4, #29]	@ unaligned
 289:Service/Srv_Receiver.c **** 
 513              		.loc 1 289 21 is_stmt 1 view .LVU150
 514 00b8 C5E7     		b	.L28
 515              	.LVL35:
 516              	.L30:
 517              	.LBB6:
 300:Service/Srv_Receiver.c ****                         {
 518              		.loc 1 300 30 view .LVU151
 300:Service/Srv_Receiver.c ****                         {
 519              		.loc 1 300 33 is_stmt 0 view .LVU152
 520 00ba B1F5E16F 		cmp	r1, #1800
 521 00be 12D9     		bls	.L31
 302:Service/Srv_Receiver.c ****                         }
 522              		.loc 1 302 29 is_stmt 1 view .LVU153
 302:Service/Srv_Receiver.c ****                         }
 523              		.loc 1 302 60 is_stmt 0 view .LVU154
 524 00c0 4FF4E161 		mov	r1, #1800
 525 00c4 1152     		strh	r1, [r2, r0]	@ movhi
 526 00c6 0EE0     		b	.L31
 527              	.L32:
 294:Service/Srv_Receiver.c ****                     {
 528              		.loc 1 294 72 is_stmt 1 discriminator 2 view .LVU155
 294:Service/Srv_Receiver.c ****                     {
 529              		.loc 1 294 73 is_stmt 0 discriminator 2 view .LVU156
 530 00c8 0133     		adds	r3, r3, #1
 531              	.LVL36:
 294:Service/Srv_Receiver.c ****                     {
 532              		.loc 1 294 73 discriminator 2 view .LVU157
 533 00ca DBB2     		uxtb	r3, r3
 534              	.LVL37:
 535              	.L29:
 294:Service/Srv_Receiver.c ****                     {
 536              		.loc 1 294 41 is_stmt 1 discriminator 1 view .LVU158
 294:Service/Srv_Receiver.c ****                     {
 537              		.loc 1 294 57 is_stmt 0 discriminator 1 view .LVU159
 538 00cc A27B     		ldrb	r2, [r4, #14]	@ zero_extendqisi2
 294:Service/Srv_Receiver.c ****                     {
 539              		.loc 1 294 21 discriminator 1 view .LVU160
 540 00ce 9A42     		cmp	r2, r3
 541 00d0 1ED9     		bls	.L43
 296:Service/Srv_Receiver.c ****                         {
 542              		.loc 1 296 25 is_stmt 1 view .LVU161
 296:Service/Srv_Receiver.c ****                         {
 543              		.loc 1 296 47 is_stmt 0 view .LVU162
 544 00d2 D4F81720 		ldr	r2, [r4, #23]	@ unaligned
 296:Service/Srv_Receiver.c ****                         {
 545              		.loc 1 296 56 view .LVU163
 546 00d6 5800     		lsls	r0, r3, #1
 547 00d8 32F81310 		ldrh	r1, [r2, r3, lsl #1]
 296:Service/Srv_Receiver.c ****                         {
 548              		.loc 1 296 28 view .LVU164
 549 00dc B329     		cmp	r1, #179
 550 00de ECD8     		bhi	.L30
 298:Service/Srv_Receiver.c ****                         }
 551              		.loc 1 298 29 is_stmt 1 view .LVU165
ARM GAS  C:\Users\HUAV\AppData\Local\Temp\ccMGKi0w.s 			page 20


 298:Service/Srv_Receiver.c ****                         }
 552              		.loc 1 298 60 is_stmt 0 view .LVU166
 553 00e0 B421     		movs	r1, #180
 554 00e2 22F81310 		strh	r1, [r2, r3, lsl #1]	@ movhi
 555              	.L31:
 305:Service/Srv_Receiver.c ****                         {
 556              		.loc 1 305 25 is_stmt 1 view .LVU167
 305:Service/Srv_Receiver.c ****                         {
 557              		.loc 1 305 41 is_stmt 0 view .LVU168
 558 00e6 D4F82A20 		ldr	r2, [r4, #42]	@ unaligned
 305:Service/Srv_Receiver.c ****                         {
 559              		.loc 1 305 28 view .LVU169
 560 00ea 002A     		cmp	r2, #0
 561 00ec ECD0     		beq	.L32
 305:Service/Srv_Receiver.c ****                         {
 562              		.loc 1 305 89 discriminator 1 view .LVU170
 563 00ee 0121     		movs	r1, #1
 564 00f0 9940     		lsls	r1, r1, r3
 305:Service/Srv_Receiver.c ****                         {
 565              		.loc 1 305 55 discriminator 1 view .LVU171
 566 00f2 0A42     		tst	r2, r1
 567 00f4 E8D0     		beq	.L32
 307:Service/Srv_Receiver.c ****                             receiver_obj->data.val_list[i] = CHANNEL_RANGE_MID - receiver_obj->data
 568              		.loc 1 307 29 is_stmt 1 view .LVU172
 307:Service/Srv_Receiver.c ****                             receiver_obj->data.val_list[i] = CHANNEL_RANGE_MID - receiver_obj->data
 569              		.loc 1 307 47 is_stmt 0 view .LVU173
 570 00f6 D4F81710 		ldr	r1, [r4, #23]	@ unaligned
 307:Service/Srv_Receiver.c ****                             receiver_obj->data.val_list[i] = CHANNEL_RANGE_MID - receiver_obj->data
 571              		.loc 1 307 60 view .LVU174
 572 00fa 0A5A     		ldrh	r2, [r1, r0]
 573 00fc A2F57A72 		sub	r2, r2, #1000
 574 0100 0A52     		strh	r2, [r1, r0]	@ movhi
 308:Service/Srv_Receiver.c ****                         }
 575              		.loc 1 308 29 is_stmt 1 view .LVU175
 308:Service/Srv_Receiver.c ****                         }
 576              		.loc 1 308 100 is_stmt 0 view .LVU176
 577 0102 D4F81710 		ldr	r1, [r4, #23]	@ unaligned
 308:Service/Srv_Receiver.c ****                         }
 578              		.loc 1 308 109 view .LVU177
 579 0106 0A5A     		ldrh	r2, [r1, r0]
 308:Service/Srv_Receiver.c ****                         }
 580              		.loc 1 308 80 view .LVU178
 581 0108 C2F57A72 		rsb	r2, r2, #1000
 308:Service/Srv_Receiver.c ****                         }
 582              		.loc 1 308 60 view .LVU179
 583 010c 0A52     		strh	r2, [r1, r0]	@ movhi
 584 010e DBE7     		b	.L32
 585              	.L43:
 308:Service/Srv_Receiver.c ****                         }
 586              		.loc 1 308 60 view .LVU180
 587              	.LBE6:
 312:Service/Srv_Receiver.c ****                     break;
 588              		.loc 1 312 21 is_stmt 1 view .LVU181
 312:Service/Srv_Receiver.c ****                     break;
 589              		.loc 1 312 49 is_stmt 0 view .LVU182
 590 0110 0023     		movs	r3, #0
 591              	.LVL38:
ARM GAS  C:\Users\HUAV\AppData\Local\Temp\ccMGKi0w.s 			page 21


 312:Service/Srv_Receiver.c ****                     break;
 592              		.loc 1 312 49 view .LVU183
 593 0112 E377     		strb	r3, [r4, #31]
 313:Service/Srv_Receiver.c **** 
 594              		.loc 1 313 21 is_stmt 1 view .LVU184
 595 0114 97E7     		b	.L28
 596              	.LVL39:
 597              	.L35:
 598              	.LBB7:
 323:Service/Srv_Receiver.c ****                     {
 599              		.loc 1 323 72 discriminator 2 view .LVU185
 323:Service/Srv_Receiver.c ****                     {
 600              		.loc 1 323 73 is_stmt 0 discriminator 2 view .LVU186
 601 0116 0133     		adds	r3, r3, #1
 602              	.LVL40:
 323:Service/Srv_Receiver.c ****                     {
 603              		.loc 1 323 73 discriminator 2 view .LVU187
 604 0118 DBB2     		uxtb	r3, r3
 605              	.LVL41:
 606              	.L34:
 323:Service/Srv_Receiver.c ****                     {
 607              		.loc 1 323 41 is_stmt 1 discriminator 1 view .LVU188
 323:Service/Srv_Receiver.c ****                     {
 608              		.loc 1 323 57 is_stmt 0 discriminator 1 view .LVU189
 609 011a A27B     		ldrb	r2, [r4, #14]	@ zero_extendqisi2
 323:Service/Srv_Receiver.c ****                     {
 610              		.loc 1 323 21 discriminator 1 view .LVU190
 611 011c 9A42     		cmp	r2, r3
 612 011e 92D9     		bls	.L28
 325:Service/Srv_Receiver.c **** 
 613              		.loc 1 325 25 is_stmt 1 view .LVU191
 325:Service/Srv_Receiver.c **** 
 614              		.loc 1 325 93 is_stmt 0 view .LVU192
 615 0120 D4F80F10 		ldr	r1, [r4, #15]	@ unaligned
 325:Service/Srv_Receiver.c **** 
 616              		.loc 1 325 43 view .LVU193
 617 0124 D4F81720 		ldr	r2, [r4, #23]	@ unaligned
 325:Service/Srv_Receiver.c **** 
 618              		.loc 1 325 52 view .LVU194
 619 0128 5800     		lsls	r0, r3, #1
 325:Service/Srv_Receiver.c **** 
 620              		.loc 1 325 115 view .LVU195
 621 012a 31F81310 		ldrh	r1, [r1, r3, lsl #1]	@ unaligned
 325:Service/Srv_Receiver.c **** 
 622              		.loc 1 325 56 view .LVU196
 623 012e 22F81310 		strh	r1, [r2, r3, lsl #1]	@ movhi
 327:Service/Srv_Receiver.c ****                         {
 624              		.loc 1 327 25 is_stmt 1 view .LVU197
 327:Service/Srv_Receiver.c ****                         {
 625              		.loc 1 327 41 is_stmt 0 view .LVU198
 626 0132 D4F82A20 		ldr	r2, [r4, #42]	@ unaligned
 327:Service/Srv_Receiver.c ****                         {
 627              		.loc 1 327 28 view .LVU199
 628 0136 002A     		cmp	r2, #0
 629 0138 EDD0     		beq	.L35
 327:Service/Srv_Receiver.c ****                         {
 630              		.loc 1 327 88 discriminator 1 view .LVU200
ARM GAS  C:\Users\HUAV\AppData\Local\Temp\ccMGKi0w.s 			page 22


 631 013a 0121     		movs	r1, #1
 632 013c 9940     		lsls	r1, r1, r3
 327:Service/Srv_Receiver.c ****                         {
 633              		.loc 1 327 55 discriminator 1 view .LVU201
 634 013e 0A42     		tst	r2, r1
 635 0140 E9D0     		beq	.L35
 329:Service/Srv_Receiver.c ****                             receiver_obj->data.val_list[i] = CHANNEL_RANGE_MID - receiver_obj->data
 636              		.loc 1 329 29 is_stmt 1 view .LVU202
 329:Service/Srv_Receiver.c ****                             receiver_obj->data.val_list[i] = CHANNEL_RANGE_MID - receiver_obj->data
 637              		.loc 1 329 47 is_stmt 0 view .LVU203
 638 0142 D4F81710 		ldr	r1, [r4, #23]	@ unaligned
 329:Service/Srv_Receiver.c ****                             receiver_obj->data.val_list[i] = CHANNEL_RANGE_MID - receiver_obj->data
 639              		.loc 1 329 60 view .LVU204
 640 0146 0A5A     		ldrh	r2, [r1, r0]
 641 0148 A2F57A72 		sub	r2, r2, #1000
 642 014c 0A52     		strh	r2, [r1, r0]	@ movhi
 330:Service/Srv_Receiver.c ****                         }
 643              		.loc 1 330 29 is_stmt 1 view .LVU205
 330:Service/Srv_Receiver.c ****                         }
 644              		.loc 1 330 100 is_stmt 0 view .LVU206
 645 014e D4F81710 		ldr	r1, [r4, #23]	@ unaligned
 330:Service/Srv_Receiver.c ****                         }
 646              		.loc 1 330 109 view .LVU207
 647 0152 0A5A     		ldrh	r2, [r1, r0]
 330:Service/Srv_Receiver.c ****                         }
 648              		.loc 1 330 80 view .LVU208
 649 0154 C2F57A72 		rsb	r2, r2, #1000
 330:Service/Srv_Receiver.c ****                         }
 650              		.loc 1 330 60 view .LVU209
 651 0158 0A52     		strh	r2, [r1, r0]	@ movhi
 652 015a DCE7     		b	.L35
 653              	.LVL42:
 654              	.L38:
 655              	.LCFI9:
 656              		.cfi_def_cfa_offset 0
 657              		.cfi_restore 4
 658              		.cfi_restore 5
 659              		.cfi_restore 14
 330:Service/Srv_Receiver.c ****                         }
 660              		.loc 1 330 60 view .LVU210
 661 015c 7047     		bx	lr
 662              	.LBE7:
 663              		.cfi_endproc
 664              	.LFE150:
 666              		.section	.rodata.SrvReceiver_Init.str1.4,"aMS",%progbits,1
 667              		.align	2
 668              	.LC0:
 669 0000 53727652 		.ascii	"SrvReceiver_Error\000"
 669      65636569 
 669      7665725F 
 669      4572726F 
 669      7200
 670              		.section	.text.SrvReceiver_Init,"ax",%progbits
 671              		.align	1
 672              		.syntax unified
 673              		.thumb
 674              		.thumb_func
ARM GAS  C:\Users\HUAV\AppData\Local\Temp\ccMGKi0w.s 			page 23


 675              		.fpu fpv5-d16
 677              	SrvReceiver_Init:
 678              	.LVL43:
 679              	.LFB149:
 130:Service/Srv_Receiver.c ****     bool data_obj_error = false;
 680              		.loc 1 130 1 is_stmt 1 view -0
 681              		.cfi_startproc
 682              		@ args = 0, pretend = 0, frame = 0
 683              		@ frame_needed = 0, uses_anonymous_args = 0
 130:Service/Srv_Receiver.c ****     bool data_obj_error = false;
 684              		.loc 1 130 1 is_stmt 0 view .LVU212
 685 0000 F8B5     		push	{r3, r4, r5, r6, r7, lr}
 686              	.LCFI10:
 687              		.cfi_def_cfa_offset 24
 688              		.cfi_offset 3, -24
 689              		.cfi_offset 4, -20
 690              		.cfi_offset 5, -16
 691              		.cfi_offset 6, -12
 692              		.cfi_offset 7, -8
 693              		.cfi_offset 14, -4
 131:Service/Srv_Receiver.c ****     BspUARTObj_TypeDef *Uart_Receiver_Obj = NULL;
 694              		.loc 1 131 5 is_stmt 1 view .LVU213
 695              	.LVL44:
 132:Service/Srv_Receiver.c **** 
 696              		.loc 1 132 5 view .LVU214
 134:Service/Srv_Receiver.c ****         return false;
 697              		.loc 1 134 5 view .LVU215
 134:Service/Srv_Receiver.c ****         return false;
 698              		.loc 1 134 36 is_stmt 0 view .LVU216
 699 0002 0E46     		mov	r6, r1
 700 0004 B1FA81F1 		clz	r1, r1
 701              	.LVL45:
 134:Service/Srv_Receiver.c ****         return false;
 702              		.loc 1 134 36 view .LVU217
 703 0008 4909     		lsrs	r1, r1, #5
 134:Service/Srv_Receiver.c ****         return false;
 704              		.loc 1 134 23 view .LVU218
 705 000a 0028     		cmp	r0, #0
 706 000c 14BF     		ite	ne
 707 000e 0C46     		movne	r4, r1
 708 0010 0124     		moveq	r4, #1
 134:Service/Srv_Receiver.c ****         return false;
 709              		.loc 1 134 8 view .LVU219
 710 0012 14B1     		cbz	r4, .L63
 135:Service/Srv_Receiver.c **** 
 711              		.loc 1 135 16 view .LVU220
 712 0014 0024     		movs	r4, #0
 713              	.LVL46:
 714              	.L45:
 259:Service/Srv_Receiver.c **** 
 715              		.loc 1 259 1 view .LVU221
 716 0016 2046     		mov	r0, r4
 717 0018 F8BD     		pop	{r3, r4, r5, r6, r7, pc}
 718              	.LVL47:
 719              	.L63:
 259:Service/Srv_Receiver.c **** 
 720              		.loc 1 259 1 view .LVU222
ARM GAS  C:\Users\HUAV\AppData\Local\Temp\ccMGKi0w.s 			page 24


 721 001a 0546     		mov	r5, r0
 137:Service/Srv_Receiver.c **** 
 722              		.loc 1 137 5 is_stmt 1 view .LVU223
 723 001c 4FF48072 		mov	r2, #256
 724 0020 0021     		movs	r1, #0
 725 0022 5F48     		ldr	r0, .L69
 726              	.LVL48:
 137:Service/Srv_Receiver.c **** 
 727              		.loc 1 137 5 is_stmt 0 view .LVU224
 728 0024 FFF7FEFF 		bl	memset
 729              	.LVL49:
 140:Service/Srv_Receiver.c **** 
 730              		.loc 1 140 5 is_stmt 1 view .LVU225
 140:Service/Srv_Receiver.c **** 
 731              		.loc 1 140 40 is_stmt 0 view .LVU226
 732 0028 5E4F     		ldr	r7, .L69+4
 733 002a 3B68     		ldr	r3, [r7]
 140:Service/Srv_Receiver.c **** 
 734              		.loc 1 140 32 view .LVU227
 735 002c 5E48     		ldr	r0, .L69+8
 736 002e 9847     		blx	r3
 737              	.LVL50:
 140:Service/Srv_Receiver.c **** 
 738              		.loc 1 140 30 view .LVU228
 739 0030 5E4B     		ldr	r3, .L69+12
 740 0032 1860     		str	r0, [r3]
 143:Service/Srv_Receiver.c **** 
 741              		.loc 1 143 5 is_stmt 1 view .LVU229
 143:Service/Srv_Receiver.c **** 
 742              		.loc 1 143 13 is_stmt 0 view .LVU230
 743 0034 7B68     		ldr	r3, [r7, #4]
 143:Service/Srv_Receiver.c **** 
 744              		.loc 1 143 5 view .LVU231
 745 0036 0422     		movs	r2, #4
 746 0038 5D49     		ldr	r1, .L69+16
 747 003a 9847     		blx	r3
 748              	.LVL51:
 145:Service/Srv_Receiver.c ****     {
 749              		.loc 1 145 5 is_stmt 1 view .LVU232
 145:Service/Srv_Receiver.c ****     {
 750              		.loc 1 145 16 is_stmt 0 view .LVU233
 751 003c 6B78     		ldrb	r3, [r5, #1]	@ zero_extendqisi2
 145:Service/Srv_Receiver.c ****     {
 752              		.loc 1 145 5 view .LVU234
 753 003e 012B     		cmp	r3, #1
 754 0040 0AD0     		beq	.L46
 145:Service/Srv_Receiver.c ****     {
 755              		.loc 1 145 5 view .LVU235
 756 0042 022B     		cmp	r3, #2
 757 0044 66D0     		beq	.L47
 252:Service/Srv_Receiver.c ****         return false;
 758              		.loc 1 252 9 is_stmt 1 view .LVU236
 252:Service/Srv_Receiver.c ****         return false;
 759              		.loc 1 252 17 is_stmt 0 view .LVU237
 760 0046 574B     		ldr	r3, .L69+4
 761 0048 9D68     		ldr	r5, [r3, #8]
 762              	.LVL52:
ARM GAS  C:\Users\HUAV\AppData\Local\Temp\ccMGKi0w.s 			page 25


 252:Service/Srv_Receiver.c ****         return false;
 763              		.loc 1 252 9 view .LVU238
 764 004a 1E23     		movs	r3, #30
 765 004c 594A     		ldr	r2, .L69+20
 766 004e 0121     		movs	r1, #1
 767 0050 5648     		ldr	r0, .L69+12
 768 0052 0068     		ldr	r0, [r0]
 769 0054 A847     		blx	r5
 770              	.LVL53:
 253:Service/Srv_Receiver.c ****     }
 771              		.loc 1 253 9 is_stmt 1 view .LVU239
 253:Service/Srv_Receiver.c ****     }
 772              		.loc 1 253 16 is_stmt 0 view .LVU240
 773 0056 DEE7     		b	.L45
 774              	.LVL54:
 775              	.L46:
 148:Service/Srv_Receiver.c **** 
 776              		.loc 1 148 9 is_stmt 1 view .LVU241
 150:Service/Srv_Receiver.c **** 
 777              		.loc 1 150 9 view .LVU242
 778 0058 1E22     		movs	r2, #30
 779 005a 0021     		movs	r1, #0
 780 005c 5548     		ldr	r0, .L69+20
 781 005e FFF7FEFF 		bl	memset
 782              	.LVL55:
 152:Service/Srv_Receiver.c ****         {
 783              		.loc 1 152 9 view .LVU243
 152:Service/Srv_Receiver.c ****         {
 784              		.loc 1 152 20 is_stmt 0 view .LVU244
 785 0062 2B78     		ldrb	r3, [r5]	@ zero_extendqisi2
 786 0064 002B     		cmp	r3, #0
 787 0066 60D0     		beq	.L49
 788 0068 012B     		cmp	r3, #1
 789 006a D4D1     		bne	.L45
 180:Service/Srv_Receiver.c **** 
 790              		.loc 1 180 13 is_stmt 1 view .LVU245
 180:Service/Srv_Receiver.c **** 
 791              		.loc 1 180 41 is_stmt 0 view .LVU246
 792 006c 6FF05F03 		mvn	r3, #95
 793 0070 3370     		strb	r3, [r6]
 794 0072 6823     		movs	r3, #104
 795 0074 7370     		strb	r3, [r6, #1]
 796 0076 0623     		movs	r3, #6
 797 0078 B370     		strb	r3, [r6, #2]
 798 007a 0023     		movs	r3, #0
 799 007c F370     		strb	r3, [r6, #3]
 183:Service/Srv_Receiver.c ****             if (obj->frame_data_obj == NULL)
 800              		.loc 1 183 13 is_stmt 1 view .LVU247
 183:Service/Srv_Receiver.c ****             if (obj->frame_data_obj == NULL)
 801              		.loc 1 183 35 is_stmt 0 view .LVU248
 802 007e 6E20     		movs	r0, #110
 803 0080 FFF7FEFF 		bl	MMU_Malloc
 804              	.LVL56:
 183:Service/Srv_Receiver.c ****             if (obj->frame_data_obj == NULL)
 805              		.loc 1 183 33 view .LVU249
 806 0084 C5F80F00 		str	r0, [r5, #15]	@ unaligned
 184:Service/Srv_Receiver.c ****             {
ARM GAS  C:\Users\HUAV\AppData\Local\Temp\ccMGKi0w.s 			page 26


 807              		.loc 1 184 13 is_stmt 1 view .LVU250
 184:Service/Srv_Receiver.c ****             {
 808              		.loc 1 184 16 is_stmt 0 view .LVU251
 809 0088 0028     		cmp	r0, #0
 810 008a 6BD0     		beq	.L59
 191:Service/Srv_Receiver.c ****             obj->inverter_init = NULL;
 811              		.loc 1 191 13 is_stmt 1 view .LVU252
 191:Service/Srv_Receiver.c ****             obj->inverter_init = NULL;
 812              		.loc 1 191 33 is_stmt 0 view .LVU253
 813 008c 0023     		movs	r3, #0
 814 008e 85F84630 		strb	r3, [r5, #70]
 815 0092 85F84730 		strb	r3, [r5, #71]
 816 0096 85F84830 		strb	r3, [r5, #72]
 817 009a 85F84930 		strb	r3, [r5, #73]
 192:Service/Srv_Receiver.c **** 
 818              		.loc 1 192 13 is_stmt 1 view .LVU254
 192:Service/Srv_Receiver.c **** 
 819              		.loc 1 192 32 is_stmt 0 view .LVU255
 820 009e 85F84230 		strb	r3, [r5, #66]
 821 00a2 85F84330 		strb	r3, [r5, #67]
 822 00a6 85F84430 		strb	r3, [r5, #68]
 823 00aa 85F84530 		strb	r3, [r5, #69]
 195:Service/Srv_Receiver.c **** 
 824              		.loc 1 195 13 is_stmt 1 view .LVU256
 195:Service/Srv_Receiver.c **** 
 825              		.loc 1 195 30 is_stmt 0 view .LVU257
 826 00ae 1023     		movs	r3, #16
 827 00b0 AB73     		strb	r3, [r5, #14]
 198:Service/Srv_Receiver.c **** 
 828              		.loc 1 198 13 is_stmt 1 view .LVU258
 198:Service/Srv_Receiver.c **** 
 829              		.loc 1 198 28 is_stmt 0 view .LVU259
 830 00b2 414B     		ldr	r3, .L69+24
 831 00b4 2B62     		str	r3, [r5, #32]	@ unaligned
 200:Service/Srv_Receiver.c ****                 return false;
 832              		.loc 1 200 13 is_stmt 1 view .LVU260
 200:Service/Srv_Receiver.c ****                 return false;
 833              		.loc 1 200 55 is_stmt 0 view .LVU261
 834 00b6 1B68     		ldr	r3, [r3]
 200:Service/Srv_Receiver.c ****                 return false;
 835              		.loc 1 200 19 view .LVU262
 836 00b8 9847     		blx	r3
 837              	.LVL57:
 200:Service/Srv_Receiver.c ****                 return false;
 838              		.loc 1 200 16 view .LVU263
 839 00ba 0028     		cmp	r0, #0
 840 00bc 6ED0     		beq	.L60
 131:Service/Srv_Receiver.c ****     BspUARTObj_TypeDef *Uart_Receiver_Obj = NULL;
 841              		.loc 1 131 10 view .LVU264
 842 00be 2746     		mov	r7, r4
 843              	.L51:
 844              	.LVL58:
 208:Service/Srv_Receiver.c ****         if (!obj->data.val_list)
 845              		.loc 1 208 9 is_stmt 1 view .LVU265
 208:Service/Srv_Receiver.c ****         if (!obj->data.val_list)
 846              		.loc 1 208 75 is_stmt 0 view .LVU266
 847 00c0 A87B     		ldrb	r0, [r5, #14]	@ zero_extendqisi2
ARM GAS  C:\Users\HUAV\AppData\Local\Temp\ccMGKi0w.s 			page 27


 208:Service/Srv_Receiver.c ****         if (!obj->data.val_list)
 848              		.loc 1 208 42 view .LVU267
 849 00c2 4000     		lsls	r0, r0, #1
 850 00c4 FFF7FEFF 		bl	MMU_Malloc
 851              	.LVL59:
 208:Service/Srv_Receiver.c ****         if (!obj->data.val_list)
 852              		.loc 1 208 28 view .LVU268
 853 00c8 C5F81700 		str	r0, [r5, #23]	@ unaligned
 209:Service/Srv_Receiver.c ****         {
 854              		.loc 1 209 9 is_stmt 1 view .LVU269
 209:Service/Srv_Receiver.c ****         {
 855              		.loc 1 209 12 is_stmt 0 view .LVU270
 856 00cc 0028     		cmp	r0, #0
 857 00ce 4BD0     		beq	.L64
 215:Service/Srv_Receiver.c ****         if (!obj->port)
 858              		.loc 1 215 9 is_stmt 1 view .LVU271
 215:Service/Srv_Receiver.c ****         if (!obj->port)
 859              		.loc 1 215 49 is_stmt 0 view .LVU272
 860 00d0 0820     		movs	r0, #8
 861 00d2 FFF7FEFF 		bl	MMU_Malloc
 862              	.LVL60:
 215:Service/Srv_Receiver.c ****         if (!obj->port)
 863              		.loc 1 215 19 view .LVU273
 864 00d6 6862     		str	r0, [r5, #36]	@ unaligned
 216:Service/Srv_Receiver.c ****         {
 865              		.loc 1 216 9 is_stmt 1 view .LVU274
 216:Service/Srv_Receiver.c ****         {
 866              		.loc 1 216 12 is_stmt 0 view .LVU275
 867 00d8 0028     		cmp	r0, #0
 868 00da 48D0     		beq	.L65
 222:Service/Srv_Receiver.c ****         {
 869              		.loc 1 222 9 is_stmt 1 view .LVU276
 222:Service/Srv_Receiver.c ****         {
 870              		.loc 1 222 12 is_stmt 0 view .LVU277
 871 00dc 002F     		cmp	r7, #0
 872 00de 4BD1     		bne	.L66
 229:Service/Srv_Receiver.c ****         Uart_Receiver_Obj->rx_size = SRV_RECEIVER_BUFF_SIZE;
 873              		.loc 1 229 9 is_stmt 1 view .LVU278
 229:Service/Srv_Receiver.c ****         Uart_Receiver_Obj->rx_size = SRV_RECEIVER_BUFF_SIZE;
 874              		.loc 1 229 35 is_stmt 0 view .LVU279
 875 00e0 2F4B     		ldr	r3, .L69
 876 00e2 C6F8AD31 		str	r3, [r6, #429]	@ unaligned
 230:Service/Srv_Receiver.c ****         Uart_Receiver_Obj->cust_data_addr = obj;
 877              		.loc 1 230 9 is_stmt 1 view .LVU280
 230:Service/Srv_Receiver.c ****         Uart_Receiver_Obj->cust_data_addr = obj;
 878              		.loc 1 230 36 is_stmt 0 view .LVU281
 879 00e6 0023     		movs	r3, #0
 880 00e8 86F8B131 		strb	r3, [r6, #433]
 881 00ec 0123     		movs	r3, #1
 882 00ee 86F8B231 		strb	r3, [r6, #434]
 231:Service/Srv_Receiver.c **** 
 883              		.loc 1 231 9 is_stmt 1 view .LVU282
 231:Service/Srv_Receiver.c **** 
 884              		.loc 1 231 43 is_stmt 0 view .LVU283
 885 00f2 C6F8B451 		str	r5, [r6, #436]	@ unaligned
 234:Service/Srv_Receiver.c **** 
 886              		.loc 1 234 9 is_stmt 1 view .LVU284
ARM GAS  C:\Users\HUAV\AppData\Local\Temp\ccMGKi0w.s 			page 28


 234:Service/Srv_Receiver.c **** 
 887              		.loc 1 234 39 is_stmt 0 view .LVU285
 888 00f6 314B     		ldr	r3, .L69+28
 889 00f8 C6F8A931 		str	r3, [r6, #425]	@ unaligned
 237:Service/Srv_Receiver.c ****         {
 890              		.loc 1 237 9 is_stmt 1 view .LVU286
 237:Service/Srv_Receiver.c ****         {
 891              		.loc 1 237 21 is_stmt 0 view .LVU287
 892 00fc 304B     		ldr	r3, .L69+32
 893 00fe 1B68     		ldr	r3, [r3]
 237:Service/Srv_Receiver.c ****         {
 894              		.loc 1 237 14 view .LVU288
 895 0100 3046     		mov	r0, r6
 896 0102 9847     		blx	r3
 897              	.LVL61:
 237:Service/Srv_Receiver.c ****         {
 898              		.loc 1 237 12 view .LVU289
 899 0104 0446     		mov	r4, r0
 900 0106 0028     		cmp	r0, #0
 901 0108 3FD0     		beq	.L67
 243:Service/Srv_Receiver.c ****         obj->port->cfg = Uart_Receiver_Obj;
 902              		.loc 1 243 9 is_stmt 1 view .LVU290
 243:Service/Srv_Receiver.c ****         obj->port->cfg = Uart_Receiver_Obj;
 903              		.loc 1 243 12 is_stmt 0 view .LVU291
 904 010a 6B6A     		ldr	r3, [r5, #36]	@ unaligned
 243:Service/Srv_Receiver.c ****         obj->port->cfg = Uart_Receiver_Obj;
 905              		.loc 1 243 24 view .LVU292
 906 010c 2C4A     		ldr	r2, .L69+32
 907 010e 1A60     		str	r2, [r3]	@ unaligned
 244:Service/Srv_Receiver.c ****         break;
 908              		.loc 1 244 9 is_stmt 1 view .LVU293
 244:Service/Srv_Receiver.c ****         break;
 909              		.loc 1 244 12 is_stmt 0 view .LVU294
 910 0110 6B6A     		ldr	r3, [r5, #36]	@ unaligned
 244:Service/Srv_Receiver.c ****         break;
 911              		.loc 1 244 24 view .LVU295
 912 0112 5E60     		str	r6, [r3, #4]	@ unaligned
 245:Service/Srv_Receiver.c **** 
 913              		.loc 1 245 9 is_stmt 1 view .LVU296
 914              	.LVL62:
 915              	.L47:
 256:Service/Srv_Receiver.c **** 
 916              		.loc 1 256 5 view .LVU297
 256:Service/Srv_Receiver.c **** 
 917              		.loc 1 256 22 is_stmt 0 view .LVU298
 918 0114 0023     		movs	r3, #0
 919 0116 85F82A30 		strb	r3, [r5, #42]
 920 011a 85F82B30 		strb	r3, [r5, #43]
 921 011e 85F82C30 		strb	r3, [r5, #44]
 922 0122 85F82D30 		strb	r3, [r5, #45]
 258:Service/Srv_Receiver.c **** }
 923              		.loc 1 258 5 is_stmt 1 view .LVU299
 258:Service/Srv_Receiver.c **** }
 924              		.loc 1 258 12 is_stmt 0 view .LVU300
 925 0126 0124     		movs	r4, #1
 926 0128 75E7     		b	.L45
 927              	.LVL63:
ARM GAS  C:\Users\HUAV\AppData\Local\Temp\ccMGKi0w.s 			page 29


 928              	.L49:
 155:Service/Srv_Receiver.c **** 
 929              		.loc 1 155 13 is_stmt 1 view .LVU301
 155:Service/Srv_Receiver.c **** 
 930              		.loc 1 155 41 is_stmt 0 view .LVU302
 931 012a 6FF05F03 		mvn	r3, #95
 932 012e 3370     		strb	r3, [r6]
 933 0130 6FF07903 		mvn	r3, #121
 934 0134 7370     		strb	r3, [r6, #1]
 935 0136 0123     		movs	r3, #1
 936 0138 B370     		strb	r3, [r6, #2]
 937 013a 0023     		movs	r3, #0
 938 013c F370     		strb	r3, [r6, #3]
 158:Service/Srv_Receiver.c ****             if (obj->frame_data_obj == NULL)
 939              		.loc 1 158 13 is_stmt 1 view .LVU303
 158:Service/Srv_Receiver.c ****             if (obj->frame_data_obj == NULL)
 940              		.loc 1 158 35 is_stmt 0 view .LVU304
 941 013e 2120     		movs	r0, #33
 942 0140 FFF7FEFF 		bl	MMU_Malloc
 943              	.LVL64:
 158:Service/Srv_Receiver.c ****             if (obj->frame_data_obj == NULL)
 944              		.loc 1 158 33 view .LVU305
 945 0144 C5F80F00 		str	r0, [r5, #15]	@ unaligned
 159:Service/Srv_Receiver.c ****             {
 946              		.loc 1 159 13 is_stmt 1 view .LVU306
 159:Service/Srv_Receiver.c ****             {
 947              		.loc 1 159 16 is_stmt 0 view .LVU307
 948 0148 50B1     		cbz	r0, .L57
 170:Service/Srv_Receiver.c **** 
 949              		.loc 1 170 13 is_stmt 1 view .LVU308
 170:Service/Srv_Receiver.c **** 
 950              		.loc 1 170 30 is_stmt 0 view .LVU309
 951 014a 1023     		movs	r3, #16
 952 014c AB73     		strb	r3, [r5, #14]
 173:Service/Srv_Receiver.c **** 
 953              		.loc 1 173 13 is_stmt 1 view .LVU310
 173:Service/Srv_Receiver.c **** 
 954              		.loc 1 173 28 is_stmt 0 view .LVU311
 955 014e 1D4B     		ldr	r3, .L69+36
 956 0150 2B62     		str	r3, [r5, #32]	@ unaligned
 175:Service/Srv_Receiver.c ****                 return false;
 957              		.loc 1 175 13 is_stmt 1 view .LVU312
 175:Service/Srv_Receiver.c ****                 return false;
 958              		.loc 1 175 55 is_stmt 0 view .LVU313
 959 0152 1B68     		ldr	r3, [r3]
 175:Service/Srv_Receiver.c ****                 return false;
 960              		.loc 1 175 19 view .LVU314
 961 0154 9847     		blx	r3
 962              	.LVL65:
 175:Service/Srv_Receiver.c ****                 return false;
 963              		.loc 1 175 16 view .LVU315
 964 0156 08B1     		cbz	r0, .L68
 131:Service/Srv_Receiver.c ****     BspUARTObj_TypeDef *Uart_Receiver_Obj = NULL;
 965              		.loc 1 131 10 view .LVU316
 966 0158 2746     		mov	r7, r4
 967 015a B1E7     		b	.L51
 968              	.L68:
ARM GAS  C:\Users\HUAV\AppData\Local\Temp\ccMGKi0w.s 			page 30


 176:Service/Srv_Receiver.c ****             break;
 969              		.loc 1 176 24 view .LVU317
 970 015c 0446     		mov	r4, r0
 971 015e 5AE7     		b	.L45
 972              	.L57:
 161:Service/Srv_Receiver.c ****                 break;
 973              		.loc 1 161 32 view .LVU318
 974 0160 0127     		movs	r7, #1
 975 0162 ADE7     		b	.L51
 976              	.L59:
 186:Service/Srv_Receiver.c ****                 break;
 977              		.loc 1 186 32 view .LVU319
 978 0164 0127     		movs	r7, #1
 979 0166 ABE7     		b	.L51
 980              	.LVL66:
 981              	.L64:
 211:Service/Srv_Receiver.c ****             return false;
 982              		.loc 1 211 13 is_stmt 1 view .LVU320
 983 0168 FFF7FEFF 		bl	MMU_Free
 984              	.LVL67:
 212:Service/Srv_Receiver.c ****         }
 985              		.loc 1 212 13 view .LVU321
 212:Service/Srv_Receiver.c ****         }
 986              		.loc 1 212 20 is_stmt 0 view .LVU322
 987 016c 53E7     		b	.L45
 988              	.L65:
 218:Service/Srv_Receiver.c ****             return false;
 989              		.loc 1 218 13 is_stmt 1 view .LVU323
 990 016e D5F81700 		ldr	r0, [r5, #23]	@ unaligned
 991 0172 FFF7FEFF 		bl	MMU_Free
 992              	.LVL68:
 219:Service/Srv_Receiver.c ****         }
 993              		.loc 1 219 13 view .LVU324
 219:Service/Srv_Receiver.c ****         }
 994              		.loc 1 219 20 is_stmt 0 view .LVU325
 995 0176 4EE7     		b	.L45
 996              	.L66:
 224:Service/Srv_Receiver.c ****             return false;
 997              		.loc 1 224 13 is_stmt 1 view .LVU326
 224:Service/Srv_Receiver.c ****             return false;
 998              		.loc 1 224 21 is_stmt 0 view .LVU327
 999 0178 0A4B     		ldr	r3, .L69+4
 1000 017a 9D68     		ldr	r5, [r3, #8]
 1001              	.LVL69:
 224:Service/Srv_Receiver.c ****             return false;
 1002              		.loc 1 224 13 view .LVU328
 1003 017c 1E23     		movs	r3, #30
 1004 017e 0D4A     		ldr	r2, .L69+20
 1005 0180 0121     		movs	r1, #1
 1006 0182 0A48     		ldr	r0, .L69+12
 1007 0184 0068     		ldr	r0, [r0]
 1008 0186 A847     		blx	r5
 1009              	.LVL70:
 225:Service/Srv_Receiver.c ****         }
 1010              		.loc 1 225 13 is_stmt 1 view .LVU329
 225:Service/Srv_Receiver.c ****         }
 1011              		.loc 1 225 20 is_stmt 0 view .LVU330
ARM GAS  C:\Users\HUAV\AppData\Local\Temp\ccMGKi0w.s 			page 31


 1012 0188 45E7     		b	.L45
 1013              	.LVL71:
 1014              	.L67:
 239:Service/Srv_Receiver.c ****             return false;
 1015              		.loc 1 239 13 is_stmt 1 view .LVU331
 239:Service/Srv_Receiver.c ****             return false;
 1016              		.loc 1 239 21 is_stmt 0 view .LVU332
 1017 018a 064B     		ldr	r3, .L69+4
 1018 018c 9D68     		ldr	r5, [r3, #8]
 1019              	.LVL72:
 239:Service/Srv_Receiver.c ****             return false;
 1020              		.loc 1 239 13 view .LVU333
 1021 018e 1E23     		movs	r3, #30
 1022 0190 084A     		ldr	r2, .L69+20
 1023 0192 0321     		movs	r1, #3
 1024 0194 0548     		ldr	r0, .L69+12
 1025 0196 0068     		ldr	r0, [r0]
 1026 0198 A847     		blx	r5
 1027              	.LVL73:
 240:Service/Srv_Receiver.c ****         }
 1028              		.loc 1 240 13 is_stmt 1 view .LVU334
 240:Service/Srv_Receiver.c ****         }
 1029              		.loc 1 240 20 is_stmt 0 view .LVU335
 1030 019a 3CE7     		b	.L45
 1031              	.LVL74:
 1032              	.L60:
 201:Service/Srv_Receiver.c ****             break;
 1033              		.loc 1 201 24 view .LVU336
 1034 019c 0446     		mov	r4, r0
 1035 019e 3AE7     		b	.L45
 1036              	.L70:
 1037              		.align	2
 1038              	.L69:
 1039 01a0 00000000 		.word	.LANCHOR0
 1040 01a4 00000000 		.word	ErrorLog
 1041 01a8 00000000 		.word	.LC0
 1042 01ac 00000000 		.word	.LANCHOR1
 1043 01b0 00000000 		.word	.LANCHOR2
 1044 01b4 00000000 		.word	.LANCHOR3
 1045 01b8 00000000 		.word	DevCRSF
 1046 01bc 00000000 		.word	SrvReceiver_SerialDecode_Callback
 1047 01c0 00000000 		.word	BspUart
 1048 01c4 00000000 		.word	DevSBUS
 1049              		.cfi_endproc
 1050              	.LFE149:
 1052              		.section	.text.SrvReceiver_Create_UartObj,"ax",%progbits
 1053              		.align	1
 1054              		.syntax unified
 1055              		.thumb
 1056              		.thumb_func
 1057              		.fpu fpv5-d16
 1059              	SrvReceiver_Create_UartObj:
 1060              	.LVL75:
 1061              	.LFB147:
 100:Service/Srv_Receiver.c ****     BspUARTObj_TypeDef *Uart_Receiver_Obj = NULL;
 1062              		.loc 1 100 1 is_stmt 1 view -0
 1063              		.cfi_startproc
ARM GAS  C:\Users\HUAV\AppData\Local\Temp\ccMGKi0w.s 			page 32


 1064              		@ args = 32, pretend = 0, frame = 0
 1065              		@ frame_needed = 0, uses_anonymous_args = 0
 100:Service/Srv_Receiver.c ****     BspUARTObj_TypeDef *Uart_Receiver_Obj = NULL;
 1066              		.loc 1 100 1 is_stmt 0 view .LVU338
 1067 0000 2DE9F041 		push	{r4, r5, r6, r7, r8, lr}
 1068              	.LCFI11:
 1069              		.cfi_def_cfa_offset 24
 1070              		.cfi_offset 4, -24
 1071              		.cfi_offset 5, -20
 1072              		.cfi_offset 6, -16
 1073              		.cfi_offset 7, -12
 1074              		.cfi_offset 8, -8
 1075              		.cfi_offset 14, -4
 1076 0004 0546     		mov	r5, r0
 1077 0006 8846     		mov	r8, r1
 1078 0008 1746     		mov	r7, r2
 1079 000a 1E46     		mov	r6, r3
 101:Service/Srv_Receiver.c **** 
 1080              		.loc 1 101 5 is_stmt 1 view .LVU339
 1081              	.LVL76:
 103:Service/Srv_Receiver.c **** 
 1082              		.loc 1 103 5 view .LVU340
 103:Service/Srv_Receiver.c **** 
 1083              		.loc 1 103 47 is_stmt 0 view .LVU341
 1084 000c 4FF4EC70 		mov	r0, #472
 1085              	.LVL77:
 103:Service/Srv_Receiver.c **** 
 1086              		.loc 1 103 47 view .LVU342
 1087 0010 FFF7FEFF 		bl	MMU_Malloc
 1088              	.LVL78:
 105:Service/Srv_Receiver.c ****     {
 1089              		.loc 1 105 5 is_stmt 1 view .LVU343
 105:Service/Srv_Receiver.c ****     {
 1090              		.loc 1 105 8 is_stmt 0 view .LVU344
 1091 0014 0446     		mov	r4, r0
 1092 0016 28B3     		cbz	r0, .L75
 111:Service/Srv_Receiver.c **** 
 1093              		.loc 1 111 5 is_stmt 1 view .LVU345
 1094 0018 4FF4EC72 		mov	r2, #472
 1095 001c 0021     		movs	r1, #0
 1096 001e FFF7FEFF 		bl	memset
 1097              	.LVL79:
 113:Service/Srv_Receiver.c ****     Uart_Receiver_Obj->tx_io = tx_pin;
 1098              		.loc 1 113 5 view .LVU346
 113:Service/Srv_Receiver.c ****     Uart_Receiver_Obj->tx_io = tx_pin;
 1099              		.loc 1 113 33 is_stmt 0 view .LVU347
 1100 0022 C4F80550 		str	r5, [r4, #5]	@ unaligned
 114:Service/Srv_Receiver.c ****     Uart_Receiver_Obj->rx_io = rx_pin;
 1101              		.loc 1 114 5 is_stmt 1 view .LVU348
 114:Service/Srv_Receiver.c ****     Uart_Receiver_Obj->rx_io = rx_pin;
 1102              		.loc 1 114 30 is_stmt 0 view .LVU349
 1103 0026 08AD     		add	r5, sp, #32
 1104              	.LVL80:
 114:Service/Srv_Receiver.c ****     Uart_Receiver_Obj->rx_io = rx_pin;
 1105              		.loc 1 114 30 view .LVU350
 1106 0028 07CD     		ldmia	r5!, {r0, r1, r2}
 1107 002a C4F88D01 		str	r0, [r4, #397]	@ unaligned
ARM GAS  C:\Users\HUAV\AppData\Local\Temp\ccMGKi0w.s 			page 33


 1108 002e C4F89111 		str	r1, [r4, #401]	@ unaligned
 1109 0032 C4F89521 		str	r2, [r4, #405]	@ unaligned
 115:Service/Srv_Receiver.c ****     Uart_Receiver_Obj->pin_swap = swap;
 1110              		.loc 1 115 5 is_stmt 1 view .LVU351
 115:Service/Srv_Receiver.c ****     Uart_Receiver_Obj->pin_swap = swap;
 1111              		.loc 1 115 30 is_stmt 0 view .LVU352
 1112 0036 0BAD     		add	r5, sp, #44
 1113 0038 07CD     		ldmia	r5!, {r0, r1, r2}
 1114 003a C4F89901 		str	r0, [r4, #409]	@ unaligned
 1115 003e C4F89D11 		str	r1, [r4, #413]	@ unaligned
 1116 0042 C4F8A121 		str	r2, [r4, #417]	@ unaligned
 116:Service/Srv_Receiver.c ****     Uart_Receiver_Obj->rx_dma = rx_dma;
 1117              		.loc 1 116 5 is_stmt 1 view .LVU353
 116:Service/Srv_Receiver.c ****     Uart_Receiver_Obj->rx_dma = rx_dma;
 1118              		.loc 1 116 33 is_stmt 0 view .LVU354
 1119 0046 9DF81C30 		ldrb	r3, [sp, #28]	@ zero_extendqisi2
 1120 004a 2371     		strb	r3, [r4, #4]
 117:Service/Srv_Receiver.c ****     Uart_Receiver_Obj->rx_stream = rx_dma_stream;
 1121              		.loc 1 117 5 is_stmt 1 view .LVU355
 117:Service/Srv_Receiver.c ****     Uart_Receiver_Obj->rx_stream = rx_dma_stream;
 1122              		.loc 1 117 31 is_stmt 0 view .LVU356
 1123 004c 84F81381 		strb	r8, [r4, #275]
 118:Service/Srv_Receiver.c ****     Uart_Receiver_Obj->tx_dma = tx_dma;
 1124              		.loc 1 118 5 is_stmt 1 view .LVU357
 118:Service/Srv_Receiver.c ****     Uart_Receiver_Obj->tx_dma = tx_dma;
 1125              		.loc 1 118 34 is_stmt 0 view .LVU358
 1126 0050 84F81471 		strb	r7, [r4, #276]
 119:Service/Srv_Receiver.c ****     Uart_Receiver_Obj->tx_stream = tx_dma_stream;
 1127              		.loc 1 119 5 is_stmt 1 view .LVU359
 119:Service/Srv_Receiver.c ****     Uart_Receiver_Obj->tx_stream = tx_dma_stream;
 1128              		.loc 1 119 31 is_stmt 0 view .LVU360
 1129 0054 84F89960 		strb	r6, [r4, #153]
 120:Service/Srv_Receiver.c **** 
 1130              		.loc 1 120 5 is_stmt 1 view .LVU361
 120:Service/Srv_Receiver.c **** 
 1131              		.loc 1 120 34 is_stmt 0 view .LVU362
 1132 0058 069B     		ldr	r3, [sp, #24]
 1133 005a 84F89A30 		strb	r3, [r4, #154]
 122:Service/Srv_Receiver.c **** }
 1134              		.loc 1 122 5 is_stmt 1 view .LVU363
 1135              	.L71:
 123:Service/Srv_Receiver.c **** 
 1136              		.loc 1 123 1 is_stmt 0 view .LVU364
 1137 005e 2046     		mov	r0, r4
 1138 0060 BDE8F081 		pop	{r4, r5, r6, r7, r8, pc}
 1139              	.LVL81:
 1140              	.L75:
 107:Service/Srv_Receiver.c ****         return NULL;
 1141              		.loc 1 107 9 is_stmt 1 view .LVU365
 1142 0064 FFF7FEFF 		bl	MMU_Free
 1143              	.LVL82:
 108:Service/Srv_Receiver.c ****     }
 1144              		.loc 1 108 9 view .LVU366
 108:Service/Srv_Receiver.c ****     }
 1145              		.loc 1 108 16 is_stmt 0 view .LVU367
 1146 0068 F9E7     		b	.L71
 1147              		.cfi_endproc
ARM GAS  C:\Users\HUAV\AppData\Local\Temp\ccMGKi0w.s 			page 34


 1148              	.LFE147:
 1150              		.section	.rodata.str1.4,"aMS",%progbits,1
 1151              		.align	2
 1152              	.LC1:
 1153 0000 52656365 		.ascii	"Receiver Object Input Error\015\012\000"
 1153      69766572 
 1153      204F626A 
 1153      65637420 
 1153      496E7075 
 1154 001e 0000     		.align	2
 1155              	.LC2:
 1156 0020 52656365 		.ascii	"Receiver Port Error\015\012\000"
 1156      69766572 
 1156      20506F72 
 1156      74204572 
 1156      726F720D 
 1157 0036 0000     		.align	2
 1158              	.LC3:
 1159 0038 52656365 		.ascii	"Receiver Port Init Error\015\012\000"
 1159      69766572 
 1159      20506F72 
 1159      7420496E 
 1159      69742045 
 1160 0053 00       		.align	2
 1161              	.LC4:
 1162 0054 52656365 		.ascii	"Receiver Frame Type Error\015\012\000"
 1162      69766572 
 1162      20467261 
 1162      6D652054 
 1162      79706520 
 1163              		.global	SrvReceiver
 1164              		.section	.Perph_Section,"aw"
 1165              		.align	2
 1166              		.set	.LANCHOR0,. + 0
 1169              	SrvReceiver_Buff:
 1170 0000 00000000 		.space	256
 1170      00000000 
 1170      00000000 
 1170      00000000 
 1170      00000000 
 1171              		.section	.bss.SrvReceiver_Error_Handle,"aw",%nobits
 1172              		.align	2
 1173              		.set	.LANCHOR1,. + 0
 1176              	SrvReceiver_Error_Handle:
 1177 0000 00000000 		.space	4
 1178              		.section	.bss.SrvReceiver_Monitor,"aw",%nobits
 1179              		.align	2
 1180              		.set	.LANCHOR3,. + 0
 1183              	SrvReceiver_Monitor:
 1184 0000 00000000 		.space	30
 1184      00000000 
 1184      00000000 
 1184      00000000 
 1184      00000000 
 1185              		.section	.data.SrvReceiver,"aw"
 1186              		.align	2
 1189              	SrvReceiver:
ARM GAS  C:\Users\HUAV\AppData\Local\Temp\ccMGKi0w.s 			page 35


 1190 0000 00000000 		.word	SrvReceiver_Create_UartObj
 1191 0004 00000000 		.word	SrvReceiver_Create_SPIObj
 1192 0008 00000000 		.word	SrvReceiver_Init
 1193 000c 00000000 		.word	SrvReceiver_Get_Value
 1194 0010 00000000 		.word	SrvReceiver_Set_Invert
 1195              		.section	.data.SrvReceiver_ErrorList,"aw"
 1196              		.align	2
 1197              		.set	.LANCHOR2,. + 0
 1200              	SrvReceiver_ErrorList:
 1201 0000 0100     		.short	1
 1202 0002 02       		.byte	2
 1203 0003 00       		.space	1
 1204 0004 00000000 		.word	.LC1
 1205 0008 00       		.byte	0
 1206 0009 00       		.byte	0
 1207 000a 00000000 		.4byte	0
 1208 000e 00000000 		.4byte	0
 1209 0012 0000     		.short	0
 1210 0014 00000000 		.space	4
 1211 0018 0200     		.short	2
 1212 001a 02       		.byte	2
 1213 001b 00       		.space	1
 1214 001c 20000000 		.word	.LC2
 1215 0020 00       		.byte	0
 1216 0021 00       		.byte	0
 1217 0022 00000000 		.4byte	0
 1218 0026 00000000 		.4byte	0
 1219 002a 0000     		.short	0
 1220 002c 00000000 		.space	4
 1221 0030 0300     		.short	3
 1222 0032 02       		.byte	2
 1223 0033 00       		.space	1
 1224 0034 38000000 		.word	.LC3
 1225 0038 00       		.byte	0
 1226 0039 00       		.byte	0
 1227 003a 00000000 		.4byte	0
 1228 003e 00000000 		.4byte	0
 1229 0042 0000     		.short	0
 1230 0044 00000000 		.space	4
 1231 0048 0400     		.short	4
 1232 004a 02       		.byte	2
 1233 004b 00       		.space	1
 1234 004c 54000000 		.word	.LC4
 1235 0050 00       		.byte	0
 1236 0051 00       		.byte	0
 1237 0052 00000000 		.4byte	0
 1238 0056 00000000 		.4byte	0
 1239 005a 0000     		.short	0
 1240 005c 00000000 		.space	4
 1241              		.text
 1242              	.Letext0:
 1243              		.file 2 "d:\\software\\zephyr_env_gcc\\gcc-arm-none-eabi-9-2019-q4-major-win32\\arm-none-eabi\\inc
 1244              		.file 3 "d:\\software\\zephyr_env_gcc\\gcc-arm-none-eabi-9-2019-q4-major-win32\\arm-none-eabi\\inc
 1245              		.file 4 "d:\\software\\zephyr_env_gcc\\gcc-arm-none-eabi-9-2019-q4-major-win32\\arm-none-eabi\\inc
 1246              		.file 5 "d:\\software\\zephyr_env_gcc\\gcc-arm-none-eabi-9-2019-q4-major-win32\\lib\\gcc\\arm-none
 1247              		.file 6 "d:\\software\\zephyr_env_gcc\\gcc-arm-none-eabi-9-2019-q4-major-win32\\arm-none-eabi\\inc
 1248              		.file 7 "d:\\software\\zephyr_env_gcc\\gcc-arm-none-eabi-9-2019-q4-major-win32\\arm-none-eabi\\inc
ARM GAS  C:\Users\HUAV\AppData\Local\Temp\ccMGKi0w.s 			page 36


 1249              		.file 8 "d:\\software\\zephyr_env_gcc\\gcc-arm-none-eabi-9-2019-q4-major-win32\\arm-none-eabi\\inc
 1250              		.file 9 "System/runtime/runtime.h"
 1251              		.file 10 "Device/Dev_Sbus.h"
 1252              		.file 11 "Device/Dev_CRSF.h"
 1253              		.file 12 "HAL_Lib/CMSIS/Core/Include/core_cm7.h"
 1254              		.file 13 "HAL_Lib/CMSIS/Device/ST/STM32H7xx/Include/system_stm32h7xx.h"
 1255              		.file 14 "HAL_Lib/CMSIS/Device/ST/STM32H7xx/Include/stm32h743xx.h"
 1256              		.file 15 "d:\\software\\zephyr_env_gcc\\gcc-arm-none-eabi-9-2019-q4-major-win32\\arm-none-eabi\\in
 1257              		.file 16 "HAL_Lib/STM32H7xx_HAL_Driver/Inc/stm32h7xx_hal_def.h"
 1258              		.file 17 "HAL_Lib/STM32H7xx_HAL_Driver/Inc/stm32h7xx_hal_gpio.h"
 1259              		.file 18 "HAL_Lib/STM32H7xx_HAL_Driver/Inc/stm32h7xx_hal_dma.h"
 1260              		.file 19 "HAL_Lib/STM32H7xx_HAL_Driver/Inc/stm32h7xx_hal_flash.h"
 1261              		.file 20 "HAL_Lib/STM32H7xx_HAL_Driver/Inc/stm32h7xx_hal_spi.h"
 1262              		.file 21 "HAL_Lib/STM32H7xx_HAL_Driver/Inc/stm32h7xx_hal_uart.h"
 1263              		.file 22 "HAL_Lib/STM32H7xx_HAL_Driver/Inc/stm32h7xx_hal.h"
 1264              		.file 23 "Bsp/Bsp_GPIO.h"
 1265              		.file 24 "Bsp/Bsp_DMA.h"
 1266              		.file 25 "Bsp/Bsp_Uart.h"
 1267              		.file 26 "Service/Srv_Receiver.h"
 1268              		.file 27 "Bsp/Bsp_SPI.h"
 1269              		.file 28 "DataStructure/binary_tree.h"
 1270              		.file 29 "DataStructure/linked_list.h"
 1271              		.file 30 "Common/error_log.h"
 1272              		.file 31 "Device/Dev_Led.h"
 1273              		.file 32 "debug/debug_util.h"
 1274              		.file 33 "IO_Def/IO_Definition.h"
 1275              		.file 34 "System/mmu/mmu.h"
 1276              		.file 35 "<built-in>"
ARM GAS  C:\Users\HUAV\AppData\Local\Temp\ccMGKi0w.s 			page 37


DEFINED SYMBOLS
                            *ABS*:00000000 Srv_Receiver.c
C:\Users\HUAV\AppData\Local\Temp\ccMGKi0w.s:17     .text.SrvReceiver_Create_SPIObj:00000000 $t
C:\Users\HUAV\AppData\Local\Temp\ccMGKi0w.s:24     .text.SrvReceiver_Create_SPIObj:00000000 SrvReceiver_Create_SPIObj
C:\Users\HUAV\AppData\Local\Temp\ccMGKi0w.s:38     .text.SrvReceiver_Set_Invert:00000000 $t
C:\Users\HUAV\AppData\Local\Temp\ccMGKi0w.s:44     .text.SrvReceiver_Set_Invert:00000000 SrvReceiver_Set_Invert
C:\Users\HUAV\AppData\Local\Temp\ccMGKi0w.s:90     .text.SrvReceiver_Check:00000000 $t
C:\Users\HUAV\AppData\Local\Temp\ccMGKi0w.s:96     .text.SrvReceiver_Check:00000000 SrvReceiver_Check
C:\Users\HUAV\AppData\Local\Temp\ccMGKi0w.s:182    .text.SrvReceiver_Get_Value:00000000 $t
C:\Users\HUAV\AppData\Local\Temp\ccMGKi0w.s:188    .text.SrvReceiver_Get_Value:00000000 SrvReceiver_Get_Value
C:\Users\HUAV\AppData\Local\Temp\ccMGKi0w.s:311    .text.SrvReceiver_SerialDecode_Callback:00000000 $t
C:\Users\HUAV\AppData\Local\Temp\ccMGKi0w.s:317    .text.SrvReceiver_SerialDecode_Callback:00000000 SrvReceiver_SerialDecode_Callback
C:\Users\HUAV\AppData\Local\Temp\ccMGKi0w.s:667    .rodata.SrvReceiver_Init.str1.4:00000000 $d
C:\Users\HUAV\AppData\Local\Temp\ccMGKi0w.s:671    .text.SrvReceiver_Init:00000000 $t
C:\Users\HUAV\AppData\Local\Temp\ccMGKi0w.s:677    .text.SrvReceiver_Init:00000000 SrvReceiver_Init
C:\Users\HUAV\AppData\Local\Temp\ccMGKi0w.s:1039   .text.SrvReceiver_Init:000001a0 $d
C:\Users\HUAV\AppData\Local\Temp\ccMGKi0w.s:1053   .text.SrvReceiver_Create_UartObj:00000000 $t
C:\Users\HUAV\AppData\Local\Temp\ccMGKi0w.s:1059   .text.SrvReceiver_Create_UartObj:00000000 SrvReceiver_Create_UartObj
C:\Users\HUAV\AppData\Local\Temp\ccMGKi0w.s:1151   .rodata.str1.4:00000000 $d
C:\Users\HUAV\AppData\Local\Temp\ccMGKi0w.s:1189   .data.SrvReceiver:00000000 SrvReceiver
C:\Users\HUAV\AppData\Local\Temp\ccMGKi0w.s:1165   .Perph_Section:00000000 $d
C:\Users\HUAV\AppData\Local\Temp\ccMGKi0w.s:1169   .Perph_Section:00000000 SrvReceiver_Buff
C:\Users\HUAV\AppData\Local\Temp\ccMGKi0w.s:1172   .bss.SrvReceiver_Error_Handle:00000000 $d
C:\Users\HUAV\AppData\Local\Temp\ccMGKi0w.s:1176   .bss.SrvReceiver_Error_Handle:00000000 SrvReceiver_Error_Handle
C:\Users\HUAV\AppData\Local\Temp\ccMGKi0w.s:1179   .bss.SrvReceiver_Monitor:00000000 $d
C:\Users\HUAV\AppData\Local\Temp\ccMGKi0w.s:1183   .bss.SrvReceiver_Monitor:00000000 SrvReceiver_Monitor
C:\Users\HUAV\AppData\Local\Temp\ccMGKi0w.s:1186   .data.SrvReceiver:00000000 $d
C:\Users\HUAV\AppData\Local\Temp\ccMGKi0w.s:1196   .data.SrvReceiver_ErrorList:00000000 $d
C:\Users\HUAV\AppData\Local\Temp\ccMGKi0w.s:1200   .data.SrvReceiver_ErrorList:00000000 SrvReceiver_ErrorList

UNDEFINED SYMBOLS
Get_CurrentRunningMs
memset
MMU_Malloc
MMU_Free
ErrorLog
DevCRSF
BspUart
DevSBUS
