ARM GAS  C:\Users\8bit\AppData\Local\Temp\ccIzqRlN.s 			page 1


   1              		.cpu cortex-m4
   2              		.arch armv7e-m
   3              		.fpu fpv4-sp-d16
   4              		.eabi_attribute 27, 1
   5              		.eabi_attribute 28, 1
   6              		.eabi_attribute 20, 1
   7              		.eabi_attribute 21, 1
   8              		.eabi_attribute 23, 3
   9              		.eabi_attribute 24, 1
  10              		.eabi_attribute 25, 1
  11              		.eabi_attribute 26, 1
  12              		.eabi_attribute 30, 1
  13              		.eabi_attribute 34, 1
  14              		.eabi_attribute 18, 4
  15              		.file	"Srv_Baro.c"
  16              		.text
  17              	.Ltext0:
  18              		.cfi_sections	.debug_frame
  19              		.section	.text.SrvBaro_BusInit,"ax",%progbits
  20              		.align	1
  21              		.syntax unified
  22              		.thumb
  23              		.thumb_func
  25              	SrvBaro_BusInit:
  26              	.LVL0:
  27              	.LFB142:
  28              		.file 1 "Service/Srv_Baro.c"
   1:Service/Srv_Baro.c **** /*
   2:Service/Srv_Baro.c ****  * Auther: 8_B!T0
   3:Service/Srv_Baro.c ****  * Baro Sensor Sample Service
   4:Service/Srv_Baro.c ****  * this file still can be optimized in a big way
   5:Service/Srv_Baro.c ****  * for currently only one baro sensor can be used
   6:Service/Srv_Baro.c ****  */
   7:Service/Srv_Baro.c **** #include "Srv_Baro.h"
   8:Service/Srv_Baro.c **** #include "Srv_OsCommon.h"
   9:Service/Srv_Baro.c **** #include "../FCHW_Config.h"
  10:Service/Srv_Baro.c **** #include "error_log.h"
  11:Service/Srv_Baro.c **** #include "bsp_iic.h"
  12:Service/Srv_Baro.c **** #include "bsp_gpio.h"
  13:Service/Srv_Baro.c **** #include "HW_Def.h"
  14:Service/Srv_Baro.c **** #include <math.h>
  15:Service/Srv_Baro.c **** 
  16:Service/Srv_Baro.c **** #define STANDER_ATMOSPHERIC_PRESSURE (101.325f * 1000)
  17:Service/Srv_Baro.c **** #define SRVBARO_SMOOTHWINDOW_SIZE 5
  18:Service/Srv_Baro.c **** 
  19:Service/Srv_Baro.c **** #define SRVBARO_MAX_SAMPLE_PERIOD 10    // unit: ms 10ms 100hz
  20:Service/Srv_Baro.c **** #define SRVBARO_MIN_SAMPLE_PERIOD 100   // unit: ms 100ms 10hz
  21:Service/Srv_Baro.c **** 
  22:Service/Srv_Baro.c **** /* internal vriable */
  23:Service/Srv_Baro.c **** SrvBaroObj_TypeDef SrvBaroObj = {
  24:Service/Srv_Baro.c ****     .type = Baro_Type_DPS310,   /* default set */
  25:Service/Srv_Baro.c ****     .sample_rate = SRVBARO_SAMPLE_RATE_20HZ,
  26:Service/Srv_Baro.c ****     .init_err = SrvBaro_Error_None,
  27:Service/Srv_Baro.c ****     .sensor_data = NULL,
  28:Service/Srv_Baro.c **** };
  29:Service/Srv_Baro.c **** 
  30:Service/Srv_Baro.c **** #if defined MATEKH743_V1_5
ARM GAS  C:\Users\8bit\AppData\Local\Temp\ccIzqRlN.s 			page 2


  31:Service/Srv_Baro.c **** #if defined  STM32H743xx
  32:Service/Srv_Baro.c **** static SPI_HandleTypeDef Baro_Bus_Instance;
  33:Service/Srv_Baro.c **** #endif
  34:Service/Srv_Baro.c **** static BspGPIO_Obj_TypeDef *p_Baro_CS = NULL;
  35:Service/Srv_Baro.c **** #elif defined BATEAT32F435_AIO
  36:Service/Srv_Baro.c **** static void *Baro_Bus_Instance = NULL;
  37:Service/Srv_Baro.c **** static BspGPIO_Obj_TypeDef *p_Baro_CS = &Baro_CSPin;
  38:Service/Srv_Baro.c **** #elif defined CCRC_AT32_20
  39:Service/Srv_Baro.c **** static void *Baro_Bus_Instance = NULL;
  40:Service/Srv_Baro.c **** static BspGPIO_Obj_TypeDef *p_Baro_CS = NULL;
  41:Service/Srv_Baro.c **** #endif
  42:Service/Srv_Baro.c **** 
  43:Service/Srv_Baro.c **** SrvBaroBusObj_TypeDef SrvBaroBus = {
  44:Service/Srv_Baro.c ****     .type = SrvBaro_Bus_None,
  45:Service/Srv_Baro.c ****     .init = false,
  46:Service/Srv_Baro.c ****     .bus_obj = NULL,
  47:Service/Srv_Baro.c ****     .bus_api = NULL,
  48:Service/Srv_Baro.c **** };
  49:Service/Srv_Baro.c **** 
  50:Service/Srv_Baro.c **** /* internal function */
  51:Service/Srv_Baro.c **** static bool SrvBaro_IICBus_Tx(uint16_t dev_addr, uint16_t reg_addr, uint8_t *p_data, uint8_t len);
  52:Service/Srv_Baro.c **** static bool SrvBaro_IICBus_Rx(uint16_t dev_addr, uint16_t reg_addr, uint8_t *p_data, uint8_t len);
  53:Service/Srv_Baro.c **** 
  54:Service/Srv_Baro.c **** static uint16_t SrvBaro_SPIBus_Tx(uint8_t *p_data, uint16_t len);
  55:Service/Srv_Baro.c **** static uint16_t SrvBaro_SPIBus_Rx(uint8_t *p_data, uint16_t len);
  56:Service/Srv_Baro.c **** static uint16_t SrvBaro_SPIBus_Trans(uint8_t *p_tx, uint8_t *p_rx, uint16_t len);
  57:Service/Srv_Baro.c **** 
  58:Service/Srv_Baro.c **** static float SrvBaro_PessureCnvToMeter(float pa);
  59:Service/Srv_Baro.c **** 
  60:Service/Srv_Baro.c **** /************************************************************************ Error Tree Item *********
  61:Service/Srv_Baro.c **** static Error_Handler SrvBaro_Error_Handle = 0;
  62:Service/Srv_Baro.c **** 
  63:Service/Srv_Baro.c **** static void SrvBaro_BusInitError(int16_t code, uint8_t *p_arg, uint16_t size);
  64:Service/Srv_Baro.c **** 
  65:Service/Srv_Baro.c **** static Error_Obj_Typedef SrvBaro_ErrorList[] = {
  66:Service/Srv_Baro.c ****     {
  67:Service/Srv_Baro.c ****         .out = true,
  68:Service/Srv_Baro.c ****         .log = false,
  69:Service/Srv_Baro.c ****         .prc_callback = SrvBaro_BusInitError,
  70:Service/Srv_Baro.c ****         .code = SrvBaro_Error_BadRate,
  71:Service/Srv_Baro.c ****         .desc = "SrvBaro Bad Sample Rate\r\n",
  72:Service/Srv_Baro.c ****         .proc_type = Error_Proc_Ignore,
  73:Service/Srv_Baro.c ****         .prc_data_stream = {
  74:Service/Srv_Baro.c ****             .p_data = NULL,
  75:Service/Srv_Baro.c ****             .size = 0,
  76:Service/Srv_Baro.c ****         },
  77:Service/Srv_Baro.c ****     },
  78:Service/Srv_Baro.c ****     {
  79:Service/Srv_Baro.c ****         .out = true,
  80:Service/Srv_Baro.c ****         .log = false,
  81:Service/Srv_Baro.c ****         .prc_callback = SrvBaro_BusInitError,
  82:Service/Srv_Baro.c ****         .code = SrvBaro_Error_BadType,
  83:Service/Srv_Baro.c ****         .desc = "SrvBaro Bad Sensor Type\r\n",
  84:Service/Srv_Baro.c ****         .proc_type = Error_Proc_Ignore,
  85:Service/Srv_Baro.c ****         .prc_data_stream = {
  86:Service/Srv_Baro.c ****             .p_data = NULL,
  87:Service/Srv_Baro.c ****             .size = 0,
ARM GAS  C:\Users\8bit\AppData\Local\Temp\ccIzqRlN.s 			page 3


  88:Service/Srv_Baro.c ****         },
  89:Service/Srv_Baro.c ****     },
  90:Service/Srv_Baro.c ****     {
  91:Service/Srv_Baro.c ****         .out = true,
  92:Service/Srv_Baro.c ****         .log = false,
  93:Service/Srv_Baro.c ****         .prc_callback = SrvBaro_BusInitError,
  94:Service/Srv_Baro.c ****         .code = SrvBaro_Error_BadSensorObj,
  95:Service/Srv_Baro.c ****         .desc = "SrvBaro Bad Sensor Object\r\n",
  96:Service/Srv_Baro.c ****         .proc_type = Error_Proc_Ignore,
  97:Service/Srv_Baro.c ****         .prc_data_stream = {
  98:Service/Srv_Baro.c ****             .p_data = NULL,
  99:Service/Srv_Baro.c ****             .size = 0,
 100:Service/Srv_Baro.c ****         },
 101:Service/Srv_Baro.c ****     },
 102:Service/Srv_Baro.c ****     {
 103:Service/Srv_Baro.c ****         .out = true,
 104:Service/Srv_Baro.c ****         .log = false,
 105:Service/Srv_Baro.c ****         .prc_callback = SrvBaro_BusInitError,
 106:Service/Srv_Baro.c ****         .code = SrvBaro_Error_BadSamplePeriod,
 107:Service/Srv_Baro.c ****         .desc = "SrvBaro Bad Sample Period\r\n",
 108:Service/Srv_Baro.c ****         .proc_type = Error_Proc_Ignore,
 109:Service/Srv_Baro.c ****         .prc_data_stream = {
 110:Service/Srv_Baro.c ****             .p_data = NULL,
 111:Service/Srv_Baro.c ****             .size = 0,
 112:Service/Srv_Baro.c ****         },
 113:Service/Srv_Baro.c ****     },
 114:Service/Srv_Baro.c ****     {
 115:Service/Srv_Baro.c ****         .out = true,
 116:Service/Srv_Baro.c ****         .log = false,
 117:Service/Srv_Baro.c ****         .prc_callback = SrvBaro_BusInitError,
 118:Service/Srv_Baro.c ****         .code = SrvBaro_Error_BusInit,
 119:Service/Srv_Baro.c ****         .desc = "SrvBaro Bus Init Failed\r\n",
 120:Service/Srv_Baro.c ****         .proc_type = Error_Proc_Ignore,
 121:Service/Srv_Baro.c ****         .prc_data_stream = {
 122:Service/Srv_Baro.c ****             .p_data = NULL,
 123:Service/Srv_Baro.c ****             .size = 0,
 124:Service/Srv_Baro.c ****         },
 125:Service/Srv_Baro.c ****     },
 126:Service/Srv_Baro.c ****     {
 127:Service/Srv_Baro.c ****         .out = true,
 128:Service/Srv_Baro.c ****         .log = false,
 129:Service/Srv_Baro.c ****         .prc_callback = SrvBaro_BusInitError,
 130:Service/Srv_Baro.c ****         .code = SrvBaro_Error_FilterInit,
 131:Service/Srv_Baro.c ****         .desc = "SrvBaro Sensor Filter Init Failed\r\n",
 132:Service/Srv_Baro.c ****         .proc_type = Error_Proc_Immd, 
 133:Service/Srv_Baro.c ****         .prc_data_stream = {
 134:Service/Srv_Baro.c ****             .p_data = NULL,
 135:Service/Srv_Baro.c ****             .size = 0,
 136:Service/Srv_Baro.c ****         },
 137:Service/Srv_Baro.c ****     },
 138:Service/Srv_Baro.c ****     {
 139:Service/Srv_Baro.c ****         .out = true,
 140:Service/Srv_Baro.c ****         .log = false,
 141:Service/Srv_Baro.c ****         .prc_callback = SrvBaro_BusInitError,
 142:Service/Srv_Baro.c ****         .code = SrvBaro_Error_DevInit,
 143:Service/Srv_Baro.c ****         .desc = "SrvBaro Sensor Device Init Failed\r\n",
 144:Service/Srv_Baro.c ****         .proc_type = Error_Proc_Immd, 
ARM GAS  C:\Users\8bit\AppData\Local\Temp\ccIzqRlN.s 			page 4


 145:Service/Srv_Baro.c ****         .prc_data_stream = {
 146:Service/Srv_Baro.c ****             .p_data = NULL,
 147:Service/Srv_Baro.c ****             .size = 0,
 148:Service/Srv_Baro.c ****         },
 149:Service/Srv_Baro.c ****     },
 150:Service/Srv_Baro.c **** };
 151:Service/Srv_Baro.c **** /************************************************************************ Error Tree Item *********
 152:Service/Srv_Baro.c **** 
 153:Service/Srv_Baro.c **** /* external function */
 154:Service/Srv_Baro.c **** static uint8_t SrvBaro_Init(SrvBaro_TypeList sensor_type, SrvBaroBus_TypeList bus_type);
 155:Service/Srv_Baro.c **** static bool SrvBaro_Sample(void);
 156:Service/Srv_Baro.c **** static bool SrvBaro_Get_Date(SrvBaro_UnionData_TypeDef *data);
 157:Service/Srv_Baro.c **** static GenCalib_State_TypeList SrvBaro_Set_Calib(uint16_t cyc);
 158:Service/Srv_Baro.c **** static GenCalib_State_TypeList SrvBaro_Get_Calib(void);
 159:Service/Srv_Baro.c **** 
 160:Service/Srv_Baro.c **** SrvBaro_TypeDef SrvBaro = {
 161:Service/Srv_Baro.c ****     .init = SrvBaro_Init,
 162:Service/Srv_Baro.c ****     .sample = SrvBaro_Sample,
 163:Service/Srv_Baro.c ****     .get_data = SrvBaro_Get_Date,
 164:Service/Srv_Baro.c ****     .set_calib = SrvBaro_Set_Calib,
 165:Service/Srv_Baro.c ****     .get_calib = SrvBaro_Get_Calib,
 166:Service/Srv_Baro.c **** };
 167:Service/Srv_Baro.c **** 
 168:Service/Srv_Baro.c **** static bool SrvBaro_BusInit(SrvBaroBus_TypeList bus_type)
 169:Service/Srv_Baro.c **** {
  29              		.loc 1 169 1 view -0
  30              		.cfi_startproc
  31              		@ args = 0, pretend = 0, frame = 0
  32              		@ frame_needed = 0, uses_anonymous_args = 0
  33              		.loc 1 169 1 is_stmt 0 view .LVU1
  34 0000 70B5     		push	{r4, r5, r6, lr}
  35              	.LCFI0:
  36              		.cfi_def_cfa_offset 16
  37              		.cfi_offset 4, -16
  38              		.cfi_offset 5, -12
  39              		.cfi_offset 6, -8
  40              		.cfi_offset 14, -4
  41 0002 88B0     		sub	sp, sp, #32
  42              	.LCFI1:
  43              		.cfi_def_cfa_offset 48
 170:Service/Srv_Baro.c ****     SrvBaroBus.init = false;
  44              		.loc 1 170 5 is_stmt 1 view .LVU2
  45              		.loc 1 170 21 is_stmt 0 view .LVU3
  46 0004 234B     		ldr	r3, .L6
  47 0006 0022     		movs	r2, #0
  48 0008 5A70     		strb	r2, [r3, #1]
 171:Service/Srv_Baro.c ****     SrvBaroBus.bus_obj = (void *)&Baro_BusCfg;
  49              		.loc 1 171 5 is_stmt 1 view .LVU4
  50              		.loc 1 171 24 is_stmt 0 view .LVU5
  51 000a 234A     		ldr	r2, .L6+4
  52 000c 9A60     		str	r2, [r3, #8]
 172:Service/Srv_Baro.c ****     SrvBaroBus.type = bus_type;
  53              		.loc 1 172 5 is_stmt 1 view .LVU6
  54              		.loc 1 172 21 is_stmt 0 view .LVU7
  55 000e 1870     		strb	r0, [r3]
 173:Service/Srv_Baro.c ****     
 174:Service/Srv_Baro.c ****     switch((uint8_t)bus_type)
ARM GAS  C:\Users\8bit\AppData\Local\Temp\ccIzqRlN.s 			page 5


  56              		.loc 1 174 5 is_stmt 1 view .LVU8
  57 0010 0128     		cmp	r0, #1
  58 0012 05D0     		beq	.L2
  59 0014 0228     		cmp	r0, #2
  60 0016 10D0     		beq	.L3
  61 0018 0024     		movs	r4, #0
  62              	.LVL1:
  63              	.L4:
 175:Service/Srv_Baro.c ****     {
 176:Service/Srv_Baro.c ****         case SrvBaro_Bus_IIC:
 177:Service/Srv_Baro.c ****             SrvBaroBus.bus_api = (void *)&BspIIC;
 178:Service/Srv_Baro.c **** 
 179:Service/Srv_Baro.c **** #if defined MATEKH743_V1_5
 180:Service/Srv_Baro.c ****             ToIIC_BusObj(SrvBaroBus.bus_obj)->handle = SrvOsCommon.malloc(I2C_HandleType_Size);
 181:Service/Srv_Baro.c ****             if (ToIIC_BusObj(SrvBaroBus.bus_obj)->handle == NULL)
 182:Service/Srv_Baro.c ****             {
 183:Service/Srv_Baro.c ****                 SrvOsCommon.free(ToIIC_BusObj(SrvBaroBus.bus_obj)->handle);
 184:Service/Srv_Baro.c ****                 return false;
 185:Service/Srv_Baro.c ****             }
 186:Service/Srv_Baro.c **** 
 187:Service/Srv_Baro.c ****             ToIIC_BusObj(SrvBaroBus.bus_obj)->PeriphClkInitStruct = SrvOsCommon.malloc(I2C_PeriphCL
 188:Service/Srv_Baro.c ****             if (ToIIC_BusObj(SrvBaroBus.bus_obj)->PeriphClkInitStruct == NULL)
 189:Service/Srv_Baro.c ****             {
 190:Service/Srv_Baro.c ****                 SrvOsCommon.free(ToIIC_BusObj(SrvBaroBus.bus_obj)->handle);
 191:Service/Srv_Baro.c ****                 SrvOsCommon.free(ToIIC_BusObj(SrvBaroBus.bus_obj)->PeriphClkInitStruct);
 192:Service/Srv_Baro.c ****                 return false;
 193:Service/Srv_Baro.c ****             }
 194:Service/Srv_Baro.c **** #endif
 195:Service/Srv_Baro.c ****             if (!ToIIC_BusAPI(SrvBaroBus.bus_api)->init(ToIIC_BusObj(SrvBaroBus.bus_obj)))
 196:Service/Srv_Baro.c ****                 return false;
 197:Service/Srv_Baro.c **** 
 198:Service/Srv_Baro.c ****             SrvBaroBus.init = true;
 199:Service/Srv_Baro.c ****             return true;
 200:Service/Srv_Baro.c **** 
 201:Service/Srv_Baro.c ****         case SrvBaro_Bus_SPI:
 202:Service/Srv_Baro.c ****             SrvBaroBus.bus_api = (void *)&BspSPI;
 203:Service/Srv_Baro.c **** 
 204:Service/Srv_Baro.c ****             /* spi cs pin init */
 205:Service/Srv_Baro.c ****             if (!BspGPIO.out_init(*p_Baro_CS))
 206:Service/Srv_Baro.c ****                 return false;
 207:Service/Srv_Baro.c **** 
 208:Service/Srv_Baro.c ****             /* spi bus port init */
 209:Service/Srv_Baro.c ****             if (!ToSPI_BusAPI(SrvBaroBus.bus_api)->init(To_NormalSPI_Obj(SrvBaroBus.bus_obj), &Baro
 210:Service/Srv_Baro.c ****                 return false;
 211:Service/Srv_Baro.c **** 
 212:Service/Srv_Baro.c ****             /* set cs pin high */
 213:Service/Srv_Baro.c ****             BspGPIO.write(*p_Baro_CS, true);
 214:Service/Srv_Baro.c ****             SrvBaroBus.init = true;
 215:Service/Srv_Baro.c ****             
 216:Service/Srv_Baro.c ****             return true;
 217:Service/Srv_Baro.c **** 
 218:Service/Srv_Baro.c ****         default: return false;
 219:Service/Srv_Baro.c ****     }
 220:Service/Srv_Baro.c **** 
 221:Service/Srv_Baro.c ****     return false;
 222:Service/Srv_Baro.c **** }
  64              		.loc 1 222 1 is_stmt 0 view .LVU9
ARM GAS  C:\Users\8bit\AppData\Local\Temp\ccIzqRlN.s 			page 6


  65 001a 2046     		mov	r0, r4
  66 001c 08B0     		add	sp, sp, #32
  67              	.LCFI2:
  68              		.cfi_remember_state
  69              		.cfi_def_cfa_offset 16
  70              		@ sp needed
  71 001e 70BD     		pop	{r4, r5, r6, pc}
  72              	.LVL2:
  73              	.L2:
  74              	.LCFI3:
  75              		.cfi_restore_state
 177:Service/Srv_Baro.c **** 
  76              		.loc 1 177 13 is_stmt 1 view .LVU10
 177:Service/Srv_Baro.c **** 
  77              		.loc 1 177 32 is_stmt 0 view .LVU11
  78 0020 1E4B     		ldr	r3, .L6+8
  79 0022 1C4A     		ldr	r2, .L6
  80 0024 5360     		str	r3, [r2, #4]
 195:Service/Srv_Baro.c ****                 return false;
  81              		.loc 1 195 13 is_stmt 1 view .LVU12
 195:Service/Srv_Baro.c ****                 return false;
  82              		.loc 1 195 50 is_stmt 0 view .LVU13
  83 0026 1B68     		ldr	r3, [r3]
 195:Service/Srv_Baro.c ****                 return false;
  84              		.loc 1 195 18 view .LVU14
  85 0028 1B48     		ldr	r0, .L6+4
  86              	.LVL3:
 195:Service/Srv_Baro.c ****                 return false;
  87              		.loc 1 195 18 view .LVU15
  88 002a 9847     		blx	r3
  89              	.LVL4:
 195:Service/Srv_Baro.c ****                 return false;
  90              		.loc 1 195 16 view .LVU16
  91 002c 0446     		mov	r4, r0
  92 002e 0028     		cmp	r0, #0
  93 0030 F3D0     		beq	.L4
 198:Service/Srv_Baro.c ****             return true;
  94              		.loc 1 198 13 is_stmt 1 view .LVU17
 198:Service/Srv_Baro.c ****             return true;
  95              		.loc 1 198 29 is_stmt 0 view .LVU18
  96 0032 184B     		ldr	r3, .L6
  97 0034 0122     		movs	r2, #1
  98 0036 5A70     		strb	r2, [r3, #1]
 199:Service/Srv_Baro.c **** 
  99              		.loc 1 199 13 is_stmt 1 view .LVU19
 199:Service/Srv_Baro.c **** 
 100              		.loc 1 199 20 is_stmt 0 view .LVU20
 101 0038 EFE7     		b	.L4
 102              	.LVL5:
 103              	.L3:
 202:Service/Srv_Baro.c **** 
 104              		.loc 1 202 13 is_stmt 1 view .LVU21
 202:Service/Srv_Baro.c **** 
 105              		.loc 1 202 32 is_stmt 0 view .LVU22
 106 003a 164B     		ldr	r3, .L6
 107 003c 184A     		ldr	r2, .L6+12
 108 003e 5A60     		str	r2, [r3, #4]
ARM GAS  C:\Users\8bit\AppData\Local\Temp\ccIzqRlN.s 			page 7


 205:Service/Srv_Baro.c ****                 return false;
 109              		.loc 1 205 13 is_stmt 1 view .LVU23
 205:Service/Srv_Baro.c ****                 return false;
 110              		.loc 1 205 25 is_stmt 0 view .LVU24
 111 0040 184B     		ldr	r3, .L6+16
 112 0042 5C68     		ldr	r4, [r3, #4]
 205:Service/Srv_Baro.c ****                 return false;
 113              		.loc 1 205 18 view .LVU25
 114 0044 0023     		movs	r3, #0
 115 0046 93E80700 		ldm	r3, {r0, r1, r2}
 116              	.LVL6:
 205:Service/Srv_Baro.c ****                 return false;
 117              		.loc 1 205 18 view .LVU26
 118 004a A047     		blx	r4
 119              	.LVL7:
 205:Service/Srv_Baro.c ****                 return false;
 120              		.loc 1 205 16 view .LVU27
 121 004c 0446     		mov	r4, r0
 122 004e 0028     		cmp	r0, #0
 123 0050 E3D0     		beq	.L4
 209:Service/Srv_Baro.c ****                 return false;
 124              		.loc 1 209 13 is_stmt 1 view .LVU28
 209:Service/Srv_Baro.c ****                 return false;
 125              		.loc 1 209 18 is_stmt 0 view .LVU29
 126 0052 104B     		ldr	r3, .L6
 127 0054 5A68     		ldr	r2, [r3, #4]
 209:Service/Srv_Baro.c ****                 return false;
 128              		.loc 1 209 50 view .LVU30
 129 0056 1668     		ldr	r6, [r2]
 209:Service/Srv_Baro.c ****                 return false;
 130              		.loc 1 209 57 view .LVU31
 131 0058 9D68     		ldr	r5, [r3, #8]
 209:Service/Srv_Baro.c ****                 return false;
 132              		.loc 1 209 18 view .LVU32
 133 005a 134B     		ldr	r3, .L6+20
 134 005c 0793     		str	r3, [sp, #28]
 135 005e 6C46     		mov	r4, sp
 136 0060 05F1100C 		add	ip, r5, #16
 137 0064 BCE80F00 		ldmia	ip!, {r0, r1, r2, r3}
 138 0068 0FC4     		stmia	r4!, {r0, r1, r2, r3}
 139 006a 9CE80700 		ldm	ip, {r0, r1, r2}
 140 006e 84E80700 		stm	r4, {r0, r1, r2}
 141 0072 95E80F00 		ldm	r5, {r0, r1, r2, r3}
 142 0076 B047     		blx	r6
 143              	.LVL8:
 209:Service/Srv_Baro.c ****                 return false;
 144              		.loc 1 209 16 view .LVU33
 145 0078 0446     		mov	r4, r0
 146 007a 0028     		cmp	r0, #0
 147 007c CDD0     		beq	.L4
 213:Service/Srv_Baro.c ****             SrvBaroBus.init = true;
 148              		.loc 1 213 13 is_stmt 1 view .LVU34
 213:Service/Srv_Baro.c ****             SrvBaroBus.init = true;
 149              		.loc 1 213 20 is_stmt 0 view .LVU35
 150 007e 094B     		ldr	r3, .L6+16
 151 0080 DD69     		ldr	r5, [r3, #28]
 213:Service/Srv_Baro.c ****             SrvBaroBus.init = true;
ARM GAS  C:\Users\8bit\AppData\Local\Temp\ccIzqRlN.s 			page 8


 152              		.loc 1 213 13 view .LVU36
 153 0082 0022     		movs	r2, #0
 154 0084 0123     		movs	r3, #1
 155 0086 07CA     		ldm	r2, {r0, r1, r2}
 156 0088 A847     		blx	r5
 157              	.LVL9:
 214:Service/Srv_Baro.c ****             
 158              		.loc 1 214 13 is_stmt 1 view .LVU37
 214:Service/Srv_Baro.c ****             
 159              		.loc 1 214 29 is_stmt 0 view .LVU38
 160 008a 024B     		ldr	r3, .L6
 161 008c 0122     		movs	r2, #1
 162 008e 5A70     		strb	r2, [r3, #1]
 216:Service/Srv_Baro.c **** 
 163              		.loc 1 216 13 is_stmt 1 view .LVU39
 216:Service/Srv_Baro.c **** 
 164              		.loc 1 216 20 is_stmt 0 view .LVU40
 165 0090 C3E7     		b	.L4
 166              	.L7:
 167 0092 00BF     		.align	2
 168              	.L6:
 169 0094 00000000 		.word	.LANCHOR0
 170 0098 00000000 		.word	Baro_BusCfg
 171 009c 00000000 		.word	BspIIC
 172 00a0 00000000 		.word	BspSPI
 173 00a4 00000000 		.word	BspGPIO
 174 00a8 00000000 		.word	.LANCHOR1
 175              		.cfi_endproc
 176              	.LFE142:
 178              		.section	.text.SrvBaro_Set_Calib,"ax",%progbits
 179              		.align	1
 180              		.syntax unified
 181              		.thumb
 182              		.thumb_func
 184              	SrvBaro_Set_Calib:
 185              	.LVL10:
 186              	.LFB145:
 223:Service/Srv_Baro.c **** 
 224:Service/Srv_Baro.c **** static uint8_t SrvBaro_Init(SrvBaro_TypeList sensor_type, SrvBaroBus_TypeList bus_type)
 225:Service/Srv_Baro.c **** {
 226:Service/Srv_Baro.c ****     /* create error log handle */
 227:Service/Srv_Baro.c ****     SrvBaro_Error_Handle = ErrorLog.create("SrvBaro_Error");
 228:Service/Srv_Baro.c **** 
 229:Service/Srv_Baro.c ****     /* regist all error to the error tree */
 230:Service/Srv_Baro.c ****     ErrorLog.registe(SrvBaro_Error_Handle, SrvBaro_ErrorList, sizeof(SrvBaro_ErrorList) / sizeof(Sr
 231:Service/Srv_Baro.c **** 
 232:Service/Srv_Baro.c ****     if (!SrvBaro_BusInit(bus_type))
 233:Service/Srv_Baro.c ****     {
 234:Service/Srv_Baro.c ****         ErrorLog.trigger(SrvBaro_Error_Handle, SrvBaro_Error_BusInit, NULL, 0);
 235:Service/Srv_Baro.c ****         return SrvBaro_Error_BusInit;
 236:Service/Srv_Baro.c ****     }
 237:Service/Srv_Baro.c **** 
 238:Service/Srv_Baro.c ****     if (SrvBaroObj.sample_rate)
 239:Service/Srv_Baro.c ****     {
 240:Service/Srv_Baro.c ****         switch((uint8_t)sensor_type)
 241:Service/Srv_Baro.c ****         {
 242:Service/Srv_Baro.c ****             case Baro_Type_DPS310:
ARM GAS  C:\Users\8bit\AppData\Local\Temp\ccIzqRlN.s 			page 9


 243:Service/Srv_Baro.c ****                 SrvBaroObj.type = sensor_type;
 244:Service/Srv_Baro.c ****                 SrvBaroObj.sensor_obj = SrvOsCommon.malloc(sizeof(DevDPS310Obj_TypeDef));
 245:Service/Srv_Baro.c ****                 SrvBaroObj.sensor_api = &DevDPS310;
 246:Service/Srv_Baro.c **** 
 247:Service/Srv_Baro.c ****                 if ((SrvBaroObj.sensor_obj != NULL) &&
 248:Service/Srv_Baro.c ****                     (SrvBaroObj.sensor_api != NULL))
 249:Service/Srv_Baro.c ****                 {
 250:Service/Srv_Baro.c ****                     /* set sensor object */
 251:Service/Srv_Baro.c ****                     switch (SrvBaroBus.type)
 252:Service/Srv_Baro.c ****                     {
 253:Service/Srv_Baro.c ****                         case SrvBaro_Bus_IIC:
 254:Service/Srv_Baro.c ****                             ToDPS310_OBJ(SrvBaroObj.sensor_obj)->DevAddr = DPS310_I2C_ADDR;
 255:Service/Srv_Baro.c ****                             ToDPS310_OBJ(SrvBaroObj.sensor_obj)->bus_rx = (DevDPS310_BusRead)SrvBar
 256:Service/Srv_Baro.c ****                             ToDPS310_OBJ(SrvBaroObj.sensor_obj)->bus_tx = (DevDPS310_BusWrite)SrvBa
 257:Service/Srv_Baro.c ****                             break;
 258:Service/Srv_Baro.c **** 
 259:Service/Srv_Baro.c ****                         case SrvBaro_Bus_SPI:
 260:Service/Srv_Baro.c ****                         default: return SrvBaro_Error_BusType;
 261:Service/Srv_Baro.c ****                     }
 262:Service/Srv_Baro.c **** 
 263:Service/Srv_Baro.c ****                     ToDPS310_OBJ(SrvBaroObj.sensor_obj)->get_tick = SrvOsCommon.get_os_ms;
 264:Service/Srv_Baro.c ****                     ToDPS310_OBJ(SrvBaroObj.sensor_obj)->bus_delay = SrvOsCommon.delay_ms;
 265:Service/Srv_Baro.c **** 
 266:Service/Srv_Baro.c ****                     /* device init */
 267:Service/Srv_Baro.c ****                     if (!ToDPS310_API(SrvBaroObj.sensor_api)->init(ToDPS310_OBJ(SrvBaroObj.sensor_o
 268:Service/Srv_Baro.c ****                     {
 269:Service/Srv_Baro.c ****                         ErrorLog.trigger(SrvBaro_Error_Handle, SrvBaro_Error_DevInit, NULL, 0);
 270:Service/Srv_Baro.c ****                         return SrvBaro_Error_DevInit;
 271:Service/Srv_Baro.c ****                     }
 272:Service/Srv_Baro.c **** 
 273:Service/Srv_Baro.c ****                     SrvBaroObj.calib_state = Calib_Start;
 274:Service/Srv_Baro.c ****                     SrvBaroObj.calib_cycle = SRVBARO_DEFAULT_CALI_CYCLE;
 275:Service/Srv_Baro.c **** 
 276:Service/Srv_Baro.c ****                     SrvBaroObj.data_size = DPS310_DataSize;
 277:Service/Srv_Baro.c ****                     SrvBaroObj.sensor_data = SrvOsCommon.malloc(SrvBaroObj.data_size);
 278:Service/Srv_Baro.c ****                 }
 279:Service/Srv_Baro.c ****                 else
 280:Service/Srv_Baro.c ****                 {
 281:Service/Srv_Baro.c ****                     ErrorLog.trigger(SrvBaro_Error_Handle, SrvBaro_Error_BadSensorObj, NULL, 0);
 282:Service/Srv_Baro.c ****                     return SrvBaro_Error_BadSensorObj;
 283:Service/Srv_Baro.c ****                 }
 284:Service/Srv_Baro.c ****                 break;
 285:Service/Srv_Baro.c **** 
 286:Service/Srv_Baro.c ****             case Baro_Type_BMP280:
 287:Service/Srv_Baro.c ****                 SrvBaroObj.type = sensor_type;
 288:Service/Srv_Baro.c ****                 SrvBaroObj.sensor_obj = SrvOsCommon.malloc(sizeof(DevBMP280Obj_TypeDef));
 289:Service/Srv_Baro.c ****                 SrvBaroObj.sensor_api = &DevBMP280;
 290:Service/Srv_Baro.c **** 
 291:Service/Srv_Baro.c ****                 if ((SrvBaroObj.sensor_obj != NULL) && \
 292:Service/Srv_Baro.c ****                     (SrvBaroObj.sensor_api != NULL))
 293:Service/Srv_Baro.c ****                 {
 294:Service/Srv_Baro.c ****                     ToBMP280_OBJ(SrvBaroObj.sensor_obj)->send = NULL;
 295:Service/Srv_Baro.c ****                     ToBMP280_OBJ(SrvBaroObj.sensor_obj)->recv = NULL;
 296:Service/Srv_Baro.c ****                     ToBMP280_OBJ(SrvBaroObj.sensor_obj)->trans = NULL;
 297:Service/Srv_Baro.c ****                     ToBMP280_OBJ(SrvBaroObj.sensor_obj)->bus_tx = NULL;
 298:Service/Srv_Baro.c ****                     ToBMP280_OBJ(SrvBaroObj.sensor_obj)->bus_rx = NULL;
 299:Service/Srv_Baro.c **** 
ARM GAS  C:\Users\8bit\AppData\Local\Temp\ccIzqRlN.s 			page 10


 300:Service/Srv_Baro.c ****                     /* set sensor object */
 301:Service/Srv_Baro.c ****                     switch (SrvBaroBus.type)
 302:Service/Srv_Baro.c ****                     {
 303:Service/Srv_Baro.c ****                         case SrvBaro_Bus_SPI:
 304:Service/Srv_Baro.c ****                             ToBMP280_OBJ(SrvBaroObj.sensor_obj)->send = SrvBaro_SPIBus_Tx;
 305:Service/Srv_Baro.c ****                             ToBMP280_OBJ(SrvBaroObj.sensor_obj)->recv = SrvBaro_SPIBus_Rx;
 306:Service/Srv_Baro.c ****                             ToBMP280_OBJ(SrvBaroObj.sensor_obj)->trans = SrvBaro_SPIBus_Trans;
 307:Service/Srv_Baro.c ****                             break;
 308:Service/Srv_Baro.c ****                         
 309:Service/Srv_Baro.c ****                         case SrvBaro_Bus_IIC:
 310:Service/Srv_Baro.c ****                             ToBMP280_OBJ(SrvBaroObj.sensor_obj)->DevAddr = BMP280_ADDR_1;
 311:Service/Srv_Baro.c ****                             ToBMP280_OBJ(SrvBaroObj.sensor_obj)->bus_tx = SrvBaro_IICBus_Tx;
 312:Service/Srv_Baro.c ****                             ToBMP280_OBJ(SrvBaroObj.sensor_obj)->bus_rx = SrvBaro_IICBus_Rx;
 313:Service/Srv_Baro.c ****                             break;
 314:Service/Srv_Baro.c **** 
 315:Service/Srv_Baro.c ****                         default: return SrvBaro_Error_BusType;
 316:Service/Srv_Baro.c ****                     }
 317:Service/Srv_Baro.c **** 
 318:Service/Srv_Baro.c ****                     ToBMP280_OBJ(SrvBaroObj.sensor_obj)->get_tick = SrvOsCommon.get_os_ms;
 319:Service/Srv_Baro.c ****                     ToBMP280_OBJ(SrvBaroObj.sensor_obj)->delay_ms = SrvOsCommon.delay_ms;
 320:Service/Srv_Baro.c **** 
 321:Service/Srv_Baro.c ****                     /* device init */
 322:Service/Srv_Baro.c ****                     if (!ToBMP280_API(SrvBaroObj.sensor_api)->init(ToBMP280_OBJ(SrvBaroObj.sensor_o
 323:Service/Srv_Baro.c ****                     {
 324:Service/Srv_Baro.c ****                         ErrorLog.trigger(SrvBaro_Error_Handle, SrvBaro_Error_DevInit, NULL, 0);
 325:Service/Srv_Baro.c ****                         return SrvBaro_Error_DevInit;
 326:Service/Srv_Baro.c ****                     }
 327:Service/Srv_Baro.c **** 
 328:Service/Srv_Baro.c ****                     SrvBaroObj.calib_state = Calib_Start;
 329:Service/Srv_Baro.c ****                     SrvBaroObj.calib_cycle = SRVBARO_DEFAULT_CALI_CYCLE;
 330:Service/Srv_Baro.c ****                     
 331:Service/Srv_Baro.c ****                     SrvBaroObj.data_size = BMP280_DataSize;
 332:Service/Srv_Baro.c ****                     SrvBaroObj.sensor_data = SrvOsCommon.malloc(SrvBaroObj.data_size);
 333:Service/Srv_Baro.c ****                 }
 334:Service/Srv_Baro.c ****                 else
 335:Service/Srv_Baro.c ****                 {
 336:Service/Srv_Baro.c ****                     ErrorLog.trigger(SrvBaro_Error_Handle, SrvBaro_Error_BadSensorObj, NULL, 0);
 337:Service/Srv_Baro.c ****                     return SrvBaro_Error_BadSensorObj;
 338:Service/Srv_Baro.c ****                 }
 339:Service/Srv_Baro.c ****                 break;
 340:Service/Srv_Baro.c ****             
 341:Service/Srv_Baro.c ****             default:
 342:Service/Srv_Baro.c ****                 ErrorLog.trigger(SrvBaro_Error_Handle, SrvBaro_Error_BadType, NULL, 0);
 343:Service/Srv_Baro.c ****                 return SrvBaro_Error_BadType;
 344:Service/Srv_Baro.c ****         }
 345:Service/Srv_Baro.c **** 
 346:Service/Srv_Baro.c ****         SrvBaroObj.sample_period = round(1000.0 / (double)SrvBaroObj.sample_rate);
 347:Service/Srv_Baro.c **** 
 348:Service/Srv_Baro.c ****         /* filter init */
 349:Service/Srv_Baro.c ****         SrvBaroObj.smoothwindow_filter_hdl = SmoothWindow.init(SRVBARO_SMOOTHWINDOW_SIZE);
 350:Service/Srv_Baro.c ****         if (SrvBaroObj.smoothwindow_filter_hdl == 0)
 351:Service/Srv_Baro.c ****         {
 352:Service/Srv_Baro.c ****             ErrorLog.trigger(SrvBaro_Error_Handle, SrvBaro_Error_FilterInit, NULL, 0);
 353:Service/Srv_Baro.c ****             return SrvBaro_Error_FilterInit;
 354:Service/Srv_Baro.c ****         }
 355:Service/Srv_Baro.c **** 
 356:Service/Srv_Baro.c ****         if ((SrvBaroObj.sample_period < SRVBARO_MAX_SAMPLE_PERIOD) || \
ARM GAS  C:\Users\8bit\AppData\Local\Temp\ccIzqRlN.s 			page 11


 357:Service/Srv_Baro.c ****             (SrvBaroObj.sample_period > SRVBARO_MIN_SAMPLE_PERIOD))
 358:Service/Srv_Baro.c ****         {
 359:Service/Srv_Baro.c ****             ErrorLog.trigger(SrvBaro_Error_Handle, SrvBaro_Error_BadSamplePeriod, NULL, 0);
 360:Service/Srv_Baro.c ****             return SrvBaro_Error_BadSamplePeriod;
 361:Service/Srv_Baro.c ****         }
 362:Service/Srv_Baro.c ****     }
 363:Service/Srv_Baro.c ****     else
 364:Service/Srv_Baro.c ****     {
 365:Service/Srv_Baro.c ****         ErrorLog.trigger(SrvBaro_Error_Handle, SrvBaro_Error_BadRate, NULL, 0);
 366:Service/Srv_Baro.c ****         return SrvBaro_Error_BadRate;
 367:Service/Srv_Baro.c ****     }
 368:Service/Srv_Baro.c **** 
 369:Service/Srv_Baro.c ****     return SrvBaro_Error_None;
 370:Service/Srv_Baro.c **** }
 371:Service/Srv_Baro.c **** 
 372:Service/Srv_Baro.c **** static bool SrvBaro_Sample(void)
 373:Service/Srv_Baro.c **** {
 374:Service/Srv_Baro.c ****     if (SrvBaroObj.init_err == SrvBaro_Error_None)
 375:Service/Srv_Baro.c ****     {
 376:Service/Srv_Baro.c ****         switch((uint8_t) SrvBaroObj.type)
 377:Service/Srv_Baro.c ****         {
 378:Service/Srv_Baro.c ****             case Baro_Type_DPS310:
 379:Service/Srv_Baro.c ****                 if (ToDPS310_API(SrvBaroObj.sensor_api)->sample(ToDPS310_OBJ(SrvBaroObj.sensor_obj)
 380:Service/Srv_Baro.c ****                 {
 381:Service/Srv_Baro.c ****                     SrvBaroObj.sample_cnt ++;
 382:Service/Srv_Baro.c **** 
 383:Service/Srv_Baro.c ****                     if (((SrvBaroObj.calib_state == Calib_Start) || 
 384:Service/Srv_Baro.c ****                         (SrvBaroObj.calib_state == Calib_InProcess)) &&
 385:Service/Srv_Baro.c ****                         SrvBaroObj.calib_cycle)
 386:Service/Srv_Baro.c ****                     {
 387:Service/Srv_Baro.c ****                         SrvBaroObj.pressure_add_sum += ToDPS310_OBJ(SrvBaroObj.sensor_obj)->pressur
 388:Service/Srv_Baro.c ****                         SrvBaroObj.pressure_add_sum /= 2;
 389:Service/Srv_Baro.c **** 
 390:Service/Srv_Baro.c ****                         SrvBaroObj.calib_cycle --;
 391:Service/Srv_Baro.c **** 
 392:Service/Srv_Baro.c ****                         if (SrvBaroObj.calib_cycle == 0)
 393:Service/Srv_Baro.c ****                         {
 394:Service/Srv_Baro.c ****                             SrvBaroObj.calib_state = Calib_Done;
 395:Service/Srv_Baro.c ****                             SrvBaroObj.alt_offset = SrvBaro_PessureCnvToMeter(SrvBaroObj.pressure_a
 396:Service/Srv_Baro.c ****                             SrvBaroObj.pressure_add_sum = 0.0f;
 397:Service/Srv_Baro.c ****                         }
 398:Service/Srv_Baro.c ****                         else
 399:Service/Srv_Baro.c ****                             SrvBaroObj.calib_state = Calib_InProcess;
 400:Service/Srv_Baro.c ****                     }
 401:Service/Srv_Baro.c **** 
 402:Service/Srv_Baro.c ****                     return true;
 403:Service/Srv_Baro.c ****                 }
 404:Service/Srv_Baro.c ****                 else
 405:Service/Srv_Baro.c ****                 {
 406:Service/Srv_Baro.c ****                     SrvBaroObj.sample_err_cnt ++;
 407:Service/Srv_Baro.c ****                     return false;
 408:Service/Srv_Baro.c ****                 }
 409:Service/Srv_Baro.c **** 
 410:Service/Srv_Baro.c ****             case  Baro_Type_BMP280:
 411:Service/Srv_Baro.c ****                 if (ToBMP280_API(SrvBaroObj.sensor_api)->sample(ToBMP280_OBJ(SrvBaroObj.sensor_obj)
 412:Service/Srv_Baro.c ****                 {
 413:Service/Srv_Baro.c ****                     SrvBaroObj.sample_cnt ++;
ARM GAS  C:\Users\8bit\AppData\Local\Temp\ccIzqRlN.s 			page 12


 414:Service/Srv_Baro.c **** 
 415:Service/Srv_Baro.c ****                     if (((SrvBaroObj.calib_state == Calib_Start) || \
 416:Service/Srv_Baro.c ****                         (SrvBaroObj.calib_state == Calib_InProcess)) && \
 417:Service/Srv_Baro.c ****                         SrvBaroObj.calib_cycle)
 418:Service/Srv_Baro.c ****                     {
 419:Service/Srv_Baro.c ****                         SrvBaroObj.pressure_add_sum += ToBMP280_OBJ(SrvBaroObj.sensor_obj)->pressur
 420:Service/Srv_Baro.c ****                         SrvBaroObj.pressure_add_sum /= 2;
 421:Service/Srv_Baro.c **** 
 422:Service/Srv_Baro.c ****                         SrvBaroObj.calib_cycle --;
 423:Service/Srv_Baro.c **** 
 424:Service/Srv_Baro.c ****                         if (SrvBaroObj.calib_cycle == 0)
 425:Service/Srv_Baro.c ****                         {
 426:Service/Srv_Baro.c ****                             SrvBaroObj.calib_state = Calib_Done;
 427:Service/Srv_Baro.c ****                             SrvBaroObj.alt_offset = SrvBaro_PessureCnvToMeter(SrvBaroObj.pressure_a
 428:Service/Srv_Baro.c ****                             SrvBaroObj.pressure_add_sum = 0.0f;
 429:Service/Srv_Baro.c ****                         }
 430:Service/Srv_Baro.c ****                         else
 431:Service/Srv_Baro.c ****                             SrvBaroObj.calib_state = Calib_InProcess;
 432:Service/Srv_Baro.c ****                     }
 433:Service/Srv_Baro.c **** 
 434:Service/Srv_Baro.c ****                     return true;
 435:Service/Srv_Baro.c ****                 }
 436:Service/Srv_Baro.c ****                 else
 437:Service/Srv_Baro.c ****                 {
 438:Service/Srv_Baro.c ****                     SrvBaroObj.sample_err_cnt ++;
 439:Service/Srv_Baro.c ****                     return false;
 440:Service/Srv_Baro.c ****                 }
 441:Service/Srv_Baro.c **** 
 442:Service/Srv_Baro.c ****             default:
 443:Service/Srv_Baro.c ****                 return false;
 444:Service/Srv_Baro.c ****         }
 445:Service/Srv_Baro.c ****     }
 446:Service/Srv_Baro.c **** 
 447:Service/Srv_Baro.c ****     return false;
 448:Service/Srv_Baro.c **** }
 449:Service/Srv_Baro.c **** 
 450:Service/Srv_Baro.c **** static GenCalib_State_TypeList SrvBaro_Set_Calib(uint16_t cyc)
 451:Service/Srv_Baro.c **** {
 187              		.loc 1 451 1 is_stmt 1 view -0
 188              		.cfi_startproc
 189              		@ args = 0, pretend = 0, frame = 0
 190              		@ frame_needed = 0, uses_anonymous_args = 0
 191              		@ link register save eliminated.
 192              		.loc 1 451 1 is_stmt 0 view .LVU42
 193 0000 0346     		mov	r3, r0
 452:Service/Srv_Baro.c ****     if (SrvBaroObj.calib_state != Calib_InProcess)
 194              		.loc 1 452 5 is_stmt 1 view .LVU43
 195              		.loc 1 452 19 is_stmt 0 view .LVU44
 196 0002 074A     		ldr	r2, .L11
 197 0004 92F84200 		ldrb	r0, [r2, #66]	@ zero_extendqisi2
 198              	.LVL11:
 199              		.loc 1 452 8 view .LVU45
 200 0008 0228     		cmp	r0, #2
 201 000a 00D1     		bne	.L10
 202              	.L9:
 453:Service/Srv_Baro.c ****     {
 454:Service/Srv_Baro.c ****         SrvBaroObj.calib_cycle = cyc;
ARM GAS  C:\Users\8bit\AppData\Local\Temp\ccIzqRlN.s 			page 13


 455:Service/Srv_Baro.c ****         SrvBaroObj.calib_state = Calib_Start;
 456:Service/Srv_Baro.c ****         SrvBaroObj.alt_offset = 0.0f;
 457:Service/Srv_Baro.c ****         return Calib_InProcess;
 458:Service/Srv_Baro.c ****     }
 459:Service/Srv_Baro.c **** 
 460:Service/Srv_Baro.c ****     return SrvBaroObj.calib_state;
 461:Service/Srv_Baro.c **** }
 203              		.loc 1 461 1 view .LVU46
 204 000c 7047     		bx	lr
 205              	.L10:
 454:Service/Srv_Baro.c ****         SrvBaroObj.calib_state = Calib_Start;
 206              		.loc 1 454 9 is_stmt 1 view .LVU47
 454:Service/Srv_Baro.c ****         SrvBaroObj.calib_state = Calib_Start;
 207              		.loc 1 454 32 is_stmt 0 view .LVU48
 208 000e A2F84030 		strh	r3, [r2, #64]	@ movhi
 455:Service/Srv_Baro.c ****         SrvBaroObj.alt_offset = 0.0f;
 209              		.loc 1 455 9 is_stmt 1 view .LVU49
 455:Service/Srv_Baro.c ****         SrvBaroObj.alt_offset = 0.0f;
 210              		.loc 1 455 32 is_stmt 0 view .LVU50
 211 0012 0123     		movs	r3, #1
 212 0014 82F84230 		strb	r3, [r2, #66]
 456:Service/Srv_Baro.c ****         return Calib_InProcess;
 213              		.loc 1 456 9 is_stmt 1 view .LVU51
 456:Service/Srv_Baro.c ****         return Calib_InProcess;
 214              		.loc 1 456 31 is_stmt 0 view .LVU52
 215 0018 0023     		movs	r3, #0
 216 001a 9364     		str	r3, [r2, #72]	@ float
 457:Service/Srv_Baro.c ****     }
 217              		.loc 1 457 9 is_stmt 1 view .LVU53
 457:Service/Srv_Baro.c ****     }
 218              		.loc 1 457 16 is_stmt 0 view .LVU54
 219 001c 0220     		movs	r0, #2
 220 001e F5E7     		b	.L9
 221              	.L12:
 222              		.align	2
 223              	.L11:
 224 0020 00000000 		.word	.LANCHOR2
 225              		.cfi_endproc
 226              	.LFE145:
 228              		.section	.text.SrvBaro_Get_Calib,"ax",%progbits
 229              		.align	1
 230              		.syntax unified
 231              		.thumb
 232              		.thumb_func
 234              	SrvBaro_Get_Calib:
 235              	.LFB146:
 462:Service/Srv_Baro.c **** 
 463:Service/Srv_Baro.c **** static GenCalib_State_TypeList SrvBaro_Get_Calib(void)
 464:Service/Srv_Baro.c **** {
 236              		.loc 1 464 1 is_stmt 1 view -0
 237              		.cfi_startproc
 238              		@ args = 0, pretend = 0, frame = 0
 239              		@ frame_needed = 0, uses_anonymous_args = 0
 240              		@ link register save eliminated.
 465:Service/Srv_Baro.c ****     return SrvBaroObj.calib_state;
 241              		.loc 1 465 5 view .LVU56
 466:Service/Srv_Baro.c **** }
ARM GAS  C:\Users\8bit\AppData\Local\Temp\ccIzqRlN.s 			page 14


 242              		.loc 1 466 1 is_stmt 0 view .LVU57
 243 0000 014B     		ldr	r3, .L14
 244 0002 93F84200 		ldrb	r0, [r3, #66]	@ zero_extendqisi2
 245 0006 7047     		bx	lr
 246              	.L15:
 247              		.align	2
 248              	.L14:
 249 0008 00000000 		.word	.LANCHOR2
 250              		.cfi_endproc
 251              	.LFE146:
 253              		.section	.text.SrvBaro_IICBus_Tx,"ax",%progbits
 254              		.align	1
 255              		.syntax unified
 256              		.thumb
 257              		.thumb_func
 259              	SrvBaro_IICBus_Tx:
 260              	.LVL12:
 261              	.LFB149:
 467:Service/Srv_Baro.c **** 
 468:Service/Srv_Baro.c **** static float SrvBaro_PessureCnvToMeter(float pa)
 469:Service/Srv_Baro.c **** {
 470:Service/Srv_Baro.c ****     return ((1 - pow((pa / STANDER_ATMOSPHERIC_PRESSURE), 0.1903))) * 44330;
 471:Service/Srv_Baro.c **** }
 472:Service/Srv_Baro.c **** 
 473:Service/Srv_Baro.c **** static bool SrvBaro_Get_Date(SrvBaro_UnionData_TypeDef *data)
 474:Service/Srv_Baro.c **** {
 475:Service/Srv_Baro.c ****     SrvBaro_UnionData_TypeDef baro_data_tmp;
 476:Service/Srv_Baro.c ****     float alt = 0.0f;
 477:Service/Srv_Baro.c ****     uint8_t check_sum = 0;
 478:Service/Srv_Baro.c **** 
 479:Service/Srv_Baro.c ****     memset(baro_data_tmp.buff, 0, sizeof(SrvBaro_UnionData_TypeDef));
 480:Service/Srv_Baro.c **** 
 481:Service/Srv_Baro.c ****     if ((SrvBaroObj.init_err == SrvBaro_Error_None) && data && SrvBaroObj.sensor_data && SrvBaroObj
 482:Service/Srv_Baro.c ****     {
 483:Service/Srv_Baro.c ****         switch ((uint8_t) SrvBaroObj.type)
 484:Service/Srv_Baro.c ****         {
 485:Service/Srv_Baro.c ****             case Baro_Type_DPS310:
 486:Service/Srv_Baro.c ****                 if (ToDPS310_API(SrvBaroObj.sensor_api)->ready(ToDPS310_OBJ(SrvBaroObj.sensor_obj))
 487:Service/Srv_Baro.c ****                 {
 488:Service/Srv_Baro.c ****                     memset(SrvBaroObj.sensor_data, 0, DPS310_DataSize);
 489:Service/Srv_Baro.c ****                     *ToDPS310_DataPtr(SrvBaroObj.sensor_data) = ToDPS310_API(SrvBaroObj.sensor_api)
 490:Service/Srv_Baro.c ****                     
 491:Service/Srv_Baro.c ****                     /* convert baro pressure to meter */
 492:Service/Srv_Baro.c ****                     alt = SrvBaro_PessureCnvToMeter(ToDPS310_DataPtr(SrvBaroObj.sensor_data)->scale
 493:Service/Srv_Baro.c **** 
 494:Service/Srv_Baro.c ****                     baro_data_tmp.data.time_stamp = ToDPS310_DataPtr(SrvBaroObj.sensor_data)->time_
 495:Service/Srv_Baro.c ****                     baro_data_tmp.data.cyc = ToDPS310_DataPtr(SrvBaroObj.sensor_data)->cyc;
 496:Service/Srv_Baro.c ****                     baro_data_tmp.data.pressure_alt_offset = SrvBaroObj.alt_offset;
 497:Service/Srv_Baro.c ****                     baro_data_tmp.data.pressure_alt = alt - SrvBaroObj.alt_offset;
 498:Service/Srv_Baro.c ****                     baro_data_tmp.data.tempra = ToDPS310_DataPtr(SrvBaroObj.sensor_data)->scaled_te
 499:Service/Srv_Baro.c ****                     baro_data_tmp.data.pressure = ToDPS310_DataPtr(SrvBaroObj.sensor_data)->scaled_
 500:Service/Srv_Baro.c **** 
 501:Service/Srv_Baro.c ****                     /* doing baro filter */
 502:Service/Srv_Baro.c ****                     baro_data_tmp.data.pressure_alt = SmoothWindow.update(SrvBaroObj.smoothwindow_f
 503:Service/Srv_Baro.c ****                     for(uint8_t i = 0; i < sizeof(baro_data_tmp.buff) - sizeof(baro_data_tmp.data.c
 504:Service/Srv_Baro.c ****                         check_sum += baro_data_tmp.buff[i];
 505:Service/Srv_Baro.c ****                     baro_data_tmp.data.check_sum = check_sum;
ARM GAS  C:\Users\8bit\AppData\Local\Temp\ccIzqRlN.s 			page 15


 506:Service/Srv_Baro.c ****                     memcpy(data, &baro_data_tmp, sizeof(SrvBaroData_TypeDef));
 507:Service/Srv_Baro.c ****                     
 508:Service/Srv_Baro.c ****                     return true;
 509:Service/Srv_Baro.c ****                 }
 510:Service/Srv_Baro.c ****                 break;
 511:Service/Srv_Baro.c ****             
 512:Service/Srv_Baro.c ****             case Baro_Type_BMP280:
 513:Service/Srv_Baro.c ****                 if (ToBMP280_API(SrvBaroObj.sensor_api)->ready(ToBMP280_OBJ(SrvBaroObj.sensor_obj))
 514:Service/Srv_Baro.c ****                 {
 515:Service/Srv_Baro.c ****                     memset(SrvBaroObj.sensor_data, 0, BMP280_DataSize);
 516:Service/Srv_Baro.c ****                     *ToBMP280_DataPtr(SrvBaroObj.sensor_data) = ToBMP280_API(SrvBaroObj.sensor_api)
 517:Service/Srv_Baro.c ****                     
 518:Service/Srv_Baro.c ****                     /* convert baro pressure to meter */
 519:Service/Srv_Baro.c ****                     alt = SrvBaro_PessureCnvToMeter(ToBMP280_DataPtr(SrvBaroObj.sensor_data)->scale
 520:Service/Srv_Baro.c **** 
 521:Service/Srv_Baro.c ****                     baro_data_tmp.data.time_stamp = ToBMP280_DataPtr(SrvBaroObj.sensor_data)->time_
 522:Service/Srv_Baro.c ****                     baro_data_tmp.data.cyc = ToBMP280_DataPtr(SrvBaroObj.sensor_data)->cyc;
 523:Service/Srv_Baro.c ****                     baro_data_tmp.data.pressure_alt_offset = SrvBaroObj.alt_offset;
 524:Service/Srv_Baro.c ****                     baro_data_tmp.data.pressure_alt = alt - SrvBaroObj.alt_offset;
 525:Service/Srv_Baro.c ****                     baro_data_tmp.data.tempra = ToBMP280_DataPtr(SrvBaroObj.sensor_data)->scaled_te
 526:Service/Srv_Baro.c ****                     baro_data_tmp.data.pressure = ToBMP280_DataPtr(SrvBaroObj.sensor_data)->scaled_
 527:Service/Srv_Baro.c **** 
 528:Service/Srv_Baro.c ****                     /* doing baro filter */
 529:Service/Srv_Baro.c ****                     baro_data_tmp.data.pressure_alt = SmoothWindow.update(SrvBaroObj.smoothwindow_f
 530:Service/Srv_Baro.c ****                     for (uint8_t i = 0; i < sizeof(baro_data_tmp.buff) - sizeof(baro_data_tmp.data.
 531:Service/Srv_Baro.c ****                         check_sum += baro_data_tmp.buff[i];
 532:Service/Srv_Baro.c ****                     baro_data_tmp.data.check_sum = check_sum;
 533:Service/Srv_Baro.c ****                     memcpy(data, &baro_data_tmp, sizeof(SrvBaroData_TypeDef));
 534:Service/Srv_Baro.c ****                     
 535:Service/Srv_Baro.c ****                     return true;
 536:Service/Srv_Baro.c ****                 }
 537:Service/Srv_Baro.c ****                 break;
 538:Service/Srv_Baro.c **** 
 539:Service/Srv_Baro.c ****             default: break;
 540:Service/Srv_Baro.c ****         }
 541:Service/Srv_Baro.c ****     }
 542:Service/Srv_Baro.c **** 
 543:Service/Srv_Baro.c ****     return false;
 544:Service/Srv_Baro.c **** }
 545:Service/Srv_Baro.c **** 
 546:Service/Srv_Baro.c **** /*************************************************************** Bus Comunicate Callback **********
 547:Service/Srv_Baro.c **** static bool SrvBaro_IICBus_Tx(uint16_t dev_addr, uint16_t reg_addr, uint8_t *p_data, uint8_t len)
 548:Service/Srv_Baro.c **** {
 262              		.loc 1 548 1 is_stmt 1 view -0
 263              		.cfi_startproc
 264              		@ args = 0, pretend = 0, frame = 0
 265              		@ frame_needed = 0, uses_anonymous_args = 0
 266              		.loc 1 548 1 is_stmt 0 view .LVU59
 267 0000 30B5     		push	{r4, r5, lr}
 268              	.LCFI4:
 269              		.cfi_def_cfa_offset 12
 270              		.cfi_offset 4, -12
 271              		.cfi_offset 5, -8
 272              		.cfi_offset 14, -4
 273 0002 83B0     		sub	sp, sp, #12
 274              	.LCFI5:
 275              		.cfi_def_cfa_offset 24
ARM GAS  C:\Users\8bit\AppData\Local\Temp\ccIzqRlN.s 			page 16


 276 0004 8646     		mov	lr, r0
 549:Service/Srv_Baro.c ****     BspIICObj_TypeDef *IICBusObj = NULL;
 277              		.loc 1 549 5 is_stmt 1 view .LVU60
 278              	.LVL13:
 550:Service/Srv_Baro.c **** 
 551:Service/Srv_Baro.c ****     if (SrvBaroBus.init && ((p_data != NULL) || (len != 0)))
 279              		.loc 1 551 5 view .LVU61
 280              		.loc 1 551 19 is_stmt 0 view .LVU62
 281 0006 0B4C     		ldr	r4, .L22
 282 0008 6078     		ldrb	r0, [r4, #1]	@ zero_extendqisi2
 283              	.LVL14:
 284              		.loc 1 551 8 view .LVU63
 285 000a 60B1     		cbz	r0, .L17
 286 000c 8C46     		mov	ip, r1
 287              		.loc 1 551 25 discriminator 1 view .LVU64
 288 000e 62B1     		cbz	r2, .L21
 289              	.L18:
 552:Service/Srv_Baro.c ****     {
 553:Service/Srv_Baro.c ****         IICBusObj = ToIIC_BusObj(SrvBaroBus.bus_obj);
 290              		.loc 1 553 9 is_stmt 1 view .LVU65
 291              		.loc 1 553 19 is_stmt 0 view .LVU66
 292 0010 084C     		ldr	r4, .L22
 293              	.LVL15:
 554:Service/Srv_Baro.c ****         return ToIIC_BusAPI(SrvBaroBus.bus_api)->write(IICBusObj, dev_addr << 1, reg_addr, p_data, 
 294              		.loc 1 554 9 is_stmt 1 view .LVU67
 295              		.loc 1 554 16 is_stmt 0 view .LVU68
 296 0012 6168     		ldr	r1, [r4, #4]
 297              	.LVL16:
 298              		.loc 1 554 48 view .LVU69
 299 0014 CD68     		ldr	r5, [r1, #12]
 300              		.loc 1 554 16 view .LVU70
 301 0016 4FEA4E00 		lsl	r0, lr, #1
 302 001a 81B2     		uxth	r1, r0
 303 001c 0093     		str	r3, [sp]
 304 001e 1346     		mov	r3, r2
 305              	.LVL17:
 306              		.loc 1 554 16 view .LVU71
 307 0020 6246     		mov	r2, ip
 308              	.LVL18:
 309              		.loc 1 554 16 view .LVU72
 310 0022 A068     		ldr	r0, [r4, #8]
 311 0024 A847     		blx	r5
 312              	.LVL19:
 313              	.L17:
 555:Service/Srv_Baro.c ****     }
 556:Service/Srv_Baro.c **** 
 557:Service/Srv_Baro.c ****     return false;
 558:Service/Srv_Baro.c **** }
 314              		.loc 1 558 1 view .LVU73
 315 0026 03B0     		add	sp, sp, #12
 316              	.LCFI6:
 317              		.cfi_remember_state
 318              		.cfi_def_cfa_offset 12
 319              		@ sp needed
 320 0028 30BD     		pop	{r4, r5, pc}
 321              	.LVL20:
 322              	.L21:
ARM GAS  C:\Users\8bit\AppData\Local\Temp\ccIzqRlN.s 			page 17


 323              	.LCFI7:
 324              		.cfi_restore_state
 551:Service/Srv_Baro.c ****     {
 325              		.loc 1 551 46 discriminator 2 view .LVU74
 326 002a 002B     		cmp	r3, #0
 327 002c F0D1     		bne	.L18
 557:Service/Srv_Baro.c **** }
 328              		.loc 1 557 12 view .LVU75
 329 002e 0020     		movs	r0, #0
 330 0030 F9E7     		b	.L17
 331              	.L23:
 332 0032 00BF     		.align	2
 333              	.L22:
 334 0034 00000000 		.word	.LANCHOR0
 335              		.cfi_endproc
 336              	.LFE149:
 338              		.section	.text.SrvBaro_IICBus_Rx,"ax",%progbits
 339              		.align	1
 340              		.syntax unified
 341              		.thumb
 342              		.thumb_func
 344              	SrvBaro_IICBus_Rx:
 345              	.LVL21:
 346              	.LFB150:
 559:Service/Srv_Baro.c **** 
 560:Service/Srv_Baro.c **** static bool SrvBaro_IICBus_Rx(uint16_t dev_addr, uint16_t reg_addr, uint8_t *p_data, uint8_t len)
 561:Service/Srv_Baro.c **** {
 347              		.loc 1 561 1 is_stmt 1 view -0
 348              		.cfi_startproc
 349              		@ args = 0, pretend = 0, frame = 0
 350              		@ frame_needed = 0, uses_anonymous_args = 0
 351              		.loc 1 561 1 is_stmt 0 view .LVU77
 352 0000 30B5     		push	{r4, r5, lr}
 353              	.LCFI8:
 354              		.cfi_def_cfa_offset 12
 355              		.cfi_offset 4, -12
 356              		.cfi_offset 5, -8
 357              		.cfi_offset 14, -4
 358 0002 83B0     		sub	sp, sp, #12
 359              	.LCFI9:
 360              		.cfi_def_cfa_offset 24
 361 0004 8646     		mov	lr, r0
 562:Service/Srv_Baro.c ****     BspIICObj_TypeDef *IICBusObj = NULL;
 362              		.loc 1 562 5 is_stmt 1 view .LVU78
 363              	.LVL22:
 563:Service/Srv_Baro.c **** 
 564:Service/Srv_Baro.c ****     if (SrvBaroBus.init && ((p_data != NULL) || (len != 0)))
 364              		.loc 1 564 5 view .LVU79
 365              		.loc 1 564 19 is_stmt 0 view .LVU80
 366 0006 0B4C     		ldr	r4, .L30
 367 0008 6078     		ldrb	r0, [r4, #1]	@ zero_extendqisi2
 368              	.LVL23:
 369              		.loc 1 564 8 view .LVU81
 370 000a 60B1     		cbz	r0, .L25
 371 000c 8C46     		mov	ip, r1
 372              		.loc 1 564 25 discriminator 1 view .LVU82
 373 000e 62B1     		cbz	r2, .L29
ARM GAS  C:\Users\8bit\AppData\Local\Temp\ccIzqRlN.s 			page 18


 374              	.L26:
 565:Service/Srv_Baro.c ****     {
 566:Service/Srv_Baro.c ****         IICBusObj = ToIIC_BusObj(SrvBaroBus.bus_obj);
 375              		.loc 1 566 9 is_stmt 1 view .LVU83
 376              		.loc 1 566 19 is_stmt 0 view .LVU84
 377 0010 084C     		ldr	r4, .L30
 378              	.LVL24:
 567:Service/Srv_Baro.c ****         return ToIIC_BusAPI(SrvBaroBus.bus_api)->read(IICBusObj, dev_addr << 1, reg_addr, p_data, l
 379              		.loc 1 567 9 is_stmt 1 view .LVU85
 380              		.loc 1 567 16 is_stmt 0 view .LVU86
 381 0012 6168     		ldr	r1, [r4, #4]
 382              	.LVL25:
 383              		.loc 1 567 48 view .LVU87
 384 0014 8D68     		ldr	r5, [r1, #8]
 385              		.loc 1 567 16 view .LVU88
 386 0016 4FEA4E00 		lsl	r0, lr, #1
 387 001a 81B2     		uxth	r1, r0
 388 001c 0093     		str	r3, [sp]
 389 001e 1346     		mov	r3, r2
 390              	.LVL26:
 391              		.loc 1 567 16 view .LVU89
 392 0020 6246     		mov	r2, ip
 393              	.LVL27:
 394              		.loc 1 567 16 view .LVU90
 395 0022 A068     		ldr	r0, [r4, #8]
 396 0024 A847     		blx	r5
 397              	.LVL28:
 398              	.L25:
 568:Service/Srv_Baro.c ****     }
 569:Service/Srv_Baro.c **** 
 570:Service/Srv_Baro.c ****     return false;
 571:Service/Srv_Baro.c **** }
 399              		.loc 1 571 1 view .LVU91
 400 0026 03B0     		add	sp, sp, #12
 401              	.LCFI10:
 402              		.cfi_remember_state
 403              		.cfi_def_cfa_offset 12
 404              		@ sp needed
 405 0028 30BD     		pop	{r4, r5, pc}
 406              	.LVL29:
 407              	.L29:
 408              	.LCFI11:
 409              		.cfi_restore_state
 564:Service/Srv_Baro.c ****     {
 410              		.loc 1 564 46 discriminator 2 view .LVU92
 411 002a 002B     		cmp	r3, #0
 412 002c F0D1     		bne	.L26
 570:Service/Srv_Baro.c **** }
 413              		.loc 1 570 12 view .LVU93
 414 002e 0020     		movs	r0, #0
 415 0030 F9E7     		b	.L25
 416              	.L31:
 417 0032 00BF     		.align	2
 418              	.L30:
 419 0034 00000000 		.word	.LANCHOR0
 420              		.cfi_endproc
 421              	.LFE150:
ARM GAS  C:\Users\8bit\AppData\Local\Temp\ccIzqRlN.s 			page 19


 423              		.section	.text.SrvBaro_SPIBus_Trans,"ax",%progbits
 424              		.align	1
 425              		.syntax unified
 426              		.thumb
 427              		.thumb_func
 429              	SrvBaro_SPIBus_Trans:
 430              	.LVL30:
 431              	.LFB151:
 572:Service/Srv_Baro.c **** 
 573:Service/Srv_Baro.c **** static uint16_t SrvBaro_SPIBus_Trans(uint8_t *p_tx, uint8_t *p_rx, uint16_t len)
 574:Service/Srv_Baro.c **** {
 432              		.loc 1 574 1 is_stmt 1 view -0
 433              		.cfi_startproc
 434              		@ args = 0, pretend = 0, frame = 0
 435              		@ frame_needed = 0, uses_anonymous_args = 0
 436              		@ link register save eliminated.
 575:Service/Srv_Baro.c ****     uint16_t res = 0;
 437              		.loc 1 575 5 view .LVU95
 576:Service/Srv_Baro.c **** 
 577:Service/Srv_Baro.c ****     if (p_tx && p_rx && len && \
 438              		.loc 1 577 5 view .LVU96
 578:Service/Srv_Baro.c ****         SrvBaroBus.init && \
 579:Service/Srv_Baro.c ****         (p_Baro_CS != NULL) && \
 580:Service/Srv_Baro.c ****         (SrvBaroBus.type == SrvBaro_Bus_SPI))
 581:Service/Srv_Baro.c ****     {
 582:Service/Srv_Baro.c ****         /* CS Low */
 583:Service/Srv_Baro.c ****         BspGPIO.write(*p_Baro_CS, false);
 584:Service/Srv_Baro.c **** 
 585:Service/Srv_Baro.c ****         if (ToSPI_BusAPI(SrvBaroBus.bus_api)->trans_receive(&Baro_Bus_Instance, p_tx, p_rx, len, 10
 586:Service/Srv_Baro.c ****             res = len;
 587:Service/Srv_Baro.c **** 
 588:Service/Srv_Baro.c ****         /* CS High */
 589:Service/Srv_Baro.c ****         BspGPIO.write(*p_Baro_CS, true);
 590:Service/Srv_Baro.c ****     }
 591:Service/Srv_Baro.c **** 
 592:Service/Srv_Baro.c ****     return res;
 439              		.loc 1 592 5 view .LVU97
 593:Service/Srv_Baro.c **** }
 440              		.loc 1 593 1 is_stmt 0 view .LVU98
 441 0000 0020     		movs	r0, #0
 442              	.LVL31:
 443              		.loc 1 593 1 view .LVU99
 444 0002 7047     		bx	lr
 445              		.cfi_endproc
 446              	.LFE151:
 448              		.section	.text.SrvBaro_SPIBus_Tx,"ax",%progbits
 449              		.align	1
 450              		.syntax unified
 451              		.thumb
 452              		.thumb_func
 454              	SrvBaro_SPIBus_Tx:
 455              	.LVL32:
 456              	.LFB152:
 594:Service/Srv_Baro.c **** 
 595:Service/Srv_Baro.c **** static uint16_t SrvBaro_SPIBus_Tx(uint8_t *p_data, uint16_t len)
 596:Service/Srv_Baro.c **** {
 457              		.loc 1 596 1 is_stmt 1 view -0
ARM GAS  C:\Users\8bit\AppData\Local\Temp\ccIzqRlN.s 			page 20


 458              		.cfi_startproc
 459              		@ args = 0, pretend = 0, frame = 0
 460              		@ frame_needed = 0, uses_anonymous_args = 0
 461              		@ link register save eliminated.
 597:Service/Srv_Baro.c ****     uint16_t res = 0;
 462              		.loc 1 597 5 view .LVU101
 598:Service/Srv_Baro.c **** 
 599:Service/Srv_Baro.c ****     if (p_data && len && \
 463              		.loc 1 599 5 view .LVU102
 600:Service/Srv_Baro.c ****         SrvBaroBus.init && \
 601:Service/Srv_Baro.c ****         (p_Baro_CS != NULL) && \
 602:Service/Srv_Baro.c ****         (SrvBaroBus.type == SrvBaro_Bus_SPI))
 603:Service/Srv_Baro.c ****     {
 604:Service/Srv_Baro.c ****         /* CS Low */
 605:Service/Srv_Baro.c ****         BspGPIO.write(*p_Baro_CS, false);
 606:Service/Srv_Baro.c **** 
 607:Service/Srv_Baro.c ****         if (ToSPI_BusAPI(SrvBaroBus.bus_api)->trans(&Baro_Bus_Instance, p_data, len, 100))
 608:Service/Srv_Baro.c ****             res = len;
 609:Service/Srv_Baro.c **** 
 610:Service/Srv_Baro.c ****         /* CS High */
 611:Service/Srv_Baro.c ****         BspGPIO.write(*p_Baro_CS, true);
 612:Service/Srv_Baro.c ****     }
 613:Service/Srv_Baro.c **** 
 614:Service/Srv_Baro.c ****     return res;
 464              		.loc 1 614 5 view .LVU103
 615:Service/Srv_Baro.c **** }
 465              		.loc 1 615 1 is_stmt 0 view .LVU104
 466 0000 0020     		movs	r0, #0
 467              	.LVL33:
 468              		.loc 1 615 1 view .LVU105
 469 0002 7047     		bx	lr
 470              		.cfi_endproc
 471              	.LFE152:
 473              		.section	.text.SrvBaro_SPIBus_Rx,"ax",%progbits
 474              		.align	1
 475              		.syntax unified
 476              		.thumb
 477              		.thumb_func
 479              	SrvBaro_SPIBus_Rx:
 480              	.LVL34:
 481              	.LFB153:
 616:Service/Srv_Baro.c **** 
 617:Service/Srv_Baro.c **** static uint16_t SrvBaro_SPIBus_Rx(uint8_t *p_data, uint16_t len)
 618:Service/Srv_Baro.c **** {
 482              		.loc 1 618 1 is_stmt 1 view -0
 483              		.cfi_startproc
 484              		@ args = 0, pretend = 0, frame = 0
 485              		@ frame_needed = 0, uses_anonymous_args = 0
 619:Service/Srv_Baro.c ****     uint16_t res = 0;
 486              		.loc 1 619 5 view .LVU107
 620:Service/Srv_Baro.c **** 
 621:Service/Srv_Baro.c ****     if (p_data && len && \
 487              		.loc 1 621 5 view .LVU108
 488              		.loc 1 621 8 is_stmt 0 view .LVU109
 489 0000 20B3     		cbz	r0, .L37
 618:Service/Srv_Baro.c ****     uint16_t res = 0;
 490              		.loc 1 618 1 discriminator 1 view .LVU110
ARM GAS  C:\Users\8bit\AppData\Local\Temp\ccIzqRlN.s 			page 21


 491 0002 70B5     		push	{r4, r5, r6, lr}
 492              	.LCFI12:
 493              		.cfi_def_cfa_offset 16
 494              		.cfi_offset 4, -16
 495              		.cfi_offset 5, -12
 496              		.cfi_offset 6, -8
 497              		.cfi_offset 14, -4
 498 0004 0C46     		mov	r4, r1
 499 0006 0546     		mov	r5, r0
 500              		.loc 1 621 16 discriminator 1 view .LVU111
 501 0008 11B3     		cbz	r1, .L38
 622:Service/Srv_Baro.c ****         SrvBaroBus.init && \
 502              		.loc 1 622 19 discriminator 2 view .LVU112
 503 000a 134B     		ldr	r3, .L46
 504 000c 5B78     		ldrb	r3, [r3, #1]	@ zero_extendqisi2
 621:Service/Srv_Baro.c ****         SrvBaroBus.init && \
 505              		.loc 1 621 23 discriminator 2 view .LVU113
 506 000e 0BB3     		cbz	r3, .L39
 623:Service/Srv_Baro.c ****         (SrvBaroBus.type == SrvBaro_Bus_SPI))
 507              		.loc 1 623 20 view .LVU114
 508 0010 114B     		ldr	r3, .L46
 509 0012 1B78     		ldrb	r3, [r3]	@ zero_extendqisi2
 622:Service/Srv_Baro.c ****         SrvBaroBus.init && \
 510              		.loc 1 622 25 view .LVU115
 511 0014 022B     		cmp	r3, #2
 512 0016 01D0     		beq	.L45
 619:Service/Srv_Baro.c **** 
 513              		.loc 1 619 14 view .LVU116
 514 0018 0020     		movs	r0, #0
 515              	.LVL35:
 619:Service/Srv_Baro.c **** 
 516              		.loc 1 619 14 view .LVU117
 517 001a 1AE0     		b	.L35
 518              	.LVL36:
 519              	.L45:
 624:Service/Srv_Baro.c ****     {
 625:Service/Srv_Baro.c ****         /* CS Low */
 626:Service/Srv_Baro.c ****         BspGPIO.write(*p_Baro_CS, false);
 520              		.loc 1 626 9 is_stmt 1 view .LVU118
 521              		.loc 1 626 16 is_stmt 0 view .LVU119
 522 001c 0F4B     		ldr	r3, .L46+4
 523 001e DE69     		ldr	r6, [r3, #28]
 524              		.loc 1 626 9 view .LVU120
 525 0020 0023     		movs	r3, #0
 526 0022 93E80700 		ldm	r3, {r0, r1, r2}
 527              	.LVL37:
 528              		.loc 1 626 9 view .LVU121
 529 0026 B047     		blx	r6
 530              	.LVL38:
 627:Service/Srv_Baro.c **** 
 628:Service/Srv_Baro.c ****         if (ToSPI_BusAPI(SrvBaroBus.bus_api)->receive(&Baro_Bus_Instance, p_data, len, 100))
 531              		.loc 1 628 9 is_stmt 1 view .LVU122
 532              		.loc 1 628 13 is_stmt 0 view .LVU123
 533 0028 0B4B     		ldr	r3, .L46
 534 002a 5B68     		ldr	r3, [r3, #4]
 535              		.loc 1 628 45 view .LVU124
 536 002c DE68     		ldr	r6, [r3, #12]
ARM GAS  C:\Users\8bit\AppData\Local\Temp\ccIzqRlN.s 			page 22


 537              		.loc 1 628 13 view .LVU125
 538 002e 6423     		movs	r3, #100
 539 0030 2246     		mov	r2, r4
 540 0032 2946     		mov	r1, r5
 541 0034 0A48     		ldr	r0, .L46+8
 542 0036 B047     		blx	r6
 543              	.LVL39:
 544              		.loc 1 628 12 view .LVU126
 545 0038 00B9     		cbnz	r0, .L36
 619:Service/Srv_Baro.c **** 
 546              		.loc 1 619 14 view .LVU127
 547 003a 0024     		movs	r4, #0
 548              	.L36:
 549              	.LVL40:
 629:Service/Srv_Baro.c ****             res = len;
 630:Service/Srv_Baro.c ****         
 631:Service/Srv_Baro.c ****         /* CS High */
 632:Service/Srv_Baro.c ****         BspGPIO.write(*p_Baro_CS, true);
 550              		.loc 1 632 9 is_stmt 1 view .LVU128
 551              		.loc 1 632 16 is_stmt 0 view .LVU129
 552 003c 074B     		ldr	r3, .L46+4
 553 003e DD69     		ldr	r5, [r3, #28]
 554              	.LVL41:
 555              		.loc 1 632 9 view .LVU130
 556 0040 0022     		movs	r2, #0
 557 0042 0123     		movs	r3, #1
 558 0044 07CA     		ldm	r2, {r0, r1, r2}
 559 0046 A847     		blx	r5
 560              	.LVL42:
 561 0048 2046     		mov	r0, r4
 562 004a 02E0     		b	.L35
 563              	.LVL43:
 564              	.L37:
 565              	.LCFI13:
 566              		.cfi_def_cfa_offset 0
 567              		.cfi_restore 4
 568              		.cfi_restore 5
 569              		.cfi_restore 6
 570              		.cfi_restore 14
 619:Service/Srv_Baro.c **** 
 571              		.loc 1 619 14 view .LVU131
 572 004c 0020     		movs	r0, #0
 573              	.LVL44:
 633:Service/Srv_Baro.c ****     }
 634:Service/Srv_Baro.c ****     
 635:Service/Srv_Baro.c ****     return res;
 574              		.loc 1 635 5 is_stmt 1 view .LVU132
 636:Service/Srv_Baro.c **** }
 575              		.loc 1 636 1 is_stmt 0 view .LVU133
 576 004e 7047     		bx	lr
 577              	.LVL45:
 578              	.L38:
 579              	.LCFI14:
 580              		.cfi_def_cfa_offset 16
 581              		.cfi_offset 4, -16
 582              		.cfi_offset 5, -12
 583              		.cfi_offset 6, -8
ARM GAS  C:\Users\8bit\AppData\Local\Temp\ccIzqRlN.s 			page 23


 584              		.cfi_offset 14, -4
 619:Service/Srv_Baro.c **** 
 585              		.loc 1 619 14 view .LVU134
 586 0050 0846     		mov	r0, r1
 587              	.LVL46:
 588              	.L35:
 635:Service/Srv_Baro.c **** }
 589              		.loc 1 635 5 is_stmt 1 view .LVU135
 590              		.loc 1 636 1 is_stmt 0 view .LVU136
 591 0052 70BD     		pop	{r4, r5, r6, pc}
 592              	.LVL47:
 593              	.L39:
 619:Service/Srv_Baro.c **** 
 594              		.loc 1 619 14 view .LVU137
 595 0054 0020     		movs	r0, #0
 596              	.LVL48:
 619:Service/Srv_Baro.c **** 
 597              		.loc 1 619 14 view .LVU138
 598 0056 FCE7     		b	.L35
 599              	.L47:
 600              		.align	2
 601              	.L46:
 602 0058 00000000 		.word	.LANCHOR0
 603 005c 00000000 		.word	BspGPIO
 604 0060 00000000 		.word	.LANCHOR1
 605              		.cfi_endproc
 606              	.LFE153:
 608              		.section	.rodata.SrvBaro_BusInitError.str1.4,"aMS",%progbits,1
 609              		.align	2
 610              	.LC0:
 611 0000 53727642 		.ascii	"SrvBaro Triggered Unknow ErrorCode: %d\015\012\000"
 611      61726F20 
 611      54726967 
 611      67657265 
 611      6420556E 
 612              		.section	.text.SrvBaro_BusInitError,"ax",%progbits
 613              		.align	1
 614              		.syntax unified
 615              		.thumb
 616              		.thumb_func
 618              	SrvBaro_BusInitError:
 619              	.LVL49:
 620              	.LFB154:
 637:Service/Srv_Baro.c **** 
 638:Service/Srv_Baro.c **** /*************************************************************** Error Process Callback ***********
 639:Service/Srv_Baro.c **** static void SrvBaro_BusInitError(int16_t code, uint8_t *p_arg, uint16_t size)
 640:Service/Srv_Baro.c **** {
 621              		.loc 1 640 1 is_stmt 1 view -0
 622              		.cfi_startproc
 623              		@ args = 0, pretend = 0, frame = 0
 624              		@ frame_needed = 0, uses_anonymous_args = 0
 641:Service/Srv_Baro.c ****     switch(code)
 625              		.loc 1 641 5 view .LVU140
 626 0000 0128     		cmp	r0, #1
 627 0002 0CD0     		beq	.L52
 640:Service/Srv_Baro.c ****     switch(code)
 628              		.loc 1 640 1 is_stmt 0 view .LVU141
ARM GAS  C:\Users\8bit\AppData\Local\Temp\ccIzqRlN.s 			page 24


 629 0004 08B5     		push	{r3, lr}
 630              	.LCFI15:
 631              		.cfi_def_cfa_offset 8
 632              		.cfi_offset 3, -8
 633              		.cfi_offset 14, -4
 634 0006 0146     		mov	r1, r0
 635              	.LVL50:
 636              		.loc 1 641 5 view .LVU142
 637 0008 0028     		cmp	r0, #0
 638 000a 03DD     		ble	.L50
 639 000c C31E     		subs	r3, r0, #3
 640 000e 9BB2     		uxth	r3, r3
 641 0010 052B     		cmp	r3, #5
 642 0012 03D9     		bls	.L48
 643              	.L50:
 642:Service/Srv_Baro.c ****     {
 643:Service/Srv_Baro.c ****         case SrvBaro_Error_BadRate: break;
 644:Service/Srv_Baro.c ****         case SrvBaro_Error_BadType: break;
 645:Service/Srv_Baro.c ****         case SrvBaro_Error_BadSensorObj: break;
 646:Service/Srv_Baro.c ****         case SrvBaro_Error_BadSamplePeriod: break;
 647:Service/Srv_Baro.c ****         case SrvBaro_Error_BusInit: break;
 648:Service/Srv_Baro.c ****         case SrvBaro_Error_DevInit: break;
 649:Service/Srv_Baro.c ****         case SrvBaro_Error_FilterInit: break;
 650:Service/Srv_Baro.c ****         default:
 651:Service/Srv_Baro.c ****             ErrorLog.add_desc("SrvBaro Triggered Unknow ErrorCode: %d\r\n", code);
 644              		.loc 1 651 13 is_stmt 1 view .LVU143
 645              		.loc 1 651 21 is_stmt 0 view .LVU144
 646 0014 024B     		ldr	r3, .L55
 647 0016 5B69     		ldr	r3, [r3, #20]
 648              		.loc 1 651 13 view .LVU145
 649 0018 0248     		ldr	r0, .L55+4
 650              	.LVL51:
 651              		.loc 1 651 13 view .LVU146
 652 001a 9847     		blx	r3
 653              	.LVL52:
 652:Service/Srv_Baro.c ****         break;
 654              		.loc 1 652 9 is_stmt 1 view .LVU147
 655              	.L48:
 653:Service/Srv_Baro.c ****     }
 654:Service/Srv_Baro.c **** }
 656              		.loc 1 654 1 is_stmt 0 view .LVU148
 657 001c 08BD     		pop	{r3, pc}
 658              	.LVL53:
 659              	.L52:
 660              	.LCFI16:
 661              		.cfi_def_cfa_offset 0
 662              		.cfi_restore 3
 663              		.cfi_restore 14
 664              		.loc 1 654 1 view .LVU149
 665 001e 7047     		bx	lr
 666              	.L56:
 667              		.align	2
 668              	.L55:
 669 0020 00000000 		.word	ErrorLog
 670 0024 00000000 		.word	.LC0
 671              		.cfi_endproc
 672              	.LFE154:
ARM GAS  C:\Users\8bit\AppData\Local\Temp\ccIzqRlN.s 			page 25


 674              		.global	__aeabi_f2d
 675              		.global	__aeabi_dsub
 676              		.global	__aeabi_dmul
 677              		.global	__aeabi_d2f
 678              		.section	.text.SrvBaro_PessureCnvToMeter,"ax",%progbits
 679              		.align	1
 680              		.syntax unified
 681              		.thumb
 682              		.thumb_func
 684              	SrvBaro_PessureCnvToMeter:
 685              	.LVL54:
 686              	.LFB147:
 469:Service/Srv_Baro.c ****     return ((1 - pow((pa / STANDER_ATMOSPHERIC_PRESSURE), 0.1903))) * 44330;
 687              		.loc 1 469 1 is_stmt 1 view -0
 688              		.cfi_startproc
 689              		@ args = 0, pretend = 0, frame = 0
 690              		@ frame_needed = 0, uses_anonymous_args = 0
 469:Service/Srv_Baro.c ****     return ((1 - pow((pa / STANDER_ATMOSPHERIC_PRESSURE), 0.1903))) * 44330;
 691              		.loc 1 469 1 is_stmt 0 view .LVU151
 692 0000 08B5     		push	{r3, lr}
 693              	.LCFI17:
 694              		.cfi_def_cfa_offset 8
 695              		.cfi_offset 3, -8
 696              		.cfi_offset 14, -4
 470:Service/Srv_Baro.c **** }
 697              		.loc 1 470 5 is_stmt 1 view .LVU152
 470:Service/Srv_Baro.c **** }
 698              		.loc 1 470 18 is_stmt 0 view .LVU153
 699 0002 DFED137A 		vldr.32	s15, .L59+16
 700 0006 C0EE277A 		vdiv.f32	s15, s0, s15
 701 000a 17EE900A 		vmov	r0, s15
 702 000e FFF7FEFF 		bl	__aeabi_f2d
 703              	.LVL55:
 470:Service/Srv_Baro.c **** }
 704              		.loc 1 470 18 view .LVU154
 705 0012 9FED0B1B 		vldr.64	d1, .L59
 706 0016 41EC100B 		vmov	d0, r0, r1
 707 001a FFF7FEFF 		bl	pow
 708              	.LVL56:
 709 001e 53EC102B 		vmov	r2, r3, d0
 470:Service/Srv_Baro.c **** }
 710              		.loc 1 470 16 view .LVU155
 711 0022 0020     		movs	r0, #0
 712 0024 0B49     		ldr	r1, .L59+20
 713 0026 FFF7FEFF 		bl	__aeabi_dsub
 714              	.LVL57:
 470:Service/Srv_Baro.c **** }
 715              		.loc 1 470 69 view .LVU156
 716 002a 07A3     		adr	r3, .L59+8
 717 002c D3E90023 		ldrd	r2, [r3]
 718 0030 FFF7FEFF 		bl	__aeabi_dmul
 719              	.LVL58:
 720 0034 FFF7FEFF 		bl	__aeabi_d2f
 721              	.LVL59:
 471:Service/Srv_Baro.c **** 
 722              		.loc 1 471 1 view .LVU157
 723 0038 00EE100A 		vmov	s0, r0
ARM GAS  C:\Users\8bit\AppData\Local\Temp\ccIzqRlN.s 			page 26


 724 003c 08BD     		pop	{r3, pc}
 725              	.L60:
 726 003e 00BF     		.align	3
 727              	.L59:
 728 0040 EBE2361A 		.word	439804651
 729 0044 C05BC83F 		.word	1070095296
 730 0048 00000000 		.word	0
 731 004c 40A5E540 		.word	1088791872
 732 0050 80E6C547 		.word	1204151936
 733 0054 0000F03F 		.word	1072693248
 734              		.cfi_endproc
 735              	.LFE147:
 737              		.section	.text.SrvBaro_Get_Date,"ax",%progbits
 738              		.align	1
 739              		.syntax unified
 740              		.thumb
 741              		.thumb_func
 743              	SrvBaro_Get_Date:
 744              	.LVL60:
 745              	.LFB148:
 474:Service/Srv_Baro.c ****     SrvBaro_UnionData_TypeDef baro_data_tmp;
 746              		.loc 1 474 1 is_stmt 1 view -0
 747              		.cfi_startproc
 748              		@ args = 0, pretend = 0, frame = 48
 749              		@ frame_needed = 0, uses_anonymous_args = 0
 474:Service/Srv_Baro.c ****     SrvBaro_UnionData_TypeDef baro_data_tmp;
 750              		.loc 1 474 1 is_stmt 0 view .LVU159
 751 0000 2DE9F043 		push	{r4, r5, r6, r7, r8, r9, lr}
 752              	.LCFI18:
 753              		.cfi_def_cfa_offset 28
 754              		.cfi_offset 4, -28
 755              		.cfi_offset 5, -24
 756              		.cfi_offset 6, -20
 757              		.cfi_offset 7, -16
 758              		.cfi_offset 8, -12
 759              		.cfi_offset 9, -8
 760              		.cfi_offset 14, -4
 761 0004 8DB0     		sub	sp, sp, #52
 762              	.LCFI19:
 763              		.cfi_def_cfa_offset 80
 475:Service/Srv_Baro.c ****     float alt = 0.0f;
 764              		.loc 1 475 5 is_stmt 1 view .LVU160
 476:Service/Srv_Baro.c ****     uint8_t check_sum = 0;
 765              		.loc 1 476 5 view .LVU161
 766              	.LVL61:
 477:Service/Srv_Baro.c **** 
 767              		.loc 1 477 5 view .LVU162
 479:Service/Srv_Baro.c **** 
 768              		.loc 1 479 5 view .LVU163
 769 0006 0023     		movs	r3, #0
 770 0008 0593     		str	r3, [sp, #20]
 771 000a 0693     		str	r3, [sp, #24]
 772 000c 0793     		str	r3, [sp, #28]
 773 000e 0893     		str	r3, [sp, #32]
 774 0010 0993     		str	r3, [sp, #36]
 775 0012 0A93     		str	r3, [sp, #40]
 776 0014 0B93     		str	r3, [sp, #44]
ARM GAS  C:\Users\8bit\AppData\Local\Temp\ccIzqRlN.s 			page 27


 481:Service/Srv_Baro.c ****     {
 777              		.loc 1 481 5 view .LVU164
 481:Service/Srv_Baro.c ****     {
 778              		.loc 1 481 20 is_stmt 0 view .LVU165
 779 0016 654B     		ldr	r3, .L74
 780 0018 1C7C     		ldrb	r4, [r3, #16]	@ zero_extendqisi2
 481:Service/Srv_Baro.c ****     {
 781              		.loc 1 481 8 view .LVU166
 782 001a 002C     		cmp	r4, #0
 783 001c 40F0BA80 		bne	.L69
 784 0020 0646     		mov	r6, r0
 481:Service/Srv_Baro.c ****     {
 785              		.loc 1 481 53 discriminator 1 view .LVU167
 786 0022 0028     		cmp	r0, #0
 787 0024 00F0BB80 		beq	.L70
 481:Service/Srv_Baro.c ****     {
 788              		.loc 1 481 74 discriminator 2 view .LVU168
 789 0028 5B69     		ldr	r3, [r3, #20]
 481:Service/Srv_Baro.c ****     {
 790              		.loc 1 481 61 discriminator 2 view .LVU169
 791 002a 002B     		cmp	r3, #0
 792 002c 00F0B980 		beq	.L71
 481:Service/Srv_Baro.c ****     {
 793              		.loc 1 481 100 discriminator 3 view .LVU170
 794 0030 5E4B     		ldr	r3, .L74
 795 0032 1B7E     		ldrb	r3, [r3, #24]	@ zero_extendqisi2
 481:Service/Srv_Baro.c ****     {
 796              		.loc 1 481 87 discriminator 3 view .LVU171
 797 0034 002B     		cmp	r3, #0
 798 0036 00F0B680 		beq	.L72
 483:Service/Srv_Baro.c ****         {
 799              		.loc 1 483 9 is_stmt 1 view .LVU172
 483:Service/Srv_Baro.c ****         {
 800              		.loc 1 483 37 is_stmt 0 view .LVU173
 801 003a 5C4B     		ldr	r3, .L74
 802 003c 1B78     		ldrb	r3, [r3]	@ zero_extendqisi2
 483:Service/Srv_Baro.c ****         {
 803              		.loc 1 483 9 view .LVU174
 804 003e 012B     		cmp	r3, #1
 805 0040 03D0     		beq	.L63
 806 0042 022B     		cmp	r3, #2
 807 0044 54D0     		beq	.L64
 808 0046 0025     		movs	r5, #0
 809 0048 A5E0     		b	.L62
 810              	.L63:
 486:Service/Srv_Baro.c ****                 {
 811              		.loc 1 486 17 is_stmt 1 view .LVU175
 486:Service/Srv_Baro.c ****                 {
 812              		.loc 1 486 21 is_stmt 0 view .LVU176
 813 004a 584B     		ldr	r3, .L74
 814 004c DA68     		ldr	r2, [r3, #12]
 486:Service/Srv_Baro.c ****                 {
 815              		.loc 1 486 56 view .LVU177
 816 004e 9268     		ldr	r2, [r2, #8]
 486:Service/Srv_Baro.c ****                 {
 817              		.loc 1 486 21 view .LVU178
 818 0050 9868     		ldr	r0, [r3, #8]
ARM GAS  C:\Users\8bit\AppData\Local\Temp\ccIzqRlN.s 			page 28


 819              	.LVL62:
 486:Service/Srv_Baro.c ****                 {
 820              		.loc 1 486 21 view .LVU179
 821 0052 9047     		blx	r2
 822              	.LVL63:
 486:Service/Srv_Baro.c ****                 {
 823              		.loc 1 486 20 view .LVU180
 824 0054 0546     		mov	r5, r0
 825 0056 0028     		cmp	r0, #0
 826 0058 00F09D80 		beq	.L62
 488:Service/Srv_Baro.c ****                     *ToDPS310_DataPtr(SrvBaroObj.sensor_data) = ToDPS310_API(SrvBaroObj.sensor_api)
 827              		.loc 1 488 21 is_stmt 1 view .LVU181
 488:Service/Srv_Baro.c ****                     *ToDPS310_DataPtr(SrvBaroObj.sensor_data) = ToDPS310_API(SrvBaroObj.sensor_api)
 828              		.loc 1 488 38 is_stmt 0 view .LVU182
 829 005c 534F     		ldr	r7, .L74
 830 005e 7B69     		ldr	r3, [r7, #20]
 488:Service/Srv_Baro.c ****                     *ToDPS310_DataPtr(SrvBaroObj.sensor_data) = ToDPS310_API(SrvBaroObj.sensor_api)
 831              		.loc 1 488 21 view .LVU183
 832 0060 0022     		movs	r2, #0
 833 0062 1A60     		str	r2, [r3]	@ unaligned
 834 0064 5A60     		str	r2, [r3, #4]	@ unaligned
 835 0066 9A60     		str	r2, [r3, #8]	@ unaligned
 836 0068 DA60     		str	r2, [r3, #12]	@ unaligned
 489:Service/Srv_Baro.c ****                     
 837              		.loc 1 489 21 is_stmt 1 view .LVU184
 489:Service/Srv_Baro.c ****                     
 838              		.loc 1 489 65 is_stmt 0 view .LVU185
 839 006a FB68     		ldr	r3, [r7, #12]
 489:Service/Srv_Baro.c ****                     
 840              		.loc 1 489 100 view .LVU186
 841 006c DB68     		ldr	r3, [r3, #12]
 489:Service/Srv_Baro.c ****                     
 842              		.loc 1 489 22 view .LVU187
 843 006e D7F81490 		ldr	r9, [r7, #20]
 489:Service/Srv_Baro.c ****                     
 844              		.loc 1 489 65 view .LVU188
 845 0072 E846     		mov	r8, sp
 846 0074 B968     		ldr	r1, [r7, #8]
 847 0076 4046     		mov	r0, r8
 848 0078 9847     		blx	r3
 849              	.LVL64:
 850 007a 98E80F00 		ldm	r8, {r0, r1, r2, r3}
 851 007e 89E80F00 		stm	r9, {r0, r1, r2, r3}
 492:Service/Srv_Baro.c **** 
 852              		.loc 1 492 21 is_stmt 1 view .LVU189
 492:Service/Srv_Baro.c **** 
 853              		.loc 1 492 53 is_stmt 0 view .LVU190
 854 0082 7B69     		ldr	r3, [r7, #20]
 492:Service/Srv_Baro.c **** 
 855              		.loc 1 492 27 view .LVU191
 856 0084 93ED020A 		vldr.32	s0, [r3, #8]
 857 0088 FFF7FEFF 		bl	SrvBaro_PessureCnvToMeter
 858              	.LVL65:
 494:Service/Srv_Baro.c ****                     baro_data_tmp.data.cyc = ToDPS310_DataPtr(SrvBaroObj.sensor_data)->cyc;
 859              		.loc 1 494 21 is_stmt 1 view .LVU192
 494:Service/Srv_Baro.c ****                     baro_data_tmp.data.cyc = ToDPS310_DataPtr(SrvBaroObj.sensor_data)->cyc;
 860              		.loc 1 494 53 is_stmt 0 view .LVU193
ARM GAS  C:\Users\8bit\AppData\Local\Temp\ccIzqRlN.s 			page 29


 861 008c 7B69     		ldr	r3, [r7, #20]
 494:Service/Srv_Baro.c ****                     baro_data_tmp.data.cyc = ToDPS310_DataPtr(SrvBaroObj.sensor_data)->cyc;
 862              		.loc 1 494 93 view .LVU194
 863 008e 1A68     		ldr	r2, [r3]
 494:Service/Srv_Baro.c ****                     baro_data_tmp.data.cyc = ToDPS310_DataPtr(SrvBaroObj.sensor_data)->cyc;
 864              		.loc 1 494 51 view .LVU195
 865 0090 0592     		str	r2, [sp, #20]
 495:Service/Srv_Baro.c ****                     baro_data_tmp.data.pressure_alt_offset = SrvBaroObj.alt_offset;
 866              		.loc 1 495 21 is_stmt 1 view .LVU196
 495:Service/Srv_Baro.c ****                     baro_data_tmp.data.pressure_alt_offset = SrvBaroObj.alt_offset;
 867              		.loc 1 495 86 is_stmt 0 view .LVU197
 868 0092 5A68     		ldr	r2, [r3, #4]
 495:Service/Srv_Baro.c ****                     baro_data_tmp.data.pressure_alt_offset = SrvBaroObj.alt_offset;
 869              		.loc 1 495 44 view .LVU198
 870 0094 8DF81820 		strb	r2, [sp, #24]
 496:Service/Srv_Baro.c ****                     baro_data_tmp.data.pressure_alt = alt - SrvBaroObj.alt_offset;
 871              		.loc 1 496 21 is_stmt 1 view .LVU199
 496:Service/Srv_Baro.c ****                     baro_data_tmp.data.pressure_alt = alt - SrvBaroObj.alt_offset;
 872              		.loc 1 496 72 is_stmt 0 view .LVU200
 873 0098 D7ED127A 		vldr.32	s15, [r7, #72]
 496:Service/Srv_Baro.c ****                     baro_data_tmp.data.pressure_alt = alt - SrvBaroObj.alt_offset;
 874              		.loc 1 496 60 view .LVU201
 875 009c CDED0A7A 		vstr.32	s15, [sp, #40]
 497:Service/Srv_Baro.c ****                     baro_data_tmp.data.tempra = ToDPS310_DataPtr(SrvBaroObj.sensor_data)->scaled_te
 876              		.loc 1 497 21 is_stmt 1 view .LVU202
 497:Service/Srv_Baro.c ****                     baro_data_tmp.data.tempra = ToDPS310_DataPtr(SrvBaroObj.sensor_data)->scaled_te
 877              		.loc 1 497 59 is_stmt 0 view .LVU203
 878 00a0 30EE670A 		vsub.f32	s0, s0, s15
 879              	.LVL66:
 497:Service/Srv_Baro.c ****                     baro_data_tmp.data.tempra = ToDPS310_DataPtr(SrvBaroObj.sensor_data)->scaled_te
 880              		.loc 1 497 53 view .LVU204
 881 00a4 8DED090A 		vstr.32	s0, [sp, #36]
 498:Service/Srv_Baro.c ****                     baro_data_tmp.data.pressure = ToDPS310_DataPtr(SrvBaroObj.sensor_data)->scaled_
 882              		.loc 1 498 21 is_stmt 1 view .LVU205
 498:Service/Srv_Baro.c ****                     baro_data_tmp.data.pressure = ToDPS310_DataPtr(SrvBaroObj.sensor_data)->scaled_
 883              		.loc 1 498 89 is_stmt 0 view .LVU206
 884 00a8 DA68     		ldr	r2, [r3, #12]	@ float
 498:Service/Srv_Baro.c ****                     baro_data_tmp.data.pressure = ToDPS310_DataPtr(SrvBaroObj.sensor_data)->scaled_
 885              		.loc 1 498 47 view .LVU207
 886 00aa 0792     		str	r2, [sp, #28]	@ float
 499:Service/Srv_Baro.c **** 
 887              		.loc 1 499 21 is_stmt 1 view .LVU208
 499:Service/Srv_Baro.c **** 
 888              		.loc 1 499 91 is_stmt 0 view .LVU209
 889 00ac 9B68     		ldr	r3, [r3, #8]	@ float
 499:Service/Srv_Baro.c **** 
 890              		.loc 1 499 49 view .LVU210
 891 00ae 0893     		str	r3, [sp, #32]	@ float
 502:Service/Srv_Baro.c ****                     for(uint8_t i = 0; i < sizeof(baro_data_tmp.buff) - sizeof(baro_data_tmp.data.c
 892              		.loc 1 502 21 is_stmt 1 view .LVU211
 502:Service/Srv_Baro.c ****                     for(uint8_t i = 0; i < sizeof(baro_data_tmp.buff) - sizeof(baro_data_tmp.data.c
 893              		.loc 1 502 67 is_stmt 0 view .LVU212
 894 00b0 3F4B     		ldr	r3, .L74+4
 895 00b2 5B68     		ldr	r3, [r3, #4]
 502:Service/Srv_Baro.c ****                     for(uint8_t i = 0; i < sizeof(baro_data_tmp.buff) - sizeof(baro_data_tmp.data.c
 896              		.loc 1 502 55 view .LVU213
 897 00b4 F86C     		ldr	r0, [r7, #76]
ARM GAS  C:\Users\8bit\AppData\Local\Temp\ccIzqRlN.s 			page 30


 898 00b6 9847     		blx	r3
 899              	.LVL67:
 502:Service/Srv_Baro.c ****                     for(uint8_t i = 0; i < sizeof(baro_data_tmp.buff) - sizeof(baro_data_tmp.data.c
 900              		.loc 1 502 53 view .LVU214
 901 00b8 8DED090A 		vstr.32	s0, [sp, #36]
 503:Service/Srv_Baro.c ****                         check_sum += baro_data_tmp.buff[i];
 902              		.loc 1 503 21 is_stmt 1 view .LVU215
 903              	.LBB2:
 503:Service/Srv_Baro.c ****                         check_sum += baro_data_tmp.buff[i];
 904              		.loc 1 503 25 view .LVU216
 905              	.LVL68:
 503:Service/Srv_Baro.c ****                         check_sum += baro_data_tmp.buff[i];
 906              		.loc 1 503 33 is_stmt 0 view .LVU217
 907 00bc 2346     		mov	r3, r4
 503:Service/Srv_Baro.c ****                         check_sum += baro_data_tmp.buff[i];
 908              		.loc 1 503 21 view .LVU218
 909 00be 08E0     		b	.L65
 910              	.LVL69:
 911              	.L66:
 504:Service/Srv_Baro.c ****                     baro_data_tmp.data.check_sum = check_sum;
 912              		.loc 1 504 25 is_stmt 1 discriminator 3 view .LVU219
 504:Service/Srv_Baro.c ****                     baro_data_tmp.data.check_sum = check_sum;
 913              		.loc 1 504 56 is_stmt 0 discriminator 3 view .LVU220
 914 00c0 03F13002 		add	r2, r3, #48
 915 00c4 6A44     		add	r2, sp, r2
 916 00c6 12F81C2C 		ldrb	r2, [r2, #-28]	@ zero_extendqisi2
 504:Service/Srv_Baro.c ****                     baro_data_tmp.data.check_sum = check_sum;
 917              		.loc 1 504 35 discriminator 3 view .LVU221
 918 00ca 1444     		add	r4, r4, r2
 919              	.LVL70:
 504:Service/Srv_Baro.c ****                     baro_data_tmp.data.check_sum = check_sum;
 920              		.loc 1 504 35 discriminator 3 view .LVU222
 921 00cc E4B2     		uxtb	r4, r4
 922              	.LVL71:
 503:Service/Srv_Baro.c ****                         check_sum += baro_data_tmp.buff[i];
 923              		.loc 1 503 111 is_stmt 1 discriminator 3 view .LVU223
 503:Service/Srv_Baro.c ****                         check_sum += baro_data_tmp.buff[i];
 924              		.loc 1 503 112 is_stmt 0 discriminator 3 view .LVU224
 925 00ce 0133     		adds	r3, r3, #1
 926              	.LVL72:
 503:Service/Srv_Baro.c ****                         check_sum += baro_data_tmp.buff[i];
 927              		.loc 1 503 112 discriminator 3 view .LVU225
 928 00d0 DBB2     		uxtb	r3, r3
 929              	.LVL73:
 930              	.L65:
 503:Service/Srv_Baro.c ****                         check_sum += baro_data_tmp.buff[i];
 931              		.loc 1 503 40 is_stmt 1 discriminator 1 view .LVU226
 503:Service/Srv_Baro.c ****                         check_sum += baro_data_tmp.buff[i];
 932              		.loc 1 503 21 is_stmt 0 discriminator 1 view .LVU227
 933 00d2 1A2B     		cmp	r3, #26
 934 00d4 F4D9     		bls	.L66
 935              	.LBE2:
 505:Service/Srv_Baro.c ****                     memcpy(data, &baro_data_tmp, sizeof(SrvBaroData_TypeDef));
 936              		.loc 1 505 21 is_stmt 1 view .LVU228
 505:Service/Srv_Baro.c ****                     memcpy(data, &baro_data_tmp, sizeof(SrvBaroData_TypeDef));
 937              		.loc 1 505 50 is_stmt 0 view .LVU229
 938 00d6 8DF82D40 		strb	r4, [sp, #45]
ARM GAS  C:\Users\8bit\AppData\Local\Temp\ccIzqRlN.s 			page 31


 506:Service/Srv_Baro.c ****                     
 939              		.loc 1 506 21 is_stmt 1 view .LVU230
 940 00da 05AC     		add	r4, sp, #20
 941              	.LVL74:
 506:Service/Srv_Baro.c ****                     
 942              		.loc 1 506 21 is_stmt 0 view .LVU231
 943 00dc 0FCC     		ldmia	r4!, {r0, r1, r2, r3}
 944              	.LVL75:
 506:Service/Srv_Baro.c ****                     
 945              		.loc 1 506 21 view .LVU232
 946 00de 3060     		str	r0, [r6]	@ unaligned
 947              	.LVL76:
 506:Service/Srv_Baro.c ****                     
 948              		.loc 1 506 21 view .LVU233
 949 00e0 7160     		str	r1, [r6, #4]	@ unaligned
 950 00e2 B260     		str	r2, [r6, #8]	@ unaligned
 951 00e4 F360     		str	r3, [r6, #12]	@ unaligned
 952 00e6 07CC     		ldmia	r4!, {r0, r1, r2}
 953 00e8 3061     		str	r0, [r6, #16]	@ unaligned
 954 00ea 7161     		str	r1, [r6, #20]	@ unaligned
 955 00ec B261     		str	r2, [r6, #24]	@ unaligned
 508:Service/Srv_Baro.c ****                 }
 956              		.loc 1 508 21 is_stmt 1 view .LVU234
 508:Service/Srv_Baro.c ****                 }
 957              		.loc 1 508 28 is_stmt 0 view .LVU235
 958 00ee 52E0     		b	.L62
 959              	.LVL77:
 960              	.L64:
 513:Service/Srv_Baro.c ****                 {
 961              		.loc 1 513 17 is_stmt 1 view .LVU236
 513:Service/Srv_Baro.c ****                 {
 962              		.loc 1 513 21 is_stmt 0 view .LVU237
 963 00f0 2E4B     		ldr	r3, .L74
 964 00f2 DA68     		ldr	r2, [r3, #12]
 513:Service/Srv_Baro.c ****                 {
 965              		.loc 1 513 56 view .LVU238
 966 00f4 9268     		ldr	r2, [r2, #8]
 513:Service/Srv_Baro.c ****                 {
 967              		.loc 1 513 21 view .LVU239
 968 00f6 9868     		ldr	r0, [r3, #8]
 969              	.LVL78:
 513:Service/Srv_Baro.c ****                 {
 970              		.loc 1 513 21 view .LVU240
 971 00f8 9047     		blx	r2
 972              	.LVL79:
 513:Service/Srv_Baro.c ****                 {
 973              		.loc 1 513 20 view .LVU241
 974 00fa 0546     		mov	r5, r0
 975 00fc 0028     		cmp	r0, #0
 976 00fe 4AD0     		beq	.L62
 515:Service/Srv_Baro.c ****                     *ToBMP280_DataPtr(SrvBaroObj.sensor_data) = ToBMP280_API(SrvBaroObj.sensor_api)
 977              		.loc 1 515 21 is_stmt 1 view .LVU242
 515:Service/Srv_Baro.c ****                     *ToBMP280_DataPtr(SrvBaroObj.sensor_data) = ToBMP280_API(SrvBaroObj.sensor_api)
 978              		.loc 1 515 38 is_stmt 0 view .LVU243
 979 0100 2A4F     		ldr	r7, .L74
 980 0102 7B69     		ldr	r3, [r7, #20]
 515:Service/Srv_Baro.c ****                     *ToBMP280_DataPtr(SrvBaroObj.sensor_data) = ToBMP280_API(SrvBaroObj.sensor_api)
ARM GAS  C:\Users\8bit\AppData\Local\Temp\ccIzqRlN.s 			page 32


 981              		.loc 1 515 21 view .LVU244
 982 0104 0022     		movs	r2, #0
 983 0106 1A60     		str	r2, [r3]	@ unaligned
 984 0108 5A60     		str	r2, [r3, #4]	@ unaligned
 985 010a 9A60     		str	r2, [r3, #8]	@ unaligned
 986 010c DA60     		str	r2, [r3, #12]	@ unaligned
 516:Service/Srv_Baro.c ****                     
 987              		.loc 1 516 21 is_stmt 1 view .LVU245
 516:Service/Srv_Baro.c ****                     
 988              		.loc 1 516 65 is_stmt 0 view .LVU246
 989 010e FB68     		ldr	r3, [r7, #12]
 516:Service/Srv_Baro.c ****                     
 990              		.loc 1 516 100 view .LVU247
 991 0110 DB68     		ldr	r3, [r3, #12]
 516:Service/Srv_Baro.c ****                     
 992              		.loc 1 516 22 view .LVU248
 993 0112 D7F81490 		ldr	r9, [r7, #20]
 516:Service/Srv_Baro.c ****                     
 994              		.loc 1 516 65 view .LVU249
 995 0116 E846     		mov	r8, sp
 996 0118 B968     		ldr	r1, [r7, #8]
 997 011a 4046     		mov	r0, r8
 998 011c 9847     		blx	r3
 999              	.LVL80:
 1000 011e 98E80F00 		ldm	r8, {r0, r1, r2, r3}
 1001 0122 89E80F00 		stm	r9, {r0, r1, r2, r3}
 519:Service/Srv_Baro.c **** 
 1002              		.loc 1 519 21 is_stmt 1 view .LVU250
 519:Service/Srv_Baro.c **** 
 1003              		.loc 1 519 53 is_stmt 0 view .LVU251
 1004 0126 7B69     		ldr	r3, [r7, #20]
 519:Service/Srv_Baro.c **** 
 1005              		.loc 1 519 27 view .LVU252
 1006 0128 93ED020A 		vldr.32	s0, [r3, #8]
 1007 012c FFF7FEFF 		bl	SrvBaro_PessureCnvToMeter
 1008              	.LVL81:
 521:Service/Srv_Baro.c ****                     baro_data_tmp.data.cyc = ToBMP280_DataPtr(SrvBaroObj.sensor_data)->cyc;
 1009              		.loc 1 521 21 is_stmt 1 view .LVU253
 521:Service/Srv_Baro.c ****                     baro_data_tmp.data.cyc = ToBMP280_DataPtr(SrvBaroObj.sensor_data)->cyc;
 1010              		.loc 1 521 53 is_stmt 0 view .LVU254
 1011 0130 7B69     		ldr	r3, [r7, #20]
 521:Service/Srv_Baro.c ****                     baro_data_tmp.data.cyc = ToBMP280_DataPtr(SrvBaroObj.sensor_data)->cyc;
 1012              		.loc 1 521 93 view .LVU255
 1013 0132 1A68     		ldr	r2, [r3]
 521:Service/Srv_Baro.c ****                     baro_data_tmp.data.cyc = ToBMP280_DataPtr(SrvBaroObj.sensor_data)->cyc;
 1014              		.loc 1 521 51 view .LVU256
 1015 0134 0592     		str	r2, [sp, #20]
 522:Service/Srv_Baro.c ****                     baro_data_tmp.data.pressure_alt_offset = SrvBaroObj.alt_offset;
 1016              		.loc 1 522 21 is_stmt 1 view .LVU257
 522:Service/Srv_Baro.c ****                     baro_data_tmp.data.pressure_alt_offset = SrvBaroObj.alt_offset;
 1017              		.loc 1 522 86 is_stmt 0 view .LVU258
 1018 0136 5A68     		ldr	r2, [r3, #4]
 522:Service/Srv_Baro.c ****                     baro_data_tmp.data.pressure_alt_offset = SrvBaroObj.alt_offset;
 1019              		.loc 1 522 44 view .LVU259
 1020 0138 8DF81820 		strb	r2, [sp, #24]
 523:Service/Srv_Baro.c ****                     baro_data_tmp.data.pressure_alt = alt - SrvBaroObj.alt_offset;
 1021              		.loc 1 523 21 is_stmt 1 view .LVU260
ARM GAS  C:\Users\8bit\AppData\Local\Temp\ccIzqRlN.s 			page 33


 523:Service/Srv_Baro.c ****                     baro_data_tmp.data.pressure_alt = alt - SrvBaroObj.alt_offset;
 1022              		.loc 1 523 72 is_stmt 0 view .LVU261
 1023 013c D7ED127A 		vldr.32	s15, [r7, #72]
 523:Service/Srv_Baro.c ****                     baro_data_tmp.data.pressure_alt = alt - SrvBaroObj.alt_offset;
 1024              		.loc 1 523 60 view .LVU262
 1025 0140 CDED0A7A 		vstr.32	s15, [sp, #40]
 524:Service/Srv_Baro.c ****                     baro_data_tmp.data.tempra = ToBMP280_DataPtr(SrvBaroObj.sensor_data)->scaled_te
 1026              		.loc 1 524 21 is_stmt 1 view .LVU263
 524:Service/Srv_Baro.c ****                     baro_data_tmp.data.tempra = ToBMP280_DataPtr(SrvBaroObj.sensor_data)->scaled_te
 1027              		.loc 1 524 59 is_stmt 0 view .LVU264
 1028 0144 30EE670A 		vsub.f32	s0, s0, s15
 1029              	.LVL82:
 524:Service/Srv_Baro.c ****                     baro_data_tmp.data.tempra = ToBMP280_DataPtr(SrvBaroObj.sensor_data)->scaled_te
 1030              		.loc 1 524 53 view .LVU265
 1031 0148 8DED090A 		vstr.32	s0, [sp, #36]
 525:Service/Srv_Baro.c ****                     baro_data_tmp.data.pressure = ToBMP280_DataPtr(SrvBaroObj.sensor_data)->scaled_
 1032              		.loc 1 525 21 is_stmt 1 view .LVU266
 525:Service/Srv_Baro.c ****                     baro_data_tmp.data.pressure = ToBMP280_DataPtr(SrvBaroObj.sensor_data)->scaled_
 1033              		.loc 1 525 89 is_stmt 0 view .LVU267
 1034 014c DA68     		ldr	r2, [r3, #12]	@ float
 525:Service/Srv_Baro.c ****                     baro_data_tmp.data.pressure = ToBMP280_DataPtr(SrvBaroObj.sensor_data)->scaled_
 1035              		.loc 1 525 47 view .LVU268
 1036 014e 0792     		str	r2, [sp, #28]	@ float
 526:Service/Srv_Baro.c **** 
 1037              		.loc 1 526 21 is_stmt 1 view .LVU269
 526:Service/Srv_Baro.c **** 
 1038              		.loc 1 526 91 is_stmt 0 view .LVU270
 1039 0150 9B68     		ldr	r3, [r3, #8]	@ float
 526:Service/Srv_Baro.c **** 
 1040              		.loc 1 526 49 view .LVU271
 1041 0152 0893     		str	r3, [sp, #32]	@ float
 529:Service/Srv_Baro.c ****                     for (uint8_t i = 0; i < sizeof(baro_data_tmp.buff) - sizeof(baro_data_tmp.data.
 1042              		.loc 1 529 21 is_stmt 1 view .LVU272
 529:Service/Srv_Baro.c ****                     for (uint8_t i = 0; i < sizeof(baro_data_tmp.buff) - sizeof(baro_data_tmp.data.
 1043              		.loc 1 529 67 is_stmt 0 view .LVU273
 1044 0154 164B     		ldr	r3, .L74+4
 1045 0156 5B68     		ldr	r3, [r3, #4]
 529:Service/Srv_Baro.c ****                     for (uint8_t i = 0; i < sizeof(baro_data_tmp.buff) - sizeof(baro_data_tmp.data.
 1046              		.loc 1 529 55 view .LVU274
 1047 0158 F86C     		ldr	r0, [r7, #76]
 1048 015a 9847     		blx	r3
 1049              	.LVL83:
 529:Service/Srv_Baro.c ****                     for (uint8_t i = 0; i < sizeof(baro_data_tmp.buff) - sizeof(baro_data_tmp.data.
 1050              		.loc 1 529 53 view .LVU275
 1051 015c 8DED090A 		vstr.32	s0, [sp, #36]
 530:Service/Srv_Baro.c ****                         check_sum += baro_data_tmp.buff[i];
 1052              		.loc 1 530 21 is_stmt 1 view .LVU276
 1053              	.LBB3:
 530:Service/Srv_Baro.c ****                         check_sum += baro_data_tmp.buff[i];
 1054              		.loc 1 530 26 view .LVU277
 1055              	.LVL84:
 530:Service/Srv_Baro.c ****                         check_sum += baro_data_tmp.buff[i];
 1056              		.loc 1 530 34 is_stmt 0 view .LVU278
 1057 0160 2346     		mov	r3, r4
 530:Service/Srv_Baro.c ****                         check_sum += baro_data_tmp.buff[i];
 1058              		.loc 1 530 21 view .LVU279
 1059 0162 08E0     		b	.L67
ARM GAS  C:\Users\8bit\AppData\Local\Temp\ccIzqRlN.s 			page 34


 1060              	.LVL85:
 1061              	.L68:
 531:Service/Srv_Baro.c ****                     baro_data_tmp.data.check_sum = check_sum;
 1062              		.loc 1 531 25 is_stmt 1 discriminator 3 view .LVU280
 531:Service/Srv_Baro.c ****                     baro_data_tmp.data.check_sum = check_sum;
 1063              		.loc 1 531 56 is_stmt 0 discriminator 3 view .LVU281
 1064 0164 03F13002 		add	r2, r3, #48
 1065 0168 6A44     		add	r2, sp, r2
 1066 016a 12F81C2C 		ldrb	r2, [r2, #-28]	@ zero_extendqisi2
 531:Service/Srv_Baro.c ****                     baro_data_tmp.data.check_sum = check_sum;
 1067              		.loc 1 531 35 discriminator 3 view .LVU282
 1068 016e 1444     		add	r4, r4, r2
 1069              	.LVL86:
 531:Service/Srv_Baro.c ****                     baro_data_tmp.data.check_sum = check_sum;
 1070              		.loc 1 531 35 discriminator 3 view .LVU283
 1071 0170 E4B2     		uxtb	r4, r4
 1072              	.LVL87:
 530:Service/Srv_Baro.c ****                         check_sum += baro_data_tmp.buff[i];
 1073              		.loc 1 530 112 is_stmt 1 discriminator 3 view .LVU284
 530:Service/Srv_Baro.c ****                         check_sum += baro_data_tmp.buff[i];
 1074              		.loc 1 530 113 is_stmt 0 discriminator 3 view .LVU285
 1075 0172 0133     		adds	r3, r3, #1
 1076              	.LVL88:
 530:Service/Srv_Baro.c ****                         check_sum += baro_data_tmp.buff[i];
 1077              		.loc 1 530 113 discriminator 3 view .LVU286
 1078 0174 DBB2     		uxtb	r3, r3
 1079              	.LVL89:
 1080              	.L67:
 530:Service/Srv_Baro.c ****                         check_sum += baro_data_tmp.buff[i];
 1081              		.loc 1 530 41 is_stmt 1 discriminator 1 view .LVU287
 530:Service/Srv_Baro.c ****                         check_sum += baro_data_tmp.buff[i];
 1082              		.loc 1 530 21 is_stmt 0 discriminator 1 view .LVU288
 1083 0176 1A2B     		cmp	r3, #26
 1084 0178 F4D9     		bls	.L68
 1085              	.LBE3:
 532:Service/Srv_Baro.c ****                     memcpy(data, &baro_data_tmp, sizeof(SrvBaroData_TypeDef));
 1086              		.loc 1 532 21 is_stmt 1 view .LVU289
 532:Service/Srv_Baro.c ****                     memcpy(data, &baro_data_tmp, sizeof(SrvBaroData_TypeDef));
 1087              		.loc 1 532 50 is_stmt 0 view .LVU290
 1088 017a 8DF82D40 		strb	r4, [sp, #45]
 533:Service/Srv_Baro.c ****                     
 1089              		.loc 1 533 21 is_stmt 1 view .LVU291
 1090 017e 05AC     		add	r4, sp, #20
 1091              	.LVL90:
 533:Service/Srv_Baro.c ****                     
 1092              		.loc 1 533 21 is_stmt 0 view .LVU292
 1093 0180 0FCC     		ldmia	r4!, {r0, r1, r2, r3}
 1094              	.LVL91:
 533:Service/Srv_Baro.c ****                     
 1095              		.loc 1 533 21 view .LVU293
 1096 0182 3060     		str	r0, [r6]	@ unaligned
 1097              	.LVL92:
 533:Service/Srv_Baro.c ****                     
 1098              		.loc 1 533 21 view .LVU294
 1099 0184 7160     		str	r1, [r6, #4]	@ unaligned
 1100 0186 B260     		str	r2, [r6, #8]	@ unaligned
 1101 0188 F360     		str	r3, [r6, #12]	@ unaligned
ARM GAS  C:\Users\8bit\AppData\Local\Temp\ccIzqRlN.s 			page 35


 1102 018a 07CC     		ldmia	r4!, {r0, r1, r2}
 1103 018c 3061     		str	r0, [r6, #16]	@ unaligned
 1104 018e 7161     		str	r1, [r6, #20]	@ unaligned
 1105 0190 B261     		str	r2, [r6, #24]	@ unaligned
 535:Service/Srv_Baro.c ****                 }
 1106              		.loc 1 535 21 is_stmt 1 view .LVU295
 535:Service/Srv_Baro.c ****                 }
 1107              		.loc 1 535 28 is_stmt 0 view .LVU296
 1108 0192 00E0     		b	.L62
 1109              	.LVL93:
 1110              	.L69:
 543:Service/Srv_Baro.c **** }
 1111              		.loc 1 543 12 view .LVU297
 1112 0194 0025     		movs	r5, #0
 1113              	.LVL94:
 1114              	.L62:
 544:Service/Srv_Baro.c **** 
 1115              		.loc 1 544 1 view .LVU298
 1116 0196 2846     		mov	r0, r5
 1117 0198 0DB0     		add	sp, sp, #52
 1118              	.LCFI20:
 1119              		.cfi_remember_state
 1120              		.cfi_def_cfa_offset 28
 1121              		@ sp needed
 1122 019a BDE8F083 		pop	{r4, r5, r6, r7, r8, r9, pc}
 1123              	.LVL95:
 1124              	.L70:
 1125              	.LCFI21:
 1126              		.cfi_restore_state
 543:Service/Srv_Baro.c **** }
 1127              		.loc 1 543 12 view .LVU299
 1128 019e 0025     		movs	r5, #0
 1129 01a0 F9E7     		b	.L62
 1130              	.L71:
 1131 01a2 0025     		movs	r5, #0
 1132 01a4 F7E7     		b	.L62
 1133              	.L72:
 1134 01a6 0025     		movs	r5, #0
 1135 01a8 F5E7     		b	.L62
 1136              	.L75:
 1137 01aa 00BF     		.align	2
 1138              	.L74:
 1139 01ac 00000000 		.word	.LANCHOR2
 1140 01b0 00000000 		.word	SmoothWindow
 1141              		.cfi_endproc
 1142              	.LFE148:
 1144              		.section	.text.SrvBaro_Sample,"ax",%progbits
 1145              		.align	1
 1146              		.syntax unified
 1147              		.thumb
 1148              		.thumb_func
 1150              	SrvBaro_Sample:
 1151              	.LFB144:
 373:Service/Srv_Baro.c ****     if (SrvBaroObj.init_err == SrvBaro_Error_None)
 1152              		.loc 1 373 1 is_stmt 1 view -0
 1153              		.cfi_startproc
 1154              		@ args = 0, pretend = 0, frame = 0
ARM GAS  C:\Users\8bit\AppData\Local\Temp\ccIzqRlN.s 			page 36


 1155              		@ frame_needed = 0, uses_anonymous_args = 0
 1156 0000 38B5     		push	{r3, r4, r5, lr}
 1157              	.LCFI22:
 1158              		.cfi_def_cfa_offset 16
 1159              		.cfi_offset 3, -16
 1160              		.cfi_offset 4, -12
 1161              		.cfi_offset 5, -8
 1162              		.cfi_offset 14, -4
 374:Service/Srv_Baro.c ****     {
 1163              		.loc 1 374 5 view .LVU301
 374:Service/Srv_Baro.c ****     {
 1164              		.loc 1 374 19 is_stmt 0 view .LVU302
 1165 0002 484B     		ldr	r3, .L90
 1166 0004 1B7C     		ldrb	r3, [r3, #16]	@ zero_extendqisi2
 374:Service/Srv_Baro.c ****     {
 1167              		.loc 1 374 8 view .LVU303
 1168 0006 002B     		cmp	r3, #0
 1169 0008 40F08880 		bne	.L86
 376:Service/Srv_Baro.c ****         {
 1170              		.loc 1 376 9 is_stmt 1 view .LVU304
 376:Service/Srv_Baro.c ****         {
 1171              		.loc 1 376 36 is_stmt 0 view .LVU305
 1172 000c 454B     		ldr	r3, .L90
 1173 000e 1B78     		ldrb	r3, [r3]	@ zero_extendqisi2
 376:Service/Srv_Baro.c ****         {
 1174              		.loc 1 376 9 view .LVU306
 1175 0010 012B     		cmp	r3, #1
 1176 0012 03D0     		beq	.L78
 1177 0014 022B     		cmp	r3, #2
 1178 0016 42D0     		beq	.L79
 1179 0018 0024     		movs	r4, #0
 1180 001a 80E0     		b	.L77
 1181              	.L78:
 379:Service/Srv_Baro.c ****                 {
 1182              		.loc 1 379 17 is_stmt 1 view .LVU307
 379:Service/Srv_Baro.c ****                 {
 1183              		.loc 1 379 21 is_stmt 0 view .LVU308
 1184 001c 414B     		ldr	r3, .L90
 1185 001e DA68     		ldr	r2, [r3, #12]
 379:Service/Srv_Baro.c ****                 {
 1186              		.loc 1 379 56 view .LVU309
 1187 0020 5268     		ldr	r2, [r2, #4]
 379:Service/Srv_Baro.c ****                 {
 1188              		.loc 1 379 21 view .LVU310
 1189 0022 9868     		ldr	r0, [r3, #8]
 1190 0024 9047     		blx	r2
 1191              	.LVL96:
 379:Service/Srv_Baro.c ****                 {
 1192              		.loc 1 379 20 view .LVU311
 1193 0026 0446     		mov	r4, r0
 1194 0028 0028     		cmp	r0, #0
 1195 002a 33D0     		beq	.L80
 381:Service/Srv_Baro.c **** 
 1196              		.loc 1 381 21 is_stmt 1 view .LVU312
 381:Service/Srv_Baro.c **** 
 1197              		.loc 1 381 31 is_stmt 0 view .LVU313
 1198 002c 3D4B     		ldr	r3, .L90
ARM GAS  C:\Users\8bit\AppData\Local\Temp\ccIzqRlN.s 			page 37


 1199 002e 9A6B     		ldr	r2, [r3, #56]
 381:Service/Srv_Baro.c **** 
 1200              		.loc 1 381 43 view .LVU314
 1201 0030 0132     		adds	r2, r2, #1
 1202 0032 9A63     		str	r2, [r3, #56]
 383:Service/Srv_Baro.c ****                         (SrvBaroObj.calib_state == Calib_InProcess)) &&
 1203              		.loc 1 383 21 is_stmt 1 view .LVU315
 383:Service/Srv_Baro.c ****                         (SrvBaroObj.calib_state == Calib_InProcess)) &&
 1204              		.loc 1 383 37 is_stmt 0 view .LVU316
 1205 0034 93F84230 		ldrb	r3, [r3, #66]	@ zero_extendqisi2
 383:Service/Srv_Baro.c ****                         (SrvBaroObj.calib_state == Calib_InProcess)) &&
 1206              		.loc 1 383 66 view .LVU317
 1207 0038 013B     		subs	r3, r3, #1
 1208 003a DBB2     		uxtb	r3, r3
 383:Service/Srv_Baro.c ****                         (SrvBaroObj.calib_state == Calib_InProcess)) &&
 1209              		.loc 1 383 24 view .LVU318
 1210 003c 012B     		cmp	r3, #1
 1211 003e 6ED8     		bhi	.L77
 385:Service/Srv_Baro.c ****                     {
 1212              		.loc 1 385 35 view .LVU319
 1213 0040 384B     		ldr	r3, .L90
 1214 0042 B3F84030 		ldrh	r3, [r3, #64]
 384:Service/Srv_Baro.c ****                         SrvBaroObj.calib_cycle)
 1215              		.loc 1 384 70 view .LVU320
 1216 0046 002B     		cmp	r3, #0
 1217 0048 69D0     		beq	.L77
 387:Service/Srv_Baro.c ****                         SrvBaroObj.pressure_add_sum /= 2;
 1218              		.loc 1 387 25 is_stmt 1 view .LVU321
 387:Service/Srv_Baro.c ****                         SrvBaroObj.pressure_add_sum /= 2;
 1219              		.loc 1 387 56 is_stmt 0 view .LVU322
 1220 004a 364A     		ldr	r2, .L90
 1221 004c 9168     		ldr	r1, [r2, #8]
 387:Service/Srv_Baro.c ****                         SrvBaroObj.pressure_add_sum /= 2;
 1222              		.loc 1 387 91 view .LVU323
 1223 004e 91ED140A 		vldr.32	s0, [r1, #80]
 387:Service/Srv_Baro.c ****                         SrvBaroObj.pressure_add_sum /= 2;
 1224              		.loc 1 387 53 view .LVU324
 1225 0052 D2ED117A 		vldr.32	s15, [r2, #68]
 1226 0056 30EE270A 		vadd.f32	s0, s0, s15
 1227 005a 82ED110A 		vstr.32	s0, [r2, #68]
 388:Service/Srv_Baro.c **** 
 1228              		.loc 1 388 25 is_stmt 1 view .LVU325
 388:Service/Srv_Baro.c **** 
 1229              		.loc 1 388 53 is_stmt 0 view .LVU326
 1230 005e F6EE007A 		vmov.f32	s15, #5.0e-1
 1231 0062 20EE270A 		vmul.f32	s0, s0, s15
 1232 0066 82ED110A 		vstr.32	s0, [r2, #68]
 390:Service/Srv_Baro.c **** 
 1233              		.loc 1 390 25 is_stmt 1 view .LVU327
 390:Service/Srv_Baro.c **** 
 1234              		.loc 1 390 48 is_stmt 0 view .LVU328
 1235 006a 013B     		subs	r3, r3, #1
 1236 006c 9BB2     		uxth	r3, r3
 1237 006e A2F84030 		strh	r3, [r2, #64]	@ movhi
 392:Service/Srv_Baro.c ****                         {
 1238              		.loc 1 392 25 is_stmt 1 view .LVU329
 392:Service/Srv_Baro.c ****                         {
ARM GAS  C:\Users\8bit\AppData\Local\Temp\ccIzqRlN.s 			page 38


 1239              		.loc 1 392 28 is_stmt 0 view .LVU330
 1240 0072 23B1     		cbz	r3, .L88
 399:Service/Srv_Baro.c ****                     }
 1241              		.loc 1 399 29 is_stmt 1 view .LVU331
 399:Service/Srv_Baro.c ****                     }
 1242              		.loc 1 399 52 is_stmt 0 view .LVU332
 1243 0074 2B4B     		ldr	r3, .L90
 1244 0076 0222     		movs	r2, #2
 1245 0078 83F84220 		strb	r2, [r3, #66]
 402:Service/Srv_Baro.c ****                 }
 1246              		.loc 1 402 21 is_stmt 1 view .LVU333
 402:Service/Srv_Baro.c ****                 }
 1247              		.loc 1 402 28 is_stmt 0 view .LVU334
 1248 007c 4FE0     		b	.L77
 1249              	.L88:
 394:Service/Srv_Baro.c ****                             SrvBaroObj.alt_offset = SrvBaro_PessureCnvToMeter(SrvBaroObj.pressure_a
 1250              		.loc 1 394 29 is_stmt 1 view .LVU335
 394:Service/Srv_Baro.c ****                             SrvBaroObj.alt_offset = SrvBaro_PessureCnvToMeter(SrvBaroObj.pressure_a
 1251              		.loc 1 394 52 is_stmt 0 view .LVU336
 1252 007e 1546     		mov	r5, r2
 1253 0080 0323     		movs	r3, #3
 1254 0082 82F84230 		strb	r3, [r2, #66]
 395:Service/Srv_Baro.c ****                             SrvBaroObj.pressure_add_sum = 0.0f;
 1255              		.loc 1 395 29 is_stmt 1 view .LVU337
 395:Service/Srv_Baro.c ****                             SrvBaroObj.pressure_add_sum = 0.0f;
 1256              		.loc 1 395 53 is_stmt 0 view .LVU338
 1257 0086 FFF7FEFF 		bl	SrvBaro_PessureCnvToMeter
 1258              	.LVL97:
 395:Service/Srv_Baro.c ****                             SrvBaroObj.pressure_add_sum = 0.0f;
 1259              		.loc 1 395 51 view .LVU339
 1260 008a 85ED120A 		vstr.32	s0, [r5, #72]
 396:Service/Srv_Baro.c ****                         }
 1261              		.loc 1 396 29 is_stmt 1 view .LVU340
 396:Service/Srv_Baro.c ****                         }
 1262              		.loc 1 396 57 is_stmt 0 view .LVU341
 1263 008e 0023     		movs	r3, #0
 1264 0090 6B64     		str	r3, [r5, #68]	@ float
 1265 0092 44E0     		b	.L77
 1266              	.L80:
 406:Service/Srv_Baro.c ****                     return false;
 1267              		.loc 1 406 21 is_stmt 1 view .LVU342
 406:Service/Srv_Baro.c ****                     return false;
 1268              		.loc 1 406 31 is_stmt 0 view .LVU343
 1269 0094 234A     		ldr	r2, .L90
 1270 0096 D36B     		ldr	r3, [r2, #60]
 406:Service/Srv_Baro.c ****                     return false;
 1271              		.loc 1 406 47 view .LVU344
 1272 0098 0133     		adds	r3, r3, #1
 1273 009a D363     		str	r3, [r2, #60]
 407:Service/Srv_Baro.c ****                 }
 1274              		.loc 1 407 21 is_stmt 1 view .LVU345
 407:Service/Srv_Baro.c ****                 }
 1275              		.loc 1 407 28 is_stmt 0 view .LVU346
 1276 009c 3FE0     		b	.L77
 1277              	.L79:
 411:Service/Srv_Baro.c ****                 {
 1278              		.loc 1 411 17 is_stmt 1 view .LVU347
ARM GAS  C:\Users\8bit\AppData\Local\Temp\ccIzqRlN.s 			page 39


 411:Service/Srv_Baro.c ****                 {
 1279              		.loc 1 411 21 is_stmt 0 view .LVU348
 1280 009e 214B     		ldr	r3, .L90
 1281 00a0 DA68     		ldr	r2, [r3, #12]
 411:Service/Srv_Baro.c ****                 {
 1282              		.loc 1 411 56 view .LVU349
 1283 00a2 5268     		ldr	r2, [r2, #4]
 411:Service/Srv_Baro.c ****                 {
 1284              		.loc 1 411 21 view .LVU350
 1285 00a4 9868     		ldr	r0, [r3, #8]
 1286 00a6 9047     		blx	r2
 1287              	.LVL98:
 411:Service/Srv_Baro.c ****                 {
 1288              		.loc 1 411 20 view .LVU351
 1289 00a8 0446     		mov	r4, r0
 1290 00aa 90B3     		cbz	r0, .L83
 413:Service/Srv_Baro.c **** 
 1291              		.loc 1 413 21 is_stmt 1 view .LVU352
 413:Service/Srv_Baro.c **** 
 1292              		.loc 1 413 31 is_stmt 0 view .LVU353
 1293 00ac 1D4B     		ldr	r3, .L90
 1294 00ae 9A6B     		ldr	r2, [r3, #56]
 413:Service/Srv_Baro.c **** 
 1295              		.loc 1 413 43 view .LVU354
 1296 00b0 0132     		adds	r2, r2, #1
 1297 00b2 9A63     		str	r2, [r3, #56]
 415:Service/Srv_Baro.c ****                         (SrvBaroObj.calib_state == Calib_InProcess)) && \
 1298              		.loc 1 415 21 is_stmt 1 view .LVU355
 415:Service/Srv_Baro.c ****                         (SrvBaroObj.calib_state == Calib_InProcess)) && \
 1299              		.loc 1 415 37 is_stmt 0 view .LVU356
 1300 00b4 93F84230 		ldrb	r3, [r3, #66]	@ zero_extendqisi2
 415:Service/Srv_Baro.c ****                         (SrvBaroObj.calib_state == Calib_InProcess)) && \
 1301              		.loc 1 415 66 view .LVU357
 1302 00b8 013B     		subs	r3, r3, #1
 1303 00ba DBB2     		uxtb	r3, r3
 415:Service/Srv_Baro.c ****                         (SrvBaroObj.calib_state == Calib_InProcess)) && \
 1304              		.loc 1 415 24 view .LVU358
 1305 00bc 012B     		cmp	r3, #1
 1306 00be 2ED8     		bhi	.L77
 417:Service/Srv_Baro.c ****                     {
 1307              		.loc 1 417 35 view .LVU359
 1308 00c0 184B     		ldr	r3, .L90
 1309 00c2 B3F84030 		ldrh	r3, [r3, #64]
 416:Service/Srv_Baro.c ****                         SrvBaroObj.calib_cycle)
 1310              		.loc 1 416 70 view .LVU360
 1311 00c6 53B3     		cbz	r3, .L77
 419:Service/Srv_Baro.c ****                         SrvBaroObj.pressure_add_sum /= 2;
 1312              		.loc 1 419 25 is_stmt 1 view .LVU361
 419:Service/Srv_Baro.c ****                         SrvBaroObj.pressure_add_sum /= 2;
 1313              		.loc 1 419 56 is_stmt 0 view .LVU362
 1314 00c8 164A     		ldr	r2, .L90
 1315 00ca 9168     		ldr	r1, [r2, #8]
 419:Service/Srv_Baro.c ****                         SrvBaroObj.pressure_add_sum /= 2;
 1316              		.loc 1 419 91 view .LVU363
 1317 00cc 91ED100A 		vldr.32	s0, [r1, #64]
 419:Service/Srv_Baro.c ****                         SrvBaroObj.pressure_add_sum /= 2;
 1318              		.loc 1 419 53 view .LVU364
ARM GAS  C:\Users\8bit\AppData\Local\Temp\ccIzqRlN.s 			page 40


 1319 00d0 D2ED117A 		vldr.32	s15, [r2, #68]
 1320 00d4 30EE270A 		vadd.f32	s0, s0, s15
 1321 00d8 82ED110A 		vstr.32	s0, [r2, #68]
 420:Service/Srv_Baro.c **** 
 1322              		.loc 1 420 25 is_stmt 1 view .LVU365
 420:Service/Srv_Baro.c **** 
 1323              		.loc 1 420 53 is_stmt 0 view .LVU366
 1324 00dc F6EE007A 		vmov.f32	s15, #5.0e-1
 1325 00e0 20EE270A 		vmul.f32	s0, s0, s15
 1326 00e4 82ED110A 		vstr.32	s0, [r2, #68]
 422:Service/Srv_Baro.c **** 
 1327              		.loc 1 422 25 is_stmt 1 view .LVU367
 422:Service/Srv_Baro.c **** 
 1328              		.loc 1 422 48 is_stmt 0 view .LVU368
 1329 00e8 013B     		subs	r3, r3, #1
 1330 00ea 9BB2     		uxth	r3, r3
 1331 00ec A2F84030 		strh	r3, [r2, #64]	@ movhi
 424:Service/Srv_Baro.c ****                         {
 1332              		.loc 1 424 25 is_stmt 1 view .LVU369
 424:Service/Srv_Baro.c ****                         {
 1333              		.loc 1 424 28 is_stmt 0 view .LVU370
 1334 00f0 23B1     		cbz	r3, .L89
 431:Service/Srv_Baro.c ****                     }
 1335              		.loc 1 431 29 is_stmt 1 view .LVU371
 431:Service/Srv_Baro.c ****                     }
 1336              		.loc 1 431 52 is_stmt 0 view .LVU372
 1337 00f2 0C4B     		ldr	r3, .L90
 1338 00f4 0222     		movs	r2, #2
 1339 00f6 83F84220 		strb	r2, [r3, #66]
 434:Service/Srv_Baro.c ****                 }
 1340              		.loc 1 434 21 is_stmt 1 view .LVU373
 434:Service/Srv_Baro.c ****                 }
 1341              		.loc 1 434 28 is_stmt 0 view .LVU374
 1342 00fa 10E0     		b	.L77
 1343              	.L89:
 426:Service/Srv_Baro.c ****                             SrvBaroObj.alt_offset = SrvBaro_PessureCnvToMeter(SrvBaroObj.pressure_a
 1344              		.loc 1 426 29 is_stmt 1 view .LVU375
 426:Service/Srv_Baro.c ****                             SrvBaroObj.alt_offset = SrvBaro_PessureCnvToMeter(SrvBaroObj.pressure_a
 1345              		.loc 1 426 52 is_stmt 0 view .LVU376
 1346 00fc 1546     		mov	r5, r2
 1347 00fe 0323     		movs	r3, #3
 1348 0100 82F84230 		strb	r3, [r2, #66]
 427:Service/Srv_Baro.c ****                             SrvBaroObj.pressure_add_sum = 0.0f;
 1349              		.loc 1 427 29 is_stmt 1 view .LVU377
 427:Service/Srv_Baro.c ****                             SrvBaroObj.pressure_add_sum = 0.0f;
 1350              		.loc 1 427 53 is_stmt 0 view .LVU378
 1351 0104 FFF7FEFF 		bl	SrvBaro_PessureCnvToMeter
 1352              	.LVL99:
 427:Service/Srv_Baro.c ****                             SrvBaroObj.pressure_add_sum = 0.0f;
 1353              		.loc 1 427 51 view .LVU379
 1354 0108 85ED120A 		vstr.32	s0, [r5, #72]
 428:Service/Srv_Baro.c ****                         }
 1355              		.loc 1 428 29 is_stmt 1 view .LVU380
 428:Service/Srv_Baro.c ****                         }
 1356              		.loc 1 428 57 is_stmt 0 view .LVU381
 1357 010c 0023     		movs	r3, #0
 1358 010e 6B64     		str	r3, [r5, #68]	@ float
ARM GAS  C:\Users\8bit\AppData\Local\Temp\ccIzqRlN.s 			page 41


 1359 0110 05E0     		b	.L77
 1360              	.L83:
 438:Service/Srv_Baro.c ****                     return false;
 1361              		.loc 1 438 21 is_stmt 1 view .LVU382
 438:Service/Srv_Baro.c ****                     return false;
 1362              		.loc 1 438 31 is_stmt 0 view .LVU383
 1363 0112 044A     		ldr	r2, .L90
 1364 0114 D36B     		ldr	r3, [r2, #60]
 438:Service/Srv_Baro.c ****                     return false;
 1365              		.loc 1 438 47 view .LVU384
 1366 0116 0133     		adds	r3, r3, #1
 1367 0118 D363     		str	r3, [r2, #60]
 439:Service/Srv_Baro.c ****                 }
 1368              		.loc 1 439 21 is_stmt 1 view .LVU385
 439:Service/Srv_Baro.c ****                 }
 1369              		.loc 1 439 28 is_stmt 0 view .LVU386
 1370 011a 00E0     		b	.L77
 1371              	.L86:
 447:Service/Srv_Baro.c **** }
 1372              		.loc 1 447 12 view .LVU387
 1373 011c 0024     		movs	r4, #0
 1374              	.L77:
 448:Service/Srv_Baro.c **** 
 1375              		.loc 1 448 1 view .LVU388
 1376 011e 2046     		mov	r0, r4
 1377 0120 38BD     		pop	{r3, r4, r5, pc}
 1378              	.L91:
 1379 0122 00BF     		.align	2
 1380              	.L90:
 1381 0124 00000000 		.word	.LANCHOR2
 1382              		.cfi_endproc
 1383              	.LFE144:
 1385              		.section	.rodata.SrvBaro_Init.str1.4,"aMS",%progbits,1
 1386              		.align	2
 1387              	.LC1:
 1388 0000 53727642 		.ascii	"SrvBaro_Error\000"
 1388      61726F5F 
 1388      4572726F 
 1388      7200
 1389              		.global	__aeabi_ui2d
 1390              		.global	__aeabi_ddiv
 1391              		.global	__aeabi_d2uiz
 1392              		.section	.text.SrvBaro_Init,"ax",%progbits
 1393              		.align	1
 1394              		.syntax unified
 1395              		.thumb
 1396              		.thumb_func
 1398              	SrvBaro_Init:
 1399              	.LVL100:
 1400              	.LFB143:
 225:Service/Srv_Baro.c ****     /* create error log handle */
 1401              		.loc 1 225 1 is_stmt 1 view -0
 1402              		.cfi_startproc
 1403              		@ args = 0, pretend = 0, frame = 0
 1404              		@ frame_needed = 0, uses_anonymous_args = 0
 225:Service/Srv_Baro.c ****     /* create error log handle */
 1405              		.loc 1 225 1 is_stmt 0 view .LVU390
ARM GAS  C:\Users\8bit\AppData\Local\Temp\ccIzqRlN.s 			page 42


 1406 0000 70B5     		push	{r4, r5, r6, lr}
 1407              	.LCFI23:
 1408              		.cfi_def_cfa_offset 16
 1409              		.cfi_offset 4, -16
 1410              		.cfi_offset 5, -12
 1411              		.cfi_offset 6, -8
 1412              		.cfi_offset 14, -4
 1413 0002 0446     		mov	r4, r0
 1414 0004 0D46     		mov	r5, r1
 227:Service/Srv_Baro.c **** 
 1415              		.loc 1 227 5 is_stmt 1 view .LVU391
 227:Service/Srv_Baro.c **** 
 1416              		.loc 1 227 36 is_stmt 0 view .LVU392
 1417 0006 814E     		ldr	r6, .L117
 1418 0008 3368     		ldr	r3, [r6]
 227:Service/Srv_Baro.c **** 
 1419              		.loc 1 227 28 view .LVU393
 1420 000a 8148     		ldr	r0, .L117+4
 1421              	.LVL101:
 227:Service/Srv_Baro.c **** 
 1422              		.loc 1 227 28 view .LVU394
 1423 000c 9847     		blx	r3
 1424              	.LVL102:
 227:Service/Srv_Baro.c **** 
 1425              		.loc 1 227 26 view .LVU395
 1426 000e 814B     		ldr	r3, .L117+8
 1427 0010 1860     		str	r0, [r3]
 230:Service/Srv_Baro.c **** 
 1428              		.loc 1 230 5 is_stmt 1 view .LVU396
 230:Service/Srv_Baro.c **** 
 1429              		.loc 1 230 13 is_stmt 0 view .LVU397
 1430 0012 7368     		ldr	r3, [r6, #4]
 230:Service/Srv_Baro.c **** 
 1431              		.loc 1 230 5 view .LVU398
 1432 0014 0722     		movs	r2, #7
 1433 0016 8049     		ldr	r1, .L117+12
 1434 0018 9847     		blx	r3
 1435              	.LVL103:
 232:Service/Srv_Baro.c ****     {
 1436              		.loc 1 232 5 is_stmt 1 view .LVU399
 232:Service/Srv_Baro.c ****     {
 1437              		.loc 1 232 10 is_stmt 0 view .LVU400
 1438 001a 2846     		mov	r0, r5
 1439 001c FFF7FEFF 		bl	SrvBaro_BusInit
 1440              	.LVL104:
 232:Service/Srv_Baro.c ****     {
 1441              		.loc 1 232 8 view .LVU401
 1442 0020 90B1     		cbz	r0, .L112
 238:Service/Srv_Baro.c ****     {
 1443              		.loc 1 238 5 is_stmt 1 view .LVU402
 238:Service/Srv_Baro.c ****     {
 1444              		.loc 1 238 19 is_stmt 0 view .LVU403
 1445 0022 7E4B     		ldr	r3, .L117+16
 1446 0024 5B88     		ldrh	r3, [r3, #2]
 238:Service/Srv_Baro.c ****     {
 1447              		.loc 1 238 8 view .LVU404
 1448 0026 002B     		cmp	r3, #0
ARM GAS  C:\Users\8bit\AppData\Local\Temp\ccIzqRlN.s 			page 43


 1449 0028 00F0E180 		beq	.L95
 240:Service/Srv_Baro.c ****         {
 1450              		.loc 1 240 9 is_stmt 1 view .LVU405
 1451 002c 012C     		cmp	r4, #1
 1452 002e 14D0     		beq	.L96
 1453 0030 022C     		cmp	r4, #2
 1454 0032 54D0     		beq	.L97
 342:Service/Srv_Baro.c ****                 return SrvBaro_Error_BadType;
 1455              		.loc 1 342 17 view .LVU406
 342:Service/Srv_Baro.c ****                 return SrvBaro_Error_BadType;
 1456              		.loc 1 342 25 is_stmt 0 view .LVU407
 1457 0034 754B     		ldr	r3, .L117
 1458 0036 9C68     		ldr	r4, [r3, #8]
 342:Service/Srv_Baro.c ****                 return SrvBaro_Error_BadType;
 1459              		.loc 1 342 17 view .LVU408
 1460 0038 0023     		movs	r3, #0
 1461 003a 1A46     		mov	r2, r3
 1462 003c 0321     		movs	r1, #3
 1463 003e 7548     		ldr	r0, .L117+8
 1464 0040 0068     		ldr	r0, [r0]
 1465 0042 A047     		blx	r4
 1466              	.LVL105:
 343:Service/Srv_Baro.c ****         }
 1467              		.loc 1 343 17 is_stmt 1 view .LVU409
 343:Service/Srv_Baro.c ****         }
 1468              		.loc 1 343 24 is_stmt 0 view .LVU410
 1469 0044 0320     		movs	r0, #3
 1470 0046 DBE0     		b	.L94
 1471              	.L112:
 234:Service/Srv_Baro.c ****         return SrvBaro_Error_BusInit;
 1472              		.loc 1 234 9 is_stmt 1 view .LVU411
 234:Service/Srv_Baro.c ****         return SrvBaro_Error_BusInit;
 1473              		.loc 1 234 17 is_stmt 0 view .LVU412
 1474 0048 B468     		ldr	r4, [r6, #8]
 234:Service/Srv_Baro.c ****         return SrvBaro_Error_BusInit;
 1475              		.loc 1 234 9 view .LVU413
 1476 004a 0023     		movs	r3, #0
 1477 004c 1A46     		mov	r2, r3
 1478 004e 0821     		movs	r1, #8
 1479 0050 7048     		ldr	r0, .L117+8
 1480 0052 0068     		ldr	r0, [r0]
 1481 0054 A047     		blx	r4
 1482              	.LVL106:
 235:Service/Srv_Baro.c ****     }
 1483              		.loc 1 235 9 is_stmt 1 view .LVU414
 235:Service/Srv_Baro.c ****     }
 1484              		.loc 1 235 16 is_stmt 0 view .LVU415
 1485 0056 0820     		movs	r0, #8
 1486 0058 D2E0     		b	.L94
 1487              	.L96:
 243:Service/Srv_Baro.c ****                 SrvBaroObj.sensor_obj = SrvOsCommon.malloc(sizeof(DevDPS310Obj_TypeDef));
 1488              		.loc 1 243 17 is_stmt 1 view .LVU416
 243:Service/Srv_Baro.c ****                 SrvBaroObj.sensor_obj = SrvOsCommon.malloc(sizeof(DevDPS310Obj_TypeDef));
 1489              		.loc 1 243 33 is_stmt 0 view .LVU417
 1490 005a 704D     		ldr	r5, .L117+16
 1491 005c 2C70     		strb	r4, [r5]
 244:Service/Srv_Baro.c ****                 SrvBaroObj.sensor_api = &DevDPS310;
ARM GAS  C:\Users\8bit\AppData\Local\Temp\ccIzqRlN.s 			page 44


 1492              		.loc 1 244 17 is_stmt 1 view .LVU418
 244:Service/Srv_Baro.c ****                 SrvBaroObj.sensor_api = &DevDPS310;
 1493              		.loc 1 244 52 is_stmt 0 view .LVU419
 1494 005e 704B     		ldr	r3, .L117+20
 1495 0060 9B6A     		ldr	r3, [r3, #40]
 244:Service/Srv_Baro.c ****                 SrvBaroObj.sensor_api = &DevDPS310;
 1496              		.loc 1 244 41 view .LVU420
 1497 0062 5420     		movs	r0, #84
 1498 0064 9847     		blx	r3
 1499              	.LVL107:
 244:Service/Srv_Baro.c ****                 SrvBaroObj.sensor_api = &DevDPS310;
 1500              		.loc 1 244 39 view .LVU421
 1501 0066 A860     		str	r0, [r5, #8]
 245:Service/Srv_Baro.c **** 
 1502              		.loc 1 245 17 is_stmt 1 view .LVU422
 245:Service/Srv_Baro.c **** 
 1503              		.loc 1 245 39 is_stmt 0 view .LVU423
 1504 0068 6E4B     		ldr	r3, .L117+24
 1505 006a EB60     		str	r3, [r5, #12]
 247:Service/Srv_Baro.c ****                     (SrvBaroObj.sensor_api != NULL))
 1506              		.loc 1 247 17 is_stmt 1 view .LVU424
 247:Service/Srv_Baro.c ****                     (SrvBaroObj.sensor_api != NULL))
 1507              		.loc 1 247 20 is_stmt 0 view .LVU425
 1508 006c 0028     		cmp	r0, #0
 1509 006e 2CD0     		beq	.L99
 251:Service/Srv_Baro.c ****                     {
 1510              		.loc 1 251 21 is_stmt 1 view .LVU426
 251:Service/Srv_Baro.c ****                     {
 1511              		.loc 1 251 39 is_stmt 0 view .LVU427
 1512 0070 6D4B     		ldr	r3, .L117+28
 1513 0072 1B78     		ldrb	r3, [r3]	@ zero_extendqisi2
 1514 0074 012B     		cmp	r3, #1
 1515 0076 40F0C480 		bne	.L107
 254:Service/Srv_Baro.c ****                             ToDPS310_OBJ(SrvBaroObj.sensor_obj)->bus_rx = (DevDPS310_BusRead)SrvBar
 1516              		.loc 1 254 29 is_stmt 1 view .LVU428
 254:Service/Srv_Baro.c ****                             ToDPS310_OBJ(SrvBaroObj.sensor_obj)->bus_rx = (DevDPS310_BusRead)SrvBar
 1517              		.loc 1 254 74 is_stmt 0 view .LVU429
 1518 007a 7623     		movs	r3, #118
 1519 007c 0370     		strb	r3, [r0]
 255:Service/Srv_Baro.c ****                             ToDPS310_OBJ(SrvBaroObj.sensor_obj)->bus_tx = (DevDPS310_BusWrite)SrvBa
 1520              		.loc 1 255 29 is_stmt 1 view .LVU430
 1521 007e A868     		ldr	r0, [r5, #8]
 255:Service/Srv_Baro.c ****                             ToDPS310_OBJ(SrvBaroObj.sensor_obj)->bus_tx = (DevDPS310_BusWrite)SrvBa
 1522              		.loc 1 255 73 is_stmt 0 view .LVU431
 1523 0080 6A4A     		ldr	r2, .L117+32
 1524 0082 0262     		str	r2, [r0, #32]
 256:Service/Srv_Baro.c ****                             break;
 1525              		.loc 1 256 29 is_stmt 1 view .LVU432
 256:Service/Srv_Baro.c ****                             break;
 1526              		.loc 1 256 73 is_stmt 0 view .LVU433
 1527 0084 6A4A     		ldr	r2, .L117+36
 1528 0086 C261     		str	r2, [r0, #28]
 257:Service/Srv_Baro.c **** 
 1529              		.loc 1 257 29 is_stmt 1 view .LVU434
 263:Service/Srv_Baro.c ****                     ToDPS310_OBJ(SrvBaroObj.sensor_obj)->bus_delay = SrvOsCommon.delay_ms;
 1530              		.loc 1 263 21 view .LVU435
 263:Service/Srv_Baro.c ****                     ToDPS310_OBJ(SrvBaroObj.sensor_obj)->bus_delay = SrvOsCommon.delay_ms;
ARM GAS  C:\Users\8bit\AppData\Local\Temp\ccIzqRlN.s 			page 45


 1531              		.loc 1 263 80 is_stmt 0 view .LVU436
 1532 0088 654A     		ldr	r2, .L117+20
 1533 008a 1168     		ldr	r1, [r2]
 263:Service/Srv_Baro.c ****                     ToDPS310_OBJ(SrvBaroObj.sensor_obj)->bus_delay = SrvOsCommon.delay_ms;
 1534              		.loc 1 263 67 view .LVU437
 1535 008c 8162     		str	r1, [r0, #40]
 264:Service/Srv_Baro.c **** 
 1536              		.loc 1 264 21 is_stmt 1 view .LVU438
 264:Service/Srv_Baro.c **** 
 1537              		.loc 1 264 81 is_stmt 0 view .LVU439
 1538 008e 5268     		ldr	r2, [r2, #4]
 264:Service/Srv_Baro.c **** 
 1539              		.loc 1 264 68 view .LVU440
 1540 0090 4262     		str	r2, [r0, #36]
 267:Service/Srv_Baro.c ****                     {
 1541              		.loc 1 267 21 is_stmt 1 view .LVU441
 267:Service/Srv_Baro.c ****                     {
 1542              		.loc 1 267 26 is_stmt 0 view .LVU442
 1543 0092 EB68     		ldr	r3, [r5, #12]
 267:Service/Srv_Baro.c ****                     {
 1544              		.loc 1 267 61 view .LVU443
 1545 0094 1B68     		ldr	r3, [r3]
 267:Service/Srv_Baro.c ****                     {
 1546              		.loc 1 267 26 view .LVU444
 1547 0096 9847     		blx	r3
 1548              	.LVL108:
 267:Service/Srv_Baro.c ****                     {
 1549              		.loc 1 267 24 view .LVU445
 1550 0098 68B1     		cbz	r0, .L113
 273:Service/Srv_Baro.c ****                     SrvBaroObj.calib_cycle = SRVBARO_DEFAULT_CALI_CYCLE;
 1551              		.loc 1 273 21 is_stmt 1 view .LVU446
 273:Service/Srv_Baro.c ****                     SrvBaroObj.calib_cycle = SRVBARO_DEFAULT_CALI_CYCLE;
 1552              		.loc 1 273 44 is_stmt 0 view .LVU447
 1553 009a 604C     		ldr	r4, .L117+16
 1554 009c 0123     		movs	r3, #1
 1555 009e 84F84230 		strb	r3, [r4, #66]
 274:Service/Srv_Baro.c **** 
 1556              		.loc 1 274 21 is_stmt 1 view .LVU448
 274:Service/Srv_Baro.c **** 
 1557              		.loc 1 274 44 is_stmt 0 view .LVU449
 1558 00a2 6423     		movs	r3, #100
 1559 00a4 A4F84030 		strh	r3, [r4, #64]	@ movhi
 276:Service/Srv_Baro.c ****                     SrvBaroObj.sensor_data = SrvOsCommon.malloc(SrvBaroObj.data_size);
 1560              		.loc 1 276 21 is_stmt 1 view .LVU450
 276:Service/Srv_Baro.c ****                     SrvBaroObj.sensor_data = SrvOsCommon.malloc(SrvBaroObj.data_size);
 1561              		.loc 1 276 42 is_stmt 0 view .LVU451
 1562 00a8 1020     		movs	r0, #16
 1563 00aa 2076     		strb	r0, [r4, #24]
 277:Service/Srv_Baro.c ****                 }
 1564              		.loc 1 277 21 is_stmt 1 view .LVU452
 277:Service/Srv_Baro.c ****                 }
 1565              		.loc 1 277 57 is_stmt 0 view .LVU453
 1566 00ac 5C4B     		ldr	r3, .L117+20
 1567 00ae 9B6A     		ldr	r3, [r3, #40]
 277:Service/Srv_Baro.c ****                 }
 1568              		.loc 1 277 46 view .LVU454
 1569 00b0 9847     		blx	r3
ARM GAS  C:\Users\8bit\AppData\Local\Temp\ccIzqRlN.s 			page 46


 1570              	.LVL109:
 277:Service/Srv_Baro.c ****                 }
 1571              		.loc 1 277 44 view .LVU455
 1572 00b2 6061     		str	r0, [r4, #20]
 284:Service/Srv_Baro.c **** 
 1573              		.loc 1 284 17 is_stmt 1 view .LVU456
 1574 00b4 4AE0     		b	.L101
 1575              	.L113:
 269:Service/Srv_Baro.c ****                         return SrvBaro_Error_DevInit;
 1576              		.loc 1 269 25 view .LVU457
 269:Service/Srv_Baro.c ****                         return SrvBaro_Error_DevInit;
 1577              		.loc 1 269 33 is_stmt 0 view .LVU458
 1578 00b6 554B     		ldr	r3, .L117
 1579 00b8 9C68     		ldr	r4, [r3, #8]
 269:Service/Srv_Baro.c ****                         return SrvBaro_Error_DevInit;
 1580              		.loc 1 269 25 view .LVU459
 1581 00ba 0023     		movs	r3, #0
 1582 00bc 1A46     		mov	r2, r3
 1583 00be 0421     		movs	r1, #4
 1584 00c0 5448     		ldr	r0, .L117+8
 1585 00c2 0068     		ldr	r0, [r0]
 1586 00c4 A047     		blx	r4
 1587              	.LVL110:
 270:Service/Srv_Baro.c ****                     }
 1588              		.loc 1 270 25 is_stmt 1 view .LVU460
 270:Service/Srv_Baro.c ****                     }
 1589              		.loc 1 270 32 is_stmt 0 view .LVU461
 1590 00c6 0420     		movs	r0, #4
 1591 00c8 9AE0     		b	.L94
 1592              	.L99:
 281:Service/Srv_Baro.c ****                     return SrvBaro_Error_BadSensorObj;
 1593              		.loc 1 281 21 is_stmt 1 view .LVU462
 281:Service/Srv_Baro.c ****                     return SrvBaro_Error_BadSensorObj;
 1594              		.loc 1 281 29 is_stmt 0 view .LVU463
 1595 00ca 504B     		ldr	r3, .L117
 1596 00cc 9C68     		ldr	r4, [r3, #8]
 281:Service/Srv_Baro.c ****                     return SrvBaro_Error_BadSensorObj;
 1597              		.loc 1 281 21 view .LVU464
 1598 00ce 0023     		movs	r3, #0
 1599 00d0 1A46     		mov	r2, r3
 1600 00d2 0521     		movs	r1, #5
 1601 00d4 4F48     		ldr	r0, .L117+8
 1602 00d6 0068     		ldr	r0, [r0]
 1603 00d8 A047     		blx	r4
 1604              	.LVL111:
 282:Service/Srv_Baro.c ****                 }
 1605              		.loc 1 282 21 is_stmt 1 view .LVU465
 282:Service/Srv_Baro.c ****                 }
 1606              		.loc 1 282 28 is_stmt 0 view .LVU466
 1607 00da 0520     		movs	r0, #5
 1608 00dc 90E0     		b	.L94
 1609              	.L97:
 287:Service/Srv_Baro.c ****                 SrvBaroObj.sensor_obj = SrvOsCommon.malloc(sizeof(DevBMP280Obj_TypeDef));
 1610              		.loc 1 287 17 is_stmt 1 view .LVU467
 287:Service/Srv_Baro.c ****                 SrvBaroObj.sensor_obj = SrvOsCommon.malloc(sizeof(DevBMP280Obj_TypeDef));
 1611              		.loc 1 287 33 is_stmt 0 view .LVU468
 1612 00de 4F4D     		ldr	r5, .L117+16
ARM GAS  C:\Users\8bit\AppData\Local\Temp\ccIzqRlN.s 			page 47


 1613 00e0 2C70     		strb	r4, [r5]
 288:Service/Srv_Baro.c ****                 SrvBaroObj.sensor_api = &DevBMP280;
 1614              		.loc 1 288 17 is_stmt 1 view .LVU469
 288:Service/Srv_Baro.c ****                 SrvBaroObj.sensor_api = &DevBMP280;
 1615              		.loc 1 288 52 is_stmt 0 view .LVU470
 1616 00e2 4F4B     		ldr	r3, .L117+20
 1617 00e4 9B6A     		ldr	r3, [r3, #40]
 288:Service/Srv_Baro.c ****                 SrvBaroObj.sensor_api = &DevBMP280;
 1618              		.loc 1 288 41 view .LVU471
 1619 00e6 5C20     		movs	r0, #92
 1620 00e8 9847     		blx	r3
 1621              	.LVL112:
 288:Service/Srv_Baro.c ****                 SrvBaroObj.sensor_api = &DevBMP280;
 1622              		.loc 1 288 39 view .LVU472
 1623 00ea A860     		str	r0, [r5, #8]
 289:Service/Srv_Baro.c **** 
 1624              		.loc 1 289 17 is_stmt 1 view .LVU473
 289:Service/Srv_Baro.c **** 
 1625              		.loc 1 289 39 is_stmt 0 view .LVU474
 1626 00ec 514B     		ldr	r3, .L117+40
 1627 00ee EB60     		str	r3, [r5, #12]
 291:Service/Srv_Baro.c ****                     (SrvBaroObj.sensor_api != NULL))
 1628              		.loc 1 291 17 is_stmt 1 view .LVU475
 291:Service/Srv_Baro.c ****                     (SrvBaroObj.sensor_api != NULL))
 1629              		.loc 1 291 20 is_stmt 0 view .LVU476
 1630 00f0 0028     		cmp	r0, #0
 1631 00f2 5ED0     		beq	.L102
 294:Service/Srv_Baro.c ****                     ToBMP280_OBJ(SrvBaroObj.sensor_obj)->recv = NULL;
 1632              		.loc 1 294 21 is_stmt 1 view .LVU477
 294:Service/Srv_Baro.c ****                     ToBMP280_OBJ(SrvBaroObj.sensor_obj)->recv = NULL;
 1633              		.loc 1 294 63 is_stmt 0 view .LVU478
 1634 00f4 0023     		movs	r3, #0
 1635 00f6 0365     		str	r3, [r0, #80]
 295:Service/Srv_Baro.c ****                     ToBMP280_OBJ(SrvBaroObj.sensor_obj)->trans = NULL;
 1636              		.loc 1 295 21 is_stmt 1 view .LVU479
 295:Service/Srv_Baro.c ****                     ToBMP280_OBJ(SrvBaroObj.sensor_obj)->trans = NULL;
 1637              		.loc 1 295 63 is_stmt 0 view .LVU480
 1638 00f8 4365     		str	r3, [r0, #84]
 296:Service/Srv_Baro.c ****                     ToBMP280_OBJ(SrvBaroObj.sensor_obj)->bus_tx = NULL;
 1639              		.loc 1 296 21 is_stmt 1 view .LVU481
 296:Service/Srv_Baro.c ****                     ToBMP280_OBJ(SrvBaroObj.sensor_obj)->bus_tx = NULL;
 1640              		.loc 1 296 64 is_stmt 0 view .LVU482
 1641 00fa 8365     		str	r3, [r0, #88]
 297:Service/Srv_Baro.c ****                     ToBMP280_OBJ(SrvBaroObj.sensor_obj)->bus_rx = NULL;
 1642              		.loc 1 297 21 is_stmt 1 view .LVU483
 297:Service/Srv_Baro.c ****                     ToBMP280_OBJ(SrvBaroObj.sensor_obj)->bus_rx = NULL;
 1643              		.loc 1 297 65 is_stmt 0 view .LVU484
 1644 00fc 8364     		str	r3, [r0, #72]
 298:Service/Srv_Baro.c **** 
 1645              		.loc 1 298 21 is_stmt 1 view .LVU485
 298:Service/Srv_Baro.c **** 
 1646              		.loc 1 298 65 is_stmt 0 view .LVU486
 1647 00fe C364     		str	r3, [r0, #76]
 301:Service/Srv_Baro.c ****                     {
 1648              		.loc 1 301 21 is_stmt 1 view .LVU487
 301:Service/Srv_Baro.c ****                     {
 1649              		.loc 1 301 39 is_stmt 0 view .LVU488
ARM GAS  C:\Users\8bit\AppData\Local\Temp\ccIzqRlN.s 			page 48


 1650 0100 494B     		ldr	r3, .L117+28
 1651 0102 1B78     		ldrb	r3, [r3]	@ zero_extendqisi2
 1652 0104 012B     		cmp	r3, #1
 1653 0106 42D0     		beq	.L103
 1654 0108 022B     		cmp	r3, #2
 1655 010a 7CD1     		bne	.L108
 304:Service/Srv_Baro.c ****                             ToBMP280_OBJ(SrvBaroObj.sensor_obj)->recv = SrvBaro_SPIBus_Rx;
 1656              		.loc 1 304 29 is_stmt 1 view .LVU489
 304:Service/Srv_Baro.c ****                             ToBMP280_OBJ(SrvBaroObj.sensor_obj)->recv = SrvBaro_SPIBus_Rx;
 1657              		.loc 1 304 71 is_stmt 0 view .LVU490
 1658 010c 4A4B     		ldr	r3, .L117+44
 1659 010e 0365     		str	r3, [r0, #80]
 305:Service/Srv_Baro.c ****                             ToBMP280_OBJ(SrvBaroObj.sensor_obj)->trans = SrvBaro_SPIBus_Trans;
 1660              		.loc 1 305 29 is_stmt 1 view .LVU491
 305:Service/Srv_Baro.c ****                             ToBMP280_OBJ(SrvBaroObj.sensor_obj)->trans = SrvBaro_SPIBus_Trans;
 1661              		.loc 1 305 71 is_stmt 0 view .LVU492
 1662 0110 4A4B     		ldr	r3, .L117+48
 1663 0112 4365     		str	r3, [r0, #84]
 306:Service/Srv_Baro.c ****                             break;
 1664              		.loc 1 306 29 is_stmt 1 view .LVU493
 306:Service/Srv_Baro.c ****                             break;
 1665              		.loc 1 306 72 is_stmt 0 view .LVU494
 1666 0114 4A4B     		ldr	r3, .L117+52
 1667 0116 8365     		str	r3, [r0, #88]
 307:Service/Srv_Baro.c ****                         
 1668              		.loc 1 307 29 is_stmt 1 view .LVU495
 1669              	.L104:
 318:Service/Srv_Baro.c ****                     ToBMP280_OBJ(SrvBaroObj.sensor_obj)->delay_ms = SrvOsCommon.delay_ms;
 1670              		.loc 1 318 21 view .LVU496
 318:Service/Srv_Baro.c ****                     ToBMP280_OBJ(SrvBaroObj.sensor_obj)->delay_ms = SrvOsCommon.delay_ms;
 1671              		.loc 1 318 80 is_stmt 0 view .LVU497
 1672 0118 414A     		ldr	r2, .L117+20
 1673 011a 1368     		ldr	r3, [r2]
 318:Service/Srv_Baro.c ****                     ToBMP280_OBJ(SrvBaroObj.sensor_obj)->delay_ms = SrvOsCommon.delay_ms;
 1674              		.loc 1 318 67 view .LVU498
 1675 011c 4360     		str	r3, [r0, #4]
 319:Service/Srv_Baro.c **** 
 1676              		.loc 1 319 21 is_stmt 1 view .LVU499
 1677 011e 3F4B     		ldr	r3, .L117+16
 1678 0120 9968     		ldr	r1, [r3, #8]
 319:Service/Srv_Baro.c **** 
 1679              		.loc 1 319 80 is_stmt 0 view .LVU500
 1680 0122 5268     		ldr	r2, [r2, #4]
 319:Service/Srv_Baro.c **** 
 1681              		.loc 1 319 67 view .LVU501
 1682 0124 8A60     		str	r2, [r1, #8]
 322:Service/Srv_Baro.c ****                     {
 1683              		.loc 1 322 21 is_stmt 1 view .LVU502
 322:Service/Srv_Baro.c ****                     {
 1684              		.loc 1 322 26 is_stmt 0 view .LVU503
 1685 0126 DA68     		ldr	r2, [r3, #12]
 322:Service/Srv_Baro.c ****                     {
 1686              		.loc 1 322 61 view .LVU504
 1687 0128 1268     		ldr	r2, [r2]
 322:Service/Srv_Baro.c ****                     {
 1688              		.loc 1 322 26 view .LVU505
 1689 012a 9868     		ldr	r0, [r3, #8]
ARM GAS  C:\Users\8bit\AppData\Local\Temp\ccIzqRlN.s 			page 49


 1690 012c 9047     		blx	r2
 1691              	.LVL113:
 322:Service/Srv_Baro.c ****                     {
 1692              		.loc 1 322 24 view .LVU506
 1693 012e 0028     		cmp	r0, #0
 1694 0130 35D0     		beq	.L114
 328:Service/Srv_Baro.c ****                     SrvBaroObj.calib_cycle = SRVBARO_DEFAULT_CALI_CYCLE;
 1695              		.loc 1 328 21 is_stmt 1 view .LVU507
 328:Service/Srv_Baro.c ****                     SrvBaroObj.calib_cycle = SRVBARO_DEFAULT_CALI_CYCLE;
 1696              		.loc 1 328 44 is_stmt 0 view .LVU508
 1697 0132 3A4C     		ldr	r4, .L117+16
 1698 0134 0123     		movs	r3, #1
 1699 0136 84F84230 		strb	r3, [r4, #66]
 329:Service/Srv_Baro.c ****                     
 1700              		.loc 1 329 21 is_stmt 1 view .LVU509
 329:Service/Srv_Baro.c ****                     
 1701              		.loc 1 329 44 is_stmt 0 view .LVU510
 1702 013a 6423     		movs	r3, #100
 1703 013c A4F84030 		strh	r3, [r4, #64]	@ movhi
 331:Service/Srv_Baro.c ****                     SrvBaroObj.sensor_data = SrvOsCommon.malloc(SrvBaroObj.data_size);
 1704              		.loc 1 331 21 is_stmt 1 view .LVU511
 331:Service/Srv_Baro.c ****                     SrvBaroObj.sensor_data = SrvOsCommon.malloc(SrvBaroObj.data_size);
 1705              		.loc 1 331 42 is_stmt 0 view .LVU512
 1706 0140 1020     		movs	r0, #16
 1707 0142 2076     		strb	r0, [r4, #24]
 332:Service/Srv_Baro.c ****                 }
 1708              		.loc 1 332 21 is_stmt 1 view .LVU513
 332:Service/Srv_Baro.c ****                 }
 1709              		.loc 1 332 57 is_stmt 0 view .LVU514
 1710 0144 364B     		ldr	r3, .L117+20
 1711 0146 9B6A     		ldr	r3, [r3, #40]
 332:Service/Srv_Baro.c ****                 }
 1712              		.loc 1 332 46 view .LVU515
 1713 0148 9847     		blx	r3
 1714              	.LVL114:
 332:Service/Srv_Baro.c ****                 }
 1715              		.loc 1 332 44 view .LVU516
 1716 014a 6061     		str	r0, [r4, #20]
 339:Service/Srv_Baro.c ****             
 1717              		.loc 1 339 17 is_stmt 1 view .LVU517
 1718              	.L101:
 346:Service/Srv_Baro.c **** 
 1719              		.loc 1 346 9 view .LVU518
 346:Service/Srv_Baro.c **** 
 1720              		.loc 1 346 69 is_stmt 0 view .LVU519
 1721 014c 334C     		ldr	r4, .L117+16
 346:Service/Srv_Baro.c **** 
 1722              		.loc 1 346 51 view .LVU520
 1723 014e 6088     		ldrh	r0, [r4, #2]
 1724 0150 FFF7FEFF 		bl	__aeabi_ui2d
 1725              	.LVL115:
 1726 0154 0246     		mov	r2, r0
 1727 0156 0B46     		mov	r3, r1
 346:Service/Srv_Baro.c **** 
 1728              		.loc 1 346 36 view .LVU521
 1729 0158 0020     		movs	r0, #0
 1730 015a 3A49     		ldr	r1, .L117+56
ARM GAS  C:\Users\8bit\AppData\Local\Temp\ccIzqRlN.s 			page 50


 1731 015c FFF7FEFF 		bl	__aeabi_ddiv
 1732              	.LVL116:
 1733 0160 41EC100B 		vmov	d0, r0, r1
 1734 0164 FFF7FEFF 		bl	round
 1735              	.LVL117:
 1736 0168 51EC100B 		vmov	r0, r1, d0
 346:Service/Srv_Baro.c **** 
 1737              		.loc 1 346 34 view .LVU522
 1738 016c FFF7FEFF 		bl	__aeabi_d2uiz
 1739              	.LVL118:
 1740 0170 A080     		strh	r0, [r4, #4]	@ movhi
 349:Service/Srv_Baro.c ****         if (SrvBaroObj.smoothwindow_filter_hdl == 0)
 1741              		.loc 1 349 9 is_stmt 1 view .LVU523
 349:Service/Srv_Baro.c ****         if (SrvBaroObj.smoothwindow_filter_hdl == 0)
 1742              		.loc 1 349 58 is_stmt 0 view .LVU524
 1743 0172 354B     		ldr	r3, .L117+60
 1744 0174 1B68     		ldr	r3, [r3]
 349:Service/Srv_Baro.c ****         if (SrvBaroObj.smoothwindow_filter_hdl == 0)
 1745              		.loc 1 349 46 view .LVU525
 1746 0176 0520     		movs	r0, #5
 1747 0178 9847     		blx	r3
 1748              	.LVL119:
 349:Service/Srv_Baro.c ****         if (SrvBaroObj.smoothwindow_filter_hdl == 0)
 1749              		.loc 1 349 44 view .LVU526
 1750 017a E064     		str	r0, [r4, #76]
 350:Service/Srv_Baro.c ****         {
 1751              		.loc 1 350 9 is_stmt 1 view .LVU527
 350:Service/Srv_Baro.c ****         {
 1752              		.loc 1 350 12 is_stmt 0 view .LVU528
 1753 017c 18B3     		cbz	r0, .L115
 356:Service/Srv_Baro.c ****             (SrvBaroObj.sample_period > SRVBARO_MIN_SAMPLE_PERIOD))
 1754              		.loc 1 356 9 is_stmt 1 view .LVU529
 356:Service/Srv_Baro.c ****             (SrvBaroObj.sample_period > SRVBARO_MIN_SAMPLE_PERIOD))
 1755              		.loc 1 356 24 is_stmt 0 view .LVU530
 1756 017e 274B     		ldr	r3, .L117+16
 1757 0180 9B88     		ldrh	r3, [r3, #4]
 356:Service/Srv_Baro.c ****             (SrvBaroObj.sample_period > SRVBARO_MIN_SAMPLE_PERIOD))
 1758              		.loc 1 356 68 view .LVU531
 1759 0182 0A3B     		subs	r3, r3, #10
 1760 0184 9BB2     		uxth	r3, r3
 356:Service/Srv_Baro.c ****             (SrvBaroObj.sample_period > SRVBARO_MIN_SAMPLE_PERIOD))
 1761              		.loc 1 356 12 view .LVU532
 1762 0186 5A2B     		cmp	r3, #90
 1763 0188 27D8     		bhi	.L116
 369:Service/Srv_Baro.c **** }
 1764              		.loc 1 369 12 view .LVU533
 1765 018a 0020     		movs	r0, #0
 1766 018c 38E0     		b	.L94
 1767              	.L103:
 310:Service/Srv_Baro.c ****                             ToBMP280_OBJ(SrvBaroObj.sensor_obj)->bus_tx = SrvBaro_IICBus_Tx;
 1768              		.loc 1 310 29 is_stmt 1 view .LVU534
 310:Service/Srv_Baro.c ****                             ToBMP280_OBJ(SrvBaroObj.sensor_obj)->bus_tx = SrvBaro_IICBus_Tx;
 1769              		.loc 1 310 74 is_stmt 0 view .LVU535
 1770 018e 7623     		movs	r3, #118
 1771 0190 80F84430 		strb	r3, [r0, #68]
 311:Service/Srv_Baro.c ****                             ToBMP280_OBJ(SrvBaroObj.sensor_obj)->bus_rx = SrvBaro_IICBus_Rx;
 1772              		.loc 1 311 29 is_stmt 1 view .LVU536
ARM GAS  C:\Users\8bit\AppData\Local\Temp\ccIzqRlN.s 			page 51


 311:Service/Srv_Baro.c ****                             ToBMP280_OBJ(SrvBaroObj.sensor_obj)->bus_rx = SrvBaro_IICBus_Rx;
 1773              		.loc 1 311 73 is_stmt 0 view .LVU537
 1774 0194 264B     		ldr	r3, .L117+36
 1775 0196 8364     		str	r3, [r0, #72]
 312:Service/Srv_Baro.c ****                             break;
 1776              		.loc 1 312 29 is_stmt 1 view .LVU538
 312:Service/Srv_Baro.c ****                             break;
 1777              		.loc 1 312 73 is_stmt 0 view .LVU539
 1778 0198 244B     		ldr	r3, .L117+32
 1779 019a C364     		str	r3, [r0, #76]
 313:Service/Srv_Baro.c **** 
 1780              		.loc 1 313 29 is_stmt 1 view .LVU540
 1781 019c BCE7     		b	.L104
 1782              	.L114:
 324:Service/Srv_Baro.c ****                         return SrvBaro_Error_DevInit;
 1783              		.loc 1 324 25 view .LVU541
 324:Service/Srv_Baro.c ****                         return SrvBaro_Error_DevInit;
 1784              		.loc 1 324 33 is_stmt 0 view .LVU542
 1785 019e 1B4B     		ldr	r3, .L117
 1786 01a0 9C68     		ldr	r4, [r3, #8]
 324:Service/Srv_Baro.c ****                         return SrvBaro_Error_DevInit;
 1787              		.loc 1 324 25 view .LVU543
 1788 01a2 0023     		movs	r3, #0
 1789 01a4 1A46     		mov	r2, r3
 1790 01a6 0421     		movs	r1, #4
 1791 01a8 1A48     		ldr	r0, .L117+8
 1792 01aa 0068     		ldr	r0, [r0]
 1793 01ac A047     		blx	r4
 1794              	.LVL120:
 325:Service/Srv_Baro.c ****                     }
 1795              		.loc 1 325 25 is_stmt 1 view .LVU544
 325:Service/Srv_Baro.c ****                     }
 1796              		.loc 1 325 32 is_stmt 0 view .LVU545
 1797 01ae 0420     		movs	r0, #4
 1798 01b0 26E0     		b	.L94
 1799              	.L102:
 336:Service/Srv_Baro.c ****                     return SrvBaro_Error_BadSensorObj;
 1800              		.loc 1 336 21 is_stmt 1 view .LVU546
 336:Service/Srv_Baro.c ****                     return SrvBaro_Error_BadSensorObj;
 1801              		.loc 1 336 29 is_stmt 0 view .LVU547
 1802 01b2 164B     		ldr	r3, .L117
 1803 01b4 9C68     		ldr	r4, [r3, #8]
 336:Service/Srv_Baro.c ****                     return SrvBaro_Error_BadSensorObj;
 1804              		.loc 1 336 21 view .LVU548
 1805 01b6 0023     		movs	r3, #0
 1806 01b8 1A46     		mov	r2, r3
 1807 01ba 0521     		movs	r1, #5
 1808 01bc 1548     		ldr	r0, .L117+8
 1809 01be 0068     		ldr	r0, [r0]
 1810 01c0 A047     		blx	r4
 1811              	.LVL121:
 337:Service/Srv_Baro.c ****                 }
 1812              		.loc 1 337 21 is_stmt 1 view .LVU549
 337:Service/Srv_Baro.c ****                 }
 1813              		.loc 1 337 28 is_stmt 0 view .LVU550
 1814 01c2 0520     		movs	r0, #5
 1815 01c4 1CE0     		b	.L94
ARM GAS  C:\Users\8bit\AppData\Local\Temp\ccIzqRlN.s 			page 52


 1816              	.L115:
 352:Service/Srv_Baro.c ****             return SrvBaro_Error_FilterInit;
 1817              		.loc 1 352 13 is_stmt 1 view .LVU551
 352:Service/Srv_Baro.c ****             return SrvBaro_Error_FilterInit;
 1818              		.loc 1 352 21 is_stmt 0 view .LVU552
 1819 01c6 114B     		ldr	r3, .L117
 1820 01c8 9C68     		ldr	r4, [r3, #8]
 352:Service/Srv_Baro.c ****             return SrvBaro_Error_FilterInit;
 1821              		.loc 1 352 13 view .LVU553
 1822 01ca 0023     		movs	r3, #0
 1823 01cc 1A46     		mov	r2, r3
 1824 01ce 0621     		movs	r1, #6
 1825 01d0 1048     		ldr	r0, .L117+8
 1826 01d2 0068     		ldr	r0, [r0]
 1827 01d4 A047     		blx	r4
 1828              	.LVL122:
 353:Service/Srv_Baro.c ****         }
 1829              		.loc 1 353 13 is_stmt 1 view .LVU554
 353:Service/Srv_Baro.c ****         }
 1830              		.loc 1 353 20 is_stmt 0 view .LVU555
 1831 01d6 0620     		movs	r0, #6
 1832 01d8 12E0     		b	.L94
 1833              	.L116:
 359:Service/Srv_Baro.c ****             return SrvBaro_Error_BadSamplePeriod;
 1834              		.loc 1 359 13 is_stmt 1 view .LVU556
 359:Service/Srv_Baro.c ****             return SrvBaro_Error_BadSamplePeriod;
 1835              		.loc 1 359 21 is_stmt 0 view .LVU557
 1836 01da 0C4B     		ldr	r3, .L117
 1837 01dc 9C68     		ldr	r4, [r3, #8]
 359:Service/Srv_Baro.c ****             return SrvBaro_Error_BadSamplePeriod;
 1838              		.loc 1 359 13 view .LVU558
 1839 01de 0023     		movs	r3, #0
 1840 01e0 1A46     		mov	r2, r3
 1841 01e2 0721     		movs	r1, #7
 1842 01e4 0B48     		ldr	r0, .L117+8
 1843 01e6 0068     		ldr	r0, [r0]
 1844 01e8 A047     		blx	r4
 1845              	.LVL123:
 360:Service/Srv_Baro.c ****         }
 1846              		.loc 1 360 13 is_stmt 1 view .LVU559
 360:Service/Srv_Baro.c ****         }
 1847              		.loc 1 360 20 is_stmt 0 view .LVU560
 1848 01ea 0720     		movs	r0, #7
 1849 01ec 08E0     		b	.L94
 1850              	.L95:
 365:Service/Srv_Baro.c ****         return SrvBaro_Error_BadRate;
 1851              		.loc 1 365 9 is_stmt 1 view .LVU561
 365:Service/Srv_Baro.c ****         return SrvBaro_Error_BadRate;
 1852              		.loc 1 365 17 is_stmt 0 view .LVU562
 1853 01ee 074B     		ldr	r3, .L117
 1854 01f0 9C68     		ldr	r4, [r3, #8]
 365:Service/Srv_Baro.c ****         return SrvBaro_Error_BadRate;
 1855              		.loc 1 365 9 view .LVU563
 1856 01f2 0023     		movs	r3, #0
 1857 01f4 1A46     		mov	r2, r3
 1858 01f6 0121     		movs	r1, #1
 1859 01f8 0648     		ldr	r0, .L117+8
ARM GAS  C:\Users\8bit\AppData\Local\Temp\ccIzqRlN.s 			page 53


 1860 01fa 0068     		ldr	r0, [r0]
 1861 01fc A047     		blx	r4
 1862              	.LVL124:
 366:Service/Srv_Baro.c ****     }
 1863              		.loc 1 366 9 is_stmt 1 view .LVU564
 366:Service/Srv_Baro.c ****     }
 1864              		.loc 1 366 16 is_stmt 0 view .LVU565
 1865 01fe 0120     		movs	r0, #1
 1866              	.L94:
 370:Service/Srv_Baro.c **** 
 1867              		.loc 1 370 1 view .LVU566
 1868 0200 70BD     		pop	{r4, r5, r6, pc}
 1869              	.L107:
 260:Service/Srv_Baro.c ****                     }
 1870              		.loc 1 260 41 view .LVU567
 1871 0202 0220     		movs	r0, #2
 1872 0204 FCE7     		b	.L94
 1873              	.L108:
 1874 0206 2046     		mov	r0, r4
 1875 0208 FAE7     		b	.L94
 1876              	.L118:
 1877 020a 00BF     		.align	2
 1878              	.L117:
 1879 020c 00000000 		.word	ErrorLog
 1880 0210 00000000 		.word	.LC1
 1881 0214 00000000 		.word	.LANCHOR3
 1882 0218 00000000 		.word	.LANCHOR4
 1883 021c 00000000 		.word	.LANCHOR2
 1884 0220 00000000 		.word	SrvOsCommon
 1885 0224 00000000 		.word	DevDPS310
 1886 0228 00000000 		.word	.LANCHOR0
 1887 022c 00000000 		.word	SrvBaro_IICBus_Rx
 1888 0230 00000000 		.word	SrvBaro_IICBus_Tx
 1889 0234 00000000 		.word	DevBMP280
 1890 0238 00000000 		.word	SrvBaro_SPIBus_Tx
 1891 023c 00000000 		.word	SrvBaro_SPIBus_Rx
 1892 0240 00000000 		.word	SrvBaro_SPIBus_Trans
 1893 0244 00408F40 		.word	1083129856
 1894 0248 00000000 		.word	SmoothWindow
 1895              		.cfi_endproc
 1896              	.LFE143:
 1898              		.global	SrvBaro
 1899              		.section	.rodata.str1.4,"aMS",%progbits,1
 1900              		.align	2
 1901              	.LC2:
 1902 0000 53727642 		.ascii	"SrvBaro Bad Sample Rate\015\012\000"
 1902      61726F20 
 1902      42616420 
 1902      53616D70 
 1902      6C652052 
 1903 001a 0000     		.align	2
 1904              	.LC3:
 1905 001c 53727642 		.ascii	"SrvBaro Bad Sensor Type\015\012\000"
 1905      61726F20 
 1905      42616420 
 1905      53656E73 
 1905      6F722054 
ARM GAS  C:\Users\8bit\AppData\Local\Temp\ccIzqRlN.s 			page 54


 1906 0036 0000     		.align	2
 1907              	.LC4:
 1908 0038 53727642 		.ascii	"SrvBaro Bad Sensor Object\015\012\000"
 1908      61726F20 
 1908      42616420 
 1908      53656E73 
 1908      6F72204F 
 1909              		.align	2
 1910              	.LC5:
 1911 0054 53727642 		.ascii	"SrvBaro Bad Sample Period\015\012\000"
 1911      61726F20 
 1911      42616420 
 1911      53616D70 
 1911      6C652050 
 1912              		.align	2
 1913              	.LC6:
 1914 0070 53727642 		.ascii	"SrvBaro Bus Init Failed\015\012\000"
 1914      61726F20 
 1914      42757320 
 1914      496E6974 
 1914      20466169 
 1915 008a 0000     		.align	2
 1916              	.LC7:
 1917 008c 53727642 		.ascii	"SrvBaro Sensor Filter Init Failed\015\012\000"
 1917      61726F20 
 1917      53656E73 
 1917      6F722046 
 1917      696C7465 
 1918              		.align	2
 1919              	.LC8:
 1920 00b0 53727642 		.ascii	"SrvBaro Sensor Device Init Failed\015\012\000"
 1920      61726F20 
 1920      53656E73 
 1920      6F722044 
 1920      65766963 
 1921              		.global	SrvBaroBus
 1922              		.global	SrvBaroObj
 1923              		.section	.bss.Baro_Bus_Instance,"aw",%nobits
 1924              		.align	2
 1925              		.set	.LANCHOR1,. + 0
 1928              	Baro_Bus_Instance:
 1929 0000 00000000 		.space	4
 1930              		.section	.bss.SrvBaroBus,"aw",%nobits
 1931              		.align	2
 1932              		.set	.LANCHOR0,. + 0
 1935              	SrvBaroBus:
 1936 0000 00000000 		.space	12
 1936      00000000 
 1936      00000000 
 1937              		.section	.bss.SrvBaro_Error_Handle,"aw",%nobits
 1938              		.align	2
 1939              		.set	.LANCHOR3,. + 0
 1942              	SrvBaro_Error_Handle:
 1943 0000 00000000 		.space	4
 1944              		.section	.data.SrvBaro,"aw"
 1945              		.align	2
 1948              	SrvBaro:
ARM GAS  C:\Users\8bit\AppData\Local\Temp\ccIzqRlN.s 			page 55


 1949 0000 00000000 		.word	SrvBaro_Init
 1950 0004 00000000 		.word	SrvBaro_Sample
 1951 0008 00000000 		.word	SrvBaro_Set_Calib
 1952 000c 00000000 		.word	SrvBaro_Get_Calib
 1953 0010 00000000 		.word	SrvBaro_Get_Date
 1954              		.section	.data.SrvBaroObj,"aw"
 1955              		.align	2
 1956              		.set	.LANCHOR2,. + 0
 1959              	SrvBaroObj:
 1960 0000 01       		.byte	1
 1961 0001 00       		.space	1
 1962 0002 1400     		.short	20
 1963 0004 00000000 		.space	12
 1963      00000000 
 1963      00000000 
 1964 0010 00       		.byte	0
 1965 0011 000000   		.space	3
 1966 0014 00000000 		.word	0
 1967 0018 00000000 		.space	56
 1967      00000000 
 1967      00000000 
 1967      00000000 
 1967      00000000 
 1968              		.section	.data.SrvBaro_ErrorList,"aw"
 1969              		.align	2
 1970              		.set	.LANCHOR4,. + 0
 1973              	SrvBaro_ErrorList:
 1974 0000 0100     		.short	1
 1975 0002 02       		.byte	2
 1976 0003 00       		.space	1
 1977 0004 00000000 		.word	.LC2
 1978 0008 01       		.byte	1
 1979 0009 00       		.byte	0
 1980 000a 00000000 		.4byte	SrvBaro_BusInitError
 1981 000e 00000000 		.4byte	0
 1982 0012 0000     		.short	0
 1983 0014 00000000 		.space	4
 1984 0018 0300     		.short	3
 1985 001a 02       		.byte	2
 1986 001b 00       		.space	1
 1987 001c 1C000000 		.word	.LC3
 1988 0020 01       		.byte	1
 1989 0021 00       		.byte	0
 1990 0022 00000000 		.4byte	SrvBaro_BusInitError
 1991 0026 00000000 		.4byte	0
 1992 002a 0000     		.short	0
 1993 002c 00000000 		.space	4
 1994 0030 0500     		.short	5
 1995 0032 02       		.byte	2
 1996 0033 00       		.space	1
 1997 0034 38000000 		.word	.LC4
 1998 0038 01       		.byte	1
 1999 0039 00       		.byte	0
 2000 003a 00000000 		.4byte	SrvBaro_BusInitError
 2001 003e 00000000 		.4byte	0
 2002 0042 0000     		.short	0
 2003 0044 00000000 		.space	4
ARM GAS  C:\Users\8bit\AppData\Local\Temp\ccIzqRlN.s 			page 56


 2004 0048 0700     		.short	7
 2005 004a 02       		.byte	2
 2006 004b 00       		.space	1
 2007 004c 54000000 		.word	.LC5
 2008 0050 01       		.byte	1
 2009 0051 00       		.byte	0
 2010 0052 00000000 		.4byte	SrvBaro_BusInitError
 2011 0056 00000000 		.4byte	0
 2012 005a 0000     		.short	0
 2013 005c 00000000 		.space	4
 2014 0060 0800     		.short	8
 2015 0062 02       		.byte	2
 2016 0063 00       		.space	1
 2017 0064 70000000 		.word	.LC6
 2018 0068 01       		.byte	1
 2019 0069 00       		.byte	0
 2020 006a 00000000 		.4byte	SrvBaro_BusInitError
 2021 006e 00000000 		.4byte	0
 2022 0072 0000     		.short	0
 2023 0074 00000000 		.space	4
 2024 0078 0600     		.short	6
 2025 007a 00       		.byte	0
 2026 007b 00       		.space	1
 2027 007c 8C000000 		.word	.LC7
 2028 0080 01       		.byte	1
 2029 0081 00       		.byte	0
 2030 0082 00000000 		.4byte	SrvBaro_BusInitError
 2031 0086 00000000 		.4byte	0
 2032 008a 0000     		.short	0
 2033 008c 00000000 		.space	4
 2034 0090 0400     		.short	4
 2035 0092 00       		.byte	0
 2036 0093 00       		.space	1
 2037 0094 B0000000 		.word	.LC8
 2038 0098 01       		.byte	1
 2039 0099 00       		.byte	0
 2040 009a 00000000 		.4byte	SrvBaro_BusInitError
 2041 009e 00000000 		.4byte	0
 2042 00a2 0000     		.short	0
 2043 00a4 00000000 		.space	4
 2044              		.text
 2045              	.Letext0:
 2046              		.file 2 "c:\\program files (x86)\\gnu arm embedded toolchain\\10 2021.10\\arm-none-eabi\\include\\
 2047              		.file 3 "c:\\program files (x86)\\gnu arm embedded toolchain\\10 2021.10\\arm-none-eabi\\include\\
 2048              		.file 4 "c:\\program files (x86)\\gnu arm embedded toolchain\\10 2021.10\\lib\\gcc\\arm-none-eabi\
 2049              		.file 5 "Device/Dev_DPS310.h"
 2050              		.file 6 "Device/Dev_BMP280.h"
 2051              		.file 7 "DataStructure/linked_list.h"
 2052              		.file 8 "System/FreeRTOS/include/portable.h"
 2053              		.file 9 "Service/Srv_OsCommon.h"
 2054              		.file 10 "Service/../algorithm/Filter_Dep/filter.h"
 2055              		.file 11 "common/gen_physic_def/gen_calib.h"
 2056              		.file 12 "Service/Srv_Baro.h"
 2057              		.file 13 "common/Error_Log/error_log.h"
 2058              		.file 14 "HW_Lib/Port_Def/Bsp_IIC_Port_Def.h"
 2059              		.file 15 "HW_Lib/AT32F435/bsp/bsp_iic.h"
 2060              		.file 16 "HW_Lib/AT32F435/drivers/inc/at32f435_437_tmr.h"
ARM GAS  C:\Users\8bit\AppData\Local\Temp\ccIzqRlN.s 			page 57


 2061              		.file 17 "HW_Lib/Port_Def/Bsp_GPIO_Port_Def.h"
 2062              		.file 18 "HW_Lib/AT32F435/bsp/bsp_gpio.h"
 2063              		.file 19 "HW_Lib/Port_Def/Bsp_SPI_Port_Def.h"
 2064              		.file 20 "HW_Lib/AT32F435/bsp/Bsp_SPI.h"
 2065              		.file 21 "common/Error_Log/../../common/gen_physic_def/imu_data.h"
 2066              		.file 22 "HW_Lib/AT32F435/PinPort_Def/CCRC_AT32_20/HW_Def.h"
 2067              		.file 23 "System/FreeRTOS/FreeRTOSConfig.h"
 2068              		.file 24 "c:\\program files (x86)\\gnu arm embedded toolchain\\10 2021.10\\arm-none-eabi\\include\
ARM GAS  C:\Users\8bit\AppData\Local\Temp\ccIzqRlN.s 			page 58


DEFINED SYMBOLS
                            *ABS*:00000000 Srv_Baro.c
C:\Users\8bit\AppData\Local\Temp\ccIzqRlN.s:20     .text.SrvBaro_BusInit:00000000 $t
C:\Users\8bit\AppData\Local\Temp\ccIzqRlN.s:25     .text.SrvBaro_BusInit:00000000 SrvBaro_BusInit
C:\Users\8bit\AppData\Local\Temp\ccIzqRlN.s:169    .text.SrvBaro_BusInit:00000094 $d
C:\Users\8bit\AppData\Local\Temp\ccIzqRlN.s:179    .text.SrvBaro_Set_Calib:00000000 $t
C:\Users\8bit\AppData\Local\Temp\ccIzqRlN.s:184    .text.SrvBaro_Set_Calib:00000000 SrvBaro_Set_Calib
C:\Users\8bit\AppData\Local\Temp\ccIzqRlN.s:224    .text.SrvBaro_Set_Calib:00000020 $d
C:\Users\8bit\AppData\Local\Temp\ccIzqRlN.s:229    .text.SrvBaro_Get_Calib:00000000 $t
C:\Users\8bit\AppData\Local\Temp\ccIzqRlN.s:234    .text.SrvBaro_Get_Calib:00000000 SrvBaro_Get_Calib
C:\Users\8bit\AppData\Local\Temp\ccIzqRlN.s:249    .text.SrvBaro_Get_Calib:00000008 $d
C:\Users\8bit\AppData\Local\Temp\ccIzqRlN.s:254    .text.SrvBaro_IICBus_Tx:00000000 $t
C:\Users\8bit\AppData\Local\Temp\ccIzqRlN.s:259    .text.SrvBaro_IICBus_Tx:00000000 SrvBaro_IICBus_Tx
C:\Users\8bit\AppData\Local\Temp\ccIzqRlN.s:334    .text.SrvBaro_IICBus_Tx:00000034 $d
C:\Users\8bit\AppData\Local\Temp\ccIzqRlN.s:339    .text.SrvBaro_IICBus_Rx:00000000 $t
C:\Users\8bit\AppData\Local\Temp\ccIzqRlN.s:344    .text.SrvBaro_IICBus_Rx:00000000 SrvBaro_IICBus_Rx
C:\Users\8bit\AppData\Local\Temp\ccIzqRlN.s:419    .text.SrvBaro_IICBus_Rx:00000034 $d
C:\Users\8bit\AppData\Local\Temp\ccIzqRlN.s:424    .text.SrvBaro_SPIBus_Trans:00000000 $t
C:\Users\8bit\AppData\Local\Temp\ccIzqRlN.s:429    .text.SrvBaro_SPIBus_Trans:00000000 SrvBaro_SPIBus_Trans
C:\Users\8bit\AppData\Local\Temp\ccIzqRlN.s:449    .text.SrvBaro_SPIBus_Tx:00000000 $t
C:\Users\8bit\AppData\Local\Temp\ccIzqRlN.s:454    .text.SrvBaro_SPIBus_Tx:00000000 SrvBaro_SPIBus_Tx
C:\Users\8bit\AppData\Local\Temp\ccIzqRlN.s:474    .text.SrvBaro_SPIBus_Rx:00000000 $t
C:\Users\8bit\AppData\Local\Temp\ccIzqRlN.s:479    .text.SrvBaro_SPIBus_Rx:00000000 SrvBaro_SPIBus_Rx
C:\Users\8bit\AppData\Local\Temp\ccIzqRlN.s:602    .text.SrvBaro_SPIBus_Rx:00000058 $d
C:\Users\8bit\AppData\Local\Temp\ccIzqRlN.s:609    .rodata.SrvBaro_BusInitError.str1.4:00000000 $d
C:\Users\8bit\AppData\Local\Temp\ccIzqRlN.s:613    .text.SrvBaro_BusInitError:00000000 $t
C:\Users\8bit\AppData\Local\Temp\ccIzqRlN.s:618    .text.SrvBaro_BusInitError:00000000 SrvBaro_BusInitError
C:\Users\8bit\AppData\Local\Temp\ccIzqRlN.s:669    .text.SrvBaro_BusInitError:00000020 $d
C:\Users\8bit\AppData\Local\Temp\ccIzqRlN.s:679    .text.SrvBaro_PessureCnvToMeter:00000000 $t
C:\Users\8bit\AppData\Local\Temp\ccIzqRlN.s:684    .text.SrvBaro_PessureCnvToMeter:00000000 SrvBaro_PessureCnvToMeter
C:\Users\8bit\AppData\Local\Temp\ccIzqRlN.s:728    .text.SrvBaro_PessureCnvToMeter:00000040 $d
C:\Users\8bit\AppData\Local\Temp\ccIzqRlN.s:738    .text.SrvBaro_Get_Date:00000000 $t
C:\Users\8bit\AppData\Local\Temp\ccIzqRlN.s:743    .text.SrvBaro_Get_Date:00000000 SrvBaro_Get_Date
C:\Users\8bit\AppData\Local\Temp\ccIzqRlN.s:1139   .text.SrvBaro_Get_Date:000001ac $d
C:\Users\8bit\AppData\Local\Temp\ccIzqRlN.s:1145   .text.SrvBaro_Sample:00000000 $t
C:\Users\8bit\AppData\Local\Temp\ccIzqRlN.s:1150   .text.SrvBaro_Sample:00000000 SrvBaro_Sample
C:\Users\8bit\AppData\Local\Temp\ccIzqRlN.s:1381   .text.SrvBaro_Sample:00000124 $d
C:\Users\8bit\AppData\Local\Temp\ccIzqRlN.s:1386   .rodata.SrvBaro_Init.str1.4:00000000 $d
C:\Users\8bit\AppData\Local\Temp\ccIzqRlN.s:1393   .text.SrvBaro_Init:00000000 $t
C:\Users\8bit\AppData\Local\Temp\ccIzqRlN.s:1398   .text.SrvBaro_Init:00000000 SrvBaro_Init
C:\Users\8bit\AppData\Local\Temp\ccIzqRlN.s:1879   .text.SrvBaro_Init:0000020c $d
C:\Users\8bit\AppData\Local\Temp\ccIzqRlN.s:1948   .data.SrvBaro:00000000 SrvBaro
C:\Users\8bit\AppData\Local\Temp\ccIzqRlN.s:1900   .rodata.str1.4:00000000 $d
C:\Users\8bit\AppData\Local\Temp\ccIzqRlN.s:1935   .bss.SrvBaroBus:00000000 SrvBaroBus
C:\Users\8bit\AppData\Local\Temp\ccIzqRlN.s:1959   .data.SrvBaroObj:00000000 SrvBaroObj
C:\Users\8bit\AppData\Local\Temp\ccIzqRlN.s:1924   .bss.Baro_Bus_Instance:00000000 $d
C:\Users\8bit\AppData\Local\Temp\ccIzqRlN.s:1928   .bss.Baro_Bus_Instance:00000000 Baro_Bus_Instance
C:\Users\8bit\AppData\Local\Temp\ccIzqRlN.s:1931   .bss.SrvBaroBus:00000000 $d
C:\Users\8bit\AppData\Local\Temp\ccIzqRlN.s:1938   .bss.SrvBaro_Error_Handle:00000000 $d
C:\Users\8bit\AppData\Local\Temp\ccIzqRlN.s:1942   .bss.SrvBaro_Error_Handle:00000000 SrvBaro_Error_Handle
C:\Users\8bit\AppData\Local\Temp\ccIzqRlN.s:1945   .data.SrvBaro:00000000 $d
C:\Users\8bit\AppData\Local\Temp\ccIzqRlN.s:1955   .data.SrvBaroObj:00000000 $d
C:\Users\8bit\AppData\Local\Temp\ccIzqRlN.s:1969   .data.SrvBaro_ErrorList:00000000 $d
C:\Users\8bit\AppData\Local\Temp\ccIzqRlN.s:1973   .data.SrvBaro_ErrorList:00000000 SrvBaro_ErrorList

UNDEFINED SYMBOLS
Baro_BusCfg
ARM GAS  C:\Users\8bit\AppData\Local\Temp\ccIzqRlN.s 			page 59


BspIIC
BspSPI
BspGPIO
ErrorLog
__aeabi_f2d
__aeabi_dsub
__aeabi_dmul
__aeabi_d2f
pow
SmoothWindow
__aeabi_ui2d
__aeabi_ddiv
__aeabi_d2uiz
round
SrvOsCommon
DevDPS310
DevBMP280
