ARM GAS  C:\Users\HUAV\AppData\Local\Temp\cceh0wp1.s 			page 1


   1              		.cpu cortex-m7
   2              		.eabi_attribute 28, 1
   3              		.eabi_attribute 20, 1
   4              		.eabi_attribute 21, 1
   5              		.eabi_attribute 23, 3
   6              		.eabi_attribute 24, 1
   7              		.eabi_attribute 25, 1
   8              		.eabi_attribute 26, 1
   9              		.eabi_attribute 30, 1
  10              		.eabi_attribute 34, 1
  11              		.eabi_attribute 18, 4
  12              		.file	"Srv_Actuator.c"
  13              		.text
  14              	.Ltext0:
  15              		.cfi_sections	.debug_frame
  16              		.section	.text.SrvActuator_SetMotoSpinDir,"ax",%progbits
  17              		.align	1
  18              		.arch armv7e-m
  19              		.syntax unified
  20              		.thumb
  21              		.thumb_func
  22              		.fpu fpv5-d16
  24              	SrvActuator_SetMotoSpinDir:
  25              	.LVL0:
  26              	.LFB155:
  27              		.file 1 "Service/Srv_Actuator.c"
   1:Service/Srv_Actuator.c **** /*
   2:Service/Srv_Actuator.c ****  * For MATEK H743 Flight Controller Hardware
   3:Service/Srv_Actuator.c ****  * S1   PB0     TIM3    CH3 DMA1 Stream0
   4:Service/Srv_Actuator.c ****  * S2   PB1     TIM3    CH4 DMA1 Stream1
   5:Service/Srv_Actuator.c ****  * S3   PA0     TIM5    CH1 DMA1 Stream2
   6:Service/Srv_Actuator.c ****  * S4   PA1     TIM5    CH2 DMA1 Stream3
   7:Service/Srv_Actuator.c ****  * S5   PA2     TIM5    CH3
   8:Service/Srv_Actuator.c ****  * S6   PA3     TIM5    CH4
   9:Service/Srv_Actuator.c ****  * S7   PD12    TIM4    CH1
  10:Service/Srv_Actuator.c ****  * S8   PD13    TIM4    CH2
  11:Service/Srv_Actuator.c ****  * S9   PD14    TIM4    CH3
  12:Service/Srv_Actuator.c ****  * S10  PD15    TIM4    CH4 NO DMA
  13:Service/Srv_Actuator.c ****  * S11  PE5     TIM15   CH1
  14:Service/Srv_Actuator.c ****  * S12  PE6     TIM15   CH2
  15:Service/Srv_Actuator.c ****  */
  16:Service/Srv_Actuator.c **** #include "Srv_Actuator.h"
  17:Service/Srv_Actuator.c **** #include "Srv_DataHub.h"
  18:Service/Srv_Actuator.c **** #include "runtime.h"
  19:Service/Srv_Actuator.c **** #include "datapipe.h"
  20:Service/Srv_Actuator.c **** #include "mmu.h"
  21:Service/Srv_Actuator.c **** 
  22:Service/Srv_Actuator.c **** const SrvActuator_PeriphSet_TypeDef SrvActuator_Periph_List[Actuator_PWM_SigSUM] = {
  23:Service/Srv_Actuator.c ****     SRVACTUATOR_PB0_SIG_1,
  24:Service/Srv_Actuator.c ****     SRVACTUATOR_PB1_SIG_2,
  25:Service/Srv_Actuator.c ****     SRVACTUATOR_PA0_SIG_3,
  26:Service/Srv_Actuator.c ****     SRVACTUATOR_PA1_SIG_4,
  27:Service/Srv_Actuator.c ****     SRVACTUATOR_PA2_SIG_5,
  28:Service/Srv_Actuator.c ****     SRVACTUATOR_PA3_SIG_6,
  29:Service/Srv_Actuator.c ****     SRVACTUATOR_PD12_SIG_7,
  30:Service/Srv_Actuator.c ****     SRVACTUATOR_PD13_SIG_8,
  31:Service/Srv_Actuator.c ****     SRVACTUATOR_PD14_SIG_9,
ARM GAS  C:\Users\HUAV\AppData\Local\Temp\cceh0wp1.s 			page 2


  32:Service/Srv_Actuator.c ****     SRVACTUATOR_PD15_SIG_10,
  33:Service/Srv_Actuator.c ****     SRVACTUATOR_PE5_SIG_11,
  34:Service/Srv_Actuator.c ****     SRVACTUATOR_PE6_SIG_12};
  35:Service/Srv_Actuator.c **** 
  36:Service/Srv_Actuator.c **** const uint8_t default_sig_serial[Actuator_PWM_SigSUM] = {
  37:Service/Srv_Actuator.c ****     Actuator_PWM_Sig1,
  38:Service/Srv_Actuator.c ****     Actuator_PWM_Sig2,
  39:Service/Srv_Actuator.c ****     Actuator_PWM_Sig3,
  40:Service/Srv_Actuator.c ****     Actuator_PWM_Sig4,
  41:Service/Srv_Actuator.c ****     Actuator_PWM_Sig5,
  42:Service/Srv_Actuator.c ****     Actuator_PWM_Sig6,
  43:Service/Srv_Actuator.c ****     Actuator_PWM_Sig7,
  44:Service/Srv_Actuator.c ****     Actuator_PWM_Sig8,
  45:Service/Srv_Actuator.c ****     Actuator_PWM_Sig9,
  46:Service/Srv_Actuator.c ****     Actuator_PWM_Sig10,
  47:Service/Srv_Actuator.c ****     Actuator_PWM_Sig11,
  48:Service/Srv_Actuator.c ****     Actuator_PWM_Sig12,
  49:Service/Srv_Actuator.c **** };
  50:Service/Srv_Actuator.c **** 
  51:Service/Srv_Actuator.c **** /* internal variable */
  52:Service/Srv_Actuator.c **** SrvActuatorObj_TypeDef SrvActuator_Obj;
  53:Service/Srv_Actuator.c **** SrcActuatorCTL_Obj_TypeDef SrvActuator_ControlStream;
  54:Service/Srv_Actuator.c **** SrvActuatorPipeData_TypeDef Proto_Actuator_Data;
  55:Service/Srv_Actuator.c **** 
  56:Service/Srv_Actuator.c **** DataPipe_CreateDataObj(SrvActuatorPipeData_TypeDef, Actuator_Data);
  57:Service/Srv_Actuator.c **** 
  58:Service/Srv_Actuator.c **** /* internal function */
  59:Service/Srv_Actuator.c **** static void SrcActuator_Get_ChannelRemap(void);
  60:Service/Srv_Actuator.c **** static bool SrvActuator_Config_MotoSpinDir(void);
  61:Service/Srv_Actuator.c **** static void SrvActuator_PipeData(void);
  62:Service/Srv_Actuator.c **** static bool SrvActuator_QuadDrone_MotoMixControl(uint16_t *rc_ctl);
  63:Service/Srv_Actuator.c **** 
  64:Service/Srv_Actuator.c **** /* external function */
  65:Service/Srv_Actuator.c **** static bool SrvActuator_Init(SrvActuator_Model_List model, uint8_t esc_type);
  66:Service/Srv_Actuator.c **** static void SrvActuator_MotoControl(uint16_t *p_val);
  67:Service/Srv_Actuator.c **** static bool SrvActuator_InvertMotoSpinDir(uint8_t component_index);
  68:Service/Srv_Actuator.c **** static bool SrvActuator_Lock(void);
  69:Service/Srv_Actuator.c **** static SrvActuator_ModelComponentNum_TypeDef SrvActuator_Get_NumData(void);
  70:Service/Srv_Actuator.c **** static SrvActuator_Model_List SrvActuator_GetModel(void);
  71:Service/Srv_Actuator.c **** 
  72:Service/Srv_Actuator.c **** /* external variable */
  73:Service/Srv_Actuator.c **** SrvActuator_TypeDef SrvActuator = {
  74:Service/Srv_Actuator.c ****     .init = SrvActuator_Init,
  75:Service/Srv_Actuator.c ****     .lock = SrvActuator_Lock,
  76:Service/Srv_Actuator.c ****     .moto_control = SrvActuator_MotoControl,
  77:Service/Srv_Actuator.c ****     .invert_spin = SrvActuator_InvertMotoSpinDir,
  78:Service/Srv_Actuator.c ****     .get_cnt = SrvActuator_Get_NumData,
  79:Service/Srv_Actuator.c ****     .get_model = SrvActuator_GetModel,
  80:Service/Srv_Actuator.c **** };
  81:Service/Srv_Actuator.c **** 
  82:Service/Srv_Actuator.c **** static bool SrvActuator_Init(SrvActuator_Model_List model, uint8_t esc_type)
  83:Service/Srv_Actuator.c **** {
  84:Service/Srv_Actuator.c ****     uint8_t i = 0;
  85:Service/Srv_Actuator.c ****     memset(&SrvActuator_Obj, 0, sizeof(SrvActuator_Obj));
  86:Service/Srv_Actuator.c ****     memset(&SrvActuator_ControlStream, 0, sizeof(SrvActuator_ControlStream));
  87:Service/Srv_Actuator.c **** 
  88:Service/Srv_Actuator.c ****     switch (model)
ARM GAS  C:\Users\HUAV\AppData\Local\Temp\cceh0wp1.s 			page 3


  89:Service/Srv_Actuator.c ****     {
  90:Service/Srv_Actuator.c ****     case Model_Quad:
  91:Service/Srv_Actuator.c ****         SrvActuator_Obj.drive_module.num = QUAD_CONTROL_COMPONENT;
  92:Service/Srv_Actuator.c ****         break;
  93:Service/Srv_Actuator.c **** 
  94:Service/Srv_Actuator.c ****     case Model_Hex:
  95:Service/Srv_Actuator.c ****         SrvActuator_Obj.drive_module.num = HEX_CONTROL_COMPONENT;
  96:Service/Srv_Actuator.c ****         break;
  97:Service/Srv_Actuator.c **** 
  98:Service/Srv_Actuator.c ****     case Model_Oct:
  99:Service/Srv_Actuator.c ****         SrvActuator_Obj.drive_module.num = OCT_CONTROL_COMPONENT;
 100:Service/Srv_Actuator.c ****         break;
 101:Service/Srv_Actuator.c **** 
 102:Service/Srv_Actuator.c ****     case Model_X8:
 103:Service/Srv_Actuator.c ****         SrvActuator_Obj.drive_module.num = X8_CONTROL_COMPONENT;
 104:Service/Srv_Actuator.c ****         break;
 105:Service/Srv_Actuator.c **** 
 106:Service/Srv_Actuator.c ****     case Model_Y6:
 107:Service/Srv_Actuator.c ****         SrvActuator_Obj.drive_module.num = Y6_CONTROL_CONPONENT;
 108:Service/Srv_Actuator.c ****         break;
 109:Service/Srv_Actuator.c **** 
 110:Service/Srv_Actuator.c ****     case Model_Tri:
 111:Service/Srv_Actuator.c ****         SrvActuator_Obj.drive_module.num = TRI_CONTROL_COMPONENT;
 112:Service/Srv_Actuator.c ****         break;
 113:Service/Srv_Actuator.c **** 
 114:Service/Srv_Actuator.c ****     case Model_TDrone:
 115:Service/Srv_Actuator.c ****         SrvActuator_Obj.drive_module.num = TDRONE_CONTROL_COMPONENT;
 116:Service/Srv_Actuator.c ****         break;
 117:Service/Srv_Actuator.c **** 
 118:Service/Srv_Actuator.c ****     default:
 119:Service/Srv_Actuator.c ****         return false;
 120:Service/Srv_Actuator.c ****     }
 121:Service/Srv_Actuator.c **** 
 122:Service/Srv_Actuator.c ****     /* read in storage */
 123:Service/Srv_Actuator.c ****     /* current use default */
 124:Service/Srv_Actuator.c ****     SrvActuator_Obj.model = model;
 125:Service/Srv_Actuator.c **** 
 126:Service/Srv_Actuator.c ****     /* malloc dshot esc driver obj for using */
 127:Service/Srv_Actuator.c ****     SrvActuator_Obj.drive_module.obj_list = (SrvActuator_PWMOutObj_TypeDef *)MMU_Malloc(sizeof(SrvA
 128:Service/Srv_Actuator.c **** 
 129:Service/Srv_Actuator.c ****     if (SrvActuator_Obj.drive_module.obj_list == NULL)
 130:Service/Srv_Actuator.c ****     {
 131:Service/Srv_Actuator.c ****         MMU_Free(SrvActuator_Obj.drive_module.obj_list);
 132:Service/Srv_Actuator.c ****         return false;
 133:Service/Srv_Actuator.c ****     }
 134:Service/Srv_Actuator.c **** 
 135:Service/Srv_Actuator.c ****     if (SrvActuator_Obj.drive_module.num.moto_cnt)
 136:Service/Srv_Actuator.c ****     {
 137:Service/Srv_Actuator.c ****         /* default init */
 138:Service/Srv_Actuator.c ****         for (uint8_t i = 0; i < SrvActuator_Obj.drive_module.num.moto_cnt; i++)
 139:Service/Srv_Actuator.c ****         {
 140:Service/Srv_Actuator.c ****             switch (esc_type)
 141:Service/Srv_Actuator.c ****             {
 142:Service/Srv_Actuator.c ****             case Actuator_DevType_DShot150:
 143:Service/Srv_Actuator.c ****             case Actuator_DevType_DShot300:
 144:Service/Srv_Actuator.c ****             case Actuator_DevType_DShot600:
 145:Service/Srv_Actuator.c ****                 SrvActuator_Obj.drive_module.obj_list[i].drv_type = esc_type;
ARM GAS  C:\Users\HUAV\AppData\Local\Temp\cceh0wp1.s 			page 4


 146:Service/Srv_Actuator.c **** 
 147:Service/Srv_Actuator.c ****                 SrvActuator_Obj.drive_module.obj_list[i].ctl_val = DSHOT_LOCK_THROTTLE;
 148:Service/Srv_Actuator.c ****                 SrvActuator_Obj.drive_module.obj_list[i].min_val = DSHOT_MIN_THROTTLE;
 149:Service/Srv_Actuator.c ****                 SrvActuator_Obj.drive_module.obj_list[i].max_val = DSHOT_MAX_THROTTLE;
 150:Service/Srv_Actuator.c ****                 SrvActuator_Obj.drive_module.obj_list[i].idle_val = DSHOT_IDLE_THROTTLE;
 151:Service/Srv_Actuator.c ****                 SrvActuator_Obj.drive_module.obj_list[i].lock_val = DSHOT_LOCK_THROTTLE;
 152:Service/Srv_Actuator.c **** 
 153:Service/Srv_Actuator.c ****                 SrvActuator_Obj.drive_module.obj_list[i].drv_obj = (DevDshotObj_TypeDef *)MMU_Mallo
 154:Service/Srv_Actuator.c ****                 break;
 155:Service/Srv_Actuator.c **** 
 156:Service/Srv_Actuator.c ****             case Actuator_DevType_ServoPWM:
 157:Service/Srv_Actuator.c ****                 break;
 158:Service/Srv_Actuator.c **** 
 159:Service/Srv_Actuator.c ****             default:
 160:Service/Srv_Actuator.c ****                 MMU_Free(SrvActuator_Obj.drive_module.obj_list);
 161:Service/Srv_Actuator.c ****                 return false;
 162:Service/Srv_Actuator.c ****             }
 163:Service/Srv_Actuator.c **** 
 164:Service/Srv_Actuator.c ****             if (SrvActuator_Obj.drive_module.obj_list[i].drv_obj == NULL)
 165:Service/Srv_Actuator.c ****             {
 166:Service/Srv_Actuator.c ****                 for (uint8_t j = 0; j < i; j++)
 167:Service/Srv_Actuator.c ****                 {
 168:Service/Srv_Actuator.c ****                     MMU_Free(SrvActuator_Obj.drive_module.obj_list[j].drv_obj);
 169:Service/Srv_Actuator.c ****                 }
 170:Service/Srv_Actuator.c **** 
 171:Service/Srv_Actuator.c ****                 MMU_Free(SrvActuator_Obj.drive_module.obj_list);
 172:Service/Srv_Actuator.c ****                 return false;
 173:Service/Srv_Actuator.c ****             }
 174:Service/Srv_Actuator.c ****         }
 175:Service/Srv_Actuator.c ****     }
 176:Service/Srv_Actuator.c **** 
 177:Service/Srv_Actuator.c ****     /* create servo object */
 178:Service/Srv_Actuator.c ****     if (SrvActuator_Obj.drive_module.num.servo_cnt)
 179:Service/Srv_Actuator.c ****     {
 180:Service/Srv_Actuator.c ****     }
 181:Service/Srv_Actuator.c **** 
 182:Service/Srv_Actuator.c ****     /* check value remap relationship */
 183:Service/Srv_Actuator.c ****     /* we can read this info from storage module */
 184:Service/Srv_Actuator.c ****     SrcActuator_Get_ChannelRemap();
 185:Service/Srv_Actuator.c ****     SrvActuator_Config_MotoSpinDir();
 186:Service/Srv_Actuator.c **** 
 187:Service/Srv_Actuator.c ****     SrvActuator_Lock();
 188:Service/Srv_Actuator.c **** 
 189:Service/Srv_Actuator.c ****     // init actuator data pipe
 190:Service/Srv_Actuator.c ****     memset(&Actuator_cal_DataPipe, 0, sizeof(Actuator_cal_DataPipe));
 191:Service/Srv_Actuator.c ****     memset(DataPipe_DataObjAddr(Actuator_Data), NULL, sizeof(DataPipe_DataObj(Actuator_Data)));
 192:Service/Srv_Actuator.c **** 
 193:Service/Srv_Actuator.c ****     Actuator_cal_DataPipe.data_addr = (uint32_t)&DataPipe_DataObj(Actuator_Data);
 194:Service/Srv_Actuator.c ****     Actuator_cal_DataPipe.data_size = sizeof(DataPipe_DataObj(Actuator_Data));
 195:Service/Srv_Actuator.c ****     DataPipe_Enable(&Actuator_cal_DataPipe);
 196:Service/Srv_Actuator.c **** 
 197:Service/Srv_Actuator.c ****     SrvActuator_Obj.init = true;
 198:Service/Srv_Actuator.c ****     return true;
 199:Service/Srv_Actuator.c **** }
 200:Service/Srv_Actuator.c **** 
 201:Service/Srv_Actuator.c **** static void SrcActuator_Get_ChannelRemap(void)
 202:Service/Srv_Actuator.c **** {
ARM GAS  C:\Users\HUAV\AppData\Local\Temp\cceh0wp1.s 			page 5


 203:Service/Srv_Actuator.c ****     uint8_t storage_serial[SrvActuator_Obj.drive_module.num.moto_cnt + SrvActuator_Obj.drive_module
 204:Service/Srv_Actuator.c ****     SrvActuator_PeriphSet_TypeDef *periph_ptr = NULL;
 205:Service/Srv_Actuator.c **** 
 206:Service/Srv_Actuator.c ****     /* get remap relationship */
 207:Service/Srv_Actuator.c ****     memcpy(storage_serial, default_sig_serial, sizeof(storage_serial)); // only for develop stage..
 208:Service/Srv_Actuator.c **** 
 209:Service/Srv_Actuator.c ****     /* moto section */
 210:Service/Srv_Actuator.c ****     if (SrvActuator_Obj.drive_module.num.moto_cnt)
 211:Service/Srv_Actuator.c ****     {
 212:Service/Srv_Actuator.c ****         for (uint8_t i = 0; i < SrvActuator_Obj.drive_module.num.moto_cnt; i++)
 213:Service/Srv_Actuator.c ****         {
 214:Service/Srv_Actuator.c ****             SrvActuator_Obj.drive_module.obj_list[i].sig_id = storage_serial[storage_serial[i]];
 215:Service/Srv_Actuator.c ****             SrvActuator_Obj.drive_module.obj_list[i].periph_ptr = &SrvActuator_Periph_List[storage_
 216:Service/Srv_Actuator.c ****             periph_ptr = SrvActuator_Obj.drive_module.obj_list[i].periph_ptr;
 217:Service/Srv_Actuator.c **** 
 218:Service/Srv_Actuator.c ****             DevDshot.init(SrvActuator_Obj.drive_module.obj_list[i].drv_obj,
 219:Service/Srv_Actuator.c ****                           periph_ptr->tim_base, periph_ptr->tim_channel, periph_ptr->pin,
 220:Service/Srv_Actuator.c ****                           periph_ptr->dma, periph_ptr->dma_channel);
 221:Service/Srv_Actuator.c ****         }
 222:Service/Srv_Actuator.c ****     }
 223:Service/Srv_Actuator.c **** 
 224:Service/Srv_Actuator.c ****     /* servo section */
 225:Service/Srv_Actuator.c ****     if (SrvActuator_Obj.drive_module.num.servo_cnt)
 226:Service/Srv_Actuator.c ****     {
 227:Service/Srv_Actuator.c ****         for (uint8_t i = SrvActuator_Obj.drive_module.num.moto_cnt; i < SrvActuator_Obj.drive_modul
 228:Service/Srv_Actuator.c ****         {
 229:Service/Srv_Actuator.c ****         }
 230:Service/Srv_Actuator.c ****     }
 231:Service/Srv_Actuator.c **** }
 232:Service/Srv_Actuator.c **** 
 233:Service/Srv_Actuator.c **** static bool SrvActuator_Lock(void)
 234:Service/Srv_Actuator.c **** {
 235:Service/Srv_Actuator.c ****     uint8_t i = 0;
 236:Service/Srv_Actuator.c **** 
 237:Service/Srv_Actuator.c ****     if (!SrvActuator_Obj.init)
 238:Service/Srv_Actuator.c ****         return false;
 239:Service/Srv_Actuator.c **** 
 240:Service/Srv_Actuator.c ****     for (i = 0; i < SrvActuator_Obj.drive_module.num.total_cnt; i++)
 241:Service/Srv_Actuator.c ****     {
 242:Service/Srv_Actuator.c ****         switch (SrvActuator_Obj.drive_module.obj_list[i].drv_type)
 243:Service/Srv_Actuator.c ****         {
 244:Service/Srv_Actuator.c ****         case Actuator_DevType_DShot150:
 245:Service/Srv_Actuator.c ****         case Actuator_DevType_DShot300:
 246:Service/Srv_Actuator.c ****         case Actuator_DevType_DShot600:
 247:Service/Srv_Actuator.c ****             DevDshot.control(SrvActuator_Obj.drive_module.obj_list[i].drv_obj, SrvActuator_Obj.driv
 248:Service/Srv_Actuator.c ****             return true;
 249:Service/Srv_Actuator.c **** 
 250:Service/Srv_Actuator.c ****         case Actuator_DevType_ServoPWM:
 251:Service/Srv_Actuator.c ****             break;
 252:Service/Srv_Actuator.c **** 
 253:Service/Srv_Actuator.c ****         default:
 254:Service/Srv_Actuator.c ****             return false;
 255:Service/Srv_Actuator.c ****         }
 256:Service/Srv_Actuator.c ****     }
 257:Service/Srv_Actuator.c **** 
 258:Service/Srv_Actuator.c ****     SrvActuator_PipeData();
 259:Service/Srv_Actuator.c **** }
ARM GAS  C:\Users\HUAV\AppData\Local\Temp\cceh0wp1.s 			page 6


 260:Service/Srv_Actuator.c **** 
 261:Service/Srv_Actuator.c **** static void SrvActuator_MotoControl(uint16_t *p_val)
 262:Service/Srv_Actuator.c **** {
 263:Service/Srv_Actuator.c ****     uint8_t i = 0;
 264:Service/Srv_Actuator.c **** 
 265:Service/Srv_Actuator.c ****     if ((p_val == NULL) || !SrvActuator_Obj.init)
 266:Service/Srv_Actuator.c ****         return;
 267:Service/Srv_Actuator.c **** 
 268:Service/Srv_Actuator.c ****     switch (SrvActuator_Obj.model)
 269:Service/Srv_Actuator.c ****     {
 270:Service/Srv_Actuator.c ****     case Model_Quad:
 271:Service/Srv_Actuator.c ****         SrvActuator_QuadDrone_MotoMixControl(p_val);
 272:Service/Srv_Actuator.c ****         break;
 273:Service/Srv_Actuator.c **** 
 274:Service/Srv_Actuator.c ****     default:
 275:Service/Srv_Actuator.c ****         return;
 276:Service/Srv_Actuator.c ****     }
 277:Service/Srv_Actuator.c **** 
 278:Service/Srv_Actuator.c ****     SrvActuator_PipeData();
 279:Service/Srv_Actuator.c **** }
 280:Service/Srv_Actuator.c **** 
 281:Service/Srv_Actuator.c **** static void SrvActuator_ServoControl(uint8_t index, uint16_t val)
 282:Service/Srv_Actuator.c **** {
 283:Service/Srv_Actuator.c **** }
 284:Service/Srv_Actuator.c **** 
 285:Service/Srv_Actuator.c **** /* mast set spin direction when moto under halt statement */
 286:Service/Srv_Actuator.c **** static bool SrvActuator_SetMotoSpinDir(uint8_t component_index, SrvActuator_SpinDir_List dir)
 287:Service/Srv_Actuator.c **** {
  28              		.loc 1 287 1 view -0
  29              		.cfi_startproc
  30              		@ args = 0, pretend = 0, frame = 0
  31              		@ frame_needed = 0, uses_anonymous_args = 0
  32              		.loc 1 287 1 is_stmt 0 view .LVU1
  33 0000 70B5     		push	{r4, r5, r6, lr}
  34              	.LCFI0:
  35              		.cfi_def_cfa_offset 16
  36              		.cfi_offset 4, -16
  37              		.cfi_offset 5, -12
  38              		.cfi_offset 6, -8
  39              		.cfi_offset 14, -4
 288:Service/Srv_Actuator.c ****     uint32_t dir_cmd = 0;
  40              		.loc 1 288 5 is_stmt 1 view .LVU2
  41              	.LVL1:
 289:Service/Srv_Actuator.c **** 
 290:Service/Srv_Actuator.c ****     if (!SrvActuator_Obj.init ||
  42              		.loc 1 290 5 view .LVU3
  43              		.loc 1 290 25 is_stmt 0 view .LVU4
  44 0002 1E4B     		ldr	r3, .L13
  45 0004 5D78     		ldrb	r5, [r3, #1]	@ zero_extendqisi2
  46              		.loc 1 290 8 view .LVU5
  47 0006 95B3     		cbz	r5, .L2
 291:Service/Srv_Actuator.c ****         (component_index >= SrvActuator_Obj.drive_module.num.moto_cnt) ||
  48              		.loc 1 291 61 discriminator 1 view .LVU6
  49 0008 DB78     		ldrb	r3, [r3, #3]	@ zero_extendqisi2
 290:Service/Srv_Actuator.c ****         (component_index >= SrvActuator_Obj.drive_module.num.moto_cnt) ||
  50              		.loc 1 290 31 discriminator 1 view .LVU7
  51 000a 8342     		cmp	r3, r0
ARM GAS  C:\Users\HUAV\AppData\Local\Temp\cceh0wp1.s 			page 7


  52 000c 2ED9     		bls	.L6
 292:Service/Srv_Actuator.c ****         (SrvActuator_Obj.drive_module.obj_list[component_index].ctl_val !=
  53              		.loc 1 292 38 view .LVU8
  54 000e 1B4B     		ldr	r3, .L13
  55 0010 D3F80520 		ldr	r2, [r3, #5]	@ unaligned
  56              		.loc 1 292 47 view .LVU9
  57 0014 00EB4000 		add	r0, r0, r0, lsl #1
  58              	.LVL2:
  59              		.loc 1 292 47 view .LVU10
  60 0018 C0EBC004 		rsb	r4, r0, r0, lsl #3
  61 001c 1319     		adds	r3, r2, r4
  62              		.loc 1 292 64 view .LVU11
  63 001e 5E88     		ldrh	r6, [r3, #2]	@ unaligned
 293:Service/Srv_Actuator.c ****          SrvActuator_Obj.drive_module.obj_list[component_index].lock_val) ||
  64              		.loc 1 293 64 view .LVU12
  65 0020 5889     		ldrh	r0, [r3, #10]	@ unaligned
 291:Service/Srv_Actuator.c ****         (SrvActuator_Obj.drive_module.obj_list[component_index].ctl_val !=
  66              		.loc 1 291 72 view .LVU13
  67 0022 8642     		cmp	r6, r0
  68 0024 25D1     		bne	.L7
 294:Service/Srv_Actuator.c ****         (dir == Actuator_SS_CW) ||
  69              		.loc 1 294 33 view .LVU14
  70 0026 881E     		subs	r0, r1, #2
  71 0028 C0B2     		uxtb	r0, r0
  72 002a 0128     		cmp	r0, #1
  73 002c 23D9     		bls	.L8
 295:Service/Srv_Actuator.c ****         (dir == Actuator_SS_ACW))
 296:Service/Srv_Actuator.c ****         return false;
 297:Service/Srv_Actuator.c **** 
 298:Service/Srv_Actuator.c ****     switch (SrvActuator_Obj.drive_module.obj_list[component_index].drv_type)
  74              		.loc 1 298 5 is_stmt 1 view .LVU15
  75              		.loc 1 298 67 is_stmt 0 view .LVU16
  76 002e 125D     		ldrb	r2, [r2, r4]	@ zero_extendqisi2
  77              		.loc 1 298 5 view .LVU17
  78 0030 032A     		cmp	r2, #3
  79 0032 03D9     		bls	.L12
  80 0034 042A     		cmp	r2, #4
  81 0036 1AD0     		beq	.L2
  82 0038 0025     		movs	r5, #0
  83 003a 18E0     		b	.L2
  84              	.L12:
  85 003c 52B2     		sxtb	r2, r2
  86 003e 0AB9     		cbnz	r2, .L4
  87 0040 0025     		movs	r5, #0
  88 0042 14E0     		b	.L2
  89              	.L4:
 299:Service/Srv_Actuator.c ****     {
 300:Service/Srv_Actuator.c ****     case Actuator_DevType_DShot150:
 301:Service/Srv_Actuator.c ****     case Actuator_DevType_DShot300:
 302:Service/Srv_Actuator.c ****     case Actuator_DevType_DShot600:
 303:Service/Srv_Actuator.c ****         if (dir == Actuator_MS_CW)
  90              		.loc 1 303 9 is_stmt 1 view .LVU18
  91              		.loc 1 303 12 is_stmt 0 view .LVU19
  92 0044 79B9     		cbnz	r1, .L10
 304:Service/Srv_Actuator.c ****         {
 305:Service/Srv_Actuator.c ****             dir_cmd = DSHOT_CMD_SET_SPIN_CLOCKWISE;
  93              		.loc 1 305 21 view .LVU20
ARM GAS  C:\Users\HUAV\AppData\Local\Temp\cceh0wp1.s 			page 8


  94 0046 8021     		movs	r1, #128
  95              	.LVL3:
  96              	.L5:
 306:Service/Srv_Actuator.c ****         }
 307:Service/Srv_Actuator.c ****         else
 308:Service/Srv_Actuator.c ****             dir_cmd = DSHOT_CMD_SET_SPIN_ANTICLOCKWISE;
 309:Service/Srv_Actuator.c **** 
 310:Service/Srv_Actuator.c ****         DevDshot.command(SrvActuator_Obj.drive_module.obj_list[component_index].drv_obj, dir_cmd);
  97              		.loc 1 310 9 is_stmt 1 view .LVU21
  98              		.loc 1 310 17 is_stmt 0 view .LVU22
  99 0048 0D4E     		ldr	r6, .L13+4
 100 004a 7268     		ldr	r2, [r6, #4]
 101              		.loc 1 310 9 view .LVU23
 102 004c 01F08001 		and	r1, r1, #128
 103              	.LVL4:
 104              		.loc 1 310 9 view .LVU24
 105 0050 1869     		ldr	r0, [r3, #16]	@ unaligned
 106 0052 9047     		blx	r2
 107              	.LVL5:
 311:Service/Srv_Actuator.c ****         DevDshot.command(SrvActuator_Obj.drive_module.obj_list[component_index].drv_obj, DSHOT_CMD_
 108              		.loc 1 311 9 is_stmt 1 view .LVU25
 109              		.loc 1 311 17 is_stmt 0 view .LVU26
 110 0054 7368     		ldr	r3, [r6, #4]
 111              		.loc 1 311 54 view .LVU27
 112 0056 094A     		ldr	r2, .L13
 113 0058 D2F80500 		ldr	r0, [r2, #5]	@ unaligned
 114              		.loc 1 311 63 view .LVU28
 115 005c 2044     		add	r0, r0, r4
 116              		.loc 1 311 9 view .LVU29
 117 005e 0021     		movs	r1, #0
 118 0060 0069     		ldr	r0, [r0, #16]	@ unaligned
 119 0062 9847     		blx	r3
 120              	.LVL6:
 312:Service/Srv_Actuator.c ****         break;
 121              		.loc 1 312 9 is_stmt 1 view .LVU30
 122 0064 03E0     		b	.L2
 123              	.LVL7:
 124              	.L10:
 308:Service/Srv_Actuator.c **** 
 125              		.loc 1 308 21 is_stmt 0 view .LVU31
 126 0066 4FF48071 		mov	r1, #256
 127              	.LVL8:
 308:Service/Srv_Actuator.c **** 
 128              		.loc 1 308 21 view .LVU32
 129 006a EDE7     		b	.L5
 130              	.LVL9:
 131              	.L6:
 296:Service/Srv_Actuator.c **** 
 132              		.loc 1 296 16 view .LVU33
 133 006c 0025     		movs	r5, #0
 134              	.LVL10:
 135              	.L2:
 313:Service/Srv_Actuator.c **** 
 314:Service/Srv_Actuator.c ****     case Actuator_DevType_ServoPWM:
 315:Service/Srv_Actuator.c ****         break;
 316:Service/Srv_Actuator.c **** 
 317:Service/Srv_Actuator.c ****     default:
ARM GAS  C:\Users\HUAV\AppData\Local\Temp\cceh0wp1.s 			page 9


 318:Service/Srv_Actuator.c ****         return false;
 319:Service/Srv_Actuator.c ****     }
 320:Service/Srv_Actuator.c **** 
 321:Service/Srv_Actuator.c ****     return true;
 322:Service/Srv_Actuator.c **** }
 136              		.loc 1 322 1 view .LVU34
 137 006e 2846     		mov	r0, r5
 138 0070 70BD     		pop	{r4, r5, r6, pc}
 139              	.LVL11:
 140              	.L7:
 296:Service/Srv_Actuator.c **** 
 141              		.loc 1 296 16 view .LVU35
 142 0072 0025     		movs	r5, #0
 143 0074 FBE7     		b	.L2
 144              	.L8:
 145 0076 0025     		movs	r5, #0
 146 0078 F9E7     		b	.L2
 147              	.L14:
 148 007a 00BF     		.align	2
 149              	.L13:
 150 007c 00000000 		.word	SrvActuator_Obj
 151 0080 00000000 		.word	DevDshot
 152              		.cfi_endproc
 153              	.LFE155:
 155              		.section	.text.SrvActuator_Config_MotoSpinDir,"ax",%progbits
 156              		.align	1
 157              		.syntax unified
 158              		.thumb
 159              		.thumb_func
 160              		.fpu fpv5-d16
 162              	SrvActuator_Config_MotoSpinDir:
 163              	.LFB156:
 323:Service/Srv_Actuator.c **** 
 324:Service/Srv_Actuator.c **** static bool SrvActuator_Config_MotoSpinDir(void)
 325:Service/Srv_Actuator.c **** {
 164              		.loc 1 325 1 is_stmt 1 view -0
 165              		.cfi_startproc
 166              		@ args = 0, pretend = 0, frame = 0
 167              		@ frame_needed = 0, uses_anonymous_args = 0
 168 0000 10B5     		push	{r4, lr}
 169              	.LCFI1:
 170              		.cfi_def_cfa_offset 8
 171              		.cfi_offset 4, -8
 172              		.cfi_offset 14, -4
 326:Service/Srv_Actuator.c ****     /* we should read moto spin direction info from storage module */
 327:Service/Srv_Actuator.c ****     /* if read failed use default setting down below */
 328:Service/Srv_Actuator.c ****     switch (SrvActuator_Obj.model)
 173              		.loc 1 328 5 view .LVU37
 174              		.loc 1 328 28 is_stmt 0 view .LVU38
 175 0002 1D4B     		ldr	r3, .L23
 176 0004 1C78     		ldrb	r4, [r3]	@ zero_extendqisi2
 177              		.loc 1 328 5 view .LVU39
 178 0006 9CB1     		cbz	r4, .L16
 179              	.L17:
 329:Service/Srv_Actuator.c ****     {
 330:Service/Srv_Actuator.c ****     case Model_Quad:
 331:Service/Srv_Actuator.c ****         for (uint8_t i = 0; i < SrvActuator_Obj.drive_module.num.moto_cnt; i++)
ARM GAS  C:\Users\HUAV\AppData\Local\Temp\cceh0wp1.s 			page 10


 332:Service/Srv_Actuator.c ****         {
 333:Service/Srv_Actuator.c ****             if ((i == 0) || (i == 3))
 334:Service/Srv_Actuator.c ****             {
 335:Service/Srv_Actuator.c ****                 SrvActuator_Obj.drive_module.obj_list[i].spin_dir = Actuator_MS_ACW;
 336:Service/Srv_Actuator.c ****             }
 337:Service/Srv_Actuator.c ****             else if ((i == 1) || (i == 2))
 338:Service/Srv_Actuator.c ****             {
 339:Service/Srv_Actuator.c ****                 SrvActuator_Obj.drive_module.obj_list[i].spin_dir = Actuator_MS_CW;
 340:Service/Srv_Actuator.c ****             }
 341:Service/Srv_Actuator.c **** 
 342:Service/Srv_Actuator.c ****             SrvActuator_SetMotoSpinDir(i, SrvActuator_Obj.drive_module.obj_list[i].spin_dir);
 343:Service/Srv_Actuator.c ****         }
 344:Service/Srv_Actuator.c ****         break;
 345:Service/Srv_Actuator.c **** 
 346:Service/Srv_Actuator.c ****     default:
 347:Service/Srv_Actuator.c ****         break;
 348:Service/Srv_Actuator.c ****     }
 349:Service/Srv_Actuator.c **** 
 350:Service/Srv_Actuator.c ****     return true;
 180              		.loc 1 350 5 is_stmt 1 view .LVU40
 351:Service/Srv_Actuator.c **** }
 181              		.loc 1 351 1 is_stmt 0 view .LVU41
 182 0008 0120     		movs	r0, #1
 183 000a 10BD     		pop	{r4, pc}
 184              	.LVL12:
 185              	.L18:
 186              	.LBB7:
 337:Service/Srv_Actuator.c ****             {
 187              		.loc 1 337 18 is_stmt 1 view .LVU42
 337:Service/Srv_Actuator.c ****             {
 188              		.loc 1 337 31 is_stmt 0 view .LVU43
 189 000c 631E     		subs	r3, r4, #1
 190 000e DBB2     		uxtb	r3, r3
 337:Service/Srv_Actuator.c ****             {
 191              		.loc 1 337 21 view .LVU44
 192 0010 012B     		cmp	r3, #1
 193 0012 25D9     		bls	.L22
 194              	.L19:
 342:Service/Srv_Actuator.c ****         }
 195              		.loc 1 342 13 is_stmt 1 discriminator 2 view .LVU45
 342:Service/Srv_Actuator.c ****         }
 196              		.loc 1 342 71 is_stmt 0 discriminator 2 view .LVU46
 197 0014 184B     		ldr	r3, .L23
 198 0016 D3F80520 		ldr	r2, [r3, #5]	@ unaligned
 342:Service/Srv_Actuator.c ****         }
 199              		.loc 1 342 80 discriminator 2 view .LVU47
 200 001a 04EB4403 		add	r3, r4, r4, lsl #1
 201 001e C3EBC303 		rsb	r3, r3, r3, lsl #3
 202 0022 1344     		add	r3, r3, r2
 342:Service/Srv_Actuator.c ****         }
 203              		.loc 1 342 13 discriminator 2 view .LVU48
 204 0024 197D     		ldrb	r1, [r3, #20]	@ zero_extendqisi2
 205 0026 2046     		mov	r0, r4
 206 0028 FFF7FEFF 		bl	SrvActuator_SetMotoSpinDir
 207              	.LVL13:
 331:Service/Srv_Actuator.c ****         {
 208              		.loc 1 331 76 is_stmt 1 discriminator 2 view .LVU49
ARM GAS  C:\Users\HUAV\AppData\Local\Temp\cceh0wp1.s 			page 11


 331:Service/Srv_Actuator.c ****         {
 209              		.loc 1 331 77 is_stmt 0 discriminator 2 view .LVU50
 210 002c 0134     		adds	r4, r4, #1
 211              	.LVL14:
 331:Service/Srv_Actuator.c ****         {
 212              		.loc 1 331 77 discriminator 2 view .LVU51
 213 002e E4B2     		uxtb	r4, r4
 214              	.LVL15:
 215              	.L16:
 331:Service/Srv_Actuator.c ****         {
 216              		.loc 1 331 29 is_stmt 1 discriminator 1 view .LVU52
 331:Service/Srv_Actuator.c ****         {
 217              		.loc 1 331 65 is_stmt 0 discriminator 1 view .LVU53
 218 0030 114B     		ldr	r3, .L23
 219 0032 DB78     		ldrb	r3, [r3, #3]	@ zero_extendqisi2
 331:Service/Srv_Actuator.c ****         {
 220              		.loc 1 331 9 discriminator 1 view .LVU54
 221 0034 A342     		cmp	r3, r4
 222 0036 E7D9     		bls	.L17
 333:Service/Srv_Actuator.c ****             {
 223              		.loc 1 333 13 is_stmt 1 view .LVU55
 333:Service/Srv_Actuator.c ****             {
 224              		.loc 1 333 32 is_stmt 0 view .LVU56
 225 0038 032C     		cmp	r4, #3
 226 003a 14BF     		ite	ne
 227 003c 0023     		movne	r3, #0
 228 003e 0123     		moveq	r3, #1
 333:Service/Srv_Actuator.c ****             {
 229              		.loc 1 333 26 view .LVU57
 230 0040 002C     		cmp	r4, #0
 231 0042 08BF     		it	eq
 232 0044 0123     		moveq	r3, #1
 333:Service/Srv_Actuator.c ****             {
 233              		.loc 1 333 16 view .LVU58
 234 0046 002B     		cmp	r3, #0
 235 0048 E0D0     		beq	.L18
 335:Service/Srv_Actuator.c ****             }
 236              		.loc 1 335 17 is_stmt 1 view .LVU59
 335:Service/Srv_Actuator.c ****             }
 237              		.loc 1 335 45 is_stmt 0 view .LVU60
 238 004a 0B4B     		ldr	r3, .L23
 239 004c D3F80520 		ldr	r2, [r3, #5]	@ unaligned
 335:Service/Srv_Actuator.c ****             }
 240              		.loc 1 335 54 view .LVU61
 241 0050 04EB4403 		add	r3, r4, r4, lsl #1
 242 0054 C3EBC303 		rsb	r3, r3, r3, lsl #3
 243 0058 1344     		add	r3, r3, r2
 335:Service/Srv_Actuator.c ****             }
 244              		.loc 1 335 67 view .LVU62
 245 005a 0122     		movs	r2, #1
 246 005c 1A75     		strb	r2, [r3, #20]
 247 005e D9E7     		b	.L19
 248              	.L22:
 339:Service/Srv_Actuator.c ****             }
 249              		.loc 1 339 17 is_stmt 1 view .LVU63
 339:Service/Srv_Actuator.c ****             }
 250              		.loc 1 339 45 is_stmt 0 view .LVU64
ARM GAS  C:\Users\HUAV\AppData\Local\Temp\cceh0wp1.s 			page 12


 251 0060 054B     		ldr	r3, .L23
 252 0062 D3F80520 		ldr	r2, [r3, #5]	@ unaligned
 339:Service/Srv_Actuator.c ****             }
 253              		.loc 1 339 54 view .LVU65
 254 0066 04EB4403 		add	r3, r4, r4, lsl #1
 255 006a C3EBC303 		rsb	r3, r3, r3, lsl #3
 256 006e 1344     		add	r3, r3, r2
 339:Service/Srv_Actuator.c ****             }
 257              		.loc 1 339 67 view .LVU66
 258 0070 0022     		movs	r2, #0
 259 0072 1A75     		strb	r2, [r3, #20]
 260 0074 CEE7     		b	.L19
 261              	.L24:
 262 0076 00BF     		.align	2
 263              	.L23:
 264 0078 00000000 		.word	SrvActuator_Obj
 265              	.LBE7:
 266              		.cfi_endproc
 267              	.LFE156:
 269              		.section	.text.SrvActuator_InvertMotoSpinDir,"ax",%progbits
 270              		.align	1
 271              		.syntax unified
 272              		.thumb
 273              		.thumb_func
 274              		.fpu fpv5-d16
 276              	SrvActuator_InvertMotoSpinDir:
 277              	.LVL16:
 278              	.LFB157:
 352:Service/Srv_Actuator.c **** 
 353:Service/Srv_Actuator.c **** static bool SrvActuator_InvertMotoSpinDir(uint8_t component_index)
 354:Service/Srv_Actuator.c **** {
 279              		.loc 1 354 1 is_stmt 1 view -0
 280              		.cfi_startproc
 281              		@ args = 0, pretend = 0, frame = 0
 282              		@ frame_needed = 0, uses_anonymous_args = 0
 283              		.loc 1 354 1 is_stmt 0 view .LVU68
 284 0000 0346     		mov	r3, r0
 355:Service/Srv_Actuator.c ****     if (!SrvActuator_Obj.init ||
 285              		.loc 1 355 5 is_stmt 1 view .LVU69
 286              		.loc 1 355 25 is_stmt 0 view .LVU70
 287 0002 194A     		ldr	r2, .L34
 288 0004 5078     		ldrb	r0, [r2, #1]	@ zero_extendqisi2
 289              	.LVL17:
 290              		.loc 1 355 8 view .LVU71
 291 0006 68B3     		cbz	r0, .L31
 356:Service/Srv_Actuator.c ****         (component_index >= SrvActuator_Obj.drive_module.num.moto_cnt))
 292              		.loc 1 356 61 discriminator 1 view .LVU72
 293 0008 D278     		ldrb	r2, [r2, #3]	@ zero_extendqisi2
 355:Service/Srv_Actuator.c ****     if (!SrvActuator_Obj.init ||
 294              		.loc 1 355 31 discriminator 1 view .LVU73
 295 000a 9A42     		cmp	r2, r3
 296 000c 28D9     		bls	.L29
 354:Service/Srv_Actuator.c ****     if (!SrvActuator_Obj.init ||
 297              		.loc 1 354 1 view .LVU74
 298 000e 10B5     		push	{r4, lr}
 299              	.LCFI2:
 300              		.cfi_def_cfa_offset 8
ARM GAS  C:\Users\HUAV\AppData\Local\Temp\cceh0wp1.s 			page 13


 301              		.cfi_offset 4, -8
 302              		.cfi_offset 14, -4
 357:Service/Srv_Actuator.c ****         return false;
 358:Service/Srv_Actuator.c **** 
 359:Service/Srv_Actuator.c ****     switch (SrvActuator_Obj.drive_module.obj_list[component_index].spin_dir)
 303              		.loc 1 359 5 is_stmt 1 view .LVU75
 304              		.loc 1 359 41 is_stmt 0 view .LVU76
 305 0010 154A     		ldr	r2, .L34
 306 0012 D2F80520 		ldr	r2, [r2, #5]	@ unaligned
 307              		.loc 1 359 50 view .LVU77
 308 0016 03EB4301 		add	r1, r3, r3, lsl #1
 309 001a C1EBC104 		rsb	r4, r1, r1, lsl #3
 310 001e 2244     		add	r2, r2, r4
 311              		.loc 1 359 67 view .LVU78
 312 0020 127D     		ldrb	r2, [r2, #20]	@ zero_extendqisi2
 313              		.loc 1 359 5 view .LVU79
 314 0022 1AB1     		cbz	r2, .L27
 315 0024 012A     		cmp	r2, #1
 316 0026 0ED0     		beq	.L28
 317 0028 0020     		movs	r0, #0
 318              	.L26:
 360:Service/Srv_Actuator.c ****     {
 361:Service/Srv_Actuator.c ****     case Actuator_MS_CW:
 362:Service/Srv_Actuator.c ****         if (SrvActuator_SetMotoSpinDir(component_index, Actuator_MS_ACW))
 363:Service/Srv_Actuator.c ****         {
 364:Service/Srv_Actuator.c ****             SrvActuator_Obj.drive_module.obj_list[component_index].spin_dir = Actuator_MS_ACW;
 365:Service/Srv_Actuator.c ****             return true;
 366:Service/Srv_Actuator.c ****         }
 367:Service/Srv_Actuator.c ****         return false;
 368:Service/Srv_Actuator.c **** 
 369:Service/Srv_Actuator.c ****     case Actuator_MS_ACW:
 370:Service/Srv_Actuator.c ****         if (SrvActuator_SetMotoSpinDir(component_index, Actuator_MS_CW))
 371:Service/Srv_Actuator.c ****         {
 372:Service/Srv_Actuator.c ****             SrvActuator_Obj.drive_module.obj_list[component_index].spin_dir = Actuator_MS_CW;
 373:Service/Srv_Actuator.c ****             return true;
 374:Service/Srv_Actuator.c ****         }
 375:Service/Srv_Actuator.c ****         return false;
 376:Service/Srv_Actuator.c **** 
 377:Service/Srv_Actuator.c ****     default:
 378:Service/Srv_Actuator.c ****         return false;
 379:Service/Srv_Actuator.c ****     }
 380:Service/Srv_Actuator.c **** }
 319              		.loc 1 380 1 view .LVU80
 320 002a 10BD     		pop	{r4, pc}
 321              	.L27:
 362:Service/Srv_Actuator.c ****         {
 322              		.loc 1 362 9 is_stmt 1 view .LVU81
 362:Service/Srv_Actuator.c ****         {
 323              		.loc 1 362 13 is_stmt 0 view .LVU82
 324 002c 0121     		movs	r1, #1
 325 002e 1846     		mov	r0, r3
 326 0030 FFF7FEFF 		bl	SrvActuator_SetMotoSpinDir
 327              	.LVL18:
 362:Service/Srv_Actuator.c ****         {
 328              		.loc 1 362 12 view .LVU83
 329 0034 0028     		cmp	r0, #0
 330 0036 F8D0     		beq	.L26
ARM GAS  C:\Users\HUAV\AppData\Local\Temp\cceh0wp1.s 			page 14


 364:Service/Srv_Actuator.c ****             return true;
 331              		.loc 1 364 13 is_stmt 1 view .LVU84
 364:Service/Srv_Actuator.c ****             return true;
 332              		.loc 1 364 41 is_stmt 0 view .LVU85
 333 0038 0B4B     		ldr	r3, .L34
 334 003a D3F80510 		ldr	r1, [r3, #5]	@ unaligned
 364:Service/Srv_Actuator.c ****             return true;
 335              		.loc 1 364 50 view .LVU86
 336 003e 2144     		add	r1, r1, r4
 364:Service/Srv_Actuator.c ****             return true;
 337              		.loc 1 364 77 view .LVU87
 338 0040 0123     		movs	r3, #1
 339 0042 0B75     		strb	r3, [r1, #20]
 365:Service/Srv_Actuator.c ****         }
 340              		.loc 1 365 13 is_stmt 1 view .LVU88
 365:Service/Srv_Actuator.c ****         }
 341              		.loc 1 365 20 is_stmt 0 view .LVU89
 342 0044 F1E7     		b	.L26
 343              	.L28:
 370:Service/Srv_Actuator.c ****         {
 344              		.loc 1 370 9 is_stmt 1 view .LVU90
 370:Service/Srv_Actuator.c ****         {
 345              		.loc 1 370 13 is_stmt 0 view .LVU91
 346 0046 0021     		movs	r1, #0
 347 0048 1846     		mov	r0, r3
 348 004a FFF7FEFF 		bl	SrvActuator_SetMotoSpinDir
 349              	.LVL19:
 370:Service/Srv_Actuator.c ****         {
 350              		.loc 1 370 12 view .LVU92
 351 004e 0028     		cmp	r0, #0
 352 0050 EBD0     		beq	.L26
 372:Service/Srv_Actuator.c ****             return true;
 353              		.loc 1 372 13 is_stmt 1 view .LVU93
 372:Service/Srv_Actuator.c ****             return true;
 354              		.loc 1 372 41 is_stmt 0 view .LVU94
 355 0052 054B     		ldr	r3, .L34
 356 0054 D3F80510 		ldr	r1, [r3, #5]	@ unaligned
 372:Service/Srv_Actuator.c ****             return true;
 357              		.loc 1 372 50 view .LVU95
 358 0058 2144     		add	r1, r1, r4
 372:Service/Srv_Actuator.c ****             return true;
 359              		.loc 1 372 77 view .LVU96
 360 005a 0023     		movs	r3, #0
 361 005c 0B75     		strb	r3, [r1, #20]
 373:Service/Srv_Actuator.c ****         }
 362              		.loc 1 373 13 is_stmt 1 view .LVU97
 373:Service/Srv_Actuator.c ****         }
 363              		.loc 1 373 20 is_stmt 0 view .LVU98
 364 005e E4E7     		b	.L26
 365              	.L29:
 366              	.LCFI3:
 367              		.cfi_def_cfa_offset 0
 368              		.cfi_restore 4
 369              		.cfi_restore 14
 357:Service/Srv_Actuator.c **** 
 370              		.loc 1 357 16 view .LVU99
 371 0060 0020     		movs	r0, #0
ARM GAS  C:\Users\HUAV\AppData\Local\Temp\cceh0wp1.s 			page 15


 372 0062 7047     		bx	lr
 373              	.L31:
 374              		.loc 1 380 1 view .LVU100
 375 0064 7047     		bx	lr
 376              	.L35:
 377 0066 00BF     		.align	2
 378              	.L34:
 379 0068 00000000 		.word	SrvActuator_Obj
 380              		.cfi_endproc
 381              	.LFE157:
 383              		.section	.text.SrvActuator_Get_NumData,"ax",%progbits
 384              		.align	1
 385              		.syntax unified
 386              		.thumb
 387              		.thumb_func
 388              		.fpu fpv5-d16
 390              	SrvActuator_Get_NumData:
 391              	.LFB158:
 381:Service/Srv_Actuator.c **** 
 382:Service/Srv_Actuator.c **** static SrvActuator_ModelComponentNum_TypeDef SrvActuator_Get_NumData(void)
 383:Service/Srv_Actuator.c **** {
 392              		.loc 1 383 1 is_stmt 1 view -0
 393              		.cfi_startproc
 394              		@ args = 0, pretend = 0, frame = 8
 395              		@ frame_needed = 0, uses_anonymous_args = 0
 396              		@ link register save eliminated.
 397 0000 82B0     		sub	sp, sp, #8
 398              	.LCFI4:
 399              		.cfi_def_cfa_offset 8
 384:Service/Srv_Actuator.c ****     return SrvActuator_Obj.drive_module.num;
 400              		.loc 1 384 5 view .LVU102
 401              		.loc 1 384 40 is_stmt 0 view .LVU103
 402 0002 094B     		ldr	r3, .L38
 403 0004 33F8022F 		ldrh	r2, [r3, #2]!	@ unaligned
 404 0008 ADF80420 		strh	r2, [sp, #4]	@ unaligned
 405 000c 0020     		movs	r0, #0
 406 000e 9DF80420 		ldrb	r2, [sp, #4]	@ zero_extendqisi2
 407 0012 62F30700 		bfi	r0, r2, #0, #8
 408 0016 9DF80520 		ldrb	r2, [sp, #5]	@ zero_extendqisi2
 409 001a 62F30F20 		bfi	r0, r2, #8, #8
 410 001e 9B78     		ldrb	r3, [r3, #2]	@ zero_extendqisi2
 411 0020 63F31740 		bfi	r0, r3, #16, #8
 385:Service/Srv_Actuator.c **** }
 412              		.loc 1 385 1 view .LVU104
 413 0024 02B0     		add	sp, sp, #8
 414              	.LCFI5:
 415              		.cfi_def_cfa_offset 0
 416              		@ sp needed
 417 0026 7047     		bx	lr
 418              	.L39:
 419              		.align	2
 420              	.L38:
 421 0028 00000000 		.word	SrvActuator_Obj
 422              		.cfi_endproc
 423              	.LFE158:
 425              		.section	.text.SrvActuator_GetModel,"ax",%progbits
 426              		.align	1
ARM GAS  C:\Users\HUAV\AppData\Local\Temp\cceh0wp1.s 			page 16


 427              		.syntax unified
 428              		.thumb
 429              		.thumb_func
 430              		.fpu fpv5-d16
 432              	SrvActuator_GetModel:
 433              	.LFB159:
 386:Service/Srv_Actuator.c **** 
 387:Service/Srv_Actuator.c **** static SrvActuator_Model_List SrvActuator_GetModel(void)
 388:Service/Srv_Actuator.c **** {
 434              		.loc 1 388 1 is_stmt 1 view -0
 435              		.cfi_startproc
 436              		@ args = 0, pretend = 0, frame = 0
 437              		@ frame_needed = 0, uses_anonymous_args = 0
 438              		@ link register save eliminated.
 389:Service/Srv_Actuator.c ****     return SrvActuator_Obj.model;
 439              		.loc 1 389 5 view .LVU106
 390:Service/Srv_Actuator.c **** }
 440              		.loc 1 390 1 is_stmt 0 view .LVU107
 441 0000 014B     		ldr	r3, .L41
 442 0002 1878     		ldrb	r0, [r3]	@ zero_extendqisi2
 443 0004 7047     		bx	lr
 444              	.L42:
 445 0006 00BF     		.align	2
 446              	.L41:
 447 0008 00000000 		.word	SrvActuator_Obj
 448              		.cfi_endproc
 449              	.LFE159:
 451              		.section	.text.SrvActuator_QuadDrone_MotoMixControl,"ax",%progbits
 452              		.align	1
 453              		.syntax unified
 454              		.thumb
 455              		.thumb_func
 456              		.fpu fpv5-d16
 458              	SrvActuator_QuadDrone_MotoMixControl:
 459              	.LVL20:
 460              	.LFB161:
 391:Service/Srv_Actuator.c **** 
 392:Service/Srv_Actuator.c **** static void SrvActuator_PipeData(void)
 393:Service/Srv_Actuator.c **** {
 394:Service/Srv_Actuator.c ****     DataPipe_DataObj(Actuator_Data).time_stamp = Get_CurrentRunningMs();
 395:Service/Srv_Actuator.c ****     DataPipe_DataObj(Actuator_Data).moto_cnt = SrvActuator_Obj.drive_module.num.moto_cnt;
 396:Service/Srv_Actuator.c ****     DataPipe_DataObj(Actuator_Data).servo_cnt = SrvActuator_Obj.drive_module.num.servo_cnt;
 397:Service/Srv_Actuator.c **** 
 398:Service/Srv_Actuator.c ****     for (uint8_t i = 0; i < SrvActuator_Obj.drive_module.num.total_cnt; i++)
 399:Service/Srv_Actuator.c ****     {
 400:Service/Srv_Actuator.c ****         if (i < SrvActuator_Obj.drive_module.num.moto_cnt)
 401:Service/Srv_Actuator.c ****         {
 402:Service/Srv_Actuator.c ****             DataPipe_DataObj(Actuator_Data).moto[i] = SrvActuator_Obj.drive_module.obj_list[i].ctl_
 403:Service/Srv_Actuator.c ****             DataPipe_DataObj(Actuator_Data).moto_dir[i] = SrvActuator_Obj.drive_module.obj_list[i].
 404:Service/Srv_Actuator.c ****         }
 405:Service/Srv_Actuator.c ****         else
 406:Service/Srv_Actuator.c ****         {
 407:Service/Srv_Actuator.c ****             DataPipe_DataObj(Actuator_Data).servo_dir[i - SrvActuator_Obj.drive_module.num.moto_cnt
 408:Service/Srv_Actuator.c ****             DataPipe_DataObj(Actuator_Data).servo[i - SrvActuator_Obj.drive_module.num.moto_cnt] = 
 409:Service/Srv_Actuator.c ****         }
 410:Service/Srv_Actuator.c ****     }
 411:Service/Srv_Actuator.c **** 
ARM GAS  C:\Users\HUAV\AppData\Local\Temp\cceh0wp1.s 			page 17


 412:Service/Srv_Actuator.c ****     DataPipe_SendTo(&Actuator_cal_DataPipe, &Actuator_hub_DataPipe);
 413:Service/Srv_Actuator.c **** }
 414:Service/Srv_Actuator.c **** 
 415:Service/Srv_Actuator.c **** /*
 416:Service/Srv_Actuator.c ****  * X axis -> Roll
 417:Service/Srv_Actuator.c ****  * Y axis -> Pitch
 418:Service/Srv_Actuator.c ****  * Z axis -> Yaw
 419:Service/Srv_Actuator.c ****  *
 420:Service/Srv_Actuator.c ****  * M1    M2
 421:Service/Srv_Actuator.c ****  *   \  /
 422:Service/Srv_Actuator.c ****  *    \/
 423:Service/Srv_Actuator.c ****  *    /\
 424:Service/Srv_Actuator.c ****  *   /  \
 425:Service/Srv_Actuator.c ****  * M3    M4
 426:Service/Srv_Actuator.c ****  *
 427:Service/Srv_Actuator.c ****  */
 428:Service/Srv_Actuator.c **** static bool SrvActuator_QuadDrone_MotoMixControl(uint16_t *pid_ctl)
 429:Service/Srv_Actuator.c **** {
 461              		.loc 1 429 1 is_stmt 1 view -0
 462              		.cfi_startproc
 463              		@ args = 0, pretend = 0, frame = 0
 464              		@ frame_needed = 0, uses_anonymous_args = 0
 465              		.loc 1 429 1 is_stmt 0 view .LVU109
 466 0000 70B5     		push	{r4, r5, r6, lr}
 467              	.LCFI6:
 468              		.cfi_def_cfa_offset 16
 469              		.cfi_offset 4, -16
 470              		.cfi_offset 5, -12
 471              		.cfi_offset 6, -8
 472              		.cfi_offset 14, -4
 430:Service/Srv_Actuator.c ****     float throttle_base_percent = 0.0f;
 473              		.loc 1 430 5 is_stmt 1 view .LVU110
 474              	.LVL21:
 431:Service/Srv_Actuator.c **** 
 432:Service/Srv_Actuator.c ****     if ((!SrvActuator_Obj.init) ||
 475              		.loc 1 432 5 view .LVU111
 476              		.loc 1 432 26 is_stmt 0 view .LVU112
 477 0002 484B     		ldr	r3, .L55
 478 0004 5D78     		ldrb	r5, [r3, #1]	@ zero_extendqisi2
 479              		.loc 1 432 8 view .LVU113
 480 0006 002D     		cmp	r5, #0
 481 0008 00F08A80 		beq	.L43
 482              		.loc 1 432 33 discriminator 1 view .LVU114
 483 000c 0028     		cmp	r0, #0
 484 000e 00F08680 		beq	.L53
 433:Service/Srv_Actuator.c ****         (pid_ctl == NULL))
 434:Service/Srv_Actuator.c ****         return false;
 435:Service/Srv_Actuator.c **** 
 436:Service/Srv_Actuator.c ****     /* limit throttle max output at 80% */
 437:Service/Srv_Actuator.c ****     if (pid_ctl[Actuator_CtlChannel_Throttle] >= SRV_ACTUATOR_MAX_THROTTLE_PERCENT)
 485              		.loc 1 437 5 is_stmt 1 view .LVU115
 486              		.loc 1 437 16 is_stmt 0 view .LVU116
 487 0012 0388     		ldrh	r3, [r0]
 488              		.loc 1 437 8 view .LVU117
 489 0014 4F2B     		cmp	r3, #79
 490 0016 01D9     		bls	.L45
 438:Service/Srv_Actuator.c ****         pid_ctl[Actuator_CtlChannel_Throttle] = SRV_ACTUATOR_MAX_THROTTLE_PERCENT;
ARM GAS  C:\Users\HUAV\AppData\Local\Temp\cceh0wp1.s 			page 18


 491              		.loc 1 438 9 is_stmt 1 view .LVU118
 492              		.loc 1 438 47 is_stmt 0 view .LVU119
 493 0018 5023     		movs	r3, #80
 494 001a 0380     		strh	r3, [r0]	@ movhi
 495              	.L45:
 439:Service/Srv_Actuator.c **** 
 440:Service/Srv_Actuator.c ****     throttle_base_percent = pid_ctl[Actuator_CtlChannel_Throttle] / 100.0f;
 496              		.loc 1 440 5 is_stmt 1 view .LVU120
 497              		.loc 1 440 36 is_stmt 0 view .LVU121
 498 001c 0388     		ldrh	r3, [r0]
 499 001e 07EE903A 		vmov	s15, r3	@ int
 500              		.loc 1 440 67 view .LVU122
 501 0022 F8EEE77A 		vcvt.f32.s32	s15, s15
 502              		.loc 1 440 27 view .LVU123
 503 0026 9FED407A 		vldr.32	s14, .L55+4
 504 002a C7EE876A 		vdiv.f32	s13, s15, s14
 505              	.LVL22:
 441:Service/Srv_Actuator.c **** 
 442:Service/Srv_Actuator.c ****     for (uint8_t i = 0; i < 4; i++)
 506              		.loc 1 442 5 is_stmt 1 view .LVU124
 507              	.LBB8:
 508              		.loc 1 442 10 view .LVU125
 509              		.loc 1 442 18 is_stmt 0 view .LVU126
 510 002e 0021     		movs	r1, #0
 511              		.loc 1 442 5 view .LVU127
 512 0030 1DE0     		b	.L46
 513              	.LVL23:
 514              	.L47:
 443:Service/Srv_Actuator.c ****     {
 444:Service/Srv_Actuator.c ****         SrvActuator_Obj.drive_module.obj_list[i].ctl_val = (SrvActuator_Obj.drive_module.obj_list[i
 515              		.loc 1 444 9 is_stmt 1 discriminator 3 view .LVU128
 516              		.loc 1 444 89 is_stmt 0 discriminator 3 view .LVU129
 517 0032 3C4B     		ldr	r3, .L55
 518 0034 D3F80540 		ldr	r4, [r3, #5]	@ unaligned
 519              		.loc 1 444 98 discriminator 3 view .LVU130
 520 0038 01EB4103 		add	r3, r1, r1, lsl #1
 521 003c C3EBC303 		rsb	r3, r3, r3, lsl #3
 522 0040 1C44     		add	r4, r4, r3
 523              		.loc 1 444 101 discriminator 3 view .LVU131
 524 0042 A288     		ldrh	r2, [r4, #4]	@ unaligned
 445:Service/Srv_Actuator.c ****                                                             SrvActuator_Obj.drive_module.obj_list[i
 525              		.loc 1 445 101 discriminator 3 view .LVU132
 526 0044 E388     		ldrh	r3, [r4, #6]	@ unaligned
 444:Service/Srv_Actuator.c ****                                                             SrvActuator_Obj.drive_module.obj_list[i
 527              		.loc 1 444 110 discriminator 3 view .LVU133
 528 0046 D21A     		subs	r2, r2, r3
 529 0048 07EE902A 		vmov	s15, r2	@ int
 530              		.loc 1 445 111 discriminator 3 view .LVU134
 531 004c F8EEE77A 		vcvt.f32.s32	s15, s15
 532 0050 27EEA67A 		vmul.f32	s14, s15, s13
 446:Service/Srv_Actuator.c ****                                                                throttle_base_percent +
 533              		.loc 1 446 86 discriminator 3 view .LVU135
 534 0054 07EE903A 		vmov	s15, r3	@ int
 535 0058 F8EEE77A 		vcvt.f32.s32	s15, s15
 536 005c 77EE877A 		vadd.f32	s15, s15, s14
 444:Service/Srv_Actuator.c ****                                                             SrvActuator_Obj.drive_module.obj_list[i
 537              		.loc 1 444 58 discriminator 3 view .LVU136
ARM GAS  C:\Users\HUAV\AppData\Local\Temp\cceh0wp1.s 			page 19


 538 0060 FCEEE77A 		vcvt.u32.f32	s15, s15
 539 0064 17EE903A 		vmov	r3, s15	@ int
 540 0068 6380     		strh	r3, [r4, #2]	@ unaligned
 442:Service/Srv_Actuator.c ****     {
 541              		.loc 1 442 32 is_stmt 1 discriminator 3 view .LVU137
 442:Service/Srv_Actuator.c ****     {
 542              		.loc 1 442 33 is_stmt 0 discriminator 3 view .LVU138
 543 006a 0131     		adds	r1, r1, #1
 544              	.LVL24:
 442:Service/Srv_Actuator.c ****     {
 545              		.loc 1 442 33 discriminator 3 view .LVU139
 546 006c C9B2     		uxtb	r1, r1
 547              	.LVL25:
 548              	.L46:
 442:Service/Srv_Actuator.c ****     {
 549              		.loc 1 442 25 is_stmt 1 discriminator 1 view .LVU140
 442:Service/Srv_Actuator.c ****     {
 550              		.loc 1 442 5 is_stmt 0 discriminator 1 view .LVU141
 551 006e 0329     		cmp	r1, #3
 552 0070 DFD9     		bls	.L47
 553              	.LBE8:
 447:Service/Srv_Actuator.c ****                                                            SrvActuator_Obj.drive_module.obj_list[i]
 448:Service/Srv_Actuator.c ****     }
 449:Service/Srv_Actuator.c **** 
 450:Service/Srv_Actuator.c ****     SrvActuator_Obj.drive_module.obj_list[0].ctl_val += pid_ctl[Actuator_CtlChannel_Roll] - pid_ctl
 554              		.loc 1 450 5 is_stmt 1 view .LVU142
 555              		.loc 1 450 33 is_stmt 0 view .LVU143
 556 0072 2C4A     		ldr	r2, .L55
 557 0074 D2F80510 		ldr	r1, [r2, #5]	@ unaligned
 558              	.LVL26:
 559              		.loc 1 450 64 view .LVU144
 560 0078 4388     		ldrh	r3, [r0, #2]
 561              		.loc 1 450 100 view .LVU145
 562 007a 8488     		ldrh	r4, [r0, #4]
 563              		.loc 1 450 91 view .LVU146
 564 007c 1B1B     		subs	r3, r3, r4
 565 007e 9BB2     		uxth	r3, r3
 566              		.loc 1 450 137 view .LVU147
 567 0080 C488     		ldrh	r4, [r0, #6]
 568              		.loc 1 450 128 view .LVU148
 569 0082 1B1B     		subs	r3, r3, r4
 570              		.loc 1 450 54 view .LVU149
 571 0084 4C88     		ldrh	r4, [r1, #2]	@ unaligned
 572 0086 2344     		add	r3, r3, r4
 573 0088 4B80     		strh	r3, [r1, #2]	@ unaligned
 451:Service/Srv_Actuator.c ****     SrvActuator_Obj.drive_module.obj_list[1].ctl_val += pid_ctl[Actuator_CtlChannel_Roll] + pid_ctl
 574              		.loc 1 451 5 is_stmt 1 view .LVU150
 575              		.loc 1 451 33 is_stmt 0 view .LVU151
 576 008a D2F80520 		ldr	r2, [r2, #5]	@ unaligned
 577              		.loc 1 451 64 view .LVU152
 578 008e 4388     		ldrh	r3, [r0, #2]
 579              		.loc 1 451 100 view .LVU153
 580 0090 8188     		ldrh	r1, [r0, #4]
 581              		.loc 1 451 91 view .LVU154
 582 0092 0B44     		add	r3, r3, r1
 583              		.loc 1 451 137 view .LVU155
 584 0094 C188     		ldrh	r1, [r0, #6]
ARM GAS  C:\Users\HUAV\AppData\Local\Temp\cceh0wp1.s 			page 20


 585              		.loc 1 451 128 view .LVU156
 586 0096 11FA83F3 		uxtah	r3, r1, r3
 587              		.loc 1 451 54 view .LVU157
 588 009a B2F81710 		ldrh	r1, [r2, #23]	@ unaligned
 589 009e 0B44     		add	r3, r3, r1
 590 00a0 A2F81730 		strh	r3, [r2, #23]	@ unaligned
 452:Service/Srv_Actuator.c ****     SrvActuator_Obj.drive_module.obj_list[2].ctl_val -= pid_ctl[Actuator_CtlChannel_Roll] + pid_ctl
 591              		.loc 1 452 5 is_stmt 1 view .LVU158
 592              		.loc 1 452 137 is_stmt 0 view .LVU159
 593 00a4 C488     		ldrh	r4, [r0, #6]
 594              		.loc 1 452 64 view .LVU160
 595 00a6 4388     		ldrh	r3, [r0, #2]
 596              		.loc 1 452 100 view .LVU161
 597 00a8 8188     		ldrh	r1, [r0, #4]
 598              		.loc 1 452 91 view .LVU162
 599 00aa 0B44     		add	r3, r3, r1
 600 00ac 9BB2     		uxth	r3, r3
 601              		.loc 1 452 54 view .LVU163
 602 00ae 918D     		ldrh	r1, [r2, #44]	@ unaligned
 603 00b0 E31A     		subs	r3, r4, r3
 604 00b2 0B44     		add	r3, r3, r1
 605 00b4 9385     		strh	r3, [r2, #44]	@ unaligned
 453:Service/Srv_Actuator.c ****     SrvActuator_Obj.drive_module.obj_list[3].ctl_val -= pid_ctl[Actuator_CtlChannel_Roll] - pid_ctl
 606              		.loc 1 453 5 is_stmt 1 view .LVU164
 607              		.loc 1 453 100 is_stmt 0 view .LVU165
 608 00b6 8388     		ldrh	r3, [r0, #4]
 609              		.loc 1 453 64 view .LVU166
 610 00b8 4188     		ldrh	r1, [r0, #2]
 611              		.loc 1 453 91 view .LVU167
 612 00ba 5B1A     		subs	r3, r3, r1
 613 00bc 9BB2     		uxth	r3, r3
 614              		.loc 1 453 137 view .LVU168
 615 00be C188     		ldrh	r1, [r0, #6]
 616              		.loc 1 453 128 view .LVU169
 617 00c0 5B1A     		subs	r3, r3, r1
 618              		.loc 1 453 54 view .LVU170
 619 00c2 B2F84110 		ldrh	r1, [r2, #65]	@ unaligned
 620 00c6 0B44     		add	r3, r3, r1
 621 00c8 A2F84130 		strh	r3, [r2, #65]	@ unaligned
 454:Service/Srv_Actuator.c **** 
 455:Service/Srv_Actuator.c ****     for (uint8_t i = 0; i < SrvActuator_Obj.drive_module.num.moto_cnt; i++)
 622              		.loc 1 455 5 is_stmt 1 view .LVU171
 623              	.LBB9:
 624              		.loc 1 455 10 view .LVU172
 625              	.LVL27:
 626              		.loc 1 455 18 is_stmt 0 view .LVU173
 627 00cc 0024     		movs	r4, #0
 628              		.loc 1 455 5 view .LVU174
 629 00ce 13E0     		b	.L48
 630              	.LVL28:
 631              	.L49:
 456:Service/Srv_Actuator.c ****     {
 457:Service/Srv_Actuator.c ****         if (SrvActuator_Obj.drive_module.obj_list[i].ctl_val <= SrvActuator_Obj.drive_module.obj_li
 458:Service/Srv_Actuator.c ****         {
 459:Service/Srv_Actuator.c ****             SrvActuator_Obj.drive_module.obj_list[i].ctl_val = SrvActuator_Obj.drive_module.obj_lis
 460:Service/Srv_Actuator.c ****         }
 461:Service/Srv_Actuator.c ****         else if (SrvActuator_Obj.drive_module.obj_list[i].ctl_val >= SrvActuator_Obj.drive_module.o
ARM GAS  C:\Users\HUAV\AppData\Local\Temp\cceh0wp1.s 			page 21


 632              		.loc 1 461 14 is_stmt 1 view .LVU175
 633              		.loc 1 461 110 is_stmt 0 view .LVU176
 634 00d0 9088     		ldrh	r0, [r2, #4]	@ unaligned
 635 00d2 86B2     		uxth	r6, r0
 636              		.loc 1 461 17 view .LVU177
 637 00d4 B142     		cmp	r1, r6
 638 00d6 00D3     		bcc	.L50
 462:Service/Srv_Actuator.c ****             SrvActuator_Obj.drive_module.obj_list[i].ctl_val = SrvActuator_Obj.drive_module.obj_lis
 639              		.loc 1 462 13 is_stmt 1 view .LVU178
 640              		.loc 1 462 62 is_stmt 0 view .LVU179
 641 00d8 5080     		strh	r0, [r2, #2]	@ unaligned
 642              	.L50:
 463:Service/Srv_Actuator.c **** 
 464:Service/Srv_Actuator.c ****         switch (SrvActuator_Obj.drive_module.obj_list[i].drv_type)
 643              		.loc 1 464 9 is_stmt 1 view .LVU180
 644              		.loc 1 464 45 is_stmt 0 view .LVU181
 645 00da 124A     		ldr	r2, .L55
 646 00dc D2F80520 		ldr	r2, [r2, #5]	@ unaligned
 647              		.loc 1 464 54 view .LVU182
 648 00e0 D018     		adds	r0, r2, r3
 649              		.loc 1 464 57 view .LVU183
 650 00e2 D35C     		ldrb	r3, [r2, r3]	@ zero_extendqisi2
 651              		.loc 1 464 9 view .LVU184
 652 00e4 013B     		subs	r3, r3, #1
 653 00e6 022B     		cmp	r3, #2
 654 00e8 1AD8     		bhi	.L43
 465:Service/Srv_Actuator.c ****         {
 466:Service/Srv_Actuator.c ****         case Actuator_DevType_DShot150:
 467:Service/Srv_Actuator.c ****         case Actuator_DevType_DShot300:
 468:Service/Srv_Actuator.c ****         case Actuator_DevType_DShot600:
 469:Service/Srv_Actuator.c ****             DevDshot.control(SrvActuator_Obj.drive_module.obj_list[i].drv_obj, SrvActuator_Obj.driv
 655              		.loc 1 469 13 is_stmt 1 view .LVU185
 656              		.loc 1 469 21 is_stmt 0 view .LVU186
 657 00ea 104B     		ldr	r3, .L55+8
 658 00ec 9B68     		ldr	r3, [r3, #8]
 659              		.loc 1 469 13 view .LVU187
 660 00ee 4188     		ldrh	r1, [r0, #2]	@ unaligned
 661 00f0 0069     		ldr	r0, [r0, #16]	@ unaligned
 662 00f2 9847     		blx	r3
 663              	.LVL29:
 470:Service/Srv_Actuator.c ****             break;
 664              		.loc 1 470 13 is_stmt 1 view .LVU188
 455:Service/Srv_Actuator.c ****     {
 665              		.loc 1 455 72 view .LVU189
 455:Service/Srv_Actuator.c ****     {
 666              		.loc 1 455 73 is_stmt 0 view .LVU190
 667 00f4 0134     		adds	r4, r4, #1
 668              	.LVL30:
 455:Service/Srv_Actuator.c ****     {
 669              		.loc 1 455 73 view .LVU191
 670 00f6 E4B2     		uxtb	r4, r4
 671              	.LVL31:
 672              	.L48:
 455:Service/Srv_Actuator.c ****     {
 673              		.loc 1 455 25 is_stmt 1 discriminator 1 view .LVU192
 455:Service/Srv_Actuator.c ****     {
 674              		.loc 1 455 61 is_stmt 0 discriminator 1 view .LVU193
ARM GAS  C:\Users\HUAV\AppData\Local\Temp\cceh0wp1.s 			page 22


 675 00f8 0A4B     		ldr	r3, .L55
 676 00fa DB78     		ldrb	r3, [r3, #3]	@ zero_extendqisi2
 455:Service/Srv_Actuator.c ****     {
 677              		.loc 1 455 5 discriminator 1 view .LVU194
 678 00fc A342     		cmp	r3, r4
 679 00fe 0FD9     		bls	.L43
 457:Service/Srv_Actuator.c ****         {
 680              		.loc 1 457 9 is_stmt 1 view .LVU195
 457:Service/Srv_Actuator.c ****         {
 681              		.loc 1 457 41 is_stmt 0 view .LVU196
 682 0100 084B     		ldr	r3, .L55
 683 0102 D3F80520 		ldr	r2, [r3, #5]	@ unaligned
 457:Service/Srv_Actuator.c ****         {
 684              		.loc 1 457 50 view .LVU197
 685 0106 04EB4403 		add	r3, r4, r4, lsl #1
 686 010a C3EBC303 		rsb	r3, r3, r3, lsl #3
 687 010e 1A44     		add	r2, r2, r3
 457:Service/Srv_Actuator.c ****         {
 688              		.loc 1 457 53 view .LVU198
 689 0110 5188     		ldrh	r1, [r2, #2]	@ unaligned
 457:Service/Srv_Actuator.c ****         {
 690              		.loc 1 457 105 view .LVU199
 691 0112 D088     		ldrh	r0, [r2, #6]	@ unaligned
 692 0114 86B2     		uxth	r6, r0
 457:Service/Srv_Actuator.c ****         {
 693              		.loc 1 457 12 view .LVU200
 694 0116 B142     		cmp	r1, r6
 695 0118 DAD8     		bhi	.L49
 459:Service/Srv_Actuator.c ****         }
 696              		.loc 1 459 13 is_stmt 1 view .LVU201
 459:Service/Srv_Actuator.c ****         }
 697              		.loc 1 459 62 is_stmt 0 view .LVU202
 698 011a 5080     		strh	r0, [r2, #2]	@ unaligned
 699 011c DDE7     		b	.L50
 700              	.LVL32:
 701              	.L53:
 459:Service/Srv_Actuator.c ****         }
 702              		.loc 1 459 62 view .LVU203
 703              	.LBE9:
 434:Service/Srv_Actuator.c **** 
 704              		.loc 1 434 16 view .LVU204
 705 011e 0025     		movs	r5, #0
 706              	.LVL33:
 707              	.L43:
 471:Service/Srv_Actuator.c **** 
 472:Service/Srv_Actuator.c ****         default:
 473:Service/Srv_Actuator.c ****             return;
 474:Service/Srv_Actuator.c ****         }
 475:Service/Srv_Actuator.c ****     }
 476:Service/Srv_Actuator.c **** 
 477:Service/Srv_Actuator.c ****     return true;
 478:Service/Srv_Actuator.c **** }...
 708              		.loc 1 478 1 view .LVU205
 709 0120 2846     		mov	r0, r5
 710 0122 70BD     		pop	{r4, r5, r6, pc}
 711              	.L56:
 712              		.align	2
ARM GAS  C:\Users\HUAV\AppData\Local\Temp\cceh0wp1.s 			page 23


 713              	.L55:
 714 0124 00000000 		.word	SrvActuator_Obj
 715 0128 0000C842 		.word	1120403456
 716 012c 00000000 		.word	DevDshot
 717              		.cfi_endproc
 718              	.LFE161:
 720              		.section	.text.SrvActuator_PipeData,"ax",%progbits
 721              		.align	1
 722              		.syntax unified
 723              		.thumb
 724              		.thumb_func
 725              		.fpu fpv5-d16
 727              	SrvActuator_PipeData:
 728              	.LFB160:
 393:Service/Srv_Actuator.c **** {
 729              		.loc 1 393 1 is_stmt 1 view -0
 730              		.cfi_startproc
 731              		@ args = 0, pretend = 0, frame = 0
 732              		@ frame_needed = 0, uses_anonymous_args = 0
 733 0000 70B5     		push	{r4, r5, r6, lr}
 734              	.LCFI7:
 735              		.cfi_def_cfa_offset 16
 736              		.cfi_offset 4, -16
 737              		.cfi_offset 5, -12
 738              		.cfi_offset 6, -8
 739              		.cfi_offset 14, -4
 394:Service/Srv_Actuator.c ****     DataPipe_DataObj(Actuator_Data).time_stamp = Get_CurrentRunningMs();
 740              		.loc 1 394 5 view .LVU207
 394:Service/Srv_Actuator.c ****     DataPipe_DataObj(Actuator_Data).time_stamp = Get_CurrentRunningMs();
 741              		.loc 1 394 50 is_stmt 0 view .LVU208
 742 0002 FFF7FEFF 		bl	Get_CurrentRunningMs
 743              	.LVL34:
 394:Service/Srv_Actuator.c ****     DataPipe_DataObj(Actuator_Data).time_stamp = Get_CurrentRunningMs();
 744              		.loc 1 394 48 view .LVU209
 745 0006 1E4B     		ldr	r3, .L64
 746 0008 1860     		str	r0, [r3]
 747 000a 5960     		str	r1, [r3, #4]
 395:Service/Srv_Actuator.c ****     DataPipe_DataObj(Actuator_Data).moto_cnt = SrvActuator_Obj.drive_module.num.moto_cnt;
 748              		.loc 1 395 5 is_stmt 1 view .LVU210
 395:Service/Srv_Actuator.c ****     DataPipe_DataObj(Actuator_Data).moto_cnt = SrvActuator_Obj.drive_module.num.moto_cnt;
 749              		.loc 1 395 80 is_stmt 0 view .LVU211
 750 000c 1D4A     		ldr	r2, .L64+4
 751 000e D478     		ldrb	r4, [r2, #3]	@ zero_extendqisi2
 395:Service/Srv_Actuator.c ****     DataPipe_DataObj(Actuator_Data).moto_cnt = SrvActuator_Obj.drive_module.num.moto_cnt;
 752              		.loc 1 395 46 view .LVU212
 753 0010 1C72     		strb	r4, [r3, #8]
 396:Service/Srv_Actuator.c ****     DataPipe_DataObj(Actuator_Data).servo_cnt = SrvActuator_Obj.drive_module.num.servo_cnt;
 754              		.loc 1 396 5 is_stmt 1 view .LVU213
 396:Service/Srv_Actuator.c ****     DataPipe_DataObj(Actuator_Data).servo_cnt = SrvActuator_Obj.drive_module.num.servo_cnt;
 755              		.loc 1 396 81 is_stmt 0 view .LVU214
 756 0012 1279     		ldrb	r2, [r2, #4]	@ zero_extendqisi2
 396:Service/Srv_Actuator.c ****     DataPipe_DataObj(Actuator_Data).servo_cnt = SrvActuator_Obj.drive_module.num.servo_cnt;
 757              		.loc 1 396 47 view .LVU215
 758 0014 5A72     		strb	r2, [r3, #9]
 398:Service/Srv_Actuator.c ****     for (uint8_t i = 0; i < SrvActuator_Obj.drive_module.num.total_cnt; i++)
 759              		.loc 1 398 5 is_stmt 1 view .LVU216
 760              	.LBB10:
ARM GAS  C:\Users\HUAV\AppData\Local\Temp\cceh0wp1.s 			page 24


 398:Service/Srv_Actuator.c ****     for (uint8_t i = 0; i < SrvActuator_Obj.drive_module.num.total_cnt; i++)
 761              		.loc 1 398 10 view .LVU217
 762              	.LVL35:
 398:Service/Srv_Actuator.c ****     for (uint8_t i = 0; i < SrvActuator_Obj.drive_module.num.total_cnt; i++)
 763              		.loc 1 398 18 is_stmt 0 view .LVU218
 764 0016 0023     		movs	r3, #0
 398:Service/Srv_Actuator.c ****     for (uint8_t i = 0; i < SrvActuator_Obj.drive_module.num.total_cnt; i++)
 765              		.loc 1 398 5 view .LVU219
 766 0018 14E0     		b	.L58
 767              	.LVL36:
 768              	.L59:
 407:Service/Srv_Actuator.c ****             DataPipe_DataObj(Actuator_Data).servo_dir[i - SrvActuator_Obj.drive_module.num.moto_cnt
 769              		.loc 1 407 13 is_stmt 1 view .LVU220
 407:Service/Srv_Actuator.c ****             DataPipe_DataObj(Actuator_Data).servo_dir[i - SrvActuator_Obj.drive_module.num.moto_cnt
 770              		.loc 1 407 132 is_stmt 0 view .LVU221
 771 001a 1A4A     		ldr	r2, .L64+4
 772 001c D2F80500 		ldr	r0, [r2, #5]	@ unaligned
 407:Service/Srv_Actuator.c ****             DataPipe_DataObj(Actuator_Data).servo_dir[i - SrvActuator_Obj.drive_module.num.moto_cnt
 773              		.loc 1 407 141 view .LVU222
 774 0020 03EB4302 		add	r2, r3, r3, lsl #1
 775 0024 C2EBC202 		rsb	r2, r2, r2, lsl #3
 776 0028 1044     		add	r0, r0, r2
 407:Service/Srv_Actuator.c ****             DataPipe_DataObj(Actuator_Data).servo_dir[i - SrvActuator_Obj.drive_module.num.moto_cnt
 777              		.loc 1 407 57 view .LVU223
 778 002a 191B     		subs	r1, r3, r4
 407:Service/Srv_Actuator.c ****             DataPipe_DataObj(Actuator_Data).servo_dir[i - SrvActuator_Obj.drive_module.num.moto_cnt
 779              		.loc 1 407 144 view .LVU224
 780 002c 067D     		ldrb	r6, [r0, #20]	@ zero_extendqisi2
 407:Service/Srv_Actuator.c ****             DataPipe_DataObj(Actuator_Data).servo_dir[i - SrvActuator_Obj.drive_module.num.moto_cnt
 781              		.loc 1 407 102 view .LVU225
 782 002e 144A     		ldr	r2, .L64
 783 0030 5518     		adds	r5, r2, r1
 784 0032 85F83260 		strb	r6, [r5, #50]
 408:Service/Srv_Actuator.c ****             DataPipe_DataObj(Actuator_Data).servo[i - SrvActuator_Obj.drive_module.num.moto_cnt] = 
 785              		.loc 1 408 13 is_stmt 1 view .LVU226
 408:Service/Srv_Actuator.c ****             DataPipe_DataObj(Actuator_Data).servo[i - SrvActuator_Obj.drive_module.num.moto_cnt] = 
 786              		.loc 1 408 140 is_stmt 0 view .LVU227
 787 0036 4088     		ldrh	r0, [r0, #2]	@ unaligned
 408:Service/Srv_Actuator.c ****             DataPipe_DataObj(Actuator_Data).servo[i - SrvActuator_Obj.drive_module.num.moto_cnt] = 
 788              		.loc 1 408 98 view .LVU228
 789 0038 0C31     		adds	r1, r1, #12
 790 003a 02EB4102 		add	r2, r2, r1, lsl #1
 791 003e 5080     		strh	r0, [r2, #2]	@ movhi
 792              	.L60:
 398:Service/Srv_Actuator.c ****     for (uint8_t i = 0; i < SrvActuator_Obj.drive_module.num.total_cnt; i++)
 793              		.loc 1 398 73 is_stmt 1 discriminator 2 view .LVU229
 398:Service/Srv_Actuator.c ****     for (uint8_t i = 0; i < SrvActuator_Obj.drive_module.num.total_cnt; i++)
 794              		.loc 1 398 74 is_stmt 0 discriminator 2 view .LVU230
 795 0040 0133     		adds	r3, r3, #1
 796              	.LVL37:
 398:Service/Srv_Actuator.c ****     for (uint8_t i = 0; i < SrvActuator_Obj.drive_module.num.total_cnt; i++)
 797              		.loc 1 398 74 discriminator 2 view .LVU231
 798 0042 DBB2     		uxtb	r3, r3
 799              	.LVL38:
 800              	.L58:
 398:Service/Srv_Actuator.c ****     for (uint8_t i = 0; i < SrvActuator_Obj.drive_module.num.total_cnt; i++)
 801              		.loc 1 398 25 is_stmt 1 discriminator 1 view .LVU232
ARM GAS  C:\Users\HUAV\AppData\Local\Temp\cceh0wp1.s 			page 25


 398:Service/Srv_Actuator.c ****     for (uint8_t i = 0; i < SrvActuator_Obj.drive_module.num.total_cnt; i++)
 802              		.loc 1 398 61 is_stmt 0 discriminator 1 view .LVU233
 803 0044 0F4A     		ldr	r2, .L64+4
 804 0046 9278     		ldrb	r2, [r2, #2]	@ zero_extendqisi2
 398:Service/Srv_Actuator.c ****     for (uint8_t i = 0; i < SrvActuator_Obj.drive_module.num.total_cnt; i++)
 805              		.loc 1 398 5 discriminator 1 view .LVU234
 806 0048 9A42     		cmp	r2, r3
 807 004a 14D9     		bls	.L63
 400:Service/Srv_Actuator.c ****         if (i < SrvActuator_Obj.drive_module.num.moto_cnt)
 808              		.loc 1 400 9 is_stmt 1 view .LVU235
 400:Service/Srv_Actuator.c ****         if (i < SrvActuator_Obj.drive_module.num.moto_cnt)
 809              		.loc 1 400 12 is_stmt 0 view .LVU236
 810 004c 9C42     		cmp	r4, r3
 811 004e E4D9     		bls	.L59
 402:Service/Srv_Actuator.c ****             DataPipe_DataObj(Actuator_Data).moto[i] = SrvActuator_Obj.drive_module.obj_list[i].ctl_
 812              		.loc 1 402 13 is_stmt 1 view .LVU237
 402:Service/Srv_Actuator.c ****             DataPipe_DataObj(Actuator_Data).moto[i] = SrvActuator_Obj.drive_module.obj_list[i].ctl_
 813              		.loc 1 402 83 is_stmt 0 view .LVU238
 814 0050 0C4A     		ldr	r2, .L64+4
 815 0052 D2F80510 		ldr	r1, [r2, #5]	@ unaligned
 402:Service/Srv_Actuator.c ****             DataPipe_DataObj(Actuator_Data).moto[i] = SrvActuator_Obj.drive_module.obj_list[i].ctl_
 816              		.loc 1 402 92 view .LVU239
 817 0056 03EB4302 		add	r2, r3, r3, lsl #1
 818 005a C2EBC202 		rsb	r2, r2, r2, lsl #3
 819 005e 1144     		add	r1, r1, r2
 402:Service/Srv_Actuator.c ****             DataPipe_DataObj(Actuator_Data).moto[i] = SrvActuator_Obj.drive_module.obj_list[i].ctl_
 820              		.loc 1 402 95 view .LVU240
 821 0060 4D88     		ldrh	r5, [r1, #2]	@ unaligned
 402:Service/Srv_Actuator.c ****             DataPipe_DataObj(Actuator_Data).moto[i] = SrvActuator_Obj.drive_module.obj_list[i].ctl_
 822              		.loc 1 402 53 view .LVU241
 823 0062 074A     		ldr	r2, .L64
 824 0064 181D     		adds	r0, r3, #4
 825 0066 02EB4000 		add	r0, r2, r0, lsl #1
 826 006a 4580     		strh	r5, [r0, #2]	@ movhi
 403:Service/Srv_Actuator.c ****             DataPipe_DataObj(Actuator_Data).moto_dir[i] = SrvActuator_Obj.drive_module.obj_list[i].
 827              		.loc 1 403 13 is_stmt 1 view .LVU242
 403:Service/Srv_Actuator.c ****             DataPipe_DataObj(Actuator_Data).moto_dir[i] = SrvActuator_Obj.drive_module.obj_list[i].
 828              		.loc 1 403 99 is_stmt 0 view .LVU243
 829 006c 097D     		ldrb	r1, [r1, #20]	@ zero_extendqisi2
 403:Service/Srv_Actuator.c ****             DataPipe_DataObj(Actuator_Data).moto_dir[i] = SrvActuator_Obj.drive_module.obj_list[i].
 830              		.loc 1 403 57 view .LVU244
 831 006e 1A44     		add	r2, r2, r3
 832 0070 82F82A10 		strb	r1, [r2, #42]
 833 0074 E4E7     		b	.L60
 834              	.L63:
 835              	.LBE10:
 412:Service/Srv_Actuator.c ****     DataPipe_SendTo(&Actuator_cal_DataPipe, &Actuator_hub_DataPipe);
 836              		.loc 1 412 5 is_stmt 1 view .LVU245
 837 0076 0449     		ldr	r1, .L64+8
 838 0078 0448     		ldr	r0, .L64+12
 839 007a FFF7FEFF 		bl	DataPipe_SendTo
 840              	.LVL39:
 413:Service/Srv_Actuator.c **** }
 841              		.loc 1 413 1 is_stmt 0 view .LVU246
 842 007e 70BD     		pop	{r4, r5, r6, pc}
 843              	.L65:
 844              		.align	2
ARM GAS  C:\Users\HUAV\AppData\Local\Temp\cceh0wp1.s 			page 26


 845              	.L64:
 846 0080 00000000 		.word	.LANCHOR0
 847 0084 00000000 		.word	SrvActuator_Obj
 848 0088 00000000 		.word	Actuator_hub_DataPipe
 849 008c 00000000 		.word	Actuator_cal_DataPipe
 850              		.cfi_endproc
 851              	.LFE160:
 853              		.section	.text.SrvActuator_MotoControl,"ax",%progbits
 854              		.align	1
 855              		.syntax unified
 856              		.thumb
 857              		.thumb_func
 858              		.fpu fpv5-d16
 860              	SrvActuator_MotoControl:
 861              	.LVL40:
 862              	.LFB153:
 262:Service/Srv_Actuator.c **** {
 863              		.loc 1 262 1 is_stmt 1 view -0
 864              		.cfi_startproc
 865              		@ args = 0, pretend = 0, frame = 0
 866              		@ frame_needed = 0, uses_anonymous_args = 0
 263:Service/Srv_Actuator.c ****     uint8_t i = 0;
 867              		.loc 1 263 5 view .LVU248
 265:Service/Srv_Actuator.c ****     if ((p_val == NULL) || !SrvActuator_Obj.init)
 868              		.loc 1 265 5 view .LVU249
 265:Service/Srv_Actuator.c ****     if ((p_val == NULL) || !SrvActuator_Obj.init)
 869              		.loc 1 265 8 is_stmt 0 view .LVU250
 870 0000 60B1     		cbz	r0, .L69
 262:Service/Srv_Actuator.c **** {
 871              		.loc 1 262 1 discriminator 1 view .LVU251
 872 0002 08B5     		push	{r3, lr}
 873              	.LCFI8:
 874              		.cfi_def_cfa_offset 8
 875              		.cfi_offset 3, -8
 876              		.cfi_offset 14, -4
 265:Service/Srv_Actuator.c ****     if ((p_val == NULL) || !SrvActuator_Obj.init)
 877              		.loc 1 265 44 discriminator 1 view .LVU252
 878 0004 064B     		ldr	r3, .L73
 879 0006 5B78     		ldrb	r3, [r3, #1]	@ zero_extendqisi2
 265:Service/Srv_Actuator.c ****     if ((p_val == NULL) || !SrvActuator_Obj.init)
 880              		.loc 1 265 25 discriminator 1 view .LVU253
 881 0008 13B1     		cbz	r3, .L66
 268:Service/Srv_Actuator.c ****     switch (SrvActuator_Obj.model)
 882              		.loc 1 268 5 is_stmt 1 view .LVU254
 268:Service/Srv_Actuator.c ****     switch (SrvActuator_Obj.model)
 883              		.loc 1 268 28 is_stmt 0 view .LVU255
 884 000a 054B     		ldr	r3, .L73
 885 000c 1B78     		ldrb	r3, [r3]	@ zero_extendqisi2
 268:Service/Srv_Actuator.c ****     switch (SrvActuator_Obj.model)
 886              		.loc 1 268 5 view .LVU256
 887 000e 03B1     		cbz	r3, .L72
 888              	.LVL41:
 889              	.L66:
 279:Service/Srv_Actuator.c **** }
 890              		.loc 1 279 1 view .LVU257
 891 0010 08BD     		pop	{r3, pc}
 892              	.LVL42:
ARM GAS  C:\Users\HUAV\AppData\Local\Temp\cceh0wp1.s 			page 27


 893              	.L72:
 271:Service/Srv_Actuator.c ****         SrvActuator_QuadDrone_MotoMixControl(p_val);
 894              		.loc 1 271 9 is_stmt 1 view .LVU258
 895 0012 FFF7FEFF 		bl	SrvActuator_QuadDrone_MotoMixControl
 896              	.LVL43:
 272:Service/Srv_Actuator.c ****         break;
 897              		.loc 1 272 9 view .LVU259
 278:Service/Srv_Actuator.c ****     SrvActuator_PipeData();
 898              		.loc 1 278 5 view .LVU260
 899 0016 FFF7FEFF 		bl	SrvActuator_PipeData
 900              	.LVL44:
 901 001a F9E7     		b	.L66
 902              	.LVL45:
 903              	.L69:
 904              	.LCFI9:
 905              		.cfi_def_cfa_offset 0
 906              		.cfi_restore 3
 907              		.cfi_restore 14
 278:Service/Srv_Actuator.c ****     SrvActuator_PipeData();
 908              		.loc 1 278 5 is_stmt 0 view .LVU261
 909 001c 7047     		bx	lr
 910              	.L74:
 911 001e 00BF     		.align	2
 912              	.L73:
 913 0020 00000000 		.word	SrvActuator_Obj
 914              		.cfi_endproc
 915              	.LFE153:
 917              		.section	.text.SrvActuator_Lock,"ax",%progbits
 918              		.align	1
 919              		.syntax unified
 920              		.thumb
 921              		.thumb_func
 922              		.fpu fpv5-d16
 924              	SrvActuator_Lock:
 925              	.LFB152:
 234:Service/Srv_Actuator.c **** {
 926              		.loc 1 234 1 is_stmt 1 view -0
 927              		.cfi_startproc
 928              		@ args = 0, pretend = 0, frame = 0
 929              		@ frame_needed = 0, uses_anonymous_args = 0
 930 0000 10B5     		push	{r4, lr}
 931              	.LCFI10:
 932              		.cfi_def_cfa_offset 8
 933              		.cfi_offset 4, -8
 934              		.cfi_offset 14, -4
 235:Service/Srv_Actuator.c ****     uint8_t i = 0;
 935              		.loc 1 235 5 view .LVU263
 936              	.LVL46:
 237:Service/Srv_Actuator.c ****     if (!SrvActuator_Obj.init)
 937              		.loc 1 237 5 view .LVU264
 237:Service/Srv_Actuator.c ****     if (!SrvActuator_Obj.init)
 938              		.loc 1 237 25 is_stmt 0 view .LVU265
 939 0002 144B     		ldr	r3, .L87
 940 0004 5C78     		ldrb	r4, [r3, #1]	@ zero_extendqisi2
 237:Service/Srv_Actuator.c ****     if (!SrvActuator_Obj.init)
 941              		.loc 1 237 8 view .LVU266
 942 0006 BCB1     		cbz	r4, .L75
ARM GAS  C:\Users\HUAV\AppData\Local\Temp\cceh0wp1.s 			page 28


 240:Service/Srv_Actuator.c ****     for (i = 0; i < SrvActuator_Obj.drive_module.num.total_cnt; i++)
 943              		.loc 1 240 12 view .LVU267
 944 0008 0022     		movs	r2, #0
 945              	.LVL47:
 946              	.L76:
 240:Service/Srv_Actuator.c ****     for (i = 0; i < SrvActuator_Obj.drive_module.num.total_cnt; i++)
 947              		.loc 1 240 17 is_stmt 1 discriminator 1 view .LVU268
 240:Service/Srv_Actuator.c ****     for (i = 0; i < SrvActuator_Obj.drive_module.num.total_cnt; i++)
 948              		.loc 1 240 53 is_stmt 0 discriminator 1 view .LVU269
 949 000a 124B     		ldr	r3, .L87
 950 000c 9B78     		ldrb	r3, [r3, #2]	@ zero_extendqisi2
 240:Service/Srv_Actuator.c ****     for (i = 0; i < SrvActuator_Obj.drive_module.num.total_cnt; i++)
 951              		.loc 1 240 5 discriminator 1 view .LVU270
 952 000e 9342     		cmp	r3, r2
 953 0010 1CD9     		bls	.L84
 242:Service/Srv_Actuator.c ****         switch (SrvActuator_Obj.drive_module.obj_list[i].drv_type)
 954              		.loc 1 242 9 is_stmt 1 view .LVU271
 242:Service/Srv_Actuator.c ****         switch (SrvActuator_Obj.drive_module.obj_list[i].drv_type)
 955              		.loc 1 242 45 is_stmt 0 view .LVU272
 956 0012 104B     		ldr	r3, .L87
 957 0014 D3F80510 		ldr	r1, [r3, #5]	@ unaligned
 242:Service/Srv_Actuator.c ****         switch (SrvActuator_Obj.drive_module.obj_list[i].drv_type)
 958              		.loc 1 242 54 view .LVU273
 959 0018 02EB4203 		add	r3, r2, r2, lsl #1
 960 001c C3EBC303 		rsb	r3, r3, r3, lsl #3
 961 0020 C818     		adds	r0, r1, r3
 242:Service/Srv_Actuator.c ****         switch (SrvActuator_Obj.drive_module.obj_list[i].drv_type)
 962              		.loc 1 242 57 view .LVU274
 963 0022 CB5C     		ldrb	r3, [r1, r3]	@ zero_extendqisi2
 242:Service/Srv_Actuator.c ****         switch (SrvActuator_Obj.drive_module.obj_list[i].drv_type)
 964              		.loc 1 242 9 view .LVU275
 965 0024 032B     		cmp	r3, #3
 966 0026 04D9     		bls	.L85
 967 0028 042B     		cmp	r3, #4
 968 002a 07D1     		bne	.L86
 251:Service/Srv_Actuator.c ****             break;
 969              		.loc 1 251 13 is_stmt 1 discriminator 2 view .LVU276
 240:Service/Srv_Actuator.c ****     for (i = 0; i < SrvActuator_Obj.drive_module.num.total_cnt; i++)
 970              		.loc 1 240 65 discriminator 2 view .LVU277
 240:Service/Srv_Actuator.c ****     for (i = 0; i < SrvActuator_Obj.drive_module.num.total_cnt; i++)
 971              		.loc 1 240 66 is_stmt 0 discriminator 2 view .LVU278
 972 002c 0132     		adds	r2, r2, #1
 973              	.LVL48:
 240:Service/Srv_Actuator.c ****     for (i = 0; i < SrvActuator_Obj.drive_module.num.total_cnt; i++)
 974              		.loc 1 240 66 discriminator 2 view .LVU279
 975 002e D2B2     		uxtb	r2, r2
 976              	.LVL49:
 240:Service/Srv_Actuator.c ****     for (i = 0; i < SrvActuator_Obj.drive_module.num.total_cnt; i++)
 977              		.loc 1 240 66 discriminator 2 view .LVU280
 978 0030 EBE7     		b	.L76
 979              	.L85:
 242:Service/Srv_Actuator.c ****         switch (SrvActuator_Obj.drive_module.obj_list[i].drv_type)
 980              		.loc 1 242 9 view .LVU281
 981 0032 5BB2     		sxtb	r3, r3
 982 0034 23B9     		cbnz	r3, .L79
 983 0036 0024     		movs	r4, #0
 984              	.LVL50:
ARM GAS  C:\Users\HUAV\AppData\Local\Temp\cceh0wp1.s 			page 29


 985              	.L75:
 259:Service/Srv_Actuator.c **** }
 986              		.loc 1 259 1 view .LVU282
 987 0038 2046     		mov	r0, r4
 988 003a 10BD     		pop	{r4, pc}
 989              	.LVL51:
 990              	.L86:
 242:Service/Srv_Actuator.c ****         switch (SrvActuator_Obj.drive_module.obj_list[i].drv_type)
 991              		.loc 1 242 9 view .LVU283
 992 003c 0024     		movs	r4, #0
 993 003e FBE7     		b	.L75
 994              	.L79:
 247:Service/Srv_Actuator.c ****             DevDshot.control(SrvActuator_Obj.drive_module.obj_list[i].drv_obj, SrvActuator_Obj.driv
 995              		.loc 1 247 13 is_stmt 1 view .LVU284
 247:Service/Srv_Actuator.c ****             DevDshot.control(SrvActuator_Obj.drive_module.obj_list[i].drv_obj, SrvActuator_Obj.driv
 996              		.loc 1 247 21 is_stmt 0 view .LVU285
 997 0040 054B     		ldr	r3, .L87+4
 998 0042 9B68     		ldr	r3, [r3, #8]
 247:Service/Srv_Actuator.c ****             DevDshot.control(SrvActuator_Obj.drive_module.obj_list[i].drv_obj, SrvActuator_Obj.driv
 999              		.loc 1 247 13 view .LVU286
 1000 0044 4189     		ldrh	r1, [r0, #10]	@ unaligned
 1001 0046 0069     		ldr	r0, [r0, #16]	@ unaligned
 1002 0048 9847     		blx	r3
 1003              	.LVL52:
 248:Service/Srv_Actuator.c ****             return true;
 1004              		.loc 1 248 13 is_stmt 1 view .LVU287
 248:Service/Srv_Actuator.c ****             return true;
 1005              		.loc 1 248 20 is_stmt 0 view .LVU288
 1006 004a F5E7     		b	.L75
 1007              	.LVL53:
 1008              	.L84:
 258:Service/Srv_Actuator.c ****     SrvActuator_PipeData();
 1009              		.loc 1 258 5 is_stmt 1 view .LVU289
 1010 004c FFF7FEFF 		bl	SrvActuator_PipeData
 1011              	.LVL54:
 259:Service/Srv_Actuator.c **** }
 1012              		.loc 1 259 1 is_stmt 0 view .LVU290
 1013 0050 F2E7     		b	.L75
 1014              	.L88:
 1015 0052 00BF     		.align	2
 1016              	.L87:
 1017 0054 00000000 		.word	SrvActuator_Obj
 1018 0058 00000000 		.word	DevDshot
 1019              		.cfi_endproc
 1020              	.LFE152:
 1022              		.section	.text.SrcActuator_Get_ChannelRemap,"ax",%progbits
 1023              		.align	1
 1024              		.syntax unified
 1025              		.thumb
 1026              		.thumb_func
 1027              		.fpu fpv5-d16
 1029              	SrcActuator_Get_ChannelRemap:
 1030              	.LFB151:
 202:Service/Srv_Actuator.c **** {
 1031              		.loc 1 202 1 is_stmt 1 view -0
 1032              		.cfi_startproc
 1033              		@ args = 0, pretend = 0, frame = 0
ARM GAS  C:\Users\HUAV\AppData\Local\Temp\cceh0wp1.s 			page 30


 1034              		@ frame_needed = 1, uses_anonymous_args = 0
 1035 0000 2DE9F041 		push	{r4, r5, r6, r7, r8, lr}
 1036              	.LCFI11:
 1037              		.cfi_def_cfa_offset 24
 1038              		.cfi_offset 4, -24
 1039              		.cfi_offset 5, -20
 1040              		.cfi_offset 6, -16
 1041              		.cfi_offset 7, -12
 1042              		.cfi_offset 8, -8
 1043              		.cfi_offset 14, -4
 1044 0004 84B0     		sub	sp, sp, #16
 1045              	.LCFI12:
 1046              		.cfi_def_cfa_offset 40
 1047 0006 04AF     		add	r7, sp, #16
 1048              	.LCFI13:
 1049              		.cfi_def_cfa 7, 24
 203:Service/Srv_Actuator.c ****     uint8_t storage_serial[SrvActuator_Obj.drive_module.num.moto_cnt + SrvActuator_Obj.drive_module
 1050              		.loc 1 203 5 view .LVU292
 203:Service/Srv_Actuator.c ****     uint8_t storage_serial[SrvActuator_Obj.drive_module.num.moto_cnt + SrvActuator_Obj.drive_module
 1051              		.loc 1 203 60 is_stmt 0 view .LVU293
 1052 0008 294C     		ldr	r4, .L98
 1053 000a E278     		ldrb	r2, [r4, #3]	@ zero_extendqisi2
 203:Service/Srv_Actuator.c ****     uint8_t storage_serial[SrvActuator_Obj.drive_module.num.moto_cnt + SrvActuator_Obj.drive_module
 1054              		.loc 1 203 104 view .LVU294
 1055 000c 2379     		ldrb	r3, [r4, #4]	@ zero_extendqisi2
 203:Service/Srv_Actuator.c ****     uint8_t storage_serial[SrvActuator_Obj.drive_module.num.moto_cnt + SrvActuator_Obj.drive_module
 1056              		.loc 1 203 70 view .LVU295
 1057 000e 1A44     		add	r2, r2, r3
 1058              	.LVL55:
 203:Service/Srv_Actuator.c ****     uint8_t storage_serial[SrvActuator_Obj.drive_module.num.moto_cnt + SrvActuator_Obj.drive_module
 1059              		.loc 1 203 13 view .LVU296
 1060 0010 D31D     		adds	r3, r2, #7
 1061 0012 03F47E73 		and	r3, r3, #1016
 1062 0016 ADEB030D 		sub	sp, sp, r3
 1063 001a 04A8     		add	r0, sp, #16
 1064 001c 0646     		mov	r6, r0
 1065              	.LVL56:
 204:Service/Srv_Actuator.c ****     SrvActuator_PeriphSet_TypeDef *periph_ptr = NULL;
 1066              		.loc 1 204 5 is_stmt 1 view .LVU297
 207:Service/Srv_Actuator.c ****     memcpy(storage_serial, default_sig_serial, sizeof(storage_serial)); // only for develop stage..
 1067              		.loc 1 207 5 view .LVU298
 1068 001e 2549     		ldr	r1, .L98+4
 1069 0020 FFF7FEFF 		bl	memcpy
 1070              	.LVL57:
 210:Service/Srv_Actuator.c ****     if (SrvActuator_Obj.drive_module.num.moto_cnt)
 1071              		.loc 1 210 5 view .LVU299
 210:Service/Srv_Actuator.c ****     if (SrvActuator_Obj.drive_module.num.moto_cnt)
 1072              		.loc 1 210 41 is_stmt 0 view .LVU300
 1073 0024 E378     		ldrb	r3, [r4, #3]	@ zero_extendqisi2
 210:Service/Srv_Actuator.c ****     if (SrvActuator_Obj.drive_module.num.moto_cnt)
 1074              		.loc 1 210 8 view .LVU301
 1075 0026 33B9     		cbnz	r3, .L96
 1076              	.LVL58:
 1077              	.L91:
 225:Service/Srv_Actuator.c ****     if (SrvActuator_Obj.drive_module.num.servo_cnt)
 1078              		.loc 1 225 5 is_stmt 1 view .LVU302
 225:Service/Srv_Actuator.c ****     if (SrvActuator_Obj.drive_module.num.servo_cnt)
ARM GAS  C:\Users\HUAV\AppData\Local\Temp\cceh0wp1.s 			page 31


 1079              		.loc 1 225 41 is_stmt 0 view .LVU303
 1080 0028 214B     		ldr	r3, .L98
 1081 002a 1B79     		ldrb	r3, [r3, #4]	@ zero_extendqisi2
 225:Service/Srv_Actuator.c ****     if (SrvActuator_Obj.drive_module.num.servo_cnt)
 1082              		.loc 1 225 8 view .LVU304
 1083 002c 002B     		cmp	r3, #0
 1084 002e 3BD0     		beq	.L89
 227:Service/Srv_Actuator.c ****         for (uint8_t i = SrvActuator_Obj.drive_module.num.moto_cnt; i < SrvActuator_Obj.drive_modul
 1085              		.loc 1 227 9 is_stmt 1 view .LVU305
 1086              	.LBB11:
 227:Service/Srv_Actuator.c ****         for (uint8_t i = SrvActuator_Obj.drive_module.num.moto_cnt; i < SrvActuator_Obj.drive_modul
 1087              		.loc 1 227 14 view .LVU306
 227:Service/Srv_Actuator.c ****         for (uint8_t i = SrvActuator_Obj.drive_module.num.moto_cnt; i < SrvActuator_Obj.drive_modul
 1088              		.loc 1 227 22 is_stmt 0 view .LVU307
 1089 0030 1F4B     		ldr	r3, .L98
 1090 0032 DB78     		ldrb	r3, [r3, #3]	@ zero_extendqisi2
 1091              	.LVL59:
 227:Service/Srv_Actuator.c ****         for (uint8_t i = SrvActuator_Obj.drive_module.num.moto_cnt; i < SrvActuator_Obj.drive_modul
 1092              		.loc 1 227 9 view .LVU308
 1093 0034 34E0     		b	.L94
 1094              	.LVL60:
 1095              	.L96:
 227:Service/Srv_Actuator.c ****         for (uint8_t i = SrvActuator_Obj.drive_module.num.moto_cnt; i < SrvActuator_Obj.drive_modul
 1096              		.loc 1 227 9 view .LVU309
 1097              	.LBE11:
 1098              	.LBB12:
 212:Service/Srv_Actuator.c ****         for (uint8_t i = 0; i < SrvActuator_Obj.drive_module.num.moto_cnt; i++)
 1099              		.loc 1 212 22 view .LVU310
 1100 0036 0025     		movs	r5, #0
 1101              	.LVL61:
 1102              	.L90:
 212:Service/Srv_Actuator.c ****         for (uint8_t i = 0; i < SrvActuator_Obj.drive_module.num.moto_cnt; i++)
 1103              		.loc 1 212 29 is_stmt 1 discriminator 1 view .LVU311
 212:Service/Srv_Actuator.c ****         for (uint8_t i = 0; i < SrvActuator_Obj.drive_module.num.moto_cnt; i++)
 1104              		.loc 1 212 65 is_stmt 0 discriminator 1 view .LVU312
 1105 0038 1D4B     		ldr	r3, .L98
 1106 003a DB78     		ldrb	r3, [r3, #3]	@ zero_extendqisi2
 212:Service/Srv_Actuator.c ****         for (uint8_t i = 0; i < SrvActuator_Obj.drive_module.num.moto_cnt; i++)
 1107              		.loc 1 212 9 discriminator 1 view .LVU313
 1108 003c 9D42     		cmp	r5, r3
 1109 003e F3D2     		bcs	.L91
 214:Service/Srv_Actuator.c ****             SrvActuator_Obj.drive_module.obj_list[i].sig_id = storage_serial[storage_serial[i]];
 1110              		.loc 1 214 13 is_stmt 1 discriminator 3 view .LVU314
 214:Service/Srv_Actuator.c ****             SrvActuator_Obj.drive_module.obj_list[i].sig_id = storage_serial[storage_serial[i]];
 1111              		.loc 1 214 92 is_stmt 0 discriminator 3 view .LVU315
 1112 0040 705D     		ldrb	r0, [r6, r5]	@ zero_extendqisi2
 214:Service/Srv_Actuator.c ****             SrvActuator_Obj.drive_module.obj_list[i].sig_id = storage_serial[storage_serial[i]];
 1113              		.loc 1 214 41 discriminator 3 view .LVU316
 1114 0042 1B49     		ldr	r1, .L98
 1115 0044 D1F80530 		ldr	r3, [r1, #5]	@ unaligned
 214:Service/Srv_Actuator.c ****             SrvActuator_Obj.drive_module.obj_list[i].sig_id = storage_serial[storage_serial[i]];
 1116              		.loc 1 214 50 discriminator 3 view .LVU317
 1117 0048 05EB4502 		add	r2, r5, r5, lsl #1
 1118 004c C2EBC202 		rsb	r2, r2, r2, lsl #3
 1119 0050 1344     		add	r3, r3, r2
 214:Service/Srv_Actuator.c ****             SrvActuator_Obj.drive_module.obj_list[i].sig_id = storage_serial[storage_serial[i]];
 1120              		.loc 1 214 77 discriminator 3 view .LVU318
ARM GAS  C:\Users\HUAV\AppData\Local\Temp\cceh0wp1.s 			page 32


 1121 0052 305C     		ldrb	r0, [r6, r0]	@ zero_extendqisi2
 214:Service/Srv_Actuator.c ****             SrvActuator_Obj.drive_module.obj_list[i].sig_id = storage_serial[storage_serial[i]];
 1122              		.loc 1 214 61 discriminator 3 view .LVU319
 1123 0054 5870     		strb	r0, [r3, #1]
 215:Service/Srv_Actuator.c ****             SrvActuator_Obj.drive_module.obj_list[i].periph_ptr = &SrvActuator_Periph_List[storage_
 1124              		.loc 1 215 13 is_stmt 1 discriminator 3 view .LVU320
 215:Service/Srv_Actuator.c ****             SrvActuator_Obj.drive_module.obj_list[i].periph_ptr = &SrvActuator_Periph_List[storage_
 1125              		.loc 1 215 106 is_stmt 0 discriminator 3 view .LVU321
 1126 0056 735D     		ldrb	r3, [r6, r5]	@ zero_extendqisi2
 215:Service/Srv_Actuator.c ****             SrvActuator_Obj.drive_module.obj_list[i].periph_ptr = &SrvActuator_Periph_List[storage_
 1127              		.loc 1 215 41 discriminator 3 view .LVU322
 1128 0058 D1F80510 		ldr	r1, [r1, #5]	@ unaligned
 215:Service/Srv_Actuator.c ****             SrvActuator_Obj.drive_module.obj_list[i].periph_ptr = &SrvActuator_Periph_List[storage_
 1129              		.loc 1 215 50 discriminator 3 view .LVU323
 1130 005c 0A44     		add	r2, r2, r1
 215:Service/Srv_Actuator.c ****             SrvActuator_Obj.drive_module.obj_list[i].periph_ptr = &SrvActuator_Periph_List[storage_
 1131              		.loc 1 215 67 discriminator 3 view .LVU324
 1132 005e C3EBC303 		rsb	r3, r3, r3, lsl #3
 1133 0062 9900     		lsls	r1, r3, #2
 1134 0064 144C     		ldr	r4, .L98+8
 1135 0066 0C44     		add	r4, r4, r1
 215:Service/Srv_Actuator.c ****             SrvActuator_Obj.drive_module.obj_list[i].periph_ptr = &SrvActuator_Periph_List[storage_
 1136              		.loc 1 215 65 discriminator 3 view .LVU325
 1137 0068 D460     		str	r4, [r2, #12]	@ unaligned
 216:Service/Srv_Actuator.c ****             periph_ptr = SrvActuator_Obj.drive_module.obj_list[i].periph_ptr;
 1138              		.loc 1 216 13 is_stmt 1 discriminator 3 view .LVU326
 1139              	.LVL62:
 218:Service/Srv_Actuator.c ****             DevDshot.init(SrvActuator_Obj.drive_module.obj_list[i].drv_obj,
 1140              		.loc 1 218 13 discriminator 3 view .LVU327
 218:Service/Srv_Actuator.c ****             DevDshot.init(SrvActuator_Obj.drive_module.obj_list[i].drv_obj,
 1141              		.loc 1 218 21 is_stmt 0 discriminator 3 view .LVU328
 1142 006a 144B     		ldr	r3, .L98+12
 1143 006c D3F80080 		ldr	r8, [r3]
 218:Service/Srv_Actuator.c ****             DevDshot.init(SrvActuator_Obj.drive_module.obj_list[i].drv_obj,
 1144              		.loc 1 218 67 discriminator 3 view .LVU329
 1145 0070 D2F810C0 		ldr	ip, [r2, #16]	@ unaligned
 220:Service/Srv_Actuator.c ****                           periph_ptr->dma, periph_ptr->dma_channel);
 1146              		.loc 1 220 37 discriminator 3 view .LVU330
 1147 0074 A368     		ldr	r3, [r4, #8]	@ unaligned
 220:Service/Srv_Actuator.c ****                           periph_ptr->dma, periph_ptr->dma_channel);
 1148              		.loc 1 220 54 discriminator 3 view .LVU331
 1149 0076 E268     		ldr	r2, [r4, #12]	@ unaligned
 218:Service/Srv_Actuator.c ****             DevDshot.init(SrvActuator_Obj.drive_module.obj_list[i].drv_obj,
 1150              		.loc 1 218 13 discriminator 3 view .LVU332
 1151 0078 D2B2     		uxtb	r2, r2
 1152 007a 0392     		str	r2, [sp, #12]
 1153 007c DBB2     		uxtb	r3, r3
 1154 007e 0293     		str	r3, [sp, #8]
 1155 0080 6B46     		mov	r3, sp
 1156 0082 2246     		mov	r2, r4
 1157 0084 52F8140F 		ldr	r0, [r2, #20]!	@ unaligned
 1158 0088 5168     		ldr	r1, [r2, #4]	@ unaligned
 1159 008a 03C3     		stmia	r3!, {r0, r1}
 1160 008c 2369     		ldr	r3, [r4, #16]	@ unaligned
 1161 008e 6268     		ldr	r2, [r4, #4]	@ unaligned
 1162 0090 2168     		ldr	r1, [r4]	@ unaligned
 1163 0092 6046     		mov	r0, ip
ARM GAS  C:\Users\HUAV\AppData\Local\Temp\cceh0wp1.s 			page 33


 1164 0094 C047     		blx	r8
 1165              	.LVL63:
 212:Service/Srv_Actuator.c ****         for (uint8_t i = 0; i < SrvActuator_Obj.drive_module.num.moto_cnt; i++)
 1166              		.loc 1 212 76 is_stmt 1 discriminator 3 view .LVU333
 212:Service/Srv_Actuator.c ****         for (uint8_t i = 0; i < SrvActuator_Obj.drive_module.num.moto_cnt; i++)
 1167              		.loc 1 212 77 is_stmt 0 discriminator 3 view .LVU334
 1168 0096 0135     		adds	r5, r5, #1
 1169              	.LVL64:
 212:Service/Srv_Actuator.c ****         for (uint8_t i = 0; i < SrvActuator_Obj.drive_module.num.moto_cnt; i++)
 1170              		.loc 1 212 77 discriminator 3 view .LVU335
 1171 0098 EDB2     		uxtb	r5, r5
 1172              	.LVL65:
 212:Service/Srv_Actuator.c ****         for (uint8_t i = 0; i < SrvActuator_Obj.drive_module.num.moto_cnt; i++)
 1173              		.loc 1 212 77 discriminator 3 view .LVU336
 1174 009a CDE7     		b	.L90
 1175              	.LVL66:
 1176              	.L95:
 212:Service/Srv_Actuator.c ****         for (uint8_t i = 0; i < SrvActuator_Obj.drive_module.num.moto_cnt; i++)
 1177              		.loc 1 212 77 discriminator 3 view .LVU337
 1178              	.LBE12:
 1179              	.LBB13:
 229:Service/Srv_Actuator.c ****         }
 1180              		.loc 1 229 9 is_stmt 1 discriminator 3 view .LVU338
 227:Service/Srv_Actuator.c ****         for (uint8_t i = SrvActuator_Obj.drive_module.num.moto_cnt; i < SrvActuator_Obj.drive_modul
 1181              		.loc 1 227 117 discriminator 3 view .LVU339
 227:Service/Srv_Actuator.c ****         for (uint8_t i = SrvActuator_Obj.drive_module.num.moto_cnt; i < SrvActuator_Obj.drive_modul
 1182              		.loc 1 227 118 is_stmt 0 discriminator 3 view .LVU340
 1183 009c 0133     		adds	r3, r3, #1
 1184              	.LVL67:
 227:Service/Srv_Actuator.c ****         for (uint8_t i = SrvActuator_Obj.drive_module.num.moto_cnt; i < SrvActuator_Obj.drive_modul
 1185              		.loc 1 227 118 discriminator 3 view .LVU341
 1186 009e DBB2     		uxtb	r3, r3
 1187              	.LVL68:
 1188              	.L94:
 227:Service/Srv_Actuator.c ****         for (uint8_t i = SrvActuator_Obj.drive_module.num.moto_cnt; i < SrvActuator_Obj.drive_modul
 1189              		.loc 1 227 69 is_stmt 1 discriminator 1 view .LVU342
 227:Service/Srv_Actuator.c ****         for (uint8_t i = SrvActuator_Obj.drive_module.num.moto_cnt; i < SrvActuator_Obj.drive_modul
 1190              		.loc 1 227 105 is_stmt 0 discriminator 1 view .LVU343
 1191 00a0 034A     		ldr	r2, .L98
 1192 00a2 9278     		ldrb	r2, [r2, #2]	@ zero_extendqisi2
 227:Service/Srv_Actuator.c ****         for (uint8_t i = SrvActuator_Obj.drive_module.num.moto_cnt; i < SrvActuator_Obj.drive_modul
 1193              		.loc 1 227 9 discriminator 1 view .LVU344
 1194 00a4 9342     		cmp	r3, r2
 1195 00a6 F9D3     		bcc	.L95
 1196              	.LVL69:
 1197              	.L89:
 227:Service/Srv_Actuator.c ****         for (uint8_t i = SrvActuator_Obj.drive_module.num.moto_cnt; i < SrvActuator_Obj.drive_modul
 1198              		.loc 1 227 9 discriminator 1 view .LVU345
 1199              	.LBE13:
 231:Service/Srv_Actuator.c **** }
 1200              		.loc 1 231 1 view .LVU346
 1201 00a8 BD46     		mov	sp, r7
 1202              	.LCFI14:
 1203              		.cfi_def_cfa_register 13
 1204              		@ sp needed
 1205 00aa BDE8F081 		pop	{r4, r5, r6, r7, r8, pc}
 1206              	.LVL70:
ARM GAS  C:\Users\HUAV\AppData\Local\Temp\cceh0wp1.s 			page 34


 1207              	.L99:
 231:Service/Srv_Actuator.c **** }
 1208              		.loc 1 231 1 view .LVU347
 1209 00ae 00BF     		.align	2
 1210              	.L98:
 1211 00b0 00000000 		.word	SrvActuator_Obj
 1212 00b4 00000000 		.word	.LANCHOR1
 1213 00b8 00000000 		.word	.LANCHOR2
 1214 00bc 00000000 		.word	DevDshot
 1215              		.cfi_endproc
 1216              	.LFE151:
 1218              		.section	.text.SrvActuator_Init,"ax",%progbits
 1219              		.align	1
 1220              		.syntax unified
 1221              		.thumb
 1222              		.thumb_func
 1223              		.fpu fpv5-d16
 1225              	SrvActuator_Init:
 1226              	.LVL71:
 1227              	.LFB150:
  83:Service/Srv_Actuator.c **** {
 1228              		.loc 1 83 1 is_stmt 1 view -0
 1229              		.cfi_startproc
 1230              		@ args = 0, pretend = 0, frame = 0
 1231              		@ frame_needed = 0, uses_anonymous_args = 0
  83:Service/Srv_Actuator.c **** {
 1232              		.loc 1 83 1 is_stmt 0 view .LVU349
 1233 0000 70B5     		push	{r4, r5, r6, lr}
 1234              	.LCFI15:
 1235              		.cfi_def_cfa_offset 16
 1236              		.cfi_offset 4, -16
 1237              		.cfi_offset 5, -12
 1238              		.cfi_offset 6, -8
 1239              		.cfi_offset 14, -4
 1240 0002 0D46     		mov	r5, r1
  84:Service/Srv_Actuator.c ****     uint8_t i = 0;
 1241              		.loc 1 84 5 is_stmt 1 view .LVU350
 1242              	.LVL72:
  85:Service/Srv_Actuator.c ****     memset(&SrvActuator_Obj, 0, sizeof(SrvActuator_Obj));
 1243              		.loc 1 85 5 view .LVU351
 1244 0004 704A     		ldr	r2, .L131
 1245 0006 0023     		movs	r3, #0
 1246 0008 1360     		str	r3, [r2]	@ unaligned
 1247 000a 5360     		str	r3, [r2, #4]	@ unaligned
 1248 000c 1372     		strb	r3, [r2, #8]
  86:Service/Srv_Actuator.c ****     memset(&SrvActuator_ControlStream, 0, sizeof(SrvActuator_ControlStream));
 1249              		.loc 1 86 5 view .LVU352
 1250 000e 6F4A     		ldr	r2, .L131+4
 1251 0010 1360     		str	r3, [r2]	@ unaligned
 1252 0012 C2F80330 		str	r3, [r2, #3]	@ unaligned
  88:Service/Srv_Actuator.c ****     switch (model)
 1253              		.loc 1 88 5 view .LVU353
 1254 0016 0628     		cmp	r0, #6
 1255 0018 00F2D480 		bhi	.L122
 1256 001c DFE800F0 		tbb	[pc, r0]
 1257              	.L103:
 1258 0020 04       		.byte	(.L109-.L103)/2
ARM GAS  C:\Users\HUAV\AppData\Local\Temp\cceh0wp1.s 			page 35


 1259 0021 1F       		.byte	(.L108-.L103)/2
 1260 0022 27       		.byte	(.L107-.L103)/2
 1261 0023 2F       		.byte	(.L106-.L103)/2
 1262 0024 37       		.byte	(.L105-.L103)/2
 1263 0025 3F       		.byte	(.L104-.L103)/2
 1264 0026 47       		.byte	(.L102-.L103)/2
 1265 0027 00       		.p2align 1
 1266              	.L109:
 1267              	.LBB14:
  91:Service/Srv_Actuator.c ****         SrvActuator_Obj.drive_module.num = QUAD_CONTROL_COMPONENT;
 1268              		.loc 1 91 9 view .LVU354
  91:Service/Srv_Actuator.c ****         SrvActuator_Obj.drive_module.num = QUAD_CONTROL_COMPONENT;
 1269              		.loc 1 91 42 is_stmt 0 view .LVU355
 1270 0028 674B     		ldr	r3, .L131
 1271 002a 694A     		ldr	r2, .L131+8
 1272 002c 1188     		ldrh	r1, [r2]	@ unaligned
 1273              	.LVL73:
  91:Service/Srv_Actuator.c ****         SrvActuator_Obj.drive_module.num = QUAD_CONTROL_COMPONENT;
 1274              		.loc 1 91 42 view .LVU356
 1275 002e 9278     		ldrb	r2, [r2, #2]	@ zero_extendqisi2
 1276 0030 5980     		strh	r1, [r3, #2]	@ unaligned
 1277 0032 1A71     		strb	r2, [r3, #4]
  92:Service/Srv_Actuator.c ****         break;
 1278              		.loc 1 92 9 is_stmt 1 view .LVU357
 1279              	.L110:
 1280              	.LBE14:
 124:Service/Srv_Actuator.c ****     SrvActuator_Obj.model = model;
 1281              		.loc 1 124 5 view .LVU358
 124:Service/Srv_Actuator.c ****     SrvActuator_Obj.model = model;
 1282              		.loc 1 124 27 is_stmt 0 view .LVU359
 1283 0034 644C     		ldr	r4, .L131
 1284 0036 2070     		strb	r0, [r4]
 127:Service/Srv_Actuator.c ****     SrvActuator_Obj.drive_module.obj_list = (SrvActuator_PWMOutObj_TypeDef *)MMU_Malloc(sizeof(SrvA
 1285              		.loc 1 127 5 is_stmt 1 view .LVU360
 127:Service/Srv_Actuator.c ****     SrvActuator_Obj.drive_module.obj_list = (SrvActuator_PWMOutObj_TypeDef *)MMU_Malloc(sizeof(SrvA
 1286              		.loc 1 127 161 is_stmt 0 view .LVU361
 1287 0038 A078     		ldrb	r0, [r4, #2]	@ zero_extendqisi2
 1288              	.LVL74:
 127:Service/Srv_Actuator.c ****     SrvActuator_Obj.drive_module.obj_list = (SrvActuator_PWMOutObj_TypeDef *)MMU_Malloc(sizeof(SrvA
 1289              		.loc 1 127 78 view .LVU362
 1290 003a 00EB4000 		add	r0, r0, r0, lsl #1
 1291 003e C0EBC000 		rsb	r0, r0, r0, lsl #3
 1292 0042 80B2     		uxth	r0, r0
 1293 0044 FFF7FEFF 		bl	MMU_Malloc
 1294              	.LVL75:
 127:Service/Srv_Actuator.c ****     SrvActuator_Obj.drive_module.obj_list = (SrvActuator_PWMOutObj_TypeDef *)MMU_Malloc(sizeof(SrvA
 1295              		.loc 1 127 43 view .LVU363
 1296 0048 C4F80500 		str	r0, [r4, #5]	@ unaligned
 129:Service/Srv_Actuator.c ****     if (SrvActuator_Obj.drive_module.obj_list == NULL)
 1297              		.loc 1 129 5 is_stmt 1 view .LVU364
 129:Service/Srv_Actuator.c ****     if (SrvActuator_Obj.drive_module.obj_list == NULL)
 1298              		.loc 1 129 8 is_stmt 0 view .LVU365
 1299 004c 0028     		cmp	r0, #0
 1300 004e 36D0     		beq	.L127
 135:Service/Srv_Actuator.c ****     if (SrvActuator_Obj.drive_module.num.moto_cnt)
 1301              		.loc 1 135 5 is_stmt 1 view .LVU366
 135:Service/Srv_Actuator.c ****     if (SrvActuator_Obj.drive_module.num.moto_cnt)
ARM GAS  C:\Users\HUAV\AppData\Local\Temp\cceh0wp1.s 			page 36


 1302              		.loc 1 135 41 is_stmt 0 view .LVU367
 1303 0050 5D4B     		ldr	r3, .L131
 1304 0052 DB78     		ldrb	r3, [r3, #3]	@ zero_extendqisi2
 135:Service/Srv_Actuator.c ****     if (SrvActuator_Obj.drive_module.num.moto_cnt)
 1305              		.loc 1 135 8 view .LVU368
 1306 0054 002B     		cmp	r3, #0
 1307 0056 00F09880 		beq	.L113
 1308              	.LBB15:
 138:Service/Srv_Actuator.c ****         for (uint8_t i = 0; i < SrvActuator_Obj.drive_module.num.moto_cnt; i++)
 1309              		.loc 1 138 22 view .LVU369
 1310 005a 0024     		movs	r4, #0
 1311 005c 42E0     		b	.L112
 1312              	.LVL76:
 1313              	.L108:
 138:Service/Srv_Actuator.c ****         for (uint8_t i = 0; i < SrvActuator_Obj.drive_module.num.moto_cnt; i++)
 1314              		.loc 1 138 22 view .LVU370
 1315              	.LBE15:
 1316              	.LBB17:
  95:Service/Srv_Actuator.c ****         SrvActuator_Obj.drive_module.num = HEX_CONTROL_COMPONENT;
 1317              		.loc 1 95 9 is_stmt 1 view .LVU371
  95:Service/Srv_Actuator.c ****         SrvActuator_Obj.drive_module.num = HEX_CONTROL_COMPONENT;
 1318              		.loc 1 95 42 is_stmt 0 view .LVU372
 1319 005e 5A4A     		ldr	r2, .L131
 1320 0060 5B4B     		ldr	r3, .L131+8
 1321 0062 33F8041F 		ldrh	r1, [r3, #4]!	@ unaligned
 1322              	.LVL77:
  95:Service/Srv_Actuator.c ****         SrvActuator_Obj.drive_module.num = HEX_CONTROL_COMPONENT;
 1323              		.loc 1 95 42 view .LVU373
 1324 0066 9B78     		ldrb	r3, [r3, #2]	@ zero_extendqisi2
 1325 0068 5180     		strh	r1, [r2, #2]	@ unaligned
 1326 006a 1371     		strb	r3, [r2, #4]
  96:Service/Srv_Actuator.c ****         break;
 1327              		.loc 1 96 9 is_stmt 1 view .LVU374
 1328 006c E2E7     		b	.L110
 1329              	.LVL78:
 1330              	.L107:
  99:Service/Srv_Actuator.c ****         SrvActuator_Obj.drive_module.num = OCT_CONTROL_COMPONENT;
 1331              		.loc 1 99 9 view .LVU375
  99:Service/Srv_Actuator.c ****         SrvActuator_Obj.drive_module.num = OCT_CONTROL_COMPONENT;
 1332              		.loc 1 99 42 is_stmt 0 view .LVU376
 1333 006e 564A     		ldr	r2, .L131
 1334 0070 574B     		ldr	r3, .L131+8
 1335 0072 33F8081F 		ldrh	r1, [r3, #8]!	@ unaligned
 1336              	.LVL79:
  99:Service/Srv_Actuator.c ****         SrvActuator_Obj.drive_module.num = OCT_CONTROL_COMPONENT;
 1337              		.loc 1 99 42 view .LVU377
 1338 0076 9B78     		ldrb	r3, [r3, #2]	@ zero_extendqisi2
 1339 0078 5180     		strh	r1, [r2, #2]	@ unaligned
 1340 007a 1371     		strb	r3, [r2, #4]
 100:Service/Srv_Actuator.c ****         break;
 1341              		.loc 1 100 9 is_stmt 1 view .LVU378
 1342 007c DAE7     		b	.L110
 1343              	.LVL80:
 1344              	.L106:
 103:Service/Srv_Actuator.c ****         SrvActuator_Obj.drive_module.num = X8_CONTROL_COMPONENT;
 1345              		.loc 1 103 9 view .LVU379
 103:Service/Srv_Actuator.c ****         SrvActuator_Obj.drive_module.num = X8_CONTROL_COMPONENT;
ARM GAS  C:\Users\HUAV\AppData\Local\Temp\cceh0wp1.s 			page 37


 1346              		.loc 1 103 42 is_stmt 0 view .LVU380
 1347 007e 524A     		ldr	r2, .L131
 1348 0080 534B     		ldr	r3, .L131+8
 1349 0082 33F8081F 		ldrh	r1, [r3, #8]!	@ unaligned
 1350              	.LVL81:
 103:Service/Srv_Actuator.c ****         SrvActuator_Obj.drive_module.num = X8_CONTROL_COMPONENT;
 1351              		.loc 1 103 42 view .LVU381
 1352 0086 9B78     		ldrb	r3, [r3, #2]	@ zero_extendqisi2
 1353 0088 5180     		strh	r1, [r2, #2]	@ unaligned
 1354 008a 1371     		strb	r3, [r2, #4]
 104:Service/Srv_Actuator.c ****         break;
 1355              		.loc 1 104 9 is_stmt 1 view .LVU382
 1356 008c D2E7     		b	.L110
 1357              	.LVL82:
 1358              	.L105:
 107:Service/Srv_Actuator.c ****         SrvActuator_Obj.drive_module.num = Y6_CONTROL_CONPONENT;
 1359              		.loc 1 107 9 view .LVU383
 107:Service/Srv_Actuator.c ****         SrvActuator_Obj.drive_module.num = Y6_CONTROL_CONPONENT;
 1360              		.loc 1 107 42 is_stmt 0 view .LVU384
 1361 008e 4E4A     		ldr	r2, .L131
 1362 0090 4F4B     		ldr	r3, .L131+8
 1363 0092 33F8041F 		ldrh	r1, [r3, #4]!	@ unaligned
 1364              	.LVL83:
 107:Service/Srv_Actuator.c ****         SrvActuator_Obj.drive_module.num = Y6_CONTROL_CONPONENT;
 1365              		.loc 1 107 42 view .LVU385
 1366 0096 9B78     		ldrb	r3, [r3, #2]	@ zero_extendqisi2
 1367 0098 5180     		strh	r1, [r2, #2]	@ unaligned
 1368 009a 1371     		strb	r3, [r2, #4]
 108:Service/Srv_Actuator.c ****         break;
 1369              		.loc 1 108 9 is_stmt 1 view .LVU386
 1370 009c CAE7     		b	.L110
 1371              	.LVL84:
 1372              	.L104:
 111:Service/Srv_Actuator.c ****         SrvActuator_Obj.drive_module.num = TRI_CONTROL_COMPONENT;
 1373              		.loc 1 111 9 view .LVU387
 111:Service/Srv_Actuator.c ****         SrvActuator_Obj.drive_module.num = TRI_CONTROL_COMPONENT;
 1374              		.loc 1 111 42 is_stmt 0 view .LVU388
 1375 009e 4A4A     		ldr	r2, .L131
 1376 00a0 4B4B     		ldr	r3, .L131+8
 1377 00a2 33F80C1F 		ldrh	r1, [r3, #12]!	@ unaligned
 1378              	.LVL85:
 111:Service/Srv_Actuator.c ****         SrvActuator_Obj.drive_module.num = TRI_CONTROL_COMPONENT;
 1379              		.loc 1 111 42 view .LVU389
 1380 00a6 9B78     		ldrb	r3, [r3, #2]	@ zero_extendqisi2
 1381 00a8 5180     		strh	r1, [r2, #2]	@ unaligned
 1382 00aa 1371     		strb	r3, [r2, #4]
 112:Service/Srv_Actuator.c ****         break;
 1383              		.loc 1 112 9 is_stmt 1 view .LVU390
 1384 00ac C2E7     		b	.L110
 1385              	.LVL86:
 1386              	.L102:
 115:Service/Srv_Actuator.c ****         SrvActuator_Obj.drive_module.num = TDRONE_CONTROL_COMPONENT;
 1387              		.loc 1 115 9 view .LVU391
 115:Service/Srv_Actuator.c ****         SrvActuator_Obj.drive_module.num = TDRONE_CONTROL_COMPONENT;
 1388              		.loc 1 115 42 is_stmt 0 view .LVU392
 1389 00ae 464A     		ldr	r2, .L131
 1390 00b0 474B     		ldr	r3, .L131+8
ARM GAS  C:\Users\HUAV\AppData\Local\Temp\cceh0wp1.s 			page 38


 1391 00b2 33F8101F 		ldrh	r1, [r3, #16]!	@ unaligned
 1392              	.LVL87:
 115:Service/Srv_Actuator.c ****         SrvActuator_Obj.drive_module.num = TDRONE_CONTROL_COMPONENT;
 1393              		.loc 1 115 42 view .LVU393
 1394 00b6 9B78     		ldrb	r3, [r3, #2]	@ zero_extendqisi2
 1395 00b8 5180     		strh	r1, [r2, #2]	@ unaligned
 1396 00ba 1371     		strb	r3, [r2, #4]
 116:Service/Srv_Actuator.c ****         break;
 1397              		.loc 1 116 9 is_stmt 1 view .LVU394
 1398 00bc BAE7     		b	.L110
 1399              	.LVL88:
 1400              	.L127:
 116:Service/Srv_Actuator.c ****         break;
 1401              		.loc 1 116 9 is_stmt 0 view .LVU395
 1402              	.LBE17:
 131:Service/Srv_Actuator.c ****         MMU_Free(SrvActuator_Obj.drive_module.obj_list);
 1403              		.loc 1 131 9 is_stmt 1 view .LVU396
 1404 00be FFF7FEFF 		bl	MMU_Free
 1405              	.LVL89:
 132:Service/Srv_Actuator.c ****         return false;
 1406              		.loc 1 132 9 view .LVU397
 132:Service/Srv_Actuator.c ****         return false;
 1407              		.loc 1 132 16 is_stmt 0 view .LVU398
 1408 00c2 0020     		movs	r0, #0
 1409 00c4 1CE0     		b	.L101
 1410              	.LVL90:
 1411              	.L114:
 1412              	.LBB18:
 140:Service/Srv_Actuator.c ****             switch (esc_type)
 1413              		.loc 1 140 13 view .LVU399
 1414 00c6 042D     		cmp	r5, #4
 1415 00c8 14D1     		bne	.L116
 1416              	.L117:
 164:Service/Srv_Actuator.c ****             if (SrvActuator_Obj.drive_module.obj_list[i].drv_obj == NULL)
 1417              		.loc 1 164 13 is_stmt 1 view .LVU400
 164:Service/Srv_Actuator.c ****             if (SrvActuator_Obj.drive_module.obj_list[i].drv_obj == NULL)
 1418              		.loc 1 164 45 is_stmt 0 view .LVU401
 1419 00ca 3F4B     		ldr	r3, .L131
 1420 00cc D3F80520 		ldr	r2, [r3, #5]	@ unaligned
 164:Service/Srv_Actuator.c ****             if (SrvActuator_Obj.drive_module.obj_list[i].drv_obj == NULL)
 1421              		.loc 1 164 54 view .LVU402
 1422 00d0 04EB4403 		add	r3, r4, r4, lsl #1
 1423 00d4 C3EBC303 		rsb	r3, r3, r3, lsl #3
 1424 00d8 1344     		add	r3, r3, r2
 164:Service/Srv_Actuator.c ****             if (SrvActuator_Obj.drive_module.obj_list[i].drv_obj == NULL)
 1425              		.loc 1 164 57 view .LVU403
 1426 00da 1B69     		ldr	r3, [r3, #16]	@ unaligned
 164:Service/Srv_Actuator.c ****             if (SrvActuator_Obj.drive_module.obj_list[i].drv_obj == NULL)
 1427              		.loc 1 164 16 view .LVU404
 1428 00dc 002B     		cmp	r3, #0
 1429 00de 3CD0     		beq	.L128
 138:Service/Srv_Actuator.c ****         for (uint8_t i = 0; i < SrvActuator_Obj.drive_module.num.moto_cnt; i++)
 1430              		.loc 1 138 76 is_stmt 1 discriminator 2 view .LVU405
 138:Service/Srv_Actuator.c ****         for (uint8_t i = 0; i < SrvActuator_Obj.drive_module.num.moto_cnt; i++)
 1431              		.loc 1 138 77 is_stmt 0 discriminator 2 view .LVU406
 1432 00e0 0134     		adds	r4, r4, #1
 1433              	.LVL91:
ARM GAS  C:\Users\HUAV\AppData\Local\Temp\cceh0wp1.s 			page 39


 138:Service/Srv_Actuator.c ****         for (uint8_t i = 0; i < SrvActuator_Obj.drive_module.num.moto_cnt; i++)
 1434              		.loc 1 138 77 discriminator 2 view .LVU407
 1435 00e2 E4B2     		uxtb	r4, r4
 1436              	.LVL92:
 1437              	.L112:
 138:Service/Srv_Actuator.c ****         for (uint8_t i = 0; i < SrvActuator_Obj.drive_module.num.moto_cnt; i++)
 1438              		.loc 1 138 29 is_stmt 1 discriminator 1 view .LVU408
 138:Service/Srv_Actuator.c ****         for (uint8_t i = 0; i < SrvActuator_Obj.drive_module.num.moto_cnt; i++)
 1439              		.loc 1 138 65 is_stmt 0 discriminator 1 view .LVU409
 1440 00e4 384B     		ldr	r3, .L131
 1441 00e6 DB78     		ldrb	r3, [r3, #3]	@ zero_extendqisi2
 138:Service/Srv_Actuator.c ****         for (uint8_t i = 0; i < SrvActuator_Obj.drive_module.num.moto_cnt; i++)
 1442              		.loc 1 138 9 discriminator 1 view .LVU410
 1443 00e8 A342     		cmp	r3, r4
 1444 00ea 4ED9     		bls	.L113
 140:Service/Srv_Actuator.c ****             switch (esc_type)
 1445              		.loc 1 140 13 is_stmt 1 view .LVU411
 1446 00ec 032D     		cmp	r5, #3
 1447 00ee EAD8     		bhi	.L114
 1448 00f0 6BB2     		sxtb	r3, r5
 1449 00f2 33B9     		cbnz	r3, .L129
 1450              	.L116:
 160:Service/Srv_Actuator.c ****                 MMU_Free(SrvActuator_Obj.drive_module.obj_list);
 1451              		.loc 1 160 17 view .LVU412
 1452 00f4 344B     		ldr	r3, .L131
 1453 00f6 D3F80500 		ldr	r0, [r3, #5]	@ unaligned
 1454 00fa FFF7FEFF 		bl	MMU_Free
 1455              	.LVL93:
 161:Service/Srv_Actuator.c ****                 return false;
 1456              		.loc 1 161 17 view .LVU413
 161:Service/Srv_Actuator.c ****                 return false;
 1457              		.loc 1 161 24 is_stmt 0 view .LVU414
 1458 00fe 0020     		movs	r0, #0
 1459              	.LVL94:
 1460              	.L101:
 161:Service/Srv_Actuator.c ****                 return false;
 1461              		.loc 1 161 24 view .LVU415
 1462              	.LBE18:
 199:Service/Srv_Actuator.c **** }
 1463              		.loc 1 199 1 view .LVU416
 1464 0100 70BD     		pop	{r4, r5, r6, pc}
 1465              	.LVL95:
 1466              	.L129:
 1467              	.LBB19:
 145:Service/Srv_Actuator.c ****                 SrvActuator_Obj.drive_module.obj_list[i].drv_type = esc_type;
 1468              		.loc 1 145 17 is_stmt 1 view .LVU417
 145:Service/Srv_Actuator.c ****                 SrvActuator_Obj.drive_module.obj_list[i].drv_type = esc_type;
 1469              		.loc 1 145 45 is_stmt 0 view .LVU418
 1470 0102 3148     		ldr	r0, .L131
 1471 0104 D0F80530 		ldr	r3, [r0, #5]	@ unaligned
 145:Service/Srv_Actuator.c ****                 SrvActuator_Obj.drive_module.obj_list[i].drv_type = esc_type;
 1472              		.loc 1 145 54 view .LVU419
 1473 0108 04EB4406 		add	r6, r4, r4, lsl #1
 1474 010c C6EBC602 		rsb	r2, r6, r6, lsl #3
 145:Service/Srv_Actuator.c ****                 SrvActuator_Obj.drive_module.obj_list[i].drv_type = esc_type;
 1475              		.loc 1 145 67 view .LVU420
 1476 0110 9D54     		strb	r5, [r3, r2]
ARM GAS  C:\Users\HUAV\AppData\Local\Temp\cceh0wp1.s 			page 40


 147:Service/Srv_Actuator.c ****                 SrvActuator_Obj.drive_module.obj_list[i].ctl_val = DSHOT_LOCK_THROTTLE;
 1477              		.loc 1 147 17 is_stmt 1 view .LVU421
 147:Service/Srv_Actuator.c ****                 SrvActuator_Obj.drive_module.obj_list[i].ctl_val = DSHOT_LOCK_THROTTLE;
 1478              		.loc 1 147 45 is_stmt 0 view .LVU422
 1479 0112 D0F80530 		ldr	r3, [r0, #5]	@ unaligned
 147:Service/Srv_Actuator.c ****                 SrvActuator_Obj.drive_module.obj_list[i].ctl_val = DSHOT_LOCK_THROTTLE;
 1480              		.loc 1 147 54 view .LVU423
 1481 0116 1344     		add	r3, r3, r2
 147:Service/Srv_Actuator.c ****                 SrvActuator_Obj.drive_module.obj_list[i].ctl_val = DSHOT_LOCK_THROTTLE;
 1482              		.loc 1 147 66 view .LVU424
 1483 0118 0021     		movs	r1, #0
 1484 011a 9970     		strb	r1, [r3, #2]
 1485 011c D970     		strb	r1, [r3, #3]
 148:Service/Srv_Actuator.c ****                 SrvActuator_Obj.drive_module.obj_list[i].min_val = DSHOT_MIN_THROTTLE;
 1486              		.loc 1 148 17 is_stmt 1 view .LVU425
 148:Service/Srv_Actuator.c ****                 SrvActuator_Obj.drive_module.obj_list[i].min_val = DSHOT_MIN_THROTTLE;
 1487              		.loc 1 148 45 is_stmt 0 view .LVU426
 1488 011e D0F80530 		ldr	r3, [r0, #5]	@ unaligned
 148:Service/Srv_Actuator.c ****                 SrvActuator_Obj.drive_module.obj_list[i].min_val = DSHOT_MIN_THROTTLE;
 1489              		.loc 1 148 54 view .LVU427
 1490 0122 1344     		add	r3, r3, r2
 148:Service/Srv_Actuator.c ****                 SrvActuator_Obj.drive_module.obj_list[i].min_val = DSHOT_MIN_THROTTLE;
 1491              		.loc 1 148 66 view .LVU428
 1492 0124 3026     		movs	r6, #48
 1493 0126 9E71     		strb	r6, [r3, #6]
 1494 0128 D971     		strb	r1, [r3, #7]
 149:Service/Srv_Actuator.c ****                 SrvActuator_Obj.drive_module.obj_list[i].max_val = DSHOT_MAX_THROTTLE;
 1495              		.loc 1 149 17 is_stmt 1 view .LVU429
 149:Service/Srv_Actuator.c ****                 SrvActuator_Obj.drive_module.obj_list[i].max_val = DSHOT_MAX_THROTTLE;
 1496              		.loc 1 149 45 is_stmt 0 view .LVU430
 1497 012a D0F80530 		ldr	r3, [r0, #5]	@ unaligned
 149:Service/Srv_Actuator.c ****                 SrvActuator_Obj.drive_module.obj_list[i].max_val = DSHOT_MAX_THROTTLE;
 1498              		.loc 1 149 54 view .LVU431
 1499 012e 1344     		add	r3, r3, r2
 149:Service/Srv_Actuator.c ****                 SrvActuator_Obj.drive_module.obj_list[i].max_val = DSHOT_MAX_THROTTLE;
 1500              		.loc 1 149 66 view .LVU432
 1501 0130 6C26     		movs	r6, #108
 1502 0132 1E71     		strb	r6, [r3, #4]
 1503 0134 0726     		movs	r6, #7
 1504 0136 5E71     		strb	r6, [r3, #5]
 150:Service/Srv_Actuator.c ****                 SrvActuator_Obj.drive_module.obj_list[i].idle_val = DSHOT_IDLE_THROTTLE;
 1505              		.loc 1 150 17 is_stmt 1 view .LVU433
 150:Service/Srv_Actuator.c ****                 SrvActuator_Obj.drive_module.obj_list[i].idle_val = DSHOT_IDLE_THROTTLE;
 1506              		.loc 1 150 45 is_stmt 0 view .LVU434
 1507 0138 D0F80530 		ldr	r3, [r0, #5]	@ unaligned
 150:Service/Srv_Actuator.c ****                 SrvActuator_Obj.drive_module.obj_list[i].idle_val = DSHOT_IDLE_THROTTLE;
 1508              		.loc 1 150 54 view .LVU435
 1509 013c 1344     		add	r3, r3, r2
 150:Service/Srv_Actuator.c ****                 SrvActuator_Obj.drive_module.obj_list[i].idle_val = DSHOT_IDLE_THROTTLE;
 1510              		.loc 1 150 67 view .LVU436
 1511 013e 6426     		movs	r6, #100
 1512 0140 1E72     		strb	r6, [r3, #8]
 1513 0142 5972     		strb	r1, [r3, #9]
 151:Service/Srv_Actuator.c ****                 SrvActuator_Obj.drive_module.obj_list[i].lock_val = DSHOT_LOCK_THROTTLE;
 1514              		.loc 1 151 17 is_stmt 1 view .LVU437
 151:Service/Srv_Actuator.c ****                 SrvActuator_Obj.drive_module.obj_list[i].lock_val = DSHOT_LOCK_THROTTLE;
 1515              		.loc 1 151 45 is_stmt 0 view .LVU438
ARM GAS  C:\Users\HUAV\AppData\Local\Temp\cceh0wp1.s 			page 41


 1516 0144 D0F80560 		ldr	r6, [r0, #5]	@ unaligned
 151:Service/Srv_Actuator.c ****                 SrvActuator_Obj.drive_module.obj_list[i].lock_val = DSHOT_LOCK_THROTTLE;
 1517              		.loc 1 151 54 view .LVU439
 1518 0148 1644     		add	r6, r6, r2
 151:Service/Srv_Actuator.c ****                 SrvActuator_Obj.drive_module.obj_list[i].lock_val = DSHOT_LOCK_THROTTLE;
 1519              		.loc 1 151 67 view .LVU440
 1520 014a B172     		strb	r1, [r6, #10]
 1521 014c F172     		strb	r1, [r6, #11]
 153:Service/Srv_Actuator.c ****                 SrvActuator_Obj.drive_module.obj_list[i].drv_obj = (DevDshotObj_TypeDef *)MMU_Mallo
 1522              		.loc 1 153 17 is_stmt 1 view .LVU441
 153:Service/Srv_Actuator.c ****                 SrvActuator_Obj.drive_module.obj_list[i].drv_obj = (DevDshotObj_TypeDef *)MMU_Mallo
 1523              		.loc 1 153 91 is_stmt 0 view .LVU442
 1524 014e 4FF49A70 		mov	r0, #308
 1525 0152 FFF7FEFF 		bl	MMU_Malloc
 1526              	.LVL96:
 153:Service/Srv_Actuator.c ****                 SrvActuator_Obj.drive_module.obj_list[i].drv_obj = (DevDshotObj_TypeDef *)MMU_Mallo
 1527              		.loc 1 153 66 view .LVU443
 1528 0156 3061     		str	r0, [r6, #16]	@ unaligned
 154:Service/Srv_Actuator.c ****                 break;
 1529              		.loc 1 154 17 is_stmt 1 view .LVU444
 1530 0158 B7E7     		b	.L117
 1531              	.L128:
 1532              	.LBB16:
 166:Service/Srv_Actuator.c ****                 for (uint8_t j = 0; j < i; j++)
 1533              		.loc 1 166 30 is_stmt 0 view .LVU445
 1534 015a 0025     		movs	r5, #0
 1535              	.L118:
 1536              	.LVL97:
 166:Service/Srv_Actuator.c ****                 for (uint8_t j = 0; j < i; j++)
 1537              		.loc 1 166 37 is_stmt 1 discriminator 1 view .LVU446
 166:Service/Srv_Actuator.c ****                 for (uint8_t j = 0; j < i; j++)
 1538              		.loc 1 166 17 is_stmt 0 discriminator 1 view .LVU447
 1539 015c AC42     		cmp	r4, r5
 1540 015e 0DD9     		bls	.L130
 168:Service/Srv_Actuator.c ****                     MMU_Free(SrvActuator_Obj.drive_module.obj_list[j].drv_obj);
 1541              		.loc 1 168 21 is_stmt 1 discriminator 3 view .LVU448
 168:Service/Srv_Actuator.c ****                     MMU_Free(SrvActuator_Obj.drive_module.obj_list[j].drv_obj);
 1542              		.loc 1 168 58 is_stmt 0 discriminator 3 view .LVU449
 1543 0160 194B     		ldr	r3, .L131
 1544 0162 D3F80520 		ldr	r2, [r3, #5]	@ unaligned
 168:Service/Srv_Actuator.c ****                     MMU_Free(SrvActuator_Obj.drive_module.obj_list[j].drv_obj);
 1545              		.loc 1 168 67 discriminator 3 view .LVU450
 1546 0166 05EB4503 		add	r3, r5, r5, lsl #1
 1547 016a C3EBC303 		rsb	r3, r3, r3, lsl #3
 1548 016e 1344     		add	r3, r3, r2
 168:Service/Srv_Actuator.c ****                     MMU_Free(SrvActuator_Obj.drive_module.obj_list[j].drv_obj);
 1549              		.loc 1 168 21 discriminator 3 view .LVU451
 1550 0170 1869     		ldr	r0, [r3, #16]	@ unaligned
 1551 0172 FFF7FEFF 		bl	MMU_Free
 1552              	.LVL98:
 166:Service/Srv_Actuator.c ****                 for (uint8_t j = 0; j < i; j++)
 1553              		.loc 1 166 44 is_stmt 1 discriminator 3 view .LVU452
 166:Service/Srv_Actuator.c ****                 for (uint8_t j = 0; j < i; j++)
 1554              		.loc 1 166 45 is_stmt 0 discriminator 3 view .LVU453
 1555 0176 0135     		adds	r5, r5, #1
 1556              	.LVL99:
 166:Service/Srv_Actuator.c ****                 for (uint8_t j = 0; j < i; j++)
ARM GAS  C:\Users\HUAV\AppData\Local\Temp\cceh0wp1.s 			page 42


 1557              		.loc 1 166 45 discriminator 3 view .LVU454
 1558 0178 EDB2     		uxtb	r5, r5
 1559              	.LVL100:
 166:Service/Srv_Actuator.c ****                 for (uint8_t j = 0; j < i; j++)
 1560              		.loc 1 166 45 discriminator 3 view .LVU455
 1561 017a EFE7     		b	.L118
 1562              	.L130:
 166:Service/Srv_Actuator.c ****                 for (uint8_t j = 0; j < i; j++)
 1563              		.loc 1 166 45 discriminator 3 view .LVU456
 1564              	.LBE16:
 171:Service/Srv_Actuator.c ****                 MMU_Free(SrvActuator_Obj.drive_module.obj_list);
 1565              		.loc 1 171 17 is_stmt 1 view .LVU457
 1566 017c 124B     		ldr	r3, .L131
 1567 017e D3F80500 		ldr	r0, [r3, #5]	@ unaligned
 1568 0182 FFF7FEFF 		bl	MMU_Free
 1569              	.LVL101:
 172:Service/Srv_Actuator.c ****                 return false;
 1570              		.loc 1 172 17 view .LVU458
 172:Service/Srv_Actuator.c ****                 return false;
 1571              		.loc 1 172 24 is_stmt 0 view .LVU459
 1572 0186 0020     		movs	r0, #0
 1573 0188 BAE7     		b	.L101
 1574              	.LVL102:
 1575              	.L113:
 172:Service/Srv_Actuator.c ****                 return false;
 1576              		.loc 1 172 24 view .LVU460
 1577              	.LBE19:
 178:Service/Srv_Actuator.c ****     if (SrvActuator_Obj.drive_module.num.servo_cnt)
 1578              		.loc 1 178 5 is_stmt 1 view .LVU461
 180:Service/Srv_Actuator.c ****     }
 1579              		.loc 1 180 5 view .LVU462
 184:Service/Srv_Actuator.c ****     SrcActuator_Get_ChannelRemap();
 1580              		.loc 1 184 5 view .LVU463
 1581 018a FFF7FEFF 		bl	SrcActuator_Get_ChannelRemap
 1582              	.LVL103:
 185:Service/Srv_Actuator.c ****     SrvActuator_Config_MotoSpinDir();
 1583              		.loc 1 185 5 view .LVU464
 1584 018e FFF7FEFF 		bl	SrvActuator_Config_MotoSpinDir
 1585              	.LVL104:
 187:Service/Srv_Actuator.c ****     SrvActuator_Lock();
 1586              		.loc 1 187 5 view .LVU465
 1587 0192 FFF7FEFF 		bl	SrvActuator_Lock
 1588              	.LVL105:
 190:Service/Srv_Actuator.c ****     memset(&Actuator_cal_DataPipe, 0, sizeof(Actuator_cal_DataPipe));
 1589              		.loc 1 190 5 view .LVU466
 1590 0196 0F4C     		ldr	r4, .L131+12
 1591 0198 2B22     		movs	r2, #43
 1592 019a 0021     		movs	r1, #0
 1593 019c 2046     		mov	r0, r4
 1594 019e FFF7FEFF 		bl	memset
 1595              	.LVL106:
 191:Service/Srv_Actuator.c ****     memset(DataPipe_DataObjAddr(Actuator_Data), NULL, sizeof(DataPipe_DataObj(Actuator_Data)));
 1596              		.loc 1 191 5 view .LVU467
 1597 01a2 0D4D     		ldr	r5, .L131+16
 1598 01a4 3A22     		movs	r2, #58
 1599 01a6 0021     		movs	r1, #0
 1600 01a8 2846     		mov	r0, r5
ARM GAS  C:\Users\HUAV\AppData\Local\Temp\cceh0wp1.s 			page 43


 1601 01aa FFF7FEFF 		bl	memset
 1602              	.LVL107:
 193:Service/Srv_Actuator.c ****     Actuator_cal_DataPipe.data_addr = (uint32_t)&DataPipe_DataObj(Actuator_Data);
 1603              		.loc 1 193 5 view .LVU468
 193:Service/Srv_Actuator.c ****     Actuator_cal_DataPipe.data_addr = (uint32_t)&DataPipe_DataObj(Actuator_Data);
 1604              		.loc 1 193 37 is_stmt 0 view .LVU469
 1605 01ae C4F81150 		str	r5, [r4, #17]	@ unaligned
 194:Service/Srv_Actuator.c ****     Actuator_cal_DataPipe.data_size = sizeof(DataPipe_DataObj(Actuator_Data));
 1606              		.loc 1 194 5 is_stmt 1 view .LVU470
 194:Service/Srv_Actuator.c ****     Actuator_cal_DataPipe.data_size = sizeof(DataPipe_DataObj(Actuator_Data));
 1607              		.loc 1 194 37 is_stmt 0 view .LVU471
 1608 01b2 3A23     		movs	r3, #58
 1609 01b4 6375     		strb	r3, [r4, #21]
 1610 01b6 0023     		movs	r3, #0
 1611 01b8 A375     		strb	r3, [r4, #22]
 195:Service/Srv_Actuator.c ****     DataPipe_Enable(&Actuator_cal_DataPipe);
 1612              		.loc 1 195 5 is_stmt 1 view .LVU472
 1613              	.LVL108:
 1614              	.LBB20:
 1615              	.LBI20:
 1616              		.file 2 "System/DataPipe/DataPipe.h"
   1:System/DataPipe/DataPipe.h **** #ifndef __DATAPIPE_H
   2:System/DataPipe/DataPipe.h **** #define __DATAPIPE_H
   3:System/DataPipe/DataPipe.h **** 
   4:System/DataPipe/DataPipe.h **** #include <stdint.h>
   5:System/DataPipe/DataPipe.h **** #include <string.h>
   6:System/DataPipe/DataPipe.h **** #include <stdbool.h>
   7:System/DataPipe/DataPipe.h **** 
   8:System/DataPipe/DataPipe.h **** typedef void (*Pipe_TransFinish_Callback)(void *pipe_obj);
   9:System/DataPipe/DataPipe.h **** typedef void (*Pipe_TransError_Callback)(void *pipe_obj);
  10:System/DataPipe/DataPipe.h **** typedef void (*Pipe_TimeOutProc_Callback)(void *pipe_obj);
  11:System/DataPipe/DataPipe.h **** 
  12:System/DataPipe/DataPipe.h **** #define DataPipeHandleToObj(x) ((DataPipeObj_TypeDef *)x)
  13:System/DataPipe/DataPipe.h **** #define DataPipe_CreateDataObj(type, name) static type name##_##PipeDataObj __attribute__((section(
  14:System/DataPipe/DataPipe.h **** #define DataPipe_DataObjAddr(name) &name##_##PipeDataObj
  15:System/DataPipe/DataPipe.h **** #define DataPipe_DataObj(name) name##_##PipeDataObj
  16:System/DataPipe/DataPipe.h **** #define DataPipe_DataSize(name) sizeof(name##_##PipeDataObj)
  17:System/DataPipe/DataPipe.h **** 
  18:System/DataPipe/DataPipe.h **** typedef enum
  19:System/DataPipe/DataPipe.h **** {
  20:System/DataPipe/DataPipe.h ****     Pipe_UnReady = 0,
  21:System/DataPipe/DataPipe.h ****     Pipe_Ready,
  22:System/DataPipe/DataPipe.h ****     Pipe_Busy,
  23:System/DataPipe/DataPipe.h ****     Pipe_Error,
  24:System/DataPipe/DataPipe.h **** } DataPipe_State_List;
  25:System/DataPipe/DataPipe.h **** 
  26:System/DataPipe/DataPipe.h **** #pragma pack(1)
  27:System/DataPipe/DataPipe.h **** typedef struct
  28:System/DataPipe/DataPipe.h **** {
  29:System/DataPipe/DataPipe.h ****     uint32_t min_rx_interval;
  30:System/DataPipe/DataPipe.h ****     uint32_t detect_interval;
  31:System/DataPipe/DataPipe.h ****     uint64_t rx_us_rt;
  32:System/DataPipe/DataPipe.h **** 
  33:System/DataPipe/DataPipe.h ****     bool enable;
  34:System/DataPipe/DataPipe.h **** 
  35:System/DataPipe/DataPipe.h ****     uint32_t data_addr;
  36:System/DataPipe/DataPipe.h ****     uint16_t data_size;
ARM GAS  C:\Users\HUAV\AppData\Local\Temp\cceh0wp1.s 			page 44


  37:System/DataPipe/DataPipe.h **** 
  38:System/DataPipe/DataPipe.h ****     Pipe_TransFinish_Callback trans_finish_cb;
  39:System/DataPipe/DataPipe.h ****     Pipe_TransError_Callback trans_error_cb;
  40:System/DataPipe/DataPipe.h **** 
  41:System/DataPipe/DataPipe.h ****     uint32_t tx_cnt;
  42:System/DataPipe/DataPipe.h ****     uint32_t rx_cnt;
  43:System/DataPipe/DataPipe.h ****     uint32_t er_cnt;
  44:System/DataPipe/DataPipe.h **** } DataPipeObj_TypeDef;
  45:System/DataPipe/DataPipe.h **** #pragma pack()
  46:System/DataPipe/DataPipe.h **** 
  47:System/DataPipe/DataPipe.h **** typedef struct
  48:System/DataPipe/DataPipe.h **** {
  49:System/DataPipe/DataPipe.h ****     DataPipeObj_TypeDef *org;
  50:System/DataPipe/DataPipe.h ****     DataPipeObj_TypeDef *dst;
  51:System/DataPipe/DataPipe.h **** } Data_PlugedPipeObj_TypeDef;
  52:System/DataPipe/DataPipe.h **** 
  53:System/DataPipe/DataPipe.h **** bool DataPipe_Init(void);
  54:System/DataPipe/DataPipe.h **** bool DataPipe_SendTo(DataPipeObj_TypeDef *p_org, DataPipeObj_TypeDef *p_dst);
  55:System/DataPipe/DataPipe.h **** bool DataPipe_DealError(void);
  56:System/DataPipe/DataPipe.h **** 
  57:System/DataPipe/DataPipe.h **** inline bool DataPipe_Enable(DataPipeObj_TypeDef *obj)
 1617              		.loc 2 57 13 view .LVU473
 1618              	.LBB21:
  58:System/DataPipe/DataPipe.h **** {
  59:System/DataPipe/DataPipe.h ****     if (obj == NULL)
 1619              		.loc 2 59 5 view .LVU474
  60:System/DataPipe/DataPipe.h ****         return false;
  61:System/DataPipe/DataPipe.h **** 
  62:System/DataPipe/DataPipe.h ****     obj->enable = true;
 1620              		.loc 2 62 5 view .LVU475
 1621              		.loc 2 62 17 is_stmt 0 view .LVU476
 1622 01ba 0120     		movs	r0, #1
 1623 01bc 2074     		strb	r0, [r4, #16]
  63:System/DataPipe/DataPipe.h **** 
  64:System/DataPipe/DataPipe.h ****     return true;
 1624              		.loc 2 64 5 is_stmt 1 view .LVU477
 1625              	.LVL109:
 1626              		.loc 2 64 5 is_stmt 0 view .LVU478
 1627              	.LBE21:
 1628              	.LBE20:
 197:Service/Srv_Actuator.c ****     SrvActuator_Obj.init = true;
 1629              		.loc 1 197 5 is_stmt 1 view .LVU479
 197:Service/Srv_Actuator.c ****     SrvActuator_Obj.init = true;
 1630              		.loc 1 197 26 is_stmt 0 view .LVU480
 1631 01be 024B     		ldr	r3, .L131
 1632 01c0 5870     		strb	r0, [r3, #1]
 198:Service/Srv_Actuator.c ****     return true;
 1633              		.loc 1 198 5 is_stmt 1 view .LVU481
 198:Service/Srv_Actuator.c ****     return true;
 1634              		.loc 1 198 12 is_stmt 0 view .LVU482
 1635 01c2 9DE7     		b	.L101
 1636              	.LVL110:
 1637              	.L122:
  86:Service/Srv_Actuator.c ****     memset(&SrvActuator_ControlStream, 0, sizeof(SrvActuator_ControlStream));
 1638              		.loc 1 86 5 view .LVU483
 1639 01c4 0020     		movs	r0, #0
 1640              	.LVL111:
ARM GAS  C:\Users\HUAV\AppData\Local\Temp\cceh0wp1.s 			page 45


  86:Service/Srv_Actuator.c ****     memset(&SrvActuator_ControlStream, 0, sizeof(SrvActuator_ControlStream));
 1641              		.loc 1 86 5 view .LVU484
 1642 01c6 9BE7     		b	.L101
 1643              	.L132:
 1644              		.align	2
 1645              	.L131:
 1646 01c8 00000000 		.word	SrvActuator_Obj
 1647 01cc 00000000 		.word	SrvActuator_ControlStream
 1648 01d0 00000000 		.word	.LANCHOR3
 1649 01d4 00000000 		.word	Actuator_cal_DataPipe
 1650 01d8 00000000 		.word	.LANCHOR0
 1651              		.cfi_endproc
 1652              	.LFE150:
 1654              		.global	SrvActuator
 1655              		.comm	Proto_Actuator_Data,58,4
 1656              		.comm	SrvActuator_ControlStream,7,4
 1657              		.comm	SrvActuator_Obj,9,4
 1658              		.global	default_sig_serial
 1659              		.global	SrvActuator_Periph_List
 1660              		.section	.rodata
 1661              		.align	2
 1662              		.set	.LANCHOR3,. + 0
 1663              	.LC0:
 1664 0000 04       		.byte	4
 1665 0001 04       		.byte	4
 1666 0002 00       		.byte	0
 1667 0003 00       		.space	1
 1668              	.LC1:
 1669 0004 06       		.byte	6
 1670 0005 06       		.byte	6
 1671 0006 00       		.byte	0
 1672 0007 00       		.space	1
 1673              	.LC2:
 1674 0008 08       		.byte	8
 1675 0009 08       		.byte	8
 1676 000a 00       		.byte	0
 1677 000b 00       		.space	1
 1678              	.LC3:
 1679 000c 04       		.byte	4
 1680 000d 03       		.byte	3
 1681 000e 01       		.byte	1
 1682 000f 00       		.space	1
 1683              	.LC4:
 1684 0010 05       		.byte	5
 1685 0011 02       		.byte	2
 1686 0012 03       		.byte	3
 1687              		.section	.Perph_Section,"aw"
 1688              		.align	2
 1689              		.set	.LANCHOR0,. + 0
 1692              	Actuator_Data_PipeDataObj:
 1693 0000 00000000 		.space	58
 1693      00000000 
 1693      00000000 
 1693      00000000 
 1693      00000000 
 1694              		.section	.data.SrvActuator,"aw"
 1695              		.align	2
ARM GAS  C:\Users\HUAV\AppData\Local\Temp\cceh0wp1.s 			page 46


 1698              	SrvActuator:
 1699 0000 00000000 		.word	SrvActuator_Init
 1700 0004 00000000 		.word	SrvActuator_Lock
 1701 0008 00000000 		.word	SrvActuator_MotoControl
 1702 000c 00000000 		.space	4
 1703 0010 00000000 		.word	SrvActuator_InvertMotoSpinDir
 1704 0014 00000000 		.word	SrvActuator_Get_NumData
 1705 0018 00000000 		.word	SrvActuator_GetModel
 1706              		.section	.rodata.SrvActuator_Periph_List,"a"
 1707              		.align	2
 1708              		.set	.LANCHOR2,. + 0
 1711              	SrvActuator_Periph_List:
 1712 0000 00040040 		.word	1073742848
 1713 0004 08000000 		.word	8
 1714 0008 00000000 		.word	0
 1715 000c 00000000 		.word	0
 1716 0010 00040258 		.word	1476527104
 1717 0014 0100     		.short	1
 1718 0016 00       		.byte	0
 1719 0017 00       		.space	1
 1720 0018 02000000 		.word	2
 1721 001c 00040040 		.word	1073742848
 1722 0020 0C000000 		.word	12
 1723 0024 00000000 		.word	0
 1724 0028 01000000 		.word	1
 1725 002c 00040258 		.word	1476527104
 1726 0030 0200     		.short	2
 1727 0032 00       		.byte	0
 1728 0033 00       		.space	1
 1729 0034 02000000 		.word	2
 1730 0038 000C0040 		.word	1073744896
 1731 003c 00000000 		.word	0
 1732 0040 00000000 		.word	0
 1733 0044 02000000 		.word	2
 1734 0048 00000258 		.word	1476526080
 1735 004c 0100     		.short	1
 1736 004e 00       		.byte	0
 1737 004f 00       		.space	1
 1738 0050 02000000 		.word	2
 1739 0054 000C0040 		.word	1073744896
 1740 0058 04000000 		.word	4
 1741 005c 00000000 		.word	0
 1742 0060 03000000 		.word	3
 1743 0064 00000258 		.word	1476526080
 1744 0068 0200     		.short	2
 1745 006a 00       		.byte	0
 1746 006b 00       		.space	1
 1747 006c 02000000 		.word	2
 1748 0070 000C0040 		.word	1073744896
 1749 0074 08000000 		.word	8
 1750 0078 FFFFFFFF 		.word	-1
 1751 007c FFFFFFFF 		.word	-1
 1752 0080 00000258 		.word	1476526080
 1753 0084 0400     		.short	4
 1754 0086 00       		.byte	0
 1755 0087 00       		.space	1
 1756 0088 02000000 		.word	2
ARM GAS  C:\Users\HUAV\AppData\Local\Temp\cceh0wp1.s 			page 47


 1757 008c 000C0040 		.word	1073744896
 1758 0090 0C000000 		.word	12
 1759 0094 FFFFFFFF 		.word	-1
 1760 0098 FFFFFFFF 		.word	-1
 1761 009c 00000258 		.word	1476526080
 1762 00a0 0800     		.short	8
 1763 00a2 00       		.byte	0
 1764 00a3 00       		.space	1
 1765 00a4 02000000 		.word	2
 1766 00a8 00080040 		.word	1073743872
 1767 00ac 00000000 		.word	0
 1768 00b0 FFFFFFFF 		.word	-1
 1769 00b4 FFFFFFFF 		.word	-1
 1770 00b8 000C0258 		.word	1476529152
 1771 00bc 0010     		.short	4096
 1772 00be 00       		.byte	0
 1773 00bf 00       		.space	1
 1774 00c0 02000000 		.word	2
 1775 00c4 00080040 		.word	1073743872
 1776 00c8 04000000 		.word	4
 1777 00cc FFFFFFFF 		.word	-1
 1778 00d0 FFFFFFFF 		.word	-1
 1779 00d4 000C0258 		.word	1476529152
 1780 00d8 0020     		.short	8192
 1781 00da 00       		.byte	0
 1782 00db 00       		.space	1
 1783 00dc 02000000 		.word	2
 1784 00e0 00080040 		.word	1073743872
 1785 00e4 08000000 		.word	8
 1786 00e8 FFFFFFFF 		.word	-1
 1787 00ec FFFFFFFF 		.word	-1
 1788 00f0 000C0258 		.word	1476529152
 1789 00f4 0040     		.short	16384
 1790 00f6 00       		.byte	0
 1791 00f7 00       		.space	1
 1792 00f8 02000000 		.word	2
 1793 00fc 00080040 		.word	1073743872
 1794 0100 0C000000 		.word	12
 1795 0104 FFFFFFFF 		.word	-1
 1796 0108 FFFFFFFF 		.word	-1
 1797 010c 000C0258 		.word	1476529152
 1798 0110 0080     		.short	-32768
 1799 0112 00       		.byte	0
 1800 0113 00       		.space	1
 1801 0114 02000000 		.word	2
 1802 0118 00400140 		.word	1073823744
 1803 011c 00000000 		.word	0
 1804 0120 FFFFFFFF 		.word	-1
 1805 0124 FFFFFFFF 		.word	-1
 1806 0128 00100258 		.word	1476530176
 1807 012c 2000     		.short	32
 1808 012e 00       		.byte	0
 1809 012f 00       		.space	1
 1810 0130 02000000 		.word	2
 1811 0134 00400140 		.word	1073823744
 1812 0138 04000000 		.word	4
 1813 013c FFFFFFFF 		.word	-1
ARM GAS  C:\Users\HUAV\AppData\Local\Temp\cceh0wp1.s 			page 48


 1814 0140 FFFFFFFF 		.word	-1
 1815 0144 00100258 		.word	1476530176
 1816 0148 4000     		.short	64
 1817 014a 00       		.byte	0
 1818 014b 00       		.space	1
 1819 014c 02000000 		.word	2
 1820              		.section	.rodata.default_sig_serial,"a"
 1821              		.align	2
 1822              		.set	.LANCHOR1,. + 0
 1825              	default_sig_serial:
 1826 0000 00010203 		.ascii	"\000\001\002\003\004\005\006\007\010\011\012\013"
 1826      04050607 
 1826      08090A0B 
 1827              		.text
 1828              	.Letext0:
 1829              		.file 3 "d:\\software\\zephyr_env_gcc\\gcc-arm-none-eabi-9-2019-q4-major-win32\\arm-none-eabi\\inc
 1830              		.file 4 "d:\\software\\zephyr_env_gcc\\gcc-arm-none-eabi-9-2019-q4-major-win32\\arm-none-eabi\\inc
 1831              		.file 5 "d:\\software\\zephyr_env_gcc\\gcc-arm-none-eabi-9-2019-q4-major-win32\\arm-none-eabi\\inc
 1832              		.file 6 "d:\\software\\zephyr_env_gcc\\gcc-arm-none-eabi-9-2019-q4-major-win32\\arm-none-eabi\\inc
 1833              		.file 7 "d:\\software\\zephyr_env_gcc\\gcc-arm-none-eabi-9-2019-q4-major-win32\\lib\\gcc\\arm-none
 1834              		.file 8 "d:\\software\\zephyr_env_gcc\\gcc-arm-none-eabi-9-2019-q4-major-win32\\arm-none-eabi\\inc
 1835              		.file 9 "d:\\software\\zephyr_env_gcc\\gcc-arm-none-eabi-9-2019-q4-major-win32\\arm-none-eabi\\inc
 1836              		.file 10 "HAL_Lib/CMSIS/Core/Include/core_cm7.h"
 1837              		.file 11 "HAL_Lib/CMSIS/Device/ST/STM32H7xx/Include/system_stm32h7xx.h"
 1838              		.file 12 "HAL_Lib/CMSIS/Device/ST/STM32H7xx/Include/stm32h743xx.h"
 1839              		.file 13 "d:\\software\\zephyr_env_gcc\\gcc-arm-none-eabi-9-2019-q4-major-win32\\arm-none-eabi\\in
 1840              		.file 14 "HAL_Lib/STM32H7xx_HAL_Driver/Inc/stm32h7xx_hal_def.h"
 1841              		.file 15 "HAL_Lib/STM32H7xx_HAL_Driver/Inc/stm32h7xx_hal_gpio.h"
 1842              		.file 16 "HAL_Lib/STM32H7xx_HAL_Driver/Inc/stm32h7xx_hal_dma.h"
 1843              		.file 17 "HAL_Lib/STM32H7xx_HAL_Driver/Inc/stm32h7xx_hal_flash.h"
 1844              		.file 18 "HAL_Lib/STM32H7xx_HAL_Driver/Inc/stm32h7xx_hal_spi.h"
 1845              		.file 19 "HAL_Lib/STM32H7xx_HAL_Driver/Inc/stm32h7xx_hal_tim.h"
 1846              		.file 20 "HAL_Lib/STM32H7xx_HAL_Driver/Inc/stm32h7xx_hal_uart.h"
 1847              		.file 21 "HAL_Lib/STM32H7xx_HAL_Driver/Inc/stm32h7xx_hal.h"
 1848              		.file 22 "Bsp/Bsp_GPIO.h"
 1849              		.file 23 "Bsp/Bsp_DMA.h"
 1850              		.file 24 "Bsp/Bsp_Timer.h"
 1851              		.file 25 "Device/Dev_Dshot.h"
 1852              		.file 26 "Bsp/Bsp_SPI.h"
 1853              		.file 27 "Device/Dev_Led.h"
 1854              		.file 28 "debug/debug_util.h"
 1855              		.file 29 "IO_Def/IO_Definition.h"
 1856              		.file 30 "Service/Srv_Actuator.h"
 1857              		.file 31 "System/runtime/runtime.h"
 1858              		.file 32 "Service/imu_data.h"
 1859              		.file 33 "Service/Srv_IMUSample.h"
 1860              		.file 34 "Device/Dev_Sbus.h"
 1861              		.file 35 "Device/Dev_CRSF.h"
 1862              		.file 36 "Bsp/Bsp_Uart.h"
 1863              		.file 37 "Service/Srv_Receiver.h"
 1864              		.file 38 "Service/Srv_DataHub.h"
 1865              		.file 39 "System/mmu/mmu.h"
 1866              		.file 40 "<built-in>"
ARM GAS  C:\Users\HUAV\AppData\Local\Temp\cceh0wp1.s 			page 49

