ARM GAS  C:\Users\8bit\AppData\Local\Temp\ccmkWe7U.s 			page 1


   1              		.cpu cortex-m4
   2              		.arch armv7e-m
   3              		.fpu fpv4-sp-d16
   4              		.eabi_attribute 27, 1
   5              		.eabi_attribute 28, 1
   6              		.eabi_attribute 20, 1
   7              		.eabi_attribute 21, 1
   8              		.eabi_attribute 23, 3
   9              		.eabi_attribute 24, 1
  10              		.eabi_attribute 25, 1
  11              		.eabi_attribute 26, 1
  12              		.eabi_attribute 30, 1
  13              		.eabi_attribute 34, 1
  14              		.eabi_attribute 18, 4
  15              		.file	"Srv_Flow.c"
  16              		.text
  17              	.Ltext0:
  18              		.cfi_sections	.debug_frame
  19              		.section	.text.SrvFlow_Init,"ax",%progbits
  20              		.align	1
  21              		.syntax unified
  22              		.thumb
  23              		.thumb_func
  25              	SrvFlow_Init:
  26              	.LVL0:
  27              	.LFB145:
  28              		.file 1 "Service/Srv_Flow.c"
   1:Service/Srv_Flow.c **** #include "Srv_Flow.h"
   2:Service/Srv_Flow.c **** #include "Srv_DataHub.h"
   3:Service/Srv_Flow.c **** #include "Dev_Flow_3901U.h"
   4:Service/Srv_Flow.c **** #include "Bsp_Uart.h"
   5:Service/Srv_Flow.c **** #include "HW_Def.h"
   6:Service/Srv_Flow.c **** #include "../FCHW_Config.h"
   7:Service/Srv_Flow.c **** #include "../common/util.h"
   8:Service/Srv_Flow.c **** #include <math.h>
   9:Service/Srv_Flow.c **** 
  10:Service/Srv_Flow.c **** #define SrvFlow_TaskPeriod_Base 50  /* 50Hz */
  11:Service/Srv_Flow.c **** 
  12:Service/Srv_Flow.c **** /* internal vriable */
  13:Service/Srv_Flow.c **** static SrvFlowObj_TypeDef FlowMonitor = {
  14:Service/Srv_Flow.c ****     .init = false,
  15:Service/Srv_Flow.c ****     .api = NULL,
  16:Service/Srv_Flow.c ****     .obj = NULL,
  17:Service/Srv_Flow.c ****     .time_stamp = 0,
  18:Service/Srv_Flow.c ****     .lst_time_stamp = 0,
  19:Service/Srv_Flow.c ****     .flt_x_i = 0.0f,
  20:Service/Srv_Flow.c ****     .flt_y_i = 0.0f,
  21:Service/Srv_Flow.c ****     .att_x_bias = 0.0f,
  22:Service/Srv_Flow.c ****     .att_y_bias = 0.0f,
  23:Service/Srv_Flow.c ****     .lst_out_x = 0.0f,
  24:Service/Srv_Flow.c ****     .lst_out_y = 0.0f,
  25:Service/Srv_Flow.c ****     .out_x = 0.0f,
  26:Service/Srv_Flow.c ****     .out_y = 0.0f,
  27:Service/Srv_Flow.c ****     .x_v = 0.0f,
  28:Service/Srv_Flow.c ****     .y_v = 0.0f,
  29:Service/Srv_Flow.c **** };
  30:Service/Srv_Flow.c **** 
ARM GAS  C:\Users\8bit\AppData\Local\Temp\ccmkWe7U.s 			page 2


  31:Service/Srv_Flow.c **** /* internal function */
  32:Service/Srv_Flow.c **** static void SrvFlow_3901U_RawComput(uint32_t time_stamp, int16_t raw_x, int16_t raw_y);
  33:Service/Srv_Flow.c **** 
  34:Service/Srv_Flow.c **** /* external function */
  35:Service/Srv_Flow.c **** static bool SrvFlow_Init(SrvFlow_SensorType_List type);
  36:Service/Srv_Flow.c **** static bool SrvFlow_Get_Data(SrvFlowData_TypeDef *p_data);
  37:Service/Srv_Flow.c **** static bool SrvFlow_Sample(SrvFlow_SensorType_List type);
  38:Service/Srv_Flow.c **** 
  39:Service/Srv_Flow.c **** SrvFlow_TypeDef SrvFlow = {
  40:Service/Srv_Flow.c ****     .init =  SrvFlow_Init,
  41:Service/Srv_Flow.c ****     .get_data = SrvFlow_Get_Data,
  42:Service/Srv_Flow.c ****     .sample = SrvFlow_Sample,
  43:Service/Srv_Flow.c **** };
  44:Service/Srv_Flow.c **** 
  45:Service/Srv_Flow.c **** static bool SrvFlow_Init(SrvFlow_SensorType_List type)
  46:Service/Srv_Flow.c **** {
  29              		.loc 1 46 1 view -0
  30              		.cfi_startproc
  31              		@ args = 0, pretend = 0, frame = 0
  32              		@ frame_needed = 0, uses_anonymous_args = 0
  33              		.loc 1 46 1 is_stmt 0 view .LVU1
  34 0000 38B5     		push	{r3, r4, r5, lr}
  35              	.LCFI0:
  36              		.cfi_def_cfa_offset 16
  37              		.cfi_offset 3, -16
  38              		.cfi_offset 4, -12
  39              		.cfi_offset 5, -8
  40              		.cfi_offset 14, -4
  47:Service/Srv_Flow.c ****     void *p_obj = NULL;
  41              		.loc 1 47 5 is_stmt 1 view .LVU2
  42              	.LVL1:
  48:Service/Srv_Flow.c ****     void *port_obj = NULL;
  43              		.loc 1 48 5 view .LVU3
  49:Service/Srv_Flow.c **** 
  50:Service/Srv_Flow.c ****     FlowMonitor.type = type;
  44              		.loc 1 50 5 view .LVU4
  45              		.loc 1 50 22 is_stmt 0 view .LVU5
  46 0002 114B     		ldr	r3, .L9
  47 0004 1870     		strb	r0, [r3]
  51:Service/Srv_Flow.c ****     switch ((uint8_t)FlowMonitor.type)
  48              		.loc 1 51 5 is_stmt 1 view .LVU6
  49 0006 0128     		cmp	r0, #1
  50 0008 01D0     		beq	.L8
  52:Service/Srv_Flow.c ****     {
  53:Service/Srv_Flow.c ****         case Flow_3901U:
  54:Service/Srv_Flow.c ****             /* use uart6 connect with flow sensor */
  55:Service/Srv_Flow.c ****             p_obj = SrvOsCommon.malloc(DevFlow3901U_Size);
  56:Service/Srv_Flow.c ****             port_obj = SrvOsCommon.malloc(BspUartObj_Size);
  57:Service/Srv_Flow.c ****             if ((p_obj == NULL) || (port_obj == NULL))
  58:Service/Srv_Flow.c ****                 return false;
  59:Service/Srv_Flow.c **** 
  60:Service/Srv_Flow.c ****             To_DevFlow3901U_Obj(p_obj)->get_sys_time = SrvOsCommon.get_os_ms;
  61:Service/Srv_Flow.c ****             FlowMonitor.obj = p_obj;
  62:Service/Srv_Flow.c ****             FlowMonitor.api = &DevFlow3901;
  63:Service/Srv_Flow.c **** 
  64:Service/Srv_Flow.c ****             if (DevFlow3901.init(To_DevFlow3901U_Obj(p_obj)) == 0)
  65:Service/Srv_Flow.c ****                 return false;
ARM GAS  C:\Users\8bit\AppData\Local\Temp\ccmkWe7U.s 			page 3


  66:Service/Srv_Flow.c ****             
  67:Service/Srv_Flow.c ****             /* port init */
  68:Service/Srv_Flow.c **** #if (FLOW_SUM != 0)
  69:Service/Srv_Flow.c ****             To_BspUart_Obj(port_obj)->baudrate = FLOW_3901U_BAUDRATE;
  70:Service/Srv_Flow.c ****             To_BspUart_Obj(port_obj)->cust_data_addr = p_obj;
  71:Service/Srv_Flow.c ****             To_BspUart_Obj(port_obj)->irq_type = BspUart_IRQ_Type_Idle;
  72:Service/Srv_Flow.c ****             To_BspUart_Obj(port_obj)->instance = FLOW_PORT;
  73:Service/Srv_Flow.c ****             To_BspUart_Obj(port_obj)->rx_io = Uart6_RxPin;
  74:Service/Srv_Flow.c ****             To_BspUart_Obj(port_obj)->tx_io = Uart6_TxPin;
  75:Service/Srv_Flow.c ****             To_BspUart_Obj(port_obj)->pin_swap = false;
  76:Service/Srv_Flow.c ****             To_BspUart_Obj(port_obj)->rx_dma = FLOW_RX_DMA;
  77:Service/Srv_Flow.c ****             To_BspUart_Obj(port_obj)->rx_stream = FLOW_RX_DMA_STREAM;
  78:Service/Srv_Flow.c ****             To_BspUart_Obj(port_obj)->tx_dma = FLOW_TX_DMA;
  79:Service/Srv_Flow.c ****             To_BspUart_Obj(port_obj)->tx_stream = FLOW_TX_DMA_STREAM;
  80:Service/Srv_Flow.c ****             To_BspUart_Obj(port_obj)->rx_size = 128;
  81:Service/Srv_Flow.c ****             To_BspUart_Obj(port_obj)->rx_buf = SrvOsCommon.malloc(To_BspUart_Obj(port_obj)->rx_size
  82:Service/Srv_Flow.c ****             if (To_BspUart_Obj(port_obj)->rx_buf == NULL)
  83:Service/Srv_Flow.c ****                 return false;
  84:Service/Srv_Flow.c **** 
  85:Service/Srv_Flow.c ****             BspUart.init(port_obj);
  86:Service/Srv_Flow.c ****             /* set port parse callback */
  87:Service/Srv_Flow.c ****             BspUart.set_rx_callback(To_BspUart_Obj(port_obj), (BspUART_Callback *)DevFlow3901.recv)
  88:Service/Srv_Flow.c ****             FlowMonitor.init = true;
  89:Service/Srv_Flow.c **** #endif
  90:Service/Srv_Flow.c ****             return true;
  91:Service/Srv_Flow.c **** 
  92:Service/Srv_Flow.c ****         default: return false;
  51              		.loc 1 92 25 is_stmt 0 view .LVU7
  52 000a 0020     		movs	r0, #0
  53              	.LVL2:
  54              	.L2:
  93:Service/Srv_Flow.c ****     }
  94:Service/Srv_Flow.c **** 
  95:Service/Srv_Flow.c ****     if (FlowMonitor.thread_freq)
  96:Service/Srv_Flow.c ****     {
  97:Service/Srv_Flow.c ****         /* create sample task */
  98:Service/Srv_Flow.c ****         /* reserved */
  99:Service/Srv_Flow.c ****     }
 100:Service/Srv_Flow.c **** 
 101:Service/Srv_Flow.c ****     return false;
 102:Service/Srv_Flow.c **** }
  55              		.loc 1 102 1 view .LVU8
  56 000c 38BD     		pop	{r3, r4, r5, pc}
  57              	.LVL3:
  58              	.L8:
  55:Service/Srv_Flow.c ****             port_obj = SrvOsCommon.malloc(BspUartObj_Size);
  59              		.loc 1 55 13 is_stmt 1 view .LVU9
  55:Service/Srv_Flow.c ****             port_obj = SrvOsCommon.malloc(BspUartObj_Size);
  60              		.loc 1 55 32 is_stmt 0 view .LVU10
  61 000e 0F4D     		ldr	r5, .L9+4
  62 0010 AB6A     		ldr	r3, [r5, #40]
  55:Service/Srv_Flow.c ****             port_obj = SrvOsCommon.malloc(BspUartObj_Size);
  63              		.loc 1 55 21 view .LVU11
  64 0012 2C20     		movs	r0, #44
  65              	.LVL4:
  55:Service/Srv_Flow.c ****             port_obj = SrvOsCommon.malloc(BspUartObj_Size);
  66              		.loc 1 55 21 view .LVU12
ARM GAS  C:\Users\8bit\AppData\Local\Temp\ccmkWe7U.s 			page 4


  67 0014 9847     		blx	r3
  68              	.LVL5:
  55:Service/Srv_Flow.c ****             port_obj = SrvOsCommon.malloc(BspUartObj_Size);
  69              		.loc 1 55 21 view .LVU13
  70 0016 0446     		mov	r4, r0
  71              	.LVL6:
  56:Service/Srv_Flow.c ****             if ((p_obj == NULL) || (port_obj == NULL))
  72              		.loc 1 56 13 is_stmt 1 view .LVU14
  56:Service/Srv_Flow.c ****             if ((p_obj == NULL) || (port_obj == NULL))
  73              		.loc 1 56 35 is_stmt 0 view .LVU15
  74 0018 AB6A     		ldr	r3, [r5, #40]
  56:Service/Srv_Flow.c ****             if ((p_obj == NULL) || (port_obj == NULL))
  75              		.loc 1 56 24 view .LVU16
  76 001a 7020     		movs	r0, #112
  77              	.LVL7:
  56:Service/Srv_Flow.c ****             if ((p_obj == NULL) || (port_obj == NULL))
  78              		.loc 1 56 24 view .LVU17
  79 001c 9847     		blx	r3
  80              	.LVL8:
  57:Service/Srv_Flow.c ****                 return false;
  81              		.loc 1 57 13 is_stmt 1 view .LVU18
  57:Service/Srv_Flow.c ****                 return false;
  82              		.loc 1 57 16 is_stmt 0 view .LVU19
  83 001e 64B1     		cbz	r4, .L4
  57:Service/Srv_Flow.c ****                 return false;
  84              		.loc 1 57 33 discriminator 1 view .LVU20
  85 0020 68B1     		cbz	r0, .L5
  60:Service/Srv_Flow.c ****             FlowMonitor.obj = p_obj;
  86              		.loc 1 60 13 is_stmt 1 view .LVU21
  60:Service/Srv_Flow.c ****             FlowMonitor.obj = p_obj;
  87              		.loc 1 60 67 is_stmt 0 view .LVU22
  88 0022 2B68     		ldr	r3, [r5]
  60:Service/Srv_Flow.c ****             FlowMonitor.obj = p_obj;
  89              		.loc 1 60 54 view .LVU23
  90 0024 6362     		str	r3, [r4, #36]
  61:Service/Srv_Flow.c ****             FlowMonitor.api = &DevFlow3901;
  91              		.loc 1 61 13 is_stmt 1 view .LVU24
  61:Service/Srv_Flow.c ****             FlowMonitor.api = &DevFlow3901;
  92              		.loc 1 61 29 is_stmt 0 view .LVU25
  93 0026 084A     		ldr	r2, .L9
  94 0028 9460     		str	r4, [r2, #8]
  62:Service/Srv_Flow.c **** 
  95              		.loc 1 62 13 is_stmt 1 view .LVU26
  62:Service/Srv_Flow.c **** 
  96              		.loc 1 62 29 is_stmt 0 view .LVU27
  97 002a 094B     		ldr	r3, .L9+8
  98 002c 5360     		str	r3, [r2, #4]
  64:Service/Srv_Flow.c ****                 return false;
  99              		.loc 1 64 13 is_stmt 1 view .LVU28
  64:Service/Srv_Flow.c ****                 return false;
 100              		.loc 1 64 28 is_stmt 0 view .LVU29
 101 002e 1B68     		ldr	r3, [r3]
  64:Service/Srv_Flow.c ****                 return false;
 102              		.loc 1 64 17 view .LVU30
 103 0030 2046     		mov	r0, r4
 104              	.LVL9:
  64:Service/Srv_Flow.c ****                 return false;
ARM GAS  C:\Users\8bit\AppData\Local\Temp\ccmkWe7U.s 			page 5


 105              		.loc 1 64 17 view .LVU31
 106 0032 9847     		blx	r3
 107              	.LVL10:
  64:Service/Srv_Flow.c ****                 return false;
 108              		.loc 1 64 16 view .LVU32
 109 0034 28B1     		cbz	r0, .L6
  90:Service/Srv_Flow.c **** 
 110              		.loc 1 90 20 view .LVU33
 111 0036 0120     		movs	r0, #1
 112 0038 E8E7     		b	.L2
 113              	.LVL11:
 114              	.L4:
  58:Service/Srv_Flow.c **** 
 115              		.loc 1 58 24 view .LVU34
 116 003a 0020     		movs	r0, #0
 117              	.LVL12:
  58:Service/Srv_Flow.c **** 
 118              		.loc 1 58 24 view .LVU35
 119 003c E6E7     		b	.L2
 120              	.LVL13:
 121              	.L5:
  58:Service/Srv_Flow.c **** 
 122              		.loc 1 58 24 view .LVU36
 123 003e 0020     		movs	r0, #0
 124              	.LVL14:
  58:Service/Srv_Flow.c **** 
 125              		.loc 1 58 24 view .LVU37
 126 0040 E4E7     		b	.L2
 127              	.L6:
  65:Service/Srv_Flow.c ****             
 128              		.loc 1 65 24 view .LVU38
 129 0042 0020     		movs	r0, #0
 130 0044 E2E7     		b	.L2
 131              	.L10:
 132 0046 00BF     		.align	2
 133              	.L9:
 134 0048 00000000 		.word	.LANCHOR0
 135 004c 00000000 		.word	SrvOsCommon
 136 0050 00000000 		.word	DevFlow3901
 137              		.cfi_endproc
 138              	.LFE145:
 140              		.section	.text.SrvFlow_Sample,"ax",%progbits
 141              		.align	1
 142              		.syntax unified
 143              		.thumb
 144              		.thumb_func
 146              	SrvFlow_Sample:
 147              	.LVL15:
 148              	.LFB146:
 103:Service/Srv_Flow.c **** 
 104:Service/Srv_Flow.c **** static bool SrvFlow_Sample(SrvFlow_SensorType_List type)
 105:Service/Srv_Flow.c **** {
 149              		.loc 1 105 1 is_stmt 1 view -0
 150              		.cfi_startproc
 151              		@ args = 0, pretend = 0, frame = 0
 152              		@ frame_needed = 0, uses_anonymous_args = 0
 153              		@ link register save eliminated.
ARM GAS  C:\Users\8bit\AppData\Local\Temp\ccmkWe7U.s 			page 6


 106:Service/Srv_Flow.c ****     return false;
 154              		.loc 1 106 5 view .LVU40
 107:Service/Srv_Flow.c **** }
 155              		.loc 1 107 1 is_stmt 0 view .LVU41
 156 0000 0020     		movs	r0, #0
 157              	.LVL16:
 158              		.loc 1 107 1 view .LVU42
 159 0002 7047     		bx	lr
 160              		.cfi_endproc
 161              	.LFE146:
 163              		.global	__aeabi_f2d
 164              		.global	__aeabi_dmul
 165              		.global	__aeabi_dsub
 166              		.global	__aeabi_d2f
 167              		.section	.text.SrvFlow_3901U_RawComput,"ax",%progbits
 168              		.align	1
 169              		.syntax unified
 170              		.thumb
 171              		.thumb_func
 173              	SrvFlow_3901U_RawComput:
 174              	.LVL17:
 175              	.LFB148:
 108:Service/Srv_Flow.c **** 
 109:Service/Srv_Flow.c **** static bool SrvFlow_Get_Data(SrvFlowData_TypeDef *p_data)
 110:Service/Srv_Flow.c **** {
 111:Service/Srv_Flow.c ****     uint32_t time_stamp = 0;
 112:Service/Srv_Flow.c ****     int16_t raw_x = 0;
 113:Service/Srv_Flow.c ****     int16_t raw_y = 0;
 114:Service/Srv_Flow.c **** 
 115:Service/Srv_Flow.c ****     if (p_data)
 116:Service/Srv_Flow.c ****     {
 117:Service/Srv_Flow.c ****         switch ((uint8_t)FlowMonitor.type)
 118:Service/Srv_Flow.c ****         {
 119:Service/Srv_Flow.c ****             case Flow_3901U:
 120:Service/Srv_Flow.c ****                 To_DevFlow3901U_Api(FlowMonitor.api)->get(To_DevFlow3901U_Obj(FlowMonitor.obj), \
 121:Service/Srv_Flow.c ****                                     &time_stamp, &raw_x, &raw_y, NULL);
 122:Service/Srv_Flow.c ****                 SrvFlow_3901U_RawComput(time_stamp, raw_x, raw_y);
 123:Service/Srv_Flow.c ****                 break;
 124:Service/Srv_Flow.c **** 
 125:Service/Srv_Flow.c ****             default: return false;
 126:Service/Srv_Flow.c ****         }
 127:Service/Srv_Flow.c ****     }
 128:Service/Srv_Flow.c **** 
 129:Service/Srv_Flow.c ****     return false;
 130:Service/Srv_Flow.c **** }
 131:Service/Srv_Flow.c **** 
 132:Service/Srv_Flow.c **** /************************************************************ distance process impliment **********
 133:Service/Srv_Flow.c **** /* comput raw data */
 134:Service/Srv_Flow.c **** static void SrvFlow_3901U_RawComput(uint32_t time_stamp, int16_t raw_x, int16_t raw_y)
 135:Service/Srv_Flow.c **** {
 176              		.loc 1 135 1 is_stmt 1 view -0
 177              		.cfi_startproc
 178              		@ args = 0, pretend = 0, frame = 24
 179              		@ frame_needed = 0, uses_anonymous_args = 0
 180              		.loc 1 135 1 is_stmt 0 view .LVU44
 181 0000 F0B5     		push	{r4, r5, r6, r7, lr}
 182              	.LCFI1:
ARM GAS  C:\Users\8bit\AppData\Local\Temp\ccmkWe7U.s 			page 7


 183              		.cfi_def_cfa_offset 20
 184              		.cfi_offset 4, -20
 185              		.cfi_offset 5, -16
 186              		.cfi_offset 6, -12
 187              		.cfi_offset 7, -8
 188              		.cfi_offset 14, -4
 189 0002 2DED048B 		vpush.64	{d8, d9}
 190              	.LCFI2:
 191              		.cfi_def_cfa_offset 36
 192              		.cfi_offset 80, -36
 193              		.cfi_offset 81, -32
 194              		.cfi_offset 82, -28
 195              		.cfi_offset 83, -24
 196 0006 8DB0     		sub	sp, sp, #52
 197              	.LCFI3:
 198              		.cfi_def_cfa_offset 88
 199 0008 0546     		mov	r5, r0
 200 000a 08EE901A 		vmov	s17, r1	@ int
 201 000e 08EE102A 		vmov	s16, r2	@ int
 136:Service/Srv_Flow.c ****     uint32_t time = 0;
 202              		.loc 1 136 5 is_stmt 1 view .LVU45
 203              		.loc 1 136 14 is_stmt 0 view .LVU46
 204 0012 0024     		movs	r4, #0
 205 0014 0B94     		str	r4, [sp, #44]
 137:Service/Srv_Flow.c ****     float pitch = 0.0f;
 206              		.loc 1 137 5 is_stmt 1 view .LVU47
 207              		.loc 1 137 11 is_stmt 0 view .LVU48
 208 0016 0023     		movs	r3, #0
 209 0018 0A93     		str	r3, [sp, #40]	@ float
 138:Service/Srv_Flow.c ****     float roll = 0.0f;
 210              		.loc 1 138 5 is_stmt 1 view .LVU49
 211              		.loc 1 138 11 is_stmt 0 view .LVU50
 212 001a 0993     		str	r3, [sp, #36]	@ float
 139:Service/Srv_Flow.c ****     float yaw = 0.0f;
 213              		.loc 1 139 5 is_stmt 1 view .LVU51
 214              		.loc 1 139 11 is_stmt 0 view .LVU52
 215 001c 0893     		str	r3, [sp, #32]	@ float
 140:Service/Srv_Flow.c ****     float pos_x_diff = 0.0f;
 216              		.loc 1 140 5 is_stmt 1 view .LVU53
 217              	.LVL18:
 141:Service/Srv_Flow.c ****     float pos_y_diff = 0.0f;
 218              		.loc 1 141 5 view .LVU54
 142:Service/Srv_Flow.c ****     float dt = 0.0f;
 219              		.loc 1 142 5 view .LVU55
 143:Service/Srv_Flow.c ****     float cpi = 0.0f;
 220              		.loc 1 143 5 view .LVU56
 144:Service/Srv_Flow.c ****     float alt = 0.0f;
 221              		.loc 1 144 5 view .LVU57
 222              		.loc 1 144 11 is_stmt 0 view .LVU58
 223 001e 0793     		str	r3, [sp, #28]	@ float
 145:Service/Srv_Flow.c **** 
 146:Service/Srv_Flow.c ****     SrvDataHub.get_baro_altitude(NULL, NULL, &alt, NULL, NULL, NULL);
 224              		.loc 1 146 5 is_stmt 1 view .LVU59
 225              		.loc 1 146 15 is_stmt 0 view .LVU60
 226 0020 754E     		ldr	r6, .L15+8
 227 0022 376D     		ldr	r7, [r6, #80]
 228              		.loc 1 146 5 view .LVU61
ARM GAS  C:\Users\8bit\AppData\Local\Temp\ccmkWe7U.s 			page 8


 229 0024 0194     		str	r4, [sp, #4]
 230 0026 0094     		str	r4, [sp]
 231 0028 2346     		mov	r3, r4
 232 002a 07AA     		add	r2, sp, #28
 233              	.LVL19:
 234              		.loc 1 146 5 view .LVU62
 235 002c 2146     		mov	r1, r4
 236              	.LVL20:
 237              		.loc 1 146 5 view .LVU63
 238 002e 2046     		mov	r0, r4
 239              	.LVL21:
 240              		.loc 1 146 5 view .LVU64
 241 0030 B847     		blx	r7
 242              	.LVL22:
 147:Service/Srv_Flow.c ****     SrvDataHub.get_attitude(&time, &pitch, &roll, &yaw, NULL, NULL, NULL, NULL, NULL);
 243              		.loc 1 147 5 is_stmt 1 view .LVU65
 244              		.loc 1 147 15 is_stmt 0 view .LVU66
 245 0032 766C     		ldr	r6, [r6, #68]
 246              		.loc 1 147 5 view .LVU67
 247 0034 0494     		str	r4, [sp, #16]
 248 0036 0394     		str	r4, [sp, #12]
 249 0038 0294     		str	r4, [sp, #8]
 250 003a 0194     		str	r4, [sp, #4]
 251 003c 0094     		str	r4, [sp]
 252 003e 08AB     		add	r3, sp, #32
 253 0040 09AA     		add	r2, sp, #36
 254 0042 0AA9     		add	r1, sp, #40
 255 0044 0BA8     		add	r0, sp, #44
 256 0046 B047     		blx	r6
 257              	.LVL23:
 148:Service/Srv_Flow.c ****     pitch = DEG_2_RAD(pitch);
 258              		.loc 1 148 5 is_stmt 1 view .LVU68
 259              		.loc 1 148 13 is_stmt 0 view .LVU69
 260 0048 DFED6C7A 		vldr.32	s15, .L15+12
 261 004c 9DED0A7A 		vldr.32	s14, [sp, #40]
 262 0050 C7EE279A 		vdiv.f32	s19, s14, s15
 263              		.loc 1 148 11 view .LVU70
 264 0054 CDED0A9A 		vstr.32	s19, [sp, #40]
 149:Service/Srv_Flow.c ****     roll = DEG_2_RAD(roll);
 265              		.loc 1 149 5 is_stmt 1 view .LVU71
 266              		.loc 1 149 12 is_stmt 0 view .LVU72
 267 0058 DDED096A 		vldr.32	s13, [sp, #36]
 268 005c 86EEA77A 		vdiv.f32	s14, s13, s15
 269              		.loc 1 149 10 view .LVU73
 270 0060 8DED097A 		vstr.32	s14, [sp, #36]
 150:Service/Srv_Flow.c ****     yaw = DEG_2_RAD(yaw);
 271              		.loc 1 150 5 is_stmt 1 view .LVU74
 272              		.loc 1 150 11 is_stmt 0 view .LVU75
 273 0064 9DED086A 		vldr.32	s12, [sp, #32]
 274 0068 C6EE276A 		vdiv.f32	s13, s12, s15
 275              		.loc 1 150 9 view .LVU76
 276 006c CDED086A 		vstr.32	s13, [sp, #32]
 151:Service/Srv_Flow.c **** 
 152:Service/Srv_Flow.c ****     FlowMonitor.time_stamp = time_stamp;
 277              		.loc 1 152 5 is_stmt 1 view .LVU77
 278              		.loc 1 152 28 is_stmt 0 view .LVU78
 279 0070 634C     		ldr	r4, .L15+16
ARM GAS  C:\Users\8bit\AppData\Local\Temp\ccmkWe7U.s 			page 9


 280 0072 E560     		str	r5, [r4, #12]
 153:Service/Srv_Flow.c **** 
 154:Service/Srv_Flow.c ****     /* simple low pass filter */
 155:Service/Srv_Flow.c ****     FlowMonitor.flt_x_i += (raw_x - FlowMonitor.flt_x_i) * FLOW_3901U_POSFILT_GAIN;
 281              		.loc 1 155 5 is_stmt 1 view .LVU79
 282              		.loc 1 155 25 is_stmt 0 view .LVU80
 283 0074 D4ED057A 		vldr.32	s15, [r4, #20]
 284              		.loc 1 155 35 view .LVU81
 285 0078 F8EEE88A 		vcvt.f32.s32	s17, s17
 286 007c 78EEE78A 		vsub.f32	s17, s17, s15
 287              		.loc 1 155 58 view .LVU82
 288 0080 DFED606A 		vldr.32	s13, .L15+20
 289 0084 68EEA68A 		vmul.f32	s17, s17, s13
 290              		.loc 1 155 25 view .LVU83
 291 0088 77EEA88A 		vadd.f32	s17, s15, s17
 292 008c C4ED058A 		vstr.32	s17, [r4, #20]
 156:Service/Srv_Flow.c ****     FlowMonitor.flt_y_i += (raw_y - FlowMonitor.flt_y_i) * FLOW_3901U_POSFILT_GAIN;
 293              		.loc 1 156 5 is_stmt 1 view .LVU84
 294              		.loc 1 156 25 is_stmt 0 view .LVU85
 295 0090 D4ED067A 		vldr.32	s15, [r4, #24]
 296              		.loc 1 156 35 view .LVU86
 297 0094 B8EEC88A 		vcvt.f32.s32	s16, s16
 298 0098 38EE678A 		vsub.f32	s16, s16, s15
 299              		.loc 1 156 58 view .LVU87
 300 009c 28EE268A 		vmul.f32	s16, s16, s13
 301              		.loc 1 156 25 view .LVU88
 302 00a0 37EE888A 		vadd.f32	s16, s15, s16
 303 00a4 84ED068A 		vstr.32	s16, [r4, #24]
 157:Service/Srv_Flow.c **** 
 158:Service/Srv_Flow.c ****     /* get attitude offset */
 159:Service/Srv_Flow.c ****     FlowMonitor.att_x_bias = (FLOW_3901U_ATTOFFSET_GAIN * tan(roll)  - FlowMonitor.att_x_bias) * FL
 304              		.loc 1 159 5 is_stmt 1 view .LVU89
 305              		.loc 1 159 59 is_stmt 0 view .LVU90
 306 00a8 17EE100A 		vmov	r0, s14
 307 00ac FFF7FEFF 		bl	__aeabi_f2d
 308              	.LVL24:
 309 00b0 41EC100B 		vmov	d0, r0, r1
 310 00b4 FFF7FEFF 		bl	tan
 311              	.LVL25:
 312 00b8 51EC100B 		vmov	r0, r1, d0
 313              		.loc 1 159 57 view .LVU91
 314 00bc 0022     		movs	r2, #0
 315 00be 524B     		ldr	r3, .L15+24
 316 00c0 FFF7FEFF 		bl	__aeabi_dmul
 317              	.LVL26:
 318 00c4 0646     		mov	r6, r0
 319 00c6 0F46     		mov	r7, r1
 320              		.loc 1 159 83 view .LVU92
 321 00c8 206A     		ldr	r0, [r4, #32]	@ float
 322 00ca FFF7FEFF 		bl	__aeabi_f2d
 323              	.LVL27:
 324 00ce 0246     		mov	r2, r0
 325 00d0 0B46     		mov	r3, r1
 326              		.loc 1 159 70 view .LVU93
 327 00d2 3046     		mov	r0, r6
 328 00d4 3946     		mov	r1, r7
 329 00d6 FFF7FEFF 		bl	__aeabi_dsub
ARM GAS  C:\Users\8bit\AppData\Local\Temp\ccmkWe7U.s 			page 10


 330              	.LVL28:
 331              		.loc 1 159 96 view .LVU94
 332 00da 45A3     		adr	r3, .L15
 333 00dc D3E90023 		ldrd	r2, [r3]
 334 00e0 FFF7FEFF 		bl	__aeabi_dmul
 335              	.LVL29:
 336 00e4 FFF7FEFF 		bl	__aeabi_d2f
 337              	.LVL30:
 338 00e8 09EE100A 		vmov	s18, r0
 339              		.loc 1 159 28 view .LVU95
 340 00ec 2062     		str	r0, [r4, #32]	@ float
 160:Service/Srv_Flow.c ****     FlowMonitor.att_y_bias = (FLOW_3901U_ATTOFFSET_GAIN * tan(pitch) - FlowMonitor.att_y_bias) * FL
 341              		.loc 1 160 5 is_stmt 1 view .LVU96
 342              		.loc 1 160 59 is_stmt 0 view .LVU97
 343 00ee 19EE900A 		vmov	r0, s19
 344 00f2 FFF7FEFF 		bl	__aeabi_f2d
 345              	.LVL31:
 346 00f6 41EC100B 		vmov	d0, r0, r1
 347 00fa FFF7FEFF 		bl	tan
 348              	.LVL32:
 349 00fe 51EC100B 		vmov	r0, r1, d0
 350              		.loc 1 160 57 view .LVU98
 351 0102 0022     		movs	r2, #0
 352 0104 404B     		ldr	r3, .L15+24
 353 0106 FFF7FEFF 		bl	__aeabi_dmul
 354              	.LVL33:
 355 010a 0646     		mov	r6, r0
 356 010c 0F46     		mov	r7, r1
 357              		.loc 1 160 83 view .LVU99
 358 010e 606A     		ldr	r0, [r4, #36]	@ float
 359 0110 FFF7FEFF 		bl	__aeabi_f2d
 360              	.LVL34:
 361 0114 0246     		mov	r2, r0
 362 0116 0B46     		mov	r3, r1
 363              		.loc 1 160 70 view .LVU100
 364 0118 3046     		mov	r0, r6
 365 011a 3946     		mov	r1, r7
 366 011c FFF7FEFF 		bl	__aeabi_dsub
 367              	.LVL35:
 368              		.loc 1 160 96 view .LVU101
 369 0120 33A3     		adr	r3, .L15
 370 0122 D3E90023 		ldrd	r2, [r3]
 371 0126 FFF7FEFF 		bl	__aeabi_dmul
 372              	.LVL36:
 373 012a FFF7FEFF 		bl	__aeabi_d2f
 374              	.LVL37:
 375 012e 07EE900A 		vmov	s15, r0
 376              		.loc 1 160 28 view .LVU102
 377 0132 6062     		str	r0, [r4, #36]	@ float
 161:Service/Srv_Flow.c **** 
 162:Service/Srv_Flow.c ****     FlowMonitor.out_x = FlowMonitor.flt_x_i - FlowMonitor.att_x_bias;
 378              		.loc 1 162 5 is_stmt 1 view .LVU103
 379              		.loc 1 162 45 is_stmt 0 view .LVU104
 380 0134 78EEC98A 		vsub.f32	s17, s17, s18
 381              		.loc 1 162 23 view .LVU105
 382 0138 C4ED0E8A 		vstr.32	s17, [r4, #56]
 163:Service/Srv_Flow.c ****     FlowMonitor.out_y = FlowMonitor.flt_y_i - FlowMonitor.att_y_bias;
ARM GAS  C:\Users\8bit\AppData\Local\Temp\ccmkWe7U.s 			page 11


 383              		.loc 1 163 5 is_stmt 1 view .LVU106
 384              		.loc 1 163 45 is_stmt 0 view .LVU107
 385 013c 78EE677A 		vsub.f32	s15, s16, s15
 386              		.loc 1 163 23 view .LVU108
 387 0140 C4ED0F7A 		vstr.32	s15, [r4, #60]
 164:Service/Srv_Flow.c **** 
 165:Service/Srv_Flow.c ****     /* comput velocity */
 166:Service/Srv_Flow.c ****     if (FlowMonitor.lst_time_stamp)
 388              		.loc 1 166 5 is_stmt 1 view .LVU109
 389              		.loc 1 166 20 is_stmt 0 view .LVU110
 390 0144 E36A     		ldr	r3, [r4, #44]
 391              		.loc 1 166 8 view .LVU111
 392 0146 53B3     		cbz	r3, .L13
 167:Service/Srv_Flow.c ****     {
 168:Service/Srv_Flow.c ****         dt = (time_stamp - FlowMonitor.lst_time_stamp) / 1000.0f;
 393              		.loc 1 168 9 is_stmt 1 view .LVU112
 394              		.loc 1 168 26 is_stmt 0 view .LVU113
 395 0148 EB1A     		subs	r3, r5, r3
 396              		.loc 1 168 56 view .LVU114
 397 014a 07EE103A 		vmov	s14, r3	@ int
 398 014e B8EE477A 		vcvt.f32.u32	s14, s14
 399              		.loc 1 168 12 view .LVU115
 400 0152 DFED2E6A 		vldr.32	s13, .L15+28
 401 0156 C7EE265A 		vdiv.f32	s11, s14, s13
 402              	.LVL38:
 169:Service/Srv_Flow.c ****         pos_x_diff = (FlowMonitor.out_x - FlowMonitor.lst_out_x) / dt;
 403              		.loc 1 169 9 is_stmt 1 view .LVU116
 404              		.loc 1 169 54 is_stmt 0 view .LVU117
 405 015a 94ED0C7A 		vldr.32	s14, [r4, #48]
 406              		.loc 1 169 41 view .LVU118
 407 015e 38EEC77A 		vsub.f32	s14, s17, s14
 408              		.loc 1 169 20 view .LVU119
 409 0162 C7EE256A 		vdiv.f32	s13, s14, s11
 410              	.LVL39:
 170:Service/Srv_Flow.c ****         pos_y_diff = (FlowMonitor.out_y - FlowMonitor.lst_out_y) / dt;
 411              		.loc 1 170 9 is_stmt 1 view .LVU120
 412              		.loc 1 170 54 is_stmt 0 view .LVU121
 413 0166 94ED0D6A 		vldr.32	s12, [r4, #52]
 414              		.loc 1 170 41 view .LVU122
 415 016a 37EEC66A 		vsub.f32	s12, s15, s12
 416              		.loc 1 170 20 view .LVU123
 417 016e 86EE257A 		vdiv.f32	s14, s12, s11
 418              	.LVL40:
 171:Service/Srv_Flow.c **** 
 172:Service/Srv_Flow.c ****         FlowMonitor.x_v += (pos_x_diff - FlowMonitor.x_v) * 0.1f;
 419              		.loc 1 172 9 is_stmt 1 view .LVU124
 420              		.loc 1 172 25 is_stmt 0 view .LVU125
 421 0172 94ED106A 		vldr.32	s12, [r4, #64]
 422              		.loc 1 172 40 view .LVU126
 423 0176 76EEC66A 		vsub.f32	s13, s13, s12
 424              	.LVL41:
 425              		.loc 1 172 59 view .LVU127
 426 017a DFED255A 		vldr.32	s11, .L15+32
 427              	.LVL42:
 428              		.loc 1 172 59 view .LVU128
 429 017e 66EEA56A 		vmul.f32	s13, s13, s11
 430              		.loc 1 172 25 view .LVU129
ARM GAS  C:\Users\8bit\AppData\Local\Temp\ccmkWe7U.s 			page 12


 431 0182 76EE266A 		vadd.f32	s13, s12, s13
 432 0186 C4ED106A 		vstr.32	s13, [r4, #64]
 173:Service/Srv_Flow.c ****         FlowMonitor.y_v += (pos_y_diff - FlowMonitor.y_v) * 0.1f;
 433              		.loc 1 173 9 is_stmt 1 view .LVU130
 434              		.loc 1 173 25 is_stmt 0 view .LVU131
 435 018a D4ED116A 		vldr.32	s13, [r4, #68]
 436              		.loc 1 173 40 view .LVU132
 437 018e 37EE667A 		vsub.f32	s14, s14, s13
 438              	.LVL43:
 439              		.loc 1 173 59 view .LVU133
 440 0192 27EE257A 		vmul.f32	s14, s14, s11
 441              		.loc 1 173 25 view .LVU134
 442 0196 36EE877A 		vadd.f32	s14, s13, s14
 443 019a 84ED117A 		vstr.32	s14, [r4, #68]
 444              	.LVL44:
 445              	.L13:
 174:Service/Srv_Flow.c ****     }
 175:Service/Srv_Flow.c **** 
 176:Service/Srv_Flow.c ****     /* set history data */
 177:Service/Srv_Flow.c ****     FlowMonitor.lst_time_stamp = time_stamp;
 446              		.loc 1 177 5 is_stmt 1 view .LVU135
 447              		.loc 1 177 32 is_stmt 0 view .LVU136
 448 019e 184B     		ldr	r3, .L15+16
 449 01a0 DD62     		str	r5, [r3, #44]
 178:Service/Srv_Flow.c ****     FlowMonitor.lst_out_x = FlowMonitor.out_x;
 450              		.loc 1 178 5 is_stmt 1 view .LVU137
 451              		.loc 1 178 27 is_stmt 0 view .LVU138
 452 01a2 C3ED0C8A 		vstr.32	s17, [r3, #48]
 179:Service/Srv_Flow.c ****     FlowMonitor.lst_out_y = FlowMonitor.out_y;
 453              		.loc 1 179 5 is_stmt 1 view .LVU139
 454              		.loc 1 179 27 is_stmt 0 view .LVU140
 455 01a6 C3ED0D7A 		vstr.32	s15, [r3, #52]
 180:Service/Srv_Flow.c **** 
 181:Service/Srv_Flow.c ****     /* convert unit */
 182:Service/Srv_Flow.c ****     cpi = (alt / 11.914f) * 2.54f;
 456              		.loc 1 182 5 is_stmt 1 view .LVU141
 457              		.loc 1 182 16 is_stmt 0 view .LVU142
 458 01aa 9DED076A 		vldr.32	s12, [sp, #28]
 459 01ae DFED196A 		vldr.32	s13, .L15+36
 460 01b2 86EE267A 		vdiv.f32	s14, s12, s13
 461              		.loc 1 182 9 view .LVU143
 462 01b6 DFED186A 		vldr.32	s13, .L15+40
 463 01ba 27EE267A 		vmul.f32	s14, s14, s13
 464              	.LVL45:
 183:Service/Srv_Flow.c ****     FlowMonitor.out_x *= cpi;
 465              		.loc 1 183 5 is_stmt 1 view .LVU144
 466              		.loc 1 183 23 is_stmt 0 view .LVU145
 467 01be 68EE878A 		vmul.f32	s17, s17, s14
 468 01c2 C3ED0E8A 		vstr.32	s17, [r3, #56]
 184:Service/Srv_Flow.c ****     FlowMonitor.out_y *= cpi;
 469              		.loc 1 184 5 is_stmt 1 view .LVU146
 470              		.loc 1 184 23 is_stmt 0 view .LVU147
 471 01c6 67EE877A 		vmul.f32	s15, s15, s14
 472 01ca C3ED0F7A 		vstr.32	s15, [r3, #60]
 185:Service/Srv_Flow.c ****     FlowMonitor.x_v *= cpi;
 473              		.loc 1 185 5 is_stmt 1 view .LVU148
 474              		.loc 1 185 21 is_stmt 0 view .LVU149
ARM GAS  C:\Users\8bit\AppData\Local\Temp\ccmkWe7U.s 			page 13


 475 01ce D3ED107A 		vldr.32	s15, [r3, #64]
 476 01d2 67EE877A 		vmul.f32	s15, s15, s14
 477 01d6 C3ED107A 		vstr.32	s15, [r3, #64]
 186:Service/Srv_Flow.c ****     FlowMonitor.y_v *= cpi;
 478              		.loc 1 186 5 is_stmt 1 view .LVU150
 479              		.loc 1 186 21 is_stmt 0 view .LVU151
 480 01da D3ED117A 		vldr.32	s15, [r3, #68]
 481 01de 27EE877A 		vmul.f32	s14, s15, s14
 482              	.LVL46:
 483              		.loc 1 186 21 view .LVU152
 484 01e2 83ED117A 		vstr.32	s14, [r3, #68]
 187:Service/Srv_Flow.c **** }
 485              		.loc 1 187 1 view .LVU153
 486 01e6 0DB0     		add	sp, sp, #52
 487              	.LCFI4:
 488              		.cfi_def_cfa_offset 36
 489              		@ sp needed
 490 01e8 BDEC048B 		vldm	sp!, {d8-d9}
 491              	.LCFI5:
 492              		.cfi_restore 82
 493              		.cfi_restore 83
 494              		.cfi_restore 80
 495              		.cfi_restore 81
 496              		.cfi_def_cfa_offset 20
 497 01ec F0BD     		pop	{r4, r5, r6, r7, pc}
 498              	.LVL47:
 499              	.L16:
 500              		.loc 1 187 1 view .LVU154
 501 01ee 00BF     		.align	3
 502              	.L15:
 503 01f0 000000A0 		.word	-1610612736
 504 01f4 9999C93F 		.word	1070176665
 505 01f8 00000000 		.word	SrvDataHub
 506 01fc E12E6542 		.word	1113927393
 507 0200 00000000 		.word	.LANCHOR0
 508 0204 CDCC4C3E 		.word	1045220557
 509 0208 00C08240 		.word	1082310656
 510 020c 00007A44 		.word	1148846080
 511 0210 CDCCCC3D 		.word	1036831949
 512 0214 BE9F3E41 		.word	1094623166
 513 0218 5C8F2240 		.word	1076006748
 514              		.cfi_endproc
 515              	.LFE148:
 517              		.section	.text.SrvFlow_Get_Data,"ax",%progbits
 518              		.align	1
 519              		.syntax unified
 520              		.thumb
 521              		.thumb_func
 523              	SrvFlow_Get_Data:
 524              	.LVL48:
 525              	.LFB147:
 110:Service/Srv_Flow.c ****     uint32_t time_stamp = 0;
 526              		.loc 1 110 1 is_stmt 1 view -0
 527              		.cfi_startproc
 528              		@ args = 0, pretend = 0, frame = 8
 529              		@ frame_needed = 0, uses_anonymous_args = 0
 110:Service/Srv_Flow.c ****     uint32_t time_stamp = 0;
ARM GAS  C:\Users\8bit\AppData\Local\Temp\ccmkWe7U.s 			page 14


 530              		.loc 1 110 1 is_stmt 0 view .LVU156
 531 0000 10B5     		push	{r4, lr}
 532              	.LCFI6:
 533              		.cfi_def_cfa_offset 8
 534              		.cfi_offset 4, -8
 535              		.cfi_offset 14, -4
 536 0002 84B0     		sub	sp, sp, #16
 537              	.LCFI7:
 538              		.cfi_def_cfa_offset 24
 111:Service/Srv_Flow.c ****     int16_t raw_x = 0;
 539              		.loc 1 111 5 is_stmt 1 view .LVU157
 111:Service/Srv_Flow.c ****     int16_t raw_x = 0;
 540              		.loc 1 111 14 is_stmt 0 view .LVU158
 541 0004 0023     		movs	r3, #0
 542 0006 0393     		str	r3, [sp, #12]
 112:Service/Srv_Flow.c ****     int16_t raw_y = 0;
 543              		.loc 1 112 5 is_stmt 1 view .LVU159
 112:Service/Srv_Flow.c ****     int16_t raw_y = 0;
 544              		.loc 1 112 13 is_stmt 0 view .LVU160
 545 0008 ADF80A30 		strh	r3, [sp, #10]	@ movhi
 113:Service/Srv_Flow.c **** 
 546              		.loc 1 113 5 is_stmt 1 view .LVU161
 113:Service/Srv_Flow.c **** 
 547              		.loc 1 113 13 is_stmt 0 view .LVU162
 548 000c ADF80830 		strh	r3, [sp, #8]	@ movhi
 115:Service/Srv_Flow.c ****     {
 549              		.loc 1 115 5 is_stmt 1 view .LVU163
 115:Service/Srv_Flow.c ****     {
 550              		.loc 1 115 8 is_stmt 0 view .LVU164
 551 0010 A8B1     		cbz	r0, .L18
 117:Service/Srv_Flow.c ****         {
 552              		.loc 1 117 9 is_stmt 1 view .LVU165
 117:Service/Srv_Flow.c ****         {
 553              		.loc 1 117 37 is_stmt 0 view .LVU166
 554 0012 0C4B     		ldr	r3, .L20
 555 0014 1B78     		ldrb	r3, [r3]	@ zero_extendqisi2
 117:Service/Srv_Flow.c ****         {
 556              		.loc 1 117 9 view .LVU167
 557 0016 012B     		cmp	r3, #1
 558 0018 11D1     		bne	.L18
 120:Service/Srv_Flow.c ****                                     &time_stamp, &raw_x, &raw_y, NULL);
 559              		.loc 1 120 17 is_stmt 1 view .LVU168
 560 001a 0A48     		ldr	r0, .L20
 561              	.LVL49:
 120:Service/Srv_Flow.c ****                                     &time_stamp, &raw_x, &raw_y, NULL);
 562              		.loc 1 120 17 is_stmt 0 view .LVU169
 563 001c 4368     		ldr	r3, [r0, #4]
 120:Service/Srv_Flow.c ****                                     &time_stamp, &raw_x, &raw_y, NULL);
 564              		.loc 1 120 53 view .LVU170
 565 001e 9C68     		ldr	r4, [r3, #8]
 120:Service/Srv_Flow.c ****                                     &time_stamp, &raw_x, &raw_y, NULL);
 566              		.loc 1 120 17 view .LVU171
 567 0020 0023     		movs	r3, #0
 568 0022 0093     		str	r3, [sp]
 569 0024 02AB     		add	r3, sp, #8
 570 0026 0DF10A02 		add	r2, sp, #10
 571 002a 03A9     		add	r1, sp, #12
ARM GAS  C:\Users\8bit\AppData\Local\Temp\ccmkWe7U.s 			page 15


 572 002c 8068     		ldr	r0, [r0, #8]
 573 002e A047     		blx	r4
 574              	.LVL50:
 122:Service/Srv_Flow.c ****                 break;
 575              		.loc 1 122 17 is_stmt 1 view .LVU172
 576 0030 BDF90820 		ldrsh	r2, [sp, #8]
 577 0034 BDF90A10 		ldrsh	r1, [sp, #10]
 578 0038 0398     		ldr	r0, [sp, #12]
 579 003a FFF7FEFF 		bl	SrvFlow_3901U_RawComput
 580              	.LVL51:
 123:Service/Srv_Flow.c **** 
 581              		.loc 1 123 17 view .LVU173
 582              	.L18:
 130:Service/Srv_Flow.c **** 
 583              		.loc 1 130 1 is_stmt 0 view .LVU174
 584 003e 0020     		movs	r0, #0
 585 0040 04B0     		add	sp, sp, #16
 586              	.LCFI8:
 587              		.cfi_def_cfa_offset 8
 588              		@ sp needed
 589 0042 10BD     		pop	{r4, pc}
 590              	.L21:
 591              		.align	2
 592              	.L20:
 593 0044 00000000 		.word	.LANCHOR0
 594              		.cfi_endproc
 595              	.LFE147:
 597              		.global	SrvFlow
 598              		.section	.bss.FlowMonitor,"aw",%nobits
 599              		.align	2
 600              		.set	.LANCHOR0,. + 0
 603              	FlowMonitor:
 604 0000 00000000 		.space	72
 604      00000000 
 604      00000000 
 604      00000000 
 604      00000000 
 605              		.section	.data.SrvFlow,"aw"
 606              		.align	2
 609              	SrvFlow:
 610 0000 00000000 		.word	SrvFlow_Init
 611 0004 00000000 		.word	SrvFlow_Sample
 612 0008 00000000 		.word	SrvFlow_Get_Data
 613              		.text
 614              	.Letext0:
 615              		.file 2 "c:\\program files (x86)\\gnu arm embedded toolchain\\10 2021.10\\arm-none-eabi\\include\\
 616              		.file 3 "c:\\program files (x86)\\gnu arm embedded toolchain\\10 2021.10\\arm-none-eabi\\include\\
 617              		.file 4 "c:\\program files (x86)\\gnu arm embedded toolchain\\10 2021.10\\lib\\gcc\\arm-none-eabi\
 618              		.file 5 "System/FreeRTOS/include/portable.h"
 619              		.file 6 "Service/Srv_OsCommon.h"
 620              		.file 7 "Service/Srv_Flow.h"
 621              		.file 8 "HW_Lib/AT32F435/drivers/inc/at32f435_437_tmr.h"
 622              		.file 9 "Device/Dev_Dshot.h"
 623              		.file 10 "common/Error_Log/../../common/gen_physic_def/imu_data.h"
 624              		.file 11 "Service/control_data.h"
 625              		.file 12 "Service/Srv_DataHub.h"
 626              		.file 13 "Device/Dev_Flow_3901U.h"
ARM GAS  C:\Users\8bit\AppData\Local\Temp\ccmkWe7U.s 			page 16


 627              		.file 14 "System/FreeRTOS/FreeRTOSConfig.h"
 628              		.file 15 "c:\\program files (x86)\\gnu arm embedded toolchain\\10 2021.10\\arm-none-eabi\\include\
ARM GAS  C:\Users\8bit\AppData\Local\Temp\ccmkWe7U.s 			page 17


DEFINED SYMBOLS
                            *ABS*:00000000 Srv_Flow.c
C:\Users\8bit\AppData\Local\Temp\ccmkWe7U.s:20     .text.SrvFlow_Init:00000000 $t
C:\Users\8bit\AppData\Local\Temp\ccmkWe7U.s:25     .text.SrvFlow_Init:00000000 SrvFlow_Init
C:\Users\8bit\AppData\Local\Temp\ccmkWe7U.s:134    .text.SrvFlow_Init:00000048 $d
C:\Users\8bit\AppData\Local\Temp\ccmkWe7U.s:141    .text.SrvFlow_Sample:00000000 $t
C:\Users\8bit\AppData\Local\Temp\ccmkWe7U.s:146    .text.SrvFlow_Sample:00000000 SrvFlow_Sample
C:\Users\8bit\AppData\Local\Temp\ccmkWe7U.s:168    .text.SrvFlow_3901U_RawComput:00000000 $t
C:\Users\8bit\AppData\Local\Temp\ccmkWe7U.s:173    .text.SrvFlow_3901U_RawComput:00000000 SrvFlow_3901U_RawComput
C:\Users\8bit\AppData\Local\Temp\ccmkWe7U.s:503    .text.SrvFlow_3901U_RawComput:000001f0 $d
C:\Users\8bit\AppData\Local\Temp\ccmkWe7U.s:518    .text.SrvFlow_Get_Data:00000000 $t
C:\Users\8bit\AppData\Local\Temp\ccmkWe7U.s:523    .text.SrvFlow_Get_Data:00000000 SrvFlow_Get_Data
C:\Users\8bit\AppData\Local\Temp\ccmkWe7U.s:593    .text.SrvFlow_Get_Data:00000044 $d
C:\Users\8bit\AppData\Local\Temp\ccmkWe7U.s:609    .data.SrvFlow:00000000 SrvFlow
C:\Users\8bit\AppData\Local\Temp\ccmkWe7U.s:599    .bss.FlowMonitor:00000000 $d
C:\Users\8bit\AppData\Local\Temp\ccmkWe7U.s:603    .bss.FlowMonitor:00000000 FlowMonitor
C:\Users\8bit\AppData\Local\Temp\ccmkWe7U.s:606    .data.SrvFlow:00000000 $d

UNDEFINED SYMBOLS
SrvOsCommon
DevFlow3901
__aeabi_f2d
__aeabi_dmul
__aeabi_dsub
__aeabi_d2f
tan
SrvDataHub
