ARM GAS  C:\Users\8bit\AppData\Local\Temp\ccCRhmZR.s 			page 1


   1              		.cpu cortex-m4
   2              		.arch armv7e-m
   3              		.fpu fpv4-sp-d16
   4              		.eabi_attribute 27, 1
   5              		.eabi_attribute 28, 1
   6              		.eabi_attribute 20, 1
   7              		.eabi_attribute 21, 1
   8              		.eabi_attribute 23, 3
   9              		.eabi_attribute 24, 1
  10              		.eabi_attribute 25, 1
  11              		.eabi_attribute 26, 1
  12              		.eabi_attribute 30, 1
  13              		.eabi_attribute 34, 1
  14              		.eabi_attribute 18, 4
  15              		.file	"Srv_ComProto.c"
  16              		.text
  17              	.Ltext0:
  18              		.cfi_sections	.debug_frame
  19              		.section	.text.Srv_ComProto_GetType,"ax",%progbits
  20              		.align	1
  21              		.syntax unified
  22              		.thumb
  23              		.thumb_func
  25              	Srv_ComProto_GetType:
  26              	.LFB2075:
  27              		.file 1 "Service/Srv_ComProto.c"
   1:Service/Srv_ComProto.c **** #include "Srv_ComProto.h"
   2:Service/Srv_ComProto.c **** #include "Srv_DataHub.h"
   3:Service/Srv_ComProto.c **** #include "DataPipe.h"
   4:Service/Srv_ComProto.c **** #include "Srv_OsCommon.h"
   5:Service/Srv_ComProto.c **** #include "Bsp_Uart.h"
   6:Service/Srv_ComProto.c **** 
   7:Service/Srv_ComProto.c **** #define To_DataPack_Callback(x) (DataPack_Callback)x
   8:Service/Srv_ComProto.c **** 
   9:Service/Srv_ComProto.c **** /* only can use one hardware port at one time */
  10:Service/Srv_ComProto.c **** /* still can be optmize / use multi port proto mavlink frame */
  11:Service/Srv_ComProto.c **** 
  12:Service/Srv_ComProto.c **** SrvComProto_Monitor_TypeDef SrvComProto_monitor = {
  13:Service/Srv_ComProto.c ****     .Proto_Type = SrvComProto_Type_None,
  14:Service/Srv_ComProto.c ****     .init_state = false,
  15:Service/Srv_ComProto.c **** };
  16:Service/Srv_ComProto.c **** 
  17:Service/Srv_ComProto.c **** /* internal function */
  18:Service/Srv_ComProto.c **** static uint16_t SrvComProto_MavMsg_Raw_IMU(SrvComProto_MsgInfo_TypeDef *pck);
  19:Service/Srv_ComProto.c **** static uint16_t SrvComProto_MavMsg_Scaled_IMU(SrvComProto_MsgInfo_TypeDef *pck);
  20:Service/Srv_ComProto.c **** static uint16_t SrvComProto_MavMsg_Attitude(SrvComProto_MsgInfo_TypeDef *pck);
  21:Service/Srv_ComProto.c **** static uint16_t SrvConProto_MavMsg_RC(SrvComProto_MsgInfo_TypeDef *pck);
  22:Service/Srv_ComProto.c **** static uint16_t SrvComProto_MavMsg_Altitude(SrvComProto_MsgInfo_TypeDef *pck);
  23:Service/Srv_ComProto.c **** static uint16_t SrvComProto_MavMsg_MotoActuator(SrvComProto_MsgInfo_TypeDef *pck);
  24:Service/Srv_ComProto.c **** 
  25:Service/Srv_ComProto.c **** /* just fot temporary will create custom message in the next */
  26:Service/Srv_ComProto.c **** static uint16_t SrvComProto_MavMsg_Exp_Attitude(SrvComProto_MsgInfo_TypeDef *pck);
  27:Service/Srv_ComProto.c **** 
  28:Service/Srv_ComProto.c **** /* external function */
  29:Service/Srv_ComProto.c **** static bool Srv_ComProto_Init(SrvComProto_Type_List type, uint8_t *arg);
  30:Service/Srv_ComProto.c **** static bool Srv_ComProto_MsgObj_Init(SrvComProto_MsgInfo_TypeDef *msg, SrvComProto_MavPackInfo_Type
  31:Service/Srv_ComProto.c **** static void SrvComProto_MsgToStream(SrvComProto_MsgInfo_TypeDef *msg, SrvComProto_Stream_TypeDef *c
ARM GAS  C:\Users\8bit\AppData\Local\Temp\ccCRhmZR.s 			page 2


  32:Service/Srv_ComProto.c **** static bool SrvComProto_MsgEnable_Control(SrvComProto_MsgInfo_TypeDef *msg, bool state);
  33:Service/Srv_ComProto.c **** static SrvComProto_Type_List Srv_ComProto_GetType(void);
  34:Service/Srv_ComProto.c **** static SrvComProto_Msg_StreamIn_TypeDef SrvComProto_MavMsg_Input_DecodeAll(SrvComProto_MsgObj_TypeD
  35:Service/Srv_ComProto.c **** static void SrvComProto_Set_MavMsgIn_Callback(SrvComProto_MsgObj_TypeDef *obj, SrvComProto_MavInMsg
  36:Service/Srv_ComProto.c **** 
  37:Service/Srv_ComProto.c **** SrvComProto_TypeDef SrvComProto = {
  38:Service/Srv_ComProto.c ****     .init = Srv_ComProto_Init,
  39:Service/Srv_ComProto.c ****     .mav_msg_obj_init = Srv_ComProto_MsgObj_Init,
  40:Service/Srv_ComProto.c ****     .get_msg_type = Srv_ComProto_GetType,
  41:Service/Srv_ComProto.c ****     .mav_msg_stream = SrvComProto_MsgToStream,
  42:Service/Srv_ComProto.c ****     .mav_msg_enable_ctl = SrvComProto_MsgEnable_Control,
  43:Service/Srv_ComProto.c ****     .msg_decode = SrvComProto_MavMsg_Input_DecodeAll,
  44:Service/Srv_ComProto.c ****     .mav_msg_set_input_callback = SrvComProto_Set_MavMsgIn_Callback,
  45:Service/Srv_ComProto.c **** };
  46:Service/Srv_ComProto.c **** 
  47:Service/Srv_ComProto.c **** static bool Srv_ComProto_Init(SrvComProto_Type_List type, uint8_t *arg)
  48:Service/Srv_ComProto.c **** {
  49:Service/Srv_ComProto.c ****     UNUSED(arg);
  50:Service/Srv_ComProto.c **** 
  51:Service/Srv_ComProto.c ****     /* only init one time */
  52:Service/Srv_ComProto.c ****     if (SrvComProto_monitor.init_state)
  53:Service/Srv_ComProto.c ****         return true;
  54:Service/Srv_ComProto.c **** 
  55:Service/Srv_ComProto.c ****     SrvDataHub.init();
  56:Service/Srv_ComProto.c **** 
  57:Service/Srv_ComProto.c ****     memset(&SrvComProto_monitor, 0, sizeof(SrvComProto_monitor));
  58:Service/Srv_ComProto.c ****     SrvComProto_monitor.Proto_Type = type;
  59:Service/Srv_ComProto.c ****     SrvComProto_monitor.init_state = true;
  60:Service/Srv_ComProto.c **** 
  61:Service/Srv_ComProto.c ****     return true;
  62:Service/Srv_ComProto.c **** }
  63:Service/Srv_ComProto.c **** 
  64:Service/Srv_ComProto.c **** static SrvComProto_Type_List Srv_ComProto_GetType(void)
  65:Service/Srv_ComProto.c **** {
  28              		.loc 1 65 1 view -0
  29              		.cfi_startproc
  30              		@ args = 0, pretend = 0, frame = 0
  31              		@ frame_needed = 0, uses_anonymous_args = 0
  32              		@ link register save eliminated.
  66:Service/Srv_ComProto.c ****     return SrvComProto_monitor.Proto_Type;
  33              		.loc 1 66 5 view .LVU1
  67:Service/Srv_ComProto.c **** }
  34              		.loc 1 67 1 is_stmt 0 view .LVU2
  35 0000 014B     		ldr	r3, .L2
  36 0002 5878     		ldrb	r0, [r3, #1]	@ zero_extendqisi2
  37 0004 7047     		bx	lr
  38              	.L3:
  39 0006 00BF     		.align	2
  40              	.L2:
  41 0008 00000000 		.word	.LANCHOR0
  42              		.cfi_endproc
  43              	.LFE2075:
  45              		.section	.text.SrvComProto_MsgEnable_Control,"ax",%progbits
  46              		.align	1
  47              		.syntax unified
  48              		.thumb
  49              		.thumb_func
ARM GAS  C:\Users\8bit\AppData\Local\Temp\ccCRhmZR.s 			page 3


  51              	SrvComProto_MsgEnable_Control:
  52              	.LVL0:
  53              	.LFB2078:
  68:Service/Srv_ComProto.c **** 
  69:Service/Srv_ComProto.c **** static bool Srv_ComProto_MsgObj_Init(SrvComProto_MsgInfo_TypeDef *msg, SrvComProto_MavPackInfo_Type
  70:Service/Srv_ComProto.c **** {
  71:Service/Srv_ComProto.c ****     if ((msg == NULL) || \
  72:Service/Srv_ComProto.c ****         (period == 0))
  73:Service/Srv_ComProto.c ****         return false;
  74:Service/Srv_ComProto.c **** 
  75:Service/Srv_ComProto.c ****     msg->in_proto = false;
  76:Service/Srv_ComProto.c ****     msg->lock_proto = true;
  77:Service/Srv_ComProto.c **** 
  78:Service/Srv_ComProto.c ****     msg->pck_info = pck_info;
  79:Service/Srv_ComProto.c ****     msg->period = period;
  80:Service/Srv_ComProto.c ****     msg->proto_time = 0;
  81:Service/Srv_ComProto.c **** 
  82:Service/Srv_ComProto.c ****     /* create mavlink message object */
  83:Service/Srv_ComProto.c ****     msg->msg_obj = (mavlink_message_t *)SrvOsCommon.malloc(sizeof(mavlink_message_t));
  84:Service/Srv_ComProto.c **** 
  85:Service/Srv_ComProto.c ****     if (msg->msg_obj == NULL)
  86:Service/Srv_ComProto.c ****     {
  87:Service/Srv_ComProto.c ****         SrvOsCommon.free(msg->msg_obj);
  88:Service/Srv_ComProto.c ****         return false;
  89:Service/Srv_ComProto.c ****     }
  90:Service/Srv_ComProto.c **** 
  91:Service/Srv_ComProto.c ****     memset(msg->msg_obj, 0, sizeof(mavlink_message_t));
  92:Service/Srv_ComProto.c **** 
  93:Service/Srv_ComProto.c ****     /* set mavlink data structure value set function */
  94:Service/Srv_ComProto.c ****     switch ((uint8_t)pck_info.component_id)
  95:Service/Srv_ComProto.c ****     {
  96:Service/Srv_ComProto.c ****     case MAV_CompoID_Attitude:
  97:Service/Srv_ComProto.c ****         msg->pack_callback = To_DataPack_Callback(SrvComProto_MavMsg_Attitude);
  98:Service/Srv_ComProto.c ****         break;
  99:Service/Srv_ComProto.c **** 
 100:Service/Srv_ComProto.c ****     case MAV_CompoID_Exp_Attitude:
 101:Service/Srv_ComProto.c ****         msg->pack_callback = To_DataPack_Callback(SrvComProto_MavMsg_Exp_Attitude);
 102:Service/Srv_ComProto.c ****         break;
 103:Service/Srv_ComProto.c ****     
 104:Service/Srv_ComProto.c ****     case MAV_CompoID_Altitude:
 105:Service/Srv_ComProto.c ****         msg->pack_callback = To_DataPack_Callback(SrvComProto_MavMsg_Altitude);
 106:Service/Srv_ComProto.c ****         break;
 107:Service/Srv_ComProto.c **** 
 108:Service/Srv_ComProto.c ****     case MAV_CompoID_RC_Channel:
 109:Service/Srv_ComProto.c ****         msg->pack_callback = To_DataPack_Callback(SrvConProto_MavMsg_RC);
 110:Service/Srv_ComProto.c ****         break;
 111:Service/Srv_ComProto.c **** 
 112:Service/Srv_ComProto.c ****     case MAV_CompoID_Raw_IMU:
 113:Service/Srv_ComProto.c ****         msg->pack_callback = To_DataPack_Callback(SrvComProto_MavMsg_Raw_IMU);
 114:Service/Srv_ComProto.c ****         break;
 115:Service/Srv_ComProto.c **** 
 116:Service/Srv_ComProto.c ****     case MAV_CompoID_Scaled_IMU:
 117:Service/Srv_ComProto.c ****         msg->pack_callback = To_DataPack_Callback(SrvComProto_MavMsg_Scaled_IMU);
 118:Service/Srv_ComProto.c ****         break;
 119:Service/Srv_ComProto.c **** 
 120:Service/Srv_ComProto.c ****     case MAV_CompoID_MotoCtl:
 121:Service/Srv_ComProto.c ****         break;
ARM GAS  C:\Users\8bit\AppData\Local\Temp\ccCRhmZR.s 			page 4


 122:Service/Srv_ComProto.c **** 
 123:Service/Srv_ComProto.c ****     case MAV_CompoID_ServoCtl:
 124:Service/Srv_ComProto.c ****         break;
 125:Service/Srv_ComProto.c **** 
 126:Service/Srv_ComProto.c ****     default:
 127:Service/Srv_ComProto.c ****         SrvOsCommon.free(msg->msg_obj);
 128:Service/Srv_ComProto.c ****         msg->lock_proto = false;
 129:Service/Srv_ComProto.c ****         return false;
 130:Service/Srv_ComProto.c ****     }
 131:Service/Srv_ComProto.c **** 
 132:Service/Srv_ComProto.c ****     msg->lock_proto = false;
 133:Service/Srv_ComProto.c **** 
 134:Service/Srv_ComProto.c ****     return true;
 135:Service/Srv_ComProto.c **** }
 136:Service/Srv_ComProto.c **** 
 137:Service/Srv_ComProto.c **** static void SrvComProto_MsgToStream(SrvComProto_MsgInfo_TypeDef *msg, SrvComProto_Stream_TypeDef *c
 138:Service/Srv_ComProto.c **** {
 139:Service/Srv_ComProto.c ****     uint32_t sys_time = SrvOsCommon.get_os_ms();
 140:Service/Srv_ComProto.c **** 
 141:Service/Srv_ComProto.c ****     if (msg->enable && com_stream && com_stream->p_buf && msg->pack_callback)
 142:Service/Srv_ComProto.c ****     {
 143:Service/Srv_ComProto.c ****         msg->in_proto = true;
 144:Service/Srv_ComProto.c **** 
 145:Service/Srv_ComProto.c ****         if ((msg->proto_time) && (sys_time - msg->proto_time < msg->period))
 146:Service/Srv_ComProto.c ****         {
 147:Service/Srv_ComProto.c ****             msg->in_proto = false;
 148:Service/Srv_ComProto.c ****             return;
 149:Service/Srv_ComProto.c ****         }
 150:Service/Srv_ComProto.c **** 
 151:Service/Srv_ComProto.c ****         com_stream->size = msg->pack_callback((uint8_t *)msg);
 152:Service/Srv_ComProto.c **** 
 153:Service/Srv_ComProto.c ****         if (com_stream->size && ((com_stream->size + MAVLINK_NUM_NON_PAYLOAD_BYTES) <= com_stream->
 154:Service/Srv_ComProto.c ****         {
 155:Service/Srv_ComProto.c ****             com_stream->size = mavlink_msg_to_send_buffer(com_stream->p_buf, msg->msg_obj);
 156:Service/Srv_ComProto.c **** 
 157:Service/Srv_ComProto.c ****             if (tx_cb)
 158:Service/Srv_ComProto.c ****             {
 159:Service/Srv_ComProto.c ****                 tx_cb(arg, com_stream->p_buf, com_stream->size);
 160:Service/Srv_ComProto.c ****                 msg->proto_cnt ++;
 161:Service/Srv_ComProto.c ****                 memset(com_stream->p_buf, 0, com_stream->size);
 162:Service/Srv_ComProto.c ****             }
 163:Service/Srv_ComProto.c **** 
 164:Service/Srv_ComProto.c ****             msg->proto_time = sys_time;
 165:Service/Srv_ComProto.c ****         }
 166:Service/Srv_ComProto.c **** 
 167:Service/Srv_ComProto.c ****         msg->in_proto = false;
 168:Service/Srv_ComProto.c ****     }
 169:Service/Srv_ComProto.c **** }
 170:Service/Srv_ComProto.c **** 
 171:Service/Srv_ComProto.c **** static bool SrvComProto_MsgEnable_Control(SrvComProto_MsgInfo_TypeDef *msg, bool state)
 172:Service/Srv_ComProto.c **** {
  54              		.loc 1 172 1 is_stmt 1 view -0
  55              		.cfi_startproc
  56              		@ args = 0, pretend = 0, frame = 0
  57              		@ frame_needed = 0, uses_anonymous_args = 0
  58              		@ link register save eliminated.
 173:Service/Srv_ComProto.c ****     if (msg == NULL)
ARM GAS  C:\Users\8bit\AppData\Local\Temp\ccCRhmZR.s 			page 5


  59              		.loc 1 173 5 view .LVU4
  60              		.loc 1 173 8 is_stmt 0 view .LVU5
  61 0000 10B1     		cbz	r0, .L6
 174:Service/Srv_ComProto.c ****         return false;
 175:Service/Srv_ComProto.c **** 
 176:Service/Srv_ComProto.c ****     msg->enable = state;
  62              		.loc 1 176 5 is_stmt 1 view .LVU6
  63              		.loc 1 176 17 is_stmt 0 view .LVU7
  64 0002 0170     		strb	r1, [r0]
 177:Service/Srv_ComProto.c ****     return true;
  65              		.loc 1 177 5 is_stmt 1 view .LVU8
  66              		.loc 1 177 12 is_stmt 0 view .LVU9
  67 0004 0120     		movs	r0, #1
  68              	.LVL1:
  69              		.loc 1 177 12 view .LVU10
  70 0006 7047     		bx	lr
  71              	.LVL2:
  72              	.L6:
 174:Service/Srv_ComProto.c ****         return false;
  73              		.loc 1 174 16 view .LVU11
  74 0008 0020     		movs	r0, #0
  75              	.LVL3:
 178:Service/Srv_ComProto.c **** }
  76              		.loc 1 178 1 view .LVU12
  77 000a 7047     		bx	lr
  78              		.cfi_endproc
  79              	.LFE2078:
  81              		.section	.text.SrvComProto_Set_MavMsgIn_Callback,"ax",%progbits
  82              		.align	1
  83              		.syntax unified
  84              		.thumb
  85              		.thumb_func
  87              	SrvComProto_Set_MavMsgIn_Callback:
  88              	.LVL4:
  89              	.LFB2086:
 179:Service/Srv_ComProto.c **** 
 180:Service/Srv_ComProto.c **** /******************************************* Frame Out ****************************************/
 181:Service/Srv_ComProto.c **** static uint16_t SrvComProto_MavMsg_Raw_IMU(SrvComProto_MsgInfo_TypeDef *pck)
 182:Service/Srv_ComProto.c **** {
 183:Service/Srv_ComProto.c ****     uint32_t time_stamp = 0;
 184:Service/Srv_ComProto.c ****     float acc_scale = 0.0f;
 185:Service/Srv_ComProto.c ****     float gyr_scale = 0.0f;
 186:Service/Srv_ComProto.c ****     float acc_x = 0.0f;
 187:Service/Srv_ComProto.c ****     float acc_y = 0.0f;
 188:Service/Srv_ComProto.c ****     float acc_z = 0.0f;
 189:Service/Srv_ComProto.c ****     float gyr_x = 0.0f;
 190:Service/Srv_ComProto.c ****     float gyr_y = 0.0f;
 191:Service/Srv_ComProto.c ****     float gyr_z = 0.0f;
 192:Service/Srv_ComProto.c ****     float tmpr = 0.0f;
 193:Service/Srv_ComProto.c ****     uint8_t imu_err_code = 0;
 194:Service/Srv_ComProto.c **** 
 195:Service/Srv_ComProto.c ****     SrvDataHub.get_raw_imu(&time_stamp, &acc_scale, &gyr_scale, &acc_x, &acc_y, &acc_z, &gyr_x, &gy
 196:Service/Srv_ComProto.c **** 
 197:Service/Srv_ComProto.c ****     int16_t i_acc_x = (int16_t)(acc_x * acc_scale);
 198:Service/Srv_ComProto.c ****     int16_t i_acc_y = (int16_t)(acc_y * acc_scale);
 199:Service/Srv_ComProto.c ****     int16_t i_acc_z = (int16_t)(acc_z * acc_scale);
 200:Service/Srv_ComProto.c **** 
ARM GAS  C:\Users\8bit\AppData\Local\Temp\ccCRhmZR.s 			page 6


 201:Service/Srv_ComProto.c ****     int16_t i_gyr_x = (int16_t)(gyr_x * gyr_scale);
 202:Service/Srv_ComProto.c ****     int16_t i_gyr_y = (int16_t)(gyr_y * gyr_scale);
 203:Service/Srv_ComProto.c ****     int16_t i_gyr_z = (int16_t)(gyr_z * gyr_scale);
 204:Service/Srv_ComProto.c **** 
 205:Service/Srv_ComProto.c ****     /* we dont have any mag sensor currently */
 206:Service/Srv_ComProto.c ****     return mavlink_msg_scaled_imu_pack_chan(pck->pck_info.system_id,
 207:Service/Srv_ComProto.c ****                                             pck->pck_info.component_id,
 208:Service/Srv_ComProto.c ****                                             pck->pck_info.chan, pck->msg_obj,
 209:Service/Srv_ComProto.c ****                                             time_stamp,
 210:Service/Srv_ComProto.c ****                                             i_acc_x, i_acc_y, i_acc_z,
 211:Service/Srv_ComProto.c ****                                             i_gyr_x, i_gyr_y, i_gyr_z,
 212:Service/Srv_ComProto.c ****                                             0, 0, 0);
 213:Service/Srv_ComProto.c **** }
 214:Service/Srv_ComProto.c **** 
 215:Service/Srv_ComProto.c **** static uint16_t SrvComProto_MavMsg_Scaled_IMU(SrvComProto_MsgInfo_TypeDef *pck)
 216:Service/Srv_ComProto.c **** {
 217:Service/Srv_ComProto.c ****     uint32_t time_stamp = 0;
 218:Service/Srv_ComProto.c ****     float acc_scale = 0.0f;
 219:Service/Srv_ComProto.c ****     float gyr_scale = 0.0f;
 220:Service/Srv_ComProto.c ****     float acc_x = 0.0f;
 221:Service/Srv_ComProto.c ****     float acc_y = 0.0f;
 222:Service/Srv_ComProto.c ****     float acc_z = 0.0f;
 223:Service/Srv_ComProto.c ****     float gyr_x = 0.0f;
 224:Service/Srv_ComProto.c ****     float gyr_y = 0.0f;
 225:Service/Srv_ComProto.c ****     float gyr_z = 0.0f;
 226:Service/Srv_ComProto.c ****     float tmpr = 0.0f;
 227:Service/Srv_ComProto.c ****     uint8_t imu_err_code = 0;
 228:Service/Srv_ComProto.c **** 
 229:Service/Srv_ComProto.c ****     SrvDataHub.get_scaled_imu(&time_stamp, &acc_scale, &gyr_scale, &acc_x, &acc_y, &acc_z, &gyr_x, 
 230:Service/Srv_ComProto.c **** 
 231:Service/Srv_ComProto.c ****     int16_t i_acc_x = (int16_t)(acc_x * acc_scale);
 232:Service/Srv_ComProto.c ****     int16_t i_acc_y = (int16_t)(acc_y * acc_scale);
 233:Service/Srv_ComProto.c ****     int16_t i_acc_z = (int16_t)(acc_z * acc_scale);
 234:Service/Srv_ComProto.c **** 
 235:Service/Srv_ComProto.c ****     int16_t i_gyr_x = (int16_t)(gyr_x * gyr_scale);
 236:Service/Srv_ComProto.c ****     int16_t i_gyr_y = (int16_t)(gyr_y * gyr_scale);
 237:Service/Srv_ComProto.c ****     int16_t i_gyr_z = (int16_t)(gyr_z * gyr_scale);
 238:Service/Srv_ComProto.c **** 
 239:Service/Srv_ComProto.c ****     /* we dont have any mag sensor currently */
 240:Service/Srv_ComProto.c ****     return mavlink_msg_scaled_imu_pack_chan(pck->pck_info.system_id,
 241:Service/Srv_ComProto.c ****                                             pck->pck_info.component_id,
 242:Service/Srv_ComProto.c ****                                             pck->pck_info.chan, pck->msg_obj,
 243:Service/Srv_ComProto.c ****                                             time_stamp,
 244:Service/Srv_ComProto.c ****                                             i_acc_x, i_acc_y, i_acc_z,
 245:Service/Srv_ComProto.c ****                                             i_gyr_x, i_gyr_y, i_gyr_z,
 246:Service/Srv_ComProto.c ****                                             0, 0, 0);
 247:Service/Srv_ComProto.c **** }
 248:Service/Srv_ComProto.c **** 
 249:Service/Srv_ComProto.c **** /* just fot temporary will create custom message in the next */
 250:Service/Srv_ComProto.c **** static uint16_t SrvComProto_MavMsg_Exp_Attitude(SrvComProto_MsgInfo_TypeDef *pck)
 251:Service/Srv_ComProto.c **** {
 252:Service/Srv_ComProto.c ****     uint32_t time = 0;
 253:Service/Srv_ComProto.c ****     float pitch = 0.0f;
 254:Service/Srv_ComProto.c ****     float roll = 0.0f;
 255:Service/Srv_ComProto.c ****     float gx = 0.0f;
 256:Service/Srv_ComProto.c ****     float gy = 0.0f;
 257:Service/Srv_ComProto.c ****     float gz = 0.0f;
ARM GAS  C:\Users\8bit\AppData\Local\Temp\ccCRhmZR.s 			page 7


 258:Service/Srv_ComProto.c ****     uint8_t mode = 0;
 259:Service/Srv_ComProto.c **** 
 260:Service/Srv_ComProto.c ****     SrvDataHub.get_cnv_control_data(&time, NULL, NULL, &mode, &pitch, &roll, &gx, &gy, &gz);
 261:Service/Srv_ComProto.c ****     return mavlink_msg_attitude_pack_chan(pck->pck_info.system_id,
 262:Service/Srv_ComProto.c ****                                           pck->pck_info.component_id,
 263:Service/Srv_ComProto.c ****                                           pck->pck_info.chan, pck->msg_obj,
 264:Service/Srv_ComProto.c ****                                           time, roll, pitch, 0.0f, gx, gy, gz);
 265:Service/Srv_ComProto.c **** }
 266:Service/Srv_ComProto.c **** 
 267:Service/Srv_ComProto.c **** static uint16_t SrvComProto_MavMsg_Attitude(SrvComProto_MsgInfo_TypeDef *pck)
 268:Service/Srv_ComProto.c **** {
 269:Service/Srv_ComProto.c ****     uint32_t time_stamp = 0;
 270:Service/Srv_ComProto.c ****     
 271:Service/Srv_ComProto.c ****     float pitch = 0.0f;
 272:Service/Srv_ComProto.c ****     float roll = 0.0f;
 273:Service/Srv_ComProto.c ****     float yaw = 0.0f;
 274:Service/Srv_ComProto.c **** 
 275:Service/Srv_ComProto.c ****     SrvDataHub.get_attitude(&time_stamp, &pitch, &roll, &yaw, NULL, NULL, NULL, NULL, NULL);
 276:Service/Srv_ComProto.c ****     return mavlink_msg_attitude_pack_chan(pck->pck_info.system_id,
 277:Service/Srv_ComProto.c ****                                           pck->pck_info.component_id,
 278:Service/Srv_ComProto.c ****                                           pck->pck_info.chan, pck->msg_obj,
 279:Service/Srv_ComProto.c ****                                           time_stamp,
 280:Service/Srv_ComProto.c ****                                           roll, pitch, yaw, 
 281:Service/Srv_ComProto.c ****                                           0.0f, 0.0f, 0.0f);
 282:Service/Srv_ComProto.c **** }
 283:Service/Srv_ComProto.c **** 
 284:Service/Srv_ComProto.c **** static uint16_t SrvConProto_MavMsg_RC(SrvComProto_MsgInfo_TypeDef *pck)
 285:Service/Srv_ComProto.c **** {
 286:Service/Srv_ComProto.c ****     ControlData_TypeDef inuse_ctldata;
 287:Service/Srv_ComProto.c **** 
 288:Service/Srv_ComProto.c ****     memset(&inuse_ctldata, 0, sizeof(ControlData_TypeDef));
 289:Service/Srv_ComProto.c ****     SrvDataHub.get_rc_control_data(&inuse_ctldata);
 290:Service/Srv_ComProto.c **** 
 291:Service/Srv_ComProto.c ****     return mavlink_msg_rc_channels_pack_chan(pck->pck_info.system_id,
 292:Service/Srv_ComProto.c ****                                              pck->pck_info.component_id,
 293:Service/Srv_ComProto.c ****                                              pck->pck_info.chan, pck->msg_obj,
 294:Service/Srv_ComProto.c ****                                              inuse_ctldata.update_time_stamp, 
 295:Service/Srv_ComProto.c ****                                              inuse_ctldata.channel_sum,
 296:Service/Srv_ComProto.c ****                                              inuse_ctldata.all_ch[0],  inuse_ctldata.all_ch[1],  in
 297:Service/Srv_ComProto.c ****                                              inuse_ctldata.all_ch[4],  inuse_ctldata.all_ch[5],  in
 298:Service/Srv_ComProto.c ****                                              inuse_ctldata.all_ch[8],  inuse_ctldata.all_ch[9],  in
 299:Service/Srv_ComProto.c ****                                              inuse_ctldata.all_ch[12], inuse_ctldata.all_ch[13], in
 300:Service/Srv_ComProto.c ****                                              inuse_ctldata.all_ch[16], inuse_ctldata.all_ch[17], in
 301:Service/Srv_ComProto.c **** }
 302:Service/Srv_ComProto.c **** 
 303:Service/Srv_ComProto.c **** static uint16_t SrvComProto_MavMsg_Altitude(SrvComProto_MsgInfo_TypeDef *pck)
 304:Service/Srv_ComProto.c **** {
 305:Service/Srv_ComProto.c ****     uint32_t time_stamp = 0;
 306:Service/Srv_ComProto.c ****     uint8_t error = 0;
 307:Service/Srv_ComProto.c ****     float baro_pressure = 0.0f;
 308:Service/Srv_ComProto.c ****     float baro_alt = 0.0f;
 309:Service/Srv_ComProto.c ****     float baro_alt_offset = 0.0f;
 310:Service/Srv_ComProto.c ****     float baro_tempra = 0.0f;
 311:Service/Srv_ComProto.c **** 
 312:Service/Srv_ComProto.c ****     SrvDataHub.get_baro_altitude(&time_stamp, &baro_pressure, &baro_alt, &baro_alt_offset, &baro_te
 313:Service/Srv_ComProto.c **** 
 314:Service/Srv_ComProto.c ****     return mavlink_msg_altitude_pack_chan(pck->pck_info.system_id,
ARM GAS  C:\Users\8bit\AppData\Local\Temp\ccCRhmZR.s 			page 8


 315:Service/Srv_ComProto.c ****                                           pck->pck_info.component_id,
 316:Service/Srv_ComProto.c ****                                           pck->pck_info.chan, pck->msg_obj,
 317:Service/Srv_ComProto.c ****                                           time_stamp,
 318:Service/Srv_ComProto.c ****                                           baro_alt, baro_pressure, 0, 0, 0, 0);
 319:Service/Srv_ComProto.c **** }
 320:Service/Srv_ComProto.c **** 
 321:Service/Srv_ComProto.c **** /******************************************* Frame Out ****************************************/
 322:Service/Srv_ComProto.c **** /******************************************* Frame In  ****************************************/
 323:Service/Srv_ComProto.c **** static void SrvComProto_MavMsg_Ack(SrvComProto_MsgObj_TypeDef *obj, uint16_t sys_id, uint16_t compo
 324:Service/Srv_ComProto.c **** {
 325:Service/Srv_ComProto.c ****     if (obj)
 326:Service/Srv_ComProto.c ****     {
 327:Service/Srv_ComProto.c **** 
 328:Service/Srv_ComProto.c ****     }
 329:Service/Srv_ComProto.c **** }
 330:Service/Srv_ComProto.c **** 
 331:Service/Srv_ComProto.c **** static void SrvComProto_Set_MavMsgIn_Callback(SrvComProto_MsgObj_TypeDef *obj, SrvComProto_MavInMsg
 332:Service/Srv_ComProto.c **** {
  90              		.loc 1 332 1 is_stmt 1 view -0
  91              		.cfi_startproc
  92              		@ args = 0, pretend = 0, frame = 0
  93              		@ frame_needed = 0, uses_anonymous_args = 0
  94              		@ link register save eliminated.
 333:Service/Srv_ComProto.c ****     if (obj && p_cus_data)
  95              		.loc 1 333 5 view .LVU14
  96              		.loc 1 333 8 is_stmt 0 view .LVU15
  97 0000 8446     		mov	ip, r0
  98 0002 F8B1     		cbz	r0, .L7
  99              		.loc 1 333 13 discriminator 1 view .LVU16
 100 0004 F3B1     		cbz	r3, .L7
 334:Service/Srv_ComProto.c ****     {
 335:Service/Srv_ComProto.c ****         switch ((uint8_t)type)
 101              		.loc 1 335 9 is_stmt 1 view .LVU17
 102 0006 0429     		cmp	r1, #4
 103 0008 1CD8     		bhi	.L7
 104 000a DFE801F0 		tbb	[pc, r1]
 105              	.LVL5:
 106              	.L10:
 107 000e 03       		.byte	(.L14-.L10)/2
 108 000f 08       		.byte	(.L13-.L10)/2
 109 0010 0D       		.byte	(.L12-.L10)/2
 110 0011 12       		.byte	(.L11-.L10)/2
 111 0012 17       		.byte	(.L9-.L10)/2
 112 0013 00       		.p2align 1
 113              	.L14:
 336:Service/Srv_ComProto.c ****         {
 337:Service/Srv_ComProto.c ****             case MavIn_Msg_Gyr:         obj->MavMsg_Gyr_Callback         = callback; obj->cus_p_gyr
 114              		.loc 1 337 41 view .LVU18
 115              		.loc 1 337 74 is_stmt 0 view .LVU19
 116 0014 CCF86420 		str	r2, [ip, #100]
 117              		.loc 1 337 86 is_stmt 1 view .LVU20
 118              		.loc 1 337 109 is_stmt 0 view .LVU21
 119 0018 CCF80430 		str	r3, [ip, #4]
 120              		.loc 1 337 123 is_stmt 1 view .LVU22
 121              		.loc 1 337 13 is_stmt 0 view .LVU23
 122 001c 7047     		bx	lr
 123              	.L13:
ARM GAS  C:\Users\8bit\AppData\Local\Temp\ccCRhmZR.s 			page 9


 338:Service/Srv_ComProto.c ****             case MavIn_Msg_Att:         obj->MavMsg_Att_Callback         = callback; obj->cus_p_att
 124              		.loc 1 338 41 is_stmt 1 view .LVU24
 125              		.loc 1 338 74 is_stmt 0 view .LVU25
 126 001e CCF86820 		str	r2, [ip, #104]
 127              		.loc 1 338 86 is_stmt 1 view .LVU26
 128              		.loc 1 338 109 is_stmt 0 view .LVU27
 129 0022 CCF80830 		str	r3, [ip, #8]
 130              		.loc 1 338 123 is_stmt 1 view .LVU28
 131              		.loc 1 338 13 is_stmt 0 view .LVU29
 132 0026 7047     		bx	lr
 133              	.L12:
 339:Service/Srv_ComProto.c ****             case MavIn_Msg_Alt:         obj->MavMsg_Alt_Callback         = callback; obj->cus_p_alt
 134              		.loc 1 339 41 is_stmt 1 view .LVU30
 135              		.loc 1 339 74 is_stmt 0 view .LVU31
 136 0028 CCF86C20 		str	r2, [ip, #108]
 137              		.loc 1 339 86 is_stmt 1 view .LVU32
 138              		.loc 1 339 109 is_stmt 0 view .LVU33
 139 002c CCF80C30 		str	r3, [ip, #12]
 140              		.loc 1 339 123 is_stmt 1 view .LVU34
 141              		.loc 1 339 13 is_stmt 0 view .LVU35
 142 0030 7047     		bx	lr
 143              	.L11:
 340:Service/Srv_ComProto.c ****             case MavIn_Msg_RC:          obj->MavMsg_RC_Callback          = callback; obj->cus_p_RC 
 144              		.loc 1 340 41 is_stmt 1 view .LVU36
 145              		.loc 1 340 74 is_stmt 0 view .LVU37
 146 0032 CCF87020 		str	r2, [ip, #112]
 147              		.loc 1 340 86 is_stmt 1 view .LVU38
 148              		.loc 1 340 109 is_stmt 0 view .LVU39
 149 0036 CCF81030 		str	r3, [ip, #16]
 150              		.loc 1 340 123 is_stmt 1 view .LVU40
 151              		.loc 1 340 13 is_stmt 0 view .LVU41
 152 003a 7047     		bx	lr
 153              	.L9:
 341:Service/Srv_ComProto.c ****             case MavIn_Msg_MotoCtl:     obj->MavMsg_MotoCtl_Callback     = callback; obj->cus_p_mot
 154              		.loc 1 341 41 is_stmt 1 view .LVU42
 155              		.loc 1 341 74 is_stmt 0 view .LVU43
 156 003c CCF87420 		str	r2, [ip, #116]
 157              		.loc 1 341 86 is_stmt 1 view .LVU44
 158              		.loc 1 341 109 is_stmt 0 view .LVU45
 159 0040 CCF81430 		str	r3, [ip, #20]
 160              		.loc 1 341 123 is_stmt 1 view .LVU46
 161              	.L7:
 342:Service/Srv_ComProto.c ****             default: break;
 343:Service/Srv_ComProto.c ****         }
 344:Service/Srv_ComProto.c ****     }
 345:Service/Srv_ComProto.c **** }
 162              		.loc 1 345 1 is_stmt 0 view .LVU47
 163 0044 7047     		bx	lr
 164              		.cfi_endproc
 165              	.LFE2086:
 167              		.section	.text.Srv_ComProto_MsgObj_Init,"ax",%progbits
 168              		.align	1
 169              		.syntax unified
 170              		.thumb
 171              		.thumb_func
 173              	Srv_ComProto_MsgObj_Init:
 174              	.LVL6:
ARM GAS  C:\Users\8bit\AppData\Local\Temp\ccCRhmZR.s 			page 10


 175              	.LFB2076:
  70:Service/Srv_ComProto.c ****     if ((msg == NULL) || \
 176              		.loc 1 70 1 is_stmt 1 view -0
 177              		.cfi_startproc
 178              		@ args = 0, pretend = 0, frame = 8
 179              		@ frame_needed = 0, uses_anonymous_args = 0
  70:Service/Srv_ComProto.c ****     if ((msg == NULL) || \
 180              		.loc 1 70 1 is_stmt 0 view .LVU49
 181 0000 10B5     		push	{r4, lr}
 182              	.LCFI0:
 183              		.cfi_def_cfa_offset 8
 184              		.cfi_offset 4, -8
 185              		.cfi_offset 14, -4
 186 0002 82B0     		sub	sp, sp, #8
 187              	.LCFI1:
 188              		.cfi_def_cfa_offset 16
 189 0004 0191     		str	r1, [sp, #4]
  71:Service/Srv_ComProto.c ****         (period == 0))
 190              		.loc 1 71 5 is_stmt 1 view .LVU50
  71:Service/Srv_ComProto.c ****         (period == 0))
 191              		.loc 1 71 8 is_stmt 0 view .LVU51
 192 0006 0028     		cmp	r0, #0
 193 0008 46D0     		beq	.L27
 194 000a 0446     		mov	r4, r0
  71:Service/Srv_ComProto.c ****         (period == 0))
 195              		.loc 1 71 23 discriminator 1 view .LVU52
 196 000c 002A     		cmp	r2, #0
 197 000e 45D0     		beq	.L28
  75:Service/Srv_ComProto.c ****     msg->lock_proto = true;
 198              		.loc 1 75 5 is_stmt 1 view .LVU53
  75:Service/Srv_ComProto.c ****     msg->lock_proto = true;
 199              		.loc 1 75 19 is_stmt 0 view .LVU54
 200 0010 0021     		movs	r1, #0
 201 0012 0176     		strb	r1, [r0, #24]
  76:Service/Srv_ComProto.c **** 
 202              		.loc 1 76 5 is_stmt 1 view .LVU55
  76:Service/Srv_ComProto.c **** 
 203              		.loc 1 76 21 is_stmt 0 view .LVU56
 204 0014 0123     		movs	r3, #1
 205 0016 4376     		strb	r3, [r0, #25]
  78:Service/Srv_ComProto.c ****     msg->period = period;
 206              		.loc 1 78 5 is_stmt 1 view .LVU57
  78:Service/Srv_ComProto.c ****     msg->period = period;
 207              		.loc 1 78 19 is_stmt 0 view .LVU58
 208 0018 019B     		ldr	r3, [sp, #4]
 209 001a 0381     		strh	r3, [r0, #8]	@ movhi
 210 001c 1B0C     		lsrs	r3, r3, #16
 211 001e 8372     		strb	r3, [r0, #10]
  79:Service/Srv_ComProto.c ****     msg->proto_time = 0;
 212              		.loc 1 79 5 is_stmt 1 view .LVU59
  79:Service/Srv_ComProto.c ****     msg->proto_time = 0;
 213              		.loc 1 79 17 is_stmt 0 view .LVU60
 214 0020 4280     		strh	r2, [r0, #2]	@ movhi
  80:Service/Srv_ComProto.c **** 
 215              		.loc 1 80 5 is_stmt 1 view .LVU61
  80:Service/Srv_ComProto.c **** 
 216              		.loc 1 80 21 is_stmt 0 view .LVU62
ARM GAS  C:\Users\8bit\AppData\Local\Temp\ccCRhmZR.s 			page 11


 217 0022 4161     		str	r1, [r0, #20]
  83:Service/Srv_ComProto.c **** 
 218              		.loc 1 83 5 is_stmt 1 view .LVU63
  83:Service/Srv_ComProto.c **** 
 219              		.loc 1 83 52 is_stmt 0 view .LVU64
 220 0024 1E4B     		ldr	r3, .L31
 221 0026 DB6A     		ldr	r3, [r3, #44]
  83:Service/Srv_ComProto.c **** 
 222              		.loc 1 83 41 view .LVU65
 223 0028 4FF48870 		mov	r0, #272
 224              	.LVL7:
  83:Service/Srv_ComProto.c **** 
 225              		.loc 1 83 41 view .LVU66
 226 002c 9847     		blx	r3
 227              	.LVL8:
  83:Service/Srv_ComProto.c **** 
 228              		.loc 1 83 18 view .LVU67
 229 002e E060     		str	r0, [r4, #12]
  85:Service/Srv_ComProto.c ****     {
 230              		.loc 1 85 5 is_stmt 1 view .LVU68
  85:Service/Srv_ComProto.c ****     {
 231              		.loc 1 85 8 is_stmt 0 view .LVU69
 232 0030 80B1     		cbz	r0, .L30
  91:Service/Srv_ComProto.c **** 
 233              		.loc 1 91 5 is_stmt 1 view .LVU70
 234 0032 4FF48872 		mov	r2, #272
 235 0036 0021     		movs	r1, #0
 236 0038 FFF7FEFF 		bl	memset
 237              	.LVL9:
  94:Service/Srv_ComProto.c ****     {
 238              		.loc 1 94 5 view .LVU71
  94:Service/Srv_ComProto.c ****     {
 239              		.loc 1 94 30 is_stmt 0 view .LVU72
 240 003c 9DF80530 		ldrb	r3, [sp, #5]	@ zero_extendqisi2
  94:Service/Srv_ComProto.c ****     {
 241              		.loc 1 94 5 view .LVU73
 242 0040 013B     		subs	r3, r3, #1
 243 0042 092B     		cmp	r3, #9
 244 0044 21D8     		bhi	.L18
 245 0046 DFE803F0 		tbb	[pc, r3]
 246              	.L20:
 247 004a 1A       		.byte	(.L26-.L20)/2
 248 004b 1D       		.byte	(.L25-.L20)/2
 249 004c 20       		.byte	(.L18-.L20)/2
 250 004d 20       		.byte	(.L18-.L20)/2
 251 004e 0A       		.byte	(.L24-.L20)/2
 252 004f 11       		.byte	(.L23-.L20)/2
 253 0050 14       		.byte	(.L22-.L20)/2
 254 0051 17       		.byte	(.L21-.L20)/2
 255 0052 0C       		.byte	(.L19-.L20)/2
 256 0053 0C       		.byte	(.L19-.L20)/2
 257              		.p2align 1
 258              	.L30:
  87:Service/Srv_ComProto.c ****         return false;
 259              		.loc 1 87 9 is_stmt 1 view .LVU74
  87:Service/Srv_ComProto.c ****         return false;
 260              		.loc 1 87 20 is_stmt 0 view .LVU75
ARM GAS  C:\Users\8bit\AppData\Local\Temp\ccCRhmZR.s 			page 12


 261 0054 124B     		ldr	r3, .L31
 262 0056 1B6B     		ldr	r3, [r3, #48]
  87:Service/Srv_ComProto.c ****         return false;
 263              		.loc 1 87 9 view .LVU76
 264 0058 9847     		blx	r3
 265              	.LVL10:
  88:Service/Srv_ComProto.c ****     }
 266              		.loc 1 88 9 is_stmt 1 view .LVU77
  88:Service/Srv_ComProto.c ****     }
 267              		.loc 1 88 16 is_stmt 0 view .LVU78
 268 005a 0020     		movs	r0, #0
 269 005c 04E0     		b	.L16
 270              	.L24:
  97:Service/Srv_ComProto.c ****         break;
 271              		.loc 1 97 9 is_stmt 1 view .LVU79
  97:Service/Srv_ComProto.c ****         break;
 272              		.loc 1 97 28 is_stmt 0 view .LVU80
 273 005e 114B     		ldr	r3, .L31+4
 274 0060 2361     		str	r3, [r4, #16]
  98:Service/Srv_ComProto.c **** 
 275              		.loc 1 98 9 is_stmt 1 view .LVU81
 276              	.L19:
 132:Service/Srv_ComProto.c **** 
 277              		.loc 1 132 5 view .LVU82
 132:Service/Srv_ComProto.c **** 
 278              		.loc 1 132 21 is_stmt 0 view .LVU83
 279 0062 0023     		movs	r3, #0
 280 0064 6376     		strb	r3, [r4, #25]
 134:Service/Srv_ComProto.c **** }
 281              		.loc 1 134 5 is_stmt 1 view .LVU84
 134:Service/Srv_ComProto.c **** }
 282              		.loc 1 134 12 is_stmt 0 view .LVU85
 283 0066 0120     		movs	r0, #1
 284              	.LVL11:
 285              	.L16:
 135:Service/Srv_ComProto.c **** 
 286              		.loc 1 135 1 view .LVU86
 287 0068 02B0     		add	sp, sp, #8
 288              	.LCFI2:
 289              		.cfi_remember_state
 290              		.cfi_def_cfa_offset 8
 291              		@ sp needed
 292 006a 10BD     		pop	{r4, pc}
 293              	.LVL12:
 294              	.L23:
 295              	.LCFI3:
 296              		.cfi_restore_state
 101:Service/Srv_ComProto.c ****         break;
 297              		.loc 1 101 9 is_stmt 1 view .LVU87
 101:Service/Srv_ComProto.c ****         break;
 298              		.loc 1 101 28 is_stmt 0 view .LVU88
 299 006c 0E4B     		ldr	r3, .L31+8
 300 006e 2361     		str	r3, [r4, #16]
 102:Service/Srv_ComProto.c ****     
 301              		.loc 1 102 9 is_stmt 1 view .LVU89
 302 0070 F7E7     		b	.L19
 303              	.L22:
ARM GAS  C:\Users\8bit\AppData\Local\Temp\ccCRhmZR.s 			page 13


 105:Service/Srv_ComProto.c ****         break;
 304              		.loc 1 105 9 view .LVU90
 105:Service/Srv_ComProto.c ****         break;
 305              		.loc 1 105 28 is_stmt 0 view .LVU91
 306 0072 0E4B     		ldr	r3, .L31+12
 307 0074 2361     		str	r3, [r4, #16]
 106:Service/Srv_ComProto.c **** 
 308              		.loc 1 106 9 is_stmt 1 view .LVU92
 309 0076 F4E7     		b	.L19
 310              	.L21:
 109:Service/Srv_ComProto.c ****         break;
 311              		.loc 1 109 9 view .LVU93
 109:Service/Srv_ComProto.c ****         break;
 312              		.loc 1 109 28 is_stmt 0 view .LVU94
 313 0078 0D4B     		ldr	r3, .L31+16
 314 007a 2361     		str	r3, [r4, #16]
 110:Service/Srv_ComProto.c **** 
 315              		.loc 1 110 9 is_stmt 1 view .LVU95
 316 007c F1E7     		b	.L19
 317              	.L26:
 113:Service/Srv_ComProto.c ****         break;
 318              		.loc 1 113 9 view .LVU96
 113:Service/Srv_ComProto.c ****         break;
 319              		.loc 1 113 28 is_stmt 0 view .LVU97
 320 007e 0D4B     		ldr	r3, .L31+20
 321 0080 2361     		str	r3, [r4, #16]
 114:Service/Srv_ComProto.c **** 
 322              		.loc 1 114 9 is_stmt 1 view .LVU98
 323 0082 EEE7     		b	.L19
 324              	.L25:
 117:Service/Srv_ComProto.c ****         break;
 325              		.loc 1 117 9 view .LVU99
 117:Service/Srv_ComProto.c ****         break;
 326              		.loc 1 117 28 is_stmt 0 view .LVU100
 327 0084 0C4B     		ldr	r3, .L31+24
 328 0086 2361     		str	r3, [r4, #16]
 118:Service/Srv_ComProto.c **** 
 329              		.loc 1 118 9 is_stmt 1 view .LVU101
 330 0088 EBE7     		b	.L19
 331              	.L18:
 127:Service/Srv_ComProto.c ****         msg->lock_proto = false;
 332              		.loc 1 127 9 view .LVU102
 127:Service/Srv_ComProto.c ****         msg->lock_proto = false;
 333              		.loc 1 127 20 is_stmt 0 view .LVU103
 334 008a 054B     		ldr	r3, .L31
 335 008c 1B6B     		ldr	r3, [r3, #48]
 127:Service/Srv_ComProto.c ****         msg->lock_proto = false;
 336              		.loc 1 127 9 view .LVU104
 337 008e E068     		ldr	r0, [r4, #12]
 338 0090 9847     		blx	r3
 339              	.LVL13:
 128:Service/Srv_ComProto.c ****         return false;
 340              		.loc 1 128 9 is_stmt 1 view .LVU105
 128:Service/Srv_ComProto.c ****         return false;
 341              		.loc 1 128 25 is_stmt 0 view .LVU106
 342 0092 0020     		movs	r0, #0
 343 0094 6076     		strb	r0, [r4, #25]
ARM GAS  C:\Users\8bit\AppData\Local\Temp\ccCRhmZR.s 			page 14


 129:Service/Srv_ComProto.c ****     }
 344              		.loc 1 129 9 is_stmt 1 view .LVU107
 129:Service/Srv_ComProto.c ****     }
 345              		.loc 1 129 16 is_stmt 0 view .LVU108
 346 0096 E7E7     		b	.L16
 347              	.LVL14:
 348              	.L27:
  73:Service/Srv_ComProto.c **** 
 349              		.loc 1 73 16 view .LVU109
 350 0098 0020     		movs	r0, #0
 351              	.LVL15:
  73:Service/Srv_ComProto.c **** 
 352              		.loc 1 73 16 view .LVU110
 353 009a E5E7     		b	.L16
 354              	.LVL16:
 355              	.L28:
  73:Service/Srv_ComProto.c **** 
 356              		.loc 1 73 16 view .LVU111
 357 009c 0020     		movs	r0, #0
 358              	.LVL17:
  73:Service/Srv_ComProto.c **** 
 359              		.loc 1 73 16 view .LVU112
 360 009e E3E7     		b	.L16
 361              	.L32:
 362              		.align	2
 363              	.L31:
 364 00a0 00000000 		.word	SrvOsCommon
 365 00a4 00000000 		.word	SrvComProto_MavMsg_Attitude
 366 00a8 00000000 		.word	SrvComProto_MavMsg_Exp_Attitude
 367 00ac 00000000 		.word	SrvComProto_MavMsg_Altitude
 368 00b0 00000000 		.word	SrvConProto_MavMsg_RC
 369 00b4 00000000 		.word	SrvComProto_MavMsg_Raw_IMU
 370 00b8 00000000 		.word	SrvComProto_MavMsg_Scaled_IMU
 371              		.cfi_endproc
 372              	.LFE2076:
 374              		.section	.text.Srv_ComProto_Init,"ax",%progbits
 375              		.align	1
 376              		.syntax unified
 377              		.thumb
 378              		.thumb_func
 380              	Srv_ComProto_Init:
 381              	.LVL18:
 382              	.LFB2074:
  48:Service/Srv_ComProto.c ****     UNUSED(arg);
 383              		.loc 1 48 1 is_stmt 1 view -0
 384              		.cfi_startproc
 385              		@ args = 0, pretend = 0, frame = 0
 386              		@ frame_needed = 0, uses_anonymous_args = 0
  49:Service/Srv_ComProto.c **** 
 387              		.loc 1 49 5 view .LVU114
  52:Service/Srv_ComProto.c ****         return true;
 388              		.loc 1 52 5 view .LVU115
  52:Service/Srv_ComProto.c ****         return true;
 389              		.loc 1 52 28 is_stmt 0 view .LVU116
 390 0000 084B     		ldr	r3, .L39
 391 0002 1B78     		ldrb	r3, [r3]	@ zero_extendqisi2
  52:Service/Srv_ComProto.c ****         return true;
ARM GAS  C:\Users\8bit\AppData\Local\Temp\ccCRhmZR.s 			page 15


 392              		.loc 1 52 8 view .LVU117
 393 0004 63B9     		cbnz	r3, .L36
  48:Service/Srv_ComProto.c ****     UNUSED(arg);
 394              		.loc 1 48 1 view .LVU118
 395 0006 10B5     		push	{r4, lr}
 396              	.LCFI4:
 397              		.cfi_def_cfa_offset 8
 398              		.cfi_offset 4, -8
 399              		.cfi_offset 14, -4
 400 0008 0446     		mov	r4, r0
  55:Service/Srv_ComProto.c **** 
 401              		.loc 1 55 5 is_stmt 1 view .LVU119
  55:Service/Srv_ComProto.c **** 
 402              		.loc 1 55 15 is_stmt 0 view .LVU120
 403 000a 074B     		ldr	r3, .L39+4
 404 000c 1B68     		ldr	r3, [r3]
  55:Service/Srv_ComProto.c **** 
 405              		.loc 1 55 5 view .LVU121
 406 000e 9847     		blx	r3
 407              	.LVL19:
  57:Service/Srv_ComProto.c ****     SrvComProto_monitor.Proto_Type = type;
 408              		.loc 1 57 5 is_stmt 1 view .LVU122
 409 0010 044B     		ldr	r3, .L39
 410 0012 0022     		movs	r2, #0
 411 0014 1A80     		strh	r2, [r3]	@ movhi
  58:Service/Srv_ComProto.c ****     SrvComProto_monitor.init_state = true;
 412              		.loc 1 58 5 view .LVU123
  58:Service/Srv_ComProto.c ****     SrvComProto_monitor.init_state = true;
 413              		.loc 1 58 36 is_stmt 0 view .LVU124
 414 0016 5C70     		strb	r4, [r3, #1]
  59:Service/Srv_ComProto.c **** 
 415              		.loc 1 59 5 is_stmt 1 view .LVU125
  59:Service/Srv_ComProto.c **** 
 416              		.loc 1 59 36 is_stmt 0 view .LVU126
 417 0018 0122     		movs	r2, #1
 418 001a 1A70     		strb	r2, [r3]
  61:Service/Srv_ComProto.c **** }
 419              		.loc 1 61 5 is_stmt 1 view .LVU127
  62:Service/Srv_ComProto.c **** 
 420              		.loc 1 62 1 is_stmt 0 view .LVU128
 421 001c 0120     		movs	r0, #1
 422 001e 10BD     		pop	{r4, pc}
 423              	.LVL20:
 424              	.L36:
 425              	.LCFI5:
 426              		.cfi_def_cfa_offset 0
 427              		.cfi_restore 4
 428              		.cfi_restore 14
  62:Service/Srv_ComProto.c **** 
 429              		.loc 1 62 1 view .LVU129
 430 0020 0120     		movs	r0, #1
 431              	.LVL21:
  62:Service/Srv_ComProto.c **** 
 432              		.loc 1 62 1 view .LVU130
 433 0022 7047     		bx	lr
 434              	.L40:
 435              		.align	2
ARM GAS  C:\Users\8bit\AppData\Local\Temp\ccCRhmZR.s 			page 16


 436              	.L39:
 437 0024 00000000 		.word	.LANCHOR0
 438 0028 00000000 		.word	SrvDataHub
 439              		.cfi_endproc
 440              	.LFE2074:
 442              		.section	.text.SrvComProto_MsgToStream,"ax",%progbits
 443              		.align	1
 444              		.syntax unified
 445              		.thumb
 446              		.thumb_func
 448              	SrvComProto_MsgToStream:
 449              	.LVL22:
 450              	.LFB2077:
 138:Service/Srv_ComProto.c ****     uint32_t sys_time = SrvOsCommon.get_os_ms();
 451              		.loc 1 138 1 is_stmt 1 view -0
 452              		.cfi_startproc
 453              		@ args = 0, pretend = 0, frame = 0
 454              		@ frame_needed = 0, uses_anonymous_args = 0
 138:Service/Srv_ComProto.c ****     uint32_t sys_time = SrvOsCommon.get_os_ms();
 455              		.loc 1 138 1 is_stmt 0 view .LVU132
 456 0000 2DE9F047 		push	{r4, r5, r6, r7, r8, r9, r10, lr}
 457              	.LCFI6:
 458              		.cfi_def_cfa_offset 32
 459              		.cfi_offset 4, -32
 460              		.cfi_offset 5, -28
 461              		.cfi_offset 6, -24
 462              		.cfi_offset 7, -20
 463              		.cfi_offset 8, -16
 464              		.cfi_offset 9, -12
 465              		.cfi_offset 10, -8
 466              		.cfi_offset 14, -4
 467 0004 0446     		mov	r4, r0
 468 0006 0D46     		mov	r5, r1
 469 0008 9046     		mov	r8, r2
 470 000a 1F46     		mov	r7, r3
 139:Service/Srv_ComProto.c **** 
 471              		.loc 1 139 5 is_stmt 1 view .LVU133
 139:Service/Srv_ComProto.c **** 
 472              		.loc 1 139 36 is_stmt 0 view .LVU134
 473 000c 264B     		ldr	r3, .L49
 474              	.LVL23:
 139:Service/Srv_ComProto.c **** 
 475              		.loc 1 139 36 view .LVU135
 476 000e 5B68     		ldr	r3, [r3, #4]
 139:Service/Srv_ComProto.c **** 
 477              		.loc 1 139 25 view .LVU136
 478 0010 9847     		blx	r3
 479              	.LVL24:
 141:Service/Srv_ComProto.c ****     {
 480              		.loc 1 141 5 is_stmt 1 view .LVU137
 141:Service/Srv_ComProto.c ****     {
 481              		.loc 1 141 12 is_stmt 0 view .LVU138
 482 0012 2178     		ldrb	r1, [r4]	@ zero_extendqisi2
 141:Service/Srv_ComProto.c ****     {
 483              		.loc 1 141 8 view .LVU139
 484 0014 B9B1     		cbz	r1, .L41
 485 0016 0646     		mov	r6, r0
ARM GAS  C:\Users\8bit\AppData\Local\Temp\ccCRhmZR.s 			page 17


 141:Service/Srv_ComProto.c ****     {
 486              		.loc 1 141 21 discriminator 1 view .LVU140
 487 0018 ADB1     		cbz	r5, .L41
 141:Service/Srv_ComProto.c ****     {
 488              		.loc 1 141 48 discriminator 2 view .LVU141
 489 001a 2B68     		ldr	r3, [r5]
 141:Service/Srv_ComProto.c ****     {
 490              		.loc 1 141 35 discriminator 2 view .LVU142
 491 001c 9BB1     		cbz	r3, .L41
 141:Service/Srv_ComProto.c ****     {
 492              		.loc 1 141 62 discriminator 3 view .LVU143
 493 001e 2369     		ldr	r3, [r4, #16]
 141:Service/Srv_ComProto.c ****     {
 494              		.loc 1 141 56 discriminator 3 view .LVU144
 495 0020 8BB1     		cbz	r3, .L41
 143:Service/Srv_ComProto.c **** 
 496              		.loc 1 143 9 is_stmt 1 view .LVU145
 143:Service/Srv_ComProto.c **** 
 497              		.loc 1 143 23 is_stmt 0 view .LVU146
 498 0022 0122     		movs	r2, #1
 499 0024 2276     		strb	r2, [r4, #24]
 145:Service/Srv_ComProto.c ****         {
 500              		.loc 1 145 9 is_stmt 1 view .LVU147
 145:Service/Srv_ComProto.c ****         {
 501              		.loc 1 145 17 is_stmt 0 view .LVU148
 502 0026 6269     		ldr	r2, [r4, #20]
 145:Service/Srv_ComProto.c ****         {
 503              		.loc 1 145 12 view .LVU149
 504 0028 1AB1     		cbz	r2, .L43
 145:Service/Srv_ComProto.c ****         {
 505              		.loc 1 145 44 discriminator 1 view .LVU150
 506 002a 821A     		subs	r2, r0, r2
 145:Service/Srv_ComProto.c ****         {
 507              		.loc 1 145 67 discriminator 1 view .LVU151
 508 002c 6188     		ldrh	r1, [r4, #2]
 145:Service/Srv_ComProto.c ****         {
 509              		.loc 1 145 31 discriminator 1 view .LVU152
 510 002e 8A42     		cmp	r2, r1
 511 0030 0BD3     		bcc	.L47
 512              	.L43:
 151:Service/Srv_ComProto.c **** 
 513              		.loc 1 151 9 is_stmt 1 view .LVU153
 151:Service/Srv_ComProto.c **** 
 514              		.loc 1 151 28 is_stmt 0 view .LVU154
 515 0032 2046     		mov	r0, r4
 516              	.LVL25:
 151:Service/Srv_ComProto.c **** 
 517              		.loc 1 151 28 view .LVU155
 518 0034 9847     		blx	r3
 519              	.LVL26:
 151:Service/Srv_ComProto.c **** 
 520              		.loc 1 151 26 view .LVU156
 521 0036 A880     		strh	r0, [r5, #4]	@ movhi
 153:Service/Srv_ComProto.c ****         {
 522              		.loc 1 153 9 is_stmt 1 view .LVU157
 153:Service/Srv_ComProto.c ****         {
 523              		.loc 1 153 12 is_stmt 0 view .LVU158
ARM GAS  C:\Users\8bit\AppData\Local\Temp\ccCRhmZR.s 			page 18


 524 0038 18B1     		cbz	r0, .L44
 153:Service/Srv_ComProto.c ****         {
 525              		.loc 1 153 85 discriminator 1 view .LVU159
 526 003a 0730     		adds	r0, r0, #7
 153:Service/Srv_ComProto.c ****         {
 527              		.loc 1 153 98 discriminator 1 view .LVU160
 528 003c EB88     		ldrh	r3, [r5, #6]
 153:Service/Srv_ComProto.c ****         {
 529              		.loc 1 153 30 discriminator 1 view .LVU161
 530 003e 9842     		cmp	r0, r3
 531 0040 06DB     		blt	.L48
 532              	.L44:
 167:Service/Srv_ComProto.c ****     }
 533              		.loc 1 167 9 is_stmt 1 view .LVU162
 167:Service/Srv_ComProto.c ****     }
 534              		.loc 1 167 23 is_stmt 0 view .LVU163
 535 0042 0023     		movs	r3, #0
 536 0044 2376     		strb	r3, [r4, #24]
 537              	.LVL27:
 538              	.L41:
 169:Service/Srv_ComProto.c **** 
 539              		.loc 1 169 1 view .LVU164
 540 0046 BDE8F087 		pop	{r4, r5, r6, r7, r8, r9, r10, pc}
 541              	.LVL28:
 542              	.L47:
 147:Service/Srv_ComProto.c ****             return;
 543              		.loc 1 147 13 is_stmt 1 view .LVU165
 147:Service/Srv_ComProto.c ****             return;
 544              		.loc 1 147 27 is_stmt 0 view .LVU166
 545 004a 0023     		movs	r3, #0
 546 004c 2376     		strb	r3, [r4, #24]
 148:Service/Srv_ComProto.c ****         }
 547              		.loc 1 148 13 is_stmt 1 view .LVU167
 548 004e FAE7     		b	.L41
 549              	.LVL29:
 550              	.L48:
 155:Service/Srv_ComProto.c **** 
 551              		.loc 1 155 13 view .LVU168
 155:Service/Srv_ComProto.c **** 
 552              		.loc 1 155 32 is_stmt 0 view .LVU169
 553 0050 D5F800A0 		ldr	r10, [r5]
 155:Service/Srv_ComProto.c **** 
 554              		.loc 1 155 81 view .LVU170
 555 0054 D4F80C90 		ldr	r9, [r4, #12]
 556              	.LVL30:
 557              	.LBB43:
 558              	.LBI43:
 559              		.file 2 "Service/../MAVLink/common/../mavlink_helpers.h"
   1:Service/../MAVLink/common/../mavlink_helpers.h **** #ifndef  _MAVLINK_HELPERS_H_
   2:Service/../MAVLink/common/../mavlink_helpers.h **** #define  _MAVLINK_HELPERS_H_
   3:Service/../MAVLink/common/../mavlink_helpers.h **** 
   4:Service/../MAVLink/common/../mavlink_helpers.h **** #include "string.h"
   5:Service/../MAVLink/common/../mavlink_helpers.h **** #include "checksum.h"
   6:Service/../MAVLink/common/../mavlink_helpers.h **** #include "mavlink_types.h"
   7:Service/../MAVLink/common/../mavlink_helpers.h **** #include "mavlink_conversions.h"
   8:Service/../MAVLink/common/../mavlink_helpers.h **** 
   9:Service/../MAVLink/common/../mavlink_helpers.h **** #ifndef MAVLINK_HELPER
ARM GAS  C:\Users\8bit\AppData\Local\Temp\ccCRhmZR.s 			page 19


  10:Service/../MAVLink/common/../mavlink_helpers.h **** #define MAVLINK_HELPER
  11:Service/../MAVLink/common/../mavlink_helpers.h **** #endif
  12:Service/../MAVLink/common/../mavlink_helpers.h **** 
  13:Service/../MAVLink/common/../mavlink_helpers.h **** /*
  14:Service/../MAVLink/common/../mavlink_helpers.h ****  * Internal function to give access to the channel status for each channel
  15:Service/../MAVLink/common/../mavlink_helpers.h ****  */
  16:Service/../MAVLink/common/../mavlink_helpers.h **** #ifndef MAVLINK_GET_CHANNEL_STATUS
  17:Service/../MAVLink/common/../mavlink_helpers.h **** MAVLINK_HELPER mavlink_status_t* mavlink_get_channel_status(uint8_t chan)
  18:Service/../MAVLink/common/../mavlink_helpers.h **** {
  19:Service/../MAVLink/common/../mavlink_helpers.h **** #ifdef MAVLINK_EXTERNAL_RX_STATUS
  20:Service/../MAVLink/common/../mavlink_helpers.h **** 	// No m_mavlink_status array defined in function,
  21:Service/../MAVLink/common/../mavlink_helpers.h **** 	// has to be defined externally
  22:Service/../MAVLink/common/../mavlink_helpers.h **** #else
  23:Service/../MAVLink/common/../mavlink_helpers.h **** 	static mavlink_status_t m_mavlink_status[MAVLINK_COMM_NUM_BUFFERS];
  24:Service/../MAVLink/common/../mavlink_helpers.h **** #endif
  25:Service/../MAVLink/common/../mavlink_helpers.h **** 	return &m_mavlink_status[chan];
  26:Service/../MAVLink/common/../mavlink_helpers.h **** }
  27:Service/../MAVLink/common/../mavlink_helpers.h **** #endif
  28:Service/../MAVLink/common/../mavlink_helpers.h **** 
  29:Service/../MAVLink/common/../mavlink_helpers.h **** /*
  30:Service/../MAVLink/common/../mavlink_helpers.h ****  * Internal function to give access to the channel buffer for each channel
  31:Service/../MAVLink/common/../mavlink_helpers.h ****  */
  32:Service/../MAVLink/common/../mavlink_helpers.h **** #ifndef MAVLINK_GET_CHANNEL_BUFFER
  33:Service/../MAVLink/common/../mavlink_helpers.h **** MAVLINK_HELPER mavlink_message_t* mavlink_get_channel_buffer(uint8_t chan)
  34:Service/../MAVLink/common/../mavlink_helpers.h **** {
  35:Service/../MAVLink/common/../mavlink_helpers.h **** 	
  36:Service/../MAVLink/common/../mavlink_helpers.h **** #ifdef MAVLINK_EXTERNAL_RX_BUFFER
  37:Service/../MAVLink/common/../mavlink_helpers.h **** 	// No m_mavlink_buffer array defined in function,
  38:Service/../MAVLink/common/../mavlink_helpers.h **** 	// has to be defined externally
  39:Service/../MAVLink/common/../mavlink_helpers.h **** #else
  40:Service/../MAVLink/common/../mavlink_helpers.h **** 	static mavlink_message_t m_mavlink_buffer[MAVLINK_COMM_NUM_BUFFERS];
  41:Service/../MAVLink/common/../mavlink_helpers.h **** #endif
  42:Service/../MAVLink/common/../mavlink_helpers.h **** 	return &m_mavlink_buffer[chan];
  43:Service/../MAVLink/common/../mavlink_helpers.h **** }
  44:Service/../MAVLink/common/../mavlink_helpers.h **** #endif
  45:Service/../MAVLink/common/../mavlink_helpers.h **** 
  46:Service/../MAVLink/common/../mavlink_helpers.h **** /**
  47:Service/../MAVLink/common/../mavlink_helpers.h ****  * @brief Reset the status of a channel.
  48:Service/../MAVLink/common/../mavlink_helpers.h ****  */
  49:Service/../MAVLink/common/../mavlink_helpers.h **** MAVLINK_HELPER void mavlink_reset_channel_status(uint8_t chan)
  50:Service/../MAVLink/common/../mavlink_helpers.h **** {
  51:Service/../MAVLink/common/../mavlink_helpers.h **** 	mavlink_status_t *status = mavlink_get_channel_status(chan);
  52:Service/../MAVLink/common/../mavlink_helpers.h **** 	status->parse_state = MAVLINK_PARSE_STATE_IDLE;
  53:Service/../MAVLink/common/../mavlink_helpers.h **** }
  54:Service/../MAVLink/common/../mavlink_helpers.h **** 
  55:Service/../MAVLink/common/../mavlink_helpers.h **** /**
  56:Service/../MAVLink/common/../mavlink_helpers.h ****  * @brief Finalize a MAVLink message with channel assignment
  57:Service/../MAVLink/common/../mavlink_helpers.h ****  *
  58:Service/../MAVLink/common/../mavlink_helpers.h ****  * This function calculates the checksum and sets length and aircraft id correctly.
  59:Service/../MAVLink/common/../mavlink_helpers.h ****  * It assumes that the message id and the payload are already correctly set. This function
  60:Service/../MAVLink/common/../mavlink_helpers.h ****  * can also be used if the message header has already been written before (as in mavlink_msg_xxx_pa
  61:Service/../MAVLink/common/../mavlink_helpers.h ****  * instead of mavlink_msg_xxx_pack_headerless), it just introduces little extra overhead.
  62:Service/../MAVLink/common/../mavlink_helpers.h ****  *
  63:Service/../MAVLink/common/../mavlink_helpers.h ****  * @param msg Message to finalize
  64:Service/../MAVLink/common/../mavlink_helpers.h ****  * @param system_id Id of the sending (this) system, 1-127
  65:Service/../MAVLink/common/../mavlink_helpers.h ****  * @param length Message length
  66:Service/../MAVLink/common/../mavlink_helpers.h ****  */
ARM GAS  C:\Users\8bit\AppData\Local\Temp\ccCRhmZR.s 			page 20


  67:Service/../MAVLink/common/../mavlink_helpers.h **** #if MAVLINK_CRC_EXTRA
  68:Service/../MAVLink/common/../mavlink_helpers.h **** MAVLINK_HELPER uint16_t mavlink_finalize_message_chan(mavlink_message_t* msg, uint8_t system_id, ui
  69:Service/../MAVLink/common/../mavlink_helpers.h **** 						      uint8_t chan, uint8_t min_length, uint8_t length, uint8_t crc_extra)
  70:Service/../MAVLink/common/../mavlink_helpers.h **** #else
  71:Service/../MAVLink/common/../mavlink_helpers.h **** MAVLINK_HELPER uint16_t mavlink_finalize_message_chan(mavlink_message_t* msg, uint8_t system_id, ui
  72:Service/../MAVLink/common/../mavlink_helpers.h **** 						      uint8_t chan, uint8_t length)
  73:Service/../MAVLink/common/../mavlink_helpers.h **** #endif
  74:Service/../MAVLink/common/../mavlink_helpers.h **** {
  75:Service/../MAVLink/common/../mavlink_helpers.h **** 	// This is only used for the v2 protocol and we silence it here
  76:Service/../MAVLink/common/../mavlink_helpers.h **** 	(void)min_length;
  77:Service/../MAVLink/common/../mavlink_helpers.h **** 	// This code part is the same for all messages;
  78:Service/../MAVLink/common/../mavlink_helpers.h **** 	msg->magic = MAVLINK_STX;
  79:Service/../MAVLink/common/../mavlink_helpers.h **** 	msg->len = length;
  80:Service/../MAVLink/common/../mavlink_helpers.h **** 	msg->sysid = system_id;
  81:Service/../MAVLink/common/../mavlink_helpers.h **** 	msg->compid = component_id;
  82:Service/../MAVLink/common/../mavlink_helpers.h **** 	// One sequence number per channel
  83:Service/../MAVLink/common/../mavlink_helpers.h **** 	msg->seq = mavlink_get_channel_status(chan)->current_tx_seq;
  84:Service/../MAVLink/common/../mavlink_helpers.h **** 	mavlink_get_channel_status(chan)->current_tx_seq = mavlink_get_channel_status(chan)->current_tx_se
  85:Service/../MAVLink/common/../mavlink_helpers.h **** 	msg->checksum = crc_calculate(((const uint8_t*)(msg)) + 3, MAVLINK_CORE_HEADER_LEN);
  86:Service/../MAVLink/common/../mavlink_helpers.h **** 	crc_accumulate_buffer(&msg->checksum, _MAV_PAYLOAD(msg), msg->len);
  87:Service/../MAVLink/common/../mavlink_helpers.h **** #if MAVLINK_CRC_EXTRA
  88:Service/../MAVLink/common/../mavlink_helpers.h **** 	crc_accumulate(crc_extra, &msg->checksum);
  89:Service/../MAVLink/common/../mavlink_helpers.h **** #endif
  90:Service/../MAVLink/common/../mavlink_helpers.h **** 	mavlink_ck_a(msg) = (uint8_t)(msg->checksum & 0xFF);
  91:Service/../MAVLink/common/../mavlink_helpers.h **** 	mavlink_ck_b(msg) = (uint8_t)(msg->checksum >> 8);
  92:Service/../MAVLink/common/../mavlink_helpers.h **** 
  93:Service/../MAVLink/common/../mavlink_helpers.h **** 	return length + MAVLINK_NUM_NON_PAYLOAD_BYTES;
  94:Service/../MAVLink/common/../mavlink_helpers.h **** }
  95:Service/../MAVLink/common/../mavlink_helpers.h **** 
  96:Service/../MAVLink/common/../mavlink_helpers.h **** 
  97:Service/../MAVLink/common/../mavlink_helpers.h **** /**
  98:Service/../MAVLink/common/../mavlink_helpers.h ****  * @brief Finalize a MAVLink message with MAVLINK_COMM_0 as default channel
  99:Service/../MAVLink/common/../mavlink_helpers.h ****  */
 100:Service/../MAVLink/common/../mavlink_helpers.h **** #if MAVLINK_CRC_EXTRA
 101:Service/../MAVLink/common/../mavlink_helpers.h **** MAVLINK_HELPER uint16_t mavlink_finalize_message(mavlink_message_t* msg, uint8_t system_id, uint8_t
 102:Service/../MAVLink/common/../mavlink_helpers.h **** 						 uint8_t min_length, uint8_t length, uint8_t crc_extra)
 103:Service/../MAVLink/common/../mavlink_helpers.h **** {
 104:Service/../MAVLink/common/../mavlink_helpers.h ****     return mavlink_finalize_message_chan(msg, system_id, component_id, MAVLINK_COMM_0, min_length, 
 105:Service/../MAVLink/common/../mavlink_helpers.h **** }
 106:Service/../MAVLink/common/../mavlink_helpers.h **** #else
 107:Service/../MAVLink/common/../mavlink_helpers.h **** MAVLINK_HELPER uint16_t mavlink_finalize_message(mavlink_message_t* msg, uint8_t system_id, uint8_t
 108:Service/../MAVLink/common/../mavlink_helpers.h **** 						 uint8_t length)
 109:Service/../MAVLink/common/../mavlink_helpers.h **** {
 110:Service/../MAVLink/common/../mavlink_helpers.h **** 	return mavlink_finalize_message_chan(msg, system_id, component_id, MAVLINK_COMM_0, length);
 111:Service/../MAVLink/common/../mavlink_helpers.h **** }
 112:Service/../MAVLink/common/../mavlink_helpers.h **** #endif
 113:Service/../MAVLink/common/../mavlink_helpers.h **** 
 114:Service/../MAVLink/common/../mavlink_helpers.h **** #ifdef MAVLINK_USE_CONVENIENCE_FUNCTIONS
 115:Service/../MAVLink/common/../mavlink_helpers.h **** MAVLINK_HELPER void _mavlink_send_uart(mavlink_channel_t chan, const char *buf, uint16_t len);
 116:Service/../MAVLink/common/../mavlink_helpers.h **** 
 117:Service/../MAVLink/common/../mavlink_helpers.h **** /**
 118:Service/../MAVLink/common/../mavlink_helpers.h ****  * @brief Finalize a MAVLink message with channel assignment and send
 119:Service/../MAVLink/common/../mavlink_helpers.h ****  */
 120:Service/../MAVLink/common/../mavlink_helpers.h **** #if MAVLINK_CRC_EXTRA
 121:Service/../MAVLink/common/../mavlink_helpers.h **** MAVLINK_HELPER void _mav_finalize_message_chan_send(mavlink_channel_t chan, uint8_t msgid, const ch
 122:Service/../MAVLink/common/../mavlink_helpers.h **** 						    uint8_t min_length, uint8_t length, uint8_t crc_extra)
 123:Service/../MAVLink/common/../mavlink_helpers.h **** #else
ARM GAS  C:\Users\8bit\AppData\Local\Temp\ccCRhmZR.s 			page 21


 124:Service/../MAVLink/common/../mavlink_helpers.h **** MAVLINK_HELPER void _mav_finalize_message_chan_send(mavlink_channel_t chan, uint8_t msgid, const ch
 125:Service/../MAVLink/common/../mavlink_helpers.h **** #endif
 126:Service/../MAVLink/common/../mavlink_helpers.h **** {
 127:Service/../MAVLink/common/../mavlink_helpers.h **** 	uint16_t checksum;
 128:Service/../MAVLink/common/../mavlink_helpers.h **** 	uint8_t buf[MAVLINK_NUM_HEADER_BYTES];
 129:Service/../MAVLink/common/../mavlink_helpers.h **** 	uint8_t ck[2];
 130:Service/../MAVLink/common/../mavlink_helpers.h **** 	mavlink_status_t *status = mavlink_get_channel_status(chan);
 131:Service/../MAVLink/common/../mavlink_helpers.h **** 	buf[0] = MAVLINK_STX;
 132:Service/../MAVLink/common/../mavlink_helpers.h **** 	buf[1] = length;
 133:Service/../MAVLink/common/../mavlink_helpers.h **** 	buf[2] = status->current_tx_seq;
 134:Service/../MAVLink/common/../mavlink_helpers.h **** 	buf[3] = mavlink_system.sysid;
 135:Service/../MAVLink/common/../mavlink_helpers.h **** 	buf[4] = mavlink_system.compid;
 136:Service/../MAVLink/common/../mavlink_helpers.h **** 	buf[5] = msgid;
 137:Service/../MAVLink/common/../mavlink_helpers.h **** 	status->current_tx_seq++;
 138:Service/../MAVLink/common/../mavlink_helpers.h **** 	checksum = crc_calculate((const uint8_t*)&buf[1], MAVLINK_CORE_HEADER_LEN);
 139:Service/../MAVLink/common/../mavlink_helpers.h **** 	crc_accumulate_buffer(&checksum, packet, length);
 140:Service/../MAVLink/common/../mavlink_helpers.h **** #if MAVLINK_CRC_EXTRA
 141:Service/../MAVLink/common/../mavlink_helpers.h **** 	crc_accumulate(crc_extra, &checksum);
 142:Service/../MAVLink/common/../mavlink_helpers.h **** #endif
 143:Service/../MAVLink/common/../mavlink_helpers.h **** 	ck[0] = (uint8_t)(checksum & 0xFF);
 144:Service/../MAVLink/common/../mavlink_helpers.h **** 	ck[1] = (uint8_t)(checksum >> 8);
 145:Service/../MAVLink/common/../mavlink_helpers.h **** 
 146:Service/../MAVLink/common/../mavlink_helpers.h **** 	MAVLINK_START_UART_SEND(chan, MAVLINK_NUM_NON_PAYLOAD_BYTES + (uint16_t)length);
 147:Service/../MAVLink/common/../mavlink_helpers.h **** 	_mavlink_send_uart(chan, (const char *)buf, MAVLINK_NUM_HEADER_BYTES);
 148:Service/../MAVLink/common/../mavlink_helpers.h **** 	_mavlink_send_uart(chan, packet, length);
 149:Service/../MAVLink/common/../mavlink_helpers.h **** 	_mavlink_send_uart(chan, (const char *)ck, 2);
 150:Service/../MAVLink/common/../mavlink_helpers.h **** 	MAVLINK_END_UART_SEND(chan, MAVLINK_NUM_NON_PAYLOAD_BYTES + (uint16_t)length);
 151:Service/../MAVLink/common/../mavlink_helpers.h **** }
 152:Service/../MAVLink/common/../mavlink_helpers.h **** 
 153:Service/../MAVLink/common/../mavlink_helpers.h **** /**
 154:Service/../MAVLink/common/../mavlink_helpers.h ****  * @brief re-send a message over a uart channel
 155:Service/../MAVLink/common/../mavlink_helpers.h ****  * this is more stack efficient than re-marshalling the message
 156:Service/../MAVLink/common/../mavlink_helpers.h ****  */
 157:Service/../MAVLink/common/../mavlink_helpers.h **** MAVLINK_HELPER void _mavlink_resend_uart(mavlink_channel_t chan, const mavlink_message_t *msg)
 158:Service/../MAVLink/common/../mavlink_helpers.h **** {
 159:Service/../MAVLink/common/../mavlink_helpers.h **** 	uint8_t ck[2];
 160:Service/../MAVLink/common/../mavlink_helpers.h **** 
 161:Service/../MAVLink/common/../mavlink_helpers.h **** 	ck[0] = (uint8_t)(msg->checksum & 0xFF);
 162:Service/../MAVLink/common/../mavlink_helpers.h **** 	ck[1] = (uint8_t)(msg->checksum >> 8);
 163:Service/../MAVLink/common/../mavlink_helpers.h **** 	// XXX use the right sequence here
 164:Service/../MAVLink/common/../mavlink_helpers.h **** 
 165:Service/../MAVLink/common/../mavlink_helpers.h **** 	MAVLINK_START_UART_SEND(chan, MAVLINK_NUM_NON_PAYLOAD_BYTES + msg->len);
 166:Service/../MAVLink/common/../mavlink_helpers.h **** 	_mavlink_send_uart(chan, (const char *)&msg->magic, MAVLINK_NUM_HEADER_BYTES);
 167:Service/../MAVLink/common/../mavlink_helpers.h **** 	_mavlink_send_uart(chan, _MAV_PAYLOAD(msg), msg->len);
 168:Service/../MAVLink/common/../mavlink_helpers.h **** 	_mavlink_send_uart(chan, (const char *)ck, 2);
 169:Service/../MAVLink/common/../mavlink_helpers.h **** 	MAVLINK_END_UART_SEND(chan, MAVLINK_NUM_NON_PAYLOAD_BYTES + msg->len);
 170:Service/../MAVLink/common/../mavlink_helpers.h **** }
 171:Service/../MAVLink/common/../mavlink_helpers.h **** #endif // MAVLINK_USE_CONVENIENCE_FUNCTIONS
 172:Service/../MAVLink/common/../mavlink_helpers.h **** 
 173:Service/../MAVLink/common/../mavlink_helpers.h **** /**
 174:Service/../MAVLink/common/../mavlink_helpers.h ****  * @brief Pack a message to send it over a serial byte stream
 175:Service/../MAVLink/common/../mavlink_helpers.h ****  */
 176:Service/../MAVLink/common/../mavlink_helpers.h **** MAVLINK_HELPER uint16_t mavlink_msg_to_send_buffer(uint8_t *buffer, const mavlink_message_t *msg)
 560              		.loc 2 176 25 is_stmt 1 view .LVU171
 561              	.LBB44:
 177:Service/../MAVLink/common/../mavlink_helpers.h **** {
 178:Service/../MAVLink/common/../mavlink_helpers.h **** 	memcpy(buffer, (const uint8_t *)&msg->magic, MAVLINK_NUM_HEADER_BYTES + (uint16_t)msg->len);
ARM GAS  C:\Users\8bit\AppData\Local\Temp\ccCRhmZR.s 			page 22


 562              		.loc 2 178 2 view .LVU172
 563              		.loc 2 178 87 is_stmt 0 view .LVU173
 564 0058 99F80320 		ldrb	r2, [r9, #3]	@ zero_extendqisi2
 565              		.loc 2 178 2 view .LVU174
 566 005c 0632     		adds	r2, r2, #6
 567 005e 09F10201 		add	r1, r9, #2
 568 0062 5046     		mov	r0, r10
 569 0064 FFF7FEFF 		bl	memcpy
 570              	.LVL31:
 179:Service/../MAVLink/common/../mavlink_helpers.h **** 
 180:Service/../MAVLink/common/../mavlink_helpers.h **** 	uint8_t *ck = buffer + (MAVLINK_NUM_HEADER_BYTES + (uint16_t)msg->len);
 571              		.loc 2 180 2 is_stmt 1 view .LVU175
 572              		.loc 2 180 66 is_stmt 0 view .LVU176
 573 0068 99F80330 		ldrb	r3, [r9, #3]	@ zero_extendqisi2
 574              		.loc 2 180 51 view .LVU177
 575 006c 0633     		adds	r3, r3, #6
 576              		.loc 2 180 11 view .LVU178
 577 006e 0AEB0302 		add	r2, r10, r3
 578              	.LVL32:
 181:Service/../MAVLink/common/../mavlink_helpers.h **** 
 182:Service/../MAVLink/common/../mavlink_helpers.h **** 	ck[0] = (uint8_t)(msg->checksum & 0xFF);
 579              		.loc 2 182 2 is_stmt 1 view .LVU179
 580              		.loc 2 182 23 is_stmt 0 view .LVU180
 581 0072 B9F80010 		ldrh	r1, [r9]	@ unaligned
 582              		.loc 2 182 8 view .LVU181
 583 0076 0AF80310 		strb	r1, [r10, r3]
 183:Service/../MAVLink/common/../mavlink_helpers.h **** 	ck[1] = (uint8_t)(msg->checksum >> 8);
 584              		.loc 2 183 2 is_stmt 1 view .LVU182
 585              		.loc 2 183 23 is_stmt 0 view .LVU183
 586 007a B9F80030 		ldrh	r3, [r9]	@ unaligned
 587              		.loc 2 183 10 view .LVU184
 588 007e 1B0A     		lsrs	r3, r3, #8
 589              		.loc 2 183 8 view .LVU185
 590 0080 5370     		strb	r3, [r2, #1]
 184:Service/../MAVLink/common/../mavlink_helpers.h **** 
 185:Service/../MAVLink/common/../mavlink_helpers.h **** 	return MAVLINK_NUM_NON_PAYLOAD_BYTES + (uint16_t)msg->len;
 591              		.loc 2 185 2 is_stmt 1 view .LVU186
 592              		.loc 2 185 54 is_stmt 0 view .LVU187
 593 0082 99F80320 		ldrb	r2, [r9, #3]	@ zero_extendqisi2
 594              	.LVL33:
 595              		.loc 2 185 39 view .LVU188
 596 0086 0832     		adds	r2, r2, #8
 597              	.LVL34:
 598              		.loc 2 185 39 view .LVU189
 599              	.LBE44:
 600              	.LBE43:
 155:Service/Srv_ComProto.c **** 
 601              		.loc 1 155 30 view .LVU190
 602 0088 AA80     		strh	r2, [r5, #4]	@ movhi
 157:Service/Srv_ComProto.c ****             {
 603              		.loc 1 157 13 is_stmt 1 view .LVU191
 157:Service/Srv_ComProto.c ****             {
 604              		.loc 1 157 16 is_stmt 0 view .LVU192
 605 008a 57B1     		cbz	r7, .L45
 159:Service/Srv_ComProto.c ****                 msg->proto_cnt ++;
 606              		.loc 1 159 17 is_stmt 1 view .LVU193
 607 008c 2968     		ldr	r1, [r5]
ARM GAS  C:\Users\8bit\AppData\Local\Temp\ccCRhmZR.s 			page 23


 608 008e 4046     		mov	r0, r8
 609 0090 B847     		blx	r7
 610              	.LVL35:
 160:Service/Srv_ComProto.c ****                 memset(com_stream->p_buf, 0, com_stream->size);
 611              		.loc 1 160 17 view .LVU194
 160:Service/Srv_ComProto.c ****                 memset(com_stream->p_buf, 0, com_stream->size);
 612              		.loc 1 160 20 is_stmt 0 view .LVU195
 613 0092 6368     		ldr	r3, [r4, #4]
 160:Service/Srv_ComProto.c ****                 memset(com_stream->p_buf, 0, com_stream->size);
 614              		.loc 1 160 32 view .LVU196
 615 0094 0133     		adds	r3, r3, #1
 616 0096 6360     		str	r3, [r4, #4]
 161:Service/Srv_ComProto.c ****             }
 617              		.loc 1 161 17 is_stmt 1 view .LVU197
 618 0098 AA88     		ldrh	r2, [r5, #4]
 619 009a 0021     		movs	r1, #0
 620 009c 2868     		ldr	r0, [r5]
 621 009e FFF7FEFF 		bl	memset
 622              	.LVL36:
 623              	.L45:
 164:Service/Srv_ComProto.c ****         }
 624              		.loc 1 164 13 view .LVU198
 164:Service/Srv_ComProto.c ****         }
 625              		.loc 1 164 29 is_stmt 0 view .LVU199
 626 00a2 6661     		str	r6, [r4, #20]
 627 00a4 CDE7     		b	.L44
 628              	.L50:
 629 00a6 00BF     		.align	2
 630              	.L49:
 631 00a8 00000000 		.word	SrvOsCommon
 632              		.cfi_endproc
 633              	.LFE2077:
 635              		.section	.text.SrvComProto_MavMsg_Decode_ExpGyro,"ax",%progbits
 636              		.align	1
 637              		.syntax unified
 638              		.thumb
 639              		.thumb_func
 641              	SrvComProto_MavMsg_Decode_ExpGyro:
 642              	.LVL37:
 643              	.LFB2088:
 346:Service/Srv_ComProto.c **** 
 347:Service/Srv_ComProto.c **** static bool SrvComProto_MavMsg_Decode_ExpAttiude(SrvComProto_MsgObj_TypeDef *obj, const mavlink_mes
 348:Service/Srv_ComProto.c **** {
 349:Service/Srv_ComProto.c ****     mavlink_attitude_t msg_att;
 350:Service/Srv_ComProto.c **** 
 351:Service/Srv_ComProto.c ****     if (obj)
 352:Service/Srv_ComProto.c ****     {
 353:Service/Srv_ComProto.c ****         obj->Att_Cnt ++;
 354:Service/Srv_ComProto.c **** 
 355:Service/Srv_ComProto.c ****         memset(&msg_att, 0, sizeof(mavlink_attitude_t));
 356:Service/Srv_ComProto.c ****         mavlink_msg_attitude_decode(&msg, &msg_att);
 357:Service/Srv_ComProto.c **** 
 358:Service/Srv_ComProto.c ****         if (obj->MavMsg_Att_Callback)
 359:Service/Srv_ComProto.c ****             return obj->MavMsg_Att_Callback(&msg_att, obj->cus_p_att);
 360:Service/Srv_ComProto.c ****     }
 361:Service/Srv_ComProto.c **** 
 362:Service/Srv_ComProto.c ****     return false;
ARM GAS  C:\Users\8bit\AppData\Local\Temp\ccCRhmZR.s 			page 24


 363:Service/Srv_ComProto.c **** }
 364:Service/Srv_ComProto.c **** 
 365:Service/Srv_ComProto.c **** static bool SrvComProto_MavMsg_Decode_ExpGyro(SrvComProto_MsgObj_TypeDef *obj, const mavlink_messag
 366:Service/Srv_ComProto.c **** {
 644              		.loc 1 366 1 is_stmt 1 view -0
 645              		.cfi_startproc
 646              		@ args = 276, pretend = 16, frame = 32
 647              		@ frame_needed = 0, uses_anonymous_args = 0
 648              		.loc 1 366 1 is_stmt 0 view .LVU201
 649 0000 84B0     		sub	sp, sp, #16
 650              	.LCFI7:
 651              		.cfi_def_cfa_offset 16
 652 0002 10B5     		push	{r4, lr}
 653              	.LCFI8:
 654              		.cfi_def_cfa_offset 24
 655              		.cfi_offset 4, -24
 656              		.cfi_offset 14, -20
 657 0004 88B0     		sub	sp, sp, #32
 658              	.LCFI9:
 659              		.cfi_def_cfa_offset 56
 660 0006 0DF12C0C 		add	ip, sp, #44
 661 000a 8CE80E00 		stm	ip, {r1, r2, r3}
 367:Service/Srv_ComProto.c ****     mavlink_raw_imu_t msg_imu;
 662              		.loc 1 367 5 is_stmt 1 view .LVU202
 368:Service/Srv_ComProto.c **** 
 369:Service/Srv_ComProto.c ****     if (obj)
 663              		.loc 1 369 5 view .LVU203
 664              		.loc 1 369 8 is_stmt 0 view .LVU204
 665 000e 00B3     		cbz	r0, .L53
 666 0010 0446     		mov	r4, r0
 370:Service/Srv_ComProto.c ****     {
 371:Service/Srv_ComProto.c ****         obj->Gyr_Cnt ++;
 667              		.loc 1 371 9 is_stmt 1 view .LVU205
 668              		.loc 1 371 12 is_stmt 0 view .LVU206
 669 0012 436B     		ldr	r3, [r0, #52]
 670              		.loc 1 371 22 view .LVU207
 671 0014 0133     		adds	r3, r3, #1
 672 0016 4363     		str	r3, [r0, #52]
 372:Service/Srv_ComProto.c **** 
 373:Service/Srv_ComProto.c ****         memset(&msg_imu, 0, sizeof(mavlink_raw_imu_t));
 673              		.loc 1 373 9 is_stmt 1 view .LVU208
 674 0018 2022     		movs	r2, #32
 675 001a 0021     		movs	r1, #0
 676 001c 6846     		mov	r0, sp
 677 001e FFF7FEFF 		bl	memset
 678              	.LVL38:
 374:Service/Srv_ComProto.c ****         mavlink_msg_raw_imu_decode(&msg, &msg_imu);
 679              		.loc 1 374 9 view .LVU209
 680              	.LBB47:
 681              	.LBI47:
 682              		.file 3 "Service/../MAVLink/common/./mavlink_msg_raw_imu.h"
   1:Service/../MAVLink/common/./mavlink_msg_raw_imu.h **** #pragma once
   2:Service/../MAVLink/common/./mavlink_msg_raw_imu.h **** // MESSAGE RAW_IMU PACKING
   3:Service/../MAVLink/common/./mavlink_msg_raw_imu.h **** 
   4:Service/../MAVLink/common/./mavlink_msg_raw_imu.h **** #define MAVLINK_MSG_ID_RAW_IMU 27
   5:Service/../MAVLink/common/./mavlink_msg_raw_imu.h **** 
   6:Service/../MAVLink/common/./mavlink_msg_raw_imu.h **** 
ARM GAS  C:\Users\8bit\AppData\Local\Temp\ccCRhmZR.s 			page 25


   7:Service/../MAVLink/common/./mavlink_msg_raw_imu.h **** typedef struct __mavlink_raw_imu_t {
   8:Service/../MAVLink/common/./mavlink_msg_raw_imu.h ****  uint64_t time_usec; /*< [us] Timestamp (UNIX Epoch time or time since system boot). The receiving 
   9:Service/../MAVLink/common/./mavlink_msg_raw_imu.h ****  int16_t xacc; /*<  X acceleration (raw)*/
  10:Service/../MAVLink/common/./mavlink_msg_raw_imu.h ****  int16_t yacc; /*<  Y acceleration (raw)*/
  11:Service/../MAVLink/common/./mavlink_msg_raw_imu.h ****  int16_t zacc; /*<  Z acceleration (raw)*/
  12:Service/../MAVLink/common/./mavlink_msg_raw_imu.h ****  int16_t xgyro; /*<  Angular speed around X axis (raw)*/
  13:Service/../MAVLink/common/./mavlink_msg_raw_imu.h ****  int16_t ygyro; /*<  Angular speed around Y axis (raw)*/
  14:Service/../MAVLink/common/./mavlink_msg_raw_imu.h ****  int16_t zgyro; /*<  Angular speed around Z axis (raw)*/
  15:Service/../MAVLink/common/./mavlink_msg_raw_imu.h ****  int16_t xmag; /*<  X Magnetic field (raw)*/
  16:Service/../MAVLink/common/./mavlink_msg_raw_imu.h ****  int16_t ymag; /*<  Y Magnetic field (raw)*/
  17:Service/../MAVLink/common/./mavlink_msg_raw_imu.h ****  int16_t zmag; /*<  Z Magnetic field (raw)*/
  18:Service/../MAVLink/common/./mavlink_msg_raw_imu.h **** } mavlink_raw_imu_t;
  19:Service/../MAVLink/common/./mavlink_msg_raw_imu.h **** 
  20:Service/../MAVLink/common/./mavlink_msg_raw_imu.h **** #define MAVLINK_MSG_ID_RAW_IMU_LEN 26
  21:Service/../MAVLink/common/./mavlink_msg_raw_imu.h **** #define MAVLINK_MSG_ID_RAW_IMU_MIN_LEN 26
  22:Service/../MAVLink/common/./mavlink_msg_raw_imu.h **** #define MAVLINK_MSG_ID_27_LEN 26
  23:Service/../MAVLink/common/./mavlink_msg_raw_imu.h **** #define MAVLINK_MSG_ID_27_MIN_LEN 26
  24:Service/../MAVLink/common/./mavlink_msg_raw_imu.h **** 
  25:Service/../MAVLink/common/./mavlink_msg_raw_imu.h **** #define MAVLINK_MSG_ID_RAW_IMU_CRC 144
  26:Service/../MAVLink/common/./mavlink_msg_raw_imu.h **** #define MAVLINK_MSG_ID_27_CRC 144
  27:Service/../MAVLink/common/./mavlink_msg_raw_imu.h **** 
  28:Service/../MAVLink/common/./mavlink_msg_raw_imu.h **** 
  29:Service/../MAVLink/common/./mavlink_msg_raw_imu.h **** 
  30:Service/../MAVLink/common/./mavlink_msg_raw_imu.h **** #if MAVLINK_COMMAND_24BIT
  31:Service/../MAVLink/common/./mavlink_msg_raw_imu.h **** #define MAVLINK_MESSAGE_INFO_RAW_IMU { \
  32:Service/../MAVLink/common/./mavlink_msg_raw_imu.h ****     27, \
  33:Service/../MAVLink/common/./mavlink_msg_raw_imu.h ****     "RAW_IMU", \
  34:Service/../MAVLink/common/./mavlink_msg_raw_imu.h ****     10, \
  35:Service/../MAVLink/common/./mavlink_msg_raw_imu.h ****     {  { "time_usec", NULL, MAVLINK_TYPE_UINT64_T, 0, 0, offsetof(mavlink_raw_imu_t, time_usec) }, 
  36:Service/../MAVLink/common/./mavlink_msg_raw_imu.h ****          { "xacc", NULL, MAVLINK_TYPE_INT16_T, 0, 8, offsetof(mavlink_raw_imu_t, xacc) }, \
  37:Service/../MAVLink/common/./mavlink_msg_raw_imu.h ****          { "yacc", NULL, MAVLINK_TYPE_INT16_T, 0, 10, offsetof(mavlink_raw_imu_t, yacc) }, \
  38:Service/../MAVLink/common/./mavlink_msg_raw_imu.h ****          { "zacc", NULL, MAVLINK_TYPE_INT16_T, 0, 12, offsetof(mavlink_raw_imu_t, zacc) }, \
  39:Service/../MAVLink/common/./mavlink_msg_raw_imu.h ****          { "xgyro", NULL, MAVLINK_TYPE_INT16_T, 0, 14, offsetof(mavlink_raw_imu_t, xgyro) }, \
  40:Service/../MAVLink/common/./mavlink_msg_raw_imu.h ****          { "ygyro", NULL, MAVLINK_TYPE_INT16_T, 0, 16, offsetof(mavlink_raw_imu_t, ygyro) }, \
  41:Service/../MAVLink/common/./mavlink_msg_raw_imu.h ****          { "zgyro", NULL, MAVLINK_TYPE_INT16_T, 0, 18, offsetof(mavlink_raw_imu_t, zgyro) }, \
  42:Service/../MAVLink/common/./mavlink_msg_raw_imu.h ****          { "xmag", NULL, MAVLINK_TYPE_INT16_T, 0, 20, offsetof(mavlink_raw_imu_t, xmag) }, \
  43:Service/../MAVLink/common/./mavlink_msg_raw_imu.h ****          { "ymag", NULL, MAVLINK_TYPE_INT16_T, 0, 22, offsetof(mavlink_raw_imu_t, ymag) }, \
  44:Service/../MAVLink/common/./mavlink_msg_raw_imu.h ****          { "zmag", NULL, MAVLINK_TYPE_INT16_T, 0, 24, offsetof(mavlink_raw_imu_t, zmag) }, \
  45:Service/../MAVLink/common/./mavlink_msg_raw_imu.h ****          } \
  46:Service/../MAVLink/common/./mavlink_msg_raw_imu.h **** }
  47:Service/../MAVLink/common/./mavlink_msg_raw_imu.h **** #else
  48:Service/../MAVLink/common/./mavlink_msg_raw_imu.h **** #define MAVLINK_MESSAGE_INFO_RAW_IMU { \
  49:Service/../MAVLink/common/./mavlink_msg_raw_imu.h ****     "RAW_IMU", \
  50:Service/../MAVLink/common/./mavlink_msg_raw_imu.h ****     10, \
  51:Service/../MAVLink/common/./mavlink_msg_raw_imu.h ****     {  { "time_usec", NULL, MAVLINK_TYPE_UINT64_T, 0, 0, offsetof(mavlink_raw_imu_t, time_usec) }, 
  52:Service/../MAVLink/common/./mavlink_msg_raw_imu.h ****          { "xacc", NULL, MAVLINK_TYPE_INT16_T, 0, 8, offsetof(mavlink_raw_imu_t, xacc) }, \
  53:Service/../MAVLink/common/./mavlink_msg_raw_imu.h ****          { "yacc", NULL, MAVLINK_TYPE_INT16_T, 0, 10, offsetof(mavlink_raw_imu_t, yacc) }, \
  54:Service/../MAVLink/common/./mavlink_msg_raw_imu.h ****          { "zacc", NULL, MAVLINK_TYPE_INT16_T, 0, 12, offsetof(mavlink_raw_imu_t, zacc) }, \
  55:Service/../MAVLink/common/./mavlink_msg_raw_imu.h ****          { "xgyro", NULL, MAVLINK_TYPE_INT16_T, 0, 14, offsetof(mavlink_raw_imu_t, xgyro) }, \
  56:Service/../MAVLink/common/./mavlink_msg_raw_imu.h ****          { "ygyro", NULL, MAVLINK_TYPE_INT16_T, 0, 16, offsetof(mavlink_raw_imu_t, ygyro) }, \
  57:Service/../MAVLink/common/./mavlink_msg_raw_imu.h ****          { "zgyro", NULL, MAVLINK_TYPE_INT16_T, 0, 18, offsetof(mavlink_raw_imu_t, zgyro) }, \
  58:Service/../MAVLink/common/./mavlink_msg_raw_imu.h ****          { "xmag", NULL, MAVLINK_TYPE_INT16_T, 0, 20, offsetof(mavlink_raw_imu_t, xmag) }, \
  59:Service/../MAVLink/common/./mavlink_msg_raw_imu.h ****          { "ymag", NULL, MAVLINK_TYPE_INT16_T, 0, 22, offsetof(mavlink_raw_imu_t, ymag) }, \
  60:Service/../MAVLink/common/./mavlink_msg_raw_imu.h ****          { "zmag", NULL, MAVLINK_TYPE_INT16_T, 0, 24, offsetof(mavlink_raw_imu_t, zmag) }, \
  61:Service/../MAVLink/common/./mavlink_msg_raw_imu.h ****          } \
  62:Service/../MAVLink/common/./mavlink_msg_raw_imu.h **** }
  63:Service/../MAVLink/common/./mavlink_msg_raw_imu.h **** #endif
ARM GAS  C:\Users\8bit\AppData\Local\Temp\ccCRhmZR.s 			page 26


  64:Service/../MAVLink/common/./mavlink_msg_raw_imu.h **** 
  65:Service/../MAVLink/common/./mavlink_msg_raw_imu.h **** /**
  66:Service/../MAVLink/common/./mavlink_msg_raw_imu.h ****  * @brief Pack a raw_imu message
  67:Service/../MAVLink/common/./mavlink_msg_raw_imu.h ****  * @param system_id ID of this system
  68:Service/../MAVLink/common/./mavlink_msg_raw_imu.h ****  * @param component_id ID of this component (e.g. 200 for IMU)
  69:Service/../MAVLink/common/./mavlink_msg_raw_imu.h ****  * @param msg The MAVLink message to compress the data into
  70:Service/../MAVLink/common/./mavlink_msg_raw_imu.h ****  *
  71:Service/../MAVLink/common/./mavlink_msg_raw_imu.h ****  * @param time_usec [us] Timestamp (UNIX Epoch time or time since system boot). The receiving end c
  72:Service/../MAVLink/common/./mavlink_msg_raw_imu.h ****  * @param xacc  X acceleration (raw)
  73:Service/../MAVLink/common/./mavlink_msg_raw_imu.h ****  * @param yacc  Y acceleration (raw)
  74:Service/../MAVLink/common/./mavlink_msg_raw_imu.h ****  * @param zacc  Z acceleration (raw)
  75:Service/../MAVLink/common/./mavlink_msg_raw_imu.h ****  * @param xgyro  Angular speed around X axis (raw)
  76:Service/../MAVLink/common/./mavlink_msg_raw_imu.h ****  * @param ygyro  Angular speed around Y axis (raw)
  77:Service/../MAVLink/common/./mavlink_msg_raw_imu.h ****  * @param zgyro  Angular speed around Z axis (raw)
  78:Service/../MAVLink/common/./mavlink_msg_raw_imu.h ****  * @param xmag  X Magnetic field (raw)
  79:Service/../MAVLink/common/./mavlink_msg_raw_imu.h ****  * @param ymag  Y Magnetic field (raw)
  80:Service/../MAVLink/common/./mavlink_msg_raw_imu.h ****  * @param zmag  Z Magnetic field (raw)
  81:Service/../MAVLink/common/./mavlink_msg_raw_imu.h ****  * @return length of the message in bytes (excluding serial stream start sign)
  82:Service/../MAVLink/common/./mavlink_msg_raw_imu.h ****  */
  83:Service/../MAVLink/common/./mavlink_msg_raw_imu.h **** static inline uint16_t mavlink_msg_raw_imu_pack(uint8_t system_id, uint8_t component_id, mavlink_me
  84:Service/../MAVLink/common/./mavlink_msg_raw_imu.h ****                                uint64_t time_usec, int16_t xacc, int16_t yacc, int16_t zacc, int16_
  85:Service/../MAVLink/common/./mavlink_msg_raw_imu.h **** {
  86:Service/../MAVLink/common/./mavlink_msg_raw_imu.h **** #if MAVLINK_NEED_BYTE_SWAP || !MAVLINK_ALIGNED_FIELDS
  87:Service/../MAVLink/common/./mavlink_msg_raw_imu.h ****     char buf[MAVLINK_MSG_ID_RAW_IMU_LEN];
  88:Service/../MAVLink/common/./mavlink_msg_raw_imu.h ****     _mav_put_uint64_t(buf, 0, time_usec);
  89:Service/../MAVLink/common/./mavlink_msg_raw_imu.h ****     _mav_put_int16_t(buf, 8, xacc);
  90:Service/../MAVLink/common/./mavlink_msg_raw_imu.h ****     _mav_put_int16_t(buf, 10, yacc);
  91:Service/../MAVLink/common/./mavlink_msg_raw_imu.h ****     _mav_put_int16_t(buf, 12, zacc);
  92:Service/../MAVLink/common/./mavlink_msg_raw_imu.h ****     _mav_put_int16_t(buf, 14, xgyro);
  93:Service/../MAVLink/common/./mavlink_msg_raw_imu.h ****     _mav_put_int16_t(buf, 16, ygyro);
  94:Service/../MAVLink/common/./mavlink_msg_raw_imu.h ****     _mav_put_int16_t(buf, 18, zgyro);
  95:Service/../MAVLink/common/./mavlink_msg_raw_imu.h ****     _mav_put_int16_t(buf, 20, xmag);
  96:Service/../MAVLink/common/./mavlink_msg_raw_imu.h ****     _mav_put_int16_t(buf, 22, ymag);
  97:Service/../MAVLink/common/./mavlink_msg_raw_imu.h ****     _mav_put_int16_t(buf, 24, zmag);
  98:Service/../MAVLink/common/./mavlink_msg_raw_imu.h **** 
  99:Service/../MAVLink/common/./mavlink_msg_raw_imu.h ****         memcpy(_MAV_PAYLOAD_NON_CONST(msg), buf, MAVLINK_MSG_ID_RAW_IMU_LEN);
 100:Service/../MAVLink/common/./mavlink_msg_raw_imu.h **** #else
 101:Service/../MAVLink/common/./mavlink_msg_raw_imu.h ****     mavlink_raw_imu_t packet;
 102:Service/../MAVLink/common/./mavlink_msg_raw_imu.h ****     packet.time_usec = time_usec;
 103:Service/../MAVLink/common/./mavlink_msg_raw_imu.h ****     packet.xacc = xacc;
 104:Service/../MAVLink/common/./mavlink_msg_raw_imu.h ****     packet.yacc = yacc;
 105:Service/../MAVLink/common/./mavlink_msg_raw_imu.h ****     packet.zacc = zacc;
 106:Service/../MAVLink/common/./mavlink_msg_raw_imu.h ****     packet.xgyro = xgyro;
 107:Service/../MAVLink/common/./mavlink_msg_raw_imu.h ****     packet.ygyro = ygyro;
 108:Service/../MAVLink/common/./mavlink_msg_raw_imu.h ****     packet.zgyro = zgyro;
 109:Service/../MAVLink/common/./mavlink_msg_raw_imu.h ****     packet.xmag = xmag;
 110:Service/../MAVLink/common/./mavlink_msg_raw_imu.h ****     packet.ymag = ymag;
 111:Service/../MAVLink/common/./mavlink_msg_raw_imu.h ****     packet.zmag = zmag;
 112:Service/../MAVLink/common/./mavlink_msg_raw_imu.h **** 
 113:Service/../MAVLink/common/./mavlink_msg_raw_imu.h ****         memcpy(_MAV_PAYLOAD_NON_CONST(msg), &packet, MAVLINK_MSG_ID_RAW_IMU_LEN);
 114:Service/../MAVLink/common/./mavlink_msg_raw_imu.h **** #endif
 115:Service/../MAVLink/common/./mavlink_msg_raw_imu.h **** 
 116:Service/../MAVLink/common/./mavlink_msg_raw_imu.h ****     msg->msgid = MAVLINK_MSG_ID_RAW_IMU;
 117:Service/../MAVLink/common/./mavlink_msg_raw_imu.h ****     return mavlink_finalize_message(msg, system_id, component_id, MAVLINK_MSG_ID_RAW_IMU_MIN_LEN, M
 118:Service/../MAVLink/common/./mavlink_msg_raw_imu.h **** }
 119:Service/../MAVLink/common/./mavlink_msg_raw_imu.h **** 
 120:Service/../MAVLink/common/./mavlink_msg_raw_imu.h **** /**
ARM GAS  C:\Users\8bit\AppData\Local\Temp\ccCRhmZR.s 			page 27


 121:Service/../MAVLink/common/./mavlink_msg_raw_imu.h ****  * @brief Pack a raw_imu message on a channel
 122:Service/../MAVLink/common/./mavlink_msg_raw_imu.h ****  * @param system_id ID of this system
 123:Service/../MAVLink/common/./mavlink_msg_raw_imu.h ****  * @param component_id ID of this component (e.g. 200 for IMU)
 124:Service/../MAVLink/common/./mavlink_msg_raw_imu.h ****  * @param chan The MAVLink channel this message will be sent over
 125:Service/../MAVLink/common/./mavlink_msg_raw_imu.h ****  * @param msg The MAVLink message to compress the data into
 126:Service/../MAVLink/common/./mavlink_msg_raw_imu.h ****  * @param time_usec [us] Timestamp (UNIX Epoch time or time since system boot). The receiving end c
 127:Service/../MAVLink/common/./mavlink_msg_raw_imu.h ****  * @param xacc  X acceleration (raw)
 128:Service/../MAVLink/common/./mavlink_msg_raw_imu.h ****  * @param yacc  Y acceleration (raw)
 129:Service/../MAVLink/common/./mavlink_msg_raw_imu.h ****  * @param zacc  Z acceleration (raw)
 130:Service/../MAVLink/common/./mavlink_msg_raw_imu.h ****  * @param xgyro  Angular speed around X axis (raw)
 131:Service/../MAVLink/common/./mavlink_msg_raw_imu.h ****  * @param ygyro  Angular speed around Y axis (raw)
 132:Service/../MAVLink/common/./mavlink_msg_raw_imu.h ****  * @param zgyro  Angular speed around Z axis (raw)
 133:Service/../MAVLink/common/./mavlink_msg_raw_imu.h ****  * @param xmag  X Magnetic field (raw)
 134:Service/../MAVLink/common/./mavlink_msg_raw_imu.h ****  * @param ymag  Y Magnetic field (raw)
 135:Service/../MAVLink/common/./mavlink_msg_raw_imu.h ****  * @param zmag  Z Magnetic field (raw)
 136:Service/../MAVLink/common/./mavlink_msg_raw_imu.h ****  * @return length of the message in bytes (excluding serial stream start sign)
 137:Service/../MAVLink/common/./mavlink_msg_raw_imu.h ****  */
 138:Service/../MAVLink/common/./mavlink_msg_raw_imu.h **** static inline uint16_t mavlink_msg_raw_imu_pack_chan(uint8_t system_id, uint8_t component_id, uint8
 139:Service/../MAVLink/common/./mavlink_msg_raw_imu.h ****                                mavlink_message_t* msg,
 140:Service/../MAVLink/common/./mavlink_msg_raw_imu.h ****                                    uint64_t time_usec,int16_t xacc,int16_t yacc,int16_t zacc,int16_
 141:Service/../MAVLink/common/./mavlink_msg_raw_imu.h **** {
 142:Service/../MAVLink/common/./mavlink_msg_raw_imu.h **** #if MAVLINK_NEED_BYTE_SWAP || !MAVLINK_ALIGNED_FIELDS
 143:Service/../MAVLink/common/./mavlink_msg_raw_imu.h ****     char buf[MAVLINK_MSG_ID_RAW_IMU_LEN];
 144:Service/../MAVLink/common/./mavlink_msg_raw_imu.h ****     _mav_put_uint64_t(buf, 0, time_usec);
 145:Service/../MAVLink/common/./mavlink_msg_raw_imu.h ****     _mav_put_int16_t(buf, 8, xacc);
 146:Service/../MAVLink/common/./mavlink_msg_raw_imu.h ****     _mav_put_int16_t(buf, 10, yacc);
 147:Service/../MAVLink/common/./mavlink_msg_raw_imu.h ****     _mav_put_int16_t(buf, 12, zacc);
 148:Service/../MAVLink/common/./mavlink_msg_raw_imu.h ****     _mav_put_int16_t(buf, 14, xgyro);
 149:Service/../MAVLink/common/./mavlink_msg_raw_imu.h ****     _mav_put_int16_t(buf, 16, ygyro);
 150:Service/../MAVLink/common/./mavlink_msg_raw_imu.h ****     _mav_put_int16_t(buf, 18, zgyro);
 151:Service/../MAVLink/common/./mavlink_msg_raw_imu.h ****     _mav_put_int16_t(buf, 20, xmag);
 152:Service/../MAVLink/common/./mavlink_msg_raw_imu.h ****     _mav_put_int16_t(buf, 22, ymag);
 153:Service/../MAVLink/common/./mavlink_msg_raw_imu.h ****     _mav_put_int16_t(buf, 24, zmag);
 154:Service/../MAVLink/common/./mavlink_msg_raw_imu.h **** 
 155:Service/../MAVLink/common/./mavlink_msg_raw_imu.h ****         memcpy(_MAV_PAYLOAD_NON_CONST(msg), buf, MAVLINK_MSG_ID_RAW_IMU_LEN);
 156:Service/../MAVLink/common/./mavlink_msg_raw_imu.h **** #else
 157:Service/../MAVLink/common/./mavlink_msg_raw_imu.h ****     mavlink_raw_imu_t packet;
 158:Service/../MAVLink/common/./mavlink_msg_raw_imu.h ****     packet.time_usec = time_usec;
 159:Service/../MAVLink/common/./mavlink_msg_raw_imu.h ****     packet.xacc = xacc;
 160:Service/../MAVLink/common/./mavlink_msg_raw_imu.h ****     packet.yacc = yacc;
 161:Service/../MAVLink/common/./mavlink_msg_raw_imu.h ****     packet.zacc = zacc;
 162:Service/../MAVLink/common/./mavlink_msg_raw_imu.h ****     packet.xgyro = xgyro;
 163:Service/../MAVLink/common/./mavlink_msg_raw_imu.h ****     packet.ygyro = ygyro;
 164:Service/../MAVLink/common/./mavlink_msg_raw_imu.h ****     packet.zgyro = zgyro;
 165:Service/../MAVLink/common/./mavlink_msg_raw_imu.h ****     packet.xmag = xmag;
 166:Service/../MAVLink/common/./mavlink_msg_raw_imu.h ****     packet.ymag = ymag;
 167:Service/../MAVLink/common/./mavlink_msg_raw_imu.h ****     packet.zmag = zmag;
 168:Service/../MAVLink/common/./mavlink_msg_raw_imu.h **** 
 169:Service/../MAVLink/common/./mavlink_msg_raw_imu.h ****         memcpy(_MAV_PAYLOAD_NON_CONST(msg), &packet, MAVLINK_MSG_ID_RAW_IMU_LEN);
 170:Service/../MAVLink/common/./mavlink_msg_raw_imu.h **** #endif
 171:Service/../MAVLink/common/./mavlink_msg_raw_imu.h **** 
 172:Service/../MAVLink/common/./mavlink_msg_raw_imu.h ****     msg->msgid = MAVLINK_MSG_ID_RAW_IMU;
 173:Service/../MAVLink/common/./mavlink_msg_raw_imu.h ****     return mavlink_finalize_message_chan(msg, system_id, component_id, chan, MAVLINK_MSG_ID_RAW_IMU
 174:Service/../MAVLink/common/./mavlink_msg_raw_imu.h **** }
 175:Service/../MAVLink/common/./mavlink_msg_raw_imu.h **** 
 176:Service/../MAVLink/common/./mavlink_msg_raw_imu.h **** /**
 177:Service/../MAVLink/common/./mavlink_msg_raw_imu.h ****  * @brief Encode a raw_imu struct
ARM GAS  C:\Users\8bit\AppData\Local\Temp\ccCRhmZR.s 			page 28


 178:Service/../MAVLink/common/./mavlink_msg_raw_imu.h ****  *
 179:Service/../MAVLink/common/./mavlink_msg_raw_imu.h ****  * @param system_id ID of this system
 180:Service/../MAVLink/common/./mavlink_msg_raw_imu.h ****  * @param component_id ID of this component (e.g. 200 for IMU)
 181:Service/../MAVLink/common/./mavlink_msg_raw_imu.h ****  * @param msg The MAVLink message to compress the data into
 182:Service/../MAVLink/common/./mavlink_msg_raw_imu.h ****  * @param raw_imu C-struct to read the message contents from
 183:Service/../MAVLink/common/./mavlink_msg_raw_imu.h ****  */
 184:Service/../MAVLink/common/./mavlink_msg_raw_imu.h **** static inline uint16_t mavlink_msg_raw_imu_encode(uint8_t system_id, uint8_t component_id, mavlink_
 185:Service/../MAVLink/common/./mavlink_msg_raw_imu.h **** {
 186:Service/../MAVLink/common/./mavlink_msg_raw_imu.h ****     return mavlink_msg_raw_imu_pack(system_id, component_id, msg, raw_imu->time_usec, raw_imu->xacc
 187:Service/../MAVLink/common/./mavlink_msg_raw_imu.h **** }
 188:Service/../MAVLink/common/./mavlink_msg_raw_imu.h **** 
 189:Service/../MAVLink/common/./mavlink_msg_raw_imu.h **** /**
 190:Service/../MAVLink/common/./mavlink_msg_raw_imu.h ****  * @brief Encode a raw_imu struct on a channel
 191:Service/../MAVLink/common/./mavlink_msg_raw_imu.h ****  *
 192:Service/../MAVLink/common/./mavlink_msg_raw_imu.h ****  * @param system_id ID of this system
 193:Service/../MAVLink/common/./mavlink_msg_raw_imu.h ****  * @param component_id ID of this component (e.g. 200 for IMU)
 194:Service/../MAVLink/common/./mavlink_msg_raw_imu.h ****  * @param chan The MAVLink channel this message will be sent over
 195:Service/../MAVLink/common/./mavlink_msg_raw_imu.h ****  * @param msg The MAVLink message to compress the data into
 196:Service/../MAVLink/common/./mavlink_msg_raw_imu.h ****  * @param raw_imu C-struct to read the message contents from
 197:Service/../MAVLink/common/./mavlink_msg_raw_imu.h ****  */
 198:Service/../MAVLink/common/./mavlink_msg_raw_imu.h **** static inline uint16_t mavlink_msg_raw_imu_encode_chan(uint8_t system_id, uint8_t component_id, uin
 199:Service/../MAVLink/common/./mavlink_msg_raw_imu.h **** {
 200:Service/../MAVLink/common/./mavlink_msg_raw_imu.h ****     return mavlink_msg_raw_imu_pack_chan(system_id, component_id, chan, msg, raw_imu->time_usec, ra
 201:Service/../MAVLink/common/./mavlink_msg_raw_imu.h **** }
 202:Service/../MAVLink/common/./mavlink_msg_raw_imu.h **** 
 203:Service/../MAVLink/common/./mavlink_msg_raw_imu.h **** /**
 204:Service/../MAVLink/common/./mavlink_msg_raw_imu.h ****  * @brief Send a raw_imu message
 205:Service/../MAVLink/common/./mavlink_msg_raw_imu.h ****  * @param chan MAVLink channel to send the message
 206:Service/../MAVLink/common/./mavlink_msg_raw_imu.h ****  *
 207:Service/../MAVLink/common/./mavlink_msg_raw_imu.h ****  * @param time_usec [us] Timestamp (UNIX Epoch time or time since system boot). The receiving end c
 208:Service/../MAVLink/common/./mavlink_msg_raw_imu.h ****  * @param xacc  X acceleration (raw)
 209:Service/../MAVLink/common/./mavlink_msg_raw_imu.h ****  * @param yacc  Y acceleration (raw)
 210:Service/../MAVLink/common/./mavlink_msg_raw_imu.h ****  * @param zacc  Z acceleration (raw)
 211:Service/../MAVLink/common/./mavlink_msg_raw_imu.h ****  * @param xgyro  Angular speed around X axis (raw)
 212:Service/../MAVLink/common/./mavlink_msg_raw_imu.h ****  * @param ygyro  Angular speed around Y axis (raw)
 213:Service/../MAVLink/common/./mavlink_msg_raw_imu.h ****  * @param zgyro  Angular speed around Z axis (raw)
 214:Service/../MAVLink/common/./mavlink_msg_raw_imu.h ****  * @param xmag  X Magnetic field (raw)
 215:Service/../MAVLink/common/./mavlink_msg_raw_imu.h ****  * @param ymag  Y Magnetic field (raw)
 216:Service/../MAVLink/common/./mavlink_msg_raw_imu.h ****  * @param zmag  Z Magnetic field (raw)
 217:Service/../MAVLink/common/./mavlink_msg_raw_imu.h ****  */
 218:Service/../MAVLink/common/./mavlink_msg_raw_imu.h **** #ifdef MAVLINK_USE_CONVENIENCE_FUNCTIONS
 219:Service/../MAVLink/common/./mavlink_msg_raw_imu.h **** 
 220:Service/../MAVLink/common/./mavlink_msg_raw_imu.h **** static inline void mavlink_msg_raw_imu_send(mavlink_channel_t chan, uint64_t time_usec, int16_t xac
 221:Service/../MAVLink/common/./mavlink_msg_raw_imu.h **** {
 222:Service/../MAVLink/common/./mavlink_msg_raw_imu.h **** #if MAVLINK_NEED_BYTE_SWAP || !MAVLINK_ALIGNED_FIELDS
 223:Service/../MAVLink/common/./mavlink_msg_raw_imu.h ****     char buf[MAVLINK_MSG_ID_RAW_IMU_LEN];
 224:Service/../MAVLink/common/./mavlink_msg_raw_imu.h ****     _mav_put_uint64_t(buf, 0, time_usec);
 225:Service/../MAVLink/common/./mavlink_msg_raw_imu.h ****     _mav_put_int16_t(buf, 8, xacc);
 226:Service/../MAVLink/common/./mavlink_msg_raw_imu.h ****     _mav_put_int16_t(buf, 10, yacc);
 227:Service/../MAVLink/common/./mavlink_msg_raw_imu.h ****     _mav_put_int16_t(buf, 12, zacc);
 228:Service/../MAVLink/common/./mavlink_msg_raw_imu.h ****     _mav_put_int16_t(buf, 14, xgyro);
 229:Service/../MAVLink/common/./mavlink_msg_raw_imu.h ****     _mav_put_int16_t(buf, 16, ygyro);
 230:Service/../MAVLink/common/./mavlink_msg_raw_imu.h ****     _mav_put_int16_t(buf, 18, zgyro);
 231:Service/../MAVLink/common/./mavlink_msg_raw_imu.h ****     _mav_put_int16_t(buf, 20, xmag);
 232:Service/../MAVLink/common/./mavlink_msg_raw_imu.h ****     _mav_put_int16_t(buf, 22, ymag);
 233:Service/../MAVLink/common/./mavlink_msg_raw_imu.h ****     _mav_put_int16_t(buf, 24, zmag);
 234:Service/../MAVLink/common/./mavlink_msg_raw_imu.h **** 
ARM GAS  C:\Users\8bit\AppData\Local\Temp\ccCRhmZR.s 			page 29


 235:Service/../MAVLink/common/./mavlink_msg_raw_imu.h ****     _mav_finalize_message_chan_send(chan, MAVLINK_MSG_ID_RAW_IMU, buf, MAVLINK_MSG_ID_RAW_IMU_MIN_L
 236:Service/../MAVLink/common/./mavlink_msg_raw_imu.h **** #else
 237:Service/../MAVLink/common/./mavlink_msg_raw_imu.h ****     mavlink_raw_imu_t packet;
 238:Service/../MAVLink/common/./mavlink_msg_raw_imu.h ****     packet.time_usec = time_usec;
 239:Service/../MAVLink/common/./mavlink_msg_raw_imu.h ****     packet.xacc = xacc;
 240:Service/../MAVLink/common/./mavlink_msg_raw_imu.h ****     packet.yacc = yacc;
 241:Service/../MAVLink/common/./mavlink_msg_raw_imu.h ****     packet.zacc = zacc;
 242:Service/../MAVLink/common/./mavlink_msg_raw_imu.h ****     packet.xgyro = xgyro;
 243:Service/../MAVLink/common/./mavlink_msg_raw_imu.h ****     packet.ygyro = ygyro;
 244:Service/../MAVLink/common/./mavlink_msg_raw_imu.h ****     packet.zgyro = zgyro;
 245:Service/../MAVLink/common/./mavlink_msg_raw_imu.h ****     packet.xmag = xmag;
 246:Service/../MAVLink/common/./mavlink_msg_raw_imu.h ****     packet.ymag = ymag;
 247:Service/../MAVLink/common/./mavlink_msg_raw_imu.h ****     packet.zmag = zmag;
 248:Service/../MAVLink/common/./mavlink_msg_raw_imu.h **** 
 249:Service/../MAVLink/common/./mavlink_msg_raw_imu.h ****     _mav_finalize_message_chan_send(chan, MAVLINK_MSG_ID_RAW_IMU, (const char *)&packet, MAVLINK_MS
 250:Service/../MAVLink/common/./mavlink_msg_raw_imu.h **** #endif
 251:Service/../MAVLink/common/./mavlink_msg_raw_imu.h **** }
 252:Service/../MAVLink/common/./mavlink_msg_raw_imu.h **** 
 253:Service/../MAVLink/common/./mavlink_msg_raw_imu.h **** /**
 254:Service/../MAVLink/common/./mavlink_msg_raw_imu.h ****  * @brief Send a raw_imu message
 255:Service/../MAVLink/common/./mavlink_msg_raw_imu.h ****  * @param chan MAVLink channel to send the message
 256:Service/../MAVLink/common/./mavlink_msg_raw_imu.h ****  * @param struct The MAVLink struct to serialize
 257:Service/../MAVLink/common/./mavlink_msg_raw_imu.h ****  */
 258:Service/../MAVLink/common/./mavlink_msg_raw_imu.h **** static inline void mavlink_msg_raw_imu_send_struct(mavlink_channel_t chan, const mavlink_raw_imu_t*
 259:Service/../MAVLink/common/./mavlink_msg_raw_imu.h **** {
 260:Service/../MAVLink/common/./mavlink_msg_raw_imu.h **** #if MAVLINK_NEED_BYTE_SWAP || !MAVLINK_ALIGNED_FIELDS
 261:Service/../MAVLink/common/./mavlink_msg_raw_imu.h ****     mavlink_msg_raw_imu_send(chan, raw_imu->time_usec, raw_imu->xacc, raw_imu->yacc, raw_imu->zacc,
 262:Service/../MAVLink/common/./mavlink_msg_raw_imu.h **** #else
 263:Service/../MAVLink/common/./mavlink_msg_raw_imu.h ****     _mav_finalize_message_chan_send(chan, MAVLINK_MSG_ID_RAW_IMU, (const char *)raw_imu, MAVLINK_MS
 264:Service/../MAVLink/common/./mavlink_msg_raw_imu.h **** #endif
 265:Service/../MAVLink/common/./mavlink_msg_raw_imu.h **** }
 266:Service/../MAVLink/common/./mavlink_msg_raw_imu.h **** 
 267:Service/../MAVLink/common/./mavlink_msg_raw_imu.h **** #if MAVLINK_MSG_ID_RAW_IMU_LEN <= MAVLINK_MAX_PAYLOAD_LEN
 268:Service/../MAVLink/common/./mavlink_msg_raw_imu.h **** /*
 269:Service/../MAVLink/common/./mavlink_msg_raw_imu.h ****   This variant of _send() can be used to save stack space by re-using
 270:Service/../MAVLink/common/./mavlink_msg_raw_imu.h ****   memory from the receive buffer.  The caller provides a
 271:Service/../MAVLink/common/./mavlink_msg_raw_imu.h ****   mavlink_message_t which is the size of a full mavlink message. This
 272:Service/../MAVLink/common/./mavlink_msg_raw_imu.h ****   is usually the receive buffer for the channel, and allows a reply to an
 273:Service/../MAVLink/common/./mavlink_msg_raw_imu.h ****   incoming message with minimum stack space usage.
 274:Service/../MAVLink/common/./mavlink_msg_raw_imu.h ****  */
 275:Service/../MAVLink/common/./mavlink_msg_raw_imu.h **** static inline void mavlink_msg_raw_imu_send_buf(mavlink_message_t *msgbuf, mavlink_channel_t chan, 
 276:Service/../MAVLink/common/./mavlink_msg_raw_imu.h **** {
 277:Service/../MAVLink/common/./mavlink_msg_raw_imu.h **** #if MAVLINK_NEED_BYTE_SWAP || !MAVLINK_ALIGNED_FIELDS
 278:Service/../MAVLink/common/./mavlink_msg_raw_imu.h ****     char *buf = (char *)msgbuf;
 279:Service/../MAVLink/common/./mavlink_msg_raw_imu.h ****     _mav_put_uint64_t(buf, 0, time_usec);
 280:Service/../MAVLink/common/./mavlink_msg_raw_imu.h ****     _mav_put_int16_t(buf, 8, xacc);
 281:Service/../MAVLink/common/./mavlink_msg_raw_imu.h ****     _mav_put_int16_t(buf, 10, yacc);
 282:Service/../MAVLink/common/./mavlink_msg_raw_imu.h ****     _mav_put_int16_t(buf, 12, zacc);
 283:Service/../MAVLink/common/./mavlink_msg_raw_imu.h ****     _mav_put_int16_t(buf, 14, xgyro);
 284:Service/../MAVLink/common/./mavlink_msg_raw_imu.h ****     _mav_put_int16_t(buf, 16, ygyro);
 285:Service/../MAVLink/common/./mavlink_msg_raw_imu.h ****     _mav_put_int16_t(buf, 18, zgyro);
 286:Service/../MAVLink/common/./mavlink_msg_raw_imu.h ****     _mav_put_int16_t(buf, 20, xmag);
 287:Service/../MAVLink/common/./mavlink_msg_raw_imu.h ****     _mav_put_int16_t(buf, 22, ymag);
 288:Service/../MAVLink/common/./mavlink_msg_raw_imu.h ****     _mav_put_int16_t(buf, 24, zmag);
 289:Service/../MAVLink/common/./mavlink_msg_raw_imu.h **** 
 290:Service/../MAVLink/common/./mavlink_msg_raw_imu.h ****     _mav_finalize_message_chan_send(chan, MAVLINK_MSG_ID_RAW_IMU, buf, MAVLINK_MSG_ID_RAW_IMU_MIN_L
 291:Service/../MAVLink/common/./mavlink_msg_raw_imu.h **** #else
ARM GAS  C:\Users\8bit\AppData\Local\Temp\ccCRhmZR.s 			page 30


 292:Service/../MAVLink/common/./mavlink_msg_raw_imu.h ****     mavlink_raw_imu_t *packet = (mavlink_raw_imu_t *)msgbuf;
 293:Service/../MAVLink/common/./mavlink_msg_raw_imu.h ****     packet->time_usec = time_usec;
 294:Service/../MAVLink/common/./mavlink_msg_raw_imu.h ****     packet->xacc = xacc;
 295:Service/../MAVLink/common/./mavlink_msg_raw_imu.h ****     packet->yacc = yacc;
 296:Service/../MAVLink/common/./mavlink_msg_raw_imu.h ****     packet->zacc = zacc;
 297:Service/../MAVLink/common/./mavlink_msg_raw_imu.h ****     packet->xgyro = xgyro;
 298:Service/../MAVLink/common/./mavlink_msg_raw_imu.h ****     packet->ygyro = ygyro;
 299:Service/../MAVLink/common/./mavlink_msg_raw_imu.h ****     packet->zgyro = zgyro;
 300:Service/../MAVLink/common/./mavlink_msg_raw_imu.h ****     packet->xmag = xmag;
 301:Service/../MAVLink/common/./mavlink_msg_raw_imu.h ****     packet->ymag = ymag;
 302:Service/../MAVLink/common/./mavlink_msg_raw_imu.h ****     packet->zmag = zmag;
 303:Service/../MAVLink/common/./mavlink_msg_raw_imu.h **** 
 304:Service/../MAVLink/common/./mavlink_msg_raw_imu.h ****     _mav_finalize_message_chan_send(chan, MAVLINK_MSG_ID_RAW_IMU, (const char *)packet, MAVLINK_MSG
 305:Service/../MAVLink/common/./mavlink_msg_raw_imu.h **** #endif
 306:Service/../MAVLink/common/./mavlink_msg_raw_imu.h **** }
 307:Service/../MAVLink/common/./mavlink_msg_raw_imu.h **** #endif
 308:Service/../MAVLink/common/./mavlink_msg_raw_imu.h **** 
 309:Service/../MAVLink/common/./mavlink_msg_raw_imu.h **** #endif
 310:Service/../MAVLink/common/./mavlink_msg_raw_imu.h **** 
 311:Service/../MAVLink/common/./mavlink_msg_raw_imu.h **** // MESSAGE RAW_IMU UNPACKING
 312:Service/../MAVLink/common/./mavlink_msg_raw_imu.h **** 
 313:Service/../MAVLink/common/./mavlink_msg_raw_imu.h **** 
 314:Service/../MAVLink/common/./mavlink_msg_raw_imu.h **** /**
 315:Service/../MAVLink/common/./mavlink_msg_raw_imu.h ****  * @brief Get field time_usec from raw_imu message
 316:Service/../MAVLink/common/./mavlink_msg_raw_imu.h ****  *
 317:Service/../MAVLink/common/./mavlink_msg_raw_imu.h ****  * @return [us] Timestamp (UNIX Epoch time or time since system boot). The receiving end can infer 
 318:Service/../MAVLink/common/./mavlink_msg_raw_imu.h ****  */
 319:Service/../MAVLink/common/./mavlink_msg_raw_imu.h **** static inline uint64_t mavlink_msg_raw_imu_get_time_usec(const mavlink_message_t* msg)
 320:Service/../MAVLink/common/./mavlink_msg_raw_imu.h **** {
 321:Service/../MAVLink/common/./mavlink_msg_raw_imu.h ****     return _MAV_RETURN_uint64_t(msg,  0);
 322:Service/../MAVLink/common/./mavlink_msg_raw_imu.h **** }
 323:Service/../MAVLink/common/./mavlink_msg_raw_imu.h **** 
 324:Service/../MAVLink/common/./mavlink_msg_raw_imu.h **** /**
 325:Service/../MAVLink/common/./mavlink_msg_raw_imu.h ****  * @brief Get field xacc from raw_imu message
 326:Service/../MAVLink/common/./mavlink_msg_raw_imu.h ****  *
 327:Service/../MAVLink/common/./mavlink_msg_raw_imu.h ****  * @return  X acceleration (raw)
 328:Service/../MAVLink/common/./mavlink_msg_raw_imu.h ****  */
 329:Service/../MAVLink/common/./mavlink_msg_raw_imu.h **** static inline int16_t mavlink_msg_raw_imu_get_xacc(const mavlink_message_t* msg)
 330:Service/../MAVLink/common/./mavlink_msg_raw_imu.h **** {
 331:Service/../MAVLink/common/./mavlink_msg_raw_imu.h ****     return _MAV_RETURN_int16_t(msg,  8);
 332:Service/../MAVLink/common/./mavlink_msg_raw_imu.h **** }
 333:Service/../MAVLink/common/./mavlink_msg_raw_imu.h **** 
 334:Service/../MAVLink/common/./mavlink_msg_raw_imu.h **** /**
 335:Service/../MAVLink/common/./mavlink_msg_raw_imu.h ****  * @brief Get field yacc from raw_imu message
 336:Service/../MAVLink/common/./mavlink_msg_raw_imu.h ****  *
 337:Service/../MAVLink/common/./mavlink_msg_raw_imu.h ****  * @return  Y acceleration (raw)
 338:Service/../MAVLink/common/./mavlink_msg_raw_imu.h ****  */
 339:Service/../MAVLink/common/./mavlink_msg_raw_imu.h **** static inline int16_t mavlink_msg_raw_imu_get_yacc(const mavlink_message_t* msg)
 340:Service/../MAVLink/common/./mavlink_msg_raw_imu.h **** {
 341:Service/../MAVLink/common/./mavlink_msg_raw_imu.h ****     return _MAV_RETURN_int16_t(msg,  10);
 342:Service/../MAVLink/common/./mavlink_msg_raw_imu.h **** }
 343:Service/../MAVLink/common/./mavlink_msg_raw_imu.h **** 
 344:Service/../MAVLink/common/./mavlink_msg_raw_imu.h **** /**
 345:Service/../MAVLink/common/./mavlink_msg_raw_imu.h ****  * @brief Get field zacc from raw_imu message
 346:Service/../MAVLink/common/./mavlink_msg_raw_imu.h ****  *
 347:Service/../MAVLink/common/./mavlink_msg_raw_imu.h ****  * @return  Z acceleration (raw)
 348:Service/../MAVLink/common/./mavlink_msg_raw_imu.h ****  */
ARM GAS  C:\Users\8bit\AppData\Local\Temp\ccCRhmZR.s 			page 31


 349:Service/../MAVLink/common/./mavlink_msg_raw_imu.h **** static inline int16_t mavlink_msg_raw_imu_get_zacc(const mavlink_message_t* msg)
 350:Service/../MAVLink/common/./mavlink_msg_raw_imu.h **** {
 351:Service/../MAVLink/common/./mavlink_msg_raw_imu.h ****     return _MAV_RETURN_int16_t(msg,  12);
 352:Service/../MAVLink/common/./mavlink_msg_raw_imu.h **** }
 353:Service/../MAVLink/common/./mavlink_msg_raw_imu.h **** 
 354:Service/../MAVLink/common/./mavlink_msg_raw_imu.h **** /**
 355:Service/../MAVLink/common/./mavlink_msg_raw_imu.h ****  * @brief Get field xgyro from raw_imu message
 356:Service/../MAVLink/common/./mavlink_msg_raw_imu.h ****  *
 357:Service/../MAVLink/common/./mavlink_msg_raw_imu.h ****  * @return  Angular speed around X axis (raw)
 358:Service/../MAVLink/common/./mavlink_msg_raw_imu.h ****  */
 359:Service/../MAVLink/common/./mavlink_msg_raw_imu.h **** static inline int16_t mavlink_msg_raw_imu_get_xgyro(const mavlink_message_t* msg)
 360:Service/../MAVLink/common/./mavlink_msg_raw_imu.h **** {
 361:Service/../MAVLink/common/./mavlink_msg_raw_imu.h ****     return _MAV_RETURN_int16_t(msg,  14);
 362:Service/../MAVLink/common/./mavlink_msg_raw_imu.h **** }
 363:Service/../MAVLink/common/./mavlink_msg_raw_imu.h **** 
 364:Service/../MAVLink/common/./mavlink_msg_raw_imu.h **** /**
 365:Service/../MAVLink/common/./mavlink_msg_raw_imu.h ****  * @brief Get field ygyro from raw_imu message
 366:Service/../MAVLink/common/./mavlink_msg_raw_imu.h ****  *
 367:Service/../MAVLink/common/./mavlink_msg_raw_imu.h ****  * @return  Angular speed around Y axis (raw)
 368:Service/../MAVLink/common/./mavlink_msg_raw_imu.h ****  */
 369:Service/../MAVLink/common/./mavlink_msg_raw_imu.h **** static inline int16_t mavlink_msg_raw_imu_get_ygyro(const mavlink_message_t* msg)
 370:Service/../MAVLink/common/./mavlink_msg_raw_imu.h **** {
 371:Service/../MAVLink/common/./mavlink_msg_raw_imu.h ****     return _MAV_RETURN_int16_t(msg,  16);
 372:Service/../MAVLink/common/./mavlink_msg_raw_imu.h **** }
 373:Service/../MAVLink/common/./mavlink_msg_raw_imu.h **** 
 374:Service/../MAVLink/common/./mavlink_msg_raw_imu.h **** /**
 375:Service/../MAVLink/common/./mavlink_msg_raw_imu.h ****  * @brief Get field zgyro from raw_imu message
 376:Service/../MAVLink/common/./mavlink_msg_raw_imu.h ****  *
 377:Service/../MAVLink/common/./mavlink_msg_raw_imu.h ****  * @return  Angular speed around Z axis (raw)
 378:Service/../MAVLink/common/./mavlink_msg_raw_imu.h ****  */
 379:Service/../MAVLink/common/./mavlink_msg_raw_imu.h **** static inline int16_t mavlink_msg_raw_imu_get_zgyro(const mavlink_message_t* msg)
 380:Service/../MAVLink/common/./mavlink_msg_raw_imu.h **** {
 381:Service/../MAVLink/common/./mavlink_msg_raw_imu.h ****     return _MAV_RETURN_int16_t(msg,  18);
 382:Service/../MAVLink/common/./mavlink_msg_raw_imu.h **** }
 383:Service/../MAVLink/common/./mavlink_msg_raw_imu.h **** 
 384:Service/../MAVLink/common/./mavlink_msg_raw_imu.h **** /**
 385:Service/../MAVLink/common/./mavlink_msg_raw_imu.h ****  * @brief Get field xmag from raw_imu message
 386:Service/../MAVLink/common/./mavlink_msg_raw_imu.h ****  *
 387:Service/../MAVLink/common/./mavlink_msg_raw_imu.h ****  * @return  X Magnetic field (raw)
 388:Service/../MAVLink/common/./mavlink_msg_raw_imu.h ****  */
 389:Service/../MAVLink/common/./mavlink_msg_raw_imu.h **** static inline int16_t mavlink_msg_raw_imu_get_xmag(const mavlink_message_t* msg)
 390:Service/../MAVLink/common/./mavlink_msg_raw_imu.h **** {
 391:Service/../MAVLink/common/./mavlink_msg_raw_imu.h ****     return _MAV_RETURN_int16_t(msg,  20);
 392:Service/../MAVLink/common/./mavlink_msg_raw_imu.h **** }
 393:Service/../MAVLink/common/./mavlink_msg_raw_imu.h **** 
 394:Service/../MAVLink/common/./mavlink_msg_raw_imu.h **** /**
 395:Service/../MAVLink/common/./mavlink_msg_raw_imu.h ****  * @brief Get field ymag from raw_imu message
 396:Service/../MAVLink/common/./mavlink_msg_raw_imu.h ****  *
 397:Service/../MAVLink/common/./mavlink_msg_raw_imu.h ****  * @return  Y Magnetic field (raw)
 398:Service/../MAVLink/common/./mavlink_msg_raw_imu.h ****  */
 399:Service/../MAVLink/common/./mavlink_msg_raw_imu.h **** static inline int16_t mavlink_msg_raw_imu_get_ymag(const mavlink_message_t* msg)
 400:Service/../MAVLink/common/./mavlink_msg_raw_imu.h **** {
 401:Service/../MAVLink/common/./mavlink_msg_raw_imu.h ****     return _MAV_RETURN_int16_t(msg,  22);
 402:Service/../MAVLink/common/./mavlink_msg_raw_imu.h **** }
 403:Service/../MAVLink/common/./mavlink_msg_raw_imu.h **** 
 404:Service/../MAVLink/common/./mavlink_msg_raw_imu.h **** /**
 405:Service/../MAVLink/common/./mavlink_msg_raw_imu.h ****  * @brief Get field zmag from raw_imu message
ARM GAS  C:\Users\8bit\AppData\Local\Temp\ccCRhmZR.s 			page 32


 406:Service/../MAVLink/common/./mavlink_msg_raw_imu.h ****  *
 407:Service/../MAVLink/common/./mavlink_msg_raw_imu.h ****  * @return  Z Magnetic field (raw)
 408:Service/../MAVLink/common/./mavlink_msg_raw_imu.h ****  */
 409:Service/../MAVLink/common/./mavlink_msg_raw_imu.h **** static inline int16_t mavlink_msg_raw_imu_get_zmag(const mavlink_message_t* msg)
 410:Service/../MAVLink/common/./mavlink_msg_raw_imu.h **** {
 411:Service/../MAVLink/common/./mavlink_msg_raw_imu.h ****     return _MAV_RETURN_int16_t(msg,  24);
 412:Service/../MAVLink/common/./mavlink_msg_raw_imu.h **** }
 413:Service/../MAVLink/common/./mavlink_msg_raw_imu.h **** 
 414:Service/../MAVLink/common/./mavlink_msg_raw_imu.h **** /**
 415:Service/../MAVLink/common/./mavlink_msg_raw_imu.h ****  * @brief Decode a raw_imu message into a struct
 416:Service/../MAVLink/common/./mavlink_msg_raw_imu.h ****  *
 417:Service/../MAVLink/common/./mavlink_msg_raw_imu.h ****  * @param msg The message to decode
 418:Service/../MAVLink/common/./mavlink_msg_raw_imu.h ****  * @param raw_imu C-struct to decode the message contents into
 419:Service/../MAVLink/common/./mavlink_msg_raw_imu.h ****  */
 420:Service/../MAVLink/common/./mavlink_msg_raw_imu.h **** static inline void mavlink_msg_raw_imu_decode(const mavlink_message_t* msg, mavlink_raw_imu_t* raw_
 683              		.loc 3 420 20 view .LVU210
 684              	.LBB48:
 421:Service/../MAVLink/common/./mavlink_msg_raw_imu.h **** {
 422:Service/../MAVLink/common/./mavlink_msg_raw_imu.h **** #if MAVLINK_NEED_BYTE_SWAP || !MAVLINK_ALIGNED_FIELDS
 423:Service/../MAVLink/common/./mavlink_msg_raw_imu.h ****     raw_imu->time_usec = mavlink_msg_raw_imu_get_time_usec(msg);
 424:Service/../MAVLink/common/./mavlink_msg_raw_imu.h ****     raw_imu->xacc = mavlink_msg_raw_imu_get_xacc(msg);
 425:Service/../MAVLink/common/./mavlink_msg_raw_imu.h ****     raw_imu->yacc = mavlink_msg_raw_imu_get_yacc(msg);
 426:Service/../MAVLink/common/./mavlink_msg_raw_imu.h ****     raw_imu->zacc = mavlink_msg_raw_imu_get_zacc(msg);
 427:Service/../MAVLink/common/./mavlink_msg_raw_imu.h ****     raw_imu->xgyro = mavlink_msg_raw_imu_get_xgyro(msg);
 428:Service/../MAVLink/common/./mavlink_msg_raw_imu.h ****     raw_imu->ygyro = mavlink_msg_raw_imu_get_ygyro(msg);
 429:Service/../MAVLink/common/./mavlink_msg_raw_imu.h ****     raw_imu->zgyro = mavlink_msg_raw_imu_get_zgyro(msg);
 430:Service/../MAVLink/common/./mavlink_msg_raw_imu.h ****     raw_imu->xmag = mavlink_msg_raw_imu_get_xmag(msg);
 431:Service/../MAVLink/common/./mavlink_msg_raw_imu.h ****     raw_imu->ymag = mavlink_msg_raw_imu_get_ymag(msg);
 432:Service/../MAVLink/common/./mavlink_msg_raw_imu.h ****     raw_imu->zmag = mavlink_msg_raw_imu_get_zmag(msg);
 433:Service/../MAVLink/common/./mavlink_msg_raw_imu.h **** #else
 434:Service/../MAVLink/common/./mavlink_msg_raw_imu.h ****         uint8_t len = msg->len < MAVLINK_MSG_ID_RAW_IMU_LEN? msg->len : MAVLINK_MSG_ID_RAW_IMU_LEN;
 685              		.loc 3 434 9 view .LVU211
 686              		.loc 3 434 26 is_stmt 0 view .LVU212
 687 0022 9DF82F20 		ldrb	r2, [sp, #47]	@ zero_extendqisi2
 688              	.LVL39:
 435:Service/../MAVLink/common/./mavlink_msg_raw_imu.h ****         memset(raw_imu, 0, MAVLINK_MSG_ID_RAW_IMU_LEN);
 689              		.loc 3 435 9 is_stmt 1 view .LVU213
 690 0026 0023     		movs	r3, #0
 691 0028 0093     		str	r3, [sp]
 692 002a 0193     		str	r3, [sp, #4]
 693 002c 0293     		str	r3, [sp, #8]
 694 002e 0393     		str	r3, [sp, #12]
 695 0030 0493     		str	r3, [sp, #16]
 696 0032 0593     		str	r3, [sp, #20]
 697 0034 ADF81830 		strh	r3, [sp, #24]	@ movhi
 436:Service/../MAVLink/common/./mavlink_msg_raw_imu.h ****     memcpy(raw_imu, _MAV_PAYLOAD(msg), len);
 698              		.loc 3 436 5 view .LVU214
 699 0038 1A2A     		cmp	r2, #26
 700 003a 28BF     		it	cs
 701 003c 1A22     		movcs	r2, #26
 702              	.LVL40:
 703              		.loc 3 436 5 is_stmt 0 view .LVU215
 704 003e 0DA9     		add	r1, sp, #52
 705 0040 6846     		mov	r0, sp
 706 0042 FFF7FEFF 		bl	memcpy
 707              	.LVL41:
 708              		.loc 3 436 5 view .LVU216
ARM GAS  C:\Users\8bit\AppData\Local\Temp\ccCRhmZR.s 			page 33


 709              	.LBE48:
 710              	.LBE47:
 375:Service/Srv_ComProto.c **** 
 376:Service/Srv_ComProto.c ****         if (obj->MavMsg_Gyr_Callback)
 711              		.loc 1 376 9 is_stmt 1 view .LVU217
 712              		.loc 1 376 16 is_stmt 0 view .LVU218
 713 0046 636E     		ldr	r3, [r4, #100]
 714              		.loc 1 376 12 view .LVU219
 715 0048 4BB1     		cbz	r3, .L54
 377:Service/Srv_ComProto.c ****             return obj->MavMsg_Gyr_Callback(&msg_imu, obj->cus_p_gyr);
 716              		.loc 1 377 13 is_stmt 1 view .LVU220
 717              		.loc 1 377 20 is_stmt 0 view .LVU221
 718 004a 6168     		ldr	r1, [r4, #4]
 719 004c 6846     		mov	r0, sp
 720 004e 9847     		blx	r3
 721              	.LVL42:
 722 0050 00E0     		b	.L52
 723              	.LVL43:
 724              	.L53:
 378:Service/Srv_ComProto.c ****     }
 379:Service/Srv_ComProto.c **** 
 380:Service/Srv_ComProto.c ****     return false;
 725              		.loc 1 380 12 view .LVU222
 726 0052 0020     		movs	r0, #0
 727              	.LVL44:
 728              	.L52:
 381:Service/Srv_ComProto.c **** }
 729              		.loc 1 381 1 view .LVU223
 730 0054 08B0     		add	sp, sp, #32
 731              	.LCFI10:
 732              		.cfi_remember_state
 733              		.cfi_def_cfa_offset 24
 734              		@ sp needed
 735 0056 BDE81040 		pop	{r4, lr}
 736              	.LCFI11:
 737              		.cfi_restore 14
 738              		.cfi_restore 4
 739              		.cfi_def_cfa_offset 16
 740 005a 04B0     		add	sp, sp, #16
 741              	.LCFI12:
 742              		.cfi_def_cfa_offset 0
 743 005c 7047     		bx	lr
 744              	.LVL45:
 745              	.L54:
 746              	.LCFI13:
 747              		.cfi_restore_state
 380:Service/Srv_ComProto.c **** }
 748              		.loc 1 380 12 view .LVU224
 749 005e 0020     		movs	r0, #0
 750 0060 F8E7     		b	.L52
 751              		.cfi_endproc
 752              	.LFE2088:
 754              		.section	.text.SrvComProto_MavMsg_Decode_ExpAttiude,"ax",%progbits
 755              		.align	1
 756              		.syntax unified
 757              		.thumb
 758              		.thumb_func
ARM GAS  C:\Users\8bit\AppData\Local\Temp\ccCRhmZR.s 			page 34


 760              	SrvComProto_MavMsg_Decode_ExpAttiude:
 761              	.LVL46:
 762              	.LFB2087:
 348:Service/Srv_ComProto.c ****     mavlink_attitude_t msg_att;
 763              		.loc 1 348 1 is_stmt 1 view -0
 764              		.cfi_startproc
 765              		@ args = 276, pretend = 16, frame = 32
 766              		@ frame_needed = 0, uses_anonymous_args = 0
 348:Service/Srv_ComProto.c ****     mavlink_attitude_t msg_att;
 767              		.loc 1 348 1 is_stmt 0 view .LVU226
 768 0000 84B0     		sub	sp, sp, #16
 769              	.LCFI14:
 770              		.cfi_def_cfa_offset 16
 771 0002 10B5     		push	{r4, lr}
 772              	.LCFI15:
 773              		.cfi_def_cfa_offset 24
 774              		.cfi_offset 4, -24
 775              		.cfi_offset 14, -20
 776 0004 88B0     		sub	sp, sp, #32
 777              	.LCFI16:
 778              		.cfi_def_cfa_offset 56
 779 0006 0DF12C0C 		add	ip, sp, #44
 780 000a 8CE80E00 		stm	ip, {r1, r2, r3}
 349:Service/Srv_ComProto.c **** 
 781              		.loc 1 349 5 is_stmt 1 view .LVU227
 351:Service/Srv_ComProto.c ****     {
 782              		.loc 1 351 5 view .LVU228
 351:Service/Srv_ComProto.c ****     {
 783              		.loc 1 351 8 is_stmt 0 view .LVU229
 784 000e D0B1     		cbz	r0, .L58
 785 0010 0446     		mov	r4, r0
 353:Service/Srv_ComProto.c **** 
 786              		.loc 1 353 9 is_stmt 1 view .LVU230
 353:Service/Srv_ComProto.c **** 
 787              		.loc 1 353 12 is_stmt 0 view .LVU231
 788 0012 836B     		ldr	r3, [r0, #56]
 353:Service/Srv_ComProto.c **** 
 789              		.loc 1 353 22 view .LVU232
 790 0014 0133     		adds	r3, r3, #1
 791 0016 8363     		str	r3, [r0, #56]
 355:Service/Srv_ComProto.c ****         mavlink_msg_attitude_decode(&msg, &msg_att);
 792              		.loc 1 355 9 is_stmt 1 view .LVU233
 793 0018 0023     		movs	r3, #0
 794 001a 0193     		str	r3, [sp, #4]
 795 001c 0293     		str	r3, [sp, #8]
 796 001e 0393     		str	r3, [sp, #12]
 797 0020 0493     		str	r3, [sp, #16]
 798 0022 0593     		str	r3, [sp, #20]
 799 0024 0693     		str	r3, [sp, #24]
 800 0026 0793     		str	r3, [sp, #28]
 356:Service/Srv_ComProto.c **** 
 801              		.loc 1 356 9 view .LVU234
 802              	.LVL47:
 803              	.LBB51:
 804              	.LBI51:
 805              		.file 4 "Service/../MAVLink/common/./mavlink_msg_attitude.h"
   1:Service/../MAVLink/common/./mavlink_msg_attitude.h **** #pragma once
ARM GAS  C:\Users\8bit\AppData\Local\Temp\ccCRhmZR.s 			page 35


   2:Service/../MAVLink/common/./mavlink_msg_attitude.h **** // MESSAGE ATTITUDE PACKING
   3:Service/../MAVLink/common/./mavlink_msg_attitude.h **** 
   4:Service/../MAVLink/common/./mavlink_msg_attitude.h **** #define MAVLINK_MSG_ID_ATTITUDE 30
   5:Service/../MAVLink/common/./mavlink_msg_attitude.h **** 
   6:Service/../MAVLink/common/./mavlink_msg_attitude.h **** 
   7:Service/../MAVLink/common/./mavlink_msg_attitude.h **** typedef struct __mavlink_attitude_t {
   8:Service/../MAVLink/common/./mavlink_msg_attitude.h ****  uint32_t time_boot_ms; /*< [ms] Timestamp (time since system boot).*/
   9:Service/../MAVLink/common/./mavlink_msg_attitude.h ****  float roll; /*< [rad] Roll angle (-pi..+pi)*/
  10:Service/../MAVLink/common/./mavlink_msg_attitude.h ****  float pitch; /*< [rad] Pitch angle (-pi..+pi)*/
  11:Service/../MAVLink/common/./mavlink_msg_attitude.h ****  float yaw; /*< [rad] Yaw angle (-pi..+pi)*/
  12:Service/../MAVLink/common/./mavlink_msg_attitude.h ****  float rollspeed; /*< [rad/s] Roll angular speed*/
  13:Service/../MAVLink/common/./mavlink_msg_attitude.h ****  float pitchspeed; /*< [rad/s] Pitch angular speed*/
  14:Service/../MAVLink/common/./mavlink_msg_attitude.h ****  float yawspeed; /*< [rad/s] Yaw angular speed*/
  15:Service/../MAVLink/common/./mavlink_msg_attitude.h **** } mavlink_attitude_t;
  16:Service/../MAVLink/common/./mavlink_msg_attitude.h **** 
  17:Service/../MAVLink/common/./mavlink_msg_attitude.h **** #define MAVLINK_MSG_ID_ATTITUDE_LEN 28
  18:Service/../MAVLink/common/./mavlink_msg_attitude.h **** #define MAVLINK_MSG_ID_ATTITUDE_MIN_LEN 28
  19:Service/../MAVLink/common/./mavlink_msg_attitude.h **** #define MAVLINK_MSG_ID_30_LEN 28
  20:Service/../MAVLink/common/./mavlink_msg_attitude.h **** #define MAVLINK_MSG_ID_30_MIN_LEN 28
  21:Service/../MAVLink/common/./mavlink_msg_attitude.h **** 
  22:Service/../MAVLink/common/./mavlink_msg_attitude.h **** #define MAVLINK_MSG_ID_ATTITUDE_CRC 39
  23:Service/../MAVLink/common/./mavlink_msg_attitude.h **** #define MAVLINK_MSG_ID_30_CRC 39
  24:Service/../MAVLink/common/./mavlink_msg_attitude.h **** 
  25:Service/../MAVLink/common/./mavlink_msg_attitude.h **** 
  26:Service/../MAVLink/common/./mavlink_msg_attitude.h **** 
  27:Service/../MAVLink/common/./mavlink_msg_attitude.h **** #if MAVLINK_COMMAND_24BIT
  28:Service/../MAVLink/common/./mavlink_msg_attitude.h **** #define MAVLINK_MESSAGE_INFO_ATTITUDE { \
  29:Service/../MAVLink/common/./mavlink_msg_attitude.h ****     30, \
  30:Service/../MAVLink/common/./mavlink_msg_attitude.h ****     "ATTITUDE", \
  31:Service/../MAVLink/common/./mavlink_msg_attitude.h ****     7, \
  32:Service/../MAVLink/common/./mavlink_msg_attitude.h ****     {  { "time_boot_ms", NULL, MAVLINK_TYPE_UINT32_T, 0, 0, offsetof(mavlink_attitude_t, time_boot_
  33:Service/../MAVLink/common/./mavlink_msg_attitude.h ****          { "roll", NULL, MAVLINK_TYPE_FLOAT, 0, 4, offsetof(mavlink_attitude_t, roll) }, \
  34:Service/../MAVLink/common/./mavlink_msg_attitude.h ****          { "pitch", NULL, MAVLINK_TYPE_FLOAT, 0, 8, offsetof(mavlink_attitude_t, pitch) }, \
  35:Service/../MAVLink/common/./mavlink_msg_attitude.h ****          { "yaw", NULL, MAVLINK_TYPE_FLOAT, 0, 12, offsetof(mavlink_attitude_t, yaw) }, \
  36:Service/../MAVLink/common/./mavlink_msg_attitude.h ****          { "rollspeed", NULL, MAVLINK_TYPE_FLOAT, 0, 16, offsetof(mavlink_attitude_t, rollspeed) },
  37:Service/../MAVLink/common/./mavlink_msg_attitude.h ****          { "pitchspeed", NULL, MAVLINK_TYPE_FLOAT, 0, 20, offsetof(mavlink_attitude_t, pitchspeed) 
  38:Service/../MAVLink/common/./mavlink_msg_attitude.h ****          { "yawspeed", NULL, MAVLINK_TYPE_FLOAT, 0, 24, offsetof(mavlink_attitude_t, yawspeed) }, \
  39:Service/../MAVLink/common/./mavlink_msg_attitude.h ****          } \
  40:Service/../MAVLink/common/./mavlink_msg_attitude.h **** }
  41:Service/../MAVLink/common/./mavlink_msg_attitude.h **** #else
  42:Service/../MAVLink/common/./mavlink_msg_attitude.h **** #define MAVLINK_MESSAGE_INFO_ATTITUDE { \
  43:Service/../MAVLink/common/./mavlink_msg_attitude.h ****     "ATTITUDE", \
  44:Service/../MAVLink/common/./mavlink_msg_attitude.h ****     7, \
  45:Service/../MAVLink/common/./mavlink_msg_attitude.h ****     {  { "time_boot_ms", NULL, MAVLINK_TYPE_UINT32_T, 0, 0, offsetof(mavlink_attitude_t, time_boot_
  46:Service/../MAVLink/common/./mavlink_msg_attitude.h ****          { "roll", NULL, MAVLINK_TYPE_FLOAT, 0, 4, offsetof(mavlink_attitude_t, roll) }, \
  47:Service/../MAVLink/common/./mavlink_msg_attitude.h ****          { "pitch", NULL, MAVLINK_TYPE_FLOAT, 0, 8, offsetof(mavlink_attitude_t, pitch) }, \
  48:Service/../MAVLink/common/./mavlink_msg_attitude.h ****          { "yaw", NULL, MAVLINK_TYPE_FLOAT, 0, 12, offsetof(mavlink_attitude_t, yaw) }, \
  49:Service/../MAVLink/common/./mavlink_msg_attitude.h ****          { "rollspeed", NULL, MAVLINK_TYPE_FLOAT, 0, 16, offsetof(mavlink_attitude_t, rollspeed) },
  50:Service/../MAVLink/common/./mavlink_msg_attitude.h ****          { "pitchspeed", NULL, MAVLINK_TYPE_FLOAT, 0, 20, offsetof(mavlink_attitude_t, pitchspeed) 
  51:Service/../MAVLink/common/./mavlink_msg_attitude.h ****          { "yawspeed", NULL, MAVLINK_TYPE_FLOAT, 0, 24, offsetof(mavlink_attitude_t, yawspeed) }, \
  52:Service/../MAVLink/common/./mavlink_msg_attitude.h ****          } \
  53:Service/../MAVLink/common/./mavlink_msg_attitude.h **** }
  54:Service/../MAVLink/common/./mavlink_msg_attitude.h **** #endif
  55:Service/../MAVLink/common/./mavlink_msg_attitude.h **** 
  56:Service/../MAVLink/common/./mavlink_msg_attitude.h **** /**
  57:Service/../MAVLink/common/./mavlink_msg_attitude.h ****  * @brief Pack a attitude message
  58:Service/../MAVLink/common/./mavlink_msg_attitude.h ****  * @param system_id ID of this system
ARM GAS  C:\Users\8bit\AppData\Local\Temp\ccCRhmZR.s 			page 36


  59:Service/../MAVLink/common/./mavlink_msg_attitude.h ****  * @param component_id ID of this component (e.g. 200 for IMU)
  60:Service/../MAVLink/common/./mavlink_msg_attitude.h ****  * @param msg The MAVLink message to compress the data into
  61:Service/../MAVLink/common/./mavlink_msg_attitude.h ****  *
  62:Service/../MAVLink/common/./mavlink_msg_attitude.h ****  * @param time_boot_ms [ms] Timestamp (time since system boot).
  63:Service/../MAVLink/common/./mavlink_msg_attitude.h ****  * @param roll [rad] Roll angle (-pi..+pi)
  64:Service/../MAVLink/common/./mavlink_msg_attitude.h ****  * @param pitch [rad] Pitch angle (-pi..+pi)
  65:Service/../MAVLink/common/./mavlink_msg_attitude.h ****  * @param yaw [rad] Yaw angle (-pi..+pi)
  66:Service/../MAVLink/common/./mavlink_msg_attitude.h ****  * @param rollspeed [rad/s] Roll angular speed
  67:Service/../MAVLink/common/./mavlink_msg_attitude.h ****  * @param pitchspeed [rad/s] Pitch angular speed
  68:Service/../MAVLink/common/./mavlink_msg_attitude.h ****  * @param yawspeed [rad/s] Yaw angular speed
  69:Service/../MAVLink/common/./mavlink_msg_attitude.h ****  * @return length of the message in bytes (excluding serial stream start sign)
  70:Service/../MAVLink/common/./mavlink_msg_attitude.h ****  */
  71:Service/../MAVLink/common/./mavlink_msg_attitude.h **** static inline uint16_t mavlink_msg_attitude_pack(uint8_t system_id, uint8_t component_id, mavlink_m
  72:Service/../MAVLink/common/./mavlink_msg_attitude.h ****                                uint32_t time_boot_ms, float roll, float pitch, float yaw, float rol
  73:Service/../MAVLink/common/./mavlink_msg_attitude.h **** {
  74:Service/../MAVLink/common/./mavlink_msg_attitude.h **** #if MAVLINK_NEED_BYTE_SWAP || !MAVLINK_ALIGNED_FIELDS
  75:Service/../MAVLink/common/./mavlink_msg_attitude.h ****     char buf[MAVLINK_MSG_ID_ATTITUDE_LEN];
  76:Service/../MAVLink/common/./mavlink_msg_attitude.h ****     _mav_put_uint32_t(buf, 0, time_boot_ms);
  77:Service/../MAVLink/common/./mavlink_msg_attitude.h ****     _mav_put_float(buf, 4, roll);
  78:Service/../MAVLink/common/./mavlink_msg_attitude.h ****     _mav_put_float(buf, 8, pitch);
  79:Service/../MAVLink/common/./mavlink_msg_attitude.h ****     _mav_put_float(buf, 12, yaw);
  80:Service/../MAVLink/common/./mavlink_msg_attitude.h ****     _mav_put_float(buf, 16, rollspeed);
  81:Service/../MAVLink/common/./mavlink_msg_attitude.h ****     _mav_put_float(buf, 20, pitchspeed);
  82:Service/../MAVLink/common/./mavlink_msg_attitude.h ****     _mav_put_float(buf, 24, yawspeed);
  83:Service/../MAVLink/common/./mavlink_msg_attitude.h **** 
  84:Service/../MAVLink/common/./mavlink_msg_attitude.h ****         memcpy(_MAV_PAYLOAD_NON_CONST(msg), buf, MAVLINK_MSG_ID_ATTITUDE_LEN);
  85:Service/../MAVLink/common/./mavlink_msg_attitude.h **** #else
  86:Service/../MAVLink/common/./mavlink_msg_attitude.h ****     mavlink_attitude_t packet;
  87:Service/../MAVLink/common/./mavlink_msg_attitude.h ****     packet.time_boot_ms = time_boot_ms;
  88:Service/../MAVLink/common/./mavlink_msg_attitude.h ****     packet.roll = roll;
  89:Service/../MAVLink/common/./mavlink_msg_attitude.h ****     packet.pitch = pitch;
  90:Service/../MAVLink/common/./mavlink_msg_attitude.h ****     packet.yaw = yaw;
  91:Service/../MAVLink/common/./mavlink_msg_attitude.h ****     packet.rollspeed = rollspeed;
  92:Service/../MAVLink/common/./mavlink_msg_attitude.h ****     packet.pitchspeed = pitchspeed;
  93:Service/../MAVLink/common/./mavlink_msg_attitude.h ****     packet.yawspeed = yawspeed;
  94:Service/../MAVLink/common/./mavlink_msg_attitude.h **** 
  95:Service/../MAVLink/common/./mavlink_msg_attitude.h ****         memcpy(_MAV_PAYLOAD_NON_CONST(msg), &packet, MAVLINK_MSG_ID_ATTITUDE_LEN);
  96:Service/../MAVLink/common/./mavlink_msg_attitude.h **** #endif
  97:Service/../MAVLink/common/./mavlink_msg_attitude.h **** 
  98:Service/../MAVLink/common/./mavlink_msg_attitude.h ****     msg->msgid = MAVLINK_MSG_ID_ATTITUDE;
  99:Service/../MAVLink/common/./mavlink_msg_attitude.h ****     return mavlink_finalize_message(msg, system_id, component_id, MAVLINK_MSG_ID_ATTITUDE_MIN_LEN, 
 100:Service/../MAVLink/common/./mavlink_msg_attitude.h **** }
 101:Service/../MAVLink/common/./mavlink_msg_attitude.h **** 
 102:Service/../MAVLink/common/./mavlink_msg_attitude.h **** /**
 103:Service/../MAVLink/common/./mavlink_msg_attitude.h ****  * @brief Pack a attitude message on a channel
 104:Service/../MAVLink/common/./mavlink_msg_attitude.h ****  * @param system_id ID of this system
 105:Service/../MAVLink/common/./mavlink_msg_attitude.h ****  * @param component_id ID of this component (e.g. 200 for IMU)
 106:Service/../MAVLink/common/./mavlink_msg_attitude.h ****  * @param chan The MAVLink channel this message will be sent over
 107:Service/../MAVLink/common/./mavlink_msg_attitude.h ****  * @param msg The MAVLink message to compress the data into
 108:Service/../MAVLink/common/./mavlink_msg_attitude.h ****  * @param time_boot_ms [ms] Timestamp (time since system boot).
 109:Service/../MAVLink/common/./mavlink_msg_attitude.h ****  * @param roll [rad] Roll angle (-pi..+pi)
 110:Service/../MAVLink/common/./mavlink_msg_attitude.h ****  * @param pitch [rad] Pitch angle (-pi..+pi)
 111:Service/../MAVLink/common/./mavlink_msg_attitude.h ****  * @param yaw [rad] Yaw angle (-pi..+pi)
 112:Service/../MAVLink/common/./mavlink_msg_attitude.h ****  * @param rollspeed [rad/s] Roll angular speed
 113:Service/../MAVLink/common/./mavlink_msg_attitude.h ****  * @param pitchspeed [rad/s] Pitch angular speed
 114:Service/../MAVLink/common/./mavlink_msg_attitude.h ****  * @param yawspeed [rad/s] Yaw angular speed
 115:Service/../MAVLink/common/./mavlink_msg_attitude.h ****  * @return length of the message in bytes (excluding serial stream start sign)
ARM GAS  C:\Users\8bit\AppData\Local\Temp\ccCRhmZR.s 			page 37


 116:Service/../MAVLink/common/./mavlink_msg_attitude.h ****  */
 117:Service/../MAVLink/common/./mavlink_msg_attitude.h **** static inline uint16_t mavlink_msg_attitude_pack_chan(uint8_t system_id, uint8_t component_id, uint
 118:Service/../MAVLink/common/./mavlink_msg_attitude.h ****                                mavlink_message_t* msg,
 119:Service/../MAVLink/common/./mavlink_msg_attitude.h ****                                    uint32_t time_boot_ms,float roll,float pitch,float yaw,float rol
 120:Service/../MAVLink/common/./mavlink_msg_attitude.h **** {
 121:Service/../MAVLink/common/./mavlink_msg_attitude.h **** #if MAVLINK_NEED_BYTE_SWAP || !MAVLINK_ALIGNED_FIELDS
 122:Service/../MAVLink/common/./mavlink_msg_attitude.h ****     char buf[MAVLINK_MSG_ID_ATTITUDE_LEN];
 123:Service/../MAVLink/common/./mavlink_msg_attitude.h ****     _mav_put_uint32_t(buf, 0, time_boot_ms);
 124:Service/../MAVLink/common/./mavlink_msg_attitude.h ****     _mav_put_float(buf, 4, roll);
 125:Service/../MAVLink/common/./mavlink_msg_attitude.h ****     _mav_put_float(buf, 8, pitch);
 126:Service/../MAVLink/common/./mavlink_msg_attitude.h ****     _mav_put_float(buf, 12, yaw);
 127:Service/../MAVLink/common/./mavlink_msg_attitude.h ****     _mav_put_float(buf, 16, rollspeed);
 128:Service/../MAVLink/common/./mavlink_msg_attitude.h ****     _mav_put_float(buf, 20, pitchspeed);
 129:Service/../MAVLink/common/./mavlink_msg_attitude.h ****     _mav_put_float(buf, 24, yawspeed);
 130:Service/../MAVLink/common/./mavlink_msg_attitude.h **** 
 131:Service/../MAVLink/common/./mavlink_msg_attitude.h ****         memcpy(_MAV_PAYLOAD_NON_CONST(msg), buf, MAVLINK_MSG_ID_ATTITUDE_LEN);
 132:Service/../MAVLink/common/./mavlink_msg_attitude.h **** #else
 133:Service/../MAVLink/common/./mavlink_msg_attitude.h ****     mavlink_attitude_t packet;
 134:Service/../MAVLink/common/./mavlink_msg_attitude.h ****     packet.time_boot_ms = time_boot_ms;
 135:Service/../MAVLink/common/./mavlink_msg_attitude.h ****     packet.roll = roll;
 136:Service/../MAVLink/common/./mavlink_msg_attitude.h ****     packet.pitch = pitch;
 137:Service/../MAVLink/common/./mavlink_msg_attitude.h ****     packet.yaw = yaw;
 138:Service/../MAVLink/common/./mavlink_msg_attitude.h ****     packet.rollspeed = rollspeed;
 139:Service/../MAVLink/common/./mavlink_msg_attitude.h ****     packet.pitchspeed = pitchspeed;
 140:Service/../MAVLink/common/./mavlink_msg_attitude.h ****     packet.yawspeed = yawspeed;
 141:Service/../MAVLink/common/./mavlink_msg_attitude.h **** 
 142:Service/../MAVLink/common/./mavlink_msg_attitude.h ****         memcpy(_MAV_PAYLOAD_NON_CONST(msg), &packet, MAVLINK_MSG_ID_ATTITUDE_LEN);
 143:Service/../MAVLink/common/./mavlink_msg_attitude.h **** #endif
 144:Service/../MAVLink/common/./mavlink_msg_attitude.h **** 
 145:Service/../MAVLink/common/./mavlink_msg_attitude.h ****     msg->msgid = MAVLINK_MSG_ID_ATTITUDE;
 146:Service/../MAVLink/common/./mavlink_msg_attitude.h ****     return mavlink_finalize_message_chan(msg, system_id, component_id, chan, MAVLINK_MSG_ID_ATTITUD
 147:Service/../MAVLink/common/./mavlink_msg_attitude.h **** }
 148:Service/../MAVLink/common/./mavlink_msg_attitude.h **** 
 149:Service/../MAVLink/common/./mavlink_msg_attitude.h **** /**
 150:Service/../MAVLink/common/./mavlink_msg_attitude.h ****  * @brief Encode a attitude struct
 151:Service/../MAVLink/common/./mavlink_msg_attitude.h ****  *
 152:Service/../MAVLink/common/./mavlink_msg_attitude.h ****  * @param system_id ID of this system
 153:Service/../MAVLink/common/./mavlink_msg_attitude.h ****  * @param component_id ID of this component (e.g. 200 for IMU)
 154:Service/../MAVLink/common/./mavlink_msg_attitude.h ****  * @param msg The MAVLink message to compress the data into
 155:Service/../MAVLink/common/./mavlink_msg_attitude.h ****  * @param attitude C-struct to read the message contents from
 156:Service/../MAVLink/common/./mavlink_msg_attitude.h ****  */
 157:Service/../MAVLink/common/./mavlink_msg_attitude.h **** static inline uint16_t mavlink_msg_attitude_encode(uint8_t system_id, uint8_t component_id, mavlink
 158:Service/../MAVLink/common/./mavlink_msg_attitude.h **** {
 159:Service/../MAVLink/common/./mavlink_msg_attitude.h ****     return mavlink_msg_attitude_pack(system_id, component_id, msg, attitude->time_boot_ms, attitude
 160:Service/../MAVLink/common/./mavlink_msg_attitude.h **** }
 161:Service/../MAVLink/common/./mavlink_msg_attitude.h **** 
 162:Service/../MAVLink/common/./mavlink_msg_attitude.h **** /**
 163:Service/../MAVLink/common/./mavlink_msg_attitude.h ****  * @brief Encode a attitude struct on a channel
 164:Service/../MAVLink/common/./mavlink_msg_attitude.h ****  *
 165:Service/../MAVLink/common/./mavlink_msg_attitude.h ****  * @param system_id ID of this system
 166:Service/../MAVLink/common/./mavlink_msg_attitude.h ****  * @param component_id ID of this component (e.g. 200 for IMU)
 167:Service/../MAVLink/common/./mavlink_msg_attitude.h ****  * @param chan The MAVLink channel this message will be sent over
 168:Service/../MAVLink/common/./mavlink_msg_attitude.h ****  * @param msg The MAVLink message to compress the data into
 169:Service/../MAVLink/common/./mavlink_msg_attitude.h ****  * @param attitude C-struct to read the message contents from
 170:Service/../MAVLink/common/./mavlink_msg_attitude.h ****  */
 171:Service/../MAVLink/common/./mavlink_msg_attitude.h **** static inline uint16_t mavlink_msg_attitude_encode_chan(uint8_t system_id, uint8_t component_id, ui
 172:Service/../MAVLink/common/./mavlink_msg_attitude.h **** {
ARM GAS  C:\Users\8bit\AppData\Local\Temp\ccCRhmZR.s 			page 38


 173:Service/../MAVLink/common/./mavlink_msg_attitude.h ****     return mavlink_msg_attitude_pack_chan(system_id, component_id, chan, msg, attitude->time_boot_m
 174:Service/../MAVLink/common/./mavlink_msg_attitude.h **** }
 175:Service/../MAVLink/common/./mavlink_msg_attitude.h **** 
 176:Service/../MAVLink/common/./mavlink_msg_attitude.h **** /**
 177:Service/../MAVLink/common/./mavlink_msg_attitude.h ****  * @brief Send a attitude message
 178:Service/../MAVLink/common/./mavlink_msg_attitude.h ****  * @param chan MAVLink channel to send the message
 179:Service/../MAVLink/common/./mavlink_msg_attitude.h ****  *
 180:Service/../MAVLink/common/./mavlink_msg_attitude.h ****  * @param time_boot_ms [ms] Timestamp (time since system boot).
 181:Service/../MAVLink/common/./mavlink_msg_attitude.h ****  * @param roll [rad] Roll angle (-pi..+pi)
 182:Service/../MAVLink/common/./mavlink_msg_attitude.h ****  * @param pitch [rad] Pitch angle (-pi..+pi)
 183:Service/../MAVLink/common/./mavlink_msg_attitude.h ****  * @param yaw [rad] Yaw angle (-pi..+pi)
 184:Service/../MAVLink/common/./mavlink_msg_attitude.h ****  * @param rollspeed [rad/s] Roll angular speed
 185:Service/../MAVLink/common/./mavlink_msg_attitude.h ****  * @param pitchspeed [rad/s] Pitch angular speed
 186:Service/../MAVLink/common/./mavlink_msg_attitude.h ****  * @param yawspeed [rad/s] Yaw angular speed
 187:Service/../MAVLink/common/./mavlink_msg_attitude.h ****  */
 188:Service/../MAVLink/common/./mavlink_msg_attitude.h **** #ifdef MAVLINK_USE_CONVENIENCE_FUNCTIONS
 189:Service/../MAVLink/common/./mavlink_msg_attitude.h **** 
 190:Service/../MAVLink/common/./mavlink_msg_attitude.h **** static inline void mavlink_msg_attitude_send(mavlink_channel_t chan, uint32_t time_boot_ms, float r
 191:Service/../MAVLink/common/./mavlink_msg_attitude.h **** {
 192:Service/../MAVLink/common/./mavlink_msg_attitude.h **** #if MAVLINK_NEED_BYTE_SWAP || !MAVLINK_ALIGNED_FIELDS
 193:Service/../MAVLink/common/./mavlink_msg_attitude.h ****     char buf[MAVLINK_MSG_ID_ATTITUDE_LEN];
 194:Service/../MAVLink/common/./mavlink_msg_attitude.h ****     _mav_put_uint32_t(buf, 0, time_boot_ms);
 195:Service/../MAVLink/common/./mavlink_msg_attitude.h ****     _mav_put_float(buf, 4, roll);
 196:Service/../MAVLink/common/./mavlink_msg_attitude.h ****     _mav_put_float(buf, 8, pitch);
 197:Service/../MAVLink/common/./mavlink_msg_attitude.h ****     _mav_put_float(buf, 12, yaw);
 198:Service/../MAVLink/common/./mavlink_msg_attitude.h ****     _mav_put_float(buf, 16, rollspeed);
 199:Service/../MAVLink/common/./mavlink_msg_attitude.h ****     _mav_put_float(buf, 20, pitchspeed);
 200:Service/../MAVLink/common/./mavlink_msg_attitude.h ****     _mav_put_float(buf, 24, yawspeed);
 201:Service/../MAVLink/common/./mavlink_msg_attitude.h **** 
 202:Service/../MAVLink/common/./mavlink_msg_attitude.h ****     _mav_finalize_message_chan_send(chan, MAVLINK_MSG_ID_ATTITUDE, buf, MAVLINK_MSG_ID_ATTITUDE_MIN
 203:Service/../MAVLink/common/./mavlink_msg_attitude.h **** #else
 204:Service/../MAVLink/common/./mavlink_msg_attitude.h ****     mavlink_attitude_t packet;
 205:Service/../MAVLink/common/./mavlink_msg_attitude.h ****     packet.time_boot_ms = time_boot_ms;
 206:Service/../MAVLink/common/./mavlink_msg_attitude.h ****     packet.roll = roll;
 207:Service/../MAVLink/common/./mavlink_msg_attitude.h ****     packet.pitch = pitch;
 208:Service/../MAVLink/common/./mavlink_msg_attitude.h ****     packet.yaw = yaw;
 209:Service/../MAVLink/common/./mavlink_msg_attitude.h ****     packet.rollspeed = rollspeed;
 210:Service/../MAVLink/common/./mavlink_msg_attitude.h ****     packet.pitchspeed = pitchspeed;
 211:Service/../MAVLink/common/./mavlink_msg_attitude.h ****     packet.yawspeed = yawspeed;
 212:Service/../MAVLink/common/./mavlink_msg_attitude.h **** 
 213:Service/../MAVLink/common/./mavlink_msg_attitude.h ****     _mav_finalize_message_chan_send(chan, MAVLINK_MSG_ID_ATTITUDE, (const char *)&packet, MAVLINK_M
 214:Service/../MAVLink/common/./mavlink_msg_attitude.h **** #endif
 215:Service/../MAVLink/common/./mavlink_msg_attitude.h **** }
 216:Service/../MAVLink/common/./mavlink_msg_attitude.h **** 
 217:Service/../MAVLink/common/./mavlink_msg_attitude.h **** /**
 218:Service/../MAVLink/common/./mavlink_msg_attitude.h ****  * @brief Send a attitude message
 219:Service/../MAVLink/common/./mavlink_msg_attitude.h ****  * @param chan MAVLink channel to send the message
 220:Service/../MAVLink/common/./mavlink_msg_attitude.h ****  * @param struct The MAVLink struct to serialize
 221:Service/../MAVLink/common/./mavlink_msg_attitude.h ****  */
 222:Service/../MAVLink/common/./mavlink_msg_attitude.h **** static inline void mavlink_msg_attitude_send_struct(mavlink_channel_t chan, const mavlink_attitude_
 223:Service/../MAVLink/common/./mavlink_msg_attitude.h **** {
 224:Service/../MAVLink/common/./mavlink_msg_attitude.h **** #if MAVLINK_NEED_BYTE_SWAP || !MAVLINK_ALIGNED_FIELDS
 225:Service/../MAVLink/common/./mavlink_msg_attitude.h ****     mavlink_msg_attitude_send(chan, attitude->time_boot_ms, attitude->roll, attitude->pitch, attitu
 226:Service/../MAVLink/common/./mavlink_msg_attitude.h **** #else
 227:Service/../MAVLink/common/./mavlink_msg_attitude.h ****     _mav_finalize_message_chan_send(chan, MAVLINK_MSG_ID_ATTITUDE, (const char *)attitude, MAVLINK_
 228:Service/../MAVLink/common/./mavlink_msg_attitude.h **** #endif
 229:Service/../MAVLink/common/./mavlink_msg_attitude.h **** }
ARM GAS  C:\Users\8bit\AppData\Local\Temp\ccCRhmZR.s 			page 39


 230:Service/../MAVLink/common/./mavlink_msg_attitude.h **** 
 231:Service/../MAVLink/common/./mavlink_msg_attitude.h **** #if MAVLINK_MSG_ID_ATTITUDE_LEN <= MAVLINK_MAX_PAYLOAD_LEN
 232:Service/../MAVLink/common/./mavlink_msg_attitude.h **** /*
 233:Service/../MAVLink/common/./mavlink_msg_attitude.h ****   This variant of _send() can be used to save stack space by re-using
 234:Service/../MAVLink/common/./mavlink_msg_attitude.h ****   memory from the receive buffer.  The caller provides a
 235:Service/../MAVLink/common/./mavlink_msg_attitude.h ****   mavlink_message_t which is the size of a full mavlink message. This
 236:Service/../MAVLink/common/./mavlink_msg_attitude.h ****   is usually the receive buffer for the channel, and allows a reply to an
 237:Service/../MAVLink/common/./mavlink_msg_attitude.h ****   incoming message with minimum stack space usage.
 238:Service/../MAVLink/common/./mavlink_msg_attitude.h ****  */
 239:Service/../MAVLink/common/./mavlink_msg_attitude.h **** static inline void mavlink_msg_attitude_send_buf(mavlink_message_t *msgbuf, mavlink_channel_t chan,
 240:Service/../MAVLink/common/./mavlink_msg_attitude.h **** {
 241:Service/../MAVLink/common/./mavlink_msg_attitude.h **** #if MAVLINK_NEED_BYTE_SWAP || !MAVLINK_ALIGNED_FIELDS
 242:Service/../MAVLink/common/./mavlink_msg_attitude.h ****     char *buf = (char *)msgbuf;
 243:Service/../MAVLink/common/./mavlink_msg_attitude.h ****     _mav_put_uint32_t(buf, 0, time_boot_ms);
 244:Service/../MAVLink/common/./mavlink_msg_attitude.h ****     _mav_put_float(buf, 4, roll);
 245:Service/../MAVLink/common/./mavlink_msg_attitude.h ****     _mav_put_float(buf, 8, pitch);
 246:Service/../MAVLink/common/./mavlink_msg_attitude.h ****     _mav_put_float(buf, 12, yaw);
 247:Service/../MAVLink/common/./mavlink_msg_attitude.h ****     _mav_put_float(buf, 16, rollspeed);
 248:Service/../MAVLink/common/./mavlink_msg_attitude.h ****     _mav_put_float(buf, 20, pitchspeed);
 249:Service/../MAVLink/common/./mavlink_msg_attitude.h ****     _mav_put_float(buf, 24, yawspeed);
 250:Service/../MAVLink/common/./mavlink_msg_attitude.h **** 
 251:Service/../MAVLink/common/./mavlink_msg_attitude.h ****     _mav_finalize_message_chan_send(chan, MAVLINK_MSG_ID_ATTITUDE, buf, MAVLINK_MSG_ID_ATTITUDE_MIN
 252:Service/../MAVLink/common/./mavlink_msg_attitude.h **** #else
 253:Service/../MAVLink/common/./mavlink_msg_attitude.h ****     mavlink_attitude_t *packet = (mavlink_attitude_t *)msgbuf;
 254:Service/../MAVLink/common/./mavlink_msg_attitude.h ****     packet->time_boot_ms = time_boot_ms;
 255:Service/../MAVLink/common/./mavlink_msg_attitude.h ****     packet->roll = roll;
 256:Service/../MAVLink/common/./mavlink_msg_attitude.h ****     packet->pitch = pitch;
 257:Service/../MAVLink/common/./mavlink_msg_attitude.h ****     packet->yaw = yaw;
 258:Service/../MAVLink/common/./mavlink_msg_attitude.h ****     packet->rollspeed = rollspeed;
 259:Service/../MAVLink/common/./mavlink_msg_attitude.h ****     packet->pitchspeed = pitchspeed;
 260:Service/../MAVLink/common/./mavlink_msg_attitude.h ****     packet->yawspeed = yawspeed;
 261:Service/../MAVLink/common/./mavlink_msg_attitude.h **** 
 262:Service/../MAVLink/common/./mavlink_msg_attitude.h ****     _mav_finalize_message_chan_send(chan, MAVLINK_MSG_ID_ATTITUDE, (const char *)packet, MAVLINK_MS
 263:Service/../MAVLink/common/./mavlink_msg_attitude.h **** #endif
 264:Service/../MAVLink/common/./mavlink_msg_attitude.h **** }
 265:Service/../MAVLink/common/./mavlink_msg_attitude.h **** #endif
 266:Service/../MAVLink/common/./mavlink_msg_attitude.h **** 
 267:Service/../MAVLink/common/./mavlink_msg_attitude.h **** #endif
 268:Service/../MAVLink/common/./mavlink_msg_attitude.h **** 
 269:Service/../MAVLink/common/./mavlink_msg_attitude.h **** // MESSAGE ATTITUDE UNPACKING
 270:Service/../MAVLink/common/./mavlink_msg_attitude.h **** 
 271:Service/../MAVLink/common/./mavlink_msg_attitude.h **** 
 272:Service/../MAVLink/common/./mavlink_msg_attitude.h **** /**
 273:Service/../MAVLink/common/./mavlink_msg_attitude.h ****  * @brief Get field time_boot_ms from attitude message
 274:Service/../MAVLink/common/./mavlink_msg_attitude.h ****  *
 275:Service/../MAVLink/common/./mavlink_msg_attitude.h ****  * @return [ms] Timestamp (time since system boot).
 276:Service/../MAVLink/common/./mavlink_msg_attitude.h ****  */
 277:Service/../MAVLink/common/./mavlink_msg_attitude.h **** static inline uint32_t mavlink_msg_attitude_get_time_boot_ms(const mavlink_message_t* msg)
 278:Service/../MAVLink/common/./mavlink_msg_attitude.h **** {
 279:Service/../MAVLink/common/./mavlink_msg_attitude.h ****     return _MAV_RETURN_uint32_t(msg,  0);
 280:Service/../MAVLink/common/./mavlink_msg_attitude.h **** }
 281:Service/../MAVLink/common/./mavlink_msg_attitude.h **** 
 282:Service/../MAVLink/common/./mavlink_msg_attitude.h **** /**
 283:Service/../MAVLink/common/./mavlink_msg_attitude.h ****  * @brief Get field roll from attitude message
 284:Service/../MAVLink/common/./mavlink_msg_attitude.h ****  *
 285:Service/../MAVLink/common/./mavlink_msg_attitude.h ****  * @return [rad] Roll angle (-pi..+pi)
 286:Service/../MAVLink/common/./mavlink_msg_attitude.h ****  */
ARM GAS  C:\Users\8bit\AppData\Local\Temp\ccCRhmZR.s 			page 40


 287:Service/../MAVLink/common/./mavlink_msg_attitude.h **** static inline float mavlink_msg_attitude_get_roll(const mavlink_message_t* msg)
 288:Service/../MAVLink/common/./mavlink_msg_attitude.h **** {
 289:Service/../MAVLink/common/./mavlink_msg_attitude.h ****     return _MAV_RETURN_float(msg,  4);
 290:Service/../MAVLink/common/./mavlink_msg_attitude.h **** }
 291:Service/../MAVLink/common/./mavlink_msg_attitude.h **** 
 292:Service/../MAVLink/common/./mavlink_msg_attitude.h **** /**
 293:Service/../MAVLink/common/./mavlink_msg_attitude.h ****  * @brief Get field pitch from attitude message
 294:Service/../MAVLink/common/./mavlink_msg_attitude.h ****  *
 295:Service/../MAVLink/common/./mavlink_msg_attitude.h ****  * @return [rad] Pitch angle (-pi..+pi)
 296:Service/../MAVLink/common/./mavlink_msg_attitude.h ****  */
 297:Service/../MAVLink/common/./mavlink_msg_attitude.h **** static inline float mavlink_msg_attitude_get_pitch(const mavlink_message_t* msg)
 298:Service/../MAVLink/common/./mavlink_msg_attitude.h **** {
 299:Service/../MAVLink/common/./mavlink_msg_attitude.h ****     return _MAV_RETURN_float(msg,  8);
 300:Service/../MAVLink/common/./mavlink_msg_attitude.h **** }
 301:Service/../MAVLink/common/./mavlink_msg_attitude.h **** 
 302:Service/../MAVLink/common/./mavlink_msg_attitude.h **** /**
 303:Service/../MAVLink/common/./mavlink_msg_attitude.h ****  * @brief Get field yaw from attitude message
 304:Service/../MAVLink/common/./mavlink_msg_attitude.h ****  *
 305:Service/../MAVLink/common/./mavlink_msg_attitude.h ****  * @return [rad] Yaw angle (-pi..+pi)
 306:Service/../MAVLink/common/./mavlink_msg_attitude.h ****  */
 307:Service/../MAVLink/common/./mavlink_msg_attitude.h **** static inline float mavlink_msg_attitude_get_yaw(const mavlink_message_t* msg)
 308:Service/../MAVLink/common/./mavlink_msg_attitude.h **** {
 309:Service/../MAVLink/common/./mavlink_msg_attitude.h ****     return _MAV_RETURN_float(msg,  12);
 310:Service/../MAVLink/common/./mavlink_msg_attitude.h **** }
 311:Service/../MAVLink/common/./mavlink_msg_attitude.h **** 
 312:Service/../MAVLink/common/./mavlink_msg_attitude.h **** /**
 313:Service/../MAVLink/common/./mavlink_msg_attitude.h ****  * @brief Get field rollspeed from attitude message
 314:Service/../MAVLink/common/./mavlink_msg_attitude.h ****  *
 315:Service/../MAVLink/common/./mavlink_msg_attitude.h ****  * @return [rad/s] Roll angular speed
 316:Service/../MAVLink/common/./mavlink_msg_attitude.h ****  */
 317:Service/../MAVLink/common/./mavlink_msg_attitude.h **** static inline float mavlink_msg_attitude_get_rollspeed(const mavlink_message_t* msg)
 318:Service/../MAVLink/common/./mavlink_msg_attitude.h **** {
 319:Service/../MAVLink/common/./mavlink_msg_attitude.h ****     return _MAV_RETURN_float(msg,  16);
 320:Service/../MAVLink/common/./mavlink_msg_attitude.h **** }
 321:Service/../MAVLink/common/./mavlink_msg_attitude.h **** 
 322:Service/../MAVLink/common/./mavlink_msg_attitude.h **** /**
 323:Service/../MAVLink/common/./mavlink_msg_attitude.h ****  * @brief Get field pitchspeed from attitude message
 324:Service/../MAVLink/common/./mavlink_msg_attitude.h ****  *
 325:Service/../MAVLink/common/./mavlink_msg_attitude.h ****  * @return [rad/s] Pitch angular speed
 326:Service/../MAVLink/common/./mavlink_msg_attitude.h ****  */
 327:Service/../MAVLink/common/./mavlink_msg_attitude.h **** static inline float mavlink_msg_attitude_get_pitchspeed(const mavlink_message_t* msg)
 328:Service/../MAVLink/common/./mavlink_msg_attitude.h **** {
 329:Service/../MAVLink/common/./mavlink_msg_attitude.h ****     return _MAV_RETURN_float(msg,  20);
 330:Service/../MAVLink/common/./mavlink_msg_attitude.h **** }
 331:Service/../MAVLink/common/./mavlink_msg_attitude.h **** 
 332:Service/../MAVLink/common/./mavlink_msg_attitude.h **** /**
 333:Service/../MAVLink/common/./mavlink_msg_attitude.h ****  * @brief Get field yawspeed from attitude message
 334:Service/../MAVLink/common/./mavlink_msg_attitude.h ****  *
 335:Service/../MAVLink/common/./mavlink_msg_attitude.h ****  * @return [rad/s] Yaw angular speed
 336:Service/../MAVLink/common/./mavlink_msg_attitude.h ****  */
 337:Service/../MAVLink/common/./mavlink_msg_attitude.h **** static inline float mavlink_msg_attitude_get_yawspeed(const mavlink_message_t* msg)
 338:Service/../MAVLink/common/./mavlink_msg_attitude.h **** {
 339:Service/../MAVLink/common/./mavlink_msg_attitude.h ****     return _MAV_RETURN_float(msg,  24);
 340:Service/../MAVLink/common/./mavlink_msg_attitude.h **** }
 341:Service/../MAVLink/common/./mavlink_msg_attitude.h **** 
 342:Service/../MAVLink/common/./mavlink_msg_attitude.h **** /**
 343:Service/../MAVLink/common/./mavlink_msg_attitude.h ****  * @brief Decode a attitude message into a struct
ARM GAS  C:\Users\8bit\AppData\Local\Temp\ccCRhmZR.s 			page 41


 344:Service/../MAVLink/common/./mavlink_msg_attitude.h ****  *
 345:Service/../MAVLink/common/./mavlink_msg_attitude.h ****  * @param msg The message to decode
 346:Service/../MAVLink/common/./mavlink_msg_attitude.h ****  * @param attitude C-struct to decode the message contents into
 347:Service/../MAVLink/common/./mavlink_msg_attitude.h ****  */
 348:Service/../MAVLink/common/./mavlink_msg_attitude.h **** static inline void mavlink_msg_attitude_decode(const mavlink_message_t* msg, mavlink_attitude_t* at
 806              		.loc 4 348 20 view .LVU235
 807              	.LBB52:
 349:Service/../MAVLink/common/./mavlink_msg_attitude.h **** {
 350:Service/../MAVLink/common/./mavlink_msg_attitude.h **** #if MAVLINK_NEED_BYTE_SWAP || !MAVLINK_ALIGNED_FIELDS
 351:Service/../MAVLink/common/./mavlink_msg_attitude.h ****     attitude->time_boot_ms = mavlink_msg_attitude_get_time_boot_ms(msg);
 352:Service/../MAVLink/common/./mavlink_msg_attitude.h ****     attitude->roll = mavlink_msg_attitude_get_roll(msg);
 353:Service/../MAVLink/common/./mavlink_msg_attitude.h ****     attitude->pitch = mavlink_msg_attitude_get_pitch(msg);
 354:Service/../MAVLink/common/./mavlink_msg_attitude.h ****     attitude->yaw = mavlink_msg_attitude_get_yaw(msg);
 355:Service/../MAVLink/common/./mavlink_msg_attitude.h ****     attitude->rollspeed = mavlink_msg_attitude_get_rollspeed(msg);
 356:Service/../MAVLink/common/./mavlink_msg_attitude.h ****     attitude->pitchspeed = mavlink_msg_attitude_get_pitchspeed(msg);
 357:Service/../MAVLink/common/./mavlink_msg_attitude.h ****     attitude->yawspeed = mavlink_msg_attitude_get_yawspeed(msg);
 358:Service/../MAVLink/common/./mavlink_msg_attitude.h **** #else
 359:Service/../MAVLink/common/./mavlink_msg_attitude.h ****         uint8_t len = msg->len < MAVLINK_MSG_ID_ATTITUDE_LEN? msg->len : MAVLINK_MSG_ID_ATTITUDE_LE
 808              		.loc 4 359 9 view .LVU236
 809              		.loc 4 359 26 is_stmt 0 view .LVU237
 810 0028 9DF82F20 		ldrb	r2, [sp, #47]	@ zero_extendqisi2
 811              	.LVL48:
 360:Service/../MAVLink/common/./mavlink_msg_attitude.h ****         memset(attitude, 0, MAVLINK_MSG_ID_ATTITUDE_LEN);
 812              		.loc 4 360 9 is_stmt 1 view .LVU238
 361:Service/../MAVLink/common/./mavlink_msg_attitude.h ****     memcpy(attitude, _MAV_PAYLOAD(msg), len);
 813              		.loc 4 361 5 view .LVU239
 814 002c 1C2A     		cmp	r2, #28
 815 002e 28BF     		it	cs
 816 0030 1C22     		movcs	r2, #28
 817              	.LVL49:
 818              		.loc 4 361 5 is_stmt 0 view .LVU240
 819 0032 0DA9     		add	r1, sp, #52
 820 0034 01A8     		add	r0, sp, #4
 821 0036 FFF7FEFF 		bl	memcpy
 822              	.LVL50:
 823              		.loc 4 361 5 view .LVU241
 824              	.LBE52:
 825              	.LBE51:
 358:Service/Srv_ComProto.c ****             return obj->MavMsg_Att_Callback(&msg_att, obj->cus_p_att);
 826              		.loc 1 358 9 is_stmt 1 view .LVU242
 358:Service/Srv_ComProto.c ****             return obj->MavMsg_Att_Callback(&msg_att, obj->cus_p_att);
 827              		.loc 1 358 16 is_stmt 0 view .LVU243
 828 003a A36E     		ldr	r3, [r4, #104]
 358:Service/Srv_ComProto.c ****             return obj->MavMsg_Att_Callback(&msg_att, obj->cus_p_att);
 829              		.loc 1 358 12 view .LVU244
 830 003c 4BB1     		cbz	r3, .L59
 359:Service/Srv_ComProto.c ****     }
 831              		.loc 1 359 13 is_stmt 1 view .LVU245
 359:Service/Srv_ComProto.c ****     }
 832              		.loc 1 359 20 is_stmt 0 view .LVU246
 833 003e A168     		ldr	r1, [r4, #8]
 834 0040 01A8     		add	r0, sp, #4
 835 0042 9847     		blx	r3
 836              	.LVL51:
 837 0044 00E0     		b	.L57
 838              	.LVL52:
 839              	.L58:
ARM GAS  C:\Users\8bit\AppData\Local\Temp\ccCRhmZR.s 			page 42


 362:Service/Srv_ComProto.c **** }
 840              		.loc 1 362 12 view .LVU247
 841 0046 0020     		movs	r0, #0
 842              	.LVL53:
 843              	.L57:
 363:Service/Srv_ComProto.c **** 
 844              		.loc 1 363 1 view .LVU248
 845 0048 08B0     		add	sp, sp, #32
 846              	.LCFI17:
 847              		.cfi_remember_state
 848              		.cfi_def_cfa_offset 24
 849              		@ sp needed
 850 004a BDE81040 		pop	{r4, lr}
 851              	.LCFI18:
 852              		.cfi_restore 14
 853              		.cfi_restore 4
 854              		.cfi_def_cfa_offset 16
 855 004e 04B0     		add	sp, sp, #16
 856              	.LCFI19:
 857              		.cfi_def_cfa_offset 0
 858 0050 7047     		bx	lr
 859              	.LVL54:
 860              	.L59:
 861              	.LCFI20:
 862              		.cfi_restore_state
 362:Service/Srv_ComProto.c **** }
 863              		.loc 1 362 12 view .LVU249
 864 0052 0020     		movs	r0, #0
 865 0054 F8E7     		b	.L57
 866              		.cfi_endproc
 867              	.LFE2087:
 869              		.section	.text.SrvComProto_MavMsg_Decode_ExpAlt,"ax",%progbits
 870              		.align	1
 871              		.syntax unified
 872              		.thumb
 873              		.thumb_func
 875              	SrvComProto_MavMsg_Decode_ExpAlt:
 876              	.LVL55:
 877              	.LFB2089:
 382:Service/Srv_ComProto.c **** 
 383:Service/Srv_ComProto.c **** static bool SrvComProto_MavMsg_Decode_ExpAlt(SrvComProto_MsgObj_TypeDef *obj, const mavlink_message
 384:Service/Srv_ComProto.c **** {
 878              		.loc 1 384 1 is_stmt 1 view -0
 879              		.cfi_startproc
 880              		@ args = 276, pretend = 16, frame = 32
 881              		@ frame_needed = 0, uses_anonymous_args = 0
 882              		.loc 1 384 1 is_stmt 0 view .LVU251
 883 0000 84B0     		sub	sp, sp, #16
 884              	.LCFI21:
 885              		.cfi_def_cfa_offset 16
 886 0002 70B5     		push	{r4, r5, r6, lr}
 887              	.LCFI22:
 888              		.cfi_def_cfa_offset 32
 889              		.cfi_offset 4, -32
 890              		.cfi_offset 5, -28
 891              		.cfi_offset 6, -24
 892              		.cfi_offset 14, -20
ARM GAS  C:\Users\8bit\AppData\Local\Temp\ccCRhmZR.s 			page 43


 893 0004 88B0     		sub	sp, sp, #32
 894              	.LCFI23:
 895              		.cfi_def_cfa_offset 64
 896 0006 0DF1340C 		add	ip, sp, #52
 897 000a 8CE80E00 		stm	ip, {r1, r2, r3}
 385:Service/Srv_ComProto.c ****     mavlink_altitude_t msg_alt;
 898              		.loc 1 385 5 is_stmt 1 view .LVU252
 386:Service/Srv_ComProto.c **** 
 387:Service/Srv_ComProto.c ****     if (obj)
 899              		.loc 1 387 5 view .LVU253
 900              		.loc 1 387 8 is_stmt 0 view .LVU254
 901 000e F0B1     		cbz	r0, .L63
 902 0010 0446     		mov	r4, r0
 388:Service/Srv_ComProto.c ****     {
 389:Service/Srv_ComProto.c ****         obj->Alt_Cnt ++;
 903              		.loc 1 389 9 is_stmt 1 view .LVU255
 904              		.loc 1 389 12 is_stmt 0 view .LVU256
 905 0012 C36B     		ldr	r3, [r0, #60]
 906              		.loc 1 389 22 view .LVU257
 907 0014 0133     		adds	r3, r3, #1
 908 0016 C363     		str	r3, [r0, #60]
 390:Service/Srv_ComProto.c **** 
 391:Service/Srv_ComProto.c ****         memset(&msg_alt, 0, sizeof(mavlink_altitude_t));
 909              		.loc 1 391 9 is_stmt 1 view .LVU258
 910 0018 2026     		movs	r6, #32
 911 001a 3246     		mov	r2, r6
 912 001c 0021     		movs	r1, #0
 913 001e 6846     		mov	r0, sp
 914 0020 FFF7FEFF 		bl	memset
 915              	.LVL56:
 392:Service/Srv_ComProto.c ****         mavlink_msg_altitude_decode(&msg, &msg_alt);
 916              		.loc 1 392 9 view .LVU259
 917              	.LBB55:
 918              	.LBI55:
 919              		.file 5 "Service/../MAVLink/common/./mavlink_msg_altitude.h"
   1:Service/../MAVLink/common/./mavlink_msg_altitude.h **** #pragma once
   2:Service/../MAVLink/common/./mavlink_msg_altitude.h **** // MESSAGE ALTITUDE PACKING
   3:Service/../MAVLink/common/./mavlink_msg_altitude.h **** 
   4:Service/../MAVLink/common/./mavlink_msg_altitude.h **** #define MAVLINK_MSG_ID_ALTITUDE 141
   5:Service/../MAVLink/common/./mavlink_msg_altitude.h **** 
   6:Service/../MAVLink/common/./mavlink_msg_altitude.h **** 
   7:Service/../MAVLink/common/./mavlink_msg_altitude.h **** typedef struct __mavlink_altitude_t {
   8:Service/../MAVLink/common/./mavlink_msg_altitude.h ****  uint64_t time_usec; /*< [us] Timestamp (UNIX Epoch time or time since system boot). The receiving 
   9:Service/../MAVLink/common/./mavlink_msg_altitude.h ****  float altitude_monotonic; /*< [m] This altitude measure is initialized on system boot and monotoni
  10:Service/../MAVLink/common/./mavlink_msg_altitude.h ****  float altitude_amsl; /*< [m] This altitude measure is strictly above mean sea level and might be n
  11:Service/../MAVLink/common/./mavlink_msg_altitude.h ****  float altitude_local; /*< [m] This is the local altitude in the local coordinate frame. It is not 
  12:Service/../MAVLink/common/./mavlink_msg_altitude.h ****  float altitude_relative; /*< [m] This is the altitude above the home position. It resets on each c
  13:Service/../MAVLink/common/./mavlink_msg_altitude.h ****  float altitude_terrain; /*< [m] This is the altitude above terrain. It might be fed by a terrain d
  14:Service/../MAVLink/common/./mavlink_msg_altitude.h ****  float bottom_clearance; /*< [m] This is not the altitude, but the clear space below the system acc
  15:Service/../MAVLink/common/./mavlink_msg_altitude.h **** } mavlink_altitude_t;
  16:Service/../MAVLink/common/./mavlink_msg_altitude.h **** 
  17:Service/../MAVLink/common/./mavlink_msg_altitude.h **** #define MAVLINK_MSG_ID_ALTITUDE_LEN 32
  18:Service/../MAVLink/common/./mavlink_msg_altitude.h **** #define MAVLINK_MSG_ID_ALTITUDE_MIN_LEN 32
  19:Service/../MAVLink/common/./mavlink_msg_altitude.h **** #define MAVLINK_MSG_ID_141_LEN 32
  20:Service/../MAVLink/common/./mavlink_msg_altitude.h **** #define MAVLINK_MSG_ID_141_MIN_LEN 32
  21:Service/../MAVLink/common/./mavlink_msg_altitude.h **** 
  22:Service/../MAVLink/common/./mavlink_msg_altitude.h **** #define MAVLINK_MSG_ID_ALTITUDE_CRC 47
ARM GAS  C:\Users\8bit\AppData\Local\Temp\ccCRhmZR.s 			page 44


  23:Service/../MAVLink/common/./mavlink_msg_altitude.h **** #define MAVLINK_MSG_ID_141_CRC 47
  24:Service/../MAVLink/common/./mavlink_msg_altitude.h **** 
  25:Service/../MAVLink/common/./mavlink_msg_altitude.h **** 
  26:Service/../MAVLink/common/./mavlink_msg_altitude.h **** 
  27:Service/../MAVLink/common/./mavlink_msg_altitude.h **** #if MAVLINK_COMMAND_24BIT
  28:Service/../MAVLink/common/./mavlink_msg_altitude.h **** #define MAVLINK_MESSAGE_INFO_ALTITUDE { \
  29:Service/../MAVLink/common/./mavlink_msg_altitude.h ****     141, \
  30:Service/../MAVLink/common/./mavlink_msg_altitude.h ****     "ALTITUDE", \
  31:Service/../MAVLink/common/./mavlink_msg_altitude.h ****     7, \
  32:Service/../MAVLink/common/./mavlink_msg_altitude.h ****     {  { "time_usec", NULL, MAVLINK_TYPE_UINT64_T, 0, 0, offsetof(mavlink_altitude_t, time_usec) },
  33:Service/../MAVLink/common/./mavlink_msg_altitude.h ****          { "altitude_monotonic", NULL, MAVLINK_TYPE_FLOAT, 0, 8, offsetof(mavlink_altitude_t, altit
  34:Service/../MAVLink/common/./mavlink_msg_altitude.h ****          { "altitude_amsl", NULL, MAVLINK_TYPE_FLOAT, 0, 12, offsetof(mavlink_altitude_t, altitude_
  35:Service/../MAVLink/common/./mavlink_msg_altitude.h ****          { "altitude_local", NULL, MAVLINK_TYPE_FLOAT, 0, 16, offsetof(mavlink_altitude_t, altitude
  36:Service/../MAVLink/common/./mavlink_msg_altitude.h ****          { "altitude_relative", NULL, MAVLINK_TYPE_FLOAT, 0, 20, offsetof(mavlink_altitude_t, altit
  37:Service/../MAVLink/common/./mavlink_msg_altitude.h ****          { "altitude_terrain", NULL, MAVLINK_TYPE_FLOAT, 0, 24, offsetof(mavlink_altitude_t, altitu
  38:Service/../MAVLink/common/./mavlink_msg_altitude.h ****          { "bottom_clearance", NULL, MAVLINK_TYPE_FLOAT, 0, 28, offsetof(mavlink_altitude_t, bottom
  39:Service/../MAVLink/common/./mavlink_msg_altitude.h ****          } \
  40:Service/../MAVLink/common/./mavlink_msg_altitude.h **** }
  41:Service/../MAVLink/common/./mavlink_msg_altitude.h **** #else
  42:Service/../MAVLink/common/./mavlink_msg_altitude.h **** #define MAVLINK_MESSAGE_INFO_ALTITUDE { \
  43:Service/../MAVLink/common/./mavlink_msg_altitude.h ****     "ALTITUDE", \
  44:Service/../MAVLink/common/./mavlink_msg_altitude.h ****     7, \
  45:Service/../MAVLink/common/./mavlink_msg_altitude.h ****     {  { "time_usec", NULL, MAVLINK_TYPE_UINT64_T, 0, 0, offsetof(mavlink_altitude_t, time_usec) },
  46:Service/../MAVLink/common/./mavlink_msg_altitude.h ****          { "altitude_monotonic", NULL, MAVLINK_TYPE_FLOAT, 0, 8, offsetof(mavlink_altitude_t, altit
  47:Service/../MAVLink/common/./mavlink_msg_altitude.h ****          { "altitude_amsl", NULL, MAVLINK_TYPE_FLOAT, 0, 12, offsetof(mavlink_altitude_t, altitude_
  48:Service/../MAVLink/common/./mavlink_msg_altitude.h ****          { "altitude_local", NULL, MAVLINK_TYPE_FLOAT, 0, 16, offsetof(mavlink_altitude_t, altitude
  49:Service/../MAVLink/common/./mavlink_msg_altitude.h ****          { "altitude_relative", NULL, MAVLINK_TYPE_FLOAT, 0, 20, offsetof(mavlink_altitude_t, altit
  50:Service/../MAVLink/common/./mavlink_msg_altitude.h ****          { "altitude_terrain", NULL, MAVLINK_TYPE_FLOAT, 0, 24, offsetof(mavlink_altitude_t, altitu
  51:Service/../MAVLink/common/./mavlink_msg_altitude.h ****          { "bottom_clearance", NULL, MAVLINK_TYPE_FLOAT, 0, 28, offsetof(mavlink_altitude_t, bottom
  52:Service/../MAVLink/common/./mavlink_msg_altitude.h ****          } \
  53:Service/../MAVLink/common/./mavlink_msg_altitude.h **** }
  54:Service/../MAVLink/common/./mavlink_msg_altitude.h **** #endif
  55:Service/../MAVLink/common/./mavlink_msg_altitude.h **** 
  56:Service/../MAVLink/common/./mavlink_msg_altitude.h **** /**
  57:Service/../MAVLink/common/./mavlink_msg_altitude.h ****  * @brief Pack a altitude message
  58:Service/../MAVLink/common/./mavlink_msg_altitude.h ****  * @param system_id ID of this system
  59:Service/../MAVLink/common/./mavlink_msg_altitude.h ****  * @param component_id ID of this component (e.g. 200 for IMU)
  60:Service/../MAVLink/common/./mavlink_msg_altitude.h ****  * @param msg The MAVLink message to compress the data into
  61:Service/../MAVLink/common/./mavlink_msg_altitude.h ****  *
  62:Service/../MAVLink/common/./mavlink_msg_altitude.h ****  * @param time_usec [us] Timestamp (UNIX Epoch time or time since system boot). The receiving end c
  63:Service/../MAVLink/common/./mavlink_msg_altitude.h ****  * @param altitude_monotonic [m] This altitude measure is initialized on system boot and monotonic 
  64:Service/../MAVLink/common/./mavlink_msg_altitude.h ****  * @param altitude_amsl [m] This altitude measure is strictly above mean sea level and might be non
  65:Service/../MAVLink/common/./mavlink_msg_altitude.h ****  * @param altitude_local [m] This is the local altitude in the local coordinate frame. It is not th
  66:Service/../MAVLink/common/./mavlink_msg_altitude.h ****  * @param altitude_relative [m] This is the altitude above the home position. It resets on each cha
  67:Service/../MAVLink/common/./mavlink_msg_altitude.h ****  * @param altitude_terrain [m] This is the altitude above terrain. It might be fed by a terrain dat
  68:Service/../MAVLink/common/./mavlink_msg_altitude.h ****  * @param bottom_clearance [m] This is not the altitude, but the clear space below the system accor
  69:Service/../MAVLink/common/./mavlink_msg_altitude.h ****  * @return length of the message in bytes (excluding serial stream start sign)
  70:Service/../MAVLink/common/./mavlink_msg_altitude.h ****  */
  71:Service/../MAVLink/common/./mavlink_msg_altitude.h **** static inline uint16_t mavlink_msg_altitude_pack(uint8_t system_id, uint8_t component_id, mavlink_m
  72:Service/../MAVLink/common/./mavlink_msg_altitude.h ****                                uint64_t time_usec, float altitude_monotonic, float altitude_amsl, f
  73:Service/../MAVLink/common/./mavlink_msg_altitude.h **** {
  74:Service/../MAVLink/common/./mavlink_msg_altitude.h **** #if MAVLINK_NEED_BYTE_SWAP || !MAVLINK_ALIGNED_FIELDS
  75:Service/../MAVLink/common/./mavlink_msg_altitude.h ****     char buf[MAVLINK_MSG_ID_ALTITUDE_LEN];
  76:Service/../MAVLink/common/./mavlink_msg_altitude.h ****     _mav_put_uint64_t(buf, 0, time_usec);
  77:Service/../MAVLink/common/./mavlink_msg_altitude.h ****     _mav_put_float(buf, 8, altitude_monotonic);
  78:Service/../MAVLink/common/./mavlink_msg_altitude.h ****     _mav_put_float(buf, 12, altitude_amsl);
  79:Service/../MAVLink/common/./mavlink_msg_altitude.h ****     _mav_put_float(buf, 16, altitude_local);
ARM GAS  C:\Users\8bit\AppData\Local\Temp\ccCRhmZR.s 			page 45


  80:Service/../MAVLink/common/./mavlink_msg_altitude.h ****     _mav_put_float(buf, 20, altitude_relative);
  81:Service/../MAVLink/common/./mavlink_msg_altitude.h ****     _mav_put_float(buf, 24, altitude_terrain);
  82:Service/../MAVLink/common/./mavlink_msg_altitude.h ****     _mav_put_float(buf, 28, bottom_clearance);
  83:Service/../MAVLink/common/./mavlink_msg_altitude.h **** 
  84:Service/../MAVLink/common/./mavlink_msg_altitude.h ****         memcpy(_MAV_PAYLOAD_NON_CONST(msg), buf, MAVLINK_MSG_ID_ALTITUDE_LEN);
  85:Service/../MAVLink/common/./mavlink_msg_altitude.h **** #else
  86:Service/../MAVLink/common/./mavlink_msg_altitude.h ****     mavlink_altitude_t packet;
  87:Service/../MAVLink/common/./mavlink_msg_altitude.h ****     packet.time_usec = time_usec;
  88:Service/../MAVLink/common/./mavlink_msg_altitude.h ****     packet.altitude_monotonic = altitude_monotonic;
  89:Service/../MAVLink/common/./mavlink_msg_altitude.h ****     packet.altitude_amsl = altitude_amsl;
  90:Service/../MAVLink/common/./mavlink_msg_altitude.h ****     packet.altitude_local = altitude_local;
  91:Service/../MAVLink/common/./mavlink_msg_altitude.h ****     packet.altitude_relative = altitude_relative;
  92:Service/../MAVLink/common/./mavlink_msg_altitude.h ****     packet.altitude_terrain = altitude_terrain;
  93:Service/../MAVLink/common/./mavlink_msg_altitude.h ****     packet.bottom_clearance = bottom_clearance;
  94:Service/../MAVLink/common/./mavlink_msg_altitude.h **** 
  95:Service/../MAVLink/common/./mavlink_msg_altitude.h ****         memcpy(_MAV_PAYLOAD_NON_CONST(msg), &packet, MAVLINK_MSG_ID_ALTITUDE_LEN);
  96:Service/../MAVLink/common/./mavlink_msg_altitude.h **** #endif
  97:Service/../MAVLink/common/./mavlink_msg_altitude.h **** 
  98:Service/../MAVLink/common/./mavlink_msg_altitude.h ****     msg->msgid = MAVLINK_MSG_ID_ALTITUDE;
  99:Service/../MAVLink/common/./mavlink_msg_altitude.h ****     return mavlink_finalize_message(msg, system_id, component_id, MAVLINK_MSG_ID_ALTITUDE_MIN_LEN, 
 100:Service/../MAVLink/common/./mavlink_msg_altitude.h **** }
 101:Service/../MAVLink/common/./mavlink_msg_altitude.h **** 
 102:Service/../MAVLink/common/./mavlink_msg_altitude.h **** /**
 103:Service/../MAVLink/common/./mavlink_msg_altitude.h ****  * @brief Pack a altitude message on a channel
 104:Service/../MAVLink/common/./mavlink_msg_altitude.h ****  * @param system_id ID of this system
 105:Service/../MAVLink/common/./mavlink_msg_altitude.h ****  * @param component_id ID of this component (e.g. 200 for IMU)
 106:Service/../MAVLink/common/./mavlink_msg_altitude.h ****  * @param chan The MAVLink channel this message will be sent over
 107:Service/../MAVLink/common/./mavlink_msg_altitude.h ****  * @param msg The MAVLink message to compress the data into
 108:Service/../MAVLink/common/./mavlink_msg_altitude.h ****  * @param time_usec [us] Timestamp (UNIX Epoch time or time since system boot). The receiving end c
 109:Service/../MAVLink/common/./mavlink_msg_altitude.h ****  * @param altitude_monotonic [m] This altitude measure is initialized on system boot and monotonic 
 110:Service/../MAVLink/common/./mavlink_msg_altitude.h ****  * @param altitude_amsl [m] This altitude measure is strictly above mean sea level and might be non
 111:Service/../MAVLink/common/./mavlink_msg_altitude.h ****  * @param altitude_local [m] This is the local altitude in the local coordinate frame. It is not th
 112:Service/../MAVLink/common/./mavlink_msg_altitude.h ****  * @param altitude_relative [m] This is the altitude above the home position. It resets on each cha
 113:Service/../MAVLink/common/./mavlink_msg_altitude.h ****  * @param altitude_terrain [m] This is the altitude above terrain. It might be fed by a terrain dat
 114:Service/../MAVLink/common/./mavlink_msg_altitude.h ****  * @param bottom_clearance [m] This is not the altitude, but the clear space below the system accor
 115:Service/../MAVLink/common/./mavlink_msg_altitude.h ****  * @return length of the message in bytes (excluding serial stream start sign)
 116:Service/../MAVLink/common/./mavlink_msg_altitude.h ****  */
 117:Service/../MAVLink/common/./mavlink_msg_altitude.h **** static inline uint16_t mavlink_msg_altitude_pack_chan(uint8_t system_id, uint8_t component_id, uint
 118:Service/../MAVLink/common/./mavlink_msg_altitude.h ****                                mavlink_message_t* msg,
 119:Service/../MAVLink/common/./mavlink_msg_altitude.h ****                                    uint64_t time_usec,float altitude_monotonic,float altitude_amsl,
 120:Service/../MAVLink/common/./mavlink_msg_altitude.h **** {
 121:Service/../MAVLink/common/./mavlink_msg_altitude.h **** #if MAVLINK_NEED_BYTE_SWAP || !MAVLINK_ALIGNED_FIELDS
 122:Service/../MAVLink/common/./mavlink_msg_altitude.h ****     char buf[MAVLINK_MSG_ID_ALTITUDE_LEN];
 123:Service/../MAVLink/common/./mavlink_msg_altitude.h ****     _mav_put_uint64_t(buf, 0, time_usec);
 124:Service/../MAVLink/common/./mavlink_msg_altitude.h ****     _mav_put_float(buf, 8, altitude_monotonic);
 125:Service/../MAVLink/common/./mavlink_msg_altitude.h ****     _mav_put_float(buf, 12, altitude_amsl);
 126:Service/../MAVLink/common/./mavlink_msg_altitude.h ****     _mav_put_float(buf, 16, altitude_local);
 127:Service/../MAVLink/common/./mavlink_msg_altitude.h ****     _mav_put_float(buf, 20, altitude_relative);
 128:Service/../MAVLink/common/./mavlink_msg_altitude.h ****     _mav_put_float(buf, 24, altitude_terrain);
 129:Service/../MAVLink/common/./mavlink_msg_altitude.h ****     _mav_put_float(buf, 28, bottom_clearance);
 130:Service/../MAVLink/common/./mavlink_msg_altitude.h **** 
 131:Service/../MAVLink/common/./mavlink_msg_altitude.h ****         memcpy(_MAV_PAYLOAD_NON_CONST(msg), buf, MAVLINK_MSG_ID_ALTITUDE_LEN);
 132:Service/../MAVLink/common/./mavlink_msg_altitude.h **** #else
 133:Service/../MAVLink/common/./mavlink_msg_altitude.h ****     mavlink_altitude_t packet;
 134:Service/../MAVLink/common/./mavlink_msg_altitude.h ****     packet.time_usec = time_usec;
 135:Service/../MAVLink/common/./mavlink_msg_altitude.h ****     packet.altitude_monotonic = altitude_monotonic;
 136:Service/../MAVLink/common/./mavlink_msg_altitude.h ****     packet.altitude_amsl = altitude_amsl;
ARM GAS  C:\Users\8bit\AppData\Local\Temp\ccCRhmZR.s 			page 46


 137:Service/../MAVLink/common/./mavlink_msg_altitude.h ****     packet.altitude_local = altitude_local;
 138:Service/../MAVLink/common/./mavlink_msg_altitude.h ****     packet.altitude_relative = altitude_relative;
 139:Service/../MAVLink/common/./mavlink_msg_altitude.h ****     packet.altitude_terrain = altitude_terrain;
 140:Service/../MAVLink/common/./mavlink_msg_altitude.h ****     packet.bottom_clearance = bottom_clearance;
 141:Service/../MAVLink/common/./mavlink_msg_altitude.h **** 
 142:Service/../MAVLink/common/./mavlink_msg_altitude.h ****         memcpy(_MAV_PAYLOAD_NON_CONST(msg), &packet, MAVLINK_MSG_ID_ALTITUDE_LEN);
 143:Service/../MAVLink/common/./mavlink_msg_altitude.h **** #endif
 144:Service/../MAVLink/common/./mavlink_msg_altitude.h **** 
 145:Service/../MAVLink/common/./mavlink_msg_altitude.h ****     msg->msgid = MAVLINK_MSG_ID_ALTITUDE;
 146:Service/../MAVLink/common/./mavlink_msg_altitude.h ****     return mavlink_finalize_message_chan(msg, system_id, component_id, chan, MAVLINK_MSG_ID_ALTITUD
 147:Service/../MAVLink/common/./mavlink_msg_altitude.h **** }
 148:Service/../MAVLink/common/./mavlink_msg_altitude.h **** 
 149:Service/../MAVLink/common/./mavlink_msg_altitude.h **** /**
 150:Service/../MAVLink/common/./mavlink_msg_altitude.h ****  * @brief Encode a altitude struct
 151:Service/../MAVLink/common/./mavlink_msg_altitude.h ****  *
 152:Service/../MAVLink/common/./mavlink_msg_altitude.h ****  * @param system_id ID of this system
 153:Service/../MAVLink/common/./mavlink_msg_altitude.h ****  * @param component_id ID of this component (e.g. 200 for IMU)
 154:Service/../MAVLink/common/./mavlink_msg_altitude.h ****  * @param msg The MAVLink message to compress the data into
 155:Service/../MAVLink/common/./mavlink_msg_altitude.h ****  * @param altitude C-struct to read the message contents from
 156:Service/../MAVLink/common/./mavlink_msg_altitude.h ****  */
 157:Service/../MAVLink/common/./mavlink_msg_altitude.h **** static inline uint16_t mavlink_msg_altitude_encode(uint8_t system_id, uint8_t component_id, mavlink
 158:Service/../MAVLink/common/./mavlink_msg_altitude.h **** {
 159:Service/../MAVLink/common/./mavlink_msg_altitude.h ****     return mavlink_msg_altitude_pack(system_id, component_id, msg, altitude->time_usec, altitude->a
 160:Service/../MAVLink/common/./mavlink_msg_altitude.h **** }
 161:Service/../MAVLink/common/./mavlink_msg_altitude.h **** 
 162:Service/../MAVLink/common/./mavlink_msg_altitude.h **** /**
 163:Service/../MAVLink/common/./mavlink_msg_altitude.h ****  * @brief Encode a altitude struct on a channel
 164:Service/../MAVLink/common/./mavlink_msg_altitude.h ****  *
 165:Service/../MAVLink/common/./mavlink_msg_altitude.h ****  * @param system_id ID of this system
 166:Service/../MAVLink/common/./mavlink_msg_altitude.h ****  * @param component_id ID of this component (e.g. 200 for IMU)
 167:Service/../MAVLink/common/./mavlink_msg_altitude.h ****  * @param chan The MAVLink channel this message will be sent over
 168:Service/../MAVLink/common/./mavlink_msg_altitude.h ****  * @param msg The MAVLink message to compress the data into
 169:Service/../MAVLink/common/./mavlink_msg_altitude.h ****  * @param altitude C-struct to read the message contents from
 170:Service/../MAVLink/common/./mavlink_msg_altitude.h ****  */
 171:Service/../MAVLink/common/./mavlink_msg_altitude.h **** static inline uint16_t mavlink_msg_altitude_encode_chan(uint8_t system_id, uint8_t component_id, ui
 172:Service/../MAVLink/common/./mavlink_msg_altitude.h **** {
 173:Service/../MAVLink/common/./mavlink_msg_altitude.h ****     return mavlink_msg_altitude_pack_chan(system_id, component_id, chan, msg, altitude->time_usec, 
 174:Service/../MAVLink/common/./mavlink_msg_altitude.h **** }
 175:Service/../MAVLink/common/./mavlink_msg_altitude.h **** 
 176:Service/../MAVLink/common/./mavlink_msg_altitude.h **** /**
 177:Service/../MAVLink/common/./mavlink_msg_altitude.h ****  * @brief Send a altitude message
 178:Service/../MAVLink/common/./mavlink_msg_altitude.h ****  * @param chan MAVLink channel to send the message
 179:Service/../MAVLink/common/./mavlink_msg_altitude.h ****  *
 180:Service/../MAVLink/common/./mavlink_msg_altitude.h ****  * @param time_usec [us] Timestamp (UNIX Epoch time or time since system boot). The receiving end c
 181:Service/../MAVLink/common/./mavlink_msg_altitude.h ****  * @param altitude_monotonic [m] This altitude measure is initialized on system boot and monotonic 
 182:Service/../MAVLink/common/./mavlink_msg_altitude.h ****  * @param altitude_amsl [m] This altitude measure is strictly above mean sea level and might be non
 183:Service/../MAVLink/common/./mavlink_msg_altitude.h ****  * @param altitude_local [m] This is the local altitude in the local coordinate frame. It is not th
 184:Service/../MAVLink/common/./mavlink_msg_altitude.h ****  * @param altitude_relative [m] This is the altitude above the home position. It resets on each cha
 185:Service/../MAVLink/common/./mavlink_msg_altitude.h ****  * @param altitude_terrain [m] This is the altitude above terrain. It might be fed by a terrain dat
 186:Service/../MAVLink/common/./mavlink_msg_altitude.h ****  * @param bottom_clearance [m] This is not the altitude, but the clear space below the system accor
 187:Service/../MAVLink/common/./mavlink_msg_altitude.h ****  */
 188:Service/../MAVLink/common/./mavlink_msg_altitude.h **** #ifdef MAVLINK_USE_CONVENIENCE_FUNCTIONS
 189:Service/../MAVLink/common/./mavlink_msg_altitude.h **** 
 190:Service/../MAVLink/common/./mavlink_msg_altitude.h **** static inline void mavlink_msg_altitude_send(mavlink_channel_t chan, uint64_t time_usec, float alti
 191:Service/../MAVLink/common/./mavlink_msg_altitude.h **** {
 192:Service/../MAVLink/common/./mavlink_msg_altitude.h **** #if MAVLINK_NEED_BYTE_SWAP || !MAVLINK_ALIGNED_FIELDS
 193:Service/../MAVLink/common/./mavlink_msg_altitude.h ****     char buf[MAVLINK_MSG_ID_ALTITUDE_LEN];
ARM GAS  C:\Users\8bit\AppData\Local\Temp\ccCRhmZR.s 			page 47


 194:Service/../MAVLink/common/./mavlink_msg_altitude.h ****     _mav_put_uint64_t(buf, 0, time_usec);
 195:Service/../MAVLink/common/./mavlink_msg_altitude.h ****     _mav_put_float(buf, 8, altitude_monotonic);
 196:Service/../MAVLink/common/./mavlink_msg_altitude.h ****     _mav_put_float(buf, 12, altitude_amsl);
 197:Service/../MAVLink/common/./mavlink_msg_altitude.h ****     _mav_put_float(buf, 16, altitude_local);
 198:Service/../MAVLink/common/./mavlink_msg_altitude.h ****     _mav_put_float(buf, 20, altitude_relative);
 199:Service/../MAVLink/common/./mavlink_msg_altitude.h ****     _mav_put_float(buf, 24, altitude_terrain);
 200:Service/../MAVLink/common/./mavlink_msg_altitude.h ****     _mav_put_float(buf, 28, bottom_clearance);
 201:Service/../MAVLink/common/./mavlink_msg_altitude.h **** 
 202:Service/../MAVLink/common/./mavlink_msg_altitude.h ****     _mav_finalize_message_chan_send(chan, MAVLINK_MSG_ID_ALTITUDE, buf, MAVLINK_MSG_ID_ALTITUDE_MIN
 203:Service/../MAVLink/common/./mavlink_msg_altitude.h **** #else
 204:Service/../MAVLink/common/./mavlink_msg_altitude.h ****     mavlink_altitude_t packet;
 205:Service/../MAVLink/common/./mavlink_msg_altitude.h ****     packet.time_usec = time_usec;
 206:Service/../MAVLink/common/./mavlink_msg_altitude.h ****     packet.altitude_monotonic = altitude_monotonic;
 207:Service/../MAVLink/common/./mavlink_msg_altitude.h ****     packet.altitude_amsl = altitude_amsl;
 208:Service/../MAVLink/common/./mavlink_msg_altitude.h ****     packet.altitude_local = altitude_local;
 209:Service/../MAVLink/common/./mavlink_msg_altitude.h ****     packet.altitude_relative = altitude_relative;
 210:Service/../MAVLink/common/./mavlink_msg_altitude.h ****     packet.altitude_terrain = altitude_terrain;
 211:Service/../MAVLink/common/./mavlink_msg_altitude.h ****     packet.bottom_clearance = bottom_clearance;
 212:Service/../MAVLink/common/./mavlink_msg_altitude.h **** 
 213:Service/../MAVLink/common/./mavlink_msg_altitude.h ****     _mav_finalize_message_chan_send(chan, MAVLINK_MSG_ID_ALTITUDE, (const char *)&packet, MAVLINK_M
 214:Service/../MAVLink/common/./mavlink_msg_altitude.h **** #endif
 215:Service/../MAVLink/common/./mavlink_msg_altitude.h **** }
 216:Service/../MAVLink/common/./mavlink_msg_altitude.h **** 
 217:Service/../MAVLink/common/./mavlink_msg_altitude.h **** /**
 218:Service/../MAVLink/common/./mavlink_msg_altitude.h ****  * @brief Send a altitude message
 219:Service/../MAVLink/common/./mavlink_msg_altitude.h ****  * @param chan MAVLink channel to send the message
 220:Service/../MAVLink/common/./mavlink_msg_altitude.h ****  * @param struct The MAVLink struct to serialize
 221:Service/../MAVLink/common/./mavlink_msg_altitude.h ****  */
 222:Service/../MAVLink/common/./mavlink_msg_altitude.h **** static inline void mavlink_msg_altitude_send_struct(mavlink_channel_t chan, const mavlink_altitude_
 223:Service/../MAVLink/common/./mavlink_msg_altitude.h **** {
 224:Service/../MAVLink/common/./mavlink_msg_altitude.h **** #if MAVLINK_NEED_BYTE_SWAP || !MAVLINK_ALIGNED_FIELDS
 225:Service/../MAVLink/common/./mavlink_msg_altitude.h ****     mavlink_msg_altitude_send(chan, altitude->time_usec, altitude->altitude_monotonic, altitude->al
 226:Service/../MAVLink/common/./mavlink_msg_altitude.h **** #else
 227:Service/../MAVLink/common/./mavlink_msg_altitude.h ****     _mav_finalize_message_chan_send(chan, MAVLINK_MSG_ID_ALTITUDE, (const char *)altitude, MAVLINK_
 228:Service/../MAVLink/common/./mavlink_msg_altitude.h **** #endif
 229:Service/../MAVLink/common/./mavlink_msg_altitude.h **** }
 230:Service/../MAVLink/common/./mavlink_msg_altitude.h **** 
 231:Service/../MAVLink/common/./mavlink_msg_altitude.h **** #if MAVLINK_MSG_ID_ALTITUDE_LEN <= MAVLINK_MAX_PAYLOAD_LEN
 232:Service/../MAVLink/common/./mavlink_msg_altitude.h **** /*
 233:Service/../MAVLink/common/./mavlink_msg_altitude.h ****   This variant of _send() can be used to save stack space by re-using
 234:Service/../MAVLink/common/./mavlink_msg_altitude.h ****   memory from the receive buffer.  The caller provides a
 235:Service/../MAVLink/common/./mavlink_msg_altitude.h ****   mavlink_message_t which is the size of a full mavlink message. This
 236:Service/../MAVLink/common/./mavlink_msg_altitude.h ****   is usually the receive buffer for the channel, and allows a reply to an
 237:Service/../MAVLink/common/./mavlink_msg_altitude.h ****   incoming message with minimum stack space usage.
 238:Service/../MAVLink/common/./mavlink_msg_altitude.h ****  */
 239:Service/../MAVLink/common/./mavlink_msg_altitude.h **** static inline void mavlink_msg_altitude_send_buf(mavlink_message_t *msgbuf, mavlink_channel_t chan,
 240:Service/../MAVLink/common/./mavlink_msg_altitude.h **** {
 241:Service/../MAVLink/common/./mavlink_msg_altitude.h **** #if MAVLINK_NEED_BYTE_SWAP || !MAVLINK_ALIGNED_FIELDS
 242:Service/../MAVLink/common/./mavlink_msg_altitude.h ****     char *buf = (char *)msgbuf;
 243:Service/../MAVLink/common/./mavlink_msg_altitude.h ****     _mav_put_uint64_t(buf, 0, time_usec);
 244:Service/../MAVLink/common/./mavlink_msg_altitude.h ****     _mav_put_float(buf, 8, altitude_monotonic);
 245:Service/../MAVLink/common/./mavlink_msg_altitude.h ****     _mav_put_float(buf, 12, altitude_amsl);
 246:Service/../MAVLink/common/./mavlink_msg_altitude.h ****     _mav_put_float(buf, 16, altitude_local);
 247:Service/../MAVLink/common/./mavlink_msg_altitude.h ****     _mav_put_float(buf, 20, altitude_relative);
 248:Service/../MAVLink/common/./mavlink_msg_altitude.h ****     _mav_put_float(buf, 24, altitude_terrain);
 249:Service/../MAVLink/common/./mavlink_msg_altitude.h ****     _mav_put_float(buf, 28, bottom_clearance);
 250:Service/../MAVLink/common/./mavlink_msg_altitude.h **** 
ARM GAS  C:\Users\8bit\AppData\Local\Temp\ccCRhmZR.s 			page 48


 251:Service/../MAVLink/common/./mavlink_msg_altitude.h ****     _mav_finalize_message_chan_send(chan, MAVLINK_MSG_ID_ALTITUDE, buf, MAVLINK_MSG_ID_ALTITUDE_MIN
 252:Service/../MAVLink/common/./mavlink_msg_altitude.h **** #else
 253:Service/../MAVLink/common/./mavlink_msg_altitude.h ****     mavlink_altitude_t *packet = (mavlink_altitude_t *)msgbuf;
 254:Service/../MAVLink/common/./mavlink_msg_altitude.h ****     packet->time_usec = time_usec;
 255:Service/../MAVLink/common/./mavlink_msg_altitude.h ****     packet->altitude_monotonic = altitude_monotonic;
 256:Service/../MAVLink/common/./mavlink_msg_altitude.h ****     packet->altitude_amsl = altitude_amsl;
 257:Service/../MAVLink/common/./mavlink_msg_altitude.h ****     packet->altitude_local = altitude_local;
 258:Service/../MAVLink/common/./mavlink_msg_altitude.h ****     packet->altitude_relative = altitude_relative;
 259:Service/../MAVLink/common/./mavlink_msg_altitude.h ****     packet->altitude_terrain = altitude_terrain;
 260:Service/../MAVLink/common/./mavlink_msg_altitude.h ****     packet->bottom_clearance = bottom_clearance;
 261:Service/../MAVLink/common/./mavlink_msg_altitude.h **** 
 262:Service/../MAVLink/common/./mavlink_msg_altitude.h ****     _mav_finalize_message_chan_send(chan, MAVLINK_MSG_ID_ALTITUDE, (const char *)packet, MAVLINK_MS
 263:Service/../MAVLink/common/./mavlink_msg_altitude.h **** #endif
 264:Service/../MAVLink/common/./mavlink_msg_altitude.h **** }
 265:Service/../MAVLink/common/./mavlink_msg_altitude.h **** #endif
 266:Service/../MAVLink/common/./mavlink_msg_altitude.h **** 
 267:Service/../MAVLink/common/./mavlink_msg_altitude.h **** #endif
 268:Service/../MAVLink/common/./mavlink_msg_altitude.h **** 
 269:Service/../MAVLink/common/./mavlink_msg_altitude.h **** // MESSAGE ALTITUDE UNPACKING
 270:Service/../MAVLink/common/./mavlink_msg_altitude.h **** 
 271:Service/../MAVLink/common/./mavlink_msg_altitude.h **** 
 272:Service/../MAVLink/common/./mavlink_msg_altitude.h **** /**
 273:Service/../MAVLink/common/./mavlink_msg_altitude.h ****  * @brief Get field time_usec from altitude message
 274:Service/../MAVLink/common/./mavlink_msg_altitude.h ****  *
 275:Service/../MAVLink/common/./mavlink_msg_altitude.h ****  * @return [us] Timestamp (UNIX Epoch time or time since system boot). The receiving end can infer 
 276:Service/../MAVLink/common/./mavlink_msg_altitude.h ****  */
 277:Service/../MAVLink/common/./mavlink_msg_altitude.h **** static inline uint64_t mavlink_msg_altitude_get_time_usec(const mavlink_message_t* msg)
 278:Service/../MAVLink/common/./mavlink_msg_altitude.h **** {
 279:Service/../MAVLink/common/./mavlink_msg_altitude.h ****     return _MAV_RETURN_uint64_t(msg,  0);
 280:Service/../MAVLink/common/./mavlink_msg_altitude.h **** }
 281:Service/../MAVLink/common/./mavlink_msg_altitude.h **** 
 282:Service/../MAVLink/common/./mavlink_msg_altitude.h **** /**
 283:Service/../MAVLink/common/./mavlink_msg_altitude.h ****  * @brief Get field altitude_monotonic from altitude message
 284:Service/../MAVLink/common/./mavlink_msg_altitude.h ****  *
 285:Service/../MAVLink/common/./mavlink_msg_altitude.h ****  * @return [m] This altitude measure is initialized on system boot and monotonic (it is never reset
 286:Service/../MAVLink/common/./mavlink_msg_altitude.h ****  */
 287:Service/../MAVLink/common/./mavlink_msg_altitude.h **** static inline float mavlink_msg_altitude_get_altitude_monotonic(const mavlink_message_t* msg)
 288:Service/../MAVLink/common/./mavlink_msg_altitude.h **** {
 289:Service/../MAVLink/common/./mavlink_msg_altitude.h ****     return _MAV_RETURN_float(msg,  8);
 290:Service/../MAVLink/common/./mavlink_msg_altitude.h **** }
 291:Service/../MAVLink/common/./mavlink_msg_altitude.h **** 
 292:Service/../MAVLink/common/./mavlink_msg_altitude.h **** /**
 293:Service/../MAVLink/common/./mavlink_msg_altitude.h ****  * @brief Get field altitude_amsl from altitude message
 294:Service/../MAVLink/common/./mavlink_msg_altitude.h ****  *
 295:Service/../MAVLink/common/./mavlink_msg_altitude.h ****  * @return [m] This altitude measure is strictly above mean sea level and might be non-monotonic (i
 296:Service/../MAVLink/common/./mavlink_msg_altitude.h ****  */
 297:Service/../MAVLink/common/./mavlink_msg_altitude.h **** static inline float mavlink_msg_altitude_get_altitude_amsl(const mavlink_message_t* msg)
 298:Service/../MAVLink/common/./mavlink_msg_altitude.h **** {
 299:Service/../MAVLink/common/./mavlink_msg_altitude.h ****     return _MAV_RETURN_float(msg,  12);
 300:Service/../MAVLink/common/./mavlink_msg_altitude.h **** }
 301:Service/../MAVLink/common/./mavlink_msg_altitude.h **** 
 302:Service/../MAVLink/common/./mavlink_msg_altitude.h **** /**
 303:Service/../MAVLink/common/./mavlink_msg_altitude.h ****  * @brief Get field altitude_local from altitude message
 304:Service/../MAVLink/common/./mavlink_msg_altitude.h ****  *
 305:Service/../MAVLink/common/./mavlink_msg_altitude.h ****  * @return [m] This is the local altitude in the local coordinate frame. It is not the altitude abo
 306:Service/../MAVLink/common/./mavlink_msg_altitude.h ****  */
 307:Service/../MAVLink/common/./mavlink_msg_altitude.h **** static inline float mavlink_msg_altitude_get_altitude_local(const mavlink_message_t* msg)
ARM GAS  C:\Users\8bit\AppData\Local\Temp\ccCRhmZR.s 			page 49


 308:Service/../MAVLink/common/./mavlink_msg_altitude.h **** {
 309:Service/../MAVLink/common/./mavlink_msg_altitude.h ****     return _MAV_RETURN_float(msg,  16);
 310:Service/../MAVLink/common/./mavlink_msg_altitude.h **** }
 311:Service/../MAVLink/common/./mavlink_msg_altitude.h **** 
 312:Service/../MAVLink/common/./mavlink_msg_altitude.h **** /**
 313:Service/../MAVLink/common/./mavlink_msg_altitude.h ****  * @brief Get field altitude_relative from altitude message
 314:Service/../MAVLink/common/./mavlink_msg_altitude.h ****  *
 315:Service/../MAVLink/common/./mavlink_msg_altitude.h ****  * @return [m] This is the altitude above the home position. It resets on each change of the curren
 316:Service/../MAVLink/common/./mavlink_msg_altitude.h ****  */
 317:Service/../MAVLink/common/./mavlink_msg_altitude.h **** static inline float mavlink_msg_altitude_get_altitude_relative(const mavlink_message_t* msg)
 318:Service/../MAVLink/common/./mavlink_msg_altitude.h **** {
 319:Service/../MAVLink/common/./mavlink_msg_altitude.h ****     return _MAV_RETURN_float(msg,  20);
 320:Service/../MAVLink/common/./mavlink_msg_altitude.h **** }
 321:Service/../MAVLink/common/./mavlink_msg_altitude.h **** 
 322:Service/../MAVLink/common/./mavlink_msg_altitude.h **** /**
 323:Service/../MAVLink/common/./mavlink_msg_altitude.h ****  * @brief Get field altitude_terrain from altitude message
 324:Service/../MAVLink/common/./mavlink_msg_altitude.h ****  *
 325:Service/../MAVLink/common/./mavlink_msg_altitude.h ****  * @return [m] This is the altitude above terrain. It might be fed by a terrain database or an alti
 326:Service/../MAVLink/common/./mavlink_msg_altitude.h ****  */
 327:Service/../MAVLink/common/./mavlink_msg_altitude.h **** static inline float mavlink_msg_altitude_get_altitude_terrain(const mavlink_message_t* msg)
 328:Service/../MAVLink/common/./mavlink_msg_altitude.h **** {
 329:Service/../MAVLink/common/./mavlink_msg_altitude.h ****     return _MAV_RETURN_float(msg,  24);
 330:Service/../MAVLink/common/./mavlink_msg_altitude.h **** }
 331:Service/../MAVLink/common/./mavlink_msg_altitude.h **** 
 332:Service/../MAVLink/common/./mavlink_msg_altitude.h **** /**
 333:Service/../MAVLink/common/./mavlink_msg_altitude.h ****  * @brief Get field bottom_clearance from altitude message
 334:Service/../MAVLink/common/./mavlink_msg_altitude.h ****  *
 335:Service/../MAVLink/common/./mavlink_msg_altitude.h ****  * @return [m] This is not the altitude, but the clear space below the system according to the fuse
 336:Service/../MAVLink/common/./mavlink_msg_altitude.h ****  */
 337:Service/../MAVLink/common/./mavlink_msg_altitude.h **** static inline float mavlink_msg_altitude_get_bottom_clearance(const mavlink_message_t* msg)
 338:Service/../MAVLink/common/./mavlink_msg_altitude.h **** {
 339:Service/../MAVLink/common/./mavlink_msg_altitude.h ****     return _MAV_RETURN_float(msg,  28);
 340:Service/../MAVLink/common/./mavlink_msg_altitude.h **** }
 341:Service/../MAVLink/common/./mavlink_msg_altitude.h **** 
 342:Service/../MAVLink/common/./mavlink_msg_altitude.h **** /**
 343:Service/../MAVLink/common/./mavlink_msg_altitude.h ****  * @brief Decode a altitude message into a struct
 344:Service/../MAVLink/common/./mavlink_msg_altitude.h ****  *
 345:Service/../MAVLink/common/./mavlink_msg_altitude.h ****  * @param msg The message to decode
 346:Service/../MAVLink/common/./mavlink_msg_altitude.h ****  * @param altitude C-struct to decode the message contents into
 347:Service/../MAVLink/common/./mavlink_msg_altitude.h ****  */
 348:Service/../MAVLink/common/./mavlink_msg_altitude.h **** static inline void mavlink_msg_altitude_decode(const mavlink_message_t* msg, mavlink_altitude_t* al
 920              		.loc 5 348 20 view .LVU260
 921              	.LBB56:
 349:Service/../MAVLink/common/./mavlink_msg_altitude.h **** {
 350:Service/../MAVLink/common/./mavlink_msg_altitude.h **** #if MAVLINK_NEED_BYTE_SWAP || !MAVLINK_ALIGNED_FIELDS
 351:Service/../MAVLink/common/./mavlink_msg_altitude.h ****     altitude->time_usec = mavlink_msg_altitude_get_time_usec(msg);
 352:Service/../MAVLink/common/./mavlink_msg_altitude.h ****     altitude->altitude_monotonic = mavlink_msg_altitude_get_altitude_monotonic(msg);
 353:Service/../MAVLink/common/./mavlink_msg_altitude.h ****     altitude->altitude_amsl = mavlink_msg_altitude_get_altitude_amsl(msg);
 354:Service/../MAVLink/common/./mavlink_msg_altitude.h ****     altitude->altitude_local = mavlink_msg_altitude_get_altitude_local(msg);
 355:Service/../MAVLink/common/./mavlink_msg_altitude.h ****     altitude->altitude_relative = mavlink_msg_altitude_get_altitude_relative(msg);
 356:Service/../MAVLink/common/./mavlink_msg_altitude.h ****     altitude->altitude_terrain = mavlink_msg_altitude_get_altitude_terrain(msg);
 357:Service/../MAVLink/common/./mavlink_msg_altitude.h ****     altitude->bottom_clearance = mavlink_msg_altitude_get_bottom_clearance(msg);
 358:Service/../MAVLink/common/./mavlink_msg_altitude.h **** #else
 359:Service/../MAVLink/common/./mavlink_msg_altitude.h ****         uint8_t len = msg->len < MAVLINK_MSG_ID_ALTITUDE_LEN? msg->len : MAVLINK_MSG_ID_ALTITUDE_LE
 922              		.loc 5 359 9 view .LVU261
 923              		.loc 5 359 26 is_stmt 0 view .LVU262
 924 0024 9DF83750 		ldrb	r5, [sp, #55]	@ zero_extendqisi2
ARM GAS  C:\Users\8bit\AppData\Local\Temp\ccCRhmZR.s 			page 50


 925              		.loc 5 359 17 view .LVU263
 926 0028 B542     		cmp	r5, r6
 927 002a 28BF     		it	cs
 928 002c 3546     		movcs	r5, r6
 929              	.LVL57:
 360:Service/../MAVLink/common/./mavlink_msg_altitude.h ****         memset(altitude, 0, MAVLINK_MSG_ID_ALTITUDE_LEN);
 930              		.loc 5 360 9 is_stmt 1 view .LVU264
 931 002e 3246     		mov	r2, r6
 932 0030 0021     		movs	r1, #0
 933 0032 6846     		mov	r0, sp
 934 0034 FFF7FEFF 		bl	memset
 935              	.LVL58:
 361:Service/../MAVLink/common/./mavlink_msg_altitude.h ****     memcpy(altitude, _MAV_PAYLOAD(msg), len);
 936              		.loc 5 361 5 view .LVU265
 937 0038 2A46     		mov	r2, r5
 938 003a 0FA9     		add	r1, sp, #60
 939 003c 6846     		mov	r0, sp
 940 003e FFF7FEFF 		bl	memcpy
 941              	.LVL59:
 942              		.loc 5 361 5 is_stmt 0 view .LVU266
 943              	.LBE56:
 944              	.LBE55:
 393:Service/Srv_ComProto.c **** 
 394:Service/Srv_ComProto.c ****         if (obj->MavMsg_Alt_Callback)
 945              		.loc 1 394 9 is_stmt 1 view .LVU267
 946              		.loc 1 394 16 is_stmt 0 view .LVU268
 947 0042 E36E     		ldr	r3, [r4, #108]
 948              		.loc 1 394 12 view .LVU269
 949 0044 4BB1     		cbz	r3, .L64
 395:Service/Srv_ComProto.c ****             return obj->MavMsg_Alt_Callback(&msg_alt, obj->cus_p_alt);
 950              		.loc 1 395 13 is_stmt 1 view .LVU270
 951              		.loc 1 395 20 is_stmt 0 view .LVU271
 952 0046 E168     		ldr	r1, [r4, #12]
 953 0048 6846     		mov	r0, sp
 954 004a 9847     		blx	r3
 955              	.LVL60:
 956 004c 00E0     		b	.L62
 957              	.LVL61:
 958              	.L63:
 396:Service/Srv_ComProto.c ****     }
 397:Service/Srv_ComProto.c **** 
 398:Service/Srv_ComProto.c ****     return false;
 959              		.loc 1 398 12 view .LVU272
 960 004e 0020     		movs	r0, #0
 961              	.LVL62:
 962              	.L62:
 399:Service/Srv_ComProto.c **** }
 963              		.loc 1 399 1 view .LVU273
 964 0050 08B0     		add	sp, sp, #32
 965              	.LCFI24:
 966              		.cfi_remember_state
 967              		.cfi_def_cfa_offset 32
 968              		@ sp needed
 969 0052 BDE87040 		pop	{r4, r5, r6, lr}
 970              	.LCFI25:
 971              		.cfi_restore 14
 972              		.cfi_restore 6
ARM GAS  C:\Users\8bit\AppData\Local\Temp\ccCRhmZR.s 			page 51


 973              		.cfi_restore 5
 974              		.cfi_restore 4
 975              		.cfi_def_cfa_offset 16
 976 0056 04B0     		add	sp, sp, #16
 977              	.LCFI26:
 978              		.cfi_def_cfa_offset 0
 979 0058 7047     		bx	lr
 980              	.LVL63:
 981              	.L64:
 982              	.LCFI27:
 983              		.cfi_restore_state
 398:Service/Srv_ComProto.c **** }
 984              		.loc 1 398 12 view .LVU274
 985 005a 0020     		movs	r0, #0
 986 005c F8E7     		b	.L62
 987              		.cfi_endproc
 988              	.LFE2089:
 990              		.section	.text.SrvComProto_MavMsg_Decode_ExpRC,"ax",%progbits
 991              		.align	1
 992              		.syntax unified
 993              		.thumb
 994              		.thumb_func
 996              	SrvComProto_MavMsg_Decode_ExpRC:
 997              	.LVL64:
 998              	.LFB2091:
 400:Service/Srv_ComProto.c **** 
 401:Service/Srv_ComProto.c **** static bool SrvComProto_MavMsg_Decode_ExpMoto(SrvComProto_MsgObj_TypeDef *obj, const mavlink_messag
 402:Service/Srv_ComProto.c **** {
 403:Service/Srv_ComProto.c ****     mavlink_servo_output_raw_t msg_moto;
 404:Service/Srv_ComProto.c **** 
 405:Service/Srv_ComProto.c ****     if (obj)
 406:Service/Srv_ComProto.c ****     {
 407:Service/Srv_ComProto.c ****         obj->Moto_Cnt ++;
 408:Service/Srv_ComProto.c **** 
 409:Service/Srv_ComProto.c ****         memset(&msg_moto, 0, sizeof(mavlink_servo_output_raw_t));
 410:Service/Srv_ComProto.c ****         mavlink_msg_servo_output_raw_decode(&msg, &msg_moto);
 411:Service/Srv_ComProto.c **** 
 412:Service/Srv_ComProto.c ****         if (obj->MavMsg_MotoCtl_Callback)
 413:Service/Srv_ComProto.c ****             return obj->MavMsg_MotoCtl_Callback(&msg_moto, obj->cus_p_moto);
 414:Service/Srv_ComProto.c ****     }
 415:Service/Srv_ComProto.c **** 
 416:Service/Srv_ComProto.c ****     return false;
 417:Service/Srv_ComProto.c **** }
 418:Service/Srv_ComProto.c **** 
 419:Service/Srv_ComProto.c **** static bool SrvComProto_MavMsg_Decode_ExpRC(SrvComProto_MsgObj_TypeDef *obj, const mavlink_message_
 420:Service/Srv_ComProto.c **** {
 999              		.loc 1 420 1 is_stmt 1 view -0
 1000              		.cfi_startproc
 1001              		@ args = 276, pretend = 16, frame = 48
 1002              		@ frame_needed = 0, uses_anonymous_args = 0
 1003              		.loc 1 420 1 is_stmt 0 view .LVU276
 1004 0000 84B0     		sub	sp, sp, #16
 1005              	.LCFI28:
 1006              		.cfi_def_cfa_offset 16
 1007 0002 30B5     		push	{r4, r5, lr}
 1008              	.LCFI29:
 1009              		.cfi_def_cfa_offset 28
ARM GAS  C:\Users\8bit\AppData\Local\Temp\ccCRhmZR.s 			page 52


 1010              		.cfi_offset 4, -28
 1011              		.cfi_offset 5, -24
 1012              		.cfi_offset 14, -20
 1013 0004 8DB0     		sub	sp, sp, #52
 1014              	.LCFI30:
 1015              		.cfi_def_cfa_offset 80
 1016 0006 0DF1440C 		add	ip, sp, #68
 1017 000a 8CE80E00 		stm	ip, {r1, r2, r3}
 421:Service/Srv_ComProto.c ****     mavlink_rc_channels_t msg_rc;
 1018              		.loc 1 421 5 is_stmt 1 view .LVU277
 422:Service/Srv_ComProto.c **** 
 423:Service/Srv_ComProto.c ****     if (obj)
 1019              		.loc 1 423 5 view .LVU278
 1020              		.loc 1 423 8 is_stmt 0 view .LVU279
 1021 000e E8B1     		cbz	r0, .L68
 1022 0010 0446     		mov	r4, r0
 424:Service/Srv_ComProto.c ****     {
 425:Service/Srv_ComProto.c ****         obj->RC_Cnt ++;
 1023              		.loc 1 425 9 is_stmt 1 view .LVU280
 1024              		.loc 1 425 12 is_stmt 0 view .LVU281
 1025 0012 036C     		ldr	r3, [r0, #64]
 1026              		.loc 1 425 21 view .LVU282
 1027 0014 0133     		adds	r3, r3, #1
 1028 0016 0364     		str	r3, [r0, #64]
 426:Service/Srv_ComProto.c **** 
 427:Service/Srv_ComProto.c ****         memset(&msg_rc, 0, sizeof(mavlink_rc_channels_t));
 1029              		.loc 1 427 9 is_stmt 1 view .LVU283
 1030 0018 2C22     		movs	r2, #44
 1031 001a 0021     		movs	r1, #0
 1032 001c 01A8     		add	r0, sp, #4
 1033 001e FFF7FEFF 		bl	memset
 1034              	.LVL65:
 428:Service/Srv_ComProto.c ****         mavlink_msg_rc_channels_decode(&msg, &msg_rc);
 1035              		.loc 1 428 9 view .LVU284
 1036              	.LBB59:
 1037              	.LBI59:
 1038              		.file 6 "Service/../MAVLink/common/./mavlink_msg_rc_channels.h"
   1:Service/../MAVLink/common/./mavlink_msg_rc_channels.h **** #pragma once
   2:Service/../MAVLink/common/./mavlink_msg_rc_channels.h **** // MESSAGE RC_CHANNELS PACKING
   3:Service/../MAVLink/common/./mavlink_msg_rc_channels.h **** 
   4:Service/../MAVLink/common/./mavlink_msg_rc_channels.h **** #define MAVLINK_MSG_ID_RC_CHANNELS 65
   5:Service/../MAVLink/common/./mavlink_msg_rc_channels.h **** 
   6:Service/../MAVLink/common/./mavlink_msg_rc_channels.h **** 
   7:Service/../MAVLink/common/./mavlink_msg_rc_channels.h **** typedef struct __mavlink_rc_channels_t {
   8:Service/../MAVLink/common/./mavlink_msg_rc_channels.h ****  uint32_t time_boot_ms; /*< [ms] Timestamp (time since system boot).*/
   9:Service/../MAVLink/common/./mavlink_msg_rc_channels.h ****  uint16_t chan1_raw; /*< [us] RC channel 1 value.*/
  10:Service/../MAVLink/common/./mavlink_msg_rc_channels.h ****  uint16_t chan2_raw; /*< [us] RC channel 2 value.*/
  11:Service/../MAVLink/common/./mavlink_msg_rc_channels.h ****  uint16_t chan3_raw; /*< [us] RC channel 3 value.*/
  12:Service/../MAVLink/common/./mavlink_msg_rc_channels.h ****  uint16_t chan4_raw; /*< [us] RC channel 4 value.*/
  13:Service/../MAVLink/common/./mavlink_msg_rc_channels.h ****  uint16_t chan5_raw; /*< [us] RC channel 5 value.*/
  14:Service/../MAVLink/common/./mavlink_msg_rc_channels.h ****  uint16_t chan6_raw; /*< [us] RC channel 6 value.*/
  15:Service/../MAVLink/common/./mavlink_msg_rc_channels.h ****  uint16_t chan7_raw; /*< [us] RC channel 7 value.*/
  16:Service/../MAVLink/common/./mavlink_msg_rc_channels.h ****  uint16_t chan8_raw; /*< [us] RC channel 8 value.*/
  17:Service/../MAVLink/common/./mavlink_msg_rc_channels.h ****  uint16_t chan9_raw; /*< [us] RC channel 9 value.*/
  18:Service/../MAVLink/common/./mavlink_msg_rc_channels.h ****  uint16_t chan10_raw; /*< [us] RC channel 10 value.*/
  19:Service/../MAVLink/common/./mavlink_msg_rc_channels.h ****  uint16_t chan11_raw; /*< [us] RC channel 11 value.*/
  20:Service/../MAVLink/common/./mavlink_msg_rc_channels.h ****  uint16_t chan12_raw; /*< [us] RC channel 12 value.*/
ARM GAS  C:\Users\8bit\AppData\Local\Temp\ccCRhmZR.s 			page 53


  21:Service/../MAVLink/common/./mavlink_msg_rc_channels.h ****  uint16_t chan13_raw; /*< [us] RC channel 13 value.*/
  22:Service/../MAVLink/common/./mavlink_msg_rc_channels.h ****  uint16_t chan14_raw; /*< [us] RC channel 14 value.*/
  23:Service/../MAVLink/common/./mavlink_msg_rc_channels.h ****  uint16_t chan15_raw; /*< [us] RC channel 15 value.*/
  24:Service/../MAVLink/common/./mavlink_msg_rc_channels.h ****  uint16_t chan16_raw; /*< [us] RC channel 16 value.*/
  25:Service/../MAVLink/common/./mavlink_msg_rc_channels.h ****  uint16_t chan17_raw; /*< [us] RC channel 17 value.*/
  26:Service/../MAVLink/common/./mavlink_msg_rc_channels.h ****  uint16_t chan18_raw; /*< [us] RC channel 18 value.*/
  27:Service/../MAVLink/common/./mavlink_msg_rc_channels.h ****  uint8_t chancount; /*<  Total number of RC channels being received. This can be larger than 18, in
  28:Service/../MAVLink/common/./mavlink_msg_rc_channels.h ****  uint8_t rssi; /*<  Receive signal strength indicator in device-dependent units/scale. Values: [0-2
  29:Service/../MAVLink/common/./mavlink_msg_rc_channels.h **** } mavlink_rc_channels_t;
  30:Service/../MAVLink/common/./mavlink_msg_rc_channels.h **** 
  31:Service/../MAVLink/common/./mavlink_msg_rc_channels.h **** #define MAVLINK_MSG_ID_RC_CHANNELS_LEN 42
  32:Service/../MAVLink/common/./mavlink_msg_rc_channels.h **** #define MAVLINK_MSG_ID_RC_CHANNELS_MIN_LEN 42
  33:Service/../MAVLink/common/./mavlink_msg_rc_channels.h **** #define MAVLINK_MSG_ID_65_LEN 42
  34:Service/../MAVLink/common/./mavlink_msg_rc_channels.h **** #define MAVLINK_MSG_ID_65_MIN_LEN 42
  35:Service/../MAVLink/common/./mavlink_msg_rc_channels.h **** 
  36:Service/../MAVLink/common/./mavlink_msg_rc_channels.h **** #define MAVLINK_MSG_ID_RC_CHANNELS_CRC 118
  37:Service/../MAVLink/common/./mavlink_msg_rc_channels.h **** #define MAVLINK_MSG_ID_65_CRC 118
  38:Service/../MAVLink/common/./mavlink_msg_rc_channels.h **** 
  39:Service/../MAVLink/common/./mavlink_msg_rc_channels.h **** 
  40:Service/../MAVLink/common/./mavlink_msg_rc_channels.h **** 
  41:Service/../MAVLink/common/./mavlink_msg_rc_channels.h **** #if MAVLINK_COMMAND_24BIT
  42:Service/../MAVLink/common/./mavlink_msg_rc_channels.h **** #define MAVLINK_MESSAGE_INFO_RC_CHANNELS { \
  43:Service/../MAVLink/common/./mavlink_msg_rc_channels.h ****     65, \
  44:Service/../MAVLink/common/./mavlink_msg_rc_channels.h ****     "RC_CHANNELS", \
  45:Service/../MAVLink/common/./mavlink_msg_rc_channels.h ****     21, \
  46:Service/../MAVLink/common/./mavlink_msg_rc_channels.h ****     {  { "time_boot_ms", NULL, MAVLINK_TYPE_UINT32_T, 0, 0, offsetof(mavlink_rc_channels_t, time_bo
  47:Service/../MAVLink/common/./mavlink_msg_rc_channels.h ****          { "chancount", NULL, MAVLINK_TYPE_UINT8_T, 0, 40, offsetof(mavlink_rc_channels_t, chancoun
  48:Service/../MAVLink/common/./mavlink_msg_rc_channels.h ****          { "chan1_raw", NULL, MAVLINK_TYPE_UINT16_T, 0, 4, offsetof(mavlink_rc_channels_t, chan1_ra
  49:Service/../MAVLink/common/./mavlink_msg_rc_channels.h ****          { "chan2_raw", NULL, MAVLINK_TYPE_UINT16_T, 0, 6, offsetof(mavlink_rc_channels_t, chan2_ra
  50:Service/../MAVLink/common/./mavlink_msg_rc_channels.h ****          { "chan3_raw", NULL, MAVLINK_TYPE_UINT16_T, 0, 8, offsetof(mavlink_rc_channels_t, chan3_ra
  51:Service/../MAVLink/common/./mavlink_msg_rc_channels.h ****          { "chan4_raw", NULL, MAVLINK_TYPE_UINT16_T, 0, 10, offsetof(mavlink_rc_channels_t, chan4_r
  52:Service/../MAVLink/common/./mavlink_msg_rc_channels.h ****          { "chan5_raw", NULL, MAVLINK_TYPE_UINT16_T, 0, 12, offsetof(mavlink_rc_channels_t, chan5_r
  53:Service/../MAVLink/common/./mavlink_msg_rc_channels.h ****          { "chan6_raw", NULL, MAVLINK_TYPE_UINT16_T, 0, 14, offsetof(mavlink_rc_channels_t, chan6_r
  54:Service/../MAVLink/common/./mavlink_msg_rc_channels.h ****          { "chan7_raw", NULL, MAVLINK_TYPE_UINT16_T, 0, 16, offsetof(mavlink_rc_channels_t, chan7_r
  55:Service/../MAVLink/common/./mavlink_msg_rc_channels.h ****          { "chan8_raw", NULL, MAVLINK_TYPE_UINT16_T, 0, 18, offsetof(mavlink_rc_channels_t, chan8_r
  56:Service/../MAVLink/common/./mavlink_msg_rc_channels.h ****          { "chan9_raw", NULL, MAVLINK_TYPE_UINT16_T, 0, 20, offsetof(mavlink_rc_channels_t, chan9_r
  57:Service/../MAVLink/common/./mavlink_msg_rc_channels.h ****          { "chan10_raw", NULL, MAVLINK_TYPE_UINT16_T, 0, 22, offsetof(mavlink_rc_channels_t, chan10
  58:Service/../MAVLink/common/./mavlink_msg_rc_channels.h ****          { "chan11_raw", NULL, MAVLINK_TYPE_UINT16_T, 0, 24, offsetof(mavlink_rc_channels_t, chan11
  59:Service/../MAVLink/common/./mavlink_msg_rc_channels.h ****          { "chan12_raw", NULL, MAVLINK_TYPE_UINT16_T, 0, 26, offsetof(mavlink_rc_channels_t, chan12
  60:Service/../MAVLink/common/./mavlink_msg_rc_channels.h ****          { "chan13_raw", NULL, MAVLINK_TYPE_UINT16_T, 0, 28, offsetof(mavlink_rc_channels_t, chan13
  61:Service/../MAVLink/common/./mavlink_msg_rc_channels.h ****          { "chan14_raw", NULL, MAVLINK_TYPE_UINT16_T, 0, 30, offsetof(mavlink_rc_channels_t, chan14
  62:Service/../MAVLink/common/./mavlink_msg_rc_channels.h ****          { "chan15_raw", NULL, MAVLINK_TYPE_UINT16_T, 0, 32, offsetof(mavlink_rc_channels_t, chan15
  63:Service/../MAVLink/common/./mavlink_msg_rc_channels.h ****          { "chan16_raw", NULL, MAVLINK_TYPE_UINT16_T, 0, 34, offsetof(mavlink_rc_channels_t, chan16
  64:Service/../MAVLink/common/./mavlink_msg_rc_channels.h ****          { "chan17_raw", NULL, MAVLINK_TYPE_UINT16_T, 0, 36, offsetof(mavlink_rc_channels_t, chan17
  65:Service/../MAVLink/common/./mavlink_msg_rc_channels.h ****          { "chan18_raw", NULL, MAVLINK_TYPE_UINT16_T, 0, 38, offsetof(mavlink_rc_channels_t, chan18
  66:Service/../MAVLink/common/./mavlink_msg_rc_channels.h ****          { "rssi", NULL, MAVLINK_TYPE_UINT8_T, 0, 41, offsetof(mavlink_rc_channels_t, rssi) }, \
  67:Service/../MAVLink/common/./mavlink_msg_rc_channels.h ****          } \
  68:Service/../MAVLink/common/./mavlink_msg_rc_channels.h **** }
  69:Service/../MAVLink/common/./mavlink_msg_rc_channels.h **** #else
  70:Service/../MAVLink/common/./mavlink_msg_rc_channels.h **** #define MAVLINK_MESSAGE_INFO_RC_CHANNELS { \
  71:Service/../MAVLink/common/./mavlink_msg_rc_channels.h ****     "RC_CHANNELS", \
  72:Service/../MAVLink/common/./mavlink_msg_rc_channels.h ****     21, \
  73:Service/../MAVLink/common/./mavlink_msg_rc_channels.h ****     {  { "time_boot_ms", NULL, MAVLINK_TYPE_UINT32_T, 0, 0, offsetof(mavlink_rc_channels_t, time_bo
  74:Service/../MAVLink/common/./mavlink_msg_rc_channels.h ****          { "chancount", NULL, MAVLINK_TYPE_UINT8_T, 0, 40, offsetof(mavlink_rc_channels_t, chancoun
  75:Service/../MAVLink/common/./mavlink_msg_rc_channels.h ****          { "chan1_raw", NULL, MAVLINK_TYPE_UINT16_T, 0, 4, offsetof(mavlink_rc_channels_t, chan1_ra
  76:Service/../MAVLink/common/./mavlink_msg_rc_channels.h ****          { "chan2_raw", NULL, MAVLINK_TYPE_UINT16_T, 0, 6, offsetof(mavlink_rc_channels_t, chan2_ra
  77:Service/../MAVLink/common/./mavlink_msg_rc_channels.h ****          { "chan3_raw", NULL, MAVLINK_TYPE_UINT16_T, 0, 8, offsetof(mavlink_rc_channels_t, chan3_ra
ARM GAS  C:\Users\8bit\AppData\Local\Temp\ccCRhmZR.s 			page 54


  78:Service/../MAVLink/common/./mavlink_msg_rc_channels.h ****          { "chan4_raw", NULL, MAVLINK_TYPE_UINT16_T, 0, 10, offsetof(mavlink_rc_channels_t, chan4_r
  79:Service/../MAVLink/common/./mavlink_msg_rc_channels.h ****          { "chan5_raw", NULL, MAVLINK_TYPE_UINT16_T, 0, 12, offsetof(mavlink_rc_channels_t, chan5_r
  80:Service/../MAVLink/common/./mavlink_msg_rc_channels.h ****          { "chan6_raw", NULL, MAVLINK_TYPE_UINT16_T, 0, 14, offsetof(mavlink_rc_channels_t, chan6_r
  81:Service/../MAVLink/common/./mavlink_msg_rc_channels.h ****          { "chan7_raw", NULL, MAVLINK_TYPE_UINT16_T, 0, 16, offsetof(mavlink_rc_channels_t, chan7_r
  82:Service/../MAVLink/common/./mavlink_msg_rc_channels.h ****          { "chan8_raw", NULL, MAVLINK_TYPE_UINT16_T, 0, 18, offsetof(mavlink_rc_channels_t, chan8_r
  83:Service/../MAVLink/common/./mavlink_msg_rc_channels.h ****          { "chan9_raw", NULL, MAVLINK_TYPE_UINT16_T, 0, 20, offsetof(mavlink_rc_channels_t, chan9_r
  84:Service/../MAVLink/common/./mavlink_msg_rc_channels.h ****          { "chan10_raw", NULL, MAVLINK_TYPE_UINT16_T, 0, 22, offsetof(mavlink_rc_channels_t, chan10
  85:Service/../MAVLink/common/./mavlink_msg_rc_channels.h ****          { "chan11_raw", NULL, MAVLINK_TYPE_UINT16_T, 0, 24, offsetof(mavlink_rc_channels_t, chan11
  86:Service/../MAVLink/common/./mavlink_msg_rc_channels.h ****          { "chan12_raw", NULL, MAVLINK_TYPE_UINT16_T, 0, 26, offsetof(mavlink_rc_channels_t, chan12
  87:Service/../MAVLink/common/./mavlink_msg_rc_channels.h ****          { "chan13_raw", NULL, MAVLINK_TYPE_UINT16_T, 0, 28, offsetof(mavlink_rc_channels_t, chan13
  88:Service/../MAVLink/common/./mavlink_msg_rc_channels.h ****          { "chan14_raw", NULL, MAVLINK_TYPE_UINT16_T, 0, 30, offsetof(mavlink_rc_channels_t, chan14
  89:Service/../MAVLink/common/./mavlink_msg_rc_channels.h ****          { "chan15_raw", NULL, MAVLINK_TYPE_UINT16_T, 0, 32, offsetof(mavlink_rc_channels_t, chan15
  90:Service/../MAVLink/common/./mavlink_msg_rc_channels.h ****          { "chan16_raw", NULL, MAVLINK_TYPE_UINT16_T, 0, 34, offsetof(mavlink_rc_channels_t, chan16
  91:Service/../MAVLink/common/./mavlink_msg_rc_channels.h ****          { "chan17_raw", NULL, MAVLINK_TYPE_UINT16_T, 0, 36, offsetof(mavlink_rc_channels_t, chan17
  92:Service/../MAVLink/common/./mavlink_msg_rc_channels.h ****          { "chan18_raw", NULL, MAVLINK_TYPE_UINT16_T, 0, 38, offsetof(mavlink_rc_channels_t, chan18
  93:Service/../MAVLink/common/./mavlink_msg_rc_channels.h ****          { "rssi", NULL, MAVLINK_TYPE_UINT8_T, 0, 41, offsetof(mavlink_rc_channels_t, rssi) }, \
  94:Service/../MAVLink/common/./mavlink_msg_rc_channels.h ****          } \
  95:Service/../MAVLink/common/./mavlink_msg_rc_channels.h **** }
  96:Service/../MAVLink/common/./mavlink_msg_rc_channels.h **** #endif
  97:Service/../MAVLink/common/./mavlink_msg_rc_channels.h **** 
  98:Service/../MAVLink/common/./mavlink_msg_rc_channels.h **** /**
  99:Service/../MAVLink/common/./mavlink_msg_rc_channels.h ****  * @brief Pack a rc_channels message
 100:Service/../MAVLink/common/./mavlink_msg_rc_channels.h ****  * @param system_id ID of this system
 101:Service/../MAVLink/common/./mavlink_msg_rc_channels.h ****  * @param component_id ID of this component (e.g. 200 for IMU)
 102:Service/../MAVLink/common/./mavlink_msg_rc_channels.h ****  * @param msg The MAVLink message to compress the data into
 103:Service/../MAVLink/common/./mavlink_msg_rc_channels.h ****  *
 104:Service/../MAVLink/common/./mavlink_msg_rc_channels.h ****  * @param time_boot_ms [ms] Timestamp (time since system boot).
 105:Service/../MAVLink/common/./mavlink_msg_rc_channels.h ****  * @param chancount  Total number of RC channels being received. This can be larger than 18, indica
 106:Service/../MAVLink/common/./mavlink_msg_rc_channels.h ****  * @param chan1_raw [us] RC channel 1 value.
 107:Service/../MAVLink/common/./mavlink_msg_rc_channels.h ****  * @param chan2_raw [us] RC channel 2 value.
 108:Service/../MAVLink/common/./mavlink_msg_rc_channels.h ****  * @param chan3_raw [us] RC channel 3 value.
 109:Service/../MAVLink/common/./mavlink_msg_rc_channels.h ****  * @param chan4_raw [us] RC channel 4 value.
 110:Service/../MAVLink/common/./mavlink_msg_rc_channels.h ****  * @param chan5_raw [us] RC channel 5 value.
 111:Service/../MAVLink/common/./mavlink_msg_rc_channels.h ****  * @param chan6_raw [us] RC channel 6 value.
 112:Service/../MAVLink/common/./mavlink_msg_rc_channels.h ****  * @param chan7_raw [us] RC channel 7 value.
 113:Service/../MAVLink/common/./mavlink_msg_rc_channels.h ****  * @param chan8_raw [us] RC channel 8 value.
 114:Service/../MAVLink/common/./mavlink_msg_rc_channels.h ****  * @param chan9_raw [us] RC channel 9 value.
 115:Service/../MAVLink/common/./mavlink_msg_rc_channels.h ****  * @param chan10_raw [us] RC channel 10 value.
 116:Service/../MAVLink/common/./mavlink_msg_rc_channels.h ****  * @param chan11_raw [us] RC channel 11 value.
 117:Service/../MAVLink/common/./mavlink_msg_rc_channels.h ****  * @param chan12_raw [us] RC channel 12 value.
 118:Service/../MAVLink/common/./mavlink_msg_rc_channels.h ****  * @param chan13_raw [us] RC channel 13 value.
 119:Service/../MAVLink/common/./mavlink_msg_rc_channels.h ****  * @param chan14_raw [us] RC channel 14 value.
 120:Service/../MAVLink/common/./mavlink_msg_rc_channels.h ****  * @param chan15_raw [us] RC channel 15 value.
 121:Service/../MAVLink/common/./mavlink_msg_rc_channels.h ****  * @param chan16_raw [us] RC channel 16 value.
 122:Service/../MAVLink/common/./mavlink_msg_rc_channels.h ****  * @param chan17_raw [us] RC channel 17 value.
 123:Service/../MAVLink/common/./mavlink_msg_rc_channels.h ****  * @param chan18_raw [us] RC channel 18 value.
 124:Service/../MAVLink/common/./mavlink_msg_rc_channels.h ****  * @param rssi  Receive signal strength indicator in device-dependent units/scale. Values: [0-254],
 125:Service/../MAVLink/common/./mavlink_msg_rc_channels.h ****  * @return length of the message in bytes (excluding serial stream start sign)
 126:Service/../MAVLink/common/./mavlink_msg_rc_channels.h ****  */
 127:Service/../MAVLink/common/./mavlink_msg_rc_channels.h **** static inline uint16_t mavlink_msg_rc_channels_pack(uint8_t system_id, uint8_t component_id, mavlin
 128:Service/../MAVLink/common/./mavlink_msg_rc_channels.h ****                                uint32_t time_boot_ms, uint8_t chancount, uint16_t chan1_raw, uint16
 129:Service/../MAVLink/common/./mavlink_msg_rc_channels.h **** {
 130:Service/../MAVLink/common/./mavlink_msg_rc_channels.h **** #if MAVLINK_NEED_BYTE_SWAP || !MAVLINK_ALIGNED_FIELDS
 131:Service/../MAVLink/common/./mavlink_msg_rc_channels.h ****     char buf[MAVLINK_MSG_ID_RC_CHANNELS_LEN];
 132:Service/../MAVLink/common/./mavlink_msg_rc_channels.h ****     _mav_put_uint32_t(buf, 0, time_boot_ms);
 133:Service/../MAVLink/common/./mavlink_msg_rc_channels.h ****     _mav_put_uint16_t(buf, 4, chan1_raw);
 134:Service/../MAVLink/common/./mavlink_msg_rc_channels.h ****     _mav_put_uint16_t(buf, 6, chan2_raw);
ARM GAS  C:\Users\8bit\AppData\Local\Temp\ccCRhmZR.s 			page 55


 135:Service/../MAVLink/common/./mavlink_msg_rc_channels.h ****     _mav_put_uint16_t(buf, 8, chan3_raw);
 136:Service/../MAVLink/common/./mavlink_msg_rc_channels.h ****     _mav_put_uint16_t(buf, 10, chan4_raw);
 137:Service/../MAVLink/common/./mavlink_msg_rc_channels.h ****     _mav_put_uint16_t(buf, 12, chan5_raw);
 138:Service/../MAVLink/common/./mavlink_msg_rc_channels.h ****     _mav_put_uint16_t(buf, 14, chan6_raw);
 139:Service/../MAVLink/common/./mavlink_msg_rc_channels.h ****     _mav_put_uint16_t(buf, 16, chan7_raw);
 140:Service/../MAVLink/common/./mavlink_msg_rc_channels.h ****     _mav_put_uint16_t(buf, 18, chan8_raw);
 141:Service/../MAVLink/common/./mavlink_msg_rc_channels.h ****     _mav_put_uint16_t(buf, 20, chan9_raw);
 142:Service/../MAVLink/common/./mavlink_msg_rc_channels.h ****     _mav_put_uint16_t(buf, 22, chan10_raw);
 143:Service/../MAVLink/common/./mavlink_msg_rc_channels.h ****     _mav_put_uint16_t(buf, 24, chan11_raw);
 144:Service/../MAVLink/common/./mavlink_msg_rc_channels.h ****     _mav_put_uint16_t(buf, 26, chan12_raw);
 145:Service/../MAVLink/common/./mavlink_msg_rc_channels.h ****     _mav_put_uint16_t(buf, 28, chan13_raw);
 146:Service/../MAVLink/common/./mavlink_msg_rc_channels.h ****     _mav_put_uint16_t(buf, 30, chan14_raw);
 147:Service/../MAVLink/common/./mavlink_msg_rc_channels.h ****     _mav_put_uint16_t(buf, 32, chan15_raw);
 148:Service/../MAVLink/common/./mavlink_msg_rc_channels.h ****     _mav_put_uint16_t(buf, 34, chan16_raw);
 149:Service/../MAVLink/common/./mavlink_msg_rc_channels.h ****     _mav_put_uint16_t(buf, 36, chan17_raw);
 150:Service/../MAVLink/common/./mavlink_msg_rc_channels.h ****     _mav_put_uint16_t(buf, 38, chan18_raw);
 151:Service/../MAVLink/common/./mavlink_msg_rc_channels.h ****     _mav_put_uint8_t(buf, 40, chancount);
 152:Service/../MAVLink/common/./mavlink_msg_rc_channels.h ****     _mav_put_uint8_t(buf, 41, rssi);
 153:Service/../MAVLink/common/./mavlink_msg_rc_channels.h **** 
 154:Service/../MAVLink/common/./mavlink_msg_rc_channels.h ****         memcpy(_MAV_PAYLOAD_NON_CONST(msg), buf, MAVLINK_MSG_ID_RC_CHANNELS_LEN);
 155:Service/../MAVLink/common/./mavlink_msg_rc_channels.h **** #else
 156:Service/../MAVLink/common/./mavlink_msg_rc_channels.h ****     mavlink_rc_channels_t packet;
 157:Service/../MAVLink/common/./mavlink_msg_rc_channels.h ****     packet.time_boot_ms = time_boot_ms;
 158:Service/../MAVLink/common/./mavlink_msg_rc_channels.h ****     packet.chan1_raw = chan1_raw;
 159:Service/../MAVLink/common/./mavlink_msg_rc_channels.h ****     packet.chan2_raw = chan2_raw;
 160:Service/../MAVLink/common/./mavlink_msg_rc_channels.h ****     packet.chan3_raw = chan3_raw;
 161:Service/../MAVLink/common/./mavlink_msg_rc_channels.h ****     packet.chan4_raw = chan4_raw;
 162:Service/../MAVLink/common/./mavlink_msg_rc_channels.h ****     packet.chan5_raw = chan5_raw;
 163:Service/../MAVLink/common/./mavlink_msg_rc_channels.h ****     packet.chan6_raw = chan6_raw;
 164:Service/../MAVLink/common/./mavlink_msg_rc_channels.h ****     packet.chan7_raw = chan7_raw;
 165:Service/../MAVLink/common/./mavlink_msg_rc_channels.h ****     packet.chan8_raw = chan8_raw;
 166:Service/../MAVLink/common/./mavlink_msg_rc_channels.h ****     packet.chan9_raw = chan9_raw;
 167:Service/../MAVLink/common/./mavlink_msg_rc_channels.h ****     packet.chan10_raw = chan10_raw;
 168:Service/../MAVLink/common/./mavlink_msg_rc_channels.h ****     packet.chan11_raw = chan11_raw;
 169:Service/../MAVLink/common/./mavlink_msg_rc_channels.h ****     packet.chan12_raw = chan12_raw;
 170:Service/../MAVLink/common/./mavlink_msg_rc_channels.h ****     packet.chan13_raw = chan13_raw;
 171:Service/../MAVLink/common/./mavlink_msg_rc_channels.h ****     packet.chan14_raw = chan14_raw;
 172:Service/../MAVLink/common/./mavlink_msg_rc_channels.h ****     packet.chan15_raw = chan15_raw;
 173:Service/../MAVLink/common/./mavlink_msg_rc_channels.h ****     packet.chan16_raw = chan16_raw;
 174:Service/../MAVLink/common/./mavlink_msg_rc_channels.h ****     packet.chan17_raw = chan17_raw;
 175:Service/../MAVLink/common/./mavlink_msg_rc_channels.h ****     packet.chan18_raw = chan18_raw;
 176:Service/../MAVLink/common/./mavlink_msg_rc_channels.h ****     packet.chancount = chancount;
 177:Service/../MAVLink/common/./mavlink_msg_rc_channels.h ****     packet.rssi = rssi;
 178:Service/../MAVLink/common/./mavlink_msg_rc_channels.h **** 
 179:Service/../MAVLink/common/./mavlink_msg_rc_channels.h ****         memcpy(_MAV_PAYLOAD_NON_CONST(msg), &packet, MAVLINK_MSG_ID_RC_CHANNELS_LEN);
 180:Service/../MAVLink/common/./mavlink_msg_rc_channels.h **** #endif
 181:Service/../MAVLink/common/./mavlink_msg_rc_channels.h **** 
 182:Service/../MAVLink/common/./mavlink_msg_rc_channels.h ****     msg->msgid = MAVLINK_MSG_ID_RC_CHANNELS;
 183:Service/../MAVLink/common/./mavlink_msg_rc_channels.h ****     return mavlink_finalize_message(msg, system_id, component_id, MAVLINK_MSG_ID_RC_CHANNELS_MIN_LE
 184:Service/../MAVLink/common/./mavlink_msg_rc_channels.h **** }
 185:Service/../MAVLink/common/./mavlink_msg_rc_channels.h **** 
 186:Service/../MAVLink/common/./mavlink_msg_rc_channels.h **** /**
 187:Service/../MAVLink/common/./mavlink_msg_rc_channels.h ****  * @brief Pack a rc_channels message on a channel
 188:Service/../MAVLink/common/./mavlink_msg_rc_channels.h ****  * @param system_id ID of this system
 189:Service/../MAVLink/common/./mavlink_msg_rc_channels.h ****  * @param component_id ID of this component (e.g. 200 for IMU)
 190:Service/../MAVLink/common/./mavlink_msg_rc_channels.h ****  * @param chan The MAVLink channel this message will be sent over
 191:Service/../MAVLink/common/./mavlink_msg_rc_channels.h ****  * @param msg The MAVLink message to compress the data into
ARM GAS  C:\Users\8bit\AppData\Local\Temp\ccCRhmZR.s 			page 56


 192:Service/../MAVLink/common/./mavlink_msg_rc_channels.h ****  * @param time_boot_ms [ms] Timestamp (time since system boot).
 193:Service/../MAVLink/common/./mavlink_msg_rc_channels.h ****  * @param chancount  Total number of RC channels being received. This can be larger than 18, indica
 194:Service/../MAVLink/common/./mavlink_msg_rc_channels.h ****  * @param chan1_raw [us] RC channel 1 value.
 195:Service/../MAVLink/common/./mavlink_msg_rc_channels.h ****  * @param chan2_raw [us] RC channel 2 value.
 196:Service/../MAVLink/common/./mavlink_msg_rc_channels.h ****  * @param chan3_raw [us] RC channel 3 value.
 197:Service/../MAVLink/common/./mavlink_msg_rc_channels.h ****  * @param chan4_raw [us] RC channel 4 value.
 198:Service/../MAVLink/common/./mavlink_msg_rc_channels.h ****  * @param chan5_raw [us] RC channel 5 value.
 199:Service/../MAVLink/common/./mavlink_msg_rc_channels.h ****  * @param chan6_raw [us] RC channel 6 value.
 200:Service/../MAVLink/common/./mavlink_msg_rc_channels.h ****  * @param chan7_raw [us] RC channel 7 value.
 201:Service/../MAVLink/common/./mavlink_msg_rc_channels.h ****  * @param chan8_raw [us] RC channel 8 value.
 202:Service/../MAVLink/common/./mavlink_msg_rc_channels.h ****  * @param chan9_raw [us] RC channel 9 value.
 203:Service/../MAVLink/common/./mavlink_msg_rc_channels.h ****  * @param chan10_raw [us] RC channel 10 value.
 204:Service/../MAVLink/common/./mavlink_msg_rc_channels.h ****  * @param chan11_raw [us] RC channel 11 value.
 205:Service/../MAVLink/common/./mavlink_msg_rc_channels.h ****  * @param chan12_raw [us] RC channel 12 value.
 206:Service/../MAVLink/common/./mavlink_msg_rc_channels.h ****  * @param chan13_raw [us] RC channel 13 value.
 207:Service/../MAVLink/common/./mavlink_msg_rc_channels.h ****  * @param chan14_raw [us] RC channel 14 value.
 208:Service/../MAVLink/common/./mavlink_msg_rc_channels.h ****  * @param chan15_raw [us] RC channel 15 value.
 209:Service/../MAVLink/common/./mavlink_msg_rc_channels.h ****  * @param chan16_raw [us] RC channel 16 value.
 210:Service/../MAVLink/common/./mavlink_msg_rc_channels.h ****  * @param chan17_raw [us] RC channel 17 value.
 211:Service/../MAVLink/common/./mavlink_msg_rc_channels.h ****  * @param chan18_raw [us] RC channel 18 value.
 212:Service/../MAVLink/common/./mavlink_msg_rc_channels.h ****  * @param rssi  Receive signal strength indicator in device-dependent units/scale. Values: [0-254],
 213:Service/../MAVLink/common/./mavlink_msg_rc_channels.h ****  * @return length of the message in bytes (excluding serial stream start sign)
 214:Service/../MAVLink/common/./mavlink_msg_rc_channels.h ****  */
 215:Service/../MAVLink/common/./mavlink_msg_rc_channels.h **** static inline uint16_t mavlink_msg_rc_channels_pack_chan(uint8_t system_id, uint8_t component_id, u
 216:Service/../MAVLink/common/./mavlink_msg_rc_channels.h ****                                mavlink_message_t* msg,
 217:Service/../MAVLink/common/./mavlink_msg_rc_channels.h ****                                    uint32_t time_boot_ms,uint8_t chancount,uint16_t chan1_raw,uint1
 218:Service/../MAVLink/common/./mavlink_msg_rc_channels.h **** {
 219:Service/../MAVLink/common/./mavlink_msg_rc_channels.h **** #if MAVLINK_NEED_BYTE_SWAP || !MAVLINK_ALIGNED_FIELDS
 220:Service/../MAVLink/common/./mavlink_msg_rc_channels.h ****     char buf[MAVLINK_MSG_ID_RC_CHANNELS_LEN];
 221:Service/../MAVLink/common/./mavlink_msg_rc_channels.h ****     _mav_put_uint32_t(buf, 0, time_boot_ms);
 222:Service/../MAVLink/common/./mavlink_msg_rc_channels.h ****     _mav_put_uint16_t(buf, 4, chan1_raw);
 223:Service/../MAVLink/common/./mavlink_msg_rc_channels.h ****     _mav_put_uint16_t(buf, 6, chan2_raw);
 224:Service/../MAVLink/common/./mavlink_msg_rc_channels.h ****     _mav_put_uint16_t(buf, 8, chan3_raw);
 225:Service/../MAVLink/common/./mavlink_msg_rc_channels.h ****     _mav_put_uint16_t(buf, 10, chan4_raw);
 226:Service/../MAVLink/common/./mavlink_msg_rc_channels.h ****     _mav_put_uint16_t(buf, 12, chan5_raw);
 227:Service/../MAVLink/common/./mavlink_msg_rc_channels.h ****     _mav_put_uint16_t(buf, 14, chan6_raw);
 228:Service/../MAVLink/common/./mavlink_msg_rc_channels.h ****     _mav_put_uint16_t(buf, 16, chan7_raw);
 229:Service/../MAVLink/common/./mavlink_msg_rc_channels.h ****     _mav_put_uint16_t(buf, 18, chan8_raw);
 230:Service/../MAVLink/common/./mavlink_msg_rc_channels.h ****     _mav_put_uint16_t(buf, 20, chan9_raw);
 231:Service/../MAVLink/common/./mavlink_msg_rc_channels.h ****     _mav_put_uint16_t(buf, 22, chan10_raw);
 232:Service/../MAVLink/common/./mavlink_msg_rc_channels.h ****     _mav_put_uint16_t(buf, 24, chan11_raw);
 233:Service/../MAVLink/common/./mavlink_msg_rc_channels.h ****     _mav_put_uint16_t(buf, 26, chan12_raw);
 234:Service/../MAVLink/common/./mavlink_msg_rc_channels.h ****     _mav_put_uint16_t(buf, 28, chan13_raw);
 235:Service/../MAVLink/common/./mavlink_msg_rc_channels.h ****     _mav_put_uint16_t(buf, 30, chan14_raw);
 236:Service/../MAVLink/common/./mavlink_msg_rc_channels.h ****     _mav_put_uint16_t(buf, 32, chan15_raw);
 237:Service/../MAVLink/common/./mavlink_msg_rc_channels.h ****     _mav_put_uint16_t(buf, 34, chan16_raw);
 238:Service/../MAVLink/common/./mavlink_msg_rc_channels.h ****     _mav_put_uint16_t(buf, 36, chan17_raw);
 239:Service/../MAVLink/common/./mavlink_msg_rc_channels.h ****     _mav_put_uint16_t(buf, 38, chan18_raw);
 240:Service/../MAVLink/common/./mavlink_msg_rc_channels.h ****     _mav_put_uint8_t(buf, 40, chancount);
 241:Service/../MAVLink/common/./mavlink_msg_rc_channels.h ****     _mav_put_uint8_t(buf, 41, rssi);
 242:Service/../MAVLink/common/./mavlink_msg_rc_channels.h **** 
 243:Service/../MAVLink/common/./mavlink_msg_rc_channels.h ****         memcpy(_MAV_PAYLOAD_NON_CONST(msg), buf, MAVLINK_MSG_ID_RC_CHANNELS_LEN);
 244:Service/../MAVLink/common/./mavlink_msg_rc_channels.h **** #else
 245:Service/../MAVLink/common/./mavlink_msg_rc_channels.h ****     mavlink_rc_channels_t packet;
 246:Service/../MAVLink/common/./mavlink_msg_rc_channels.h ****     packet.time_boot_ms = time_boot_ms;
 247:Service/../MAVLink/common/./mavlink_msg_rc_channels.h ****     packet.chan1_raw = chan1_raw;
 248:Service/../MAVLink/common/./mavlink_msg_rc_channels.h ****     packet.chan2_raw = chan2_raw;
ARM GAS  C:\Users\8bit\AppData\Local\Temp\ccCRhmZR.s 			page 57


 249:Service/../MAVLink/common/./mavlink_msg_rc_channels.h ****     packet.chan3_raw = chan3_raw;
 250:Service/../MAVLink/common/./mavlink_msg_rc_channels.h ****     packet.chan4_raw = chan4_raw;
 251:Service/../MAVLink/common/./mavlink_msg_rc_channels.h ****     packet.chan5_raw = chan5_raw;
 252:Service/../MAVLink/common/./mavlink_msg_rc_channels.h ****     packet.chan6_raw = chan6_raw;
 253:Service/../MAVLink/common/./mavlink_msg_rc_channels.h ****     packet.chan7_raw = chan7_raw;
 254:Service/../MAVLink/common/./mavlink_msg_rc_channels.h ****     packet.chan8_raw = chan8_raw;
 255:Service/../MAVLink/common/./mavlink_msg_rc_channels.h ****     packet.chan9_raw = chan9_raw;
 256:Service/../MAVLink/common/./mavlink_msg_rc_channels.h ****     packet.chan10_raw = chan10_raw;
 257:Service/../MAVLink/common/./mavlink_msg_rc_channels.h ****     packet.chan11_raw = chan11_raw;
 258:Service/../MAVLink/common/./mavlink_msg_rc_channels.h ****     packet.chan12_raw = chan12_raw;
 259:Service/../MAVLink/common/./mavlink_msg_rc_channels.h ****     packet.chan13_raw = chan13_raw;
 260:Service/../MAVLink/common/./mavlink_msg_rc_channels.h ****     packet.chan14_raw = chan14_raw;
 261:Service/../MAVLink/common/./mavlink_msg_rc_channels.h ****     packet.chan15_raw = chan15_raw;
 262:Service/../MAVLink/common/./mavlink_msg_rc_channels.h ****     packet.chan16_raw = chan16_raw;
 263:Service/../MAVLink/common/./mavlink_msg_rc_channels.h ****     packet.chan17_raw = chan17_raw;
 264:Service/../MAVLink/common/./mavlink_msg_rc_channels.h ****     packet.chan18_raw = chan18_raw;
 265:Service/../MAVLink/common/./mavlink_msg_rc_channels.h ****     packet.chancount = chancount;
 266:Service/../MAVLink/common/./mavlink_msg_rc_channels.h ****     packet.rssi = rssi;
 267:Service/../MAVLink/common/./mavlink_msg_rc_channels.h **** 
 268:Service/../MAVLink/common/./mavlink_msg_rc_channels.h ****         memcpy(_MAV_PAYLOAD_NON_CONST(msg), &packet, MAVLINK_MSG_ID_RC_CHANNELS_LEN);
 269:Service/../MAVLink/common/./mavlink_msg_rc_channels.h **** #endif
 270:Service/../MAVLink/common/./mavlink_msg_rc_channels.h **** 
 271:Service/../MAVLink/common/./mavlink_msg_rc_channels.h ****     msg->msgid = MAVLINK_MSG_ID_RC_CHANNELS;
 272:Service/../MAVLink/common/./mavlink_msg_rc_channels.h ****     return mavlink_finalize_message_chan(msg, system_id, component_id, chan, MAVLINK_MSG_ID_RC_CHAN
 273:Service/../MAVLink/common/./mavlink_msg_rc_channels.h **** }
 274:Service/../MAVLink/common/./mavlink_msg_rc_channels.h **** 
 275:Service/../MAVLink/common/./mavlink_msg_rc_channels.h **** /**
 276:Service/../MAVLink/common/./mavlink_msg_rc_channels.h ****  * @brief Encode a rc_channels struct
 277:Service/../MAVLink/common/./mavlink_msg_rc_channels.h ****  *
 278:Service/../MAVLink/common/./mavlink_msg_rc_channels.h ****  * @param system_id ID of this system
 279:Service/../MAVLink/common/./mavlink_msg_rc_channels.h ****  * @param component_id ID of this component (e.g. 200 for IMU)
 280:Service/../MAVLink/common/./mavlink_msg_rc_channels.h ****  * @param msg The MAVLink message to compress the data into
 281:Service/../MAVLink/common/./mavlink_msg_rc_channels.h ****  * @param rc_channels C-struct to read the message contents from
 282:Service/../MAVLink/common/./mavlink_msg_rc_channels.h ****  */
 283:Service/../MAVLink/common/./mavlink_msg_rc_channels.h **** static inline uint16_t mavlink_msg_rc_channels_encode(uint8_t system_id, uint8_t component_id, mavl
 284:Service/../MAVLink/common/./mavlink_msg_rc_channels.h **** {
 285:Service/../MAVLink/common/./mavlink_msg_rc_channels.h ****     return mavlink_msg_rc_channels_pack(system_id, component_id, msg, rc_channels->time_boot_ms, rc
 286:Service/../MAVLink/common/./mavlink_msg_rc_channels.h **** }
 287:Service/../MAVLink/common/./mavlink_msg_rc_channels.h **** 
 288:Service/../MAVLink/common/./mavlink_msg_rc_channels.h **** /**
 289:Service/../MAVLink/common/./mavlink_msg_rc_channels.h ****  * @brief Encode a rc_channels struct on a channel
 290:Service/../MAVLink/common/./mavlink_msg_rc_channels.h ****  *
 291:Service/../MAVLink/common/./mavlink_msg_rc_channels.h ****  * @param system_id ID of this system
 292:Service/../MAVLink/common/./mavlink_msg_rc_channels.h ****  * @param component_id ID of this component (e.g. 200 for IMU)
 293:Service/../MAVLink/common/./mavlink_msg_rc_channels.h ****  * @param chan The MAVLink channel this message will be sent over
 294:Service/../MAVLink/common/./mavlink_msg_rc_channels.h ****  * @param msg The MAVLink message to compress the data into
 295:Service/../MAVLink/common/./mavlink_msg_rc_channels.h ****  * @param rc_channels C-struct to read the message contents from
 296:Service/../MAVLink/common/./mavlink_msg_rc_channels.h ****  */
 297:Service/../MAVLink/common/./mavlink_msg_rc_channels.h **** static inline uint16_t mavlink_msg_rc_channels_encode_chan(uint8_t system_id, uint8_t component_id,
 298:Service/../MAVLink/common/./mavlink_msg_rc_channels.h **** {
 299:Service/../MAVLink/common/./mavlink_msg_rc_channels.h ****     return mavlink_msg_rc_channels_pack_chan(system_id, component_id, chan, msg, rc_channels->time_
 300:Service/../MAVLink/common/./mavlink_msg_rc_channels.h **** }
 301:Service/../MAVLink/common/./mavlink_msg_rc_channels.h **** 
 302:Service/../MAVLink/common/./mavlink_msg_rc_channels.h **** /**
 303:Service/../MAVLink/common/./mavlink_msg_rc_channels.h ****  * @brief Send a rc_channels message
 304:Service/../MAVLink/common/./mavlink_msg_rc_channels.h ****  * @param chan MAVLink channel to send the message
 305:Service/../MAVLink/common/./mavlink_msg_rc_channels.h ****  *
ARM GAS  C:\Users\8bit\AppData\Local\Temp\ccCRhmZR.s 			page 58


 306:Service/../MAVLink/common/./mavlink_msg_rc_channels.h ****  * @param time_boot_ms [ms] Timestamp (time since system boot).
 307:Service/../MAVLink/common/./mavlink_msg_rc_channels.h ****  * @param chancount  Total number of RC channels being received. This can be larger than 18, indica
 308:Service/../MAVLink/common/./mavlink_msg_rc_channels.h ****  * @param chan1_raw [us] RC channel 1 value.
 309:Service/../MAVLink/common/./mavlink_msg_rc_channels.h ****  * @param chan2_raw [us] RC channel 2 value.
 310:Service/../MAVLink/common/./mavlink_msg_rc_channels.h ****  * @param chan3_raw [us] RC channel 3 value.
 311:Service/../MAVLink/common/./mavlink_msg_rc_channels.h ****  * @param chan4_raw [us] RC channel 4 value.
 312:Service/../MAVLink/common/./mavlink_msg_rc_channels.h ****  * @param chan5_raw [us] RC channel 5 value.
 313:Service/../MAVLink/common/./mavlink_msg_rc_channels.h ****  * @param chan6_raw [us] RC channel 6 value.
 314:Service/../MAVLink/common/./mavlink_msg_rc_channels.h ****  * @param chan7_raw [us] RC channel 7 value.
 315:Service/../MAVLink/common/./mavlink_msg_rc_channels.h ****  * @param chan8_raw [us] RC channel 8 value.
 316:Service/../MAVLink/common/./mavlink_msg_rc_channels.h ****  * @param chan9_raw [us] RC channel 9 value.
 317:Service/../MAVLink/common/./mavlink_msg_rc_channels.h ****  * @param chan10_raw [us] RC channel 10 value.
 318:Service/../MAVLink/common/./mavlink_msg_rc_channels.h ****  * @param chan11_raw [us] RC channel 11 value.
 319:Service/../MAVLink/common/./mavlink_msg_rc_channels.h ****  * @param chan12_raw [us] RC channel 12 value.
 320:Service/../MAVLink/common/./mavlink_msg_rc_channels.h ****  * @param chan13_raw [us] RC channel 13 value.
 321:Service/../MAVLink/common/./mavlink_msg_rc_channels.h ****  * @param chan14_raw [us] RC channel 14 value.
 322:Service/../MAVLink/common/./mavlink_msg_rc_channels.h ****  * @param chan15_raw [us] RC channel 15 value.
 323:Service/../MAVLink/common/./mavlink_msg_rc_channels.h ****  * @param chan16_raw [us] RC channel 16 value.
 324:Service/../MAVLink/common/./mavlink_msg_rc_channels.h ****  * @param chan17_raw [us] RC channel 17 value.
 325:Service/../MAVLink/common/./mavlink_msg_rc_channels.h ****  * @param chan18_raw [us] RC channel 18 value.
 326:Service/../MAVLink/common/./mavlink_msg_rc_channels.h ****  * @param rssi  Receive signal strength indicator in device-dependent units/scale. Values: [0-254],
 327:Service/../MAVLink/common/./mavlink_msg_rc_channels.h ****  */
 328:Service/../MAVLink/common/./mavlink_msg_rc_channels.h **** #ifdef MAVLINK_USE_CONVENIENCE_FUNCTIONS
 329:Service/../MAVLink/common/./mavlink_msg_rc_channels.h **** 
 330:Service/../MAVLink/common/./mavlink_msg_rc_channels.h **** static inline void mavlink_msg_rc_channels_send(mavlink_channel_t chan, uint32_t time_boot_ms, uint
 331:Service/../MAVLink/common/./mavlink_msg_rc_channels.h **** {
 332:Service/../MAVLink/common/./mavlink_msg_rc_channels.h **** #if MAVLINK_NEED_BYTE_SWAP || !MAVLINK_ALIGNED_FIELDS
 333:Service/../MAVLink/common/./mavlink_msg_rc_channels.h ****     char buf[MAVLINK_MSG_ID_RC_CHANNELS_LEN];
 334:Service/../MAVLink/common/./mavlink_msg_rc_channels.h ****     _mav_put_uint32_t(buf, 0, time_boot_ms);
 335:Service/../MAVLink/common/./mavlink_msg_rc_channels.h ****     _mav_put_uint16_t(buf, 4, chan1_raw);
 336:Service/../MAVLink/common/./mavlink_msg_rc_channels.h ****     _mav_put_uint16_t(buf, 6, chan2_raw);
 337:Service/../MAVLink/common/./mavlink_msg_rc_channels.h ****     _mav_put_uint16_t(buf, 8, chan3_raw);
 338:Service/../MAVLink/common/./mavlink_msg_rc_channels.h ****     _mav_put_uint16_t(buf, 10, chan4_raw);
 339:Service/../MAVLink/common/./mavlink_msg_rc_channels.h ****     _mav_put_uint16_t(buf, 12, chan5_raw);
 340:Service/../MAVLink/common/./mavlink_msg_rc_channels.h ****     _mav_put_uint16_t(buf, 14, chan6_raw);
 341:Service/../MAVLink/common/./mavlink_msg_rc_channels.h ****     _mav_put_uint16_t(buf, 16, chan7_raw);
 342:Service/../MAVLink/common/./mavlink_msg_rc_channels.h ****     _mav_put_uint16_t(buf, 18, chan8_raw);
 343:Service/../MAVLink/common/./mavlink_msg_rc_channels.h ****     _mav_put_uint16_t(buf, 20, chan9_raw);
 344:Service/../MAVLink/common/./mavlink_msg_rc_channels.h ****     _mav_put_uint16_t(buf, 22, chan10_raw);
 345:Service/../MAVLink/common/./mavlink_msg_rc_channels.h ****     _mav_put_uint16_t(buf, 24, chan11_raw);
 346:Service/../MAVLink/common/./mavlink_msg_rc_channels.h ****     _mav_put_uint16_t(buf, 26, chan12_raw);
 347:Service/../MAVLink/common/./mavlink_msg_rc_channels.h ****     _mav_put_uint16_t(buf, 28, chan13_raw);
 348:Service/../MAVLink/common/./mavlink_msg_rc_channels.h ****     _mav_put_uint16_t(buf, 30, chan14_raw);
 349:Service/../MAVLink/common/./mavlink_msg_rc_channels.h ****     _mav_put_uint16_t(buf, 32, chan15_raw);
 350:Service/../MAVLink/common/./mavlink_msg_rc_channels.h ****     _mav_put_uint16_t(buf, 34, chan16_raw);
 351:Service/../MAVLink/common/./mavlink_msg_rc_channels.h ****     _mav_put_uint16_t(buf, 36, chan17_raw);
 352:Service/../MAVLink/common/./mavlink_msg_rc_channels.h ****     _mav_put_uint16_t(buf, 38, chan18_raw);
 353:Service/../MAVLink/common/./mavlink_msg_rc_channels.h ****     _mav_put_uint8_t(buf, 40, chancount);
 354:Service/../MAVLink/common/./mavlink_msg_rc_channels.h ****     _mav_put_uint8_t(buf, 41, rssi);
 355:Service/../MAVLink/common/./mavlink_msg_rc_channels.h **** 
 356:Service/../MAVLink/common/./mavlink_msg_rc_channels.h ****     _mav_finalize_message_chan_send(chan, MAVLINK_MSG_ID_RC_CHANNELS, buf, MAVLINK_MSG_ID_RC_CHANNE
 357:Service/../MAVLink/common/./mavlink_msg_rc_channels.h **** #else
 358:Service/../MAVLink/common/./mavlink_msg_rc_channels.h ****     mavlink_rc_channels_t packet;
 359:Service/../MAVLink/common/./mavlink_msg_rc_channels.h ****     packet.time_boot_ms = time_boot_ms;
 360:Service/../MAVLink/common/./mavlink_msg_rc_channels.h ****     packet.chan1_raw = chan1_raw;
 361:Service/../MAVLink/common/./mavlink_msg_rc_channels.h ****     packet.chan2_raw = chan2_raw;
 362:Service/../MAVLink/common/./mavlink_msg_rc_channels.h ****     packet.chan3_raw = chan3_raw;
ARM GAS  C:\Users\8bit\AppData\Local\Temp\ccCRhmZR.s 			page 59


 363:Service/../MAVLink/common/./mavlink_msg_rc_channels.h ****     packet.chan4_raw = chan4_raw;
 364:Service/../MAVLink/common/./mavlink_msg_rc_channels.h ****     packet.chan5_raw = chan5_raw;
 365:Service/../MAVLink/common/./mavlink_msg_rc_channels.h ****     packet.chan6_raw = chan6_raw;
 366:Service/../MAVLink/common/./mavlink_msg_rc_channels.h ****     packet.chan7_raw = chan7_raw;
 367:Service/../MAVLink/common/./mavlink_msg_rc_channels.h ****     packet.chan8_raw = chan8_raw;
 368:Service/../MAVLink/common/./mavlink_msg_rc_channels.h ****     packet.chan9_raw = chan9_raw;
 369:Service/../MAVLink/common/./mavlink_msg_rc_channels.h ****     packet.chan10_raw = chan10_raw;
 370:Service/../MAVLink/common/./mavlink_msg_rc_channels.h ****     packet.chan11_raw = chan11_raw;
 371:Service/../MAVLink/common/./mavlink_msg_rc_channels.h ****     packet.chan12_raw = chan12_raw;
 372:Service/../MAVLink/common/./mavlink_msg_rc_channels.h ****     packet.chan13_raw = chan13_raw;
 373:Service/../MAVLink/common/./mavlink_msg_rc_channels.h ****     packet.chan14_raw = chan14_raw;
 374:Service/../MAVLink/common/./mavlink_msg_rc_channels.h ****     packet.chan15_raw = chan15_raw;
 375:Service/../MAVLink/common/./mavlink_msg_rc_channels.h ****     packet.chan16_raw = chan16_raw;
 376:Service/../MAVLink/common/./mavlink_msg_rc_channels.h ****     packet.chan17_raw = chan17_raw;
 377:Service/../MAVLink/common/./mavlink_msg_rc_channels.h ****     packet.chan18_raw = chan18_raw;
 378:Service/../MAVLink/common/./mavlink_msg_rc_channels.h ****     packet.chancount = chancount;
 379:Service/../MAVLink/common/./mavlink_msg_rc_channels.h ****     packet.rssi = rssi;
 380:Service/../MAVLink/common/./mavlink_msg_rc_channels.h **** 
 381:Service/../MAVLink/common/./mavlink_msg_rc_channels.h ****     _mav_finalize_message_chan_send(chan, MAVLINK_MSG_ID_RC_CHANNELS, (const char *)&packet, MAVLIN
 382:Service/../MAVLink/common/./mavlink_msg_rc_channels.h **** #endif
 383:Service/../MAVLink/common/./mavlink_msg_rc_channels.h **** }
 384:Service/../MAVLink/common/./mavlink_msg_rc_channels.h **** 
 385:Service/../MAVLink/common/./mavlink_msg_rc_channels.h **** /**
 386:Service/../MAVLink/common/./mavlink_msg_rc_channels.h ****  * @brief Send a rc_channels message
 387:Service/../MAVLink/common/./mavlink_msg_rc_channels.h ****  * @param chan MAVLink channel to send the message
 388:Service/../MAVLink/common/./mavlink_msg_rc_channels.h ****  * @param struct The MAVLink struct to serialize
 389:Service/../MAVLink/common/./mavlink_msg_rc_channels.h ****  */
 390:Service/../MAVLink/common/./mavlink_msg_rc_channels.h **** static inline void mavlink_msg_rc_channels_send_struct(mavlink_channel_t chan, const mavlink_rc_cha
 391:Service/../MAVLink/common/./mavlink_msg_rc_channels.h **** {
 392:Service/../MAVLink/common/./mavlink_msg_rc_channels.h **** #if MAVLINK_NEED_BYTE_SWAP || !MAVLINK_ALIGNED_FIELDS
 393:Service/../MAVLink/common/./mavlink_msg_rc_channels.h ****     mavlink_msg_rc_channels_send(chan, rc_channels->time_boot_ms, rc_channels->chancount, rc_channe
 394:Service/../MAVLink/common/./mavlink_msg_rc_channels.h **** #else
 395:Service/../MAVLink/common/./mavlink_msg_rc_channels.h ****     _mav_finalize_message_chan_send(chan, MAVLINK_MSG_ID_RC_CHANNELS, (const char *)rc_channels, MA
 396:Service/../MAVLink/common/./mavlink_msg_rc_channels.h **** #endif
 397:Service/../MAVLink/common/./mavlink_msg_rc_channels.h **** }
 398:Service/../MAVLink/common/./mavlink_msg_rc_channels.h **** 
 399:Service/../MAVLink/common/./mavlink_msg_rc_channels.h **** #if MAVLINK_MSG_ID_RC_CHANNELS_LEN <= MAVLINK_MAX_PAYLOAD_LEN
 400:Service/../MAVLink/common/./mavlink_msg_rc_channels.h **** /*
 401:Service/../MAVLink/common/./mavlink_msg_rc_channels.h ****   This variant of _send() can be used to save stack space by re-using
 402:Service/../MAVLink/common/./mavlink_msg_rc_channels.h ****   memory from the receive buffer.  The caller provides a
 403:Service/../MAVLink/common/./mavlink_msg_rc_channels.h ****   mavlink_message_t which is the size of a full mavlink message. This
 404:Service/../MAVLink/common/./mavlink_msg_rc_channels.h ****   is usually the receive buffer for the channel, and allows a reply to an
 405:Service/../MAVLink/common/./mavlink_msg_rc_channels.h ****   incoming message with minimum stack space usage.
 406:Service/../MAVLink/common/./mavlink_msg_rc_channels.h ****  */
 407:Service/../MAVLink/common/./mavlink_msg_rc_channels.h **** static inline void mavlink_msg_rc_channels_send_buf(mavlink_message_t *msgbuf, mavlink_channel_t ch
 408:Service/../MAVLink/common/./mavlink_msg_rc_channels.h **** {
 409:Service/../MAVLink/common/./mavlink_msg_rc_channels.h **** #if MAVLINK_NEED_BYTE_SWAP || !MAVLINK_ALIGNED_FIELDS
 410:Service/../MAVLink/common/./mavlink_msg_rc_channels.h ****     char *buf = (char *)msgbuf;
 411:Service/../MAVLink/common/./mavlink_msg_rc_channels.h ****     _mav_put_uint32_t(buf, 0, time_boot_ms);
 412:Service/../MAVLink/common/./mavlink_msg_rc_channels.h ****     _mav_put_uint16_t(buf, 4, chan1_raw);
 413:Service/../MAVLink/common/./mavlink_msg_rc_channels.h ****     _mav_put_uint16_t(buf, 6, chan2_raw);
 414:Service/../MAVLink/common/./mavlink_msg_rc_channels.h ****     _mav_put_uint16_t(buf, 8, chan3_raw);
 415:Service/../MAVLink/common/./mavlink_msg_rc_channels.h ****     _mav_put_uint16_t(buf, 10, chan4_raw);
 416:Service/../MAVLink/common/./mavlink_msg_rc_channels.h ****     _mav_put_uint16_t(buf, 12, chan5_raw);
 417:Service/../MAVLink/common/./mavlink_msg_rc_channels.h ****     _mav_put_uint16_t(buf, 14, chan6_raw);
 418:Service/../MAVLink/common/./mavlink_msg_rc_channels.h ****     _mav_put_uint16_t(buf, 16, chan7_raw);
 419:Service/../MAVLink/common/./mavlink_msg_rc_channels.h ****     _mav_put_uint16_t(buf, 18, chan8_raw);
ARM GAS  C:\Users\8bit\AppData\Local\Temp\ccCRhmZR.s 			page 60


 420:Service/../MAVLink/common/./mavlink_msg_rc_channels.h ****     _mav_put_uint16_t(buf, 20, chan9_raw);
 421:Service/../MAVLink/common/./mavlink_msg_rc_channels.h ****     _mav_put_uint16_t(buf, 22, chan10_raw);
 422:Service/../MAVLink/common/./mavlink_msg_rc_channels.h ****     _mav_put_uint16_t(buf, 24, chan11_raw);
 423:Service/../MAVLink/common/./mavlink_msg_rc_channels.h ****     _mav_put_uint16_t(buf, 26, chan12_raw);
 424:Service/../MAVLink/common/./mavlink_msg_rc_channels.h ****     _mav_put_uint16_t(buf, 28, chan13_raw);
 425:Service/../MAVLink/common/./mavlink_msg_rc_channels.h ****     _mav_put_uint16_t(buf, 30, chan14_raw);
 426:Service/../MAVLink/common/./mavlink_msg_rc_channels.h ****     _mav_put_uint16_t(buf, 32, chan15_raw);
 427:Service/../MAVLink/common/./mavlink_msg_rc_channels.h ****     _mav_put_uint16_t(buf, 34, chan16_raw);
 428:Service/../MAVLink/common/./mavlink_msg_rc_channels.h ****     _mav_put_uint16_t(buf, 36, chan17_raw);
 429:Service/../MAVLink/common/./mavlink_msg_rc_channels.h ****     _mav_put_uint16_t(buf, 38, chan18_raw);
 430:Service/../MAVLink/common/./mavlink_msg_rc_channels.h ****     _mav_put_uint8_t(buf, 40, chancount);
 431:Service/../MAVLink/common/./mavlink_msg_rc_channels.h ****     _mav_put_uint8_t(buf, 41, rssi);
 432:Service/../MAVLink/common/./mavlink_msg_rc_channels.h **** 
 433:Service/../MAVLink/common/./mavlink_msg_rc_channels.h ****     _mav_finalize_message_chan_send(chan, MAVLINK_MSG_ID_RC_CHANNELS, buf, MAVLINK_MSG_ID_RC_CHANNE
 434:Service/../MAVLink/common/./mavlink_msg_rc_channels.h **** #else
 435:Service/../MAVLink/common/./mavlink_msg_rc_channels.h ****     mavlink_rc_channels_t *packet = (mavlink_rc_channels_t *)msgbuf;
 436:Service/../MAVLink/common/./mavlink_msg_rc_channels.h ****     packet->time_boot_ms = time_boot_ms;
 437:Service/../MAVLink/common/./mavlink_msg_rc_channels.h ****     packet->chan1_raw = chan1_raw;
 438:Service/../MAVLink/common/./mavlink_msg_rc_channels.h ****     packet->chan2_raw = chan2_raw;
 439:Service/../MAVLink/common/./mavlink_msg_rc_channels.h ****     packet->chan3_raw = chan3_raw;
 440:Service/../MAVLink/common/./mavlink_msg_rc_channels.h ****     packet->chan4_raw = chan4_raw;
 441:Service/../MAVLink/common/./mavlink_msg_rc_channels.h ****     packet->chan5_raw = chan5_raw;
 442:Service/../MAVLink/common/./mavlink_msg_rc_channels.h ****     packet->chan6_raw = chan6_raw;
 443:Service/../MAVLink/common/./mavlink_msg_rc_channels.h ****     packet->chan7_raw = chan7_raw;
 444:Service/../MAVLink/common/./mavlink_msg_rc_channels.h ****     packet->chan8_raw = chan8_raw;
 445:Service/../MAVLink/common/./mavlink_msg_rc_channels.h ****     packet->chan9_raw = chan9_raw;
 446:Service/../MAVLink/common/./mavlink_msg_rc_channels.h ****     packet->chan10_raw = chan10_raw;
 447:Service/../MAVLink/common/./mavlink_msg_rc_channels.h ****     packet->chan11_raw = chan11_raw;
 448:Service/../MAVLink/common/./mavlink_msg_rc_channels.h ****     packet->chan12_raw = chan12_raw;
 449:Service/../MAVLink/common/./mavlink_msg_rc_channels.h ****     packet->chan13_raw = chan13_raw;
 450:Service/../MAVLink/common/./mavlink_msg_rc_channels.h ****     packet->chan14_raw = chan14_raw;
 451:Service/../MAVLink/common/./mavlink_msg_rc_channels.h ****     packet->chan15_raw = chan15_raw;
 452:Service/../MAVLink/common/./mavlink_msg_rc_channels.h ****     packet->chan16_raw = chan16_raw;
 453:Service/../MAVLink/common/./mavlink_msg_rc_channels.h ****     packet->chan17_raw = chan17_raw;
 454:Service/../MAVLink/common/./mavlink_msg_rc_channels.h ****     packet->chan18_raw = chan18_raw;
 455:Service/../MAVLink/common/./mavlink_msg_rc_channels.h ****     packet->chancount = chancount;
 456:Service/../MAVLink/common/./mavlink_msg_rc_channels.h ****     packet->rssi = rssi;
 457:Service/../MAVLink/common/./mavlink_msg_rc_channels.h **** 
 458:Service/../MAVLink/common/./mavlink_msg_rc_channels.h ****     _mav_finalize_message_chan_send(chan, MAVLINK_MSG_ID_RC_CHANNELS, (const char *)packet, MAVLINK
 459:Service/../MAVLink/common/./mavlink_msg_rc_channels.h **** #endif
 460:Service/../MAVLink/common/./mavlink_msg_rc_channels.h **** }
 461:Service/../MAVLink/common/./mavlink_msg_rc_channels.h **** #endif
 462:Service/../MAVLink/common/./mavlink_msg_rc_channels.h **** 
 463:Service/../MAVLink/common/./mavlink_msg_rc_channels.h **** #endif
 464:Service/../MAVLink/common/./mavlink_msg_rc_channels.h **** 
 465:Service/../MAVLink/common/./mavlink_msg_rc_channels.h **** // MESSAGE RC_CHANNELS UNPACKING
 466:Service/../MAVLink/common/./mavlink_msg_rc_channels.h **** 
 467:Service/../MAVLink/common/./mavlink_msg_rc_channels.h **** 
 468:Service/../MAVLink/common/./mavlink_msg_rc_channels.h **** /**
 469:Service/../MAVLink/common/./mavlink_msg_rc_channels.h ****  * @brief Get field time_boot_ms from rc_channels message
 470:Service/../MAVLink/common/./mavlink_msg_rc_channels.h ****  *
 471:Service/../MAVLink/common/./mavlink_msg_rc_channels.h ****  * @return [ms] Timestamp (time since system boot).
 472:Service/../MAVLink/common/./mavlink_msg_rc_channels.h ****  */
 473:Service/../MAVLink/common/./mavlink_msg_rc_channels.h **** static inline uint32_t mavlink_msg_rc_channels_get_time_boot_ms(const mavlink_message_t* msg)
 474:Service/../MAVLink/common/./mavlink_msg_rc_channels.h **** {
 475:Service/../MAVLink/common/./mavlink_msg_rc_channels.h ****     return _MAV_RETURN_uint32_t(msg,  0);
 476:Service/../MAVLink/common/./mavlink_msg_rc_channels.h **** }
ARM GAS  C:\Users\8bit\AppData\Local\Temp\ccCRhmZR.s 			page 61


 477:Service/../MAVLink/common/./mavlink_msg_rc_channels.h **** 
 478:Service/../MAVLink/common/./mavlink_msg_rc_channels.h **** /**
 479:Service/../MAVLink/common/./mavlink_msg_rc_channels.h ****  * @brief Get field chancount from rc_channels message
 480:Service/../MAVLink/common/./mavlink_msg_rc_channels.h ****  *
 481:Service/../MAVLink/common/./mavlink_msg_rc_channels.h ****  * @return  Total number of RC channels being received. This can be larger than 18, indicating that
 482:Service/../MAVLink/common/./mavlink_msg_rc_channels.h ****  */
 483:Service/../MAVLink/common/./mavlink_msg_rc_channels.h **** static inline uint8_t mavlink_msg_rc_channels_get_chancount(const mavlink_message_t* msg)
 484:Service/../MAVLink/common/./mavlink_msg_rc_channels.h **** {
 485:Service/../MAVLink/common/./mavlink_msg_rc_channels.h ****     return _MAV_RETURN_uint8_t(msg,  40);
 486:Service/../MAVLink/common/./mavlink_msg_rc_channels.h **** }
 487:Service/../MAVLink/common/./mavlink_msg_rc_channels.h **** 
 488:Service/../MAVLink/common/./mavlink_msg_rc_channels.h **** /**
 489:Service/../MAVLink/common/./mavlink_msg_rc_channels.h ****  * @brief Get field chan1_raw from rc_channels message
 490:Service/../MAVLink/common/./mavlink_msg_rc_channels.h ****  *
 491:Service/../MAVLink/common/./mavlink_msg_rc_channels.h ****  * @return [us] RC channel 1 value.
 492:Service/../MAVLink/common/./mavlink_msg_rc_channels.h ****  */
 493:Service/../MAVLink/common/./mavlink_msg_rc_channels.h **** static inline uint16_t mavlink_msg_rc_channels_get_chan1_raw(const mavlink_message_t* msg)
 494:Service/../MAVLink/common/./mavlink_msg_rc_channels.h **** {
 495:Service/../MAVLink/common/./mavlink_msg_rc_channels.h ****     return _MAV_RETURN_uint16_t(msg,  4);
 496:Service/../MAVLink/common/./mavlink_msg_rc_channels.h **** }
 497:Service/../MAVLink/common/./mavlink_msg_rc_channels.h **** 
 498:Service/../MAVLink/common/./mavlink_msg_rc_channels.h **** /**
 499:Service/../MAVLink/common/./mavlink_msg_rc_channels.h ****  * @brief Get field chan2_raw from rc_channels message
 500:Service/../MAVLink/common/./mavlink_msg_rc_channels.h ****  *
 501:Service/../MAVLink/common/./mavlink_msg_rc_channels.h ****  * @return [us] RC channel 2 value.
 502:Service/../MAVLink/common/./mavlink_msg_rc_channels.h ****  */
 503:Service/../MAVLink/common/./mavlink_msg_rc_channels.h **** static inline uint16_t mavlink_msg_rc_channels_get_chan2_raw(const mavlink_message_t* msg)
 504:Service/../MAVLink/common/./mavlink_msg_rc_channels.h **** {
 505:Service/../MAVLink/common/./mavlink_msg_rc_channels.h ****     return _MAV_RETURN_uint16_t(msg,  6);
 506:Service/../MAVLink/common/./mavlink_msg_rc_channels.h **** }
 507:Service/../MAVLink/common/./mavlink_msg_rc_channels.h **** 
 508:Service/../MAVLink/common/./mavlink_msg_rc_channels.h **** /**
 509:Service/../MAVLink/common/./mavlink_msg_rc_channels.h ****  * @brief Get field chan3_raw from rc_channels message
 510:Service/../MAVLink/common/./mavlink_msg_rc_channels.h ****  *
 511:Service/../MAVLink/common/./mavlink_msg_rc_channels.h ****  * @return [us] RC channel 3 value.
 512:Service/../MAVLink/common/./mavlink_msg_rc_channels.h ****  */
 513:Service/../MAVLink/common/./mavlink_msg_rc_channels.h **** static inline uint16_t mavlink_msg_rc_channels_get_chan3_raw(const mavlink_message_t* msg)
 514:Service/../MAVLink/common/./mavlink_msg_rc_channels.h **** {
 515:Service/../MAVLink/common/./mavlink_msg_rc_channels.h ****     return _MAV_RETURN_uint16_t(msg,  8);
 516:Service/../MAVLink/common/./mavlink_msg_rc_channels.h **** }
 517:Service/../MAVLink/common/./mavlink_msg_rc_channels.h **** 
 518:Service/../MAVLink/common/./mavlink_msg_rc_channels.h **** /**
 519:Service/../MAVLink/common/./mavlink_msg_rc_channels.h ****  * @brief Get field chan4_raw from rc_channels message
 520:Service/../MAVLink/common/./mavlink_msg_rc_channels.h ****  *
 521:Service/../MAVLink/common/./mavlink_msg_rc_channels.h ****  * @return [us] RC channel 4 value.
 522:Service/../MAVLink/common/./mavlink_msg_rc_channels.h ****  */
 523:Service/../MAVLink/common/./mavlink_msg_rc_channels.h **** static inline uint16_t mavlink_msg_rc_channels_get_chan4_raw(const mavlink_message_t* msg)
 524:Service/../MAVLink/common/./mavlink_msg_rc_channels.h **** {
 525:Service/../MAVLink/common/./mavlink_msg_rc_channels.h ****     return _MAV_RETURN_uint16_t(msg,  10);
 526:Service/../MAVLink/common/./mavlink_msg_rc_channels.h **** }
 527:Service/../MAVLink/common/./mavlink_msg_rc_channels.h **** 
 528:Service/../MAVLink/common/./mavlink_msg_rc_channels.h **** /**
 529:Service/../MAVLink/common/./mavlink_msg_rc_channels.h ****  * @brief Get field chan5_raw from rc_channels message
 530:Service/../MAVLink/common/./mavlink_msg_rc_channels.h ****  *
 531:Service/../MAVLink/common/./mavlink_msg_rc_channels.h ****  * @return [us] RC channel 5 value.
 532:Service/../MAVLink/common/./mavlink_msg_rc_channels.h ****  */
 533:Service/../MAVLink/common/./mavlink_msg_rc_channels.h **** static inline uint16_t mavlink_msg_rc_channels_get_chan5_raw(const mavlink_message_t* msg)
ARM GAS  C:\Users\8bit\AppData\Local\Temp\ccCRhmZR.s 			page 62


 534:Service/../MAVLink/common/./mavlink_msg_rc_channels.h **** {
 535:Service/../MAVLink/common/./mavlink_msg_rc_channels.h ****     return _MAV_RETURN_uint16_t(msg,  12);
 536:Service/../MAVLink/common/./mavlink_msg_rc_channels.h **** }
 537:Service/../MAVLink/common/./mavlink_msg_rc_channels.h **** 
 538:Service/../MAVLink/common/./mavlink_msg_rc_channels.h **** /**
 539:Service/../MAVLink/common/./mavlink_msg_rc_channels.h ****  * @brief Get field chan6_raw from rc_channels message
 540:Service/../MAVLink/common/./mavlink_msg_rc_channels.h ****  *
 541:Service/../MAVLink/common/./mavlink_msg_rc_channels.h ****  * @return [us] RC channel 6 value.
 542:Service/../MAVLink/common/./mavlink_msg_rc_channels.h ****  */
 543:Service/../MAVLink/common/./mavlink_msg_rc_channels.h **** static inline uint16_t mavlink_msg_rc_channels_get_chan6_raw(const mavlink_message_t* msg)
 544:Service/../MAVLink/common/./mavlink_msg_rc_channels.h **** {
 545:Service/../MAVLink/common/./mavlink_msg_rc_channels.h ****     return _MAV_RETURN_uint16_t(msg,  14);
 546:Service/../MAVLink/common/./mavlink_msg_rc_channels.h **** }
 547:Service/../MAVLink/common/./mavlink_msg_rc_channels.h **** 
 548:Service/../MAVLink/common/./mavlink_msg_rc_channels.h **** /**
 549:Service/../MAVLink/common/./mavlink_msg_rc_channels.h ****  * @brief Get field chan7_raw from rc_channels message
 550:Service/../MAVLink/common/./mavlink_msg_rc_channels.h ****  *
 551:Service/../MAVLink/common/./mavlink_msg_rc_channels.h ****  * @return [us] RC channel 7 value.
 552:Service/../MAVLink/common/./mavlink_msg_rc_channels.h ****  */
 553:Service/../MAVLink/common/./mavlink_msg_rc_channels.h **** static inline uint16_t mavlink_msg_rc_channels_get_chan7_raw(const mavlink_message_t* msg)
 554:Service/../MAVLink/common/./mavlink_msg_rc_channels.h **** {
 555:Service/../MAVLink/common/./mavlink_msg_rc_channels.h ****     return _MAV_RETURN_uint16_t(msg,  16);
 556:Service/../MAVLink/common/./mavlink_msg_rc_channels.h **** }
 557:Service/../MAVLink/common/./mavlink_msg_rc_channels.h **** 
 558:Service/../MAVLink/common/./mavlink_msg_rc_channels.h **** /**
 559:Service/../MAVLink/common/./mavlink_msg_rc_channels.h ****  * @brief Get field chan8_raw from rc_channels message
 560:Service/../MAVLink/common/./mavlink_msg_rc_channels.h ****  *
 561:Service/../MAVLink/common/./mavlink_msg_rc_channels.h ****  * @return [us] RC channel 8 value.
 562:Service/../MAVLink/common/./mavlink_msg_rc_channels.h ****  */
 563:Service/../MAVLink/common/./mavlink_msg_rc_channels.h **** static inline uint16_t mavlink_msg_rc_channels_get_chan8_raw(const mavlink_message_t* msg)
 564:Service/../MAVLink/common/./mavlink_msg_rc_channels.h **** {
 565:Service/../MAVLink/common/./mavlink_msg_rc_channels.h ****     return _MAV_RETURN_uint16_t(msg,  18);
 566:Service/../MAVLink/common/./mavlink_msg_rc_channels.h **** }
 567:Service/../MAVLink/common/./mavlink_msg_rc_channels.h **** 
 568:Service/../MAVLink/common/./mavlink_msg_rc_channels.h **** /**
 569:Service/../MAVLink/common/./mavlink_msg_rc_channels.h ****  * @brief Get field chan9_raw from rc_channels message
 570:Service/../MAVLink/common/./mavlink_msg_rc_channels.h ****  *
 571:Service/../MAVLink/common/./mavlink_msg_rc_channels.h ****  * @return [us] RC channel 9 value.
 572:Service/../MAVLink/common/./mavlink_msg_rc_channels.h ****  */
 573:Service/../MAVLink/common/./mavlink_msg_rc_channels.h **** static inline uint16_t mavlink_msg_rc_channels_get_chan9_raw(const mavlink_message_t* msg)
 574:Service/../MAVLink/common/./mavlink_msg_rc_channels.h **** {
 575:Service/../MAVLink/common/./mavlink_msg_rc_channels.h ****     return _MAV_RETURN_uint16_t(msg,  20);
 576:Service/../MAVLink/common/./mavlink_msg_rc_channels.h **** }
 577:Service/../MAVLink/common/./mavlink_msg_rc_channels.h **** 
 578:Service/../MAVLink/common/./mavlink_msg_rc_channels.h **** /**
 579:Service/../MAVLink/common/./mavlink_msg_rc_channels.h ****  * @brief Get field chan10_raw from rc_channels message
 580:Service/../MAVLink/common/./mavlink_msg_rc_channels.h ****  *
 581:Service/../MAVLink/common/./mavlink_msg_rc_channels.h ****  * @return [us] RC channel 10 value.
 582:Service/../MAVLink/common/./mavlink_msg_rc_channels.h ****  */
 583:Service/../MAVLink/common/./mavlink_msg_rc_channels.h **** static inline uint16_t mavlink_msg_rc_channels_get_chan10_raw(const mavlink_message_t* msg)
 584:Service/../MAVLink/common/./mavlink_msg_rc_channels.h **** {
 585:Service/../MAVLink/common/./mavlink_msg_rc_channels.h ****     return _MAV_RETURN_uint16_t(msg,  22);
 586:Service/../MAVLink/common/./mavlink_msg_rc_channels.h **** }
 587:Service/../MAVLink/common/./mavlink_msg_rc_channels.h **** 
 588:Service/../MAVLink/common/./mavlink_msg_rc_channels.h **** /**
 589:Service/../MAVLink/common/./mavlink_msg_rc_channels.h ****  * @brief Get field chan11_raw from rc_channels message
 590:Service/../MAVLink/common/./mavlink_msg_rc_channels.h ****  *
ARM GAS  C:\Users\8bit\AppData\Local\Temp\ccCRhmZR.s 			page 63


 591:Service/../MAVLink/common/./mavlink_msg_rc_channels.h ****  * @return [us] RC channel 11 value.
 592:Service/../MAVLink/common/./mavlink_msg_rc_channels.h ****  */
 593:Service/../MAVLink/common/./mavlink_msg_rc_channels.h **** static inline uint16_t mavlink_msg_rc_channels_get_chan11_raw(const mavlink_message_t* msg)
 594:Service/../MAVLink/common/./mavlink_msg_rc_channels.h **** {
 595:Service/../MAVLink/common/./mavlink_msg_rc_channels.h ****     return _MAV_RETURN_uint16_t(msg,  24);
 596:Service/../MAVLink/common/./mavlink_msg_rc_channels.h **** }
 597:Service/../MAVLink/common/./mavlink_msg_rc_channels.h **** 
 598:Service/../MAVLink/common/./mavlink_msg_rc_channels.h **** /**
 599:Service/../MAVLink/common/./mavlink_msg_rc_channels.h ****  * @brief Get field chan12_raw from rc_channels message
 600:Service/../MAVLink/common/./mavlink_msg_rc_channels.h ****  *
 601:Service/../MAVLink/common/./mavlink_msg_rc_channels.h ****  * @return [us] RC channel 12 value.
 602:Service/../MAVLink/common/./mavlink_msg_rc_channels.h ****  */
 603:Service/../MAVLink/common/./mavlink_msg_rc_channels.h **** static inline uint16_t mavlink_msg_rc_channels_get_chan12_raw(const mavlink_message_t* msg)
 604:Service/../MAVLink/common/./mavlink_msg_rc_channels.h **** {
 605:Service/../MAVLink/common/./mavlink_msg_rc_channels.h ****     return _MAV_RETURN_uint16_t(msg,  26);
 606:Service/../MAVLink/common/./mavlink_msg_rc_channels.h **** }
 607:Service/../MAVLink/common/./mavlink_msg_rc_channels.h **** 
 608:Service/../MAVLink/common/./mavlink_msg_rc_channels.h **** /**
 609:Service/../MAVLink/common/./mavlink_msg_rc_channels.h ****  * @brief Get field chan13_raw from rc_channels message
 610:Service/../MAVLink/common/./mavlink_msg_rc_channels.h ****  *
 611:Service/../MAVLink/common/./mavlink_msg_rc_channels.h ****  * @return [us] RC channel 13 value.
 612:Service/../MAVLink/common/./mavlink_msg_rc_channels.h ****  */
 613:Service/../MAVLink/common/./mavlink_msg_rc_channels.h **** static inline uint16_t mavlink_msg_rc_channels_get_chan13_raw(const mavlink_message_t* msg)
 614:Service/../MAVLink/common/./mavlink_msg_rc_channels.h **** {
 615:Service/../MAVLink/common/./mavlink_msg_rc_channels.h ****     return _MAV_RETURN_uint16_t(msg,  28);
 616:Service/../MAVLink/common/./mavlink_msg_rc_channels.h **** }
 617:Service/../MAVLink/common/./mavlink_msg_rc_channels.h **** 
 618:Service/../MAVLink/common/./mavlink_msg_rc_channels.h **** /**
 619:Service/../MAVLink/common/./mavlink_msg_rc_channels.h ****  * @brief Get field chan14_raw from rc_channels message
 620:Service/../MAVLink/common/./mavlink_msg_rc_channels.h ****  *
 621:Service/../MAVLink/common/./mavlink_msg_rc_channels.h ****  * @return [us] RC channel 14 value.
 622:Service/../MAVLink/common/./mavlink_msg_rc_channels.h ****  */
 623:Service/../MAVLink/common/./mavlink_msg_rc_channels.h **** static inline uint16_t mavlink_msg_rc_channels_get_chan14_raw(const mavlink_message_t* msg)
 624:Service/../MAVLink/common/./mavlink_msg_rc_channels.h **** {
 625:Service/../MAVLink/common/./mavlink_msg_rc_channels.h ****     return _MAV_RETURN_uint16_t(msg,  30);
 626:Service/../MAVLink/common/./mavlink_msg_rc_channels.h **** }
 627:Service/../MAVLink/common/./mavlink_msg_rc_channels.h **** 
 628:Service/../MAVLink/common/./mavlink_msg_rc_channels.h **** /**
 629:Service/../MAVLink/common/./mavlink_msg_rc_channels.h ****  * @brief Get field chan15_raw from rc_channels message
 630:Service/../MAVLink/common/./mavlink_msg_rc_channels.h ****  *
 631:Service/../MAVLink/common/./mavlink_msg_rc_channels.h ****  * @return [us] RC channel 15 value.
 632:Service/../MAVLink/common/./mavlink_msg_rc_channels.h ****  */
 633:Service/../MAVLink/common/./mavlink_msg_rc_channels.h **** static inline uint16_t mavlink_msg_rc_channels_get_chan15_raw(const mavlink_message_t* msg)
 634:Service/../MAVLink/common/./mavlink_msg_rc_channels.h **** {
 635:Service/../MAVLink/common/./mavlink_msg_rc_channels.h ****     return _MAV_RETURN_uint16_t(msg,  32);
 636:Service/../MAVLink/common/./mavlink_msg_rc_channels.h **** }
 637:Service/../MAVLink/common/./mavlink_msg_rc_channels.h **** 
 638:Service/../MAVLink/common/./mavlink_msg_rc_channels.h **** /**
 639:Service/../MAVLink/common/./mavlink_msg_rc_channels.h ****  * @brief Get field chan16_raw from rc_channels message
 640:Service/../MAVLink/common/./mavlink_msg_rc_channels.h ****  *
 641:Service/../MAVLink/common/./mavlink_msg_rc_channels.h ****  * @return [us] RC channel 16 value.
 642:Service/../MAVLink/common/./mavlink_msg_rc_channels.h ****  */
 643:Service/../MAVLink/common/./mavlink_msg_rc_channels.h **** static inline uint16_t mavlink_msg_rc_channels_get_chan16_raw(const mavlink_message_t* msg)
 644:Service/../MAVLink/common/./mavlink_msg_rc_channels.h **** {
 645:Service/../MAVLink/common/./mavlink_msg_rc_channels.h ****     return _MAV_RETURN_uint16_t(msg,  34);
 646:Service/../MAVLink/common/./mavlink_msg_rc_channels.h **** }
 647:Service/../MAVLink/common/./mavlink_msg_rc_channels.h **** 
ARM GAS  C:\Users\8bit\AppData\Local\Temp\ccCRhmZR.s 			page 64


 648:Service/../MAVLink/common/./mavlink_msg_rc_channels.h **** /**
 649:Service/../MAVLink/common/./mavlink_msg_rc_channels.h ****  * @brief Get field chan17_raw from rc_channels message
 650:Service/../MAVLink/common/./mavlink_msg_rc_channels.h ****  *
 651:Service/../MAVLink/common/./mavlink_msg_rc_channels.h ****  * @return [us] RC channel 17 value.
 652:Service/../MAVLink/common/./mavlink_msg_rc_channels.h ****  */
 653:Service/../MAVLink/common/./mavlink_msg_rc_channels.h **** static inline uint16_t mavlink_msg_rc_channels_get_chan17_raw(const mavlink_message_t* msg)
 654:Service/../MAVLink/common/./mavlink_msg_rc_channels.h **** {
 655:Service/../MAVLink/common/./mavlink_msg_rc_channels.h ****     return _MAV_RETURN_uint16_t(msg,  36);
 656:Service/../MAVLink/common/./mavlink_msg_rc_channels.h **** }
 657:Service/../MAVLink/common/./mavlink_msg_rc_channels.h **** 
 658:Service/../MAVLink/common/./mavlink_msg_rc_channels.h **** /**
 659:Service/../MAVLink/common/./mavlink_msg_rc_channels.h ****  * @brief Get field chan18_raw from rc_channels message
 660:Service/../MAVLink/common/./mavlink_msg_rc_channels.h ****  *
 661:Service/../MAVLink/common/./mavlink_msg_rc_channels.h ****  * @return [us] RC channel 18 value.
 662:Service/../MAVLink/common/./mavlink_msg_rc_channels.h ****  */
 663:Service/../MAVLink/common/./mavlink_msg_rc_channels.h **** static inline uint16_t mavlink_msg_rc_channels_get_chan18_raw(const mavlink_message_t* msg)
 664:Service/../MAVLink/common/./mavlink_msg_rc_channels.h **** {
 665:Service/../MAVLink/common/./mavlink_msg_rc_channels.h ****     return _MAV_RETURN_uint16_t(msg,  38);
 666:Service/../MAVLink/common/./mavlink_msg_rc_channels.h **** }
 667:Service/../MAVLink/common/./mavlink_msg_rc_channels.h **** 
 668:Service/../MAVLink/common/./mavlink_msg_rc_channels.h **** /**
 669:Service/../MAVLink/common/./mavlink_msg_rc_channels.h ****  * @brief Get field rssi from rc_channels message
 670:Service/../MAVLink/common/./mavlink_msg_rc_channels.h ****  *
 671:Service/../MAVLink/common/./mavlink_msg_rc_channels.h ****  * @return  Receive signal strength indicator in device-dependent units/scale. Values: [0-254], UIN
 672:Service/../MAVLink/common/./mavlink_msg_rc_channels.h ****  */
 673:Service/../MAVLink/common/./mavlink_msg_rc_channels.h **** static inline uint8_t mavlink_msg_rc_channels_get_rssi(const mavlink_message_t* msg)
 674:Service/../MAVLink/common/./mavlink_msg_rc_channels.h **** {
 675:Service/../MAVLink/common/./mavlink_msg_rc_channels.h ****     return _MAV_RETURN_uint8_t(msg,  41);
 676:Service/../MAVLink/common/./mavlink_msg_rc_channels.h **** }
 677:Service/../MAVLink/common/./mavlink_msg_rc_channels.h **** 
 678:Service/../MAVLink/common/./mavlink_msg_rc_channels.h **** /**
 679:Service/../MAVLink/common/./mavlink_msg_rc_channels.h ****  * @brief Decode a rc_channels message into a struct
 680:Service/../MAVLink/common/./mavlink_msg_rc_channels.h ****  *
 681:Service/../MAVLink/common/./mavlink_msg_rc_channels.h ****  * @param msg The message to decode
 682:Service/../MAVLink/common/./mavlink_msg_rc_channels.h ****  * @param rc_channels C-struct to decode the message contents into
 683:Service/../MAVLink/common/./mavlink_msg_rc_channels.h ****  */
 684:Service/../MAVLink/common/./mavlink_msg_rc_channels.h **** static inline void mavlink_msg_rc_channels_decode(const mavlink_message_t* msg, mavlink_rc_channels
 1039              		.loc 6 684 20 view .LVU285
 1040              	.LBB60:
 685:Service/../MAVLink/common/./mavlink_msg_rc_channels.h **** {
 686:Service/../MAVLink/common/./mavlink_msg_rc_channels.h **** #if MAVLINK_NEED_BYTE_SWAP || !MAVLINK_ALIGNED_FIELDS
 687:Service/../MAVLink/common/./mavlink_msg_rc_channels.h ****     rc_channels->time_boot_ms = mavlink_msg_rc_channels_get_time_boot_ms(msg);
 688:Service/../MAVLink/common/./mavlink_msg_rc_channels.h ****     rc_channels->chan1_raw = mavlink_msg_rc_channels_get_chan1_raw(msg);
 689:Service/../MAVLink/common/./mavlink_msg_rc_channels.h ****     rc_channels->chan2_raw = mavlink_msg_rc_channels_get_chan2_raw(msg);
 690:Service/../MAVLink/common/./mavlink_msg_rc_channels.h ****     rc_channels->chan3_raw = mavlink_msg_rc_channels_get_chan3_raw(msg);
 691:Service/../MAVLink/common/./mavlink_msg_rc_channels.h ****     rc_channels->chan4_raw = mavlink_msg_rc_channels_get_chan4_raw(msg);
 692:Service/../MAVLink/common/./mavlink_msg_rc_channels.h ****     rc_channels->chan5_raw = mavlink_msg_rc_channels_get_chan5_raw(msg);
 693:Service/../MAVLink/common/./mavlink_msg_rc_channels.h ****     rc_channels->chan6_raw = mavlink_msg_rc_channels_get_chan6_raw(msg);
 694:Service/../MAVLink/common/./mavlink_msg_rc_channels.h ****     rc_channels->chan7_raw = mavlink_msg_rc_channels_get_chan7_raw(msg);
 695:Service/../MAVLink/common/./mavlink_msg_rc_channels.h ****     rc_channels->chan8_raw = mavlink_msg_rc_channels_get_chan8_raw(msg);
 696:Service/../MAVLink/common/./mavlink_msg_rc_channels.h ****     rc_channels->chan9_raw = mavlink_msg_rc_channels_get_chan9_raw(msg);
 697:Service/../MAVLink/common/./mavlink_msg_rc_channels.h ****     rc_channels->chan10_raw = mavlink_msg_rc_channels_get_chan10_raw(msg);
 698:Service/../MAVLink/common/./mavlink_msg_rc_channels.h ****     rc_channels->chan11_raw = mavlink_msg_rc_channels_get_chan11_raw(msg);
 699:Service/../MAVLink/common/./mavlink_msg_rc_channels.h ****     rc_channels->chan12_raw = mavlink_msg_rc_channels_get_chan12_raw(msg);
 700:Service/../MAVLink/common/./mavlink_msg_rc_channels.h ****     rc_channels->chan13_raw = mavlink_msg_rc_channels_get_chan13_raw(msg);
 701:Service/../MAVLink/common/./mavlink_msg_rc_channels.h ****     rc_channels->chan14_raw = mavlink_msg_rc_channels_get_chan14_raw(msg);
 702:Service/../MAVLink/common/./mavlink_msg_rc_channels.h ****     rc_channels->chan15_raw = mavlink_msg_rc_channels_get_chan15_raw(msg);
ARM GAS  C:\Users\8bit\AppData\Local\Temp\ccCRhmZR.s 			page 65


 703:Service/../MAVLink/common/./mavlink_msg_rc_channels.h ****     rc_channels->chan16_raw = mavlink_msg_rc_channels_get_chan16_raw(msg);
 704:Service/../MAVLink/common/./mavlink_msg_rc_channels.h ****     rc_channels->chan17_raw = mavlink_msg_rc_channels_get_chan17_raw(msg);
 705:Service/../MAVLink/common/./mavlink_msg_rc_channels.h ****     rc_channels->chan18_raw = mavlink_msg_rc_channels_get_chan18_raw(msg);
 706:Service/../MAVLink/common/./mavlink_msg_rc_channels.h ****     rc_channels->chancount = mavlink_msg_rc_channels_get_chancount(msg);
 707:Service/../MAVLink/common/./mavlink_msg_rc_channels.h ****     rc_channels->rssi = mavlink_msg_rc_channels_get_rssi(msg);
 708:Service/../MAVLink/common/./mavlink_msg_rc_channels.h **** #else
 709:Service/../MAVLink/common/./mavlink_msg_rc_channels.h ****         uint8_t len = msg->len < MAVLINK_MSG_ID_RC_CHANNELS_LEN? msg->len : MAVLINK_MSG_ID_RC_CHANN
 1041              		.loc 6 709 9 view .LVU286
 1042              		.loc 6 709 26 is_stmt 0 view .LVU287
 1043 0022 9DF84750 		ldrb	r5, [sp, #71]	@ zero_extendqisi2
 1044              		.loc 6 709 17 view .LVU288
 1045 0026 2A2D     		cmp	r5, #42
 1046 0028 28BF     		it	cs
 1047 002a 2A25     		movcs	r5, #42
 1048              	.LVL66:
 710:Service/../MAVLink/common/./mavlink_msg_rc_channels.h ****         memset(rc_channels, 0, MAVLINK_MSG_ID_RC_CHANNELS_LEN);
 1049              		.loc 6 710 9 is_stmt 1 view .LVU289
 1050 002c 2A22     		movs	r2, #42
 1051 002e 0021     		movs	r1, #0
 1052 0030 01A8     		add	r0, sp, #4
 1053 0032 FFF7FEFF 		bl	memset
 1054              	.LVL67:
 711:Service/../MAVLink/common/./mavlink_msg_rc_channels.h ****     memcpy(rc_channels, _MAV_PAYLOAD(msg), len);
 1055              		.loc 6 711 5 view .LVU290
 1056 0036 2A46     		mov	r2, r5
 1057 0038 13A9     		add	r1, sp, #76
 1058 003a 01A8     		add	r0, sp, #4
 1059 003c FFF7FEFF 		bl	memcpy
 1060              	.LVL68:
 1061              		.loc 6 711 5 is_stmt 0 view .LVU291
 1062              	.LBE60:
 1063              	.LBE59:
 429:Service/Srv_ComProto.c **** 
 430:Service/Srv_ComProto.c ****         if (obj->MavMsg_RC_Callback)
 1064              		.loc 1 430 9 is_stmt 1 view .LVU292
 1065              		.loc 1 430 16 is_stmt 0 view .LVU293
 1066 0040 236F     		ldr	r3, [r4, #112]
 1067              		.loc 1 430 12 view .LVU294
 1068 0042 4BB1     		cbz	r3, .L69
 431:Service/Srv_ComProto.c ****             return obj->MavMsg_RC_Callback(&msg_rc, obj->cus_p_RC);
 1069              		.loc 1 431 13 is_stmt 1 view .LVU295
 1070              		.loc 1 431 20 is_stmt 0 view .LVU296
 1071 0044 2169     		ldr	r1, [r4, #16]
 1072 0046 01A8     		add	r0, sp, #4
 1073 0048 9847     		blx	r3
 1074              	.LVL69:
 1075 004a 00E0     		b	.L67
 1076              	.LVL70:
 1077              	.L68:
 432:Service/Srv_ComProto.c ****     }
 433:Service/Srv_ComProto.c **** 
 434:Service/Srv_ComProto.c ****     return false;
 1078              		.loc 1 434 12 view .LVU297
 1079 004c 0020     		movs	r0, #0
 1080              	.LVL71:
 1081              	.L67:
 435:Service/Srv_ComProto.c **** }
ARM GAS  C:\Users\8bit\AppData\Local\Temp\ccCRhmZR.s 			page 66


 1082              		.loc 1 435 1 view .LVU298
 1083 004e 0DB0     		add	sp, sp, #52
 1084              	.LCFI31:
 1085              		.cfi_remember_state
 1086              		.cfi_def_cfa_offset 28
 1087              		@ sp needed
 1088 0050 BDE83040 		pop	{r4, r5, lr}
 1089              	.LCFI32:
 1090              		.cfi_restore 14
 1091              		.cfi_restore 5
 1092              		.cfi_restore 4
 1093              		.cfi_def_cfa_offset 16
 1094 0054 04B0     		add	sp, sp, #16
 1095              	.LCFI33:
 1096              		.cfi_def_cfa_offset 0
 1097 0056 7047     		bx	lr
 1098              	.LVL72:
 1099              	.L69:
 1100              	.LCFI34:
 1101              		.cfi_restore_state
 434:Service/Srv_ComProto.c **** }
 1102              		.loc 1 434 12 view .LVU299
 1103 0058 0020     		movs	r0, #0
 1104 005a F8E7     		b	.L67
 1105              		.cfi_endproc
 1106              	.LFE2091:
 1108              		.section	.text.SrvComProto_MavMsg_Decode_ExpMoto,"ax",%progbits
 1109              		.align	1
 1110              		.syntax unified
 1111              		.thumb
 1112              		.thumb_func
 1114              	SrvComProto_MavMsg_Decode_ExpMoto:
 1115              	.LVL73:
 1116              	.LFB2090:
 402:Service/Srv_ComProto.c ****     mavlink_servo_output_raw_t msg_moto;
 1117              		.loc 1 402 1 is_stmt 1 view -0
 1118              		.cfi_startproc
 1119              		@ args = 276, pretend = 16, frame = 24
 1120              		@ frame_needed = 0, uses_anonymous_args = 0
 402:Service/Srv_ComProto.c ****     mavlink_servo_output_raw_t msg_moto;
 1121              		.loc 1 402 1 is_stmt 0 view .LVU301
 1122 0000 84B0     		sub	sp, sp, #16
 1123              	.LCFI35:
 1124              		.cfi_def_cfa_offset 16
 1125 0002 10B5     		push	{r4, lr}
 1126              	.LCFI36:
 1127              		.cfi_def_cfa_offset 24
 1128              		.cfi_offset 4, -24
 1129              		.cfi_offset 14, -20
 1130 0004 86B0     		sub	sp, sp, #24
 1131              	.LCFI37:
 1132              		.cfi_def_cfa_offset 48
 1133 0006 0DF1240C 		add	ip, sp, #36
 1134 000a 8CE80E00 		stm	ip, {r1, r2, r3}
 403:Service/Srv_ComProto.c **** 
 1135              		.loc 1 403 5 is_stmt 1 view .LVU302
 405:Service/Srv_ComProto.c ****     {
ARM GAS  C:\Users\8bit\AppData\Local\Temp\ccCRhmZR.s 			page 67


 1136              		.loc 1 405 5 view .LVU303
 405:Service/Srv_ComProto.c ****     {
 1137              		.loc 1 405 8 is_stmt 0 view .LVU304
 1138 000e D8B1     		cbz	r0, .L73
 1139 0010 0446     		mov	r4, r0
 407:Service/Srv_ComProto.c **** 
 1140              		.loc 1 407 9 is_stmt 1 view .LVU305
 407:Service/Srv_ComProto.c **** 
 1141              		.loc 1 407 12 is_stmt 0 view .LVU306
 1142 0012 436C     		ldr	r3, [r0, #68]
 407:Service/Srv_ComProto.c **** 
 1143              		.loc 1 407 23 view .LVU307
 1144 0014 0133     		adds	r3, r3, #1
 1145 0016 4364     		str	r3, [r0, #68]
 409:Service/Srv_ComProto.c ****         mavlink_msg_servo_output_raw_decode(&msg, &msg_moto);
 1146              		.loc 1 409 9 is_stmt 1 view .LVU308
 1147 0018 0023     		movs	r3, #0
 1148 001a 0093     		str	r3, [sp]
 1149 001c 0193     		str	r3, [sp, #4]
 1150 001e 0293     		str	r3, [sp, #8]
 1151 0020 0393     		str	r3, [sp, #12]
 1152 0022 0493     		str	r3, [sp, #16]
 1153 0024 0593     		str	r3, [sp, #20]
 410:Service/Srv_ComProto.c **** 
 1154              		.loc 1 410 9 view .LVU309
 1155              	.LVL74:
 1156              	.LBB63:
 1157              	.LBI63:
 1158              		.file 7 "Service/../MAVLink/common/./mavlink_msg_servo_output_raw.h"
   1:Service/../MAVLink/common/./mavlink_msg_servo_output_raw.h **** #pragma once
   2:Service/../MAVLink/common/./mavlink_msg_servo_output_raw.h **** // MESSAGE SERVO_OUTPUT_RAW PACKING
   3:Service/../MAVLink/common/./mavlink_msg_servo_output_raw.h **** 
   4:Service/../MAVLink/common/./mavlink_msg_servo_output_raw.h **** #define MAVLINK_MSG_ID_SERVO_OUTPUT_RAW 36
   5:Service/../MAVLink/common/./mavlink_msg_servo_output_raw.h **** 
   6:Service/../MAVLink/common/./mavlink_msg_servo_output_raw.h **** 
   7:Service/../MAVLink/common/./mavlink_msg_servo_output_raw.h **** typedef struct __mavlink_servo_output_raw_t {
   8:Service/../MAVLink/common/./mavlink_msg_servo_output_raw.h ****  uint32_t time_usec; /*< [us] Timestamp (UNIX Epoch time or time since system boot). The receiving 
   9:Service/../MAVLink/common/./mavlink_msg_servo_output_raw.h ****  uint16_t servo1_raw; /*< [us] Servo output 1 value*/
  10:Service/../MAVLink/common/./mavlink_msg_servo_output_raw.h ****  uint16_t servo2_raw; /*< [us] Servo output 2 value*/
  11:Service/../MAVLink/common/./mavlink_msg_servo_output_raw.h ****  uint16_t servo3_raw; /*< [us] Servo output 3 value*/
  12:Service/../MAVLink/common/./mavlink_msg_servo_output_raw.h ****  uint16_t servo4_raw; /*< [us] Servo output 4 value*/
  13:Service/../MAVLink/common/./mavlink_msg_servo_output_raw.h ****  uint16_t servo5_raw; /*< [us] Servo output 5 value*/
  14:Service/../MAVLink/common/./mavlink_msg_servo_output_raw.h ****  uint16_t servo6_raw; /*< [us] Servo output 6 value*/
  15:Service/../MAVLink/common/./mavlink_msg_servo_output_raw.h ****  uint16_t servo7_raw; /*< [us] Servo output 7 value*/
  16:Service/../MAVLink/common/./mavlink_msg_servo_output_raw.h ****  uint16_t servo8_raw; /*< [us] Servo output 8 value*/
  17:Service/../MAVLink/common/./mavlink_msg_servo_output_raw.h ****  uint8_t port; /*<  Servo output port (set of 8 outputs = 1 port). Flight stacks running on Pixhawk
  18:Service/../MAVLink/common/./mavlink_msg_servo_output_raw.h **** } mavlink_servo_output_raw_t;
  19:Service/../MAVLink/common/./mavlink_msg_servo_output_raw.h **** 
  20:Service/../MAVLink/common/./mavlink_msg_servo_output_raw.h **** #define MAVLINK_MSG_ID_SERVO_OUTPUT_RAW_LEN 21
  21:Service/../MAVLink/common/./mavlink_msg_servo_output_raw.h **** #define MAVLINK_MSG_ID_SERVO_OUTPUT_RAW_MIN_LEN 21
  22:Service/../MAVLink/common/./mavlink_msg_servo_output_raw.h **** #define MAVLINK_MSG_ID_36_LEN 21
  23:Service/../MAVLink/common/./mavlink_msg_servo_output_raw.h **** #define MAVLINK_MSG_ID_36_MIN_LEN 21
  24:Service/../MAVLink/common/./mavlink_msg_servo_output_raw.h **** 
  25:Service/../MAVLink/common/./mavlink_msg_servo_output_raw.h **** #define MAVLINK_MSG_ID_SERVO_OUTPUT_RAW_CRC 222
  26:Service/../MAVLink/common/./mavlink_msg_servo_output_raw.h **** #define MAVLINK_MSG_ID_36_CRC 222
  27:Service/../MAVLink/common/./mavlink_msg_servo_output_raw.h **** 
  28:Service/../MAVLink/common/./mavlink_msg_servo_output_raw.h **** 
ARM GAS  C:\Users\8bit\AppData\Local\Temp\ccCRhmZR.s 			page 68


  29:Service/../MAVLink/common/./mavlink_msg_servo_output_raw.h **** 
  30:Service/../MAVLink/common/./mavlink_msg_servo_output_raw.h **** #if MAVLINK_COMMAND_24BIT
  31:Service/../MAVLink/common/./mavlink_msg_servo_output_raw.h **** #define MAVLINK_MESSAGE_INFO_SERVO_OUTPUT_RAW { \
  32:Service/../MAVLink/common/./mavlink_msg_servo_output_raw.h ****     36, \
  33:Service/../MAVLink/common/./mavlink_msg_servo_output_raw.h ****     "SERVO_OUTPUT_RAW", \
  34:Service/../MAVLink/common/./mavlink_msg_servo_output_raw.h ****     10, \
  35:Service/../MAVLink/common/./mavlink_msg_servo_output_raw.h ****     {  { "time_usec", NULL, MAVLINK_TYPE_UINT32_T, 0, 0, offsetof(mavlink_servo_output_raw_t, time_
  36:Service/../MAVLink/common/./mavlink_msg_servo_output_raw.h ****          { "port", NULL, MAVLINK_TYPE_UINT8_T, 0, 20, offsetof(mavlink_servo_output_raw_t, port) },
  37:Service/../MAVLink/common/./mavlink_msg_servo_output_raw.h ****          { "servo1_raw", NULL, MAVLINK_TYPE_UINT16_T, 0, 4, offsetof(mavlink_servo_output_raw_t, se
  38:Service/../MAVLink/common/./mavlink_msg_servo_output_raw.h ****          { "servo2_raw", NULL, MAVLINK_TYPE_UINT16_T, 0, 6, offsetof(mavlink_servo_output_raw_t, se
  39:Service/../MAVLink/common/./mavlink_msg_servo_output_raw.h ****          { "servo3_raw", NULL, MAVLINK_TYPE_UINT16_T, 0, 8, offsetof(mavlink_servo_output_raw_t, se
  40:Service/../MAVLink/common/./mavlink_msg_servo_output_raw.h ****          { "servo4_raw", NULL, MAVLINK_TYPE_UINT16_T, 0, 10, offsetof(mavlink_servo_output_raw_t, s
  41:Service/../MAVLink/common/./mavlink_msg_servo_output_raw.h ****          { "servo5_raw", NULL, MAVLINK_TYPE_UINT16_T, 0, 12, offsetof(mavlink_servo_output_raw_t, s
  42:Service/../MAVLink/common/./mavlink_msg_servo_output_raw.h ****          { "servo6_raw", NULL, MAVLINK_TYPE_UINT16_T, 0, 14, offsetof(mavlink_servo_output_raw_t, s
  43:Service/../MAVLink/common/./mavlink_msg_servo_output_raw.h ****          { "servo7_raw", NULL, MAVLINK_TYPE_UINT16_T, 0, 16, offsetof(mavlink_servo_output_raw_t, s
  44:Service/../MAVLink/common/./mavlink_msg_servo_output_raw.h ****          { "servo8_raw", NULL, MAVLINK_TYPE_UINT16_T, 0, 18, offsetof(mavlink_servo_output_raw_t, s
  45:Service/../MAVLink/common/./mavlink_msg_servo_output_raw.h ****          } \
  46:Service/../MAVLink/common/./mavlink_msg_servo_output_raw.h **** }
  47:Service/../MAVLink/common/./mavlink_msg_servo_output_raw.h **** #else
  48:Service/../MAVLink/common/./mavlink_msg_servo_output_raw.h **** #define MAVLINK_MESSAGE_INFO_SERVO_OUTPUT_RAW { \
  49:Service/../MAVLink/common/./mavlink_msg_servo_output_raw.h ****     "SERVO_OUTPUT_RAW", \
  50:Service/../MAVLink/common/./mavlink_msg_servo_output_raw.h ****     10, \
  51:Service/../MAVLink/common/./mavlink_msg_servo_output_raw.h ****     {  { "time_usec", NULL, MAVLINK_TYPE_UINT32_T, 0, 0, offsetof(mavlink_servo_output_raw_t, time_
  52:Service/../MAVLink/common/./mavlink_msg_servo_output_raw.h ****          { "port", NULL, MAVLINK_TYPE_UINT8_T, 0, 20, offsetof(mavlink_servo_output_raw_t, port) },
  53:Service/../MAVLink/common/./mavlink_msg_servo_output_raw.h ****          { "servo1_raw", NULL, MAVLINK_TYPE_UINT16_T, 0, 4, offsetof(mavlink_servo_output_raw_t, se
  54:Service/../MAVLink/common/./mavlink_msg_servo_output_raw.h ****          { "servo2_raw", NULL, MAVLINK_TYPE_UINT16_T, 0, 6, offsetof(mavlink_servo_output_raw_t, se
  55:Service/../MAVLink/common/./mavlink_msg_servo_output_raw.h ****          { "servo3_raw", NULL, MAVLINK_TYPE_UINT16_T, 0, 8, offsetof(mavlink_servo_output_raw_t, se
  56:Service/../MAVLink/common/./mavlink_msg_servo_output_raw.h ****          { "servo4_raw", NULL, MAVLINK_TYPE_UINT16_T, 0, 10, offsetof(mavlink_servo_output_raw_t, s
  57:Service/../MAVLink/common/./mavlink_msg_servo_output_raw.h ****          { "servo5_raw", NULL, MAVLINK_TYPE_UINT16_T, 0, 12, offsetof(mavlink_servo_output_raw_t, s
  58:Service/../MAVLink/common/./mavlink_msg_servo_output_raw.h ****          { "servo6_raw", NULL, MAVLINK_TYPE_UINT16_T, 0, 14, offsetof(mavlink_servo_output_raw_t, s
  59:Service/../MAVLink/common/./mavlink_msg_servo_output_raw.h ****          { "servo7_raw", NULL, MAVLINK_TYPE_UINT16_T, 0, 16, offsetof(mavlink_servo_output_raw_t, s
  60:Service/../MAVLink/common/./mavlink_msg_servo_output_raw.h ****          { "servo8_raw", NULL, MAVLINK_TYPE_UINT16_T, 0, 18, offsetof(mavlink_servo_output_raw_t, s
  61:Service/../MAVLink/common/./mavlink_msg_servo_output_raw.h ****          } \
  62:Service/../MAVLink/common/./mavlink_msg_servo_output_raw.h **** }
  63:Service/../MAVLink/common/./mavlink_msg_servo_output_raw.h **** #endif
  64:Service/../MAVLink/common/./mavlink_msg_servo_output_raw.h **** 
  65:Service/../MAVLink/common/./mavlink_msg_servo_output_raw.h **** /**
  66:Service/../MAVLink/common/./mavlink_msg_servo_output_raw.h ****  * @brief Pack a servo_output_raw message
  67:Service/../MAVLink/common/./mavlink_msg_servo_output_raw.h ****  * @param system_id ID of this system
  68:Service/../MAVLink/common/./mavlink_msg_servo_output_raw.h ****  * @param component_id ID of this component (e.g. 200 for IMU)
  69:Service/../MAVLink/common/./mavlink_msg_servo_output_raw.h ****  * @param msg The MAVLink message to compress the data into
  70:Service/../MAVLink/common/./mavlink_msg_servo_output_raw.h ****  *
  71:Service/../MAVLink/common/./mavlink_msg_servo_output_raw.h ****  * @param time_usec [us] Timestamp (UNIX Epoch time or time since system boot). The receiving end c
  72:Service/../MAVLink/common/./mavlink_msg_servo_output_raw.h ****  * @param port  Servo output port (set of 8 outputs = 1 port). Flight stacks running on Pixhawk sho
  73:Service/../MAVLink/common/./mavlink_msg_servo_output_raw.h ****  * @param servo1_raw [us] Servo output 1 value
  74:Service/../MAVLink/common/./mavlink_msg_servo_output_raw.h ****  * @param servo2_raw [us] Servo output 2 value
  75:Service/../MAVLink/common/./mavlink_msg_servo_output_raw.h ****  * @param servo3_raw [us] Servo output 3 value
  76:Service/../MAVLink/common/./mavlink_msg_servo_output_raw.h ****  * @param servo4_raw [us] Servo output 4 value
  77:Service/../MAVLink/common/./mavlink_msg_servo_output_raw.h ****  * @param servo5_raw [us] Servo output 5 value
  78:Service/../MAVLink/common/./mavlink_msg_servo_output_raw.h ****  * @param servo6_raw [us] Servo output 6 value
  79:Service/../MAVLink/common/./mavlink_msg_servo_output_raw.h ****  * @param servo7_raw [us] Servo output 7 value
  80:Service/../MAVLink/common/./mavlink_msg_servo_output_raw.h ****  * @param servo8_raw [us] Servo output 8 value
  81:Service/../MAVLink/common/./mavlink_msg_servo_output_raw.h ****  * @return length of the message in bytes (excluding serial stream start sign)
  82:Service/../MAVLink/common/./mavlink_msg_servo_output_raw.h ****  */
  83:Service/../MAVLink/common/./mavlink_msg_servo_output_raw.h **** static inline uint16_t mavlink_msg_servo_output_raw_pack(uint8_t system_id, uint8_t component_id, m
  84:Service/../MAVLink/common/./mavlink_msg_servo_output_raw.h ****                                uint32_t time_usec, uint8_t port, uint16_t servo1_raw, uint16_t serv
  85:Service/../MAVLink/common/./mavlink_msg_servo_output_raw.h **** {
ARM GAS  C:\Users\8bit\AppData\Local\Temp\ccCRhmZR.s 			page 69


  86:Service/../MAVLink/common/./mavlink_msg_servo_output_raw.h **** #if MAVLINK_NEED_BYTE_SWAP || !MAVLINK_ALIGNED_FIELDS
  87:Service/../MAVLink/common/./mavlink_msg_servo_output_raw.h ****     char buf[MAVLINK_MSG_ID_SERVO_OUTPUT_RAW_LEN];
  88:Service/../MAVLink/common/./mavlink_msg_servo_output_raw.h ****     _mav_put_uint32_t(buf, 0, time_usec);
  89:Service/../MAVLink/common/./mavlink_msg_servo_output_raw.h ****     _mav_put_uint16_t(buf, 4, servo1_raw);
  90:Service/../MAVLink/common/./mavlink_msg_servo_output_raw.h ****     _mav_put_uint16_t(buf, 6, servo2_raw);
  91:Service/../MAVLink/common/./mavlink_msg_servo_output_raw.h ****     _mav_put_uint16_t(buf, 8, servo3_raw);
  92:Service/../MAVLink/common/./mavlink_msg_servo_output_raw.h ****     _mav_put_uint16_t(buf, 10, servo4_raw);
  93:Service/../MAVLink/common/./mavlink_msg_servo_output_raw.h ****     _mav_put_uint16_t(buf, 12, servo5_raw);
  94:Service/../MAVLink/common/./mavlink_msg_servo_output_raw.h ****     _mav_put_uint16_t(buf, 14, servo6_raw);
  95:Service/../MAVLink/common/./mavlink_msg_servo_output_raw.h ****     _mav_put_uint16_t(buf, 16, servo7_raw);
  96:Service/../MAVLink/common/./mavlink_msg_servo_output_raw.h ****     _mav_put_uint16_t(buf, 18, servo8_raw);
  97:Service/../MAVLink/common/./mavlink_msg_servo_output_raw.h ****     _mav_put_uint8_t(buf, 20, port);
  98:Service/../MAVLink/common/./mavlink_msg_servo_output_raw.h **** 
  99:Service/../MAVLink/common/./mavlink_msg_servo_output_raw.h ****         memcpy(_MAV_PAYLOAD_NON_CONST(msg), buf, MAVLINK_MSG_ID_SERVO_OUTPUT_RAW_LEN);
 100:Service/../MAVLink/common/./mavlink_msg_servo_output_raw.h **** #else
 101:Service/../MAVLink/common/./mavlink_msg_servo_output_raw.h ****     mavlink_servo_output_raw_t packet;
 102:Service/../MAVLink/common/./mavlink_msg_servo_output_raw.h ****     packet.time_usec = time_usec;
 103:Service/../MAVLink/common/./mavlink_msg_servo_output_raw.h ****     packet.servo1_raw = servo1_raw;
 104:Service/../MAVLink/common/./mavlink_msg_servo_output_raw.h ****     packet.servo2_raw = servo2_raw;
 105:Service/../MAVLink/common/./mavlink_msg_servo_output_raw.h ****     packet.servo3_raw = servo3_raw;
 106:Service/../MAVLink/common/./mavlink_msg_servo_output_raw.h ****     packet.servo4_raw = servo4_raw;
 107:Service/../MAVLink/common/./mavlink_msg_servo_output_raw.h ****     packet.servo5_raw = servo5_raw;
 108:Service/../MAVLink/common/./mavlink_msg_servo_output_raw.h ****     packet.servo6_raw = servo6_raw;
 109:Service/../MAVLink/common/./mavlink_msg_servo_output_raw.h ****     packet.servo7_raw = servo7_raw;
 110:Service/../MAVLink/common/./mavlink_msg_servo_output_raw.h ****     packet.servo8_raw = servo8_raw;
 111:Service/../MAVLink/common/./mavlink_msg_servo_output_raw.h ****     packet.port = port;
 112:Service/../MAVLink/common/./mavlink_msg_servo_output_raw.h **** 
 113:Service/../MAVLink/common/./mavlink_msg_servo_output_raw.h ****         memcpy(_MAV_PAYLOAD_NON_CONST(msg), &packet, MAVLINK_MSG_ID_SERVO_OUTPUT_RAW_LEN);
 114:Service/../MAVLink/common/./mavlink_msg_servo_output_raw.h **** #endif
 115:Service/../MAVLink/common/./mavlink_msg_servo_output_raw.h **** 
 116:Service/../MAVLink/common/./mavlink_msg_servo_output_raw.h ****     msg->msgid = MAVLINK_MSG_ID_SERVO_OUTPUT_RAW;
 117:Service/../MAVLink/common/./mavlink_msg_servo_output_raw.h ****     return mavlink_finalize_message(msg, system_id, component_id, MAVLINK_MSG_ID_SERVO_OUTPUT_RAW_M
 118:Service/../MAVLink/common/./mavlink_msg_servo_output_raw.h **** }
 119:Service/../MAVLink/common/./mavlink_msg_servo_output_raw.h **** 
 120:Service/../MAVLink/common/./mavlink_msg_servo_output_raw.h **** /**
 121:Service/../MAVLink/common/./mavlink_msg_servo_output_raw.h ****  * @brief Pack a servo_output_raw message on a channel
 122:Service/../MAVLink/common/./mavlink_msg_servo_output_raw.h ****  * @param system_id ID of this system
 123:Service/../MAVLink/common/./mavlink_msg_servo_output_raw.h ****  * @param component_id ID of this component (e.g. 200 for IMU)
 124:Service/../MAVLink/common/./mavlink_msg_servo_output_raw.h ****  * @param chan The MAVLink channel this message will be sent over
 125:Service/../MAVLink/common/./mavlink_msg_servo_output_raw.h ****  * @param msg The MAVLink message to compress the data into
 126:Service/../MAVLink/common/./mavlink_msg_servo_output_raw.h ****  * @param time_usec [us] Timestamp (UNIX Epoch time or time since system boot). The receiving end c
 127:Service/../MAVLink/common/./mavlink_msg_servo_output_raw.h ****  * @param port  Servo output port (set of 8 outputs = 1 port). Flight stacks running on Pixhawk sho
 128:Service/../MAVLink/common/./mavlink_msg_servo_output_raw.h ****  * @param servo1_raw [us] Servo output 1 value
 129:Service/../MAVLink/common/./mavlink_msg_servo_output_raw.h ****  * @param servo2_raw [us] Servo output 2 value
 130:Service/../MAVLink/common/./mavlink_msg_servo_output_raw.h ****  * @param servo3_raw [us] Servo output 3 value
 131:Service/../MAVLink/common/./mavlink_msg_servo_output_raw.h ****  * @param servo4_raw [us] Servo output 4 value
 132:Service/../MAVLink/common/./mavlink_msg_servo_output_raw.h ****  * @param servo5_raw [us] Servo output 5 value
 133:Service/../MAVLink/common/./mavlink_msg_servo_output_raw.h ****  * @param servo6_raw [us] Servo output 6 value
 134:Service/../MAVLink/common/./mavlink_msg_servo_output_raw.h ****  * @param servo7_raw [us] Servo output 7 value
 135:Service/../MAVLink/common/./mavlink_msg_servo_output_raw.h ****  * @param servo8_raw [us] Servo output 8 value
 136:Service/../MAVLink/common/./mavlink_msg_servo_output_raw.h ****  * @return length of the message in bytes (excluding serial stream start sign)
 137:Service/../MAVLink/common/./mavlink_msg_servo_output_raw.h ****  */
 138:Service/../MAVLink/common/./mavlink_msg_servo_output_raw.h **** static inline uint16_t mavlink_msg_servo_output_raw_pack_chan(uint8_t system_id, uint8_t component_
 139:Service/../MAVLink/common/./mavlink_msg_servo_output_raw.h ****                                mavlink_message_t* msg,
 140:Service/../MAVLink/common/./mavlink_msg_servo_output_raw.h ****                                    uint32_t time_usec,uint8_t port,uint16_t servo1_raw,uint16_t ser
 141:Service/../MAVLink/common/./mavlink_msg_servo_output_raw.h **** {
 142:Service/../MAVLink/common/./mavlink_msg_servo_output_raw.h **** #if MAVLINK_NEED_BYTE_SWAP || !MAVLINK_ALIGNED_FIELDS
ARM GAS  C:\Users\8bit\AppData\Local\Temp\ccCRhmZR.s 			page 70


 143:Service/../MAVLink/common/./mavlink_msg_servo_output_raw.h ****     char buf[MAVLINK_MSG_ID_SERVO_OUTPUT_RAW_LEN];
 144:Service/../MAVLink/common/./mavlink_msg_servo_output_raw.h ****     _mav_put_uint32_t(buf, 0, time_usec);
 145:Service/../MAVLink/common/./mavlink_msg_servo_output_raw.h ****     _mav_put_uint16_t(buf, 4, servo1_raw);
 146:Service/../MAVLink/common/./mavlink_msg_servo_output_raw.h ****     _mav_put_uint16_t(buf, 6, servo2_raw);
 147:Service/../MAVLink/common/./mavlink_msg_servo_output_raw.h ****     _mav_put_uint16_t(buf, 8, servo3_raw);
 148:Service/../MAVLink/common/./mavlink_msg_servo_output_raw.h ****     _mav_put_uint16_t(buf, 10, servo4_raw);
 149:Service/../MAVLink/common/./mavlink_msg_servo_output_raw.h ****     _mav_put_uint16_t(buf, 12, servo5_raw);
 150:Service/../MAVLink/common/./mavlink_msg_servo_output_raw.h ****     _mav_put_uint16_t(buf, 14, servo6_raw);
 151:Service/../MAVLink/common/./mavlink_msg_servo_output_raw.h ****     _mav_put_uint16_t(buf, 16, servo7_raw);
 152:Service/../MAVLink/common/./mavlink_msg_servo_output_raw.h ****     _mav_put_uint16_t(buf, 18, servo8_raw);
 153:Service/../MAVLink/common/./mavlink_msg_servo_output_raw.h ****     _mav_put_uint8_t(buf, 20, port);
 154:Service/../MAVLink/common/./mavlink_msg_servo_output_raw.h **** 
 155:Service/../MAVLink/common/./mavlink_msg_servo_output_raw.h ****         memcpy(_MAV_PAYLOAD_NON_CONST(msg), buf, MAVLINK_MSG_ID_SERVO_OUTPUT_RAW_LEN);
 156:Service/../MAVLink/common/./mavlink_msg_servo_output_raw.h **** #else
 157:Service/../MAVLink/common/./mavlink_msg_servo_output_raw.h ****     mavlink_servo_output_raw_t packet;
 158:Service/../MAVLink/common/./mavlink_msg_servo_output_raw.h ****     packet.time_usec = time_usec;
 159:Service/../MAVLink/common/./mavlink_msg_servo_output_raw.h ****     packet.servo1_raw = servo1_raw;
 160:Service/../MAVLink/common/./mavlink_msg_servo_output_raw.h ****     packet.servo2_raw = servo2_raw;
 161:Service/../MAVLink/common/./mavlink_msg_servo_output_raw.h ****     packet.servo3_raw = servo3_raw;
 162:Service/../MAVLink/common/./mavlink_msg_servo_output_raw.h ****     packet.servo4_raw = servo4_raw;
 163:Service/../MAVLink/common/./mavlink_msg_servo_output_raw.h ****     packet.servo5_raw = servo5_raw;
 164:Service/../MAVLink/common/./mavlink_msg_servo_output_raw.h ****     packet.servo6_raw = servo6_raw;
 165:Service/../MAVLink/common/./mavlink_msg_servo_output_raw.h ****     packet.servo7_raw = servo7_raw;
 166:Service/../MAVLink/common/./mavlink_msg_servo_output_raw.h ****     packet.servo8_raw = servo8_raw;
 167:Service/../MAVLink/common/./mavlink_msg_servo_output_raw.h ****     packet.port = port;
 168:Service/../MAVLink/common/./mavlink_msg_servo_output_raw.h **** 
 169:Service/../MAVLink/common/./mavlink_msg_servo_output_raw.h ****         memcpy(_MAV_PAYLOAD_NON_CONST(msg), &packet, MAVLINK_MSG_ID_SERVO_OUTPUT_RAW_LEN);
 170:Service/../MAVLink/common/./mavlink_msg_servo_output_raw.h **** #endif
 171:Service/../MAVLink/common/./mavlink_msg_servo_output_raw.h **** 
 172:Service/../MAVLink/common/./mavlink_msg_servo_output_raw.h ****     msg->msgid = MAVLINK_MSG_ID_SERVO_OUTPUT_RAW;
 173:Service/../MAVLink/common/./mavlink_msg_servo_output_raw.h ****     return mavlink_finalize_message_chan(msg, system_id, component_id, chan, MAVLINK_MSG_ID_SERVO_O
 174:Service/../MAVLink/common/./mavlink_msg_servo_output_raw.h **** }
 175:Service/../MAVLink/common/./mavlink_msg_servo_output_raw.h **** 
 176:Service/../MAVLink/common/./mavlink_msg_servo_output_raw.h **** /**
 177:Service/../MAVLink/common/./mavlink_msg_servo_output_raw.h ****  * @brief Encode a servo_output_raw struct
 178:Service/../MAVLink/common/./mavlink_msg_servo_output_raw.h ****  *
 179:Service/../MAVLink/common/./mavlink_msg_servo_output_raw.h ****  * @param system_id ID of this system
 180:Service/../MAVLink/common/./mavlink_msg_servo_output_raw.h ****  * @param component_id ID of this component (e.g. 200 for IMU)
 181:Service/../MAVLink/common/./mavlink_msg_servo_output_raw.h ****  * @param msg The MAVLink message to compress the data into
 182:Service/../MAVLink/common/./mavlink_msg_servo_output_raw.h ****  * @param servo_output_raw C-struct to read the message contents from
 183:Service/../MAVLink/common/./mavlink_msg_servo_output_raw.h ****  */
 184:Service/../MAVLink/common/./mavlink_msg_servo_output_raw.h **** static inline uint16_t mavlink_msg_servo_output_raw_encode(uint8_t system_id, uint8_t component_id,
 185:Service/../MAVLink/common/./mavlink_msg_servo_output_raw.h **** {
 186:Service/../MAVLink/common/./mavlink_msg_servo_output_raw.h ****     return mavlink_msg_servo_output_raw_pack(system_id, component_id, msg, servo_output_raw->time_u
 187:Service/../MAVLink/common/./mavlink_msg_servo_output_raw.h **** }
 188:Service/../MAVLink/common/./mavlink_msg_servo_output_raw.h **** 
 189:Service/../MAVLink/common/./mavlink_msg_servo_output_raw.h **** /**
 190:Service/../MAVLink/common/./mavlink_msg_servo_output_raw.h ****  * @brief Encode a servo_output_raw struct on a channel
 191:Service/../MAVLink/common/./mavlink_msg_servo_output_raw.h ****  *
 192:Service/../MAVLink/common/./mavlink_msg_servo_output_raw.h ****  * @param system_id ID of this system
 193:Service/../MAVLink/common/./mavlink_msg_servo_output_raw.h ****  * @param component_id ID of this component (e.g. 200 for IMU)
 194:Service/../MAVLink/common/./mavlink_msg_servo_output_raw.h ****  * @param chan The MAVLink channel this message will be sent over
 195:Service/../MAVLink/common/./mavlink_msg_servo_output_raw.h ****  * @param msg The MAVLink message to compress the data into
 196:Service/../MAVLink/common/./mavlink_msg_servo_output_raw.h ****  * @param servo_output_raw C-struct to read the message contents from
 197:Service/../MAVLink/common/./mavlink_msg_servo_output_raw.h ****  */
 198:Service/../MAVLink/common/./mavlink_msg_servo_output_raw.h **** static inline uint16_t mavlink_msg_servo_output_raw_encode_chan(uint8_t system_id, uint8_t componen
 199:Service/../MAVLink/common/./mavlink_msg_servo_output_raw.h **** {
ARM GAS  C:\Users\8bit\AppData\Local\Temp\ccCRhmZR.s 			page 71


 200:Service/../MAVLink/common/./mavlink_msg_servo_output_raw.h ****     return mavlink_msg_servo_output_raw_pack_chan(system_id, component_id, chan, msg, servo_output_
 201:Service/../MAVLink/common/./mavlink_msg_servo_output_raw.h **** }
 202:Service/../MAVLink/common/./mavlink_msg_servo_output_raw.h **** 
 203:Service/../MAVLink/common/./mavlink_msg_servo_output_raw.h **** /**
 204:Service/../MAVLink/common/./mavlink_msg_servo_output_raw.h ****  * @brief Send a servo_output_raw message
 205:Service/../MAVLink/common/./mavlink_msg_servo_output_raw.h ****  * @param chan MAVLink channel to send the message
 206:Service/../MAVLink/common/./mavlink_msg_servo_output_raw.h ****  *
 207:Service/../MAVLink/common/./mavlink_msg_servo_output_raw.h ****  * @param time_usec [us] Timestamp (UNIX Epoch time or time since system boot). The receiving end c
 208:Service/../MAVLink/common/./mavlink_msg_servo_output_raw.h ****  * @param port  Servo output port (set of 8 outputs = 1 port). Flight stacks running on Pixhawk sho
 209:Service/../MAVLink/common/./mavlink_msg_servo_output_raw.h ****  * @param servo1_raw [us] Servo output 1 value
 210:Service/../MAVLink/common/./mavlink_msg_servo_output_raw.h ****  * @param servo2_raw [us] Servo output 2 value
 211:Service/../MAVLink/common/./mavlink_msg_servo_output_raw.h ****  * @param servo3_raw [us] Servo output 3 value
 212:Service/../MAVLink/common/./mavlink_msg_servo_output_raw.h ****  * @param servo4_raw [us] Servo output 4 value
 213:Service/../MAVLink/common/./mavlink_msg_servo_output_raw.h ****  * @param servo5_raw [us] Servo output 5 value
 214:Service/../MAVLink/common/./mavlink_msg_servo_output_raw.h ****  * @param servo6_raw [us] Servo output 6 value
 215:Service/../MAVLink/common/./mavlink_msg_servo_output_raw.h ****  * @param servo7_raw [us] Servo output 7 value
 216:Service/../MAVLink/common/./mavlink_msg_servo_output_raw.h ****  * @param servo8_raw [us] Servo output 8 value
 217:Service/../MAVLink/common/./mavlink_msg_servo_output_raw.h ****  */
 218:Service/../MAVLink/common/./mavlink_msg_servo_output_raw.h **** #ifdef MAVLINK_USE_CONVENIENCE_FUNCTIONS
 219:Service/../MAVLink/common/./mavlink_msg_servo_output_raw.h **** 
 220:Service/../MAVLink/common/./mavlink_msg_servo_output_raw.h **** static inline void mavlink_msg_servo_output_raw_send(mavlink_channel_t chan, uint32_t time_usec, ui
 221:Service/../MAVLink/common/./mavlink_msg_servo_output_raw.h **** {
 222:Service/../MAVLink/common/./mavlink_msg_servo_output_raw.h **** #if MAVLINK_NEED_BYTE_SWAP || !MAVLINK_ALIGNED_FIELDS
 223:Service/../MAVLink/common/./mavlink_msg_servo_output_raw.h ****     char buf[MAVLINK_MSG_ID_SERVO_OUTPUT_RAW_LEN];
 224:Service/../MAVLink/common/./mavlink_msg_servo_output_raw.h ****     _mav_put_uint32_t(buf, 0, time_usec);
 225:Service/../MAVLink/common/./mavlink_msg_servo_output_raw.h ****     _mav_put_uint16_t(buf, 4, servo1_raw);
 226:Service/../MAVLink/common/./mavlink_msg_servo_output_raw.h ****     _mav_put_uint16_t(buf, 6, servo2_raw);
 227:Service/../MAVLink/common/./mavlink_msg_servo_output_raw.h ****     _mav_put_uint16_t(buf, 8, servo3_raw);
 228:Service/../MAVLink/common/./mavlink_msg_servo_output_raw.h ****     _mav_put_uint16_t(buf, 10, servo4_raw);
 229:Service/../MAVLink/common/./mavlink_msg_servo_output_raw.h ****     _mav_put_uint16_t(buf, 12, servo5_raw);
 230:Service/../MAVLink/common/./mavlink_msg_servo_output_raw.h ****     _mav_put_uint16_t(buf, 14, servo6_raw);
 231:Service/../MAVLink/common/./mavlink_msg_servo_output_raw.h ****     _mav_put_uint16_t(buf, 16, servo7_raw);
 232:Service/../MAVLink/common/./mavlink_msg_servo_output_raw.h ****     _mav_put_uint16_t(buf, 18, servo8_raw);
 233:Service/../MAVLink/common/./mavlink_msg_servo_output_raw.h ****     _mav_put_uint8_t(buf, 20, port);
 234:Service/../MAVLink/common/./mavlink_msg_servo_output_raw.h **** 
 235:Service/../MAVLink/common/./mavlink_msg_servo_output_raw.h ****     _mav_finalize_message_chan_send(chan, MAVLINK_MSG_ID_SERVO_OUTPUT_RAW, buf, MAVLINK_MSG_ID_SERV
 236:Service/../MAVLink/common/./mavlink_msg_servo_output_raw.h **** #else
 237:Service/../MAVLink/common/./mavlink_msg_servo_output_raw.h ****     mavlink_servo_output_raw_t packet;
 238:Service/../MAVLink/common/./mavlink_msg_servo_output_raw.h ****     packet.time_usec = time_usec;
 239:Service/../MAVLink/common/./mavlink_msg_servo_output_raw.h ****     packet.servo1_raw = servo1_raw;
 240:Service/../MAVLink/common/./mavlink_msg_servo_output_raw.h ****     packet.servo2_raw = servo2_raw;
 241:Service/../MAVLink/common/./mavlink_msg_servo_output_raw.h ****     packet.servo3_raw = servo3_raw;
 242:Service/../MAVLink/common/./mavlink_msg_servo_output_raw.h ****     packet.servo4_raw = servo4_raw;
 243:Service/../MAVLink/common/./mavlink_msg_servo_output_raw.h ****     packet.servo5_raw = servo5_raw;
 244:Service/../MAVLink/common/./mavlink_msg_servo_output_raw.h ****     packet.servo6_raw = servo6_raw;
 245:Service/../MAVLink/common/./mavlink_msg_servo_output_raw.h ****     packet.servo7_raw = servo7_raw;
 246:Service/../MAVLink/common/./mavlink_msg_servo_output_raw.h ****     packet.servo8_raw = servo8_raw;
 247:Service/../MAVLink/common/./mavlink_msg_servo_output_raw.h ****     packet.port = port;
 248:Service/../MAVLink/common/./mavlink_msg_servo_output_raw.h **** 
 249:Service/../MAVLink/common/./mavlink_msg_servo_output_raw.h ****     _mav_finalize_message_chan_send(chan, MAVLINK_MSG_ID_SERVO_OUTPUT_RAW, (const char *)&packet, M
 250:Service/../MAVLink/common/./mavlink_msg_servo_output_raw.h **** #endif
 251:Service/../MAVLink/common/./mavlink_msg_servo_output_raw.h **** }
 252:Service/../MAVLink/common/./mavlink_msg_servo_output_raw.h **** 
 253:Service/../MAVLink/common/./mavlink_msg_servo_output_raw.h **** /**
 254:Service/../MAVLink/common/./mavlink_msg_servo_output_raw.h ****  * @brief Send a servo_output_raw message
 255:Service/../MAVLink/common/./mavlink_msg_servo_output_raw.h ****  * @param chan MAVLink channel to send the message
 256:Service/../MAVLink/common/./mavlink_msg_servo_output_raw.h ****  * @param struct The MAVLink struct to serialize
ARM GAS  C:\Users\8bit\AppData\Local\Temp\ccCRhmZR.s 			page 72


 257:Service/../MAVLink/common/./mavlink_msg_servo_output_raw.h ****  */
 258:Service/../MAVLink/common/./mavlink_msg_servo_output_raw.h **** static inline void mavlink_msg_servo_output_raw_send_struct(mavlink_channel_t chan, const mavlink_s
 259:Service/../MAVLink/common/./mavlink_msg_servo_output_raw.h **** {
 260:Service/../MAVLink/common/./mavlink_msg_servo_output_raw.h **** #if MAVLINK_NEED_BYTE_SWAP || !MAVLINK_ALIGNED_FIELDS
 261:Service/../MAVLink/common/./mavlink_msg_servo_output_raw.h ****     mavlink_msg_servo_output_raw_send(chan, servo_output_raw->time_usec, servo_output_raw->port, se
 262:Service/../MAVLink/common/./mavlink_msg_servo_output_raw.h **** #else
 263:Service/../MAVLink/common/./mavlink_msg_servo_output_raw.h ****     _mav_finalize_message_chan_send(chan, MAVLINK_MSG_ID_SERVO_OUTPUT_RAW, (const char *)servo_outp
 264:Service/../MAVLink/common/./mavlink_msg_servo_output_raw.h **** #endif
 265:Service/../MAVLink/common/./mavlink_msg_servo_output_raw.h **** }
 266:Service/../MAVLink/common/./mavlink_msg_servo_output_raw.h **** 
 267:Service/../MAVLink/common/./mavlink_msg_servo_output_raw.h **** #if MAVLINK_MSG_ID_SERVO_OUTPUT_RAW_LEN <= MAVLINK_MAX_PAYLOAD_LEN
 268:Service/../MAVLink/common/./mavlink_msg_servo_output_raw.h **** /*
 269:Service/../MAVLink/common/./mavlink_msg_servo_output_raw.h ****   This variant of _send() can be used to save stack space by re-using
 270:Service/../MAVLink/common/./mavlink_msg_servo_output_raw.h ****   memory from the receive buffer.  The caller provides a
 271:Service/../MAVLink/common/./mavlink_msg_servo_output_raw.h ****   mavlink_message_t which is the size of a full mavlink message. This
 272:Service/../MAVLink/common/./mavlink_msg_servo_output_raw.h ****   is usually the receive buffer for the channel, and allows a reply to an
 273:Service/../MAVLink/common/./mavlink_msg_servo_output_raw.h ****   incoming message with minimum stack space usage.
 274:Service/../MAVLink/common/./mavlink_msg_servo_output_raw.h ****  */
 275:Service/../MAVLink/common/./mavlink_msg_servo_output_raw.h **** static inline void mavlink_msg_servo_output_raw_send_buf(mavlink_message_t *msgbuf, mavlink_channel
 276:Service/../MAVLink/common/./mavlink_msg_servo_output_raw.h **** {
 277:Service/../MAVLink/common/./mavlink_msg_servo_output_raw.h **** #if MAVLINK_NEED_BYTE_SWAP || !MAVLINK_ALIGNED_FIELDS
 278:Service/../MAVLink/common/./mavlink_msg_servo_output_raw.h ****     char *buf = (char *)msgbuf;
 279:Service/../MAVLink/common/./mavlink_msg_servo_output_raw.h ****     _mav_put_uint32_t(buf, 0, time_usec);
 280:Service/../MAVLink/common/./mavlink_msg_servo_output_raw.h ****     _mav_put_uint16_t(buf, 4, servo1_raw);
 281:Service/../MAVLink/common/./mavlink_msg_servo_output_raw.h ****     _mav_put_uint16_t(buf, 6, servo2_raw);
 282:Service/../MAVLink/common/./mavlink_msg_servo_output_raw.h ****     _mav_put_uint16_t(buf, 8, servo3_raw);
 283:Service/../MAVLink/common/./mavlink_msg_servo_output_raw.h ****     _mav_put_uint16_t(buf, 10, servo4_raw);
 284:Service/../MAVLink/common/./mavlink_msg_servo_output_raw.h ****     _mav_put_uint16_t(buf, 12, servo5_raw);
 285:Service/../MAVLink/common/./mavlink_msg_servo_output_raw.h ****     _mav_put_uint16_t(buf, 14, servo6_raw);
 286:Service/../MAVLink/common/./mavlink_msg_servo_output_raw.h ****     _mav_put_uint16_t(buf, 16, servo7_raw);
 287:Service/../MAVLink/common/./mavlink_msg_servo_output_raw.h ****     _mav_put_uint16_t(buf, 18, servo8_raw);
 288:Service/../MAVLink/common/./mavlink_msg_servo_output_raw.h ****     _mav_put_uint8_t(buf, 20, port);
 289:Service/../MAVLink/common/./mavlink_msg_servo_output_raw.h **** 
 290:Service/../MAVLink/common/./mavlink_msg_servo_output_raw.h ****     _mav_finalize_message_chan_send(chan, MAVLINK_MSG_ID_SERVO_OUTPUT_RAW, buf, MAVLINK_MSG_ID_SERV
 291:Service/../MAVLink/common/./mavlink_msg_servo_output_raw.h **** #else
 292:Service/../MAVLink/common/./mavlink_msg_servo_output_raw.h ****     mavlink_servo_output_raw_t *packet = (mavlink_servo_output_raw_t *)msgbuf;
 293:Service/../MAVLink/common/./mavlink_msg_servo_output_raw.h ****     packet->time_usec = time_usec;
 294:Service/../MAVLink/common/./mavlink_msg_servo_output_raw.h ****     packet->servo1_raw = servo1_raw;
 295:Service/../MAVLink/common/./mavlink_msg_servo_output_raw.h ****     packet->servo2_raw = servo2_raw;
 296:Service/../MAVLink/common/./mavlink_msg_servo_output_raw.h ****     packet->servo3_raw = servo3_raw;
 297:Service/../MAVLink/common/./mavlink_msg_servo_output_raw.h ****     packet->servo4_raw = servo4_raw;
 298:Service/../MAVLink/common/./mavlink_msg_servo_output_raw.h ****     packet->servo5_raw = servo5_raw;
 299:Service/../MAVLink/common/./mavlink_msg_servo_output_raw.h ****     packet->servo6_raw = servo6_raw;
 300:Service/../MAVLink/common/./mavlink_msg_servo_output_raw.h ****     packet->servo7_raw = servo7_raw;
 301:Service/../MAVLink/common/./mavlink_msg_servo_output_raw.h ****     packet->servo8_raw = servo8_raw;
 302:Service/../MAVLink/common/./mavlink_msg_servo_output_raw.h ****     packet->port = port;
 303:Service/../MAVLink/common/./mavlink_msg_servo_output_raw.h **** 
 304:Service/../MAVLink/common/./mavlink_msg_servo_output_raw.h ****     _mav_finalize_message_chan_send(chan, MAVLINK_MSG_ID_SERVO_OUTPUT_RAW, (const char *)packet, MA
 305:Service/../MAVLink/common/./mavlink_msg_servo_output_raw.h **** #endif
 306:Service/../MAVLink/common/./mavlink_msg_servo_output_raw.h **** }
 307:Service/../MAVLink/common/./mavlink_msg_servo_output_raw.h **** #endif
 308:Service/../MAVLink/common/./mavlink_msg_servo_output_raw.h **** 
 309:Service/../MAVLink/common/./mavlink_msg_servo_output_raw.h **** #endif
 310:Service/../MAVLink/common/./mavlink_msg_servo_output_raw.h **** 
 311:Service/../MAVLink/common/./mavlink_msg_servo_output_raw.h **** // MESSAGE SERVO_OUTPUT_RAW UNPACKING
 312:Service/../MAVLink/common/./mavlink_msg_servo_output_raw.h **** 
 313:Service/../MAVLink/common/./mavlink_msg_servo_output_raw.h **** 
ARM GAS  C:\Users\8bit\AppData\Local\Temp\ccCRhmZR.s 			page 73


 314:Service/../MAVLink/common/./mavlink_msg_servo_output_raw.h **** /**
 315:Service/../MAVLink/common/./mavlink_msg_servo_output_raw.h ****  * @brief Get field time_usec from servo_output_raw message
 316:Service/../MAVLink/common/./mavlink_msg_servo_output_raw.h ****  *
 317:Service/../MAVLink/common/./mavlink_msg_servo_output_raw.h ****  * @return [us] Timestamp (UNIX Epoch time or time since system boot). The receiving end can infer 
 318:Service/../MAVLink/common/./mavlink_msg_servo_output_raw.h ****  */
 319:Service/../MAVLink/common/./mavlink_msg_servo_output_raw.h **** static inline uint32_t mavlink_msg_servo_output_raw_get_time_usec(const mavlink_message_t* msg)
 320:Service/../MAVLink/common/./mavlink_msg_servo_output_raw.h **** {
 321:Service/../MAVLink/common/./mavlink_msg_servo_output_raw.h ****     return _MAV_RETURN_uint32_t(msg,  0);
 322:Service/../MAVLink/common/./mavlink_msg_servo_output_raw.h **** }
 323:Service/../MAVLink/common/./mavlink_msg_servo_output_raw.h **** 
 324:Service/../MAVLink/common/./mavlink_msg_servo_output_raw.h **** /**
 325:Service/../MAVLink/common/./mavlink_msg_servo_output_raw.h ****  * @brief Get field port from servo_output_raw message
 326:Service/../MAVLink/common/./mavlink_msg_servo_output_raw.h ****  *
 327:Service/../MAVLink/common/./mavlink_msg_servo_output_raw.h ****  * @return  Servo output port (set of 8 outputs = 1 port). Flight stacks running on Pixhawk should 
 328:Service/../MAVLink/common/./mavlink_msg_servo_output_raw.h ****  */
 329:Service/../MAVLink/common/./mavlink_msg_servo_output_raw.h **** static inline uint8_t mavlink_msg_servo_output_raw_get_port(const mavlink_message_t* msg)
 330:Service/../MAVLink/common/./mavlink_msg_servo_output_raw.h **** {
 331:Service/../MAVLink/common/./mavlink_msg_servo_output_raw.h ****     return _MAV_RETURN_uint8_t(msg,  20);
 332:Service/../MAVLink/common/./mavlink_msg_servo_output_raw.h **** }
 333:Service/../MAVLink/common/./mavlink_msg_servo_output_raw.h **** 
 334:Service/../MAVLink/common/./mavlink_msg_servo_output_raw.h **** /**
 335:Service/../MAVLink/common/./mavlink_msg_servo_output_raw.h ****  * @brief Get field servo1_raw from servo_output_raw message
 336:Service/../MAVLink/common/./mavlink_msg_servo_output_raw.h ****  *
 337:Service/../MAVLink/common/./mavlink_msg_servo_output_raw.h ****  * @return [us] Servo output 1 value
 338:Service/../MAVLink/common/./mavlink_msg_servo_output_raw.h ****  */
 339:Service/../MAVLink/common/./mavlink_msg_servo_output_raw.h **** static inline uint16_t mavlink_msg_servo_output_raw_get_servo1_raw(const mavlink_message_t* msg)
 340:Service/../MAVLink/common/./mavlink_msg_servo_output_raw.h **** {
 341:Service/../MAVLink/common/./mavlink_msg_servo_output_raw.h ****     return _MAV_RETURN_uint16_t(msg,  4);
 342:Service/../MAVLink/common/./mavlink_msg_servo_output_raw.h **** }
 343:Service/../MAVLink/common/./mavlink_msg_servo_output_raw.h **** 
 344:Service/../MAVLink/common/./mavlink_msg_servo_output_raw.h **** /**
 345:Service/../MAVLink/common/./mavlink_msg_servo_output_raw.h ****  * @brief Get field servo2_raw from servo_output_raw message
 346:Service/../MAVLink/common/./mavlink_msg_servo_output_raw.h ****  *
 347:Service/../MAVLink/common/./mavlink_msg_servo_output_raw.h ****  * @return [us] Servo output 2 value
 348:Service/../MAVLink/common/./mavlink_msg_servo_output_raw.h ****  */
 349:Service/../MAVLink/common/./mavlink_msg_servo_output_raw.h **** static inline uint16_t mavlink_msg_servo_output_raw_get_servo2_raw(const mavlink_message_t* msg)
 350:Service/../MAVLink/common/./mavlink_msg_servo_output_raw.h **** {
 351:Service/../MAVLink/common/./mavlink_msg_servo_output_raw.h ****     return _MAV_RETURN_uint16_t(msg,  6);
 352:Service/../MAVLink/common/./mavlink_msg_servo_output_raw.h **** }
 353:Service/../MAVLink/common/./mavlink_msg_servo_output_raw.h **** 
 354:Service/../MAVLink/common/./mavlink_msg_servo_output_raw.h **** /**
 355:Service/../MAVLink/common/./mavlink_msg_servo_output_raw.h ****  * @brief Get field servo3_raw from servo_output_raw message
 356:Service/../MAVLink/common/./mavlink_msg_servo_output_raw.h ****  *
 357:Service/../MAVLink/common/./mavlink_msg_servo_output_raw.h ****  * @return [us] Servo output 3 value
 358:Service/../MAVLink/common/./mavlink_msg_servo_output_raw.h ****  */
 359:Service/../MAVLink/common/./mavlink_msg_servo_output_raw.h **** static inline uint16_t mavlink_msg_servo_output_raw_get_servo3_raw(const mavlink_message_t* msg)
 360:Service/../MAVLink/common/./mavlink_msg_servo_output_raw.h **** {
 361:Service/../MAVLink/common/./mavlink_msg_servo_output_raw.h ****     return _MAV_RETURN_uint16_t(msg,  8);
 362:Service/../MAVLink/common/./mavlink_msg_servo_output_raw.h **** }
 363:Service/../MAVLink/common/./mavlink_msg_servo_output_raw.h **** 
 364:Service/../MAVLink/common/./mavlink_msg_servo_output_raw.h **** /**
 365:Service/../MAVLink/common/./mavlink_msg_servo_output_raw.h ****  * @brief Get field servo4_raw from servo_output_raw message
 366:Service/../MAVLink/common/./mavlink_msg_servo_output_raw.h ****  *
 367:Service/../MAVLink/common/./mavlink_msg_servo_output_raw.h ****  * @return [us] Servo output 4 value
 368:Service/../MAVLink/common/./mavlink_msg_servo_output_raw.h ****  */
 369:Service/../MAVLink/common/./mavlink_msg_servo_output_raw.h **** static inline uint16_t mavlink_msg_servo_output_raw_get_servo4_raw(const mavlink_message_t* msg)
 370:Service/../MAVLink/common/./mavlink_msg_servo_output_raw.h **** {
ARM GAS  C:\Users\8bit\AppData\Local\Temp\ccCRhmZR.s 			page 74


 371:Service/../MAVLink/common/./mavlink_msg_servo_output_raw.h ****     return _MAV_RETURN_uint16_t(msg,  10);
 372:Service/../MAVLink/common/./mavlink_msg_servo_output_raw.h **** }
 373:Service/../MAVLink/common/./mavlink_msg_servo_output_raw.h **** 
 374:Service/../MAVLink/common/./mavlink_msg_servo_output_raw.h **** /**
 375:Service/../MAVLink/common/./mavlink_msg_servo_output_raw.h ****  * @brief Get field servo5_raw from servo_output_raw message
 376:Service/../MAVLink/common/./mavlink_msg_servo_output_raw.h ****  *
 377:Service/../MAVLink/common/./mavlink_msg_servo_output_raw.h ****  * @return [us] Servo output 5 value
 378:Service/../MAVLink/common/./mavlink_msg_servo_output_raw.h ****  */
 379:Service/../MAVLink/common/./mavlink_msg_servo_output_raw.h **** static inline uint16_t mavlink_msg_servo_output_raw_get_servo5_raw(const mavlink_message_t* msg)
 380:Service/../MAVLink/common/./mavlink_msg_servo_output_raw.h **** {
 381:Service/../MAVLink/common/./mavlink_msg_servo_output_raw.h ****     return _MAV_RETURN_uint16_t(msg,  12);
 382:Service/../MAVLink/common/./mavlink_msg_servo_output_raw.h **** }
 383:Service/../MAVLink/common/./mavlink_msg_servo_output_raw.h **** 
 384:Service/../MAVLink/common/./mavlink_msg_servo_output_raw.h **** /**
 385:Service/../MAVLink/common/./mavlink_msg_servo_output_raw.h ****  * @brief Get field servo6_raw from servo_output_raw message
 386:Service/../MAVLink/common/./mavlink_msg_servo_output_raw.h ****  *
 387:Service/../MAVLink/common/./mavlink_msg_servo_output_raw.h ****  * @return [us] Servo output 6 value
 388:Service/../MAVLink/common/./mavlink_msg_servo_output_raw.h ****  */
 389:Service/../MAVLink/common/./mavlink_msg_servo_output_raw.h **** static inline uint16_t mavlink_msg_servo_output_raw_get_servo6_raw(const mavlink_message_t* msg)
 390:Service/../MAVLink/common/./mavlink_msg_servo_output_raw.h **** {
 391:Service/../MAVLink/common/./mavlink_msg_servo_output_raw.h ****     return _MAV_RETURN_uint16_t(msg,  14);
 392:Service/../MAVLink/common/./mavlink_msg_servo_output_raw.h **** }
 393:Service/../MAVLink/common/./mavlink_msg_servo_output_raw.h **** 
 394:Service/../MAVLink/common/./mavlink_msg_servo_output_raw.h **** /**
 395:Service/../MAVLink/common/./mavlink_msg_servo_output_raw.h ****  * @brief Get field servo7_raw from servo_output_raw message
 396:Service/../MAVLink/common/./mavlink_msg_servo_output_raw.h ****  *
 397:Service/../MAVLink/common/./mavlink_msg_servo_output_raw.h ****  * @return [us] Servo output 7 value
 398:Service/../MAVLink/common/./mavlink_msg_servo_output_raw.h ****  */
 399:Service/../MAVLink/common/./mavlink_msg_servo_output_raw.h **** static inline uint16_t mavlink_msg_servo_output_raw_get_servo7_raw(const mavlink_message_t* msg)
 400:Service/../MAVLink/common/./mavlink_msg_servo_output_raw.h **** {
 401:Service/../MAVLink/common/./mavlink_msg_servo_output_raw.h ****     return _MAV_RETURN_uint16_t(msg,  16);
 402:Service/../MAVLink/common/./mavlink_msg_servo_output_raw.h **** }
 403:Service/../MAVLink/common/./mavlink_msg_servo_output_raw.h **** 
 404:Service/../MAVLink/common/./mavlink_msg_servo_output_raw.h **** /**
 405:Service/../MAVLink/common/./mavlink_msg_servo_output_raw.h ****  * @brief Get field servo8_raw from servo_output_raw message
 406:Service/../MAVLink/common/./mavlink_msg_servo_output_raw.h ****  *
 407:Service/../MAVLink/common/./mavlink_msg_servo_output_raw.h ****  * @return [us] Servo output 8 value
 408:Service/../MAVLink/common/./mavlink_msg_servo_output_raw.h ****  */
 409:Service/../MAVLink/common/./mavlink_msg_servo_output_raw.h **** static inline uint16_t mavlink_msg_servo_output_raw_get_servo8_raw(const mavlink_message_t* msg)
 410:Service/../MAVLink/common/./mavlink_msg_servo_output_raw.h **** {
 411:Service/../MAVLink/common/./mavlink_msg_servo_output_raw.h ****     return _MAV_RETURN_uint16_t(msg,  18);
 412:Service/../MAVLink/common/./mavlink_msg_servo_output_raw.h **** }
 413:Service/../MAVLink/common/./mavlink_msg_servo_output_raw.h **** 
 414:Service/../MAVLink/common/./mavlink_msg_servo_output_raw.h **** /**
 415:Service/../MAVLink/common/./mavlink_msg_servo_output_raw.h ****  * @brief Decode a servo_output_raw message into a struct
 416:Service/../MAVLink/common/./mavlink_msg_servo_output_raw.h ****  *
 417:Service/../MAVLink/common/./mavlink_msg_servo_output_raw.h ****  * @param msg The message to decode
 418:Service/../MAVLink/common/./mavlink_msg_servo_output_raw.h ****  * @param servo_output_raw C-struct to decode the message contents into
 419:Service/../MAVLink/common/./mavlink_msg_servo_output_raw.h ****  */
 420:Service/../MAVLink/common/./mavlink_msg_servo_output_raw.h **** static inline void mavlink_msg_servo_output_raw_decode(const mavlink_message_t* msg, mavlink_servo_
 1159              		.loc 7 420 20 view .LVU310
 1160              	.LBB64:
 421:Service/../MAVLink/common/./mavlink_msg_servo_output_raw.h **** {
 422:Service/../MAVLink/common/./mavlink_msg_servo_output_raw.h **** #if MAVLINK_NEED_BYTE_SWAP || !MAVLINK_ALIGNED_FIELDS
 423:Service/../MAVLink/common/./mavlink_msg_servo_output_raw.h ****     servo_output_raw->time_usec = mavlink_msg_servo_output_raw_get_time_usec(msg);
 424:Service/../MAVLink/common/./mavlink_msg_servo_output_raw.h ****     servo_output_raw->servo1_raw = mavlink_msg_servo_output_raw_get_servo1_raw(msg);
 425:Service/../MAVLink/common/./mavlink_msg_servo_output_raw.h ****     servo_output_raw->servo2_raw = mavlink_msg_servo_output_raw_get_servo2_raw(msg);
ARM GAS  C:\Users\8bit\AppData\Local\Temp\ccCRhmZR.s 			page 75


 426:Service/../MAVLink/common/./mavlink_msg_servo_output_raw.h ****     servo_output_raw->servo3_raw = mavlink_msg_servo_output_raw_get_servo3_raw(msg);
 427:Service/../MAVLink/common/./mavlink_msg_servo_output_raw.h ****     servo_output_raw->servo4_raw = mavlink_msg_servo_output_raw_get_servo4_raw(msg);
 428:Service/../MAVLink/common/./mavlink_msg_servo_output_raw.h ****     servo_output_raw->servo5_raw = mavlink_msg_servo_output_raw_get_servo5_raw(msg);
 429:Service/../MAVLink/common/./mavlink_msg_servo_output_raw.h ****     servo_output_raw->servo6_raw = mavlink_msg_servo_output_raw_get_servo6_raw(msg);
 430:Service/../MAVLink/common/./mavlink_msg_servo_output_raw.h ****     servo_output_raw->servo7_raw = mavlink_msg_servo_output_raw_get_servo7_raw(msg);
 431:Service/../MAVLink/common/./mavlink_msg_servo_output_raw.h ****     servo_output_raw->servo8_raw = mavlink_msg_servo_output_raw_get_servo8_raw(msg);
 432:Service/../MAVLink/common/./mavlink_msg_servo_output_raw.h ****     servo_output_raw->port = mavlink_msg_servo_output_raw_get_port(msg);
 433:Service/../MAVLink/common/./mavlink_msg_servo_output_raw.h **** #else
 434:Service/../MAVLink/common/./mavlink_msg_servo_output_raw.h ****         uint8_t len = msg->len < MAVLINK_MSG_ID_SERVO_OUTPUT_RAW_LEN? msg->len : MAVLINK_MSG_ID_SER
 1161              		.loc 7 434 9 view .LVU311
 1162              		.loc 7 434 26 is_stmt 0 view .LVU312
 1163 0026 9DF82720 		ldrb	r2, [sp, #39]	@ zero_extendqisi2
 1164              	.LVL75:
 435:Service/../MAVLink/common/./mavlink_msg_servo_output_raw.h ****         memset(servo_output_raw, 0, MAVLINK_MSG_ID_SERVO_OUTPUT_RAW_LEN);
 1165              		.loc 7 435 9 is_stmt 1 view .LVU313
 1166 002a 8DF81430 		strb	r3, [sp, #20]
 436:Service/../MAVLink/common/./mavlink_msg_servo_output_raw.h ****     memcpy(servo_output_raw, _MAV_PAYLOAD(msg), len);
 1167              		.loc 7 436 5 view .LVU314
 1168 002e 152A     		cmp	r2, #21
 1169 0030 28BF     		it	cs
 1170 0032 1522     		movcs	r2, #21
 1171              	.LVL76:
 1172              		.loc 7 436 5 is_stmt 0 view .LVU315
 1173 0034 0BA9     		add	r1, sp, #44
 1174 0036 6846     		mov	r0, sp
 1175 0038 FFF7FEFF 		bl	memcpy
 1176              	.LVL77:
 1177              		.loc 7 436 5 view .LVU316
 1178              	.LBE64:
 1179              	.LBE63:
 412:Service/Srv_ComProto.c ****             return obj->MavMsg_MotoCtl_Callback(&msg_moto, obj->cus_p_moto);
 1180              		.loc 1 412 9 is_stmt 1 view .LVU317
 412:Service/Srv_ComProto.c ****             return obj->MavMsg_MotoCtl_Callback(&msg_moto, obj->cus_p_moto);
 1181              		.loc 1 412 16 is_stmt 0 view .LVU318
 1182 003c 636F     		ldr	r3, [r4, #116]
 412:Service/Srv_ComProto.c ****             return obj->MavMsg_MotoCtl_Callback(&msg_moto, obj->cus_p_moto);
 1183              		.loc 1 412 12 view .LVU319
 1184 003e 4BB1     		cbz	r3, .L74
 413:Service/Srv_ComProto.c ****     }
 1185              		.loc 1 413 13 is_stmt 1 view .LVU320
 413:Service/Srv_ComProto.c ****     }
 1186              		.loc 1 413 20 is_stmt 0 view .LVU321
 1187 0040 6169     		ldr	r1, [r4, #20]
 1188 0042 6846     		mov	r0, sp
 1189 0044 9847     		blx	r3
 1190              	.LVL78:
 1191 0046 00E0     		b	.L72
 1192              	.LVL79:
 1193              	.L73:
 416:Service/Srv_ComProto.c **** }
 1194              		.loc 1 416 12 view .LVU322
 1195 0048 0020     		movs	r0, #0
 1196              	.LVL80:
 1197              	.L72:
 417:Service/Srv_ComProto.c **** 
 1198              		.loc 1 417 1 view .LVU323
 1199 004a 06B0     		add	sp, sp, #24
ARM GAS  C:\Users\8bit\AppData\Local\Temp\ccCRhmZR.s 			page 76


 1200              	.LCFI38:
 1201              		.cfi_remember_state
 1202              		.cfi_def_cfa_offset 24
 1203              		@ sp needed
 1204 004c BDE81040 		pop	{r4, lr}
 1205              	.LCFI39:
 1206              		.cfi_restore 14
 1207              		.cfi_restore 4
 1208              		.cfi_def_cfa_offset 16
 1209 0050 04B0     		add	sp, sp, #16
 1210              	.LCFI40:
 1211              		.cfi_def_cfa_offset 0
 1212 0052 7047     		bx	lr
 1213              	.LVL81:
 1214              	.L74:
 1215              	.LCFI41:
 1216              		.cfi_restore_state
 416:Service/Srv_ComProto.c **** }
 1217              		.loc 1 416 12 view .LVU324
 1218 0054 0020     		movs	r0, #0
 1219 0056 F8E7     		b	.L72
 1220              		.cfi_endproc
 1221              	.LFE2090:
 1223              		.section	.text.SrvComProto_MavMsg_Decode_PIDPara_GyroX,"ax",%progbits
 1224              		.align	1
 1225              		.syntax unified
 1226              		.thumb
 1227              		.thumb_func
 1229              	SrvComProto_MavMsg_Decode_PIDPara_GyroX:
 1230              	.LVL82:
 1231              	.LFB2092:
 436:Service/Srv_ComProto.c **** 
 437:Service/Srv_ComProto.c **** static bool SrvComProto_MavMsg_Decode_PIDPara_GyroX(SrvComProto_MsgObj_TypeDef *obj, const mavlink_
 438:Service/Srv_ComProto.c **** {
 1232              		.loc 1 438 1 is_stmt 1 view -0
 1233              		.cfi_startproc
 1234              		@ args = 276, pretend = 16, frame = 32
 1235              		@ frame_needed = 0, uses_anonymous_args = 0
 1236              		.loc 1 438 1 is_stmt 0 view .LVU326
 1237 0000 84B0     		sub	sp, sp, #16
 1238              	.LCFI42:
 1239              		.cfi_def_cfa_offset 16
 1240 0002 10B5     		push	{r4, lr}
 1241              	.LCFI43:
 1242              		.cfi_def_cfa_offset 24
 1243              		.cfi_offset 4, -24
 1244              		.cfi_offset 14, -20
 1245 0004 88B0     		sub	sp, sp, #32
 1246              	.LCFI44:
 1247              		.cfi_def_cfa_offset 56
 1248 0006 0DF12C0C 		add	ip, sp, #44
 1249 000a 8CE80E00 		stm	ip, {r1, r2, r3}
 439:Service/Srv_ComProto.c ****     mavlink_para_gyrox_pid_t msg_pid_para_gyrox;
 1250              		.loc 1 439 5 is_stmt 1 view .LVU327
 440:Service/Srv_ComProto.c **** 
 441:Service/Srv_ComProto.c ****     if (obj)
 1251              		.loc 1 441 5 view .LVU328
ARM GAS  C:\Users\8bit\AppData\Local\Temp\ccCRhmZR.s 			page 77


 1252              		.loc 1 441 8 is_stmt 0 view .LVU329
 1253 000e D0B1     		cbz	r0, .L78
 1254 0010 0446     		mov	r4, r0
 442:Service/Srv_ComProto.c ****     {
 443:Service/Srv_ComProto.c ****         obj->PID_Para_GyrX_Cnt ++;
 1255              		.loc 1 443 9 is_stmt 1 view .LVU330
 1256              		.loc 1 443 12 is_stmt 0 view .LVU331
 1257 0012 C36C     		ldr	r3, [r0, #76]
 1258              		.loc 1 443 32 view .LVU332
 1259 0014 0133     		adds	r3, r3, #1
 1260 0016 C364     		str	r3, [r0, #76]
 444:Service/Srv_ComProto.c **** 
 445:Service/Srv_ComProto.c ****         memset(&msg_pid_para_gyrox, 0, sizeof(mavlink_para_gyrox_pid_t));
 1261              		.loc 1 445 9 is_stmt 1 view .LVU333
 1262 0018 0023     		movs	r3, #0
 1263 001a 0193     		str	r3, [sp, #4]
 1264 001c 0293     		str	r3, [sp, #8]
 1265 001e 0393     		str	r3, [sp, #12]
 1266 0020 0493     		str	r3, [sp, #16]
 1267 0022 0593     		str	r3, [sp, #20]
 1268 0024 0693     		str	r3, [sp, #24]
 1269 0026 0793     		str	r3, [sp, #28]
 446:Service/Srv_ComProto.c ****         mavlink_msg_para_gyrox_pid_decode(&msg, &msg_pid_para_gyrox);
 1270              		.loc 1 446 9 view .LVU334
 1271              	.LVL83:
 1272              	.LBB67:
 1273              	.LBI67:
 1274              		.file 8 "Service/../MAVLink/common/./mavlink_msg_para_gyrox_pid.h"
   1:Service/../MAVLink/common/./mavlink_msg_para_gyrox_pid.h **** #pragma once
   2:Service/../MAVLink/common/./mavlink_msg_para_gyrox_pid.h **** // MESSAGE Para_GyroX_PID PACKING
   3:Service/../MAVLink/common/./mavlink_msg_para_gyrox_pid.h **** 
   4:Service/../MAVLink/common/./mavlink_msg_para_gyrox_pid.h **** #define MAVLINK_MSG_ID_Para_GyroX_PID 215
   5:Service/../MAVLink/common/./mavlink_msg_para_gyrox_pid.h **** 
   6:Service/../MAVLink/common/./mavlink_msg_para_gyrox_pid.h **** 
   7:Service/../MAVLink/common/./mavlink_msg_para_gyrox_pid.h **** typedef struct __mavlink_para_gyrox_pid_t {
   8:Service/../MAVLink/common/./mavlink_msg_para_gyrox_pid.h ****  float gain_p; /*<   Gain P */
   9:Service/../MAVLink/common/./mavlink_msg_para_gyrox_pid.h ****  float p_diff_max; /*<   P Diff Max */
  10:Service/../MAVLink/common/./mavlink_msg_para_gyrox_pid.h ****  float p_diff_min; /*<   P Diff Min */
  11:Service/../MAVLink/common/./mavlink_msg_para_gyrox_pid.h ****  float gain_I; /*<   Gain I */
  12:Service/../MAVLink/common/./mavlink_msg_para_gyrox_pid.h ****  float I_Max; /*<   I Max */
  13:Service/../MAVLink/common/./mavlink_msg_para_gyrox_pid.h ****  float I_Min; /*<   I Min */
  14:Service/../MAVLink/common/./mavlink_msg_para_gyrox_pid.h ****  float gain_D; /*<   Gain D */
  15:Service/../MAVLink/common/./mavlink_msg_para_gyrox_pid.h **** } mavlink_para_gyrox_pid_t;
  16:Service/../MAVLink/common/./mavlink_msg_para_gyrox_pid.h **** 
  17:Service/../MAVLink/common/./mavlink_msg_para_gyrox_pid.h **** #define MAVLINK_MSG_ID_Para_GyroX_PID_LEN 28
  18:Service/../MAVLink/common/./mavlink_msg_para_gyrox_pid.h **** #define MAVLINK_MSG_ID_Para_GyroX_PID_MIN_LEN 28
  19:Service/../MAVLink/common/./mavlink_msg_para_gyrox_pid.h **** #define MAVLINK_MSG_ID_215_LEN 28
  20:Service/../MAVLink/common/./mavlink_msg_para_gyrox_pid.h **** #define MAVLINK_MSG_ID_215_MIN_LEN 28
  21:Service/../MAVLink/common/./mavlink_msg_para_gyrox_pid.h **** 
  22:Service/../MAVLink/common/./mavlink_msg_para_gyrox_pid.h **** #define MAVLINK_MSG_ID_Para_GyroX_PID_CRC 130
  23:Service/../MAVLink/common/./mavlink_msg_para_gyrox_pid.h **** #define MAVLINK_MSG_ID_215_CRC 130
  24:Service/../MAVLink/common/./mavlink_msg_para_gyrox_pid.h **** 
  25:Service/../MAVLink/common/./mavlink_msg_para_gyrox_pid.h **** 
  26:Service/../MAVLink/common/./mavlink_msg_para_gyrox_pid.h **** 
  27:Service/../MAVLink/common/./mavlink_msg_para_gyrox_pid.h **** #if MAVLINK_COMMAND_24BIT
  28:Service/../MAVLink/common/./mavlink_msg_para_gyrox_pid.h **** #define MAVLINK_MESSAGE_INFO_Para_GyroX_PID { \
  29:Service/../MAVLink/common/./mavlink_msg_para_gyrox_pid.h ****     215, \
ARM GAS  C:\Users\8bit\AppData\Local\Temp\ccCRhmZR.s 			page 78


  30:Service/../MAVLink/common/./mavlink_msg_para_gyrox_pid.h ****     "Para_GyroX_PID", \
  31:Service/../MAVLink/common/./mavlink_msg_para_gyrox_pid.h ****     7, \
  32:Service/../MAVLink/common/./mavlink_msg_para_gyrox_pid.h ****     {  { "gain_p", NULL, MAVLINK_TYPE_FLOAT, 0, 0, offsetof(mavlink_para_gyrox_pid_t, gain_p) }, \
  33:Service/../MAVLink/common/./mavlink_msg_para_gyrox_pid.h ****          { "p_diff_max", NULL, MAVLINK_TYPE_FLOAT, 0, 4, offsetof(mavlink_para_gyrox_pid_t, p_diff_
  34:Service/../MAVLink/common/./mavlink_msg_para_gyrox_pid.h ****          { "p_diff_min", NULL, MAVLINK_TYPE_FLOAT, 0, 8, offsetof(mavlink_para_gyrox_pid_t, p_diff_
  35:Service/../MAVLink/common/./mavlink_msg_para_gyrox_pid.h ****          { "gain_I", NULL, MAVLINK_TYPE_FLOAT, 0, 12, offsetof(mavlink_para_gyrox_pid_t, gain_I) },
  36:Service/../MAVLink/common/./mavlink_msg_para_gyrox_pid.h ****          { "I_Max", NULL, MAVLINK_TYPE_FLOAT, 0, 16, offsetof(mavlink_para_gyrox_pid_t, I_Max) }, \
  37:Service/../MAVLink/common/./mavlink_msg_para_gyrox_pid.h ****          { "I_Min", NULL, MAVLINK_TYPE_FLOAT, 0, 20, offsetof(mavlink_para_gyrox_pid_t, I_Min) }, \
  38:Service/../MAVLink/common/./mavlink_msg_para_gyrox_pid.h ****          { "gain_D", NULL, MAVLINK_TYPE_FLOAT, 0, 24, offsetof(mavlink_para_gyrox_pid_t, gain_D) },
  39:Service/../MAVLink/common/./mavlink_msg_para_gyrox_pid.h ****          } \
  40:Service/../MAVLink/common/./mavlink_msg_para_gyrox_pid.h **** }
  41:Service/../MAVLink/common/./mavlink_msg_para_gyrox_pid.h **** #else
  42:Service/../MAVLink/common/./mavlink_msg_para_gyrox_pid.h **** #define MAVLINK_MESSAGE_INFO_Para_GyroX_PID { \
  43:Service/../MAVLink/common/./mavlink_msg_para_gyrox_pid.h ****     "Para_GyroX_PID", \
  44:Service/../MAVLink/common/./mavlink_msg_para_gyrox_pid.h ****     7, \
  45:Service/../MAVLink/common/./mavlink_msg_para_gyrox_pid.h ****     {  { "gain_p", NULL, MAVLINK_TYPE_FLOAT, 0, 0, offsetof(mavlink_para_gyrox_pid_t, gain_p) }, \
  46:Service/../MAVLink/common/./mavlink_msg_para_gyrox_pid.h ****          { "p_diff_max", NULL, MAVLINK_TYPE_FLOAT, 0, 4, offsetof(mavlink_para_gyrox_pid_t, p_diff_
  47:Service/../MAVLink/common/./mavlink_msg_para_gyrox_pid.h ****          { "p_diff_min", NULL, MAVLINK_TYPE_FLOAT, 0, 8, offsetof(mavlink_para_gyrox_pid_t, p_diff_
  48:Service/../MAVLink/common/./mavlink_msg_para_gyrox_pid.h ****          { "gain_I", NULL, MAVLINK_TYPE_FLOAT, 0, 12, offsetof(mavlink_para_gyrox_pid_t, gain_I) },
  49:Service/../MAVLink/common/./mavlink_msg_para_gyrox_pid.h ****          { "I_Max", NULL, MAVLINK_TYPE_FLOAT, 0, 16, offsetof(mavlink_para_gyrox_pid_t, I_Max) }, \
  50:Service/../MAVLink/common/./mavlink_msg_para_gyrox_pid.h ****          { "I_Min", NULL, MAVLINK_TYPE_FLOAT, 0, 20, offsetof(mavlink_para_gyrox_pid_t, I_Min) }, \
  51:Service/../MAVLink/common/./mavlink_msg_para_gyrox_pid.h ****          { "gain_D", NULL, MAVLINK_TYPE_FLOAT, 0, 24, offsetof(mavlink_para_gyrox_pid_t, gain_D) },
  52:Service/../MAVLink/common/./mavlink_msg_para_gyrox_pid.h ****          } \
  53:Service/../MAVLink/common/./mavlink_msg_para_gyrox_pid.h **** }
  54:Service/../MAVLink/common/./mavlink_msg_para_gyrox_pid.h **** #endif
  55:Service/../MAVLink/common/./mavlink_msg_para_gyrox_pid.h **** 
  56:Service/../MAVLink/common/./mavlink_msg_para_gyrox_pid.h **** /**
  57:Service/../MAVLink/common/./mavlink_msg_para_gyrox_pid.h ****  * @brief Pack a para_gyrox_pid message
  58:Service/../MAVLink/common/./mavlink_msg_para_gyrox_pid.h ****  * @param system_id ID of this system
  59:Service/../MAVLink/common/./mavlink_msg_para_gyrox_pid.h ****  * @param component_id ID of this component (e.g. 200 for IMU)
  60:Service/../MAVLink/common/./mavlink_msg_para_gyrox_pid.h ****  * @param msg The MAVLink message to compress the data into
  61:Service/../MAVLink/common/./mavlink_msg_para_gyrox_pid.h ****  *
  62:Service/../MAVLink/common/./mavlink_msg_para_gyrox_pid.h ****  * @param gain_p   Gain P 
  63:Service/../MAVLink/common/./mavlink_msg_para_gyrox_pid.h ****  * @param p_diff_max   P Diff Max 
  64:Service/../MAVLink/common/./mavlink_msg_para_gyrox_pid.h ****  * @param p_diff_min   P Diff Min 
  65:Service/../MAVLink/common/./mavlink_msg_para_gyrox_pid.h ****  * @param gain_I   Gain I 
  66:Service/../MAVLink/common/./mavlink_msg_para_gyrox_pid.h ****  * @param I_Max   I Max 
  67:Service/../MAVLink/common/./mavlink_msg_para_gyrox_pid.h ****  * @param I_Min   I Min 
  68:Service/../MAVLink/common/./mavlink_msg_para_gyrox_pid.h ****  * @param gain_D   Gain D 
  69:Service/../MAVLink/common/./mavlink_msg_para_gyrox_pid.h ****  * @return length of the message in bytes (excluding serial stream start sign)
  70:Service/../MAVLink/common/./mavlink_msg_para_gyrox_pid.h ****  */
  71:Service/../MAVLink/common/./mavlink_msg_para_gyrox_pid.h **** static inline uint16_t mavlink_msg_para_gyrox_pid_pack(uint8_t system_id, uint8_t component_id, mav
  72:Service/../MAVLink/common/./mavlink_msg_para_gyrox_pid.h ****                                float gain_p, float p_diff_max, float p_diff_min, float gain_I, floa
  73:Service/../MAVLink/common/./mavlink_msg_para_gyrox_pid.h **** {
  74:Service/../MAVLink/common/./mavlink_msg_para_gyrox_pid.h **** #if MAVLINK_NEED_BYTE_SWAP || !MAVLINK_ALIGNED_FIELDS
  75:Service/../MAVLink/common/./mavlink_msg_para_gyrox_pid.h ****     char buf[MAVLINK_MSG_ID_Para_GyroX_PID_LEN];
  76:Service/../MAVLink/common/./mavlink_msg_para_gyrox_pid.h ****     _mav_put_float(buf, 0, gain_p);
  77:Service/../MAVLink/common/./mavlink_msg_para_gyrox_pid.h ****     _mav_put_float(buf, 4, p_diff_max);
  78:Service/../MAVLink/common/./mavlink_msg_para_gyrox_pid.h ****     _mav_put_float(buf, 8, p_diff_min);
  79:Service/../MAVLink/common/./mavlink_msg_para_gyrox_pid.h ****     _mav_put_float(buf, 12, gain_I);
  80:Service/../MAVLink/common/./mavlink_msg_para_gyrox_pid.h ****     _mav_put_float(buf, 16, I_Max);
  81:Service/../MAVLink/common/./mavlink_msg_para_gyrox_pid.h ****     _mav_put_float(buf, 20, I_Min);
  82:Service/../MAVLink/common/./mavlink_msg_para_gyrox_pid.h ****     _mav_put_float(buf, 24, gain_D);
  83:Service/../MAVLink/common/./mavlink_msg_para_gyrox_pid.h **** 
  84:Service/../MAVLink/common/./mavlink_msg_para_gyrox_pid.h ****         memcpy(_MAV_PAYLOAD_NON_CONST(msg), buf, MAVLINK_MSG_ID_Para_GyroX_PID_LEN);
  85:Service/../MAVLink/common/./mavlink_msg_para_gyrox_pid.h **** #else
  86:Service/../MAVLink/common/./mavlink_msg_para_gyrox_pid.h ****     mavlink_para_gyrox_pid_t packet;
ARM GAS  C:\Users\8bit\AppData\Local\Temp\ccCRhmZR.s 			page 79


  87:Service/../MAVLink/common/./mavlink_msg_para_gyrox_pid.h ****     packet.gain_p = gain_p;
  88:Service/../MAVLink/common/./mavlink_msg_para_gyrox_pid.h ****     packet.p_diff_max = p_diff_max;
  89:Service/../MAVLink/common/./mavlink_msg_para_gyrox_pid.h ****     packet.p_diff_min = p_diff_min;
  90:Service/../MAVLink/common/./mavlink_msg_para_gyrox_pid.h ****     packet.gain_I = gain_I;
  91:Service/../MAVLink/common/./mavlink_msg_para_gyrox_pid.h ****     packet.I_Max = I_Max;
  92:Service/../MAVLink/common/./mavlink_msg_para_gyrox_pid.h ****     packet.I_Min = I_Min;
  93:Service/../MAVLink/common/./mavlink_msg_para_gyrox_pid.h ****     packet.gain_D = gain_D;
  94:Service/../MAVLink/common/./mavlink_msg_para_gyrox_pid.h **** 
  95:Service/../MAVLink/common/./mavlink_msg_para_gyrox_pid.h ****         memcpy(_MAV_PAYLOAD_NON_CONST(msg), &packet, MAVLINK_MSG_ID_Para_GyroX_PID_LEN);
  96:Service/../MAVLink/common/./mavlink_msg_para_gyrox_pid.h **** #endif
  97:Service/../MAVLink/common/./mavlink_msg_para_gyrox_pid.h **** 
  98:Service/../MAVLink/common/./mavlink_msg_para_gyrox_pid.h ****     msg->msgid = MAVLINK_MSG_ID_Para_GyroX_PID;
  99:Service/../MAVLink/common/./mavlink_msg_para_gyrox_pid.h ****     return mavlink_finalize_message(msg, system_id, component_id, MAVLINK_MSG_ID_Para_GyroX_PID_MIN
 100:Service/../MAVLink/common/./mavlink_msg_para_gyrox_pid.h **** }
 101:Service/../MAVLink/common/./mavlink_msg_para_gyrox_pid.h **** 
 102:Service/../MAVLink/common/./mavlink_msg_para_gyrox_pid.h **** /**
 103:Service/../MAVLink/common/./mavlink_msg_para_gyrox_pid.h ****  * @brief Pack a para_gyrox_pid message on a channel
 104:Service/../MAVLink/common/./mavlink_msg_para_gyrox_pid.h ****  * @param system_id ID of this system
 105:Service/../MAVLink/common/./mavlink_msg_para_gyrox_pid.h ****  * @param component_id ID of this component (e.g. 200 for IMU)
 106:Service/../MAVLink/common/./mavlink_msg_para_gyrox_pid.h ****  * @param chan The MAVLink channel this message will be sent over
 107:Service/../MAVLink/common/./mavlink_msg_para_gyrox_pid.h ****  * @param msg The MAVLink message to compress the data into
 108:Service/../MAVLink/common/./mavlink_msg_para_gyrox_pid.h ****  * @param gain_p   Gain P 
 109:Service/../MAVLink/common/./mavlink_msg_para_gyrox_pid.h ****  * @param p_diff_max   P Diff Max 
 110:Service/../MAVLink/common/./mavlink_msg_para_gyrox_pid.h ****  * @param p_diff_min   P Diff Min 
 111:Service/../MAVLink/common/./mavlink_msg_para_gyrox_pid.h ****  * @param gain_I   Gain I 
 112:Service/../MAVLink/common/./mavlink_msg_para_gyrox_pid.h ****  * @param I_Max   I Max 
 113:Service/../MAVLink/common/./mavlink_msg_para_gyrox_pid.h ****  * @param I_Min   I Min 
 114:Service/../MAVLink/common/./mavlink_msg_para_gyrox_pid.h ****  * @param gain_D   Gain D 
 115:Service/../MAVLink/common/./mavlink_msg_para_gyrox_pid.h ****  * @return length of the message in bytes (excluding serial stream start sign)
 116:Service/../MAVLink/common/./mavlink_msg_para_gyrox_pid.h ****  */
 117:Service/../MAVLink/common/./mavlink_msg_para_gyrox_pid.h **** static inline uint16_t mavlink_msg_para_gyrox_pid_pack_chan(uint8_t system_id, uint8_t component_id
 118:Service/../MAVLink/common/./mavlink_msg_para_gyrox_pid.h ****                                mavlink_message_t* msg,
 119:Service/../MAVLink/common/./mavlink_msg_para_gyrox_pid.h ****                                    float gain_p,float p_diff_max,float p_diff_min,float gain_I,floa
 120:Service/../MAVLink/common/./mavlink_msg_para_gyrox_pid.h **** {
 121:Service/../MAVLink/common/./mavlink_msg_para_gyrox_pid.h **** #if MAVLINK_NEED_BYTE_SWAP || !MAVLINK_ALIGNED_FIELDS
 122:Service/../MAVLink/common/./mavlink_msg_para_gyrox_pid.h ****     char buf[MAVLINK_MSG_ID_Para_GyroX_PID_LEN];
 123:Service/../MAVLink/common/./mavlink_msg_para_gyrox_pid.h ****     _mav_put_float(buf, 0, gain_p);
 124:Service/../MAVLink/common/./mavlink_msg_para_gyrox_pid.h ****     _mav_put_float(buf, 4, p_diff_max);
 125:Service/../MAVLink/common/./mavlink_msg_para_gyrox_pid.h ****     _mav_put_float(buf, 8, p_diff_min);
 126:Service/../MAVLink/common/./mavlink_msg_para_gyrox_pid.h ****     _mav_put_float(buf, 12, gain_I);
 127:Service/../MAVLink/common/./mavlink_msg_para_gyrox_pid.h ****     _mav_put_float(buf, 16, I_Max);
 128:Service/../MAVLink/common/./mavlink_msg_para_gyrox_pid.h ****     _mav_put_float(buf, 20, I_Min);
 129:Service/../MAVLink/common/./mavlink_msg_para_gyrox_pid.h ****     _mav_put_float(buf, 24, gain_D);
 130:Service/../MAVLink/common/./mavlink_msg_para_gyrox_pid.h **** 
 131:Service/../MAVLink/common/./mavlink_msg_para_gyrox_pid.h ****         memcpy(_MAV_PAYLOAD_NON_CONST(msg), buf, MAVLINK_MSG_ID_Para_GyroX_PID_LEN);
 132:Service/../MAVLink/common/./mavlink_msg_para_gyrox_pid.h **** #else
 133:Service/../MAVLink/common/./mavlink_msg_para_gyrox_pid.h ****     mavlink_para_gyrox_pid_t packet;
 134:Service/../MAVLink/common/./mavlink_msg_para_gyrox_pid.h ****     packet.gain_p = gain_p;
 135:Service/../MAVLink/common/./mavlink_msg_para_gyrox_pid.h ****     packet.p_diff_max = p_diff_max;
 136:Service/../MAVLink/common/./mavlink_msg_para_gyrox_pid.h ****     packet.p_diff_min = p_diff_min;
 137:Service/../MAVLink/common/./mavlink_msg_para_gyrox_pid.h ****     packet.gain_I = gain_I;
 138:Service/../MAVLink/common/./mavlink_msg_para_gyrox_pid.h ****     packet.I_Max = I_Max;
 139:Service/../MAVLink/common/./mavlink_msg_para_gyrox_pid.h ****     packet.I_Min = I_Min;
 140:Service/../MAVLink/common/./mavlink_msg_para_gyrox_pid.h ****     packet.gain_D = gain_D;
 141:Service/../MAVLink/common/./mavlink_msg_para_gyrox_pid.h **** 
 142:Service/../MAVLink/common/./mavlink_msg_para_gyrox_pid.h ****         memcpy(_MAV_PAYLOAD_NON_CONST(msg), &packet, MAVLINK_MSG_ID_Para_GyroX_PID_LEN);
 143:Service/../MAVLink/common/./mavlink_msg_para_gyrox_pid.h **** #endif
ARM GAS  C:\Users\8bit\AppData\Local\Temp\ccCRhmZR.s 			page 80


 144:Service/../MAVLink/common/./mavlink_msg_para_gyrox_pid.h **** 
 145:Service/../MAVLink/common/./mavlink_msg_para_gyrox_pid.h ****     msg->msgid = MAVLINK_MSG_ID_Para_GyroX_PID;
 146:Service/../MAVLink/common/./mavlink_msg_para_gyrox_pid.h ****     return mavlink_finalize_message_chan(msg, system_id, component_id, chan, MAVLINK_MSG_ID_Para_Gy
 147:Service/../MAVLink/common/./mavlink_msg_para_gyrox_pid.h **** }
 148:Service/../MAVLink/common/./mavlink_msg_para_gyrox_pid.h **** 
 149:Service/../MAVLink/common/./mavlink_msg_para_gyrox_pid.h **** /**
 150:Service/../MAVLink/common/./mavlink_msg_para_gyrox_pid.h ****  * @brief Encode a para_gyrox_pid struct
 151:Service/../MAVLink/common/./mavlink_msg_para_gyrox_pid.h ****  *
 152:Service/../MAVLink/common/./mavlink_msg_para_gyrox_pid.h ****  * @param system_id ID of this system
 153:Service/../MAVLink/common/./mavlink_msg_para_gyrox_pid.h ****  * @param component_id ID of this component (e.g. 200 for IMU)
 154:Service/../MAVLink/common/./mavlink_msg_para_gyrox_pid.h ****  * @param msg The MAVLink message to compress the data into
 155:Service/../MAVLink/common/./mavlink_msg_para_gyrox_pid.h ****  * @param para_gyrox_pid C-struct to read the message contents from
 156:Service/../MAVLink/common/./mavlink_msg_para_gyrox_pid.h ****  */
 157:Service/../MAVLink/common/./mavlink_msg_para_gyrox_pid.h **** static inline uint16_t mavlink_msg_para_gyrox_pid_encode(uint8_t system_id, uint8_t component_id, m
 158:Service/../MAVLink/common/./mavlink_msg_para_gyrox_pid.h **** {
 159:Service/../MAVLink/common/./mavlink_msg_para_gyrox_pid.h ****     return mavlink_msg_para_gyrox_pid_pack(system_id, component_id, msg, para_gyrox_pid->gain_p, pa
 160:Service/../MAVLink/common/./mavlink_msg_para_gyrox_pid.h **** }
 161:Service/../MAVLink/common/./mavlink_msg_para_gyrox_pid.h **** 
 162:Service/../MAVLink/common/./mavlink_msg_para_gyrox_pid.h **** /**
 163:Service/../MAVLink/common/./mavlink_msg_para_gyrox_pid.h ****  * @brief Encode a para_gyrox_pid struct on a channel
 164:Service/../MAVLink/common/./mavlink_msg_para_gyrox_pid.h ****  *
 165:Service/../MAVLink/common/./mavlink_msg_para_gyrox_pid.h ****  * @param system_id ID of this system
 166:Service/../MAVLink/common/./mavlink_msg_para_gyrox_pid.h ****  * @param component_id ID of this component (e.g. 200 for IMU)
 167:Service/../MAVLink/common/./mavlink_msg_para_gyrox_pid.h ****  * @param chan The MAVLink channel this message will be sent over
 168:Service/../MAVLink/common/./mavlink_msg_para_gyrox_pid.h ****  * @param msg The MAVLink message to compress the data into
 169:Service/../MAVLink/common/./mavlink_msg_para_gyrox_pid.h ****  * @param para_gyrox_pid C-struct to read the message contents from
 170:Service/../MAVLink/common/./mavlink_msg_para_gyrox_pid.h ****  */
 171:Service/../MAVLink/common/./mavlink_msg_para_gyrox_pid.h **** static inline uint16_t mavlink_msg_para_gyrox_pid_encode_chan(uint8_t system_id, uint8_t component_
 172:Service/../MAVLink/common/./mavlink_msg_para_gyrox_pid.h **** {
 173:Service/../MAVLink/common/./mavlink_msg_para_gyrox_pid.h ****     return mavlink_msg_para_gyrox_pid_pack_chan(system_id, component_id, chan, msg, para_gyrox_pid-
 174:Service/../MAVLink/common/./mavlink_msg_para_gyrox_pid.h **** }
 175:Service/../MAVLink/common/./mavlink_msg_para_gyrox_pid.h **** 
 176:Service/../MAVLink/common/./mavlink_msg_para_gyrox_pid.h **** /**
 177:Service/../MAVLink/common/./mavlink_msg_para_gyrox_pid.h ****  * @brief Send a para_gyrox_pid message
 178:Service/../MAVLink/common/./mavlink_msg_para_gyrox_pid.h ****  * @param chan MAVLink channel to send the message
 179:Service/../MAVLink/common/./mavlink_msg_para_gyrox_pid.h ****  *
 180:Service/../MAVLink/common/./mavlink_msg_para_gyrox_pid.h ****  * @param gain_p   Gain P 
 181:Service/../MAVLink/common/./mavlink_msg_para_gyrox_pid.h ****  * @param p_diff_max   P Diff Max 
 182:Service/../MAVLink/common/./mavlink_msg_para_gyrox_pid.h ****  * @param p_diff_min   P Diff Min 
 183:Service/../MAVLink/common/./mavlink_msg_para_gyrox_pid.h ****  * @param gain_I   Gain I 
 184:Service/../MAVLink/common/./mavlink_msg_para_gyrox_pid.h ****  * @param I_Max   I Max 
 185:Service/../MAVLink/common/./mavlink_msg_para_gyrox_pid.h ****  * @param I_Min   I Min 
 186:Service/../MAVLink/common/./mavlink_msg_para_gyrox_pid.h ****  * @param gain_D   Gain D 
 187:Service/../MAVLink/common/./mavlink_msg_para_gyrox_pid.h ****  */
 188:Service/../MAVLink/common/./mavlink_msg_para_gyrox_pid.h **** #ifdef MAVLINK_USE_CONVENIENCE_FUNCTIONS
 189:Service/../MAVLink/common/./mavlink_msg_para_gyrox_pid.h **** 
 190:Service/../MAVLink/common/./mavlink_msg_para_gyrox_pid.h **** static inline void mavlink_msg_para_gyrox_pid_send(mavlink_channel_t chan, float gain_p, float p_di
 191:Service/../MAVLink/common/./mavlink_msg_para_gyrox_pid.h **** {
 192:Service/../MAVLink/common/./mavlink_msg_para_gyrox_pid.h **** #if MAVLINK_NEED_BYTE_SWAP || !MAVLINK_ALIGNED_FIELDS
 193:Service/../MAVLink/common/./mavlink_msg_para_gyrox_pid.h ****     char buf[MAVLINK_MSG_ID_Para_GyroX_PID_LEN];
 194:Service/../MAVLink/common/./mavlink_msg_para_gyrox_pid.h ****     _mav_put_float(buf, 0, gain_p);
 195:Service/../MAVLink/common/./mavlink_msg_para_gyrox_pid.h ****     _mav_put_float(buf, 4, p_diff_max);
 196:Service/../MAVLink/common/./mavlink_msg_para_gyrox_pid.h ****     _mav_put_float(buf, 8, p_diff_min);
 197:Service/../MAVLink/common/./mavlink_msg_para_gyrox_pid.h ****     _mav_put_float(buf, 12, gain_I);
 198:Service/../MAVLink/common/./mavlink_msg_para_gyrox_pid.h ****     _mav_put_float(buf, 16, I_Max);
 199:Service/../MAVLink/common/./mavlink_msg_para_gyrox_pid.h ****     _mav_put_float(buf, 20, I_Min);
 200:Service/../MAVLink/common/./mavlink_msg_para_gyrox_pid.h ****     _mav_put_float(buf, 24, gain_D);
ARM GAS  C:\Users\8bit\AppData\Local\Temp\ccCRhmZR.s 			page 81


 201:Service/../MAVLink/common/./mavlink_msg_para_gyrox_pid.h **** 
 202:Service/../MAVLink/common/./mavlink_msg_para_gyrox_pid.h ****     _mav_finalize_message_chan_send(chan, MAVLINK_MSG_ID_Para_GyroX_PID, buf, MAVLINK_MSG_ID_Para_G
 203:Service/../MAVLink/common/./mavlink_msg_para_gyrox_pid.h **** #else
 204:Service/../MAVLink/common/./mavlink_msg_para_gyrox_pid.h ****     mavlink_para_gyrox_pid_t packet;
 205:Service/../MAVLink/common/./mavlink_msg_para_gyrox_pid.h ****     packet.gain_p = gain_p;
 206:Service/../MAVLink/common/./mavlink_msg_para_gyrox_pid.h ****     packet.p_diff_max = p_diff_max;
 207:Service/../MAVLink/common/./mavlink_msg_para_gyrox_pid.h ****     packet.p_diff_min = p_diff_min;
 208:Service/../MAVLink/common/./mavlink_msg_para_gyrox_pid.h ****     packet.gain_I = gain_I;
 209:Service/../MAVLink/common/./mavlink_msg_para_gyrox_pid.h ****     packet.I_Max = I_Max;
 210:Service/../MAVLink/common/./mavlink_msg_para_gyrox_pid.h ****     packet.I_Min = I_Min;
 211:Service/../MAVLink/common/./mavlink_msg_para_gyrox_pid.h ****     packet.gain_D = gain_D;
 212:Service/../MAVLink/common/./mavlink_msg_para_gyrox_pid.h **** 
 213:Service/../MAVLink/common/./mavlink_msg_para_gyrox_pid.h ****     _mav_finalize_message_chan_send(chan, MAVLINK_MSG_ID_Para_GyroX_PID, (const char *)&packet, MAV
 214:Service/../MAVLink/common/./mavlink_msg_para_gyrox_pid.h **** #endif
 215:Service/../MAVLink/common/./mavlink_msg_para_gyrox_pid.h **** }
 216:Service/../MAVLink/common/./mavlink_msg_para_gyrox_pid.h **** 
 217:Service/../MAVLink/common/./mavlink_msg_para_gyrox_pid.h **** /**
 218:Service/../MAVLink/common/./mavlink_msg_para_gyrox_pid.h ****  * @brief Send a para_gyrox_pid message
 219:Service/../MAVLink/common/./mavlink_msg_para_gyrox_pid.h ****  * @param chan MAVLink channel to send the message
 220:Service/../MAVLink/common/./mavlink_msg_para_gyrox_pid.h ****  * @param struct The MAVLink struct to serialize
 221:Service/../MAVLink/common/./mavlink_msg_para_gyrox_pid.h ****  */
 222:Service/../MAVLink/common/./mavlink_msg_para_gyrox_pid.h **** static inline void mavlink_msg_para_gyrox_pid_send_struct(mavlink_channel_t chan, const mavlink_par
 223:Service/../MAVLink/common/./mavlink_msg_para_gyrox_pid.h **** {
 224:Service/../MAVLink/common/./mavlink_msg_para_gyrox_pid.h **** #if MAVLINK_NEED_BYTE_SWAP || !MAVLINK_ALIGNED_FIELDS
 225:Service/../MAVLink/common/./mavlink_msg_para_gyrox_pid.h ****     mavlink_msg_para_gyrox_pid_send(chan, para_gyrox_pid->gain_p, para_gyrox_pid->p_diff_max, para_
 226:Service/../MAVLink/common/./mavlink_msg_para_gyrox_pid.h **** #else
 227:Service/../MAVLink/common/./mavlink_msg_para_gyrox_pid.h ****     _mav_finalize_message_chan_send(chan, MAVLINK_MSG_ID_Para_GyroX_PID, (const char *)para_gyrox_p
 228:Service/../MAVLink/common/./mavlink_msg_para_gyrox_pid.h **** #endif
 229:Service/../MAVLink/common/./mavlink_msg_para_gyrox_pid.h **** }
 230:Service/../MAVLink/common/./mavlink_msg_para_gyrox_pid.h **** 
 231:Service/../MAVLink/common/./mavlink_msg_para_gyrox_pid.h **** #if MAVLINK_MSG_ID_Para_GyroX_PID_LEN <= MAVLINK_MAX_PAYLOAD_LEN
 232:Service/../MAVLink/common/./mavlink_msg_para_gyrox_pid.h **** /*
 233:Service/../MAVLink/common/./mavlink_msg_para_gyrox_pid.h ****   This variant of _send() can be used to save stack space by re-using
 234:Service/../MAVLink/common/./mavlink_msg_para_gyrox_pid.h ****   memory from the receive buffer.  The caller provides a
 235:Service/../MAVLink/common/./mavlink_msg_para_gyrox_pid.h ****   mavlink_message_t which is the size of a full mavlink message. This
 236:Service/../MAVLink/common/./mavlink_msg_para_gyrox_pid.h ****   is usually the receive buffer for the channel, and allows a reply to an
 237:Service/../MAVLink/common/./mavlink_msg_para_gyrox_pid.h ****   incoming message with minimum stack space usage.
 238:Service/../MAVLink/common/./mavlink_msg_para_gyrox_pid.h ****  */
 239:Service/../MAVLink/common/./mavlink_msg_para_gyrox_pid.h **** static inline void mavlink_msg_para_gyrox_pid_send_buf(mavlink_message_t *msgbuf, mavlink_channel_t
 240:Service/../MAVLink/common/./mavlink_msg_para_gyrox_pid.h **** {
 241:Service/../MAVLink/common/./mavlink_msg_para_gyrox_pid.h **** #if MAVLINK_NEED_BYTE_SWAP || !MAVLINK_ALIGNED_FIELDS
 242:Service/../MAVLink/common/./mavlink_msg_para_gyrox_pid.h ****     char *buf = (char *)msgbuf;
 243:Service/../MAVLink/common/./mavlink_msg_para_gyrox_pid.h ****     _mav_put_float(buf, 0, gain_p);
 244:Service/../MAVLink/common/./mavlink_msg_para_gyrox_pid.h ****     _mav_put_float(buf, 4, p_diff_max);
 245:Service/../MAVLink/common/./mavlink_msg_para_gyrox_pid.h ****     _mav_put_float(buf, 8, p_diff_min);
 246:Service/../MAVLink/common/./mavlink_msg_para_gyrox_pid.h ****     _mav_put_float(buf, 12, gain_I);
 247:Service/../MAVLink/common/./mavlink_msg_para_gyrox_pid.h ****     _mav_put_float(buf, 16, I_Max);
 248:Service/../MAVLink/common/./mavlink_msg_para_gyrox_pid.h ****     _mav_put_float(buf, 20, I_Min);
 249:Service/../MAVLink/common/./mavlink_msg_para_gyrox_pid.h ****     _mav_put_float(buf, 24, gain_D);
 250:Service/../MAVLink/common/./mavlink_msg_para_gyrox_pid.h **** 
 251:Service/../MAVLink/common/./mavlink_msg_para_gyrox_pid.h ****     _mav_finalize_message_chan_send(chan, MAVLINK_MSG_ID_Para_GyroX_PID, buf, MAVLINK_MSG_ID_Para_G
 252:Service/../MAVLink/common/./mavlink_msg_para_gyrox_pid.h **** #else
 253:Service/../MAVLink/common/./mavlink_msg_para_gyrox_pid.h ****     mavlink_para_gyrox_pid_t *packet = (mavlink_para_gyrox_pid_t *)msgbuf;
 254:Service/../MAVLink/common/./mavlink_msg_para_gyrox_pid.h ****     packet->gain_p = gain_p;
 255:Service/../MAVLink/common/./mavlink_msg_para_gyrox_pid.h ****     packet->p_diff_max = p_diff_max;
 256:Service/../MAVLink/common/./mavlink_msg_para_gyrox_pid.h ****     packet->p_diff_min = p_diff_min;
 257:Service/../MAVLink/common/./mavlink_msg_para_gyrox_pid.h ****     packet->gain_I = gain_I;
ARM GAS  C:\Users\8bit\AppData\Local\Temp\ccCRhmZR.s 			page 82


 258:Service/../MAVLink/common/./mavlink_msg_para_gyrox_pid.h ****     packet->I_Max = I_Max;
 259:Service/../MAVLink/common/./mavlink_msg_para_gyrox_pid.h ****     packet->I_Min = I_Min;
 260:Service/../MAVLink/common/./mavlink_msg_para_gyrox_pid.h ****     packet->gain_D = gain_D;
 261:Service/../MAVLink/common/./mavlink_msg_para_gyrox_pid.h **** 
 262:Service/../MAVLink/common/./mavlink_msg_para_gyrox_pid.h ****     _mav_finalize_message_chan_send(chan, MAVLINK_MSG_ID_Para_GyroX_PID, (const char *)packet, MAVL
 263:Service/../MAVLink/common/./mavlink_msg_para_gyrox_pid.h **** #endif
 264:Service/../MAVLink/common/./mavlink_msg_para_gyrox_pid.h **** }
 265:Service/../MAVLink/common/./mavlink_msg_para_gyrox_pid.h **** #endif
 266:Service/../MAVLink/common/./mavlink_msg_para_gyrox_pid.h **** 
 267:Service/../MAVLink/common/./mavlink_msg_para_gyrox_pid.h **** #endif
 268:Service/../MAVLink/common/./mavlink_msg_para_gyrox_pid.h **** 
 269:Service/../MAVLink/common/./mavlink_msg_para_gyrox_pid.h **** // MESSAGE Para_GyroX_PID UNPACKING
 270:Service/../MAVLink/common/./mavlink_msg_para_gyrox_pid.h **** 
 271:Service/../MAVLink/common/./mavlink_msg_para_gyrox_pid.h **** 
 272:Service/../MAVLink/common/./mavlink_msg_para_gyrox_pid.h **** /**
 273:Service/../MAVLink/common/./mavlink_msg_para_gyrox_pid.h ****  * @brief Get field gain_p from para_gyrox_pid message
 274:Service/../MAVLink/common/./mavlink_msg_para_gyrox_pid.h ****  *
 275:Service/../MAVLink/common/./mavlink_msg_para_gyrox_pid.h ****  * @return   Gain P 
 276:Service/../MAVLink/common/./mavlink_msg_para_gyrox_pid.h ****  */
 277:Service/../MAVLink/common/./mavlink_msg_para_gyrox_pid.h **** static inline float mavlink_msg_para_gyrox_pid_get_gain_p(const mavlink_message_t* msg)
 278:Service/../MAVLink/common/./mavlink_msg_para_gyrox_pid.h **** {
 279:Service/../MAVLink/common/./mavlink_msg_para_gyrox_pid.h ****     return _MAV_RETURN_float(msg,  0);
 280:Service/../MAVLink/common/./mavlink_msg_para_gyrox_pid.h **** }
 281:Service/../MAVLink/common/./mavlink_msg_para_gyrox_pid.h **** 
 282:Service/../MAVLink/common/./mavlink_msg_para_gyrox_pid.h **** /**
 283:Service/../MAVLink/common/./mavlink_msg_para_gyrox_pid.h ****  * @brief Get field p_diff_max from para_gyrox_pid message
 284:Service/../MAVLink/common/./mavlink_msg_para_gyrox_pid.h ****  *
 285:Service/../MAVLink/common/./mavlink_msg_para_gyrox_pid.h ****  * @return   P Diff Max 
 286:Service/../MAVLink/common/./mavlink_msg_para_gyrox_pid.h ****  */
 287:Service/../MAVLink/common/./mavlink_msg_para_gyrox_pid.h **** static inline float mavlink_msg_para_gyrox_pid_get_p_diff_max(const mavlink_message_t* msg)
 288:Service/../MAVLink/common/./mavlink_msg_para_gyrox_pid.h **** {
 289:Service/../MAVLink/common/./mavlink_msg_para_gyrox_pid.h ****     return _MAV_RETURN_float(msg,  4);
 290:Service/../MAVLink/common/./mavlink_msg_para_gyrox_pid.h **** }
 291:Service/../MAVLink/common/./mavlink_msg_para_gyrox_pid.h **** 
 292:Service/../MAVLink/common/./mavlink_msg_para_gyrox_pid.h **** /**
 293:Service/../MAVLink/common/./mavlink_msg_para_gyrox_pid.h ****  * @brief Get field p_diff_min from para_gyrox_pid message
 294:Service/../MAVLink/common/./mavlink_msg_para_gyrox_pid.h ****  *
 295:Service/../MAVLink/common/./mavlink_msg_para_gyrox_pid.h ****  * @return   P Diff Min 
 296:Service/../MAVLink/common/./mavlink_msg_para_gyrox_pid.h ****  */
 297:Service/../MAVLink/common/./mavlink_msg_para_gyrox_pid.h **** static inline float mavlink_msg_para_gyrox_pid_get_p_diff_min(const mavlink_message_t* msg)
 298:Service/../MAVLink/common/./mavlink_msg_para_gyrox_pid.h **** {
 299:Service/../MAVLink/common/./mavlink_msg_para_gyrox_pid.h ****     return _MAV_RETURN_float(msg,  8);
 300:Service/../MAVLink/common/./mavlink_msg_para_gyrox_pid.h **** }
 301:Service/../MAVLink/common/./mavlink_msg_para_gyrox_pid.h **** 
 302:Service/../MAVLink/common/./mavlink_msg_para_gyrox_pid.h **** /**
 303:Service/../MAVLink/common/./mavlink_msg_para_gyrox_pid.h ****  * @brief Get field gain_I from para_gyrox_pid message
 304:Service/../MAVLink/common/./mavlink_msg_para_gyrox_pid.h ****  *
 305:Service/../MAVLink/common/./mavlink_msg_para_gyrox_pid.h ****  * @return   Gain I 
 306:Service/../MAVLink/common/./mavlink_msg_para_gyrox_pid.h ****  */
 307:Service/../MAVLink/common/./mavlink_msg_para_gyrox_pid.h **** static inline float mavlink_msg_para_gyrox_pid_get_gain_I(const mavlink_message_t* msg)
 308:Service/../MAVLink/common/./mavlink_msg_para_gyrox_pid.h **** {
 309:Service/../MAVLink/common/./mavlink_msg_para_gyrox_pid.h ****     return _MAV_RETURN_float(msg,  12);
 310:Service/../MAVLink/common/./mavlink_msg_para_gyrox_pid.h **** }
 311:Service/../MAVLink/common/./mavlink_msg_para_gyrox_pid.h **** 
 312:Service/../MAVLink/common/./mavlink_msg_para_gyrox_pid.h **** /**
 313:Service/../MAVLink/common/./mavlink_msg_para_gyrox_pid.h ****  * @brief Get field I_Max from para_gyrox_pid message
 314:Service/../MAVLink/common/./mavlink_msg_para_gyrox_pid.h ****  *
ARM GAS  C:\Users\8bit\AppData\Local\Temp\ccCRhmZR.s 			page 83


 315:Service/../MAVLink/common/./mavlink_msg_para_gyrox_pid.h ****  * @return   I Max 
 316:Service/../MAVLink/common/./mavlink_msg_para_gyrox_pid.h ****  */
 317:Service/../MAVLink/common/./mavlink_msg_para_gyrox_pid.h **** static inline float mavlink_msg_para_gyrox_pid_get_I_Max(const mavlink_message_t* msg)
 318:Service/../MAVLink/common/./mavlink_msg_para_gyrox_pid.h **** {
 319:Service/../MAVLink/common/./mavlink_msg_para_gyrox_pid.h ****     return _MAV_RETURN_float(msg,  16);
 320:Service/../MAVLink/common/./mavlink_msg_para_gyrox_pid.h **** }
 321:Service/../MAVLink/common/./mavlink_msg_para_gyrox_pid.h **** 
 322:Service/../MAVLink/common/./mavlink_msg_para_gyrox_pid.h **** /**
 323:Service/../MAVLink/common/./mavlink_msg_para_gyrox_pid.h ****  * @brief Get field I_Min from para_gyrox_pid message
 324:Service/../MAVLink/common/./mavlink_msg_para_gyrox_pid.h ****  *
 325:Service/../MAVLink/common/./mavlink_msg_para_gyrox_pid.h ****  * @return   I Min 
 326:Service/../MAVLink/common/./mavlink_msg_para_gyrox_pid.h ****  */
 327:Service/../MAVLink/common/./mavlink_msg_para_gyrox_pid.h **** static inline float mavlink_msg_para_gyrox_pid_get_I_Min(const mavlink_message_t* msg)
 328:Service/../MAVLink/common/./mavlink_msg_para_gyrox_pid.h **** {
 329:Service/../MAVLink/common/./mavlink_msg_para_gyrox_pid.h ****     return _MAV_RETURN_float(msg,  20);
 330:Service/../MAVLink/common/./mavlink_msg_para_gyrox_pid.h **** }
 331:Service/../MAVLink/common/./mavlink_msg_para_gyrox_pid.h **** 
 332:Service/../MAVLink/common/./mavlink_msg_para_gyrox_pid.h **** /**
 333:Service/../MAVLink/common/./mavlink_msg_para_gyrox_pid.h ****  * @brief Get field gain_D from para_gyrox_pid message
 334:Service/../MAVLink/common/./mavlink_msg_para_gyrox_pid.h ****  *
 335:Service/../MAVLink/common/./mavlink_msg_para_gyrox_pid.h ****  * @return   Gain D 
 336:Service/../MAVLink/common/./mavlink_msg_para_gyrox_pid.h ****  */
 337:Service/../MAVLink/common/./mavlink_msg_para_gyrox_pid.h **** static inline float mavlink_msg_para_gyrox_pid_get_gain_D(const mavlink_message_t* msg)
 338:Service/../MAVLink/common/./mavlink_msg_para_gyrox_pid.h **** {
 339:Service/../MAVLink/common/./mavlink_msg_para_gyrox_pid.h ****     return _MAV_RETURN_float(msg,  24);
 340:Service/../MAVLink/common/./mavlink_msg_para_gyrox_pid.h **** }
 341:Service/../MAVLink/common/./mavlink_msg_para_gyrox_pid.h **** 
 342:Service/../MAVLink/common/./mavlink_msg_para_gyrox_pid.h **** /**
 343:Service/../MAVLink/common/./mavlink_msg_para_gyrox_pid.h ****  * @brief Decode a para_gyrox_pid message into a struct
 344:Service/../MAVLink/common/./mavlink_msg_para_gyrox_pid.h ****  *
 345:Service/../MAVLink/common/./mavlink_msg_para_gyrox_pid.h ****  * @param msg The message to decode
 346:Service/../MAVLink/common/./mavlink_msg_para_gyrox_pid.h ****  * @param para_gyrox_pid C-struct to decode the message contents into
 347:Service/../MAVLink/common/./mavlink_msg_para_gyrox_pid.h ****  */
 348:Service/../MAVLink/common/./mavlink_msg_para_gyrox_pid.h **** static inline void mavlink_msg_para_gyrox_pid_decode(const mavlink_message_t* msg, mavlink_para_gyr
 1275              		.loc 8 348 20 view .LVU335
 1276              	.LBB68:
 349:Service/../MAVLink/common/./mavlink_msg_para_gyrox_pid.h **** {
 350:Service/../MAVLink/common/./mavlink_msg_para_gyrox_pid.h **** #if MAVLINK_NEED_BYTE_SWAP || !MAVLINK_ALIGNED_FIELDS
 351:Service/../MAVLink/common/./mavlink_msg_para_gyrox_pid.h ****     para_gyrox_pid->gain_p = mavlink_msg_para_gyrox_pid_get_gain_p(msg);
 352:Service/../MAVLink/common/./mavlink_msg_para_gyrox_pid.h ****     para_gyrox_pid->p_diff_max = mavlink_msg_para_gyrox_pid_get_p_diff_max(msg);
 353:Service/../MAVLink/common/./mavlink_msg_para_gyrox_pid.h ****     para_gyrox_pid->p_diff_min = mavlink_msg_para_gyrox_pid_get_p_diff_min(msg);
 354:Service/../MAVLink/common/./mavlink_msg_para_gyrox_pid.h ****     para_gyrox_pid->gain_I = mavlink_msg_para_gyrox_pid_get_gain_I(msg);
 355:Service/../MAVLink/common/./mavlink_msg_para_gyrox_pid.h ****     para_gyrox_pid->I_Max = mavlink_msg_para_gyrox_pid_get_I_Max(msg);
 356:Service/../MAVLink/common/./mavlink_msg_para_gyrox_pid.h ****     para_gyrox_pid->I_Min = mavlink_msg_para_gyrox_pid_get_I_Min(msg);
 357:Service/../MAVLink/common/./mavlink_msg_para_gyrox_pid.h ****     para_gyrox_pid->gain_D = mavlink_msg_para_gyrox_pid_get_gain_D(msg);
 358:Service/../MAVLink/common/./mavlink_msg_para_gyrox_pid.h **** #else
 359:Service/../MAVLink/common/./mavlink_msg_para_gyrox_pid.h ****         uint8_t len = msg->len < MAVLINK_MSG_ID_Para_GyroX_PID_LEN? msg->len : MAVLINK_MSG_ID_Para_
 1277              		.loc 8 359 9 view .LVU336
 1278              		.loc 8 359 26 is_stmt 0 view .LVU337
 1279 0028 9DF82F20 		ldrb	r2, [sp, #47]	@ zero_extendqisi2
 1280              	.LVL84:
 360:Service/../MAVLink/common/./mavlink_msg_para_gyrox_pid.h ****         memset(para_gyrox_pid, 0, MAVLINK_MSG_ID_Para_GyroX_PID_LEN);
 1281              		.loc 8 360 9 is_stmt 1 view .LVU338
 361:Service/../MAVLink/common/./mavlink_msg_para_gyrox_pid.h ****     memcpy(para_gyrox_pid, _MAV_PAYLOAD(msg), len);
 1282              		.loc 8 361 5 view .LVU339
 1283 002c 1C2A     		cmp	r2, #28
 1284 002e 28BF     		it	cs
ARM GAS  C:\Users\8bit\AppData\Local\Temp\ccCRhmZR.s 			page 84


 1285 0030 1C22     		movcs	r2, #28
 1286              	.LVL85:
 1287              		.loc 8 361 5 is_stmt 0 view .LVU340
 1288 0032 0DA9     		add	r1, sp, #52
 1289 0034 01A8     		add	r0, sp, #4
 1290 0036 FFF7FEFF 		bl	memcpy
 1291              	.LVL86:
 1292              		.loc 8 361 5 view .LVU341
 1293              	.LBE68:
 1294              	.LBE67:
 447:Service/Srv_ComProto.c ****     
 448:Service/Srv_ComProto.c ****         if (obj->MavMsg_PIDPara_GyroX_Callback)
 1295              		.loc 1 448 9 is_stmt 1 view .LVU342
 1296              		.loc 1 448 16 is_stmt 0 view .LVU343
 1297 003a A36F     		ldr	r3, [r4, #120]
 1298              		.loc 1 448 12 view .LVU344
 1299 003c 4BB1     		cbz	r3, .L79
 449:Service/Srv_ComProto.c ****             return obj->MavMsg_PIDPara_GyroX_Callback(&msg_pid_para_gyrox, obj->cus_p_pidpara_gyrox
 1300              		.loc 1 449 13 is_stmt 1 view .LVU345
 1301              		.loc 1 449 20 is_stmt 0 view .LVU346
 1302 003e E169     		ldr	r1, [r4, #28]
 1303 0040 01A8     		add	r0, sp, #4
 1304 0042 9847     		blx	r3
 1305              	.LVL87:
 1306 0044 00E0     		b	.L77
 1307              	.LVL88:
 1308              	.L78:
 450:Service/Srv_ComProto.c ****     }
 451:Service/Srv_ComProto.c **** 
 452:Service/Srv_ComProto.c ****     return false;
 1309              		.loc 1 452 12 view .LVU347
 1310 0046 0020     		movs	r0, #0
 1311              	.LVL89:
 1312              	.L77:
 453:Service/Srv_ComProto.c **** }
 1313              		.loc 1 453 1 view .LVU348
 1314 0048 08B0     		add	sp, sp, #32
 1315              	.LCFI45:
 1316              		.cfi_remember_state
 1317              		.cfi_def_cfa_offset 24
 1318              		@ sp needed
 1319 004a BDE81040 		pop	{r4, lr}
 1320              	.LCFI46:
 1321              		.cfi_restore 14
 1322              		.cfi_restore 4
 1323              		.cfi_def_cfa_offset 16
 1324 004e 04B0     		add	sp, sp, #16
 1325              	.LCFI47:
 1326              		.cfi_def_cfa_offset 0
 1327 0050 7047     		bx	lr
 1328              	.LVL90:
 1329              	.L79:
 1330              	.LCFI48:
 1331              		.cfi_restore_state
 452:Service/Srv_ComProto.c **** }
 1332              		.loc 1 452 12 view .LVU349
 1333 0052 0020     		movs	r0, #0
ARM GAS  C:\Users\8bit\AppData\Local\Temp\ccCRhmZR.s 			page 85


 1334 0054 F8E7     		b	.L77
 1335              		.cfi_endproc
 1336              	.LFE2092:
 1338              		.section	.text.SrvComProto_MavMsg_Decode_PIDPara_GyroY,"ax",%progbits
 1339              		.align	1
 1340              		.syntax unified
 1341              		.thumb
 1342              		.thumb_func
 1344              	SrvComProto_MavMsg_Decode_PIDPara_GyroY:
 1345              	.LVL91:
 1346              	.LFB2093:
 454:Service/Srv_ComProto.c **** 
 455:Service/Srv_ComProto.c **** static bool SrvComProto_MavMsg_Decode_PIDPara_GyroY(SrvComProto_MsgObj_TypeDef *obj, const mavlink_
 456:Service/Srv_ComProto.c **** {
 1347              		.loc 1 456 1 is_stmt 1 view -0
 1348              		.cfi_startproc
 1349              		@ args = 276, pretend = 16, frame = 32
 1350              		@ frame_needed = 0, uses_anonymous_args = 0
 1351              		.loc 1 456 1 is_stmt 0 view .LVU351
 1352 0000 84B0     		sub	sp, sp, #16
 1353              	.LCFI49:
 1354              		.cfi_def_cfa_offset 16
 1355 0002 10B5     		push	{r4, lr}
 1356              	.LCFI50:
 1357              		.cfi_def_cfa_offset 24
 1358              		.cfi_offset 4, -24
 1359              		.cfi_offset 14, -20
 1360 0004 88B0     		sub	sp, sp, #32
 1361              	.LCFI51:
 1362              		.cfi_def_cfa_offset 56
 1363 0006 0DF12C0C 		add	ip, sp, #44
 1364 000a 8CE80E00 		stm	ip, {r1, r2, r3}
 457:Service/Srv_ComProto.c ****     mavlink_para_gyroy_pid_t msg_pid_para_gyroy;
 1365              		.loc 1 457 5 is_stmt 1 view .LVU352
 458:Service/Srv_ComProto.c ****     
 459:Service/Srv_ComProto.c ****     if (obj)
 1366              		.loc 1 459 5 view .LVU353
 1367              		.loc 1 459 8 is_stmt 0 view .LVU354
 1368 000e D0B1     		cbz	r0, .L83
 1369 0010 0446     		mov	r4, r0
 460:Service/Srv_ComProto.c ****     {
 461:Service/Srv_ComProto.c ****         obj->PID_Para_GyrY_Cnt ++;
 1370              		.loc 1 461 9 is_stmt 1 view .LVU355
 1371              		.loc 1 461 12 is_stmt 0 view .LVU356
 1372 0012 036D     		ldr	r3, [r0, #80]
 1373              		.loc 1 461 32 view .LVU357
 1374 0014 0133     		adds	r3, r3, #1
 1375 0016 0365     		str	r3, [r0, #80]
 462:Service/Srv_ComProto.c **** 
 463:Service/Srv_ComProto.c ****         memset(&msg_pid_para_gyroy, 0, sizeof(mavlink_para_gyroy_pid_t));
 1376              		.loc 1 463 9 is_stmt 1 view .LVU358
 1377 0018 0023     		movs	r3, #0
 1378 001a 0193     		str	r3, [sp, #4]
 1379 001c 0293     		str	r3, [sp, #8]
 1380 001e 0393     		str	r3, [sp, #12]
 1381 0020 0493     		str	r3, [sp, #16]
 1382 0022 0593     		str	r3, [sp, #20]
ARM GAS  C:\Users\8bit\AppData\Local\Temp\ccCRhmZR.s 			page 86


 1383 0024 0693     		str	r3, [sp, #24]
 1384 0026 0793     		str	r3, [sp, #28]
 464:Service/Srv_ComProto.c ****         mavlink_msg_para_gyroy_pid_decode(&msg, &msg_pid_para_gyroy);
 1385              		.loc 1 464 9 view .LVU359
 1386              	.LVL92:
 1387              	.LBB71:
 1388              	.LBI71:
 1389              		.file 9 "Service/../MAVLink/common/./mavlink_msg_para_gyroy_pid.h"
   1:Service/../MAVLink/common/./mavlink_msg_para_gyroy_pid.h **** #pragma once
   2:Service/../MAVLink/common/./mavlink_msg_para_gyroy_pid.h **** // MESSAGE Para_GyroY_PID PACKING
   3:Service/../MAVLink/common/./mavlink_msg_para_gyroy_pid.h **** 
   4:Service/../MAVLink/common/./mavlink_msg_para_gyroy_pid.h **** #define MAVLINK_MSG_ID_Para_GyroY_PID 216
   5:Service/../MAVLink/common/./mavlink_msg_para_gyroy_pid.h **** 
   6:Service/../MAVLink/common/./mavlink_msg_para_gyroy_pid.h **** 
   7:Service/../MAVLink/common/./mavlink_msg_para_gyroy_pid.h **** typedef struct __mavlink_para_gyroy_pid_t {
   8:Service/../MAVLink/common/./mavlink_msg_para_gyroy_pid.h ****  float gain_p; /*<   Gain P */
   9:Service/../MAVLink/common/./mavlink_msg_para_gyroy_pid.h ****  float p_diff_max; /*<   P Diff Max */
  10:Service/../MAVLink/common/./mavlink_msg_para_gyroy_pid.h ****  float p_diff_min; /*<   P Diff Min */
  11:Service/../MAVLink/common/./mavlink_msg_para_gyroy_pid.h ****  float gain_I; /*<   Gain I */
  12:Service/../MAVLink/common/./mavlink_msg_para_gyroy_pid.h ****  float I_Max; /*<   I Max */
  13:Service/../MAVLink/common/./mavlink_msg_para_gyroy_pid.h ****  float I_Min; /*<   I Min */
  14:Service/../MAVLink/common/./mavlink_msg_para_gyroy_pid.h ****  float gain_D; /*<   Gain D */
  15:Service/../MAVLink/common/./mavlink_msg_para_gyroy_pid.h **** } mavlink_para_gyroy_pid_t;
  16:Service/../MAVLink/common/./mavlink_msg_para_gyroy_pid.h **** 
  17:Service/../MAVLink/common/./mavlink_msg_para_gyroy_pid.h **** #define MAVLINK_MSG_ID_Para_GyroY_PID_LEN 28
  18:Service/../MAVLink/common/./mavlink_msg_para_gyroy_pid.h **** #define MAVLINK_MSG_ID_Para_GyroY_PID_MIN_LEN 28
  19:Service/../MAVLink/common/./mavlink_msg_para_gyroy_pid.h **** #define MAVLINK_MSG_ID_216_LEN 28
  20:Service/../MAVLink/common/./mavlink_msg_para_gyroy_pid.h **** #define MAVLINK_MSG_ID_216_MIN_LEN 28
  21:Service/../MAVLink/common/./mavlink_msg_para_gyroy_pid.h **** 
  22:Service/../MAVLink/common/./mavlink_msg_para_gyroy_pid.h **** #define MAVLINK_MSG_ID_Para_GyroY_PID_CRC 1
  23:Service/../MAVLink/common/./mavlink_msg_para_gyroy_pid.h **** #define MAVLINK_MSG_ID_216_CRC 1
  24:Service/../MAVLink/common/./mavlink_msg_para_gyroy_pid.h **** 
  25:Service/../MAVLink/common/./mavlink_msg_para_gyroy_pid.h **** 
  26:Service/../MAVLink/common/./mavlink_msg_para_gyroy_pid.h **** 
  27:Service/../MAVLink/common/./mavlink_msg_para_gyroy_pid.h **** #if MAVLINK_COMMAND_24BIT
  28:Service/../MAVLink/common/./mavlink_msg_para_gyroy_pid.h **** #define MAVLINK_MESSAGE_INFO_Para_GyroY_PID { \
  29:Service/../MAVLink/common/./mavlink_msg_para_gyroy_pid.h ****     216, \
  30:Service/../MAVLink/common/./mavlink_msg_para_gyroy_pid.h ****     "Para_GyroY_PID", \
  31:Service/../MAVLink/common/./mavlink_msg_para_gyroy_pid.h ****     7, \
  32:Service/../MAVLink/common/./mavlink_msg_para_gyroy_pid.h ****     {  { "gain_p", NULL, MAVLINK_TYPE_FLOAT, 0, 0, offsetof(mavlink_para_gyroy_pid_t, gain_p) }, \
  33:Service/../MAVLink/common/./mavlink_msg_para_gyroy_pid.h ****          { "p_diff_max", NULL, MAVLINK_TYPE_FLOAT, 0, 4, offsetof(mavlink_para_gyroy_pid_t, p_diff_
  34:Service/../MAVLink/common/./mavlink_msg_para_gyroy_pid.h ****          { "p_diff_min", NULL, MAVLINK_TYPE_FLOAT, 0, 8, offsetof(mavlink_para_gyroy_pid_t, p_diff_
  35:Service/../MAVLink/common/./mavlink_msg_para_gyroy_pid.h ****          { "gain_I", NULL, MAVLINK_TYPE_FLOAT, 0, 12, offsetof(mavlink_para_gyroy_pid_t, gain_I) },
  36:Service/../MAVLink/common/./mavlink_msg_para_gyroy_pid.h ****          { "I_Max", NULL, MAVLINK_TYPE_FLOAT, 0, 16, offsetof(mavlink_para_gyroy_pid_t, I_Max) }, \
  37:Service/../MAVLink/common/./mavlink_msg_para_gyroy_pid.h ****          { "I_Min", NULL, MAVLINK_TYPE_FLOAT, 0, 20, offsetof(mavlink_para_gyroy_pid_t, I_Min) }, \
  38:Service/../MAVLink/common/./mavlink_msg_para_gyroy_pid.h ****          { "gain_D", NULL, MAVLINK_TYPE_FLOAT, 0, 24, offsetof(mavlink_para_gyroy_pid_t, gain_D) },
  39:Service/../MAVLink/common/./mavlink_msg_para_gyroy_pid.h ****          } \
  40:Service/../MAVLink/common/./mavlink_msg_para_gyroy_pid.h **** }
  41:Service/../MAVLink/common/./mavlink_msg_para_gyroy_pid.h **** #else
  42:Service/../MAVLink/common/./mavlink_msg_para_gyroy_pid.h **** #define MAVLINK_MESSAGE_INFO_Para_GyroY_PID { \
  43:Service/../MAVLink/common/./mavlink_msg_para_gyroy_pid.h ****     "Para_GyroY_PID", \
  44:Service/../MAVLink/common/./mavlink_msg_para_gyroy_pid.h ****     7, \
  45:Service/../MAVLink/common/./mavlink_msg_para_gyroy_pid.h ****     {  { "gain_p", NULL, MAVLINK_TYPE_FLOAT, 0, 0, offsetof(mavlink_para_gyroy_pid_t, gain_p) }, \
  46:Service/../MAVLink/common/./mavlink_msg_para_gyroy_pid.h ****          { "p_diff_max", NULL, MAVLINK_TYPE_FLOAT, 0, 4, offsetof(mavlink_para_gyroy_pid_t, p_diff_
  47:Service/../MAVLink/common/./mavlink_msg_para_gyroy_pid.h ****          { "p_diff_min", NULL, MAVLINK_TYPE_FLOAT, 0, 8, offsetof(mavlink_para_gyroy_pid_t, p_diff_
  48:Service/../MAVLink/common/./mavlink_msg_para_gyroy_pid.h ****          { "gain_I", NULL, MAVLINK_TYPE_FLOAT, 0, 12, offsetof(mavlink_para_gyroy_pid_t, gain_I) },
  49:Service/../MAVLink/common/./mavlink_msg_para_gyroy_pid.h ****          { "I_Max", NULL, MAVLINK_TYPE_FLOAT, 0, 16, offsetof(mavlink_para_gyroy_pid_t, I_Max) }, \
ARM GAS  C:\Users\8bit\AppData\Local\Temp\ccCRhmZR.s 			page 87


  50:Service/../MAVLink/common/./mavlink_msg_para_gyroy_pid.h ****          { "I_Min", NULL, MAVLINK_TYPE_FLOAT, 0, 20, offsetof(mavlink_para_gyroy_pid_t, I_Min) }, \
  51:Service/../MAVLink/common/./mavlink_msg_para_gyroy_pid.h ****          { "gain_D", NULL, MAVLINK_TYPE_FLOAT, 0, 24, offsetof(mavlink_para_gyroy_pid_t, gain_D) },
  52:Service/../MAVLink/common/./mavlink_msg_para_gyroy_pid.h ****          } \
  53:Service/../MAVLink/common/./mavlink_msg_para_gyroy_pid.h **** }
  54:Service/../MAVLink/common/./mavlink_msg_para_gyroy_pid.h **** #endif
  55:Service/../MAVLink/common/./mavlink_msg_para_gyroy_pid.h **** 
  56:Service/../MAVLink/common/./mavlink_msg_para_gyroy_pid.h **** /**
  57:Service/../MAVLink/common/./mavlink_msg_para_gyroy_pid.h ****  * @brief Pack a para_gyroy_pid message
  58:Service/../MAVLink/common/./mavlink_msg_para_gyroy_pid.h ****  * @param system_id ID of this system
  59:Service/../MAVLink/common/./mavlink_msg_para_gyroy_pid.h ****  * @param component_id ID of this component (e.g. 200 for IMU)
  60:Service/../MAVLink/common/./mavlink_msg_para_gyroy_pid.h ****  * @param msg The MAVLink message to compress the data into
  61:Service/../MAVLink/common/./mavlink_msg_para_gyroy_pid.h ****  *
  62:Service/../MAVLink/common/./mavlink_msg_para_gyroy_pid.h ****  * @param gain_p   Gain P 
  63:Service/../MAVLink/common/./mavlink_msg_para_gyroy_pid.h ****  * @param p_diff_max   P Diff Max 
  64:Service/../MAVLink/common/./mavlink_msg_para_gyroy_pid.h ****  * @param p_diff_min   P Diff Min 
  65:Service/../MAVLink/common/./mavlink_msg_para_gyroy_pid.h ****  * @param gain_I   Gain I 
  66:Service/../MAVLink/common/./mavlink_msg_para_gyroy_pid.h ****  * @param I_Max   I Max 
  67:Service/../MAVLink/common/./mavlink_msg_para_gyroy_pid.h ****  * @param I_Min   I Min 
  68:Service/../MAVLink/common/./mavlink_msg_para_gyroy_pid.h ****  * @param gain_D   Gain D 
  69:Service/../MAVLink/common/./mavlink_msg_para_gyroy_pid.h ****  * @return length of the message in bytes (excluding serial stream start sign)
  70:Service/../MAVLink/common/./mavlink_msg_para_gyroy_pid.h ****  */
  71:Service/../MAVLink/common/./mavlink_msg_para_gyroy_pid.h **** static inline uint16_t mavlink_msg_para_gyroy_pid_pack(uint8_t system_id, uint8_t component_id, mav
  72:Service/../MAVLink/common/./mavlink_msg_para_gyroy_pid.h ****                                float gain_p, float p_diff_max, float p_diff_min, float gain_I, floa
  73:Service/../MAVLink/common/./mavlink_msg_para_gyroy_pid.h **** {
  74:Service/../MAVLink/common/./mavlink_msg_para_gyroy_pid.h **** #if MAVLINK_NEED_BYTE_SWAP || !MAVLINK_ALIGNED_FIELDS
  75:Service/../MAVLink/common/./mavlink_msg_para_gyroy_pid.h ****     char buf[MAVLINK_MSG_ID_Para_GyroY_PID_LEN];
  76:Service/../MAVLink/common/./mavlink_msg_para_gyroy_pid.h ****     _mav_put_float(buf, 0, gain_p);
  77:Service/../MAVLink/common/./mavlink_msg_para_gyroy_pid.h ****     _mav_put_float(buf, 4, p_diff_max);
  78:Service/../MAVLink/common/./mavlink_msg_para_gyroy_pid.h ****     _mav_put_float(buf, 8, p_diff_min);
  79:Service/../MAVLink/common/./mavlink_msg_para_gyroy_pid.h ****     _mav_put_float(buf, 12, gain_I);
  80:Service/../MAVLink/common/./mavlink_msg_para_gyroy_pid.h ****     _mav_put_float(buf, 16, I_Max);
  81:Service/../MAVLink/common/./mavlink_msg_para_gyroy_pid.h ****     _mav_put_float(buf, 20, I_Min);
  82:Service/../MAVLink/common/./mavlink_msg_para_gyroy_pid.h ****     _mav_put_float(buf, 24, gain_D);
  83:Service/../MAVLink/common/./mavlink_msg_para_gyroy_pid.h **** 
  84:Service/../MAVLink/common/./mavlink_msg_para_gyroy_pid.h ****         memcpy(_MAV_PAYLOAD_NON_CONST(msg), buf, MAVLINK_MSG_ID_Para_GyroY_PID_LEN);
  85:Service/../MAVLink/common/./mavlink_msg_para_gyroy_pid.h **** #else
  86:Service/../MAVLink/common/./mavlink_msg_para_gyroy_pid.h ****     mavlink_para_gyroy_pid_t packet;
  87:Service/../MAVLink/common/./mavlink_msg_para_gyroy_pid.h ****     packet.gain_p = gain_p;
  88:Service/../MAVLink/common/./mavlink_msg_para_gyroy_pid.h ****     packet.p_diff_max = p_diff_max;
  89:Service/../MAVLink/common/./mavlink_msg_para_gyroy_pid.h ****     packet.p_diff_min = p_diff_min;
  90:Service/../MAVLink/common/./mavlink_msg_para_gyroy_pid.h ****     packet.gain_I = gain_I;
  91:Service/../MAVLink/common/./mavlink_msg_para_gyroy_pid.h ****     packet.I_Max = I_Max;
  92:Service/../MAVLink/common/./mavlink_msg_para_gyroy_pid.h ****     packet.I_Min = I_Min;
  93:Service/../MAVLink/common/./mavlink_msg_para_gyroy_pid.h ****     packet.gain_D = gain_D;
  94:Service/../MAVLink/common/./mavlink_msg_para_gyroy_pid.h **** 
  95:Service/../MAVLink/common/./mavlink_msg_para_gyroy_pid.h ****         memcpy(_MAV_PAYLOAD_NON_CONST(msg), &packet, MAVLINK_MSG_ID_Para_GyroY_PID_LEN);
  96:Service/../MAVLink/common/./mavlink_msg_para_gyroy_pid.h **** #endif
  97:Service/../MAVLink/common/./mavlink_msg_para_gyroy_pid.h **** 
  98:Service/../MAVLink/common/./mavlink_msg_para_gyroy_pid.h ****     msg->msgid = MAVLINK_MSG_ID_Para_GyroY_PID;
  99:Service/../MAVLink/common/./mavlink_msg_para_gyroy_pid.h ****     return mavlink_finalize_message(msg, system_id, component_id, MAVLINK_MSG_ID_Para_GyroY_PID_MIN
 100:Service/../MAVLink/common/./mavlink_msg_para_gyroy_pid.h **** }
 101:Service/../MAVLink/common/./mavlink_msg_para_gyroy_pid.h **** 
 102:Service/../MAVLink/common/./mavlink_msg_para_gyroy_pid.h **** /**
 103:Service/../MAVLink/common/./mavlink_msg_para_gyroy_pid.h ****  * @brief Pack a para_gyroy_pid message on a channel
 104:Service/../MAVLink/common/./mavlink_msg_para_gyroy_pid.h ****  * @param system_id ID of this system
 105:Service/../MAVLink/common/./mavlink_msg_para_gyroy_pid.h ****  * @param component_id ID of this component (e.g. 200 for IMU)
 106:Service/../MAVLink/common/./mavlink_msg_para_gyroy_pid.h ****  * @param chan The MAVLink channel this message will be sent over
ARM GAS  C:\Users\8bit\AppData\Local\Temp\ccCRhmZR.s 			page 88


 107:Service/../MAVLink/common/./mavlink_msg_para_gyroy_pid.h ****  * @param msg The MAVLink message to compress the data into
 108:Service/../MAVLink/common/./mavlink_msg_para_gyroy_pid.h ****  * @param gain_p   Gain P 
 109:Service/../MAVLink/common/./mavlink_msg_para_gyroy_pid.h ****  * @param p_diff_max   P Diff Max 
 110:Service/../MAVLink/common/./mavlink_msg_para_gyroy_pid.h ****  * @param p_diff_min   P Diff Min 
 111:Service/../MAVLink/common/./mavlink_msg_para_gyroy_pid.h ****  * @param gain_I   Gain I 
 112:Service/../MAVLink/common/./mavlink_msg_para_gyroy_pid.h ****  * @param I_Max   I Max 
 113:Service/../MAVLink/common/./mavlink_msg_para_gyroy_pid.h ****  * @param I_Min   I Min 
 114:Service/../MAVLink/common/./mavlink_msg_para_gyroy_pid.h ****  * @param gain_D   Gain D 
 115:Service/../MAVLink/common/./mavlink_msg_para_gyroy_pid.h ****  * @return length of the message in bytes (excluding serial stream start sign)
 116:Service/../MAVLink/common/./mavlink_msg_para_gyroy_pid.h ****  */
 117:Service/../MAVLink/common/./mavlink_msg_para_gyroy_pid.h **** static inline uint16_t mavlink_msg_para_gyroy_pid_pack_chan(uint8_t system_id, uint8_t component_id
 118:Service/../MAVLink/common/./mavlink_msg_para_gyroy_pid.h ****                                mavlink_message_t* msg,
 119:Service/../MAVLink/common/./mavlink_msg_para_gyroy_pid.h ****                                    float gain_p,float p_diff_max,float p_diff_min,float gain_I,floa
 120:Service/../MAVLink/common/./mavlink_msg_para_gyroy_pid.h **** {
 121:Service/../MAVLink/common/./mavlink_msg_para_gyroy_pid.h **** #if MAVLINK_NEED_BYTE_SWAP || !MAVLINK_ALIGNED_FIELDS
 122:Service/../MAVLink/common/./mavlink_msg_para_gyroy_pid.h ****     char buf[MAVLINK_MSG_ID_Para_GyroY_PID_LEN];
 123:Service/../MAVLink/common/./mavlink_msg_para_gyroy_pid.h ****     _mav_put_float(buf, 0, gain_p);
 124:Service/../MAVLink/common/./mavlink_msg_para_gyroy_pid.h ****     _mav_put_float(buf, 4, p_diff_max);
 125:Service/../MAVLink/common/./mavlink_msg_para_gyroy_pid.h ****     _mav_put_float(buf, 8, p_diff_min);
 126:Service/../MAVLink/common/./mavlink_msg_para_gyroy_pid.h ****     _mav_put_float(buf, 12, gain_I);
 127:Service/../MAVLink/common/./mavlink_msg_para_gyroy_pid.h ****     _mav_put_float(buf, 16, I_Max);
 128:Service/../MAVLink/common/./mavlink_msg_para_gyroy_pid.h ****     _mav_put_float(buf, 20, I_Min);
 129:Service/../MAVLink/common/./mavlink_msg_para_gyroy_pid.h ****     _mav_put_float(buf, 24, gain_D);
 130:Service/../MAVLink/common/./mavlink_msg_para_gyroy_pid.h **** 
 131:Service/../MAVLink/common/./mavlink_msg_para_gyroy_pid.h ****         memcpy(_MAV_PAYLOAD_NON_CONST(msg), buf, MAVLINK_MSG_ID_Para_GyroY_PID_LEN);
 132:Service/../MAVLink/common/./mavlink_msg_para_gyroy_pid.h **** #else
 133:Service/../MAVLink/common/./mavlink_msg_para_gyroy_pid.h ****     mavlink_para_gyroy_pid_t packet;
 134:Service/../MAVLink/common/./mavlink_msg_para_gyroy_pid.h ****     packet.gain_p = gain_p;
 135:Service/../MAVLink/common/./mavlink_msg_para_gyroy_pid.h ****     packet.p_diff_max = p_diff_max;
 136:Service/../MAVLink/common/./mavlink_msg_para_gyroy_pid.h ****     packet.p_diff_min = p_diff_min;
 137:Service/../MAVLink/common/./mavlink_msg_para_gyroy_pid.h ****     packet.gain_I = gain_I;
 138:Service/../MAVLink/common/./mavlink_msg_para_gyroy_pid.h ****     packet.I_Max = I_Max;
 139:Service/../MAVLink/common/./mavlink_msg_para_gyroy_pid.h ****     packet.I_Min = I_Min;
 140:Service/../MAVLink/common/./mavlink_msg_para_gyroy_pid.h ****     packet.gain_D = gain_D;
 141:Service/../MAVLink/common/./mavlink_msg_para_gyroy_pid.h **** 
 142:Service/../MAVLink/common/./mavlink_msg_para_gyroy_pid.h ****         memcpy(_MAV_PAYLOAD_NON_CONST(msg), &packet, MAVLINK_MSG_ID_Para_GyroY_PID_LEN);
 143:Service/../MAVLink/common/./mavlink_msg_para_gyroy_pid.h **** #endif
 144:Service/../MAVLink/common/./mavlink_msg_para_gyroy_pid.h **** 
 145:Service/../MAVLink/common/./mavlink_msg_para_gyroy_pid.h ****     msg->msgid = MAVLINK_MSG_ID_Para_GyroY_PID;
 146:Service/../MAVLink/common/./mavlink_msg_para_gyroy_pid.h ****     return mavlink_finalize_message_chan(msg, system_id, component_id, chan, MAVLINK_MSG_ID_Para_Gy
 147:Service/../MAVLink/common/./mavlink_msg_para_gyroy_pid.h **** }
 148:Service/../MAVLink/common/./mavlink_msg_para_gyroy_pid.h **** 
 149:Service/../MAVLink/common/./mavlink_msg_para_gyroy_pid.h **** /**
 150:Service/../MAVLink/common/./mavlink_msg_para_gyroy_pid.h ****  * @brief Encode a para_gyroy_pid struct
 151:Service/../MAVLink/common/./mavlink_msg_para_gyroy_pid.h ****  *
 152:Service/../MAVLink/common/./mavlink_msg_para_gyroy_pid.h ****  * @param system_id ID of this system
 153:Service/../MAVLink/common/./mavlink_msg_para_gyroy_pid.h ****  * @param component_id ID of this component (e.g. 200 for IMU)
 154:Service/../MAVLink/common/./mavlink_msg_para_gyroy_pid.h ****  * @param msg The MAVLink message to compress the data into
 155:Service/../MAVLink/common/./mavlink_msg_para_gyroy_pid.h ****  * @param para_gyroy_pid C-struct to read the message contents from
 156:Service/../MAVLink/common/./mavlink_msg_para_gyroy_pid.h ****  */
 157:Service/../MAVLink/common/./mavlink_msg_para_gyroy_pid.h **** static inline uint16_t mavlink_msg_para_gyroy_pid_encode(uint8_t system_id, uint8_t component_id, m
 158:Service/../MAVLink/common/./mavlink_msg_para_gyroy_pid.h **** {
 159:Service/../MAVLink/common/./mavlink_msg_para_gyroy_pid.h ****     return mavlink_msg_para_gyroy_pid_pack(system_id, component_id, msg, para_gyroy_pid->gain_p, pa
 160:Service/../MAVLink/common/./mavlink_msg_para_gyroy_pid.h **** }
 161:Service/../MAVLink/common/./mavlink_msg_para_gyroy_pid.h **** 
 162:Service/../MAVLink/common/./mavlink_msg_para_gyroy_pid.h **** /**
 163:Service/../MAVLink/common/./mavlink_msg_para_gyroy_pid.h ****  * @brief Encode a para_gyroy_pid struct on a channel
ARM GAS  C:\Users\8bit\AppData\Local\Temp\ccCRhmZR.s 			page 89


 164:Service/../MAVLink/common/./mavlink_msg_para_gyroy_pid.h ****  *
 165:Service/../MAVLink/common/./mavlink_msg_para_gyroy_pid.h ****  * @param system_id ID of this system
 166:Service/../MAVLink/common/./mavlink_msg_para_gyroy_pid.h ****  * @param component_id ID of this component (e.g. 200 for IMU)
 167:Service/../MAVLink/common/./mavlink_msg_para_gyroy_pid.h ****  * @param chan The MAVLink channel this message will be sent over
 168:Service/../MAVLink/common/./mavlink_msg_para_gyroy_pid.h ****  * @param msg The MAVLink message to compress the data into
 169:Service/../MAVLink/common/./mavlink_msg_para_gyroy_pid.h ****  * @param para_gyroy_pid C-struct to read the message contents from
 170:Service/../MAVLink/common/./mavlink_msg_para_gyroy_pid.h ****  */
 171:Service/../MAVLink/common/./mavlink_msg_para_gyroy_pid.h **** static inline uint16_t mavlink_msg_para_gyroy_pid_encode_chan(uint8_t system_id, uint8_t component_
 172:Service/../MAVLink/common/./mavlink_msg_para_gyroy_pid.h **** {
 173:Service/../MAVLink/common/./mavlink_msg_para_gyroy_pid.h ****     return mavlink_msg_para_gyroy_pid_pack_chan(system_id, component_id, chan, msg, para_gyroy_pid-
 174:Service/../MAVLink/common/./mavlink_msg_para_gyroy_pid.h **** }
 175:Service/../MAVLink/common/./mavlink_msg_para_gyroy_pid.h **** 
 176:Service/../MAVLink/common/./mavlink_msg_para_gyroy_pid.h **** /**
 177:Service/../MAVLink/common/./mavlink_msg_para_gyroy_pid.h ****  * @brief Send a para_gyroy_pid message
 178:Service/../MAVLink/common/./mavlink_msg_para_gyroy_pid.h ****  * @param chan MAVLink channel to send the message
 179:Service/../MAVLink/common/./mavlink_msg_para_gyroy_pid.h ****  *
 180:Service/../MAVLink/common/./mavlink_msg_para_gyroy_pid.h ****  * @param gain_p   Gain P 
 181:Service/../MAVLink/common/./mavlink_msg_para_gyroy_pid.h ****  * @param p_diff_max   P Diff Max 
 182:Service/../MAVLink/common/./mavlink_msg_para_gyroy_pid.h ****  * @param p_diff_min   P Diff Min 
 183:Service/../MAVLink/common/./mavlink_msg_para_gyroy_pid.h ****  * @param gain_I   Gain I 
 184:Service/../MAVLink/common/./mavlink_msg_para_gyroy_pid.h ****  * @param I_Max   I Max 
 185:Service/../MAVLink/common/./mavlink_msg_para_gyroy_pid.h ****  * @param I_Min   I Min 
 186:Service/../MAVLink/common/./mavlink_msg_para_gyroy_pid.h ****  * @param gain_D   Gain D 
 187:Service/../MAVLink/common/./mavlink_msg_para_gyroy_pid.h ****  */
 188:Service/../MAVLink/common/./mavlink_msg_para_gyroy_pid.h **** #ifdef MAVLINK_USE_CONVENIENCE_FUNCTIONS
 189:Service/../MAVLink/common/./mavlink_msg_para_gyroy_pid.h **** 
 190:Service/../MAVLink/common/./mavlink_msg_para_gyroy_pid.h **** static inline void mavlink_msg_para_gyroy_pid_send(mavlink_channel_t chan, float gain_p, float p_di
 191:Service/../MAVLink/common/./mavlink_msg_para_gyroy_pid.h **** {
 192:Service/../MAVLink/common/./mavlink_msg_para_gyroy_pid.h **** #if MAVLINK_NEED_BYTE_SWAP || !MAVLINK_ALIGNED_FIELDS
 193:Service/../MAVLink/common/./mavlink_msg_para_gyroy_pid.h ****     char buf[MAVLINK_MSG_ID_Para_GyroY_PID_LEN];
 194:Service/../MAVLink/common/./mavlink_msg_para_gyroy_pid.h ****     _mav_put_float(buf, 0, gain_p);
 195:Service/../MAVLink/common/./mavlink_msg_para_gyroy_pid.h ****     _mav_put_float(buf, 4, p_diff_max);
 196:Service/../MAVLink/common/./mavlink_msg_para_gyroy_pid.h ****     _mav_put_float(buf, 8, p_diff_min);
 197:Service/../MAVLink/common/./mavlink_msg_para_gyroy_pid.h ****     _mav_put_float(buf, 12, gain_I);
 198:Service/../MAVLink/common/./mavlink_msg_para_gyroy_pid.h ****     _mav_put_float(buf, 16, I_Max);
 199:Service/../MAVLink/common/./mavlink_msg_para_gyroy_pid.h ****     _mav_put_float(buf, 20, I_Min);
 200:Service/../MAVLink/common/./mavlink_msg_para_gyroy_pid.h ****     _mav_put_float(buf, 24, gain_D);
 201:Service/../MAVLink/common/./mavlink_msg_para_gyroy_pid.h **** 
 202:Service/../MAVLink/common/./mavlink_msg_para_gyroy_pid.h ****     _mav_finalize_message_chan_send(chan, MAVLINK_MSG_ID_Para_GyroY_PID, buf, MAVLINK_MSG_ID_Para_G
 203:Service/../MAVLink/common/./mavlink_msg_para_gyroy_pid.h **** #else
 204:Service/../MAVLink/common/./mavlink_msg_para_gyroy_pid.h ****     mavlink_para_gyroy_pid_t packet;
 205:Service/../MAVLink/common/./mavlink_msg_para_gyroy_pid.h ****     packet.gain_p = gain_p;
 206:Service/../MAVLink/common/./mavlink_msg_para_gyroy_pid.h ****     packet.p_diff_max = p_diff_max;
 207:Service/../MAVLink/common/./mavlink_msg_para_gyroy_pid.h ****     packet.p_diff_min = p_diff_min;
 208:Service/../MAVLink/common/./mavlink_msg_para_gyroy_pid.h ****     packet.gain_I = gain_I;
 209:Service/../MAVLink/common/./mavlink_msg_para_gyroy_pid.h ****     packet.I_Max = I_Max;
 210:Service/../MAVLink/common/./mavlink_msg_para_gyroy_pid.h ****     packet.I_Min = I_Min;
 211:Service/../MAVLink/common/./mavlink_msg_para_gyroy_pid.h ****     packet.gain_D = gain_D;
 212:Service/../MAVLink/common/./mavlink_msg_para_gyroy_pid.h **** 
 213:Service/../MAVLink/common/./mavlink_msg_para_gyroy_pid.h ****     _mav_finalize_message_chan_send(chan, MAVLINK_MSG_ID_Para_GyroY_PID, (const char *)&packet, MAV
 214:Service/../MAVLink/common/./mavlink_msg_para_gyroy_pid.h **** #endif
 215:Service/../MAVLink/common/./mavlink_msg_para_gyroy_pid.h **** }
 216:Service/../MAVLink/common/./mavlink_msg_para_gyroy_pid.h **** 
 217:Service/../MAVLink/common/./mavlink_msg_para_gyroy_pid.h **** /**
 218:Service/../MAVLink/common/./mavlink_msg_para_gyroy_pid.h ****  * @brief Send a para_gyroy_pid message
 219:Service/../MAVLink/common/./mavlink_msg_para_gyroy_pid.h ****  * @param chan MAVLink channel to send the message
 220:Service/../MAVLink/common/./mavlink_msg_para_gyroy_pid.h ****  * @param struct The MAVLink struct to serialize
ARM GAS  C:\Users\8bit\AppData\Local\Temp\ccCRhmZR.s 			page 90


 221:Service/../MAVLink/common/./mavlink_msg_para_gyroy_pid.h ****  */
 222:Service/../MAVLink/common/./mavlink_msg_para_gyroy_pid.h **** static inline void mavlink_msg_para_gyroy_pid_send_struct(mavlink_channel_t chan, const mavlink_par
 223:Service/../MAVLink/common/./mavlink_msg_para_gyroy_pid.h **** {
 224:Service/../MAVLink/common/./mavlink_msg_para_gyroy_pid.h **** #if MAVLINK_NEED_BYTE_SWAP || !MAVLINK_ALIGNED_FIELDS
 225:Service/../MAVLink/common/./mavlink_msg_para_gyroy_pid.h ****     mavlink_msg_para_gyroy_pid_send(chan, para_gyroy_pid->gain_p, para_gyroy_pid->p_diff_max, para_
 226:Service/../MAVLink/common/./mavlink_msg_para_gyroy_pid.h **** #else
 227:Service/../MAVLink/common/./mavlink_msg_para_gyroy_pid.h ****     _mav_finalize_message_chan_send(chan, MAVLINK_MSG_ID_Para_GyroY_PID, (const char *)para_gyroy_p
 228:Service/../MAVLink/common/./mavlink_msg_para_gyroy_pid.h **** #endif
 229:Service/../MAVLink/common/./mavlink_msg_para_gyroy_pid.h **** }
 230:Service/../MAVLink/common/./mavlink_msg_para_gyroy_pid.h **** 
 231:Service/../MAVLink/common/./mavlink_msg_para_gyroy_pid.h **** #if MAVLINK_MSG_ID_Para_GyroY_PID_LEN <= MAVLINK_MAX_PAYLOAD_LEN
 232:Service/../MAVLink/common/./mavlink_msg_para_gyroy_pid.h **** /*
 233:Service/../MAVLink/common/./mavlink_msg_para_gyroy_pid.h ****   This variant of _send() can be used to save stack space by re-using
 234:Service/../MAVLink/common/./mavlink_msg_para_gyroy_pid.h ****   memory from the receive buffer.  The caller provides a
 235:Service/../MAVLink/common/./mavlink_msg_para_gyroy_pid.h ****   mavlink_message_t which is the size of a full mavlink message. This
 236:Service/../MAVLink/common/./mavlink_msg_para_gyroy_pid.h ****   is usually the receive buffer for the channel, and allows a reply to an
 237:Service/../MAVLink/common/./mavlink_msg_para_gyroy_pid.h ****   incoming message with minimum stack space usage.
 238:Service/../MAVLink/common/./mavlink_msg_para_gyroy_pid.h ****  */
 239:Service/../MAVLink/common/./mavlink_msg_para_gyroy_pid.h **** static inline void mavlink_msg_para_gyroy_pid_send_buf(mavlink_message_t *msgbuf, mavlink_channel_t
 240:Service/../MAVLink/common/./mavlink_msg_para_gyroy_pid.h **** {
 241:Service/../MAVLink/common/./mavlink_msg_para_gyroy_pid.h **** #if MAVLINK_NEED_BYTE_SWAP || !MAVLINK_ALIGNED_FIELDS
 242:Service/../MAVLink/common/./mavlink_msg_para_gyroy_pid.h ****     char *buf = (char *)msgbuf;
 243:Service/../MAVLink/common/./mavlink_msg_para_gyroy_pid.h ****     _mav_put_float(buf, 0, gain_p);
 244:Service/../MAVLink/common/./mavlink_msg_para_gyroy_pid.h ****     _mav_put_float(buf, 4, p_diff_max);
 245:Service/../MAVLink/common/./mavlink_msg_para_gyroy_pid.h ****     _mav_put_float(buf, 8, p_diff_min);
 246:Service/../MAVLink/common/./mavlink_msg_para_gyroy_pid.h ****     _mav_put_float(buf, 12, gain_I);
 247:Service/../MAVLink/common/./mavlink_msg_para_gyroy_pid.h ****     _mav_put_float(buf, 16, I_Max);
 248:Service/../MAVLink/common/./mavlink_msg_para_gyroy_pid.h ****     _mav_put_float(buf, 20, I_Min);
 249:Service/../MAVLink/common/./mavlink_msg_para_gyroy_pid.h ****     _mav_put_float(buf, 24, gain_D);
 250:Service/../MAVLink/common/./mavlink_msg_para_gyroy_pid.h **** 
 251:Service/../MAVLink/common/./mavlink_msg_para_gyroy_pid.h ****     _mav_finalize_message_chan_send(chan, MAVLINK_MSG_ID_Para_GyroY_PID, buf, MAVLINK_MSG_ID_Para_G
 252:Service/../MAVLink/common/./mavlink_msg_para_gyroy_pid.h **** #else
 253:Service/../MAVLink/common/./mavlink_msg_para_gyroy_pid.h ****     mavlink_para_gyroy_pid_t *packet = (mavlink_para_gyroy_pid_t *)msgbuf;
 254:Service/../MAVLink/common/./mavlink_msg_para_gyroy_pid.h ****     packet->gain_p = gain_p;
 255:Service/../MAVLink/common/./mavlink_msg_para_gyroy_pid.h ****     packet->p_diff_max = p_diff_max;
 256:Service/../MAVLink/common/./mavlink_msg_para_gyroy_pid.h ****     packet->p_diff_min = p_diff_min;
 257:Service/../MAVLink/common/./mavlink_msg_para_gyroy_pid.h ****     packet->gain_I = gain_I;
 258:Service/../MAVLink/common/./mavlink_msg_para_gyroy_pid.h ****     packet->I_Max = I_Max;
 259:Service/../MAVLink/common/./mavlink_msg_para_gyroy_pid.h ****     packet->I_Min = I_Min;
 260:Service/../MAVLink/common/./mavlink_msg_para_gyroy_pid.h ****     packet->gain_D = gain_D;
 261:Service/../MAVLink/common/./mavlink_msg_para_gyroy_pid.h **** 
 262:Service/../MAVLink/common/./mavlink_msg_para_gyroy_pid.h ****     _mav_finalize_message_chan_send(chan, MAVLINK_MSG_ID_Para_GyroY_PID, (const char *)packet, MAVL
 263:Service/../MAVLink/common/./mavlink_msg_para_gyroy_pid.h **** #endif
 264:Service/../MAVLink/common/./mavlink_msg_para_gyroy_pid.h **** }
 265:Service/../MAVLink/common/./mavlink_msg_para_gyroy_pid.h **** #endif
 266:Service/../MAVLink/common/./mavlink_msg_para_gyroy_pid.h **** 
 267:Service/../MAVLink/common/./mavlink_msg_para_gyroy_pid.h **** #endif
 268:Service/../MAVLink/common/./mavlink_msg_para_gyroy_pid.h **** 
 269:Service/../MAVLink/common/./mavlink_msg_para_gyroy_pid.h **** // MESSAGE Para_GyroY_PID UNPACKING
 270:Service/../MAVLink/common/./mavlink_msg_para_gyroy_pid.h **** 
 271:Service/../MAVLink/common/./mavlink_msg_para_gyroy_pid.h **** 
 272:Service/../MAVLink/common/./mavlink_msg_para_gyroy_pid.h **** /**
 273:Service/../MAVLink/common/./mavlink_msg_para_gyroy_pid.h ****  * @brief Get field gain_p from para_gyroy_pid message
 274:Service/../MAVLink/common/./mavlink_msg_para_gyroy_pid.h ****  *
 275:Service/../MAVLink/common/./mavlink_msg_para_gyroy_pid.h ****  * @return   Gain P 
 276:Service/../MAVLink/common/./mavlink_msg_para_gyroy_pid.h ****  */
 277:Service/../MAVLink/common/./mavlink_msg_para_gyroy_pid.h **** static inline float mavlink_msg_para_gyroy_pid_get_gain_p(const mavlink_message_t* msg)
ARM GAS  C:\Users\8bit\AppData\Local\Temp\ccCRhmZR.s 			page 91


 278:Service/../MAVLink/common/./mavlink_msg_para_gyroy_pid.h **** {
 279:Service/../MAVLink/common/./mavlink_msg_para_gyroy_pid.h ****     return _MAV_RETURN_float(msg,  0);
 280:Service/../MAVLink/common/./mavlink_msg_para_gyroy_pid.h **** }
 281:Service/../MAVLink/common/./mavlink_msg_para_gyroy_pid.h **** 
 282:Service/../MAVLink/common/./mavlink_msg_para_gyroy_pid.h **** /**
 283:Service/../MAVLink/common/./mavlink_msg_para_gyroy_pid.h ****  * @brief Get field p_diff_max from para_gyroy_pid message
 284:Service/../MAVLink/common/./mavlink_msg_para_gyroy_pid.h ****  *
 285:Service/../MAVLink/common/./mavlink_msg_para_gyroy_pid.h ****  * @return   P Diff Max 
 286:Service/../MAVLink/common/./mavlink_msg_para_gyroy_pid.h ****  */
 287:Service/../MAVLink/common/./mavlink_msg_para_gyroy_pid.h **** static inline float mavlink_msg_para_gyroy_pid_get_p_diff_max(const mavlink_message_t* msg)
 288:Service/../MAVLink/common/./mavlink_msg_para_gyroy_pid.h **** {
 289:Service/../MAVLink/common/./mavlink_msg_para_gyroy_pid.h ****     return _MAV_RETURN_float(msg,  4);
 290:Service/../MAVLink/common/./mavlink_msg_para_gyroy_pid.h **** }
 291:Service/../MAVLink/common/./mavlink_msg_para_gyroy_pid.h **** 
 292:Service/../MAVLink/common/./mavlink_msg_para_gyroy_pid.h **** /**
 293:Service/../MAVLink/common/./mavlink_msg_para_gyroy_pid.h ****  * @brief Get field p_diff_min from para_gyroy_pid message
 294:Service/../MAVLink/common/./mavlink_msg_para_gyroy_pid.h ****  *
 295:Service/../MAVLink/common/./mavlink_msg_para_gyroy_pid.h ****  * @return   P Diff Min 
 296:Service/../MAVLink/common/./mavlink_msg_para_gyroy_pid.h ****  */
 297:Service/../MAVLink/common/./mavlink_msg_para_gyroy_pid.h **** static inline float mavlink_msg_para_gyroy_pid_get_p_diff_min(const mavlink_message_t* msg)
 298:Service/../MAVLink/common/./mavlink_msg_para_gyroy_pid.h **** {
 299:Service/../MAVLink/common/./mavlink_msg_para_gyroy_pid.h ****     return _MAV_RETURN_float(msg,  8);
 300:Service/../MAVLink/common/./mavlink_msg_para_gyroy_pid.h **** }
 301:Service/../MAVLink/common/./mavlink_msg_para_gyroy_pid.h **** 
 302:Service/../MAVLink/common/./mavlink_msg_para_gyroy_pid.h **** /**
 303:Service/../MAVLink/common/./mavlink_msg_para_gyroy_pid.h ****  * @brief Get field gain_I from para_gyroy_pid message
 304:Service/../MAVLink/common/./mavlink_msg_para_gyroy_pid.h ****  *
 305:Service/../MAVLink/common/./mavlink_msg_para_gyroy_pid.h ****  * @return   Gain I 
 306:Service/../MAVLink/common/./mavlink_msg_para_gyroy_pid.h ****  */
 307:Service/../MAVLink/common/./mavlink_msg_para_gyroy_pid.h **** static inline float mavlink_msg_para_gyroy_pid_get_gain_I(const mavlink_message_t* msg)
 308:Service/../MAVLink/common/./mavlink_msg_para_gyroy_pid.h **** {
 309:Service/../MAVLink/common/./mavlink_msg_para_gyroy_pid.h ****     return _MAV_RETURN_float(msg,  12);
 310:Service/../MAVLink/common/./mavlink_msg_para_gyroy_pid.h **** }
 311:Service/../MAVLink/common/./mavlink_msg_para_gyroy_pid.h **** 
 312:Service/../MAVLink/common/./mavlink_msg_para_gyroy_pid.h **** /**
 313:Service/../MAVLink/common/./mavlink_msg_para_gyroy_pid.h ****  * @brief Get field I_Max from para_gyroy_pid message
 314:Service/../MAVLink/common/./mavlink_msg_para_gyroy_pid.h ****  *
 315:Service/../MAVLink/common/./mavlink_msg_para_gyroy_pid.h ****  * @return   I Max 
 316:Service/../MAVLink/common/./mavlink_msg_para_gyroy_pid.h ****  */
 317:Service/../MAVLink/common/./mavlink_msg_para_gyroy_pid.h **** static inline float mavlink_msg_para_gyroy_pid_get_I_Max(const mavlink_message_t* msg)
 318:Service/../MAVLink/common/./mavlink_msg_para_gyroy_pid.h **** {
 319:Service/../MAVLink/common/./mavlink_msg_para_gyroy_pid.h ****     return _MAV_RETURN_float(msg,  16);
 320:Service/../MAVLink/common/./mavlink_msg_para_gyroy_pid.h **** }
 321:Service/../MAVLink/common/./mavlink_msg_para_gyroy_pid.h **** 
 322:Service/../MAVLink/common/./mavlink_msg_para_gyroy_pid.h **** /**
 323:Service/../MAVLink/common/./mavlink_msg_para_gyroy_pid.h ****  * @brief Get field I_Min from para_gyroy_pid message
 324:Service/../MAVLink/common/./mavlink_msg_para_gyroy_pid.h ****  *
 325:Service/../MAVLink/common/./mavlink_msg_para_gyroy_pid.h ****  * @return   I Min 
 326:Service/../MAVLink/common/./mavlink_msg_para_gyroy_pid.h ****  */
 327:Service/../MAVLink/common/./mavlink_msg_para_gyroy_pid.h **** static inline float mavlink_msg_para_gyroy_pid_get_I_Min(const mavlink_message_t* msg)
 328:Service/../MAVLink/common/./mavlink_msg_para_gyroy_pid.h **** {
 329:Service/../MAVLink/common/./mavlink_msg_para_gyroy_pid.h ****     return _MAV_RETURN_float(msg,  20);
 330:Service/../MAVLink/common/./mavlink_msg_para_gyroy_pid.h **** }
 331:Service/../MAVLink/common/./mavlink_msg_para_gyroy_pid.h **** 
 332:Service/../MAVLink/common/./mavlink_msg_para_gyroy_pid.h **** /**
 333:Service/../MAVLink/common/./mavlink_msg_para_gyroy_pid.h ****  * @brief Get field gain_D from para_gyroy_pid message
 334:Service/../MAVLink/common/./mavlink_msg_para_gyroy_pid.h ****  *
ARM GAS  C:\Users\8bit\AppData\Local\Temp\ccCRhmZR.s 			page 92


 335:Service/../MAVLink/common/./mavlink_msg_para_gyroy_pid.h ****  * @return   Gain D 
 336:Service/../MAVLink/common/./mavlink_msg_para_gyroy_pid.h ****  */
 337:Service/../MAVLink/common/./mavlink_msg_para_gyroy_pid.h **** static inline float mavlink_msg_para_gyroy_pid_get_gain_D(const mavlink_message_t* msg)
 338:Service/../MAVLink/common/./mavlink_msg_para_gyroy_pid.h **** {
 339:Service/../MAVLink/common/./mavlink_msg_para_gyroy_pid.h ****     return _MAV_RETURN_float(msg,  24);
 340:Service/../MAVLink/common/./mavlink_msg_para_gyroy_pid.h **** }
 341:Service/../MAVLink/common/./mavlink_msg_para_gyroy_pid.h **** 
 342:Service/../MAVLink/common/./mavlink_msg_para_gyroy_pid.h **** /**
 343:Service/../MAVLink/common/./mavlink_msg_para_gyroy_pid.h ****  * @brief Decode a para_gyroy_pid message into a struct
 344:Service/../MAVLink/common/./mavlink_msg_para_gyroy_pid.h ****  *
 345:Service/../MAVLink/common/./mavlink_msg_para_gyroy_pid.h ****  * @param msg The message to decode
 346:Service/../MAVLink/common/./mavlink_msg_para_gyroy_pid.h ****  * @param para_gyroy_pid C-struct to decode the message contents into
 347:Service/../MAVLink/common/./mavlink_msg_para_gyroy_pid.h ****  */
 348:Service/../MAVLink/common/./mavlink_msg_para_gyroy_pid.h **** static inline void mavlink_msg_para_gyroy_pid_decode(const mavlink_message_t* msg, mavlink_para_gyr
 1390              		.loc 9 348 20 view .LVU360
 1391              	.LBB72:
 349:Service/../MAVLink/common/./mavlink_msg_para_gyroy_pid.h **** {
 350:Service/../MAVLink/common/./mavlink_msg_para_gyroy_pid.h **** #if MAVLINK_NEED_BYTE_SWAP || !MAVLINK_ALIGNED_FIELDS
 351:Service/../MAVLink/common/./mavlink_msg_para_gyroy_pid.h ****     para_gyroy_pid->gain_p = mavlink_msg_para_gyroy_pid_get_gain_p(msg);
 352:Service/../MAVLink/common/./mavlink_msg_para_gyroy_pid.h ****     para_gyroy_pid->p_diff_max = mavlink_msg_para_gyroy_pid_get_p_diff_max(msg);
 353:Service/../MAVLink/common/./mavlink_msg_para_gyroy_pid.h ****     para_gyroy_pid->p_diff_min = mavlink_msg_para_gyroy_pid_get_p_diff_min(msg);
 354:Service/../MAVLink/common/./mavlink_msg_para_gyroy_pid.h ****     para_gyroy_pid->gain_I = mavlink_msg_para_gyroy_pid_get_gain_I(msg);
 355:Service/../MAVLink/common/./mavlink_msg_para_gyroy_pid.h ****     para_gyroy_pid->I_Max = mavlink_msg_para_gyroy_pid_get_I_Max(msg);
 356:Service/../MAVLink/common/./mavlink_msg_para_gyroy_pid.h ****     para_gyroy_pid->I_Min = mavlink_msg_para_gyroy_pid_get_I_Min(msg);
 357:Service/../MAVLink/common/./mavlink_msg_para_gyroy_pid.h ****     para_gyroy_pid->gain_D = mavlink_msg_para_gyroy_pid_get_gain_D(msg);
 358:Service/../MAVLink/common/./mavlink_msg_para_gyroy_pid.h **** #else
 359:Service/../MAVLink/common/./mavlink_msg_para_gyroy_pid.h ****         uint8_t len = msg->len < MAVLINK_MSG_ID_Para_GyroY_PID_LEN? msg->len : MAVLINK_MSG_ID_Para_
 1392              		.loc 9 359 9 view .LVU361
 1393              		.loc 9 359 26 is_stmt 0 view .LVU362
 1394 0028 9DF82F20 		ldrb	r2, [sp, #47]	@ zero_extendqisi2
 1395              	.LVL93:
 360:Service/../MAVLink/common/./mavlink_msg_para_gyroy_pid.h ****         memset(para_gyroy_pid, 0, MAVLINK_MSG_ID_Para_GyroY_PID_LEN);
 1396              		.loc 9 360 9 is_stmt 1 view .LVU363
 361:Service/../MAVLink/common/./mavlink_msg_para_gyroy_pid.h ****     memcpy(para_gyroy_pid, _MAV_PAYLOAD(msg), len);
 1397              		.loc 9 361 5 view .LVU364
 1398 002c 1C2A     		cmp	r2, #28
 1399 002e 28BF     		it	cs
 1400 0030 1C22     		movcs	r2, #28
 1401              	.LVL94:
 1402              		.loc 9 361 5 is_stmt 0 view .LVU365
 1403 0032 0DA9     		add	r1, sp, #52
 1404 0034 01A8     		add	r0, sp, #4
 1405 0036 FFF7FEFF 		bl	memcpy
 1406              	.LVL95:
 1407              		.loc 9 361 5 view .LVU366
 1408              	.LBE72:
 1409              	.LBE71:
 465:Service/Srv_ComProto.c ****     
 466:Service/Srv_ComProto.c ****         if (obj->MavMsg_PIDPara_GyroY_Callback)
 1410              		.loc 1 466 9 is_stmt 1 view .LVU367
 1411              		.loc 1 466 16 is_stmt 0 view .LVU368
 1412 003a E36F     		ldr	r3, [r4, #124]
 1413              		.loc 1 466 12 view .LVU369
 1414 003c 4BB1     		cbz	r3, .L84
 467:Service/Srv_ComProto.c ****             return obj->MavMsg_PIDPara_GyroY_Callback(&msg_pid_para_gyroy, obj->cus_p_pidpara_gyroy
 1415              		.loc 1 467 13 is_stmt 1 view .LVU370
 1416              		.loc 1 467 20 is_stmt 0 view .LVU371
ARM GAS  C:\Users\8bit\AppData\Local\Temp\ccCRhmZR.s 			page 93


 1417 003e 216A     		ldr	r1, [r4, #32]
 1418 0040 01A8     		add	r0, sp, #4
 1419 0042 9847     		blx	r3
 1420              	.LVL96:
 1421 0044 00E0     		b	.L82
 1422              	.LVL97:
 1423              	.L83:
 468:Service/Srv_ComProto.c ****     }
 469:Service/Srv_ComProto.c **** 
 470:Service/Srv_ComProto.c ****     return false;
 1424              		.loc 1 470 12 view .LVU372
 1425 0046 0020     		movs	r0, #0
 1426              	.LVL98:
 1427              	.L82:
 471:Service/Srv_ComProto.c **** }
 1428              		.loc 1 471 1 view .LVU373
 1429 0048 08B0     		add	sp, sp, #32
 1430              	.LCFI52:
 1431              		.cfi_remember_state
 1432              		.cfi_def_cfa_offset 24
 1433              		@ sp needed
 1434 004a BDE81040 		pop	{r4, lr}
 1435              	.LCFI53:
 1436              		.cfi_restore 14
 1437              		.cfi_restore 4
 1438              		.cfi_def_cfa_offset 16
 1439 004e 04B0     		add	sp, sp, #16
 1440              	.LCFI54:
 1441              		.cfi_def_cfa_offset 0
 1442 0050 7047     		bx	lr
 1443              	.LVL99:
 1444              	.L84:
 1445              	.LCFI55:
 1446              		.cfi_restore_state
 470:Service/Srv_ComProto.c **** }
 1447              		.loc 1 470 12 view .LVU374
 1448 0052 0020     		movs	r0, #0
 1449 0054 F8E7     		b	.L82
 1450              		.cfi_endproc
 1451              	.LFE2093:
 1453              		.section	.text.SrvComProto_MavMsg_Decode_PIDPara_GyroZ,"ax",%progbits
 1454              		.align	1
 1455              		.syntax unified
 1456              		.thumb
 1457              		.thumb_func
 1459              	SrvComProto_MavMsg_Decode_PIDPara_GyroZ:
 1460              	.LVL100:
 1461              	.LFB2094:
 472:Service/Srv_ComProto.c **** 
 473:Service/Srv_ComProto.c **** static bool SrvComProto_MavMsg_Decode_PIDPara_GyroZ(SrvComProto_MsgObj_TypeDef *obj, const mavlink_
 474:Service/Srv_ComProto.c **** {
 1462              		.loc 1 474 1 is_stmt 1 view -0
 1463              		.cfi_startproc
 1464              		@ args = 276, pretend = 16, frame = 32
 1465              		@ frame_needed = 0, uses_anonymous_args = 0
 1466              		.loc 1 474 1 is_stmt 0 view .LVU376
 1467 0000 84B0     		sub	sp, sp, #16
ARM GAS  C:\Users\8bit\AppData\Local\Temp\ccCRhmZR.s 			page 94


 1468              	.LCFI56:
 1469              		.cfi_def_cfa_offset 16
 1470 0002 10B5     		push	{r4, lr}
 1471              	.LCFI57:
 1472              		.cfi_def_cfa_offset 24
 1473              		.cfi_offset 4, -24
 1474              		.cfi_offset 14, -20
 1475 0004 88B0     		sub	sp, sp, #32
 1476              	.LCFI58:
 1477              		.cfi_def_cfa_offset 56
 1478 0006 0DF12C0C 		add	ip, sp, #44
 1479 000a 8CE80E00 		stm	ip, {r1, r2, r3}
 475:Service/Srv_ComProto.c ****     mavlink_para_gyroz_pid_t msg_pid_para_gyroz;
 1480              		.loc 1 475 5 is_stmt 1 view .LVU377
 476:Service/Srv_ComProto.c ****     
 477:Service/Srv_ComProto.c ****     if (obj)
 1481              		.loc 1 477 5 view .LVU378
 1482              		.loc 1 477 8 is_stmt 0 view .LVU379
 1483 000e D8B1     		cbz	r0, .L88
 1484 0010 0446     		mov	r4, r0
 478:Service/Srv_ComProto.c ****     {
 479:Service/Srv_ComProto.c ****         obj->PID_Para_GyrZ_Cnt ++;
 1485              		.loc 1 479 9 is_stmt 1 view .LVU380
 1486              		.loc 1 479 12 is_stmt 0 view .LVU381
 1487 0012 436D     		ldr	r3, [r0, #84]
 1488              		.loc 1 479 32 view .LVU382
 1489 0014 0133     		adds	r3, r3, #1
 1490 0016 4365     		str	r3, [r0, #84]
 480:Service/Srv_ComProto.c **** 
 481:Service/Srv_ComProto.c ****         memset(&msg_pid_para_gyroz, 0, sizeof(mavlink_para_gyroz_pid_t));
 1491              		.loc 1 481 9 is_stmt 1 view .LVU383
 1492 0018 0023     		movs	r3, #0
 1493 001a 0193     		str	r3, [sp, #4]
 1494 001c 0293     		str	r3, [sp, #8]
 1495 001e 0393     		str	r3, [sp, #12]
 1496 0020 0493     		str	r3, [sp, #16]
 1497 0022 0593     		str	r3, [sp, #20]
 1498 0024 0693     		str	r3, [sp, #24]
 1499 0026 0793     		str	r3, [sp, #28]
 482:Service/Srv_ComProto.c ****         mavlink_msg_para_gyroz_pid_decode(&msg, &msg_pid_para_gyroz);
 1500              		.loc 1 482 9 view .LVU384
 1501              	.LVL101:
 1502              	.LBB75:
 1503              	.LBI75:
 1504              		.file 10 "Service/../MAVLink/common/./mavlink_msg_para_gyroz_pid.h"
   1:Service/../MAVLink/common/./mavlink_msg_para_gyroz_pid.h **** #pragma once
   2:Service/../MAVLink/common/./mavlink_msg_para_gyroz_pid.h **** // MESSAGE Para_GyroZ_PID PACKING
   3:Service/../MAVLink/common/./mavlink_msg_para_gyroz_pid.h **** 
   4:Service/../MAVLink/common/./mavlink_msg_para_gyroz_pid.h **** #define MAVLINK_MSG_ID_Para_GyroZ_PID 217
   5:Service/../MAVLink/common/./mavlink_msg_para_gyroz_pid.h **** 
   6:Service/../MAVLink/common/./mavlink_msg_para_gyroz_pid.h **** 
   7:Service/../MAVLink/common/./mavlink_msg_para_gyroz_pid.h **** typedef struct __mavlink_para_gyroz_pid_t {
   8:Service/../MAVLink/common/./mavlink_msg_para_gyroz_pid.h ****  float gain_p; /*<   Gain P */
   9:Service/../MAVLink/common/./mavlink_msg_para_gyroz_pid.h ****  float p_diff_max; /*<   P Diff Max */
  10:Service/../MAVLink/common/./mavlink_msg_para_gyroz_pid.h ****  float p_diff_min; /*<   P Diff Min */
  11:Service/../MAVLink/common/./mavlink_msg_para_gyroz_pid.h ****  float gain_I; /*<   Gain I */
  12:Service/../MAVLink/common/./mavlink_msg_para_gyroz_pid.h ****  float I_Max; /*<   I Max */
ARM GAS  C:\Users\8bit\AppData\Local\Temp\ccCRhmZR.s 			page 95


  13:Service/../MAVLink/common/./mavlink_msg_para_gyroz_pid.h ****  float I_Min; /*<   I Min */
  14:Service/../MAVLink/common/./mavlink_msg_para_gyroz_pid.h ****  float gain_D; /*<   Gain D */
  15:Service/../MAVLink/common/./mavlink_msg_para_gyroz_pid.h **** } mavlink_para_gyroz_pid_t;
  16:Service/../MAVLink/common/./mavlink_msg_para_gyroz_pid.h **** 
  17:Service/../MAVLink/common/./mavlink_msg_para_gyroz_pid.h **** #define MAVLINK_MSG_ID_Para_GyroZ_PID_LEN 28
  18:Service/../MAVLink/common/./mavlink_msg_para_gyroz_pid.h **** #define MAVLINK_MSG_ID_Para_GyroZ_PID_MIN_LEN 28
  19:Service/../MAVLink/common/./mavlink_msg_para_gyroz_pid.h **** #define MAVLINK_MSG_ID_217_LEN 28
  20:Service/../MAVLink/common/./mavlink_msg_para_gyroz_pid.h **** #define MAVLINK_MSG_ID_217_MIN_LEN 28
  21:Service/../MAVLink/common/./mavlink_msg_para_gyroz_pid.h **** 
  22:Service/../MAVLink/common/./mavlink_msg_para_gyroz_pid.h **** #define MAVLINK_MSG_ID_Para_GyroZ_PID_CRC 133
  23:Service/../MAVLink/common/./mavlink_msg_para_gyroz_pid.h **** #define MAVLINK_MSG_ID_217_CRC 133
  24:Service/../MAVLink/common/./mavlink_msg_para_gyroz_pid.h **** 
  25:Service/../MAVLink/common/./mavlink_msg_para_gyroz_pid.h **** 
  26:Service/../MAVLink/common/./mavlink_msg_para_gyroz_pid.h **** 
  27:Service/../MAVLink/common/./mavlink_msg_para_gyroz_pid.h **** #if MAVLINK_COMMAND_24BIT
  28:Service/../MAVLink/common/./mavlink_msg_para_gyroz_pid.h **** #define MAVLINK_MESSAGE_INFO_Para_GyroZ_PID { \
  29:Service/../MAVLink/common/./mavlink_msg_para_gyroz_pid.h ****     217, \
  30:Service/../MAVLink/common/./mavlink_msg_para_gyroz_pid.h ****     "Para_GyroZ_PID", \
  31:Service/../MAVLink/common/./mavlink_msg_para_gyroz_pid.h ****     7, \
  32:Service/../MAVLink/common/./mavlink_msg_para_gyroz_pid.h ****     {  { "gain_p", NULL, MAVLINK_TYPE_FLOAT, 0, 0, offsetof(mavlink_para_gyroz_pid_t, gain_p) }, \
  33:Service/../MAVLink/common/./mavlink_msg_para_gyroz_pid.h ****          { "p_diff_max", NULL, MAVLINK_TYPE_FLOAT, 0, 4, offsetof(mavlink_para_gyroz_pid_t, p_diff_
  34:Service/../MAVLink/common/./mavlink_msg_para_gyroz_pid.h ****          { "p_diff_min", NULL, MAVLINK_TYPE_FLOAT, 0, 8, offsetof(mavlink_para_gyroz_pid_t, p_diff_
  35:Service/../MAVLink/common/./mavlink_msg_para_gyroz_pid.h ****          { "gain_I", NULL, MAVLINK_TYPE_FLOAT, 0, 12, offsetof(mavlink_para_gyroz_pid_t, gain_I) },
  36:Service/../MAVLink/common/./mavlink_msg_para_gyroz_pid.h ****          { "I_Max", NULL, MAVLINK_TYPE_FLOAT, 0, 16, offsetof(mavlink_para_gyroz_pid_t, I_Max) }, \
  37:Service/../MAVLink/common/./mavlink_msg_para_gyroz_pid.h ****          { "I_Min", NULL, MAVLINK_TYPE_FLOAT, 0, 20, offsetof(mavlink_para_gyroz_pid_t, I_Min) }, \
  38:Service/../MAVLink/common/./mavlink_msg_para_gyroz_pid.h ****          { "gain_D", NULL, MAVLINK_TYPE_FLOAT, 0, 24, offsetof(mavlink_para_gyroz_pid_t, gain_D) },
  39:Service/../MAVLink/common/./mavlink_msg_para_gyroz_pid.h ****          } \
  40:Service/../MAVLink/common/./mavlink_msg_para_gyroz_pid.h **** }
  41:Service/../MAVLink/common/./mavlink_msg_para_gyroz_pid.h **** #else
  42:Service/../MAVLink/common/./mavlink_msg_para_gyroz_pid.h **** #define MAVLINK_MESSAGE_INFO_Para_GyroZ_PID { \
  43:Service/../MAVLink/common/./mavlink_msg_para_gyroz_pid.h ****     "Para_GyroZ_PID", \
  44:Service/../MAVLink/common/./mavlink_msg_para_gyroz_pid.h ****     7, \
  45:Service/../MAVLink/common/./mavlink_msg_para_gyroz_pid.h ****     {  { "gain_p", NULL, MAVLINK_TYPE_FLOAT, 0, 0, offsetof(mavlink_para_gyroz_pid_t, gain_p) }, \
  46:Service/../MAVLink/common/./mavlink_msg_para_gyroz_pid.h ****          { "p_diff_max", NULL, MAVLINK_TYPE_FLOAT, 0, 4, offsetof(mavlink_para_gyroz_pid_t, p_diff_
  47:Service/../MAVLink/common/./mavlink_msg_para_gyroz_pid.h ****          { "p_diff_min", NULL, MAVLINK_TYPE_FLOAT, 0, 8, offsetof(mavlink_para_gyroz_pid_t, p_diff_
  48:Service/../MAVLink/common/./mavlink_msg_para_gyroz_pid.h ****          { "gain_I", NULL, MAVLINK_TYPE_FLOAT, 0, 12, offsetof(mavlink_para_gyroz_pid_t, gain_I) },
  49:Service/../MAVLink/common/./mavlink_msg_para_gyroz_pid.h ****          { "I_Max", NULL, MAVLINK_TYPE_FLOAT, 0, 16, offsetof(mavlink_para_gyroz_pid_t, I_Max) }, \
  50:Service/../MAVLink/common/./mavlink_msg_para_gyroz_pid.h ****          { "I_Min", NULL, MAVLINK_TYPE_FLOAT, 0, 20, offsetof(mavlink_para_gyroz_pid_t, I_Min) }, \
  51:Service/../MAVLink/common/./mavlink_msg_para_gyroz_pid.h ****          { "gain_D", NULL, MAVLINK_TYPE_FLOAT, 0, 24, offsetof(mavlink_para_gyroz_pid_t, gain_D) },
  52:Service/../MAVLink/common/./mavlink_msg_para_gyroz_pid.h ****          } \
  53:Service/../MAVLink/common/./mavlink_msg_para_gyroz_pid.h **** }
  54:Service/../MAVLink/common/./mavlink_msg_para_gyroz_pid.h **** #endif
  55:Service/../MAVLink/common/./mavlink_msg_para_gyroz_pid.h **** 
  56:Service/../MAVLink/common/./mavlink_msg_para_gyroz_pid.h **** /**
  57:Service/../MAVLink/common/./mavlink_msg_para_gyroz_pid.h ****  * @brief Pack a para_gyroz_pid message
  58:Service/../MAVLink/common/./mavlink_msg_para_gyroz_pid.h ****  * @param system_id ID of this system
  59:Service/../MAVLink/common/./mavlink_msg_para_gyroz_pid.h ****  * @param component_id ID of this component (e.g. 200 for IMU)
  60:Service/../MAVLink/common/./mavlink_msg_para_gyroz_pid.h ****  * @param msg The MAVLink message to compress the data into
  61:Service/../MAVLink/common/./mavlink_msg_para_gyroz_pid.h ****  *
  62:Service/../MAVLink/common/./mavlink_msg_para_gyroz_pid.h ****  * @param gain_p   Gain P 
  63:Service/../MAVLink/common/./mavlink_msg_para_gyroz_pid.h ****  * @param p_diff_max   P Diff Max 
  64:Service/../MAVLink/common/./mavlink_msg_para_gyroz_pid.h ****  * @param p_diff_min   P Diff Min 
  65:Service/../MAVLink/common/./mavlink_msg_para_gyroz_pid.h ****  * @param gain_I   Gain I 
  66:Service/../MAVLink/common/./mavlink_msg_para_gyroz_pid.h ****  * @param I_Max   I Max 
  67:Service/../MAVLink/common/./mavlink_msg_para_gyroz_pid.h ****  * @param I_Min   I Min 
  68:Service/../MAVLink/common/./mavlink_msg_para_gyroz_pid.h ****  * @param gain_D   Gain D 
  69:Service/../MAVLink/common/./mavlink_msg_para_gyroz_pid.h ****  * @return length of the message in bytes (excluding serial stream start sign)
ARM GAS  C:\Users\8bit\AppData\Local\Temp\ccCRhmZR.s 			page 96


  70:Service/../MAVLink/common/./mavlink_msg_para_gyroz_pid.h ****  */
  71:Service/../MAVLink/common/./mavlink_msg_para_gyroz_pid.h **** static inline uint16_t mavlink_msg_para_gyroz_pid_pack(uint8_t system_id, uint8_t component_id, mav
  72:Service/../MAVLink/common/./mavlink_msg_para_gyroz_pid.h ****                                float gain_p, float p_diff_max, float p_diff_min, float gain_I, floa
  73:Service/../MAVLink/common/./mavlink_msg_para_gyroz_pid.h **** {
  74:Service/../MAVLink/common/./mavlink_msg_para_gyroz_pid.h **** #if MAVLINK_NEED_BYTE_SWAP || !MAVLINK_ALIGNED_FIELDS
  75:Service/../MAVLink/common/./mavlink_msg_para_gyroz_pid.h ****     char buf[MAVLINK_MSG_ID_Para_GyroZ_PID_LEN];
  76:Service/../MAVLink/common/./mavlink_msg_para_gyroz_pid.h ****     _mav_put_float(buf, 0, gain_p);
  77:Service/../MAVLink/common/./mavlink_msg_para_gyroz_pid.h ****     _mav_put_float(buf, 4, p_diff_max);
  78:Service/../MAVLink/common/./mavlink_msg_para_gyroz_pid.h ****     _mav_put_float(buf, 8, p_diff_min);
  79:Service/../MAVLink/common/./mavlink_msg_para_gyroz_pid.h ****     _mav_put_float(buf, 12, gain_I);
  80:Service/../MAVLink/common/./mavlink_msg_para_gyroz_pid.h ****     _mav_put_float(buf, 16, I_Max);
  81:Service/../MAVLink/common/./mavlink_msg_para_gyroz_pid.h ****     _mav_put_float(buf, 20, I_Min);
  82:Service/../MAVLink/common/./mavlink_msg_para_gyroz_pid.h ****     _mav_put_float(buf, 24, gain_D);
  83:Service/../MAVLink/common/./mavlink_msg_para_gyroz_pid.h **** 
  84:Service/../MAVLink/common/./mavlink_msg_para_gyroz_pid.h ****         memcpy(_MAV_PAYLOAD_NON_CONST(msg), buf, MAVLINK_MSG_ID_Para_GyroZ_PID_LEN);
  85:Service/../MAVLink/common/./mavlink_msg_para_gyroz_pid.h **** #else
  86:Service/../MAVLink/common/./mavlink_msg_para_gyroz_pid.h ****     mavlink_para_gyroz_pid_t packet;
  87:Service/../MAVLink/common/./mavlink_msg_para_gyroz_pid.h ****     packet.gain_p = gain_p;
  88:Service/../MAVLink/common/./mavlink_msg_para_gyroz_pid.h ****     packet.p_diff_max = p_diff_max;
  89:Service/../MAVLink/common/./mavlink_msg_para_gyroz_pid.h ****     packet.p_diff_min = p_diff_min;
  90:Service/../MAVLink/common/./mavlink_msg_para_gyroz_pid.h ****     packet.gain_I = gain_I;
  91:Service/../MAVLink/common/./mavlink_msg_para_gyroz_pid.h ****     packet.I_Max = I_Max;
  92:Service/../MAVLink/common/./mavlink_msg_para_gyroz_pid.h ****     packet.I_Min = I_Min;
  93:Service/../MAVLink/common/./mavlink_msg_para_gyroz_pid.h ****     packet.gain_D = gain_D;
  94:Service/../MAVLink/common/./mavlink_msg_para_gyroz_pid.h **** 
  95:Service/../MAVLink/common/./mavlink_msg_para_gyroz_pid.h ****         memcpy(_MAV_PAYLOAD_NON_CONST(msg), &packet, MAVLINK_MSG_ID_Para_GyroZ_PID_LEN);
  96:Service/../MAVLink/common/./mavlink_msg_para_gyroz_pid.h **** #endif
  97:Service/../MAVLink/common/./mavlink_msg_para_gyroz_pid.h **** 
  98:Service/../MAVLink/common/./mavlink_msg_para_gyroz_pid.h ****     msg->msgid = MAVLINK_MSG_ID_Para_GyroZ_PID;
  99:Service/../MAVLink/common/./mavlink_msg_para_gyroz_pid.h ****     return mavlink_finalize_message(msg, system_id, component_id, MAVLINK_MSG_ID_Para_GyroZ_PID_MIN
 100:Service/../MAVLink/common/./mavlink_msg_para_gyroz_pid.h **** }
 101:Service/../MAVLink/common/./mavlink_msg_para_gyroz_pid.h **** 
 102:Service/../MAVLink/common/./mavlink_msg_para_gyroz_pid.h **** /**
 103:Service/../MAVLink/common/./mavlink_msg_para_gyroz_pid.h ****  * @brief Pack a para_gyroz_pid message on a channel
 104:Service/../MAVLink/common/./mavlink_msg_para_gyroz_pid.h ****  * @param system_id ID of this system
 105:Service/../MAVLink/common/./mavlink_msg_para_gyroz_pid.h ****  * @param component_id ID of this component (e.g. 200 for IMU)
 106:Service/../MAVLink/common/./mavlink_msg_para_gyroz_pid.h ****  * @param chan The MAVLink channel this message will be sent over
 107:Service/../MAVLink/common/./mavlink_msg_para_gyroz_pid.h ****  * @param msg The MAVLink message to compress the data into
 108:Service/../MAVLink/common/./mavlink_msg_para_gyroz_pid.h ****  * @param gain_p   Gain P 
 109:Service/../MAVLink/common/./mavlink_msg_para_gyroz_pid.h ****  * @param p_diff_max   P Diff Max 
 110:Service/../MAVLink/common/./mavlink_msg_para_gyroz_pid.h ****  * @param p_diff_min   P Diff Min 
 111:Service/../MAVLink/common/./mavlink_msg_para_gyroz_pid.h ****  * @param gain_I   Gain I 
 112:Service/../MAVLink/common/./mavlink_msg_para_gyroz_pid.h ****  * @param I_Max   I Max 
 113:Service/../MAVLink/common/./mavlink_msg_para_gyroz_pid.h ****  * @param I_Min   I Min 
 114:Service/../MAVLink/common/./mavlink_msg_para_gyroz_pid.h ****  * @param gain_D   Gain D 
 115:Service/../MAVLink/common/./mavlink_msg_para_gyroz_pid.h ****  * @return length of the message in bytes (excluding serial stream start sign)
 116:Service/../MAVLink/common/./mavlink_msg_para_gyroz_pid.h ****  */
 117:Service/../MAVLink/common/./mavlink_msg_para_gyroz_pid.h **** static inline uint16_t mavlink_msg_para_gyroz_pid_pack_chan(uint8_t system_id, uint8_t component_id
 118:Service/../MAVLink/common/./mavlink_msg_para_gyroz_pid.h ****                                mavlink_message_t* msg,
 119:Service/../MAVLink/common/./mavlink_msg_para_gyroz_pid.h ****                                    float gain_p,float p_diff_max,float p_diff_min,float gain_I,floa
 120:Service/../MAVLink/common/./mavlink_msg_para_gyroz_pid.h **** {
 121:Service/../MAVLink/common/./mavlink_msg_para_gyroz_pid.h **** #if MAVLINK_NEED_BYTE_SWAP || !MAVLINK_ALIGNED_FIELDS
 122:Service/../MAVLink/common/./mavlink_msg_para_gyroz_pid.h ****     char buf[MAVLINK_MSG_ID_Para_GyroZ_PID_LEN];
 123:Service/../MAVLink/common/./mavlink_msg_para_gyroz_pid.h ****     _mav_put_float(buf, 0, gain_p);
 124:Service/../MAVLink/common/./mavlink_msg_para_gyroz_pid.h ****     _mav_put_float(buf, 4, p_diff_max);
 125:Service/../MAVLink/common/./mavlink_msg_para_gyroz_pid.h ****     _mav_put_float(buf, 8, p_diff_min);
 126:Service/../MAVLink/common/./mavlink_msg_para_gyroz_pid.h ****     _mav_put_float(buf, 12, gain_I);
ARM GAS  C:\Users\8bit\AppData\Local\Temp\ccCRhmZR.s 			page 97


 127:Service/../MAVLink/common/./mavlink_msg_para_gyroz_pid.h ****     _mav_put_float(buf, 16, I_Max);
 128:Service/../MAVLink/common/./mavlink_msg_para_gyroz_pid.h ****     _mav_put_float(buf, 20, I_Min);
 129:Service/../MAVLink/common/./mavlink_msg_para_gyroz_pid.h ****     _mav_put_float(buf, 24, gain_D);
 130:Service/../MAVLink/common/./mavlink_msg_para_gyroz_pid.h **** 
 131:Service/../MAVLink/common/./mavlink_msg_para_gyroz_pid.h ****         memcpy(_MAV_PAYLOAD_NON_CONST(msg), buf, MAVLINK_MSG_ID_Para_GyroZ_PID_LEN);
 132:Service/../MAVLink/common/./mavlink_msg_para_gyroz_pid.h **** #else
 133:Service/../MAVLink/common/./mavlink_msg_para_gyroz_pid.h ****     mavlink_para_gyroz_pid_t packet;
 134:Service/../MAVLink/common/./mavlink_msg_para_gyroz_pid.h ****     packet.gain_p = gain_p;
 135:Service/../MAVLink/common/./mavlink_msg_para_gyroz_pid.h ****     packet.p_diff_max = p_diff_max;
 136:Service/../MAVLink/common/./mavlink_msg_para_gyroz_pid.h ****     packet.p_diff_min = p_diff_min;
 137:Service/../MAVLink/common/./mavlink_msg_para_gyroz_pid.h ****     packet.gain_I = gain_I;
 138:Service/../MAVLink/common/./mavlink_msg_para_gyroz_pid.h ****     packet.I_Max = I_Max;
 139:Service/../MAVLink/common/./mavlink_msg_para_gyroz_pid.h ****     packet.I_Min = I_Min;
 140:Service/../MAVLink/common/./mavlink_msg_para_gyroz_pid.h ****     packet.gain_D = gain_D;
 141:Service/../MAVLink/common/./mavlink_msg_para_gyroz_pid.h **** 
 142:Service/../MAVLink/common/./mavlink_msg_para_gyroz_pid.h ****         memcpy(_MAV_PAYLOAD_NON_CONST(msg), &packet, MAVLINK_MSG_ID_Para_GyroZ_PID_LEN);
 143:Service/../MAVLink/common/./mavlink_msg_para_gyroz_pid.h **** #endif
 144:Service/../MAVLink/common/./mavlink_msg_para_gyroz_pid.h **** 
 145:Service/../MAVLink/common/./mavlink_msg_para_gyroz_pid.h ****     msg->msgid = MAVLINK_MSG_ID_Para_GyroZ_PID;
 146:Service/../MAVLink/common/./mavlink_msg_para_gyroz_pid.h ****     return mavlink_finalize_message_chan(msg, system_id, component_id, chan, MAVLINK_MSG_ID_Para_Gy
 147:Service/../MAVLink/common/./mavlink_msg_para_gyroz_pid.h **** }
 148:Service/../MAVLink/common/./mavlink_msg_para_gyroz_pid.h **** 
 149:Service/../MAVLink/common/./mavlink_msg_para_gyroz_pid.h **** /**
 150:Service/../MAVLink/common/./mavlink_msg_para_gyroz_pid.h ****  * @brief Encode a para_gyroz_pid struct
 151:Service/../MAVLink/common/./mavlink_msg_para_gyroz_pid.h ****  *
 152:Service/../MAVLink/common/./mavlink_msg_para_gyroz_pid.h ****  * @param system_id ID of this system
 153:Service/../MAVLink/common/./mavlink_msg_para_gyroz_pid.h ****  * @param component_id ID of this component (e.g. 200 for IMU)
 154:Service/../MAVLink/common/./mavlink_msg_para_gyroz_pid.h ****  * @param msg The MAVLink message to compress the data into
 155:Service/../MAVLink/common/./mavlink_msg_para_gyroz_pid.h ****  * @param para_gyroz_pid C-struct to read the message contents from
 156:Service/../MAVLink/common/./mavlink_msg_para_gyroz_pid.h ****  */
 157:Service/../MAVLink/common/./mavlink_msg_para_gyroz_pid.h **** static inline uint16_t mavlink_msg_para_gyroz_pid_encode(uint8_t system_id, uint8_t component_id, m
 158:Service/../MAVLink/common/./mavlink_msg_para_gyroz_pid.h **** {
 159:Service/../MAVLink/common/./mavlink_msg_para_gyroz_pid.h ****     return mavlink_msg_para_gyroz_pid_pack(system_id, component_id, msg, para_gyroz_pid->gain_p, pa
 160:Service/../MAVLink/common/./mavlink_msg_para_gyroz_pid.h **** }
 161:Service/../MAVLink/common/./mavlink_msg_para_gyroz_pid.h **** 
 162:Service/../MAVLink/common/./mavlink_msg_para_gyroz_pid.h **** /**
 163:Service/../MAVLink/common/./mavlink_msg_para_gyroz_pid.h ****  * @brief Encode a para_gyroz_pid struct on a channel
 164:Service/../MAVLink/common/./mavlink_msg_para_gyroz_pid.h ****  *
 165:Service/../MAVLink/common/./mavlink_msg_para_gyroz_pid.h ****  * @param system_id ID of this system
 166:Service/../MAVLink/common/./mavlink_msg_para_gyroz_pid.h ****  * @param component_id ID of this component (e.g. 200 for IMU)
 167:Service/../MAVLink/common/./mavlink_msg_para_gyroz_pid.h ****  * @param chan The MAVLink channel this message will be sent over
 168:Service/../MAVLink/common/./mavlink_msg_para_gyroz_pid.h ****  * @param msg The MAVLink message to compress the data into
 169:Service/../MAVLink/common/./mavlink_msg_para_gyroz_pid.h ****  * @param para_gyroz_pid C-struct to read the message contents from
 170:Service/../MAVLink/common/./mavlink_msg_para_gyroz_pid.h ****  */
 171:Service/../MAVLink/common/./mavlink_msg_para_gyroz_pid.h **** static inline uint16_t mavlink_msg_para_gyroz_pid_encode_chan(uint8_t system_id, uint8_t component_
 172:Service/../MAVLink/common/./mavlink_msg_para_gyroz_pid.h **** {
 173:Service/../MAVLink/common/./mavlink_msg_para_gyroz_pid.h ****     return mavlink_msg_para_gyroz_pid_pack_chan(system_id, component_id, chan, msg, para_gyroz_pid-
 174:Service/../MAVLink/common/./mavlink_msg_para_gyroz_pid.h **** }
 175:Service/../MAVLink/common/./mavlink_msg_para_gyroz_pid.h **** 
 176:Service/../MAVLink/common/./mavlink_msg_para_gyroz_pid.h **** /**
 177:Service/../MAVLink/common/./mavlink_msg_para_gyroz_pid.h ****  * @brief Send a para_gyroz_pid message
 178:Service/../MAVLink/common/./mavlink_msg_para_gyroz_pid.h ****  * @param chan MAVLink channel to send the message
 179:Service/../MAVLink/common/./mavlink_msg_para_gyroz_pid.h ****  *
 180:Service/../MAVLink/common/./mavlink_msg_para_gyroz_pid.h ****  * @param gain_p   Gain P 
 181:Service/../MAVLink/common/./mavlink_msg_para_gyroz_pid.h ****  * @param p_diff_max   P Diff Max 
 182:Service/../MAVLink/common/./mavlink_msg_para_gyroz_pid.h ****  * @param p_diff_min   P Diff Min 
 183:Service/../MAVLink/common/./mavlink_msg_para_gyroz_pid.h ****  * @param gain_I   Gain I 
ARM GAS  C:\Users\8bit\AppData\Local\Temp\ccCRhmZR.s 			page 98


 184:Service/../MAVLink/common/./mavlink_msg_para_gyroz_pid.h ****  * @param I_Max   I Max 
 185:Service/../MAVLink/common/./mavlink_msg_para_gyroz_pid.h ****  * @param I_Min   I Min 
 186:Service/../MAVLink/common/./mavlink_msg_para_gyroz_pid.h ****  * @param gain_D   Gain D 
 187:Service/../MAVLink/common/./mavlink_msg_para_gyroz_pid.h ****  */
 188:Service/../MAVLink/common/./mavlink_msg_para_gyroz_pid.h **** #ifdef MAVLINK_USE_CONVENIENCE_FUNCTIONS
 189:Service/../MAVLink/common/./mavlink_msg_para_gyroz_pid.h **** 
 190:Service/../MAVLink/common/./mavlink_msg_para_gyroz_pid.h **** static inline void mavlink_msg_para_gyroz_pid_send(mavlink_channel_t chan, float gain_p, float p_di
 191:Service/../MAVLink/common/./mavlink_msg_para_gyroz_pid.h **** {
 192:Service/../MAVLink/common/./mavlink_msg_para_gyroz_pid.h **** #if MAVLINK_NEED_BYTE_SWAP || !MAVLINK_ALIGNED_FIELDS
 193:Service/../MAVLink/common/./mavlink_msg_para_gyroz_pid.h ****     char buf[MAVLINK_MSG_ID_Para_GyroZ_PID_LEN];
 194:Service/../MAVLink/common/./mavlink_msg_para_gyroz_pid.h ****     _mav_put_float(buf, 0, gain_p);
 195:Service/../MAVLink/common/./mavlink_msg_para_gyroz_pid.h ****     _mav_put_float(buf, 4, p_diff_max);
 196:Service/../MAVLink/common/./mavlink_msg_para_gyroz_pid.h ****     _mav_put_float(buf, 8, p_diff_min);
 197:Service/../MAVLink/common/./mavlink_msg_para_gyroz_pid.h ****     _mav_put_float(buf, 12, gain_I);
 198:Service/../MAVLink/common/./mavlink_msg_para_gyroz_pid.h ****     _mav_put_float(buf, 16, I_Max);
 199:Service/../MAVLink/common/./mavlink_msg_para_gyroz_pid.h ****     _mav_put_float(buf, 20, I_Min);
 200:Service/../MAVLink/common/./mavlink_msg_para_gyroz_pid.h ****     _mav_put_float(buf, 24, gain_D);
 201:Service/../MAVLink/common/./mavlink_msg_para_gyroz_pid.h **** 
 202:Service/../MAVLink/common/./mavlink_msg_para_gyroz_pid.h ****     _mav_finalize_message_chan_send(chan, MAVLINK_MSG_ID_Para_GyroZ_PID, buf, MAVLINK_MSG_ID_Para_G
 203:Service/../MAVLink/common/./mavlink_msg_para_gyroz_pid.h **** #else
 204:Service/../MAVLink/common/./mavlink_msg_para_gyroz_pid.h ****     mavlink_para_gyroz_pid_t packet;
 205:Service/../MAVLink/common/./mavlink_msg_para_gyroz_pid.h ****     packet.gain_p = gain_p;
 206:Service/../MAVLink/common/./mavlink_msg_para_gyroz_pid.h ****     packet.p_diff_max = p_diff_max;
 207:Service/../MAVLink/common/./mavlink_msg_para_gyroz_pid.h ****     packet.p_diff_min = p_diff_min;
 208:Service/../MAVLink/common/./mavlink_msg_para_gyroz_pid.h ****     packet.gain_I = gain_I;
 209:Service/../MAVLink/common/./mavlink_msg_para_gyroz_pid.h ****     packet.I_Max = I_Max;
 210:Service/../MAVLink/common/./mavlink_msg_para_gyroz_pid.h ****     packet.I_Min = I_Min;
 211:Service/../MAVLink/common/./mavlink_msg_para_gyroz_pid.h ****     packet.gain_D = gain_D;
 212:Service/../MAVLink/common/./mavlink_msg_para_gyroz_pid.h **** 
 213:Service/../MAVLink/common/./mavlink_msg_para_gyroz_pid.h ****     _mav_finalize_message_chan_send(chan, MAVLINK_MSG_ID_Para_GyroZ_PID, (const char *)&packet, MAV
 214:Service/../MAVLink/common/./mavlink_msg_para_gyroz_pid.h **** #endif
 215:Service/../MAVLink/common/./mavlink_msg_para_gyroz_pid.h **** }
 216:Service/../MAVLink/common/./mavlink_msg_para_gyroz_pid.h **** 
 217:Service/../MAVLink/common/./mavlink_msg_para_gyroz_pid.h **** /**
 218:Service/../MAVLink/common/./mavlink_msg_para_gyroz_pid.h ****  * @brief Send a para_gyroz_pid message
 219:Service/../MAVLink/common/./mavlink_msg_para_gyroz_pid.h ****  * @param chan MAVLink channel to send the message
 220:Service/../MAVLink/common/./mavlink_msg_para_gyroz_pid.h ****  * @param struct The MAVLink struct to serialize
 221:Service/../MAVLink/common/./mavlink_msg_para_gyroz_pid.h ****  */
 222:Service/../MAVLink/common/./mavlink_msg_para_gyroz_pid.h **** static inline void mavlink_msg_para_gyroz_pid_send_struct(mavlink_channel_t chan, const mavlink_par
 223:Service/../MAVLink/common/./mavlink_msg_para_gyroz_pid.h **** {
 224:Service/../MAVLink/common/./mavlink_msg_para_gyroz_pid.h **** #if MAVLINK_NEED_BYTE_SWAP || !MAVLINK_ALIGNED_FIELDS
 225:Service/../MAVLink/common/./mavlink_msg_para_gyroz_pid.h ****     mavlink_msg_para_gyroz_pid_send(chan, para_gyroz_pid->gain_p, para_gyroz_pid->p_diff_max, para_
 226:Service/../MAVLink/common/./mavlink_msg_para_gyroz_pid.h **** #else
 227:Service/../MAVLink/common/./mavlink_msg_para_gyroz_pid.h ****     _mav_finalize_message_chan_send(chan, MAVLINK_MSG_ID_Para_GyroZ_PID, (const char *)para_gyroz_p
 228:Service/../MAVLink/common/./mavlink_msg_para_gyroz_pid.h **** #endif
 229:Service/../MAVLink/common/./mavlink_msg_para_gyroz_pid.h **** }
 230:Service/../MAVLink/common/./mavlink_msg_para_gyroz_pid.h **** 
 231:Service/../MAVLink/common/./mavlink_msg_para_gyroz_pid.h **** #if MAVLINK_MSG_ID_Para_GyroZ_PID_LEN <= MAVLINK_MAX_PAYLOAD_LEN
 232:Service/../MAVLink/common/./mavlink_msg_para_gyroz_pid.h **** /*
 233:Service/../MAVLink/common/./mavlink_msg_para_gyroz_pid.h ****   This variant of _send() can be used to save stack space by re-using
 234:Service/../MAVLink/common/./mavlink_msg_para_gyroz_pid.h ****   memory from the receive buffer.  The caller provides a
 235:Service/../MAVLink/common/./mavlink_msg_para_gyroz_pid.h ****   mavlink_message_t which is the size of a full mavlink message. This
 236:Service/../MAVLink/common/./mavlink_msg_para_gyroz_pid.h ****   is usually the receive buffer for the channel, and allows a reply to an
 237:Service/../MAVLink/common/./mavlink_msg_para_gyroz_pid.h ****   incoming message with minimum stack space usage.
 238:Service/../MAVLink/common/./mavlink_msg_para_gyroz_pid.h ****  */
 239:Service/../MAVLink/common/./mavlink_msg_para_gyroz_pid.h **** static inline void mavlink_msg_para_gyroz_pid_send_buf(mavlink_message_t *msgbuf, mavlink_channel_t
 240:Service/../MAVLink/common/./mavlink_msg_para_gyroz_pid.h **** {
ARM GAS  C:\Users\8bit\AppData\Local\Temp\ccCRhmZR.s 			page 99


 241:Service/../MAVLink/common/./mavlink_msg_para_gyroz_pid.h **** #if MAVLINK_NEED_BYTE_SWAP || !MAVLINK_ALIGNED_FIELDS
 242:Service/../MAVLink/common/./mavlink_msg_para_gyroz_pid.h ****     char *buf = (char *)msgbuf;
 243:Service/../MAVLink/common/./mavlink_msg_para_gyroz_pid.h ****     _mav_put_float(buf, 0, gain_p);
 244:Service/../MAVLink/common/./mavlink_msg_para_gyroz_pid.h ****     _mav_put_float(buf, 4, p_diff_max);
 245:Service/../MAVLink/common/./mavlink_msg_para_gyroz_pid.h ****     _mav_put_float(buf, 8, p_diff_min);
 246:Service/../MAVLink/common/./mavlink_msg_para_gyroz_pid.h ****     _mav_put_float(buf, 12, gain_I);
 247:Service/../MAVLink/common/./mavlink_msg_para_gyroz_pid.h ****     _mav_put_float(buf, 16, I_Max);
 248:Service/../MAVLink/common/./mavlink_msg_para_gyroz_pid.h ****     _mav_put_float(buf, 20, I_Min);
 249:Service/../MAVLink/common/./mavlink_msg_para_gyroz_pid.h ****     _mav_put_float(buf, 24, gain_D);
 250:Service/../MAVLink/common/./mavlink_msg_para_gyroz_pid.h **** 
 251:Service/../MAVLink/common/./mavlink_msg_para_gyroz_pid.h ****     _mav_finalize_message_chan_send(chan, MAVLINK_MSG_ID_Para_GyroZ_PID, buf, MAVLINK_MSG_ID_Para_G
 252:Service/../MAVLink/common/./mavlink_msg_para_gyroz_pid.h **** #else
 253:Service/../MAVLink/common/./mavlink_msg_para_gyroz_pid.h ****     mavlink_para_gyroz_pid_t *packet = (mavlink_para_gyroz_pid_t *)msgbuf;
 254:Service/../MAVLink/common/./mavlink_msg_para_gyroz_pid.h ****     packet->gain_p = gain_p;
 255:Service/../MAVLink/common/./mavlink_msg_para_gyroz_pid.h ****     packet->p_diff_max = p_diff_max;
 256:Service/../MAVLink/common/./mavlink_msg_para_gyroz_pid.h ****     packet->p_diff_min = p_diff_min;
 257:Service/../MAVLink/common/./mavlink_msg_para_gyroz_pid.h ****     packet->gain_I = gain_I;
 258:Service/../MAVLink/common/./mavlink_msg_para_gyroz_pid.h ****     packet->I_Max = I_Max;
 259:Service/../MAVLink/common/./mavlink_msg_para_gyroz_pid.h ****     packet->I_Min = I_Min;
 260:Service/../MAVLink/common/./mavlink_msg_para_gyroz_pid.h ****     packet->gain_D = gain_D;
 261:Service/../MAVLink/common/./mavlink_msg_para_gyroz_pid.h **** 
 262:Service/../MAVLink/common/./mavlink_msg_para_gyroz_pid.h ****     _mav_finalize_message_chan_send(chan, MAVLINK_MSG_ID_Para_GyroZ_PID, (const char *)packet, MAVL
 263:Service/../MAVLink/common/./mavlink_msg_para_gyroz_pid.h **** #endif
 264:Service/../MAVLink/common/./mavlink_msg_para_gyroz_pid.h **** }
 265:Service/../MAVLink/common/./mavlink_msg_para_gyroz_pid.h **** #endif
 266:Service/../MAVLink/common/./mavlink_msg_para_gyroz_pid.h **** 
 267:Service/../MAVLink/common/./mavlink_msg_para_gyroz_pid.h **** #endif
 268:Service/../MAVLink/common/./mavlink_msg_para_gyroz_pid.h **** 
 269:Service/../MAVLink/common/./mavlink_msg_para_gyroz_pid.h **** // MESSAGE Para_GyroZ_PID UNPACKING
 270:Service/../MAVLink/common/./mavlink_msg_para_gyroz_pid.h **** 
 271:Service/../MAVLink/common/./mavlink_msg_para_gyroz_pid.h **** 
 272:Service/../MAVLink/common/./mavlink_msg_para_gyroz_pid.h **** /**
 273:Service/../MAVLink/common/./mavlink_msg_para_gyroz_pid.h ****  * @brief Get field gain_p from para_gyroz_pid message
 274:Service/../MAVLink/common/./mavlink_msg_para_gyroz_pid.h ****  *
 275:Service/../MAVLink/common/./mavlink_msg_para_gyroz_pid.h ****  * @return   Gain P 
 276:Service/../MAVLink/common/./mavlink_msg_para_gyroz_pid.h ****  */
 277:Service/../MAVLink/common/./mavlink_msg_para_gyroz_pid.h **** static inline float mavlink_msg_para_gyroz_pid_get_gain_p(const mavlink_message_t* msg)
 278:Service/../MAVLink/common/./mavlink_msg_para_gyroz_pid.h **** {
 279:Service/../MAVLink/common/./mavlink_msg_para_gyroz_pid.h ****     return _MAV_RETURN_float(msg,  0);
 280:Service/../MAVLink/common/./mavlink_msg_para_gyroz_pid.h **** }
 281:Service/../MAVLink/common/./mavlink_msg_para_gyroz_pid.h **** 
 282:Service/../MAVLink/common/./mavlink_msg_para_gyroz_pid.h **** /**
 283:Service/../MAVLink/common/./mavlink_msg_para_gyroz_pid.h ****  * @brief Get field p_diff_max from para_gyroz_pid message
 284:Service/../MAVLink/common/./mavlink_msg_para_gyroz_pid.h ****  *
 285:Service/../MAVLink/common/./mavlink_msg_para_gyroz_pid.h ****  * @return   P Diff Max 
 286:Service/../MAVLink/common/./mavlink_msg_para_gyroz_pid.h ****  */
 287:Service/../MAVLink/common/./mavlink_msg_para_gyroz_pid.h **** static inline float mavlink_msg_para_gyroz_pid_get_p_diff_max(const mavlink_message_t* msg)
 288:Service/../MAVLink/common/./mavlink_msg_para_gyroz_pid.h **** {
 289:Service/../MAVLink/common/./mavlink_msg_para_gyroz_pid.h ****     return _MAV_RETURN_float(msg,  4);
 290:Service/../MAVLink/common/./mavlink_msg_para_gyroz_pid.h **** }
 291:Service/../MAVLink/common/./mavlink_msg_para_gyroz_pid.h **** 
 292:Service/../MAVLink/common/./mavlink_msg_para_gyroz_pid.h **** /**
 293:Service/../MAVLink/common/./mavlink_msg_para_gyroz_pid.h ****  * @brief Get field p_diff_min from para_gyroz_pid message
 294:Service/../MAVLink/common/./mavlink_msg_para_gyroz_pid.h ****  *
 295:Service/../MAVLink/common/./mavlink_msg_para_gyroz_pid.h ****  * @return   P Diff Min 
 296:Service/../MAVLink/common/./mavlink_msg_para_gyroz_pid.h ****  */
 297:Service/../MAVLink/common/./mavlink_msg_para_gyroz_pid.h **** static inline float mavlink_msg_para_gyroz_pid_get_p_diff_min(const mavlink_message_t* msg)
ARM GAS  C:\Users\8bit\AppData\Local\Temp\ccCRhmZR.s 			page 100


 298:Service/../MAVLink/common/./mavlink_msg_para_gyroz_pid.h **** {
 299:Service/../MAVLink/common/./mavlink_msg_para_gyroz_pid.h ****     return _MAV_RETURN_float(msg,  8);
 300:Service/../MAVLink/common/./mavlink_msg_para_gyroz_pid.h **** }
 301:Service/../MAVLink/common/./mavlink_msg_para_gyroz_pid.h **** 
 302:Service/../MAVLink/common/./mavlink_msg_para_gyroz_pid.h **** /**
 303:Service/../MAVLink/common/./mavlink_msg_para_gyroz_pid.h ****  * @brief Get field gain_I from para_gyroz_pid message
 304:Service/../MAVLink/common/./mavlink_msg_para_gyroz_pid.h ****  *
 305:Service/../MAVLink/common/./mavlink_msg_para_gyroz_pid.h ****  * @return   Gain I 
 306:Service/../MAVLink/common/./mavlink_msg_para_gyroz_pid.h ****  */
 307:Service/../MAVLink/common/./mavlink_msg_para_gyroz_pid.h **** static inline float mavlink_msg_para_gyroz_pid_get_gain_I(const mavlink_message_t* msg)
 308:Service/../MAVLink/common/./mavlink_msg_para_gyroz_pid.h **** {
 309:Service/../MAVLink/common/./mavlink_msg_para_gyroz_pid.h ****     return _MAV_RETURN_float(msg,  12);
 310:Service/../MAVLink/common/./mavlink_msg_para_gyroz_pid.h **** }
 311:Service/../MAVLink/common/./mavlink_msg_para_gyroz_pid.h **** 
 312:Service/../MAVLink/common/./mavlink_msg_para_gyroz_pid.h **** /**
 313:Service/../MAVLink/common/./mavlink_msg_para_gyroz_pid.h ****  * @brief Get field I_Max from para_gyroz_pid message
 314:Service/../MAVLink/common/./mavlink_msg_para_gyroz_pid.h ****  *
 315:Service/../MAVLink/common/./mavlink_msg_para_gyroz_pid.h ****  * @return   I Max 
 316:Service/../MAVLink/common/./mavlink_msg_para_gyroz_pid.h ****  */
 317:Service/../MAVLink/common/./mavlink_msg_para_gyroz_pid.h **** static inline float mavlink_msg_para_gyroz_pid_get_I_Max(const mavlink_message_t* msg)
 318:Service/../MAVLink/common/./mavlink_msg_para_gyroz_pid.h **** {
 319:Service/../MAVLink/common/./mavlink_msg_para_gyroz_pid.h ****     return _MAV_RETURN_float(msg,  16);
 320:Service/../MAVLink/common/./mavlink_msg_para_gyroz_pid.h **** }
 321:Service/../MAVLink/common/./mavlink_msg_para_gyroz_pid.h **** 
 322:Service/../MAVLink/common/./mavlink_msg_para_gyroz_pid.h **** /**
 323:Service/../MAVLink/common/./mavlink_msg_para_gyroz_pid.h ****  * @brief Get field I_Min from para_gyroz_pid message
 324:Service/../MAVLink/common/./mavlink_msg_para_gyroz_pid.h ****  *
 325:Service/../MAVLink/common/./mavlink_msg_para_gyroz_pid.h ****  * @return   I Min 
 326:Service/../MAVLink/common/./mavlink_msg_para_gyroz_pid.h ****  */
 327:Service/../MAVLink/common/./mavlink_msg_para_gyroz_pid.h **** static inline float mavlink_msg_para_gyroz_pid_get_I_Min(const mavlink_message_t* msg)
 328:Service/../MAVLink/common/./mavlink_msg_para_gyroz_pid.h **** {
 329:Service/../MAVLink/common/./mavlink_msg_para_gyroz_pid.h ****     return _MAV_RETURN_float(msg,  20);
 330:Service/../MAVLink/common/./mavlink_msg_para_gyroz_pid.h **** }
 331:Service/../MAVLink/common/./mavlink_msg_para_gyroz_pid.h **** 
 332:Service/../MAVLink/common/./mavlink_msg_para_gyroz_pid.h **** /**
 333:Service/../MAVLink/common/./mavlink_msg_para_gyroz_pid.h ****  * @brief Get field gain_D from para_gyroz_pid message
 334:Service/../MAVLink/common/./mavlink_msg_para_gyroz_pid.h ****  *
 335:Service/../MAVLink/common/./mavlink_msg_para_gyroz_pid.h ****  * @return   Gain D 
 336:Service/../MAVLink/common/./mavlink_msg_para_gyroz_pid.h ****  */
 337:Service/../MAVLink/common/./mavlink_msg_para_gyroz_pid.h **** static inline float mavlink_msg_para_gyroz_pid_get_gain_D(const mavlink_message_t* msg)
 338:Service/../MAVLink/common/./mavlink_msg_para_gyroz_pid.h **** {
 339:Service/../MAVLink/common/./mavlink_msg_para_gyroz_pid.h ****     return _MAV_RETURN_float(msg,  24);
 340:Service/../MAVLink/common/./mavlink_msg_para_gyroz_pid.h **** }
 341:Service/../MAVLink/common/./mavlink_msg_para_gyroz_pid.h **** 
 342:Service/../MAVLink/common/./mavlink_msg_para_gyroz_pid.h **** /**
 343:Service/../MAVLink/common/./mavlink_msg_para_gyroz_pid.h ****  * @brief Decode a para_gyroz_pid message into a struct
 344:Service/../MAVLink/common/./mavlink_msg_para_gyroz_pid.h ****  *
 345:Service/../MAVLink/common/./mavlink_msg_para_gyroz_pid.h ****  * @param msg The message to decode
 346:Service/../MAVLink/common/./mavlink_msg_para_gyroz_pid.h ****  * @param para_gyroz_pid C-struct to decode the message contents into
 347:Service/../MAVLink/common/./mavlink_msg_para_gyroz_pid.h ****  */
 348:Service/../MAVLink/common/./mavlink_msg_para_gyroz_pid.h **** static inline void mavlink_msg_para_gyroz_pid_decode(const mavlink_message_t* msg, mavlink_para_gyr
 1505              		.loc 10 348 20 view .LVU385
 1506              	.LBB76:
 349:Service/../MAVLink/common/./mavlink_msg_para_gyroz_pid.h **** {
 350:Service/../MAVLink/common/./mavlink_msg_para_gyroz_pid.h **** #if MAVLINK_NEED_BYTE_SWAP || !MAVLINK_ALIGNED_FIELDS
 351:Service/../MAVLink/common/./mavlink_msg_para_gyroz_pid.h ****     para_gyroz_pid->gain_p = mavlink_msg_para_gyroz_pid_get_gain_p(msg);
 352:Service/../MAVLink/common/./mavlink_msg_para_gyroz_pid.h ****     para_gyroz_pid->p_diff_max = mavlink_msg_para_gyroz_pid_get_p_diff_max(msg);
ARM GAS  C:\Users\8bit\AppData\Local\Temp\ccCRhmZR.s 			page 101


 353:Service/../MAVLink/common/./mavlink_msg_para_gyroz_pid.h ****     para_gyroz_pid->p_diff_min = mavlink_msg_para_gyroz_pid_get_p_diff_min(msg);
 354:Service/../MAVLink/common/./mavlink_msg_para_gyroz_pid.h ****     para_gyroz_pid->gain_I = mavlink_msg_para_gyroz_pid_get_gain_I(msg);
 355:Service/../MAVLink/common/./mavlink_msg_para_gyroz_pid.h ****     para_gyroz_pid->I_Max = mavlink_msg_para_gyroz_pid_get_I_Max(msg);
 356:Service/../MAVLink/common/./mavlink_msg_para_gyroz_pid.h ****     para_gyroz_pid->I_Min = mavlink_msg_para_gyroz_pid_get_I_Min(msg);
 357:Service/../MAVLink/common/./mavlink_msg_para_gyroz_pid.h ****     para_gyroz_pid->gain_D = mavlink_msg_para_gyroz_pid_get_gain_D(msg);
 358:Service/../MAVLink/common/./mavlink_msg_para_gyroz_pid.h **** #else
 359:Service/../MAVLink/common/./mavlink_msg_para_gyroz_pid.h ****         uint8_t len = msg->len < MAVLINK_MSG_ID_Para_GyroZ_PID_LEN? msg->len : MAVLINK_MSG_ID_Para_
 1507              		.loc 10 359 9 view .LVU386
 1508              		.loc 10 359 26 is_stmt 0 view .LVU387
 1509 0028 9DF82F20 		ldrb	r2, [sp, #47]	@ zero_extendqisi2
 1510              	.LVL102:
 360:Service/../MAVLink/common/./mavlink_msg_para_gyroz_pid.h ****         memset(para_gyroz_pid, 0, MAVLINK_MSG_ID_Para_GyroZ_PID_LEN);
 1511              		.loc 10 360 9 is_stmt 1 view .LVU388
 361:Service/../MAVLink/common/./mavlink_msg_para_gyroz_pid.h ****     memcpy(para_gyroz_pid, _MAV_PAYLOAD(msg), len);
 1512              		.loc 10 361 5 view .LVU389
 1513 002c 1C2A     		cmp	r2, #28
 1514 002e 28BF     		it	cs
 1515 0030 1C22     		movcs	r2, #28
 1516              	.LVL103:
 1517              		.loc 10 361 5 is_stmt 0 view .LVU390
 1518 0032 0DA9     		add	r1, sp, #52
 1519 0034 01A8     		add	r0, sp, #4
 1520 0036 FFF7FEFF 		bl	memcpy
 1521              	.LVL104:
 1522              		.loc 10 361 5 view .LVU391
 1523              	.LBE76:
 1524              	.LBE75:
 483:Service/Srv_ComProto.c **** 
 484:Service/Srv_ComProto.c ****         if (obj->MavMsg_PIDPara_GyroZ_Callback)
 1525              		.loc 1 484 9 is_stmt 1 view .LVU392
 1526              		.loc 1 484 16 is_stmt 0 view .LVU393
 1527 003a D4F88030 		ldr	r3, [r4, #128]
 1528              		.loc 1 484 12 view .LVU394
 1529 003e 4BB1     		cbz	r3, .L89
 485:Service/Srv_ComProto.c ****             return obj->MavMsg_PIDPara_GyroZ_Callback(&msg_pid_para_gyroz, obj->cus_p_pidpara_gyroz
 1530              		.loc 1 485 13 is_stmt 1 view .LVU395
 1531              		.loc 1 485 20 is_stmt 0 view .LVU396
 1532 0040 616A     		ldr	r1, [r4, #36]
 1533 0042 01A8     		add	r0, sp, #4
 1534 0044 9847     		blx	r3
 1535              	.LVL105:
 1536 0046 00E0     		b	.L87
 1537              	.LVL106:
 1538              	.L88:
 486:Service/Srv_ComProto.c ****     }
 487:Service/Srv_ComProto.c **** 
 488:Service/Srv_ComProto.c ****     return false;
 1539              		.loc 1 488 12 view .LVU397
 1540 0048 0020     		movs	r0, #0
 1541              	.LVL107:
 1542              	.L87:
 489:Service/Srv_ComProto.c **** }
 1543              		.loc 1 489 1 view .LVU398
 1544 004a 08B0     		add	sp, sp, #32
 1545              	.LCFI59:
 1546              		.cfi_remember_state
 1547              		.cfi_def_cfa_offset 24
ARM GAS  C:\Users\8bit\AppData\Local\Temp\ccCRhmZR.s 			page 102


 1548              		@ sp needed
 1549 004c BDE81040 		pop	{r4, lr}
 1550              	.LCFI60:
 1551              		.cfi_restore 14
 1552              		.cfi_restore 4
 1553              		.cfi_def_cfa_offset 16
 1554 0050 04B0     		add	sp, sp, #16
 1555              	.LCFI61:
 1556              		.cfi_def_cfa_offset 0
 1557 0052 7047     		bx	lr
 1558              	.LVL108:
 1559              	.L89:
 1560              	.LCFI62:
 1561              		.cfi_restore_state
 488:Service/Srv_ComProto.c **** }
 1562              		.loc 1 488 12 view .LVU399
 1563 0054 0020     		movs	r0, #0
 1564 0056 F8E7     		b	.L87
 1565              		.cfi_endproc
 1566              	.LFE2094:
 1568              		.section	.text.SrvComProto_MavMsg_Decode_PIDPara_Roll,"ax",%progbits
 1569              		.align	1
 1570              		.syntax unified
 1571              		.thumb
 1572              		.thumb_func
 1574              	SrvComProto_MavMsg_Decode_PIDPara_Roll:
 1575              	.LVL109:
 1576              	.LFB2095:
 490:Service/Srv_ComProto.c **** 
 491:Service/Srv_ComProto.c **** static bool SrvComProto_MavMsg_Decode_PIDPara_Roll(SrvComProto_MsgObj_TypeDef *obj, const mavlink_m
 492:Service/Srv_ComProto.c **** {
 1577              		.loc 1 492 1 is_stmt 1 view -0
 1578              		.cfi_startproc
 1579              		@ args = 276, pretend = 16, frame = 32
 1580              		@ frame_needed = 0, uses_anonymous_args = 0
 1581              		.loc 1 492 1 is_stmt 0 view .LVU401
 1582 0000 84B0     		sub	sp, sp, #16
 1583              	.LCFI63:
 1584              		.cfi_def_cfa_offset 16
 1585 0002 10B5     		push	{r4, lr}
 1586              	.LCFI64:
 1587              		.cfi_def_cfa_offset 24
 1588              		.cfi_offset 4, -24
 1589              		.cfi_offset 14, -20
 1590 0004 88B0     		sub	sp, sp, #32
 1591              	.LCFI65:
 1592              		.cfi_def_cfa_offset 56
 1593 0006 0DF12C0C 		add	ip, sp, #44
 1594 000a 8CE80E00 		stm	ip, {r1, r2, r3}
 493:Service/Srv_ComProto.c ****     mavlink_para_roll_pid_t msg_pid_para_roll;
 1595              		.loc 1 493 5 is_stmt 1 view .LVU402
 494:Service/Srv_ComProto.c **** 
 495:Service/Srv_ComProto.c ****     if (obj)
 1596              		.loc 1 495 5 view .LVU403
 1597              		.loc 1 495 8 is_stmt 0 view .LVU404
 1598 000e D8B1     		cbz	r0, .L93
 1599 0010 0446     		mov	r4, r0
ARM GAS  C:\Users\8bit\AppData\Local\Temp\ccCRhmZR.s 			page 103


 496:Service/Srv_ComProto.c ****     {
 497:Service/Srv_ComProto.c ****         obj->PID_Para_Roll_Cnt ++;
 1600              		.loc 1 497 9 is_stmt 1 view .LVU405
 1601              		.loc 1 497 12 is_stmt 0 view .LVU406
 1602 0012 836D     		ldr	r3, [r0, #88]
 1603              		.loc 1 497 32 view .LVU407
 1604 0014 0133     		adds	r3, r3, #1
 1605 0016 8365     		str	r3, [r0, #88]
 498:Service/Srv_ComProto.c **** 
 499:Service/Srv_ComProto.c ****         memset(&msg_pid_para_roll, 0, sizeof(mavlink_para_roll_pid_t));
 1606              		.loc 1 499 9 is_stmt 1 view .LVU408
 1607 0018 0023     		movs	r3, #0
 1608 001a 0193     		str	r3, [sp, #4]
 1609 001c 0293     		str	r3, [sp, #8]
 1610 001e 0393     		str	r3, [sp, #12]
 1611 0020 0493     		str	r3, [sp, #16]
 1612 0022 0593     		str	r3, [sp, #20]
 1613 0024 0693     		str	r3, [sp, #24]
 1614 0026 0793     		str	r3, [sp, #28]
 500:Service/Srv_ComProto.c ****         mavlink_msg_para_roll_pid_decode(&msg, &msg_pid_para_roll);
 1615              		.loc 1 500 9 view .LVU409
 1616              	.LVL110:
 1617              	.LBB79:
 1618              	.LBI79:
 1619              		.file 11 "Service/../MAVLink/common/./mavlink_msg_para_roll_pid.h"
   1:Service/../MAVLink/common/./mavlink_msg_para_roll_pid.h **** #pragma once
   2:Service/../MAVLink/common/./mavlink_msg_para_roll_pid.h **** // MESSAGE Para_Roll_PID PACKING
   3:Service/../MAVLink/common/./mavlink_msg_para_roll_pid.h **** 
   4:Service/../MAVLink/common/./mavlink_msg_para_roll_pid.h **** #define MAVLINK_MSG_ID_Para_Roll_PID 218
   5:Service/../MAVLink/common/./mavlink_msg_para_roll_pid.h **** 
   6:Service/../MAVLink/common/./mavlink_msg_para_roll_pid.h **** 
   7:Service/../MAVLink/common/./mavlink_msg_para_roll_pid.h **** typedef struct __mavlink_para_roll_pid_t {
   8:Service/../MAVLink/common/./mavlink_msg_para_roll_pid.h ****  float gain_p; /*<   Gain P */
   9:Service/../MAVLink/common/./mavlink_msg_para_roll_pid.h ****  float p_diff_max; /*<   P Diff Max */
  10:Service/../MAVLink/common/./mavlink_msg_para_roll_pid.h ****  float p_diff_min; /*<   P Diff Min */
  11:Service/../MAVLink/common/./mavlink_msg_para_roll_pid.h ****  float gain_I; /*<   Gain I */
  12:Service/../MAVLink/common/./mavlink_msg_para_roll_pid.h ****  float I_Max; /*<   I Max */
  13:Service/../MAVLink/common/./mavlink_msg_para_roll_pid.h ****  float I_Min; /*<   I Min */
  14:Service/../MAVLink/common/./mavlink_msg_para_roll_pid.h ****  float gain_D; /*<   Gain D */
  15:Service/../MAVLink/common/./mavlink_msg_para_roll_pid.h **** } mavlink_para_roll_pid_t;
  16:Service/../MAVLink/common/./mavlink_msg_para_roll_pid.h **** 
  17:Service/../MAVLink/common/./mavlink_msg_para_roll_pid.h **** #define MAVLINK_MSG_ID_Para_Roll_PID_LEN 28
  18:Service/../MAVLink/common/./mavlink_msg_para_roll_pid.h **** #define MAVLINK_MSG_ID_Para_Roll_PID_MIN_LEN 28
  19:Service/../MAVLink/common/./mavlink_msg_para_roll_pid.h **** #define MAVLINK_MSG_ID_218_LEN 28
  20:Service/../MAVLink/common/./mavlink_msg_para_roll_pid.h **** #define MAVLINK_MSG_ID_218_MIN_LEN 28
  21:Service/../MAVLink/common/./mavlink_msg_para_roll_pid.h **** 
  22:Service/../MAVLink/common/./mavlink_msg_para_roll_pid.h **** #define MAVLINK_MSG_ID_Para_Roll_PID_CRC 227
  23:Service/../MAVLink/common/./mavlink_msg_para_roll_pid.h **** #define MAVLINK_MSG_ID_218_CRC 227
  24:Service/../MAVLink/common/./mavlink_msg_para_roll_pid.h **** 
  25:Service/../MAVLink/common/./mavlink_msg_para_roll_pid.h **** 
  26:Service/../MAVLink/common/./mavlink_msg_para_roll_pid.h **** 
  27:Service/../MAVLink/common/./mavlink_msg_para_roll_pid.h **** #if MAVLINK_COMMAND_24BIT
  28:Service/../MAVLink/common/./mavlink_msg_para_roll_pid.h **** #define MAVLINK_MESSAGE_INFO_Para_Roll_PID { \
  29:Service/../MAVLink/common/./mavlink_msg_para_roll_pid.h ****     218, \
  30:Service/../MAVLink/common/./mavlink_msg_para_roll_pid.h ****     "Para_Roll_PID", \
  31:Service/../MAVLink/common/./mavlink_msg_para_roll_pid.h ****     7, \
  32:Service/../MAVLink/common/./mavlink_msg_para_roll_pid.h ****     {  { "gain_p", NULL, MAVLINK_TYPE_FLOAT, 0, 0, offsetof(mavlink_para_roll_pid_t, gain_p) }, \
ARM GAS  C:\Users\8bit\AppData\Local\Temp\ccCRhmZR.s 			page 104


  33:Service/../MAVLink/common/./mavlink_msg_para_roll_pid.h ****          { "p_diff_max", NULL, MAVLINK_TYPE_FLOAT, 0, 4, offsetof(mavlink_para_roll_pid_t, p_diff_m
  34:Service/../MAVLink/common/./mavlink_msg_para_roll_pid.h ****          { "p_diff_min", NULL, MAVLINK_TYPE_FLOAT, 0, 8, offsetof(mavlink_para_roll_pid_t, p_diff_m
  35:Service/../MAVLink/common/./mavlink_msg_para_roll_pid.h ****          { "gain_I", NULL, MAVLINK_TYPE_FLOAT, 0, 12, offsetof(mavlink_para_roll_pid_t, gain_I) }, 
  36:Service/../MAVLink/common/./mavlink_msg_para_roll_pid.h ****          { "I_Max", NULL, MAVLINK_TYPE_FLOAT, 0, 16, offsetof(mavlink_para_roll_pid_t, I_Max) }, \
  37:Service/../MAVLink/common/./mavlink_msg_para_roll_pid.h ****          { "I_Min", NULL, MAVLINK_TYPE_FLOAT, 0, 20, offsetof(mavlink_para_roll_pid_t, I_Min) }, \
  38:Service/../MAVLink/common/./mavlink_msg_para_roll_pid.h ****          { "gain_D", NULL, MAVLINK_TYPE_FLOAT, 0, 24, offsetof(mavlink_para_roll_pid_t, gain_D) }, 
  39:Service/../MAVLink/common/./mavlink_msg_para_roll_pid.h ****          } \
  40:Service/../MAVLink/common/./mavlink_msg_para_roll_pid.h **** }
  41:Service/../MAVLink/common/./mavlink_msg_para_roll_pid.h **** #else
  42:Service/../MAVLink/common/./mavlink_msg_para_roll_pid.h **** #define MAVLINK_MESSAGE_INFO_Para_Roll_PID { \
  43:Service/../MAVLink/common/./mavlink_msg_para_roll_pid.h ****     "Para_Roll_PID", \
  44:Service/../MAVLink/common/./mavlink_msg_para_roll_pid.h ****     7, \
  45:Service/../MAVLink/common/./mavlink_msg_para_roll_pid.h ****     {  { "gain_p", NULL, MAVLINK_TYPE_FLOAT, 0, 0, offsetof(mavlink_para_roll_pid_t, gain_p) }, \
  46:Service/../MAVLink/common/./mavlink_msg_para_roll_pid.h ****          { "p_diff_max", NULL, MAVLINK_TYPE_FLOAT, 0, 4, offsetof(mavlink_para_roll_pid_t, p_diff_m
  47:Service/../MAVLink/common/./mavlink_msg_para_roll_pid.h ****          { "p_diff_min", NULL, MAVLINK_TYPE_FLOAT, 0, 8, offsetof(mavlink_para_roll_pid_t, p_diff_m
  48:Service/../MAVLink/common/./mavlink_msg_para_roll_pid.h ****          { "gain_I", NULL, MAVLINK_TYPE_FLOAT, 0, 12, offsetof(mavlink_para_roll_pid_t, gain_I) }, 
  49:Service/../MAVLink/common/./mavlink_msg_para_roll_pid.h ****          { "I_Max", NULL, MAVLINK_TYPE_FLOAT, 0, 16, offsetof(mavlink_para_roll_pid_t, I_Max) }, \
  50:Service/../MAVLink/common/./mavlink_msg_para_roll_pid.h ****          { "I_Min", NULL, MAVLINK_TYPE_FLOAT, 0, 20, offsetof(mavlink_para_roll_pid_t, I_Min) }, \
  51:Service/../MAVLink/common/./mavlink_msg_para_roll_pid.h ****          { "gain_D", NULL, MAVLINK_TYPE_FLOAT, 0, 24, offsetof(mavlink_para_roll_pid_t, gain_D) }, 
  52:Service/../MAVLink/common/./mavlink_msg_para_roll_pid.h ****          } \
  53:Service/../MAVLink/common/./mavlink_msg_para_roll_pid.h **** }
  54:Service/../MAVLink/common/./mavlink_msg_para_roll_pid.h **** #endif
  55:Service/../MAVLink/common/./mavlink_msg_para_roll_pid.h **** 
  56:Service/../MAVLink/common/./mavlink_msg_para_roll_pid.h **** /**
  57:Service/../MAVLink/common/./mavlink_msg_para_roll_pid.h ****  * @brief Pack a para_roll_pid message
  58:Service/../MAVLink/common/./mavlink_msg_para_roll_pid.h ****  * @param system_id ID of this system
  59:Service/../MAVLink/common/./mavlink_msg_para_roll_pid.h ****  * @param component_id ID of this component (e.g. 200 for IMU)
  60:Service/../MAVLink/common/./mavlink_msg_para_roll_pid.h ****  * @param msg The MAVLink message to compress the data into
  61:Service/../MAVLink/common/./mavlink_msg_para_roll_pid.h ****  *
  62:Service/../MAVLink/common/./mavlink_msg_para_roll_pid.h ****  * @param gain_p   Gain P 
  63:Service/../MAVLink/common/./mavlink_msg_para_roll_pid.h ****  * @param p_diff_max   P Diff Max 
  64:Service/../MAVLink/common/./mavlink_msg_para_roll_pid.h ****  * @param p_diff_min   P Diff Min 
  65:Service/../MAVLink/common/./mavlink_msg_para_roll_pid.h ****  * @param gain_I   Gain I 
  66:Service/../MAVLink/common/./mavlink_msg_para_roll_pid.h ****  * @param I_Max   I Max 
  67:Service/../MAVLink/common/./mavlink_msg_para_roll_pid.h ****  * @param I_Min   I Min 
  68:Service/../MAVLink/common/./mavlink_msg_para_roll_pid.h ****  * @param gain_D   Gain D 
  69:Service/../MAVLink/common/./mavlink_msg_para_roll_pid.h ****  * @return length of the message in bytes (excluding serial stream start sign)
  70:Service/../MAVLink/common/./mavlink_msg_para_roll_pid.h ****  */
  71:Service/../MAVLink/common/./mavlink_msg_para_roll_pid.h **** static inline uint16_t mavlink_msg_para_roll_pid_pack(uint8_t system_id, uint8_t component_id, mavl
  72:Service/../MAVLink/common/./mavlink_msg_para_roll_pid.h ****                                float gain_p, float p_diff_max, float p_diff_min, float gain_I, floa
  73:Service/../MAVLink/common/./mavlink_msg_para_roll_pid.h **** {
  74:Service/../MAVLink/common/./mavlink_msg_para_roll_pid.h **** #if MAVLINK_NEED_BYTE_SWAP || !MAVLINK_ALIGNED_FIELDS
  75:Service/../MAVLink/common/./mavlink_msg_para_roll_pid.h ****     char buf[MAVLINK_MSG_ID_Para_Roll_PID_LEN];
  76:Service/../MAVLink/common/./mavlink_msg_para_roll_pid.h ****     _mav_put_float(buf, 0, gain_p);
  77:Service/../MAVLink/common/./mavlink_msg_para_roll_pid.h ****     _mav_put_float(buf, 4, p_diff_max);
  78:Service/../MAVLink/common/./mavlink_msg_para_roll_pid.h ****     _mav_put_float(buf, 8, p_diff_min);
  79:Service/../MAVLink/common/./mavlink_msg_para_roll_pid.h ****     _mav_put_float(buf, 12, gain_I);
  80:Service/../MAVLink/common/./mavlink_msg_para_roll_pid.h ****     _mav_put_float(buf, 16, I_Max);
  81:Service/../MAVLink/common/./mavlink_msg_para_roll_pid.h ****     _mav_put_float(buf, 20, I_Min);
  82:Service/../MAVLink/common/./mavlink_msg_para_roll_pid.h ****     _mav_put_float(buf, 24, gain_D);
  83:Service/../MAVLink/common/./mavlink_msg_para_roll_pid.h **** 
  84:Service/../MAVLink/common/./mavlink_msg_para_roll_pid.h ****         memcpy(_MAV_PAYLOAD_NON_CONST(msg), buf, MAVLINK_MSG_ID_Para_Roll_PID_LEN);
  85:Service/../MAVLink/common/./mavlink_msg_para_roll_pid.h **** #else
  86:Service/../MAVLink/common/./mavlink_msg_para_roll_pid.h ****     mavlink_para_roll_pid_t packet;
  87:Service/../MAVLink/common/./mavlink_msg_para_roll_pid.h ****     packet.gain_p = gain_p;
  88:Service/../MAVLink/common/./mavlink_msg_para_roll_pid.h ****     packet.p_diff_max = p_diff_max;
  89:Service/../MAVLink/common/./mavlink_msg_para_roll_pid.h ****     packet.p_diff_min = p_diff_min;
ARM GAS  C:\Users\8bit\AppData\Local\Temp\ccCRhmZR.s 			page 105


  90:Service/../MAVLink/common/./mavlink_msg_para_roll_pid.h ****     packet.gain_I = gain_I;
  91:Service/../MAVLink/common/./mavlink_msg_para_roll_pid.h ****     packet.I_Max = I_Max;
  92:Service/../MAVLink/common/./mavlink_msg_para_roll_pid.h ****     packet.I_Min = I_Min;
  93:Service/../MAVLink/common/./mavlink_msg_para_roll_pid.h ****     packet.gain_D = gain_D;
  94:Service/../MAVLink/common/./mavlink_msg_para_roll_pid.h **** 
  95:Service/../MAVLink/common/./mavlink_msg_para_roll_pid.h ****         memcpy(_MAV_PAYLOAD_NON_CONST(msg), &packet, MAVLINK_MSG_ID_Para_Roll_PID_LEN);
  96:Service/../MAVLink/common/./mavlink_msg_para_roll_pid.h **** #endif
  97:Service/../MAVLink/common/./mavlink_msg_para_roll_pid.h **** 
  98:Service/../MAVLink/common/./mavlink_msg_para_roll_pid.h ****     msg->msgid = MAVLINK_MSG_ID_Para_Roll_PID;
  99:Service/../MAVLink/common/./mavlink_msg_para_roll_pid.h ****     return mavlink_finalize_message(msg, system_id, component_id, MAVLINK_MSG_ID_Para_Roll_PID_MIN_
 100:Service/../MAVLink/common/./mavlink_msg_para_roll_pid.h **** }
 101:Service/../MAVLink/common/./mavlink_msg_para_roll_pid.h **** 
 102:Service/../MAVLink/common/./mavlink_msg_para_roll_pid.h **** /**
 103:Service/../MAVLink/common/./mavlink_msg_para_roll_pid.h ****  * @brief Pack a para_roll_pid message on a channel
 104:Service/../MAVLink/common/./mavlink_msg_para_roll_pid.h ****  * @param system_id ID of this system
 105:Service/../MAVLink/common/./mavlink_msg_para_roll_pid.h ****  * @param component_id ID of this component (e.g. 200 for IMU)
 106:Service/../MAVLink/common/./mavlink_msg_para_roll_pid.h ****  * @param chan The MAVLink channel this message will be sent over
 107:Service/../MAVLink/common/./mavlink_msg_para_roll_pid.h ****  * @param msg The MAVLink message to compress the data into
 108:Service/../MAVLink/common/./mavlink_msg_para_roll_pid.h ****  * @param gain_p   Gain P 
 109:Service/../MAVLink/common/./mavlink_msg_para_roll_pid.h ****  * @param p_diff_max   P Diff Max 
 110:Service/../MAVLink/common/./mavlink_msg_para_roll_pid.h ****  * @param p_diff_min   P Diff Min 
 111:Service/../MAVLink/common/./mavlink_msg_para_roll_pid.h ****  * @param gain_I   Gain I 
 112:Service/../MAVLink/common/./mavlink_msg_para_roll_pid.h ****  * @param I_Max   I Max 
 113:Service/../MAVLink/common/./mavlink_msg_para_roll_pid.h ****  * @param I_Min   I Min 
 114:Service/../MAVLink/common/./mavlink_msg_para_roll_pid.h ****  * @param gain_D   Gain D 
 115:Service/../MAVLink/common/./mavlink_msg_para_roll_pid.h ****  * @return length of the message in bytes (excluding serial stream start sign)
 116:Service/../MAVLink/common/./mavlink_msg_para_roll_pid.h ****  */
 117:Service/../MAVLink/common/./mavlink_msg_para_roll_pid.h **** static inline uint16_t mavlink_msg_para_roll_pid_pack_chan(uint8_t system_id, uint8_t component_id,
 118:Service/../MAVLink/common/./mavlink_msg_para_roll_pid.h ****                                mavlink_message_t* msg,
 119:Service/../MAVLink/common/./mavlink_msg_para_roll_pid.h ****                                    float gain_p,float p_diff_max,float p_diff_min,float gain_I,floa
 120:Service/../MAVLink/common/./mavlink_msg_para_roll_pid.h **** {
 121:Service/../MAVLink/common/./mavlink_msg_para_roll_pid.h **** #if MAVLINK_NEED_BYTE_SWAP || !MAVLINK_ALIGNED_FIELDS
 122:Service/../MAVLink/common/./mavlink_msg_para_roll_pid.h ****     char buf[MAVLINK_MSG_ID_Para_Roll_PID_LEN];
 123:Service/../MAVLink/common/./mavlink_msg_para_roll_pid.h ****     _mav_put_float(buf, 0, gain_p);
 124:Service/../MAVLink/common/./mavlink_msg_para_roll_pid.h ****     _mav_put_float(buf, 4, p_diff_max);
 125:Service/../MAVLink/common/./mavlink_msg_para_roll_pid.h ****     _mav_put_float(buf, 8, p_diff_min);
 126:Service/../MAVLink/common/./mavlink_msg_para_roll_pid.h ****     _mav_put_float(buf, 12, gain_I);
 127:Service/../MAVLink/common/./mavlink_msg_para_roll_pid.h ****     _mav_put_float(buf, 16, I_Max);
 128:Service/../MAVLink/common/./mavlink_msg_para_roll_pid.h ****     _mav_put_float(buf, 20, I_Min);
 129:Service/../MAVLink/common/./mavlink_msg_para_roll_pid.h ****     _mav_put_float(buf, 24, gain_D);
 130:Service/../MAVLink/common/./mavlink_msg_para_roll_pid.h **** 
 131:Service/../MAVLink/common/./mavlink_msg_para_roll_pid.h ****         memcpy(_MAV_PAYLOAD_NON_CONST(msg), buf, MAVLINK_MSG_ID_Para_Roll_PID_LEN);
 132:Service/../MAVLink/common/./mavlink_msg_para_roll_pid.h **** #else
 133:Service/../MAVLink/common/./mavlink_msg_para_roll_pid.h ****     mavlink_para_roll_pid_t packet;
 134:Service/../MAVLink/common/./mavlink_msg_para_roll_pid.h ****     packet.gain_p = gain_p;
 135:Service/../MAVLink/common/./mavlink_msg_para_roll_pid.h ****     packet.p_diff_max = p_diff_max;
 136:Service/../MAVLink/common/./mavlink_msg_para_roll_pid.h ****     packet.p_diff_min = p_diff_min;
 137:Service/../MAVLink/common/./mavlink_msg_para_roll_pid.h ****     packet.gain_I = gain_I;
 138:Service/../MAVLink/common/./mavlink_msg_para_roll_pid.h ****     packet.I_Max = I_Max;
 139:Service/../MAVLink/common/./mavlink_msg_para_roll_pid.h ****     packet.I_Min = I_Min;
 140:Service/../MAVLink/common/./mavlink_msg_para_roll_pid.h ****     packet.gain_D = gain_D;
 141:Service/../MAVLink/common/./mavlink_msg_para_roll_pid.h **** 
 142:Service/../MAVLink/common/./mavlink_msg_para_roll_pid.h ****         memcpy(_MAV_PAYLOAD_NON_CONST(msg), &packet, MAVLINK_MSG_ID_Para_Roll_PID_LEN);
 143:Service/../MAVLink/common/./mavlink_msg_para_roll_pid.h **** #endif
 144:Service/../MAVLink/common/./mavlink_msg_para_roll_pid.h **** 
 145:Service/../MAVLink/common/./mavlink_msg_para_roll_pid.h ****     msg->msgid = MAVLINK_MSG_ID_Para_Roll_PID;
 146:Service/../MAVLink/common/./mavlink_msg_para_roll_pid.h ****     return mavlink_finalize_message_chan(msg, system_id, component_id, chan, MAVLINK_MSG_ID_Para_Ro
ARM GAS  C:\Users\8bit\AppData\Local\Temp\ccCRhmZR.s 			page 106


 147:Service/../MAVLink/common/./mavlink_msg_para_roll_pid.h **** }
 148:Service/../MAVLink/common/./mavlink_msg_para_roll_pid.h **** 
 149:Service/../MAVLink/common/./mavlink_msg_para_roll_pid.h **** /**
 150:Service/../MAVLink/common/./mavlink_msg_para_roll_pid.h ****  * @brief Encode a para_roll_pid struct
 151:Service/../MAVLink/common/./mavlink_msg_para_roll_pid.h ****  *
 152:Service/../MAVLink/common/./mavlink_msg_para_roll_pid.h ****  * @param system_id ID of this system
 153:Service/../MAVLink/common/./mavlink_msg_para_roll_pid.h ****  * @param component_id ID of this component (e.g. 200 for IMU)
 154:Service/../MAVLink/common/./mavlink_msg_para_roll_pid.h ****  * @param msg The MAVLink message to compress the data into
 155:Service/../MAVLink/common/./mavlink_msg_para_roll_pid.h ****  * @param para_roll_pid C-struct to read the message contents from
 156:Service/../MAVLink/common/./mavlink_msg_para_roll_pid.h ****  */
 157:Service/../MAVLink/common/./mavlink_msg_para_roll_pid.h **** static inline uint16_t mavlink_msg_para_roll_pid_encode(uint8_t system_id, uint8_t component_id, ma
 158:Service/../MAVLink/common/./mavlink_msg_para_roll_pid.h **** {
 159:Service/../MAVLink/common/./mavlink_msg_para_roll_pid.h ****     return mavlink_msg_para_roll_pid_pack(system_id, component_id, msg, para_roll_pid->gain_p, para
 160:Service/../MAVLink/common/./mavlink_msg_para_roll_pid.h **** }
 161:Service/../MAVLink/common/./mavlink_msg_para_roll_pid.h **** 
 162:Service/../MAVLink/common/./mavlink_msg_para_roll_pid.h **** /**
 163:Service/../MAVLink/common/./mavlink_msg_para_roll_pid.h ****  * @brief Encode a para_roll_pid struct on a channel
 164:Service/../MAVLink/common/./mavlink_msg_para_roll_pid.h ****  *
 165:Service/../MAVLink/common/./mavlink_msg_para_roll_pid.h ****  * @param system_id ID of this system
 166:Service/../MAVLink/common/./mavlink_msg_para_roll_pid.h ****  * @param component_id ID of this component (e.g. 200 for IMU)
 167:Service/../MAVLink/common/./mavlink_msg_para_roll_pid.h ****  * @param chan The MAVLink channel this message will be sent over
 168:Service/../MAVLink/common/./mavlink_msg_para_roll_pid.h ****  * @param msg The MAVLink message to compress the data into
 169:Service/../MAVLink/common/./mavlink_msg_para_roll_pid.h ****  * @param para_roll_pid C-struct to read the message contents from
 170:Service/../MAVLink/common/./mavlink_msg_para_roll_pid.h ****  */
 171:Service/../MAVLink/common/./mavlink_msg_para_roll_pid.h **** static inline uint16_t mavlink_msg_para_roll_pid_encode_chan(uint8_t system_id, uint8_t component_i
 172:Service/../MAVLink/common/./mavlink_msg_para_roll_pid.h **** {
 173:Service/../MAVLink/common/./mavlink_msg_para_roll_pid.h ****     return mavlink_msg_para_roll_pid_pack_chan(system_id, component_id, chan, msg, para_roll_pid->g
 174:Service/../MAVLink/common/./mavlink_msg_para_roll_pid.h **** }
 175:Service/../MAVLink/common/./mavlink_msg_para_roll_pid.h **** 
 176:Service/../MAVLink/common/./mavlink_msg_para_roll_pid.h **** /**
 177:Service/../MAVLink/common/./mavlink_msg_para_roll_pid.h ****  * @brief Send a para_roll_pid message
 178:Service/../MAVLink/common/./mavlink_msg_para_roll_pid.h ****  * @param chan MAVLink channel to send the message
 179:Service/../MAVLink/common/./mavlink_msg_para_roll_pid.h ****  *
 180:Service/../MAVLink/common/./mavlink_msg_para_roll_pid.h ****  * @param gain_p   Gain P 
 181:Service/../MAVLink/common/./mavlink_msg_para_roll_pid.h ****  * @param p_diff_max   P Diff Max 
 182:Service/../MAVLink/common/./mavlink_msg_para_roll_pid.h ****  * @param p_diff_min   P Diff Min 
 183:Service/../MAVLink/common/./mavlink_msg_para_roll_pid.h ****  * @param gain_I   Gain I 
 184:Service/../MAVLink/common/./mavlink_msg_para_roll_pid.h ****  * @param I_Max   I Max 
 185:Service/../MAVLink/common/./mavlink_msg_para_roll_pid.h ****  * @param I_Min   I Min 
 186:Service/../MAVLink/common/./mavlink_msg_para_roll_pid.h ****  * @param gain_D   Gain D 
 187:Service/../MAVLink/common/./mavlink_msg_para_roll_pid.h ****  */
 188:Service/../MAVLink/common/./mavlink_msg_para_roll_pid.h **** #ifdef MAVLINK_USE_CONVENIENCE_FUNCTIONS
 189:Service/../MAVLink/common/./mavlink_msg_para_roll_pid.h **** 
 190:Service/../MAVLink/common/./mavlink_msg_para_roll_pid.h **** static inline void mavlink_msg_para_roll_pid_send(mavlink_channel_t chan, float gain_p, float p_dif
 191:Service/../MAVLink/common/./mavlink_msg_para_roll_pid.h **** {
 192:Service/../MAVLink/common/./mavlink_msg_para_roll_pid.h **** #if MAVLINK_NEED_BYTE_SWAP || !MAVLINK_ALIGNED_FIELDS
 193:Service/../MAVLink/common/./mavlink_msg_para_roll_pid.h ****     char buf[MAVLINK_MSG_ID_Para_Roll_PID_LEN];
 194:Service/../MAVLink/common/./mavlink_msg_para_roll_pid.h ****     _mav_put_float(buf, 0, gain_p);
 195:Service/../MAVLink/common/./mavlink_msg_para_roll_pid.h ****     _mav_put_float(buf, 4, p_diff_max);
 196:Service/../MAVLink/common/./mavlink_msg_para_roll_pid.h ****     _mav_put_float(buf, 8, p_diff_min);
 197:Service/../MAVLink/common/./mavlink_msg_para_roll_pid.h ****     _mav_put_float(buf, 12, gain_I);
 198:Service/../MAVLink/common/./mavlink_msg_para_roll_pid.h ****     _mav_put_float(buf, 16, I_Max);
 199:Service/../MAVLink/common/./mavlink_msg_para_roll_pid.h ****     _mav_put_float(buf, 20, I_Min);
 200:Service/../MAVLink/common/./mavlink_msg_para_roll_pid.h ****     _mav_put_float(buf, 24, gain_D);
 201:Service/../MAVLink/common/./mavlink_msg_para_roll_pid.h **** 
 202:Service/../MAVLink/common/./mavlink_msg_para_roll_pid.h ****     _mav_finalize_message_chan_send(chan, MAVLINK_MSG_ID_Para_Roll_PID, buf, MAVLINK_MSG_ID_Para_Ro
 203:Service/../MAVLink/common/./mavlink_msg_para_roll_pid.h **** #else
ARM GAS  C:\Users\8bit\AppData\Local\Temp\ccCRhmZR.s 			page 107


 204:Service/../MAVLink/common/./mavlink_msg_para_roll_pid.h ****     mavlink_para_roll_pid_t packet;
 205:Service/../MAVLink/common/./mavlink_msg_para_roll_pid.h ****     packet.gain_p = gain_p;
 206:Service/../MAVLink/common/./mavlink_msg_para_roll_pid.h ****     packet.p_diff_max = p_diff_max;
 207:Service/../MAVLink/common/./mavlink_msg_para_roll_pid.h ****     packet.p_diff_min = p_diff_min;
 208:Service/../MAVLink/common/./mavlink_msg_para_roll_pid.h ****     packet.gain_I = gain_I;
 209:Service/../MAVLink/common/./mavlink_msg_para_roll_pid.h ****     packet.I_Max = I_Max;
 210:Service/../MAVLink/common/./mavlink_msg_para_roll_pid.h ****     packet.I_Min = I_Min;
 211:Service/../MAVLink/common/./mavlink_msg_para_roll_pid.h ****     packet.gain_D = gain_D;
 212:Service/../MAVLink/common/./mavlink_msg_para_roll_pid.h **** 
 213:Service/../MAVLink/common/./mavlink_msg_para_roll_pid.h ****     _mav_finalize_message_chan_send(chan, MAVLINK_MSG_ID_Para_Roll_PID, (const char *)&packet, MAVL
 214:Service/../MAVLink/common/./mavlink_msg_para_roll_pid.h **** #endif
 215:Service/../MAVLink/common/./mavlink_msg_para_roll_pid.h **** }
 216:Service/../MAVLink/common/./mavlink_msg_para_roll_pid.h **** 
 217:Service/../MAVLink/common/./mavlink_msg_para_roll_pid.h **** /**
 218:Service/../MAVLink/common/./mavlink_msg_para_roll_pid.h ****  * @brief Send a para_roll_pid message
 219:Service/../MAVLink/common/./mavlink_msg_para_roll_pid.h ****  * @param chan MAVLink channel to send the message
 220:Service/../MAVLink/common/./mavlink_msg_para_roll_pid.h ****  * @param struct The MAVLink struct to serialize
 221:Service/../MAVLink/common/./mavlink_msg_para_roll_pid.h ****  */
 222:Service/../MAVLink/common/./mavlink_msg_para_roll_pid.h **** static inline void mavlink_msg_para_roll_pid_send_struct(mavlink_channel_t chan, const mavlink_para
 223:Service/../MAVLink/common/./mavlink_msg_para_roll_pid.h **** {
 224:Service/../MAVLink/common/./mavlink_msg_para_roll_pid.h **** #if MAVLINK_NEED_BYTE_SWAP || !MAVLINK_ALIGNED_FIELDS
 225:Service/../MAVLink/common/./mavlink_msg_para_roll_pid.h ****     mavlink_msg_para_roll_pid_send(chan, para_roll_pid->gain_p, para_roll_pid->p_diff_max, para_rol
 226:Service/../MAVLink/common/./mavlink_msg_para_roll_pid.h **** #else
 227:Service/../MAVLink/common/./mavlink_msg_para_roll_pid.h ****     _mav_finalize_message_chan_send(chan, MAVLINK_MSG_ID_Para_Roll_PID, (const char *)para_roll_pid
 228:Service/../MAVLink/common/./mavlink_msg_para_roll_pid.h **** #endif
 229:Service/../MAVLink/common/./mavlink_msg_para_roll_pid.h **** }
 230:Service/../MAVLink/common/./mavlink_msg_para_roll_pid.h **** 
 231:Service/../MAVLink/common/./mavlink_msg_para_roll_pid.h **** #if MAVLINK_MSG_ID_Para_Roll_PID_LEN <= MAVLINK_MAX_PAYLOAD_LEN
 232:Service/../MAVLink/common/./mavlink_msg_para_roll_pid.h **** /*
 233:Service/../MAVLink/common/./mavlink_msg_para_roll_pid.h ****   This variant of _send() can be used to save stack space by re-using
 234:Service/../MAVLink/common/./mavlink_msg_para_roll_pid.h ****   memory from the receive buffer.  The caller provides a
 235:Service/../MAVLink/common/./mavlink_msg_para_roll_pid.h ****   mavlink_message_t which is the size of a full mavlink message. This
 236:Service/../MAVLink/common/./mavlink_msg_para_roll_pid.h ****   is usually the receive buffer for the channel, and allows a reply to an
 237:Service/../MAVLink/common/./mavlink_msg_para_roll_pid.h ****   incoming message with minimum stack space usage.
 238:Service/../MAVLink/common/./mavlink_msg_para_roll_pid.h ****  */
 239:Service/../MAVLink/common/./mavlink_msg_para_roll_pid.h **** static inline void mavlink_msg_para_roll_pid_send_buf(mavlink_message_t *msgbuf, mavlink_channel_t 
 240:Service/../MAVLink/common/./mavlink_msg_para_roll_pid.h **** {
 241:Service/../MAVLink/common/./mavlink_msg_para_roll_pid.h **** #if MAVLINK_NEED_BYTE_SWAP || !MAVLINK_ALIGNED_FIELDS
 242:Service/../MAVLink/common/./mavlink_msg_para_roll_pid.h ****     char *buf = (char *)msgbuf;
 243:Service/../MAVLink/common/./mavlink_msg_para_roll_pid.h ****     _mav_put_float(buf, 0, gain_p);
 244:Service/../MAVLink/common/./mavlink_msg_para_roll_pid.h ****     _mav_put_float(buf, 4, p_diff_max);
 245:Service/../MAVLink/common/./mavlink_msg_para_roll_pid.h ****     _mav_put_float(buf, 8, p_diff_min);
 246:Service/../MAVLink/common/./mavlink_msg_para_roll_pid.h ****     _mav_put_float(buf, 12, gain_I);
 247:Service/../MAVLink/common/./mavlink_msg_para_roll_pid.h ****     _mav_put_float(buf, 16, I_Max);
 248:Service/../MAVLink/common/./mavlink_msg_para_roll_pid.h ****     _mav_put_float(buf, 20, I_Min);
 249:Service/../MAVLink/common/./mavlink_msg_para_roll_pid.h ****     _mav_put_float(buf, 24, gain_D);
 250:Service/../MAVLink/common/./mavlink_msg_para_roll_pid.h **** 
 251:Service/../MAVLink/common/./mavlink_msg_para_roll_pid.h ****     _mav_finalize_message_chan_send(chan, MAVLINK_MSG_ID_Para_Roll_PID, buf, MAVLINK_MSG_ID_Para_Ro
 252:Service/../MAVLink/common/./mavlink_msg_para_roll_pid.h **** #else
 253:Service/../MAVLink/common/./mavlink_msg_para_roll_pid.h ****     mavlink_para_roll_pid_t *packet = (mavlink_para_roll_pid_t *)msgbuf;
 254:Service/../MAVLink/common/./mavlink_msg_para_roll_pid.h ****     packet->gain_p = gain_p;
 255:Service/../MAVLink/common/./mavlink_msg_para_roll_pid.h ****     packet->p_diff_max = p_diff_max;
 256:Service/../MAVLink/common/./mavlink_msg_para_roll_pid.h ****     packet->p_diff_min = p_diff_min;
 257:Service/../MAVLink/common/./mavlink_msg_para_roll_pid.h ****     packet->gain_I = gain_I;
 258:Service/../MAVLink/common/./mavlink_msg_para_roll_pid.h ****     packet->I_Max = I_Max;
 259:Service/../MAVLink/common/./mavlink_msg_para_roll_pid.h ****     packet->I_Min = I_Min;
 260:Service/../MAVLink/common/./mavlink_msg_para_roll_pid.h ****     packet->gain_D = gain_D;
ARM GAS  C:\Users\8bit\AppData\Local\Temp\ccCRhmZR.s 			page 108


 261:Service/../MAVLink/common/./mavlink_msg_para_roll_pid.h **** 
 262:Service/../MAVLink/common/./mavlink_msg_para_roll_pid.h ****     _mav_finalize_message_chan_send(chan, MAVLINK_MSG_ID_Para_Roll_PID, (const char *)packet, MAVLI
 263:Service/../MAVLink/common/./mavlink_msg_para_roll_pid.h **** #endif
 264:Service/../MAVLink/common/./mavlink_msg_para_roll_pid.h **** }
 265:Service/../MAVLink/common/./mavlink_msg_para_roll_pid.h **** #endif
 266:Service/../MAVLink/common/./mavlink_msg_para_roll_pid.h **** 
 267:Service/../MAVLink/common/./mavlink_msg_para_roll_pid.h **** #endif
 268:Service/../MAVLink/common/./mavlink_msg_para_roll_pid.h **** 
 269:Service/../MAVLink/common/./mavlink_msg_para_roll_pid.h **** // MESSAGE Para_Roll_PID UNPACKING
 270:Service/../MAVLink/common/./mavlink_msg_para_roll_pid.h **** 
 271:Service/../MAVLink/common/./mavlink_msg_para_roll_pid.h **** 
 272:Service/../MAVLink/common/./mavlink_msg_para_roll_pid.h **** /**
 273:Service/../MAVLink/common/./mavlink_msg_para_roll_pid.h ****  * @brief Get field gain_p from para_roll_pid message
 274:Service/../MAVLink/common/./mavlink_msg_para_roll_pid.h ****  *
 275:Service/../MAVLink/common/./mavlink_msg_para_roll_pid.h ****  * @return   Gain P 
 276:Service/../MAVLink/common/./mavlink_msg_para_roll_pid.h ****  */
 277:Service/../MAVLink/common/./mavlink_msg_para_roll_pid.h **** static inline float mavlink_msg_para_roll_pid_get_gain_p(const mavlink_message_t* msg)
 278:Service/../MAVLink/common/./mavlink_msg_para_roll_pid.h **** {
 279:Service/../MAVLink/common/./mavlink_msg_para_roll_pid.h ****     return _MAV_RETURN_float(msg,  0);
 280:Service/../MAVLink/common/./mavlink_msg_para_roll_pid.h **** }
 281:Service/../MAVLink/common/./mavlink_msg_para_roll_pid.h **** 
 282:Service/../MAVLink/common/./mavlink_msg_para_roll_pid.h **** /**
 283:Service/../MAVLink/common/./mavlink_msg_para_roll_pid.h ****  * @brief Get field p_diff_max from para_roll_pid message
 284:Service/../MAVLink/common/./mavlink_msg_para_roll_pid.h ****  *
 285:Service/../MAVLink/common/./mavlink_msg_para_roll_pid.h ****  * @return   P Diff Max 
 286:Service/../MAVLink/common/./mavlink_msg_para_roll_pid.h ****  */
 287:Service/../MAVLink/common/./mavlink_msg_para_roll_pid.h **** static inline float mavlink_msg_para_roll_pid_get_p_diff_max(const mavlink_message_t* msg)
 288:Service/../MAVLink/common/./mavlink_msg_para_roll_pid.h **** {
 289:Service/../MAVLink/common/./mavlink_msg_para_roll_pid.h ****     return _MAV_RETURN_float(msg,  4);
 290:Service/../MAVLink/common/./mavlink_msg_para_roll_pid.h **** }
 291:Service/../MAVLink/common/./mavlink_msg_para_roll_pid.h **** 
 292:Service/../MAVLink/common/./mavlink_msg_para_roll_pid.h **** /**
 293:Service/../MAVLink/common/./mavlink_msg_para_roll_pid.h ****  * @brief Get field p_diff_min from para_roll_pid message
 294:Service/../MAVLink/common/./mavlink_msg_para_roll_pid.h ****  *
 295:Service/../MAVLink/common/./mavlink_msg_para_roll_pid.h ****  * @return   P Diff Min 
 296:Service/../MAVLink/common/./mavlink_msg_para_roll_pid.h ****  */
 297:Service/../MAVLink/common/./mavlink_msg_para_roll_pid.h **** static inline float mavlink_msg_para_roll_pid_get_p_diff_min(const mavlink_message_t* msg)
 298:Service/../MAVLink/common/./mavlink_msg_para_roll_pid.h **** {
 299:Service/../MAVLink/common/./mavlink_msg_para_roll_pid.h ****     return _MAV_RETURN_float(msg,  8);
 300:Service/../MAVLink/common/./mavlink_msg_para_roll_pid.h **** }
 301:Service/../MAVLink/common/./mavlink_msg_para_roll_pid.h **** 
 302:Service/../MAVLink/common/./mavlink_msg_para_roll_pid.h **** /**
 303:Service/../MAVLink/common/./mavlink_msg_para_roll_pid.h ****  * @brief Get field gain_I from para_roll_pid message
 304:Service/../MAVLink/common/./mavlink_msg_para_roll_pid.h ****  *
 305:Service/../MAVLink/common/./mavlink_msg_para_roll_pid.h ****  * @return   Gain I 
 306:Service/../MAVLink/common/./mavlink_msg_para_roll_pid.h ****  */
 307:Service/../MAVLink/common/./mavlink_msg_para_roll_pid.h **** static inline float mavlink_msg_para_roll_pid_get_gain_I(const mavlink_message_t* msg)
 308:Service/../MAVLink/common/./mavlink_msg_para_roll_pid.h **** {
 309:Service/../MAVLink/common/./mavlink_msg_para_roll_pid.h ****     return _MAV_RETURN_float(msg,  12);
 310:Service/../MAVLink/common/./mavlink_msg_para_roll_pid.h **** }
 311:Service/../MAVLink/common/./mavlink_msg_para_roll_pid.h **** 
 312:Service/../MAVLink/common/./mavlink_msg_para_roll_pid.h **** /**
 313:Service/../MAVLink/common/./mavlink_msg_para_roll_pid.h ****  * @brief Get field I_Max from para_roll_pid message
 314:Service/../MAVLink/common/./mavlink_msg_para_roll_pid.h ****  *
 315:Service/../MAVLink/common/./mavlink_msg_para_roll_pid.h ****  * @return   I Max 
 316:Service/../MAVLink/common/./mavlink_msg_para_roll_pid.h ****  */
 317:Service/../MAVLink/common/./mavlink_msg_para_roll_pid.h **** static inline float mavlink_msg_para_roll_pid_get_I_Max(const mavlink_message_t* msg)
ARM GAS  C:\Users\8bit\AppData\Local\Temp\ccCRhmZR.s 			page 109


 318:Service/../MAVLink/common/./mavlink_msg_para_roll_pid.h **** {
 319:Service/../MAVLink/common/./mavlink_msg_para_roll_pid.h ****     return _MAV_RETURN_float(msg,  16);
 320:Service/../MAVLink/common/./mavlink_msg_para_roll_pid.h **** }
 321:Service/../MAVLink/common/./mavlink_msg_para_roll_pid.h **** 
 322:Service/../MAVLink/common/./mavlink_msg_para_roll_pid.h **** /**
 323:Service/../MAVLink/common/./mavlink_msg_para_roll_pid.h ****  * @brief Get field I_Min from para_roll_pid message
 324:Service/../MAVLink/common/./mavlink_msg_para_roll_pid.h ****  *
 325:Service/../MAVLink/common/./mavlink_msg_para_roll_pid.h ****  * @return   I Min 
 326:Service/../MAVLink/common/./mavlink_msg_para_roll_pid.h ****  */
 327:Service/../MAVLink/common/./mavlink_msg_para_roll_pid.h **** static inline float mavlink_msg_para_roll_pid_get_I_Min(const mavlink_message_t* msg)
 328:Service/../MAVLink/common/./mavlink_msg_para_roll_pid.h **** {
 329:Service/../MAVLink/common/./mavlink_msg_para_roll_pid.h ****     return _MAV_RETURN_float(msg,  20);
 330:Service/../MAVLink/common/./mavlink_msg_para_roll_pid.h **** }
 331:Service/../MAVLink/common/./mavlink_msg_para_roll_pid.h **** 
 332:Service/../MAVLink/common/./mavlink_msg_para_roll_pid.h **** /**
 333:Service/../MAVLink/common/./mavlink_msg_para_roll_pid.h ****  * @brief Get field gain_D from para_roll_pid message
 334:Service/../MAVLink/common/./mavlink_msg_para_roll_pid.h ****  *
 335:Service/../MAVLink/common/./mavlink_msg_para_roll_pid.h ****  * @return   Gain D 
 336:Service/../MAVLink/common/./mavlink_msg_para_roll_pid.h ****  */
 337:Service/../MAVLink/common/./mavlink_msg_para_roll_pid.h **** static inline float mavlink_msg_para_roll_pid_get_gain_D(const mavlink_message_t* msg)
 338:Service/../MAVLink/common/./mavlink_msg_para_roll_pid.h **** {
 339:Service/../MAVLink/common/./mavlink_msg_para_roll_pid.h ****     return _MAV_RETURN_float(msg,  24);
 340:Service/../MAVLink/common/./mavlink_msg_para_roll_pid.h **** }
 341:Service/../MAVLink/common/./mavlink_msg_para_roll_pid.h **** 
 342:Service/../MAVLink/common/./mavlink_msg_para_roll_pid.h **** /**
 343:Service/../MAVLink/common/./mavlink_msg_para_roll_pid.h ****  * @brief Decode a para_roll_pid message into a struct
 344:Service/../MAVLink/common/./mavlink_msg_para_roll_pid.h ****  *
 345:Service/../MAVLink/common/./mavlink_msg_para_roll_pid.h ****  * @param msg The message to decode
 346:Service/../MAVLink/common/./mavlink_msg_para_roll_pid.h ****  * @param para_roll_pid C-struct to decode the message contents into
 347:Service/../MAVLink/common/./mavlink_msg_para_roll_pid.h ****  */
 348:Service/../MAVLink/common/./mavlink_msg_para_roll_pid.h **** static inline void mavlink_msg_para_roll_pid_decode(const mavlink_message_t* msg, mavlink_para_roll
 1620              		.loc 11 348 20 view .LVU410
 1621              	.LBB80:
 349:Service/../MAVLink/common/./mavlink_msg_para_roll_pid.h **** {
 350:Service/../MAVLink/common/./mavlink_msg_para_roll_pid.h **** #if MAVLINK_NEED_BYTE_SWAP || !MAVLINK_ALIGNED_FIELDS
 351:Service/../MAVLink/common/./mavlink_msg_para_roll_pid.h ****     para_roll_pid->gain_p = mavlink_msg_para_roll_pid_get_gain_p(msg);
 352:Service/../MAVLink/common/./mavlink_msg_para_roll_pid.h ****     para_roll_pid->p_diff_max = mavlink_msg_para_roll_pid_get_p_diff_max(msg);
 353:Service/../MAVLink/common/./mavlink_msg_para_roll_pid.h ****     para_roll_pid->p_diff_min = mavlink_msg_para_roll_pid_get_p_diff_min(msg);
 354:Service/../MAVLink/common/./mavlink_msg_para_roll_pid.h ****     para_roll_pid->gain_I = mavlink_msg_para_roll_pid_get_gain_I(msg);
 355:Service/../MAVLink/common/./mavlink_msg_para_roll_pid.h ****     para_roll_pid->I_Max = mavlink_msg_para_roll_pid_get_I_Max(msg);
 356:Service/../MAVLink/common/./mavlink_msg_para_roll_pid.h ****     para_roll_pid->I_Min = mavlink_msg_para_roll_pid_get_I_Min(msg);
 357:Service/../MAVLink/common/./mavlink_msg_para_roll_pid.h ****     para_roll_pid->gain_D = mavlink_msg_para_roll_pid_get_gain_D(msg);
 358:Service/../MAVLink/common/./mavlink_msg_para_roll_pid.h **** #else
 359:Service/../MAVLink/common/./mavlink_msg_para_roll_pid.h ****         uint8_t len = msg->len < MAVLINK_MSG_ID_Para_Roll_PID_LEN? msg->len : MAVLINK_MSG_ID_Para_R
 1622              		.loc 11 359 9 view .LVU411
 1623              		.loc 11 359 26 is_stmt 0 view .LVU412
 1624 0028 9DF82F20 		ldrb	r2, [sp, #47]	@ zero_extendqisi2
 1625              	.LVL111:
 360:Service/../MAVLink/common/./mavlink_msg_para_roll_pid.h ****         memset(para_roll_pid, 0, MAVLINK_MSG_ID_Para_Roll_PID_LEN);
 1626              		.loc 11 360 9 is_stmt 1 view .LVU413
 361:Service/../MAVLink/common/./mavlink_msg_para_roll_pid.h ****     memcpy(para_roll_pid, _MAV_PAYLOAD(msg), len);
 1627              		.loc 11 361 5 view .LVU414
 1628 002c 1C2A     		cmp	r2, #28
 1629 002e 28BF     		it	cs
 1630 0030 1C22     		movcs	r2, #28
 1631              	.LVL112:
 1632              		.loc 11 361 5 is_stmt 0 view .LVU415
ARM GAS  C:\Users\8bit\AppData\Local\Temp\ccCRhmZR.s 			page 110


 1633 0032 0DA9     		add	r1, sp, #52
 1634 0034 01A8     		add	r0, sp, #4
 1635 0036 FFF7FEFF 		bl	memcpy
 1636              	.LVL113:
 1637              		.loc 11 361 5 view .LVU416
 1638              	.LBE80:
 1639              	.LBE79:
 501:Service/Srv_ComProto.c ****     
 502:Service/Srv_ComProto.c ****         if (obj->MavMsg_PIDPara_Roll_Callback)
 1640              		.loc 1 502 9 is_stmt 1 view .LVU417
 1641              		.loc 1 502 16 is_stmt 0 view .LVU418
 1642 003a D4F88430 		ldr	r3, [r4, #132]
 1643              		.loc 1 502 12 view .LVU419
 1644 003e 4BB1     		cbz	r3, .L94
 503:Service/Srv_ComProto.c ****             return obj->MavMsg_PIDPara_Roll_Callback(&msg_pid_para_roll, obj->cus_p_pidpara_roll);
 1645              		.loc 1 503 13 is_stmt 1 view .LVU420
 1646              		.loc 1 503 20 is_stmt 0 view .LVU421
 1647 0040 A16A     		ldr	r1, [r4, #40]
 1648 0042 01A8     		add	r0, sp, #4
 1649 0044 9847     		blx	r3
 1650              	.LVL114:
 1651 0046 00E0     		b	.L92
 1652              	.LVL115:
 1653              	.L93:
 504:Service/Srv_ComProto.c ****     }
 505:Service/Srv_ComProto.c **** 
 506:Service/Srv_ComProto.c ****     return false;
 1654              		.loc 1 506 12 view .LVU422
 1655 0048 0020     		movs	r0, #0
 1656              	.LVL116:
 1657              	.L92:
 507:Service/Srv_ComProto.c **** }
 1658              		.loc 1 507 1 view .LVU423
 1659 004a 08B0     		add	sp, sp, #32
 1660              	.LCFI66:
 1661              		.cfi_remember_state
 1662              		.cfi_def_cfa_offset 24
 1663              		@ sp needed
 1664 004c BDE81040 		pop	{r4, lr}
 1665              	.LCFI67:
 1666              		.cfi_restore 14
 1667              		.cfi_restore 4
 1668              		.cfi_def_cfa_offset 16
 1669 0050 04B0     		add	sp, sp, #16
 1670              	.LCFI68:
 1671              		.cfi_def_cfa_offset 0
 1672 0052 7047     		bx	lr
 1673              	.LVL117:
 1674              	.L94:
 1675              	.LCFI69:
 1676              		.cfi_restore_state
 506:Service/Srv_ComProto.c **** }
 1677              		.loc 1 506 12 view .LVU424
 1678 0054 0020     		movs	r0, #0
 1679 0056 F8E7     		b	.L92
 1680              		.cfi_endproc
 1681              	.LFE2095:
ARM GAS  C:\Users\8bit\AppData\Local\Temp\ccCRhmZR.s 			page 111


 1683              		.section	.text.SrvComProto_MavMsg_Decode_PIDPara_Pitch,"ax",%progbits
 1684              		.align	1
 1685              		.syntax unified
 1686              		.thumb
 1687              		.thumb_func
 1689              	SrvComProto_MavMsg_Decode_PIDPara_Pitch:
 1690              	.LVL118:
 1691              	.LFB2096:
 508:Service/Srv_ComProto.c **** 
 509:Service/Srv_ComProto.c **** static bool SrvComProto_MavMsg_Decode_PIDPara_Pitch(SrvComProto_MsgObj_TypeDef *obj, const mavlink_
 510:Service/Srv_ComProto.c **** {
 1692              		.loc 1 510 1 is_stmt 1 view -0
 1693              		.cfi_startproc
 1694              		@ args = 276, pretend = 16, frame = 32
 1695              		@ frame_needed = 0, uses_anonymous_args = 0
 1696              		.loc 1 510 1 is_stmt 0 view .LVU426
 1697 0000 84B0     		sub	sp, sp, #16
 1698              	.LCFI70:
 1699              		.cfi_def_cfa_offset 16
 1700 0002 10B5     		push	{r4, lr}
 1701              	.LCFI71:
 1702              		.cfi_def_cfa_offset 24
 1703              		.cfi_offset 4, -24
 1704              		.cfi_offset 14, -20
 1705 0004 88B0     		sub	sp, sp, #32
 1706              	.LCFI72:
 1707              		.cfi_def_cfa_offset 56
 1708 0006 0DF12C0C 		add	ip, sp, #44
 1709 000a 8CE80E00 		stm	ip, {r1, r2, r3}
 511:Service/Srv_ComProto.c ****     mavlink_para_pitch_pid_t msg_pid_para_pitch;
 1710              		.loc 1 511 5 is_stmt 1 view .LVU427
 512:Service/Srv_ComProto.c **** 
 513:Service/Srv_ComProto.c ****     if (obj)
 1711              		.loc 1 513 5 view .LVU428
 1712              		.loc 1 513 8 is_stmt 0 view .LVU429
 1713 000e D8B1     		cbz	r0, .L98
 1714 0010 0446     		mov	r4, r0
 514:Service/Srv_ComProto.c ****     {
 515:Service/Srv_ComProto.c ****         obj->PID_Para_Pitch_Cnt ++;
 1715              		.loc 1 515 9 is_stmt 1 view .LVU430
 1716              		.loc 1 515 12 is_stmt 0 view .LVU431
 1717 0012 C36D     		ldr	r3, [r0, #92]
 1718              		.loc 1 515 33 view .LVU432
 1719 0014 0133     		adds	r3, r3, #1
 1720 0016 C365     		str	r3, [r0, #92]
 516:Service/Srv_ComProto.c **** 
 517:Service/Srv_ComProto.c ****         memset(&msg_pid_para_pitch, 0, sizeof(mavlink_para_pitch_pid_t));
 1721              		.loc 1 517 9 is_stmt 1 view .LVU433
 1722 0018 0023     		movs	r3, #0
 1723 001a 0193     		str	r3, [sp, #4]
 1724 001c 0293     		str	r3, [sp, #8]
 1725 001e 0393     		str	r3, [sp, #12]
 1726 0020 0493     		str	r3, [sp, #16]
 1727 0022 0593     		str	r3, [sp, #20]
 1728 0024 0693     		str	r3, [sp, #24]
 1729 0026 0793     		str	r3, [sp, #28]
 518:Service/Srv_ComProto.c ****         mavlink_msg_para_pitch_pid_decode(&msg, &msg_pid_para_pitch);
ARM GAS  C:\Users\8bit\AppData\Local\Temp\ccCRhmZR.s 			page 112


 1730              		.loc 1 518 9 view .LVU434
 1731              	.LVL119:
 1732              	.LBB83:
 1733              	.LBI83:
 1734              		.file 12 "Service/../MAVLink/common/./mavlink_msg_para_pitch_pid.h"
   1:Service/../MAVLink/common/./mavlink_msg_para_pitch_pid.h **** #pragma once
   2:Service/../MAVLink/common/./mavlink_msg_para_pitch_pid.h **** // MESSAGE Para_Pitch_PID PACKING
   3:Service/../MAVLink/common/./mavlink_msg_para_pitch_pid.h **** 
   4:Service/../MAVLink/common/./mavlink_msg_para_pitch_pid.h **** #define MAVLINK_MSG_ID_Para_Pitch_PID 219
   5:Service/../MAVLink/common/./mavlink_msg_para_pitch_pid.h **** 
   6:Service/../MAVLink/common/./mavlink_msg_para_pitch_pid.h **** 
   7:Service/../MAVLink/common/./mavlink_msg_para_pitch_pid.h **** typedef struct __mavlink_para_pitch_pid_t {
   8:Service/../MAVLink/common/./mavlink_msg_para_pitch_pid.h ****  float gain_p; /*<   Gain P */
   9:Service/../MAVLink/common/./mavlink_msg_para_pitch_pid.h ****  float p_diff_max; /*<   P Diff Max */
  10:Service/../MAVLink/common/./mavlink_msg_para_pitch_pid.h ****  float p_diff_min; /*<   P Diff Min */
  11:Service/../MAVLink/common/./mavlink_msg_para_pitch_pid.h ****  float gain_I; /*<   Gain I */
  12:Service/../MAVLink/common/./mavlink_msg_para_pitch_pid.h ****  float I_Max; /*<   I Max */
  13:Service/../MAVLink/common/./mavlink_msg_para_pitch_pid.h ****  float I_Min; /*<   I Min */
  14:Service/../MAVLink/common/./mavlink_msg_para_pitch_pid.h ****  float gain_D; /*<   Gain D */
  15:Service/../MAVLink/common/./mavlink_msg_para_pitch_pid.h **** } mavlink_para_pitch_pid_t;
  16:Service/../MAVLink/common/./mavlink_msg_para_pitch_pid.h **** 
  17:Service/../MAVLink/common/./mavlink_msg_para_pitch_pid.h **** #define MAVLINK_MSG_ID_Para_Pitch_PID_LEN 28
  18:Service/../MAVLink/common/./mavlink_msg_para_pitch_pid.h **** #define MAVLINK_MSG_ID_Para_Pitch_PID_MIN_LEN 28
  19:Service/../MAVLink/common/./mavlink_msg_para_pitch_pid.h **** #define MAVLINK_MSG_ID_219_LEN 28
  20:Service/../MAVLink/common/./mavlink_msg_para_pitch_pid.h **** #define MAVLINK_MSG_ID_219_MIN_LEN 28
  21:Service/../MAVLink/common/./mavlink_msg_para_pitch_pid.h **** 
  22:Service/../MAVLink/common/./mavlink_msg_para_pitch_pid.h **** #define MAVLINK_MSG_ID_Para_Pitch_PID_CRC 88
  23:Service/../MAVLink/common/./mavlink_msg_para_pitch_pid.h **** #define MAVLINK_MSG_ID_219_CRC 88
  24:Service/../MAVLink/common/./mavlink_msg_para_pitch_pid.h **** 
  25:Service/../MAVLink/common/./mavlink_msg_para_pitch_pid.h **** 
  26:Service/../MAVLink/common/./mavlink_msg_para_pitch_pid.h **** 
  27:Service/../MAVLink/common/./mavlink_msg_para_pitch_pid.h **** #if MAVLINK_COMMAND_24BIT
  28:Service/../MAVLink/common/./mavlink_msg_para_pitch_pid.h **** #define MAVLINK_MESSAGE_INFO_Para_Pitch_PID { \
  29:Service/../MAVLink/common/./mavlink_msg_para_pitch_pid.h ****     219, \
  30:Service/../MAVLink/common/./mavlink_msg_para_pitch_pid.h ****     "Para_Pitch_PID", \
  31:Service/../MAVLink/common/./mavlink_msg_para_pitch_pid.h ****     7, \
  32:Service/../MAVLink/common/./mavlink_msg_para_pitch_pid.h ****     {  { "gain_p", NULL, MAVLINK_TYPE_FLOAT, 0, 0, offsetof(mavlink_para_pitch_pid_t, gain_p) }, \
  33:Service/../MAVLink/common/./mavlink_msg_para_pitch_pid.h ****          { "p_diff_max", NULL, MAVLINK_TYPE_FLOAT, 0, 4, offsetof(mavlink_para_pitch_pid_t, p_diff_
  34:Service/../MAVLink/common/./mavlink_msg_para_pitch_pid.h ****          { "p_diff_min", NULL, MAVLINK_TYPE_FLOAT, 0, 8, offsetof(mavlink_para_pitch_pid_t, p_diff_
  35:Service/../MAVLink/common/./mavlink_msg_para_pitch_pid.h ****          { "gain_I", NULL, MAVLINK_TYPE_FLOAT, 0, 12, offsetof(mavlink_para_pitch_pid_t, gain_I) },
  36:Service/../MAVLink/common/./mavlink_msg_para_pitch_pid.h ****          { "I_Max", NULL, MAVLINK_TYPE_FLOAT, 0, 16, offsetof(mavlink_para_pitch_pid_t, I_Max) }, \
  37:Service/../MAVLink/common/./mavlink_msg_para_pitch_pid.h ****          { "I_Min", NULL, MAVLINK_TYPE_FLOAT, 0, 20, offsetof(mavlink_para_pitch_pid_t, I_Min) }, \
  38:Service/../MAVLink/common/./mavlink_msg_para_pitch_pid.h ****          { "gain_D", NULL, MAVLINK_TYPE_FLOAT, 0, 24, offsetof(mavlink_para_pitch_pid_t, gain_D) },
  39:Service/../MAVLink/common/./mavlink_msg_para_pitch_pid.h ****          } \
  40:Service/../MAVLink/common/./mavlink_msg_para_pitch_pid.h **** }
  41:Service/../MAVLink/common/./mavlink_msg_para_pitch_pid.h **** #else
  42:Service/../MAVLink/common/./mavlink_msg_para_pitch_pid.h **** #define MAVLINK_MESSAGE_INFO_Para_Pitch_PID { \
  43:Service/../MAVLink/common/./mavlink_msg_para_pitch_pid.h ****     "Para_Pitch_PID", \
  44:Service/../MAVLink/common/./mavlink_msg_para_pitch_pid.h ****     7, \
  45:Service/../MAVLink/common/./mavlink_msg_para_pitch_pid.h ****     {  { "gain_p", NULL, MAVLINK_TYPE_FLOAT, 0, 0, offsetof(mavlink_para_pitch_pid_t, gain_p) }, \
  46:Service/../MAVLink/common/./mavlink_msg_para_pitch_pid.h ****          { "p_diff_max", NULL, MAVLINK_TYPE_FLOAT, 0, 4, offsetof(mavlink_para_pitch_pid_t, p_diff_
  47:Service/../MAVLink/common/./mavlink_msg_para_pitch_pid.h ****          { "p_diff_min", NULL, MAVLINK_TYPE_FLOAT, 0, 8, offsetof(mavlink_para_pitch_pid_t, p_diff_
  48:Service/../MAVLink/common/./mavlink_msg_para_pitch_pid.h ****          { "gain_I", NULL, MAVLINK_TYPE_FLOAT, 0, 12, offsetof(mavlink_para_pitch_pid_t, gain_I) },
  49:Service/../MAVLink/common/./mavlink_msg_para_pitch_pid.h ****          { "I_Max", NULL, MAVLINK_TYPE_FLOAT, 0, 16, offsetof(mavlink_para_pitch_pid_t, I_Max) }, \
  50:Service/../MAVLink/common/./mavlink_msg_para_pitch_pid.h ****          { "I_Min", NULL, MAVLINK_TYPE_FLOAT, 0, 20, offsetof(mavlink_para_pitch_pid_t, I_Min) }, \
  51:Service/../MAVLink/common/./mavlink_msg_para_pitch_pid.h ****          { "gain_D", NULL, MAVLINK_TYPE_FLOAT, 0, 24, offsetof(mavlink_para_pitch_pid_t, gain_D) },
  52:Service/../MAVLink/common/./mavlink_msg_para_pitch_pid.h ****          } \
ARM GAS  C:\Users\8bit\AppData\Local\Temp\ccCRhmZR.s 			page 113


  53:Service/../MAVLink/common/./mavlink_msg_para_pitch_pid.h **** }
  54:Service/../MAVLink/common/./mavlink_msg_para_pitch_pid.h **** #endif
  55:Service/../MAVLink/common/./mavlink_msg_para_pitch_pid.h **** 
  56:Service/../MAVLink/common/./mavlink_msg_para_pitch_pid.h **** /**
  57:Service/../MAVLink/common/./mavlink_msg_para_pitch_pid.h ****  * @brief Pack a para_pitch_pid message
  58:Service/../MAVLink/common/./mavlink_msg_para_pitch_pid.h ****  * @param system_id ID of this system
  59:Service/../MAVLink/common/./mavlink_msg_para_pitch_pid.h ****  * @param component_id ID of this component (e.g. 200 for IMU)
  60:Service/../MAVLink/common/./mavlink_msg_para_pitch_pid.h ****  * @param msg The MAVLink message to compress the data into
  61:Service/../MAVLink/common/./mavlink_msg_para_pitch_pid.h ****  *
  62:Service/../MAVLink/common/./mavlink_msg_para_pitch_pid.h ****  * @param gain_p   Gain P 
  63:Service/../MAVLink/common/./mavlink_msg_para_pitch_pid.h ****  * @param p_diff_max   P Diff Max 
  64:Service/../MAVLink/common/./mavlink_msg_para_pitch_pid.h ****  * @param p_diff_min   P Diff Min 
  65:Service/../MAVLink/common/./mavlink_msg_para_pitch_pid.h ****  * @param gain_I   Gain I 
  66:Service/../MAVLink/common/./mavlink_msg_para_pitch_pid.h ****  * @param I_Max   I Max 
  67:Service/../MAVLink/common/./mavlink_msg_para_pitch_pid.h ****  * @param I_Min   I Min 
  68:Service/../MAVLink/common/./mavlink_msg_para_pitch_pid.h ****  * @param gain_D   Gain D 
  69:Service/../MAVLink/common/./mavlink_msg_para_pitch_pid.h ****  * @return length of the message in bytes (excluding serial stream start sign)
  70:Service/../MAVLink/common/./mavlink_msg_para_pitch_pid.h ****  */
  71:Service/../MAVLink/common/./mavlink_msg_para_pitch_pid.h **** static inline uint16_t mavlink_msg_para_pitch_pid_pack(uint8_t system_id, uint8_t component_id, mav
  72:Service/../MAVLink/common/./mavlink_msg_para_pitch_pid.h ****                                float gain_p, float p_diff_max, float p_diff_min, float gain_I, floa
  73:Service/../MAVLink/common/./mavlink_msg_para_pitch_pid.h **** {
  74:Service/../MAVLink/common/./mavlink_msg_para_pitch_pid.h **** #if MAVLINK_NEED_BYTE_SWAP || !MAVLINK_ALIGNED_FIELDS
  75:Service/../MAVLink/common/./mavlink_msg_para_pitch_pid.h ****     char buf[MAVLINK_MSG_ID_Para_Pitch_PID_LEN];
  76:Service/../MAVLink/common/./mavlink_msg_para_pitch_pid.h ****     _mav_put_float(buf, 0, gain_p);
  77:Service/../MAVLink/common/./mavlink_msg_para_pitch_pid.h ****     _mav_put_float(buf, 4, p_diff_max);
  78:Service/../MAVLink/common/./mavlink_msg_para_pitch_pid.h ****     _mav_put_float(buf, 8, p_diff_min);
  79:Service/../MAVLink/common/./mavlink_msg_para_pitch_pid.h ****     _mav_put_float(buf, 12, gain_I);
  80:Service/../MAVLink/common/./mavlink_msg_para_pitch_pid.h ****     _mav_put_float(buf, 16, I_Max);
  81:Service/../MAVLink/common/./mavlink_msg_para_pitch_pid.h ****     _mav_put_float(buf, 20, I_Min);
  82:Service/../MAVLink/common/./mavlink_msg_para_pitch_pid.h ****     _mav_put_float(buf, 24, gain_D);
  83:Service/../MAVLink/common/./mavlink_msg_para_pitch_pid.h **** 
  84:Service/../MAVLink/common/./mavlink_msg_para_pitch_pid.h ****         memcpy(_MAV_PAYLOAD_NON_CONST(msg), buf, MAVLINK_MSG_ID_Para_Pitch_PID_LEN);
  85:Service/../MAVLink/common/./mavlink_msg_para_pitch_pid.h **** #else
  86:Service/../MAVLink/common/./mavlink_msg_para_pitch_pid.h ****     mavlink_para_pitch_pid_t packet;
  87:Service/../MAVLink/common/./mavlink_msg_para_pitch_pid.h ****     packet.gain_p = gain_p;
  88:Service/../MAVLink/common/./mavlink_msg_para_pitch_pid.h ****     packet.p_diff_max = p_diff_max;
  89:Service/../MAVLink/common/./mavlink_msg_para_pitch_pid.h ****     packet.p_diff_min = p_diff_min;
  90:Service/../MAVLink/common/./mavlink_msg_para_pitch_pid.h ****     packet.gain_I = gain_I;
  91:Service/../MAVLink/common/./mavlink_msg_para_pitch_pid.h ****     packet.I_Max = I_Max;
  92:Service/../MAVLink/common/./mavlink_msg_para_pitch_pid.h ****     packet.I_Min = I_Min;
  93:Service/../MAVLink/common/./mavlink_msg_para_pitch_pid.h ****     packet.gain_D = gain_D;
  94:Service/../MAVLink/common/./mavlink_msg_para_pitch_pid.h **** 
  95:Service/../MAVLink/common/./mavlink_msg_para_pitch_pid.h ****         memcpy(_MAV_PAYLOAD_NON_CONST(msg), &packet, MAVLINK_MSG_ID_Para_Pitch_PID_LEN);
  96:Service/../MAVLink/common/./mavlink_msg_para_pitch_pid.h **** #endif
  97:Service/../MAVLink/common/./mavlink_msg_para_pitch_pid.h **** 
  98:Service/../MAVLink/common/./mavlink_msg_para_pitch_pid.h ****     msg->msgid = MAVLINK_MSG_ID_Para_Pitch_PID;
  99:Service/../MAVLink/common/./mavlink_msg_para_pitch_pid.h ****     return mavlink_finalize_message(msg, system_id, component_id, MAVLINK_MSG_ID_Para_Pitch_PID_MIN
 100:Service/../MAVLink/common/./mavlink_msg_para_pitch_pid.h **** }
 101:Service/../MAVLink/common/./mavlink_msg_para_pitch_pid.h **** 
 102:Service/../MAVLink/common/./mavlink_msg_para_pitch_pid.h **** /**
 103:Service/../MAVLink/common/./mavlink_msg_para_pitch_pid.h ****  * @brief Pack a para_pitch_pid message on a channel
 104:Service/../MAVLink/common/./mavlink_msg_para_pitch_pid.h ****  * @param system_id ID of this system
 105:Service/../MAVLink/common/./mavlink_msg_para_pitch_pid.h ****  * @param component_id ID of this component (e.g. 200 for IMU)
 106:Service/../MAVLink/common/./mavlink_msg_para_pitch_pid.h ****  * @param chan The MAVLink channel this message will be sent over
 107:Service/../MAVLink/common/./mavlink_msg_para_pitch_pid.h ****  * @param msg The MAVLink message to compress the data into
 108:Service/../MAVLink/common/./mavlink_msg_para_pitch_pid.h ****  * @param gain_p   Gain P 
 109:Service/../MAVLink/common/./mavlink_msg_para_pitch_pid.h ****  * @param p_diff_max   P Diff Max 
ARM GAS  C:\Users\8bit\AppData\Local\Temp\ccCRhmZR.s 			page 114


 110:Service/../MAVLink/common/./mavlink_msg_para_pitch_pid.h ****  * @param p_diff_min   P Diff Min 
 111:Service/../MAVLink/common/./mavlink_msg_para_pitch_pid.h ****  * @param gain_I   Gain I 
 112:Service/../MAVLink/common/./mavlink_msg_para_pitch_pid.h ****  * @param I_Max   I Max 
 113:Service/../MAVLink/common/./mavlink_msg_para_pitch_pid.h ****  * @param I_Min   I Min 
 114:Service/../MAVLink/common/./mavlink_msg_para_pitch_pid.h ****  * @param gain_D   Gain D 
 115:Service/../MAVLink/common/./mavlink_msg_para_pitch_pid.h ****  * @return length of the message in bytes (excluding serial stream start sign)
 116:Service/../MAVLink/common/./mavlink_msg_para_pitch_pid.h ****  */
 117:Service/../MAVLink/common/./mavlink_msg_para_pitch_pid.h **** static inline uint16_t mavlink_msg_para_pitch_pid_pack_chan(uint8_t system_id, uint8_t component_id
 118:Service/../MAVLink/common/./mavlink_msg_para_pitch_pid.h ****                                mavlink_message_t* msg,
 119:Service/../MAVLink/common/./mavlink_msg_para_pitch_pid.h ****                                    float gain_p,float p_diff_max,float p_diff_min,float gain_I,floa
 120:Service/../MAVLink/common/./mavlink_msg_para_pitch_pid.h **** {
 121:Service/../MAVLink/common/./mavlink_msg_para_pitch_pid.h **** #if MAVLINK_NEED_BYTE_SWAP || !MAVLINK_ALIGNED_FIELDS
 122:Service/../MAVLink/common/./mavlink_msg_para_pitch_pid.h ****     char buf[MAVLINK_MSG_ID_Para_Pitch_PID_LEN];
 123:Service/../MAVLink/common/./mavlink_msg_para_pitch_pid.h ****     _mav_put_float(buf, 0, gain_p);
 124:Service/../MAVLink/common/./mavlink_msg_para_pitch_pid.h ****     _mav_put_float(buf, 4, p_diff_max);
 125:Service/../MAVLink/common/./mavlink_msg_para_pitch_pid.h ****     _mav_put_float(buf, 8, p_diff_min);
 126:Service/../MAVLink/common/./mavlink_msg_para_pitch_pid.h ****     _mav_put_float(buf, 12, gain_I);
 127:Service/../MAVLink/common/./mavlink_msg_para_pitch_pid.h ****     _mav_put_float(buf, 16, I_Max);
 128:Service/../MAVLink/common/./mavlink_msg_para_pitch_pid.h ****     _mav_put_float(buf, 20, I_Min);
 129:Service/../MAVLink/common/./mavlink_msg_para_pitch_pid.h ****     _mav_put_float(buf, 24, gain_D);
 130:Service/../MAVLink/common/./mavlink_msg_para_pitch_pid.h **** 
 131:Service/../MAVLink/common/./mavlink_msg_para_pitch_pid.h ****         memcpy(_MAV_PAYLOAD_NON_CONST(msg), buf, MAVLINK_MSG_ID_Para_Pitch_PID_LEN);
 132:Service/../MAVLink/common/./mavlink_msg_para_pitch_pid.h **** #else
 133:Service/../MAVLink/common/./mavlink_msg_para_pitch_pid.h ****     mavlink_para_pitch_pid_t packet;
 134:Service/../MAVLink/common/./mavlink_msg_para_pitch_pid.h ****     packet.gain_p = gain_p;
 135:Service/../MAVLink/common/./mavlink_msg_para_pitch_pid.h ****     packet.p_diff_max = p_diff_max;
 136:Service/../MAVLink/common/./mavlink_msg_para_pitch_pid.h ****     packet.p_diff_min = p_diff_min;
 137:Service/../MAVLink/common/./mavlink_msg_para_pitch_pid.h ****     packet.gain_I = gain_I;
 138:Service/../MAVLink/common/./mavlink_msg_para_pitch_pid.h ****     packet.I_Max = I_Max;
 139:Service/../MAVLink/common/./mavlink_msg_para_pitch_pid.h ****     packet.I_Min = I_Min;
 140:Service/../MAVLink/common/./mavlink_msg_para_pitch_pid.h ****     packet.gain_D = gain_D;
 141:Service/../MAVLink/common/./mavlink_msg_para_pitch_pid.h **** 
 142:Service/../MAVLink/common/./mavlink_msg_para_pitch_pid.h ****         memcpy(_MAV_PAYLOAD_NON_CONST(msg), &packet, MAVLINK_MSG_ID_Para_Pitch_PID_LEN);
 143:Service/../MAVLink/common/./mavlink_msg_para_pitch_pid.h **** #endif
 144:Service/../MAVLink/common/./mavlink_msg_para_pitch_pid.h **** 
 145:Service/../MAVLink/common/./mavlink_msg_para_pitch_pid.h ****     msg->msgid = MAVLINK_MSG_ID_Para_Pitch_PID;
 146:Service/../MAVLink/common/./mavlink_msg_para_pitch_pid.h ****     return mavlink_finalize_message_chan(msg, system_id, component_id, chan, MAVLINK_MSG_ID_Para_Pi
 147:Service/../MAVLink/common/./mavlink_msg_para_pitch_pid.h **** }
 148:Service/../MAVLink/common/./mavlink_msg_para_pitch_pid.h **** 
 149:Service/../MAVLink/common/./mavlink_msg_para_pitch_pid.h **** /**
 150:Service/../MAVLink/common/./mavlink_msg_para_pitch_pid.h ****  * @brief Encode a para_pitch_pid struct
 151:Service/../MAVLink/common/./mavlink_msg_para_pitch_pid.h ****  *
 152:Service/../MAVLink/common/./mavlink_msg_para_pitch_pid.h ****  * @param system_id ID of this system
 153:Service/../MAVLink/common/./mavlink_msg_para_pitch_pid.h ****  * @param component_id ID of this component (e.g. 200 for IMU)
 154:Service/../MAVLink/common/./mavlink_msg_para_pitch_pid.h ****  * @param msg The MAVLink message to compress the data into
 155:Service/../MAVLink/common/./mavlink_msg_para_pitch_pid.h ****  * @param para_pitch_pid C-struct to read the message contents from
 156:Service/../MAVLink/common/./mavlink_msg_para_pitch_pid.h ****  */
 157:Service/../MAVLink/common/./mavlink_msg_para_pitch_pid.h **** static inline uint16_t mavlink_msg_para_pitch_pid_encode(uint8_t system_id, uint8_t component_id, m
 158:Service/../MAVLink/common/./mavlink_msg_para_pitch_pid.h **** {
 159:Service/../MAVLink/common/./mavlink_msg_para_pitch_pid.h ****     return mavlink_msg_para_pitch_pid_pack(system_id, component_id, msg, para_pitch_pid->gain_p, pa
 160:Service/../MAVLink/common/./mavlink_msg_para_pitch_pid.h **** }
 161:Service/../MAVLink/common/./mavlink_msg_para_pitch_pid.h **** 
 162:Service/../MAVLink/common/./mavlink_msg_para_pitch_pid.h **** /**
 163:Service/../MAVLink/common/./mavlink_msg_para_pitch_pid.h ****  * @brief Encode a para_pitch_pid struct on a channel
 164:Service/../MAVLink/common/./mavlink_msg_para_pitch_pid.h ****  *
 165:Service/../MAVLink/common/./mavlink_msg_para_pitch_pid.h ****  * @param system_id ID of this system
 166:Service/../MAVLink/common/./mavlink_msg_para_pitch_pid.h ****  * @param component_id ID of this component (e.g. 200 for IMU)
ARM GAS  C:\Users\8bit\AppData\Local\Temp\ccCRhmZR.s 			page 115


 167:Service/../MAVLink/common/./mavlink_msg_para_pitch_pid.h ****  * @param chan The MAVLink channel this message will be sent over
 168:Service/../MAVLink/common/./mavlink_msg_para_pitch_pid.h ****  * @param msg The MAVLink message to compress the data into
 169:Service/../MAVLink/common/./mavlink_msg_para_pitch_pid.h ****  * @param para_pitch_pid C-struct to read the message contents from
 170:Service/../MAVLink/common/./mavlink_msg_para_pitch_pid.h ****  */
 171:Service/../MAVLink/common/./mavlink_msg_para_pitch_pid.h **** static inline uint16_t mavlink_msg_para_pitch_pid_encode_chan(uint8_t system_id, uint8_t component_
 172:Service/../MAVLink/common/./mavlink_msg_para_pitch_pid.h **** {
 173:Service/../MAVLink/common/./mavlink_msg_para_pitch_pid.h ****     return mavlink_msg_para_pitch_pid_pack_chan(system_id, component_id, chan, msg, para_pitch_pid-
 174:Service/../MAVLink/common/./mavlink_msg_para_pitch_pid.h **** }
 175:Service/../MAVLink/common/./mavlink_msg_para_pitch_pid.h **** 
 176:Service/../MAVLink/common/./mavlink_msg_para_pitch_pid.h **** /**
 177:Service/../MAVLink/common/./mavlink_msg_para_pitch_pid.h ****  * @brief Send a para_pitch_pid message
 178:Service/../MAVLink/common/./mavlink_msg_para_pitch_pid.h ****  * @param chan MAVLink channel to send the message
 179:Service/../MAVLink/common/./mavlink_msg_para_pitch_pid.h ****  *
 180:Service/../MAVLink/common/./mavlink_msg_para_pitch_pid.h ****  * @param gain_p   Gain P 
 181:Service/../MAVLink/common/./mavlink_msg_para_pitch_pid.h ****  * @param p_diff_max   P Diff Max 
 182:Service/../MAVLink/common/./mavlink_msg_para_pitch_pid.h ****  * @param p_diff_min   P Diff Min 
 183:Service/../MAVLink/common/./mavlink_msg_para_pitch_pid.h ****  * @param gain_I   Gain I 
 184:Service/../MAVLink/common/./mavlink_msg_para_pitch_pid.h ****  * @param I_Max   I Max 
 185:Service/../MAVLink/common/./mavlink_msg_para_pitch_pid.h ****  * @param I_Min   I Min 
 186:Service/../MAVLink/common/./mavlink_msg_para_pitch_pid.h ****  * @param gain_D   Gain D 
 187:Service/../MAVLink/common/./mavlink_msg_para_pitch_pid.h ****  */
 188:Service/../MAVLink/common/./mavlink_msg_para_pitch_pid.h **** #ifdef MAVLINK_USE_CONVENIENCE_FUNCTIONS
 189:Service/../MAVLink/common/./mavlink_msg_para_pitch_pid.h **** 
 190:Service/../MAVLink/common/./mavlink_msg_para_pitch_pid.h **** static inline void mavlink_msg_para_pitch_pid_send(mavlink_channel_t chan, float gain_p, float p_di
 191:Service/../MAVLink/common/./mavlink_msg_para_pitch_pid.h **** {
 192:Service/../MAVLink/common/./mavlink_msg_para_pitch_pid.h **** #if MAVLINK_NEED_BYTE_SWAP || !MAVLINK_ALIGNED_FIELDS
 193:Service/../MAVLink/common/./mavlink_msg_para_pitch_pid.h ****     char buf[MAVLINK_MSG_ID_Para_Pitch_PID_LEN];
 194:Service/../MAVLink/common/./mavlink_msg_para_pitch_pid.h ****     _mav_put_float(buf, 0, gain_p);
 195:Service/../MAVLink/common/./mavlink_msg_para_pitch_pid.h ****     _mav_put_float(buf, 4, p_diff_max);
 196:Service/../MAVLink/common/./mavlink_msg_para_pitch_pid.h ****     _mav_put_float(buf, 8, p_diff_min);
 197:Service/../MAVLink/common/./mavlink_msg_para_pitch_pid.h ****     _mav_put_float(buf, 12, gain_I);
 198:Service/../MAVLink/common/./mavlink_msg_para_pitch_pid.h ****     _mav_put_float(buf, 16, I_Max);
 199:Service/../MAVLink/common/./mavlink_msg_para_pitch_pid.h ****     _mav_put_float(buf, 20, I_Min);
 200:Service/../MAVLink/common/./mavlink_msg_para_pitch_pid.h ****     _mav_put_float(buf, 24, gain_D);
 201:Service/../MAVLink/common/./mavlink_msg_para_pitch_pid.h **** 
 202:Service/../MAVLink/common/./mavlink_msg_para_pitch_pid.h ****     _mav_finalize_message_chan_send(chan, MAVLINK_MSG_ID_Para_Pitch_PID, buf, MAVLINK_MSG_ID_Para_P
 203:Service/../MAVLink/common/./mavlink_msg_para_pitch_pid.h **** #else
 204:Service/../MAVLink/common/./mavlink_msg_para_pitch_pid.h ****     mavlink_para_pitch_pid_t packet;
 205:Service/../MAVLink/common/./mavlink_msg_para_pitch_pid.h ****     packet.gain_p = gain_p;
 206:Service/../MAVLink/common/./mavlink_msg_para_pitch_pid.h ****     packet.p_diff_max = p_diff_max;
 207:Service/../MAVLink/common/./mavlink_msg_para_pitch_pid.h ****     packet.p_diff_min = p_diff_min;
 208:Service/../MAVLink/common/./mavlink_msg_para_pitch_pid.h ****     packet.gain_I = gain_I;
 209:Service/../MAVLink/common/./mavlink_msg_para_pitch_pid.h ****     packet.I_Max = I_Max;
 210:Service/../MAVLink/common/./mavlink_msg_para_pitch_pid.h ****     packet.I_Min = I_Min;
 211:Service/../MAVLink/common/./mavlink_msg_para_pitch_pid.h ****     packet.gain_D = gain_D;
 212:Service/../MAVLink/common/./mavlink_msg_para_pitch_pid.h **** 
 213:Service/../MAVLink/common/./mavlink_msg_para_pitch_pid.h ****     _mav_finalize_message_chan_send(chan, MAVLINK_MSG_ID_Para_Pitch_PID, (const char *)&packet, MAV
 214:Service/../MAVLink/common/./mavlink_msg_para_pitch_pid.h **** #endif
 215:Service/../MAVLink/common/./mavlink_msg_para_pitch_pid.h **** }
 216:Service/../MAVLink/common/./mavlink_msg_para_pitch_pid.h **** 
 217:Service/../MAVLink/common/./mavlink_msg_para_pitch_pid.h **** /**
 218:Service/../MAVLink/common/./mavlink_msg_para_pitch_pid.h ****  * @brief Send a para_pitch_pid message
 219:Service/../MAVLink/common/./mavlink_msg_para_pitch_pid.h ****  * @param chan MAVLink channel to send the message
 220:Service/../MAVLink/common/./mavlink_msg_para_pitch_pid.h ****  * @param struct The MAVLink struct to serialize
 221:Service/../MAVLink/common/./mavlink_msg_para_pitch_pid.h ****  */
 222:Service/../MAVLink/common/./mavlink_msg_para_pitch_pid.h **** static inline void mavlink_msg_para_pitch_pid_send_struct(mavlink_channel_t chan, const mavlink_par
 223:Service/../MAVLink/common/./mavlink_msg_para_pitch_pid.h **** {
ARM GAS  C:\Users\8bit\AppData\Local\Temp\ccCRhmZR.s 			page 116


 224:Service/../MAVLink/common/./mavlink_msg_para_pitch_pid.h **** #if MAVLINK_NEED_BYTE_SWAP || !MAVLINK_ALIGNED_FIELDS
 225:Service/../MAVLink/common/./mavlink_msg_para_pitch_pid.h ****     mavlink_msg_para_pitch_pid_send(chan, para_pitch_pid->gain_p, para_pitch_pid->p_diff_max, para_
 226:Service/../MAVLink/common/./mavlink_msg_para_pitch_pid.h **** #else
 227:Service/../MAVLink/common/./mavlink_msg_para_pitch_pid.h ****     _mav_finalize_message_chan_send(chan, MAVLINK_MSG_ID_Para_Pitch_PID, (const char *)para_pitch_p
 228:Service/../MAVLink/common/./mavlink_msg_para_pitch_pid.h **** #endif
 229:Service/../MAVLink/common/./mavlink_msg_para_pitch_pid.h **** }
 230:Service/../MAVLink/common/./mavlink_msg_para_pitch_pid.h **** 
 231:Service/../MAVLink/common/./mavlink_msg_para_pitch_pid.h **** #if MAVLINK_MSG_ID_Para_Pitch_PID_LEN <= MAVLINK_MAX_PAYLOAD_LEN
 232:Service/../MAVLink/common/./mavlink_msg_para_pitch_pid.h **** /*
 233:Service/../MAVLink/common/./mavlink_msg_para_pitch_pid.h ****   This variant of _send() can be used to save stack space by re-using
 234:Service/../MAVLink/common/./mavlink_msg_para_pitch_pid.h ****   memory from the receive buffer.  The caller provides a
 235:Service/../MAVLink/common/./mavlink_msg_para_pitch_pid.h ****   mavlink_message_t which is the size of a full mavlink message. This
 236:Service/../MAVLink/common/./mavlink_msg_para_pitch_pid.h ****   is usually the receive buffer for the channel, and allows a reply to an
 237:Service/../MAVLink/common/./mavlink_msg_para_pitch_pid.h ****   incoming message with minimum stack space usage.
 238:Service/../MAVLink/common/./mavlink_msg_para_pitch_pid.h ****  */
 239:Service/../MAVLink/common/./mavlink_msg_para_pitch_pid.h **** static inline void mavlink_msg_para_pitch_pid_send_buf(mavlink_message_t *msgbuf, mavlink_channel_t
 240:Service/../MAVLink/common/./mavlink_msg_para_pitch_pid.h **** {
 241:Service/../MAVLink/common/./mavlink_msg_para_pitch_pid.h **** #if MAVLINK_NEED_BYTE_SWAP || !MAVLINK_ALIGNED_FIELDS
 242:Service/../MAVLink/common/./mavlink_msg_para_pitch_pid.h ****     char *buf = (char *)msgbuf;
 243:Service/../MAVLink/common/./mavlink_msg_para_pitch_pid.h ****     _mav_put_float(buf, 0, gain_p);
 244:Service/../MAVLink/common/./mavlink_msg_para_pitch_pid.h ****     _mav_put_float(buf, 4, p_diff_max);
 245:Service/../MAVLink/common/./mavlink_msg_para_pitch_pid.h ****     _mav_put_float(buf, 8, p_diff_min);
 246:Service/../MAVLink/common/./mavlink_msg_para_pitch_pid.h ****     _mav_put_float(buf, 12, gain_I);
 247:Service/../MAVLink/common/./mavlink_msg_para_pitch_pid.h ****     _mav_put_float(buf, 16, I_Max);
 248:Service/../MAVLink/common/./mavlink_msg_para_pitch_pid.h ****     _mav_put_float(buf, 20, I_Min);
 249:Service/../MAVLink/common/./mavlink_msg_para_pitch_pid.h ****     _mav_put_float(buf, 24, gain_D);
 250:Service/../MAVLink/common/./mavlink_msg_para_pitch_pid.h **** 
 251:Service/../MAVLink/common/./mavlink_msg_para_pitch_pid.h ****     _mav_finalize_message_chan_send(chan, MAVLINK_MSG_ID_Para_Pitch_PID, buf, MAVLINK_MSG_ID_Para_P
 252:Service/../MAVLink/common/./mavlink_msg_para_pitch_pid.h **** #else
 253:Service/../MAVLink/common/./mavlink_msg_para_pitch_pid.h ****     mavlink_para_pitch_pid_t *packet = (mavlink_para_pitch_pid_t *)msgbuf;
 254:Service/../MAVLink/common/./mavlink_msg_para_pitch_pid.h ****     packet->gain_p = gain_p;
 255:Service/../MAVLink/common/./mavlink_msg_para_pitch_pid.h ****     packet->p_diff_max = p_diff_max;
 256:Service/../MAVLink/common/./mavlink_msg_para_pitch_pid.h ****     packet->p_diff_min = p_diff_min;
 257:Service/../MAVLink/common/./mavlink_msg_para_pitch_pid.h ****     packet->gain_I = gain_I;
 258:Service/../MAVLink/common/./mavlink_msg_para_pitch_pid.h ****     packet->I_Max = I_Max;
 259:Service/../MAVLink/common/./mavlink_msg_para_pitch_pid.h ****     packet->I_Min = I_Min;
 260:Service/../MAVLink/common/./mavlink_msg_para_pitch_pid.h ****     packet->gain_D = gain_D;
 261:Service/../MAVLink/common/./mavlink_msg_para_pitch_pid.h **** 
 262:Service/../MAVLink/common/./mavlink_msg_para_pitch_pid.h ****     _mav_finalize_message_chan_send(chan, MAVLINK_MSG_ID_Para_Pitch_PID, (const char *)packet, MAVL
 263:Service/../MAVLink/common/./mavlink_msg_para_pitch_pid.h **** #endif
 264:Service/../MAVLink/common/./mavlink_msg_para_pitch_pid.h **** }
 265:Service/../MAVLink/common/./mavlink_msg_para_pitch_pid.h **** #endif
 266:Service/../MAVLink/common/./mavlink_msg_para_pitch_pid.h **** 
 267:Service/../MAVLink/common/./mavlink_msg_para_pitch_pid.h **** #endif
 268:Service/../MAVLink/common/./mavlink_msg_para_pitch_pid.h **** 
 269:Service/../MAVLink/common/./mavlink_msg_para_pitch_pid.h **** // MESSAGE Para_Pitch_PID UNPACKING
 270:Service/../MAVLink/common/./mavlink_msg_para_pitch_pid.h **** 
 271:Service/../MAVLink/common/./mavlink_msg_para_pitch_pid.h **** 
 272:Service/../MAVLink/common/./mavlink_msg_para_pitch_pid.h **** /**
 273:Service/../MAVLink/common/./mavlink_msg_para_pitch_pid.h ****  * @brief Get field gain_p from para_pitch_pid message
 274:Service/../MAVLink/common/./mavlink_msg_para_pitch_pid.h ****  *
 275:Service/../MAVLink/common/./mavlink_msg_para_pitch_pid.h ****  * @return   Gain P 
 276:Service/../MAVLink/common/./mavlink_msg_para_pitch_pid.h ****  */
 277:Service/../MAVLink/common/./mavlink_msg_para_pitch_pid.h **** static inline float mavlink_msg_para_pitch_pid_get_gain_p(const mavlink_message_t* msg)
 278:Service/../MAVLink/common/./mavlink_msg_para_pitch_pid.h **** {
 279:Service/../MAVLink/common/./mavlink_msg_para_pitch_pid.h ****     return _MAV_RETURN_float(msg,  0);
 280:Service/../MAVLink/common/./mavlink_msg_para_pitch_pid.h **** }
ARM GAS  C:\Users\8bit\AppData\Local\Temp\ccCRhmZR.s 			page 117


 281:Service/../MAVLink/common/./mavlink_msg_para_pitch_pid.h **** 
 282:Service/../MAVLink/common/./mavlink_msg_para_pitch_pid.h **** /**
 283:Service/../MAVLink/common/./mavlink_msg_para_pitch_pid.h ****  * @brief Get field p_diff_max from para_pitch_pid message
 284:Service/../MAVLink/common/./mavlink_msg_para_pitch_pid.h ****  *
 285:Service/../MAVLink/common/./mavlink_msg_para_pitch_pid.h ****  * @return   P Diff Max 
 286:Service/../MAVLink/common/./mavlink_msg_para_pitch_pid.h ****  */
 287:Service/../MAVLink/common/./mavlink_msg_para_pitch_pid.h **** static inline float mavlink_msg_para_pitch_pid_get_p_diff_max(const mavlink_message_t* msg)
 288:Service/../MAVLink/common/./mavlink_msg_para_pitch_pid.h **** {
 289:Service/../MAVLink/common/./mavlink_msg_para_pitch_pid.h ****     return _MAV_RETURN_float(msg,  4);
 290:Service/../MAVLink/common/./mavlink_msg_para_pitch_pid.h **** }
 291:Service/../MAVLink/common/./mavlink_msg_para_pitch_pid.h **** 
 292:Service/../MAVLink/common/./mavlink_msg_para_pitch_pid.h **** /**
 293:Service/../MAVLink/common/./mavlink_msg_para_pitch_pid.h ****  * @brief Get field p_diff_min from para_pitch_pid message
 294:Service/../MAVLink/common/./mavlink_msg_para_pitch_pid.h ****  *
 295:Service/../MAVLink/common/./mavlink_msg_para_pitch_pid.h ****  * @return   P Diff Min 
 296:Service/../MAVLink/common/./mavlink_msg_para_pitch_pid.h ****  */
 297:Service/../MAVLink/common/./mavlink_msg_para_pitch_pid.h **** static inline float mavlink_msg_para_pitch_pid_get_p_diff_min(const mavlink_message_t* msg)
 298:Service/../MAVLink/common/./mavlink_msg_para_pitch_pid.h **** {
 299:Service/../MAVLink/common/./mavlink_msg_para_pitch_pid.h ****     return _MAV_RETURN_float(msg,  8);
 300:Service/../MAVLink/common/./mavlink_msg_para_pitch_pid.h **** }
 301:Service/../MAVLink/common/./mavlink_msg_para_pitch_pid.h **** 
 302:Service/../MAVLink/common/./mavlink_msg_para_pitch_pid.h **** /**
 303:Service/../MAVLink/common/./mavlink_msg_para_pitch_pid.h ****  * @brief Get field gain_I from para_pitch_pid message
 304:Service/../MAVLink/common/./mavlink_msg_para_pitch_pid.h ****  *
 305:Service/../MAVLink/common/./mavlink_msg_para_pitch_pid.h ****  * @return   Gain I 
 306:Service/../MAVLink/common/./mavlink_msg_para_pitch_pid.h ****  */
 307:Service/../MAVLink/common/./mavlink_msg_para_pitch_pid.h **** static inline float mavlink_msg_para_pitch_pid_get_gain_I(const mavlink_message_t* msg)
 308:Service/../MAVLink/common/./mavlink_msg_para_pitch_pid.h **** {
 309:Service/../MAVLink/common/./mavlink_msg_para_pitch_pid.h ****     return _MAV_RETURN_float(msg,  12);
 310:Service/../MAVLink/common/./mavlink_msg_para_pitch_pid.h **** }
 311:Service/../MAVLink/common/./mavlink_msg_para_pitch_pid.h **** 
 312:Service/../MAVLink/common/./mavlink_msg_para_pitch_pid.h **** /**
 313:Service/../MAVLink/common/./mavlink_msg_para_pitch_pid.h ****  * @brief Get field I_Max from para_pitch_pid message
 314:Service/../MAVLink/common/./mavlink_msg_para_pitch_pid.h ****  *
 315:Service/../MAVLink/common/./mavlink_msg_para_pitch_pid.h ****  * @return   I Max 
 316:Service/../MAVLink/common/./mavlink_msg_para_pitch_pid.h ****  */
 317:Service/../MAVLink/common/./mavlink_msg_para_pitch_pid.h **** static inline float mavlink_msg_para_pitch_pid_get_I_Max(const mavlink_message_t* msg)
 318:Service/../MAVLink/common/./mavlink_msg_para_pitch_pid.h **** {
 319:Service/../MAVLink/common/./mavlink_msg_para_pitch_pid.h ****     return _MAV_RETURN_float(msg,  16);
 320:Service/../MAVLink/common/./mavlink_msg_para_pitch_pid.h **** }
 321:Service/../MAVLink/common/./mavlink_msg_para_pitch_pid.h **** 
 322:Service/../MAVLink/common/./mavlink_msg_para_pitch_pid.h **** /**
 323:Service/../MAVLink/common/./mavlink_msg_para_pitch_pid.h ****  * @brief Get field I_Min from para_pitch_pid message
 324:Service/../MAVLink/common/./mavlink_msg_para_pitch_pid.h ****  *
 325:Service/../MAVLink/common/./mavlink_msg_para_pitch_pid.h ****  * @return   I Min 
 326:Service/../MAVLink/common/./mavlink_msg_para_pitch_pid.h ****  */
 327:Service/../MAVLink/common/./mavlink_msg_para_pitch_pid.h **** static inline float mavlink_msg_para_pitch_pid_get_I_Min(const mavlink_message_t* msg)
 328:Service/../MAVLink/common/./mavlink_msg_para_pitch_pid.h **** {
 329:Service/../MAVLink/common/./mavlink_msg_para_pitch_pid.h ****     return _MAV_RETURN_float(msg,  20);
 330:Service/../MAVLink/common/./mavlink_msg_para_pitch_pid.h **** }
 331:Service/../MAVLink/common/./mavlink_msg_para_pitch_pid.h **** 
 332:Service/../MAVLink/common/./mavlink_msg_para_pitch_pid.h **** /**
 333:Service/../MAVLink/common/./mavlink_msg_para_pitch_pid.h ****  * @brief Get field gain_D from para_pitch_pid message
 334:Service/../MAVLink/common/./mavlink_msg_para_pitch_pid.h ****  *
 335:Service/../MAVLink/common/./mavlink_msg_para_pitch_pid.h ****  * @return   Gain D 
 336:Service/../MAVLink/common/./mavlink_msg_para_pitch_pid.h ****  */
 337:Service/../MAVLink/common/./mavlink_msg_para_pitch_pid.h **** static inline float mavlink_msg_para_pitch_pid_get_gain_D(const mavlink_message_t* msg)
ARM GAS  C:\Users\8bit\AppData\Local\Temp\ccCRhmZR.s 			page 118


 338:Service/../MAVLink/common/./mavlink_msg_para_pitch_pid.h **** {
 339:Service/../MAVLink/common/./mavlink_msg_para_pitch_pid.h ****     return _MAV_RETURN_float(msg,  24);
 340:Service/../MAVLink/common/./mavlink_msg_para_pitch_pid.h **** }
 341:Service/../MAVLink/common/./mavlink_msg_para_pitch_pid.h **** 
 342:Service/../MAVLink/common/./mavlink_msg_para_pitch_pid.h **** /**
 343:Service/../MAVLink/common/./mavlink_msg_para_pitch_pid.h ****  * @brief Decode a para_pitch_pid message into a struct
 344:Service/../MAVLink/common/./mavlink_msg_para_pitch_pid.h ****  *
 345:Service/../MAVLink/common/./mavlink_msg_para_pitch_pid.h ****  * @param msg The message to decode
 346:Service/../MAVLink/common/./mavlink_msg_para_pitch_pid.h ****  * @param para_pitch_pid C-struct to decode the message contents into
 347:Service/../MAVLink/common/./mavlink_msg_para_pitch_pid.h ****  */
 348:Service/../MAVLink/common/./mavlink_msg_para_pitch_pid.h **** static inline void mavlink_msg_para_pitch_pid_decode(const mavlink_message_t* msg, mavlink_para_pit
 1735              		.loc 12 348 20 view .LVU435
 1736              	.LBB84:
 349:Service/../MAVLink/common/./mavlink_msg_para_pitch_pid.h **** {
 350:Service/../MAVLink/common/./mavlink_msg_para_pitch_pid.h **** #if MAVLINK_NEED_BYTE_SWAP || !MAVLINK_ALIGNED_FIELDS
 351:Service/../MAVLink/common/./mavlink_msg_para_pitch_pid.h ****     para_pitch_pid->gain_p = mavlink_msg_para_pitch_pid_get_gain_p(msg);
 352:Service/../MAVLink/common/./mavlink_msg_para_pitch_pid.h ****     para_pitch_pid->p_diff_max = mavlink_msg_para_pitch_pid_get_p_diff_max(msg);
 353:Service/../MAVLink/common/./mavlink_msg_para_pitch_pid.h ****     para_pitch_pid->p_diff_min = mavlink_msg_para_pitch_pid_get_p_diff_min(msg);
 354:Service/../MAVLink/common/./mavlink_msg_para_pitch_pid.h ****     para_pitch_pid->gain_I = mavlink_msg_para_pitch_pid_get_gain_I(msg);
 355:Service/../MAVLink/common/./mavlink_msg_para_pitch_pid.h ****     para_pitch_pid->I_Max = mavlink_msg_para_pitch_pid_get_I_Max(msg);
 356:Service/../MAVLink/common/./mavlink_msg_para_pitch_pid.h ****     para_pitch_pid->I_Min = mavlink_msg_para_pitch_pid_get_I_Min(msg);
 357:Service/../MAVLink/common/./mavlink_msg_para_pitch_pid.h ****     para_pitch_pid->gain_D = mavlink_msg_para_pitch_pid_get_gain_D(msg);
 358:Service/../MAVLink/common/./mavlink_msg_para_pitch_pid.h **** #else
 359:Service/../MAVLink/common/./mavlink_msg_para_pitch_pid.h ****         uint8_t len = msg->len < MAVLINK_MSG_ID_Para_Pitch_PID_LEN? msg->len : MAVLINK_MSG_ID_Para_
 1737              		.loc 12 359 9 view .LVU436
 1738              		.loc 12 359 26 is_stmt 0 view .LVU437
 1739 0028 9DF82F20 		ldrb	r2, [sp, #47]	@ zero_extendqisi2
 1740              	.LVL120:
 360:Service/../MAVLink/common/./mavlink_msg_para_pitch_pid.h ****         memset(para_pitch_pid, 0, MAVLINK_MSG_ID_Para_Pitch_PID_LEN);
 1741              		.loc 12 360 9 is_stmt 1 view .LVU438
 361:Service/../MAVLink/common/./mavlink_msg_para_pitch_pid.h ****     memcpy(para_pitch_pid, _MAV_PAYLOAD(msg), len);
 1742              		.loc 12 361 5 view .LVU439
 1743 002c 1C2A     		cmp	r2, #28
 1744 002e 28BF     		it	cs
 1745 0030 1C22     		movcs	r2, #28
 1746              	.LVL121:
 1747              		.loc 12 361 5 is_stmt 0 view .LVU440
 1748 0032 0DA9     		add	r1, sp, #52
 1749 0034 01A8     		add	r0, sp, #4
 1750 0036 FFF7FEFF 		bl	memcpy
 1751              	.LVL122:
 1752              		.loc 12 361 5 view .LVU441
 1753              	.LBE84:
 1754              	.LBE83:
 519:Service/Srv_ComProto.c **** 
 520:Service/Srv_ComProto.c ****         if (obj->MavMsg_PIDPara_Pitch_Callback)
 1755              		.loc 1 520 9 is_stmt 1 view .LVU442
 1756              		.loc 1 520 16 is_stmt 0 view .LVU443
 1757 003a D4F88830 		ldr	r3, [r4, #136]
 1758              		.loc 1 520 12 view .LVU444
 1759 003e 4BB1     		cbz	r3, .L99
 521:Service/Srv_ComProto.c ****             return obj->MavMsg_PIDPara_Pitch_Callback(&msg_pid_para_pitch, obj->cus_p_pidpara_pitch
 1760              		.loc 1 521 13 is_stmt 1 view .LVU445
 1761              		.loc 1 521 20 is_stmt 0 view .LVU446
 1762 0040 E16A     		ldr	r1, [r4, #44]
 1763 0042 01A8     		add	r0, sp, #4
 1764 0044 9847     		blx	r3
ARM GAS  C:\Users\8bit\AppData\Local\Temp\ccCRhmZR.s 			page 119


 1765              	.LVL123:
 1766 0046 00E0     		b	.L97
 1767              	.LVL124:
 1768              	.L98:
 522:Service/Srv_ComProto.c ****     }
 523:Service/Srv_ComProto.c **** 
 524:Service/Srv_ComProto.c ****     return false;
 1769              		.loc 1 524 12 view .LVU447
 1770 0048 0020     		movs	r0, #0
 1771              	.LVL125:
 1772              	.L97:
 525:Service/Srv_ComProto.c **** }
 1773              		.loc 1 525 1 view .LVU448
 1774 004a 08B0     		add	sp, sp, #32
 1775              	.LCFI73:
 1776              		.cfi_remember_state
 1777              		.cfi_def_cfa_offset 24
 1778              		@ sp needed
 1779 004c BDE81040 		pop	{r4, lr}
 1780              	.LCFI74:
 1781              		.cfi_restore 14
 1782              		.cfi_restore 4
 1783              		.cfi_def_cfa_offset 16
 1784 0050 04B0     		add	sp, sp, #16
 1785              	.LCFI75:
 1786              		.cfi_def_cfa_offset 0
 1787 0052 7047     		bx	lr
 1788              	.LVL126:
 1789              	.L99:
 1790              	.LCFI76:
 1791              		.cfi_restore_state
 524:Service/Srv_ComProto.c **** }
 1792              		.loc 1 524 12 view .LVU449
 1793 0054 0020     		movs	r0, #0
 1794 0056 F8E7     		b	.L97
 1795              		.cfi_endproc
 1796              	.LFE2096:
 1798              		.section	.text.SrvComProto_MavMsg_Scaled_IMU,"ax",%progbits
 1799              		.align	1
 1800              		.syntax unified
 1801              		.thumb
 1802              		.thumb_func
 1804              	SrvComProto_MavMsg_Scaled_IMU:
 1805              	.LVL127:
 1806              	.LFB2080:
 216:Service/Srv_ComProto.c ****     uint32_t time_stamp = 0;
 1807              		.loc 1 216 1 is_stmt 1 view -0
 1808              		.cfi_startproc
 1809              		@ args = 0, pretend = 0, frame = 72
 1810              		@ frame_needed = 0, uses_anonymous_args = 0
 216:Service/Srv_ComProto.c ****     uint32_t time_stamp = 0;
 1811              		.loc 1 216 1 is_stmt 0 view .LVU451
 1812 0000 F0B5     		push	{r4, r5, r6, r7, lr}
 1813              	.LCFI77:
 1814              		.cfi_def_cfa_offset 20
 1815              		.cfi_offset 4, -20
 1816              		.cfi_offset 5, -16
ARM GAS  C:\Users\8bit\AppData\Local\Temp\ccCRhmZR.s 			page 120


 1817              		.cfi_offset 6, -12
 1818              		.cfi_offset 7, -8
 1819              		.cfi_offset 14, -4
 1820 0002 9BB0     		sub	sp, sp, #108
 1821              	.LCFI78:
 1822              		.cfi_def_cfa_offset 128
 1823 0004 0446     		mov	r4, r0
 217:Service/Srv_ComProto.c ****     float acc_scale = 0.0f;
 1824              		.loc 1 217 5 is_stmt 1 view .LVU452
 217:Service/Srv_ComProto.c ****     float acc_scale = 0.0f;
 1825              		.loc 1 217 14 is_stmt 0 view .LVU453
 1826 0006 0025     		movs	r5, #0
 1827 0008 1995     		str	r5, [sp, #100]
 218:Service/Srv_ComProto.c ****     float gyr_scale = 0.0f;
 1828              		.loc 1 218 5 is_stmt 1 view .LVU454
 218:Service/Srv_ComProto.c ****     float gyr_scale = 0.0f;
 1829              		.loc 1 218 11 is_stmt 0 view .LVU455
 1830 000a 0023     		movs	r3, #0
 1831 000c 1893     		str	r3, [sp, #96]	@ float
 219:Service/Srv_ComProto.c ****     float acc_x = 0.0f;
 1832              		.loc 1 219 5 is_stmt 1 view .LVU456
 219:Service/Srv_ComProto.c ****     float acc_x = 0.0f;
 1833              		.loc 1 219 11 is_stmt 0 view .LVU457
 1834 000e 1793     		str	r3, [sp, #92]	@ float
 220:Service/Srv_ComProto.c ****     float acc_y = 0.0f;
 1835              		.loc 1 220 5 is_stmt 1 view .LVU458
 220:Service/Srv_ComProto.c ****     float acc_y = 0.0f;
 1836              		.loc 1 220 11 is_stmt 0 view .LVU459
 1837 0010 1693     		str	r3, [sp, #88]	@ float
 221:Service/Srv_ComProto.c ****     float acc_z = 0.0f;
 1838              		.loc 1 221 5 is_stmt 1 view .LVU460
 221:Service/Srv_ComProto.c ****     float acc_z = 0.0f;
 1839              		.loc 1 221 11 is_stmt 0 view .LVU461
 1840 0012 1593     		str	r3, [sp, #84]	@ float
 222:Service/Srv_ComProto.c ****     float gyr_x = 0.0f;
 1841              		.loc 1 222 5 is_stmt 1 view .LVU462
 222:Service/Srv_ComProto.c ****     float gyr_x = 0.0f;
 1842              		.loc 1 222 11 is_stmt 0 view .LVU463
 1843 0014 1493     		str	r3, [sp, #80]	@ float
 223:Service/Srv_ComProto.c ****     float gyr_y = 0.0f;
 1844              		.loc 1 223 5 is_stmt 1 view .LVU464
 223:Service/Srv_ComProto.c ****     float gyr_y = 0.0f;
 1845              		.loc 1 223 11 is_stmt 0 view .LVU465
 1846 0016 1393     		str	r3, [sp, #76]	@ float
 224:Service/Srv_ComProto.c ****     float gyr_z = 0.0f;
 1847              		.loc 1 224 5 is_stmt 1 view .LVU466
 224:Service/Srv_ComProto.c ****     float gyr_z = 0.0f;
 1848              		.loc 1 224 11 is_stmt 0 view .LVU467
 1849 0018 1293     		str	r3, [sp, #72]	@ float
 225:Service/Srv_ComProto.c ****     float tmpr = 0.0f;
 1850              		.loc 1 225 5 is_stmt 1 view .LVU468
 225:Service/Srv_ComProto.c ****     float tmpr = 0.0f;
 1851              		.loc 1 225 11 is_stmt 0 view .LVU469
 1852 001a 1193     		str	r3, [sp, #68]	@ float
 226:Service/Srv_ComProto.c ****     uint8_t imu_err_code = 0;
 1853              		.loc 1 226 5 is_stmt 1 view .LVU470
 226:Service/Srv_ComProto.c ****     uint8_t imu_err_code = 0;
ARM GAS  C:\Users\8bit\AppData\Local\Temp\ccCRhmZR.s 			page 121


 1854              		.loc 1 226 11 is_stmt 0 view .LVU471
 1855 001c 1093     		str	r3, [sp, #64]	@ float
 227:Service/Srv_ComProto.c **** 
 1856              		.loc 1 227 5 is_stmt 1 view .LVU472
 227:Service/Srv_ComProto.c **** 
 1857              		.loc 1 227 13 is_stmt 0 view .LVU473
 1858 001e 8DF83F50 		strb	r5, [sp, #63]
 229:Service/Srv_ComProto.c **** 
 1859              		.loc 1 229 5 is_stmt 1 view .LVU474
 229:Service/Srv_ComProto.c **** 
 1860              		.loc 1 229 15 is_stmt 0 view .LVU475
 1861 0022 6F4B     		ldr	r3, .L107
 1862 0024 9E6B     		ldr	r6, [r3, #56]
 229:Service/Srv_ComProto.c **** 
 1863              		.loc 1 229 5 view .LVU476
 1864 0026 0DF13F03 		add	r3, sp, #63
 1865 002a 0693     		str	r3, [sp, #24]
 1866 002c 10AB     		add	r3, sp, #64
 1867 002e 0593     		str	r3, [sp, #20]
 1868 0030 11AB     		add	r3, sp, #68
 1869 0032 0493     		str	r3, [sp, #16]
 1870 0034 12AB     		add	r3, sp, #72
 1871 0036 0393     		str	r3, [sp, #12]
 1872 0038 13AB     		add	r3, sp, #76
 1873 003a 0293     		str	r3, [sp, #8]
 1874 003c 14AB     		add	r3, sp, #80
 1875 003e 0193     		str	r3, [sp, #4]
 1876 0040 15AB     		add	r3, sp, #84
 1877 0042 0093     		str	r3, [sp]
 1878 0044 16AB     		add	r3, sp, #88
 1879 0046 17AA     		add	r2, sp, #92
 1880 0048 18A9     		add	r1, sp, #96
 1881 004a 19A8     		add	r0, sp, #100
 1882              	.LVL128:
 229:Service/Srv_ComProto.c **** 
 1883              		.loc 1 229 5 view .LVU477
 1884 004c B047     		blx	r6
 1885              	.LVL129:
 231:Service/Srv_ComProto.c ****     int16_t i_acc_y = (int16_t)(acc_y * acc_scale);
 1886              		.loc 1 231 5 is_stmt 1 view .LVU478
 231:Service/Srv_ComProto.c ****     int16_t i_acc_y = (int16_t)(acc_y * acc_scale);
 1887              		.loc 1 231 39 is_stmt 0 view .LVU479
 1888 004e DDED187A 		vldr.32	s15, [sp, #96]
 1889 0052 9DED167A 		vldr.32	s14, [sp, #88]
 1890 0056 27EE877A 		vmul.f32	s14, s15, s14
 231:Service/Srv_ComProto.c ****     int16_t i_acc_y = (int16_t)(acc_y * acc_scale);
 1891              		.loc 1 231 13 view .LVU480
 1892 005a BDEEC77A 		vcvt.s32.f32	s14, s14
 1893 005e 17EE10CA 		vmov	ip, s14	@ int
 1894              	.LVL130:
 232:Service/Srv_ComProto.c ****     int16_t i_acc_z = (int16_t)(acc_z * acc_scale);
 1895              		.loc 1 232 5 is_stmt 1 view .LVU481
 232:Service/Srv_ComProto.c ****     int16_t i_acc_z = (int16_t)(acc_z * acc_scale);
 1896              		.loc 1 232 39 is_stmt 0 view .LVU482
 1897 0062 9DED157A 		vldr.32	s14, [sp, #84]
 1898 0066 27EE877A 		vmul.f32	s14, s15, s14
 232:Service/Srv_ComProto.c ****     int16_t i_acc_z = (int16_t)(acc_z * acc_scale);
ARM GAS  C:\Users\8bit\AppData\Local\Temp\ccCRhmZR.s 			page 122


 1899              		.loc 1 232 13 view .LVU483
 1900 006a BDEEC77A 		vcvt.s32.f32	s14, s14
 1901 006e 17EE100A 		vmov	r0, s14	@ int
 1902              	.LVL131:
 233:Service/Srv_ComProto.c **** 
 1903              		.loc 1 233 5 is_stmt 1 view .LVU484
 233:Service/Srv_ComProto.c **** 
 1904              		.loc 1 233 39 is_stmt 0 view .LVU485
 1905 0072 9DED147A 		vldr.32	s14, [sp, #80]
 1906 0076 67EE877A 		vmul.f32	s15, s15, s14
 233:Service/Srv_ComProto.c **** 
 1907              		.loc 1 233 13 view .LVU486
 1908 007a FDEEE77A 		vcvt.s32.f32	s15, s15
 1909 007e 17EE903A 		vmov	r3, s15	@ int
 1910              	.LVL132:
 235:Service/Srv_ComProto.c ****     int16_t i_gyr_y = (int16_t)(gyr_y * gyr_scale);
 1911              		.loc 1 235 5 is_stmt 1 view .LVU487
 235:Service/Srv_ComProto.c ****     int16_t i_gyr_y = (int16_t)(gyr_y * gyr_scale);
 1912              		.loc 1 235 39 is_stmt 0 view .LVU488
 1913 0082 DDED177A 		vldr.32	s15, [sp, #92]
 1914 0086 9DED137A 		vldr.32	s14, [sp, #76]
 1915 008a 27EE877A 		vmul.f32	s14, s15, s14
 235:Service/Srv_ComProto.c ****     int16_t i_gyr_y = (int16_t)(gyr_y * gyr_scale);
 1916              		.loc 1 235 13 view .LVU489
 1917 008e BDEEC77A 		vcvt.s32.f32	s14, s14
 1918 0092 17EE101A 		vmov	r1, s14	@ int
 1919              	.LVL133:
 236:Service/Srv_ComProto.c ****     int16_t i_gyr_z = (int16_t)(gyr_z * gyr_scale);
 1920              		.loc 1 236 5 is_stmt 1 view .LVU490
 236:Service/Srv_ComProto.c ****     int16_t i_gyr_z = (int16_t)(gyr_z * gyr_scale);
 1921              		.loc 1 236 39 is_stmt 0 view .LVU491
 1922 0096 9DED127A 		vldr.32	s14, [sp, #72]
 1923 009a 27EE877A 		vmul.f32	s14, s15, s14
 236:Service/Srv_ComProto.c ****     int16_t i_gyr_z = (int16_t)(gyr_z * gyr_scale);
 1924              		.loc 1 236 13 view .LVU492
 1925 009e BDEEC77A 		vcvt.s32.f32	s14, s14
 1926              	.LVL134:
 237:Service/Srv_ComProto.c **** 
 1927              		.loc 1 237 5 is_stmt 1 view .LVU493
 237:Service/Srv_ComProto.c **** 
 1928              		.loc 1 237 39 is_stmt 0 view .LVU494
 1929 00a2 DDED116A 		vldr.32	s13, [sp, #68]
 1930 00a6 67EEA67A 		vmul.f32	s15, s15, s13
 237:Service/Srv_ComProto.c **** 
 1931              		.loc 1 237 13 view .LVU495
 1932 00aa FDEEE77A 		vcvt.s32.f32	s15, s15
 1933              	.LVL135:
 240:Service/Srv_ComProto.c ****                                             pck->pck_info.component_id,
 1934              		.loc 1 240 5 is_stmt 1 view .LVU496
 240:Service/Srv_ComProto.c ****                                             pck->pck_info.component_id,
 1935              		.loc 1 240 12 is_stmt 0 view .LVU497
 1936 00ae 277A     		ldrb	r7, [r4, #8]	@ zero_extendqisi2
 1937 00b0 667A     		ldrb	r6, [r4, #9]	@ zero_extendqisi2
 1938 00b2 94F80AE0 		ldrb	lr, [r4, #10]	@ zero_extendqisi2
 1939 00b6 E468     		ldr	r4, [r4, #12]
 1940              	.LVL136:
 240:Service/Srv_ComProto.c ****                                             pck->pck_info.component_id,
ARM GAS  C:\Users\8bit\AppData\Local\Temp\ccCRhmZR.s 			page 123


 1941              		.loc 1 240 12 view .LVU498
 1942 00b8 199A     		ldr	r2, [sp, #100]
 1943              	.LVL137:
 1944              	.LBB105:
 1945              	.LBI105:
 1946              		.file 13 "Service/../MAVLink/common/./mavlink_msg_scaled_imu.h"
   1:Service/../MAVLink/common/./mavlink_msg_scaled_imu.h **** #pragma once
   2:Service/../MAVLink/common/./mavlink_msg_scaled_imu.h **** // MESSAGE SCALED_IMU PACKING
   3:Service/../MAVLink/common/./mavlink_msg_scaled_imu.h **** 
   4:Service/../MAVLink/common/./mavlink_msg_scaled_imu.h **** #define MAVLINK_MSG_ID_SCALED_IMU 26
   5:Service/../MAVLink/common/./mavlink_msg_scaled_imu.h **** 
   6:Service/../MAVLink/common/./mavlink_msg_scaled_imu.h **** 
   7:Service/../MAVLink/common/./mavlink_msg_scaled_imu.h **** typedef struct __mavlink_scaled_imu_t {
   8:Service/../MAVLink/common/./mavlink_msg_scaled_imu.h ****  uint32_t time_boot_ms; /*< [ms] Timestamp (time since system boot).*/
   9:Service/../MAVLink/common/./mavlink_msg_scaled_imu.h ****  int16_t xacc; /*< [mG] X acceleration*/
  10:Service/../MAVLink/common/./mavlink_msg_scaled_imu.h ****  int16_t yacc; /*< [mG] Y acceleration*/
  11:Service/../MAVLink/common/./mavlink_msg_scaled_imu.h ****  int16_t zacc; /*< [mG] Z acceleration*/
  12:Service/../MAVLink/common/./mavlink_msg_scaled_imu.h ****  int16_t xgyro; /*< [mrad/s] Angular speed around X axis*/
  13:Service/../MAVLink/common/./mavlink_msg_scaled_imu.h ****  int16_t ygyro; /*< [mrad/s] Angular speed around Y axis*/
  14:Service/../MAVLink/common/./mavlink_msg_scaled_imu.h ****  int16_t zgyro; /*< [mrad/s] Angular speed around Z axis*/
  15:Service/../MAVLink/common/./mavlink_msg_scaled_imu.h ****  int16_t xmag; /*< [mgauss] X Magnetic field*/
  16:Service/../MAVLink/common/./mavlink_msg_scaled_imu.h ****  int16_t ymag; /*< [mgauss] Y Magnetic field*/
  17:Service/../MAVLink/common/./mavlink_msg_scaled_imu.h ****  int16_t zmag; /*< [mgauss] Z Magnetic field*/
  18:Service/../MAVLink/common/./mavlink_msg_scaled_imu.h **** } mavlink_scaled_imu_t;
  19:Service/../MAVLink/common/./mavlink_msg_scaled_imu.h **** 
  20:Service/../MAVLink/common/./mavlink_msg_scaled_imu.h **** #define MAVLINK_MSG_ID_SCALED_IMU_LEN 22
  21:Service/../MAVLink/common/./mavlink_msg_scaled_imu.h **** #define MAVLINK_MSG_ID_SCALED_IMU_MIN_LEN 22
  22:Service/../MAVLink/common/./mavlink_msg_scaled_imu.h **** #define MAVLINK_MSG_ID_26_LEN 22
  23:Service/../MAVLink/common/./mavlink_msg_scaled_imu.h **** #define MAVLINK_MSG_ID_26_MIN_LEN 22
  24:Service/../MAVLink/common/./mavlink_msg_scaled_imu.h **** 
  25:Service/../MAVLink/common/./mavlink_msg_scaled_imu.h **** #define MAVLINK_MSG_ID_SCALED_IMU_CRC 170
  26:Service/../MAVLink/common/./mavlink_msg_scaled_imu.h **** #define MAVLINK_MSG_ID_26_CRC 170
  27:Service/../MAVLink/common/./mavlink_msg_scaled_imu.h **** 
  28:Service/../MAVLink/common/./mavlink_msg_scaled_imu.h **** 
  29:Service/../MAVLink/common/./mavlink_msg_scaled_imu.h **** 
  30:Service/../MAVLink/common/./mavlink_msg_scaled_imu.h **** #if MAVLINK_COMMAND_24BIT
  31:Service/../MAVLink/common/./mavlink_msg_scaled_imu.h **** #define MAVLINK_MESSAGE_INFO_SCALED_IMU { \
  32:Service/../MAVLink/common/./mavlink_msg_scaled_imu.h ****     26, \
  33:Service/../MAVLink/common/./mavlink_msg_scaled_imu.h ****     "SCALED_IMU", \
  34:Service/../MAVLink/common/./mavlink_msg_scaled_imu.h ****     10, \
  35:Service/../MAVLink/common/./mavlink_msg_scaled_imu.h ****     {  { "time_boot_ms", NULL, MAVLINK_TYPE_UINT32_T, 0, 0, offsetof(mavlink_scaled_imu_t, time_boo
  36:Service/../MAVLink/common/./mavlink_msg_scaled_imu.h ****          { "xacc", NULL, MAVLINK_TYPE_INT16_T, 0, 4, offsetof(mavlink_scaled_imu_t, xacc) }, \
  37:Service/../MAVLink/common/./mavlink_msg_scaled_imu.h ****          { "yacc", NULL, MAVLINK_TYPE_INT16_T, 0, 6, offsetof(mavlink_scaled_imu_t, yacc) }, \
  38:Service/../MAVLink/common/./mavlink_msg_scaled_imu.h ****          { "zacc", NULL, MAVLINK_TYPE_INT16_T, 0, 8, offsetof(mavlink_scaled_imu_t, zacc) }, \
  39:Service/../MAVLink/common/./mavlink_msg_scaled_imu.h ****          { "xgyro", NULL, MAVLINK_TYPE_INT16_T, 0, 10, offsetof(mavlink_scaled_imu_t, xgyro) }, \
  40:Service/../MAVLink/common/./mavlink_msg_scaled_imu.h ****          { "ygyro", NULL, MAVLINK_TYPE_INT16_T, 0, 12, offsetof(mavlink_scaled_imu_t, ygyro) }, \
  41:Service/../MAVLink/common/./mavlink_msg_scaled_imu.h ****          { "zgyro", NULL, MAVLINK_TYPE_INT16_T, 0, 14, offsetof(mavlink_scaled_imu_t, zgyro) }, \
  42:Service/../MAVLink/common/./mavlink_msg_scaled_imu.h ****          { "xmag", NULL, MAVLINK_TYPE_INT16_T, 0, 16, offsetof(mavlink_scaled_imu_t, xmag) }, \
  43:Service/../MAVLink/common/./mavlink_msg_scaled_imu.h ****          { "ymag", NULL, MAVLINK_TYPE_INT16_T, 0, 18, offsetof(mavlink_scaled_imu_t, ymag) }, \
  44:Service/../MAVLink/common/./mavlink_msg_scaled_imu.h ****          { "zmag", NULL, MAVLINK_TYPE_INT16_T, 0, 20, offsetof(mavlink_scaled_imu_t, zmag) }, \
  45:Service/../MAVLink/common/./mavlink_msg_scaled_imu.h ****          } \
  46:Service/../MAVLink/common/./mavlink_msg_scaled_imu.h **** }
  47:Service/../MAVLink/common/./mavlink_msg_scaled_imu.h **** #else
  48:Service/../MAVLink/common/./mavlink_msg_scaled_imu.h **** #define MAVLINK_MESSAGE_INFO_SCALED_IMU { \
  49:Service/../MAVLink/common/./mavlink_msg_scaled_imu.h ****     "SCALED_IMU", \
  50:Service/../MAVLink/common/./mavlink_msg_scaled_imu.h ****     10, \
  51:Service/../MAVLink/common/./mavlink_msg_scaled_imu.h ****     {  { "time_boot_ms", NULL, MAVLINK_TYPE_UINT32_T, 0, 0, offsetof(mavlink_scaled_imu_t, time_boo
ARM GAS  C:\Users\8bit\AppData\Local\Temp\ccCRhmZR.s 			page 124


  52:Service/../MAVLink/common/./mavlink_msg_scaled_imu.h ****          { "xacc", NULL, MAVLINK_TYPE_INT16_T, 0, 4, offsetof(mavlink_scaled_imu_t, xacc) }, \
  53:Service/../MAVLink/common/./mavlink_msg_scaled_imu.h ****          { "yacc", NULL, MAVLINK_TYPE_INT16_T, 0, 6, offsetof(mavlink_scaled_imu_t, yacc) }, \
  54:Service/../MAVLink/common/./mavlink_msg_scaled_imu.h ****          { "zacc", NULL, MAVLINK_TYPE_INT16_T, 0, 8, offsetof(mavlink_scaled_imu_t, zacc) }, \
  55:Service/../MAVLink/common/./mavlink_msg_scaled_imu.h ****          { "xgyro", NULL, MAVLINK_TYPE_INT16_T, 0, 10, offsetof(mavlink_scaled_imu_t, xgyro) }, \
  56:Service/../MAVLink/common/./mavlink_msg_scaled_imu.h ****          { "ygyro", NULL, MAVLINK_TYPE_INT16_T, 0, 12, offsetof(mavlink_scaled_imu_t, ygyro) }, \
  57:Service/../MAVLink/common/./mavlink_msg_scaled_imu.h ****          { "zgyro", NULL, MAVLINK_TYPE_INT16_T, 0, 14, offsetof(mavlink_scaled_imu_t, zgyro) }, \
  58:Service/../MAVLink/common/./mavlink_msg_scaled_imu.h ****          { "xmag", NULL, MAVLINK_TYPE_INT16_T, 0, 16, offsetof(mavlink_scaled_imu_t, xmag) }, \
  59:Service/../MAVLink/common/./mavlink_msg_scaled_imu.h ****          { "ymag", NULL, MAVLINK_TYPE_INT16_T, 0, 18, offsetof(mavlink_scaled_imu_t, ymag) }, \
  60:Service/../MAVLink/common/./mavlink_msg_scaled_imu.h ****          { "zmag", NULL, MAVLINK_TYPE_INT16_T, 0, 20, offsetof(mavlink_scaled_imu_t, zmag) }, \
  61:Service/../MAVLink/common/./mavlink_msg_scaled_imu.h ****          } \
  62:Service/../MAVLink/common/./mavlink_msg_scaled_imu.h **** }
  63:Service/../MAVLink/common/./mavlink_msg_scaled_imu.h **** #endif
  64:Service/../MAVLink/common/./mavlink_msg_scaled_imu.h **** 
  65:Service/../MAVLink/common/./mavlink_msg_scaled_imu.h **** /**
  66:Service/../MAVLink/common/./mavlink_msg_scaled_imu.h ****  * @brief Pack a scaled_imu message
  67:Service/../MAVLink/common/./mavlink_msg_scaled_imu.h ****  * @param system_id ID of this system
  68:Service/../MAVLink/common/./mavlink_msg_scaled_imu.h ****  * @param component_id ID of this component (e.g. 200 for IMU)
  69:Service/../MAVLink/common/./mavlink_msg_scaled_imu.h ****  * @param msg The MAVLink message to compress the data into
  70:Service/../MAVLink/common/./mavlink_msg_scaled_imu.h ****  *
  71:Service/../MAVLink/common/./mavlink_msg_scaled_imu.h ****  * @param time_boot_ms [ms] Timestamp (time since system boot).
  72:Service/../MAVLink/common/./mavlink_msg_scaled_imu.h ****  * @param xacc [mG] X acceleration
  73:Service/../MAVLink/common/./mavlink_msg_scaled_imu.h ****  * @param yacc [mG] Y acceleration
  74:Service/../MAVLink/common/./mavlink_msg_scaled_imu.h ****  * @param zacc [mG] Z acceleration
  75:Service/../MAVLink/common/./mavlink_msg_scaled_imu.h ****  * @param xgyro [mrad/s] Angular speed around X axis
  76:Service/../MAVLink/common/./mavlink_msg_scaled_imu.h ****  * @param ygyro [mrad/s] Angular speed around Y axis
  77:Service/../MAVLink/common/./mavlink_msg_scaled_imu.h ****  * @param zgyro [mrad/s] Angular speed around Z axis
  78:Service/../MAVLink/common/./mavlink_msg_scaled_imu.h ****  * @param xmag [mgauss] X Magnetic field
  79:Service/../MAVLink/common/./mavlink_msg_scaled_imu.h ****  * @param ymag [mgauss] Y Magnetic field
  80:Service/../MAVLink/common/./mavlink_msg_scaled_imu.h ****  * @param zmag [mgauss] Z Magnetic field
  81:Service/../MAVLink/common/./mavlink_msg_scaled_imu.h ****  * @return length of the message in bytes (excluding serial stream start sign)
  82:Service/../MAVLink/common/./mavlink_msg_scaled_imu.h ****  */
  83:Service/../MAVLink/common/./mavlink_msg_scaled_imu.h **** static inline uint16_t mavlink_msg_scaled_imu_pack(uint8_t system_id, uint8_t component_id, mavlink
  84:Service/../MAVLink/common/./mavlink_msg_scaled_imu.h ****                                uint32_t time_boot_ms, int16_t xacc, int16_t yacc, int16_t zacc, int
  85:Service/../MAVLink/common/./mavlink_msg_scaled_imu.h **** {
  86:Service/../MAVLink/common/./mavlink_msg_scaled_imu.h **** #if MAVLINK_NEED_BYTE_SWAP || !MAVLINK_ALIGNED_FIELDS
  87:Service/../MAVLink/common/./mavlink_msg_scaled_imu.h ****     char buf[MAVLINK_MSG_ID_SCALED_IMU_LEN];
  88:Service/../MAVLink/common/./mavlink_msg_scaled_imu.h ****     _mav_put_uint32_t(buf, 0, time_boot_ms);
  89:Service/../MAVLink/common/./mavlink_msg_scaled_imu.h ****     _mav_put_int16_t(buf, 4, xacc);
  90:Service/../MAVLink/common/./mavlink_msg_scaled_imu.h ****     _mav_put_int16_t(buf, 6, yacc);
  91:Service/../MAVLink/common/./mavlink_msg_scaled_imu.h ****     _mav_put_int16_t(buf, 8, zacc);
  92:Service/../MAVLink/common/./mavlink_msg_scaled_imu.h ****     _mav_put_int16_t(buf, 10, xgyro);
  93:Service/../MAVLink/common/./mavlink_msg_scaled_imu.h ****     _mav_put_int16_t(buf, 12, ygyro);
  94:Service/../MAVLink/common/./mavlink_msg_scaled_imu.h ****     _mav_put_int16_t(buf, 14, zgyro);
  95:Service/../MAVLink/common/./mavlink_msg_scaled_imu.h ****     _mav_put_int16_t(buf, 16, xmag);
  96:Service/../MAVLink/common/./mavlink_msg_scaled_imu.h ****     _mav_put_int16_t(buf, 18, ymag);
  97:Service/../MAVLink/common/./mavlink_msg_scaled_imu.h ****     _mav_put_int16_t(buf, 20, zmag);
  98:Service/../MAVLink/common/./mavlink_msg_scaled_imu.h **** 
  99:Service/../MAVLink/common/./mavlink_msg_scaled_imu.h ****         memcpy(_MAV_PAYLOAD_NON_CONST(msg), buf, MAVLINK_MSG_ID_SCALED_IMU_LEN);
 100:Service/../MAVLink/common/./mavlink_msg_scaled_imu.h **** #else
 101:Service/../MAVLink/common/./mavlink_msg_scaled_imu.h ****     mavlink_scaled_imu_t packet;
 102:Service/../MAVLink/common/./mavlink_msg_scaled_imu.h ****     packet.time_boot_ms = time_boot_ms;
 103:Service/../MAVLink/common/./mavlink_msg_scaled_imu.h ****     packet.xacc = xacc;
 104:Service/../MAVLink/common/./mavlink_msg_scaled_imu.h ****     packet.yacc = yacc;
 105:Service/../MAVLink/common/./mavlink_msg_scaled_imu.h ****     packet.zacc = zacc;
 106:Service/../MAVLink/common/./mavlink_msg_scaled_imu.h ****     packet.xgyro = xgyro;
 107:Service/../MAVLink/common/./mavlink_msg_scaled_imu.h ****     packet.ygyro = ygyro;
 108:Service/../MAVLink/common/./mavlink_msg_scaled_imu.h ****     packet.zgyro = zgyro;
ARM GAS  C:\Users\8bit\AppData\Local\Temp\ccCRhmZR.s 			page 125


 109:Service/../MAVLink/common/./mavlink_msg_scaled_imu.h ****     packet.xmag = xmag;
 110:Service/../MAVLink/common/./mavlink_msg_scaled_imu.h ****     packet.ymag = ymag;
 111:Service/../MAVLink/common/./mavlink_msg_scaled_imu.h ****     packet.zmag = zmag;
 112:Service/../MAVLink/common/./mavlink_msg_scaled_imu.h **** 
 113:Service/../MAVLink/common/./mavlink_msg_scaled_imu.h ****         memcpy(_MAV_PAYLOAD_NON_CONST(msg), &packet, MAVLINK_MSG_ID_SCALED_IMU_LEN);
 114:Service/../MAVLink/common/./mavlink_msg_scaled_imu.h **** #endif
 115:Service/../MAVLink/common/./mavlink_msg_scaled_imu.h **** 
 116:Service/../MAVLink/common/./mavlink_msg_scaled_imu.h ****     msg->msgid = MAVLINK_MSG_ID_SCALED_IMU;
 117:Service/../MAVLink/common/./mavlink_msg_scaled_imu.h ****     return mavlink_finalize_message(msg, system_id, component_id, MAVLINK_MSG_ID_SCALED_IMU_MIN_LEN
 118:Service/../MAVLink/common/./mavlink_msg_scaled_imu.h **** }
 119:Service/../MAVLink/common/./mavlink_msg_scaled_imu.h **** 
 120:Service/../MAVLink/common/./mavlink_msg_scaled_imu.h **** /**
 121:Service/../MAVLink/common/./mavlink_msg_scaled_imu.h ****  * @brief Pack a scaled_imu message on a channel
 122:Service/../MAVLink/common/./mavlink_msg_scaled_imu.h ****  * @param system_id ID of this system
 123:Service/../MAVLink/common/./mavlink_msg_scaled_imu.h ****  * @param component_id ID of this component (e.g. 200 for IMU)
 124:Service/../MAVLink/common/./mavlink_msg_scaled_imu.h ****  * @param chan The MAVLink channel this message will be sent over
 125:Service/../MAVLink/common/./mavlink_msg_scaled_imu.h ****  * @param msg The MAVLink message to compress the data into
 126:Service/../MAVLink/common/./mavlink_msg_scaled_imu.h ****  * @param time_boot_ms [ms] Timestamp (time since system boot).
 127:Service/../MAVLink/common/./mavlink_msg_scaled_imu.h ****  * @param xacc [mG] X acceleration
 128:Service/../MAVLink/common/./mavlink_msg_scaled_imu.h ****  * @param yacc [mG] Y acceleration
 129:Service/../MAVLink/common/./mavlink_msg_scaled_imu.h ****  * @param zacc [mG] Z acceleration
 130:Service/../MAVLink/common/./mavlink_msg_scaled_imu.h ****  * @param xgyro [mrad/s] Angular speed around X axis
 131:Service/../MAVLink/common/./mavlink_msg_scaled_imu.h ****  * @param ygyro [mrad/s] Angular speed around Y axis
 132:Service/../MAVLink/common/./mavlink_msg_scaled_imu.h ****  * @param zgyro [mrad/s] Angular speed around Z axis
 133:Service/../MAVLink/common/./mavlink_msg_scaled_imu.h ****  * @param xmag [mgauss] X Magnetic field
 134:Service/../MAVLink/common/./mavlink_msg_scaled_imu.h ****  * @param ymag [mgauss] Y Magnetic field
 135:Service/../MAVLink/common/./mavlink_msg_scaled_imu.h ****  * @param zmag [mgauss] Z Magnetic field
 136:Service/../MAVLink/common/./mavlink_msg_scaled_imu.h ****  * @return length of the message in bytes (excluding serial stream start sign)
 137:Service/../MAVLink/common/./mavlink_msg_scaled_imu.h ****  */
 138:Service/../MAVLink/common/./mavlink_msg_scaled_imu.h **** static inline uint16_t mavlink_msg_scaled_imu_pack_chan(uint8_t system_id, uint8_t component_id, ui
 1947              		.loc 13 138 24 is_stmt 1 view .LVU499
 1948              	.LBB106:
 139:Service/../MAVLink/common/./mavlink_msg_scaled_imu.h ****                                mavlink_message_t* msg,
 140:Service/../MAVLink/common/./mavlink_msg_scaled_imu.h ****                                    uint32_t time_boot_ms,int16_t xacc,int16_t yacc,int16_t zacc,int
 141:Service/../MAVLink/common/./mavlink_msg_scaled_imu.h **** {
 142:Service/../MAVLink/common/./mavlink_msg_scaled_imu.h **** #if MAVLINK_NEED_BYTE_SWAP || !MAVLINK_ALIGNED_FIELDS
 143:Service/../MAVLink/common/./mavlink_msg_scaled_imu.h ****     char buf[MAVLINK_MSG_ID_SCALED_IMU_LEN];
 144:Service/../MAVLink/common/./mavlink_msg_scaled_imu.h ****     _mav_put_uint32_t(buf, 0, time_boot_ms);
 145:Service/../MAVLink/common/./mavlink_msg_scaled_imu.h ****     _mav_put_int16_t(buf, 4, xacc);
 146:Service/../MAVLink/common/./mavlink_msg_scaled_imu.h ****     _mav_put_int16_t(buf, 6, yacc);
 147:Service/../MAVLink/common/./mavlink_msg_scaled_imu.h ****     _mav_put_int16_t(buf, 8, zacc);
 148:Service/../MAVLink/common/./mavlink_msg_scaled_imu.h ****     _mav_put_int16_t(buf, 10, xgyro);
 149:Service/../MAVLink/common/./mavlink_msg_scaled_imu.h ****     _mav_put_int16_t(buf, 12, ygyro);
 150:Service/../MAVLink/common/./mavlink_msg_scaled_imu.h ****     _mav_put_int16_t(buf, 14, zgyro);
 151:Service/../MAVLink/common/./mavlink_msg_scaled_imu.h ****     _mav_put_int16_t(buf, 16, xmag);
 152:Service/../MAVLink/common/./mavlink_msg_scaled_imu.h ****     _mav_put_int16_t(buf, 18, ymag);
 153:Service/../MAVLink/common/./mavlink_msg_scaled_imu.h ****     _mav_put_int16_t(buf, 20, zmag);
 154:Service/../MAVLink/common/./mavlink_msg_scaled_imu.h **** 
 155:Service/../MAVLink/common/./mavlink_msg_scaled_imu.h ****         memcpy(_MAV_PAYLOAD_NON_CONST(msg), buf, MAVLINK_MSG_ID_SCALED_IMU_LEN);
 156:Service/../MAVLink/common/./mavlink_msg_scaled_imu.h **** #else
 157:Service/../MAVLink/common/./mavlink_msg_scaled_imu.h ****     mavlink_scaled_imu_t packet;
 1949              		.loc 13 157 5 view .LVU500
 158:Service/../MAVLink/common/./mavlink_msg_scaled_imu.h ****     packet.time_boot_ms = time_boot_ms;
 1950              		.loc 13 158 5 view .LVU501
 1951              		.loc 13 158 25 is_stmt 0 view .LVU502
 1952 00ba 0992     		str	r2, [sp, #36]
 159:Service/../MAVLink/common/./mavlink_msg_scaled_imu.h ****     packet.xacc = xacc;
ARM GAS  C:\Users\8bit\AppData\Local\Temp\ccCRhmZR.s 			page 126


 1953              		.loc 13 159 5 is_stmt 1 view .LVU503
 1954              		.loc 13 159 17 is_stmt 0 view .LVU504
 1955 00bc ADF828C0 		strh	ip, [sp, #40]	@ movhi
 160:Service/../MAVLink/common/./mavlink_msg_scaled_imu.h ****     packet.yacc = yacc;
 1956              		.loc 13 160 5 is_stmt 1 view .LVU505
 1957              		.loc 13 160 17 is_stmt 0 view .LVU506
 1958 00c0 ADF82A00 		strh	r0, [sp, #42]	@ movhi
 161:Service/../MAVLink/common/./mavlink_msg_scaled_imu.h ****     packet.zacc = zacc;
 1959              		.loc 13 161 5 is_stmt 1 view .LVU507
 1960              		.loc 13 161 17 is_stmt 0 view .LVU508
 1961 00c4 ADF82C30 		strh	r3, [sp, #44]	@ movhi
 162:Service/../MAVLink/common/./mavlink_msg_scaled_imu.h ****     packet.xgyro = xgyro;
 1962              		.loc 13 162 5 is_stmt 1 view .LVU509
 1963              		.loc 13 162 18 is_stmt 0 view .LVU510
 1964 00c8 ADF82E10 		strh	r1, [sp, #46]	@ movhi
 163:Service/../MAVLink/common/./mavlink_msg_scaled_imu.h ****     packet.ygyro = ygyro;
 1965              		.loc 13 163 5 is_stmt 1 view .LVU511
 1966              		.loc 13 163 18 is_stmt 0 view .LVU512
 1967 00cc 17EE103A 		vmov	r3, s14	@ int
 1968              	.LVL138:
 1969              		.loc 13 163 18 view .LVU513
 1970 00d0 ADF83030 		strh	r3, [sp, #48]	@ movhi
 164:Service/../MAVLink/common/./mavlink_msg_scaled_imu.h ****     packet.zgyro = zgyro;
 1971              		.loc 13 164 5 is_stmt 1 view .LVU514
 1972              		.loc 13 164 18 is_stmt 0 view .LVU515
 1973 00d4 17EE903A 		vmov	r3, s15	@ int
 1974 00d8 ADF83230 		strh	r3, [sp, #50]	@ movhi
 165:Service/../MAVLink/common/./mavlink_msg_scaled_imu.h ****     packet.xmag = xmag;
 1975              		.loc 13 165 5 is_stmt 1 view .LVU516
 1976              		.loc 13 165 17 is_stmt 0 view .LVU517
 1977 00dc ADF83450 		strh	r5, [sp, #52]	@ movhi
 166:Service/../MAVLink/common/./mavlink_msg_scaled_imu.h ****     packet.ymag = ymag;
 1978              		.loc 13 166 5 is_stmt 1 view .LVU518
 1979              		.loc 13 166 17 is_stmt 0 view .LVU519
 1980 00e0 ADF83650 		strh	r5, [sp, #54]	@ movhi
 167:Service/../MAVLink/common/./mavlink_msg_scaled_imu.h ****     packet.zmag = zmag;
 1981              		.loc 13 167 5 is_stmt 1 view .LVU520
 1982              		.loc 13 167 17 is_stmt 0 view .LVU521
 1983 00e4 ADF83850 		strh	r5, [sp, #56]	@ movhi
 168:Service/../MAVLink/common/./mavlink_msg_scaled_imu.h **** 
 169:Service/../MAVLink/common/./mavlink_msg_scaled_imu.h ****         memcpy(_MAV_PAYLOAD_NON_CONST(msg), &packet, MAVLINK_MSG_ID_SCALED_IMU_LEN);
 1984              		.loc 13 169 9 is_stmt 1 view .LVU522
 1985 00e8 0DF1240C 		add	ip, sp, #36
 1986              	.LVL139:
 1987              		.loc 13 169 9 is_stmt 0 view .LVU523
 1988 00ec BCE80F00 		ldmia	ip!, {r0, r1, r2, r3}
 1989              	.LVL140:
 1990              		.loc 13 169 9 view .LVU524
 1991 00f0 A060     		str	r0, [r4, #8]	@ unaligned
 1992              	.LVL141:
 1993              		.loc 13 169 9 view .LVU525
 1994 00f2 E160     		str	r1, [r4, #12]	@ unaligned
 1995 00f4 2261     		str	r2, [r4, #16]	@ unaligned
 1996 00f6 6361     		str	r3, [r4, #20]	@ unaligned
 1997 00f8 DCF80000 		ldr	r0, [ip]
 1998              	.LVL142:
 1999              		.loc 13 169 9 view .LVU526
ARM GAS  C:\Users\8bit\AppData\Local\Temp\ccCRhmZR.s 			page 127


 2000 00fc A061     		str	r0, [r4, #24]	@ unaligned
 2001 00fe BCF80430 		ldrh	r3, [ip, #4]	@ unaligned
 2002 0102 A383     		strh	r3, [r4, #28]	@ unaligned
 170:Service/../MAVLink/common/./mavlink_msg_scaled_imu.h **** #endif
 171:Service/../MAVLink/common/./mavlink_msg_scaled_imu.h **** 
 172:Service/../MAVLink/common/./mavlink_msg_scaled_imu.h ****     msg->msgid = MAVLINK_MSG_ID_SCALED_IMU;
 2003              		.loc 13 172 5 is_stmt 1 view .LVU527
 2004              		.loc 13 172 16 is_stmt 0 view .LVU528
 2005 0104 1A23     		movs	r3, #26
 2006 0106 E371     		strb	r3, [r4, #7]
 173:Service/../MAVLink/common/./mavlink_msg_scaled_imu.h ****     return mavlink_finalize_message_chan(msg, system_id, component_id, chan, MAVLINK_MSG_ID_SCALED_
 2007              		.loc 13 173 5 is_stmt 1 view .LVU529
 2008              	.LVL143:
 2009              	.LBB107:
 2010              	.LBI107:
  68:Service/../MAVLink/common/../mavlink_helpers.h **** 						      uint8_t chan, uint8_t min_length, uint8_t length, uint8_t crc_extra)
 2011              		.loc 2 68 25 view .LVU530
 2012              	.LBB108:
  76:Service/../MAVLink/common/../mavlink_helpers.h **** 	// This code part is the same for all messages;
 2013              		.loc 2 76 2 view .LVU531
  78:Service/../MAVLink/common/../mavlink_helpers.h **** 	msg->len = length;
 2014              		.loc 2 78 2 view .LVU532
  78:Service/../MAVLink/common/../mavlink_helpers.h **** 	msg->len = length;
 2015              		.loc 2 78 13 is_stmt 0 view .LVU533
 2016 0108 FE23     		movs	r3, #254
 2017 010a A370     		strb	r3, [r4, #2]
  79:Service/../MAVLink/common/../mavlink_helpers.h **** 	msg->sysid = system_id;
 2018              		.loc 2 79 2 is_stmt 1 view .LVU534
  79:Service/../MAVLink/common/../mavlink_helpers.h **** 	msg->sysid = system_id;
 2019              		.loc 2 79 11 is_stmt 0 view .LVU535
 2020 010c 1623     		movs	r3, #22
 2021 010e E370     		strb	r3, [r4, #3]
  80:Service/../MAVLink/common/../mavlink_helpers.h **** 	msg->compid = component_id;
 2022              		.loc 2 80 2 is_stmt 1 view .LVU536
  80:Service/../MAVLink/common/../mavlink_helpers.h **** 	msg->compid = component_id;
 2023              		.loc 2 80 13 is_stmt 0 view .LVU537
 2024 0110 6771     		strb	r7, [r4, #5]
  81:Service/../MAVLink/common/../mavlink_helpers.h **** 	// One sequence number per channel
 2025              		.loc 2 81 2 is_stmt 1 view .LVU538
  81:Service/../MAVLink/common/../mavlink_helpers.h **** 	// One sequence number per channel
 2026              		.loc 2 81 14 is_stmt 0 view .LVU539
 2027 0112 A671     		strb	r6, [r4, #6]
  83:Service/../MAVLink/common/../mavlink_helpers.h **** 	mavlink_get_channel_status(chan)->current_tx_seq = mavlink_get_channel_status(chan)->current_tx_se
 2028              		.loc 2 83 2 is_stmt 1 view .LVU540
 2029              	.LVL144:
 2030              	.LBB109:
 2031              	.LBI109:
  17:Service/../MAVLink/common/../mavlink_helpers.h **** {
 2032              		.loc 2 17 34 view .LVU541
 2033              	.LBB110:
  23:Service/../MAVLink/common/../mavlink_helpers.h **** #endif
 2034              		.loc 2 23 2 view .LVU542
  25:Service/../MAVLink/common/../mavlink_helpers.h **** }
 2035              		.loc 2 25 2 view .LVU543
  25:Service/../MAVLink/common/../mavlink_helpers.h **** }
 2036              		.loc 2 25 2 is_stmt 0 view .LVU544
 2037              	.LBE110:
ARM GAS  C:\Users\8bit\AppData\Local\Temp\ccCRhmZR.s 			page 128


 2038              	.LBE109:
  83:Service/../MAVLink/common/../mavlink_helpers.h **** 	mavlink_get_channel_status(chan)->current_tx_seq = mavlink_get_channel_status(chan)->current_tx_se
 2039              		.loc 2 83 45 view .LVU545
 2040 0114 334B     		ldr	r3, .L107+4
 2041 0116 0EEB4E02 		add	r2, lr, lr, lsl #1
 2042 011a 03EB8202 		add	r2, r3, r2, lsl #2
 2043 011e 9179     		ldrb	r1, [r2, #6]	@ zero_extendqisi2
  83:Service/../MAVLink/common/../mavlink_helpers.h **** 	mavlink_get_channel_status(chan)->current_tx_seq = mavlink_get_channel_status(chan)->current_tx_se
 2044              		.loc 2 83 11 view .LVU546
 2045 0120 2171     		strb	r1, [r4, #4]
  84:Service/../MAVLink/common/../mavlink_helpers.h **** 	msg->checksum = crc_calculate(((const uint8_t*)(msg)) + 3, MAVLINK_CORE_HEADER_LEN);
 2046              		.loc 2 84 2 is_stmt 1 view .LVU547
 2047              	.LVL145:
 2048              	.LBB111:
 2049              	.LBI111:
  17:Service/../MAVLink/common/../mavlink_helpers.h **** {
 2050              		.loc 2 17 34 view .LVU548
 2051              	.LBE111:
 2052              	.LBE108:
 2053              	.LBE107:
 2054              	.LBE106:
 2055              	.LBE105:
  23:Service/../MAVLink/common/../mavlink_helpers.h **** #endif
 2056              		.loc 2 23 2 view .LVU549
  25:Service/../MAVLink/common/../mavlink_helpers.h **** }
 2057              		.loc 2 25 2 view .LVU550
 2058              	.LBB131:
 2059              	.LBB129:
 2060              	.LBB127:
 2061              	.LBB125:
  84:Service/../MAVLink/common/../mavlink_helpers.h **** 	msg->checksum = crc_calculate(((const uint8_t*)(msg)) + 3, MAVLINK_CORE_HEADER_LEN);
 2062              		.loc 2 84 85 is_stmt 0 view .LVU551
 2063 0122 9279     		ldrb	r2, [r2, #6]	@ zero_extendqisi2
 2064              	.LVL146:
 2065              	.LBB112:
 2066              	.LBI112:
  17:Service/../MAVLink/common/../mavlink_helpers.h **** {
 2067              		.loc 2 17 34 is_stmt 1 view .LVU552
 2068              	.LBE112:
 2069              	.LBE125:
 2070              	.LBE127:
 2071              	.LBE129:
 2072              	.LBE131:
  23:Service/../MAVLink/common/../mavlink_helpers.h **** #endif
 2073              		.loc 2 23 2 view .LVU553
  25:Service/../MAVLink/common/../mavlink_helpers.h **** }
 2074              		.loc 2 25 2 view .LVU554
 2075              	.LBB132:
 2076              	.LBB130:
 2077              	.LBB128:
 2078              	.LBB126:
  84:Service/../MAVLink/common/../mavlink_helpers.h **** 	msg->checksum = crc_calculate(((const uint8_t*)(msg)) + 3, MAVLINK_CORE_HEADER_LEN);
 2079              		.loc 2 84 101 is_stmt 0 view .LVU555
 2080 0124 0132     		adds	r2, r2, #1
  84:Service/../MAVLink/common/../mavlink_helpers.h **** 	msg->checksum = crc_calculate(((const uint8_t*)(msg)) + 3, MAVLINK_CORE_HEADER_LEN);
 2081              		.loc 2 84 51 view .LVU556
 2082 0126 0EEB4E0E 		add	lr, lr, lr, lsl #1
ARM GAS  C:\Users\8bit\AppData\Local\Temp\ccCRhmZR.s 			page 129


 2083              	.LVL147:
  84:Service/../MAVLink/common/../mavlink_helpers.h **** 	msg->checksum = crc_calculate(((const uint8_t*)(msg)) + 3, MAVLINK_CORE_HEADER_LEN);
 2084              		.loc 2 84 51 view .LVU557
 2085 012a 03EB8E0E 		add	lr, r3, lr, lsl #2
 2086 012e 8EF80620 		strb	r2, [lr, #6]
  85:Service/../MAVLink/common/../mavlink_helpers.h **** 	crc_accumulate_buffer(&msg->checksum, _MAV_PAYLOAD(msg), msg->len);
 2087              		.loc 2 85 2 is_stmt 1 view .LVU558
  85:Service/../MAVLink/common/../mavlink_helpers.h **** 	crc_accumulate_buffer(&msg->checksum, _MAV_PAYLOAD(msg), msg->len);
 2088              		.loc 2 85 18 is_stmt 0 view .LVU559
 2089 0132 E11C     		adds	r1, r4, #3
 2090              	.LVL148:
 2091              	.LBB113:
 2092              	.LBI113:
 2093              		.file 14 "Service/../MAVLink/common/../checksum.h"
   1:Service/../MAVLink/common/../checksum.h **** #ifdef __cplusplus
   2:Service/../MAVLink/common/../checksum.h **** extern "C" {
   3:Service/../MAVLink/common/../checksum.h **** #endif
   4:Service/../MAVLink/common/../checksum.h **** 
   5:Service/../MAVLink/common/../checksum.h **** #ifndef _CHECKSUM_H_
   6:Service/../MAVLink/common/../checksum.h **** #define _CHECKSUM_H_
   7:Service/../MAVLink/common/../checksum.h **** 
   8:Service/../MAVLink/common/../checksum.h **** // Visual Studio versions before 2010 don't have stdint.h, so we just error out.
   9:Service/../MAVLink/common/../checksum.h **** #if (defined _MSC_VER) && (_MSC_VER < 1600)
  10:Service/../MAVLink/common/../checksum.h **** #error "The C-MAVLink implementation requires Visual Studio 2010 or greater"
  11:Service/../MAVLink/common/../checksum.h **** #endif
  12:Service/../MAVLink/common/../checksum.h **** 
  13:Service/../MAVLink/common/../checksum.h **** #include <stdint.h>
  14:Service/../MAVLink/common/../checksum.h **** 
  15:Service/../MAVLink/common/../checksum.h **** /**
  16:Service/../MAVLink/common/../checksum.h ****  *
  17:Service/../MAVLink/common/../checksum.h ****  *  CALCULATE THE CHECKSUM
  18:Service/../MAVLink/common/../checksum.h ****  *
  19:Service/../MAVLink/common/../checksum.h ****  */
  20:Service/../MAVLink/common/../checksum.h **** 
  21:Service/../MAVLink/common/../checksum.h **** #define X25_INIT_CRC 0xffff
  22:Service/../MAVLink/common/../checksum.h **** #define X25_VALIDATE_CRC 0xf0b8
  23:Service/../MAVLink/common/../checksum.h **** 
  24:Service/../MAVLink/common/../checksum.h **** #ifndef HAVE_CRC_ACCUMULATE
  25:Service/../MAVLink/common/../checksum.h **** /**
  26:Service/../MAVLink/common/../checksum.h ****  * @brief Accumulate the MCRF4XX CRC16 by adding one char at a time.
  27:Service/../MAVLink/common/../checksum.h ****  *
  28:Service/../MAVLink/common/../checksum.h ****  * The checksum function adds the hash of one char at a time to the
  29:Service/../MAVLink/common/../checksum.h ****  * 16 bit checksum (uint16_t).
  30:Service/../MAVLink/common/../checksum.h ****  *
  31:Service/../MAVLink/common/../checksum.h ****  * @param data new char to hash
  32:Service/../MAVLink/common/../checksum.h ****  * @param crcAccum the already accumulated checksum
  33:Service/../MAVLink/common/../checksum.h ****  **/
  34:Service/../MAVLink/common/../checksum.h **** static inline void crc_accumulate(uint8_t data, uint16_t *crcAccum)
  35:Service/../MAVLink/common/../checksum.h **** {
  36:Service/../MAVLink/common/../checksum.h ****         /*Accumulate one byte of data into the CRC*/
  37:Service/../MAVLink/common/../checksum.h ****         uint8_t tmp;
  38:Service/../MAVLink/common/../checksum.h **** 
  39:Service/../MAVLink/common/../checksum.h ****         tmp = data ^ (uint8_t)(*crcAccum &0xff);
  40:Service/../MAVLink/common/../checksum.h ****         tmp ^= (tmp<<4);
  41:Service/../MAVLink/common/../checksum.h ****         *crcAccum = (*crcAccum>>8) ^ (tmp<<8) ^ (tmp <<3) ^ (tmp>>4);
  42:Service/../MAVLink/common/../checksum.h **** }
  43:Service/../MAVLink/common/../checksum.h **** #endif
ARM GAS  C:\Users\8bit\AppData\Local\Temp\ccCRhmZR.s 			page 130


  44:Service/../MAVLink/common/../checksum.h **** 
  45:Service/../MAVLink/common/../checksum.h **** 
  46:Service/../MAVLink/common/../checksum.h **** /**
  47:Service/../MAVLink/common/../checksum.h ****  * @brief Initialize the buffer for the MCRF4XX CRC16
  48:Service/../MAVLink/common/../checksum.h ****  *
  49:Service/../MAVLink/common/../checksum.h ****  * @param crcAccum the 16 bit MCRF4XX CRC16
  50:Service/../MAVLink/common/../checksum.h ****  */
  51:Service/../MAVLink/common/../checksum.h **** static inline void crc_init(uint16_t* crcAccum)
  52:Service/../MAVLink/common/../checksum.h **** {
  53:Service/../MAVLink/common/../checksum.h ****         *crcAccum = X25_INIT_CRC;
  54:Service/../MAVLink/common/../checksum.h **** }
  55:Service/../MAVLink/common/../checksum.h **** 
  56:Service/../MAVLink/common/../checksum.h **** 
  57:Service/../MAVLink/common/../checksum.h **** /**
  58:Service/../MAVLink/common/../checksum.h ****  * @brief Calculates the MCRF4XX CRC16 checksum on a byte buffer
  59:Service/../MAVLink/common/../checksum.h ****  *
  60:Service/../MAVLink/common/../checksum.h ****  * @param  pBuffer buffer containing the byte array to hash
  61:Service/../MAVLink/common/../checksum.h ****  * @param  length  length of the byte array
  62:Service/../MAVLink/common/../checksum.h ****  * @return the checksum over the buffer bytes
  63:Service/../MAVLink/common/../checksum.h ****  **/
  64:Service/../MAVLink/common/../checksum.h **** static inline uint16_t crc_calculate(const uint8_t* pBuffer, uint16_t length)
 2094              		.loc 14 64 24 is_stmt 1 view .LVU560
 2095              	.LBB114:
  65:Service/../MAVLink/common/../checksum.h **** {
  66:Service/../MAVLink/common/../checksum.h ****         uint16_t crcTmp;
 2096              		.loc 14 66 9 view .LVU561
  67:Service/../MAVLink/common/../checksum.h ****         crc_init(&crcTmp);
 2097              		.loc 14 67 9 view .LVU562
 2098              	.LBB115:
 2099              	.LBI115:
  51:Service/../MAVLink/common/../checksum.h **** {
 2100              		.loc 14 51 20 view .LVU563
 2101              	.LBB116:
  53:Service/../MAVLink/common/../checksum.h **** }
 2102              		.loc 14 53 9 view .LVU564
  53:Service/../MAVLink/common/../checksum.h **** }
 2103              		.loc 14 53 19 is_stmt 0 view .LVU565
 2104 0134 4FF6FF73 		movw	r3, #65535
  54:Service/../MAVLink/common/../checksum.h **** 
 2105              		.loc 14 54 1 view .LVU566
 2106 0138 0522     		movs	r2, #5
 2107 013a 12E0     		b	.L102
 2108              	.LVL149:
 2109              	.L103:
  54:Service/../MAVLink/common/../checksum.h **** 
 2110              		.loc 14 54 1 view .LVU567
 2111              	.LBE116:
 2112              	.LBE115:
  68:Service/../MAVLink/common/../checksum.h **** 	while (length--) {
  69:Service/../MAVLink/common/../checksum.h ****                 crc_accumulate(*pBuffer++, &crcTmp);
 2113              		.loc 14 69 17 is_stmt 1 view .LVU568
 2114              		.loc 14 69 17 is_stmt 0 view .LVU569
 2115 013c 11F8012B 		ldrb	r2, [r1], #1	@ zero_extendqisi2
 2116              	.LVL150:
 2117              	.LBB117:
 2118              	.LBI117:
  34:Service/../MAVLink/common/../checksum.h **** {
ARM GAS  C:\Users\8bit\AppData\Local\Temp\ccCRhmZR.s 			page 131


 2119              		.loc 14 34 20 is_stmt 1 view .LVU570
 2120              	.LBB118:
  37:Service/../MAVLink/common/../checksum.h **** 
 2121              		.loc 14 37 9 view .LVU571
  39:Service/../MAVLink/common/../checksum.h ****         tmp ^= (tmp<<4);
 2122              		.loc 14 39 9 view .LVU572
  39:Service/../MAVLink/common/../checksum.h ****         tmp ^= (tmp<<4);
 2123              		.loc 14 39 22 is_stmt 0 view .LVU573
 2124 0140 5FFA83FC 		uxtb	ip, r3
  39:Service/../MAVLink/common/../checksum.h ****         tmp ^= (tmp<<4);
 2125              		.loc 14 39 13 view .LVU574
 2126 0144 82EA0C02 		eor	r2, r2, ip
 2127              	.LVL151:
  40:Service/../MAVLink/common/../checksum.h ****         *crcAccum = (*crcAccum>>8) ^ (tmp<<8) ^ (tmp <<3) ^ (tmp>>4);
 2128              		.loc 14 40 9 is_stmt 1 view .LVU575
  40:Service/../MAVLink/common/../checksum.h ****         *crcAccum = (*crcAccum>>8) ^ (tmp<<8) ^ (tmp <<3) ^ (tmp>>4);
 2129              		.loc 14 40 13 is_stmt 0 view .LVU576
 2130 0148 82EA0212 		eor	r2, r2, r2, lsl #4
 2131              	.LVL152:
  40:Service/../MAVLink/common/../checksum.h ****         *crcAccum = (*crcAccum>>8) ^ (tmp<<8) ^ (tmp <<3) ^ (tmp>>4);
 2132              		.loc 14 40 13 view .LVU577
 2133 014c D2B2     		uxtb	r2, r2
 2134              	.LVL153:
  41:Service/../MAVLink/common/../checksum.h **** }
 2135              		.loc 14 41 9 is_stmt 1 view .LVU578
  41:Service/../MAVLink/common/../checksum.h **** }
 2136              		.loc 14 41 36 is_stmt 0 view .LVU579
 2137 014e 1B0A     		lsrs	r3, r3, #8
 2138              	.LVL154:
  41:Service/../MAVLink/common/../checksum.h **** }
 2139              		.loc 14 41 36 view .LVU580
 2140 0150 43EA0223 		orr	r3, r3, r2, lsl #8
 2141 0154 1BB2     		sxth	r3, r3
  41:Service/../MAVLink/common/../checksum.h **** }
 2142              		.loc 14 41 47 view .LVU581
 2143 0156 83EAC203 		eor	r3, r3, r2, lsl #3
  41:Service/../MAVLink/common/../checksum.h **** }
 2144              		.loc 14 41 59 view .LVU582
 2145 015a 83EA1213 		eor	r3, r3, r2, lsr #4
 2146 015e 9BB2     		uxth	r3, r3
 2147              	.LVL155:
  41:Service/../MAVLink/common/../checksum.h **** }
 2148              		.loc 14 41 59 view .LVU583
 2149              	.LBE118:
 2150              	.LBE117:
  68:Service/../MAVLink/common/../checksum.h ****                 crc_accumulate(*pBuffer++, &crcTmp);
 2151              		.loc 14 68 15 view .LVU584
 2152 0160 0246     		mov	r2, r0
 2153              	.LVL156:
 2154              	.L102:
  68:Service/../MAVLink/common/../checksum.h ****                 crc_accumulate(*pBuffer++, &crcTmp);
 2155              		.loc 14 68 8 is_stmt 1 view .LVU585
  68:Service/../MAVLink/common/../checksum.h ****                 crc_accumulate(*pBuffer++, &crcTmp);
 2156              		.loc 14 68 15 is_stmt 0 view .LVU586
 2157 0162 501E     		subs	r0, r2, #1
 2158 0164 80B2     		uxth	r0, r0
 2159              	.LVL157:
ARM GAS  C:\Users\8bit\AppData\Local\Temp\ccCRhmZR.s 			page 132


  68:Service/../MAVLink/common/../checksum.h ****                 crc_accumulate(*pBuffer++, &crcTmp);
 2160              		.loc 14 68 8 view .LVU587
 2161 0166 002A     		cmp	r2, #0
 2162 0168 E8D1     		bne	.L103
  70:Service/../MAVLink/common/../checksum.h ****         }
  71:Service/../MAVLink/common/../checksum.h ****         return crcTmp;
 2163              		.loc 14 71 9 is_stmt 1 view .LVU588
 2164              	.LVL158:
 2165              		.loc 14 71 9 is_stmt 0 view .LVU589
 2166              	.LBE114:
 2167              	.LBE113:
  85:Service/../MAVLink/common/../mavlink_helpers.h **** 	crc_accumulate_buffer(&msg->checksum, _MAV_PAYLOAD(msg), msg->len);
 2168              		.loc 2 85 16 view .LVU590
 2169 016a 2046     		mov	r0, r4
 2170 016c 20F8083B 		strh	r3, [r0], #8	@ unaligned
  86:Service/../MAVLink/common/../mavlink_helpers.h **** #if MAVLINK_CRC_EXTRA
 2171              		.loc 2 86 2 is_stmt 1 view .LVU591
 2172 0170 E378     		ldrb	r3, [r4, #3]	@ zero_extendqisi2
 2173              	.LVL159:
 2174              	.LBB119:
 2175              	.LBI119:
  72:Service/../MAVLink/common/../checksum.h **** }
  73:Service/../MAVLink/common/../checksum.h **** 
  74:Service/../MAVLink/common/../checksum.h **** 
  75:Service/../MAVLink/common/../checksum.h **** /**
  76:Service/../MAVLink/common/../checksum.h ****  * @brief Accumulate the MCRF4XX CRC16 CRC by adding an array of bytes
  77:Service/../MAVLink/common/../checksum.h ****  *
  78:Service/../MAVLink/common/../checksum.h ****  * The checksum function adds the hash of one char at a time to the
  79:Service/../MAVLink/common/../checksum.h ****  * 16 bit checksum (uint16_t).
  80:Service/../MAVLink/common/../checksum.h ****  *
  81:Service/../MAVLink/common/../checksum.h ****  * @param data new bytes to hash
  82:Service/../MAVLink/common/../checksum.h ****  * @param crcAccum the already accumulated checksum
  83:Service/../MAVLink/common/../checksum.h ****  **/
  84:Service/../MAVLink/common/../checksum.h **** static inline void crc_accumulate_buffer(uint16_t *crcAccum, const char *pBuffer, uint16_t length)
 2176              		.loc 14 84 20 view .LVU592
 2177              	.LBB120:
  85:Service/../MAVLink/common/../checksum.h **** {
  86:Service/../MAVLink/common/../checksum.h **** 	const uint8_t *p = (const uint8_t *)pBuffer;
 2178              		.loc 14 86 17 is_stmt 0 view .LVU593
 2179 0172 0146     		mov	r1, r0
 2180 0174 13E0     		b	.L104
 2181              	.LVL160:
 2182              	.L105:
  87:Service/../MAVLink/common/../checksum.h **** 	while (length--) {
  88:Service/../MAVLink/common/../checksum.h ****                 crc_accumulate(*p++, crcAccum);
 2183              		.loc 14 88 17 is_stmt 1 view .LVU594
 2184              		.loc 14 88 17 is_stmt 0 view .LVU595
 2185 0176 11F8012B 		ldrb	r2, [r1], #1	@ zero_extendqisi2
 2186              	.LVL161:
 2187              	.LBB121:
 2188              	.LBI121:
  34:Service/../MAVLink/common/../checksum.h **** {
 2189              		.loc 14 34 20 is_stmt 1 view .LVU596
 2190              	.LBB122:
  37:Service/../MAVLink/common/../checksum.h **** 
 2191              		.loc 14 37 9 view .LVU597
  39:Service/../MAVLink/common/../checksum.h ****         tmp ^= (tmp<<4);
ARM GAS  C:\Users\8bit\AppData\Local\Temp\ccCRhmZR.s 			page 133


 2192              		.loc 14 39 9 view .LVU598
  39:Service/../MAVLink/common/../checksum.h ****         tmp ^= (tmp<<4);
 2193              		.loc 14 39 32 is_stmt 0 view .LVU599
 2194 017a 2388     		ldrh	r3, [r4]
  39:Service/../MAVLink/common/../checksum.h ****         tmp ^= (tmp<<4);
 2195              		.loc 14 39 22 view .LVU600
 2196 017c 5FFA83FE 		uxtb	lr, r3
  39:Service/../MAVLink/common/../checksum.h ****         tmp ^= (tmp<<4);
 2197              		.loc 14 39 13 view .LVU601
 2198 0180 82EA0E02 		eor	r2, r2, lr
 2199              	.LVL162:
  40:Service/../MAVLink/common/../checksum.h ****         *crcAccum = (*crcAccum>>8) ^ (tmp<<8) ^ (tmp <<3) ^ (tmp>>4);
 2200              		.loc 14 40 9 is_stmt 1 view .LVU602
  40:Service/../MAVLink/common/../checksum.h ****         *crcAccum = (*crcAccum>>8) ^ (tmp<<8) ^ (tmp <<3) ^ (tmp>>4);
 2201              		.loc 14 40 13 is_stmt 0 view .LVU603
 2202 0184 82EA0212 		eor	r2, r2, r2, lsl #4
 2203              	.LVL163:
  40:Service/../MAVLink/common/../checksum.h ****         *crcAccum = (*crcAccum>>8) ^ (tmp<<8) ^ (tmp <<3) ^ (tmp>>4);
 2204              		.loc 14 40 13 view .LVU604
 2205 0188 D2B2     		uxtb	r2, r2
 2206              	.LVL164:
  41:Service/../MAVLink/common/../checksum.h **** }
 2207              		.loc 14 41 9 is_stmt 1 view .LVU605
  41:Service/../MAVLink/common/../checksum.h **** }
 2208              		.loc 14 41 36 is_stmt 0 view .LVU606
 2209 018a 1B0A     		lsrs	r3, r3, #8
 2210 018c 43EA0223 		orr	r3, r3, r2, lsl #8
 2211 0190 1BB2     		sxth	r3, r3
  41:Service/../MAVLink/common/../checksum.h **** }
 2212              		.loc 14 41 47 view .LVU607
 2213 0192 83EAC203 		eor	r3, r3, r2, lsl #3
  41:Service/../MAVLink/common/../checksum.h **** }
 2214              		.loc 14 41 59 view .LVU608
 2215 0196 83EA1213 		eor	r3, r3, r2, lsr #4
  41:Service/../MAVLink/common/../checksum.h **** }
 2216              		.loc 14 41 19 view .LVU609
 2217 019a 2380     		strh	r3, [r4]	@ movhi
 2218              	.LVL165:
  41:Service/../MAVLink/common/../checksum.h **** }
 2219              		.loc 14 41 19 view .LVU610
 2220              	.LBE122:
 2221              	.LBE121:
  87:Service/../MAVLink/common/../checksum.h ****                 crc_accumulate(*p++, crcAccum);
 2222              		.loc 14 87 15 view .LVU611
 2223 019c 6346     		mov	r3, ip
 2224              	.LVL166:
 2225              	.L104:
  87:Service/../MAVLink/common/../checksum.h ****                 crc_accumulate(*p++, crcAccum);
 2226              		.loc 14 87 8 is_stmt 1 view .LVU612
  87:Service/../MAVLink/common/../checksum.h ****                 crc_accumulate(*p++, crcAccum);
 2227              		.loc 14 87 15 is_stmt 0 view .LVU613
 2228 019e 03F1FF3C 		add	ip, r3, #-1
 2229 01a2 1FFA8CFC 		uxth	ip, ip
 2230              	.LVL167:
  87:Service/../MAVLink/common/../checksum.h ****                 crc_accumulate(*p++, crcAccum);
 2231              		.loc 14 87 8 view .LVU614
 2232 01a6 002B     		cmp	r3, #0
ARM GAS  C:\Users\8bit\AppData\Local\Temp\ccCRhmZR.s 			page 134


 2233 01a8 E5D1     		bne	.L105
 2234              	.LVL168:
  87:Service/../MAVLink/common/../checksum.h ****                 crc_accumulate(*p++, crcAccum);
 2235              		.loc 14 87 8 view .LVU615
 2236              	.LBE120:
 2237              	.LBE119:
  88:Service/../MAVLink/common/../mavlink_helpers.h **** #endif
 2238              		.loc 2 88 2 is_stmt 1 view .LVU616
 2239              	.LBB123:
 2240              	.LBI123:
  34:Service/../MAVLink/common/../checksum.h **** {
 2241              		.loc 14 34 20 view .LVU617
 2242              	.LBB124:
  37:Service/../MAVLink/common/../checksum.h **** 
 2243              		.loc 14 37 9 view .LVU618
  39:Service/../MAVLink/common/../checksum.h ****         tmp ^= (tmp<<4);
 2244              		.loc 14 39 9 view .LVU619
  39:Service/../MAVLink/common/../checksum.h ****         tmp ^= (tmp<<4);
 2245              		.loc 14 39 32 is_stmt 0 view .LVU620
 2246 01aa 2388     		ldrh	r3, [r4]
  39:Service/../MAVLink/common/../checksum.h ****         tmp ^= (tmp<<4);
 2247              		.loc 14 39 22 view .LVU621
 2248 01ac DAB2     		uxtb	r2, r3
  39:Service/../MAVLink/common/../checksum.h ****         tmp ^= (tmp<<4);
 2249              		.loc 14 39 13 view .LVU622
 2250 01ae 82F0AA02 		eor	r2, r2, #170
 2251              	.LVL169:
  40:Service/../MAVLink/common/../checksum.h ****         *crcAccum = (*crcAccum>>8) ^ (tmp<<8) ^ (tmp <<3) ^ (tmp>>4);
 2252              		.loc 14 40 9 is_stmt 1 view .LVU623
  40:Service/../MAVLink/common/../checksum.h ****         *crcAccum = (*crcAccum>>8) ^ (tmp<<8) ^ (tmp <<3) ^ (tmp>>4);
 2253              		.loc 14 40 13 is_stmt 0 view .LVU624
 2254 01b2 82EA0212 		eor	r2, r2, r2, lsl #4
 2255              	.LVL170:
  40:Service/../MAVLink/common/../checksum.h ****         *crcAccum = (*crcAccum>>8) ^ (tmp<<8) ^ (tmp <<3) ^ (tmp>>4);
 2256              		.loc 14 40 13 view .LVU625
 2257 01b6 D2B2     		uxtb	r2, r2
 2258              	.LVL171:
  41:Service/../MAVLink/common/../checksum.h **** }
 2259              		.loc 14 41 9 is_stmt 1 view .LVU626
  41:Service/../MAVLink/common/../checksum.h **** }
 2260              		.loc 14 41 36 is_stmt 0 view .LVU627
 2261 01b8 1B0A     		lsrs	r3, r3, #8
 2262 01ba 43EA0223 		orr	r3, r3, r2, lsl #8
 2263 01be 1BB2     		sxth	r3, r3
  41:Service/../MAVLink/common/../checksum.h **** }
 2264              		.loc 14 41 47 view .LVU628
 2265 01c0 83EAC203 		eor	r3, r3, r2, lsl #3
  41:Service/../MAVLink/common/../checksum.h **** }
 2266              		.loc 14 41 59 view .LVU629
 2267 01c4 83EA1213 		eor	r3, r3, r2, lsr #4
  41:Service/../MAVLink/common/../checksum.h **** }
 2268              		.loc 14 41 19 view .LVU630
 2269 01c8 2380     		strh	r3, [r4]	@ movhi
 2270              	.LVL172:
  41:Service/../MAVLink/common/../checksum.h **** }
 2271              		.loc 14 41 19 view .LVU631
 2272              	.LBE124:
ARM GAS  C:\Users\8bit\AppData\Local\Temp\ccCRhmZR.s 			page 135


 2273              	.LBE123:
  90:Service/../MAVLink/common/../mavlink_helpers.h **** 	mavlink_ck_b(msg) = (uint8_t)(msg->checksum >> 8);
 2274              		.loc 2 90 2 is_stmt 1 view .LVU632
  90:Service/../MAVLink/common/../mavlink_helpers.h **** 	mavlink_ck_b(msg) = (uint8_t)(msg->checksum >> 8);
 2275              		.loc 2 90 35 is_stmt 0 view .LVU633
 2276 01ca 2288     		ldrh	r2, [r4]	@ unaligned
  90:Service/../MAVLink/common/../mavlink_helpers.h **** 	mavlink_ck_b(msg) = (uint8_t)(msg->checksum >> 8);
 2277              		.loc 2 90 2 view .LVU634
 2278 01cc E378     		ldrb	r3, [r4, #3]	@ zero_extendqisi2
  90:Service/../MAVLink/common/../mavlink_helpers.h **** 	mavlink_ck_b(msg) = (uint8_t)(msg->checksum >> 8);
 2279              		.loc 2 90 20 view .LVU635
 2280 01ce C254     		strb	r2, [r0, r3]
  91:Service/../MAVLink/common/../mavlink_helpers.h **** 
 2281              		.loc 2 91 2 is_stmt 1 view .LVU636
  91:Service/../MAVLink/common/../mavlink_helpers.h **** 
 2282              		.loc 2 91 35 is_stmt 0 view .LVU637
 2283 01d0 2288     		ldrh	r2, [r4]	@ unaligned
  91:Service/../MAVLink/common/../mavlink_helpers.h **** 
 2284              		.loc 2 91 2 view .LVU638
 2285 01d2 E378     		ldrb	r3, [r4, #3]	@ zero_extendqisi2
 2286 01d4 0133     		adds	r3, r3, #1
  91:Service/../MAVLink/common/../mavlink_helpers.h **** 
 2287              		.loc 2 91 22 view .LVU639
 2288 01d6 120A     		lsrs	r2, r2, #8
  91:Service/../MAVLink/common/../mavlink_helpers.h **** 
 2289              		.loc 2 91 20 view .LVU640
 2290 01d8 C254     		strb	r2, [r0, r3]
  93:Service/../MAVLink/common/../mavlink_helpers.h **** }
 2291              		.loc 2 93 2 is_stmt 1 view .LVU641
 2292              	.LVL173:
  93:Service/../MAVLink/common/../mavlink_helpers.h **** }
 2293              		.loc 2 93 2 is_stmt 0 view .LVU642
 2294              	.LBE126:
 2295              	.LBE128:
 2296              	.LBE130:
 2297              	.LBE132:
 247:Service/Srv_ComProto.c **** 
 2298              		.loc 1 247 1 view .LVU643
 2299 01da 1E20     		movs	r0, #30
 2300 01dc 1BB0     		add	sp, sp, #108
 2301              	.LCFI79:
 2302              		.cfi_def_cfa_offset 20
 2303              		@ sp needed
 2304 01de F0BD     		pop	{r4, r5, r6, r7, pc}
 2305              	.L108:
 2306              		.align	2
 2307              	.L107:
 2308 01e0 00000000 		.word	SrvDataHub
 2309 01e4 00000000 		.word	.LANCHOR1
 2310              		.cfi_endproc
 2311              	.LFE2080:
 2313              		.section	.text.SrvComProto_MavMsg_Altitude,"ax",%progbits
 2314              		.align	1
 2315              		.syntax unified
 2316              		.thumb
 2317              		.thumb_func
 2319              	SrvComProto_MavMsg_Altitude:
ARM GAS  C:\Users\8bit\AppData\Local\Temp\ccCRhmZR.s 			page 136


 2320              	.LVL174:
 2321              	.LFB2084:
 304:Service/Srv_ComProto.c ****     uint32_t time_stamp = 0;
 2322              		.loc 1 304 1 is_stmt 1 view -0
 2323              		.cfi_startproc
 2324              		@ args = 0, pretend = 0, frame = 56
 2325              		@ frame_needed = 0, uses_anonymous_args = 0
 304:Service/Srv_ComProto.c ****     uint32_t time_stamp = 0;
 2326              		.loc 1 304 1 is_stmt 0 view .LVU645
 2327 0000 2DE9F041 		push	{r4, r5, r6, r7, r8, lr}
 2328              	.LCFI80:
 2329              		.cfi_def_cfa_offset 24
 2330              		.cfi_offset 4, -24
 2331              		.cfi_offset 5, -20
 2332              		.cfi_offset 6, -16
 2333              		.cfi_offset 7, -12
 2334              		.cfi_offset 8, -8
 2335              		.cfi_offset 14, -4
 2336 0004 90B0     		sub	sp, sp, #64
 2337              	.LCFI81:
 2338              		.cfi_def_cfa_offset 88
 2339 0006 0446     		mov	r4, r0
 305:Service/Srv_ComProto.c ****     uint8_t error = 0;
 2340              		.loc 1 305 5 is_stmt 1 view .LVU646
 305:Service/Srv_ComProto.c ****     uint8_t error = 0;
 2341              		.loc 1 305 14 is_stmt 0 view .LVU647
 2342 0008 0026     		movs	r6, #0
 2343 000a 0F96     		str	r6, [sp, #60]
 306:Service/Srv_ComProto.c ****     float baro_pressure = 0.0f;
 2344              		.loc 1 306 5 is_stmt 1 view .LVU648
 306:Service/Srv_ComProto.c ****     float baro_pressure = 0.0f;
 2345              		.loc 1 306 13 is_stmt 0 view .LVU649
 2346 000c 8DF83B60 		strb	r6, [sp, #59]
 307:Service/Srv_ComProto.c ****     float baro_alt = 0.0f;
 2347              		.loc 1 307 5 is_stmt 1 view .LVU650
 307:Service/Srv_ComProto.c ****     float baro_alt = 0.0f;
 2348              		.loc 1 307 11 is_stmt 0 view .LVU651
 2349 0010 0025     		movs	r5, #0
 2350 0012 0D95     		str	r5, [sp, #52]	@ float
 308:Service/Srv_ComProto.c ****     float baro_alt_offset = 0.0f;
 2351              		.loc 1 308 5 is_stmt 1 view .LVU652
 308:Service/Srv_ComProto.c ****     float baro_alt_offset = 0.0f;
 2352              		.loc 1 308 11 is_stmt 0 view .LVU653
 2353 0014 0C95     		str	r5, [sp, #48]	@ float
 309:Service/Srv_ComProto.c ****     float baro_tempra = 0.0f;
 2354              		.loc 1 309 5 is_stmt 1 view .LVU654
 309:Service/Srv_ComProto.c ****     float baro_tempra = 0.0f;
 2355              		.loc 1 309 11 is_stmt 0 view .LVU655
 2356 0016 0B95     		str	r5, [sp, #44]	@ float
 310:Service/Srv_ComProto.c **** 
 2357              		.loc 1 310 5 is_stmt 1 view .LVU656
 310:Service/Srv_ComProto.c **** 
 2358              		.loc 1 310 11 is_stmt 0 view .LVU657
 2359 0018 0A95     		str	r5, [sp, #40]	@ float
 312:Service/Srv_ComProto.c **** 
 2360              		.loc 1 312 5 is_stmt 1 view .LVU658
 312:Service/Srv_ComProto.c **** 
ARM GAS  C:\Users\8bit\AppData\Local\Temp\ccCRhmZR.s 			page 137


 2361              		.loc 1 312 15 is_stmt 0 view .LVU659
 2362 001a 4D4B     		ldr	r3, .L115
 2363 001c 1F6D     		ldr	r7, [r3, #80]
 312:Service/Srv_ComProto.c **** 
 2364              		.loc 1 312 5 view .LVU660
 2365 001e 0DF13B03 		add	r3, sp, #59
 2366 0022 0193     		str	r3, [sp, #4]
 2367 0024 0AAB     		add	r3, sp, #40
 2368 0026 0093     		str	r3, [sp]
 2369 0028 0BAB     		add	r3, sp, #44
 2370 002a 0CAA     		add	r2, sp, #48
 2371 002c 0DA9     		add	r1, sp, #52
 2372 002e 0FA8     		add	r0, sp, #60
 2373              	.LVL175:
 312:Service/Srv_ComProto.c **** 
 2374              		.loc 1 312 5 view .LVU661
 2375 0030 B847     		blx	r7
 2376              	.LVL176:
 314:Service/Srv_ComProto.c ****                                           pck->pck_info.component_id,
 2377              		.loc 1 314 5 is_stmt 1 view .LVU662
 314:Service/Srv_ComProto.c ****                                           pck->pck_info.component_id,
 2378              		.loc 1 314 12 is_stmt 0 view .LVU663
 2379 0032 94F80880 		ldrb	r8, [r4, #8]	@ zero_extendqisi2
 2380 0036 677A     		ldrb	r7, [r4, #9]	@ zero_extendqisi2
 2381 0038 94F80AE0 		ldrb	lr, [r4, #10]	@ zero_extendqisi2
 2382 003c E468     		ldr	r4, [r4, #12]
 2383              	.LVL177:
 314:Service/Srv_ComProto.c ****                                           pck->pck_info.component_id,
 2384              		.loc 1 314 12 view .LVU664
 2385 003e 0F9B     		ldr	r3, [sp, #60]
 2386              	.LVL178:
 2387              	.LBB153:
 2388              	.LBI153:
 117:Service/../MAVLink/common/./mavlink_msg_altitude.h ****                                mavlink_message_t* msg,
 2389              		.loc 5 117 24 is_stmt 1 view .LVU665
 2390              	.LBB154:
 133:Service/../MAVLink/common/./mavlink_msg_altitude.h ****     packet.time_usec = time_usec;
 2391              		.loc 5 133 5 view .LVU666
 134:Service/../MAVLink/common/./mavlink_msg_altitude.h ****     packet.altitude_monotonic = altitude_monotonic;
 2392              		.loc 5 134 5 view .LVU667
 134:Service/../MAVLink/common/./mavlink_msg_altitude.h ****     packet.altitude_monotonic = altitude_monotonic;
 2393              		.loc 5 134 22 is_stmt 0 view .LVU668
 2394 0040 0293     		str	r3, [sp, #8]
 2395 0042 0396     		str	r6, [sp, #12]
 135:Service/../MAVLink/common/./mavlink_msg_altitude.h ****     packet.altitude_amsl = altitude_amsl;
 2396              		.loc 5 135 5 is_stmt 1 view .LVU669
 135:Service/../MAVLink/common/./mavlink_msg_altitude.h ****     packet.altitude_amsl = altitude_amsl;
 2397              		.loc 5 135 31 is_stmt 0 view .LVU670
 2398 0044 0C9B     		ldr	r3, [sp, #48]	@ float
 2399              	.LVL179:
 135:Service/../MAVLink/common/./mavlink_msg_altitude.h ****     packet.altitude_amsl = altitude_amsl;
 2400              		.loc 5 135 31 view .LVU671
 2401 0046 0493     		str	r3, [sp, #16]	@ float
 136:Service/../MAVLink/common/./mavlink_msg_altitude.h ****     packet.altitude_local = altitude_local;
 2402              		.loc 5 136 5 is_stmt 1 view .LVU672
 136:Service/../MAVLink/common/./mavlink_msg_altitude.h ****     packet.altitude_local = altitude_local;
 2403              		.loc 5 136 26 is_stmt 0 view .LVU673
ARM GAS  C:\Users\8bit\AppData\Local\Temp\ccCRhmZR.s 			page 138


 2404 0048 0D9B     		ldr	r3, [sp, #52]	@ float
 2405 004a 0593     		str	r3, [sp, #20]	@ float
 137:Service/../MAVLink/common/./mavlink_msg_altitude.h ****     packet.altitude_relative = altitude_relative;
 2406              		.loc 5 137 5 is_stmt 1 view .LVU674
 137:Service/../MAVLink/common/./mavlink_msg_altitude.h ****     packet.altitude_relative = altitude_relative;
 2407              		.loc 5 137 27 is_stmt 0 view .LVU675
 2408 004c 0695     		str	r5, [sp, #24]	@ float
 138:Service/../MAVLink/common/./mavlink_msg_altitude.h ****     packet.altitude_terrain = altitude_terrain;
 2409              		.loc 5 138 5 is_stmt 1 view .LVU676
 138:Service/../MAVLink/common/./mavlink_msg_altitude.h ****     packet.altitude_terrain = altitude_terrain;
 2410              		.loc 5 138 30 is_stmt 0 view .LVU677
 2411 004e 0795     		str	r5, [sp, #28]	@ float
 139:Service/../MAVLink/common/./mavlink_msg_altitude.h ****     packet.bottom_clearance = bottom_clearance;
 2412              		.loc 5 139 5 is_stmt 1 view .LVU678
 139:Service/../MAVLink/common/./mavlink_msg_altitude.h ****     packet.bottom_clearance = bottom_clearance;
 2413              		.loc 5 139 29 is_stmt 0 view .LVU679
 2414 0050 0895     		str	r5, [sp, #32]	@ float
 140:Service/../MAVLink/common/./mavlink_msg_altitude.h **** 
 2415              		.loc 5 140 5 is_stmt 1 view .LVU680
 140:Service/../MAVLink/common/./mavlink_msg_altitude.h **** 
 2416              		.loc 5 140 29 is_stmt 0 view .LVU681
 2417 0052 0995     		str	r5, [sp, #36]	@ float
 142:Service/../MAVLink/common/./mavlink_msg_altitude.h **** #endif
 2418              		.loc 5 142 9 is_stmt 1 view .LVU682
 2419 0054 0DF1080C 		add	ip, sp, #8
 2420 0058 BCE80F00 		ldmia	ip!, {r0, r1, r2, r3}
 2421 005c A060     		str	r0, [r4, #8]	@ unaligned
 2422              	.LVL180:
 142:Service/../MAVLink/common/./mavlink_msg_altitude.h **** #endif
 2423              		.loc 5 142 9 is_stmt 0 view .LVU683
 2424 005e E160     		str	r1, [r4, #12]	@ unaligned
 2425 0060 2261     		str	r2, [r4, #16]	@ unaligned
 2426 0062 6361     		str	r3, [r4, #20]	@ unaligned
 2427 0064 BCE80F00 		ldmia	ip!, {r0, r1, r2, r3}
 2428              	.LVL181:
 142:Service/../MAVLink/common/./mavlink_msg_altitude.h **** #endif
 2429              		.loc 5 142 9 view .LVU684
 2430 0068 A061     		str	r0, [r4, #24]	@ unaligned
 2431 006a E161     		str	r1, [r4, #28]	@ unaligned
 2432 006c 2262     		str	r2, [r4, #32]	@ unaligned
 2433 006e 6362     		str	r3, [r4, #36]	@ unaligned
 145:Service/../MAVLink/common/./mavlink_msg_altitude.h ****     return mavlink_finalize_message_chan(msg, system_id, component_id, chan, MAVLINK_MSG_ID_ALTITUD
 2434              		.loc 5 145 5 is_stmt 1 view .LVU685
 145:Service/../MAVLink/common/./mavlink_msg_altitude.h ****     return mavlink_finalize_message_chan(msg, system_id, component_id, chan, MAVLINK_MSG_ID_ALTITUD
 2435              		.loc 5 145 16 is_stmt 0 view .LVU686
 2436 0070 8D23     		movs	r3, #141
 2437 0072 E371     		strb	r3, [r4, #7]
 146:Service/../MAVLink/common/./mavlink_msg_altitude.h **** }
 2438              		.loc 5 146 5 is_stmt 1 view .LVU687
 2439              	.LVL182:
 2440              	.LBB155:
 2441              	.LBI155:
  68:Service/../MAVLink/common/../mavlink_helpers.h **** 						      uint8_t chan, uint8_t min_length, uint8_t length, uint8_t crc_extra)
 2442              		.loc 2 68 25 view .LVU688
 2443              	.LBB156:
  76:Service/../MAVLink/common/../mavlink_helpers.h **** 	// This code part is the same for all messages;
 2444              		.loc 2 76 2 view .LVU689
ARM GAS  C:\Users\8bit\AppData\Local\Temp\ccCRhmZR.s 			page 139


  78:Service/../MAVLink/common/../mavlink_helpers.h **** 	msg->len = length;
 2445              		.loc 2 78 2 view .LVU690
  78:Service/../MAVLink/common/../mavlink_helpers.h **** 	msg->len = length;
 2446              		.loc 2 78 13 is_stmt 0 view .LVU691
 2447 0074 FE23     		movs	r3, #254
 2448 0076 A370     		strb	r3, [r4, #2]
  79:Service/../MAVLink/common/../mavlink_helpers.h **** 	msg->sysid = system_id;
 2449              		.loc 2 79 2 is_stmt 1 view .LVU692
  79:Service/../MAVLink/common/../mavlink_helpers.h **** 	msg->sysid = system_id;
 2450              		.loc 2 79 11 is_stmt 0 view .LVU693
 2451 0078 2023     		movs	r3, #32
 2452 007a E370     		strb	r3, [r4, #3]
  80:Service/../MAVLink/common/../mavlink_helpers.h **** 	msg->compid = component_id;
 2453              		.loc 2 80 2 is_stmt 1 view .LVU694
  80:Service/../MAVLink/common/../mavlink_helpers.h **** 	msg->compid = component_id;
 2454              		.loc 2 80 13 is_stmt 0 view .LVU695
 2455 007c 84F80580 		strb	r8, [r4, #5]
  81:Service/../MAVLink/common/../mavlink_helpers.h **** 	// One sequence number per channel
 2456              		.loc 2 81 2 is_stmt 1 view .LVU696
  81:Service/../MAVLink/common/../mavlink_helpers.h **** 	// One sequence number per channel
 2457              		.loc 2 81 14 is_stmt 0 view .LVU697
 2458 0080 A771     		strb	r7, [r4, #6]
  83:Service/../MAVLink/common/../mavlink_helpers.h **** 	mavlink_get_channel_status(chan)->current_tx_seq = mavlink_get_channel_status(chan)->current_tx_se
 2459              		.loc 2 83 2 is_stmt 1 view .LVU698
 2460              	.LVL183:
 2461              	.LBB157:
 2462              	.LBI157:
  17:Service/../MAVLink/common/../mavlink_helpers.h **** {
 2463              		.loc 2 17 34 view .LVU699
 2464              	.LBB158:
  23:Service/../MAVLink/common/../mavlink_helpers.h **** #endif
 2465              		.loc 2 23 2 view .LVU700
  25:Service/../MAVLink/common/../mavlink_helpers.h **** }
 2466              		.loc 2 25 2 view .LVU701
  25:Service/../MAVLink/common/../mavlink_helpers.h **** }
 2467              		.loc 2 25 2 is_stmt 0 view .LVU702
 2468              	.LBE158:
 2469              	.LBE157:
  83:Service/../MAVLink/common/../mavlink_helpers.h **** 	mavlink_get_channel_status(chan)->current_tx_seq = mavlink_get_channel_status(chan)->current_tx_se
 2470              		.loc 2 83 45 view .LVU703
 2471 0082 344B     		ldr	r3, .L115+4
 2472 0084 0EEB4E02 		add	r2, lr, lr, lsl #1
 2473 0088 03EB8202 		add	r2, r3, r2, lsl #2
 2474 008c 9179     		ldrb	r1, [r2, #6]	@ zero_extendqisi2
  83:Service/../MAVLink/common/../mavlink_helpers.h **** 	mavlink_get_channel_status(chan)->current_tx_seq = mavlink_get_channel_status(chan)->current_tx_se
 2475              		.loc 2 83 11 view .LVU704
 2476 008e 2171     		strb	r1, [r4, #4]
  84:Service/../MAVLink/common/../mavlink_helpers.h **** 	msg->checksum = crc_calculate(((const uint8_t*)(msg)) + 3, MAVLINK_CORE_HEADER_LEN);
 2477              		.loc 2 84 2 is_stmt 1 view .LVU705
 2478              	.LVL184:
 2479              	.LBB159:
 2480              	.LBI159:
  17:Service/../MAVLink/common/../mavlink_helpers.h **** {
 2481              		.loc 2 17 34 view .LVU706
 2482              	.LBE159:
 2483              	.LBE156:
 2484              	.LBE155:
ARM GAS  C:\Users\8bit\AppData\Local\Temp\ccCRhmZR.s 			page 140


 2485              	.LBE154:
 2486              	.LBE153:
  23:Service/../MAVLink/common/../mavlink_helpers.h **** #endif
 2487              		.loc 2 23 2 view .LVU707
  25:Service/../MAVLink/common/../mavlink_helpers.h **** }
 2488              		.loc 2 25 2 view .LVU708
 2489              	.LBB179:
 2490              	.LBB177:
 2491              	.LBB175:
 2492              	.LBB173:
  84:Service/../MAVLink/common/../mavlink_helpers.h **** 	msg->checksum = crc_calculate(((const uint8_t*)(msg)) + 3, MAVLINK_CORE_HEADER_LEN);
 2493              		.loc 2 84 85 is_stmt 0 view .LVU709
 2494 0090 9279     		ldrb	r2, [r2, #6]	@ zero_extendqisi2
 2495              	.LVL185:
 2496              	.LBB160:
 2497              	.LBI160:
  17:Service/../MAVLink/common/../mavlink_helpers.h **** {
 2498              		.loc 2 17 34 is_stmt 1 view .LVU710
 2499              	.LBE160:
 2500              	.LBE173:
 2501              	.LBE175:
 2502              	.LBE177:
 2503              	.LBE179:
  23:Service/../MAVLink/common/../mavlink_helpers.h **** #endif
 2504              		.loc 2 23 2 view .LVU711
  25:Service/../MAVLink/common/../mavlink_helpers.h **** }
 2505              		.loc 2 25 2 view .LVU712
 2506              	.LBB180:
 2507              	.LBB178:
 2508              	.LBB176:
 2509              	.LBB174:
  84:Service/../MAVLink/common/../mavlink_helpers.h **** 	msg->checksum = crc_calculate(((const uint8_t*)(msg)) + 3, MAVLINK_CORE_HEADER_LEN);
 2510              		.loc 2 84 101 is_stmt 0 view .LVU713
 2511 0092 0132     		adds	r2, r2, #1
  84:Service/../MAVLink/common/../mavlink_helpers.h **** 	msg->checksum = crc_calculate(((const uint8_t*)(msg)) + 3, MAVLINK_CORE_HEADER_LEN);
 2512              		.loc 2 84 51 view .LVU714
 2513 0094 0EEB4E0E 		add	lr, lr, lr, lsl #1
 2514              	.LVL186:
  84:Service/../MAVLink/common/../mavlink_helpers.h **** 	msg->checksum = crc_calculate(((const uint8_t*)(msg)) + 3, MAVLINK_CORE_HEADER_LEN);
 2515              		.loc 2 84 51 view .LVU715
 2516 0098 03EB8E0E 		add	lr, r3, lr, lsl #2
 2517 009c 8EF80620 		strb	r2, [lr, #6]
  85:Service/../MAVLink/common/../mavlink_helpers.h **** 	crc_accumulate_buffer(&msg->checksum, _MAV_PAYLOAD(msg), msg->len);
 2518              		.loc 2 85 2 is_stmt 1 view .LVU716
  85:Service/../MAVLink/common/../mavlink_helpers.h **** 	crc_accumulate_buffer(&msg->checksum, _MAV_PAYLOAD(msg), msg->len);
 2519              		.loc 2 85 18 is_stmt 0 view .LVU717
 2520 00a0 E11C     		adds	r1, r4, #3
 2521              	.LVL187:
 2522              	.LBB161:
 2523              	.LBI161:
  64:Service/../MAVLink/common/../checksum.h **** {
 2524              		.loc 14 64 24 is_stmt 1 view .LVU718
 2525              	.LBB162:
  66:Service/../MAVLink/common/../checksum.h ****         crc_init(&crcTmp);
 2526              		.loc 14 66 9 view .LVU719
  67:Service/../MAVLink/common/../checksum.h **** 	while (length--) {
 2527              		.loc 14 67 9 view .LVU720
ARM GAS  C:\Users\8bit\AppData\Local\Temp\ccCRhmZR.s 			page 141


 2528              	.LBB163:
 2529              	.LBI163:
  51:Service/../MAVLink/common/../checksum.h **** {
 2530              		.loc 14 51 20 view .LVU721
 2531              	.LBB164:
  53:Service/../MAVLink/common/../checksum.h **** }
 2532              		.loc 14 53 9 view .LVU722
  53:Service/../MAVLink/common/../checksum.h **** }
 2533              		.loc 14 53 19 is_stmt 0 view .LVU723
 2534 00a2 4FF6FF73 		movw	r3, #65535
  54:Service/../MAVLink/common/../checksum.h **** 
 2535              		.loc 14 54 1 view .LVU724
 2536 00a6 0522     		movs	r2, #5
 2537 00a8 12E0     		b	.L110
 2538              	.LVL188:
 2539              	.L111:
  54:Service/../MAVLink/common/../checksum.h **** 
 2540              		.loc 14 54 1 view .LVU725
 2541              	.LBE164:
 2542              	.LBE163:
  69:Service/../MAVLink/common/../checksum.h ****         }
 2543              		.loc 14 69 17 is_stmt 1 view .LVU726
  69:Service/../MAVLink/common/../checksum.h ****         }
 2544              		.loc 14 69 17 is_stmt 0 view .LVU727
 2545 00aa 11F8012B 		ldrb	r2, [r1], #1	@ zero_extendqisi2
 2546              	.LVL189:
 2547              	.LBB165:
 2548              	.LBI165:
  34:Service/../MAVLink/common/../checksum.h **** {
 2549              		.loc 14 34 20 is_stmt 1 view .LVU728
 2550              	.LBB166:
  37:Service/../MAVLink/common/../checksum.h **** 
 2551              		.loc 14 37 9 view .LVU729
  39:Service/../MAVLink/common/../checksum.h ****         tmp ^= (tmp<<4);
 2552              		.loc 14 39 9 view .LVU730
  39:Service/../MAVLink/common/../checksum.h ****         tmp ^= (tmp<<4);
 2553              		.loc 14 39 22 is_stmt 0 view .LVU731
 2554 00ae 5FFA83FC 		uxtb	ip, r3
  39:Service/../MAVLink/common/../checksum.h ****         tmp ^= (tmp<<4);
 2555              		.loc 14 39 13 view .LVU732
 2556 00b2 82EA0C02 		eor	r2, r2, ip
 2557              	.LVL190:
  40:Service/../MAVLink/common/../checksum.h ****         *crcAccum = (*crcAccum>>8) ^ (tmp<<8) ^ (tmp <<3) ^ (tmp>>4);
 2558              		.loc 14 40 9 is_stmt 1 view .LVU733
  40:Service/../MAVLink/common/../checksum.h ****         *crcAccum = (*crcAccum>>8) ^ (tmp<<8) ^ (tmp <<3) ^ (tmp>>4);
 2559              		.loc 14 40 13 is_stmt 0 view .LVU734
 2560 00b6 82EA0212 		eor	r2, r2, r2, lsl #4
 2561              	.LVL191:
  40:Service/../MAVLink/common/../checksum.h ****         *crcAccum = (*crcAccum>>8) ^ (tmp<<8) ^ (tmp <<3) ^ (tmp>>4);
 2562              		.loc 14 40 13 view .LVU735
 2563 00ba D2B2     		uxtb	r2, r2
 2564              	.LVL192:
  41:Service/../MAVLink/common/../checksum.h **** }
 2565              		.loc 14 41 9 is_stmt 1 view .LVU736
  41:Service/../MAVLink/common/../checksum.h **** }
 2566              		.loc 14 41 36 is_stmt 0 view .LVU737
 2567 00bc 1B0A     		lsrs	r3, r3, #8
ARM GAS  C:\Users\8bit\AppData\Local\Temp\ccCRhmZR.s 			page 142


 2568              	.LVL193:
  41:Service/../MAVLink/common/../checksum.h **** }
 2569              		.loc 14 41 36 view .LVU738
 2570 00be 43EA0223 		orr	r3, r3, r2, lsl #8
 2571 00c2 1BB2     		sxth	r3, r3
  41:Service/../MAVLink/common/../checksum.h **** }
 2572              		.loc 14 41 47 view .LVU739
 2573 00c4 83EAC203 		eor	r3, r3, r2, lsl #3
  41:Service/../MAVLink/common/../checksum.h **** }
 2574              		.loc 14 41 59 view .LVU740
 2575 00c8 83EA1213 		eor	r3, r3, r2, lsr #4
 2576 00cc 9BB2     		uxth	r3, r3
 2577              	.LVL194:
  41:Service/../MAVLink/common/../checksum.h **** }
 2578              		.loc 14 41 59 view .LVU741
 2579              	.LBE166:
 2580              	.LBE165:
  68:Service/../MAVLink/common/../checksum.h ****                 crc_accumulate(*pBuffer++, &crcTmp);
 2581              		.loc 14 68 15 view .LVU742
 2582 00ce 0246     		mov	r2, r0
 2583              	.LVL195:
 2584              	.L110:
  68:Service/../MAVLink/common/../checksum.h ****                 crc_accumulate(*pBuffer++, &crcTmp);
 2585              		.loc 14 68 8 is_stmt 1 view .LVU743
  68:Service/../MAVLink/common/../checksum.h ****                 crc_accumulate(*pBuffer++, &crcTmp);
 2586              		.loc 14 68 15 is_stmt 0 view .LVU744
 2587 00d0 501E     		subs	r0, r2, #1
 2588 00d2 80B2     		uxth	r0, r0
 2589              	.LVL196:
  68:Service/../MAVLink/common/../checksum.h ****                 crc_accumulate(*pBuffer++, &crcTmp);
 2590              		.loc 14 68 8 view .LVU745
 2591 00d4 002A     		cmp	r2, #0
 2592 00d6 E8D1     		bne	.L111
  71:Service/../MAVLink/common/../checksum.h **** }
 2593              		.loc 14 71 9 is_stmt 1 view .LVU746
 2594              	.LVL197:
  71:Service/../MAVLink/common/../checksum.h **** }
 2595              		.loc 14 71 9 is_stmt 0 view .LVU747
 2596              	.LBE162:
 2597              	.LBE161:
  85:Service/../MAVLink/common/../mavlink_helpers.h **** 	crc_accumulate_buffer(&msg->checksum, _MAV_PAYLOAD(msg), msg->len);
 2598              		.loc 2 85 16 view .LVU748
 2599 00d8 2046     		mov	r0, r4
 2600 00da 20F8083B 		strh	r3, [r0], #8	@ unaligned
  86:Service/../MAVLink/common/../mavlink_helpers.h **** #if MAVLINK_CRC_EXTRA
 2601              		.loc 2 86 2 is_stmt 1 view .LVU749
 2602 00de E378     		ldrb	r3, [r4, #3]	@ zero_extendqisi2
 2603              	.LVL198:
 2604              	.LBB167:
 2605              	.LBI167:
  84:Service/../MAVLink/common/../checksum.h **** {
 2606              		.loc 14 84 20 view .LVU750
 2607              	.LBB168:
  86:Service/../MAVLink/common/../checksum.h **** 	while (length--) {
 2608              		.loc 14 86 17 is_stmt 0 view .LVU751
 2609 00e0 0146     		mov	r1, r0
 2610 00e2 13E0     		b	.L112
ARM GAS  C:\Users\8bit\AppData\Local\Temp\ccCRhmZR.s 			page 143


 2611              	.LVL199:
 2612              	.L113:
 2613              		.loc 14 88 17 is_stmt 1 view .LVU752
 2614              		.loc 14 88 17 is_stmt 0 view .LVU753
 2615 00e4 11F8012B 		ldrb	r2, [r1], #1	@ zero_extendqisi2
 2616              	.LVL200:
 2617              	.LBB169:
 2618              	.LBI169:
  34:Service/../MAVLink/common/../checksum.h **** {
 2619              		.loc 14 34 20 is_stmt 1 view .LVU754
 2620              	.LBB170:
  37:Service/../MAVLink/common/../checksum.h **** 
 2621              		.loc 14 37 9 view .LVU755
  39:Service/../MAVLink/common/../checksum.h ****         tmp ^= (tmp<<4);
 2622              		.loc 14 39 9 view .LVU756
  39:Service/../MAVLink/common/../checksum.h ****         tmp ^= (tmp<<4);
 2623              		.loc 14 39 32 is_stmt 0 view .LVU757
 2624 00e8 2388     		ldrh	r3, [r4]
  39:Service/../MAVLink/common/../checksum.h ****         tmp ^= (tmp<<4);
 2625              		.loc 14 39 22 view .LVU758
 2626 00ea 5FFA83FE 		uxtb	lr, r3
  39:Service/../MAVLink/common/../checksum.h ****         tmp ^= (tmp<<4);
 2627              		.loc 14 39 13 view .LVU759
 2628 00ee 82EA0E02 		eor	r2, r2, lr
 2629              	.LVL201:
  40:Service/../MAVLink/common/../checksum.h ****         *crcAccum = (*crcAccum>>8) ^ (tmp<<8) ^ (tmp <<3) ^ (tmp>>4);
 2630              		.loc 14 40 9 is_stmt 1 view .LVU760
  40:Service/../MAVLink/common/../checksum.h ****         *crcAccum = (*crcAccum>>8) ^ (tmp<<8) ^ (tmp <<3) ^ (tmp>>4);
 2631              		.loc 14 40 13 is_stmt 0 view .LVU761
 2632 00f2 82EA0212 		eor	r2, r2, r2, lsl #4
 2633              	.LVL202:
  40:Service/../MAVLink/common/../checksum.h ****         *crcAccum = (*crcAccum>>8) ^ (tmp<<8) ^ (tmp <<3) ^ (tmp>>4);
 2634              		.loc 14 40 13 view .LVU762
 2635 00f6 D2B2     		uxtb	r2, r2
 2636              	.LVL203:
  41:Service/../MAVLink/common/../checksum.h **** }
 2637              		.loc 14 41 9 is_stmt 1 view .LVU763
  41:Service/../MAVLink/common/../checksum.h **** }
 2638              		.loc 14 41 36 is_stmt 0 view .LVU764
 2639 00f8 1B0A     		lsrs	r3, r3, #8
 2640 00fa 43EA0223 		orr	r3, r3, r2, lsl #8
 2641 00fe 1BB2     		sxth	r3, r3
  41:Service/../MAVLink/common/../checksum.h **** }
 2642              		.loc 14 41 47 view .LVU765
 2643 0100 83EAC203 		eor	r3, r3, r2, lsl #3
  41:Service/../MAVLink/common/../checksum.h **** }
 2644              		.loc 14 41 59 view .LVU766
 2645 0104 83EA1213 		eor	r3, r3, r2, lsr #4
  41:Service/../MAVLink/common/../checksum.h **** }
 2646              		.loc 14 41 19 view .LVU767
 2647 0108 2380     		strh	r3, [r4]	@ movhi
 2648              	.LVL204:
  41:Service/../MAVLink/common/../checksum.h **** }
 2649              		.loc 14 41 19 view .LVU768
 2650              	.LBE170:
 2651              	.LBE169:
  87:Service/../MAVLink/common/../checksum.h ****                 crc_accumulate(*p++, crcAccum);
ARM GAS  C:\Users\8bit\AppData\Local\Temp\ccCRhmZR.s 			page 144


 2652              		.loc 14 87 15 view .LVU769
 2653 010a 6346     		mov	r3, ip
 2654              	.LVL205:
 2655              	.L112:
  87:Service/../MAVLink/common/../checksum.h ****                 crc_accumulate(*p++, crcAccum);
 2656              		.loc 14 87 8 is_stmt 1 view .LVU770
  87:Service/../MAVLink/common/../checksum.h ****                 crc_accumulate(*p++, crcAccum);
 2657              		.loc 14 87 15 is_stmt 0 view .LVU771
 2658 010c 03F1FF3C 		add	ip, r3, #-1
 2659 0110 1FFA8CFC 		uxth	ip, ip
 2660              	.LVL206:
  87:Service/../MAVLink/common/../checksum.h ****                 crc_accumulate(*p++, crcAccum);
 2661              		.loc 14 87 8 view .LVU772
 2662 0114 002B     		cmp	r3, #0
 2663 0116 E5D1     		bne	.L113
 2664              	.LVL207:
  87:Service/../MAVLink/common/../checksum.h ****                 crc_accumulate(*p++, crcAccum);
 2665              		.loc 14 87 8 view .LVU773
 2666              	.LBE168:
 2667              	.LBE167:
  88:Service/../MAVLink/common/../mavlink_helpers.h **** #endif
 2668              		.loc 2 88 2 is_stmt 1 view .LVU774
 2669              	.LBB171:
 2670              	.LBI171:
  34:Service/../MAVLink/common/../checksum.h **** {
 2671              		.loc 14 34 20 view .LVU775
 2672              	.LBB172:
  37:Service/../MAVLink/common/../checksum.h **** 
 2673              		.loc 14 37 9 view .LVU776
  39:Service/../MAVLink/common/../checksum.h ****         tmp ^= (tmp<<4);
 2674              		.loc 14 39 9 view .LVU777
  39:Service/../MAVLink/common/../checksum.h ****         tmp ^= (tmp<<4);
 2675              		.loc 14 39 32 is_stmt 0 view .LVU778
 2676 0118 2388     		ldrh	r3, [r4]
  39:Service/../MAVLink/common/../checksum.h ****         tmp ^= (tmp<<4);
 2677              		.loc 14 39 22 view .LVU779
 2678 011a DAB2     		uxtb	r2, r3
  39:Service/../MAVLink/common/../checksum.h ****         tmp ^= (tmp<<4);
 2679              		.loc 14 39 13 view .LVU780
 2680 011c 82F02F02 		eor	r2, r2, #47
 2681              	.LVL208:
  40:Service/../MAVLink/common/../checksum.h ****         *crcAccum = (*crcAccum>>8) ^ (tmp<<8) ^ (tmp <<3) ^ (tmp>>4);
 2682              		.loc 14 40 9 is_stmt 1 view .LVU781
  40:Service/../MAVLink/common/../checksum.h ****         *crcAccum = (*crcAccum>>8) ^ (tmp<<8) ^ (tmp <<3) ^ (tmp>>4);
 2683              		.loc 14 40 13 is_stmt 0 view .LVU782
 2684 0120 82EA0212 		eor	r2, r2, r2, lsl #4
 2685              	.LVL209:
  40:Service/../MAVLink/common/../checksum.h ****         *crcAccum = (*crcAccum>>8) ^ (tmp<<8) ^ (tmp <<3) ^ (tmp>>4);
 2686              		.loc 14 40 13 view .LVU783
 2687 0124 D2B2     		uxtb	r2, r2
 2688              	.LVL210:
  41:Service/../MAVLink/common/../checksum.h **** }
 2689              		.loc 14 41 9 is_stmt 1 view .LVU784
  41:Service/../MAVLink/common/../checksum.h **** }
 2690              		.loc 14 41 36 is_stmt 0 view .LVU785
 2691 0126 1B0A     		lsrs	r3, r3, #8
 2692 0128 43EA0223 		orr	r3, r3, r2, lsl #8
ARM GAS  C:\Users\8bit\AppData\Local\Temp\ccCRhmZR.s 			page 145


 2693 012c 1BB2     		sxth	r3, r3
  41:Service/../MAVLink/common/../checksum.h **** }
 2694              		.loc 14 41 47 view .LVU786
 2695 012e 83EAC203 		eor	r3, r3, r2, lsl #3
  41:Service/../MAVLink/common/../checksum.h **** }
 2696              		.loc 14 41 59 view .LVU787
 2697 0132 83EA1213 		eor	r3, r3, r2, lsr #4
  41:Service/../MAVLink/common/../checksum.h **** }
 2698              		.loc 14 41 19 view .LVU788
 2699 0136 2380     		strh	r3, [r4]	@ movhi
 2700              	.LVL211:
  41:Service/../MAVLink/common/../checksum.h **** }
 2701              		.loc 14 41 19 view .LVU789
 2702              	.LBE172:
 2703              	.LBE171:
  90:Service/../MAVLink/common/../mavlink_helpers.h **** 	mavlink_ck_b(msg) = (uint8_t)(msg->checksum >> 8);
 2704              		.loc 2 90 2 is_stmt 1 view .LVU790
  90:Service/../MAVLink/common/../mavlink_helpers.h **** 	mavlink_ck_b(msg) = (uint8_t)(msg->checksum >> 8);
 2705              		.loc 2 90 35 is_stmt 0 view .LVU791
 2706 0138 2288     		ldrh	r2, [r4]	@ unaligned
  90:Service/../MAVLink/common/../mavlink_helpers.h **** 	mavlink_ck_b(msg) = (uint8_t)(msg->checksum >> 8);
 2707              		.loc 2 90 2 view .LVU792
 2708 013a E378     		ldrb	r3, [r4, #3]	@ zero_extendqisi2
  90:Service/../MAVLink/common/../mavlink_helpers.h **** 	mavlink_ck_b(msg) = (uint8_t)(msg->checksum >> 8);
 2709              		.loc 2 90 20 view .LVU793
 2710 013c C254     		strb	r2, [r0, r3]
  91:Service/../MAVLink/common/../mavlink_helpers.h **** 
 2711              		.loc 2 91 2 is_stmt 1 view .LVU794
  91:Service/../MAVLink/common/../mavlink_helpers.h **** 
 2712              		.loc 2 91 35 is_stmt 0 view .LVU795
 2713 013e 2288     		ldrh	r2, [r4]	@ unaligned
  91:Service/../MAVLink/common/../mavlink_helpers.h **** 
 2714              		.loc 2 91 2 view .LVU796
 2715 0140 E378     		ldrb	r3, [r4, #3]	@ zero_extendqisi2
 2716 0142 0133     		adds	r3, r3, #1
  91:Service/../MAVLink/common/../mavlink_helpers.h **** 
 2717              		.loc 2 91 22 view .LVU797
 2718 0144 120A     		lsrs	r2, r2, #8
  91:Service/../MAVLink/common/../mavlink_helpers.h **** 
 2719              		.loc 2 91 20 view .LVU798
 2720 0146 C254     		strb	r2, [r0, r3]
  93:Service/../MAVLink/common/../mavlink_helpers.h **** }
 2721              		.loc 2 93 2 is_stmt 1 view .LVU799
 2722              	.LVL212:
  93:Service/../MAVLink/common/../mavlink_helpers.h **** }
 2723              		.loc 2 93 2 is_stmt 0 view .LVU800
 2724              	.LBE174:
 2725              	.LBE176:
 2726              	.LBE178:
 2727              	.LBE180:
 319:Service/Srv_ComProto.c **** 
 2728              		.loc 1 319 1 view .LVU801
 2729 0148 2820     		movs	r0, #40
 2730 014a 10B0     		add	sp, sp, #64
 2731              	.LCFI82:
 2732              		.cfi_def_cfa_offset 24
 2733              		@ sp needed
ARM GAS  C:\Users\8bit\AppData\Local\Temp\ccCRhmZR.s 			page 146


 2734 014c BDE8F081 		pop	{r4, r5, r6, r7, r8, pc}
 2735              	.L116:
 2736              		.align	2
 2737              	.L115:
 2738 0150 00000000 		.word	SrvDataHub
 2739 0154 00000000 		.word	.LANCHOR1
 2740              		.cfi_endproc
 2741              	.LFE2084:
 2743              		.section	.text.SrvComProto_MavMsg_Attitude,"ax",%progbits
 2744              		.align	1
 2745              		.syntax unified
 2746              		.thumb
 2747              		.thumb_func
 2749              	SrvComProto_MavMsg_Attitude:
 2750              	.LVL213:
 2751              	.LFB2082:
 268:Service/Srv_ComProto.c ****     uint32_t time_stamp = 0;
 2752              		.loc 1 268 1 is_stmt 1 view -0
 2753              		.cfi_startproc
 2754              		@ args = 0, pretend = 0, frame = 48
 2755              		@ frame_needed = 0, uses_anonymous_args = 0
 268:Service/Srv_ComProto.c ****     uint32_t time_stamp = 0;
 2756              		.loc 1 268 1 is_stmt 0 view .LVU803
 2757 0000 F0B5     		push	{r4, r5, r6, r7, lr}
 2758              	.LCFI83:
 2759              		.cfi_def_cfa_offset 20
 2760              		.cfi_offset 4, -20
 2761              		.cfi_offset 5, -16
 2762              		.cfi_offset 6, -12
 2763              		.cfi_offset 7, -8
 2764              		.cfi_offset 14, -4
 2765 0002 93B0     		sub	sp, sp, #76
 2766              	.LCFI84:
 2767              		.cfi_def_cfa_offset 96
 2768 0004 0446     		mov	r4, r0
 269:Service/Srv_ComProto.c ****     
 2769              		.loc 1 269 5 is_stmt 1 view .LVU804
 269:Service/Srv_ComProto.c ****     
 2770              		.loc 1 269 14 is_stmt 0 view .LVU805
 2771 0006 0023     		movs	r3, #0
 2772 0008 1193     		str	r3, [sp, #68]
 271:Service/Srv_ComProto.c ****     float roll = 0.0f;
 2773              		.loc 1 271 5 is_stmt 1 view .LVU806
 271:Service/Srv_ComProto.c ****     float roll = 0.0f;
 2774              		.loc 1 271 11 is_stmt 0 view .LVU807
 2775 000a 0025     		movs	r5, #0
 2776 000c 1095     		str	r5, [sp, #64]	@ float
 272:Service/Srv_ComProto.c ****     float yaw = 0.0f;
 2777              		.loc 1 272 5 is_stmt 1 view .LVU808
 272:Service/Srv_ComProto.c ****     float yaw = 0.0f;
 2778              		.loc 1 272 11 is_stmt 0 view .LVU809
 2779 000e 0F95     		str	r5, [sp, #60]	@ float
 273:Service/Srv_ComProto.c **** 
 2780              		.loc 1 273 5 is_stmt 1 view .LVU810
 273:Service/Srv_ComProto.c **** 
 2781              		.loc 1 273 11 is_stmt 0 view .LVU811
 2782 0010 0E95     		str	r5, [sp, #56]	@ float
ARM GAS  C:\Users\8bit\AppData\Local\Temp\ccCRhmZR.s 			page 147


 275:Service/Srv_ComProto.c ****     return mavlink_msg_attitude_pack_chan(pck->pck_info.system_id,
 2783              		.loc 1 275 5 is_stmt 1 view .LVU812
 275:Service/Srv_ComProto.c ****     return mavlink_msg_attitude_pack_chan(pck->pck_info.system_id,
 2784              		.loc 1 275 15 is_stmt 0 view .LVU813
 2785 0012 4B4A     		ldr	r2, .L123
 2786 0014 566C     		ldr	r6, [r2, #68]
 275:Service/Srv_ComProto.c ****     return mavlink_msg_attitude_pack_chan(pck->pck_info.system_id,
 2787              		.loc 1 275 5 view .LVU814
 2788 0016 0493     		str	r3, [sp, #16]
 2789 0018 0393     		str	r3, [sp, #12]
 2790 001a 0293     		str	r3, [sp, #8]
 2791 001c 0193     		str	r3, [sp, #4]
 2792 001e 0093     		str	r3, [sp]
 2793 0020 0EAB     		add	r3, sp, #56
 2794 0022 0FAA     		add	r2, sp, #60
 2795 0024 10A9     		add	r1, sp, #64
 2796 0026 11A8     		add	r0, sp, #68
 2797              	.LVL214:
 275:Service/Srv_ComProto.c ****     return mavlink_msg_attitude_pack_chan(pck->pck_info.system_id,
 2798              		.loc 1 275 5 view .LVU815
 2799 0028 B047     		blx	r6
 2800              	.LVL215:
 276:Service/Srv_ComProto.c ****                                           pck->pck_info.component_id,
 2801              		.loc 1 276 5 is_stmt 1 view .LVU816
 276:Service/Srv_ComProto.c ****                                           pck->pck_info.component_id,
 2802              		.loc 1 276 12 is_stmt 0 view .LVU817
 2803 002a 277A     		ldrb	r7, [r4, #8]	@ zero_extendqisi2
 2804 002c 667A     		ldrb	r6, [r4, #9]	@ zero_extendqisi2
 2805 002e 94F80AE0 		ldrb	lr, [r4, #10]	@ zero_extendqisi2
 2806 0032 E468     		ldr	r4, [r4, #12]
 2807              	.LVL216:
 2808              	.LBB201:
 2809              	.LBI201:
 117:Service/../MAVLink/common/./mavlink_msg_attitude.h ****                                mavlink_message_t* msg,
 2810              		.loc 4 117 24 is_stmt 1 view .LVU818
 2811              	.LBB202:
 133:Service/../MAVLink/common/./mavlink_msg_attitude.h ****     packet.time_boot_ms = time_boot_ms;
 2812              		.loc 4 133 5 view .LVU819
 134:Service/../MAVLink/common/./mavlink_msg_attitude.h ****     packet.roll = roll;
 2813              		.loc 4 134 5 view .LVU820
 134:Service/../MAVLink/common/./mavlink_msg_attitude.h ****     packet.roll = roll;
 2814              		.loc 4 134 25 is_stmt 0 view .LVU821
 2815 0034 119B     		ldr	r3, [sp, #68]
 2816 0036 0793     		str	r3, [sp, #28]
 135:Service/../MAVLink/common/./mavlink_msg_attitude.h ****     packet.pitch = pitch;
 2817              		.loc 4 135 5 is_stmt 1 view .LVU822
 135:Service/../MAVLink/common/./mavlink_msg_attitude.h ****     packet.pitch = pitch;
 2818              		.loc 4 135 17 is_stmt 0 view .LVU823
 2819 0038 0F9B     		ldr	r3, [sp, #60]	@ float
 2820 003a 0893     		str	r3, [sp, #32]	@ float
 136:Service/../MAVLink/common/./mavlink_msg_attitude.h ****     packet.yaw = yaw;
 2821              		.loc 4 136 5 is_stmt 1 view .LVU824
 136:Service/../MAVLink/common/./mavlink_msg_attitude.h ****     packet.yaw = yaw;
 2822              		.loc 4 136 18 is_stmt 0 view .LVU825
 2823 003c 109B     		ldr	r3, [sp, #64]	@ float
 2824 003e 0993     		str	r3, [sp, #36]	@ float
 137:Service/../MAVLink/common/./mavlink_msg_attitude.h ****     packet.rollspeed = rollspeed;
ARM GAS  C:\Users\8bit\AppData\Local\Temp\ccCRhmZR.s 			page 148


 2825              		.loc 4 137 5 is_stmt 1 view .LVU826
 137:Service/../MAVLink/common/./mavlink_msg_attitude.h ****     packet.rollspeed = rollspeed;
 2826              		.loc 4 137 16 is_stmt 0 view .LVU827
 2827 0040 0E9B     		ldr	r3, [sp, #56]	@ float
 2828 0042 0A93     		str	r3, [sp, #40]	@ float
 138:Service/../MAVLink/common/./mavlink_msg_attitude.h ****     packet.pitchspeed = pitchspeed;
 2829              		.loc 4 138 5 is_stmt 1 view .LVU828
 138:Service/../MAVLink/common/./mavlink_msg_attitude.h ****     packet.pitchspeed = pitchspeed;
 2830              		.loc 4 138 22 is_stmt 0 view .LVU829
 2831 0044 0B95     		str	r5, [sp, #44]	@ float
 139:Service/../MAVLink/common/./mavlink_msg_attitude.h ****     packet.yawspeed = yawspeed;
 2832              		.loc 4 139 5 is_stmt 1 view .LVU830
 139:Service/../MAVLink/common/./mavlink_msg_attitude.h ****     packet.yawspeed = yawspeed;
 2833              		.loc 4 139 23 is_stmt 0 view .LVU831
 2834 0046 0C95     		str	r5, [sp, #48]	@ float
 140:Service/../MAVLink/common/./mavlink_msg_attitude.h **** 
 2835              		.loc 4 140 5 is_stmt 1 view .LVU832
 140:Service/../MAVLink/common/./mavlink_msg_attitude.h **** 
 2836              		.loc 4 140 21 is_stmt 0 view .LVU833
 2837 0048 0D95     		str	r5, [sp, #52]	@ float
 142:Service/../MAVLink/common/./mavlink_msg_attitude.h **** #endif
 2838              		.loc 4 142 9 is_stmt 1 view .LVU834
 2839 004a 0DF11C0C 		add	ip, sp, #28
 2840 004e BCE80F00 		ldmia	ip!, {r0, r1, r2, r3}
 2841 0052 A060     		str	r0, [r4, #8]	@ unaligned
 2842              	.LVL217:
 142:Service/../MAVLink/common/./mavlink_msg_attitude.h **** #endif
 2843              		.loc 4 142 9 is_stmt 0 view .LVU835
 2844 0054 E160     		str	r1, [r4, #12]	@ unaligned
 2845 0056 2261     		str	r2, [r4, #16]	@ unaligned
 2846 0058 6361     		str	r3, [r4, #20]	@ unaligned
 2847 005a BCE80700 		ldmia	ip!, {r0, r1, r2}
 2848              	.LVL218:
 142:Service/../MAVLink/common/./mavlink_msg_attitude.h **** #endif
 2849              		.loc 4 142 9 view .LVU836
 2850 005e A061     		str	r0, [r4, #24]	@ unaligned
 2851 0060 E161     		str	r1, [r4, #28]	@ unaligned
 2852 0062 2262     		str	r2, [r4, #32]	@ unaligned
 145:Service/../MAVLink/common/./mavlink_msg_attitude.h ****     return mavlink_finalize_message_chan(msg, system_id, component_id, chan, MAVLINK_MSG_ID_ATTITUD
 2853              		.loc 4 145 5 is_stmt 1 view .LVU837
 145:Service/../MAVLink/common/./mavlink_msg_attitude.h ****     return mavlink_finalize_message_chan(msg, system_id, component_id, chan, MAVLINK_MSG_ID_ATTITUD
 2854              		.loc 4 145 16 is_stmt 0 view .LVU838
 2855 0064 1E23     		movs	r3, #30
 2856 0066 E371     		strb	r3, [r4, #7]
 146:Service/../MAVLink/common/./mavlink_msg_attitude.h **** }
 2857              		.loc 4 146 5 is_stmt 1 view .LVU839
 2858              	.LVL219:
 2859              	.LBB203:
 2860              	.LBI203:
  68:Service/../MAVLink/common/../mavlink_helpers.h **** 						      uint8_t chan, uint8_t min_length, uint8_t length, uint8_t crc_extra)
 2861              		.loc 2 68 25 view .LVU840
 2862              	.LBB204:
  76:Service/../MAVLink/common/../mavlink_helpers.h **** 	// This code part is the same for all messages;
 2863              		.loc 2 76 2 view .LVU841
  78:Service/../MAVLink/common/../mavlink_helpers.h **** 	msg->len = length;
 2864              		.loc 2 78 2 view .LVU842
  78:Service/../MAVLink/common/../mavlink_helpers.h **** 	msg->len = length;
ARM GAS  C:\Users\8bit\AppData\Local\Temp\ccCRhmZR.s 			page 149


 2865              		.loc 2 78 13 is_stmt 0 view .LVU843
 2866 0068 FE23     		movs	r3, #254
 2867 006a A370     		strb	r3, [r4, #2]
  79:Service/../MAVLink/common/../mavlink_helpers.h **** 	msg->sysid = system_id;
 2868              		.loc 2 79 2 is_stmt 1 view .LVU844
  79:Service/../MAVLink/common/../mavlink_helpers.h **** 	msg->sysid = system_id;
 2869              		.loc 2 79 11 is_stmt 0 view .LVU845
 2870 006c 1C23     		movs	r3, #28
 2871 006e E370     		strb	r3, [r4, #3]
  80:Service/../MAVLink/common/../mavlink_helpers.h **** 	msg->compid = component_id;
 2872              		.loc 2 80 2 is_stmt 1 view .LVU846
  80:Service/../MAVLink/common/../mavlink_helpers.h **** 	msg->compid = component_id;
 2873              		.loc 2 80 13 is_stmt 0 view .LVU847
 2874 0070 6771     		strb	r7, [r4, #5]
  81:Service/../MAVLink/common/../mavlink_helpers.h **** 	// One sequence number per channel
 2875              		.loc 2 81 2 is_stmt 1 view .LVU848
  81:Service/../MAVLink/common/../mavlink_helpers.h **** 	// One sequence number per channel
 2876              		.loc 2 81 14 is_stmt 0 view .LVU849
 2877 0072 A671     		strb	r6, [r4, #6]
  83:Service/../MAVLink/common/../mavlink_helpers.h **** 	mavlink_get_channel_status(chan)->current_tx_seq = mavlink_get_channel_status(chan)->current_tx_se
 2878              		.loc 2 83 2 is_stmt 1 view .LVU850
 2879              	.LVL220:
 2880              	.LBB205:
 2881              	.LBI205:
  17:Service/../MAVLink/common/../mavlink_helpers.h **** {
 2882              		.loc 2 17 34 view .LVU851
 2883              	.LBB206:
  23:Service/../MAVLink/common/../mavlink_helpers.h **** #endif
 2884              		.loc 2 23 2 view .LVU852
  25:Service/../MAVLink/common/../mavlink_helpers.h **** }
 2885              		.loc 2 25 2 view .LVU853
  25:Service/../MAVLink/common/../mavlink_helpers.h **** }
 2886              		.loc 2 25 2 is_stmt 0 view .LVU854
 2887              	.LBE206:
 2888              	.LBE205:
  83:Service/../MAVLink/common/../mavlink_helpers.h **** 	mavlink_get_channel_status(chan)->current_tx_seq = mavlink_get_channel_status(chan)->current_tx_se
 2889              		.loc 2 83 45 view .LVU855
 2890 0074 334B     		ldr	r3, .L123+4
 2891 0076 0EEB4E02 		add	r2, lr, lr, lsl #1
 2892 007a 03EB8202 		add	r2, r3, r2, lsl #2
 2893 007e 9179     		ldrb	r1, [r2, #6]	@ zero_extendqisi2
  83:Service/../MAVLink/common/../mavlink_helpers.h **** 	mavlink_get_channel_status(chan)->current_tx_seq = mavlink_get_channel_status(chan)->current_tx_se
 2894              		.loc 2 83 11 view .LVU856
 2895 0080 2171     		strb	r1, [r4, #4]
  84:Service/../MAVLink/common/../mavlink_helpers.h **** 	msg->checksum = crc_calculate(((const uint8_t*)(msg)) + 3, MAVLINK_CORE_HEADER_LEN);
 2896              		.loc 2 84 2 is_stmt 1 view .LVU857
 2897              	.LVL221:
 2898              	.LBB207:
 2899              	.LBI207:
  17:Service/../MAVLink/common/../mavlink_helpers.h **** {
 2900              		.loc 2 17 34 view .LVU858
 2901              	.LBE207:
 2902              	.LBE204:
 2903              	.LBE203:
 2904              	.LBE202:
 2905              	.LBE201:
  23:Service/../MAVLink/common/../mavlink_helpers.h **** #endif
ARM GAS  C:\Users\8bit\AppData\Local\Temp\ccCRhmZR.s 			page 150


 2906              		.loc 2 23 2 view .LVU859
  25:Service/../MAVLink/common/../mavlink_helpers.h **** }
 2907              		.loc 2 25 2 view .LVU860
 2908              	.LBB227:
 2909              	.LBB225:
 2910              	.LBB223:
 2911              	.LBB221:
  84:Service/../MAVLink/common/../mavlink_helpers.h **** 	msg->checksum = crc_calculate(((const uint8_t*)(msg)) + 3, MAVLINK_CORE_HEADER_LEN);
 2912              		.loc 2 84 85 is_stmt 0 view .LVU861
 2913 0082 9279     		ldrb	r2, [r2, #6]	@ zero_extendqisi2
 2914              	.LVL222:
 2915              	.LBB208:
 2916              	.LBI208:
  17:Service/../MAVLink/common/../mavlink_helpers.h **** {
 2917              		.loc 2 17 34 is_stmt 1 view .LVU862
 2918              	.LBE208:
 2919              	.LBE221:
 2920              	.LBE223:
 2921              	.LBE225:
 2922              	.LBE227:
  23:Service/../MAVLink/common/../mavlink_helpers.h **** #endif
 2923              		.loc 2 23 2 view .LVU863
  25:Service/../MAVLink/common/../mavlink_helpers.h **** }
 2924              		.loc 2 25 2 view .LVU864
 2925              	.LBB228:
 2926              	.LBB226:
 2927              	.LBB224:
 2928              	.LBB222:
  84:Service/../MAVLink/common/../mavlink_helpers.h **** 	msg->checksum = crc_calculate(((const uint8_t*)(msg)) + 3, MAVLINK_CORE_HEADER_LEN);
 2929              		.loc 2 84 101 is_stmt 0 view .LVU865
 2930 0084 0132     		adds	r2, r2, #1
  84:Service/../MAVLink/common/../mavlink_helpers.h **** 	msg->checksum = crc_calculate(((const uint8_t*)(msg)) + 3, MAVLINK_CORE_HEADER_LEN);
 2931              		.loc 2 84 51 view .LVU866
 2932 0086 0EEB4E0E 		add	lr, lr, lr, lsl #1
 2933              	.LVL223:
  84:Service/../MAVLink/common/../mavlink_helpers.h **** 	msg->checksum = crc_calculate(((const uint8_t*)(msg)) + 3, MAVLINK_CORE_HEADER_LEN);
 2934              		.loc 2 84 51 view .LVU867
 2935 008a 03EB8E0E 		add	lr, r3, lr, lsl #2
 2936 008e 8EF80620 		strb	r2, [lr, #6]
  85:Service/../MAVLink/common/../mavlink_helpers.h **** 	crc_accumulate_buffer(&msg->checksum, _MAV_PAYLOAD(msg), msg->len);
 2937              		.loc 2 85 2 is_stmt 1 view .LVU868
  85:Service/../MAVLink/common/../mavlink_helpers.h **** 	crc_accumulate_buffer(&msg->checksum, _MAV_PAYLOAD(msg), msg->len);
 2938              		.loc 2 85 18 is_stmt 0 view .LVU869
 2939 0092 E11C     		adds	r1, r4, #3
 2940              	.LVL224:
 2941              	.LBB209:
 2942              	.LBI209:
  64:Service/../MAVLink/common/../checksum.h **** {
 2943              		.loc 14 64 24 is_stmt 1 view .LVU870
 2944              	.LBB210:
  66:Service/../MAVLink/common/../checksum.h ****         crc_init(&crcTmp);
 2945              		.loc 14 66 9 view .LVU871
  67:Service/../MAVLink/common/../checksum.h **** 	while (length--) {
 2946              		.loc 14 67 9 view .LVU872
 2947              	.LBB211:
 2948              	.LBI211:
  51:Service/../MAVLink/common/../checksum.h **** {
ARM GAS  C:\Users\8bit\AppData\Local\Temp\ccCRhmZR.s 			page 151


 2949              		.loc 14 51 20 view .LVU873
 2950              	.LBB212:
  53:Service/../MAVLink/common/../checksum.h **** }
 2951              		.loc 14 53 9 view .LVU874
  53:Service/../MAVLink/common/../checksum.h **** }
 2952              		.loc 14 53 19 is_stmt 0 view .LVU875
 2953 0094 4FF6FF73 		movw	r3, #65535
  54:Service/../MAVLink/common/../checksum.h **** 
 2954              		.loc 14 54 1 view .LVU876
 2955 0098 0522     		movs	r2, #5
 2956 009a 12E0     		b	.L118
 2957              	.LVL225:
 2958              	.L119:
  54:Service/../MAVLink/common/../checksum.h **** 
 2959              		.loc 14 54 1 view .LVU877
 2960              	.LBE212:
 2961              	.LBE211:
  69:Service/../MAVLink/common/../checksum.h ****         }
 2962              		.loc 14 69 17 is_stmt 1 view .LVU878
  69:Service/../MAVLink/common/../checksum.h ****         }
 2963              		.loc 14 69 17 is_stmt 0 view .LVU879
 2964 009c 11F8012B 		ldrb	r2, [r1], #1	@ zero_extendqisi2
 2965              	.LVL226:
 2966              	.LBB213:
 2967              	.LBI213:
  34:Service/../MAVLink/common/../checksum.h **** {
 2968              		.loc 14 34 20 is_stmt 1 view .LVU880
 2969              	.LBB214:
  37:Service/../MAVLink/common/../checksum.h **** 
 2970              		.loc 14 37 9 view .LVU881
  39:Service/../MAVLink/common/../checksum.h ****         tmp ^= (tmp<<4);
 2971              		.loc 14 39 9 view .LVU882
  39:Service/../MAVLink/common/../checksum.h ****         tmp ^= (tmp<<4);
 2972              		.loc 14 39 22 is_stmt 0 view .LVU883
 2973 00a0 5FFA83FC 		uxtb	ip, r3
  39:Service/../MAVLink/common/../checksum.h ****         tmp ^= (tmp<<4);
 2974              		.loc 14 39 13 view .LVU884
 2975 00a4 82EA0C02 		eor	r2, r2, ip
 2976              	.LVL227:
  40:Service/../MAVLink/common/../checksum.h ****         *crcAccum = (*crcAccum>>8) ^ (tmp<<8) ^ (tmp <<3) ^ (tmp>>4);
 2977              		.loc 14 40 9 is_stmt 1 view .LVU885
  40:Service/../MAVLink/common/../checksum.h ****         *crcAccum = (*crcAccum>>8) ^ (tmp<<8) ^ (tmp <<3) ^ (tmp>>4);
 2978              		.loc 14 40 13 is_stmt 0 view .LVU886
 2979 00a8 82EA0212 		eor	r2, r2, r2, lsl #4
 2980              	.LVL228:
  40:Service/../MAVLink/common/../checksum.h ****         *crcAccum = (*crcAccum>>8) ^ (tmp<<8) ^ (tmp <<3) ^ (tmp>>4);
 2981              		.loc 14 40 13 view .LVU887
 2982 00ac D2B2     		uxtb	r2, r2
 2983              	.LVL229:
  41:Service/../MAVLink/common/../checksum.h **** }
 2984              		.loc 14 41 9 is_stmt 1 view .LVU888
  41:Service/../MAVLink/common/../checksum.h **** }
 2985              		.loc 14 41 36 is_stmt 0 view .LVU889
 2986 00ae 1B0A     		lsrs	r3, r3, #8
 2987              	.LVL230:
  41:Service/../MAVLink/common/../checksum.h **** }
 2988              		.loc 14 41 36 view .LVU890
ARM GAS  C:\Users\8bit\AppData\Local\Temp\ccCRhmZR.s 			page 152


 2989 00b0 43EA0223 		orr	r3, r3, r2, lsl #8
 2990 00b4 1BB2     		sxth	r3, r3
  41:Service/../MAVLink/common/../checksum.h **** }
 2991              		.loc 14 41 47 view .LVU891
 2992 00b6 83EAC203 		eor	r3, r3, r2, lsl #3
  41:Service/../MAVLink/common/../checksum.h **** }
 2993              		.loc 14 41 59 view .LVU892
 2994 00ba 83EA1213 		eor	r3, r3, r2, lsr #4
 2995 00be 9BB2     		uxth	r3, r3
 2996              	.LVL231:
  41:Service/../MAVLink/common/../checksum.h **** }
 2997              		.loc 14 41 59 view .LVU893
 2998              	.LBE214:
 2999              	.LBE213:
  68:Service/../MAVLink/common/../checksum.h ****                 crc_accumulate(*pBuffer++, &crcTmp);
 3000              		.loc 14 68 15 view .LVU894
 3001 00c0 0246     		mov	r2, r0
 3002              	.LVL232:
 3003              	.L118:
  68:Service/../MAVLink/common/../checksum.h ****                 crc_accumulate(*pBuffer++, &crcTmp);
 3004              		.loc 14 68 8 is_stmt 1 view .LVU895
  68:Service/../MAVLink/common/../checksum.h ****                 crc_accumulate(*pBuffer++, &crcTmp);
 3005              		.loc 14 68 15 is_stmt 0 view .LVU896
 3006 00c2 501E     		subs	r0, r2, #1
 3007 00c4 80B2     		uxth	r0, r0
 3008              	.LVL233:
  68:Service/../MAVLink/common/../checksum.h ****                 crc_accumulate(*pBuffer++, &crcTmp);
 3009              		.loc 14 68 8 view .LVU897
 3010 00c6 002A     		cmp	r2, #0
 3011 00c8 E8D1     		bne	.L119
  71:Service/../MAVLink/common/../checksum.h **** }
 3012              		.loc 14 71 9 is_stmt 1 view .LVU898
 3013              	.LVL234:
  71:Service/../MAVLink/common/../checksum.h **** }
 3014              		.loc 14 71 9 is_stmt 0 view .LVU899
 3015              	.LBE210:
 3016              	.LBE209:
  85:Service/../MAVLink/common/../mavlink_helpers.h **** 	crc_accumulate_buffer(&msg->checksum, _MAV_PAYLOAD(msg), msg->len);
 3017              		.loc 2 85 16 view .LVU900
 3018 00ca 2046     		mov	r0, r4
 3019 00cc 20F8083B 		strh	r3, [r0], #8	@ unaligned
  86:Service/../MAVLink/common/../mavlink_helpers.h **** #if MAVLINK_CRC_EXTRA
 3020              		.loc 2 86 2 is_stmt 1 view .LVU901
 3021 00d0 E378     		ldrb	r3, [r4, #3]	@ zero_extendqisi2
 3022              	.LVL235:
 3023              	.LBB215:
 3024              	.LBI215:
  84:Service/../MAVLink/common/../checksum.h **** {
 3025              		.loc 14 84 20 view .LVU902
 3026              	.LBB216:
  86:Service/../MAVLink/common/../checksum.h **** 	while (length--) {
 3027              		.loc 14 86 17 is_stmt 0 view .LVU903
 3028 00d2 0146     		mov	r1, r0
 3029 00d4 13E0     		b	.L120
 3030              	.LVL236:
 3031              	.L121:
 3032              		.loc 14 88 17 is_stmt 1 view .LVU904
ARM GAS  C:\Users\8bit\AppData\Local\Temp\ccCRhmZR.s 			page 153


 3033              		.loc 14 88 17 is_stmt 0 view .LVU905
 3034 00d6 11F8012B 		ldrb	r2, [r1], #1	@ zero_extendqisi2
 3035              	.LVL237:
 3036              	.LBB217:
 3037              	.LBI217:
  34:Service/../MAVLink/common/../checksum.h **** {
 3038              		.loc 14 34 20 is_stmt 1 view .LVU906
 3039              	.LBB218:
  37:Service/../MAVLink/common/../checksum.h **** 
 3040              		.loc 14 37 9 view .LVU907
  39:Service/../MAVLink/common/../checksum.h ****         tmp ^= (tmp<<4);
 3041              		.loc 14 39 9 view .LVU908
  39:Service/../MAVLink/common/../checksum.h ****         tmp ^= (tmp<<4);
 3042              		.loc 14 39 32 is_stmt 0 view .LVU909
 3043 00da 2388     		ldrh	r3, [r4]
  39:Service/../MAVLink/common/../checksum.h ****         tmp ^= (tmp<<4);
 3044              		.loc 14 39 22 view .LVU910
 3045 00dc 5FFA83FE 		uxtb	lr, r3
  39:Service/../MAVLink/common/../checksum.h ****         tmp ^= (tmp<<4);
 3046              		.loc 14 39 13 view .LVU911
 3047 00e0 82EA0E02 		eor	r2, r2, lr
 3048              	.LVL238:
  40:Service/../MAVLink/common/../checksum.h ****         *crcAccum = (*crcAccum>>8) ^ (tmp<<8) ^ (tmp <<3) ^ (tmp>>4);
 3049              		.loc 14 40 9 is_stmt 1 view .LVU912
  40:Service/../MAVLink/common/../checksum.h ****         *crcAccum = (*crcAccum>>8) ^ (tmp<<8) ^ (tmp <<3) ^ (tmp>>4);
 3050              		.loc 14 40 13 is_stmt 0 view .LVU913
 3051 00e4 82EA0212 		eor	r2, r2, r2, lsl #4
 3052              	.LVL239:
  40:Service/../MAVLink/common/../checksum.h ****         *crcAccum = (*crcAccum>>8) ^ (tmp<<8) ^ (tmp <<3) ^ (tmp>>4);
 3053              		.loc 14 40 13 view .LVU914
 3054 00e8 D2B2     		uxtb	r2, r2
 3055              	.LVL240:
  41:Service/../MAVLink/common/../checksum.h **** }
 3056              		.loc 14 41 9 is_stmt 1 view .LVU915
  41:Service/../MAVLink/common/../checksum.h **** }
 3057              		.loc 14 41 36 is_stmt 0 view .LVU916
 3058 00ea 1B0A     		lsrs	r3, r3, #8
 3059 00ec 43EA0223 		orr	r3, r3, r2, lsl #8
 3060 00f0 1BB2     		sxth	r3, r3
  41:Service/../MAVLink/common/../checksum.h **** }
 3061              		.loc 14 41 47 view .LVU917
 3062 00f2 83EAC203 		eor	r3, r3, r2, lsl #3
  41:Service/../MAVLink/common/../checksum.h **** }
 3063              		.loc 14 41 59 view .LVU918
 3064 00f6 83EA1213 		eor	r3, r3, r2, lsr #4
  41:Service/../MAVLink/common/../checksum.h **** }
 3065              		.loc 14 41 19 view .LVU919
 3066 00fa 2380     		strh	r3, [r4]	@ movhi
 3067              	.LVL241:
  41:Service/../MAVLink/common/../checksum.h **** }
 3068              		.loc 14 41 19 view .LVU920
 3069              	.LBE218:
 3070              	.LBE217:
  87:Service/../MAVLink/common/../checksum.h ****                 crc_accumulate(*p++, crcAccum);
 3071              		.loc 14 87 15 view .LVU921
 3072 00fc 6346     		mov	r3, ip
 3073              	.LVL242:
ARM GAS  C:\Users\8bit\AppData\Local\Temp\ccCRhmZR.s 			page 154


 3074              	.L120:
  87:Service/../MAVLink/common/../checksum.h ****                 crc_accumulate(*p++, crcAccum);
 3075              		.loc 14 87 8 is_stmt 1 view .LVU922
  87:Service/../MAVLink/common/../checksum.h ****                 crc_accumulate(*p++, crcAccum);
 3076              		.loc 14 87 15 is_stmt 0 view .LVU923
 3077 00fe 03F1FF3C 		add	ip, r3, #-1
 3078 0102 1FFA8CFC 		uxth	ip, ip
 3079              	.LVL243:
  87:Service/../MAVLink/common/../checksum.h ****                 crc_accumulate(*p++, crcAccum);
 3080              		.loc 14 87 8 view .LVU924
 3081 0106 002B     		cmp	r3, #0
 3082 0108 E5D1     		bne	.L121
 3083              	.LVL244:
  87:Service/../MAVLink/common/../checksum.h ****                 crc_accumulate(*p++, crcAccum);
 3084              		.loc 14 87 8 view .LVU925
 3085              	.LBE216:
 3086              	.LBE215:
  88:Service/../MAVLink/common/../mavlink_helpers.h **** #endif
 3087              		.loc 2 88 2 is_stmt 1 view .LVU926
 3088              	.LBB219:
 3089              	.LBI219:
  34:Service/../MAVLink/common/../checksum.h **** {
 3090              		.loc 14 34 20 view .LVU927
 3091              	.LBB220:
  37:Service/../MAVLink/common/../checksum.h **** 
 3092              		.loc 14 37 9 view .LVU928
  39:Service/../MAVLink/common/../checksum.h ****         tmp ^= (tmp<<4);
 3093              		.loc 14 39 9 view .LVU929
  39:Service/../MAVLink/common/../checksum.h ****         tmp ^= (tmp<<4);
 3094              		.loc 14 39 32 is_stmt 0 view .LVU930
 3095 010a 2388     		ldrh	r3, [r4]
  39:Service/../MAVLink/common/../checksum.h ****         tmp ^= (tmp<<4);
 3096              		.loc 14 39 22 view .LVU931
 3097 010c DAB2     		uxtb	r2, r3
  39:Service/../MAVLink/common/../checksum.h ****         tmp ^= (tmp<<4);
 3098              		.loc 14 39 13 view .LVU932
 3099 010e 82F02702 		eor	r2, r2, #39
 3100              	.LVL245:
  40:Service/../MAVLink/common/../checksum.h ****         *crcAccum = (*crcAccum>>8) ^ (tmp<<8) ^ (tmp <<3) ^ (tmp>>4);
 3101              		.loc 14 40 9 is_stmt 1 view .LVU933
  40:Service/../MAVLink/common/../checksum.h ****         *crcAccum = (*crcAccum>>8) ^ (tmp<<8) ^ (tmp <<3) ^ (tmp>>4);
 3102              		.loc 14 40 13 is_stmt 0 view .LVU934
 3103 0112 82EA0212 		eor	r2, r2, r2, lsl #4
 3104              	.LVL246:
  40:Service/../MAVLink/common/../checksum.h ****         *crcAccum = (*crcAccum>>8) ^ (tmp<<8) ^ (tmp <<3) ^ (tmp>>4);
 3105              		.loc 14 40 13 view .LVU935
 3106 0116 D2B2     		uxtb	r2, r2
 3107              	.LVL247:
  41:Service/../MAVLink/common/../checksum.h **** }
 3108              		.loc 14 41 9 is_stmt 1 view .LVU936
  41:Service/../MAVLink/common/../checksum.h **** }
 3109              		.loc 14 41 36 is_stmt 0 view .LVU937
 3110 0118 1B0A     		lsrs	r3, r3, #8
 3111 011a 43EA0223 		orr	r3, r3, r2, lsl #8
 3112 011e 1BB2     		sxth	r3, r3
  41:Service/../MAVLink/common/../checksum.h **** }
 3113              		.loc 14 41 47 view .LVU938
ARM GAS  C:\Users\8bit\AppData\Local\Temp\ccCRhmZR.s 			page 155


 3114 0120 83EAC203 		eor	r3, r3, r2, lsl #3
  41:Service/../MAVLink/common/../checksum.h **** }
 3115              		.loc 14 41 59 view .LVU939
 3116 0124 83EA1213 		eor	r3, r3, r2, lsr #4
  41:Service/../MAVLink/common/../checksum.h **** }
 3117              		.loc 14 41 19 view .LVU940
 3118 0128 2380     		strh	r3, [r4]	@ movhi
 3119              	.LVL248:
  41:Service/../MAVLink/common/../checksum.h **** }
 3120              		.loc 14 41 19 view .LVU941
 3121              	.LBE220:
 3122              	.LBE219:
  90:Service/../MAVLink/common/../mavlink_helpers.h **** 	mavlink_ck_b(msg) = (uint8_t)(msg->checksum >> 8);
 3123              		.loc 2 90 2 is_stmt 1 view .LVU942
  90:Service/../MAVLink/common/../mavlink_helpers.h **** 	mavlink_ck_b(msg) = (uint8_t)(msg->checksum >> 8);
 3124              		.loc 2 90 35 is_stmt 0 view .LVU943
 3125 012a 2288     		ldrh	r2, [r4]	@ unaligned
  90:Service/../MAVLink/common/../mavlink_helpers.h **** 	mavlink_ck_b(msg) = (uint8_t)(msg->checksum >> 8);
 3126              		.loc 2 90 2 view .LVU944
 3127 012c E378     		ldrb	r3, [r4, #3]	@ zero_extendqisi2
  90:Service/../MAVLink/common/../mavlink_helpers.h **** 	mavlink_ck_b(msg) = (uint8_t)(msg->checksum >> 8);
 3128              		.loc 2 90 20 view .LVU945
 3129 012e C254     		strb	r2, [r0, r3]
  91:Service/../MAVLink/common/../mavlink_helpers.h **** 
 3130              		.loc 2 91 2 is_stmt 1 view .LVU946
  91:Service/../MAVLink/common/../mavlink_helpers.h **** 
 3131              		.loc 2 91 35 is_stmt 0 view .LVU947
 3132 0130 2288     		ldrh	r2, [r4]	@ unaligned
  91:Service/../MAVLink/common/../mavlink_helpers.h **** 
 3133              		.loc 2 91 2 view .LVU948
 3134 0132 E378     		ldrb	r3, [r4, #3]	@ zero_extendqisi2
 3135 0134 0133     		adds	r3, r3, #1
  91:Service/../MAVLink/common/../mavlink_helpers.h **** 
 3136              		.loc 2 91 22 view .LVU949
 3137 0136 120A     		lsrs	r2, r2, #8
  91:Service/../MAVLink/common/../mavlink_helpers.h **** 
 3138              		.loc 2 91 20 view .LVU950
 3139 0138 C254     		strb	r2, [r0, r3]
  93:Service/../MAVLink/common/../mavlink_helpers.h **** }
 3140              		.loc 2 93 2 is_stmt 1 view .LVU951
 3141              	.LVL249:
  93:Service/../MAVLink/common/../mavlink_helpers.h **** }
 3142              		.loc 2 93 2 is_stmt 0 view .LVU952
 3143              	.LBE222:
 3144              	.LBE224:
 3145              	.LBE226:
 3146              	.LBE228:
 282:Service/Srv_ComProto.c **** 
 3147              		.loc 1 282 1 view .LVU953
 3148 013a 2420     		movs	r0, #36
 3149 013c 13B0     		add	sp, sp, #76
 3150              	.LCFI85:
 3151              		.cfi_def_cfa_offset 20
 3152              		@ sp needed
 3153 013e F0BD     		pop	{r4, r5, r6, r7, pc}
 3154              	.L124:
 3155              		.align	2
ARM GAS  C:\Users\8bit\AppData\Local\Temp\ccCRhmZR.s 			page 156


 3156              	.L123:
 3157 0140 00000000 		.word	SrvDataHub
 3158 0144 00000000 		.word	.LANCHOR1
 3159              		.cfi_endproc
 3160              	.LFE2082:
 3162              		.section	.text.SrvComProto_MavMsg_Exp_Attitude,"ax",%progbits
 3163              		.align	1
 3164              		.syntax unified
 3165              		.thumb
 3166              		.thumb_func
 3168              	SrvComProto_MavMsg_Exp_Attitude:
 3169              	.LVL250:
 3170              	.LFB2081:
 251:Service/Srv_ComProto.c ****     uint32_t time = 0;
 3171              		.loc 1 251 1 is_stmt 1 view -0
 3172              		.cfi_startproc
 3173              		@ args = 0, pretend = 0, frame = 56
 3174              		@ frame_needed = 0, uses_anonymous_args = 0
 251:Service/Srv_ComProto.c ****     uint32_t time = 0;
 3175              		.loc 1 251 1 is_stmt 0 view .LVU955
 3176 0000 F0B5     		push	{r4, r5, r6, r7, lr}
 3177              	.LCFI86:
 3178              		.cfi_def_cfa_offset 20
 3179              		.cfi_offset 4, -20
 3180              		.cfi_offset 5, -16
 3181              		.cfi_offset 6, -12
 3182              		.cfi_offset 7, -8
 3183              		.cfi_offset 14, -4
 3184 0002 95B0     		sub	sp, sp, #84
 3185              	.LCFI87:
 3186              		.cfi_def_cfa_offset 104
 3187 0004 0446     		mov	r4, r0
 252:Service/Srv_ComProto.c ****     float pitch = 0.0f;
 3188              		.loc 1 252 5 is_stmt 1 view .LVU956
 252:Service/Srv_ComProto.c ****     float pitch = 0.0f;
 3189              		.loc 1 252 14 is_stmt 0 view .LVU957
 3190 0006 0021     		movs	r1, #0
 3191 0008 1391     		str	r1, [sp, #76]
 253:Service/Srv_ComProto.c ****     float roll = 0.0f;
 3192              		.loc 1 253 5 is_stmt 1 view .LVU958
 253:Service/Srv_ComProto.c ****     float roll = 0.0f;
 3193              		.loc 1 253 11 is_stmt 0 view .LVU959
 3194 000a 0025     		movs	r5, #0
 3195 000c 1295     		str	r5, [sp, #72]	@ float
 254:Service/Srv_ComProto.c ****     float gx = 0.0f;
 3196              		.loc 1 254 5 is_stmt 1 view .LVU960
 254:Service/Srv_ComProto.c ****     float gx = 0.0f;
 3197              		.loc 1 254 11 is_stmt 0 view .LVU961
 3198 000e 1195     		str	r5, [sp, #68]	@ float
 255:Service/Srv_ComProto.c ****     float gy = 0.0f;
 3199              		.loc 1 255 5 is_stmt 1 view .LVU962
 255:Service/Srv_ComProto.c ****     float gy = 0.0f;
 3200              		.loc 1 255 11 is_stmt 0 view .LVU963
 3201 0010 1095     		str	r5, [sp, #64]	@ float
 256:Service/Srv_ComProto.c ****     float gz = 0.0f;
 3202              		.loc 1 256 5 is_stmt 1 view .LVU964
 256:Service/Srv_ComProto.c ****     float gz = 0.0f;
ARM GAS  C:\Users\8bit\AppData\Local\Temp\ccCRhmZR.s 			page 157


 3203              		.loc 1 256 11 is_stmt 0 view .LVU965
 3204 0012 0F95     		str	r5, [sp, #60]	@ float
 257:Service/Srv_ComProto.c ****     uint8_t mode = 0;
 3205              		.loc 1 257 5 is_stmt 1 view .LVU966
 257:Service/Srv_ComProto.c ****     uint8_t mode = 0;
 3206              		.loc 1 257 11 is_stmt 0 view .LVU967
 3207 0014 0E95     		str	r5, [sp, #56]	@ float
 258:Service/Srv_ComProto.c **** 
 3208              		.loc 1 258 5 is_stmt 1 view .LVU968
 258:Service/Srv_ComProto.c **** 
 3209              		.loc 1 258 13 is_stmt 0 view .LVU969
 3210 0016 8DF83710 		strb	r1, [sp, #55]
 260:Service/Srv_ComProto.c ****     return mavlink_msg_attitude_pack_chan(pck->pck_info.system_id,
 3211              		.loc 1 260 5 is_stmt 1 view .LVU970
 260:Service/Srv_ComProto.c ****     return mavlink_msg_attitude_pack_chan(pck->pck_info.system_id,
 3212              		.loc 1 260 15 is_stmt 0 view .LVU971
 3213 001a 4F4B     		ldr	r3, .L131
 3214 001c DE6C     		ldr	r6, [r3, #76]
 260:Service/Srv_ComProto.c ****     return mavlink_msg_attitude_pack_chan(pck->pck_info.system_id,
 3215              		.loc 1 260 5 view .LVU972
 3216 001e 0EAB     		add	r3, sp, #56
 3217 0020 0493     		str	r3, [sp, #16]
 3218 0022 0FAB     		add	r3, sp, #60
 3219 0024 0393     		str	r3, [sp, #12]
 3220 0026 10AB     		add	r3, sp, #64
 3221 0028 0293     		str	r3, [sp, #8]
 3222 002a 11AB     		add	r3, sp, #68
 3223 002c 0193     		str	r3, [sp, #4]
 3224 002e 12AB     		add	r3, sp, #72
 3225 0030 0093     		str	r3, [sp]
 3226 0032 0DF13703 		add	r3, sp, #55
 3227 0036 0A46     		mov	r2, r1
 3228 0038 13A8     		add	r0, sp, #76
 3229              	.LVL251:
 260:Service/Srv_ComProto.c ****     return mavlink_msg_attitude_pack_chan(pck->pck_info.system_id,
 3230              		.loc 1 260 5 view .LVU973
 3231 003a B047     		blx	r6
 3232              	.LVL252:
 261:Service/Srv_ComProto.c ****                                           pck->pck_info.component_id,
 3233              		.loc 1 261 5 is_stmt 1 view .LVU974
 261:Service/Srv_ComProto.c ****                                           pck->pck_info.component_id,
 3234              		.loc 1 261 12 is_stmt 0 view .LVU975
 3235 003c 277A     		ldrb	r7, [r4, #8]	@ zero_extendqisi2
 3236 003e 667A     		ldrb	r6, [r4, #9]	@ zero_extendqisi2
 3237 0040 94F80AE0 		ldrb	lr, [r4, #10]	@ zero_extendqisi2
 3238 0044 E468     		ldr	r4, [r4, #12]
 3239              	.LVL253:
 3240              	.LBB249:
 3241              	.LBI249:
 117:Service/../MAVLink/common/./mavlink_msg_attitude.h ****                                mavlink_message_t* msg,
 3242              		.loc 4 117 24 is_stmt 1 view .LVU976
 3243              	.LBB250:
 133:Service/../MAVLink/common/./mavlink_msg_attitude.h ****     packet.time_boot_ms = time_boot_ms;
 3244              		.loc 4 133 5 view .LVU977
 134:Service/../MAVLink/common/./mavlink_msg_attitude.h ****     packet.roll = roll;
 3245              		.loc 4 134 5 view .LVU978
 134:Service/../MAVLink/common/./mavlink_msg_attitude.h ****     packet.roll = roll;
ARM GAS  C:\Users\8bit\AppData\Local\Temp\ccCRhmZR.s 			page 158


 3246              		.loc 4 134 25 is_stmt 0 view .LVU979
 3247 0046 139B     		ldr	r3, [sp, #76]
 3248 0048 0693     		str	r3, [sp, #24]
 135:Service/../MAVLink/common/./mavlink_msg_attitude.h ****     packet.pitch = pitch;
 3249              		.loc 4 135 5 is_stmt 1 view .LVU980
 135:Service/../MAVLink/common/./mavlink_msg_attitude.h ****     packet.pitch = pitch;
 3250              		.loc 4 135 17 is_stmt 0 view .LVU981
 3251 004a 119B     		ldr	r3, [sp, #68]	@ float
 3252 004c 0793     		str	r3, [sp, #28]	@ float
 136:Service/../MAVLink/common/./mavlink_msg_attitude.h ****     packet.yaw = yaw;
 3253              		.loc 4 136 5 is_stmt 1 view .LVU982
 136:Service/../MAVLink/common/./mavlink_msg_attitude.h ****     packet.yaw = yaw;
 3254              		.loc 4 136 18 is_stmt 0 view .LVU983
 3255 004e 129B     		ldr	r3, [sp, #72]	@ float
 3256 0050 0893     		str	r3, [sp, #32]	@ float
 137:Service/../MAVLink/common/./mavlink_msg_attitude.h ****     packet.rollspeed = rollspeed;
 3257              		.loc 4 137 5 is_stmt 1 view .LVU984
 137:Service/../MAVLink/common/./mavlink_msg_attitude.h ****     packet.rollspeed = rollspeed;
 3258              		.loc 4 137 16 is_stmt 0 view .LVU985
 3259 0052 0995     		str	r5, [sp, #36]	@ float
 138:Service/../MAVLink/common/./mavlink_msg_attitude.h ****     packet.pitchspeed = pitchspeed;
 3260              		.loc 4 138 5 is_stmt 1 view .LVU986
 138:Service/../MAVLink/common/./mavlink_msg_attitude.h ****     packet.pitchspeed = pitchspeed;
 3261              		.loc 4 138 22 is_stmt 0 view .LVU987
 3262 0054 109B     		ldr	r3, [sp, #64]	@ float
 3263 0056 0A93     		str	r3, [sp, #40]	@ float
 139:Service/../MAVLink/common/./mavlink_msg_attitude.h ****     packet.yawspeed = yawspeed;
 3264              		.loc 4 139 5 is_stmt 1 view .LVU988
 139:Service/../MAVLink/common/./mavlink_msg_attitude.h ****     packet.yawspeed = yawspeed;
 3265              		.loc 4 139 23 is_stmt 0 view .LVU989
 3266 0058 0F9B     		ldr	r3, [sp, #60]	@ float
 3267 005a 0B93     		str	r3, [sp, #44]	@ float
 140:Service/../MAVLink/common/./mavlink_msg_attitude.h **** 
 3268              		.loc 4 140 5 is_stmt 1 view .LVU990
 140:Service/../MAVLink/common/./mavlink_msg_attitude.h **** 
 3269              		.loc 4 140 21 is_stmt 0 view .LVU991
 3270 005c 0E9B     		ldr	r3, [sp, #56]	@ float
 3271 005e 0C93     		str	r3, [sp, #48]	@ float
 142:Service/../MAVLink/common/./mavlink_msg_attitude.h **** #endif
 3272              		.loc 4 142 9 is_stmt 1 view .LVU992
 3273 0060 0DF1180C 		add	ip, sp, #24
 3274 0064 BCE80F00 		ldmia	ip!, {r0, r1, r2, r3}
 3275 0068 A060     		str	r0, [r4, #8]	@ unaligned
 3276              	.LVL254:
 142:Service/../MAVLink/common/./mavlink_msg_attitude.h **** #endif
 3277              		.loc 4 142 9 is_stmt 0 view .LVU993
 3278 006a E160     		str	r1, [r4, #12]	@ unaligned
 3279 006c 2261     		str	r2, [r4, #16]	@ unaligned
 3280 006e 6361     		str	r3, [r4, #20]	@ unaligned
 3281 0070 BCE80700 		ldmia	ip!, {r0, r1, r2}
 3282              	.LVL255:
 142:Service/../MAVLink/common/./mavlink_msg_attitude.h **** #endif
 3283              		.loc 4 142 9 view .LVU994
 3284 0074 A061     		str	r0, [r4, #24]	@ unaligned
 3285 0076 E161     		str	r1, [r4, #28]	@ unaligned
 3286 0078 2262     		str	r2, [r4, #32]	@ unaligned
 145:Service/../MAVLink/common/./mavlink_msg_attitude.h ****     return mavlink_finalize_message_chan(msg, system_id, component_id, chan, MAVLINK_MSG_ID_ATTITUD
ARM GAS  C:\Users\8bit\AppData\Local\Temp\ccCRhmZR.s 			page 159


 3287              		.loc 4 145 5 is_stmt 1 view .LVU995
 145:Service/../MAVLink/common/./mavlink_msg_attitude.h ****     return mavlink_finalize_message_chan(msg, system_id, component_id, chan, MAVLINK_MSG_ID_ATTITUD
 3288              		.loc 4 145 16 is_stmt 0 view .LVU996
 3289 007a 1E23     		movs	r3, #30
 3290 007c E371     		strb	r3, [r4, #7]
 146:Service/../MAVLink/common/./mavlink_msg_attitude.h **** }
 3291              		.loc 4 146 5 is_stmt 1 view .LVU997
 3292              	.LVL256:
 3293              	.LBB251:
 3294              	.LBI251:
  68:Service/../MAVLink/common/../mavlink_helpers.h **** 						      uint8_t chan, uint8_t min_length, uint8_t length, uint8_t crc_extra)
 3295              		.loc 2 68 25 view .LVU998
 3296              	.LBB252:
  76:Service/../MAVLink/common/../mavlink_helpers.h **** 	// This code part is the same for all messages;
 3297              		.loc 2 76 2 view .LVU999
  78:Service/../MAVLink/common/../mavlink_helpers.h **** 	msg->len = length;
 3298              		.loc 2 78 2 view .LVU1000
  78:Service/../MAVLink/common/../mavlink_helpers.h **** 	msg->len = length;
 3299              		.loc 2 78 13 is_stmt 0 view .LVU1001
 3300 007e FE23     		movs	r3, #254
 3301 0080 A370     		strb	r3, [r4, #2]
  79:Service/../MAVLink/common/../mavlink_helpers.h **** 	msg->sysid = system_id;
 3302              		.loc 2 79 2 is_stmt 1 view .LVU1002
  79:Service/../MAVLink/common/../mavlink_helpers.h **** 	msg->sysid = system_id;
 3303              		.loc 2 79 11 is_stmt 0 view .LVU1003
 3304 0082 1C23     		movs	r3, #28
 3305 0084 E370     		strb	r3, [r4, #3]
  80:Service/../MAVLink/common/../mavlink_helpers.h **** 	msg->compid = component_id;
 3306              		.loc 2 80 2 is_stmt 1 view .LVU1004
  80:Service/../MAVLink/common/../mavlink_helpers.h **** 	msg->compid = component_id;
 3307              		.loc 2 80 13 is_stmt 0 view .LVU1005
 3308 0086 6771     		strb	r7, [r4, #5]
  81:Service/../MAVLink/common/../mavlink_helpers.h **** 	// One sequence number per channel
 3309              		.loc 2 81 2 is_stmt 1 view .LVU1006
  81:Service/../MAVLink/common/../mavlink_helpers.h **** 	// One sequence number per channel
 3310              		.loc 2 81 14 is_stmt 0 view .LVU1007
 3311 0088 A671     		strb	r6, [r4, #6]
  83:Service/../MAVLink/common/../mavlink_helpers.h **** 	mavlink_get_channel_status(chan)->current_tx_seq = mavlink_get_channel_status(chan)->current_tx_se
 3312              		.loc 2 83 2 is_stmt 1 view .LVU1008
 3313              	.LVL257:
 3314              	.LBB253:
 3315              	.LBI253:
  17:Service/../MAVLink/common/../mavlink_helpers.h **** {
 3316              		.loc 2 17 34 view .LVU1009
 3317              	.LBB254:
  23:Service/../MAVLink/common/../mavlink_helpers.h **** #endif
 3318              		.loc 2 23 2 view .LVU1010
  25:Service/../MAVLink/common/../mavlink_helpers.h **** }
 3319              		.loc 2 25 2 view .LVU1011
  25:Service/../MAVLink/common/../mavlink_helpers.h **** }
 3320              		.loc 2 25 2 is_stmt 0 view .LVU1012
 3321              	.LBE254:
 3322              	.LBE253:
  83:Service/../MAVLink/common/../mavlink_helpers.h **** 	mavlink_get_channel_status(chan)->current_tx_seq = mavlink_get_channel_status(chan)->current_tx_se
 3323              		.loc 2 83 45 view .LVU1013
 3324 008a 344B     		ldr	r3, .L131+4
 3325 008c 0EEB4E02 		add	r2, lr, lr, lsl #1
ARM GAS  C:\Users\8bit\AppData\Local\Temp\ccCRhmZR.s 			page 160


 3326 0090 03EB8202 		add	r2, r3, r2, lsl #2
 3327 0094 9179     		ldrb	r1, [r2, #6]	@ zero_extendqisi2
  83:Service/../MAVLink/common/../mavlink_helpers.h **** 	mavlink_get_channel_status(chan)->current_tx_seq = mavlink_get_channel_status(chan)->current_tx_se
 3328              		.loc 2 83 11 view .LVU1014
 3329 0096 2171     		strb	r1, [r4, #4]
  84:Service/../MAVLink/common/../mavlink_helpers.h **** 	msg->checksum = crc_calculate(((const uint8_t*)(msg)) + 3, MAVLINK_CORE_HEADER_LEN);
 3330              		.loc 2 84 2 is_stmt 1 view .LVU1015
 3331              	.LVL258:
 3332              	.LBB255:
 3333              	.LBI255:
  17:Service/../MAVLink/common/../mavlink_helpers.h **** {
 3334              		.loc 2 17 34 view .LVU1016
 3335              	.LBE255:
 3336              	.LBE252:
 3337              	.LBE251:
 3338              	.LBE250:
 3339              	.LBE249:
  23:Service/../MAVLink/common/../mavlink_helpers.h **** #endif
 3340              		.loc 2 23 2 view .LVU1017
  25:Service/../MAVLink/common/../mavlink_helpers.h **** }
 3341              		.loc 2 25 2 view .LVU1018
 3342              	.LBB275:
 3343              	.LBB273:
 3344              	.LBB271:
 3345              	.LBB269:
  84:Service/../MAVLink/common/../mavlink_helpers.h **** 	msg->checksum = crc_calculate(((const uint8_t*)(msg)) + 3, MAVLINK_CORE_HEADER_LEN);
 3346              		.loc 2 84 85 is_stmt 0 view .LVU1019
 3347 0098 9279     		ldrb	r2, [r2, #6]	@ zero_extendqisi2
 3348              	.LVL259:
 3349              	.LBB256:
 3350              	.LBI256:
  17:Service/../MAVLink/common/../mavlink_helpers.h **** {
 3351              		.loc 2 17 34 is_stmt 1 view .LVU1020
 3352              	.LBE256:
 3353              	.LBE269:
 3354              	.LBE271:
 3355              	.LBE273:
 3356              	.LBE275:
  23:Service/../MAVLink/common/../mavlink_helpers.h **** #endif
 3357              		.loc 2 23 2 view .LVU1021
  25:Service/../MAVLink/common/../mavlink_helpers.h **** }
 3358              		.loc 2 25 2 view .LVU1022
 3359              	.LBB276:
 3360              	.LBB274:
 3361              	.LBB272:
 3362              	.LBB270:
  84:Service/../MAVLink/common/../mavlink_helpers.h **** 	msg->checksum = crc_calculate(((const uint8_t*)(msg)) + 3, MAVLINK_CORE_HEADER_LEN);
 3363              		.loc 2 84 101 is_stmt 0 view .LVU1023
 3364 009a 0132     		adds	r2, r2, #1
  84:Service/../MAVLink/common/../mavlink_helpers.h **** 	msg->checksum = crc_calculate(((const uint8_t*)(msg)) + 3, MAVLINK_CORE_HEADER_LEN);
 3365              		.loc 2 84 51 view .LVU1024
 3366 009c 0EEB4E0E 		add	lr, lr, lr, lsl #1
 3367              	.LVL260:
  84:Service/../MAVLink/common/../mavlink_helpers.h **** 	msg->checksum = crc_calculate(((const uint8_t*)(msg)) + 3, MAVLINK_CORE_HEADER_LEN);
 3368              		.loc 2 84 51 view .LVU1025
 3369 00a0 03EB8E0E 		add	lr, r3, lr, lsl #2
 3370 00a4 8EF80620 		strb	r2, [lr, #6]
ARM GAS  C:\Users\8bit\AppData\Local\Temp\ccCRhmZR.s 			page 161


  85:Service/../MAVLink/common/../mavlink_helpers.h **** 	crc_accumulate_buffer(&msg->checksum, _MAV_PAYLOAD(msg), msg->len);
 3371              		.loc 2 85 2 is_stmt 1 view .LVU1026
  85:Service/../MAVLink/common/../mavlink_helpers.h **** 	crc_accumulate_buffer(&msg->checksum, _MAV_PAYLOAD(msg), msg->len);
 3372              		.loc 2 85 18 is_stmt 0 view .LVU1027
 3373 00a8 E11C     		adds	r1, r4, #3
 3374              	.LVL261:
 3375              	.LBB257:
 3376              	.LBI257:
  64:Service/../MAVLink/common/../checksum.h **** {
 3377              		.loc 14 64 24 is_stmt 1 view .LVU1028
 3378              	.LBB258:
  66:Service/../MAVLink/common/../checksum.h ****         crc_init(&crcTmp);
 3379              		.loc 14 66 9 view .LVU1029
  67:Service/../MAVLink/common/../checksum.h **** 	while (length--) {
 3380              		.loc 14 67 9 view .LVU1030
 3381              	.LBB259:
 3382              	.LBI259:
  51:Service/../MAVLink/common/../checksum.h **** {
 3383              		.loc 14 51 20 view .LVU1031
 3384              	.LBB260:
  53:Service/../MAVLink/common/../checksum.h **** }
 3385              		.loc 14 53 9 view .LVU1032
  53:Service/../MAVLink/common/../checksum.h **** }
 3386              		.loc 14 53 19 is_stmt 0 view .LVU1033
 3387 00aa 4FF6FF73 		movw	r3, #65535
  54:Service/../MAVLink/common/../checksum.h **** 
 3388              		.loc 14 54 1 view .LVU1034
 3389 00ae 0522     		movs	r2, #5
 3390 00b0 12E0     		b	.L126
 3391              	.LVL262:
 3392              	.L127:
  54:Service/../MAVLink/common/../checksum.h **** 
 3393              		.loc 14 54 1 view .LVU1035
 3394              	.LBE260:
 3395              	.LBE259:
  69:Service/../MAVLink/common/../checksum.h ****         }
 3396              		.loc 14 69 17 is_stmt 1 view .LVU1036
  69:Service/../MAVLink/common/../checksum.h ****         }
 3397              		.loc 14 69 17 is_stmt 0 view .LVU1037
 3398 00b2 11F8012B 		ldrb	r2, [r1], #1	@ zero_extendqisi2
 3399              	.LVL263:
 3400              	.LBB261:
 3401              	.LBI261:
  34:Service/../MAVLink/common/../checksum.h **** {
 3402              		.loc 14 34 20 is_stmt 1 view .LVU1038
 3403              	.LBB262:
  37:Service/../MAVLink/common/../checksum.h **** 
 3404              		.loc 14 37 9 view .LVU1039
  39:Service/../MAVLink/common/../checksum.h ****         tmp ^= (tmp<<4);
 3405              		.loc 14 39 9 view .LVU1040
  39:Service/../MAVLink/common/../checksum.h ****         tmp ^= (tmp<<4);
 3406              		.loc 14 39 22 is_stmt 0 view .LVU1041
 3407 00b6 5FFA83FC 		uxtb	ip, r3
  39:Service/../MAVLink/common/../checksum.h ****         tmp ^= (tmp<<4);
 3408              		.loc 14 39 13 view .LVU1042
 3409 00ba 82EA0C02 		eor	r2, r2, ip
 3410              	.LVL264:
ARM GAS  C:\Users\8bit\AppData\Local\Temp\ccCRhmZR.s 			page 162


  40:Service/../MAVLink/common/../checksum.h ****         *crcAccum = (*crcAccum>>8) ^ (tmp<<8) ^ (tmp <<3) ^ (tmp>>4);
 3411              		.loc 14 40 9 is_stmt 1 view .LVU1043
  40:Service/../MAVLink/common/../checksum.h ****         *crcAccum = (*crcAccum>>8) ^ (tmp<<8) ^ (tmp <<3) ^ (tmp>>4);
 3412              		.loc 14 40 13 is_stmt 0 view .LVU1044
 3413 00be 82EA0212 		eor	r2, r2, r2, lsl #4
 3414              	.LVL265:
  40:Service/../MAVLink/common/../checksum.h ****         *crcAccum = (*crcAccum>>8) ^ (tmp<<8) ^ (tmp <<3) ^ (tmp>>4);
 3415              		.loc 14 40 13 view .LVU1045
 3416 00c2 D2B2     		uxtb	r2, r2
 3417              	.LVL266:
  41:Service/../MAVLink/common/../checksum.h **** }
 3418              		.loc 14 41 9 is_stmt 1 view .LVU1046
  41:Service/../MAVLink/common/../checksum.h **** }
 3419              		.loc 14 41 36 is_stmt 0 view .LVU1047
 3420 00c4 1B0A     		lsrs	r3, r3, #8
 3421              	.LVL267:
  41:Service/../MAVLink/common/../checksum.h **** }
 3422              		.loc 14 41 36 view .LVU1048
 3423 00c6 43EA0223 		orr	r3, r3, r2, lsl #8
 3424 00ca 1BB2     		sxth	r3, r3
  41:Service/../MAVLink/common/../checksum.h **** }
 3425              		.loc 14 41 47 view .LVU1049
 3426 00cc 83EAC203 		eor	r3, r3, r2, lsl #3
  41:Service/../MAVLink/common/../checksum.h **** }
 3427              		.loc 14 41 59 view .LVU1050
 3428 00d0 83EA1213 		eor	r3, r3, r2, lsr #4
 3429 00d4 9BB2     		uxth	r3, r3
 3430              	.LVL268:
  41:Service/../MAVLink/common/../checksum.h **** }
 3431              		.loc 14 41 59 view .LVU1051
 3432              	.LBE262:
 3433              	.LBE261:
  68:Service/../MAVLink/common/../checksum.h ****                 crc_accumulate(*pBuffer++, &crcTmp);
 3434              		.loc 14 68 15 view .LVU1052
 3435 00d6 0246     		mov	r2, r0
 3436              	.LVL269:
 3437              	.L126:
  68:Service/../MAVLink/common/../checksum.h ****                 crc_accumulate(*pBuffer++, &crcTmp);
 3438              		.loc 14 68 8 is_stmt 1 view .LVU1053
  68:Service/../MAVLink/common/../checksum.h ****                 crc_accumulate(*pBuffer++, &crcTmp);
 3439              		.loc 14 68 15 is_stmt 0 view .LVU1054
 3440 00d8 501E     		subs	r0, r2, #1
 3441 00da 80B2     		uxth	r0, r0
 3442              	.LVL270:
  68:Service/../MAVLink/common/../checksum.h ****                 crc_accumulate(*pBuffer++, &crcTmp);
 3443              		.loc 14 68 8 view .LVU1055
 3444 00dc 002A     		cmp	r2, #0
 3445 00de E8D1     		bne	.L127
  71:Service/../MAVLink/common/../checksum.h **** }
 3446              		.loc 14 71 9 is_stmt 1 view .LVU1056
 3447              	.LVL271:
  71:Service/../MAVLink/common/../checksum.h **** }
 3448              		.loc 14 71 9 is_stmt 0 view .LVU1057
 3449              	.LBE258:
 3450              	.LBE257:
  85:Service/../MAVLink/common/../mavlink_helpers.h **** 	crc_accumulate_buffer(&msg->checksum, _MAV_PAYLOAD(msg), msg->len);
 3451              		.loc 2 85 16 view .LVU1058
ARM GAS  C:\Users\8bit\AppData\Local\Temp\ccCRhmZR.s 			page 163


 3452 00e0 2046     		mov	r0, r4
 3453 00e2 20F8083B 		strh	r3, [r0], #8	@ unaligned
  86:Service/../MAVLink/common/../mavlink_helpers.h **** #if MAVLINK_CRC_EXTRA
 3454              		.loc 2 86 2 is_stmt 1 view .LVU1059
 3455 00e6 E378     		ldrb	r3, [r4, #3]	@ zero_extendqisi2
 3456              	.LVL272:
 3457              	.LBB263:
 3458              	.LBI263:
  84:Service/../MAVLink/common/../checksum.h **** {
 3459              		.loc 14 84 20 view .LVU1060
 3460              	.LBB264:
  86:Service/../MAVLink/common/../checksum.h **** 	while (length--) {
 3461              		.loc 14 86 17 is_stmt 0 view .LVU1061
 3462 00e8 0146     		mov	r1, r0
 3463 00ea 13E0     		b	.L128
 3464              	.LVL273:
 3465              	.L129:
 3466              		.loc 14 88 17 is_stmt 1 view .LVU1062
 3467              		.loc 14 88 17 is_stmt 0 view .LVU1063
 3468 00ec 11F8012B 		ldrb	r2, [r1], #1	@ zero_extendqisi2
 3469              	.LVL274:
 3470              	.LBB265:
 3471              	.LBI265:
  34:Service/../MAVLink/common/../checksum.h **** {
 3472              		.loc 14 34 20 is_stmt 1 view .LVU1064
 3473              	.LBB266:
  37:Service/../MAVLink/common/../checksum.h **** 
 3474              		.loc 14 37 9 view .LVU1065
  39:Service/../MAVLink/common/../checksum.h ****         tmp ^= (tmp<<4);
 3475              		.loc 14 39 9 view .LVU1066
  39:Service/../MAVLink/common/../checksum.h ****         tmp ^= (tmp<<4);
 3476              		.loc 14 39 32 is_stmt 0 view .LVU1067
 3477 00f0 2388     		ldrh	r3, [r4]
  39:Service/../MAVLink/common/../checksum.h ****         tmp ^= (tmp<<4);
 3478              		.loc 14 39 22 view .LVU1068
 3479 00f2 5FFA83FE 		uxtb	lr, r3
  39:Service/../MAVLink/common/../checksum.h ****         tmp ^= (tmp<<4);
 3480              		.loc 14 39 13 view .LVU1069
 3481 00f6 82EA0E02 		eor	r2, r2, lr
 3482              	.LVL275:
  40:Service/../MAVLink/common/../checksum.h ****         *crcAccum = (*crcAccum>>8) ^ (tmp<<8) ^ (tmp <<3) ^ (tmp>>4);
 3483              		.loc 14 40 9 is_stmt 1 view .LVU1070
  40:Service/../MAVLink/common/../checksum.h ****         *crcAccum = (*crcAccum>>8) ^ (tmp<<8) ^ (tmp <<3) ^ (tmp>>4);
 3484              		.loc 14 40 13 is_stmt 0 view .LVU1071
 3485 00fa 82EA0212 		eor	r2, r2, r2, lsl #4
 3486              	.LVL276:
  40:Service/../MAVLink/common/../checksum.h ****         *crcAccum = (*crcAccum>>8) ^ (tmp<<8) ^ (tmp <<3) ^ (tmp>>4);
 3487              		.loc 14 40 13 view .LVU1072
 3488 00fe D2B2     		uxtb	r2, r2
 3489              	.LVL277:
  41:Service/../MAVLink/common/../checksum.h **** }
 3490              		.loc 14 41 9 is_stmt 1 view .LVU1073
  41:Service/../MAVLink/common/../checksum.h **** }
 3491              		.loc 14 41 36 is_stmt 0 view .LVU1074
 3492 0100 1B0A     		lsrs	r3, r3, #8
 3493 0102 43EA0223 		orr	r3, r3, r2, lsl #8
 3494 0106 1BB2     		sxth	r3, r3
ARM GAS  C:\Users\8bit\AppData\Local\Temp\ccCRhmZR.s 			page 164


  41:Service/../MAVLink/common/../checksum.h **** }
 3495              		.loc 14 41 47 view .LVU1075
 3496 0108 83EAC203 		eor	r3, r3, r2, lsl #3
  41:Service/../MAVLink/common/../checksum.h **** }
 3497              		.loc 14 41 59 view .LVU1076
 3498 010c 83EA1213 		eor	r3, r3, r2, lsr #4
  41:Service/../MAVLink/common/../checksum.h **** }
 3499              		.loc 14 41 19 view .LVU1077
 3500 0110 2380     		strh	r3, [r4]	@ movhi
 3501              	.LVL278:
  41:Service/../MAVLink/common/../checksum.h **** }
 3502              		.loc 14 41 19 view .LVU1078
 3503              	.LBE266:
 3504              	.LBE265:
  87:Service/../MAVLink/common/../checksum.h ****                 crc_accumulate(*p++, crcAccum);
 3505              		.loc 14 87 15 view .LVU1079
 3506 0112 6346     		mov	r3, ip
 3507              	.LVL279:
 3508              	.L128:
  87:Service/../MAVLink/common/../checksum.h ****                 crc_accumulate(*p++, crcAccum);
 3509              		.loc 14 87 8 is_stmt 1 view .LVU1080
  87:Service/../MAVLink/common/../checksum.h ****                 crc_accumulate(*p++, crcAccum);
 3510              		.loc 14 87 15 is_stmt 0 view .LVU1081
 3511 0114 03F1FF3C 		add	ip, r3, #-1
 3512 0118 1FFA8CFC 		uxth	ip, ip
 3513              	.LVL280:
  87:Service/../MAVLink/common/../checksum.h ****                 crc_accumulate(*p++, crcAccum);
 3514              		.loc 14 87 8 view .LVU1082
 3515 011c 002B     		cmp	r3, #0
 3516 011e E5D1     		bne	.L129
 3517              	.LVL281:
  87:Service/../MAVLink/common/../checksum.h ****                 crc_accumulate(*p++, crcAccum);
 3518              		.loc 14 87 8 view .LVU1083
 3519              	.LBE264:
 3520              	.LBE263:
  88:Service/../MAVLink/common/../mavlink_helpers.h **** #endif
 3521              		.loc 2 88 2 is_stmt 1 view .LVU1084
 3522              	.LBB267:
 3523              	.LBI267:
  34:Service/../MAVLink/common/../checksum.h **** {
 3524              		.loc 14 34 20 view .LVU1085
 3525              	.LBB268:
  37:Service/../MAVLink/common/../checksum.h **** 
 3526              		.loc 14 37 9 view .LVU1086
  39:Service/../MAVLink/common/../checksum.h ****         tmp ^= (tmp<<4);
 3527              		.loc 14 39 9 view .LVU1087
  39:Service/../MAVLink/common/../checksum.h ****         tmp ^= (tmp<<4);
 3528              		.loc 14 39 32 is_stmt 0 view .LVU1088
 3529 0120 2388     		ldrh	r3, [r4]
  39:Service/../MAVLink/common/../checksum.h ****         tmp ^= (tmp<<4);
 3530              		.loc 14 39 22 view .LVU1089
 3531 0122 DAB2     		uxtb	r2, r3
  39:Service/../MAVLink/common/../checksum.h ****         tmp ^= (tmp<<4);
 3532              		.loc 14 39 13 view .LVU1090
 3533 0124 82F02702 		eor	r2, r2, #39
 3534              	.LVL282:
  40:Service/../MAVLink/common/../checksum.h ****         *crcAccum = (*crcAccum>>8) ^ (tmp<<8) ^ (tmp <<3) ^ (tmp>>4);
ARM GAS  C:\Users\8bit\AppData\Local\Temp\ccCRhmZR.s 			page 165


 3535              		.loc 14 40 9 is_stmt 1 view .LVU1091
  40:Service/../MAVLink/common/../checksum.h ****         *crcAccum = (*crcAccum>>8) ^ (tmp<<8) ^ (tmp <<3) ^ (tmp>>4);
 3536              		.loc 14 40 13 is_stmt 0 view .LVU1092
 3537 0128 82EA0212 		eor	r2, r2, r2, lsl #4
 3538              	.LVL283:
  40:Service/../MAVLink/common/../checksum.h ****         *crcAccum = (*crcAccum>>8) ^ (tmp<<8) ^ (tmp <<3) ^ (tmp>>4);
 3539              		.loc 14 40 13 view .LVU1093
 3540 012c D2B2     		uxtb	r2, r2
 3541              	.LVL284:
  41:Service/../MAVLink/common/../checksum.h **** }
 3542              		.loc 14 41 9 is_stmt 1 view .LVU1094
  41:Service/../MAVLink/common/../checksum.h **** }
 3543              		.loc 14 41 36 is_stmt 0 view .LVU1095
 3544 012e 1B0A     		lsrs	r3, r3, #8
 3545 0130 43EA0223 		orr	r3, r3, r2, lsl #8
 3546 0134 1BB2     		sxth	r3, r3
  41:Service/../MAVLink/common/../checksum.h **** }
 3547              		.loc 14 41 47 view .LVU1096
 3548 0136 83EAC203 		eor	r3, r3, r2, lsl #3
  41:Service/../MAVLink/common/../checksum.h **** }
 3549              		.loc 14 41 59 view .LVU1097
 3550 013a 83EA1213 		eor	r3, r3, r2, lsr #4
  41:Service/../MAVLink/common/../checksum.h **** }
 3551              		.loc 14 41 19 view .LVU1098
 3552 013e 2380     		strh	r3, [r4]	@ movhi
 3553              	.LVL285:
  41:Service/../MAVLink/common/../checksum.h **** }
 3554              		.loc 14 41 19 view .LVU1099
 3555              	.LBE268:
 3556              	.LBE267:
  90:Service/../MAVLink/common/../mavlink_helpers.h **** 	mavlink_ck_b(msg) = (uint8_t)(msg->checksum >> 8);
 3557              		.loc 2 90 2 is_stmt 1 view .LVU1100
  90:Service/../MAVLink/common/../mavlink_helpers.h **** 	mavlink_ck_b(msg) = (uint8_t)(msg->checksum >> 8);
 3558              		.loc 2 90 35 is_stmt 0 view .LVU1101
 3559 0140 2288     		ldrh	r2, [r4]	@ unaligned
  90:Service/../MAVLink/common/../mavlink_helpers.h **** 	mavlink_ck_b(msg) = (uint8_t)(msg->checksum >> 8);
 3560              		.loc 2 90 2 view .LVU1102
 3561 0142 E378     		ldrb	r3, [r4, #3]	@ zero_extendqisi2
  90:Service/../MAVLink/common/../mavlink_helpers.h **** 	mavlink_ck_b(msg) = (uint8_t)(msg->checksum >> 8);
 3562              		.loc 2 90 20 view .LVU1103
 3563 0144 C254     		strb	r2, [r0, r3]
  91:Service/../MAVLink/common/../mavlink_helpers.h **** 
 3564              		.loc 2 91 2 is_stmt 1 view .LVU1104
  91:Service/../MAVLink/common/../mavlink_helpers.h **** 
 3565              		.loc 2 91 35 is_stmt 0 view .LVU1105
 3566 0146 2288     		ldrh	r2, [r4]	@ unaligned
  91:Service/../MAVLink/common/../mavlink_helpers.h **** 
 3567              		.loc 2 91 2 view .LVU1106
 3568 0148 E378     		ldrb	r3, [r4, #3]	@ zero_extendqisi2
 3569 014a 0133     		adds	r3, r3, #1
  91:Service/../MAVLink/common/../mavlink_helpers.h **** 
 3570              		.loc 2 91 22 view .LVU1107
 3571 014c 120A     		lsrs	r2, r2, #8
  91:Service/../MAVLink/common/../mavlink_helpers.h **** 
 3572              		.loc 2 91 20 view .LVU1108
 3573 014e C254     		strb	r2, [r0, r3]
  93:Service/../MAVLink/common/../mavlink_helpers.h **** }
ARM GAS  C:\Users\8bit\AppData\Local\Temp\ccCRhmZR.s 			page 166


 3574              		.loc 2 93 2 is_stmt 1 view .LVU1109
 3575              	.LVL286:
  93:Service/../MAVLink/common/../mavlink_helpers.h **** }
 3576              		.loc 2 93 2 is_stmt 0 view .LVU1110
 3577              	.LBE270:
 3578              	.LBE272:
 3579              	.LBE274:
 3580              	.LBE276:
 265:Service/Srv_ComProto.c **** 
 3581              		.loc 1 265 1 view .LVU1111
 3582 0150 2420     		movs	r0, #36
 3583 0152 15B0     		add	sp, sp, #84
 3584              	.LCFI88:
 3585              		.cfi_def_cfa_offset 20
 3586              		@ sp needed
 3587 0154 F0BD     		pop	{r4, r5, r6, r7, pc}
 3588              	.L132:
 3589 0156 00BF     		.align	2
 3590              	.L131:
 3591 0158 00000000 		.word	SrvDataHub
 3592 015c 00000000 		.word	.LANCHOR1
 3593              		.cfi_endproc
 3594              	.LFE2081:
 3596              		.section	.text.SrvConProto_MavMsg_RC,"ax",%progbits
 3597              		.align	1
 3598              		.syntax unified
 3599              		.thumb
 3600              		.thumb_func
 3602              	SrvConProto_MavMsg_RC:
 3603              	.LVL287:
 3604              	.LFB2083:
 285:Service/Srv_ComProto.c ****     ControlData_TypeDef inuse_ctldata;
 3605              		.loc 1 285 1 is_stmt 1 view -0
 3606              		.cfi_startproc
 3607              		@ args = 0, pretend = 0, frame = 192
 3608              		@ frame_needed = 0, uses_anonymous_args = 0
 285:Service/Srv_ComProto.c ****     ControlData_TypeDef inuse_ctldata;
 3609              		.loc 1 285 1 is_stmt 0 view .LVU1113
 3610 0000 2DE9F04F 		push	{r4, r5, r6, r7, r8, r9, r10, fp, lr}
 3611              	.LCFI89:
 3612              		.cfi_def_cfa_offset 36
 3613              		.cfi_offset 4, -36
 3614              		.cfi_offset 5, -32
 3615              		.cfi_offset 6, -28
 3616              		.cfi_offset 7, -24
 3617              		.cfi_offset 8, -20
 3618              		.cfi_offset 9, -16
 3619              		.cfi_offset 10, -12
 3620              		.cfi_offset 11, -8
 3621              		.cfi_offset 14, -4
 3622 0004 B1B0     		sub	sp, sp, #196
 3623              	.LCFI90:
 3624              		.cfi_def_cfa_offset 232
 3625 0006 0446     		mov	r4, r0
 286:Service/Srv_ComProto.c **** 
 3626              		.loc 1 286 5 is_stmt 1 view .LVU1114
 288:Service/Srv_ComProto.c ****     SrvDataHub.get_rc_control_data(&inuse_ctldata);
ARM GAS  C:\Users\8bit\AppData\Local\Temp\ccCRhmZR.s 			page 167


 3627              		.loc 1 288 5 view .LVU1115
 3628 0008 6422     		movs	r2, #100
 3629 000a 0021     		movs	r1, #0
 3630 000c 17A8     		add	r0, sp, #92
 3631              	.LVL288:
 288:Service/Srv_ComProto.c ****     SrvDataHub.get_rc_control_data(&inuse_ctldata);
 3632              		.loc 1 288 5 is_stmt 0 view .LVU1116
 3633 000e FFF7FEFF 		bl	memset
 3634              	.LVL289:
 289:Service/Srv_ComProto.c **** 
 3635              		.loc 1 289 5 is_stmt 1 view .LVU1117
 289:Service/Srv_ComProto.c **** 
 3636              		.loc 1 289 15 is_stmt 0 view .LVU1118
 3637 0012 7F4B     		ldr	r3, .L140
 3638 0014 9B6C     		ldr	r3, [r3, #72]
 289:Service/Srv_ComProto.c **** 
 3639              		.loc 1 289 5 view .LVU1119
 3640 0016 17A8     		add	r0, sp, #92
 3641 0018 9847     		blx	r3
 3642              	.LVL290:
 291:Service/Srv_ComProto.c ****                                              pck->pck_info.component_id,
 3643              		.loc 1 291 5 is_stmt 1 view .LVU1120
 291:Service/Srv_ComProto.c ****                                              pck->pck_info.component_id,
 3644              		.loc 1 291 12 is_stmt 0 view .LVU1121
 3645 001a 94F80890 		ldrb	r9, [r4, #8]	@ zero_extendqisi2
 3646 001e 94F80980 		ldrb	r8, [r4, #9]	@ zero_extendqisi2
 3647 0022 94F80AE0 		ldrb	lr, [r4, #10]	@ zero_extendqisi2
 3648 0026 D4F80CC0 		ldr	ip, [r4, #12]
 3649 002a 9DF86030 		ldrb	r3, [sp, #96]	@ zero_extendqisi2
 3650 002e 0193     		str	r3, [sp, #4]
 3651 0030 BDF862B0 		ldrh	fp, [sp, #98]
 3652 0034 BDF864A0 		ldrh	r10, [sp, #100]
 3653 0038 BDF86610 		ldrh	r1, [sp, #102]
 3654 003c 0291     		str	r1, [sp, #8]
 3655 003e BDF86800 		ldrh	r0, [sp, #104]
 3656 0042 0390     		str	r0, [sp, #12]
 3657 0044 BDF86A70 		ldrh	r7, [sp, #106]
 3658 0048 BDF86C60 		ldrh	r6, [sp, #108]
 3659 004c BDF86E50 		ldrh	r5, [sp, #110]
 3660 0050 BDF87040 		ldrh	r4, [sp, #112]
 3661              	.LVL291:
 291:Service/Srv_ComProto.c ****                                              pck->pck_info.component_id,
 3662              		.loc 1 291 12 view .LVU1122
 3663 0054 0494     		str	r4, [sp, #16]
 3664 0056 BDF87230 		ldrh	r3, [sp, #114]
 3665 005a 0593     		str	r3, [sp, #20]
 3666 005c BDF87420 		ldrh	r2, [sp, #116]
 3667 0060 0692     		str	r2, [sp, #24]
 3668 0062 BDF87600 		ldrh	r0, [sp, #118]
 3669 0066 0790     		str	r0, [sp, #28]
 3670 0068 BDF87840 		ldrh	r4, [sp, #120]
 3671 006c 0894     		str	r4, [sp, #32]
 3672 006e BDF87A40 		ldrh	r4, [sp, #122]
 3673 0072 BDF87C30 		ldrh	r3, [sp, #124]
 3674 0076 0993     		str	r3, [sp, #36]
 3675 0078 BDF87E20 		ldrh	r2, [sp, #126]
 3676 007c 0A92     		str	r2, [sp, #40]
ARM GAS  C:\Users\8bit\AppData\Local\Temp\ccCRhmZR.s 			page 168


 3677 007e BDF88000 		ldrh	r0, [sp, #128]
 3678 0082 BDF88210 		ldrh	r1, [sp, #130]
 3679 0086 0B91     		str	r1, [sp, #44]
 3680 0088 BDF88420 		ldrh	r2, [sp, #132]
 3681 008c 9DF8BC30 		ldrb	r3, [sp, #188]	@ zero_extendqisi2
 3682              	.LVL292:
 3683              	.LBB297:
 3684              	.LBI297:
 215:Service/../MAVLink/common/./mavlink_msg_rc_channels.h ****                                mavlink_message_t* msg,
 3685              		.loc 6 215 24 is_stmt 1 view .LVU1123
 3686              	.LBB298:
 245:Service/../MAVLink/common/./mavlink_msg_rc_channels.h ****     packet.time_boot_ms = time_boot_ms;
 3687              		.loc 6 245 5 view .LVU1124
 246:Service/../MAVLink/common/./mavlink_msg_rc_channels.h ****     packet.chan1_raw = chan1_raw;
 3688              		.loc 6 246 5 view .LVU1125
 246:Service/../MAVLink/common/./mavlink_msg_rc_channels.h ****     packet.chan1_raw = chan1_raw;
 3689              		.loc 6 246 25 is_stmt 0 view .LVU1126
 3690 0090 1799     		ldr	r1, [sp, #92]
 3691 0092 0C91     		str	r1, [sp, #48]
 247:Service/../MAVLink/common/./mavlink_msg_rc_channels.h ****     packet.chan2_raw = chan2_raw;
 3692              		.loc 6 247 5 is_stmt 1 view .LVU1127
 247:Service/../MAVLink/common/./mavlink_msg_rc_channels.h ****     packet.chan2_raw = chan2_raw;
 3693              		.loc 6 247 22 is_stmt 0 view .LVU1128
 3694 0094 ADF834B0 		strh	fp, [sp, #52]	@ movhi
 248:Service/../MAVLink/common/./mavlink_msg_rc_channels.h ****     packet.chan3_raw = chan3_raw;
 3695              		.loc 6 248 5 is_stmt 1 view .LVU1129
 248:Service/../MAVLink/common/./mavlink_msg_rc_channels.h ****     packet.chan3_raw = chan3_raw;
 3696              		.loc 6 248 22 is_stmt 0 view .LVU1130
 3697 0098 ADF836A0 		strh	r10, [sp, #54]	@ movhi
 249:Service/../MAVLink/common/./mavlink_msg_rc_channels.h ****     packet.chan4_raw = chan4_raw;
 3698              		.loc 6 249 5 is_stmt 1 view .LVU1131
 249:Service/../MAVLink/common/./mavlink_msg_rc_channels.h ****     packet.chan4_raw = chan4_raw;
 3699              		.loc 6 249 22 is_stmt 0 view .LVU1132
 3700 009c 0299     		ldr	r1, [sp, #8]
 3701 009e ADF83810 		strh	r1, [sp, #56]	@ movhi
 250:Service/../MAVLink/common/./mavlink_msg_rc_channels.h ****     packet.chan5_raw = chan5_raw;
 3702              		.loc 6 250 5 is_stmt 1 view .LVU1133
 250:Service/../MAVLink/common/./mavlink_msg_rc_channels.h ****     packet.chan5_raw = chan5_raw;
 3703              		.loc 6 250 22 is_stmt 0 view .LVU1134
 3704 00a2 0399     		ldr	r1, [sp, #12]
 3705 00a4 ADF83A10 		strh	r1, [sp, #58]	@ movhi
 251:Service/../MAVLink/common/./mavlink_msg_rc_channels.h ****     packet.chan6_raw = chan6_raw;
 3706              		.loc 6 251 5 is_stmt 1 view .LVU1135
 251:Service/../MAVLink/common/./mavlink_msg_rc_channels.h ****     packet.chan6_raw = chan6_raw;
 3707              		.loc 6 251 22 is_stmt 0 view .LVU1136
 3708 00a8 ADF83C70 		strh	r7, [sp, #60]	@ movhi
 252:Service/../MAVLink/common/./mavlink_msg_rc_channels.h ****     packet.chan7_raw = chan7_raw;
 3709              		.loc 6 252 5 is_stmt 1 view .LVU1137
 252:Service/../MAVLink/common/./mavlink_msg_rc_channels.h ****     packet.chan7_raw = chan7_raw;
 3710              		.loc 6 252 22 is_stmt 0 view .LVU1138
 3711 00ac ADF83E60 		strh	r6, [sp, #62]	@ movhi
 253:Service/../MAVLink/common/./mavlink_msg_rc_channels.h ****     packet.chan8_raw = chan8_raw;
 3712              		.loc 6 253 5 is_stmt 1 view .LVU1139
 253:Service/../MAVLink/common/./mavlink_msg_rc_channels.h ****     packet.chan8_raw = chan8_raw;
 3713              		.loc 6 253 22 is_stmt 0 view .LVU1140
 3714 00b0 ADF84050 		strh	r5, [sp, #64]	@ movhi
 254:Service/../MAVLink/common/./mavlink_msg_rc_channels.h ****     packet.chan9_raw = chan9_raw;
ARM GAS  C:\Users\8bit\AppData\Local\Temp\ccCRhmZR.s 			page 169


 3715              		.loc 6 254 5 is_stmt 1 view .LVU1141
 254:Service/../MAVLink/common/./mavlink_msg_rc_channels.h ****     packet.chan9_raw = chan9_raw;
 3716              		.loc 6 254 22 is_stmt 0 view .LVU1142
 3717 00b4 0499     		ldr	r1, [sp, #16]
 3718 00b6 ADF84210 		strh	r1, [sp, #66]	@ movhi
 255:Service/../MAVLink/common/./mavlink_msg_rc_channels.h ****     packet.chan10_raw = chan10_raw;
 3719              		.loc 6 255 5 is_stmt 1 view .LVU1143
 255:Service/../MAVLink/common/./mavlink_msg_rc_channels.h ****     packet.chan10_raw = chan10_raw;
 3720              		.loc 6 255 22 is_stmt 0 view .LVU1144
 3721 00ba 0599     		ldr	r1, [sp, #20]
 3722 00bc ADF84410 		strh	r1, [sp, #68]	@ movhi
 256:Service/../MAVLink/common/./mavlink_msg_rc_channels.h ****     packet.chan11_raw = chan11_raw;
 3723              		.loc 6 256 5 is_stmt 1 view .LVU1145
 256:Service/../MAVLink/common/./mavlink_msg_rc_channels.h ****     packet.chan11_raw = chan11_raw;
 3724              		.loc 6 256 23 is_stmt 0 view .LVU1146
 3725 00c0 0699     		ldr	r1, [sp, #24]
 3726 00c2 ADF84610 		strh	r1, [sp, #70]	@ movhi
 257:Service/../MAVLink/common/./mavlink_msg_rc_channels.h ****     packet.chan12_raw = chan12_raw;
 3727              		.loc 6 257 5 is_stmt 1 view .LVU1147
 257:Service/../MAVLink/common/./mavlink_msg_rc_channels.h ****     packet.chan12_raw = chan12_raw;
 3728              		.loc 6 257 23 is_stmt 0 view .LVU1148
 3729 00c6 0799     		ldr	r1, [sp, #28]
 3730 00c8 ADF84810 		strh	r1, [sp, #72]	@ movhi
 258:Service/../MAVLink/common/./mavlink_msg_rc_channels.h ****     packet.chan13_raw = chan13_raw;
 3731              		.loc 6 258 5 is_stmt 1 view .LVU1149
 258:Service/../MAVLink/common/./mavlink_msg_rc_channels.h ****     packet.chan13_raw = chan13_raw;
 3732              		.loc 6 258 23 is_stmt 0 view .LVU1150
 3733 00cc 0899     		ldr	r1, [sp, #32]
 3734 00ce ADF84A10 		strh	r1, [sp, #74]	@ movhi
 259:Service/../MAVLink/common/./mavlink_msg_rc_channels.h ****     packet.chan14_raw = chan14_raw;
 3735              		.loc 6 259 5 is_stmt 1 view .LVU1151
 259:Service/../MAVLink/common/./mavlink_msg_rc_channels.h ****     packet.chan14_raw = chan14_raw;
 3736              		.loc 6 259 23 is_stmt 0 view .LVU1152
 3737 00d2 ADF84C40 		strh	r4, [sp, #76]	@ movhi
 260:Service/../MAVLink/common/./mavlink_msg_rc_channels.h ****     packet.chan15_raw = chan15_raw;
 3738              		.loc 6 260 5 is_stmt 1 view .LVU1153
 260:Service/../MAVLink/common/./mavlink_msg_rc_channels.h ****     packet.chan15_raw = chan15_raw;
 3739              		.loc 6 260 23 is_stmt 0 view .LVU1154
 3740 00d6 0999     		ldr	r1, [sp, #36]
 3741 00d8 ADF84E10 		strh	r1, [sp, #78]	@ movhi
 261:Service/../MAVLink/common/./mavlink_msg_rc_channels.h ****     packet.chan16_raw = chan16_raw;
 3742              		.loc 6 261 5 is_stmt 1 view .LVU1155
 261:Service/../MAVLink/common/./mavlink_msg_rc_channels.h ****     packet.chan16_raw = chan16_raw;
 3743              		.loc 6 261 23 is_stmt 0 view .LVU1156
 3744 00dc 0A99     		ldr	r1, [sp, #40]
 3745 00de ADF85010 		strh	r1, [sp, #80]	@ movhi
 262:Service/../MAVLink/common/./mavlink_msg_rc_channels.h ****     packet.chan17_raw = chan17_raw;
 3746              		.loc 6 262 5 is_stmt 1 view .LVU1157
 262:Service/../MAVLink/common/./mavlink_msg_rc_channels.h ****     packet.chan17_raw = chan17_raw;
 3747              		.loc 6 262 23 is_stmt 0 view .LVU1158
 3748 00e2 ADF85200 		strh	r0, [sp, #82]	@ movhi
 263:Service/../MAVLink/common/./mavlink_msg_rc_channels.h ****     packet.chan18_raw = chan18_raw;
 3749              		.loc 6 263 5 is_stmt 1 view .LVU1159
 263:Service/../MAVLink/common/./mavlink_msg_rc_channels.h ****     packet.chan18_raw = chan18_raw;
 3750              		.loc 6 263 23 is_stmt 0 view .LVU1160
 3751 00e6 0B99     		ldr	r1, [sp, #44]
 3752 00e8 ADF85410 		strh	r1, [sp, #84]	@ movhi
ARM GAS  C:\Users\8bit\AppData\Local\Temp\ccCRhmZR.s 			page 170


 264:Service/../MAVLink/common/./mavlink_msg_rc_channels.h ****     packet.chancount = chancount;
 3753              		.loc 6 264 5 is_stmt 1 view .LVU1161
 264:Service/../MAVLink/common/./mavlink_msg_rc_channels.h ****     packet.chancount = chancount;
 3754              		.loc 6 264 23 is_stmt 0 view .LVU1162
 3755 00ec ADF85620 		strh	r2, [sp, #86]	@ movhi
 265:Service/../MAVLink/common/./mavlink_msg_rc_channels.h ****     packet.rssi = rssi;
 3756              		.loc 6 265 5 is_stmt 1 view .LVU1163
 265:Service/../MAVLink/common/./mavlink_msg_rc_channels.h ****     packet.rssi = rssi;
 3757              		.loc 6 265 22 is_stmt 0 view .LVU1164
 3758 00f0 019A     		ldr	r2, [sp, #4]
 3759              	.LVL293:
 265:Service/../MAVLink/common/./mavlink_msg_rc_channels.h ****     packet.rssi = rssi;
 3760              		.loc 6 265 22 view .LVU1165
 3761 00f2 8DF85820 		strb	r2, [sp, #88]
 266:Service/../MAVLink/common/./mavlink_msg_rc_channels.h **** 
 3762              		.loc 6 266 5 is_stmt 1 view .LVU1166
 266:Service/../MAVLink/common/./mavlink_msg_rc_channels.h **** 
 3763              		.loc 6 266 17 is_stmt 0 view .LVU1167
 3764 00f6 8DF85930 		strb	r3, [sp, #89]
 268:Service/../MAVLink/common/./mavlink_msg_rc_channels.h **** #endif
 3765              		.loc 6 268 9 is_stmt 1 view .LVU1168
 3766 00fa 0CAE     		add	r6, sp, #48
 3767              	.LVL294:
 268:Service/../MAVLink/common/./mavlink_msg_rc_channels.h **** #endif
 3768              		.loc 6 268 9 is_stmt 0 view .LVU1169
 3769 00fc 0CF10804 		add	r4, ip, #8
 3770              	.LVL295:
 268:Service/../MAVLink/common/./mavlink_msg_rc_channels.h **** #endif
 3771              		.loc 6 268 9 view .LVU1170
 3772 0100 14AF     		add	r7, sp, #80
 3773              	.LVL296:
 3774              	.L134:
 268:Service/../MAVLink/common/./mavlink_msg_rc_channels.h **** #endif
 3775              		.loc 6 268 9 view .LVU1171
 3776 0102 3546     		mov	r5, r6
 3777 0104 0FCD     		ldmia	r5!, {r0, r1, r2, r3}
 3778 0106 2060     		str	r0, [r4]	@ unaligned
 3779 0108 6160     		str	r1, [r4, #4]	@ unaligned
 3780 010a A260     		str	r2, [r4, #8]	@ unaligned
 3781 010c E360     		str	r3, [r4, #12]	@ unaligned
 3782 010e 2E46     		mov	r6, r5
 3783 0110 1034     		adds	r4, r4, #16
 3784 0112 BD42     		cmp	r5, r7
 3785 0114 F5D1     		bne	.L134
 3786 0116 03CE     		ldmia	r6!, {r0, r1}
 3787 0118 2060     		str	r0, [r4]	@ unaligned
 3788 011a 6160     		str	r1, [r4, #4]	@ unaligned
 3789 011c 3388     		ldrh	r3, [r6]	@ unaligned
 3790 011e 2381     		strh	r3, [r4, #8]	@ unaligned
 271:Service/../MAVLink/common/./mavlink_msg_rc_channels.h ****     return mavlink_finalize_message_chan(msg, system_id, component_id, chan, MAVLINK_MSG_ID_RC_CHAN
 3791              		.loc 6 271 5 is_stmt 1 view .LVU1172
 271:Service/../MAVLink/common/./mavlink_msg_rc_channels.h ****     return mavlink_finalize_message_chan(msg, system_id, component_id, chan, MAVLINK_MSG_ID_RC_CHAN
 3792              		.loc 6 271 16 is_stmt 0 view .LVU1173
 3793 0120 4123     		movs	r3, #65
 3794 0122 8CF80730 		strb	r3, [ip, #7]
 272:Service/../MAVLink/common/./mavlink_msg_rc_channels.h **** }
 3795              		.loc 6 272 5 is_stmt 1 view .LVU1174
ARM GAS  C:\Users\8bit\AppData\Local\Temp\ccCRhmZR.s 			page 171


 3796              	.LVL297:
 3797              	.LBB299:
 3798              	.LBI299:
  68:Service/../MAVLink/common/../mavlink_helpers.h **** 						      uint8_t chan, uint8_t min_length, uint8_t length, uint8_t crc_extra)
 3799              		.loc 2 68 25 view .LVU1175
 3800              	.LBB300:
  76:Service/../MAVLink/common/../mavlink_helpers.h **** 	// This code part is the same for all messages;
 3801              		.loc 2 76 2 view .LVU1176
  78:Service/../MAVLink/common/../mavlink_helpers.h **** 	msg->len = length;
 3802              		.loc 2 78 2 view .LVU1177
  78:Service/../MAVLink/common/../mavlink_helpers.h **** 	msg->len = length;
 3803              		.loc 2 78 13 is_stmt 0 view .LVU1178
 3804 0126 FE23     		movs	r3, #254
 3805 0128 8CF80230 		strb	r3, [ip, #2]
  79:Service/../MAVLink/common/../mavlink_helpers.h **** 	msg->sysid = system_id;
 3806              		.loc 2 79 2 is_stmt 1 view .LVU1179
  79:Service/../MAVLink/common/../mavlink_helpers.h **** 	msg->sysid = system_id;
 3807              		.loc 2 79 11 is_stmt 0 view .LVU1180
 3808 012c 2A23     		movs	r3, #42
 3809 012e 8CF80330 		strb	r3, [ip, #3]
  80:Service/../MAVLink/common/../mavlink_helpers.h **** 	msg->compid = component_id;
 3810              		.loc 2 80 2 is_stmt 1 view .LVU1181
  80:Service/../MAVLink/common/../mavlink_helpers.h **** 	msg->compid = component_id;
 3811              		.loc 2 80 13 is_stmt 0 view .LVU1182
 3812 0132 8CF80590 		strb	r9, [ip, #5]
  81:Service/../MAVLink/common/../mavlink_helpers.h **** 	// One sequence number per channel
 3813              		.loc 2 81 2 is_stmt 1 view .LVU1183
  81:Service/../MAVLink/common/../mavlink_helpers.h **** 	// One sequence number per channel
 3814              		.loc 2 81 14 is_stmt 0 view .LVU1184
 3815 0136 8CF80680 		strb	r8, [ip, #6]
  83:Service/../MAVLink/common/../mavlink_helpers.h **** 	mavlink_get_channel_status(chan)->current_tx_seq = mavlink_get_channel_status(chan)->current_tx_se
 3816              		.loc 2 83 2 is_stmt 1 view .LVU1185
 3817              	.LVL298:
 3818              	.LBB301:
 3819              	.LBI301:
  17:Service/../MAVLink/common/../mavlink_helpers.h **** {
 3820              		.loc 2 17 34 view .LVU1186
 3821              	.LBB302:
  23:Service/../MAVLink/common/../mavlink_helpers.h **** #endif
 3822              		.loc 2 23 2 view .LVU1187
  25:Service/../MAVLink/common/../mavlink_helpers.h **** }
 3823              		.loc 2 25 2 view .LVU1188
  25:Service/../MAVLink/common/../mavlink_helpers.h **** }
 3824              		.loc 2 25 2 is_stmt 0 view .LVU1189
 3825              	.LBE302:
 3826              	.LBE301:
  83:Service/../MAVLink/common/../mavlink_helpers.h **** 	mavlink_get_channel_status(chan)->current_tx_seq = mavlink_get_channel_status(chan)->current_tx_se
 3827              		.loc 2 83 45 view .LVU1190
 3828 013a 364A     		ldr	r2, .L140+4
 3829 013c 0EEB4E03 		add	r3, lr, lr, lsl #1
 3830 0140 02EB8303 		add	r3, r2, r3, lsl #2
 3831 0144 9979     		ldrb	r1, [r3, #6]	@ zero_extendqisi2
  83:Service/../MAVLink/common/../mavlink_helpers.h **** 	mavlink_get_channel_status(chan)->current_tx_seq = mavlink_get_channel_status(chan)->current_tx_se
 3832              		.loc 2 83 11 view .LVU1191
 3833 0146 8CF80410 		strb	r1, [ip, #4]
  84:Service/../MAVLink/common/../mavlink_helpers.h **** 	msg->checksum = crc_calculate(((const uint8_t*)(msg)) + 3, MAVLINK_CORE_HEADER_LEN);
 3834              		.loc 2 84 2 is_stmt 1 view .LVU1192
ARM GAS  C:\Users\8bit\AppData\Local\Temp\ccCRhmZR.s 			page 172


 3835              	.LVL299:
 3836              	.LBB303:
 3837              	.LBI303:
  17:Service/../MAVLink/common/../mavlink_helpers.h **** {
 3838              		.loc 2 17 34 view .LVU1193
 3839              	.LBE303:
 3840              	.LBE300:
 3841              	.LBE299:
 3842              	.LBE298:
 3843              	.LBE297:
  23:Service/../MAVLink/common/../mavlink_helpers.h **** #endif
 3844              		.loc 2 23 2 view .LVU1194
  25:Service/../MAVLink/common/../mavlink_helpers.h **** }
 3845              		.loc 2 25 2 view .LVU1195
 3846              	.LBB323:
 3847              	.LBB321:
 3848              	.LBB319:
 3849              	.LBB317:
  84:Service/../MAVLink/common/../mavlink_helpers.h **** 	msg->checksum = crc_calculate(((const uint8_t*)(msg)) + 3, MAVLINK_CORE_HEADER_LEN);
 3850              		.loc 2 84 85 is_stmt 0 view .LVU1196
 3851 014a 9979     		ldrb	r1, [r3, #6]	@ zero_extendqisi2
 3852              	.LVL300:
 3853              	.LBB304:
 3854              	.LBI304:
  17:Service/../MAVLink/common/../mavlink_helpers.h **** {
 3855              		.loc 2 17 34 is_stmt 1 view .LVU1197
 3856              	.LBE304:
 3857              	.LBE317:
 3858              	.LBE319:
 3859              	.LBE321:
 3860              	.LBE323:
  23:Service/../MAVLink/common/../mavlink_helpers.h **** #endif
 3861              		.loc 2 23 2 view .LVU1198
  25:Service/../MAVLink/common/../mavlink_helpers.h **** }
 3862              		.loc 2 25 2 view .LVU1199
 3863              	.LBB324:
 3864              	.LBB322:
 3865              	.LBB320:
 3866              	.LBB318:
  84:Service/../MAVLink/common/../mavlink_helpers.h **** 	msg->checksum = crc_calculate(((const uint8_t*)(msg)) + 3, MAVLINK_CORE_HEADER_LEN);
 3867              		.loc 2 84 101 is_stmt 0 view .LVU1200
 3868 014c 0131     		adds	r1, r1, #1
  84:Service/../MAVLink/common/../mavlink_helpers.h **** 	msg->checksum = crc_calculate(((const uint8_t*)(msg)) + 3, MAVLINK_CORE_HEADER_LEN);
 3869              		.loc 2 84 51 view .LVU1201
 3870 014e 0EEB4E03 		add	r3, lr, lr, lsl #1
 3871 0152 02EB8303 		add	r3, r2, r3, lsl #2
 3872 0156 9971     		strb	r1, [r3, #6]
  85:Service/../MAVLink/common/../mavlink_helpers.h **** 	crc_accumulate_buffer(&msg->checksum, _MAV_PAYLOAD(msg), msg->len);
 3873              		.loc 2 85 2 is_stmt 1 view .LVU1202
  85:Service/../MAVLink/common/../mavlink_helpers.h **** 	crc_accumulate_buffer(&msg->checksum, _MAV_PAYLOAD(msg), msg->len);
 3874              		.loc 2 85 18 is_stmt 0 view .LVU1203
 3875 0158 0CF10301 		add	r1, ip, #3
 3876              	.LVL301:
 3877              	.LBB305:
 3878              	.LBI305:
  64:Service/../MAVLink/common/../checksum.h **** {
 3879              		.loc 14 64 24 is_stmt 1 view .LVU1204
ARM GAS  C:\Users\8bit\AppData\Local\Temp\ccCRhmZR.s 			page 173


 3880              	.LBB306:
  66:Service/../MAVLink/common/../checksum.h ****         crc_init(&crcTmp);
 3881              		.loc 14 66 9 view .LVU1205
  67:Service/../MAVLink/common/../checksum.h **** 	while (length--) {
 3882              		.loc 14 67 9 view .LVU1206
 3883              	.LBB307:
 3884              	.LBI307:
  51:Service/../MAVLink/common/../checksum.h **** {
 3885              		.loc 14 51 20 view .LVU1207
 3886              	.LBB308:
  53:Service/../MAVLink/common/../checksum.h **** }
 3887              		.loc 14 53 9 view .LVU1208
  53:Service/../MAVLink/common/../checksum.h **** }
 3888              		.loc 14 53 19 is_stmt 0 view .LVU1209
 3889 015c 4FF6FF73 		movw	r3, #65535
  54:Service/../MAVLink/common/../checksum.h **** 
 3890              		.loc 14 54 1 view .LVU1210
 3891 0160 0522     		movs	r2, #5
 3892 0162 10E0     		b	.L135
 3893              	.LVL302:
 3894              	.L136:
  54:Service/../MAVLink/common/../checksum.h **** 
 3895              		.loc 14 54 1 view .LVU1211
 3896              	.LBE308:
 3897              	.LBE307:
  69:Service/../MAVLink/common/../checksum.h ****         }
 3898              		.loc 14 69 17 is_stmt 1 view .LVU1212
  69:Service/../MAVLink/common/../checksum.h ****         }
 3899              		.loc 14 69 17 is_stmt 0 view .LVU1213
 3900 0164 11F8012B 		ldrb	r2, [r1], #1	@ zero_extendqisi2
 3901              	.LVL303:
 3902              	.LBB309:
 3903              	.LBI309:
  34:Service/../MAVLink/common/../checksum.h **** {
 3904              		.loc 14 34 20 is_stmt 1 view .LVU1214
 3905              	.LBB310:
  37:Service/../MAVLink/common/../checksum.h **** 
 3906              		.loc 14 37 9 view .LVU1215
  39:Service/../MAVLink/common/../checksum.h ****         tmp ^= (tmp<<4);
 3907              		.loc 14 39 9 view .LVU1216
  39:Service/../MAVLink/common/../checksum.h ****         tmp ^= (tmp<<4);
 3908              		.loc 14 39 22 is_stmt 0 view .LVU1217
 3909 0168 DCB2     		uxtb	r4, r3
  39:Service/../MAVLink/common/../checksum.h ****         tmp ^= (tmp<<4);
 3910              		.loc 14 39 13 view .LVU1218
 3911 016a 6240     		eors	r2, r2, r4
 3912              	.LVL304:
  40:Service/../MAVLink/common/../checksum.h ****         *crcAccum = (*crcAccum>>8) ^ (tmp<<8) ^ (tmp <<3) ^ (tmp>>4);
 3913              		.loc 14 40 9 is_stmt 1 view .LVU1219
  40:Service/../MAVLink/common/../checksum.h ****         *crcAccum = (*crcAccum>>8) ^ (tmp<<8) ^ (tmp <<3) ^ (tmp>>4);
 3914              		.loc 14 40 13 is_stmt 0 view .LVU1220
 3915 016c 82EA0212 		eor	r2, r2, r2, lsl #4
 3916              	.LVL305:
  40:Service/../MAVLink/common/../checksum.h ****         *crcAccum = (*crcAccum>>8) ^ (tmp<<8) ^ (tmp <<3) ^ (tmp>>4);
 3917              		.loc 14 40 13 view .LVU1221
 3918 0170 D2B2     		uxtb	r2, r2
 3919              	.LVL306:
ARM GAS  C:\Users\8bit\AppData\Local\Temp\ccCRhmZR.s 			page 174


  41:Service/../MAVLink/common/../checksum.h **** }
 3920              		.loc 14 41 9 is_stmt 1 view .LVU1222
  41:Service/../MAVLink/common/../checksum.h **** }
 3921              		.loc 14 41 36 is_stmt 0 view .LVU1223
 3922 0172 1B0A     		lsrs	r3, r3, #8
 3923              	.LVL307:
  41:Service/../MAVLink/common/../checksum.h **** }
 3924              		.loc 14 41 36 view .LVU1224
 3925 0174 43EA0223 		orr	r3, r3, r2, lsl #8
 3926 0178 1BB2     		sxth	r3, r3
  41:Service/../MAVLink/common/../checksum.h **** }
 3927              		.loc 14 41 47 view .LVU1225
 3928 017a 83EAC203 		eor	r3, r3, r2, lsl #3
  41:Service/../MAVLink/common/../checksum.h **** }
 3929              		.loc 14 41 59 view .LVU1226
 3930 017e 83EA1213 		eor	r3, r3, r2, lsr #4
 3931 0182 9BB2     		uxth	r3, r3
 3932              	.LVL308:
  41:Service/../MAVLink/common/../checksum.h **** }
 3933              		.loc 14 41 59 view .LVU1227
 3934              	.LBE310:
 3935              	.LBE309:
  68:Service/../MAVLink/common/../checksum.h ****                 crc_accumulate(*pBuffer++, &crcTmp);
 3936              		.loc 14 68 15 view .LVU1228
 3937 0184 0246     		mov	r2, r0
 3938              	.LVL309:
 3939              	.L135:
  68:Service/../MAVLink/common/../checksum.h ****                 crc_accumulate(*pBuffer++, &crcTmp);
 3940              		.loc 14 68 8 is_stmt 1 view .LVU1229
  68:Service/../MAVLink/common/../checksum.h ****                 crc_accumulate(*pBuffer++, &crcTmp);
 3941              		.loc 14 68 15 is_stmt 0 view .LVU1230
 3942 0186 501E     		subs	r0, r2, #1
 3943 0188 80B2     		uxth	r0, r0
 3944              	.LVL310:
  68:Service/../MAVLink/common/../checksum.h ****                 crc_accumulate(*pBuffer++, &crcTmp);
 3945              		.loc 14 68 8 view .LVU1231
 3946 018a 002A     		cmp	r2, #0
 3947 018c EAD1     		bne	.L136
  71:Service/../MAVLink/common/../checksum.h **** }
 3948              		.loc 14 71 9 is_stmt 1 view .LVU1232
 3949              	.LVL311:
  71:Service/../MAVLink/common/../checksum.h **** }
 3950              		.loc 14 71 9 is_stmt 0 view .LVU1233
 3951              	.LBE306:
 3952              	.LBE305:
  85:Service/../MAVLink/common/../mavlink_helpers.h **** 	crc_accumulate_buffer(&msg->checksum, _MAV_PAYLOAD(msg), msg->len);
 3953              		.loc 2 85 16 view .LVU1234
 3954 018e 6046     		mov	r0, ip
 3955 0190 20F8083B 		strh	r3, [r0], #8	@ unaligned
  86:Service/../MAVLink/common/../mavlink_helpers.h **** #if MAVLINK_CRC_EXTRA
 3956              		.loc 2 86 2 is_stmt 1 view .LVU1235
 3957 0194 9CF80330 		ldrb	r3, [ip, #3]	@ zero_extendqisi2
 3958              	.LVL312:
 3959              	.LBB311:
 3960              	.LBI311:
  84:Service/../MAVLink/common/../checksum.h **** {
 3961              		.loc 14 84 20 view .LVU1236
ARM GAS  C:\Users\8bit\AppData\Local\Temp\ccCRhmZR.s 			page 175


 3962              	.LBB312:
  86:Service/../MAVLink/common/../checksum.h **** 	while (length--) {
 3963              		.loc 14 86 17 is_stmt 0 view .LVU1237
 3964 0198 0146     		mov	r1, r0
 3965 019a 13E0     		b	.L137
 3966              	.LVL313:
 3967              	.L138:
 3968              		.loc 14 88 17 is_stmt 1 view .LVU1238
 3969              		.loc 14 88 17 is_stmt 0 view .LVU1239
 3970 019c 11F8012B 		ldrb	r2, [r1], #1	@ zero_extendqisi2
 3971              	.LVL314:
 3972              	.LBB313:
 3973              	.LBI313:
  34:Service/../MAVLink/common/../checksum.h **** {
 3974              		.loc 14 34 20 is_stmt 1 view .LVU1240
 3975              	.LBB314:
  37:Service/../MAVLink/common/../checksum.h **** 
 3976              		.loc 14 37 9 view .LVU1241
  39:Service/../MAVLink/common/../checksum.h ****         tmp ^= (tmp<<4);
 3977              		.loc 14 39 9 view .LVU1242
  39:Service/../MAVLink/common/../checksum.h ****         tmp ^= (tmp<<4);
 3978              		.loc 14 39 32 is_stmt 0 view .LVU1243
 3979 01a0 BCF80030 		ldrh	r3, [ip]
  39:Service/../MAVLink/common/../checksum.h ****         tmp ^= (tmp<<4);
 3980              		.loc 14 39 22 view .LVU1244
 3981 01a4 DDB2     		uxtb	r5, r3
  39:Service/../MAVLink/common/../checksum.h ****         tmp ^= (tmp<<4);
 3982              		.loc 14 39 13 view .LVU1245
 3983 01a6 6A40     		eors	r2, r2, r5
 3984              	.LVL315:
  40:Service/../MAVLink/common/../checksum.h ****         *crcAccum = (*crcAccum>>8) ^ (tmp<<8) ^ (tmp <<3) ^ (tmp>>4);
 3985              		.loc 14 40 9 is_stmt 1 view .LVU1246
  40:Service/../MAVLink/common/../checksum.h ****         *crcAccum = (*crcAccum>>8) ^ (tmp<<8) ^ (tmp <<3) ^ (tmp>>4);
 3986              		.loc 14 40 13 is_stmt 0 view .LVU1247
 3987 01a8 82EA0212 		eor	r2, r2, r2, lsl #4
 3988              	.LVL316:
  40:Service/../MAVLink/common/../checksum.h ****         *crcAccum = (*crcAccum>>8) ^ (tmp<<8) ^ (tmp <<3) ^ (tmp>>4);
 3989              		.loc 14 40 13 view .LVU1248
 3990 01ac D2B2     		uxtb	r2, r2
 3991              	.LVL317:
  41:Service/../MAVLink/common/../checksum.h **** }
 3992              		.loc 14 41 9 is_stmt 1 view .LVU1249
  41:Service/../MAVLink/common/../checksum.h **** }
 3993              		.loc 14 41 36 is_stmt 0 view .LVU1250
 3994 01ae 1B0A     		lsrs	r3, r3, #8
 3995 01b0 43EA0223 		orr	r3, r3, r2, lsl #8
 3996 01b4 1BB2     		sxth	r3, r3
  41:Service/../MAVLink/common/../checksum.h **** }
 3997              		.loc 14 41 47 view .LVU1251
 3998 01b6 83EAC203 		eor	r3, r3, r2, lsl #3
  41:Service/../MAVLink/common/../checksum.h **** }
 3999              		.loc 14 41 59 view .LVU1252
 4000 01ba 83EA1213 		eor	r3, r3, r2, lsr #4
  41:Service/../MAVLink/common/../checksum.h **** }
 4001              		.loc 14 41 19 view .LVU1253
 4002 01be ACF80030 		strh	r3, [ip]	@ movhi
 4003              	.LVL318:
ARM GAS  C:\Users\8bit\AppData\Local\Temp\ccCRhmZR.s 			page 176


  41:Service/../MAVLink/common/../checksum.h **** }
 4004              		.loc 14 41 19 view .LVU1254
 4005              	.LBE314:
 4006              	.LBE313:
  87:Service/../MAVLink/common/../checksum.h ****                 crc_accumulate(*p++, crcAccum);
 4007              		.loc 14 87 15 view .LVU1255
 4008 01c2 2346     		mov	r3, r4
 4009              	.LVL319:
 4010              	.L137:
  87:Service/../MAVLink/common/../checksum.h ****                 crc_accumulate(*p++, crcAccum);
 4011              		.loc 14 87 8 is_stmt 1 view .LVU1256
  87:Service/../MAVLink/common/../checksum.h ****                 crc_accumulate(*p++, crcAccum);
 4012              		.loc 14 87 15 is_stmt 0 view .LVU1257
 4013 01c4 5C1E     		subs	r4, r3, #1
 4014 01c6 A4B2     		uxth	r4, r4
 4015              	.LVL320:
  87:Service/../MAVLink/common/../checksum.h ****                 crc_accumulate(*p++, crcAccum);
 4016              		.loc 14 87 8 view .LVU1258
 4017 01c8 002B     		cmp	r3, #0
 4018 01ca E7D1     		bne	.L138
 4019              	.LVL321:
  87:Service/../MAVLink/common/../checksum.h ****                 crc_accumulate(*p++, crcAccum);
 4020              		.loc 14 87 8 view .LVU1259
 4021              	.LBE312:
 4022              	.LBE311:
  88:Service/../MAVLink/common/../mavlink_helpers.h **** #endif
 4023              		.loc 2 88 2 is_stmt 1 view .LVU1260
 4024              	.LBB315:
 4025              	.LBI315:
  34:Service/../MAVLink/common/../checksum.h **** {
 4026              		.loc 14 34 20 view .LVU1261
 4027              	.LBB316:
  37:Service/../MAVLink/common/../checksum.h **** 
 4028              		.loc 14 37 9 view .LVU1262
  39:Service/../MAVLink/common/../checksum.h ****         tmp ^= (tmp<<4);
 4029              		.loc 14 39 9 view .LVU1263
  39:Service/../MAVLink/common/../checksum.h ****         tmp ^= (tmp<<4);
 4030              		.loc 14 39 32 is_stmt 0 view .LVU1264
 4031 01cc BCF80030 		ldrh	r3, [ip]
  39:Service/../MAVLink/common/../checksum.h ****         tmp ^= (tmp<<4);
 4032              		.loc 14 39 22 view .LVU1265
 4033 01d0 DAB2     		uxtb	r2, r3
  39:Service/../MAVLink/common/../checksum.h ****         tmp ^= (tmp<<4);
 4034              		.loc 14 39 13 view .LVU1266
 4035 01d2 82F07602 		eor	r2, r2, #118
 4036              	.LVL322:
  40:Service/../MAVLink/common/../checksum.h ****         *crcAccum = (*crcAccum>>8) ^ (tmp<<8) ^ (tmp <<3) ^ (tmp>>4);
 4037              		.loc 14 40 9 is_stmt 1 view .LVU1267
  40:Service/../MAVLink/common/../checksum.h ****         *crcAccum = (*crcAccum>>8) ^ (tmp<<8) ^ (tmp <<3) ^ (tmp>>4);
 4038              		.loc 14 40 13 is_stmt 0 view .LVU1268
 4039 01d6 82EA0212 		eor	r2, r2, r2, lsl #4
 4040              	.LVL323:
  40:Service/../MAVLink/common/../checksum.h ****         *crcAccum = (*crcAccum>>8) ^ (tmp<<8) ^ (tmp <<3) ^ (tmp>>4);
 4041              		.loc 14 40 13 view .LVU1269
 4042 01da D2B2     		uxtb	r2, r2
 4043              	.LVL324:
  41:Service/../MAVLink/common/../checksum.h **** }
ARM GAS  C:\Users\8bit\AppData\Local\Temp\ccCRhmZR.s 			page 177


 4044              		.loc 14 41 9 is_stmt 1 view .LVU1270
  41:Service/../MAVLink/common/../checksum.h **** }
 4045              		.loc 14 41 36 is_stmt 0 view .LVU1271
 4046 01dc 1B0A     		lsrs	r3, r3, #8
 4047 01de 43EA0223 		orr	r3, r3, r2, lsl #8
 4048 01e2 1BB2     		sxth	r3, r3
  41:Service/../MAVLink/common/../checksum.h **** }
 4049              		.loc 14 41 47 view .LVU1272
 4050 01e4 83EAC203 		eor	r3, r3, r2, lsl #3
  41:Service/../MAVLink/common/../checksum.h **** }
 4051              		.loc 14 41 59 view .LVU1273
 4052 01e8 83EA1213 		eor	r3, r3, r2, lsr #4
  41:Service/../MAVLink/common/../checksum.h **** }
 4053              		.loc 14 41 19 view .LVU1274
 4054 01ec ACF80030 		strh	r3, [ip]	@ movhi
 4055              	.LVL325:
  41:Service/../MAVLink/common/../checksum.h **** }
 4056              		.loc 14 41 19 view .LVU1275
 4057              	.LBE316:
 4058              	.LBE315:
  90:Service/../MAVLink/common/../mavlink_helpers.h **** 	mavlink_ck_b(msg) = (uint8_t)(msg->checksum >> 8);
 4059              		.loc 2 90 2 is_stmt 1 view .LVU1276
  90:Service/../MAVLink/common/../mavlink_helpers.h **** 	mavlink_ck_b(msg) = (uint8_t)(msg->checksum >> 8);
 4060              		.loc 2 90 35 is_stmt 0 view .LVU1277
 4061 01f0 BCF80020 		ldrh	r2, [ip]	@ unaligned
  90:Service/../MAVLink/common/../mavlink_helpers.h **** 	mavlink_ck_b(msg) = (uint8_t)(msg->checksum >> 8);
 4062              		.loc 2 90 2 view .LVU1278
 4063 01f4 9CF80330 		ldrb	r3, [ip, #3]	@ zero_extendqisi2
  90:Service/../MAVLink/common/../mavlink_helpers.h **** 	mavlink_ck_b(msg) = (uint8_t)(msg->checksum >> 8);
 4064              		.loc 2 90 20 view .LVU1279
 4065 01f8 C254     		strb	r2, [r0, r3]
  91:Service/../MAVLink/common/../mavlink_helpers.h **** 
 4066              		.loc 2 91 2 is_stmt 1 view .LVU1280
  91:Service/../MAVLink/common/../mavlink_helpers.h **** 
 4067              		.loc 2 91 35 is_stmt 0 view .LVU1281
 4068 01fa BCF80020 		ldrh	r2, [ip]	@ unaligned
  91:Service/../MAVLink/common/../mavlink_helpers.h **** 
 4069              		.loc 2 91 2 view .LVU1282
 4070 01fe 9CF80330 		ldrb	r3, [ip, #3]	@ zero_extendqisi2
 4071 0202 0133     		adds	r3, r3, #1
  91:Service/../MAVLink/common/../mavlink_helpers.h **** 
 4072              		.loc 2 91 22 view .LVU1283
 4073 0204 120A     		lsrs	r2, r2, #8
  91:Service/../MAVLink/common/../mavlink_helpers.h **** 
 4074              		.loc 2 91 20 view .LVU1284
 4075 0206 C254     		strb	r2, [r0, r3]
  93:Service/../MAVLink/common/../mavlink_helpers.h **** }
 4076              		.loc 2 93 2 is_stmt 1 view .LVU1285
 4077              	.LVL326:
  93:Service/../MAVLink/common/../mavlink_helpers.h **** }
 4078              		.loc 2 93 2 is_stmt 0 view .LVU1286
 4079              	.LBE318:
 4080              	.LBE320:
 4081              	.LBE322:
 4082              	.LBE324:
 301:Service/Srv_ComProto.c **** 
 4083              		.loc 1 301 1 view .LVU1287
ARM GAS  C:\Users\8bit\AppData\Local\Temp\ccCRhmZR.s 			page 178


 4084 0208 3220     		movs	r0, #50
 4085 020a 31B0     		add	sp, sp, #196
 4086              	.LCFI91:
 4087              		.cfi_def_cfa_offset 36
 4088              		@ sp needed
 4089 020c BDE8F08F 		pop	{r4, r5, r6, r7, r8, r9, r10, fp, pc}
 4090              	.L141:
 4091              		.align	2
 4092              	.L140:
 4093 0210 00000000 		.word	SrvDataHub
 4094 0214 00000000 		.word	.LANCHOR1
 4095              		.cfi_endproc
 4096              	.LFE2083:
 4098              		.section	.text.SrvComProto_MavMsg_Raw_IMU,"ax",%progbits
 4099              		.align	1
 4100              		.syntax unified
 4101              		.thumb
 4102              		.thumb_func
 4104              	SrvComProto_MavMsg_Raw_IMU:
 4105              	.LVL327:
 4106              	.LFB2079:
 182:Service/Srv_ComProto.c ****     uint32_t time_stamp = 0;
 4107              		.loc 1 182 1 is_stmt 1 view -0
 4108              		.cfi_startproc
 4109              		@ args = 0, pretend = 0, frame = 72
 4110              		@ frame_needed = 0, uses_anonymous_args = 0
 182:Service/Srv_ComProto.c ****     uint32_t time_stamp = 0;
 4111              		.loc 1 182 1 is_stmt 0 view .LVU1289
 4112 0000 F0B5     		push	{r4, r5, r6, r7, lr}
 4113              	.LCFI92:
 4114              		.cfi_def_cfa_offset 20
 4115              		.cfi_offset 4, -20
 4116              		.cfi_offset 5, -16
 4117              		.cfi_offset 6, -12
 4118              		.cfi_offset 7, -8
 4119              		.cfi_offset 14, -4
 4120 0002 9BB0     		sub	sp, sp, #108
 4121              	.LCFI93:
 4122              		.cfi_def_cfa_offset 128
 4123 0004 0446     		mov	r4, r0
 183:Service/Srv_ComProto.c ****     float acc_scale = 0.0f;
 4124              		.loc 1 183 5 is_stmt 1 view .LVU1290
 183:Service/Srv_ComProto.c ****     float acc_scale = 0.0f;
 4125              		.loc 1 183 14 is_stmt 0 view .LVU1291
 4126 0006 0025     		movs	r5, #0
 4127 0008 1995     		str	r5, [sp, #100]
 184:Service/Srv_ComProto.c ****     float gyr_scale = 0.0f;
 4128              		.loc 1 184 5 is_stmt 1 view .LVU1292
 184:Service/Srv_ComProto.c ****     float gyr_scale = 0.0f;
 4129              		.loc 1 184 11 is_stmt 0 view .LVU1293
 4130 000a 0023     		movs	r3, #0
 4131 000c 1893     		str	r3, [sp, #96]	@ float
 185:Service/Srv_ComProto.c ****     float acc_x = 0.0f;
 4132              		.loc 1 185 5 is_stmt 1 view .LVU1294
 185:Service/Srv_ComProto.c ****     float acc_x = 0.0f;
 4133              		.loc 1 185 11 is_stmt 0 view .LVU1295
 4134 000e 1793     		str	r3, [sp, #92]	@ float
ARM GAS  C:\Users\8bit\AppData\Local\Temp\ccCRhmZR.s 			page 179


 186:Service/Srv_ComProto.c ****     float acc_y = 0.0f;
 4135              		.loc 1 186 5 is_stmt 1 view .LVU1296
 186:Service/Srv_ComProto.c ****     float acc_y = 0.0f;
 4136              		.loc 1 186 11 is_stmt 0 view .LVU1297
 4137 0010 1693     		str	r3, [sp, #88]	@ float
 187:Service/Srv_ComProto.c ****     float acc_z = 0.0f;
 4138              		.loc 1 187 5 is_stmt 1 view .LVU1298
 187:Service/Srv_ComProto.c ****     float acc_z = 0.0f;
 4139              		.loc 1 187 11 is_stmt 0 view .LVU1299
 4140 0012 1593     		str	r3, [sp, #84]	@ float
 188:Service/Srv_ComProto.c ****     float gyr_x = 0.0f;
 4141              		.loc 1 188 5 is_stmt 1 view .LVU1300
 188:Service/Srv_ComProto.c ****     float gyr_x = 0.0f;
 4142              		.loc 1 188 11 is_stmt 0 view .LVU1301
 4143 0014 1493     		str	r3, [sp, #80]	@ float
 189:Service/Srv_ComProto.c ****     float gyr_y = 0.0f;
 4144              		.loc 1 189 5 is_stmt 1 view .LVU1302
 189:Service/Srv_ComProto.c ****     float gyr_y = 0.0f;
 4145              		.loc 1 189 11 is_stmt 0 view .LVU1303
 4146 0016 1393     		str	r3, [sp, #76]	@ float
 190:Service/Srv_ComProto.c ****     float gyr_z = 0.0f;
 4147              		.loc 1 190 5 is_stmt 1 view .LVU1304
 190:Service/Srv_ComProto.c ****     float gyr_z = 0.0f;
 4148              		.loc 1 190 11 is_stmt 0 view .LVU1305
 4149 0018 1293     		str	r3, [sp, #72]	@ float
 191:Service/Srv_ComProto.c ****     float tmpr = 0.0f;
 4150              		.loc 1 191 5 is_stmt 1 view .LVU1306
 191:Service/Srv_ComProto.c ****     float tmpr = 0.0f;
 4151              		.loc 1 191 11 is_stmt 0 view .LVU1307
 4152 001a 1193     		str	r3, [sp, #68]	@ float
 192:Service/Srv_ComProto.c ****     uint8_t imu_err_code = 0;
 4153              		.loc 1 192 5 is_stmt 1 view .LVU1308
 192:Service/Srv_ComProto.c ****     uint8_t imu_err_code = 0;
 4154              		.loc 1 192 11 is_stmt 0 view .LVU1309
 4155 001c 1093     		str	r3, [sp, #64]	@ float
 193:Service/Srv_ComProto.c **** 
 4156              		.loc 1 193 5 is_stmt 1 view .LVU1310
 193:Service/Srv_ComProto.c **** 
 4157              		.loc 1 193 13 is_stmt 0 view .LVU1311
 4158 001e 8DF83F50 		strb	r5, [sp, #63]
 195:Service/Srv_ComProto.c **** 
 4159              		.loc 1 195 5 is_stmt 1 view .LVU1312
 195:Service/Srv_ComProto.c **** 
 4160              		.loc 1 195 15 is_stmt 0 view .LVU1313
 4161 0022 6F4B     		ldr	r3, .L148
 4162 0024 5E6B     		ldr	r6, [r3, #52]
 195:Service/Srv_ComProto.c **** 
 4163              		.loc 1 195 5 view .LVU1314
 4164 0026 0DF13F03 		add	r3, sp, #63
 4165 002a 0693     		str	r3, [sp, #24]
 4166 002c 10AB     		add	r3, sp, #64
 4167 002e 0593     		str	r3, [sp, #20]
 4168 0030 11AB     		add	r3, sp, #68
 4169 0032 0493     		str	r3, [sp, #16]
 4170 0034 12AB     		add	r3, sp, #72
 4171 0036 0393     		str	r3, [sp, #12]
 4172 0038 13AB     		add	r3, sp, #76
ARM GAS  C:\Users\8bit\AppData\Local\Temp\ccCRhmZR.s 			page 180


 4173 003a 0293     		str	r3, [sp, #8]
 4174 003c 14AB     		add	r3, sp, #80
 4175 003e 0193     		str	r3, [sp, #4]
 4176 0040 15AB     		add	r3, sp, #84
 4177 0042 0093     		str	r3, [sp]
 4178 0044 16AB     		add	r3, sp, #88
 4179 0046 17AA     		add	r2, sp, #92
 4180 0048 18A9     		add	r1, sp, #96
 4181 004a 19A8     		add	r0, sp, #100
 4182              	.LVL328:
 195:Service/Srv_ComProto.c **** 
 4183              		.loc 1 195 5 view .LVU1315
 4184 004c B047     		blx	r6
 4185              	.LVL329:
 197:Service/Srv_ComProto.c ****     int16_t i_acc_y = (int16_t)(acc_y * acc_scale);
 4186              		.loc 1 197 5 is_stmt 1 view .LVU1316
 197:Service/Srv_ComProto.c ****     int16_t i_acc_y = (int16_t)(acc_y * acc_scale);
 4187              		.loc 1 197 39 is_stmt 0 view .LVU1317
 4188 004e DDED187A 		vldr.32	s15, [sp, #96]
 4189 0052 9DED167A 		vldr.32	s14, [sp, #88]
 4190 0056 27EE877A 		vmul.f32	s14, s15, s14
 197:Service/Srv_ComProto.c ****     int16_t i_acc_y = (int16_t)(acc_y * acc_scale);
 4191              		.loc 1 197 13 view .LVU1318
 4192 005a BDEEC77A 		vcvt.s32.f32	s14, s14
 4193 005e 17EE10CA 		vmov	ip, s14	@ int
 4194              	.LVL330:
 198:Service/Srv_ComProto.c ****     int16_t i_acc_z = (int16_t)(acc_z * acc_scale);
 4195              		.loc 1 198 5 is_stmt 1 view .LVU1319
 198:Service/Srv_ComProto.c ****     int16_t i_acc_z = (int16_t)(acc_z * acc_scale);
 4196              		.loc 1 198 39 is_stmt 0 view .LVU1320
 4197 0062 9DED157A 		vldr.32	s14, [sp, #84]
 4198 0066 27EE877A 		vmul.f32	s14, s15, s14
 198:Service/Srv_ComProto.c ****     int16_t i_acc_z = (int16_t)(acc_z * acc_scale);
 4199              		.loc 1 198 13 view .LVU1321
 4200 006a BDEEC77A 		vcvt.s32.f32	s14, s14
 4201 006e 17EE100A 		vmov	r0, s14	@ int
 4202              	.LVL331:
 199:Service/Srv_ComProto.c **** 
 4203              		.loc 1 199 5 is_stmt 1 view .LVU1322
 199:Service/Srv_ComProto.c **** 
 4204              		.loc 1 199 39 is_stmt 0 view .LVU1323
 4205 0072 9DED147A 		vldr.32	s14, [sp, #80]
 4206 0076 67EE877A 		vmul.f32	s15, s15, s14
 199:Service/Srv_ComProto.c **** 
 4207              		.loc 1 199 13 view .LVU1324
 4208 007a FDEEE77A 		vcvt.s32.f32	s15, s15
 4209 007e 17EE903A 		vmov	r3, s15	@ int
 4210              	.LVL332:
 201:Service/Srv_ComProto.c ****     int16_t i_gyr_y = (int16_t)(gyr_y * gyr_scale);
 4211              		.loc 1 201 5 is_stmt 1 view .LVU1325
 201:Service/Srv_ComProto.c ****     int16_t i_gyr_y = (int16_t)(gyr_y * gyr_scale);
 4212              		.loc 1 201 39 is_stmt 0 view .LVU1326
 4213 0082 DDED177A 		vldr.32	s15, [sp, #92]
 4214 0086 9DED137A 		vldr.32	s14, [sp, #76]
 4215 008a 27EE877A 		vmul.f32	s14, s15, s14
 201:Service/Srv_ComProto.c ****     int16_t i_gyr_y = (int16_t)(gyr_y * gyr_scale);
 4216              		.loc 1 201 13 view .LVU1327
ARM GAS  C:\Users\8bit\AppData\Local\Temp\ccCRhmZR.s 			page 181


 4217 008e BDEEC77A 		vcvt.s32.f32	s14, s14
 4218 0092 17EE101A 		vmov	r1, s14	@ int
 4219              	.LVL333:
 202:Service/Srv_ComProto.c ****     int16_t i_gyr_z = (int16_t)(gyr_z * gyr_scale);
 4220              		.loc 1 202 5 is_stmt 1 view .LVU1328
 202:Service/Srv_ComProto.c ****     int16_t i_gyr_z = (int16_t)(gyr_z * gyr_scale);
 4221              		.loc 1 202 39 is_stmt 0 view .LVU1329
 4222 0096 9DED127A 		vldr.32	s14, [sp, #72]
 4223 009a 27EE877A 		vmul.f32	s14, s15, s14
 202:Service/Srv_ComProto.c ****     int16_t i_gyr_z = (int16_t)(gyr_z * gyr_scale);
 4224              		.loc 1 202 13 view .LVU1330
 4225 009e BDEEC77A 		vcvt.s32.f32	s14, s14
 4226              	.LVL334:
 203:Service/Srv_ComProto.c **** 
 4227              		.loc 1 203 5 is_stmt 1 view .LVU1331
 203:Service/Srv_ComProto.c **** 
 4228              		.loc 1 203 39 is_stmt 0 view .LVU1332
 4229 00a2 DDED116A 		vldr.32	s13, [sp, #68]
 4230 00a6 67EEA67A 		vmul.f32	s15, s15, s13
 203:Service/Srv_ComProto.c **** 
 4231              		.loc 1 203 13 view .LVU1333
 4232 00aa FDEEE77A 		vcvt.s32.f32	s15, s15
 4233              	.LVL335:
 206:Service/Srv_ComProto.c ****                                             pck->pck_info.component_id,
 4234              		.loc 1 206 5 is_stmt 1 view .LVU1334
 206:Service/Srv_ComProto.c ****                                             pck->pck_info.component_id,
 4235              		.loc 1 206 12 is_stmt 0 view .LVU1335
 4236 00ae 277A     		ldrb	r7, [r4, #8]	@ zero_extendqisi2
 4237 00b0 667A     		ldrb	r6, [r4, #9]	@ zero_extendqisi2
 4238 00b2 94F80AE0 		ldrb	lr, [r4, #10]	@ zero_extendqisi2
 4239 00b6 E468     		ldr	r4, [r4, #12]
 4240              	.LVL336:
 206:Service/Srv_ComProto.c ****                                             pck->pck_info.component_id,
 4241              		.loc 1 206 12 view .LVU1336
 4242 00b8 199A     		ldr	r2, [sp, #100]
 4243              	.LVL337:
 4244              	.LBB345:
 4245              	.LBI345:
 138:Service/../MAVLink/common/./mavlink_msg_scaled_imu.h ****                                mavlink_message_t* msg,
 4246              		.loc 13 138 24 is_stmt 1 view .LVU1337
 4247              	.LBB346:
 157:Service/../MAVLink/common/./mavlink_msg_scaled_imu.h ****     packet.time_boot_ms = time_boot_ms;
 4248              		.loc 13 157 5 view .LVU1338
 158:Service/../MAVLink/common/./mavlink_msg_scaled_imu.h ****     packet.xacc = xacc;
 4249              		.loc 13 158 5 view .LVU1339
 158:Service/../MAVLink/common/./mavlink_msg_scaled_imu.h ****     packet.xacc = xacc;
 4250              		.loc 13 158 25 is_stmt 0 view .LVU1340
 4251 00ba 0992     		str	r2, [sp, #36]
 159:Service/../MAVLink/common/./mavlink_msg_scaled_imu.h ****     packet.yacc = yacc;
 4252              		.loc 13 159 5 is_stmt 1 view .LVU1341
 159:Service/../MAVLink/common/./mavlink_msg_scaled_imu.h ****     packet.yacc = yacc;
 4253              		.loc 13 159 17 is_stmt 0 view .LVU1342
 4254 00bc ADF828C0 		strh	ip, [sp, #40]	@ movhi
 160:Service/../MAVLink/common/./mavlink_msg_scaled_imu.h ****     packet.zacc = zacc;
 4255              		.loc 13 160 5 is_stmt 1 view .LVU1343
 160:Service/../MAVLink/common/./mavlink_msg_scaled_imu.h ****     packet.zacc = zacc;
 4256              		.loc 13 160 17 is_stmt 0 view .LVU1344
ARM GAS  C:\Users\8bit\AppData\Local\Temp\ccCRhmZR.s 			page 182


 4257 00c0 ADF82A00 		strh	r0, [sp, #42]	@ movhi
 161:Service/../MAVLink/common/./mavlink_msg_scaled_imu.h ****     packet.xgyro = xgyro;
 4258              		.loc 13 161 5 is_stmt 1 view .LVU1345
 161:Service/../MAVLink/common/./mavlink_msg_scaled_imu.h ****     packet.xgyro = xgyro;
 4259              		.loc 13 161 17 is_stmt 0 view .LVU1346
 4260 00c4 ADF82C30 		strh	r3, [sp, #44]	@ movhi
 162:Service/../MAVLink/common/./mavlink_msg_scaled_imu.h ****     packet.ygyro = ygyro;
 4261              		.loc 13 162 5 is_stmt 1 view .LVU1347
 162:Service/../MAVLink/common/./mavlink_msg_scaled_imu.h ****     packet.ygyro = ygyro;
 4262              		.loc 13 162 18 is_stmt 0 view .LVU1348
 4263 00c8 ADF82E10 		strh	r1, [sp, #46]	@ movhi
 163:Service/../MAVLink/common/./mavlink_msg_scaled_imu.h ****     packet.zgyro = zgyro;
 4264              		.loc 13 163 5 is_stmt 1 view .LVU1349
 163:Service/../MAVLink/common/./mavlink_msg_scaled_imu.h ****     packet.zgyro = zgyro;
 4265              		.loc 13 163 18 is_stmt 0 view .LVU1350
 4266 00cc 17EE103A 		vmov	r3, s14	@ int
 4267              	.LVL338:
 163:Service/../MAVLink/common/./mavlink_msg_scaled_imu.h ****     packet.zgyro = zgyro;
 4268              		.loc 13 163 18 view .LVU1351
 4269 00d0 ADF83030 		strh	r3, [sp, #48]	@ movhi
 164:Service/../MAVLink/common/./mavlink_msg_scaled_imu.h ****     packet.xmag = xmag;
 4270              		.loc 13 164 5 is_stmt 1 view .LVU1352
 164:Service/../MAVLink/common/./mavlink_msg_scaled_imu.h ****     packet.xmag = xmag;
 4271              		.loc 13 164 18 is_stmt 0 view .LVU1353
 4272 00d4 17EE903A 		vmov	r3, s15	@ int
 4273 00d8 ADF83230 		strh	r3, [sp, #50]	@ movhi
 165:Service/../MAVLink/common/./mavlink_msg_scaled_imu.h ****     packet.ymag = ymag;
 4274              		.loc 13 165 5 is_stmt 1 view .LVU1354
 165:Service/../MAVLink/common/./mavlink_msg_scaled_imu.h ****     packet.ymag = ymag;
 4275              		.loc 13 165 17 is_stmt 0 view .LVU1355
 4276 00dc ADF83450 		strh	r5, [sp, #52]	@ movhi
 166:Service/../MAVLink/common/./mavlink_msg_scaled_imu.h ****     packet.zmag = zmag;
 4277              		.loc 13 166 5 is_stmt 1 view .LVU1356
 166:Service/../MAVLink/common/./mavlink_msg_scaled_imu.h ****     packet.zmag = zmag;
 4278              		.loc 13 166 17 is_stmt 0 view .LVU1357
 4279 00e0 ADF83650 		strh	r5, [sp, #54]	@ movhi
 167:Service/../MAVLink/common/./mavlink_msg_scaled_imu.h **** 
 4280              		.loc 13 167 5 is_stmt 1 view .LVU1358
 167:Service/../MAVLink/common/./mavlink_msg_scaled_imu.h **** 
 4281              		.loc 13 167 17 is_stmt 0 view .LVU1359
 4282 00e4 ADF83850 		strh	r5, [sp, #56]	@ movhi
 169:Service/../MAVLink/common/./mavlink_msg_scaled_imu.h **** #endif
 4283              		.loc 13 169 9 is_stmt 1 view .LVU1360
 4284 00e8 0DF1240C 		add	ip, sp, #36
 4285              	.LVL339:
 169:Service/../MAVLink/common/./mavlink_msg_scaled_imu.h **** #endif
 4286              		.loc 13 169 9 is_stmt 0 view .LVU1361
 4287 00ec BCE80F00 		ldmia	ip!, {r0, r1, r2, r3}
 4288              	.LVL340:
 169:Service/../MAVLink/common/./mavlink_msg_scaled_imu.h **** #endif
 4289              		.loc 13 169 9 view .LVU1362
 4290 00f0 A060     		str	r0, [r4, #8]	@ unaligned
 4291              	.LVL341:
 169:Service/../MAVLink/common/./mavlink_msg_scaled_imu.h **** #endif
 4292              		.loc 13 169 9 view .LVU1363
 4293 00f2 E160     		str	r1, [r4, #12]	@ unaligned
 4294 00f4 2261     		str	r2, [r4, #16]	@ unaligned
ARM GAS  C:\Users\8bit\AppData\Local\Temp\ccCRhmZR.s 			page 183


 4295 00f6 6361     		str	r3, [r4, #20]	@ unaligned
 4296 00f8 DCF80000 		ldr	r0, [ip]
 4297              	.LVL342:
 169:Service/../MAVLink/common/./mavlink_msg_scaled_imu.h **** #endif
 4298              		.loc 13 169 9 view .LVU1364
 4299 00fc A061     		str	r0, [r4, #24]	@ unaligned
 4300 00fe BCF80430 		ldrh	r3, [ip, #4]	@ unaligned
 4301 0102 A383     		strh	r3, [r4, #28]	@ unaligned
 172:Service/../MAVLink/common/./mavlink_msg_scaled_imu.h ****     return mavlink_finalize_message_chan(msg, system_id, component_id, chan, MAVLINK_MSG_ID_SCALED_
 4302              		.loc 13 172 5 is_stmt 1 view .LVU1365
 172:Service/../MAVLink/common/./mavlink_msg_scaled_imu.h ****     return mavlink_finalize_message_chan(msg, system_id, component_id, chan, MAVLINK_MSG_ID_SCALED_
 4303              		.loc 13 172 16 is_stmt 0 view .LVU1366
 4304 0104 1A23     		movs	r3, #26
 4305 0106 E371     		strb	r3, [r4, #7]
 4306              		.loc 13 173 5 is_stmt 1 view .LVU1367
 4307              	.LVL343:
 4308              	.LBB347:
 4309              	.LBI347:
  68:Service/../MAVLink/common/../mavlink_helpers.h **** 						      uint8_t chan, uint8_t min_length, uint8_t length, uint8_t crc_extra)
 4310              		.loc 2 68 25 view .LVU1368
 4311              	.LBB348:
  76:Service/../MAVLink/common/../mavlink_helpers.h **** 	// This code part is the same for all messages;
 4312              		.loc 2 76 2 view .LVU1369
  78:Service/../MAVLink/common/../mavlink_helpers.h **** 	msg->len = length;
 4313              		.loc 2 78 2 view .LVU1370
  78:Service/../MAVLink/common/../mavlink_helpers.h **** 	msg->len = length;
 4314              		.loc 2 78 13 is_stmt 0 view .LVU1371
 4315 0108 FE23     		movs	r3, #254
 4316 010a A370     		strb	r3, [r4, #2]
  79:Service/../MAVLink/common/../mavlink_helpers.h **** 	msg->sysid = system_id;
 4317              		.loc 2 79 2 is_stmt 1 view .LVU1372
  79:Service/../MAVLink/common/../mavlink_helpers.h **** 	msg->sysid = system_id;
 4318              		.loc 2 79 11 is_stmt 0 view .LVU1373
 4319 010c 1623     		movs	r3, #22
 4320 010e E370     		strb	r3, [r4, #3]
  80:Service/../MAVLink/common/../mavlink_helpers.h **** 	msg->compid = component_id;
 4321              		.loc 2 80 2 is_stmt 1 view .LVU1374
  80:Service/../MAVLink/common/../mavlink_helpers.h **** 	msg->compid = component_id;
 4322              		.loc 2 80 13 is_stmt 0 view .LVU1375
 4323 0110 6771     		strb	r7, [r4, #5]
  81:Service/../MAVLink/common/../mavlink_helpers.h **** 	// One sequence number per channel
 4324              		.loc 2 81 2 is_stmt 1 view .LVU1376
  81:Service/../MAVLink/common/../mavlink_helpers.h **** 	// One sequence number per channel
 4325              		.loc 2 81 14 is_stmt 0 view .LVU1377
 4326 0112 A671     		strb	r6, [r4, #6]
  83:Service/../MAVLink/common/../mavlink_helpers.h **** 	mavlink_get_channel_status(chan)->current_tx_seq = mavlink_get_channel_status(chan)->current_tx_se
 4327              		.loc 2 83 2 is_stmt 1 view .LVU1378
 4328              	.LVL344:
 4329              	.LBB349:
 4330              	.LBI349:
  17:Service/../MAVLink/common/../mavlink_helpers.h **** {
 4331              		.loc 2 17 34 view .LVU1379
 4332              	.LBB350:
  23:Service/../MAVLink/common/../mavlink_helpers.h **** #endif
 4333              		.loc 2 23 2 view .LVU1380
  25:Service/../MAVLink/common/../mavlink_helpers.h **** }
 4334              		.loc 2 25 2 view .LVU1381
ARM GAS  C:\Users\8bit\AppData\Local\Temp\ccCRhmZR.s 			page 184


  25:Service/../MAVLink/common/../mavlink_helpers.h **** }
 4335              		.loc 2 25 2 is_stmt 0 view .LVU1382
 4336              	.LBE350:
 4337              	.LBE349:
  83:Service/../MAVLink/common/../mavlink_helpers.h **** 	mavlink_get_channel_status(chan)->current_tx_seq = mavlink_get_channel_status(chan)->current_tx_se
 4338              		.loc 2 83 45 view .LVU1383
 4339 0114 334B     		ldr	r3, .L148+4
 4340 0116 0EEB4E02 		add	r2, lr, lr, lsl #1
 4341 011a 03EB8202 		add	r2, r3, r2, lsl #2
 4342 011e 9179     		ldrb	r1, [r2, #6]	@ zero_extendqisi2
  83:Service/../MAVLink/common/../mavlink_helpers.h **** 	mavlink_get_channel_status(chan)->current_tx_seq = mavlink_get_channel_status(chan)->current_tx_se
 4343              		.loc 2 83 11 view .LVU1384
 4344 0120 2171     		strb	r1, [r4, #4]
  84:Service/../MAVLink/common/../mavlink_helpers.h **** 	msg->checksum = crc_calculate(((const uint8_t*)(msg)) + 3, MAVLINK_CORE_HEADER_LEN);
 4345              		.loc 2 84 2 is_stmt 1 view .LVU1385
 4346              	.LVL345:
 4347              	.LBB351:
 4348              	.LBI351:
  17:Service/../MAVLink/common/../mavlink_helpers.h **** {
 4349              		.loc 2 17 34 view .LVU1386
 4350              	.LBE351:
 4351              	.LBE348:
 4352              	.LBE347:
 4353              	.LBE346:
 4354              	.LBE345:
  23:Service/../MAVLink/common/../mavlink_helpers.h **** #endif
 4355              		.loc 2 23 2 view .LVU1387
  25:Service/../MAVLink/common/../mavlink_helpers.h **** }
 4356              		.loc 2 25 2 view .LVU1388
 4357              	.LBB371:
 4358              	.LBB369:
 4359              	.LBB367:
 4360              	.LBB365:
  84:Service/../MAVLink/common/../mavlink_helpers.h **** 	msg->checksum = crc_calculate(((const uint8_t*)(msg)) + 3, MAVLINK_CORE_HEADER_LEN);
 4361              		.loc 2 84 85 is_stmt 0 view .LVU1389
 4362 0122 9279     		ldrb	r2, [r2, #6]	@ zero_extendqisi2
 4363              	.LVL346:
 4364              	.LBB352:
 4365              	.LBI352:
  17:Service/../MAVLink/common/../mavlink_helpers.h **** {
 4366              		.loc 2 17 34 is_stmt 1 view .LVU1390
 4367              	.LBE352:
 4368              	.LBE365:
 4369              	.LBE367:
 4370              	.LBE369:
 4371              	.LBE371:
  23:Service/../MAVLink/common/../mavlink_helpers.h **** #endif
 4372              		.loc 2 23 2 view .LVU1391
  25:Service/../MAVLink/common/../mavlink_helpers.h **** }
 4373              		.loc 2 25 2 view .LVU1392
 4374              	.LBB372:
 4375              	.LBB370:
 4376              	.LBB368:
 4377              	.LBB366:
  84:Service/../MAVLink/common/../mavlink_helpers.h **** 	msg->checksum = crc_calculate(((const uint8_t*)(msg)) + 3, MAVLINK_CORE_HEADER_LEN);
 4378              		.loc 2 84 101 is_stmt 0 view .LVU1393
 4379 0124 0132     		adds	r2, r2, #1
ARM GAS  C:\Users\8bit\AppData\Local\Temp\ccCRhmZR.s 			page 185


  84:Service/../MAVLink/common/../mavlink_helpers.h **** 	msg->checksum = crc_calculate(((const uint8_t*)(msg)) + 3, MAVLINK_CORE_HEADER_LEN);
 4380              		.loc 2 84 51 view .LVU1394
 4381 0126 0EEB4E0E 		add	lr, lr, lr, lsl #1
 4382              	.LVL347:
  84:Service/../MAVLink/common/../mavlink_helpers.h **** 	msg->checksum = crc_calculate(((const uint8_t*)(msg)) + 3, MAVLINK_CORE_HEADER_LEN);
 4383              		.loc 2 84 51 view .LVU1395
 4384 012a 03EB8E0E 		add	lr, r3, lr, lsl #2
 4385 012e 8EF80620 		strb	r2, [lr, #6]
  85:Service/../MAVLink/common/../mavlink_helpers.h **** 	crc_accumulate_buffer(&msg->checksum, _MAV_PAYLOAD(msg), msg->len);
 4386              		.loc 2 85 2 is_stmt 1 view .LVU1396
  85:Service/../MAVLink/common/../mavlink_helpers.h **** 	crc_accumulate_buffer(&msg->checksum, _MAV_PAYLOAD(msg), msg->len);
 4387              		.loc 2 85 18 is_stmt 0 view .LVU1397
 4388 0132 E11C     		adds	r1, r4, #3
 4389              	.LVL348:
 4390              	.LBB353:
 4391              	.LBI353:
  64:Service/../MAVLink/common/../checksum.h **** {
 4392              		.loc 14 64 24 is_stmt 1 view .LVU1398
 4393              	.LBB354:
  66:Service/../MAVLink/common/../checksum.h ****         crc_init(&crcTmp);
 4394              		.loc 14 66 9 view .LVU1399
  67:Service/../MAVLink/common/../checksum.h **** 	while (length--) {
 4395              		.loc 14 67 9 view .LVU1400
 4396              	.LBB355:
 4397              	.LBI355:
  51:Service/../MAVLink/common/../checksum.h **** {
 4398              		.loc 14 51 20 view .LVU1401
 4399              	.LBB356:
  53:Service/../MAVLink/common/../checksum.h **** }
 4400              		.loc 14 53 9 view .LVU1402
  53:Service/../MAVLink/common/../checksum.h **** }
 4401              		.loc 14 53 19 is_stmt 0 view .LVU1403
 4402 0134 4FF6FF73 		movw	r3, #65535
  54:Service/../MAVLink/common/../checksum.h **** 
 4403              		.loc 14 54 1 view .LVU1404
 4404 0138 0522     		movs	r2, #5
 4405 013a 12E0     		b	.L143
 4406              	.LVL349:
 4407              	.L144:
  54:Service/../MAVLink/common/../checksum.h **** 
 4408              		.loc 14 54 1 view .LVU1405
 4409              	.LBE356:
 4410              	.LBE355:
  69:Service/../MAVLink/common/../checksum.h ****         }
 4411              		.loc 14 69 17 is_stmt 1 view .LVU1406
  69:Service/../MAVLink/common/../checksum.h ****         }
 4412              		.loc 14 69 17 is_stmt 0 view .LVU1407
 4413 013c 11F8012B 		ldrb	r2, [r1], #1	@ zero_extendqisi2
 4414              	.LVL350:
 4415              	.LBB357:
 4416              	.LBI357:
  34:Service/../MAVLink/common/../checksum.h **** {
 4417              		.loc 14 34 20 is_stmt 1 view .LVU1408
 4418              	.LBB358:
  37:Service/../MAVLink/common/../checksum.h **** 
 4419              		.loc 14 37 9 view .LVU1409
  39:Service/../MAVLink/common/../checksum.h ****         tmp ^= (tmp<<4);
ARM GAS  C:\Users\8bit\AppData\Local\Temp\ccCRhmZR.s 			page 186


 4420              		.loc 14 39 9 view .LVU1410
  39:Service/../MAVLink/common/../checksum.h ****         tmp ^= (tmp<<4);
 4421              		.loc 14 39 22 is_stmt 0 view .LVU1411
 4422 0140 5FFA83FC 		uxtb	ip, r3
  39:Service/../MAVLink/common/../checksum.h ****         tmp ^= (tmp<<4);
 4423              		.loc 14 39 13 view .LVU1412
 4424 0144 82EA0C02 		eor	r2, r2, ip
 4425              	.LVL351:
  40:Service/../MAVLink/common/../checksum.h ****         *crcAccum = (*crcAccum>>8) ^ (tmp<<8) ^ (tmp <<3) ^ (tmp>>4);
 4426              		.loc 14 40 9 is_stmt 1 view .LVU1413
  40:Service/../MAVLink/common/../checksum.h ****         *crcAccum = (*crcAccum>>8) ^ (tmp<<8) ^ (tmp <<3) ^ (tmp>>4);
 4427              		.loc 14 40 13 is_stmt 0 view .LVU1414
 4428 0148 82EA0212 		eor	r2, r2, r2, lsl #4
 4429              	.LVL352:
  40:Service/../MAVLink/common/../checksum.h ****         *crcAccum = (*crcAccum>>8) ^ (tmp<<8) ^ (tmp <<3) ^ (tmp>>4);
 4430              		.loc 14 40 13 view .LVU1415
 4431 014c D2B2     		uxtb	r2, r2
 4432              	.LVL353:
  41:Service/../MAVLink/common/../checksum.h **** }
 4433              		.loc 14 41 9 is_stmt 1 view .LVU1416
  41:Service/../MAVLink/common/../checksum.h **** }
 4434              		.loc 14 41 36 is_stmt 0 view .LVU1417
 4435 014e 1B0A     		lsrs	r3, r3, #8
 4436              	.LVL354:
  41:Service/../MAVLink/common/../checksum.h **** }
 4437              		.loc 14 41 36 view .LVU1418
 4438 0150 43EA0223 		orr	r3, r3, r2, lsl #8
 4439 0154 1BB2     		sxth	r3, r3
  41:Service/../MAVLink/common/../checksum.h **** }
 4440              		.loc 14 41 47 view .LVU1419
 4441 0156 83EAC203 		eor	r3, r3, r2, lsl #3
  41:Service/../MAVLink/common/../checksum.h **** }
 4442              		.loc 14 41 59 view .LVU1420
 4443 015a 83EA1213 		eor	r3, r3, r2, lsr #4
 4444 015e 9BB2     		uxth	r3, r3
 4445              	.LVL355:
  41:Service/../MAVLink/common/../checksum.h **** }
 4446              		.loc 14 41 59 view .LVU1421
 4447              	.LBE358:
 4448              	.LBE357:
  68:Service/../MAVLink/common/../checksum.h ****                 crc_accumulate(*pBuffer++, &crcTmp);
 4449              		.loc 14 68 15 view .LVU1422
 4450 0160 0246     		mov	r2, r0
 4451              	.LVL356:
 4452              	.L143:
  68:Service/../MAVLink/common/../checksum.h ****                 crc_accumulate(*pBuffer++, &crcTmp);
 4453              		.loc 14 68 8 is_stmt 1 view .LVU1423
  68:Service/../MAVLink/common/../checksum.h ****                 crc_accumulate(*pBuffer++, &crcTmp);
 4454              		.loc 14 68 15 is_stmt 0 view .LVU1424
 4455 0162 501E     		subs	r0, r2, #1
 4456 0164 80B2     		uxth	r0, r0
 4457              	.LVL357:
  68:Service/../MAVLink/common/../checksum.h ****                 crc_accumulate(*pBuffer++, &crcTmp);
 4458              		.loc 14 68 8 view .LVU1425
 4459 0166 002A     		cmp	r2, #0
 4460 0168 E8D1     		bne	.L144
  71:Service/../MAVLink/common/../checksum.h **** }
ARM GAS  C:\Users\8bit\AppData\Local\Temp\ccCRhmZR.s 			page 187


 4461              		.loc 14 71 9 is_stmt 1 view .LVU1426
 4462              	.LVL358:
  71:Service/../MAVLink/common/../checksum.h **** }
 4463              		.loc 14 71 9 is_stmt 0 view .LVU1427
 4464              	.LBE354:
 4465              	.LBE353:
  85:Service/../MAVLink/common/../mavlink_helpers.h **** 	crc_accumulate_buffer(&msg->checksum, _MAV_PAYLOAD(msg), msg->len);
 4466              		.loc 2 85 16 view .LVU1428
 4467 016a 2046     		mov	r0, r4
 4468 016c 20F8083B 		strh	r3, [r0], #8	@ unaligned
  86:Service/../MAVLink/common/../mavlink_helpers.h **** #if MAVLINK_CRC_EXTRA
 4469              		.loc 2 86 2 is_stmt 1 view .LVU1429
 4470 0170 E378     		ldrb	r3, [r4, #3]	@ zero_extendqisi2
 4471              	.LVL359:
 4472              	.LBB359:
 4473              	.LBI359:
  84:Service/../MAVLink/common/../checksum.h **** {
 4474              		.loc 14 84 20 view .LVU1430
 4475              	.LBB360:
  86:Service/../MAVLink/common/../checksum.h **** 	while (length--) {
 4476              		.loc 14 86 17 is_stmt 0 view .LVU1431
 4477 0172 0146     		mov	r1, r0
 4478 0174 13E0     		b	.L145
 4479              	.LVL360:
 4480              	.L146:
 4481              		.loc 14 88 17 is_stmt 1 view .LVU1432
 4482              		.loc 14 88 17 is_stmt 0 view .LVU1433
 4483 0176 11F8012B 		ldrb	r2, [r1], #1	@ zero_extendqisi2
 4484              	.LVL361:
 4485              	.LBB361:
 4486              	.LBI361:
  34:Service/../MAVLink/common/../checksum.h **** {
 4487              		.loc 14 34 20 is_stmt 1 view .LVU1434
 4488              	.LBB362:
  37:Service/../MAVLink/common/../checksum.h **** 
 4489              		.loc 14 37 9 view .LVU1435
  39:Service/../MAVLink/common/../checksum.h ****         tmp ^= (tmp<<4);
 4490              		.loc 14 39 9 view .LVU1436
  39:Service/../MAVLink/common/../checksum.h ****         tmp ^= (tmp<<4);
 4491              		.loc 14 39 32 is_stmt 0 view .LVU1437
 4492 017a 2388     		ldrh	r3, [r4]
  39:Service/../MAVLink/common/../checksum.h ****         tmp ^= (tmp<<4);
 4493              		.loc 14 39 22 view .LVU1438
 4494 017c 5FFA83FE 		uxtb	lr, r3
  39:Service/../MAVLink/common/../checksum.h ****         tmp ^= (tmp<<4);
 4495              		.loc 14 39 13 view .LVU1439
 4496 0180 82EA0E02 		eor	r2, r2, lr
 4497              	.LVL362:
  40:Service/../MAVLink/common/../checksum.h ****         *crcAccum = (*crcAccum>>8) ^ (tmp<<8) ^ (tmp <<3) ^ (tmp>>4);
 4498              		.loc 14 40 9 is_stmt 1 view .LVU1440
  40:Service/../MAVLink/common/../checksum.h ****         *crcAccum = (*crcAccum>>8) ^ (tmp<<8) ^ (tmp <<3) ^ (tmp>>4);
 4499              		.loc 14 40 13 is_stmt 0 view .LVU1441
 4500 0184 82EA0212 		eor	r2, r2, r2, lsl #4
 4501              	.LVL363:
  40:Service/../MAVLink/common/../checksum.h ****         *crcAccum = (*crcAccum>>8) ^ (tmp<<8) ^ (tmp <<3) ^ (tmp>>4);
 4502              		.loc 14 40 13 view .LVU1442
 4503 0188 D2B2     		uxtb	r2, r2
ARM GAS  C:\Users\8bit\AppData\Local\Temp\ccCRhmZR.s 			page 188


 4504              	.LVL364:
  41:Service/../MAVLink/common/../checksum.h **** }
 4505              		.loc 14 41 9 is_stmt 1 view .LVU1443
  41:Service/../MAVLink/common/../checksum.h **** }
 4506              		.loc 14 41 36 is_stmt 0 view .LVU1444
 4507 018a 1B0A     		lsrs	r3, r3, #8
 4508 018c 43EA0223 		orr	r3, r3, r2, lsl #8
 4509 0190 1BB2     		sxth	r3, r3
  41:Service/../MAVLink/common/../checksum.h **** }
 4510              		.loc 14 41 47 view .LVU1445
 4511 0192 83EAC203 		eor	r3, r3, r2, lsl #3
  41:Service/../MAVLink/common/../checksum.h **** }
 4512              		.loc 14 41 59 view .LVU1446
 4513 0196 83EA1213 		eor	r3, r3, r2, lsr #4
  41:Service/../MAVLink/common/../checksum.h **** }
 4514              		.loc 14 41 19 view .LVU1447
 4515 019a 2380     		strh	r3, [r4]	@ movhi
 4516              	.LVL365:
  41:Service/../MAVLink/common/../checksum.h **** }
 4517              		.loc 14 41 19 view .LVU1448
 4518              	.LBE362:
 4519              	.LBE361:
  87:Service/../MAVLink/common/../checksum.h ****                 crc_accumulate(*p++, crcAccum);
 4520              		.loc 14 87 15 view .LVU1449
 4521 019c 6346     		mov	r3, ip
 4522              	.LVL366:
 4523              	.L145:
  87:Service/../MAVLink/common/../checksum.h ****                 crc_accumulate(*p++, crcAccum);
 4524              		.loc 14 87 8 is_stmt 1 view .LVU1450
  87:Service/../MAVLink/common/../checksum.h ****                 crc_accumulate(*p++, crcAccum);
 4525              		.loc 14 87 15 is_stmt 0 view .LVU1451
 4526 019e 03F1FF3C 		add	ip, r3, #-1
 4527 01a2 1FFA8CFC 		uxth	ip, ip
 4528              	.LVL367:
  87:Service/../MAVLink/common/../checksum.h ****                 crc_accumulate(*p++, crcAccum);
 4529              		.loc 14 87 8 view .LVU1452
 4530 01a6 002B     		cmp	r3, #0
 4531 01a8 E5D1     		bne	.L146
 4532              	.LVL368:
  87:Service/../MAVLink/common/../checksum.h ****                 crc_accumulate(*p++, crcAccum);
 4533              		.loc 14 87 8 view .LVU1453
 4534              	.LBE360:
 4535              	.LBE359:
  88:Service/../MAVLink/common/../mavlink_helpers.h **** #endif
 4536              		.loc 2 88 2 is_stmt 1 view .LVU1454
 4537              	.LBB363:
 4538              	.LBI363:
  34:Service/../MAVLink/common/../checksum.h **** {
 4539              		.loc 14 34 20 view .LVU1455
 4540              	.LBB364:
  37:Service/../MAVLink/common/../checksum.h **** 
 4541              		.loc 14 37 9 view .LVU1456
  39:Service/../MAVLink/common/../checksum.h ****         tmp ^= (tmp<<4);
 4542              		.loc 14 39 9 view .LVU1457
  39:Service/../MAVLink/common/../checksum.h ****         tmp ^= (tmp<<4);
 4543              		.loc 14 39 32 is_stmt 0 view .LVU1458
 4544 01aa 2388     		ldrh	r3, [r4]
ARM GAS  C:\Users\8bit\AppData\Local\Temp\ccCRhmZR.s 			page 189


  39:Service/../MAVLink/common/../checksum.h ****         tmp ^= (tmp<<4);
 4545              		.loc 14 39 22 view .LVU1459
 4546 01ac DAB2     		uxtb	r2, r3
  39:Service/../MAVLink/common/../checksum.h ****         tmp ^= (tmp<<4);
 4547              		.loc 14 39 13 view .LVU1460
 4548 01ae 82F0AA02 		eor	r2, r2, #170
 4549              	.LVL369:
  40:Service/../MAVLink/common/../checksum.h ****         *crcAccum = (*crcAccum>>8) ^ (tmp<<8) ^ (tmp <<3) ^ (tmp>>4);
 4550              		.loc 14 40 9 is_stmt 1 view .LVU1461
  40:Service/../MAVLink/common/../checksum.h ****         *crcAccum = (*crcAccum>>8) ^ (tmp<<8) ^ (tmp <<3) ^ (tmp>>4);
 4551              		.loc 14 40 13 is_stmt 0 view .LVU1462
 4552 01b2 82EA0212 		eor	r2, r2, r2, lsl #4
 4553              	.LVL370:
  40:Service/../MAVLink/common/../checksum.h ****         *crcAccum = (*crcAccum>>8) ^ (tmp<<8) ^ (tmp <<3) ^ (tmp>>4);
 4554              		.loc 14 40 13 view .LVU1463
 4555 01b6 D2B2     		uxtb	r2, r2
 4556              	.LVL371:
  41:Service/../MAVLink/common/../checksum.h **** }
 4557              		.loc 14 41 9 is_stmt 1 view .LVU1464
  41:Service/../MAVLink/common/../checksum.h **** }
 4558              		.loc 14 41 36 is_stmt 0 view .LVU1465
 4559 01b8 1B0A     		lsrs	r3, r3, #8
 4560 01ba 43EA0223 		orr	r3, r3, r2, lsl #8
 4561 01be 1BB2     		sxth	r3, r3
  41:Service/../MAVLink/common/../checksum.h **** }
 4562              		.loc 14 41 47 view .LVU1466
 4563 01c0 83EAC203 		eor	r3, r3, r2, lsl #3
  41:Service/../MAVLink/common/../checksum.h **** }
 4564              		.loc 14 41 59 view .LVU1467
 4565 01c4 83EA1213 		eor	r3, r3, r2, lsr #4
  41:Service/../MAVLink/common/../checksum.h **** }
 4566              		.loc 14 41 19 view .LVU1468
 4567 01c8 2380     		strh	r3, [r4]	@ movhi
 4568              	.LVL372:
  41:Service/../MAVLink/common/../checksum.h **** }
 4569              		.loc 14 41 19 view .LVU1469
 4570              	.LBE364:
 4571              	.LBE363:
  90:Service/../MAVLink/common/../mavlink_helpers.h **** 	mavlink_ck_b(msg) = (uint8_t)(msg->checksum >> 8);
 4572              		.loc 2 90 2 is_stmt 1 view .LVU1470
  90:Service/../MAVLink/common/../mavlink_helpers.h **** 	mavlink_ck_b(msg) = (uint8_t)(msg->checksum >> 8);
 4573              		.loc 2 90 35 is_stmt 0 view .LVU1471
 4574 01ca 2288     		ldrh	r2, [r4]	@ unaligned
  90:Service/../MAVLink/common/../mavlink_helpers.h **** 	mavlink_ck_b(msg) = (uint8_t)(msg->checksum >> 8);
 4575              		.loc 2 90 2 view .LVU1472
 4576 01cc E378     		ldrb	r3, [r4, #3]	@ zero_extendqisi2
  90:Service/../MAVLink/common/../mavlink_helpers.h **** 	mavlink_ck_b(msg) = (uint8_t)(msg->checksum >> 8);
 4577              		.loc 2 90 20 view .LVU1473
 4578 01ce C254     		strb	r2, [r0, r3]
  91:Service/../MAVLink/common/../mavlink_helpers.h **** 
 4579              		.loc 2 91 2 is_stmt 1 view .LVU1474
  91:Service/../MAVLink/common/../mavlink_helpers.h **** 
 4580              		.loc 2 91 35 is_stmt 0 view .LVU1475
 4581 01d0 2288     		ldrh	r2, [r4]	@ unaligned
  91:Service/../MAVLink/common/../mavlink_helpers.h **** 
 4582              		.loc 2 91 2 view .LVU1476
 4583 01d2 E378     		ldrb	r3, [r4, #3]	@ zero_extendqisi2
ARM GAS  C:\Users\8bit\AppData\Local\Temp\ccCRhmZR.s 			page 190


 4584 01d4 0133     		adds	r3, r3, #1
  91:Service/../MAVLink/common/../mavlink_helpers.h **** 
 4585              		.loc 2 91 22 view .LVU1477
 4586 01d6 120A     		lsrs	r2, r2, #8
  91:Service/../MAVLink/common/../mavlink_helpers.h **** 
 4587              		.loc 2 91 20 view .LVU1478
 4588 01d8 C254     		strb	r2, [r0, r3]
  93:Service/../MAVLink/common/../mavlink_helpers.h **** }
 4589              		.loc 2 93 2 is_stmt 1 view .LVU1479
 4590              	.LVL373:
  93:Service/../MAVLink/common/../mavlink_helpers.h **** }
 4591              		.loc 2 93 2 is_stmt 0 view .LVU1480
 4592              	.LBE366:
 4593              	.LBE368:
 4594              	.LBE370:
 4595              	.LBE372:
 213:Service/Srv_ComProto.c **** 
 4596              		.loc 1 213 1 view .LVU1481
 4597 01da 1E20     		movs	r0, #30
 4598 01dc 1BB0     		add	sp, sp, #108
 4599              	.LCFI94:
 4600              		.cfi_def_cfa_offset 20
 4601              		@ sp needed
 4602 01de F0BD     		pop	{r4, r5, r6, r7, pc}
 4603              	.L149:
 4604              		.align	2
 4605              	.L148:
 4606 01e0 00000000 		.word	SrvDataHub
 4607 01e4 00000000 		.word	.LANCHOR1
 4608              		.cfi_endproc
 4609              	.LFE2079:
 4611              		.section	.text.SrvComProto_MavMsg_Input_DecodeAll,"ax",%progbits
 4612              		.align	1
 4613              		.syntax unified
 4614              		.thumb
 4615              		.thumb_func
 4617              	SrvComProto_MavMsg_Input_DecodeAll:
 4618              	.LVL374:
 4619              	.LFB2097:
 526:Service/Srv_ComProto.c **** 
 527:Service/Srv_ComProto.c **** /******************************************* Frame In  ****************************************/
 528:Service/Srv_ComProto.c **** static SrvComProto_Msg_StreamIn_TypeDef SrvComProto_MavMsg_Input_DecodeAll(SrvComProto_MsgObj_TypeD
 529:Service/Srv_ComProto.c **** {
 4620              		.loc 1 529 1 is_stmt 1 view -0
 4621              		.cfi_startproc
 4622              		@ args = 0, pretend = 0, frame = 304
 4623              		@ frame_needed = 0, uses_anonymous_args = 0
 4624              		.loc 1 529 1 is_stmt 0 view .LVU1483
 4625 0000 2DE9F043 		push	{r4, r5, r6, r7, r8, r9, lr}
 4626              	.LCFI95:
 4627              		.cfi_def_cfa_offset 28
 4628              		.cfi_offset 4, -28
 4629              		.cfi_offset 5, -24
 4630              		.cfi_offset 6, -20
 4631              		.cfi_offset 7, -16
 4632              		.cfi_offset 8, -12
 4633              		.cfi_offset 9, -8
ARM GAS  C:\Users\8bit\AppData\Local\Temp\ccCRhmZR.s 			page 191


 4634              		.cfi_offset 14, -4
 4635 0004 ADF50F7D 		sub	sp, sp, #572
 4636              	.LCFI96:
 4637              		.cfi_def_cfa_offset 600
 4638 0008 8046     		mov	r8, r0
 4639 000a 8946     		mov	r9, r1
 4640 000c 1746     		mov	r7, r2
 4641 000e 1E46     		mov	r6, r3
 530:Service/Srv_ComProto.c ****     SrvComProto_Msg_StreamIn_TypeDef stream_in; 
 4642              		.loc 1 530 5 is_stmt 1 view .LVU1484
 531:Service/Srv_ComProto.c ****     uint8_t default_channel = 0;
 4643              		.loc 1 531 5 view .LVU1485
 4644              	.LVL375:
 532:Service/Srv_ComProto.c ****     mavlink_message_t mav_msg;
 4645              		.loc 1 532 5 view .LVU1486
 533:Service/Srv_ComProto.c ****     mavlink_status_t mav_sta;
 4646              		.loc 1 533 5 view .LVU1487
 534:Service/Srv_ComProto.c ****     volatile uint8_t mav_decode = 0;
 4647              		.loc 1 534 5 view .LVU1488
 4648              		.loc 1 534 22 is_stmt 0 view .LVU1489
 4649 0010 0023     		movs	r3, #0
 4650              	.LVL376:
 4651              		.loc 1 534 22 view .LVU1490
 4652 0012 8DF80F31 		strb	r3, [sp, #271]
 535:Service/Srv_ComProto.c ****     
 536:Service/Srv_ComProto.c ****     memset(&stream_in, 0, sizeof(SrvComProto_Msg_StreamIn_TypeDef));
 4653              		.loc 1 536 5 is_stmt 1 view .LVU1491
 4654 0016 8B93     		str	r3, [sp, #556]
 4655 0018 8C93     		str	r3, [sp, #560]
 4656 001a 8D93     		str	r3, [sp, #564]
 537:Service/Srv_ComProto.c **** 
 538:Service/Srv_ComProto.c ****     /* match cli */
 539:Service/Srv_ComProto.c ****     if((p_data[size - 1] == '\n') && (p_data[size - 2] == '\r'))
 4657              		.loc 1 539 5 view .LVU1492
 4658              		.loc 1 539 15 is_stmt 0 view .LVU1493
 4659 001c 9319     		adds	r3, r2, r6
 4660 001e 13F8013C 		ldrb	r3, [r3, #-1]	@ zero_extendqisi2
 4661              		.loc 1 539 7 view .LVU1494
 4662 0022 0A2B     		cmp	r3, #10
 4663 0024 04D1     		bne	.L151
 4664              		.loc 1 539 45 discriminator 1 view .LVU1495
 4665 0026 9319     		adds	r3, r2, r6
 4666 0028 13F8023C 		ldrb	r3, [r3, #-2]	@ zero_extendqisi2
 4667              		.loc 1 539 35 discriminator 1 view .LVU1496
 4668 002c 0D2B     		cmp	r3, #13
 4669 002e 0AD0     		beq	.L190
 4670              	.L151:
 540:Service/Srv_ComProto.c ****     {
 541:Service/Srv_ComProto.c ****         stream_in.pac_type = ComFrame_CLI;
 542:Service/Srv_ComProto.c ****         stream_in.valid = true;
 543:Service/Srv_ComProto.c ****         stream_in.size = size;
 544:Service/Srv_ComProto.c ****         stream_in.p_buf = p_data;
 545:Service/Srv_ComProto.c ****     
 546:Service/Srv_ComProto.c ****         goto input_stream_valid;
 547:Service/Srv_ComProto.c ****     }
 548:Service/Srv_ComProto.c ****     
 549:Service/Srv_ComProto.c ****     memset(&mav_msg, 0, sizeof(mavlink_message_t));
ARM GAS  C:\Users\8bit\AppData\Local\Temp\ccCRhmZR.s 			page 192


 4671              		.loc 1 549 5 is_stmt 1 view .LVU1497
 4672 0030 4FF48872 		mov	r2, #272
 4673              	.LVL377:
 4674              		.loc 1 549 5 is_stmt 0 view .LVU1498
 4675 0034 0021     		movs	r1, #0
 4676              	.LVL378:
 4677              		.loc 1 549 5 view .LVU1499
 4678 0036 47A8     		add	r0, sp, #284
 4679              	.LVL379:
 4680              		.loc 1 549 5 view .LVU1500
 4681 0038 FFF7FEFF 		bl	memset
 4682              	.LVL380:
 550:Service/Srv_ComProto.c ****     memset(&mav_sta, 0, sizeof(mavlink_status_t));
 4683              		.loc 1 550 5 is_stmt 1 view .LVU1501
 4684 003c 0025     		movs	r5, #0
 4685 003e 4495     		str	r5, [sp, #272]
 4686 0040 4595     		str	r5, [sp, #276]
 4687 0042 4695     		str	r5, [sp, #280]
 551:Service/Srv_ComProto.c ****     
 552:Service/Srv_ComProto.c ****     /* match mavlink message */
 553:Service/Srv_ComProto.c ****     for(uint16_t i = 0; i < size; i++)
 4688              		.loc 1 553 5 view .LVU1502
 4689              	.LBB410:
 4690              		.loc 1 553 9 view .LVU1503
 4691              	.LVL381:
 4692              		.loc 1 553 5 is_stmt 0 view .LVU1504
 4693 0044 5DE0     		b	.L153
 4694              	.LVL382:
 4695              	.L190:
 4696              		.loc 1 553 5 view .LVU1505
 4697              	.LBE410:
 541:Service/Srv_ComProto.c ****         stream_in.valid = true;
 4698              		.loc 1 541 9 is_stmt 1 view .LVU1506
 541:Service/Srv_ComProto.c ****         stream_in.valid = true;
 4699              		.loc 1 541 28 is_stmt 0 view .LVU1507
 4700 0046 0123     		movs	r3, #1
 4701 0048 8DF82D32 		strb	r3, [sp, #557]
 542:Service/Srv_ComProto.c ****         stream_in.size = size;
 4702              		.loc 1 542 9 is_stmt 1 view .LVU1508
 542:Service/Srv_ComProto.c ****         stream_in.size = size;
 4703              		.loc 1 542 25 is_stmt 0 view .LVU1509
 4704 004c 8DF82C32 		strb	r3, [sp, #556]
 543:Service/Srv_ComProto.c ****         stream_in.p_buf = p_data;
 4705              		.loc 1 543 9 is_stmt 1 view .LVU1510
 543:Service/Srv_ComProto.c ****         stream_in.p_buf = p_data;
 4706              		.loc 1 543 24 is_stmt 0 view .LVU1511
 4707 0050 ADF83462 		strh	r6, [sp, #564]	@ movhi
 544:Service/Srv_ComProto.c ****     
 4708              		.loc 1 544 9 is_stmt 1 view .LVU1512
 544:Service/Srv_ComProto.c ****     
 4709              		.loc 1 544 25 is_stmt 0 view .LVU1513
 4710 0054 8C92     		str	r2, [sp, #560]
 546:Service/Srv_ComProto.c ****     }
 4711              		.loc 1 546 9 is_stmt 1 view .LVU1514
 4712 0056 03E2     		b	.L152
 4713              	.LVL383:
 4714              	.L164:
ARM GAS  C:\Users\8bit\AppData\Local\Temp\ccCRhmZR.s 			page 193


 4715              	.LBB471:
 4716              	.LBB411:
 4717              	.LBB412:
 4718              	.LBB413:
 186:Service/../MAVLink/common/../mavlink_helpers.h **** }
 187:Service/../MAVLink/common/../mavlink_helpers.h **** 
 188:Service/../MAVLink/common/../mavlink_helpers.h **** union __mavlink_bitfield {
 189:Service/../MAVLink/common/../mavlink_helpers.h **** 	uint8_t uint8;
 190:Service/../MAVLink/common/../mavlink_helpers.h **** 	int8_t int8;
 191:Service/../MAVLink/common/../mavlink_helpers.h **** 	uint16_t uint16;
 192:Service/../MAVLink/common/../mavlink_helpers.h **** 	int16_t int16;
 193:Service/../MAVLink/common/../mavlink_helpers.h **** 	uint32_t uint32;
 194:Service/../MAVLink/common/../mavlink_helpers.h **** 	int32_t int32;
 195:Service/../MAVLink/common/../mavlink_helpers.h **** };
 196:Service/../MAVLink/common/../mavlink_helpers.h **** 
 197:Service/../MAVLink/common/../mavlink_helpers.h **** 
 198:Service/../MAVLink/common/../mavlink_helpers.h **** MAVLINK_HELPER void mavlink_start_checksum(mavlink_message_t* msg)
 199:Service/../MAVLink/common/../mavlink_helpers.h **** {
 200:Service/../MAVLink/common/../mavlink_helpers.h **** 	crc_init(&msg->checksum);
 201:Service/../MAVLink/common/../mavlink_helpers.h **** }
 202:Service/../MAVLink/common/../mavlink_helpers.h **** 
 203:Service/../MAVLink/common/../mavlink_helpers.h **** MAVLINK_HELPER void mavlink_update_checksum(mavlink_message_t* msg, uint8_t c)
 204:Service/../MAVLink/common/../mavlink_helpers.h **** {
 205:Service/../MAVLink/common/../mavlink_helpers.h **** 	crc_accumulate(c, &msg->checksum);
 206:Service/../MAVLink/common/../mavlink_helpers.h **** }
 207:Service/../MAVLink/common/../mavlink_helpers.h **** 
 208:Service/../MAVLink/common/../mavlink_helpers.h **** /**
 209:Service/../MAVLink/common/../mavlink_helpers.h ****  * This is a variant of mavlink_frame_char() but with caller supplied
 210:Service/../MAVLink/common/../mavlink_helpers.h ****  * parsing buffers. It is useful when you want to create a MAVLink
 211:Service/../MAVLink/common/../mavlink_helpers.h ****  * parser in a library that doesn't use any global variables
 212:Service/../MAVLink/common/../mavlink_helpers.h ****  *
 213:Service/../MAVLink/common/../mavlink_helpers.h ****  * @param rxmsg    parsing message buffer
 214:Service/../MAVLink/common/../mavlink_helpers.h ****  * @param status   parsing status buffer 
 215:Service/../MAVLink/common/../mavlink_helpers.h ****  * @param c        The char to parse
 216:Service/../MAVLink/common/../mavlink_helpers.h ****  *
 217:Service/../MAVLink/common/../mavlink_helpers.h ****  * @param r_message NULL if no message could be decoded, otherwise the message data
 218:Service/../MAVLink/common/../mavlink_helpers.h ****  * @param r_mavlink_status if a message was decoded, this is filled with the channel's stats
 219:Service/../MAVLink/common/../mavlink_helpers.h ****  * @return 0 if no message could be decoded, 1 on good message and CRC, 2 on bad CRC
 220:Service/../MAVLink/common/../mavlink_helpers.h ****  */
 221:Service/../MAVLink/common/../mavlink_helpers.h **** MAVLINK_HELPER uint8_t mavlink_frame_char_buffer(mavlink_message_t* rxmsg, 
 222:Service/../MAVLink/common/../mavlink_helpers.h ****                                                  mavlink_status_t* status,
 223:Service/../MAVLink/common/../mavlink_helpers.h ****                                                  uint8_t c, 
 224:Service/../MAVLink/common/../mavlink_helpers.h ****                                                  mavlink_message_t* r_message, 
 225:Service/../MAVLink/common/../mavlink_helpers.h ****                                                  mavlink_status_t* r_mavlink_status)
 226:Service/../MAVLink/common/../mavlink_helpers.h **** {
 227:Service/../MAVLink/common/../mavlink_helpers.h ****         /*
 228:Service/../MAVLink/common/../mavlink_helpers.h **** 	  default message crc function. You can override this per-system to
 229:Service/../MAVLink/common/../mavlink_helpers.h **** 	  put this data in a different memory segment
 230:Service/../MAVLink/common/../mavlink_helpers.h **** 	*/
 231:Service/../MAVLink/common/../mavlink_helpers.h **** #if MAVLINK_CRC_EXTRA
 232:Service/../MAVLink/common/../mavlink_helpers.h **** #ifndef MAVLINK_MESSAGE_CRC
 233:Service/../MAVLink/common/../mavlink_helpers.h **** 	static const uint8_t mavlink_message_crcs[256] = MAVLINK_MESSAGE_CRCS;
 234:Service/../MAVLink/common/../mavlink_helpers.h **** #define MAVLINK_MESSAGE_CRC(msgid) mavlink_message_crcs[msgid]
 235:Service/../MAVLink/common/../mavlink_helpers.h **** #endif
 236:Service/../MAVLink/common/../mavlink_helpers.h **** #endif
 237:Service/../MAVLink/common/../mavlink_helpers.h **** 
 238:Service/../MAVLink/common/../mavlink_helpers.h **** 	/* Enable this option to check the length of each message.
ARM GAS  C:\Users\8bit\AppData\Local\Temp\ccCRhmZR.s 			page 194


 239:Service/../MAVLink/common/../mavlink_helpers.h **** 	   This allows invalid messages to be caught much sooner. Use if the transmission
 240:Service/../MAVLink/common/../mavlink_helpers.h **** 	   medium is prone to missing (or extra) characters (e.g. a radio that fades in
 241:Service/../MAVLink/common/../mavlink_helpers.h **** 	   and out). Only use if the channel will only contain messages types listed in
 242:Service/../MAVLink/common/../mavlink_helpers.h **** 	   the headers.
 243:Service/../MAVLink/common/../mavlink_helpers.h **** 	*/
 244:Service/../MAVLink/common/../mavlink_helpers.h **** #ifdef MAVLINK_CHECK_MESSAGE_LENGTH
 245:Service/../MAVLink/common/../mavlink_helpers.h **** #ifndef MAVLINK_MESSAGE_LENGTH
 246:Service/../MAVLink/common/../mavlink_helpers.h **** 	static const uint8_t mavlink_message_lengths[256] = MAVLINK_MESSAGE_LENGTHS;
 247:Service/../MAVLink/common/../mavlink_helpers.h **** #define MAVLINK_MESSAGE_LENGTH(msgid) mavlink_message_lengths[msgid]
 248:Service/../MAVLink/common/../mavlink_helpers.h **** #endif
 249:Service/../MAVLink/common/../mavlink_helpers.h **** #endif
 250:Service/../MAVLink/common/../mavlink_helpers.h **** 
 251:Service/../MAVLink/common/../mavlink_helpers.h **** 	status->msg_received = MAVLINK_FRAMING_INCOMPLETE;
 252:Service/../MAVLink/common/../mavlink_helpers.h **** 
 253:Service/../MAVLink/common/../mavlink_helpers.h **** 	switch (status->parse_state)
 254:Service/../MAVLink/common/../mavlink_helpers.h **** 	{
 255:Service/../MAVLink/common/../mavlink_helpers.h **** 	case MAVLINK_PARSE_STATE_UNINIT:
 256:Service/../MAVLink/common/../mavlink_helpers.h **** 	case MAVLINK_PARSE_STATE_IDLE:
 257:Service/../MAVLink/common/../mavlink_helpers.h **** 		if (c == MAVLINK_STX)
 4719              		.loc 2 257 3 view .LVU1515
 4720              		.loc 2 257 6 is_stmt 0 view .LVU1516
 4721 0058 FE2A     		cmp	r2, #254
 4722 005a 20D1     		bne	.L154
 258:Service/../MAVLink/common/../mavlink_helpers.h **** 		{
 259:Service/../MAVLink/common/../mavlink_helpers.h **** 			status->parse_state = MAVLINK_PARSE_STATE_GOT_STX;
 4723              		.loc 2 259 4 is_stmt 1 view .LVU1517
 4724              		.loc 2 259 24 is_stmt 0 view .LVU1518
 4725 005c AB4B     		ldr	r3, .L197
 4726 005e 0221     		movs	r1, #2
 4727 0060 D970     		strb	r1, [r3, #3]
 260:Service/../MAVLink/common/../mavlink_helpers.h **** 			rxmsg->len = 0;
 4728              		.loc 2 260 4 is_stmt 1 view .LVU1519
 4729              		.loc 2 260 15 is_stmt 0 view .LVU1520
 4730 0062 AB4B     		ldr	r3, .L197+4
 4731 0064 0021     		movs	r1, #0
 4732 0066 D970     		strb	r1, [r3, #3]
 261:Service/../MAVLink/common/../mavlink_helpers.h **** 			rxmsg->magic = c;
 4733              		.loc 2 261 4 is_stmt 1 view .LVU1521
 4734              		.loc 2 261 17 is_stmt 0 view .LVU1522
 4735 0068 9A70     		strb	r2, [r3, #2]
 262:Service/../MAVLink/common/../mavlink_helpers.h **** 			mavlink_start_checksum(rxmsg);
 4736              		.loc 2 262 4 is_stmt 1 view .LVU1523
 4737              	.LVL384:
 4738              	.LBB414:
 4739              	.LBI414:
 198:Service/../MAVLink/common/../mavlink_helpers.h **** {
 4740              		.loc 2 198 21 view .LVU1524
 4741              	.LBB415:
 200:Service/../MAVLink/common/../mavlink_helpers.h **** }
 4742              		.loc 2 200 2 view .LVU1525
 4743              	.LBB416:
 4744              	.LBI416:
  51:Service/../MAVLink/common/../checksum.h **** {
 4745              		.loc 14 51 20 view .LVU1526
 4746              	.LBB417:
  53:Service/../MAVLink/common/../checksum.h **** }
 4747              		.loc 14 53 9 view .LVU1527
ARM GAS  C:\Users\8bit\AppData\Local\Temp\ccCRhmZR.s 			page 195


  53:Service/../MAVLink/common/../checksum.h **** }
 4748              		.loc 14 53 19 is_stmt 0 view .LVU1528
 4749 006a 4FF6FF72 		movw	r2, #65535
 4750              	.LVL385:
  53:Service/../MAVLink/common/../checksum.h **** }
 4751              		.loc 14 53 19 view .LVU1529
 4752 006e 1A80     		strh	r2, [r3]	@ movhi
 4753              	.LVL386:
  53:Service/../MAVLink/common/../checksum.h **** }
 4754              		.loc 14 53 19 view .LVU1530
 4755              	.LBE417:
 4756              	.LBE416:
 201:Service/../MAVLink/common/../mavlink_helpers.h **** 
 4757              		.loc 2 201 1 view .LVU1531
 4758 0070 15E0     		b	.L154
 4759              	.LVL387:
 4760              	.L163:
 201:Service/../MAVLink/common/../mavlink_helpers.h **** 
 4761              		.loc 2 201 1 view .LVU1532
 4762              	.LBE415:
 4763              	.LBE414:
 263:Service/../MAVLink/common/../mavlink_helpers.h **** 		}
 264:Service/../MAVLink/common/../mavlink_helpers.h **** 		break;
 265:Service/../MAVLink/common/../mavlink_helpers.h **** 
 266:Service/../MAVLink/common/../mavlink_helpers.h **** 	case MAVLINK_PARSE_STATE_GOT_STX:
 267:Service/../MAVLink/common/../mavlink_helpers.h **** 			if (status->msg_received 
 4764              		.loc 2 267 4 is_stmt 1 view .LVU1533
 268:Service/../MAVLink/common/../mavlink_helpers.h **** /* Support shorter buffers than the
 269:Service/../MAVLink/common/../mavlink_helpers.h ****    default maximum packet size */
 270:Service/../MAVLink/common/../mavlink_helpers.h **** #if (MAVLINK_MAX_PAYLOAD_LEN < 255)
 271:Service/../MAVLink/common/../mavlink_helpers.h **** 				|| c > MAVLINK_MAX_PAYLOAD_LEN
 272:Service/../MAVLink/common/../mavlink_helpers.h **** #endif
 273:Service/../MAVLink/common/../mavlink_helpers.h **** 				)
 274:Service/../MAVLink/common/../mavlink_helpers.h **** 		{
 275:Service/../MAVLink/common/../mavlink_helpers.h **** 			status->buffer_overrun++;
 276:Service/../MAVLink/common/../mavlink_helpers.h **** 			status->parse_error++;
 277:Service/../MAVLink/common/../mavlink_helpers.h **** 			status->msg_received = 0;
 278:Service/../MAVLink/common/../mavlink_helpers.h **** 			status->parse_state = MAVLINK_PARSE_STATE_IDLE;
 279:Service/../MAVLink/common/../mavlink_helpers.h **** 		}
 280:Service/../MAVLink/common/../mavlink_helpers.h **** 		else
 281:Service/../MAVLink/common/../mavlink_helpers.h **** 		{
 282:Service/../MAVLink/common/../mavlink_helpers.h **** 			// NOT counting STX, LENGTH, SEQ, SYSID, COMPID, MSGID, CRC1 and CRC2
 283:Service/../MAVLink/common/../mavlink_helpers.h **** 			rxmsg->len = c;
 4765              		.loc 2 283 4 view .LVU1534
 4766              		.loc 2 283 15 is_stmt 0 view .LVU1535
 4767 0072 A749     		ldr	r1, .L197+4
 4768 0074 CA70     		strb	r2, [r1, #3]
 284:Service/../MAVLink/common/../mavlink_helpers.h **** 			status->packet_idx = 0;
 4769              		.loc 2 284 4 is_stmt 1 view .LVU1536
 4770              		.loc 2 284 23 is_stmt 0 view .LVU1537
 4771 0076 A548     		ldr	r0, .L197
 4772 0078 0023     		movs	r3, #0
 4773 007a 0371     		strb	r3, [r0, #4]
 285:Service/../MAVLink/common/../mavlink_helpers.h **** 			mavlink_update_checksum(rxmsg, c);
 4774              		.loc 2 285 4 is_stmt 1 view .LVU1538
 4775              	.LVL388:
 4776              	.LBB418:
ARM GAS  C:\Users\8bit\AppData\Local\Temp\ccCRhmZR.s 			page 196


 4777              	.LBI418:
 203:Service/../MAVLink/common/../mavlink_helpers.h **** {
 4778              		.loc 2 203 21 view .LVU1539
 4779              	.LBE418:
 4780              	.LBE413:
 4781              	.LBE412:
 4782              	.LBE411:
 4783              	.LBE471:
 205:Service/../MAVLink/common/../mavlink_helpers.h **** }
 4784              		.loc 2 205 2 view .LVU1540
 4785              	.LBB472:
 4786              	.LBB462:
 4787              	.LBB454:
 4788              	.LBB446:
 4789              	.LBB421:
 4790              	.LBB419:
 4791              	.LBI419:
  34:Service/../MAVLink/common/../checksum.h **** {
 4792              		.loc 14 34 20 view .LVU1541
 4793              	.LBB420:
  37:Service/../MAVLink/common/../checksum.h **** 
 4794              		.loc 14 37 9 view .LVU1542
  39:Service/../MAVLink/common/../checksum.h ****         tmp ^= (tmp<<4);
 4795              		.loc 14 39 9 view .LVU1543
  39:Service/../MAVLink/common/../checksum.h ****         tmp ^= (tmp<<4);
 4796              		.loc 14 39 32 is_stmt 0 view .LVU1544
 4797 007c 0B88     		ldrh	r3, [r1]
  39:Service/../MAVLink/common/../checksum.h ****         tmp ^= (tmp<<4);
 4798              		.loc 14 39 22 view .LVU1545
 4799 007e DCB2     		uxtb	r4, r3
  39:Service/../MAVLink/common/../checksum.h ****         tmp ^= (tmp<<4);
 4800              		.loc 14 39 13 view .LVU1546
 4801 0080 6240     		eors	r2, r2, r4
 4802              	.LVL389:
  40:Service/../MAVLink/common/../checksum.h ****         *crcAccum = (*crcAccum>>8) ^ (tmp<<8) ^ (tmp <<3) ^ (tmp>>4);
 4803              		.loc 14 40 9 is_stmt 1 view .LVU1547
  40:Service/../MAVLink/common/../checksum.h ****         *crcAccum = (*crcAccum>>8) ^ (tmp<<8) ^ (tmp <<3) ^ (tmp>>4);
 4804              		.loc 14 40 13 is_stmt 0 view .LVU1548
 4805 0082 82EA0212 		eor	r2, r2, r2, lsl #4
 4806              	.LVL390:
  40:Service/../MAVLink/common/../checksum.h ****         *crcAccum = (*crcAccum>>8) ^ (tmp<<8) ^ (tmp <<3) ^ (tmp>>4);
 4807              		.loc 14 40 13 view .LVU1549
 4808 0086 D2B2     		uxtb	r2, r2
 4809              	.LVL391:
  41:Service/../MAVLink/common/../checksum.h **** }
 4810              		.loc 14 41 9 is_stmt 1 view .LVU1550
  41:Service/../MAVLink/common/../checksum.h **** }
 4811              		.loc 14 41 36 is_stmt 0 view .LVU1551
 4812 0088 1B0A     		lsrs	r3, r3, #8
 4813 008a 43EA0223 		orr	r3, r3, r2, lsl #8
 4814 008e 1BB2     		sxth	r3, r3
  41:Service/../MAVLink/common/../checksum.h **** }
 4815              		.loc 14 41 47 view .LVU1552
 4816 0090 83EAC203 		eor	r3, r3, r2, lsl #3
  41:Service/../MAVLink/common/../checksum.h **** }
 4817              		.loc 14 41 59 view .LVU1553
 4818 0094 83EA1213 		eor	r3, r3, r2, lsr #4
ARM GAS  C:\Users\8bit\AppData\Local\Temp\ccCRhmZR.s 			page 197


  41:Service/../MAVLink/common/../checksum.h **** }
 4819              		.loc 14 41 19 view .LVU1554
 4820 0098 0B80     		strh	r3, [r1]	@ movhi
 4821              	.LVL392:
  41:Service/../MAVLink/common/../checksum.h **** }
 4822              		.loc 14 41 19 view .LVU1555
 4823              	.LBE420:
 4824              	.LBE419:
 4825              	.LBE421:
 286:Service/../MAVLink/common/../mavlink_helpers.h **** 			status->parse_state = MAVLINK_PARSE_STATE_GOT_LENGTH;
 4826              		.loc 2 286 4 is_stmt 1 view .LVU1556
 4827              		.loc 2 286 24 is_stmt 0 view .LVU1557
 4828 009a 0423     		movs	r3, #4
 4829 009c C370     		strb	r3, [r0, #3]
 4830              	.LVL393:
 4831              	.L154:
 287:Service/../MAVLink/common/../mavlink_helpers.h **** 		}
 288:Service/../MAVLink/common/../mavlink_helpers.h **** 		break;
 289:Service/../MAVLink/common/../mavlink_helpers.h **** 
 290:Service/../MAVLink/common/../mavlink_helpers.h **** 	case MAVLINK_PARSE_STATE_GOT_LENGTH:
 291:Service/../MAVLink/common/../mavlink_helpers.h **** 		rxmsg->seq = c;
 292:Service/../MAVLink/common/../mavlink_helpers.h **** 		mavlink_update_checksum(rxmsg, c);
 293:Service/../MAVLink/common/../mavlink_helpers.h **** 		status->parse_state = MAVLINK_PARSE_STATE_GOT_SEQ;
 294:Service/../MAVLink/common/../mavlink_helpers.h **** 		break;
 295:Service/../MAVLink/common/../mavlink_helpers.h **** 
 296:Service/../MAVLink/common/../mavlink_helpers.h **** 	case MAVLINK_PARSE_STATE_GOT_SEQ:
 297:Service/../MAVLink/common/../mavlink_helpers.h **** 		rxmsg->sysid = c;
 298:Service/../MAVLink/common/../mavlink_helpers.h **** 		mavlink_update_checksum(rxmsg, c);
 299:Service/../MAVLink/common/../mavlink_helpers.h **** 		status->parse_state = MAVLINK_PARSE_STATE_GOT_SYSID;
 300:Service/../MAVLink/common/../mavlink_helpers.h **** 		break;
 301:Service/../MAVLink/common/../mavlink_helpers.h **** 
 302:Service/../MAVLink/common/../mavlink_helpers.h **** 	case MAVLINK_PARSE_STATE_GOT_SYSID:
 303:Service/../MAVLink/common/../mavlink_helpers.h **** 		rxmsg->compid = c;
 304:Service/../MAVLink/common/../mavlink_helpers.h **** 		mavlink_update_checksum(rxmsg, c);
 305:Service/../MAVLink/common/../mavlink_helpers.h **** 		status->parse_state = MAVLINK_PARSE_STATE_GOT_COMPID;
 306:Service/../MAVLink/common/../mavlink_helpers.h **** 		break;
 307:Service/../MAVLink/common/../mavlink_helpers.h **** 
 308:Service/../MAVLink/common/../mavlink_helpers.h **** 	case MAVLINK_PARSE_STATE_GOT_COMPID:
 309:Service/../MAVLink/common/../mavlink_helpers.h **** #ifdef MAVLINK_CHECK_MESSAGE_LENGTH
 310:Service/../MAVLink/common/../mavlink_helpers.h **** 	        if (rxmsg->len != MAVLINK_MESSAGE_LENGTH(c))
 311:Service/../MAVLink/common/../mavlink_helpers.h **** 		{
 312:Service/../MAVLink/common/../mavlink_helpers.h **** 			status->parse_error++;
 313:Service/../MAVLink/common/../mavlink_helpers.h **** 			status->parse_state = MAVLINK_PARSE_STATE_IDLE;
 314:Service/../MAVLink/common/../mavlink_helpers.h **** 			break;
 315:Service/../MAVLink/common/../mavlink_helpers.h **** 	    }
 316:Service/../MAVLink/common/../mavlink_helpers.h **** #endif
 317:Service/../MAVLink/common/../mavlink_helpers.h **** 		rxmsg->msgid = c;
 318:Service/../MAVLink/common/../mavlink_helpers.h **** 		mavlink_update_checksum(rxmsg, c);
 319:Service/../MAVLink/common/../mavlink_helpers.h **** 		if (rxmsg->len == 0)
 320:Service/../MAVLink/common/../mavlink_helpers.h **** 		{
 321:Service/../MAVLink/common/../mavlink_helpers.h **** 			status->parse_state = MAVLINK_PARSE_STATE_GOT_PAYLOAD;
 322:Service/../MAVLink/common/../mavlink_helpers.h **** 		}
 323:Service/../MAVLink/common/../mavlink_helpers.h **** 		else
 324:Service/../MAVLink/common/../mavlink_helpers.h **** 		{
 325:Service/../MAVLink/common/../mavlink_helpers.h **** 			status->parse_state = MAVLINK_PARSE_STATE_GOT_MSGID;
 326:Service/../MAVLink/common/../mavlink_helpers.h **** 		}
 327:Service/../MAVLink/common/../mavlink_helpers.h **** 		break;
ARM GAS  C:\Users\8bit\AppData\Local\Temp\ccCRhmZR.s 			page 198


 328:Service/../MAVLink/common/../mavlink_helpers.h **** 
 329:Service/../MAVLink/common/../mavlink_helpers.h **** 	case MAVLINK_PARSE_STATE_GOT_MSGID:
 330:Service/../MAVLink/common/../mavlink_helpers.h **** 		_MAV_PAYLOAD_NON_CONST(rxmsg)[status->packet_idx++] = (char)c;
 331:Service/../MAVLink/common/../mavlink_helpers.h **** 		mavlink_update_checksum(rxmsg, c);
 332:Service/../MAVLink/common/../mavlink_helpers.h **** 		if (status->packet_idx == rxmsg->len)
 333:Service/../MAVLink/common/../mavlink_helpers.h **** 		{
 334:Service/../MAVLink/common/../mavlink_helpers.h **** 			status->parse_state = MAVLINK_PARSE_STATE_GOT_PAYLOAD;
 335:Service/../MAVLink/common/../mavlink_helpers.h **** 		}
 336:Service/../MAVLink/common/../mavlink_helpers.h **** 		break;
 337:Service/../MAVLink/common/../mavlink_helpers.h **** 
 338:Service/../MAVLink/common/../mavlink_helpers.h **** 	case MAVLINK_PARSE_STATE_GOT_PAYLOAD:
 339:Service/../MAVLink/common/../mavlink_helpers.h **** #if MAVLINK_CRC_EXTRA
 340:Service/../MAVLink/common/../mavlink_helpers.h **** 		mavlink_update_checksum(rxmsg, MAVLINK_MESSAGE_CRC(rxmsg->msgid));
 341:Service/../MAVLink/common/../mavlink_helpers.h **** #endif
 342:Service/../MAVLink/common/../mavlink_helpers.h **** 		if (c != (rxmsg->checksum & 0xFF)) {
 343:Service/../MAVLink/common/../mavlink_helpers.h **** 			status->parse_state = MAVLINK_PARSE_STATE_GOT_BAD_CRC1;
 344:Service/../MAVLink/common/../mavlink_helpers.h **** 		} else {
 345:Service/../MAVLink/common/../mavlink_helpers.h **** 			status->parse_state = MAVLINK_PARSE_STATE_GOT_CRC1;
 346:Service/../MAVLink/common/../mavlink_helpers.h **** 		}
 347:Service/../MAVLink/common/../mavlink_helpers.h ****                 _MAV_PAYLOAD_NON_CONST(rxmsg)[status->packet_idx] = (char)c;
 348:Service/../MAVLink/common/../mavlink_helpers.h **** 		break;
 349:Service/../MAVLink/common/../mavlink_helpers.h **** 
 350:Service/../MAVLink/common/../mavlink_helpers.h **** 	case MAVLINK_PARSE_STATE_GOT_CRC1:
 351:Service/../MAVLink/common/../mavlink_helpers.h **** 	case MAVLINK_PARSE_STATE_GOT_BAD_CRC1:
 352:Service/../MAVLink/common/../mavlink_helpers.h **** 		if (status->parse_state == MAVLINK_PARSE_STATE_GOT_BAD_CRC1 || c != (rxmsg->checksum >> 8)) {
 353:Service/../MAVLink/common/../mavlink_helpers.h **** 			// got a bad CRC message
 354:Service/../MAVLink/common/../mavlink_helpers.h **** 			status->msg_received = MAVLINK_FRAMING_BAD_CRC;
 355:Service/../MAVLink/common/../mavlink_helpers.h **** 		} else {
 356:Service/../MAVLink/common/../mavlink_helpers.h **** 			// Successfully got message
 357:Service/../MAVLink/common/../mavlink_helpers.h **** 			status->msg_received = MAVLINK_FRAMING_OK;
 358:Service/../MAVLink/common/../mavlink_helpers.h ****                 }
 359:Service/../MAVLink/common/../mavlink_helpers.h ****                 status->parse_state = MAVLINK_PARSE_STATE_IDLE;
 360:Service/../MAVLink/common/../mavlink_helpers.h ****                 _MAV_PAYLOAD_NON_CONST(rxmsg)[status->packet_idx+1] = (char)c;
 361:Service/../MAVLink/common/../mavlink_helpers.h ****                 memcpy(r_message, rxmsg, sizeof(mavlink_message_t));
 362:Service/../MAVLink/common/../mavlink_helpers.h **** 		break;
 363:Service/../MAVLink/common/../mavlink_helpers.h **** 	}
 364:Service/../MAVLink/common/../mavlink_helpers.h **** 
 365:Service/../MAVLink/common/../mavlink_helpers.h **** 	// If a message has been successfully decoded, check index
 366:Service/../MAVLink/common/../mavlink_helpers.h **** 	if (status->msg_received == MAVLINK_FRAMING_OK)
 4832              		.loc 2 366 2 is_stmt 1 view .LVU1558
 4833              		.loc 2 366 12 is_stmt 0 view .LVU1559
 4834 009e 9B4B     		ldr	r3, .L197
 4835 00a0 1B78     		ldrb	r3, [r3]	@ zero_extendqisi2
 4836              		.loc 2 366 5 view .LVU1560
 4837 00a2 012B     		cmp	r3, #1
 4838 00a4 00F00981 		beq	.L191
 4839              	.L171:
 367:Service/../MAVLink/common/../mavlink_helpers.h **** 	{
 368:Service/../MAVLink/common/../mavlink_helpers.h **** 		//while(status->current_seq != rxmsg->seq)
 369:Service/../MAVLink/common/../mavlink_helpers.h **** 		//{
 370:Service/../MAVLink/common/../mavlink_helpers.h **** 		//	status->packet_rx_drop_count++;
 371:Service/../MAVLink/common/../mavlink_helpers.h **** 		//               status->current_seq++;
 372:Service/../MAVLink/common/../mavlink_helpers.h **** 		//}
 373:Service/../MAVLink/common/../mavlink_helpers.h **** 		status->current_rx_seq = rxmsg->seq;
 374:Service/../MAVLink/common/../mavlink_helpers.h **** 		// Initial condition: If no packet has been received so far, drop count is undefined
 375:Service/../MAVLink/common/../mavlink_helpers.h **** 		if (status->packet_rx_success_count == 0) status->packet_rx_drop_count = 0;
 376:Service/../MAVLink/common/../mavlink_helpers.h **** 		// Count this packet as received
ARM GAS  C:\Users\8bit\AppData\Local\Temp\ccCRhmZR.s 			page 199


 377:Service/../MAVLink/common/../mavlink_helpers.h **** 		status->packet_rx_success_count++;
 378:Service/../MAVLink/common/../mavlink_helpers.h **** 	}
 379:Service/../MAVLink/common/../mavlink_helpers.h **** 
 380:Service/../MAVLink/common/../mavlink_helpers.h **** 	r_message->len = rxmsg->len; // Provide visibility on how far we are into current msg
 4840              		.loc 2 380 2 is_stmt 1 view .LVU1561
 4841              		.loc 2 380 24 is_stmt 0 view .LVU1562
 4842 00a8 994B     		ldr	r3, .L197+4
 4843 00aa DB78     		ldrb	r3, [r3, #3]	@ zero_extendqisi2
 4844              		.loc 2 380 17 view .LVU1563
 4845 00ac 8DF81F31 		strb	r3, [sp, #287]
 381:Service/../MAVLink/common/../mavlink_helpers.h **** 	r_mavlink_status->parse_state = status->parse_state;
 4846              		.loc 2 381 2 is_stmt 1 view .LVU1564
 4847              		.loc 2 381 40 is_stmt 0 view .LVU1565
 4848 00b0 964C     		ldr	r4, .L197
 4849 00b2 E378     		ldrb	r3, [r4, #3]	@ zero_extendqisi2
 4850              		.loc 2 381 32 view .LVU1566
 4851 00b4 8DF81331 		strb	r3, [sp, #275]
 382:Service/../MAVLink/common/../mavlink_helpers.h **** 	r_mavlink_status->packet_idx = status->packet_idx;
 4852              		.loc 2 382 2 is_stmt 1 view .LVU1567
 4853              		.loc 2 382 39 is_stmt 0 view .LVU1568
 4854 00b8 2379     		ldrb	r3, [r4, #4]	@ zero_extendqisi2
 4855              		.loc 2 382 31 view .LVU1569
 4856 00ba 8DF81431 		strb	r3, [sp, #276]
 383:Service/../MAVLink/common/../mavlink_helpers.h **** 	r_mavlink_status->current_rx_seq = status->current_rx_seq+1;
 4857              		.loc 2 383 2 is_stmt 1 view .LVU1570
 4858              		.loc 2 383 43 is_stmt 0 view .LVU1571
 4859 00be 6379     		ldrb	r3, [r4, #5]	@ zero_extendqisi2
 4860              		.loc 2 383 59 view .LVU1572
 4861 00c0 0133     		adds	r3, r3, #1
 4862              		.loc 2 383 35 view .LVU1573
 4863 00c2 8DF81531 		strb	r3, [sp, #277]
 384:Service/../MAVLink/common/../mavlink_helpers.h **** 	r_mavlink_status->packet_rx_success_count = status->packet_rx_success_count;
 4864              		.loc 2 384 2 is_stmt 1 view .LVU1574
 4865              		.loc 2 384 52 is_stmt 0 view .LVU1575
 4866 00c6 2389     		ldrh	r3, [r4, #8]
 4867              		.loc 2 384 44 view .LVU1576
 4868 00c8 ADF81831 		strh	r3, [sp, #280]	@ movhi
 385:Service/../MAVLink/common/../mavlink_helpers.h **** 	r_mavlink_status->packet_rx_drop_count = status->parse_error;
 4869              		.loc 2 385 2 is_stmt 1 view .LVU1577
 4870              		.loc 2 385 49 is_stmt 0 view .LVU1578
 4871 00cc A378     		ldrb	r3, [r4, #2]	@ zero_extendqisi2
 4872              		.loc 2 385 41 view .LVU1579
 4873 00ce ADF81A31 		strh	r3, [sp, #282]	@ movhi
 386:Service/../MAVLink/common/../mavlink_helpers.h **** 	status->parse_error = 0;
 4874              		.loc 2 386 2 is_stmt 1 view .LVU1580
 4875              		.loc 2 386 22 is_stmt 0 view .LVU1581
 4876 00d2 0023     		movs	r3, #0
 4877 00d4 A370     		strb	r3, [r4, #2]
 387:Service/../MAVLink/common/../mavlink_helpers.h **** 
 388:Service/../MAVLink/common/../mavlink_helpers.h **** 	if (status->msg_received == MAVLINK_FRAMING_BAD_CRC) {
 4878              		.loc 2 388 2 is_stmt 1 view .LVU1582
 4879              		.loc 2 388 12 is_stmt 0 view .LVU1583
 4880 00d6 2378     		ldrb	r3, [r4]	@ zero_extendqisi2
 4881              		.loc 2 388 5 view .LVU1584
 4882 00d8 022B     		cmp	r3, #2
 4883 00da 00F0FB80 		beq	.L192
 4884              	.L173:
ARM GAS  C:\Users\8bit\AppData\Local\Temp\ccCRhmZR.s 			page 200


 389:Service/../MAVLink/common/../mavlink_helpers.h **** 		/*
 390:Service/../MAVLink/common/../mavlink_helpers.h **** 		  the CRC came out wrong. We now need to overwrite the
 391:Service/../MAVLink/common/../mavlink_helpers.h **** 		  msg CRC with the one on the wire so that if the
 392:Service/../MAVLink/common/../mavlink_helpers.h **** 		  caller decides to forward the message anyway that
 393:Service/../MAVLink/common/../mavlink_helpers.h **** 		  mavlink_msg_to_send_buffer() won't overwrite the
 394:Service/../MAVLink/common/../mavlink_helpers.h **** 		  checksum
 395:Service/../MAVLink/common/../mavlink_helpers.h **** 		 */
 396:Service/../MAVLink/common/../mavlink_helpers.h **** 		r_message->checksum = _MAV_PAYLOAD(rxmsg)[status->packet_idx] | (_MAV_PAYLOAD(rxmsg)[status->pack
 397:Service/../MAVLink/common/../mavlink_helpers.h **** 	}
 398:Service/../MAVLink/common/../mavlink_helpers.h **** 
 399:Service/../MAVLink/common/../mavlink_helpers.h **** 	return status->msg_received;
 4885              		.loc 2 399 2 is_stmt 1 view .LVU1585
 4886              		.loc 2 399 15 is_stmt 0 view .LVU1586
 4887 00de 8B4B     		ldr	r3, .L197
 4888 00e0 1B78     		ldrb	r3, [r3]	@ zero_extendqisi2
 4889              	.LVL394:
 4890              		.loc 2 399 15 view .LVU1587
 4891              	.LBE446:
 4892              	.LBE454:
 4893              	.LBE462:
 554:Service/Srv_ComProto.c ****     {
 555:Service/Srv_ComProto.c ****         mav_decode = mavlink_frame_char(default_channel, p_data[i], &mav_msg, &mav_sta);
 4894              		.loc 1 555 20 view .LVU1588
 4895 00e2 8DF80F31 		strb	r3, [sp, #271]
 556:Service/Srv_ComProto.c **** 
 557:Service/Srv_ComProto.c ****         if (mav_decode == MAVLINK_FRAMING_OK)
 4896              		.loc 1 557 9 is_stmt 1 view .LVU1589
 4897              		.loc 1 557 24 is_stmt 0 view .LVU1590
 4898 00e6 9DF80F41 		ldrb	r4, [sp, #271]	@ zero_extendqisi2
 4899 00ea E4B2     		uxtb	r4, r4
 4900              		.loc 1 557 12 view .LVU1591
 4901 00ec 012C     		cmp	r4, #1
 4902 00ee 00F0FB80 		beq	.L193
 558:Service/Srv_ComProto.c ****         {
 559:Service/Srv_ComProto.c ****             /* get multi protocol frame in one transmition and first protocol frame is mavlink mess
 560:Service/Srv_ComProto.c ****             /* only decode first pack */
 561:Service/Srv_ComProto.c ****             if (obj && (mav_msg.sysid == MAV_SysID_Radio))
 562:Service/Srv_ComProto.c ****             {
 563:Service/Srv_ComProto.c ****                 switch ((uint8_t)mav_msg.compid)
 564:Service/Srv_ComProto.c ****                 {
 565:Service/Srv_ComProto.c ****                     case MAV_CompoID_Ctl_Gyro:          SrvComProto_MavMsg_Decode_ExpGyro(obj, mav_
 566:Service/Srv_ComProto.c ****                     case MAV_CompoID_Ctl_Attitude:      SrvComProto_MavMsg_Decode_ExpAttiude(obj, m
 567:Service/Srv_ComProto.c ****                     case MAV_CompoID_Ctl_Altitude:      SrvComProto_MavMsg_Decode_ExpAlt(obj, mav_m
 568:Service/Srv_ComProto.c ****                     case MAV_CompoID_Ctl_RC_Channel:    SrvComProto_MavMsg_Decode_ExpRC(obj, mav_ms
 569:Service/Srv_ComProto.c ****                     case MAV_CompoID_Ctl_MotoCtl:       SrvComProto_MavMsg_Decode_ExpMoto(obj, mav_
 570:Service/Srv_ComProto.c ****                     case MAV_CompoID_Ctl_PIDPara_GyrX:  SrvComProto_MavMsg_Decode_PIDPara_GyroX(obj
 571:Service/Srv_ComProto.c ****                     case MAV_CompoID_Ctl_PIDPara_GyrY:  SrvComProto_MavMsg_Decode_PIDPara_GyroY(obj
 572:Service/Srv_ComProto.c ****                     case MAV_CompoID_Ctl_PIDPara_GyrZ:  SrvComProto_MavMsg_Decode_PIDPara_GyroZ(obj
 573:Service/Srv_ComProto.c ****                     case MAV_CompoID_Ctl_PIDPara_Roll:  SrvComProto_MavMsg_Decode_PIDPara_Roll(obj,
 574:Service/Srv_ComProto.c ****                     case MAV_CompoID_Ctl_PIDPata_Pitch: SrvComProto_MavMsg_Decode_PIDPara_Pitch(obj
 575:Service/Srv_ComProto.c ****                     default: break;
 576:Service/Srv_ComProto.c ****                 }
 577:Service/Srv_ComProto.c ****             }
 578:Service/Srv_ComProto.c ****             
 579:Service/Srv_ComProto.c ****             /* mavlink frame ack */
 580:Service/Srv_ComProto.c ****             // SrvComProto_MavMsg_Ack(obj, MAV_SysID_Drone, uint16_t compo_id, decode_state);
 581:Service/Srv_ComProto.c **** 
ARM GAS  C:\Users\8bit\AppData\Local\Temp\ccCRhmZR.s 			page 201


 582:Service/Srv_ComProto.c ****             memset(&mav_msg, 0, sizeof(mavlink_message_t));
 583:Service/Srv_ComProto.c ****             memset(&mav_sta, 0, sizeof(mavlink_status_t));
 584:Service/Srv_ComProto.c ****         }
 585:Service/Srv_ComProto.c ****         else if (mav_decode == MAVLINK_FRAMING_BAD_CRC)
 4903              		.loc 1 585 14 is_stmt 1 view .LVU1592
 4904              		.loc 1 585 29 is_stmt 0 view .LVU1593
 4905 00f2 9DF80F31 		ldrb	r3, [sp, #271]	@ zero_extendqisi2
 4906 00f6 DBB2     		uxtb	r3, r3
 4907              		.loc 1 585 17 view .LVU1594
 4908 00f8 022B     		cmp	r3, #2
 4909 00fa 00F09D81 		beq	.L194
 4910              	.L187:
 553:Service/Srv_ComProto.c ****     {
 4911              		.loc 1 553 35 is_stmt 1 discriminator 2 view .LVU1595
 553:Service/Srv_ComProto.c ****     {
 4912              		.loc 1 553 36 is_stmt 0 discriminator 2 view .LVU1596
 4913 00fe 0135     		adds	r5, r5, #1
 4914              	.LVL395:
 553:Service/Srv_ComProto.c ****     {
 4915              		.loc 1 553 36 discriminator 2 view .LVU1597
 4916 0100 ADB2     		uxth	r5, r5
 4917              	.LVL396:
 4918              	.L153:
 553:Service/Srv_ComProto.c ****     {
 4919              		.loc 1 553 25 is_stmt 1 discriminator 1 view .LVU1598
 553:Service/Srv_ComProto.c ****     {
 4920              		.loc 1 553 5 is_stmt 0 discriminator 1 view .LVU1599
 4921 0102 B542     		cmp	r5, r6
 4922 0104 80F0A381 		bcs	.L195
 555:Service/Srv_ComProto.c **** 
 4923              		.loc 1 555 9 is_stmt 1 view .LVU1600
 555:Service/Srv_ComProto.c **** 
 4924              		.loc 1 555 22 is_stmt 0 view .LVU1601
 4925 0108 7A5D     		ldrb	r2, [r7, r5]	@ zero_extendqisi2
 4926              	.LVL397:
 4927              	.LBB463:
 4928              	.LBI411:
 400:Service/../MAVLink/common/../mavlink_helpers.h **** }
 401:Service/../MAVLink/common/../mavlink_helpers.h **** 
 402:Service/../MAVLink/common/../mavlink_helpers.h **** /**
 403:Service/../MAVLink/common/../mavlink_helpers.h ****  * This is a convenience function which handles the complete MAVLink parsing.
 404:Service/../MAVLink/common/../mavlink_helpers.h ****  * the function will parse one byte at a time and return the complete packet once
 405:Service/../MAVLink/common/../mavlink_helpers.h ****  * it could be successfully decoded. This function will return 0, 1 or
 406:Service/../MAVLink/common/../mavlink_helpers.h ****  * 2 (MAVLINK_FRAMING_INCOMPLETE, MAVLINK_FRAMING_OK or MAVLINK_FRAMING_BAD_CRC)
 407:Service/../MAVLink/common/../mavlink_helpers.h ****  *
 408:Service/../MAVLink/common/../mavlink_helpers.h ****  * Messages are parsed into an internal buffer (one for each channel). When a complete
 409:Service/../MAVLink/common/../mavlink_helpers.h ****  * message is received it is copies into *r_message and the channel's status is
 410:Service/../MAVLink/common/../mavlink_helpers.h ****  * copied into *r_mavlink_status.
 411:Service/../MAVLink/common/../mavlink_helpers.h ****  *
 412:Service/../MAVLink/common/../mavlink_helpers.h ****  * @param chan     ID of the channel to be parsed.
 413:Service/../MAVLink/common/../mavlink_helpers.h ****  *                 A channel is not a physical message channel like a serial port, but a logical pa
 414:Service/../MAVLink/common/../mavlink_helpers.h ****  *                 the communication streams. COMM_NB is the limit for the number of channels
 415:Service/../MAVLink/common/../mavlink_helpers.h ****  *                 on MCU (e.g. ARM7), while COMM_NB_HIGH is the limit for the number of channels i
 416:Service/../MAVLink/common/../mavlink_helpers.h ****  * @param c        The char to parse
 417:Service/../MAVLink/common/../mavlink_helpers.h ****  *
 418:Service/../MAVLink/common/../mavlink_helpers.h ****  * @param r_message NULL if no message could be decoded, the message data else
 419:Service/../MAVLink/common/../mavlink_helpers.h ****  * @param r_mavlink_status if a message was decoded, this is filled with the channel's stats
ARM GAS  C:\Users\8bit\AppData\Local\Temp\ccCRhmZR.s 			page 202


 420:Service/../MAVLink/common/../mavlink_helpers.h ****  * @return 0 if no message could be decoded, 1 on good message and CRC, 2 on bad CRC
 421:Service/../MAVLink/common/../mavlink_helpers.h ****  *
 422:Service/../MAVLink/common/../mavlink_helpers.h ****  * A typical use scenario of this function call is:
 423:Service/../MAVLink/common/../mavlink_helpers.h ****  *
 424:Service/../MAVLink/common/../mavlink_helpers.h ****  * @code
 425:Service/../MAVLink/common/../mavlink_helpers.h ****  * #include <mavlink.h>
 426:Service/../MAVLink/common/../mavlink_helpers.h ****  *
 427:Service/../MAVLink/common/../mavlink_helpers.h ****  * mavlink_status_t status;
 428:Service/../MAVLink/common/../mavlink_helpers.h ****  * mavlink_message_t msg;
 429:Service/../MAVLink/common/../mavlink_helpers.h ****  * int chan = 0;
 430:Service/../MAVLink/common/../mavlink_helpers.h ****  *
 431:Service/../MAVLink/common/../mavlink_helpers.h ****  *
 432:Service/../MAVLink/common/../mavlink_helpers.h ****  * while(serial.bytesAvailable > 0)
 433:Service/../MAVLink/common/../mavlink_helpers.h ****  * {
 434:Service/../MAVLink/common/../mavlink_helpers.h ****  *   uint8_t byte = serial.getNextByte();
 435:Service/../MAVLink/common/../mavlink_helpers.h ****  *   if (mavlink_frame_char(chan, byte, &msg, &status) != MAVLINK_FRAMING_INCOMPLETE)
 436:Service/../MAVLink/common/../mavlink_helpers.h ****  *     {
 437:Service/../MAVLink/common/../mavlink_helpers.h ****  *     printf("Received message with ID %d, sequence: %d from component %d of system %d", msg.msgid
 438:Service/../MAVLink/common/../mavlink_helpers.h ****  *     }
 439:Service/../MAVLink/common/../mavlink_helpers.h ****  * }
 440:Service/../MAVLink/common/../mavlink_helpers.h ****  *
 441:Service/../MAVLink/common/../mavlink_helpers.h ****  *
 442:Service/../MAVLink/common/../mavlink_helpers.h ****  * @endcode
 443:Service/../MAVLink/common/../mavlink_helpers.h ****  */
 444:Service/../MAVLink/common/../mavlink_helpers.h **** MAVLINK_HELPER uint8_t mavlink_frame_char(uint8_t chan, uint8_t c, mavlink_message_t* r_message, ma
 4929              		.loc 2 444 24 is_stmt 1 view .LVU1602
 4930              	.LBE463:
 4931              	.LBE472:
 445:Service/../MAVLink/common/../mavlink_helpers.h **** {
 446:Service/../MAVLink/common/../mavlink_helpers.h **** 	return mavlink_frame_char_buffer(mavlink_get_channel_buffer(chan),
 4932              		.loc 2 446 2 view .LVU1603
  40:Service/../MAVLink/common/../mavlink_helpers.h **** #endif
 4933              		.loc 2 40 2 view .LVU1604
  42:Service/../MAVLink/common/../mavlink_helpers.h **** }
 4934              		.loc 2 42 2 view .LVU1605
  23:Service/../MAVLink/common/../mavlink_helpers.h **** #endif
 4935              		.loc 2 23 2 view .LVU1606
  25:Service/../MAVLink/common/../mavlink_helpers.h **** }
 4936              		.loc 2 25 2 view .LVU1607
 4937              	.LBB473:
 4938              	.LBB464:
 4939              	.LBB455:
 4940              	.LBI412:
 221:Service/../MAVLink/common/../mavlink_helpers.h ****                                                  mavlink_status_t* status,
 4941              		.loc 2 221 24 view .LVU1608
 4942              	.LBB447:
 233:Service/../MAVLink/common/../mavlink_helpers.h **** #define MAVLINK_MESSAGE_CRC(msgid) mavlink_message_crcs[msgid]
 4943              		.loc 2 233 2 view .LVU1609
 251:Service/../MAVLink/common/../mavlink_helpers.h **** 
 4944              		.loc 2 251 2 view .LVU1610
 251:Service/../MAVLink/common/../mavlink_helpers.h **** 
 4945              		.loc 2 251 23 is_stmt 0 view .LVU1611
 4946 010a 804B     		ldr	r3, .L197
 4947 010c 0021     		movs	r1, #0
 4948 010e 1970     		strb	r1, [r3]
 253:Service/../MAVLink/common/../mavlink_helpers.h **** 	{
 4949              		.loc 2 253 2 is_stmt 1 view .LVU1612
ARM GAS  C:\Users\8bit\AppData\Local\Temp\ccCRhmZR.s 			page 203


 253:Service/../MAVLink/common/../mavlink_helpers.h **** 	{
 4950              		.loc 2 253 16 is_stmt 0 view .LVU1613
 4951 0110 DB78     		ldrb	r3, [r3, #3]	@ zero_extendqisi2
 253:Service/../MAVLink/common/../mavlink_helpers.h **** 	{
 4952              		.loc 2 253 2 view .LVU1614
 4953 0112 0A2B     		cmp	r3, #10
 4954 0114 C3D8     		bhi	.L154
 4955 0116 01A1     		adr	r1, .L156
 4956 0118 51F823F0 		ldr	pc, [r1, r3, lsl #2]
 4957              		.p2align 2
 4958              	.L156:
 4959 011c 59000000 		.word	.L164+1
 4960 0120 59000000 		.word	.L164+1
 4961 0124 73000000 		.word	.L163+1
 4962 0128 73010000 		.word	.L162+1
 4963 012c 49010000 		.word	.L161+1
 4964 0130 9D010000 		.word	.L160+1
 4965 0134 C7010000 		.word	.L159+1
 4966 0138 FD010000 		.word	.L158+1
 4967 013c 3B020000 		.word	.L157+1
 4968 0140 7F020000 		.word	.L155+1
 4969 0144 7F020000 		.word	.L155+1
 4970              		.p2align 1
 4971              	.L161:
 291:Service/../MAVLink/common/../mavlink_helpers.h **** 		mavlink_update_checksum(rxmsg, c);
 4972              		.loc 2 291 3 is_stmt 1 view .LVU1615
 291:Service/../MAVLink/common/../mavlink_helpers.h **** 		mavlink_update_checksum(rxmsg, c);
 4973              		.loc 2 291 14 is_stmt 0 view .LVU1616
 4974 0148 7149     		ldr	r1, .L197+4
 4975 014a 0A71     		strb	r2, [r1, #4]
 292:Service/../MAVLink/common/../mavlink_helpers.h **** 		status->parse_state = MAVLINK_PARSE_STATE_GOT_SEQ;
 4976              		.loc 2 292 3 is_stmt 1 view .LVU1617
 4977              	.LVL398:
 4978              	.LBB422:
 4979              	.LBI422:
 203:Service/../MAVLink/common/../mavlink_helpers.h **** {
 4980              		.loc 2 203 21 view .LVU1618
 4981              	.LBE422:
 4982              	.LBE447:
 4983              	.LBE455:
 4984              	.LBE464:
 4985              	.LBE473:
 205:Service/../MAVLink/common/../mavlink_helpers.h **** }
 4986              		.loc 2 205 2 view .LVU1619
 4987              	.LBB474:
 4988              	.LBB465:
 4989              	.LBB456:
 4990              	.LBB448:
 4991              	.LBB425:
 4992              	.LBB423:
 4993              	.LBI423:
  34:Service/../MAVLink/common/../checksum.h **** {
 4994              		.loc 14 34 20 view .LVU1620
 4995              	.LBB424:
  37:Service/../MAVLink/common/../checksum.h **** 
 4996              		.loc 14 37 9 view .LVU1621
  39:Service/../MAVLink/common/../checksum.h ****         tmp ^= (tmp<<4);
ARM GAS  C:\Users\8bit\AppData\Local\Temp\ccCRhmZR.s 			page 204


 4997              		.loc 14 39 9 view .LVU1622
  39:Service/../MAVLink/common/../checksum.h ****         tmp ^= (tmp<<4);
 4998              		.loc 14 39 32 is_stmt 0 view .LVU1623
 4999 014c 0B88     		ldrh	r3, [r1]
  39:Service/../MAVLink/common/../checksum.h ****         tmp ^= (tmp<<4);
 5000              		.loc 14 39 22 view .LVU1624
 5001 014e D8B2     		uxtb	r0, r3
  39:Service/../MAVLink/common/../checksum.h ****         tmp ^= (tmp<<4);
 5002              		.loc 14 39 13 view .LVU1625
 5003 0150 4240     		eors	r2, r2, r0
 5004              	.LVL399:
  40:Service/../MAVLink/common/../checksum.h ****         *crcAccum = (*crcAccum>>8) ^ (tmp<<8) ^ (tmp <<3) ^ (tmp>>4);
 5005              		.loc 14 40 9 is_stmt 1 view .LVU1626
  40:Service/../MAVLink/common/../checksum.h ****         *crcAccum = (*crcAccum>>8) ^ (tmp<<8) ^ (tmp <<3) ^ (tmp>>4);
 5006              		.loc 14 40 13 is_stmt 0 view .LVU1627
 5007 0152 82EA0212 		eor	r2, r2, r2, lsl #4
 5008              	.LVL400:
  40:Service/../MAVLink/common/../checksum.h ****         *crcAccum = (*crcAccum>>8) ^ (tmp<<8) ^ (tmp <<3) ^ (tmp>>4);
 5009              		.loc 14 40 13 view .LVU1628
 5010 0156 D2B2     		uxtb	r2, r2
 5011              	.LVL401:
  41:Service/../MAVLink/common/../checksum.h **** }
 5012              		.loc 14 41 9 is_stmt 1 view .LVU1629
  41:Service/../MAVLink/common/../checksum.h **** }
 5013              		.loc 14 41 36 is_stmt 0 view .LVU1630
 5014 0158 1B0A     		lsrs	r3, r3, #8
 5015 015a 43EA0223 		orr	r3, r3, r2, lsl #8
 5016 015e 1BB2     		sxth	r3, r3
  41:Service/../MAVLink/common/../checksum.h **** }
 5017              		.loc 14 41 47 view .LVU1631
 5018 0160 83EAC203 		eor	r3, r3, r2, lsl #3
  41:Service/../MAVLink/common/../checksum.h **** }
 5019              		.loc 14 41 59 view .LVU1632
 5020 0164 83EA1213 		eor	r3, r3, r2, lsr #4
  41:Service/../MAVLink/common/../checksum.h **** }
 5021              		.loc 14 41 19 view .LVU1633
 5022 0168 0B80     		strh	r3, [r1]	@ movhi
 5023              	.LVL402:
  41:Service/../MAVLink/common/../checksum.h **** }
 5024              		.loc 14 41 19 view .LVU1634
 5025              	.LBE424:
 5026              	.LBE423:
 5027              	.LBE425:
 293:Service/../MAVLink/common/../mavlink_helpers.h **** 		break;
 5028              		.loc 2 293 3 is_stmt 1 view .LVU1635
 293:Service/../MAVLink/common/../mavlink_helpers.h **** 		break;
 5029              		.loc 2 293 23 is_stmt 0 view .LVU1636
 5030 016a 684B     		ldr	r3, .L197
 5031 016c 0322     		movs	r2, #3
 5032 016e DA70     		strb	r2, [r3, #3]
 294:Service/../MAVLink/common/../mavlink_helpers.h **** 
 5033              		.loc 2 294 3 is_stmt 1 view .LVU1637
 5034 0170 95E7     		b	.L154
 5035              	.LVL403:
 5036              	.L162:
 297:Service/../MAVLink/common/../mavlink_helpers.h **** 		mavlink_update_checksum(rxmsg, c);
 5037              		.loc 2 297 3 view .LVU1638
ARM GAS  C:\Users\8bit\AppData\Local\Temp\ccCRhmZR.s 			page 205


 297:Service/../MAVLink/common/../mavlink_helpers.h **** 		mavlink_update_checksum(rxmsg, c);
 5038              		.loc 2 297 16 is_stmt 0 view .LVU1639
 5039 0172 6749     		ldr	r1, .L197+4
 5040 0174 4A71     		strb	r2, [r1, #5]
 298:Service/../MAVLink/common/../mavlink_helpers.h **** 		status->parse_state = MAVLINK_PARSE_STATE_GOT_SYSID;
 5041              		.loc 2 298 3 is_stmt 1 view .LVU1640
 5042              	.LVL404:
 5043              	.LBB426:
 5044              	.LBI426:
 203:Service/../MAVLink/common/../mavlink_helpers.h **** {
 5045              		.loc 2 203 21 view .LVU1641
 5046              	.LBE426:
 5047              	.LBE448:
 5048              	.LBE456:
 5049              	.LBE465:
 5050              	.LBE474:
 205:Service/../MAVLink/common/../mavlink_helpers.h **** }
 5051              		.loc 2 205 2 view .LVU1642
 5052              	.LBB475:
 5053              	.LBB466:
 5054              	.LBB457:
 5055              	.LBB449:
 5056              	.LBB429:
 5057              	.LBB427:
 5058              	.LBI427:
  34:Service/../MAVLink/common/../checksum.h **** {
 5059              		.loc 14 34 20 view .LVU1643
 5060              	.LBB428:
  37:Service/../MAVLink/common/../checksum.h **** 
 5061              		.loc 14 37 9 view .LVU1644
  39:Service/../MAVLink/common/../checksum.h ****         tmp ^= (tmp<<4);
 5062              		.loc 14 39 9 view .LVU1645
  39:Service/../MAVLink/common/../checksum.h ****         tmp ^= (tmp<<4);
 5063              		.loc 14 39 32 is_stmt 0 view .LVU1646
 5064 0176 0B88     		ldrh	r3, [r1]
  39:Service/../MAVLink/common/../checksum.h ****         tmp ^= (tmp<<4);
 5065              		.loc 14 39 22 view .LVU1647
 5066 0178 D8B2     		uxtb	r0, r3
  39:Service/../MAVLink/common/../checksum.h ****         tmp ^= (tmp<<4);
 5067              		.loc 14 39 13 view .LVU1648
 5068 017a 4240     		eors	r2, r2, r0
 5069              	.LVL405:
  40:Service/../MAVLink/common/../checksum.h ****         *crcAccum = (*crcAccum>>8) ^ (tmp<<8) ^ (tmp <<3) ^ (tmp>>4);
 5070              		.loc 14 40 9 is_stmt 1 view .LVU1649
  40:Service/../MAVLink/common/../checksum.h ****         *crcAccum = (*crcAccum>>8) ^ (tmp<<8) ^ (tmp <<3) ^ (tmp>>4);
 5071              		.loc 14 40 13 is_stmt 0 view .LVU1650
 5072 017c 82EA0212 		eor	r2, r2, r2, lsl #4
 5073              	.LVL406:
  40:Service/../MAVLink/common/../checksum.h ****         *crcAccum = (*crcAccum>>8) ^ (tmp<<8) ^ (tmp <<3) ^ (tmp>>4);
 5074              		.loc 14 40 13 view .LVU1651
 5075 0180 D2B2     		uxtb	r2, r2
 5076              	.LVL407:
  41:Service/../MAVLink/common/../checksum.h **** }
 5077              		.loc 14 41 9 is_stmt 1 view .LVU1652
  41:Service/../MAVLink/common/../checksum.h **** }
 5078              		.loc 14 41 36 is_stmt 0 view .LVU1653
 5079 0182 1B0A     		lsrs	r3, r3, #8
ARM GAS  C:\Users\8bit\AppData\Local\Temp\ccCRhmZR.s 			page 206


 5080 0184 43EA0223 		orr	r3, r3, r2, lsl #8
 5081 0188 1BB2     		sxth	r3, r3
  41:Service/../MAVLink/common/../checksum.h **** }
 5082              		.loc 14 41 47 view .LVU1654
 5083 018a 83EAC203 		eor	r3, r3, r2, lsl #3
  41:Service/../MAVLink/common/../checksum.h **** }
 5084              		.loc 14 41 59 view .LVU1655
 5085 018e 83EA1213 		eor	r3, r3, r2, lsr #4
  41:Service/../MAVLink/common/../checksum.h **** }
 5086              		.loc 14 41 19 view .LVU1656
 5087 0192 0B80     		strh	r3, [r1]	@ movhi
 5088              	.LVL408:
  41:Service/../MAVLink/common/../checksum.h **** }
 5089              		.loc 14 41 19 view .LVU1657
 5090              	.LBE428:
 5091              	.LBE427:
 5092              	.LBE429:
 299:Service/../MAVLink/common/../mavlink_helpers.h **** 		break;
 5093              		.loc 2 299 3 is_stmt 1 view .LVU1658
 299:Service/../MAVLink/common/../mavlink_helpers.h **** 		break;
 5094              		.loc 2 299 23 is_stmt 0 view .LVU1659
 5095 0194 5D4B     		ldr	r3, .L197
 5096 0196 0522     		movs	r2, #5
 5097 0198 DA70     		strb	r2, [r3, #3]
 300:Service/../MAVLink/common/../mavlink_helpers.h **** 
 5098              		.loc 2 300 3 is_stmt 1 view .LVU1660
 5099 019a 80E7     		b	.L154
 5100              	.LVL409:
 5101              	.L160:
 303:Service/../MAVLink/common/../mavlink_helpers.h **** 		mavlink_update_checksum(rxmsg, c);
 5102              		.loc 2 303 3 view .LVU1661
 303:Service/../MAVLink/common/../mavlink_helpers.h **** 		mavlink_update_checksum(rxmsg, c);
 5103              		.loc 2 303 17 is_stmt 0 view .LVU1662
 5104 019c 5C49     		ldr	r1, .L197+4
 5105 019e 8A71     		strb	r2, [r1, #6]
 304:Service/../MAVLink/common/../mavlink_helpers.h **** 		status->parse_state = MAVLINK_PARSE_STATE_GOT_COMPID;
 5106              		.loc 2 304 3 is_stmt 1 view .LVU1663
 5107              	.LVL410:
 5108              	.LBB430:
 5109              	.LBI430:
 203:Service/../MAVLink/common/../mavlink_helpers.h **** {
 5110              		.loc 2 203 21 view .LVU1664
 5111              	.LBE430:
 5112              	.LBE449:
 5113              	.LBE457:
 5114              	.LBE466:
 5115              	.LBE475:
 205:Service/../MAVLink/common/../mavlink_helpers.h **** }
 5116              		.loc 2 205 2 view .LVU1665
 5117              	.LBB476:
 5118              	.LBB467:
 5119              	.LBB458:
 5120              	.LBB450:
 5121              	.LBB433:
 5122              	.LBB431:
 5123              	.LBI431:
  34:Service/../MAVLink/common/../checksum.h **** {
ARM GAS  C:\Users\8bit\AppData\Local\Temp\ccCRhmZR.s 			page 207


 5124              		.loc 14 34 20 view .LVU1666
 5125              	.LBB432:
  37:Service/../MAVLink/common/../checksum.h **** 
 5126              		.loc 14 37 9 view .LVU1667
  39:Service/../MAVLink/common/../checksum.h ****         tmp ^= (tmp<<4);
 5127              		.loc 14 39 9 view .LVU1668
  39:Service/../MAVLink/common/../checksum.h ****         tmp ^= (tmp<<4);
 5128              		.loc 14 39 32 is_stmt 0 view .LVU1669
 5129 01a0 0B88     		ldrh	r3, [r1]
  39:Service/../MAVLink/common/../checksum.h ****         tmp ^= (tmp<<4);
 5130              		.loc 14 39 22 view .LVU1670
 5131 01a2 D8B2     		uxtb	r0, r3
  39:Service/../MAVLink/common/../checksum.h ****         tmp ^= (tmp<<4);
 5132              		.loc 14 39 13 view .LVU1671
 5133 01a4 4240     		eors	r2, r2, r0
 5134              	.LVL411:
  40:Service/../MAVLink/common/../checksum.h ****         *crcAccum = (*crcAccum>>8) ^ (tmp<<8) ^ (tmp <<3) ^ (tmp>>4);
 5135              		.loc 14 40 9 is_stmt 1 view .LVU1672
  40:Service/../MAVLink/common/../checksum.h ****         *crcAccum = (*crcAccum>>8) ^ (tmp<<8) ^ (tmp <<3) ^ (tmp>>4);
 5136              		.loc 14 40 13 is_stmt 0 view .LVU1673
 5137 01a6 82EA0212 		eor	r2, r2, r2, lsl #4
 5138              	.LVL412:
  40:Service/../MAVLink/common/../checksum.h ****         *crcAccum = (*crcAccum>>8) ^ (tmp<<8) ^ (tmp <<3) ^ (tmp>>4);
 5139              		.loc 14 40 13 view .LVU1674
 5140 01aa D2B2     		uxtb	r2, r2
 5141              	.LVL413:
  41:Service/../MAVLink/common/../checksum.h **** }
 5142              		.loc 14 41 9 is_stmt 1 view .LVU1675
  41:Service/../MAVLink/common/../checksum.h **** }
 5143              		.loc 14 41 36 is_stmt 0 view .LVU1676
 5144 01ac 1B0A     		lsrs	r3, r3, #8
 5145 01ae 43EA0223 		orr	r3, r3, r2, lsl #8
 5146 01b2 1BB2     		sxth	r3, r3
  41:Service/../MAVLink/common/../checksum.h **** }
 5147              		.loc 14 41 47 view .LVU1677
 5148 01b4 83EAC203 		eor	r3, r3, r2, lsl #3
  41:Service/../MAVLink/common/../checksum.h **** }
 5149              		.loc 14 41 59 view .LVU1678
 5150 01b8 83EA1213 		eor	r3, r3, r2, lsr #4
  41:Service/../MAVLink/common/../checksum.h **** }
 5151              		.loc 14 41 19 view .LVU1679
 5152 01bc 0B80     		strh	r3, [r1]	@ movhi
 5153              	.LVL414:
  41:Service/../MAVLink/common/../checksum.h **** }
 5154              		.loc 14 41 19 view .LVU1680
 5155              	.LBE432:
 5156              	.LBE431:
 5157              	.LBE433:
 305:Service/../MAVLink/common/../mavlink_helpers.h **** 		break;
 5158              		.loc 2 305 3 is_stmt 1 view .LVU1681
 305:Service/../MAVLink/common/../mavlink_helpers.h **** 		break;
 5159              		.loc 2 305 23 is_stmt 0 view .LVU1682
 5160 01be 534B     		ldr	r3, .L197
 5161 01c0 0622     		movs	r2, #6
 5162 01c2 DA70     		strb	r2, [r3, #3]
 306:Service/../MAVLink/common/../mavlink_helpers.h **** 
 5163              		.loc 2 306 3 is_stmt 1 view .LVU1683
ARM GAS  C:\Users\8bit\AppData\Local\Temp\ccCRhmZR.s 			page 208


 5164 01c4 6BE7     		b	.L154
 5165              	.LVL415:
 5166              	.L159:
 317:Service/../MAVLink/common/../mavlink_helpers.h **** 		mavlink_update_checksum(rxmsg, c);
 5167              		.loc 2 317 3 view .LVU1684
 317:Service/../MAVLink/common/../mavlink_helpers.h **** 		mavlink_update_checksum(rxmsg, c);
 5168              		.loc 2 317 16 is_stmt 0 view .LVU1685
 5169 01c6 5249     		ldr	r1, .L197+4
 5170 01c8 CA71     		strb	r2, [r1, #7]
 318:Service/../MAVLink/common/../mavlink_helpers.h **** 		if (rxmsg->len == 0)
 5171              		.loc 2 318 3 is_stmt 1 view .LVU1686
 5172              	.LVL416:
 5173              	.LBB434:
 5174              	.LBI434:
 203:Service/../MAVLink/common/../mavlink_helpers.h **** {
 5175              		.loc 2 203 21 view .LVU1687
 5176              	.LBE434:
 5177              	.LBE450:
 5178              	.LBE458:
 5179              	.LBE467:
 5180              	.LBE476:
 205:Service/../MAVLink/common/../mavlink_helpers.h **** }
 5181              		.loc 2 205 2 view .LVU1688
 5182              	.LBB477:
 5183              	.LBB468:
 5184              	.LBB459:
 5185              	.LBB451:
 5186              	.LBB437:
 5187              	.LBB435:
 5188              	.LBI435:
  34:Service/../MAVLink/common/../checksum.h **** {
 5189              		.loc 14 34 20 view .LVU1689
 5190              	.LBB436:
  37:Service/../MAVLink/common/../checksum.h **** 
 5191              		.loc 14 37 9 view .LVU1690
  39:Service/../MAVLink/common/../checksum.h ****         tmp ^= (tmp<<4);
 5192              		.loc 14 39 9 view .LVU1691
  39:Service/../MAVLink/common/../checksum.h ****         tmp ^= (tmp<<4);
 5193              		.loc 14 39 32 is_stmt 0 view .LVU1692
 5194 01ca 0B88     		ldrh	r3, [r1]
  39:Service/../MAVLink/common/../checksum.h ****         tmp ^= (tmp<<4);
 5195              		.loc 14 39 22 view .LVU1693
 5196 01cc D8B2     		uxtb	r0, r3
  39:Service/../MAVLink/common/../checksum.h ****         tmp ^= (tmp<<4);
 5197              		.loc 14 39 13 view .LVU1694
 5198 01ce 4240     		eors	r2, r2, r0
 5199              	.LVL417:
  40:Service/../MAVLink/common/../checksum.h ****         *crcAccum = (*crcAccum>>8) ^ (tmp<<8) ^ (tmp <<3) ^ (tmp>>4);
 5200              		.loc 14 40 9 is_stmt 1 view .LVU1695
  40:Service/../MAVLink/common/../checksum.h ****         *crcAccum = (*crcAccum>>8) ^ (tmp<<8) ^ (tmp <<3) ^ (tmp>>4);
 5201              		.loc 14 40 13 is_stmt 0 view .LVU1696
 5202 01d0 82EA0212 		eor	r2, r2, r2, lsl #4
 5203              	.LVL418:
  40:Service/../MAVLink/common/../checksum.h ****         *crcAccum = (*crcAccum>>8) ^ (tmp<<8) ^ (tmp <<3) ^ (tmp>>4);
 5204              		.loc 14 40 13 view .LVU1697
 5205 01d4 D2B2     		uxtb	r2, r2
 5206              	.LVL419:
ARM GAS  C:\Users\8bit\AppData\Local\Temp\ccCRhmZR.s 			page 209


  41:Service/../MAVLink/common/../checksum.h **** }
 5207              		.loc 14 41 9 is_stmt 1 view .LVU1698
  41:Service/../MAVLink/common/../checksum.h **** }
 5208              		.loc 14 41 36 is_stmt 0 view .LVU1699
 5209 01d6 1B0A     		lsrs	r3, r3, #8
 5210 01d8 43EA0223 		orr	r3, r3, r2, lsl #8
 5211 01dc 1BB2     		sxth	r3, r3
  41:Service/../MAVLink/common/../checksum.h **** }
 5212              		.loc 14 41 47 view .LVU1700
 5213 01de 83EAC203 		eor	r3, r3, r2, lsl #3
  41:Service/../MAVLink/common/../checksum.h **** }
 5214              		.loc 14 41 59 view .LVU1701
 5215 01e2 83EA1213 		eor	r3, r3, r2, lsr #4
  41:Service/../MAVLink/common/../checksum.h **** }
 5216              		.loc 14 41 19 view .LVU1702
 5217 01e6 0B80     		strh	r3, [r1]	@ movhi
 5218              	.LVL420:
  41:Service/../MAVLink/common/../checksum.h **** }
 5219              		.loc 14 41 19 view .LVU1703
 5220              	.LBE436:
 5221              	.LBE435:
 5222              	.LBE437:
 319:Service/../MAVLink/common/../mavlink_helpers.h **** 		{
 5223              		.loc 2 319 3 is_stmt 1 view .LVU1704
 319:Service/../MAVLink/common/../mavlink_helpers.h **** 		{
 5224              		.loc 2 319 12 is_stmt 0 view .LVU1705
 5225 01e8 CB78     		ldrb	r3, [r1, #3]	@ zero_extendqisi2
 319:Service/../MAVLink/common/../mavlink_helpers.h **** 		{
 5226              		.loc 2 319 6 view .LVU1706
 5227 01ea 1BB9     		cbnz	r3, .L165
 321:Service/../MAVLink/common/../mavlink_helpers.h **** 		}
 5228              		.loc 2 321 4 is_stmt 1 view .LVU1707
 321:Service/../MAVLink/common/../mavlink_helpers.h **** 		}
 5229              		.loc 2 321 24 is_stmt 0 view .LVU1708
 5230 01ec 474B     		ldr	r3, .L197
 5231 01ee 0822     		movs	r2, #8
 5232 01f0 DA70     		strb	r2, [r3, #3]
 5233 01f2 54E7     		b	.L154
 5234              	.L165:
 325:Service/../MAVLink/common/../mavlink_helpers.h **** 		}
 5235              		.loc 2 325 4 is_stmt 1 view .LVU1709
 325:Service/../MAVLink/common/../mavlink_helpers.h **** 		}
 5236              		.loc 2 325 24 is_stmt 0 view .LVU1710
 5237 01f4 454B     		ldr	r3, .L197
 5238 01f6 0722     		movs	r2, #7
 5239 01f8 DA70     		strb	r2, [r3, #3]
 5240 01fa 50E7     		b	.L154
 5241              	.LVL421:
 5242              	.L158:
 330:Service/../MAVLink/common/../mavlink_helpers.h **** 		mavlink_update_checksum(rxmsg, c);
 5243              		.loc 2 330 3 is_stmt 1 view .LVU1711
 330:Service/../MAVLink/common/../mavlink_helpers.h **** 		mavlink_update_checksum(rxmsg, c);
 5244              		.loc 2 330 39 is_stmt 0 view .LVU1712
 5245 01fc 4348     		ldr	r0, .L197
 5246 01fe 0379     		ldrb	r3, [r0, #4]	@ zero_extendqisi2
 330:Service/../MAVLink/common/../mavlink_helpers.h **** 		mavlink_update_checksum(rxmsg, c);
 5247              		.loc 2 330 51 view .LVU1713
ARM GAS  C:\Users\8bit\AppData\Local\Temp\ccCRhmZR.s 			page 210


 5248 0200 591C     		adds	r1, r3, #1
 5249 0202 0171     		strb	r1, [r0, #4]
 330:Service/../MAVLink/common/../mavlink_helpers.h **** 		mavlink_update_checksum(rxmsg, c);
 5250              		.loc 2 330 32 view .LVU1714
 5251 0204 4249     		ldr	r1, .L197+4
 5252 0206 01F10804 		add	r4, r1, #8
 330:Service/../MAVLink/common/../mavlink_helpers.h **** 		mavlink_update_checksum(rxmsg, c);
 5253              		.loc 2 330 55 view .LVU1715
 5254 020a E254     		strb	r2, [r4, r3]
 331:Service/../MAVLink/common/../mavlink_helpers.h **** 		if (status->packet_idx == rxmsg->len)
 5255              		.loc 2 331 3 is_stmt 1 view .LVU1716
 5256              	.LVL422:
 5257              	.LBB438:
 5258              	.LBI438:
 203:Service/../MAVLink/common/../mavlink_helpers.h **** {
 5259              		.loc 2 203 21 view .LVU1717
 5260              	.LBE438:
 5261              	.LBE451:
 5262              	.LBE459:
 5263              	.LBE468:
 5264              	.LBE477:
 205:Service/../MAVLink/common/../mavlink_helpers.h **** }
 5265              		.loc 2 205 2 view .LVU1718
 5266              	.LBB478:
 5267              	.LBB469:
 5268              	.LBB460:
 5269              	.LBB452:
 5270              	.LBB441:
 5271              	.LBB439:
 5272              	.LBI439:
  34:Service/../MAVLink/common/../checksum.h **** {
 5273              		.loc 14 34 20 view .LVU1719
 5274              	.LBB440:
  37:Service/../MAVLink/common/../checksum.h **** 
 5275              		.loc 14 37 9 view .LVU1720
  39:Service/../MAVLink/common/../checksum.h ****         tmp ^= (tmp<<4);
 5276              		.loc 14 39 9 view .LVU1721
  39:Service/../MAVLink/common/../checksum.h ****         tmp ^= (tmp<<4);
 5277              		.loc 14 39 32 is_stmt 0 view .LVU1722
 5278 020c 0B88     		ldrh	r3, [r1]
 5279              	.LVL423:
  39:Service/../MAVLink/common/../checksum.h ****         tmp ^= (tmp<<4);
 5280              		.loc 14 39 22 view .LVU1723
 5281 020e DCB2     		uxtb	r4, r3
  39:Service/../MAVLink/common/../checksum.h ****         tmp ^= (tmp<<4);
 5282              		.loc 14 39 13 view .LVU1724
 5283 0210 6240     		eors	r2, r2, r4
 5284              	.LVL424:
  40:Service/../MAVLink/common/../checksum.h ****         *crcAccum = (*crcAccum>>8) ^ (tmp<<8) ^ (tmp <<3) ^ (tmp>>4);
 5285              		.loc 14 40 9 is_stmt 1 view .LVU1725
  40:Service/../MAVLink/common/../checksum.h ****         *crcAccum = (*crcAccum>>8) ^ (tmp<<8) ^ (tmp <<3) ^ (tmp>>4);
 5286              		.loc 14 40 13 is_stmt 0 view .LVU1726
 5287 0212 82EA0212 		eor	r2, r2, r2, lsl #4
 5288              	.LVL425:
  40:Service/../MAVLink/common/../checksum.h ****         *crcAccum = (*crcAccum>>8) ^ (tmp<<8) ^ (tmp <<3) ^ (tmp>>4);
 5289              		.loc 14 40 13 view .LVU1727
 5290 0216 D2B2     		uxtb	r2, r2
ARM GAS  C:\Users\8bit\AppData\Local\Temp\ccCRhmZR.s 			page 211


 5291              	.LVL426:
  41:Service/../MAVLink/common/../checksum.h **** }
 5292              		.loc 14 41 9 is_stmt 1 view .LVU1728
  41:Service/../MAVLink/common/../checksum.h **** }
 5293              		.loc 14 41 36 is_stmt 0 view .LVU1729
 5294 0218 1B0A     		lsrs	r3, r3, #8
 5295 021a 43EA0223 		orr	r3, r3, r2, lsl #8
 5296 021e 1BB2     		sxth	r3, r3
  41:Service/../MAVLink/common/../checksum.h **** }
 5297              		.loc 14 41 47 view .LVU1730
 5298 0220 83EAC203 		eor	r3, r3, r2, lsl #3
  41:Service/../MAVLink/common/../checksum.h **** }
 5299              		.loc 14 41 59 view .LVU1731
 5300 0224 83EA1213 		eor	r3, r3, r2, lsr #4
  41:Service/../MAVLink/common/../checksum.h **** }
 5301              		.loc 14 41 19 view .LVU1732
 5302 0228 0B80     		strh	r3, [r1]	@ movhi
 5303              	.LVL427:
  41:Service/../MAVLink/common/../checksum.h **** }
 5304              		.loc 14 41 19 view .LVU1733
 5305              	.LBE440:
 5306              	.LBE439:
 5307              	.LBE441:
 332:Service/../MAVLink/common/../mavlink_helpers.h **** 		{
 5308              		.loc 2 332 3 is_stmt 1 view .LVU1734
 332:Service/../MAVLink/common/../mavlink_helpers.h **** 		{
 5309              		.loc 2 332 13 is_stmt 0 view .LVU1735
 5310 022a 0279     		ldrb	r2, [r0, #4]	@ zero_extendqisi2
 332:Service/../MAVLink/common/../mavlink_helpers.h **** 		{
 5311              		.loc 2 332 34 view .LVU1736
 5312 022c CB78     		ldrb	r3, [r1, #3]	@ zero_extendqisi2
 332:Service/../MAVLink/common/../mavlink_helpers.h **** 		{
 5313              		.loc 2 332 6 view .LVU1737
 5314 022e 9A42     		cmp	r2, r3
 5315 0230 7FF435AF 		bne	.L154
 334:Service/../MAVLink/common/../mavlink_helpers.h **** 		}
 5316              		.loc 2 334 4 is_stmt 1 view .LVU1738
 334:Service/../MAVLink/common/../mavlink_helpers.h **** 		}
 5317              		.loc 2 334 24 is_stmt 0 view .LVU1739
 5318 0234 0822     		movs	r2, #8
 5319 0236 C270     		strb	r2, [r0, #3]
 5320 0238 31E7     		b	.L154
 5321              	.LVL428:
 5322              	.L157:
 340:Service/../MAVLink/common/../mavlink_helpers.h **** #endif
 5323              		.loc 2 340 3 is_stmt 1 view .LVU1740
 340:Service/../MAVLink/common/../mavlink_helpers.h **** #endif
 5324              		.loc 2 340 34 is_stmt 0 view .LVU1741
 5325 023a 3548     		ldr	r0, .L197+4
 5326 023c C379     		ldrb	r3, [r0, #7]	@ zero_extendqisi2
 340:Service/../MAVLink/common/../mavlink_helpers.h **** #endif
 5327              		.loc 2 340 3 view .LVU1742
 5328 023e 3549     		ldr	r1, .L197+8
 5329 0240 C95C     		ldrb	r1, [r1, r3]	@ zero_extendqisi2
 5330              	.LVL429:
 5331              	.LBB442:
 5332              	.LBI442:
ARM GAS  C:\Users\8bit\AppData\Local\Temp\ccCRhmZR.s 			page 212


 203:Service/../MAVLink/common/../mavlink_helpers.h **** {
 5333              		.loc 2 203 21 is_stmt 1 view .LVU1743
 5334              	.LBE442:
 5335              	.LBE452:
 5336              	.LBE460:
 5337              	.LBE469:
 5338              	.LBE478:
 205:Service/../MAVLink/common/../mavlink_helpers.h **** }
 5339              		.loc 2 205 2 view .LVU1744
 5340              	.LBB479:
 5341              	.LBB470:
 5342              	.LBB461:
 5343              	.LBB453:
 5344              	.LBB445:
 5345              	.LBB443:
 5346              	.LBI443:
  34:Service/../MAVLink/common/../checksum.h **** {
 5347              		.loc 14 34 20 view .LVU1745
 5348              	.LBB444:
  37:Service/../MAVLink/common/../checksum.h **** 
 5349              		.loc 14 37 9 view .LVU1746
  39:Service/../MAVLink/common/../checksum.h ****         tmp ^= (tmp<<4);
 5350              		.loc 14 39 9 view .LVU1747
  39:Service/../MAVLink/common/../checksum.h ****         tmp ^= (tmp<<4);
 5351              		.loc 14 39 32 is_stmt 0 view .LVU1748
 5352 0242 0388     		ldrh	r3, [r0]
  39:Service/../MAVLink/common/../checksum.h ****         tmp ^= (tmp<<4);
 5353              		.loc 14 39 22 view .LVU1749
 5354 0244 DCB2     		uxtb	r4, r3
  39:Service/../MAVLink/common/../checksum.h ****         tmp ^= (tmp<<4);
 5355              		.loc 14 39 13 view .LVU1750
 5356 0246 6140     		eors	r1, r1, r4
 5357              	.LVL430:
  40:Service/../MAVLink/common/../checksum.h ****         *crcAccum = (*crcAccum>>8) ^ (tmp<<8) ^ (tmp <<3) ^ (tmp>>4);
 5358              		.loc 14 40 9 is_stmt 1 view .LVU1751
  40:Service/../MAVLink/common/../checksum.h ****         *crcAccum = (*crcAccum>>8) ^ (tmp<<8) ^ (tmp <<3) ^ (tmp>>4);
 5359              		.loc 14 40 13 is_stmt 0 view .LVU1752
 5360 0248 81EA0111 		eor	r1, r1, r1, lsl #4
 5361              	.LVL431:
  40:Service/../MAVLink/common/../checksum.h ****         *crcAccum = (*crcAccum>>8) ^ (tmp<<8) ^ (tmp <<3) ^ (tmp>>4);
 5362              		.loc 14 40 13 view .LVU1753
 5363 024c C9B2     		uxtb	r1, r1
 5364              	.LVL432:
  41:Service/../MAVLink/common/../checksum.h **** }
 5365              		.loc 14 41 9 is_stmt 1 view .LVU1754
  41:Service/../MAVLink/common/../checksum.h **** }
 5366              		.loc 14 41 36 is_stmt 0 view .LVU1755
 5367 024e 1B0A     		lsrs	r3, r3, #8
 5368 0250 43EA0123 		orr	r3, r3, r1, lsl #8
 5369 0254 1BB2     		sxth	r3, r3
  41:Service/../MAVLink/common/../checksum.h **** }
 5370              		.loc 14 41 47 view .LVU1756
 5371 0256 83EAC103 		eor	r3, r3, r1, lsl #3
  41:Service/../MAVLink/common/../checksum.h **** }
 5372              		.loc 14 41 59 view .LVU1757
 5373 025a 83EA1113 		eor	r3, r3, r1, lsr #4
  41:Service/../MAVLink/common/../checksum.h **** }
ARM GAS  C:\Users\8bit\AppData\Local\Temp\ccCRhmZR.s 			page 213


 5374              		.loc 14 41 19 view .LVU1758
 5375 025e 0380     		strh	r3, [r0]	@ movhi
 5376              	.LVL433:
  41:Service/../MAVLink/common/../checksum.h **** }
 5377              		.loc 14 41 19 view .LVU1759
 5378              	.LBE444:
 5379              	.LBE443:
 5380              	.LBE445:
 342:Service/../MAVLink/common/../mavlink_helpers.h **** 			status->parse_state = MAVLINK_PARSE_STATE_GOT_BAD_CRC1;
 5381              		.loc 2 342 3 is_stmt 1 view .LVU1760
 342:Service/../MAVLink/common/../mavlink_helpers.h **** 			status->parse_state = MAVLINK_PARSE_STATE_GOT_BAD_CRC1;
 5382              		.loc 2 342 29 is_stmt 0 view .LVU1761
 5383 0260 0378     		ldrb	r3, [r0]	@ zero_extendqisi2
 342:Service/../MAVLink/common/../mavlink_helpers.h **** 			status->parse_state = MAVLINK_PARSE_STATE_GOT_BAD_CRC1;
 5384              		.loc 2 342 6 view .LVU1762
 5385 0262 9A42     		cmp	r2, r3
 5386 0264 07D0     		beq	.L166
 343:Service/../MAVLink/common/../mavlink_helpers.h **** 		} else {
 5387              		.loc 2 343 4 is_stmt 1 view .LVU1763
 343:Service/../MAVLink/common/../mavlink_helpers.h **** 		} else {
 5388              		.loc 2 343 24 is_stmt 0 view .LVU1764
 5389 0266 294B     		ldr	r3, .L197
 5390 0268 0A21     		movs	r1, #10
 5391 026a D970     		strb	r1, [r3, #3]
 5392              	.L167:
 347:Service/../MAVLink/common/../mavlink_helpers.h **** 		break;
 5393              		.loc 2 347 17 is_stmt 1 view .LVU1765
 347:Service/../MAVLink/common/../mavlink_helpers.h **** 		break;
 5394              		.loc 2 347 53 is_stmt 0 view .LVU1766
 5395 026c 274B     		ldr	r3, .L197
 5396 026e 1B79     		ldrb	r3, [r3, #4]	@ zero_extendqisi2
 347:Service/../MAVLink/common/../mavlink_helpers.h **** 		break;
 5397              		.loc 2 347 46 view .LVU1767
 5398 0270 2949     		ldr	r1, .L197+12
 347:Service/../MAVLink/common/../mavlink_helpers.h **** 		break;
 5399              		.loc 2 347 67 view .LVU1768
 5400 0272 CA54     		strb	r2, [r1, r3]
 348:Service/../MAVLink/common/../mavlink_helpers.h **** 
 5401              		.loc 2 348 3 is_stmt 1 view .LVU1769
 5402 0274 13E7     		b	.L154
 5403              	.L166:
 345:Service/../MAVLink/common/../mavlink_helpers.h **** 		}
 5404              		.loc 2 345 4 view .LVU1770
 345:Service/../MAVLink/common/../mavlink_helpers.h **** 		}
 5405              		.loc 2 345 24 is_stmt 0 view .LVU1771
 5406 0276 254B     		ldr	r3, .L197
 5407 0278 0921     		movs	r1, #9
 5408 027a D970     		strb	r1, [r3, #3]
 5409 027c F6E7     		b	.L167
 5410              	.L155:
 352:Service/../MAVLink/common/../mavlink_helpers.h **** 			// got a bad CRC message
 5411              		.loc 2 352 3 is_stmt 1 view .LVU1772
 352:Service/../MAVLink/common/../mavlink_helpers.h **** 			// got a bad CRC message
 5412              		.loc 2 352 6 is_stmt 0 view .LVU1773
 5413 027e 0A2B     		cmp	r3, #10
 5414 0280 05D0     		beq	.L168
 352:Service/../MAVLink/common/../mavlink_helpers.h **** 			// got a bad CRC message
ARM GAS  C:\Users\8bit\AppData\Local\Temp\ccCRhmZR.s 			page 214


 5415              		.loc 2 352 68 view .LVU1774
 5416 0282 93B2     		uxth	r3, r2
 352:Service/../MAVLink/common/../mavlink_helpers.h **** 			// got a bad CRC message
 5417              		.loc 2 352 77 view .LVU1775
 5418 0284 2249     		ldr	r1, .L197+4
 5419 0286 0988     		ldrh	r1, [r1]
 352:Service/../MAVLink/common/../mavlink_helpers.h **** 			// got a bad CRC message
 5420              		.loc 2 352 63 view .LVU1776
 5421 0288 B3EB112F 		cmp	r3, r1, lsr #8
 5422 028c 11D0     		beq	.L169
 5423              	.L168:
 354:Service/../MAVLink/common/../mavlink_helpers.h **** 		} else {
 5424              		.loc 2 354 4 is_stmt 1 view .LVU1777
 354:Service/../MAVLink/common/../mavlink_helpers.h **** 		} else {
 5425              		.loc 2 354 25 is_stmt 0 view .LVU1778
 5426 028e 1F4B     		ldr	r3, .L197
 5427 0290 0221     		movs	r1, #2
 5428 0292 1970     		strb	r1, [r3]
 5429              	.L170:
 359:Service/../MAVLink/common/../mavlink_helpers.h ****                 _MAV_PAYLOAD_NON_CONST(rxmsg)[status->packet_idx+1] = (char)c;
 5430              		.loc 2 359 17 is_stmt 1 view .LVU1779
 359:Service/../MAVLink/common/../mavlink_helpers.h ****                 _MAV_PAYLOAD_NON_CONST(rxmsg)[status->packet_idx+1] = (char)c;
 5431              		.loc 2 359 37 is_stmt 0 view .LVU1780
 5432 0294 1D4B     		ldr	r3, .L197
 5433 0296 0121     		movs	r1, #1
 5434 0298 D970     		strb	r1, [r3, #3]
 360:Service/../MAVLink/common/../mavlink_helpers.h ****                 memcpy(r_message, rxmsg, sizeof(mavlink_message_t));
 5435              		.loc 2 360 17 is_stmt 1 view .LVU1781
 360:Service/../MAVLink/common/../mavlink_helpers.h ****                 memcpy(r_message, rxmsg, sizeof(mavlink_message_t));
 5436              		.loc 2 360 53 is_stmt 0 view .LVU1782
 5437 029a 1B79     		ldrb	r3, [r3, #4]	@ zero_extendqisi2
 360:Service/../MAVLink/common/../mavlink_helpers.h ****                 memcpy(r_message, rxmsg, sizeof(mavlink_message_t));
 5438              		.loc 2 360 46 view .LVU1783
 5439 029c 1C49     		ldr	r1, .L197+4
 5440 029e 01F10800 		add	r0, r1, #8
 5441 02a2 0133     		adds	r3, r3, #1
 360:Service/../MAVLink/common/../mavlink_helpers.h ****                 memcpy(r_message, rxmsg, sizeof(mavlink_message_t));
 5442              		.loc 2 360 69 view .LVU1784
 5443 02a4 C254     		strb	r2, [r0, r3]
 361:Service/../MAVLink/common/../mavlink_helpers.h **** 		break;
 5444              		.loc 2 361 17 is_stmt 1 view .LVU1785
 5445 02a6 4FF48872 		mov	r2, #272
 5446              	.LVL434:
 361:Service/../MAVLink/common/../mavlink_helpers.h **** 		break;
 5447              		.loc 2 361 17 is_stmt 0 view .LVU1786
 5448 02aa 47A8     		add	r0, sp, #284
 5449              	.LVL435:
 361:Service/../MAVLink/common/../mavlink_helpers.h **** 		break;
 5450              		.loc 2 361 17 view .LVU1787
 5451 02ac FFF7FEFF 		bl	memcpy
 5452              	.LVL436:
 362:Service/../MAVLink/common/../mavlink_helpers.h **** 	}
 5453              		.loc 2 362 3 is_stmt 1 view .LVU1788
 5454 02b0 F5E6     		b	.L154
 5455              	.LVL437:
 5456              	.L169:
 357:Service/../MAVLink/common/../mavlink_helpers.h ****                 }
ARM GAS  C:\Users\8bit\AppData\Local\Temp\ccCRhmZR.s 			page 215


 5457              		.loc 2 357 4 view .LVU1789
 357:Service/../MAVLink/common/../mavlink_helpers.h ****                 }
 5458              		.loc 2 357 25 is_stmt 0 view .LVU1790
 5459 02b2 164B     		ldr	r3, .L197
 5460 02b4 0121     		movs	r1, #1
 5461 02b6 1970     		strb	r1, [r3]
 5462 02b8 ECE7     		b	.L170
 5463              	.LVL438:
 5464              	.L191:
 373:Service/../MAVLink/common/../mavlink_helpers.h **** 		// Initial condition: If no packet has been received so far, drop count is undefined
 5465              		.loc 2 373 3 is_stmt 1 view .LVU1791
 373:Service/../MAVLink/common/../mavlink_helpers.h **** 		// Initial condition: If no packet has been received so far, drop count is undefined
 5466              		.loc 2 373 33 is_stmt 0 view .LVU1792
 5467 02ba 154B     		ldr	r3, .L197+4
 5468 02bc 1A79     		ldrb	r2, [r3, #4]	@ zero_extendqisi2
 373:Service/../MAVLink/common/../mavlink_helpers.h **** 		// Initial condition: If no packet has been received so far, drop count is undefined
 5469              		.loc 2 373 26 view .LVU1793
 5470 02be 134B     		ldr	r3, .L197
 5471 02c0 5A71     		strb	r2, [r3, #5]
 375:Service/../MAVLink/common/../mavlink_helpers.h **** 		// Count this packet as received
 5472              		.loc 2 375 3 is_stmt 1 view .LVU1794
 375:Service/../MAVLink/common/../mavlink_helpers.h **** 		// Count this packet as received
 5473              		.loc 2 375 13 is_stmt 0 view .LVU1795
 5474 02c2 1B89     		ldrh	r3, [r3, #8]
 375:Service/../MAVLink/common/../mavlink_helpers.h **** 		// Count this packet as received
 5475              		.loc 2 375 6 view .LVU1796
 5476 02c4 13B9     		cbnz	r3, .L172
 375:Service/../MAVLink/common/../mavlink_helpers.h **** 		// Count this packet as received
 5477              		.loc 2 375 45 is_stmt 1 view .LVU1797
 375:Service/../MAVLink/common/../mavlink_helpers.h **** 		// Count this packet as received
 5478              		.loc 2 375 74 is_stmt 0 view .LVU1798
 5479 02c6 114A     		ldr	r2, .L197
 5480 02c8 0021     		movs	r1, #0
 5481 02ca 5181     		strh	r1, [r2, #10]	@ movhi
 5482              	.L172:
 377:Service/../MAVLink/common/../mavlink_helpers.h **** 	}
 5483              		.loc 2 377 3 is_stmt 1 view .LVU1799
 377:Service/../MAVLink/common/../mavlink_helpers.h **** 	}
 5484              		.loc 2 377 34 is_stmt 0 view .LVU1800
 5485 02cc 0133     		adds	r3, r3, #1
 5486 02ce 0F4A     		ldr	r2, .L197
 5487 02d0 1381     		strh	r3, [r2, #8]	@ movhi
 5488 02d2 E9E6     		b	.L171
 5489              	.L192:
 396:Service/../MAVLink/common/../mavlink_helpers.h **** 	}
 5490              		.loc 2 396 3 is_stmt 1 view .LVU1801
 396:Service/../MAVLink/common/../mavlink_helpers.h **** 	}
 5491              		.loc 2 396 51 is_stmt 0 view .LVU1802
 5492 02d4 2279     		ldrb	r2, [r4, #4]	@ zero_extendqisi2
 396:Service/../MAVLink/common/../mavlink_helpers.h **** 	}
 5493              		.loc 2 396 44 view .LVU1803
 5494 02d6 0E4B     		ldr	r3, .L197+4
 5495 02d8 1344     		add	r3, r3, r2
 5496 02da 1A7A     		ldrb	r2, [r3, #8]	@ zero_extendqisi2
 396:Service/../MAVLink/common/../mavlink_helpers.h **** 	}
 5497              		.loc 2 396 87 view .LVU1804
 5498 02dc 5B7A     		ldrb	r3, [r3, #9]	@ zero_extendqisi2
ARM GAS  C:\Users\8bit\AppData\Local\Temp\ccCRhmZR.s 			page 216


 396:Service/../MAVLink/common/../mavlink_helpers.h **** 	}
 5499              		.loc 2 396 65 view .LVU1805
 5500 02de 42EA0323 		orr	r3, r2, r3, lsl #8
 396:Service/../MAVLink/common/../mavlink_helpers.h **** 	}
 5501              		.loc 2 396 23 view .LVU1806
 5502 02e2 ADF81C31 		strh	r3, [sp, #284]	@ movhi
 5503 02e6 FAE6     		b	.L173
 5504              	.LVL439:
 5505              	.L193:
 396:Service/../MAVLink/common/../mavlink_helpers.h **** 	}
 5506              		.loc 2 396 23 view .LVU1807
 5507              	.LBE453:
 5508              	.LBE461:
 5509              	.LBE470:
 561:Service/Srv_ComProto.c ****             {
 5510              		.loc 1 561 13 is_stmt 1 view .LVU1808
 561:Service/Srv_ComProto.c ****             {
 5511              		.loc 1 561 16 is_stmt 0 view .LVU1809
 5512 02e8 B9F1000F 		cmp	r9, #0
 5513 02ec 03D0     		beq	.L175
 561:Service/Srv_ComProto.c ****             {
 5514              		.loc 1 561 32 discriminator 1 view .LVU1810
 5515 02ee 9DF82131 		ldrb	r3, [sp, #289]	@ zero_extendqisi2
 561:Service/Srv_ComProto.c ****             {
 5516              		.loc 1 561 21 discriminator 1 view .LVU1811
 5517 02f2 042B     		cmp	r3, #4
 5518 02f4 12D0     		beq	.L196
 5519              	.L175:
 582:Service/Srv_ComProto.c ****             memset(&mav_sta, 0, sizeof(mavlink_status_t));
 5520              		.loc 1 582 13 is_stmt 1 view .LVU1812
 5521 02f6 4FF48872 		mov	r2, #272
 5522 02fa 0021     		movs	r1, #0
 5523 02fc 47A8     		add	r0, sp, #284
 5524 02fe FFF7FEFF 		bl	memset
 5525              	.LVL440:
 583:Service/Srv_ComProto.c ****         }
 5526              		.loc 1 583 13 view .LVU1813
 5527 0302 0023     		movs	r3, #0
 5528 0304 4493     		str	r3, [sp, #272]
 5529 0306 4593     		str	r3, [sp, #276]
 5530 0308 4693     		str	r3, [sp, #280]
 5531 030a F8E6     		b	.L187
 5532              	.L198:
 5533              		.align	2
 5534              	.L197:
 5535 030c 00000000 		.word	.LANCHOR1
 5536 0310 00000000 		.word	.LANCHOR2
 5537 0314 00000000 		.word	.LANCHOR3
 5538 0318 08000000 		.word	.LANCHOR2+8
 5539              	.L196:
 563:Service/Srv_ComProto.c ****                 {
 5540              		.loc 1 563 17 view .LVU1814
 563:Service/Srv_ComProto.c ****                 {
 5541              		.loc 1 563 41 is_stmt 0 view .LVU1815
 5542 031c 9DF82231 		ldrb	r3, [sp, #290]	@ zero_extendqisi2
 563:Service/Srv_ComProto.c ****                 {
 5543              		.loc 1 563 17 view .LVU1816
ARM GAS  C:\Users\8bit\AppData\Local\Temp\ccCRhmZR.s 			page 217


 5544 0320 0B3B     		subs	r3, r3, #11
 5545 0322 092B     		cmp	r3, #9
 5546 0324 E7D8     		bhi	.L175
 5547 0326 DFE803F0 		tbb	[pc, r3]
 5548              	.L177:
 5549 032a 05       		.byte	(.L186-.L177)/2
 5550 032b 12       		.byte	(.L185-.L177)/2
 5551 032c 1F       		.byte	(.L184-.L177)/2
 5552 032d 2C       		.byte	(.L183-.L177)/2
 5553 032e 39       		.byte	(.L182-.L177)/2
 5554 032f 46       		.byte	(.L181-.L177)/2
 5555 0330 53       		.byte	(.L180-.L177)/2
 5556 0331 60       		.byte	(.L179-.L177)/2
 5557 0332 6D       		.byte	(.L178-.L177)/2
 5558 0333 7A       		.byte	(.L176-.L177)/2
 5559              		.p2align 1
 5560              	.L186:
 565:Service/Srv_ComProto.c ****                     case MAV_CompoID_Ctl_Attitude:      SrvComProto_MavMsg_Decode_ExpAttiude(obj, m
 5561              		.loc 1 565 57 is_stmt 1 view .LVU1817
 5562 0334 47AC     		add	r4, sp, #284
 5563 0336 4FF48272 		mov	r2, #260
 5564 033a 4AA9     		add	r1, sp, #296
 5565 033c 6846     		mov	r0, sp
 5566 033e FFF7FEFF 		bl	memcpy
 5567              	.LVL441:
 5568 0342 94E80E00 		ldm	r4, {r1, r2, r3}
 5569 0346 4846     		mov	r0, r9
 5570 0348 FFF7FEFF 		bl	SrvComProto_MavMsg_Decode_ExpGyro
 5571              	.LVL442:
 565:Service/Srv_ComProto.c ****                     case MAV_CompoID_Ctl_Attitude:      SrvComProto_MavMsg_Decode_ExpAttiude(obj, m
 5572              		.loc 1 565 113 view .LVU1818
 565:Service/Srv_ComProto.c ****                     case MAV_CompoID_Ctl_Attitude:      SrvComProto_MavMsg_Decode_ExpAttiude(obj, m
 5573              		.loc 1 565 21 is_stmt 0 view .LVU1819
 5574 034c D3E7     		b	.L175
 5575              	.L185:
 566:Service/Srv_ComProto.c ****                     case MAV_CompoID_Ctl_Altitude:      SrvComProto_MavMsg_Decode_ExpAlt(obj, mav_m
 5576              		.loc 1 566 57 is_stmt 1 view .LVU1820
 5577 034e 47AC     		add	r4, sp, #284
 5578 0350 4FF48272 		mov	r2, #260
 5579 0354 4AA9     		add	r1, sp, #296
 5580 0356 6846     		mov	r0, sp
 5581 0358 FFF7FEFF 		bl	memcpy
 5582              	.LVL443:
 5583 035c 94E80E00 		ldm	r4, {r1, r2, r3}
 5584 0360 4846     		mov	r0, r9
 5585 0362 FFF7FEFF 		bl	SrvComProto_MavMsg_Decode_ExpAttiude
 5586              	.LVL444:
 566:Service/Srv_ComProto.c ****                     case MAV_CompoID_Ctl_Altitude:      SrvComProto_MavMsg_Decode_ExpAlt(obj, mav_m
 5587              		.loc 1 566 113 view .LVU1821
 566:Service/Srv_ComProto.c ****                     case MAV_CompoID_Ctl_Altitude:      SrvComProto_MavMsg_Decode_ExpAlt(obj, mav_m
 5588              		.loc 1 566 21 is_stmt 0 view .LVU1822
 5589 0366 C6E7     		b	.L175
 5590              	.L184:
 567:Service/Srv_ComProto.c ****                     case MAV_CompoID_Ctl_RC_Channel:    SrvComProto_MavMsg_Decode_ExpRC(obj, mav_ms
 5591              		.loc 1 567 57 is_stmt 1 view .LVU1823
 5592 0368 47AC     		add	r4, sp, #284
 5593 036a 4FF48272 		mov	r2, #260
ARM GAS  C:\Users\8bit\AppData\Local\Temp\ccCRhmZR.s 			page 218


 5594 036e 4AA9     		add	r1, sp, #296
 5595 0370 6846     		mov	r0, sp
 5596 0372 FFF7FEFF 		bl	memcpy
 5597              	.LVL445:
 5598 0376 94E80E00 		ldm	r4, {r1, r2, r3}
 5599 037a 4846     		mov	r0, r9
 5600 037c FFF7FEFF 		bl	SrvComProto_MavMsg_Decode_ExpAlt
 5601              	.LVL446:
 567:Service/Srv_ComProto.c ****                     case MAV_CompoID_Ctl_RC_Channel:    SrvComProto_MavMsg_Decode_ExpRC(obj, mav_ms
 5602              		.loc 1 567 113 view .LVU1824
 567:Service/Srv_ComProto.c ****                     case MAV_CompoID_Ctl_RC_Channel:    SrvComProto_MavMsg_Decode_ExpRC(obj, mav_ms
 5603              		.loc 1 567 21 is_stmt 0 view .LVU1825
 5604 0380 B9E7     		b	.L175
 5605              	.L183:
 568:Service/Srv_ComProto.c ****                     case MAV_CompoID_Ctl_MotoCtl:       SrvComProto_MavMsg_Decode_ExpMoto(obj, mav_
 5606              		.loc 1 568 57 is_stmt 1 view .LVU1826
 5607 0382 47AC     		add	r4, sp, #284
 5608 0384 4FF48272 		mov	r2, #260
 5609 0388 4AA9     		add	r1, sp, #296
 5610 038a 6846     		mov	r0, sp
 5611 038c FFF7FEFF 		bl	memcpy
 5612              	.LVL447:
 5613 0390 94E80E00 		ldm	r4, {r1, r2, r3}
 5614 0394 4846     		mov	r0, r9
 5615 0396 FFF7FEFF 		bl	SrvComProto_MavMsg_Decode_ExpRC
 5616              	.LVL448:
 568:Service/Srv_ComProto.c ****                     case MAV_CompoID_Ctl_MotoCtl:       SrvComProto_MavMsg_Decode_ExpMoto(obj, mav_
 5617              		.loc 1 568 113 view .LVU1827
 568:Service/Srv_ComProto.c ****                     case MAV_CompoID_Ctl_MotoCtl:       SrvComProto_MavMsg_Decode_ExpMoto(obj, mav_
 5618              		.loc 1 568 21 is_stmt 0 view .LVU1828
 5619 039a ACE7     		b	.L175
 5620              	.L182:
 569:Service/Srv_ComProto.c ****                     case MAV_CompoID_Ctl_PIDPara_GyrX:  SrvComProto_MavMsg_Decode_PIDPara_GyroX(obj
 5621              		.loc 1 569 57 is_stmt 1 view .LVU1829
 5622 039c 47AC     		add	r4, sp, #284
 5623 039e 4FF48272 		mov	r2, #260
 5624 03a2 4AA9     		add	r1, sp, #296
 5625 03a4 6846     		mov	r0, sp
 5626 03a6 FFF7FEFF 		bl	memcpy
 5627              	.LVL449:
 5628 03aa 94E80E00 		ldm	r4, {r1, r2, r3}
 5629 03ae 4846     		mov	r0, r9
 5630 03b0 FFF7FEFF 		bl	SrvComProto_MavMsg_Decode_ExpMoto
 5631              	.LVL450:
 569:Service/Srv_ComProto.c ****                     case MAV_CompoID_Ctl_PIDPara_GyrX:  SrvComProto_MavMsg_Decode_PIDPara_GyroX(obj
 5632              		.loc 1 569 113 view .LVU1830
 569:Service/Srv_ComProto.c ****                     case MAV_CompoID_Ctl_PIDPara_GyrX:  SrvComProto_MavMsg_Decode_PIDPara_GyroX(obj
 5633              		.loc 1 569 21 is_stmt 0 view .LVU1831
 5634 03b4 9FE7     		b	.L175
 5635              	.L181:
 570:Service/Srv_ComProto.c ****                     case MAV_CompoID_Ctl_PIDPara_GyrY:  SrvComProto_MavMsg_Decode_PIDPara_GyroY(obj
 5636              		.loc 1 570 57 is_stmt 1 view .LVU1832
 5637 03b6 47AC     		add	r4, sp, #284
 5638 03b8 4FF48272 		mov	r2, #260
 5639 03bc 4AA9     		add	r1, sp, #296
 5640 03be 6846     		mov	r0, sp
 5641 03c0 FFF7FEFF 		bl	memcpy
ARM GAS  C:\Users\8bit\AppData\Local\Temp\ccCRhmZR.s 			page 219


 5642              	.LVL451:
 5643 03c4 94E80E00 		ldm	r4, {r1, r2, r3}
 5644 03c8 4846     		mov	r0, r9
 5645 03ca FFF7FEFF 		bl	SrvComProto_MavMsg_Decode_PIDPara_GyroX
 5646              	.LVL452:
 570:Service/Srv_ComProto.c ****                     case MAV_CompoID_Ctl_PIDPara_GyrY:  SrvComProto_MavMsg_Decode_PIDPara_GyroY(obj
 5647              		.loc 1 570 113 view .LVU1833
 570:Service/Srv_ComProto.c ****                     case MAV_CompoID_Ctl_PIDPara_GyrY:  SrvComProto_MavMsg_Decode_PIDPara_GyroY(obj
 5648              		.loc 1 570 21 is_stmt 0 view .LVU1834
 5649 03ce 92E7     		b	.L175
 5650              	.L180:
 571:Service/Srv_ComProto.c ****                     case MAV_CompoID_Ctl_PIDPara_GyrZ:  SrvComProto_MavMsg_Decode_PIDPara_GyroZ(obj
 5651              		.loc 1 571 57 is_stmt 1 view .LVU1835
 5652 03d0 47AC     		add	r4, sp, #284
 5653 03d2 4FF48272 		mov	r2, #260
 5654 03d6 4AA9     		add	r1, sp, #296
 5655 03d8 6846     		mov	r0, sp
 5656 03da FFF7FEFF 		bl	memcpy
 5657              	.LVL453:
 5658 03de 94E80E00 		ldm	r4, {r1, r2, r3}
 5659 03e2 4846     		mov	r0, r9
 5660 03e4 FFF7FEFF 		bl	SrvComProto_MavMsg_Decode_PIDPara_GyroY
 5661              	.LVL454:
 571:Service/Srv_ComProto.c ****                     case MAV_CompoID_Ctl_PIDPara_GyrZ:  SrvComProto_MavMsg_Decode_PIDPara_GyroZ(obj
 5662              		.loc 1 571 113 view .LVU1836
 571:Service/Srv_ComProto.c ****                     case MAV_CompoID_Ctl_PIDPara_GyrZ:  SrvComProto_MavMsg_Decode_PIDPara_GyroZ(obj
 5663              		.loc 1 571 21 is_stmt 0 view .LVU1837
 5664 03e8 85E7     		b	.L175
 5665              	.L179:
 572:Service/Srv_ComProto.c ****                     case MAV_CompoID_Ctl_PIDPara_Roll:  SrvComProto_MavMsg_Decode_PIDPara_Roll(obj,
 5666              		.loc 1 572 57 is_stmt 1 view .LVU1838
 5667 03ea 47AC     		add	r4, sp, #284
 5668 03ec 4FF48272 		mov	r2, #260
 5669 03f0 4AA9     		add	r1, sp, #296
 5670 03f2 6846     		mov	r0, sp
 5671 03f4 FFF7FEFF 		bl	memcpy
 5672              	.LVL455:
 5673 03f8 94E80E00 		ldm	r4, {r1, r2, r3}
 5674 03fc 4846     		mov	r0, r9
 5675 03fe FFF7FEFF 		bl	SrvComProto_MavMsg_Decode_PIDPara_GyroZ
 5676              	.LVL456:
 572:Service/Srv_ComProto.c ****                     case MAV_CompoID_Ctl_PIDPara_Roll:  SrvComProto_MavMsg_Decode_PIDPara_Roll(obj,
 5677              		.loc 1 572 113 view .LVU1839
 572:Service/Srv_ComProto.c ****                     case MAV_CompoID_Ctl_PIDPara_Roll:  SrvComProto_MavMsg_Decode_PIDPara_Roll(obj,
 5678              		.loc 1 572 21 is_stmt 0 view .LVU1840
 5679 0402 78E7     		b	.L175
 5680              	.L178:
 573:Service/Srv_ComProto.c ****                     case MAV_CompoID_Ctl_PIDPata_Pitch: SrvComProto_MavMsg_Decode_PIDPara_Pitch(obj
 5681              		.loc 1 573 57 is_stmt 1 view .LVU1841
 5682 0404 47AC     		add	r4, sp, #284
 5683 0406 4FF48272 		mov	r2, #260
 5684 040a 4AA9     		add	r1, sp, #296
 5685 040c 6846     		mov	r0, sp
 5686 040e FFF7FEFF 		bl	memcpy
 5687              	.LVL457:
 5688 0412 94E80E00 		ldm	r4, {r1, r2, r3}
 5689 0416 4846     		mov	r0, r9
ARM GAS  C:\Users\8bit\AppData\Local\Temp\ccCRhmZR.s 			page 220


 5690 0418 FFF7FEFF 		bl	SrvComProto_MavMsg_Decode_PIDPara_Roll
 5691              	.LVL458:
 573:Service/Srv_ComProto.c ****                     case MAV_CompoID_Ctl_PIDPata_Pitch: SrvComProto_MavMsg_Decode_PIDPara_Pitch(obj
 5692              		.loc 1 573 113 view .LVU1842
 573:Service/Srv_ComProto.c ****                     case MAV_CompoID_Ctl_PIDPata_Pitch: SrvComProto_MavMsg_Decode_PIDPara_Pitch(obj
 5693              		.loc 1 573 21 is_stmt 0 view .LVU1843
 5694 041c 6BE7     		b	.L175
 5695              	.L176:
 574:Service/Srv_ComProto.c ****                     default: break;
 5696              		.loc 1 574 57 is_stmt 1 view .LVU1844
 5697 041e 47AC     		add	r4, sp, #284
 5698 0420 4FF48272 		mov	r2, #260
 5699 0424 4AA9     		add	r1, sp, #296
 5700 0426 6846     		mov	r0, sp
 5701 0428 FFF7FEFF 		bl	memcpy
 5702              	.LVL459:
 5703 042c 94E80E00 		ldm	r4, {r1, r2, r3}
 5704 0430 4846     		mov	r0, r9
 5705 0432 FFF7FEFF 		bl	SrvComProto_MavMsg_Decode_PIDPara_Pitch
 5706              	.LVL460:
 574:Service/Srv_ComProto.c ****                     default: break;
 5707              		.loc 1 574 113 view .LVU1845
 574:Service/Srv_ComProto.c ****                     default: break;
 5708              		.loc 1 574 21 is_stmt 0 view .LVU1846
 5709 0436 5EE7     		b	.L175
 5710              	.L194:
 586:Service/Srv_ComProto.c ****         {
 587:Service/Srv_ComProto.c ****             memset(&mav_msg, 0, sizeof(mavlink_message_t));
 5711              		.loc 1 587 13 is_stmt 1 view .LVU1847
 5712 0438 4FF48872 		mov	r2, #272
 5713 043c 0021     		movs	r1, #0
 5714 043e 47A8     		add	r0, sp, #284
 5715 0440 FFF7FEFF 		bl	memset
 5716              	.LVL461:
 588:Service/Srv_ComProto.c ****             memset(&mav_sta, 0, sizeof(mavlink_status_t));
 5717              		.loc 1 588 13 view .LVU1848
 5718 0444 0023     		movs	r3, #0
 5719 0446 4493     		str	r3, [sp, #272]
 5720 0448 4593     		str	r3, [sp, #276]
 5721 044a 4693     		str	r3, [sp, #280]
 5722 044c 57E6     		b	.L187
 5723              	.L195:
 5724              		.loc 1 588 13 is_stmt 0 view .LVU1849
 5725              	.LBE479:
 589:Service/Srv_ComProto.c ****         }
 590:Service/Srv_ComProto.c ****     }
 591:Service/Srv_ComProto.c **** 
 592:Service/Srv_ComProto.c ****     /* custom frame input check */
 593:Service/Srv_ComProto.c ****     stream_in.pac_type = ComFrame_MavMsg;
 5726              		.loc 1 593 5 is_stmt 1 view .LVU1850
 5727              		.loc 1 593 24 is_stmt 0 view .LVU1851
 5728 044e 0223     		movs	r3, #2
 5729 0450 8DF82D32 		strb	r3, [sp, #557]
 594:Service/Srv_ComProto.c ****     stream_in.valid = true;
 5730              		.loc 1 594 5 is_stmt 1 view .LVU1852
 5731              		.loc 1 594 21 is_stmt 0 view .LVU1853
 5732 0454 0123     		movs	r3, #1
ARM GAS  C:\Users\8bit\AppData\Local\Temp\ccCRhmZR.s 			page 221


 5733 0456 8DF82C32 		strb	r3, [sp, #556]
 595:Service/Srv_ComProto.c ****     stream_in.size = size;
 5734              		.loc 1 595 5 is_stmt 1 view .LVU1854
 5735              		.loc 1 595 20 is_stmt 0 view .LVU1855
 5736 045a ADF83462 		strh	r6, [sp, #564]	@ movhi
 596:Service/Srv_ComProto.c ****     stream_in.p_buf = p_data;
 5737              		.loc 1 596 5 is_stmt 1 view .LVU1856
 5738              		.loc 1 596 21 is_stmt 0 view .LVU1857
 5739 045e 8C97     		str	r7, [sp, #560]
 5740              	.LVL462:
 5741              	.L152:
 597:Service/Srv_ComProto.c **** 
 598:Service/Srv_ComProto.c **** input_stream_valid:
 599:Service/Srv_ComProto.c ****     return stream_in;
 5742              		.loc 1 599 5 is_stmt 1 view .LVU1858
 5743              		.loc 1 599 12 is_stmt 0 view .LVU1859
 5744 0460 8EAB     		add	r3, sp, #568
 5745 0462 13E90700 		ldmdb	r3, {r0, r1, r2}
 5746 0466 88E80700 		stm	r8, {r0, r1, r2}
 600:Service/Srv_ComProto.c **** }
 5747              		.loc 1 600 1 view .LVU1860
 5748 046a 4046     		mov	r0, r8
 5749 046c 0DF50F7D 		add	sp, sp, #572
 5750              	.LCFI97:
 5751              		.cfi_def_cfa_offset 28
 5752              		@ sp needed
 5753 0470 BDE8F083 		pop	{r4, r5, r6, r7, r8, r9, pc}
 5754              		.loc 1 600 1 view .LVU1861
 5755              		.cfi_endproc
 5756              	.LFE2097:
 5758              		.global	SrvComProto
 5759              		.global	SrvComProto_monitor
 5760              		.section	.bss.SrvComProto_monitor,"aw",%nobits
 5761              		.align	2
 5762              		.set	.LANCHOR0,. + 0
 5765              	SrvComProto_monitor:
 5766 0000 0000     		.space	2
 5767              		.section	.bss.m_mavlink_buffer.1,"aw",%nobits
 5768              		.align	2
 5769              		.set	.LANCHOR2,. + 0
 5772              	m_mavlink_buffer.1:
 5773 0000 00000000 		.space	1088
 5773      00000000 
 5773      00000000 
 5773      00000000 
 5773      00000000 
 5774              		.section	.bss.m_mavlink_status.2,"aw",%nobits
 5775              		.align	2
 5776              		.set	.LANCHOR1,. + 0
 5779              	m_mavlink_status.2:
 5780 0000 00000000 		.space	48
 5780      00000000 
 5780      00000000 
 5780      00000000 
 5780      00000000 
 5781              		.section	.data.SrvComProto,"aw"
 5782              		.align	2
ARM GAS  C:\Users\8bit\AppData\Local\Temp\ccCRhmZR.s 			page 222


 5785              	SrvComProto:
 5786 0000 00000000 		.word	Srv_ComProto_Init
 5787 0004 00000000 		.word	Srv_ComProto_GetType
 5788 0008 00000000 		.word	SrvComProto_MavMsg_Input_DecodeAll
 5789 000c 00000000 		.word	Srv_ComProto_MsgObj_Init
 5790 0010 00000000 		.word	SrvComProto_MsgEnable_Control
 5791 0014 00000000 		.word	SrvComProto_MsgToStream
 5792 0018 00000000 		.word	SrvComProto_Set_MavMsgIn_Callback
 5793              		.section	.rodata.mavlink_message_crcs.0,"a"
 5794              		.align	2
 5795              		.set	.LANCHOR3,. + 0
 5798              	mavlink_message_crcs.0:
 5799 0000 327C8900 		.ascii	"2|\211\000\355\331hwu\000\000Y\000\000\000\000\000\000"
 5799      EDD96877 
 5799      75000059 
 5799      00000000 
 5799      0000
 5800 0012 0000D69F 		.ascii	"\000\000\326\237\334\250\030\027\252\220Cs'\366\271"
 5800      DCA81817 
 5800      AA904373 
 5800      27F6B9
 5801 0021 68EDF4DE 		.ascii	"h\355\364\336\324\011\376\346\034\034\204\335\350\013"
 5801      D409FEE6 
 5801      1C1C84DD 
 5801      E80B
 5802 002f 9929274E 		.ascii	"\231)'N\304\000\000\017\003\000\000\000\000\000\247"
 5802      C400000F 
 5802      03000000 
 5802      0000A7
 5803 003e B777BF76 		.ascii	"\267w\277v\224\025\000\363|\000\000&\024\236\230\217"
 5803      941500F3 
 5803      7C000026 
 5803      149E988F 
 5804 004e 00000E6A 		.ascii	"\000\000\016j1\026\217\214\005\226\000\347\267?6/\000"
 5804      31168F8C 
 5804      059600E7 
 5804      B73F362F 
 5804      00
 5805 005f 00000000 		.ascii	"\000\000\000\000\000\257f\236\3208]\212l \271T\"\256"
 5805      00AF669E 
 5805      D0385D8A 
 5805      6C20B954 
 5805      22AE
 5806 0071 7CED044C 		.ascii	"|\355\004L\2008t\206\355\313\372W\313\334\031\342.\035"
 5806      80387486 
 5806      EDCBFA57 
 5806      CBDC19E2 
 5806      2E1D
 5807 0083 DF5506E5 		.ascii	"\337U\006\345\313\001\303m\250\265/H\203\177\000g\232"
 5807      CB01C36D 
 5807      A8B52F48 
 5807      837F0067 
 5807      9A
 5808 0094 B2C80000 		.ascii	"\262\310\000\000\000\000\000\000\000\000\000\000\000"
 5808      00000000 
 5808      00000000 
 5808      00
ARM GAS  C:\Users\8bit\AppData\Local\Temp\ccCRhmZR.s 			page 223


 5809 00a1 00BD0000 		.ascii	"\000\275\000\000\000\000\000\000\000\000\000\000\000"
 5809      00000000 
 5809      00000000 
 5809      00
 5810 00ae 00000000 		.ascii	"\000\000\000\000\000\000\000\000\000\000\000\000\000"
 5810      00000000 
 5810      00000000 
 5810      00
 5811 00bb 00000000 		.ascii	"\000\000\000\000\000$\000\000\000\000\000\000\000\000"
 5811      00240000 
 5811      00000000 
 5811      0000
 5812 00c9 00000000 		.ascii	"\000\000\000\000\000\000\000\000\000\000\000\000\000"
 5812      00000000 
 5812      00000000 
 5812      00
 5813 00d6 BA820185 		.ascii	"\272\202\001\205\343X\012\000\000\000\000\320\000\000"
 5813      E3580A00 
 5813      000000D0 
 5813      0000
 5814 00e4 0000A369 		.ascii	"\000\000\243i\227#\226\263\000\000\000\000\000ZhU_\202"
 5814      972396B3 
 5814      00000000 
 5814      005A6855 
 5814      5F82
 5815 00f6 B85108CC 		.ascii	"\270Q\010\3141\252,S.\000"
 5815      31AA2C53 
 5815      2E00
 5816              		.text
 5817              	.Letext0:
 5818              		.file 15 "c:\\program files (x86)\\gnu arm embedded toolchain\\10 2021.10\\lib\\gcc\\arm-none-eabi
 5819              		.file 16 "c:\\program files (x86)\\gnu arm embedded toolchain\\10 2021.10\\arm-none-eabi\\include\
 5820              		.file 17 "c:\\program files (x86)\\gnu arm embedded toolchain\\10 2021.10\\arm-none-eabi\\include\
 5821              		.file 18 "System/FreeRTOS/include/portable.h"
 5822              		.file 19 "Service/Srv_OsCommon.h"
 5823              		.file 20 "Service/../MAVLink/common/../mavlink_types.h"
 5824              		.file 21 "Service/Srv_ComProto.h"
 5825              		.file 22 "HW_Lib/AT32F435/drivers/inc/at32f435_437_tmr.h"
 5826              		.file 23 "Device/Dev_Dshot.h"
 5827              		.file 24 "common/Error_Log/../../common/gen_physic_def/imu_data.h"
 5828              		.file 25 "Service/control_data.h"
 5829              		.file 26 "Service/Srv_DataHub.h"
 5830              		.file 27 "<built-in>"
ARM GAS  C:\Users\8bit\AppData\Local\Temp\ccCRhmZR.s 			page 224


DEFINED SYMBOLS
                            *ABS*:00000000 Srv_ComProto.c
C:\Users\8bit\AppData\Local\Temp\ccCRhmZR.s:20     .text.Srv_ComProto_GetType:00000000 $t
C:\Users\8bit\AppData\Local\Temp\ccCRhmZR.s:25     .text.Srv_ComProto_GetType:00000000 Srv_ComProto_GetType
C:\Users\8bit\AppData\Local\Temp\ccCRhmZR.s:41     .text.Srv_ComProto_GetType:00000008 $d
C:\Users\8bit\AppData\Local\Temp\ccCRhmZR.s:46     .text.SrvComProto_MsgEnable_Control:00000000 $t
C:\Users\8bit\AppData\Local\Temp\ccCRhmZR.s:51     .text.SrvComProto_MsgEnable_Control:00000000 SrvComProto_MsgEnable_Control
C:\Users\8bit\AppData\Local\Temp\ccCRhmZR.s:82     .text.SrvComProto_Set_MavMsgIn_Callback:00000000 $t
C:\Users\8bit\AppData\Local\Temp\ccCRhmZR.s:87     .text.SrvComProto_Set_MavMsgIn_Callback:00000000 SrvComProto_Set_MavMsgIn_Callback
C:\Users\8bit\AppData\Local\Temp\ccCRhmZR.s:107    .text.SrvComProto_Set_MavMsgIn_Callback:0000000e $d
C:\Users\8bit\AppData\Local\Temp\ccCRhmZR.s:168    .text.Srv_ComProto_MsgObj_Init:00000000 $t
C:\Users\8bit\AppData\Local\Temp\ccCRhmZR.s:173    .text.Srv_ComProto_MsgObj_Init:00000000 Srv_ComProto_MsgObj_Init
C:\Users\8bit\AppData\Local\Temp\ccCRhmZR.s:247    .text.Srv_ComProto_MsgObj_Init:0000004a $d
C:\Users\8bit\AppData\Local\Temp\ccCRhmZR.s:257    .text.Srv_ComProto_MsgObj_Init:00000054 $t
C:\Users\8bit\AppData\Local\Temp\ccCRhmZR.s:364    .text.Srv_ComProto_MsgObj_Init:000000a0 $d
C:\Users\8bit\AppData\Local\Temp\ccCRhmZR.s:2749   .text.SrvComProto_MavMsg_Attitude:00000000 SrvComProto_MavMsg_Attitude
C:\Users\8bit\AppData\Local\Temp\ccCRhmZR.s:3168   .text.SrvComProto_MavMsg_Exp_Attitude:00000000 SrvComProto_MavMsg_Exp_Attitude
C:\Users\8bit\AppData\Local\Temp\ccCRhmZR.s:2319   .text.SrvComProto_MavMsg_Altitude:00000000 SrvComProto_MavMsg_Altitude
C:\Users\8bit\AppData\Local\Temp\ccCRhmZR.s:3602   .text.SrvConProto_MavMsg_RC:00000000 SrvConProto_MavMsg_RC
C:\Users\8bit\AppData\Local\Temp\ccCRhmZR.s:4104   .text.SrvComProto_MavMsg_Raw_IMU:00000000 SrvComProto_MavMsg_Raw_IMU
C:\Users\8bit\AppData\Local\Temp\ccCRhmZR.s:1804   .text.SrvComProto_MavMsg_Scaled_IMU:00000000 SrvComProto_MavMsg_Scaled_IMU
C:\Users\8bit\AppData\Local\Temp\ccCRhmZR.s:375    .text.Srv_ComProto_Init:00000000 $t
C:\Users\8bit\AppData\Local\Temp\ccCRhmZR.s:380    .text.Srv_ComProto_Init:00000000 Srv_ComProto_Init
C:\Users\8bit\AppData\Local\Temp\ccCRhmZR.s:437    .text.Srv_ComProto_Init:00000024 $d
C:\Users\8bit\AppData\Local\Temp\ccCRhmZR.s:443    .text.SrvComProto_MsgToStream:00000000 $t
C:\Users\8bit\AppData\Local\Temp\ccCRhmZR.s:448    .text.SrvComProto_MsgToStream:00000000 SrvComProto_MsgToStream
C:\Users\8bit\AppData\Local\Temp\ccCRhmZR.s:631    .text.SrvComProto_MsgToStream:000000a8 $d
C:\Users\8bit\AppData\Local\Temp\ccCRhmZR.s:636    .text.SrvComProto_MavMsg_Decode_ExpGyro:00000000 $t
C:\Users\8bit\AppData\Local\Temp\ccCRhmZR.s:641    .text.SrvComProto_MavMsg_Decode_ExpGyro:00000000 SrvComProto_MavMsg_Decode_ExpGyro
C:\Users\8bit\AppData\Local\Temp\ccCRhmZR.s:755    .text.SrvComProto_MavMsg_Decode_ExpAttiude:00000000 $t
C:\Users\8bit\AppData\Local\Temp\ccCRhmZR.s:760    .text.SrvComProto_MavMsg_Decode_ExpAttiude:00000000 SrvComProto_MavMsg_Decode_ExpAttiude
C:\Users\8bit\AppData\Local\Temp\ccCRhmZR.s:870    .text.SrvComProto_MavMsg_Decode_ExpAlt:00000000 $t
C:\Users\8bit\AppData\Local\Temp\ccCRhmZR.s:875    .text.SrvComProto_MavMsg_Decode_ExpAlt:00000000 SrvComProto_MavMsg_Decode_ExpAlt
C:\Users\8bit\AppData\Local\Temp\ccCRhmZR.s:991    .text.SrvComProto_MavMsg_Decode_ExpRC:00000000 $t
C:\Users\8bit\AppData\Local\Temp\ccCRhmZR.s:996    .text.SrvComProto_MavMsg_Decode_ExpRC:00000000 SrvComProto_MavMsg_Decode_ExpRC
C:\Users\8bit\AppData\Local\Temp\ccCRhmZR.s:1109   .text.SrvComProto_MavMsg_Decode_ExpMoto:00000000 $t
C:\Users\8bit\AppData\Local\Temp\ccCRhmZR.s:1114   .text.SrvComProto_MavMsg_Decode_ExpMoto:00000000 SrvComProto_MavMsg_Decode_ExpMoto
C:\Users\8bit\AppData\Local\Temp\ccCRhmZR.s:1224   .text.SrvComProto_MavMsg_Decode_PIDPara_GyroX:00000000 $t
C:\Users\8bit\AppData\Local\Temp\ccCRhmZR.s:1229   .text.SrvComProto_MavMsg_Decode_PIDPara_GyroX:00000000 SrvComProto_MavMsg_Decode_PIDPara_GyroX
C:\Users\8bit\AppData\Local\Temp\ccCRhmZR.s:1339   .text.SrvComProto_MavMsg_Decode_PIDPara_GyroY:00000000 $t
C:\Users\8bit\AppData\Local\Temp\ccCRhmZR.s:1344   .text.SrvComProto_MavMsg_Decode_PIDPara_GyroY:00000000 SrvComProto_MavMsg_Decode_PIDPara_GyroY
C:\Users\8bit\AppData\Local\Temp\ccCRhmZR.s:1454   .text.SrvComProto_MavMsg_Decode_PIDPara_GyroZ:00000000 $t
C:\Users\8bit\AppData\Local\Temp\ccCRhmZR.s:1459   .text.SrvComProto_MavMsg_Decode_PIDPara_GyroZ:00000000 SrvComProto_MavMsg_Decode_PIDPara_GyroZ
C:\Users\8bit\AppData\Local\Temp\ccCRhmZR.s:1569   .text.SrvComProto_MavMsg_Decode_PIDPara_Roll:00000000 $t
C:\Users\8bit\AppData\Local\Temp\ccCRhmZR.s:1574   .text.SrvComProto_MavMsg_Decode_PIDPara_Roll:00000000 SrvComProto_MavMsg_Decode_PIDPara_Roll
C:\Users\8bit\AppData\Local\Temp\ccCRhmZR.s:1684   .text.SrvComProto_MavMsg_Decode_PIDPara_Pitch:00000000 $t
C:\Users\8bit\AppData\Local\Temp\ccCRhmZR.s:1689   .text.SrvComProto_MavMsg_Decode_PIDPara_Pitch:00000000 SrvComProto_MavMsg_Decode_PIDPara_Pitch
C:\Users\8bit\AppData\Local\Temp\ccCRhmZR.s:1799   .text.SrvComProto_MavMsg_Scaled_IMU:00000000 $t
C:\Users\8bit\AppData\Local\Temp\ccCRhmZR.s:2308   .text.SrvComProto_MavMsg_Scaled_IMU:000001e0 $d
C:\Users\8bit\AppData\Local\Temp\ccCRhmZR.s:2314   .text.SrvComProto_MavMsg_Altitude:00000000 $t
C:\Users\8bit\AppData\Local\Temp\ccCRhmZR.s:2738   .text.SrvComProto_MavMsg_Altitude:00000150 $d
C:\Users\8bit\AppData\Local\Temp\ccCRhmZR.s:2744   .text.SrvComProto_MavMsg_Attitude:00000000 $t
C:\Users\8bit\AppData\Local\Temp\ccCRhmZR.s:3157   .text.SrvComProto_MavMsg_Attitude:00000140 $d
C:\Users\8bit\AppData\Local\Temp\ccCRhmZR.s:3163   .text.SrvComProto_MavMsg_Exp_Attitude:00000000 $t
C:\Users\8bit\AppData\Local\Temp\ccCRhmZR.s:3591   .text.SrvComProto_MavMsg_Exp_Attitude:00000158 $d
C:\Users\8bit\AppData\Local\Temp\ccCRhmZR.s:3597   .text.SrvConProto_MavMsg_RC:00000000 $t
C:\Users\8bit\AppData\Local\Temp\ccCRhmZR.s:4093   .text.SrvConProto_MavMsg_RC:00000210 $d
ARM GAS  C:\Users\8bit\AppData\Local\Temp\ccCRhmZR.s 			page 225


C:\Users\8bit\AppData\Local\Temp\ccCRhmZR.s:4099   .text.SrvComProto_MavMsg_Raw_IMU:00000000 $t
C:\Users\8bit\AppData\Local\Temp\ccCRhmZR.s:4606   .text.SrvComProto_MavMsg_Raw_IMU:000001e0 $d
C:\Users\8bit\AppData\Local\Temp\ccCRhmZR.s:4612   .text.SrvComProto_MavMsg_Input_DecodeAll:00000000 $t
C:\Users\8bit\AppData\Local\Temp\ccCRhmZR.s:4617   .text.SrvComProto_MavMsg_Input_DecodeAll:00000000 SrvComProto_MavMsg_Input_DecodeAll
C:\Users\8bit\AppData\Local\Temp\ccCRhmZR.s:4959   .text.SrvComProto_MavMsg_Input_DecodeAll:0000011c $d
C:\Users\8bit\AppData\Local\Temp\ccCRhmZR.s:4970   .text.SrvComProto_MavMsg_Input_DecodeAll:00000148 $t
C:\Users\8bit\AppData\Local\Temp\ccCRhmZR.s:5535   .text.SrvComProto_MavMsg_Input_DecodeAll:0000030c $d
C:\Users\8bit\AppData\Local\Temp\ccCRhmZR.s:5542   .text.SrvComProto_MavMsg_Input_DecodeAll:0000031c $t
C:\Users\8bit\AppData\Local\Temp\ccCRhmZR.s:5549   .text.SrvComProto_MavMsg_Input_DecodeAll:0000032a $d
C:\Users\8bit\AppData\Local\Temp\ccCRhmZR.s:5559   .text.SrvComProto_MavMsg_Input_DecodeAll:00000334 $t
C:\Users\8bit\AppData\Local\Temp\ccCRhmZR.s:5785   .data.SrvComProto:00000000 SrvComProto
C:\Users\8bit\AppData\Local\Temp\ccCRhmZR.s:5765   .bss.SrvComProto_monitor:00000000 SrvComProto_monitor
C:\Users\8bit\AppData\Local\Temp\ccCRhmZR.s:5761   .bss.SrvComProto_monitor:00000000 $d
C:\Users\8bit\AppData\Local\Temp\ccCRhmZR.s:5768   .bss.m_mavlink_buffer.1:00000000 $d
C:\Users\8bit\AppData\Local\Temp\ccCRhmZR.s:5772   .bss.m_mavlink_buffer.1:00000000 m_mavlink_buffer.1
C:\Users\8bit\AppData\Local\Temp\ccCRhmZR.s:5775   .bss.m_mavlink_status.2:00000000 $d
C:\Users\8bit\AppData\Local\Temp\ccCRhmZR.s:5779   .bss.m_mavlink_status.2:00000000 m_mavlink_status.2
C:\Users\8bit\AppData\Local\Temp\ccCRhmZR.s:5782   .data.SrvComProto:00000000 $d
C:\Users\8bit\AppData\Local\Temp\ccCRhmZR.s:5794   .rodata.mavlink_message_crcs.0:00000000 $d
C:\Users\8bit\AppData\Local\Temp\ccCRhmZR.s:5798   .rodata.mavlink_message_crcs.0:00000000 mavlink_message_crcs.0
C:\Users\8bit\AppData\Local\Temp\ccCRhmZR.s:112    .text.SrvComProto_Set_MavMsgIn_Callback:00000013 $d
C:\Users\8bit\AppData\Local\Temp\ccCRhmZR.s:112    .text.SrvComProto_Set_MavMsgIn_Callback:00000014 $t

UNDEFINED SYMBOLS
memset
SrvOsCommon
SrvDataHub
memcpy
