ARM GAS  C:\Users\HUAV\AppData\Local\Temp\ccv6UgYU.s 			page 1


   1              		.cpu cortex-m7
   2              		.eabi_attribute 28, 1
   3              		.eabi_attribute 20, 1
   4              		.eabi_attribute 21, 1
   5              		.eabi_attribute 23, 3
   6              		.eabi_attribute 24, 1
   7              		.eabi_attribute 25, 1
   8              		.eabi_attribute 26, 1
   9              		.eabi_attribute 30, 1
  10              		.eabi_attribute 34, 1
  11              		.eabi_attribute 18, 4
  12              		.file	"Srv_Receiver.c"
  13              		.text
  14              	.Ltext0:
  15              		.cfi_sections	.debug_frame
  16              		.section	.text.SrvReceiver_Create_SPIObj,"ax",%progbits
  17              		.align	1
  18              		.arch armv7e-m
  19              		.syntax unified
  20              		.thumb
  21              		.thumb_func
  22              		.fpu fpv5-d16
  24              	SrvReceiver_Create_SPIObj:
  25              	.LFB148:
  26              		.file 1 "Service/Srv_Receiver.c"
   1:Service/Srv_Receiver.c **** #include "Srv_Receiver.h"
   2:Service/Srv_Receiver.c **** #include "Bsp_Uart.h"
   3:Service/Srv_Receiver.c **** #include "Bsp_SPI.h"
   4:Service/Srv_Receiver.c **** #include "Bsp_GPIO.h"
   5:Service/Srv_Receiver.c **** #include "error_log.h"
   6:Service/Srv_Receiver.c **** #include "IO_Definition.h"
   7:Service/Srv_Receiver.c **** #include "runtime.h"
   8:Service/Srv_Receiver.c **** #include "mmu.h"
   9:Service/Srv_Receiver.c **** 
  10:Service/Srv_Receiver.c **** static uint8_t SrvReceiver_Buff[SRV_RECEIVER_BUFF_SIZE] __attribute__((section(".Perph_Section")));
  11:Service/Srv_Receiver.c **** 
  12:Service/Srv_Receiver.c **** static Error_Handler SrvReceiver_Error_Handle = NULL;
  13:Service/Srv_Receiver.c **** static SrvReceiver_Monitor_TypeDef SrvReceiver_Monitor;
  14:Service/Srv_Receiver.c **** 
  15:Service/Srv_Receiver.c **** /* internal function */
  16:Service/Srv_Receiver.c **** static void SrvReceiver_SerialDecode_Callback(SrvReceiverObj_TypeDef *obj, uint8_t *p_data, uint16_
  17:Service/Srv_Receiver.c **** static bool SrvReceiver_Check(SrvReceiverObj_TypeDef *receiver_obj);
  18:Service/Srv_Receiver.c **** static void SrvReceiver_Set_Invert(SrvReceiverObj_TypeDef *receiver_obj, uint16_t channel_index);
  19:Service/Srv_Receiver.c **** 
  20:Service/Srv_Receiver.c **** /* external function */
  21:Service/Srv_Receiver.c **** static uint8_t *SrvReceiver_Create_UartObj(uint32_t serial_instance,
  22:Service/Srv_Receiver.c ****                                            uint32_t rx_dma,
  23:Service/Srv_Receiver.c ****                                            uint32_t rx_dma_stream,
  24:Service/Srv_Receiver.c ****                                            uint32_t tx_dma,
  25:Service/Srv_Receiver.c ****                                            uint32_t tx_dma_stream,
  26:Service/Srv_Receiver.c ****                                            bool swap,
  27:Service/Srv_Receiver.c ****                                            const BspGPIO_Obj_TypeDef tx_pin,
  28:Service/Srv_Receiver.c ****                                            const BspGPIO_Obj_TypeDef rx_pin);
  29:Service/Srv_Receiver.c **** static uint8_t *SrvReceiver_Create_SPIObj(void);
  30:Service/Srv_Receiver.c **** static bool SrvReceiver_Init(SrvReceiverObj_TypeDef *obj, uint8_t *port_obj);
  31:Service/Srv_Receiver.c **** static SrvReceiverData_TypeDef SrvReceiver_Get_Value(SrvReceiverObj_TypeDef *receiver_obj);
  32:Service/Srv_Receiver.c **** 
ARM GAS  C:\Users\HUAV\AppData\Local\Temp\ccv6UgYU.s 			page 2


  33:Service/Srv_Receiver.c **** SrvReceiver_TypeDef SrvReceiver = {
  34:Service/Srv_Receiver.c ****     .create_serial_obj = SrvReceiver_Create_UartObj,
  35:Service/Srv_Receiver.c ****     .create_spi_obj = SrvReceiver_Create_SPIObj,
  36:Service/Srv_Receiver.c ****     .init = SrvReceiver_Init,
  37:Service/Srv_Receiver.c ****     .get = SrvReceiver_Get_Value,
  38:Service/Srv_Receiver.c ****     .invert = SrvReceiver_Set_Invert,
  39:Service/Srv_Receiver.c **** };
  40:Service/Srv_Receiver.c **** 
  41:Service/Srv_Receiver.c **** static Error_Obj_Typedef SrvReceiver_ErrorList[] = {
  42:Service/Srv_Receiver.c ****     {
  43:Service/Srv_Receiver.c ****         .out = false,
  44:Service/Srv_Receiver.c ****         .log = false,
  45:Service/Srv_Receiver.c ****         .prc_callback = NULL,
  46:Service/Srv_Receiver.c ****         .code = Receiver_Obj_Error,
  47:Service/Srv_Receiver.c ****         .desc = "Receiver Object Input Error\r\n",
  48:Service/Srv_Receiver.c ****         .proc_type = Error_Proc_Ignore,
  49:Service/Srv_Receiver.c ****         .prc_data_stream = {
  50:Service/Srv_Receiver.c ****             .p_data = NULL,
  51:Service/Srv_Receiver.c ****             .size = 0,
  52:Service/Srv_Receiver.c ****         },
  53:Service/Srv_Receiver.c ****     },
  54:Service/Srv_Receiver.c ****     {
  55:Service/Srv_Receiver.c ****         .out = false,
  56:Service/Srv_Receiver.c ****         .log = false,
  57:Service/Srv_Receiver.c ****         .prc_callback = NULL,
  58:Service/Srv_Receiver.c ****         .code = Receiver_Port_Error,
  59:Service/Srv_Receiver.c ****         .desc = "Receiver Port Error\r\n",
  60:Service/Srv_Receiver.c ****         .proc_type = Error_Proc_Ignore,
  61:Service/Srv_Receiver.c ****         .prc_data_stream = {
  62:Service/Srv_Receiver.c ****             .p_data = NULL,
  63:Service/Srv_Receiver.c ****             .size = 0,
  64:Service/Srv_Receiver.c ****         },
  65:Service/Srv_Receiver.c ****     },
  66:Service/Srv_Receiver.c ****     {
  67:Service/Srv_Receiver.c ****         .out = false,
  68:Service/Srv_Receiver.c ****         .log = false,
  69:Service/Srv_Receiver.c ****         .prc_callback = NULL,
  70:Service/Srv_Receiver.c ****         .code = Receiver_Port_Init_Error,
  71:Service/Srv_Receiver.c ****         .desc = "Receiver Port Init Error\r\n",
  72:Service/Srv_Receiver.c ****         .proc_type = Error_Proc_Ignore,
  73:Service/Srv_Receiver.c ****         .prc_data_stream = {
  74:Service/Srv_Receiver.c ****             .p_data = NULL,
  75:Service/Srv_Receiver.c ****             .size = 0,
  76:Service/Srv_Receiver.c ****         },
  77:Service/Srv_Receiver.c ****     },
  78:Service/Srv_Receiver.c ****     {
  79:Service/Srv_Receiver.c ****         .out = false,
  80:Service/Srv_Receiver.c ****         .log = false,
  81:Service/Srv_Receiver.c ****         .prc_callback = NULL,
  82:Service/Srv_Receiver.c ****         .code = Receiver_FrameType_Error,
  83:Service/Srv_Receiver.c ****         .desc = "Receiver Frame Type Error\r\n",
  84:Service/Srv_Receiver.c ****         .proc_type = Error_Proc_Ignore,
  85:Service/Srv_Receiver.c ****         .prc_data_stream = {
  86:Service/Srv_Receiver.c ****             .p_data = NULL,
  87:Service/Srv_Receiver.c ****             .size = 0,
  88:Service/Srv_Receiver.c ****         },
  89:Service/Srv_Receiver.c ****     },
ARM GAS  C:\Users\HUAV\AppData\Local\Temp\ccv6UgYU.s 			page 3


  90:Service/Srv_Receiver.c **** };
  91:Service/Srv_Receiver.c **** 
  92:Service/Srv_Receiver.c **** static uint8_t *SrvReceiver_Create_UartObj(uint32_t serial_instance,
  93:Service/Srv_Receiver.c ****                                            uint32_t rx_dma,
  94:Service/Srv_Receiver.c ****                                            uint32_t rx_dma_stream,
  95:Service/Srv_Receiver.c ****                                            uint32_t tx_dma,
  96:Service/Srv_Receiver.c ****                                            uint32_t tx_dma_stream,
  97:Service/Srv_Receiver.c ****                                            bool swap,
  98:Service/Srv_Receiver.c ****                                            const BspGPIO_Obj_TypeDef tx_pin,
  99:Service/Srv_Receiver.c ****                                            const BspGPIO_Obj_TypeDef rx_pin)
 100:Service/Srv_Receiver.c **** {
 101:Service/Srv_Receiver.c ****     BspUARTObj_TypeDef *Uart_Receiver_Obj = NULL;
 102:Service/Srv_Receiver.c **** 
 103:Service/Srv_Receiver.c ****     Uart_Receiver_Obj = (BspUARTObj_TypeDef *)MMU_Malloc(sizeof(BspUARTObj_TypeDef));
 104:Service/Srv_Receiver.c **** 
 105:Service/Srv_Receiver.c ****     if (Uart_Receiver_Obj == NULL)
 106:Service/Srv_Receiver.c ****     {
 107:Service/Srv_Receiver.c ****         MMU_Free(Uart_Receiver_Obj);
 108:Service/Srv_Receiver.c ****         return NULL;
 109:Service/Srv_Receiver.c ****     }
 110:Service/Srv_Receiver.c **** 
 111:Service/Srv_Receiver.c ****     memset(Uart_Receiver_Obj, 0, sizeof(BspUARTObj_TypeDef));
 112:Service/Srv_Receiver.c **** 
 113:Service/Srv_Receiver.c ****     Uart_Receiver_Obj->instance = serial_instance;
 114:Service/Srv_Receiver.c ****     Uart_Receiver_Obj->tx_io = tx_pin;
 115:Service/Srv_Receiver.c ****     Uart_Receiver_Obj->rx_io = rx_pin;
 116:Service/Srv_Receiver.c ****     Uart_Receiver_Obj->pin_swap = swap;
 117:Service/Srv_Receiver.c ****     Uart_Receiver_Obj->rx_dma = rx_dma;
 118:Service/Srv_Receiver.c ****     Uart_Receiver_Obj->rx_stream = rx_dma_stream;
 119:Service/Srv_Receiver.c ****     Uart_Receiver_Obj->tx_dma = tx_dma;
 120:Service/Srv_Receiver.c ****     Uart_Receiver_Obj->tx_stream = tx_dma_stream;
 121:Service/Srv_Receiver.c **** 
 122:Service/Srv_Receiver.c ****     return Uart_Receiver_Obj;
 123:Service/Srv_Receiver.c **** }
 124:Service/Srv_Receiver.c **** 
 125:Service/Srv_Receiver.c **** static uint8_t *SrvReceiver_Create_SPIObj(void)
 126:Service/Srv_Receiver.c **** {
  27              		.loc 1 126 1 view -0
  28              		.cfi_startproc
  29              		@ args = 0, pretend = 0, frame = 0
  30              		@ frame_needed = 0, uses_anonymous_args = 0
  31              		@ link register save eliminated.
 127:Service/Srv_Receiver.c **** }
  32              		.loc 1 127 1 view .LVU1
  33 0000 7047     		bx	lr
  34              		.cfi_endproc
  35              	.LFE148:
  37              		.section	.text.SrvReceiver_Set_Invert,"ax",%progbits
  38              		.align	1
  39              		.syntax unified
  40              		.thumb
  41              		.thumb_func
  42              		.fpu fpv5-d16
  44              	SrvReceiver_Set_Invert:
  45              	.LVL0:
  46              	.LFB152:
 128:Service/Srv_Receiver.c **** 
ARM GAS  C:\Users\HUAV\AppData\Local\Temp\ccv6UgYU.s 			page 4


 129:Service/Srv_Receiver.c **** static bool SrvReceiver_Init(SrvReceiverObj_TypeDef *obj, uint8_t *port_obj)
 130:Service/Srv_Receiver.c **** {
 131:Service/Srv_Receiver.c ****     bool data_obj_error = false;
 132:Service/Srv_Receiver.c ****     BspUARTObj_TypeDef *Uart_Receiver_Obj = NULL;
 133:Service/Srv_Receiver.c **** 
 134:Service/Srv_Receiver.c ****     if ((obj == NULL) || (port_obj == NULL))
 135:Service/Srv_Receiver.c ****         return false;
 136:Service/Srv_Receiver.c **** 
 137:Service/Srv_Receiver.c ****     memset(SrvReceiver_Buff, NULL, SRV_RECEIVER_BUFF_SIZE);
 138:Service/Srv_Receiver.c **** 
 139:Service/Srv_Receiver.c ****     /* create error log handle */
 140:Service/Srv_Receiver.c ****     SrvReceiver_Error_Handle = ErrorLog.create("SrvReceiver_Error");
 141:Service/Srv_Receiver.c **** 
 142:Service/Srv_Receiver.c ****     /* regist all error to the error tree */
 143:Service/Srv_Receiver.c ****     ErrorLog.registe(SrvReceiver_Error_Handle, SrvReceiver_ErrorList, sizeof(SrvReceiver_ErrorList)
 144:Service/Srv_Receiver.c **** 
 145:Service/Srv_Receiver.c ****     switch (obj->port_type)
 146:Service/Srv_Receiver.c ****     {
 147:Service/Srv_Receiver.c ****     case Receiver_Port_Serial:
 148:Service/Srv_Receiver.c ****         Uart_Receiver_Obj = (BspUARTObj_TypeDef *)port_obj;
 149:Service/Srv_Receiver.c **** 
 150:Service/Srv_Receiver.c ****         memset(&SrvReceiver_Monitor, NULL, SRVRECEIVER_SIZE);
 151:Service/Srv_Receiver.c **** 
 152:Service/Srv_Receiver.c ****         switch (obj->Frame_type)
 153:Service/Srv_Receiver.c ****         {
 154:Service/Srv_Receiver.c ****         case Receiver_Type_Sbus:
 155:Service/Srv_Receiver.c ****             Uart_Receiver_Obj->baudrate = SBUS_BAUDRATE;
 156:Service/Srv_Receiver.c **** 
 157:Service/Srv_Receiver.c ****             /* create data obj */
 158:Service/Srv_Receiver.c ****             obj->frame_data_obj = MMU_Malloc(sizeof(DevSBUSObj_TypeDef));
 159:Service/Srv_Receiver.c ****             if (obj->frame_data_obj == NULL)
 160:Service/Srv_Receiver.c ****             {
 161:Service/Srv_Receiver.c ****                 data_obj_error = true;
 162:Service/Srv_Receiver.c ****                 break;
 163:Service/Srv_Receiver.c ****             }
 164:Service/Srv_Receiver.c **** 
 165:Service/Srv_Receiver.c ****             /* init inverter pin */
 166:Service/Srv_Receiver.c ****             // obj->inverter_init();
 167:Service/Srv_Receiver.c ****             // obj->invert_control();
 168:Service/Srv_Receiver.c **** 
 169:Service/Srv_Receiver.c ****             /* set max channel num */
 170:Service/Srv_Receiver.c ****             obj->channel_num = SBUS_MAX_CHANNEL;
 171:Service/Srv_Receiver.c **** 
 172:Service/Srv_Receiver.c ****             /* set receiver object frame object */
 173:Service/Srv_Receiver.c ****             obj->frame_api = &DevSBUS;
 174:Service/Srv_Receiver.c **** 
 175:Service/Srv_Receiver.c ****             if (!((DevSBUS_TypeDef *)(obj->frame_api))->init(obj->frame_data_obj))
 176:Service/Srv_Receiver.c ****                 return false;
 177:Service/Srv_Receiver.c ****             break;
 178:Service/Srv_Receiver.c **** 
 179:Service/Srv_Receiver.c ****         case Receiver_Type_CRSF:
 180:Service/Srv_Receiver.c ****             Uart_Receiver_Obj->baudrate = CRSF_BAUDRATE;
 181:Service/Srv_Receiver.c **** 
 182:Service/Srv_Receiver.c ****             /* create data obj */
 183:Service/Srv_Receiver.c ****             obj->frame_data_obj = MMU_Malloc(sizeof(DevCRSFObj_TypeDef));
 184:Service/Srv_Receiver.c ****             if (obj->frame_data_obj == NULL)
 185:Service/Srv_Receiver.c ****             {
ARM GAS  C:\Users\HUAV\AppData\Local\Temp\ccv6UgYU.s 			page 5


 186:Service/Srv_Receiver.c ****                 data_obj_error = true;
 187:Service/Srv_Receiver.c ****                 break;
 188:Service/Srv_Receiver.c ****             }
 189:Service/Srv_Receiver.c **** 
 190:Service/Srv_Receiver.c ****             /* for crsf receiver we dont need inverter */
 191:Service/Srv_Receiver.c ****             obj->invert_control = NULL;
 192:Service/Srv_Receiver.c ****             obj->inverter_init = NULL;
 193:Service/Srv_Receiver.c **** 
 194:Service/Srv_Receiver.c ****             /* set max channel num */
 195:Service/Srv_Receiver.c ****             obj->channel_num = CRSF_MAX_CHANNEL;
 196:Service/Srv_Receiver.c **** 
 197:Service/Srv_Receiver.c ****             /* set receiver object frame object */
 198:Service/Srv_Receiver.c ****             obj->frame_api = &DevCRSF;
 199:Service/Srv_Receiver.c **** 
 200:Service/Srv_Receiver.c ****             if (!((DevCRSF_TypeDef *)(obj->frame_api))->init(obj->frame_data_obj))
 201:Service/Srv_Receiver.c ****                 return false;
 202:Service/Srv_Receiver.c ****             break;
 203:Service/Srv_Receiver.c **** 
 204:Service/Srv_Receiver.c ****         default:
 205:Service/Srv_Receiver.c ****             return false;
 206:Service/Srv_Receiver.c ****         }
 207:Service/Srv_Receiver.c **** 
 208:Service/Srv_Receiver.c ****         obj->data.val_list = (uint16_t *)MMU_Malloc(sizeof(uint16_t) * obj->channel_num);
 209:Service/Srv_Receiver.c ****         if (!obj->data.val_list)
 210:Service/Srv_Receiver.c ****         {
 211:Service/Srv_Receiver.c ****             MMU_Free(obj->data.val_list);
 212:Service/Srv_Receiver.c ****             return false;
 213:Service/Srv_Receiver.c ****         }
 214:Service/Srv_Receiver.c **** 
 215:Service/Srv_Receiver.c ****         obj->port = (SrvReceiver_Port_TypeDef *)MMU_Malloc(sizeof(SrvReceiver_Port_TypeDef));
 216:Service/Srv_Receiver.c ****         if (!obj->port)
 217:Service/Srv_Receiver.c ****         {
 218:Service/Srv_Receiver.c ****             MMU_Free(obj->data.val_list);
 219:Service/Srv_Receiver.c ****             return false;
 220:Service/Srv_Receiver.c ****         }
 221:Service/Srv_Receiver.c **** 
 222:Service/Srv_Receiver.c ****         if (data_obj_error)
 223:Service/Srv_Receiver.c ****         {
 224:Service/Srv_Receiver.c ****             ErrorLog.trigger(SrvReceiver_Error_Handle, Receiver_Obj_Error, &SrvReceiver_Monitor, SR
 225:Service/Srv_Receiver.c ****             return false;
 226:Service/Srv_Receiver.c ****         }
 227:Service/Srv_Receiver.c **** 
 228:Service/Srv_Receiver.c ****         /* set uart init parameter */
 229:Service/Srv_Receiver.c ****         Uart_Receiver_Obj->rx_buf = SrvReceiver_Buff;
 230:Service/Srv_Receiver.c ****         Uart_Receiver_Obj->rx_size = SRV_RECEIVER_BUFF_SIZE;
 231:Service/Srv_Receiver.c ****         Uart_Receiver_Obj->cust_data_addr = obj;
 232:Service/Srv_Receiver.c **** 
 233:Service/Srv_Receiver.c ****         /* set uart callback */
 234:Service/Srv_Receiver.c ****         Uart_Receiver_Obj->RxCallback = SrvReceiver_SerialDecode_Callback;
 235:Service/Srv_Receiver.c **** 
 236:Service/Srv_Receiver.c ****         /* serial port init */
 237:Service/Srv_Receiver.c ****         if (!BspUart.init(Uart_Receiver_Obj))
 238:Service/Srv_Receiver.c ****         {
 239:Service/Srv_Receiver.c ****             ErrorLog.trigger(SrvReceiver_Error_Handle, Receiver_Port_Init_Error, &SrvReceiver_Monit
 240:Service/Srv_Receiver.c ****             return false;
 241:Service/Srv_Receiver.c ****         }
 242:Service/Srv_Receiver.c **** 
ARM GAS  C:\Users\HUAV\AppData\Local\Temp\ccv6UgYU.s 			page 6


 243:Service/Srv_Receiver.c ****         obj->port->api = &BspUart;
 244:Service/Srv_Receiver.c ****         obj->port->cfg = Uart_Receiver_Obj;
 245:Service/Srv_Receiver.c ****         break;
 246:Service/Srv_Receiver.c **** 
 247:Service/Srv_Receiver.c ****     case Receiver_Port_Spi:
 248:Service/Srv_Receiver.c ****         /* spi port init */
 249:Service/Srv_Receiver.c ****         break;
 250:Service/Srv_Receiver.c **** 
 251:Service/Srv_Receiver.c ****     default:
 252:Service/Srv_Receiver.c ****         ErrorLog.trigger(SrvReceiver_Error_Handle, Receiver_Obj_Error, &SrvReceiver_Monitor, SRVREC
 253:Service/Srv_Receiver.c ****         return false;
 254:Service/Srv_Receiver.c ****     }
 255:Service/Srv_Receiver.c **** 
 256:Service/Srv_Receiver.c ****     obj->invert_list = 0;
 257:Service/Srv_Receiver.c **** 
 258:Service/Srv_Receiver.c ****     return true;
 259:Service/Srv_Receiver.c **** }
 260:Service/Srv_Receiver.c **** 
 261:Service/Srv_Receiver.c **** static void SrvReceiver_SerialDecode_Callback(SrvReceiverObj_TypeDef *receiver_obj, uint8_t *p_data
 262:Service/Srv_Receiver.c **** {
 263:Service/Srv_Receiver.c ****     BspUARTObj_TypeDef *uart_obj = NULL;
 264:Service/Srv_Receiver.c ****     uint8_t *rx_buff_ptr = NULL;
 265:Service/Srv_Receiver.c ****     uint16_t rx_buff_size = 0;
 266:Service/Srv_Receiver.c ****     uint8_t decode_out = 0xFF;
 267:Service/Srv_Receiver.c **** 
 268:Service/Srv_Receiver.c ****     if (receiver_obj && receiver_obj->frame_api && receiver_obj->port && receiver_obj->frame_data_o
 269:Service/Srv_Receiver.c ****     {
 270:Service/Srv_Receiver.c ****         if (receiver_obj->port_type == Receiver_Port_Serial)
 271:Service/Srv_Receiver.c ****         {
 272:Service/Srv_Receiver.c ****             if (receiver_obj->in_use)
 273:Service/Srv_Receiver.c ****             {
 274:Service/Srv_Receiver.c ****                 receiver_obj->re_update = true;
 275:Service/Srv_Receiver.c ****             }
 276:Service/Srv_Receiver.c ****             else
 277:Service/Srv_Receiver.c ****                 receiver_obj->re_update = false;
 278:Service/Srv_Receiver.c **** 
 279:Service/Srv_Receiver.c ****             /* do serial decode funtion */
 280:Service/Srv_Receiver.c ****             if (receiver_obj->Frame_type == Receiver_Type_CRSF)
 281:Service/Srv_Receiver.c ****             {
 282:Service/Srv_Receiver.c ****                 decode_out = ((DevCRSF_TypeDef *)(receiver_obj->frame_api))->decode(receiver_obj->f
 283:Service/Srv_Receiver.c **** 
 284:Service/Srv_Receiver.c ****                 switch (decode_out)
 285:Service/Srv_Receiver.c ****                 {
 286:Service/Srv_Receiver.c ****                 case CRSF_FRAMETYPE_LINK_STATISTICS:
 287:Service/Srv_Receiver.c ****                     receiver_obj->data.rssi = ((DevCRSF_TypeDef *)(receiver_obj->frame_api))->get_s
 288:Service/Srv_Receiver.c ****                     receiver_obj->data.link_quality = ((DevCRSF_TypeDef *)(receiver_obj->frame_api)
 289:Service/Srv_Receiver.c ****                     receiver_obj->data.active_antenna = ((DevCRSF_TypeDef *)(receiver_obj->frame_ap
 290:Service/Srv_Receiver.c ****                     break;
 291:Service/Srv_Receiver.c **** 
 292:Service/Srv_Receiver.c ****                 case CRSF_FRAMETYPE_RC_CHANNELS_PACKED:
 293:Service/Srv_Receiver.c ****                     ((DevCRSF_TypeDef *)(receiver_obj->frame_api))->get_channel(receiver_obj->frame
 294:Service/Srv_Receiver.c **** 
 295:Service/Srv_Receiver.c ****                     for (uint8_t i = 0; i < receiver_obj->channel_num; i++)
 296:Service/Srv_Receiver.c ****                     {
 297:Service/Srv_Receiver.c ****                         if (receiver_obj->data.val_list[i] < CRSF_DIGITAL_CHANNEL_MIN)
 298:Service/Srv_Receiver.c ****                         {
 299:Service/Srv_Receiver.c ****                             receiver_obj->data.val_list[i] = CRSF_DIGITAL_CHANNEL_MIN;
ARM GAS  C:\Users\HUAV\AppData\Local\Temp\ccv6UgYU.s 			page 7


 300:Service/Srv_Receiver.c ****                         }
 301:Service/Srv_Receiver.c ****                         else if (receiver_obj->data.val_list[i] > CRSF_DIGITAL_CHANNEL_MAX)
 302:Service/Srv_Receiver.c ****                         {
 303:Service/Srv_Receiver.c ****                             receiver_obj->data.val_list[i] = CRSF_DIGITAL_CHANNEL_MAX;
 304:Service/Srv_Receiver.c ****                         }
 305:Service/Srv_Receiver.c **** 
 306:Service/Srv_Receiver.c ****                         if (receiver_obj->invert_list && (receiver_obj->invert_list & 1 << i))
 307:Service/Srv_Receiver.c ****                         {
 308:Service/Srv_Receiver.c ****                             receiver_obj->data.val_list[i] -= CHANNEL_RANGE_MID;
 309:Service/Srv_Receiver.c ****                             receiver_obj->data.val_list[i] = CHANNEL_RANGE_MID - receiver_obj->data
 310:Service/Srv_Receiver.c ****                         }
 311:Service/Srv_Receiver.c ****                     }
 312:Service/Srv_Receiver.c **** 
 313:Service/Srv_Receiver.c ****                     receiver_obj->data.failsafe = false;
 314:Service/Srv_Receiver.c ****                     break;
 315:Service/Srv_Receiver.c **** 
 316:Service/Srv_Receiver.c ****                 default:
 317:Service/Srv_Receiver.c ****                     return;
 318:Service/Srv_Receiver.c ****                 }
 319:Service/Srv_Receiver.c ****             }
 320:Service/Srv_Receiver.c ****             else if (receiver_obj->Frame_type == Receiver_Type_Sbus)
 321:Service/Srv_Receiver.c ****             {
 322:Service/Srv_Receiver.c ****                 if (((DevSBUS_TypeDef *)(receiver_obj->frame_api))->decode(receiver_obj->frame_data
 323:Service/Srv_Receiver.c ****                 {
 324:Service/Srv_Receiver.c ****                     for (uint8_t i = 0; i < receiver_obj->channel_num; i++)
 325:Service/Srv_Receiver.c ****                     {
 326:Service/Srv_Receiver.c ****                         receiver_obj->data.val_list[i] = ((DevSBUSObj_TypeDef *)receiver_obj->frame
 327:Service/Srv_Receiver.c **** 
 328:Service/Srv_Receiver.c ****                         if (receiver_obj->invert_list && receiver_obj->invert_list & 1 << i)
 329:Service/Srv_Receiver.c ****                         {
 330:Service/Srv_Receiver.c ****                             receiver_obj->data.val_list[i] -= CHANNEL_RANGE_MID;
 331:Service/Srv_Receiver.c ****                             receiver_obj->data.val_list[i] = CHANNEL_RANGE_MID - receiver_obj->data
 332:Service/Srv_Receiver.c ****                         }
 333:Service/Srv_Receiver.c ****                     }
 334:Service/Srv_Receiver.c ****                 }
 335:Service/Srv_Receiver.c ****             }
 336:Service/Srv_Receiver.c **** 
 337:Service/Srv_Receiver.c ****             /* set decode time stamp */
 338:Service/Srv_Receiver.c ****             receiver_obj->data.time_stamp = Get_CurrentRunningMs();
 339:Service/Srv_Receiver.c **** 
 340:Service/Srv_Receiver.c ****             /* clear serial obj received data */
 341:Service/Srv_Receiver.c ****             if (receiver_obj->port->cfg)
 342:Service/Srv_Receiver.c ****             {
 343:Service/Srv_Receiver.c ****                 uart_obj = ((BspUARTObj_TypeDef *)(receiver_obj->port->cfg));
 344:Service/Srv_Receiver.c **** 
 345:Service/Srv_Receiver.c ****                 rx_buff_ptr = uart_obj->rx_buf;
 346:Service/Srv_Receiver.c **** 
 347:Service/Srv_Receiver.c ****                 if (rx_buff_ptr)
 348:Service/Srv_Receiver.c ****                     memset(rx_buff_ptr, NULL, size);
 349:Service/Srv_Receiver.c ****             }
 350:Service/Srv_Receiver.c ****         }
 351:Service/Srv_Receiver.c ****     }
 352:Service/Srv_Receiver.c **** }
 353:Service/Srv_Receiver.c **** 
 354:Service/Srv_Receiver.c **** static bool SrvReceiver_Check(SrvReceiverObj_TypeDef *receiver_obj)
 355:Service/Srv_Receiver.c **** {
 356:Service/Srv_Receiver.c ****     /* update check */
ARM GAS  C:\Users\HUAV\AppData\Local\Temp\ccv6UgYU.s 			page 8


 357:Service/Srv_Receiver.c ****     /* update frequence less than 10hz switch into failsafe */
 358:Service/Srv_Receiver.c ****     if ((Get_CurrentRunningMs() - receiver_obj->data.time_stamp) > SRV_RECEIVER_UPDATE_TIMEOUT_MS)
 359:Service/Srv_Receiver.c ****     {
 360:Service/Srv_Receiver.c ****         return false;
 361:Service/Srv_Receiver.c ****     }
 362:Service/Srv_Receiver.c **** 
 363:Service/Srv_Receiver.c ****     /* range check */
 364:Service/Srv_Receiver.c ****     for (uint8_t i = 0; i < receiver_obj->channel_num; i++)
 365:Service/Srv_Receiver.c ****     {
 366:Service/Srv_Receiver.c ****         if ((receiver_obj->data.val_list[i] > CHANNEL_RANGE_MAX) || (receiver_obj->data.val_list[i]
 367:Service/Srv_Receiver.c ****             return false;
 368:Service/Srv_Receiver.c ****     }
 369:Service/Srv_Receiver.c **** 
 370:Service/Srv_Receiver.c ****     /* check RSSI Or Statistics Data */
 371:Service/Srv_Receiver.c ****     if (receiver_obj->Frame_type == Receiver_Type_CRSF)
 372:Service/Srv_Receiver.c ****     {
 373:Service/Srv_Receiver.c ****         /* check CRSF Statistics Data */
 374:Service/Srv_Receiver.c ****         if ((receiver_obj->data.rssi < SRV_RECEIVER_MIN_RSSI) ||
 375:Service/Srv_Receiver.c ****             (receiver_obj->data.link_quality < SRV_RECEIVER_MIN_LINKQUALITY) ||
 376:Service/Srv_Receiver.c ****             (receiver_obj->data.active_antenna < SRV_RECEIVER_MIN_ANTENNA_VALUE))
 377:Service/Srv_Receiver.c ****             return false;
 378:Service/Srv_Receiver.c ****     }
 379:Service/Srv_Receiver.c ****     else if (receiver_obj->Frame_type == Receiver_Type_Sbus)
 380:Service/Srv_Receiver.c ****     {
 381:Service/Srv_Receiver.c ****         /* check SBUS Last Byte Functional Bit Or check RSSI */
 382:Service/Srv_Receiver.c ****         /* currently we don't have any sbus device for testing */
 383:Service/Srv_Receiver.c ****         /* return false currently */
 384:Service/Srv_Receiver.c ****         return false;
 385:Service/Srv_Receiver.c ****     }
 386:Service/Srv_Receiver.c **** 
 387:Service/Srv_Receiver.c ****     return true;
 388:Service/Srv_Receiver.c **** }
 389:Service/Srv_Receiver.c **** 
 390:Service/Srv_Receiver.c **** static void SrvReceiver_Set_Invert(SrvReceiverObj_TypeDef *receiver_obj, uint16_t channel_index)
 391:Service/Srv_Receiver.c **** {
  47              		.loc 1 391 1 view -0
  48              		.cfi_startproc
  49              		@ args = 0, pretend = 0, frame = 0
  50              		@ frame_needed = 0, uses_anonymous_args = 0
  51              		@ link register save eliminated.
 392:Service/Srv_Receiver.c ****     if (receiver_obj && (channel_index < receiver_obj->channel_num))
  52              		.loc 1 392 5 view .LVU3
  53              		.loc 1 392 8 is_stmt 0 view .LVU4
  54 0000 0346     		mov	r3, r0
  55 0002 88B1     		cbz	r0, .L2
  56              		.loc 1 392 54 discriminator 1 view .LVU5
  57 0004 827B     		ldrb	r2, [r0, #14]	@ zero_extendqisi2
  58              		.loc 1 392 22 discriminator 1 view .LVU6
  59 0006 8A42     		cmp	r2, r1
  60 0008 0ED9     		bls	.L2
 393:Service/Srv_Receiver.c ****     {
 394:Service/Srv_Receiver.c ****         if (receiver_obj->invert_list & (1 << channel_index))
  61              		.loc 1 394 9 is_stmt 1 view .LVU7
  62              		.loc 1 394 25 is_stmt 0 view .LVU8
  63 000a D0F82B20 		ldr	r2, [r0, #43]	@ unaligned
  64              		.loc 1 394 44 view .LVU9
  65 000e 0120     		movs	r0, #1
ARM GAS  C:\Users\HUAV\AppData\Local\Temp\ccv6UgYU.s 			page 9


  66              	.LVL1:
  67              		.loc 1 394 44 view .LVU10
  68 0010 00FA01F1 		lsl	r1, r0, r1
  69              	.LVL2:
  70              		.loc 1 394 12 view .LVU11
  71 0014 0A42     		tst	r2, r1
  72 0016 04D0     		beq	.L4
 395:Service/Srv_Receiver.c ****         {
 396:Service/Srv_Receiver.c ****             receiver_obj->invert_list &= ~(1 << channel_index);
  73              		.loc 1 396 13 is_stmt 1 view .LVU12
  74              		.loc 1 396 39 is_stmt 0 view .LVU13
  75 0018 22EA0102 		bic	r2, r2, r1
  76 001c C3F82B20 		str	r2, [r3, #43]	@ unaligned
  77 0020 7047     		bx	lr
  78              	.L4:
 397:Service/Srv_Receiver.c ****         }
 398:Service/Srv_Receiver.c ****         else
 399:Service/Srv_Receiver.c ****         {
 400:Service/Srv_Receiver.c ****             receiver_obj->invert_list |= (1 << channel_index);
  79              		.loc 1 400 13 is_stmt 1 view .LVU14
  80              		.loc 1 400 39 is_stmt 0 view .LVU15
  81 0022 0A43     		orrs	r2, r2, r1
  82 0024 C3F82B20 		str	r2, [r3, #43]	@ unaligned
  83              	.L2:
 401:Service/Srv_Receiver.c ****         }
 402:Service/Srv_Receiver.c ****     }
 403:Service/Srv_Receiver.c **** }
  84              		.loc 1 403 1 view .LVU16
  85 0028 7047     		bx	lr
  86              		.cfi_endproc
  87              	.LFE152:
  89              		.section	.text.SrvReceiver_Check,"ax",%progbits
  90              		.align	1
  91              		.syntax unified
  92              		.thumb
  93              		.thumb_func
  94              		.fpu fpv5-d16
  96              	SrvReceiver_Check:
  97              	.LVL3:
  98              	.LFB151:
 355:Service/Srv_Receiver.c ****     /* update check */
  99              		.loc 1 355 1 is_stmt 1 view -0
 100              		.cfi_startproc
 101              		@ args = 0, pretend = 0, frame = 0
 102              		@ frame_needed = 0, uses_anonymous_args = 0
 355:Service/Srv_Receiver.c ****     /* update check */
 103              		.loc 1 355 1 is_stmt 0 view .LVU18
 104 0000 10B5     		push	{r4, lr}
 105              	.LCFI0:
 106              		.cfi_def_cfa_offset 8
 107              		.cfi_offset 4, -8
 108              		.cfi_offset 14, -4
 109 0002 0446     		mov	r4, r0
 358:Service/Srv_Receiver.c ****     {
 110              		.loc 1 358 5 is_stmt 1 view .LVU19
 358:Service/Srv_Receiver.c ****     {
 111              		.loc 1 358 10 is_stmt 0 view .LVU20
ARM GAS  C:\Users\HUAV\AppData\Local\Temp\ccv6UgYU.s 			page 10


 112 0004 FFF7FEFF 		bl	Get_CurrentRunningMs
 113              	.LVL4:
 358:Service/Srv_Receiver.c ****     {
 114              		.loc 1 358 53 view .LVU21
 115 0008 D4F81330 		ldr	r3, [r4, #19]	@ unaligned
 358:Service/Srv_Receiver.c ****     {
 116              		.loc 1 358 33 view .LVU22
 117 000c C01A     		subs	r0, r0, r3
 118 000e 61F10001 		sbc	r1, r1, #0
 358:Service/Srv_Receiver.c ****     {
 119              		.loc 1 358 8 view .LVU23
 120 0012 6528     		cmp	r0, #101
 121 0014 71F10003 		sbcs	r3, r1, #0
 122 0018 22D2     		bcs	.L10
 123              	.LBB2:
 364:Service/Srv_Receiver.c ****     {
 124              		.loc 1 364 18 view .LVU24
 125 001a 0022     		movs	r2, #0
 126              	.L7:
 127              	.LVL5:
 364:Service/Srv_Receiver.c ****     {
 128              		.loc 1 364 25 is_stmt 1 discriminator 1 view .LVU25
 364:Service/Srv_Receiver.c ****     {
 129              		.loc 1 364 41 is_stmt 0 discriminator 1 view .LVU26
 130 001c A37B     		ldrb	r3, [r4, #14]	@ zero_extendqisi2
 364:Service/Srv_Receiver.c ****     {
 131              		.loc 1 364 5 discriminator 1 view .LVU27
 132 001e 9342     		cmp	r3, r2
 133 0020 0BD9     		bls	.L17
 366:Service/Srv_Receiver.c ****             return false;
 134              		.loc 1 366 9 is_stmt 1 view .LVU28
 366:Service/Srv_Receiver.c ****             return false;
 135              		.loc 1 366 32 is_stmt 0 view .LVU29
 136 0022 D4F81730 		ldr	r3, [r4, #23]	@ unaligned
 366:Service/Srv_Receiver.c ****             return false;
 137              		.loc 1 366 41 view .LVU30
 138 0026 33F81230 		ldrh	r3, [r3, r2, lsl #1]
 366:Service/Srv_Receiver.c ****             return false;
 139              		.loc 1 366 66 view .LVU31
 140 002a 643B     		subs	r3, r3, #100
 141 002c 9BB2     		uxth	r3, r3
 366:Service/Srv_Receiver.c ****             return false;
 142              		.loc 1 366 12 view .LVU32
 143 002e B3F5E16F 		cmp	r3, #1800
 144 0032 17D8     		bhi	.L11
 364:Service/Srv_Receiver.c ****     {
 145              		.loc 1 364 56 is_stmt 1 discriminator 2 view .LVU33
 364:Service/Srv_Receiver.c ****     {
 146              		.loc 1 364 57 is_stmt 0 discriminator 2 view .LVU34
 147 0034 0132     		adds	r2, r2, #1
 148              	.LVL6:
 364:Service/Srv_Receiver.c ****     {
 149              		.loc 1 364 57 discriminator 2 view .LVU35
 150 0036 D2B2     		uxtb	r2, r2
 151              	.LVL7:
 364:Service/Srv_Receiver.c ****     {
 152              		.loc 1 364 57 discriminator 2 view .LVU36
ARM GAS  C:\Users\HUAV\AppData\Local\Temp\ccv6UgYU.s 			page 11


 153 0038 F0E7     		b	.L7
 154              	.L17:
 364:Service/Srv_Receiver.c ****     {
 155              		.loc 1 364 57 discriminator 2 view .LVU37
 156              	.LBE2:
 371:Service/Srv_Receiver.c ****     {
 157              		.loc 1 371 5 is_stmt 1 view .LVU38
 371:Service/Srv_Receiver.c ****     {
 158              		.loc 1 371 21 is_stmt 0 view .LVU39
 159 003a 2378     		ldrb	r3, [r4]	@ zero_extendqisi2
 371:Service/Srv_Receiver.c ****     {
 160              		.loc 1 371 8 view .LVU40
 161 003c 012B     		cmp	r3, #1
 162 003e 02D0     		beq	.L18
 379:Service/Srv_Receiver.c ****     {
 163              		.loc 1 379 10 is_stmt 1 view .LVU41
 379:Service/Srv_Receiver.c ****     {
 164              		.loc 1 379 13 is_stmt 0 view .LVU42
 165 0040 C3B1     		cbz	r3, .L15
 387:Service/Srv_Receiver.c **** }
 166              		.loc 1 387 12 view .LVU43
 167 0042 0120     		movs	r0, #1
 168 0044 0DE0     		b	.L6
 169              	.L18:
 374:Service/Srv_Receiver.c ****             (receiver_obj->data.link_quality < SRV_RECEIVER_MIN_LINKQUALITY) ||
 170              		.loc 1 374 9 is_stmt 1 view .LVU44
 374:Service/Srv_Receiver.c ****             (receiver_obj->data.link_quality < SRV_RECEIVER_MIN_LINKQUALITY) ||
 171              		.loc 1 374 32 is_stmt 0 view .LVU45
 172 0046 B4F81B30 		ldrh	r3, [r4, #27]	@ unaligned
 374:Service/Srv_Receiver.c ****             (receiver_obj->data.link_quality < SRV_RECEIVER_MIN_LINKQUALITY) ||
 173              		.loc 1 374 12 view .LVU46
 174 004a 092B     		cmp	r3, #9
 175 004c 0CD9     		bls	.L12
 375:Service/Srv_Receiver.c ****             (receiver_obj->data.active_antenna < SRV_RECEIVER_MIN_ANTENNA_VALUE))
 176              		.loc 1 375 32 discriminator 1 view .LVU47
 177 004e B4F81D30 		ldrh	r3, [r4, #29]	@ unaligned
 374:Service/Srv_Receiver.c ****             (receiver_obj->data.link_quality < SRV_RECEIVER_MIN_LINKQUALITY) ||
 178              		.loc 1 374 63 discriminator 1 view .LVU48
 179 0052 092B     		cmp	r3, #9
 180 0054 0AD9     		bls	.L13
 376:Service/Srv_Receiver.c ****             return false;
 181              		.loc 1 376 32 view .LVU49
 182 0056 E37F     		ldrb	r3, [r4, #31]	@ zero_extendqisi2
 375:Service/Srv_Receiver.c ****             (receiver_obj->data.active_antenna < SRV_RECEIVER_MIN_ANTENNA_VALUE))
 183              		.loc 1 375 78 view .LVU50
 184 0058 042B     		cmp	r3, #4
 185 005a 09D9     		bls	.L14
 387:Service/Srv_Receiver.c **** }
 186              		.loc 1 387 12 view .LVU51
 187 005c 0120     		movs	r0, #1
 188 005e 00E0     		b	.L6
 189              	.LVL8:
 190              	.L10:
 360:Service/Srv_Receiver.c ****     }
 191              		.loc 1 360 16 view .LVU52
 192 0060 0020     		movs	r0, #0
 193              	.L6:
ARM GAS  C:\Users\HUAV\AppData\Local\Temp\ccv6UgYU.s 			page 12


 388:Service/Srv_Receiver.c **** 
 194              		.loc 1 388 1 view .LVU53
 195 0062 10BD     		pop	{r4, pc}
 196              	.LVL9:
 197              	.L11:
 198              	.LBB3:
 367:Service/Srv_Receiver.c ****     }
 199              		.loc 1 367 20 view .LVU54
 200 0064 0020     		movs	r0, #0
 201 0066 FCE7     		b	.L6
 202              	.L12:
 367:Service/Srv_Receiver.c ****     }
 203              		.loc 1 367 20 view .LVU55
 204              	.LBE3:
 377:Service/Srv_Receiver.c ****     }
 205              		.loc 1 377 20 view .LVU56
 206 0068 0020     		movs	r0, #0
 207 006a FAE7     		b	.L6
 208              	.L13:
 209 006c 0020     		movs	r0, #0
 210 006e F8E7     		b	.L6
 211              	.L14:
 212 0070 0020     		movs	r0, #0
 213 0072 F6E7     		b	.L6
 214              	.L15:
 384:Service/Srv_Receiver.c ****     }
 215              		.loc 1 384 16 view .LVU57
 216 0074 0020     		movs	r0, #0
 217 0076 F4E7     		b	.L6
 218              		.cfi_endproc
 219              	.LFE151:
 221              		.section	.text.SrvReceiver_Get_Value,"ax",%progbits
 222              		.align	1
 223              		.syntax unified
 224              		.thumb
 225              		.thumb_func
 226              		.fpu fpv5-d16
 228              	SrvReceiver_Get_Value:
 229              	.LVL10:
 230              	.LFB153:
 404:Service/Srv_Receiver.c **** 
 405:Service/Srv_Receiver.c **** static SrvReceiverData_TypeDef SrvReceiver_Get_Value(SrvReceiverObj_TypeDef *receiver_obj)
 406:Service/Srv_Receiver.c **** {
 231              		.loc 1 406 1 is_stmt 1 view -0
 232              		.cfi_startproc
 233              		@ args = 0, pretend = 0, frame = 16
 234              		@ frame_needed = 0, uses_anonymous_args = 0
 235              		.loc 1 406 1 is_stmt 0 view .LVU59
 236 0000 30B5     		push	{r4, r5, lr}
 237              	.LCFI1:
 238              		.cfi_def_cfa_offset 12
 239              		.cfi_offset 4, -12
 240              		.cfi_offset 5, -8
 241              		.cfi_offset 14, -4
 242 0002 85B0     		sub	sp, sp, #20
 243              	.LCFI2:
 244              		.cfi_def_cfa_offset 32
ARM GAS  C:\Users\HUAV\AppData\Local\Temp\ccv6UgYU.s 			page 13


 245 0004 0546     		mov	r5, r0
 407:Service/Srv_Receiver.c ****     SrvReceiverData_TypeDef receiver_data_tmp;
 246              		.loc 1 407 5 is_stmt 1 view .LVU60
 408:Service/Srv_Receiver.c **** 
 409:Service/Srv_Receiver.c ****     memset(&receiver_data_tmp, 0, sizeof(receiver_data_tmp));
 247              		.loc 1 409 5 view .LVU61
 248 0006 0023     		movs	r3, #0
 249 0008 0093     		str	r3, [sp]
 250 000a 0193     		str	r3, [sp, #4]
 251 000c 0293     		str	r3, [sp, #8]
 252 000e ADF80C30 		strh	r3, [sp, #12]	@ movhi
 410:Service/Srv_Receiver.c ****     receiver_data_tmp.failsafe = true;
 253              		.loc 1 410 5 view .LVU62
 254              		.loc 1 410 32 is_stmt 0 view .LVU63
 255 0012 0123     		movs	r3, #1
 256 0014 8DF80D30 		strb	r3, [sp, #13]
 411:Service/Srv_Receiver.c **** 
 412:Service/Srv_Receiver.c ****     if (receiver_obj == NULL)
 257              		.loc 1 412 5 is_stmt 1 view .LVU64
 258              		.loc 1 412 8 is_stmt 0 view .LVU65
 259 0018 0C46     		mov	r4, r1
 260 001a E9B1     		cbz	r1, .L25
 261              	.LVL11:
 262              	.L20:
 413:Service/Srv_Receiver.c ****         return receiver_data_tmp;
 414:Service/Srv_Receiver.c **** 
 415:Service/Srv_Receiver.c **** re_do:
 416:Service/Srv_Receiver.c ****     receiver_obj->in_use = true;
 263              		.loc 1 416 5 is_stmt 1 view .LVU66
 264              		.loc 1 416 26 is_stmt 0 view .LVU67
 265 001c 0123     		movs	r3, #1
 266 001e 84F82A30 		strb	r3, [r4, #42]
 417:Service/Srv_Receiver.c **** 
 418:Service/Srv_Receiver.c ****     if (!SrvReceiver_Check(receiver_obj))
 267              		.loc 1 418 5 is_stmt 1 view .LVU68
 268              		.loc 1 418 10 is_stmt 0 view .LVU69
 269 0022 2046     		mov	r0, r4
 270 0024 FFF7FEFF 		bl	SrvReceiver_Check
 271              	.LVL12:
 272              		.loc 1 418 8 view .LVU70
 273 0028 F0B1     		cbz	r0, .L26
 419:Service/Srv_Receiver.c ****         return receiver_data_tmp;
 420:Service/Srv_Receiver.c **** 
 421:Service/Srv_Receiver.c ****     receiver_data_tmp.failsafe = false;
 274              		.loc 1 421 5 is_stmt 1 view .LVU71
 275              		.loc 1 421 32 is_stmt 0 view .LVU72
 276 002a 4FF0000C 		mov	ip, #0
 277 002e 8DF80DC0 		strb	ip, [sp, #13]
 422:Service/Srv_Receiver.c ****     receiver_data_tmp = receiver_obj->data;
 278              		.loc 1 422 5 is_stmt 1 view .LVU73
 279              		.loc 1 422 23 is_stmt 0 view .LVU74
 280 0032 6B46     		mov	r3, sp
 281 0034 D4F81300 		ldr	r0, [r4, #19]	@ unaligned
 282 0038 D4F81710 		ldr	r1, [r4, #23]	@ unaligned
 283 003c D4F81B20 		ldr	r2, [r4, #27]	@ unaligned
 284 0040 07C3     		stmia	r3!, {r0, r1, r2}
 285 0042 B4F81F20 		ldrh	r2, [r4, #31]	@ unaligned
ARM GAS  C:\Users\HUAV\AppData\Local\Temp\ccv6UgYU.s 			page 14


 286 0046 1A80     		strh	r2, [r3]	@ unaligned
 423:Service/Srv_Receiver.c **** 
 424:Service/Srv_Receiver.c ****     receiver_obj->in_use = false;
 287              		.loc 1 424 5 is_stmt 1 view .LVU75
 288              		.loc 1 424 26 is_stmt 0 view .LVU76
 289 0048 84F82AC0 		strb	ip, [r4, #42]
 425:Service/Srv_Receiver.c **** 
 426:Service/Srv_Receiver.c ****     if (receiver_obj->re_update)
 290              		.loc 1 426 5 is_stmt 1 view .LVU77
 291              		.loc 1 426 21 is_stmt 0 view .LVU78
 292 004c 94F82930 		ldrb	r3, [r4, #41]	@ zero_extendqisi2
 293              		.loc 1 426 8 view .LVU79
 294 0050 A3B1     		cbz	r3, .L23
 427:Service/Srv_Receiver.c ****     {
 428:Service/Srv_Receiver.c ****         receiver_obj->re_update = false;
 295              		.loc 1 428 9 is_stmt 1 view .LVU80
 296              		.loc 1 428 33 is_stmt 0 view .LVU81
 297 0052 84F829C0 		strb	ip, [r4, #41]
 429:Service/Srv_Receiver.c ****         goto re_do;
 298              		.loc 1 429 9 is_stmt 1 view .LVU82
 299 0056 E1E7     		b	.L20
 300              	.LVL13:
 301              	.L25:
 413:Service/Srv_Receiver.c **** 
 302              		.loc 1 413 9 view .LVU83
 413:Service/Srv_Receiver.c **** 
 303              		.loc 1 413 16 is_stmt 0 view .LVU84
 304 0058 6B46     		mov	r3, sp
 305 005a 07CB     		ldmia	r3!, {r0, r1, r2}
 306              	.LVL14:
 413:Service/Srv_Receiver.c **** 
 307              		.loc 1 413 16 view .LVU85
 308 005c 2860     		str	r0, [r5]	@ unaligned
 309 005e 6960     		str	r1, [r5, #4]	@ unaligned
 310 0060 AA60     		str	r2, [r5, #8]	@ unaligned
 311 0062 1B88     		ldrh	r3, [r3]	@ unaligned
 312 0064 AB81     		strh	r3, [r5, #12]	@ unaligned
 313 0066 06E0     		b	.L19
 314              	.L26:
 419:Service/Srv_Receiver.c **** 
 315              		.loc 1 419 9 is_stmt 1 view .LVU86
 419:Service/Srv_Receiver.c **** 
 316              		.loc 1 419 16 is_stmt 0 view .LVU87
 317 0068 6B46     		mov	r3, sp
 318 006a 07CB     		ldmia	r3!, {r0, r1, r2}
 319 006c 2860     		str	r0, [r5]	@ unaligned
 320 006e 6960     		str	r1, [r5, #4]	@ unaligned
 321 0070 AA60     		str	r2, [r5, #8]	@ unaligned
 322 0072 1B88     		ldrh	r3, [r3]	@ unaligned
 323 0074 AB81     		strh	r3, [r5, #12]	@ unaligned
 324              	.L19:
 430:Service/Srv_Receiver.c ****     }
 431:Service/Srv_Receiver.c **** 
 432:Service/Srv_Receiver.c ****     return receiver_data_tmp;
 433:Service/Srv_Receiver.c **** }
 325              		.loc 1 433 1 view .LVU88
 326 0076 2846     		mov	r0, r5
ARM GAS  C:\Users\HUAV\AppData\Local\Temp\ccv6UgYU.s 			page 15


 327 0078 05B0     		add	sp, sp, #20
 328              	.LCFI3:
 329              		.cfi_remember_state
 330              		.cfi_def_cfa_offset 12
 331              		@ sp needed
 332 007a 30BD     		pop	{r4, r5, pc}
 333              	.LVL15:
 334              	.L23:
 335              	.LCFI4:
 336              		.cfi_restore_state
 432:Service/Srv_Receiver.c **** }
 337              		.loc 1 432 5 is_stmt 1 view .LVU89
 432:Service/Srv_Receiver.c **** }
 338              		.loc 1 432 12 is_stmt 0 view .LVU90
 339 007c 6B46     		mov	r3, sp
 340 007e 07CB     		ldmia	r3!, {r0, r1, r2}
 341 0080 2860     		str	r0, [r5]	@ unaligned
 342 0082 6960     		str	r1, [r5, #4]	@ unaligned
 343 0084 AA60     		str	r2, [r5, #8]	@ unaligned
 344 0086 1B88     		ldrh	r3, [r3]	@ unaligned
 345 0088 AB81     		strh	r3, [r5, #12]	@ unaligned
 346 008a F4E7     		b	.L19
 347              		.cfi_endproc
 348              	.LFE153:
 350              		.section	.text.SrvReceiver_SerialDecode_Callback,"ax",%progbits
 351              		.align	1
 352              		.syntax unified
 353              		.thumb
 354              		.thumb_func
 355              		.fpu fpv5-d16
 357              	SrvReceiver_SerialDecode_Callback:
 358              	.LVL16:
 359              	.LFB150:
 262:Service/Srv_Receiver.c ****     BspUARTObj_TypeDef *uart_obj = NULL;
 360              		.loc 1 262 1 is_stmt 1 view -0
 361              		.cfi_startproc
 362              		@ args = 0, pretend = 0, frame = 40
 363              		@ frame_needed = 0, uses_anonymous_args = 0
 263:Service/Srv_Receiver.c ****     uint8_t *rx_buff_ptr = NULL;
 364              		.loc 1 263 5 view .LVU92
 264:Service/Srv_Receiver.c ****     uint16_t rx_buff_size = 0;
 365              		.loc 1 264 5 view .LVU93
 265:Service/Srv_Receiver.c ****     uint8_t decode_out = 0xFF;
 366              		.loc 1 265 5 view .LVU94
 266:Service/Srv_Receiver.c **** 
 367              		.loc 1 266 5 view .LVU95
 268:Service/Srv_Receiver.c ****     {
 368              		.loc 1 268 5 view .LVU96
 268:Service/Srv_Receiver.c ****     {
 369              		.loc 1 268 8 is_stmt 0 view .LVU97
 370 0000 0028     		cmp	r0, #0
 371 0002 00F0BC80 		beq	.L44
 262:Service/Srv_Receiver.c ****     BspUARTObj_TypeDef *uart_obj = NULL;
 372              		.loc 1 262 1 discriminator 1 view .LVU98
 373 0006 30B5     		push	{r4, r5, lr}
 374              	.LCFI5:
 375              		.cfi_def_cfa_offset 12
ARM GAS  C:\Users\HUAV\AppData\Local\Temp\ccv6UgYU.s 			page 16


 376              		.cfi_offset 4, -12
 377              		.cfi_offset 5, -8
 378              		.cfi_offset 14, -4
 379 0008 8BB0     		sub	sp, sp, #44
 380              	.LCFI6:
 381              		.cfi_def_cfa_offset 56
 382 000a 1546     		mov	r5, r2
 383 000c 0446     		mov	r4, r0
 268:Service/Srv_Receiver.c ****     {
 384              		.loc 1 268 37 discriminator 1 view .LVU99
 385 000e D0F82130 		ldr	r3, [r0, #33]	@ unaligned
 268:Service/Srv_Receiver.c ****     {
 386              		.loc 1 268 22 discriminator 1 view .LVU100
 387 0012 43B1     		cbz	r3, .L27
 268:Service/Srv_Receiver.c ****     {
 388              		.loc 1 268 64 discriminator 2 view .LVU101
 389 0014 D0F82520 		ldr	r2, [r0, #37]	@ unaligned
 390              	.LVL17:
 268:Service/Srv_Receiver.c ****     {
 391              		.loc 1 268 49 discriminator 2 view .LVU102
 392 0018 2AB1     		cbz	r2, .L27
 268:Service/Srv_Receiver.c ****     {
 393              		.loc 1 268 86 discriminator 3 view .LVU103
 394 001a D0F80F00 		ldr	r0, [r0, #15]	@ unaligned
 395              	.LVL18:
 268:Service/Srv_Receiver.c ****     {
 396              		.loc 1 268 71 discriminator 3 view .LVU104
 397 001e 10B1     		cbz	r0, .L27
 270:Service/Srv_Receiver.c ****         {
 398              		.loc 1 270 9 is_stmt 1 view .LVU105
 270:Service/Srv_Receiver.c ****         {
 399              		.loc 1 270 25 is_stmt 0 view .LVU106
 400 0020 6278     		ldrb	r2, [r4, #1]	@ zero_extendqisi2
 270:Service/Srv_Receiver.c ****         {
 401              		.loc 1 270 12 view .LVU107
 402 0022 012A     		cmp	r2, #1
 403 0024 01D0     		beq	.L47
 404              	.LVL19:
 405              	.L27:
 352:Service/Srv_Receiver.c **** 
 406              		.loc 1 352 1 view .LVU108
 407 0026 0BB0     		add	sp, sp, #44
 408              	.LCFI7:
 409              		.cfi_remember_state
 410              		.cfi_def_cfa_offset 12
 411              		@ sp needed
 412 0028 30BD     		pop	{r4, r5, pc}
 413              	.LVL20:
 414              	.L47:
 415              	.LCFI8:
 416              		.cfi_restore_state
 272:Service/Srv_Receiver.c ****             {
 417              		.loc 1 272 13 is_stmt 1 view .LVU109
 272:Service/Srv_Receiver.c ****             {
 418              		.loc 1 272 29 is_stmt 0 view .LVU110
 419 002a 94F82A20 		ldrb	r2, [r4, #42]	@ zero_extendqisi2
 272:Service/Srv_Receiver.c ****             {
ARM GAS  C:\Users\HUAV\AppData\Local\Temp\ccv6UgYU.s 			page 17


 420              		.loc 1 272 16 view .LVU111
 421 002e F2B1     		cbz	r2, .L29
 274:Service/Srv_Receiver.c ****             }
 422              		.loc 1 274 17 is_stmt 1 view .LVU112
 274:Service/Srv_Receiver.c ****             }
 423              		.loc 1 274 41 is_stmt 0 view .LVU113
 424 0030 0122     		movs	r2, #1
 425 0032 84F82920 		strb	r2, [r4, #41]
 426              	.L30:
 280:Service/Srv_Receiver.c ****             {
 427              		.loc 1 280 13 is_stmt 1 view .LVU114
 280:Service/Srv_Receiver.c ****             {
 428              		.loc 1 280 29 is_stmt 0 view .LVU115
 429 0036 2278     		ldrb	r2, [r4]	@ zero_extendqisi2
 280:Service/Srv_Receiver.c ****             {
 430              		.loc 1 280 16 view .LVU116
 431 0038 012A     		cmp	r2, #1
 432 003a 1CD0     		beq	.L48
 320:Service/Srv_Receiver.c ****             {
 433              		.loc 1 320 18 is_stmt 1 view .LVU117
 320:Service/Srv_Receiver.c ****             {
 434              		.loc 1 320 21 is_stmt 0 view .LVU118
 435 003c 2AB9     		cbnz	r2, .L34
 322:Service/Srv_Receiver.c ****                 {
 436              		.loc 1 322 17 is_stmt 1 view .LVU119
 322:Service/Srv_Receiver.c ****                 {
 437              		.loc 1 322 67 is_stmt 0 view .LVU120
 438 003e 5B68     		ldr	r3, [r3, #4]
 322:Service/Srv_Receiver.c ****                 {
 439              		.loc 1 322 22 view .LVU121
 440 0040 2A46     		mov	r2, r5
 441 0042 9847     		blx	r3
 442              	.LVL21:
 322:Service/Srv_Receiver.c ****                 {
 443              		.loc 1 322 20 view .LVU122
 444 0044 0346     		mov	r3, r0
 445 0046 0028     		cmp	r0, #0
 446 0048 78D0     		beq	.L40
 447              	.LVL22:
 448              	.L34:
 338:Service/Srv_Receiver.c **** 
 449              		.loc 1 338 13 is_stmt 1 view .LVU123
 338:Service/Srv_Receiver.c **** 
 450              		.loc 1 338 45 is_stmt 0 view .LVU124
 451 004a FFF7FEFF 		bl	Get_CurrentRunningMs
 452              	.LVL23:
 338:Service/Srv_Receiver.c **** 
 453              		.loc 1 338 43 view .LVU125
 454 004e C4F81300 		str	r0, [r4, #19]	@ unaligned
 341:Service/Srv_Receiver.c ****             {
 455              		.loc 1 341 13 is_stmt 1 view .LVU126
 341:Service/Srv_Receiver.c ****             {
 456              		.loc 1 341 29 is_stmt 0 view .LVU127
 457 0052 D4F82530 		ldr	r3, [r4, #37]	@ unaligned
 341:Service/Srv_Receiver.c ****             {
 458              		.loc 1 341 35 view .LVU128
 459 0056 5B68     		ldr	r3, [r3, #4]	@ unaligned
ARM GAS  C:\Users\HUAV\AppData\Local\Temp\ccv6UgYU.s 			page 18


 341:Service/Srv_Receiver.c ****             {
 460              		.loc 1 341 16 view .LVU129
 461 0058 002B     		cmp	r3, #0
 462 005a E4D0     		beq	.L27
 343:Service/Srv_Receiver.c **** 
 463              		.loc 1 343 17 is_stmt 1 view .LVU130
 464              	.LVL24:
 345:Service/Srv_Receiver.c **** 
 465              		.loc 1 345 17 view .LVU131
 345:Service/Srv_Receiver.c **** 
 466              		.loc 1 345 29 is_stmt 0 view .LVU132
 467 005c D3F8AD01 		ldr	r0, [r3, #429]	@ unaligned
 468              	.LVL25:
 347:Service/Srv_Receiver.c ****                     memset(rx_buff_ptr, NULL, size);
 469              		.loc 1 347 17 is_stmt 1 view .LVU133
 347:Service/Srv_Receiver.c ****                     memset(rx_buff_ptr, NULL, size);
 470              		.loc 1 347 20 is_stmt 0 view .LVU134
 471 0060 0028     		cmp	r0, #0
 472 0062 E0D0     		beq	.L27
 348:Service/Srv_Receiver.c ****             }
 473              		.loc 1 348 21 is_stmt 1 view .LVU135
 474 0064 2A46     		mov	r2, r5
 475 0066 0021     		movs	r1, #0
 476 0068 FFF7FEFF 		bl	memset
 477              	.LVL26:
 348:Service/Srv_Receiver.c ****             }
 478              		.loc 1 348 21 is_stmt 0 view .LVU136
 479 006c DBE7     		b	.L27
 480              	.LVL27:
 481              	.L29:
 277:Service/Srv_Receiver.c **** 
 482              		.loc 1 277 17 is_stmt 1 view .LVU137
 277:Service/Srv_Receiver.c **** 
 483              		.loc 1 277 41 is_stmt 0 view .LVU138
 484 006e 0022     		movs	r2, #0
 485 0070 84F82920 		strb	r2, [r4, #41]
 486 0074 DFE7     		b	.L30
 487              	.L48:
 282:Service/Srv_Receiver.c **** 
 488              		.loc 1 282 17 is_stmt 1 view .LVU139
 282:Service/Srv_Receiver.c **** 
 489              		.loc 1 282 76 is_stmt 0 view .LVU140
 490 0076 5B68     		ldr	r3, [r3, #4]
 282:Service/Srv_Receiver.c **** 
 491              		.loc 1 282 31 view .LVU141
 492 0078 2A46     		mov	r2, r5
 493 007a 9847     		blx	r3
 494              	.LVL28:
 284:Service/Srv_Receiver.c ****                 {
 495              		.loc 1 284 17 is_stmt 1 view .LVU142
 496 007c 1428     		cmp	r0, #20
 497 007e 0BD0     		beq	.L32
 498 0080 1628     		cmp	r0, #22
 499 0082 D0D1     		bne	.L27
 293:Service/Srv_Receiver.c **** 
 500              		.loc 1 293 21 view .LVU143
 293:Service/Srv_Receiver.c **** 
ARM GAS  C:\Users\HUAV\AppData\Local\Temp\ccv6UgYU.s 			page 19


 501              		.loc 1 293 54 is_stmt 0 view .LVU144
 502 0084 D4F82130 		ldr	r3, [r4, #33]	@ unaligned
 293:Service/Srv_Receiver.c **** 
 503              		.loc 1 293 67 view .LVU145
 504 0088 9B68     		ldr	r3, [r3, #8]
 293:Service/Srv_Receiver.c **** 
 505              		.loc 1 293 22 view .LVU146
 506 008a D4F81710 		ldr	r1, [r4, #23]	@ unaligned
 507 008e D4F80F00 		ldr	r0, [r4, #15]	@ unaligned
 508              	.LVL29:
 293:Service/Srv_Receiver.c **** 
 509              		.loc 1 293 22 view .LVU147
 510 0092 9847     		blx	r3
 511              	.LVL30:
 295:Service/Srv_Receiver.c ****                     {
 512              		.loc 1 295 21 is_stmt 1 view .LVU148
 513              	.LBB4:
 295:Service/Srv_Receiver.c ****                     {
 514              		.loc 1 295 26 view .LVU149
 295:Service/Srv_Receiver.c ****                     {
 515              		.loc 1 295 34 is_stmt 0 view .LVU150
 516 0094 0023     		movs	r3, #0
 295:Service/Srv_Receiver.c ****                     {
 517              		.loc 1 295 21 view .LVU151
 518 0096 29E0     		b	.L35
 519              	.LVL31:
 520              	.L32:
 295:Service/Srv_Receiver.c ****                     {
 521              		.loc 1 295 21 view .LVU152
 522              	.LBE4:
 287:Service/Srv_Receiver.c ****                     receiver_obj->data.link_quality = ((DevCRSF_TypeDef *)(receiver_obj->frame_api)
 523              		.loc 1 287 21 is_stmt 1 view .LVU153
 287:Service/Srv_Receiver.c ****                     receiver_obj->data.link_quality = ((DevCRSF_TypeDef *)(receiver_obj->frame_api)
 524              		.loc 1 287 80 is_stmt 0 view .LVU154
 525 0098 D4F82130 		ldr	r3, [r4, #33]	@ unaligned
 287:Service/Srv_Receiver.c ****                     receiver_obj->data.link_quality = ((DevCRSF_TypeDef *)(receiver_obj->frame_api)
 526              		.loc 1 287 93 view .LVU155
 527 009c DB68     		ldr	r3, [r3, #12]
 287:Service/Srv_Receiver.c ****                     receiver_obj->data.link_quality = ((DevCRSF_TypeDef *)(receiver_obj->frame_api)
 528              		.loc 1 287 48 view .LVU156
 529 009e D4F80F10 		ldr	r1, [r4, #15]	@ unaligned
 530 00a2 01A8     		add	r0, sp, #4
 531              	.LVL32:
 287:Service/Srv_Receiver.c ****                     receiver_obj->data.link_quality = ((DevCRSF_TypeDef *)(receiver_obj->frame_api)
 532              		.loc 1 287 48 view .LVU157
 533 00a4 9847     		blx	r3
 534              	.LVL33:
 287:Service/Srv_Receiver.c ****                     receiver_obj->data.link_quality = ((DevCRSF_TypeDef *)(receiver_obj->frame_api)
 535              		.loc 1 287 139 view .LVU158
 536 00a6 9DF80B30 		ldrb	r3, [sp, #11]	@ zero_extendqisi2
 287:Service/Srv_Receiver.c ****                     receiver_obj->data.link_quality = ((DevCRSF_TypeDef *)(receiver_obj->frame_api)
 537              		.loc 1 287 45 view .LVU159
 538 00aa A4F81B30 		strh	r3, [r4, #27]	@ unaligned
 288:Service/Srv_Receiver.c ****                     receiver_obj->data.active_antenna = ((DevCRSF_TypeDef *)(receiver_obj->frame_ap
 539              		.loc 1 288 21 is_stmt 1 view .LVU160
 288:Service/Srv_Receiver.c ****                     receiver_obj->data.active_antenna = ((DevCRSF_TypeDef *)(receiver_obj->frame_ap
 540              		.loc 1 288 88 is_stmt 0 view .LVU161
ARM GAS  C:\Users\HUAV\AppData\Local\Temp\ccv6UgYU.s 			page 20


 541 00ae D4F82130 		ldr	r3, [r4, #33]	@ unaligned
 288:Service/Srv_Receiver.c ****                     receiver_obj->data.active_antenna = ((DevCRSF_TypeDef *)(receiver_obj->frame_ap
 542              		.loc 1 288 101 view .LVU162
 543 00b2 DB68     		ldr	r3, [r3, #12]
 288:Service/Srv_Receiver.c ****                     receiver_obj->data.active_antenna = ((DevCRSF_TypeDef *)(receiver_obj->frame_ap
 544              		.loc 1 288 56 view .LVU163
 545 00b4 D4F80F10 		ldr	r1, [r4, #15]	@ unaligned
 546 00b8 04A8     		add	r0, sp, #16
 547 00ba 9847     		blx	r3
 548              	.LVL34:
 288:Service/Srv_Receiver.c ****                     receiver_obj->data.active_antenna = ((DevCRSF_TypeDef *)(receiver_obj->frame_ap
 549              		.loc 1 288 147 view .LVU164
 550 00bc 9DF81830 		ldrb	r3, [sp, #24]	@ zero_extendqisi2
 288:Service/Srv_Receiver.c ****                     receiver_obj->data.active_antenna = ((DevCRSF_TypeDef *)(receiver_obj->frame_ap
 551              		.loc 1 288 53 view .LVU165
 552 00c0 A4F81D30 		strh	r3, [r4, #29]	@ unaligned
 289:Service/Srv_Receiver.c ****                     break;
 553              		.loc 1 289 21 is_stmt 1 view .LVU166
 289:Service/Srv_Receiver.c ****                     break;
 554              		.loc 1 289 90 is_stmt 0 view .LVU167
 555 00c4 D4F82130 		ldr	r3, [r4, #33]	@ unaligned
 289:Service/Srv_Receiver.c ****                     break;
 556              		.loc 1 289 103 view .LVU168
 557 00c8 DB68     		ldr	r3, [r3, #12]
 289:Service/Srv_Receiver.c ****                     break;
 558              		.loc 1 289 58 view .LVU169
 559 00ca D4F80F10 		ldr	r1, [r4, #15]	@ unaligned
 560 00ce 07A8     		add	r0, sp, #28
 561 00d0 9847     		blx	r3
 562              	.LVL35:
 289:Service/Srv_Receiver.c ****                     break;
 563              		.loc 1 289 149 view .LVU170
 564 00d2 9DF82030 		ldrb	r3, [sp, #32]	@ zero_extendqisi2
 289:Service/Srv_Receiver.c ****                     break;
 565              		.loc 1 289 55 view .LVU171
 566 00d6 E377     		strb	r3, [r4, #31]
 290:Service/Srv_Receiver.c **** 
 567              		.loc 1 290 21 is_stmt 1 view .LVU172
 568 00d8 B7E7     		b	.L34
 569              	.LVL36:
 570              	.L36:
 571              	.LBB5:
 301:Service/Srv_Receiver.c ****                         {
 572              		.loc 1 301 30 view .LVU173
 301:Service/Srv_Receiver.c ****                         {
 573              		.loc 1 301 33 is_stmt 0 view .LVU174
 574 00da B1F5E16F 		cmp	r1, #1800
 575 00de 12D9     		bls	.L37
 303:Service/Srv_Receiver.c ****                         }
 576              		.loc 1 303 29 is_stmt 1 view .LVU175
 303:Service/Srv_Receiver.c ****                         }
 577              		.loc 1 303 60 is_stmt 0 view .LVU176
 578 00e0 4FF4E161 		mov	r1, #1800
 579 00e4 1152     		strh	r1, [r2, r0]	@ movhi
 580 00e6 0EE0     		b	.L37
 581              	.L38:
 295:Service/Srv_Receiver.c ****                     {
ARM GAS  C:\Users\HUAV\AppData\Local\Temp\ccv6UgYU.s 			page 21


 582              		.loc 1 295 72 is_stmt 1 discriminator 2 view .LVU177
 295:Service/Srv_Receiver.c ****                     {
 583              		.loc 1 295 73 is_stmt 0 discriminator 2 view .LVU178
 584 00e8 0133     		adds	r3, r3, #1
 585              	.LVL37:
 295:Service/Srv_Receiver.c ****                     {
 586              		.loc 1 295 73 discriminator 2 view .LVU179
 587 00ea DBB2     		uxtb	r3, r3
 588              	.LVL38:
 589              	.L35:
 295:Service/Srv_Receiver.c ****                     {
 590              		.loc 1 295 41 is_stmt 1 discriminator 1 view .LVU180
 295:Service/Srv_Receiver.c ****                     {
 591              		.loc 1 295 57 is_stmt 0 discriminator 1 view .LVU181
 592 00ec A27B     		ldrb	r2, [r4, #14]	@ zero_extendqisi2
 295:Service/Srv_Receiver.c ****                     {
 593              		.loc 1 295 21 discriminator 1 view .LVU182
 594 00ee 9A42     		cmp	r2, r3
 595 00f0 1ED9     		bls	.L49
 297:Service/Srv_Receiver.c ****                         {
 596              		.loc 1 297 25 is_stmt 1 view .LVU183
 297:Service/Srv_Receiver.c ****                         {
 597              		.loc 1 297 47 is_stmt 0 view .LVU184
 598 00f2 D4F81720 		ldr	r2, [r4, #23]	@ unaligned
 297:Service/Srv_Receiver.c ****                         {
 599              		.loc 1 297 56 view .LVU185
 600 00f6 5800     		lsls	r0, r3, #1
 601 00f8 32F81310 		ldrh	r1, [r2, r3, lsl #1]
 297:Service/Srv_Receiver.c ****                         {
 602              		.loc 1 297 28 view .LVU186
 603 00fc B329     		cmp	r1, #179
 604 00fe ECD8     		bhi	.L36
 299:Service/Srv_Receiver.c ****                         }
 605              		.loc 1 299 29 is_stmt 1 view .LVU187
 299:Service/Srv_Receiver.c ****                         }
 606              		.loc 1 299 60 is_stmt 0 view .LVU188
 607 0100 B421     		movs	r1, #180
 608 0102 22F81310 		strh	r1, [r2, r3, lsl #1]	@ movhi
 609              	.L37:
 306:Service/Srv_Receiver.c ****                         {
 610              		.loc 1 306 25 is_stmt 1 view .LVU189
 306:Service/Srv_Receiver.c ****                         {
 611              		.loc 1 306 41 is_stmt 0 view .LVU190
 612 0106 D4F82B20 		ldr	r2, [r4, #43]	@ unaligned
 306:Service/Srv_Receiver.c ****                         {
 613              		.loc 1 306 28 view .LVU191
 614 010a 002A     		cmp	r2, #0
 615 010c ECD0     		beq	.L38
 306:Service/Srv_Receiver.c ****                         {
 616              		.loc 1 306 89 discriminator 1 view .LVU192
 617 010e 0121     		movs	r1, #1
 618 0110 9940     		lsls	r1, r1, r3
 306:Service/Srv_Receiver.c ****                         {
 619              		.loc 1 306 55 discriminator 1 view .LVU193
 620 0112 0A42     		tst	r2, r1
 621 0114 E8D0     		beq	.L38
 308:Service/Srv_Receiver.c ****                             receiver_obj->data.val_list[i] = CHANNEL_RANGE_MID - receiver_obj->data
ARM GAS  C:\Users\HUAV\AppData\Local\Temp\ccv6UgYU.s 			page 22


 622              		.loc 1 308 29 is_stmt 1 view .LVU194
 308:Service/Srv_Receiver.c ****                             receiver_obj->data.val_list[i] = CHANNEL_RANGE_MID - receiver_obj->data
 623              		.loc 1 308 47 is_stmt 0 view .LVU195
 624 0116 D4F81710 		ldr	r1, [r4, #23]	@ unaligned
 308:Service/Srv_Receiver.c ****                             receiver_obj->data.val_list[i] = CHANNEL_RANGE_MID - receiver_obj->data
 625              		.loc 1 308 60 view .LVU196
 626 011a 0A5A     		ldrh	r2, [r1, r0]
 627 011c A2F57A72 		sub	r2, r2, #1000
 628 0120 0A52     		strh	r2, [r1, r0]	@ movhi
 309:Service/Srv_Receiver.c ****                         }
 629              		.loc 1 309 29 is_stmt 1 view .LVU197
 309:Service/Srv_Receiver.c ****                         }
 630              		.loc 1 309 100 is_stmt 0 view .LVU198
 631 0122 D4F81710 		ldr	r1, [r4, #23]	@ unaligned
 309:Service/Srv_Receiver.c ****                         }
 632              		.loc 1 309 109 view .LVU199
 633 0126 0A5A     		ldrh	r2, [r1, r0]
 309:Service/Srv_Receiver.c ****                         }
 634              		.loc 1 309 80 view .LVU200
 635 0128 C2F57A72 		rsb	r2, r2, #1000
 309:Service/Srv_Receiver.c ****                         }
 636              		.loc 1 309 60 view .LVU201
 637 012c 0A52     		strh	r2, [r1, r0]	@ movhi
 638 012e DBE7     		b	.L38
 639              	.L49:
 309:Service/Srv_Receiver.c ****                         }
 640              		.loc 1 309 60 view .LVU202
 641              	.LBE5:
 313:Service/Srv_Receiver.c ****                     break;
 642              		.loc 1 313 21 is_stmt 1 view .LVU203
 313:Service/Srv_Receiver.c ****                     break;
 643              		.loc 1 313 49 is_stmt 0 view .LVU204
 644 0130 0023     		movs	r3, #0
 645              	.LVL39:
 313:Service/Srv_Receiver.c ****                     break;
 646              		.loc 1 313 49 view .LVU205
 647 0132 84F82030 		strb	r3, [r4, #32]
 314:Service/Srv_Receiver.c **** 
 648              		.loc 1 314 21 is_stmt 1 view .LVU206
 649 0136 88E7     		b	.L34
 650              	.LVL40:
 651              	.L41:
 652              	.LBB6:
 324:Service/Srv_Receiver.c ****                     {
 653              		.loc 1 324 72 discriminator 2 view .LVU207
 324:Service/Srv_Receiver.c ****                     {
 654              		.loc 1 324 73 is_stmt 0 discriminator 2 view .LVU208
 655 0138 0133     		adds	r3, r3, #1
 656              	.LVL41:
 324:Service/Srv_Receiver.c ****                     {
 657              		.loc 1 324 73 discriminator 2 view .LVU209
 658 013a DBB2     		uxtb	r3, r3
 659              	.LVL42:
 660              	.L40:
 324:Service/Srv_Receiver.c ****                     {
 661              		.loc 1 324 41 is_stmt 1 discriminator 1 view .LVU210
 324:Service/Srv_Receiver.c ****                     {
ARM GAS  C:\Users\HUAV\AppData\Local\Temp\ccv6UgYU.s 			page 23


 662              		.loc 1 324 57 is_stmt 0 discriminator 1 view .LVU211
 663 013c A27B     		ldrb	r2, [r4, #14]	@ zero_extendqisi2
 324:Service/Srv_Receiver.c ****                     {
 664              		.loc 1 324 21 discriminator 1 view .LVU212
 665 013e 9A42     		cmp	r2, r3
 666 0140 83D9     		bls	.L34
 326:Service/Srv_Receiver.c **** 
 667              		.loc 1 326 25 is_stmt 1 view .LVU213
 326:Service/Srv_Receiver.c **** 
 668              		.loc 1 326 93 is_stmt 0 view .LVU214
 669 0142 D4F80F10 		ldr	r1, [r4, #15]	@ unaligned
 326:Service/Srv_Receiver.c **** 
 670              		.loc 1 326 43 view .LVU215
 671 0146 D4F81720 		ldr	r2, [r4, #23]	@ unaligned
 326:Service/Srv_Receiver.c **** 
 672              		.loc 1 326 52 view .LVU216
 673 014a 5800     		lsls	r0, r3, #1
 326:Service/Srv_Receiver.c **** 
 674              		.loc 1 326 115 view .LVU217
 675 014c 31F81310 		ldrh	r1, [r1, r3, lsl #1]	@ unaligned
 326:Service/Srv_Receiver.c **** 
 676              		.loc 1 326 56 view .LVU218
 677 0150 22F81310 		strh	r1, [r2, r3, lsl #1]	@ movhi
 328:Service/Srv_Receiver.c ****                         {
 678              		.loc 1 328 25 is_stmt 1 view .LVU219
 328:Service/Srv_Receiver.c ****                         {
 679              		.loc 1 328 41 is_stmt 0 view .LVU220
 680 0154 D4F82B20 		ldr	r2, [r4, #43]	@ unaligned
 328:Service/Srv_Receiver.c ****                         {
 681              		.loc 1 328 28 view .LVU221
 682 0158 002A     		cmp	r2, #0
 683 015a EDD0     		beq	.L41
 328:Service/Srv_Receiver.c ****                         {
 684              		.loc 1 328 88 discriminator 1 view .LVU222
 685 015c 0121     		movs	r1, #1
 686 015e 9940     		lsls	r1, r1, r3
 328:Service/Srv_Receiver.c ****                         {
 687              		.loc 1 328 55 discriminator 1 view .LVU223
 688 0160 0A42     		tst	r2, r1
 689 0162 E9D0     		beq	.L41
 330:Service/Srv_Receiver.c ****                             receiver_obj->data.val_list[i] = CHANNEL_RANGE_MID - receiver_obj->data
 690              		.loc 1 330 29 is_stmt 1 view .LVU224
 330:Service/Srv_Receiver.c ****                             receiver_obj->data.val_list[i] = CHANNEL_RANGE_MID - receiver_obj->data
 691              		.loc 1 330 47 is_stmt 0 view .LVU225
 692 0164 D4F81710 		ldr	r1, [r4, #23]	@ unaligned
 330:Service/Srv_Receiver.c ****                             receiver_obj->data.val_list[i] = CHANNEL_RANGE_MID - receiver_obj->data
 693              		.loc 1 330 60 view .LVU226
 694 0168 0A5A     		ldrh	r2, [r1, r0]
 695 016a A2F57A72 		sub	r2, r2, #1000
 696 016e 0A52     		strh	r2, [r1, r0]	@ movhi
 331:Service/Srv_Receiver.c ****                         }
 697              		.loc 1 331 29 is_stmt 1 view .LVU227
 331:Service/Srv_Receiver.c ****                         }
 698              		.loc 1 331 100 is_stmt 0 view .LVU228
 699 0170 D4F81710 		ldr	r1, [r4, #23]	@ unaligned
 331:Service/Srv_Receiver.c ****                         }
 700              		.loc 1 331 109 view .LVU229
ARM GAS  C:\Users\HUAV\AppData\Local\Temp\ccv6UgYU.s 			page 24


 701 0174 0A5A     		ldrh	r2, [r1, r0]
 331:Service/Srv_Receiver.c ****                         }
 702              		.loc 1 331 80 view .LVU230
 703 0176 C2F57A72 		rsb	r2, r2, #1000
 331:Service/Srv_Receiver.c ****                         }
 704              		.loc 1 331 60 view .LVU231
 705 017a 0A52     		strh	r2, [r1, r0]	@ movhi
 706 017c DCE7     		b	.L41
 707              	.LVL43:
 708              	.L44:
 709              	.LCFI9:
 710              		.cfi_def_cfa_offset 0
 711              		.cfi_restore 4
 712              		.cfi_restore 5
 713              		.cfi_restore 14
 331:Service/Srv_Receiver.c ****                         }
 714              		.loc 1 331 60 view .LVU232
 715 017e 7047     		bx	lr
 716              	.LBE6:
 717              		.cfi_endproc
 718              	.LFE150:
 720              		.section	.rodata.SrvReceiver_Init.str1.4,"aMS",%progbits,1
 721              		.align	2
 722              	.LC0:
 723 0000 53727652 		.ascii	"SrvReceiver_Error\000"
 723      65636569 
 723      7665725F 
 723      4572726F 
 723      7200
 724              		.section	.text.SrvReceiver_Init,"ax",%progbits
 725              		.align	1
 726              		.syntax unified
 727              		.thumb
 728              		.thumb_func
 729              		.fpu fpv5-d16
 731              	SrvReceiver_Init:
 732              	.LVL44:
 733              	.LFB149:
 130:Service/Srv_Receiver.c ****     bool data_obj_error = false;
 734              		.loc 1 130 1 is_stmt 1 view -0
 735              		.cfi_startproc
 736              		@ args = 0, pretend = 0, frame = 0
 737              		@ frame_needed = 0, uses_anonymous_args = 0
 130:Service/Srv_Receiver.c ****     bool data_obj_error = false;
 738              		.loc 1 130 1 is_stmt 0 view .LVU234
 739 0000 F8B5     		push	{r3, r4, r5, r6, r7, lr}
 740              	.LCFI10:
 741              		.cfi_def_cfa_offset 24
 742              		.cfi_offset 3, -24
 743              		.cfi_offset 4, -20
 744              		.cfi_offset 5, -16
 745              		.cfi_offset 6, -12
 746              		.cfi_offset 7, -8
 747              		.cfi_offset 14, -4
 131:Service/Srv_Receiver.c ****     BspUARTObj_TypeDef *Uart_Receiver_Obj = NULL;
 748              		.loc 1 131 5 is_stmt 1 view .LVU235
 749              	.LVL45:
ARM GAS  C:\Users\HUAV\AppData\Local\Temp\ccv6UgYU.s 			page 25


 132:Service/Srv_Receiver.c **** 
 750              		.loc 1 132 5 view .LVU236
 134:Service/Srv_Receiver.c ****         return false;
 751              		.loc 1 134 5 view .LVU237
 134:Service/Srv_Receiver.c ****         return false;
 752              		.loc 1 134 8 is_stmt 0 view .LVU238
 753 0002 0029     		cmp	r1, #0
 754 0004 18BF     		it	ne
 755 0006 0028     		cmpne	r0, #0
 756 0008 0CBF     		ite	eq
 757 000a 0124     		moveq	r4, #1
 758 000c 0024     		movne	r4, #0
 759 000e 02D1     		bne	.L69
 135:Service/Srv_Receiver.c **** 
 760              		.loc 1 135 16 view .LVU239
 761 0010 0024     		movs	r4, #0
 762              	.LVL46:
 763              	.L51:
 259:Service/Srv_Receiver.c **** 
 764              		.loc 1 259 1 view .LVU240
 765 0012 2046     		mov	r0, r4
 766 0014 F8BD     		pop	{r3, r4, r5, r6, r7, pc}
 767              	.LVL47:
 768              	.L69:
 259:Service/Srv_Receiver.c **** 
 769              		.loc 1 259 1 view .LVU241
 770 0016 0546     		mov	r5, r0
 771 0018 0E46     		mov	r6, r1
 137:Service/Srv_Receiver.c **** 
 772              		.loc 1 137 5 is_stmt 1 view .LVU242
 773 001a 4FF48072 		mov	r2, #256
 774 001e 0021     		movs	r1, #0
 775              	.LVL48:
 137:Service/Srv_Receiver.c **** 
 776              		.loc 1 137 5 is_stmt 0 view .LVU243
 777 0020 6148     		ldr	r0, .L75
 778              	.LVL49:
 137:Service/Srv_Receiver.c **** 
 779              		.loc 1 137 5 view .LVU244
 780 0022 FFF7FEFF 		bl	memset
 781              	.LVL50:
 140:Service/Srv_Receiver.c **** 
 782              		.loc 1 140 5 is_stmt 1 view .LVU245
 140:Service/Srv_Receiver.c **** 
 783              		.loc 1 140 40 is_stmt 0 view .LVU246
 784 0026 614F     		ldr	r7, .L75+4
 785 0028 3B68     		ldr	r3, [r7]
 140:Service/Srv_Receiver.c **** 
 786              		.loc 1 140 32 view .LVU247
 787 002a 6148     		ldr	r0, .L75+8
 788 002c 9847     		blx	r3
 789              	.LVL51:
 140:Service/Srv_Receiver.c **** 
 790              		.loc 1 140 30 view .LVU248
 791 002e 614B     		ldr	r3, .L75+12
 792 0030 1860     		str	r0, [r3]
 143:Service/Srv_Receiver.c **** 
ARM GAS  C:\Users\HUAV\AppData\Local\Temp\ccv6UgYU.s 			page 26


 793              		.loc 1 143 5 is_stmt 1 view .LVU249
 143:Service/Srv_Receiver.c **** 
 794              		.loc 1 143 13 is_stmt 0 view .LVU250
 795 0032 7B68     		ldr	r3, [r7, #4]
 143:Service/Srv_Receiver.c **** 
 796              		.loc 1 143 5 view .LVU251
 797 0034 0422     		movs	r2, #4
 798 0036 6049     		ldr	r1, .L75+16
 799 0038 9847     		blx	r3
 800              	.LVL52:
 145:Service/Srv_Receiver.c ****     {
 801              		.loc 1 145 5 is_stmt 1 view .LVU252
 145:Service/Srv_Receiver.c ****     {
 802              		.loc 1 145 16 is_stmt 0 view .LVU253
 803 003a 6B78     		ldrb	r3, [r5, #1]	@ zero_extendqisi2
 145:Service/Srv_Receiver.c ****     {
 804              		.loc 1 145 5 view .LVU254
 805 003c 012B     		cmp	r3, #1
 806 003e 0AD0     		beq	.L52
 145:Service/Srv_Receiver.c ****     {
 807              		.loc 1 145 5 view .LVU255
 808 0040 022B     		cmp	r3, #2
 809 0042 6AD0     		beq	.L53
 252:Service/Srv_Receiver.c ****         return false;
 810              		.loc 1 252 9 is_stmt 1 view .LVU256
 252:Service/Srv_Receiver.c ****         return false;
 811              		.loc 1 252 17 is_stmt 0 view .LVU257
 812 0044 594B     		ldr	r3, .L75+4
 813 0046 9D68     		ldr	r5, [r3, #8]
 814              	.LVL53:
 252:Service/Srv_Receiver.c ****         return false;
 815              		.loc 1 252 9 view .LVU258
 816 0048 1E23     		movs	r3, #30
 817 004a 5C4A     		ldr	r2, .L75+20
 818 004c 0121     		movs	r1, #1
 819 004e 5948     		ldr	r0, .L75+12
 820 0050 0068     		ldr	r0, [r0]
 821 0052 A847     		blx	r5
 822              	.LVL54:
 253:Service/Srv_Receiver.c ****     }
 823              		.loc 1 253 9 is_stmt 1 view .LVU259
 253:Service/Srv_Receiver.c ****     }
 824              		.loc 1 253 16 is_stmt 0 view .LVU260
 825 0054 DDE7     		b	.L51
 826              	.LVL55:
 827              	.L52:
 148:Service/Srv_Receiver.c **** 
 828              		.loc 1 148 9 is_stmt 1 view .LVU261
 150:Service/Srv_Receiver.c **** 
 829              		.loc 1 150 9 view .LVU262
 830 0056 1E22     		movs	r2, #30
 831 0058 0021     		movs	r1, #0
 832 005a 5848     		ldr	r0, .L75+20
 833 005c FFF7FEFF 		bl	memset
 834              	.LVL56:
 152:Service/Srv_Receiver.c ****         {
 835              		.loc 1 152 9 view .LVU263
ARM GAS  C:\Users\HUAV\AppData\Local\Temp\ccv6UgYU.s 			page 27


 152:Service/Srv_Receiver.c ****         {
 836              		.loc 1 152 20 is_stmt 0 view .LVU264
 837 0060 2B78     		ldrb	r3, [r5]	@ zero_extendqisi2
 838 0062 002B     		cmp	r3, #0
 839 0064 64D0     		beq	.L55
 840 0066 012B     		cmp	r3, #1
 841 0068 D3D1     		bne	.L51
 180:Service/Srv_Receiver.c **** 
 842              		.loc 1 180 13 is_stmt 1 view .LVU265
 180:Service/Srv_Receiver.c **** 
 843              		.loc 1 180 41 is_stmt 0 view .LVU266
 844 006a 6FF05F03 		mvn	r3, #95
 845 006e 3370     		strb	r3, [r6]
 846 0070 6823     		movs	r3, #104
 847 0072 7370     		strb	r3, [r6, #1]
 848 0074 0623     		movs	r3, #6
 849 0076 B370     		strb	r3, [r6, #2]
 850 0078 0023     		movs	r3, #0
 851 007a F370     		strb	r3, [r6, #3]
 183:Service/Srv_Receiver.c ****             if (obj->frame_data_obj == NULL)
 852              		.loc 1 183 13 is_stmt 1 view .LVU267
 183:Service/Srv_Receiver.c ****             if (obj->frame_data_obj == NULL)
 853              		.loc 1 183 35 is_stmt 0 view .LVU268
 854 007c 6E20     		movs	r0, #110
 855 007e FFF7FEFF 		bl	MMU_Malloc
 856              	.LVL57:
 183:Service/Srv_Receiver.c ****             if (obj->frame_data_obj == NULL)
 857              		.loc 1 183 33 view .LVU269
 858 0082 C5F80F00 		str	r0, [r5, #15]	@ unaligned
 184:Service/Srv_Receiver.c ****             {
 859              		.loc 1 184 13 is_stmt 1 view .LVU270
 184:Service/Srv_Receiver.c ****             {
 860              		.loc 1 184 16 is_stmt 0 view .LVU271
 861 0086 0028     		cmp	r0, #0
 862 0088 70D0     		beq	.L65
 191:Service/Srv_Receiver.c ****             obj->inverter_init = NULL;
 863              		.loc 1 191 13 is_stmt 1 view .LVU272
 191:Service/Srv_Receiver.c ****             obj->inverter_init = NULL;
 864              		.loc 1 191 33 is_stmt 0 view .LVU273
 865 008a 0023     		movs	r3, #0
 866 008c 85F84730 		strb	r3, [r5, #71]
 867 0090 85F84830 		strb	r3, [r5, #72]
 868 0094 85F84930 		strb	r3, [r5, #73]
 869 0098 85F84A30 		strb	r3, [r5, #74]
 192:Service/Srv_Receiver.c **** 
 870              		.loc 1 192 13 is_stmt 1 view .LVU274
 192:Service/Srv_Receiver.c **** 
 871              		.loc 1 192 32 is_stmt 0 view .LVU275
 872 009c 85F84330 		strb	r3, [r5, #67]
 873 00a0 85F84430 		strb	r3, [r5, #68]
 874 00a4 85F84530 		strb	r3, [r5, #69]
 875 00a8 85F84630 		strb	r3, [r5, #70]
 195:Service/Srv_Receiver.c **** 
 876              		.loc 1 195 13 is_stmt 1 view .LVU276
 195:Service/Srv_Receiver.c **** 
 877              		.loc 1 195 30 is_stmt 0 view .LVU277
 878 00ac 1023     		movs	r3, #16
ARM GAS  C:\Users\HUAV\AppData\Local\Temp\ccv6UgYU.s 			page 28


 879 00ae AB73     		strb	r3, [r5, #14]
 198:Service/Srv_Receiver.c **** 
 880              		.loc 1 198 13 is_stmt 1 view .LVU278
 198:Service/Srv_Receiver.c **** 
 881              		.loc 1 198 28 is_stmt 0 view .LVU279
 882 00b0 434B     		ldr	r3, .L75+24
 883 00b2 C5F82130 		str	r3, [r5, #33]	@ unaligned
 200:Service/Srv_Receiver.c ****                 return false;
 884              		.loc 1 200 13 is_stmt 1 view .LVU280
 200:Service/Srv_Receiver.c ****                 return false;
 885              		.loc 1 200 55 is_stmt 0 view .LVU281
 886 00b6 1B68     		ldr	r3, [r3]
 200:Service/Srv_Receiver.c ****                 return false;
 887              		.loc 1 200 19 view .LVU282
 888 00b8 9847     		blx	r3
 889              	.LVL58:
 200:Service/Srv_Receiver.c ****                 return false;
 890              		.loc 1 200 16 view .LVU283
 891 00ba 0028     		cmp	r0, #0
 892 00bc 72D0     		beq	.L66
 131:Service/Srv_Receiver.c ****     BspUARTObj_TypeDef *Uart_Receiver_Obj = NULL;
 893              		.loc 1 131 10 view .LVU284
 894 00be 2746     		mov	r7, r4
 895              	.L57:
 896              	.LVL59:
 208:Service/Srv_Receiver.c ****         if (!obj->data.val_list)
 897              		.loc 1 208 9 is_stmt 1 view .LVU285
 208:Service/Srv_Receiver.c ****         if (!obj->data.val_list)
 898              		.loc 1 208 75 is_stmt 0 view .LVU286
 899 00c0 A87B     		ldrb	r0, [r5, #14]	@ zero_extendqisi2
 208:Service/Srv_Receiver.c ****         if (!obj->data.val_list)
 900              		.loc 1 208 42 view .LVU287
 901 00c2 4000     		lsls	r0, r0, #1
 902 00c4 FFF7FEFF 		bl	MMU_Malloc
 903              	.LVL60:
 208:Service/Srv_Receiver.c ****         if (!obj->data.val_list)
 904              		.loc 1 208 28 view .LVU288
 905 00c8 C5F81700 		str	r0, [r5, #23]	@ unaligned
 209:Service/Srv_Receiver.c ****         {
 906              		.loc 1 209 9 is_stmt 1 view .LVU289
 209:Service/Srv_Receiver.c ****         {
 907              		.loc 1 209 12 is_stmt 0 view .LVU290
 908 00cc 0028     		cmp	r0, #0
 909 00ce 4FD0     		beq	.L70
 215:Service/Srv_Receiver.c ****         if (!obj->port)
 910              		.loc 1 215 9 is_stmt 1 view .LVU291
 215:Service/Srv_Receiver.c ****         if (!obj->port)
 911              		.loc 1 215 49 is_stmt 0 view .LVU292
 912 00d0 0820     		movs	r0, #8
 913 00d2 FFF7FEFF 		bl	MMU_Malloc
 914              	.LVL61:
 215:Service/Srv_Receiver.c ****         if (!obj->port)
 915              		.loc 1 215 19 view .LVU293
 916 00d6 C5F82500 		str	r0, [r5, #37]	@ unaligned
 216:Service/Srv_Receiver.c ****         {
 917              		.loc 1 216 9 is_stmt 1 view .LVU294
 216:Service/Srv_Receiver.c ****         {
ARM GAS  C:\Users\HUAV\AppData\Local\Temp\ccv6UgYU.s 			page 29


 918              		.loc 1 216 12 is_stmt 0 view .LVU295
 919 00da 0028     		cmp	r0, #0
 920 00dc 4BD0     		beq	.L71
 222:Service/Srv_Receiver.c ****         {
 921              		.loc 1 222 9 is_stmt 1 view .LVU296
 222:Service/Srv_Receiver.c ****         {
 922              		.loc 1 222 12 is_stmt 0 view .LVU297
 923 00de 002F     		cmp	r7, #0
 924 00e0 4ED1     		bne	.L72
 229:Service/Srv_Receiver.c ****         Uart_Receiver_Obj->rx_size = SRV_RECEIVER_BUFF_SIZE;
 925              		.loc 1 229 9 is_stmt 1 view .LVU298
 229:Service/Srv_Receiver.c ****         Uart_Receiver_Obj->rx_size = SRV_RECEIVER_BUFF_SIZE;
 926              		.loc 1 229 35 is_stmt 0 view .LVU299
 927 00e2 314B     		ldr	r3, .L75
 928 00e4 C6F8AD31 		str	r3, [r6, #429]	@ unaligned
 230:Service/Srv_Receiver.c ****         Uart_Receiver_Obj->cust_data_addr = obj;
 929              		.loc 1 230 9 is_stmt 1 view .LVU300
 230:Service/Srv_Receiver.c ****         Uart_Receiver_Obj->cust_data_addr = obj;
 930              		.loc 1 230 36 is_stmt 0 view .LVU301
 931 00e8 0023     		movs	r3, #0
 932 00ea 86F8B131 		strb	r3, [r6, #433]
 933 00ee 0123     		movs	r3, #1
 934 00f0 86F8B231 		strb	r3, [r6, #434]
 231:Service/Srv_Receiver.c **** 
 935              		.loc 1 231 9 is_stmt 1 view .LVU302
 231:Service/Srv_Receiver.c **** 
 936              		.loc 1 231 43 is_stmt 0 view .LVU303
 937 00f4 C6F8B451 		str	r5, [r6, #436]	@ unaligned
 234:Service/Srv_Receiver.c **** 
 938              		.loc 1 234 9 is_stmt 1 view .LVU304
 234:Service/Srv_Receiver.c **** 
 939              		.loc 1 234 39 is_stmt 0 view .LVU305
 940 00f8 324B     		ldr	r3, .L75+28
 941 00fa C6F8A931 		str	r3, [r6, #425]	@ unaligned
 237:Service/Srv_Receiver.c ****         {
 942              		.loc 1 237 9 is_stmt 1 view .LVU306
 237:Service/Srv_Receiver.c ****         {
 943              		.loc 1 237 21 is_stmt 0 view .LVU307
 944 00fe 324B     		ldr	r3, .L75+32
 945 0100 1B68     		ldr	r3, [r3]
 237:Service/Srv_Receiver.c ****         {
 946              		.loc 1 237 14 view .LVU308
 947 0102 3046     		mov	r0, r6
 948 0104 9847     		blx	r3
 949              	.LVL62:
 237:Service/Srv_Receiver.c ****         {
 950              		.loc 1 237 12 view .LVU309
 951 0106 0446     		mov	r4, r0
 952 0108 0028     		cmp	r0, #0
 953 010a 42D0     		beq	.L73
 243:Service/Srv_Receiver.c ****         obj->port->cfg = Uart_Receiver_Obj;
 954              		.loc 1 243 9 is_stmt 1 view .LVU310
 243:Service/Srv_Receiver.c ****         obj->port->cfg = Uart_Receiver_Obj;
 955              		.loc 1 243 12 is_stmt 0 view .LVU311
 956 010c D5F82530 		ldr	r3, [r5, #37]	@ unaligned
 243:Service/Srv_Receiver.c ****         obj->port->cfg = Uart_Receiver_Obj;
 957              		.loc 1 243 24 view .LVU312
ARM GAS  C:\Users\HUAV\AppData\Local\Temp\ccv6UgYU.s 			page 30


 958 0110 2D4A     		ldr	r2, .L75+32
 959 0112 1A60     		str	r2, [r3]	@ unaligned
 244:Service/Srv_Receiver.c ****         break;
 960              		.loc 1 244 9 is_stmt 1 view .LVU313
 244:Service/Srv_Receiver.c ****         break;
 961              		.loc 1 244 12 is_stmt 0 view .LVU314
 962 0114 D5F82530 		ldr	r3, [r5, #37]	@ unaligned
 244:Service/Srv_Receiver.c ****         break;
 963              		.loc 1 244 24 view .LVU315
 964 0118 5E60     		str	r6, [r3, #4]	@ unaligned
 245:Service/Srv_Receiver.c **** 
 965              		.loc 1 245 9 is_stmt 1 view .LVU316
 966              	.LVL63:
 967              	.L53:
 256:Service/Srv_Receiver.c **** 
 968              		.loc 1 256 5 view .LVU317
 256:Service/Srv_Receiver.c **** 
 969              		.loc 1 256 22 is_stmt 0 view .LVU318
 970 011a 0023     		movs	r3, #0
 971 011c 85F82B30 		strb	r3, [r5, #43]
 972 0120 85F82C30 		strb	r3, [r5, #44]
 973 0124 85F82D30 		strb	r3, [r5, #45]
 974 0128 85F82E30 		strb	r3, [r5, #46]
 258:Service/Srv_Receiver.c **** }
 975              		.loc 1 258 5 is_stmt 1 view .LVU319
 258:Service/Srv_Receiver.c **** }
 976              		.loc 1 258 12 is_stmt 0 view .LVU320
 977 012c 0124     		movs	r4, #1
 978 012e 70E7     		b	.L51
 979              	.LVL64:
 980              	.L55:
 155:Service/Srv_Receiver.c **** 
 981              		.loc 1 155 13 is_stmt 1 view .LVU321
 155:Service/Srv_Receiver.c **** 
 982              		.loc 1 155 41 is_stmt 0 view .LVU322
 983 0130 6FF05F03 		mvn	r3, #95
 984 0134 3370     		strb	r3, [r6]
 985 0136 6FF07903 		mvn	r3, #121
 986 013a 7370     		strb	r3, [r6, #1]
 987 013c 0123     		movs	r3, #1
 988 013e B370     		strb	r3, [r6, #2]
 989 0140 0023     		movs	r3, #0
 990 0142 F370     		strb	r3, [r6, #3]
 158:Service/Srv_Receiver.c ****             if (obj->frame_data_obj == NULL)
 991              		.loc 1 158 13 is_stmt 1 view .LVU323
 158:Service/Srv_Receiver.c ****             if (obj->frame_data_obj == NULL)
 992              		.loc 1 158 35 is_stmt 0 view .LVU324
 993 0144 2120     		movs	r0, #33
 994 0146 FFF7FEFF 		bl	MMU_Malloc
 995              	.LVL65:
 158:Service/Srv_Receiver.c ****             if (obj->frame_data_obj == NULL)
 996              		.loc 1 158 33 view .LVU325
 997 014a C5F80F00 		str	r0, [r5, #15]	@ unaligned
 159:Service/Srv_Receiver.c ****             {
 998              		.loc 1 159 13 is_stmt 1 view .LVU326
 159:Service/Srv_Receiver.c ****             {
 999              		.loc 1 159 16 is_stmt 0 view .LVU327
ARM GAS  C:\Users\HUAV\AppData\Local\Temp\ccv6UgYU.s 			page 31


 1000 014e 58B1     		cbz	r0, .L63
 170:Service/Srv_Receiver.c **** 
 1001              		.loc 1 170 13 is_stmt 1 view .LVU328
 170:Service/Srv_Receiver.c **** 
 1002              		.loc 1 170 30 is_stmt 0 view .LVU329
 1003 0150 1023     		movs	r3, #16
 1004 0152 AB73     		strb	r3, [r5, #14]
 173:Service/Srv_Receiver.c **** 
 1005              		.loc 1 173 13 is_stmt 1 view .LVU330
 173:Service/Srv_Receiver.c **** 
 1006              		.loc 1 173 28 is_stmt 0 view .LVU331
 1007 0154 1D4B     		ldr	r3, .L75+36
 1008 0156 C5F82130 		str	r3, [r5, #33]	@ unaligned
 175:Service/Srv_Receiver.c ****                 return false;
 1009              		.loc 1 175 13 is_stmt 1 view .LVU332
 175:Service/Srv_Receiver.c ****                 return false;
 1010              		.loc 1 175 55 is_stmt 0 view .LVU333
 1011 015a 1B68     		ldr	r3, [r3]
 175:Service/Srv_Receiver.c ****                 return false;
 1012              		.loc 1 175 19 view .LVU334
 1013 015c 9847     		blx	r3
 1014              	.LVL66:
 175:Service/Srv_Receiver.c ****                 return false;
 1015              		.loc 1 175 16 view .LVU335
 1016 015e 08B1     		cbz	r0, .L74
 131:Service/Srv_Receiver.c ****     BspUARTObj_TypeDef *Uart_Receiver_Obj = NULL;
 1017              		.loc 1 131 10 view .LVU336
 1018 0160 2746     		mov	r7, r4
 1019 0162 ADE7     		b	.L57
 1020              	.L74:
 176:Service/Srv_Receiver.c ****             break;
 1021              		.loc 1 176 24 view .LVU337
 1022 0164 0446     		mov	r4, r0
 1023 0166 54E7     		b	.L51
 1024              	.L63:
 161:Service/Srv_Receiver.c ****                 break;
 1025              		.loc 1 161 32 view .LVU338
 1026 0168 0127     		movs	r7, #1
 1027 016a A9E7     		b	.L57
 1028              	.L65:
 186:Service/Srv_Receiver.c ****                 break;
 1029              		.loc 1 186 32 view .LVU339
 1030 016c 0127     		movs	r7, #1
 1031 016e A7E7     		b	.L57
 1032              	.LVL67:
 1033              	.L70:
 211:Service/Srv_Receiver.c ****             return false;
 1034              		.loc 1 211 13 is_stmt 1 view .LVU340
 1035 0170 FFF7FEFF 		bl	MMU_Free
 1036              	.LVL68:
 212:Service/Srv_Receiver.c ****         }
 1037              		.loc 1 212 13 view .LVU341
 212:Service/Srv_Receiver.c ****         }
 1038              		.loc 1 212 20 is_stmt 0 view .LVU342
 1039 0174 4DE7     		b	.L51
 1040              	.L71:
 218:Service/Srv_Receiver.c ****             return false;
ARM GAS  C:\Users\HUAV\AppData\Local\Temp\ccv6UgYU.s 			page 32


 1041              		.loc 1 218 13 is_stmt 1 view .LVU343
 1042 0176 D5F81700 		ldr	r0, [r5, #23]	@ unaligned
 1043 017a FFF7FEFF 		bl	MMU_Free
 1044              	.LVL69:
 219:Service/Srv_Receiver.c ****         }
 1045              		.loc 1 219 13 view .LVU344
 219:Service/Srv_Receiver.c ****         }
 1046              		.loc 1 219 20 is_stmt 0 view .LVU345
 1047 017e 48E7     		b	.L51
 1048              	.L72:
 224:Service/Srv_Receiver.c ****             return false;
 1049              		.loc 1 224 13 is_stmt 1 view .LVU346
 224:Service/Srv_Receiver.c ****             return false;
 1050              		.loc 1 224 21 is_stmt 0 view .LVU347
 1051 0180 0A4B     		ldr	r3, .L75+4
 1052 0182 9D68     		ldr	r5, [r3, #8]
 1053              	.LVL70:
 224:Service/Srv_Receiver.c ****             return false;
 1054              		.loc 1 224 13 view .LVU348
 1055 0184 1E23     		movs	r3, #30
 1056 0186 0D4A     		ldr	r2, .L75+20
 1057 0188 0121     		movs	r1, #1
 1058 018a 0A48     		ldr	r0, .L75+12
 1059 018c 0068     		ldr	r0, [r0]
 1060 018e A847     		blx	r5
 1061              	.LVL71:
 225:Service/Srv_Receiver.c ****         }
 1062              		.loc 1 225 13 is_stmt 1 view .LVU349
 225:Service/Srv_Receiver.c ****         }
 1063              		.loc 1 225 20 is_stmt 0 view .LVU350
 1064 0190 3FE7     		b	.L51
 1065              	.LVL72:
 1066              	.L73:
 239:Service/Srv_Receiver.c ****             return false;
 1067              		.loc 1 239 13 is_stmt 1 view .LVU351
 239:Service/Srv_Receiver.c ****             return false;
 1068              		.loc 1 239 21 is_stmt 0 view .LVU352
 1069 0192 064B     		ldr	r3, .L75+4
 1070 0194 9D68     		ldr	r5, [r3, #8]
 1071              	.LVL73:
 239:Service/Srv_Receiver.c ****             return false;
 1072              		.loc 1 239 13 view .LVU353
 1073 0196 1E23     		movs	r3, #30
 1074 0198 084A     		ldr	r2, .L75+20
 1075 019a 0321     		movs	r1, #3
 1076 019c 0548     		ldr	r0, .L75+12
 1077 019e 0068     		ldr	r0, [r0]
 1078 01a0 A847     		blx	r5
 1079              	.LVL74:
 240:Service/Srv_Receiver.c ****         }
 1080              		.loc 1 240 13 is_stmt 1 view .LVU354
 240:Service/Srv_Receiver.c ****         }
 1081              		.loc 1 240 20 is_stmt 0 view .LVU355
 1082 01a2 36E7     		b	.L51
 1083              	.LVL75:
 1084              	.L66:
 201:Service/Srv_Receiver.c ****             break;
ARM GAS  C:\Users\HUAV\AppData\Local\Temp\ccv6UgYU.s 			page 33


 1085              		.loc 1 201 24 view .LVU356
 1086 01a4 0446     		mov	r4, r0
 1087 01a6 34E7     		b	.L51
 1088              	.L76:
 1089              		.align	2
 1090              	.L75:
 1091 01a8 00000000 		.word	.LANCHOR0
 1092 01ac 00000000 		.word	ErrorLog
 1093 01b0 00000000 		.word	.LC0
 1094 01b4 00000000 		.word	.LANCHOR1
 1095 01b8 00000000 		.word	.LANCHOR2
 1096 01bc 00000000 		.word	.LANCHOR3
 1097 01c0 00000000 		.word	DevCRSF
 1098 01c4 00000000 		.word	SrvReceiver_SerialDecode_Callback
 1099 01c8 00000000 		.word	BspUart
 1100 01cc 00000000 		.word	DevSBUS
 1101              		.cfi_endproc
 1102              	.LFE149:
 1104              		.section	.text.SrvReceiver_Create_UartObj,"ax",%progbits
 1105              		.align	1
 1106              		.syntax unified
 1107              		.thumb
 1108              		.thumb_func
 1109              		.fpu fpv5-d16
 1111              	SrvReceiver_Create_UartObj:
 1112              	.LVL76:
 1113              	.LFB147:
 100:Service/Srv_Receiver.c ****     BspUARTObj_TypeDef *Uart_Receiver_Obj = NULL;
 1114              		.loc 1 100 1 is_stmt 1 view -0
 1115              		.cfi_startproc
 1116              		@ args = 32, pretend = 0, frame = 0
 1117              		@ frame_needed = 0, uses_anonymous_args = 0
 100:Service/Srv_Receiver.c ****     BspUARTObj_TypeDef *Uart_Receiver_Obj = NULL;
 1118              		.loc 1 100 1 is_stmt 0 view .LVU358
 1119 0000 2DE9F041 		push	{r4, r5, r6, r7, r8, lr}
 1120              	.LCFI11:
 1121              		.cfi_def_cfa_offset 24
 1122              		.cfi_offset 4, -24
 1123              		.cfi_offset 5, -20
 1124              		.cfi_offset 6, -16
 1125              		.cfi_offset 7, -12
 1126              		.cfi_offset 8, -8
 1127              		.cfi_offset 14, -4
 1128 0004 8046     		mov	r8, r0
 1129 0006 0F46     		mov	r7, r1
 1130 0008 1646     		mov	r6, r2
 1131 000a 1D46     		mov	r5, r3
 101:Service/Srv_Receiver.c **** 
 1132              		.loc 1 101 5 is_stmt 1 view .LVU359
 1133              	.LVL77:
 103:Service/Srv_Receiver.c **** 
 1134              		.loc 1 103 5 view .LVU360
 103:Service/Srv_Receiver.c **** 
 1135              		.loc 1 103 47 is_stmt 0 view .LVU361
 1136 000c 4FF4EC70 		mov	r0, #472
 1137              	.LVL78:
 103:Service/Srv_Receiver.c **** 
ARM GAS  C:\Users\HUAV\AppData\Local\Temp\ccv6UgYU.s 			page 34


 1138              		.loc 1 103 47 view .LVU362
 1139 0010 FFF7FEFF 		bl	MMU_Malloc
 1140              	.LVL79:
 105:Service/Srv_Receiver.c ****     {
 1141              		.loc 1 105 5 is_stmt 1 view .LVU363
 105:Service/Srv_Receiver.c ****     {
 1142              		.loc 1 105 8 is_stmt 0 view .LVU364
 1143 0014 0446     		mov	r4, r0
 1144 0016 38B3     		cbz	r0, .L81
 111:Service/Srv_Receiver.c **** 
 1145              		.loc 1 111 5 is_stmt 1 view .LVU365
 1146 0018 4FF4EC72 		mov	r2, #472
 1147 001c 0021     		movs	r1, #0
 1148 001e FFF7FEFF 		bl	memset
 1149              	.LVL80:
 113:Service/Srv_Receiver.c ****     Uart_Receiver_Obj->tx_io = tx_pin;
 1150              		.loc 1 113 5 view .LVU366
 113:Service/Srv_Receiver.c ****     Uart_Receiver_Obj->tx_io = tx_pin;
 1151              		.loc 1 113 33 is_stmt 0 view .LVU367
 1152 0022 C4F80580 		str	r8, [r4, #5]	@ unaligned
 114:Service/Srv_Receiver.c ****     Uart_Receiver_Obj->rx_io = rx_pin;
 1153              		.loc 1 114 5 is_stmt 1 view .LVU368
 114:Service/Srv_Receiver.c ****     Uart_Receiver_Obj->rx_io = rx_pin;
 1154              		.loc 1 114 30 is_stmt 0 view .LVU369
 1155 0026 0DF1200C 		add	ip, sp, #32
 1156 002a BCE80700 		ldmia	ip!, {r0, r1, r2}
 1157 002e C4F88D01 		str	r0, [r4, #397]	@ unaligned
 1158 0032 C4F89111 		str	r1, [r4, #401]	@ unaligned
 1159 0036 C4F89521 		str	r2, [r4, #405]	@ unaligned
 115:Service/Srv_Receiver.c ****     Uart_Receiver_Obj->pin_swap = swap;
 1160              		.loc 1 115 5 is_stmt 1 view .LVU370
 115:Service/Srv_Receiver.c ****     Uart_Receiver_Obj->pin_swap = swap;
 1161              		.loc 1 115 30 is_stmt 0 view .LVU371
 1162 003a BCE80700 		ldmia	ip!, {r0, r1, r2}
 1163 003e C4F89901 		str	r0, [r4, #409]	@ unaligned
 1164 0042 C4F89D11 		str	r1, [r4, #413]	@ unaligned
 1165 0046 C4F8A121 		str	r2, [r4, #417]	@ unaligned
 116:Service/Srv_Receiver.c ****     Uart_Receiver_Obj->rx_dma = rx_dma;
 1166              		.loc 1 116 5 is_stmt 1 view .LVU372
 116:Service/Srv_Receiver.c ****     Uart_Receiver_Obj->rx_dma = rx_dma;
 1167              		.loc 1 116 33 is_stmt 0 view .LVU373
 1168 004a 9DF81C30 		ldrb	r3, [sp, #28]	@ zero_extendqisi2
 1169 004e 2371     		strb	r3, [r4, #4]
 117:Service/Srv_Receiver.c ****     Uart_Receiver_Obj->rx_stream = rx_dma_stream;
 1170              		.loc 1 117 5 is_stmt 1 view .LVU374
 117:Service/Srv_Receiver.c ****     Uart_Receiver_Obj->rx_stream = rx_dma_stream;
 1171              		.loc 1 117 31 is_stmt 0 view .LVU375
 1172 0050 84F81371 		strb	r7, [r4, #275]
 118:Service/Srv_Receiver.c ****     Uart_Receiver_Obj->tx_dma = tx_dma;
 1173              		.loc 1 118 5 is_stmt 1 view .LVU376
 118:Service/Srv_Receiver.c ****     Uart_Receiver_Obj->tx_dma = tx_dma;
 1174              		.loc 1 118 34 is_stmt 0 view .LVU377
 1175 0054 84F81461 		strb	r6, [r4, #276]
 119:Service/Srv_Receiver.c ****     Uart_Receiver_Obj->tx_stream = tx_dma_stream;
 1176              		.loc 1 119 5 is_stmt 1 view .LVU378
 119:Service/Srv_Receiver.c ****     Uart_Receiver_Obj->tx_stream = tx_dma_stream;
 1177              		.loc 1 119 31 is_stmt 0 view .LVU379
ARM GAS  C:\Users\HUAV\AppData\Local\Temp\ccv6UgYU.s 			page 35


 1178 0058 84F89950 		strb	r5, [r4, #153]
 120:Service/Srv_Receiver.c **** 
 1179              		.loc 1 120 5 is_stmt 1 view .LVU380
 120:Service/Srv_Receiver.c **** 
 1180              		.loc 1 120 34 is_stmt 0 view .LVU381
 1181 005c 069B     		ldr	r3, [sp, #24]
 1182 005e 84F89A30 		strb	r3, [r4, #154]
 122:Service/Srv_Receiver.c **** }
 1183              		.loc 1 122 5 is_stmt 1 view .LVU382
 1184              	.L77:
 123:Service/Srv_Receiver.c **** 
 1185              		.loc 1 123 1 is_stmt 0 view .LVU383
 1186 0062 2046     		mov	r0, r4
 1187 0064 BDE8F081 		pop	{r4, r5, r6, r7, r8, pc}
 1188              	.LVL81:
 1189              	.L81:
 107:Service/Srv_Receiver.c ****         return NULL;
 1190              		.loc 1 107 9 is_stmt 1 view .LVU384
 1191 0068 FFF7FEFF 		bl	MMU_Free
 1192              	.LVL82:
 108:Service/Srv_Receiver.c ****     }
 1193              		.loc 1 108 9 view .LVU385
 108:Service/Srv_Receiver.c ****     }
 1194              		.loc 1 108 16 is_stmt 0 view .LVU386
 1195 006c F9E7     		b	.L77
 1196              		.cfi_endproc
 1197              	.LFE147:
 1199              		.section	.rodata.str1.4,"aMS",%progbits,1
 1200              		.align	2
 1201              	.LC1:
 1202 0000 52656365 		.ascii	"Receiver Object Input Error\015\012\000"
 1202      69766572 
 1202      204F626A 
 1202      65637420 
 1202      496E7075 
 1203 001e 0000     		.align	2
 1204              	.LC2:
 1205 0020 52656365 		.ascii	"Receiver Port Error\015\012\000"
 1205      69766572 
 1205      20506F72 
 1205      74204572 
 1205      726F720D 
 1206 0036 0000     		.align	2
 1207              	.LC3:
 1208 0038 52656365 		.ascii	"Receiver Port Init Error\015\012\000"
 1208      69766572 
 1208      20506F72 
 1208      7420496E 
 1208      69742045 
 1209 0053 00       		.align	2
 1210              	.LC4:
 1211 0054 52656365 		.ascii	"Receiver Frame Type Error\015\012\000"
 1211      69766572 
 1211      20467261 
 1211      6D652054 
 1211      79706520 
 1212              		.global	SrvReceiver
ARM GAS  C:\Users\HUAV\AppData\Local\Temp\ccv6UgYU.s 			page 36


 1213              		.section	.Perph_Section,"aw"
 1214              		.align	2
 1215              		.set	.LANCHOR0,. + 0
 1218              	SrvReceiver_Buff:
 1219 0000 00000000 		.space	256
 1219      00000000 
 1219      00000000 
 1219      00000000 
 1219      00000000 
 1220              		.section	.bss.SrvReceiver_Error_Handle,"aw",%nobits
 1221              		.align	2
 1222              		.set	.LANCHOR1,. + 0
 1225              	SrvReceiver_Error_Handle:
 1226 0000 00000000 		.space	4
 1227              		.section	.bss.SrvReceiver_Monitor,"aw",%nobits
 1228              		.align	2
 1229              		.set	.LANCHOR3,. + 0
 1232              	SrvReceiver_Monitor:
 1233 0000 00000000 		.space	30
 1233      00000000 
 1233      00000000 
 1233      00000000 
 1233      00000000 
 1234              		.section	.data.SrvReceiver,"aw"
 1235              		.align	2
 1238              	SrvReceiver:
 1239 0000 00000000 		.word	SrvReceiver_Create_UartObj
 1240 0004 00000000 		.word	SrvReceiver_Create_SPIObj
 1241 0008 00000000 		.word	SrvReceiver_Init
 1242 000c 00000000 		.word	SrvReceiver_Get_Value
 1243 0010 00000000 		.word	SrvReceiver_Set_Invert
 1244              		.section	.data.SrvReceiver_ErrorList,"aw"
 1245              		.align	2
 1246              		.set	.LANCHOR2,. + 0
 1249              	SrvReceiver_ErrorList:
 1250 0000 0100     		.short	1
 1251 0002 02       		.byte	2
 1252 0003 00       		.space	1
 1253 0004 00000000 		.word	.LC1
 1254 0008 00       		.byte	0
 1255 0009 00       		.byte	0
 1256 000a 00000000 		.4byte	0
 1257 000e 00000000 		.4byte	0
 1258 0012 0000     		.short	0
 1259 0014 00000000 		.space	4
 1260 0018 0200     		.short	2
 1261 001a 02       		.byte	2
 1262 001b 00       		.space	1
 1263 001c 20000000 		.word	.LC2
 1264 0020 00       		.byte	0
 1265 0021 00       		.byte	0
 1266 0022 00000000 		.4byte	0
 1267 0026 00000000 		.4byte	0
 1268 002a 0000     		.short	0
 1269 002c 00000000 		.space	4
 1270 0030 0300     		.short	3
 1271 0032 02       		.byte	2
ARM GAS  C:\Users\HUAV\AppData\Local\Temp\ccv6UgYU.s 			page 37


 1272 0033 00       		.space	1
 1273 0034 38000000 		.word	.LC3
 1274 0038 00       		.byte	0
 1275 0039 00       		.byte	0
 1276 003a 00000000 		.4byte	0
 1277 003e 00000000 		.4byte	0
 1278 0042 0000     		.short	0
 1279 0044 00000000 		.space	4
 1280 0048 0400     		.short	4
 1281 004a 02       		.byte	2
 1282 004b 00       		.space	1
 1283 004c 54000000 		.word	.LC4
 1284 0050 00       		.byte	0
 1285 0051 00       		.byte	0
 1286 0052 00000000 		.4byte	0
 1287 0056 00000000 		.4byte	0
 1288 005a 0000     		.short	0
 1289 005c 00000000 		.space	4
 1290              		.text
 1291              	.Letext0:
 1292              		.file 2 "d:\\software\\zephyr_env_gcc\\gcc-arm-none-eabi-10-2020-q4-major\\arm-none-eabi\\include\
 1293              		.file 3 "d:\\software\\zephyr_env_gcc\\gcc-arm-none-eabi-10-2020-q4-major\\arm-none-eabi\\include\
 1294              		.file 4 "System/runtime/runtime.h"
 1295              		.file 5 "Device/Dev_Sbus.h"
 1296              		.file 6 "Device/Dev_CRSF.h"
 1297              		.file 7 "HAL_Lib/CMSIS/Device/ST/STM32H7xx/Include/stm32h743xx.h"
 1298              		.file 8 "HAL_Lib/STM32H7xx_HAL_Driver/Inc/stm32h7xx_hal_def.h"
 1299              		.file 9 "HAL_Lib/STM32H7xx_HAL_Driver/Inc/stm32h7xx_hal_gpio.h"
 1300              		.file 10 "HAL_Lib/STM32H7xx_HAL_Driver/Inc/stm32h7xx_hal_dma.h"
 1301              		.file 11 "HAL_Lib/STM32H7xx_HAL_Driver/Inc/stm32h7xx_hal_uart.h"
 1302              		.file 12 "Bsp/Bsp_GPIO.h"
 1303              		.file 13 "Bsp/Bsp_DMA.h"
 1304              		.file 14 "Bsp/Bsp_Uart.h"
 1305              		.file 15 "Service/Srv_Receiver.h"
 1306              		.file 16 "DataStructure/linked_list.h"
 1307              		.file 17 "common/error_log.h"
 1308              		.file 18 "System/mmu/mmu.h"
 1309              		.file 19 "<built-in>"
ARM GAS  C:\Users\HUAV\AppData\Local\Temp\ccv6UgYU.s 			page 38


DEFINED SYMBOLS
                            *ABS*:00000000 Srv_Receiver.c
C:\Users\HUAV\AppData\Local\Temp\ccv6UgYU.s:17     .text.SrvReceiver_Create_SPIObj:00000000 $t
C:\Users\HUAV\AppData\Local\Temp\ccv6UgYU.s:24     .text.SrvReceiver_Create_SPIObj:00000000 SrvReceiver_Create_SPIObj
C:\Users\HUAV\AppData\Local\Temp\ccv6UgYU.s:38     .text.SrvReceiver_Set_Invert:00000000 $t
C:\Users\HUAV\AppData\Local\Temp\ccv6UgYU.s:44     .text.SrvReceiver_Set_Invert:00000000 SrvReceiver_Set_Invert
C:\Users\HUAV\AppData\Local\Temp\ccv6UgYU.s:90     .text.SrvReceiver_Check:00000000 $t
C:\Users\HUAV\AppData\Local\Temp\ccv6UgYU.s:96     .text.SrvReceiver_Check:00000000 SrvReceiver_Check
C:\Users\HUAV\AppData\Local\Temp\ccv6UgYU.s:222    .text.SrvReceiver_Get_Value:00000000 $t
C:\Users\HUAV\AppData\Local\Temp\ccv6UgYU.s:228    .text.SrvReceiver_Get_Value:00000000 SrvReceiver_Get_Value
C:\Users\HUAV\AppData\Local\Temp\ccv6UgYU.s:351    .text.SrvReceiver_SerialDecode_Callback:00000000 $t
C:\Users\HUAV\AppData\Local\Temp\ccv6UgYU.s:357    .text.SrvReceiver_SerialDecode_Callback:00000000 SrvReceiver_SerialDecode_Callback
C:\Users\HUAV\AppData\Local\Temp\ccv6UgYU.s:721    .rodata.SrvReceiver_Init.str1.4:00000000 $d
C:\Users\HUAV\AppData\Local\Temp\ccv6UgYU.s:725    .text.SrvReceiver_Init:00000000 $t
C:\Users\HUAV\AppData\Local\Temp\ccv6UgYU.s:731    .text.SrvReceiver_Init:00000000 SrvReceiver_Init
C:\Users\HUAV\AppData\Local\Temp\ccv6UgYU.s:1091   .text.SrvReceiver_Init:000001a8 $d
C:\Users\HUAV\AppData\Local\Temp\ccv6UgYU.s:1105   .text.SrvReceiver_Create_UartObj:00000000 $t
C:\Users\HUAV\AppData\Local\Temp\ccv6UgYU.s:1111   .text.SrvReceiver_Create_UartObj:00000000 SrvReceiver_Create_UartObj
C:\Users\HUAV\AppData\Local\Temp\ccv6UgYU.s:1200   .rodata.str1.4:00000000 $d
C:\Users\HUAV\AppData\Local\Temp\ccv6UgYU.s:1238   .data.SrvReceiver:00000000 SrvReceiver
C:\Users\HUAV\AppData\Local\Temp\ccv6UgYU.s:1214   .Perph_Section:00000000 $d
C:\Users\HUAV\AppData\Local\Temp\ccv6UgYU.s:1218   .Perph_Section:00000000 SrvReceiver_Buff
C:\Users\HUAV\AppData\Local\Temp\ccv6UgYU.s:1221   .bss.SrvReceiver_Error_Handle:00000000 $d
C:\Users\HUAV\AppData\Local\Temp\ccv6UgYU.s:1225   .bss.SrvReceiver_Error_Handle:00000000 SrvReceiver_Error_Handle
C:\Users\HUAV\AppData\Local\Temp\ccv6UgYU.s:1228   .bss.SrvReceiver_Monitor:00000000 $d
C:\Users\HUAV\AppData\Local\Temp\ccv6UgYU.s:1232   .bss.SrvReceiver_Monitor:00000000 SrvReceiver_Monitor
C:\Users\HUAV\AppData\Local\Temp\ccv6UgYU.s:1235   .data.SrvReceiver:00000000 $d
C:\Users\HUAV\AppData\Local\Temp\ccv6UgYU.s:1245   .data.SrvReceiver_ErrorList:00000000 $d
C:\Users\HUAV\AppData\Local\Temp\ccv6UgYU.s:1249   .data.SrvReceiver_ErrorList:00000000 SrvReceiver_ErrorList

UNDEFINED SYMBOLS
Get_CurrentRunningMs
memset
MMU_Malloc
MMU_Free
ErrorLog
DevCRSF
BspUart
DevSBUS
