ARM GAS  C:\Users\8bit\AppData\Local\Temp\ccsnJ8W1.s 			page 1


   1              		.cpu cortex-m4
   2              		.arch armv7e-m
   3              		.fpu fpv4-sp-d16
   4              		.eabi_attribute 27, 1
   5              		.eabi_attribute 28, 1
   6              		.eabi_attribute 20, 1
   7              		.eabi_attribute 21, 1
   8              		.eabi_attribute 23, 3
   9              		.eabi_attribute 24, 1
  10              		.eabi_attribute 25, 1
  11              		.eabi_attribute 26, 1
  12              		.eabi_attribute 30, 1
  13              		.eabi_attribute 34, 1
  14              		.eabi_attribute 18, 4
  15              		.file	"Srv_Flow.c"
  16              		.text
  17              	.Ltext0:
  18              		.cfi_sections	.debug_frame
  19              		.section	.text.SrvFlow_Init,"ax",%progbits
  20              		.align	1
  21              		.syntax unified
  22              		.thumb
  23              		.thumb_func
  25              	SrvFlow_Init:
  26              	.LVL0:
  27              	.LFB148:
  28              		.file 1 "Service/Srv_Flow.c"
   1:Service/Srv_Flow.c **** #include "Srv_Flow.h"
   2:Service/Srv_Flow.c **** #include "Srv_DataHub.h"
   3:Service/Srv_Flow.c **** #include "Dev_Flow_3901U.h"
   4:Service/Srv_Flow.c **** #include "Bsp_Uart.h"
   5:Service/Srv_Flow.c **** #include "HW_Def.h"
   6:Service/Srv_Flow.c **** #include "../FCHW_Config.h"
   7:Service/Srv_Flow.c **** #include "../common/util.h"
   8:Service/Srv_Flow.c **** #include <math.h>
   9:Service/Srv_Flow.c **** 
  10:Service/Srv_Flow.c **** #define SrvFlow_TaskPeriod_Base 50  /* 50Hz */
  11:Service/Srv_Flow.c **** 
  12:Service/Srv_Flow.c **** /* internal vriable */
  13:Service/Srv_Flow.c **** static SrvFlowObj_TypeDef FlowMonitor = {
  14:Service/Srv_Flow.c ****     .init = false,
  15:Service/Srv_Flow.c ****     .api = NULL,
  16:Service/Srv_Flow.c ****     .obj = NULL,
  17:Service/Srv_Flow.c ****     .time_stamp = 0,
  18:Service/Srv_Flow.c ****     .lst_time_stamp = 0,
  19:Service/Srv_Flow.c ****     .flt_x_i = 0.0f,
  20:Service/Srv_Flow.c ****     .flt_y_i = 0.0f,
  21:Service/Srv_Flow.c ****     .att_x_bias = 0.0f,
  22:Service/Srv_Flow.c ****     .att_y_bias = 0.0f,
  23:Service/Srv_Flow.c ****     .lst_out_x = 0.0f,
  24:Service/Srv_Flow.c ****     .lst_out_y = 0.0f,
  25:Service/Srv_Flow.c ****     .out_x = 0.0f,
  26:Service/Srv_Flow.c ****     .out_y = 0.0f,
  27:Service/Srv_Flow.c ****     .x_v = 0.0f,
  28:Service/Srv_Flow.c ****     .y_v = 0.0f,
  29:Service/Srv_Flow.c **** };
  30:Service/Srv_Flow.c **** 
ARM GAS  C:\Users\8bit\AppData\Local\Temp\ccsnJ8W1.s 			page 2


  31:Service/Srv_Flow.c **** /* internal function */
  32:Service/Srv_Flow.c **** static bool SrvFlow_3901U_PortInit(BspUART_Port_List port, void *p_cus_data);
  33:Service/Srv_Flow.c **** static void SrvFlow_3901U_RawComput(uint32_t time_stamp, int16_t raw_x, int16_t raw_y);
  34:Service/Srv_Flow.c **** 
  35:Service/Srv_Flow.c **** /* external function */
  36:Service/Srv_Flow.c **** static bool SrvFlow_Init(SrvFlow_SensorType_List type);
  37:Service/Srv_Flow.c **** static bool SrvFlow_Get_Data(SrvFlowData_TypeDef *p_data);
  38:Service/Srv_Flow.c **** static bool SrvFlow_Sample(SrvFlow_SensorType_List type);
  39:Service/Srv_Flow.c **** 
  40:Service/Srv_Flow.c **** SrvFlow_TypeDef SrvFlow = {
  41:Service/Srv_Flow.c ****     .init =  SrvFlow_Init,
  42:Service/Srv_Flow.c ****     .get_data = SrvFlow_Get_Data,
  43:Service/Srv_Flow.c ****     .sample = SrvFlow_Sample,
  44:Service/Srv_Flow.c **** };
  45:Service/Srv_Flow.c **** 
  46:Service/Srv_Flow.c **** static bool SrvFlow_Init(SrvFlow_SensorType_List type)
  47:Service/Srv_Flow.c **** {
  29              		.loc 1 47 1 view -0
  30              		.cfi_startproc
  31              		@ args = 0, pretend = 0, frame = 0
  32              		@ frame_needed = 0, uses_anonymous_args = 0
  33              		.loc 1 47 1 is_stmt 0 view .LVU1
  34 0000 08B5     		push	{r3, lr}
  35              	.LCFI0:
  36              		.cfi_def_cfa_offset 8
  37              		.cfi_offset 3, -8
  38              		.cfi_offset 14, -4
  48:Service/Srv_Flow.c ****     void *p_obj = NULL;
  39              		.loc 1 48 5 is_stmt 1 view .LVU2
  40              	.LVL1:
  49:Service/Srv_Flow.c **** 
  50:Service/Srv_Flow.c ****     FlowMonitor.type = type;
  41              		.loc 1 50 5 view .LVU3
  42              		.loc 1 50 22 is_stmt 0 view .LVU4
  43 0002 0E4B     		ldr	r3, .L8
  44 0004 1870     		strb	r0, [r3]
  51:Service/Srv_Flow.c ****     switch ((uint8_t)FlowMonitor.type)
  45              		.loc 1 51 5 is_stmt 1 view .LVU5
  46 0006 0128     		cmp	r0, #1
  47 0008 01D0     		beq	.L7
  52:Service/Srv_Flow.c ****     {
  53:Service/Srv_Flow.c ****         case Flow_3901U:    /* Uart port */
  54:Service/Srv_Flow.c ****             /* use uart6 connect with flow sensor */
  55:Service/Srv_Flow.c ****             p_obj = SrvOsCommon.malloc(DevFlow3901U_Size);
  56:Service/Srv_Flow.c ****             if (p_obj == NULL)
  57:Service/Srv_Flow.c ****                 return false;
  58:Service/Srv_Flow.c **** 
  59:Service/Srv_Flow.c ****             To_DevFlow3901U_Obj(p_obj)->get_sys_time = SrvOsCommon.get_os_ms;
  60:Service/Srv_Flow.c ****             FlowMonitor.obj = p_obj;
  61:Service/Srv_Flow.c ****             FlowMonitor.api = &DevFlow3901;
  62:Service/Srv_Flow.c **** 
  63:Service/Srv_Flow.c ****             if (DevFlow3901.init(To_DevFlow3901U_Obj(p_obj)) == 0)
  64:Service/Srv_Flow.c ****                 return false;
  65:Service/Srv_Flow.c ****             
  66:Service/Srv_Flow.c ****             FlowMonitor.init = true;
  67:Service/Srv_Flow.c ****             
  68:Service/Srv_Flow.c ****             return true;
ARM GAS  C:\Users\8bit\AppData\Local\Temp\ccsnJ8W1.s 			page 3


  69:Service/Srv_Flow.c **** 
  70:Service/Srv_Flow.c ****         default: return false;
  48              		.loc 1 70 25 is_stmt 0 view .LVU6
  49 000a 0020     		movs	r0, #0
  50              	.LVL2:
  51              	.L2:
  71:Service/Srv_Flow.c ****     }
  72:Service/Srv_Flow.c **** 
  73:Service/Srv_Flow.c ****     return false;
  74:Service/Srv_Flow.c **** }
  52              		.loc 1 74 1 view .LVU7
  53 000c 08BD     		pop	{r3, pc}
  54              	.LVL3:
  55              	.L7:
  55:Service/Srv_Flow.c ****             if (p_obj == NULL)
  56              		.loc 1 55 13 is_stmt 1 view .LVU8
  55:Service/Srv_Flow.c ****             if (p_obj == NULL)
  57              		.loc 1 55 32 is_stmt 0 view .LVU9
  58 000e 0C4B     		ldr	r3, .L8+4
  59 0010 9B6A     		ldr	r3, [r3, #40]
  55:Service/Srv_Flow.c ****             if (p_obj == NULL)
  60              		.loc 1 55 21 view .LVU10
  61 0012 2C20     		movs	r0, #44
  62              	.LVL4:
  55:Service/Srv_Flow.c ****             if (p_obj == NULL)
  63              		.loc 1 55 21 view .LVU11
  64 0014 9847     		blx	r3
  65              	.LVL5:
  56:Service/Srv_Flow.c ****                 return false;
  66              		.loc 1 56 13 is_stmt 1 view .LVU12
  56:Service/Srv_Flow.c ****                 return false;
  67              		.loc 1 56 16 is_stmt 0 view .LVU13
  68 0016 68B1     		cbz	r0, .L4
  59:Service/Srv_Flow.c ****             FlowMonitor.obj = p_obj;
  69              		.loc 1 59 13 is_stmt 1 view .LVU14
  59:Service/Srv_Flow.c ****             FlowMonitor.obj = p_obj;
  70              		.loc 1 59 67 is_stmt 0 view .LVU15
  71 0018 094A     		ldr	r2, .L8+4
  72 001a 1268     		ldr	r2, [r2]
  59:Service/Srv_Flow.c ****             FlowMonitor.obj = p_obj;
  73              		.loc 1 59 54 view .LVU16
  74 001c 4262     		str	r2, [r0, #36]
  60:Service/Srv_Flow.c ****             FlowMonitor.api = &DevFlow3901;
  75              		.loc 1 60 13 is_stmt 1 view .LVU17
  60:Service/Srv_Flow.c ****             FlowMonitor.api = &DevFlow3901;
  76              		.loc 1 60 29 is_stmt 0 view .LVU18
  77 001e 0749     		ldr	r1, .L8
  78 0020 8860     		str	r0, [r1, #8]
  61:Service/Srv_Flow.c **** 
  79              		.loc 1 61 13 is_stmt 1 view .LVU19
  61:Service/Srv_Flow.c **** 
  80              		.loc 1 61 29 is_stmt 0 view .LVU20
  81 0022 084A     		ldr	r2, .L8+8
  82 0024 4A60     		str	r2, [r1, #4]
  63:Service/Srv_Flow.c ****                 return false;
  83              		.loc 1 63 13 is_stmt 1 view .LVU21
  63:Service/Srv_Flow.c ****                 return false;
ARM GAS  C:\Users\8bit\AppData\Local\Temp\ccsnJ8W1.s 			page 4


  84              		.loc 1 63 28 is_stmt 0 view .LVU22
  85 0026 1268     		ldr	r2, [r2]
  63:Service/Srv_Flow.c ****                 return false;
  86              		.loc 1 63 17 view .LVU23
  87 0028 9047     		blx	r2
  88              	.LVL6:
  63:Service/Srv_Flow.c ****                 return false;
  89              		.loc 1 63 16 view .LVU24
  90 002a 28B1     		cbz	r0, .L5
  66:Service/Srv_Flow.c ****             
  91              		.loc 1 66 13 is_stmt 1 view .LVU25
  66:Service/Srv_Flow.c ****             
  92              		.loc 1 66 30 is_stmt 0 view .LVU26
  93 002c 0120     		movs	r0, #1
  94 002e 034B     		ldr	r3, .L8
  95 0030 5870     		strb	r0, [r3, #1]
  68:Service/Srv_Flow.c **** 
  96              		.loc 1 68 13 is_stmt 1 view .LVU27
  68:Service/Srv_Flow.c **** 
  97              		.loc 1 68 20 is_stmt 0 view .LVU28
  98 0032 EBE7     		b	.L2
  99              	.LVL7:
 100              	.L4:
  57:Service/Srv_Flow.c **** 
 101              		.loc 1 57 24 view .LVU29
 102 0034 0020     		movs	r0, #0
 103              	.LVL8:
  57:Service/Srv_Flow.c **** 
 104              		.loc 1 57 24 view .LVU30
 105 0036 E9E7     		b	.L2
 106              	.L5:
  64:Service/Srv_Flow.c ****             
 107              		.loc 1 64 24 view .LVU31
 108 0038 0020     		movs	r0, #0
 109 003a E7E7     		b	.L2
 110              	.L9:
 111              		.align	2
 112              	.L8:
 113 003c 00000000 		.word	.LANCHOR0
 114 0040 00000000 		.word	SrvOsCommon
 115 0044 00000000 		.word	DevFlow3901
 116              		.cfi_endproc
 117              	.LFE148:
 119              		.section	.text.SrvFlow_Sample,"ax",%progbits
 120              		.align	1
 121              		.syntax unified
 122              		.thumb
 123              		.thumb_func
 125              	SrvFlow_Sample:
 126              	.LVL9:
 127              	.LFB149:
  75:Service/Srv_Flow.c **** 
  76:Service/Srv_Flow.c **** static bool SrvFlow_Sample(SrvFlow_SensorType_List type)
  77:Service/Srv_Flow.c **** {
 128              		.loc 1 77 1 is_stmt 1 view -0
 129              		.cfi_startproc
 130              		@ args = 0, pretend = 0, frame = 0
ARM GAS  C:\Users\8bit\AppData\Local\Temp\ccsnJ8W1.s 			page 5


 131              		@ frame_needed = 0, uses_anonymous_args = 0
 132              		@ link register save eliminated.
  78:Service/Srv_Flow.c ****     return false;
 133              		.loc 1 78 5 view .LVU33
  79:Service/Srv_Flow.c **** }
 134              		.loc 1 79 1 is_stmt 0 view .LVU34
 135 0000 0020     		movs	r0, #0
 136              	.LVL10:
 137              		.loc 1 79 1 view .LVU35
 138 0002 7047     		bx	lr
 139              		.cfi_endproc
 140              	.LFE149:
 142              		.global	__aeabi_f2d
 143              		.global	__aeabi_dmul
 144              		.global	__aeabi_dsub
 145              		.global	__aeabi_d2f
 146              		.section	.text.SrvFlow_3901U_RawComput,"ax",%progbits
 147              		.align	1
 148              		.syntax unified
 149              		.thumb
 150              		.thumb_func
 152              	SrvFlow_3901U_RawComput:
 153              	.LVL11:
 154              	.LFB152:
  80:Service/Srv_Flow.c **** 
  81:Service/Srv_Flow.c **** static bool SrvFlow_Get_Data(SrvFlowData_TypeDef *p_data)
  82:Service/Srv_Flow.c **** {
  83:Service/Srv_Flow.c ****     uint32_t time_stamp = 0;
  84:Service/Srv_Flow.c ****     int16_t raw_x = 0;
  85:Service/Srv_Flow.c ****     int16_t raw_y = 0;
  86:Service/Srv_Flow.c **** 
  87:Service/Srv_Flow.c ****     if (p_data)
  88:Service/Srv_Flow.c ****     {
  89:Service/Srv_Flow.c ****         switch ((uint8_t)FlowMonitor.type)
  90:Service/Srv_Flow.c ****         {
  91:Service/Srv_Flow.c ****             case Flow_3901U:
  92:Service/Srv_Flow.c ****                 To_DevFlow3901U_Api(FlowMonitor.api)->get(To_DevFlow3901U_Obj(FlowMonitor.obj), \
  93:Service/Srv_Flow.c ****                                     &time_stamp, &raw_x, &raw_y, NULL);
  94:Service/Srv_Flow.c ****                 SrvFlow_3901U_RawComput(time_stamp, raw_x, raw_y);
  95:Service/Srv_Flow.c ****                 break;
  96:Service/Srv_Flow.c **** 
  97:Service/Srv_Flow.c ****             default: return false;
  98:Service/Srv_Flow.c ****         }
  99:Service/Srv_Flow.c ****     }
 100:Service/Srv_Flow.c **** 
 101:Service/Srv_Flow.c ****     return false;
 102:Service/Srv_Flow.c **** }
 103:Service/Srv_Flow.c **** 
 104:Service/Srv_Flow.c **** /************************************************************ distance process impliment **********
 105:Service/Srv_Flow.c **** static bool SrvFlow_3901U_PortInit(BspUART_Port_List port, void *p_cus_data)
 106:Service/Srv_Flow.c **** {
 107:Service/Srv_Flow.c ****     void *port_obj = NULL;
 108:Service/Srv_Flow.c ****     void *port_instance = NULL;
 109:Service/Srv_Flow.c **** 
 110:Service/Srv_Flow.c **** #if defined AT32F435_437
 111:Service/Srv_Flow.c ****     switch ((uint8_t)port)
 112:Service/Srv_Flow.c ****     {
ARM GAS  C:\Users\8bit\AppData\Local\Temp\ccsnJ8W1.s 			page 6


 113:Service/Srv_Flow.c ****         case Bsp_UART_Port_1: port_instance = USART1; break;
 114:Service/Srv_Flow.c ****         case Bsp_UART_Port_2: port_instance = USART2; break;
 115:Service/Srv_Flow.c ****         case Bsp_UART_Port_3: port_instance = USART3; break;
 116:Service/Srv_Flow.c ****         case Bsp_UART_Port_4: port_instance = UART4;  break;
 117:Service/Srv_Flow.c ****         case Bsp_UART_Port_5: port_instance = UART5;  break;
 118:Service/Srv_Flow.c ****         case Bsp_UART_Port_6: port_instance = USART6; break;
 119:Service/Srv_Flow.c ****         case Bsp_UART_Port_7: port_instance = UART7;  break;
 120:Service/Srv_Flow.c ****         case Bsp_UART_Port_8: port_instance = UART8;  break;
 121:Service/Srv_Flow.c ****         default: return false;
 122:Service/Srv_Flow.c ****     }
 123:Service/Srv_Flow.c **** #endif
 124:Service/Srv_Flow.c **** 
 125:Service/Srv_Flow.c ****     port_obj = SrvOsCommon.malloc(BspUartObj_Size);
 126:Service/Srv_Flow.c ****     if (port_obj == NULL)
 127:Service/Srv_Flow.c ****         return false;
 128:Service/Srv_Flow.c **** 
 129:Service/Srv_Flow.c ****     To_BspUart_Obj(port_obj)->rx_size = FLOW_TEMP_BUFF_SIZE;
 130:Service/Srv_Flow.c ****     To_BspUart_Obj(port_obj)->baudrate = FLOW_3901U_BAUDRATE;
 131:Service/Srv_Flow.c ****     To_BspUart_Obj(port_obj)->cust_data_addr = p_cus_data;
 132:Service/Srv_Flow.c ****     To_BspUart_Obj(port_obj)->irq_type = BspUart_IRQ_Type_Idle;
 133:Service/Srv_Flow.c ****     To_BspUart_Obj(port_obj)->instance = port_instance;
 134:Service/Srv_Flow.c ****     To_BspUart_Obj(port_obj)->pin_swap = false;
 135:Service/Srv_Flow.c ****     // To_BspUart_Obj(port_obj)->rx_io = ;
 136:Service/Srv_Flow.c ****     // To_BspUart_Obj(port_obj)->tx_io = ;
 137:Service/Srv_Flow.c ****     // To_BspUart_Obj(port_obj)->rx_dma = FLOW_RX_DMA;
 138:Service/Srv_Flow.c ****     // To_BspUart_Obj(port_obj)->rx_stream = FLOW_RX_DMA_STREAM;
 139:Service/Srv_Flow.c ****     To_BspUart_Obj(port_obj)->tx_dma = Bsp_DMA_None;
 140:Service/Srv_Flow.c ****     To_BspUart_Obj(port_obj)->tx_stream = Bsp_DMA_Stream_None;
 141:Service/Srv_Flow.c ****     To_BspUart_Obj(port_obj)->rx_buf = SrvOsCommon.malloc(To_BspUart_Obj(port_obj)->rx_size);
 142:Service/Srv_Flow.c ****     if (To_BspUart_Obj(port_obj)->rx_buf == NULL)
 143:Service/Srv_Flow.c ****         return false;
 144:Service/Srv_Flow.c **** 
 145:Service/Srv_Flow.c ****     BspUart.init(port_obj);
 146:Service/Srv_Flow.c **** 
 147:Service/Srv_Flow.c ****     /* set port parse callback */
 148:Service/Srv_Flow.c ****     BspUart.set_rx_callback(To_BspUart_Obj(port_obj), (BspUART_Callback *)DevFlow3901.recv);
 149:Service/Srv_Flow.c **** 
 150:Service/Srv_Flow.c ****     /* set tx pin as yaw mode control pin */
 151:Service/Srv_Flow.c **** 
 152:Service/Srv_Flow.c ****     return true;
 153:Service/Srv_Flow.c **** }
 154:Service/Srv_Flow.c **** 
 155:Service/Srv_Flow.c **** /* comput raw data */
 156:Service/Srv_Flow.c **** static void SrvFlow_3901U_RawComput(uint32_t time_stamp, int16_t raw_x, int16_t raw_y)
 157:Service/Srv_Flow.c **** {
 155              		.loc 1 157 1 is_stmt 1 view -0
 156              		.cfi_startproc
 157              		@ args = 0, pretend = 0, frame = 24
 158              		@ frame_needed = 0, uses_anonymous_args = 0
 159              		.loc 1 157 1 is_stmt 0 view .LVU37
 160 0000 F0B5     		push	{r4, r5, r6, r7, lr}
 161              	.LCFI1:
 162              		.cfi_def_cfa_offset 20
 163              		.cfi_offset 4, -20
 164              		.cfi_offset 5, -16
 165              		.cfi_offset 6, -12
 166              		.cfi_offset 7, -8
ARM GAS  C:\Users\8bit\AppData\Local\Temp\ccsnJ8W1.s 			page 7


 167              		.cfi_offset 14, -4
 168 0002 2DED048B 		vpush.64	{d8, d9}
 169              	.LCFI2:
 170              		.cfi_def_cfa_offset 36
 171              		.cfi_offset 80, -36
 172              		.cfi_offset 81, -32
 173              		.cfi_offset 82, -28
 174              		.cfi_offset 83, -24
 175 0006 8DB0     		sub	sp, sp, #52
 176              	.LCFI3:
 177              		.cfi_def_cfa_offset 88
 178 0008 0546     		mov	r5, r0
 179 000a 08EE901A 		vmov	s17, r1	@ int
 180 000e 08EE102A 		vmov	s16, r2	@ int
 158:Service/Srv_Flow.c ****     uint32_t time = 0;
 181              		.loc 1 158 5 is_stmt 1 view .LVU38
 182              		.loc 1 158 14 is_stmt 0 view .LVU39
 183 0012 0024     		movs	r4, #0
 184 0014 0B94     		str	r4, [sp, #44]
 159:Service/Srv_Flow.c ****     float pitch = 0.0f;
 185              		.loc 1 159 5 is_stmt 1 view .LVU40
 186              		.loc 1 159 11 is_stmt 0 view .LVU41
 187 0016 0023     		movs	r3, #0
 188 0018 0A93     		str	r3, [sp, #40]	@ float
 160:Service/Srv_Flow.c ****     float roll = 0.0f;
 189              		.loc 1 160 5 is_stmt 1 view .LVU42
 190              		.loc 1 160 11 is_stmt 0 view .LVU43
 191 001a 0993     		str	r3, [sp, #36]	@ float
 161:Service/Srv_Flow.c ****     float yaw = 0.0f;
 192              		.loc 1 161 5 is_stmt 1 view .LVU44
 193              		.loc 1 161 11 is_stmt 0 view .LVU45
 194 001c 0893     		str	r3, [sp, #32]	@ float
 162:Service/Srv_Flow.c ****     float pos_x_diff = 0.0f;
 195              		.loc 1 162 5 is_stmt 1 view .LVU46
 196              	.LVL12:
 163:Service/Srv_Flow.c ****     float pos_y_diff = 0.0f;
 197              		.loc 1 163 5 view .LVU47
 164:Service/Srv_Flow.c ****     float dt = 0.0f;
 198              		.loc 1 164 5 view .LVU48
 165:Service/Srv_Flow.c ****     float cpi = 0.0f;
 199              		.loc 1 165 5 view .LVU49
 166:Service/Srv_Flow.c ****     float alt = 0.0f;
 200              		.loc 1 166 5 view .LVU50
 201              		.loc 1 166 11 is_stmt 0 view .LVU51
 202 001e 0793     		str	r3, [sp, #28]	@ float
 167:Service/Srv_Flow.c **** 
 168:Service/Srv_Flow.c ****     SrvDataHub.get_baro_altitude(NULL, NULL, &alt, NULL, NULL, NULL);
 203              		.loc 1 168 5 is_stmt 1 view .LVU52
 204              		.loc 1 168 15 is_stmt 0 view .LVU53
 205 0020 754E     		ldr	r6, .L14+8
 206 0022 376D     		ldr	r7, [r6, #80]
 207              		.loc 1 168 5 view .LVU54
 208 0024 0194     		str	r4, [sp, #4]
 209 0026 0094     		str	r4, [sp]
 210 0028 2346     		mov	r3, r4
 211 002a 07AA     		add	r2, sp, #28
 212              	.LVL13:
ARM GAS  C:\Users\8bit\AppData\Local\Temp\ccsnJ8W1.s 			page 8


 213              		.loc 1 168 5 view .LVU55
 214 002c 2146     		mov	r1, r4
 215              	.LVL14:
 216              		.loc 1 168 5 view .LVU56
 217 002e 2046     		mov	r0, r4
 218              	.LVL15:
 219              		.loc 1 168 5 view .LVU57
 220 0030 B847     		blx	r7
 221              	.LVL16:
 169:Service/Srv_Flow.c ****     SrvDataHub.get_attitude(&time, &pitch, &roll, &yaw, NULL, NULL, NULL, NULL, NULL);
 222              		.loc 1 169 5 is_stmt 1 view .LVU58
 223              		.loc 1 169 15 is_stmt 0 view .LVU59
 224 0032 766C     		ldr	r6, [r6, #68]
 225              		.loc 1 169 5 view .LVU60
 226 0034 0494     		str	r4, [sp, #16]
 227 0036 0394     		str	r4, [sp, #12]
 228 0038 0294     		str	r4, [sp, #8]
 229 003a 0194     		str	r4, [sp, #4]
 230 003c 0094     		str	r4, [sp]
 231 003e 08AB     		add	r3, sp, #32
 232 0040 09AA     		add	r2, sp, #36
 233 0042 0AA9     		add	r1, sp, #40
 234 0044 0BA8     		add	r0, sp, #44
 235 0046 B047     		blx	r6
 236              	.LVL17:
 170:Service/Srv_Flow.c ****     pitch = DEG_2_RAD(pitch);
 237              		.loc 1 170 5 is_stmt 1 view .LVU61
 238              		.loc 1 170 13 is_stmt 0 view .LVU62
 239 0048 DFED6C7A 		vldr.32	s15, .L14+12
 240 004c 9DED0A7A 		vldr.32	s14, [sp, #40]
 241 0050 C7EE279A 		vdiv.f32	s19, s14, s15
 242              		.loc 1 170 11 view .LVU63
 243 0054 CDED0A9A 		vstr.32	s19, [sp, #40]
 171:Service/Srv_Flow.c ****     roll = DEG_2_RAD(roll);
 244              		.loc 1 171 5 is_stmt 1 view .LVU64
 245              		.loc 1 171 12 is_stmt 0 view .LVU65
 246 0058 DDED096A 		vldr.32	s13, [sp, #36]
 247 005c 86EEA77A 		vdiv.f32	s14, s13, s15
 248              		.loc 1 171 10 view .LVU66
 249 0060 8DED097A 		vstr.32	s14, [sp, #36]
 172:Service/Srv_Flow.c ****     yaw = DEG_2_RAD(yaw);
 250              		.loc 1 172 5 is_stmt 1 view .LVU67
 251              		.loc 1 172 11 is_stmt 0 view .LVU68
 252 0064 9DED086A 		vldr.32	s12, [sp, #32]
 253 0068 C6EE276A 		vdiv.f32	s13, s12, s15
 254              		.loc 1 172 9 view .LVU69
 255 006c CDED086A 		vstr.32	s13, [sp, #32]
 173:Service/Srv_Flow.c **** 
 174:Service/Srv_Flow.c ****     FlowMonitor.time_stamp = time_stamp;
 256              		.loc 1 174 5 is_stmt 1 view .LVU70
 257              		.loc 1 174 28 is_stmt 0 view .LVU71
 258 0070 634C     		ldr	r4, .L14+16
 259 0072 E560     		str	r5, [r4, #12]
 175:Service/Srv_Flow.c **** 
 176:Service/Srv_Flow.c ****     /* simple low pass filter */
 177:Service/Srv_Flow.c ****     FlowMonitor.flt_x_i += (raw_x - FlowMonitor.flt_x_i) * FLOW_3901U_POSFILT_GAIN;
 260              		.loc 1 177 5 is_stmt 1 view .LVU72
ARM GAS  C:\Users\8bit\AppData\Local\Temp\ccsnJ8W1.s 			page 9


 261              		.loc 1 177 25 is_stmt 0 view .LVU73
 262 0074 D4ED057A 		vldr.32	s15, [r4, #20]
 263              		.loc 1 177 35 view .LVU74
 264 0078 F8EEE88A 		vcvt.f32.s32	s17, s17
 265 007c 78EEE78A 		vsub.f32	s17, s17, s15
 266              		.loc 1 177 58 view .LVU75
 267 0080 DFED606A 		vldr.32	s13, .L14+20
 268 0084 68EEA68A 		vmul.f32	s17, s17, s13
 269              		.loc 1 177 25 view .LVU76
 270 0088 77EEA88A 		vadd.f32	s17, s15, s17
 271 008c C4ED058A 		vstr.32	s17, [r4, #20]
 178:Service/Srv_Flow.c ****     FlowMonitor.flt_y_i += (raw_y - FlowMonitor.flt_y_i) * FLOW_3901U_POSFILT_GAIN;
 272              		.loc 1 178 5 is_stmt 1 view .LVU77
 273              		.loc 1 178 25 is_stmt 0 view .LVU78
 274 0090 D4ED067A 		vldr.32	s15, [r4, #24]
 275              		.loc 1 178 35 view .LVU79
 276 0094 B8EEC88A 		vcvt.f32.s32	s16, s16
 277 0098 38EE678A 		vsub.f32	s16, s16, s15
 278              		.loc 1 178 58 view .LVU80
 279 009c 28EE268A 		vmul.f32	s16, s16, s13
 280              		.loc 1 178 25 view .LVU81
 281 00a0 37EE888A 		vadd.f32	s16, s15, s16
 282 00a4 84ED068A 		vstr.32	s16, [r4, #24]
 179:Service/Srv_Flow.c **** 
 180:Service/Srv_Flow.c ****     /* get attitude offset */
 181:Service/Srv_Flow.c ****     FlowMonitor.att_x_bias = (FLOW_3901U_ATTOFFSET_GAIN * tan(roll)  - FlowMonitor.att_x_bias) * FL
 283              		.loc 1 181 5 is_stmt 1 view .LVU82
 284              		.loc 1 181 59 is_stmt 0 view .LVU83
 285 00a8 17EE100A 		vmov	r0, s14
 286 00ac FFF7FEFF 		bl	__aeabi_f2d
 287              	.LVL18:
 288 00b0 41EC100B 		vmov	d0, r0, r1
 289 00b4 FFF7FEFF 		bl	tan
 290              	.LVL19:
 291 00b8 51EC100B 		vmov	r0, r1, d0
 292              		.loc 1 181 57 view .LVU84
 293 00bc 0022     		movs	r2, #0
 294 00be 524B     		ldr	r3, .L14+24
 295 00c0 FFF7FEFF 		bl	__aeabi_dmul
 296              	.LVL20:
 297 00c4 0646     		mov	r6, r0
 298 00c6 0F46     		mov	r7, r1
 299              		.loc 1 181 83 view .LVU85
 300 00c8 206A     		ldr	r0, [r4, #32]	@ float
 301 00ca FFF7FEFF 		bl	__aeabi_f2d
 302              	.LVL21:
 303 00ce 0246     		mov	r2, r0
 304 00d0 0B46     		mov	r3, r1
 305              		.loc 1 181 70 view .LVU86
 306 00d2 3046     		mov	r0, r6
 307 00d4 3946     		mov	r1, r7
 308 00d6 FFF7FEFF 		bl	__aeabi_dsub
 309              	.LVL22:
 310              		.loc 1 181 96 view .LVU87
 311 00da 45A3     		adr	r3, .L14
 312 00dc D3E90023 		ldrd	r2, [r3]
 313 00e0 FFF7FEFF 		bl	__aeabi_dmul
ARM GAS  C:\Users\8bit\AppData\Local\Temp\ccsnJ8W1.s 			page 10


 314              	.LVL23:
 315 00e4 FFF7FEFF 		bl	__aeabi_d2f
 316              	.LVL24:
 317 00e8 09EE100A 		vmov	s18, r0
 318              		.loc 1 181 28 view .LVU88
 319 00ec 2062     		str	r0, [r4, #32]	@ float
 182:Service/Srv_Flow.c ****     FlowMonitor.att_y_bias = (FLOW_3901U_ATTOFFSET_GAIN * tan(pitch) - FlowMonitor.att_y_bias) * FL
 320              		.loc 1 182 5 is_stmt 1 view .LVU89
 321              		.loc 1 182 59 is_stmt 0 view .LVU90
 322 00ee 19EE900A 		vmov	r0, s19
 323 00f2 FFF7FEFF 		bl	__aeabi_f2d
 324              	.LVL25:
 325 00f6 41EC100B 		vmov	d0, r0, r1
 326 00fa FFF7FEFF 		bl	tan
 327              	.LVL26:
 328 00fe 51EC100B 		vmov	r0, r1, d0
 329              		.loc 1 182 57 view .LVU91
 330 0102 0022     		movs	r2, #0
 331 0104 404B     		ldr	r3, .L14+24
 332 0106 FFF7FEFF 		bl	__aeabi_dmul
 333              	.LVL27:
 334 010a 0646     		mov	r6, r0
 335 010c 0F46     		mov	r7, r1
 336              		.loc 1 182 83 view .LVU92
 337 010e 606A     		ldr	r0, [r4, #36]	@ float
 338 0110 FFF7FEFF 		bl	__aeabi_f2d
 339              	.LVL28:
 340 0114 0246     		mov	r2, r0
 341 0116 0B46     		mov	r3, r1
 342              		.loc 1 182 70 view .LVU93
 343 0118 3046     		mov	r0, r6
 344 011a 3946     		mov	r1, r7
 345 011c FFF7FEFF 		bl	__aeabi_dsub
 346              	.LVL29:
 347              		.loc 1 182 96 view .LVU94
 348 0120 33A3     		adr	r3, .L14
 349 0122 D3E90023 		ldrd	r2, [r3]
 350 0126 FFF7FEFF 		bl	__aeabi_dmul
 351              	.LVL30:
 352 012a FFF7FEFF 		bl	__aeabi_d2f
 353              	.LVL31:
 354 012e 07EE900A 		vmov	s15, r0
 355              		.loc 1 182 28 view .LVU95
 356 0132 6062     		str	r0, [r4, #36]	@ float
 183:Service/Srv_Flow.c **** 
 184:Service/Srv_Flow.c ****     FlowMonitor.out_x = FlowMonitor.flt_x_i - FlowMonitor.att_x_bias;
 357              		.loc 1 184 5 is_stmt 1 view .LVU96
 358              		.loc 1 184 45 is_stmt 0 view .LVU97
 359 0134 78EEC98A 		vsub.f32	s17, s17, s18
 360              		.loc 1 184 23 view .LVU98
 361 0138 C4ED0E8A 		vstr.32	s17, [r4, #56]
 185:Service/Srv_Flow.c ****     FlowMonitor.out_y = FlowMonitor.flt_y_i - FlowMonitor.att_y_bias;
 362              		.loc 1 185 5 is_stmt 1 view .LVU99
 363              		.loc 1 185 45 is_stmt 0 view .LVU100
 364 013c 78EE677A 		vsub.f32	s15, s16, s15
 365              		.loc 1 185 23 view .LVU101
 366 0140 C4ED0F7A 		vstr.32	s15, [r4, #60]
ARM GAS  C:\Users\8bit\AppData\Local\Temp\ccsnJ8W1.s 			page 11


 186:Service/Srv_Flow.c **** 
 187:Service/Srv_Flow.c ****     /* comput velocity */
 188:Service/Srv_Flow.c ****     if (FlowMonitor.lst_time_stamp)
 367              		.loc 1 188 5 is_stmt 1 view .LVU102
 368              		.loc 1 188 20 is_stmt 0 view .LVU103
 369 0144 E36A     		ldr	r3, [r4, #44]
 370              		.loc 1 188 8 view .LVU104
 371 0146 53B3     		cbz	r3, .L12
 189:Service/Srv_Flow.c ****     {
 190:Service/Srv_Flow.c ****         dt = (time_stamp - FlowMonitor.lst_time_stamp) / 1000.0f;
 372              		.loc 1 190 9 is_stmt 1 view .LVU105
 373              		.loc 1 190 26 is_stmt 0 view .LVU106
 374 0148 EB1A     		subs	r3, r5, r3
 375              		.loc 1 190 56 view .LVU107
 376 014a 07EE103A 		vmov	s14, r3	@ int
 377 014e B8EE477A 		vcvt.f32.u32	s14, s14
 378              		.loc 1 190 12 view .LVU108
 379 0152 DFED2E6A 		vldr.32	s13, .L14+28
 380 0156 C7EE265A 		vdiv.f32	s11, s14, s13
 381              	.LVL32:
 191:Service/Srv_Flow.c ****         pos_x_diff = (FlowMonitor.out_x - FlowMonitor.lst_out_x) / dt;
 382              		.loc 1 191 9 is_stmt 1 view .LVU109
 383              		.loc 1 191 54 is_stmt 0 view .LVU110
 384 015a 94ED0C7A 		vldr.32	s14, [r4, #48]
 385              		.loc 1 191 41 view .LVU111
 386 015e 38EEC77A 		vsub.f32	s14, s17, s14
 387              		.loc 1 191 20 view .LVU112
 388 0162 C7EE256A 		vdiv.f32	s13, s14, s11
 389              	.LVL33:
 192:Service/Srv_Flow.c ****         pos_y_diff = (FlowMonitor.out_y - FlowMonitor.lst_out_y) / dt;
 390              		.loc 1 192 9 is_stmt 1 view .LVU113
 391              		.loc 1 192 54 is_stmt 0 view .LVU114
 392 0166 94ED0D6A 		vldr.32	s12, [r4, #52]
 393              		.loc 1 192 41 view .LVU115
 394 016a 37EEC66A 		vsub.f32	s12, s15, s12
 395              		.loc 1 192 20 view .LVU116
 396 016e 86EE257A 		vdiv.f32	s14, s12, s11
 397              	.LVL34:
 193:Service/Srv_Flow.c **** 
 194:Service/Srv_Flow.c ****         FlowMonitor.x_v += (pos_x_diff - FlowMonitor.x_v) * 0.1f;
 398              		.loc 1 194 9 is_stmt 1 view .LVU117
 399              		.loc 1 194 25 is_stmt 0 view .LVU118
 400 0172 94ED106A 		vldr.32	s12, [r4, #64]
 401              		.loc 1 194 40 view .LVU119
 402 0176 76EEC66A 		vsub.f32	s13, s13, s12
 403              	.LVL35:
 404              		.loc 1 194 59 view .LVU120
 405 017a DFED255A 		vldr.32	s11, .L14+32
 406              	.LVL36:
 407              		.loc 1 194 59 view .LVU121
 408 017e 66EEA56A 		vmul.f32	s13, s13, s11
 409              		.loc 1 194 25 view .LVU122
 410 0182 76EE266A 		vadd.f32	s13, s12, s13
 411 0186 C4ED106A 		vstr.32	s13, [r4, #64]
 195:Service/Srv_Flow.c ****         FlowMonitor.y_v += (pos_y_diff - FlowMonitor.y_v) * 0.1f;
 412              		.loc 1 195 9 is_stmt 1 view .LVU123
 413              		.loc 1 195 25 is_stmt 0 view .LVU124
ARM GAS  C:\Users\8bit\AppData\Local\Temp\ccsnJ8W1.s 			page 12


 414 018a D4ED116A 		vldr.32	s13, [r4, #68]
 415              		.loc 1 195 40 view .LVU125
 416 018e 37EE667A 		vsub.f32	s14, s14, s13
 417              	.LVL37:
 418              		.loc 1 195 59 view .LVU126
 419 0192 27EE257A 		vmul.f32	s14, s14, s11
 420              		.loc 1 195 25 view .LVU127
 421 0196 36EE877A 		vadd.f32	s14, s13, s14
 422 019a 84ED117A 		vstr.32	s14, [r4, #68]
 423              	.LVL38:
 424              	.L12:
 196:Service/Srv_Flow.c ****     }
 197:Service/Srv_Flow.c **** 
 198:Service/Srv_Flow.c ****     /* set history data */
 199:Service/Srv_Flow.c ****     FlowMonitor.lst_time_stamp = time_stamp;
 425              		.loc 1 199 5 is_stmt 1 view .LVU128
 426              		.loc 1 199 32 is_stmt 0 view .LVU129
 427 019e 184B     		ldr	r3, .L14+16
 428 01a0 DD62     		str	r5, [r3, #44]
 200:Service/Srv_Flow.c ****     FlowMonitor.lst_out_x = FlowMonitor.out_x;
 429              		.loc 1 200 5 is_stmt 1 view .LVU130
 430              		.loc 1 200 27 is_stmt 0 view .LVU131
 431 01a2 C3ED0C8A 		vstr.32	s17, [r3, #48]
 201:Service/Srv_Flow.c ****     FlowMonitor.lst_out_y = FlowMonitor.out_y;
 432              		.loc 1 201 5 is_stmt 1 view .LVU132
 433              		.loc 1 201 27 is_stmt 0 view .LVU133
 434 01a6 C3ED0D7A 		vstr.32	s15, [r3, #52]
 202:Service/Srv_Flow.c **** 
 203:Service/Srv_Flow.c ****     /* convert unit */
 204:Service/Srv_Flow.c ****     cpi = (alt / 11.914f) * 2.54f;
 435              		.loc 1 204 5 is_stmt 1 view .LVU134
 436              		.loc 1 204 16 is_stmt 0 view .LVU135
 437 01aa 9DED076A 		vldr.32	s12, [sp, #28]
 438 01ae DFED196A 		vldr.32	s13, .L14+36
 439 01b2 86EE267A 		vdiv.f32	s14, s12, s13
 440              		.loc 1 204 9 view .LVU136
 441 01b6 DFED186A 		vldr.32	s13, .L14+40
 442 01ba 27EE267A 		vmul.f32	s14, s14, s13
 443              	.LVL39:
 205:Service/Srv_Flow.c ****     FlowMonitor.out_x *= cpi;
 444              		.loc 1 205 5 is_stmt 1 view .LVU137
 445              		.loc 1 205 23 is_stmt 0 view .LVU138
 446 01be 68EE878A 		vmul.f32	s17, s17, s14
 447 01c2 C3ED0E8A 		vstr.32	s17, [r3, #56]
 206:Service/Srv_Flow.c ****     FlowMonitor.out_y *= cpi;
 448              		.loc 1 206 5 is_stmt 1 view .LVU139
 449              		.loc 1 206 23 is_stmt 0 view .LVU140
 450 01c6 67EE877A 		vmul.f32	s15, s15, s14
 451 01ca C3ED0F7A 		vstr.32	s15, [r3, #60]
 207:Service/Srv_Flow.c ****     FlowMonitor.x_v *= cpi;
 452              		.loc 1 207 5 is_stmt 1 view .LVU141
 453              		.loc 1 207 21 is_stmt 0 view .LVU142
 454 01ce D3ED107A 		vldr.32	s15, [r3, #64]
 455 01d2 67EE877A 		vmul.f32	s15, s15, s14
 456 01d6 C3ED107A 		vstr.32	s15, [r3, #64]
 208:Service/Srv_Flow.c ****     FlowMonitor.y_v *= cpi;
 457              		.loc 1 208 5 is_stmt 1 view .LVU143
ARM GAS  C:\Users\8bit\AppData\Local\Temp\ccsnJ8W1.s 			page 13


 458              		.loc 1 208 21 is_stmt 0 view .LVU144
 459 01da D3ED117A 		vldr.32	s15, [r3, #68]
 460 01de 27EE877A 		vmul.f32	s14, s15, s14
 461              	.LVL40:
 462              		.loc 1 208 21 view .LVU145
 463 01e2 83ED117A 		vstr.32	s14, [r3, #68]
 209:Service/Srv_Flow.c **** }
 464              		.loc 1 209 1 view .LVU146
 465 01e6 0DB0     		add	sp, sp, #52
 466              	.LCFI4:
 467              		.cfi_def_cfa_offset 36
 468              		@ sp needed
 469 01e8 BDEC048B 		vldm	sp!, {d8-d9}
 470              	.LCFI5:
 471              		.cfi_restore 82
 472              		.cfi_restore 83
 473              		.cfi_restore 80
 474              		.cfi_restore 81
 475              		.cfi_def_cfa_offset 20
 476 01ec F0BD     		pop	{r4, r5, r6, r7, pc}
 477              	.LVL41:
 478              	.L15:
 479              		.loc 1 209 1 view .LVU147
 480 01ee 00BF     		.align	3
 481              	.L14:
 482 01f0 000000A0 		.word	-1610612736
 483 01f4 9999C93F 		.word	1070176665
 484 01f8 00000000 		.word	SrvDataHub
 485 01fc E12E6542 		.word	1113927393
 486 0200 00000000 		.word	.LANCHOR0
 487 0204 CDCC4C3E 		.word	1045220557
 488 0208 00C08240 		.word	1082310656
 489 020c 00007A44 		.word	1148846080
 490 0210 CDCCCC3D 		.word	1036831949
 491 0214 BE9F3E41 		.word	1094623166
 492 0218 5C8F2240 		.word	1076006748
 493              		.cfi_endproc
 494              	.LFE152:
 496              		.section	.text.SrvFlow_Get_Data,"ax",%progbits
 497              		.align	1
 498              		.syntax unified
 499              		.thumb
 500              		.thumb_func
 502              	SrvFlow_Get_Data:
 503              	.LVL42:
 504              	.LFB150:
  82:Service/Srv_Flow.c ****     uint32_t time_stamp = 0;
 505              		.loc 1 82 1 is_stmt 1 view -0
 506              		.cfi_startproc
 507              		@ args = 0, pretend = 0, frame = 8
 508              		@ frame_needed = 0, uses_anonymous_args = 0
  82:Service/Srv_Flow.c ****     uint32_t time_stamp = 0;
 509              		.loc 1 82 1 is_stmt 0 view .LVU149
 510 0000 10B5     		push	{r4, lr}
 511              	.LCFI6:
 512              		.cfi_def_cfa_offset 8
 513              		.cfi_offset 4, -8
ARM GAS  C:\Users\8bit\AppData\Local\Temp\ccsnJ8W1.s 			page 14


 514              		.cfi_offset 14, -4
 515 0002 84B0     		sub	sp, sp, #16
 516              	.LCFI7:
 517              		.cfi_def_cfa_offset 24
  83:Service/Srv_Flow.c ****     int16_t raw_x = 0;
 518              		.loc 1 83 5 is_stmt 1 view .LVU150
  83:Service/Srv_Flow.c ****     int16_t raw_x = 0;
 519              		.loc 1 83 14 is_stmt 0 view .LVU151
 520 0004 0023     		movs	r3, #0
 521 0006 0393     		str	r3, [sp, #12]
  84:Service/Srv_Flow.c ****     int16_t raw_y = 0;
 522              		.loc 1 84 5 is_stmt 1 view .LVU152
  84:Service/Srv_Flow.c ****     int16_t raw_y = 0;
 523              		.loc 1 84 13 is_stmt 0 view .LVU153
 524 0008 ADF80A30 		strh	r3, [sp, #10]	@ movhi
  85:Service/Srv_Flow.c **** 
 525              		.loc 1 85 5 is_stmt 1 view .LVU154
  85:Service/Srv_Flow.c **** 
 526              		.loc 1 85 13 is_stmt 0 view .LVU155
 527 000c ADF80830 		strh	r3, [sp, #8]	@ movhi
  87:Service/Srv_Flow.c ****     {
 528              		.loc 1 87 5 is_stmt 1 view .LVU156
  87:Service/Srv_Flow.c ****     {
 529              		.loc 1 87 8 is_stmt 0 view .LVU157
 530 0010 A8B1     		cbz	r0, .L17
  89:Service/Srv_Flow.c ****         {
 531              		.loc 1 89 9 is_stmt 1 view .LVU158
  89:Service/Srv_Flow.c ****         {
 532              		.loc 1 89 37 is_stmt 0 view .LVU159
 533 0012 0C4B     		ldr	r3, .L19
 534 0014 1B78     		ldrb	r3, [r3]	@ zero_extendqisi2
  89:Service/Srv_Flow.c ****         {
 535              		.loc 1 89 9 view .LVU160
 536 0016 012B     		cmp	r3, #1
 537 0018 11D1     		bne	.L17
  92:Service/Srv_Flow.c ****                                     &time_stamp, &raw_x, &raw_y, NULL);
 538              		.loc 1 92 17 is_stmt 1 view .LVU161
 539 001a 0A48     		ldr	r0, .L19
 540              	.LVL43:
  92:Service/Srv_Flow.c ****                                     &time_stamp, &raw_x, &raw_y, NULL);
 541              		.loc 1 92 17 is_stmt 0 view .LVU162
 542 001c 4368     		ldr	r3, [r0, #4]
  92:Service/Srv_Flow.c ****                                     &time_stamp, &raw_x, &raw_y, NULL);
 543              		.loc 1 92 53 view .LVU163
 544 001e 9C68     		ldr	r4, [r3, #8]
  92:Service/Srv_Flow.c ****                                     &time_stamp, &raw_x, &raw_y, NULL);
 545              		.loc 1 92 17 view .LVU164
 546 0020 0023     		movs	r3, #0
 547 0022 0093     		str	r3, [sp]
 548 0024 02AB     		add	r3, sp, #8
 549 0026 0DF10A02 		add	r2, sp, #10
 550 002a 03A9     		add	r1, sp, #12
 551 002c 8068     		ldr	r0, [r0, #8]
 552 002e A047     		blx	r4
 553              	.LVL44:
  94:Service/Srv_Flow.c ****                 break;
 554              		.loc 1 94 17 is_stmt 1 view .LVU165
ARM GAS  C:\Users\8bit\AppData\Local\Temp\ccsnJ8W1.s 			page 15


 555 0030 BDF90820 		ldrsh	r2, [sp, #8]
 556 0034 BDF90A10 		ldrsh	r1, [sp, #10]
 557 0038 0398     		ldr	r0, [sp, #12]
 558 003a FFF7FEFF 		bl	SrvFlow_3901U_RawComput
 559              	.LVL45:
  95:Service/Srv_Flow.c **** 
 560              		.loc 1 95 17 view .LVU166
 561              	.L17:
 102:Service/Srv_Flow.c **** 
 562              		.loc 1 102 1 is_stmt 0 view .LVU167
 563 003e 0020     		movs	r0, #0
 564 0040 04B0     		add	sp, sp, #16
 565              	.LCFI8:
 566              		.cfi_def_cfa_offset 8
 567              		@ sp needed
 568 0042 10BD     		pop	{r4, pc}
 569              	.L20:
 570              		.align	2
 571              	.L19:
 572 0044 00000000 		.word	.LANCHOR0
 573              		.cfi_endproc
 574              	.LFE150:
 576              		.global	SrvFlow
 577              		.section	.bss.FlowMonitor,"aw",%nobits
 578              		.align	2
 579              		.set	.LANCHOR0,. + 0
 582              	FlowMonitor:
 583 0000 00000000 		.space	72
 583      00000000 
 583      00000000 
 583      00000000 
 583      00000000 
 584              		.section	.data.SrvFlow,"aw"
 585              		.align	2
 588              	SrvFlow:
 589 0000 00000000 		.word	SrvFlow_Init
 590 0004 00000000 		.word	SrvFlow_Sample
 591 0008 00000000 		.word	SrvFlow_Get_Data
 592              		.text
 593              	.Letext0:
 594              		.file 2 "c:\\program files (x86)\\gnu arm embedded toolchain\\10 2021.10\\arm-none-eabi\\include\\
 595              		.file 3 "c:\\program files (x86)\\gnu arm embedded toolchain\\10 2021.10\\arm-none-eabi\\include\\
 596              		.file 4 "c:\\program files (x86)\\gnu arm embedded toolchain\\10 2021.10\\lib\\gcc\\arm-none-eabi\
 597              		.file 5 "System/FreeRTOS/include/portable.h"
 598              		.file 6 "Service/Srv_OsCommon.h"
 599              		.file 7 "Service/Srv_Flow.h"
 600              		.file 8 "HW_Lib/AT32F435/drivers/inc/at32f435_437_tmr.h"
 601              		.file 9 "Device/Dev_Dshot.h"
 602              		.file 10 "common/Error_Log/../../common/gen_physic_def/imu_data.h"
 603              		.file 11 "Service/control_data.h"
 604              		.file 12 "Service/Srv_DataHub.h"
 605              		.file 13 "Device/Dev_Flow_3901U.h"
 606              		.file 14 "System/FreeRTOS/FreeRTOSConfig.h"
 607              		.file 15 "c:\\program files (x86)\\gnu arm embedded toolchain\\10 2021.10\\arm-none-eabi\\include\
ARM GAS  C:\Users\8bit\AppData\Local\Temp\ccsnJ8W1.s 			page 16

