ARM GAS  C:\Users\8bit\AppData\Local\Temp\ccoxdEfV.s 			page 1


   1              		.cpu cortex-m4
   2              		.arch armv7e-m
   3              		.fpu fpv4-sp-d16
   4              		.eabi_attribute 27, 1
   5              		.eabi_attribute 28, 1
   6              		.eabi_attribute 20, 1
   7              		.eabi_attribute 21, 1
   8              		.eabi_attribute 23, 3
   9              		.eabi_attribute 24, 1
  10              		.eabi_attribute 25, 1
  11              		.eabi_attribute 26, 1
  12              		.eabi_attribute 30, 1
  13              		.eabi_attribute 34, 1
  14              		.eabi_attribute 18, 4
  15              		.file	"Srv_SensorMonitor.c"
  16              		.text
  17              	.Ltext0:
  18              		.cfi_sections	.debug_frame
  19              		.section	.text.SrvSensorMonitor_Get_FreqVal,"ax",%progbits
  20              		.align	1
  21              		.syntax unified
  22              		.thumb
  23              		.thumb_func
  25              	SrvSensorMonitor_Get_FreqVal:
  26              	.LVL0:
  27              	.LFB146:
  28              		.file 1 "Service/Srv_SensorMonitor.c"
   1:Service/Srv_SensorMonitor.c **** #include "Srv_SensorMonitor.h"
   2:Service/Srv_SensorMonitor.c **** #include "Bsp_Timer.h"
   3:Service/Srv_SensorMonitor.c **** #include "Srv_OsCommon.h"
   4:Service/Srv_SensorMonitor.c **** #include "debug_util.h"
   5:Service/Srv_SensorMonitor.c **** #include "HW_Def.h"
   6:Service/Srv_SensorMonitor.c **** 
   7:Service/Srv_SensorMonitor.c **** /* 
   8:Service/Srv_SensorMonitor.c ****  * for sensor statistic function a timer is essenial
   9:Service/Srv_SensorMonitor.c ****  */
  10:Service/Srv_SensorMonitor.c **** #define SrvSensorMonitor_GetSampleInterval(period) (1000 / period)
  11:Service/Srv_SensorMonitor.c **** 
  12:Service/Srv_SensorMonitor.c **** #define FLOW_TYPE Flow_3901U
  13:Service/Srv_SensorMonitor.c **** 
  14:Service/Srv_SensorMonitor.c **** #define MONITOR_TAG "[ SENSOR MONITOR INFO ] "
  15:Service/Srv_SensorMonitor.c **** #define MONITOR_INFO(fmt, ...) Debug_Print(&DebugPort, MONITOR_TAG, fmt, ##__VA_ARGS__)
  16:Service/Srv_SensorMonitor.c **** 
  17:Service/Srv_SensorMonitor.c **** /* internal function */
  18:Service/Srv_SensorMonitor.c **** static uint32_t SrvSensorMonitor_Get_FreqVal(uint8_t freq_enum);
  19:Service/Srv_SensorMonitor.c **** 
  20:Service/Srv_SensorMonitor.c **** static bool SrvSensorMonitor_IMU_Init(SrvSensorMonitorObj_TypeDef *obj);
  21:Service/Srv_SensorMonitor.c **** static bool SrvSensorMonitor_Mag_Init(void);
  22:Service/Srv_SensorMonitor.c **** static bool SrvSensorMonitor_Baro_Init(SrvSensorMonitorObj_TypeDef *obj);
  23:Service/Srv_SensorMonitor.c **** static bool SrvSensorMonitor_Flow_Init(void);
  24:Service/Srv_SensorMonitor.c **** 
  25:Service/Srv_SensorMonitor.c **** /* external function */
  26:Service/Srv_SensorMonitor.c **** static bool SrvSensorMonitor_Init(SrvSensorMonitorObj_TypeDef *obj);
  27:Service/Srv_SensorMonitor.c **** static bool SrvSensorMonitor_SampleCTL(SrvSensorMonitorObj_TypeDef *obj);
  28:Service/Srv_SensorMonitor.c **** static SrvIMU_UnionData_TypeDef SrvSensorMonitor_Get_IMUData(SrvSensorMonitorObj_TypeDef *obj);
  29:Service/Srv_SensorMonitor.c **** static GenCalib_State_TypeList SrvSensorMonitor_Set_Module_Calib(SrvSensorMonitorObj_TypeDef *obj, 
  30:Service/Srv_SensorMonitor.c **** static GenCalib_State_TypeList SrvSensorMonitor_Get_Module_Calib(SrvSensorMonitorObj_TypeDef *obj, 
ARM GAS  C:\Users\8bit\AppData\Local\Temp\ccoxdEfV.s 			page 2


  31:Service/Srv_SensorMonitor.c **** static SrvBaro_UnionData_TypeDef SrvSensorMonitor_Get_BaroData(SrvSensorMonitorObj_TypeDef *obj);
  32:Service/Srv_SensorMonitor.c **** static bool SrvSensorMonitor_IMU_Get_Num(SrvSensorMonitorObj_TypeDef *obj, uint8_t *num);
  33:Service/Srv_SensorMonitor.c **** static bool SrvSensorMonitor_Get_IMU_Range(SrvSensorMonitorObj_TypeDef *obj, SrvIMU_Module_Type typ
  34:Service/Srv_SensorMonitor.c **** 
  35:Service/Srv_SensorMonitor.c **** SrvSensorMonitor_TypeDef SrvSensorMonitor = {
  36:Service/Srv_SensorMonitor.c ****     .init = SrvSensorMonitor_Init,
  37:Service/Srv_SensorMonitor.c ****     .sample_ctl = SrvSensorMonitor_SampleCTL,
  38:Service/Srv_SensorMonitor.c ****     .get_imu_num = SrvSensorMonitor_IMU_Get_Num,
  39:Service/Srv_SensorMonitor.c ****     .get_imu_range = SrvSensorMonitor_Get_IMU_Range,
  40:Service/Srv_SensorMonitor.c ****     .get_imu_data = SrvSensorMonitor_Get_IMUData,
  41:Service/Srv_SensorMonitor.c ****     .get_baro_data = SrvSensorMonitor_Get_BaroData,
  42:Service/Srv_SensorMonitor.c ****     .set_calib = SrvSensorMonitor_Set_Module_Calib,
  43:Service/Srv_SensorMonitor.c ****     .get_calib = SrvSensorMonitor_Get_Module_Calib,
  44:Service/Srv_SensorMonitor.c **** };
  45:Service/Srv_SensorMonitor.c **** 
  46:Service/Srv_SensorMonitor.c **** static bool SrvSensorMonitor_Init(SrvSensorMonitorObj_TypeDef *obj)
  47:Service/Srv_SensorMonitor.c **** {
  48:Service/Srv_SensorMonitor.c ****     uint8_t enable_sensor_num = 0;
  49:Service/Srv_SensorMonitor.c ****     uint16_t list_index = 0;
  50:Service/Srv_SensorMonitor.c **** 
  51:Service/Srv_SensorMonitor.c ****     if (obj)
  52:Service/Srv_SensorMonitor.c ****     {
  53:Service/Srv_SensorMonitor.c ****         enable_sensor_num = Get_OnSet_Bit_Num(obj->enabled_reg.val);
  54:Service/Srv_SensorMonitor.c ****         
  55:Service/Srv_SensorMonitor.c ****         obj->statistic_list = SrvOsCommon.malloc(enable_sensor_num * sizeof(SrvSensorMonitor_Statis
  56:Service/Srv_SensorMonitor.c ****         if (obj->statistic_list == NULL)
  57:Service/Srv_SensorMonitor.c ****         {
  58:Service/Srv_SensorMonitor.c ****             SrvOsCommon.free(obj->statistic_list);
  59:Service/Srv_SensorMonitor.c ****             return false;
  60:Service/Srv_SensorMonitor.c ****         }
  61:Service/Srv_SensorMonitor.c **** 
  62:Service/Srv_SensorMonitor.c ****         /* enabled on imu must be essential */
  63:Service/Srv_SensorMonitor.c ****         if (obj->enabled_reg.bit.imu && SrvSensorMonitor_IMU_Init(obj))
  64:Service/Srv_SensorMonitor.c ****         {
  65:Service/Srv_SensorMonitor.c ****             if (list_index > enable_sensor_num)
  66:Service/Srv_SensorMonitor.c ****                 return false;
  67:Service/Srv_SensorMonitor.c **** 
  68:Service/Srv_SensorMonitor.c ****             obj->init_state_reg.bit.imu = true;
  69:Service/Srv_SensorMonitor.c ****             obj->statistic_imu = &obj->statistic_list[list_index];
  70:Service/Srv_SensorMonitor.c ****             obj->statistic_imu->set_period = SrvSensorMonitor_Get_FreqVal(obj->freq_reg.bit.imu);
  71:Service/Srv_SensorMonitor.c ****             obj->statistic_imu->is_calid = Calib_None; 
  72:Service/Srv_SensorMonitor.c ****             list_index ++;
  73:Service/Srv_SensorMonitor.c ****         }
  74:Service/Srv_SensorMonitor.c ****         else
  75:Service/Srv_SensorMonitor.c ****         {
  76:Service/Srv_SensorMonitor.c ****             if (obj->enabled_reg.bit.imu)
  77:Service/Srv_SensorMonitor.c ****                 obj->init_state_reg.bit.imu = false;
  78:Service/Srv_SensorMonitor.c **** 
  79:Service/Srv_SensorMonitor.c ****             return false;
  80:Service/Srv_SensorMonitor.c ****         }
  81:Service/Srv_SensorMonitor.c **** 
  82:Service/Srv_SensorMonitor.c ****         if (obj->enabled_reg.bit.mag && SrvSensorMonitor_Mag_Init())
  83:Service/Srv_SensorMonitor.c ****         {
  84:Service/Srv_SensorMonitor.c ****             if (list_index > enable_sensor_num)
  85:Service/Srv_SensorMonitor.c ****                 return false;
  86:Service/Srv_SensorMonitor.c **** 
  87:Service/Srv_SensorMonitor.c ****             obj->init_state_reg.bit.mag = true;
ARM GAS  C:\Users\8bit\AppData\Local\Temp\ccoxdEfV.s 			page 3


  88:Service/Srv_SensorMonitor.c ****             obj->statistic_mag = &obj->statistic_list[list_index];
  89:Service/Srv_SensorMonitor.c ****             obj->statistic_mag->set_period = SrvSensorMonitor_Get_FreqVal(obj->freq_reg.bit.mag);
  90:Service/Srv_SensorMonitor.c ****             obj->statistic_mag->is_calid = Calib_None;
  91:Service/Srv_SensorMonitor.c ****             list_index ++;
  92:Service/Srv_SensorMonitor.c ****         }
  93:Service/Srv_SensorMonitor.c ****         else
  94:Service/Srv_SensorMonitor.c ****         {
  95:Service/Srv_SensorMonitor.c ****             obj->statistic_mag->is_calid = Calib_None;
  96:Service/Srv_SensorMonitor.c ****             obj->init_state_reg.bit.mag = false;
  97:Service/Srv_SensorMonitor.c ****         }
  98:Service/Srv_SensorMonitor.c **** 
  99:Service/Srv_SensorMonitor.c ****         if (obj->enabled_reg.bit.baro && SrvSensorMonitor_Baro_Init(obj))
 100:Service/Srv_SensorMonitor.c ****         {
 101:Service/Srv_SensorMonitor.c ****             if (list_index > enable_sensor_num)
 102:Service/Srv_SensorMonitor.c ****                 return false;
 103:Service/Srv_SensorMonitor.c **** 
 104:Service/Srv_SensorMonitor.c ****             obj->init_state_reg.bit.baro = true;
 105:Service/Srv_SensorMonitor.c ****             obj->statistic_baro = &obj->statistic_list[list_index];
 106:Service/Srv_SensorMonitor.c ****             obj->statistic_baro->set_period = SrvSensorMonitor_Get_FreqVal(obj->freq_reg.bit.baro);
 107:Service/Srv_SensorMonitor.c ****             obj->statistic_baro->is_calid = Calib_None;
 108:Service/Srv_SensorMonitor.c ****             list_index ++;
 109:Service/Srv_SensorMonitor.c ****         }
 110:Service/Srv_SensorMonitor.c ****         else
 111:Service/Srv_SensorMonitor.c ****         {
 112:Service/Srv_SensorMonitor.c ****             obj->statistic_baro->is_calid = Calib_None;
 113:Service/Srv_SensorMonitor.c ****             obj->init_state_reg.bit.baro = false;
 114:Service/Srv_SensorMonitor.c ****         }
 115:Service/Srv_SensorMonitor.c **** 
 116:Service/Srv_SensorMonitor.c ****         if (obj->enabled_reg.bit.flow && SrvSensorMonitor_Flow_Init())
 117:Service/Srv_SensorMonitor.c ****         {
 118:Service/Srv_SensorMonitor.c ****             if (list_index > enable_sensor_num)
 119:Service/Srv_SensorMonitor.c ****                 return false;
 120:Service/Srv_SensorMonitor.c **** 
 121:Service/Srv_SensorMonitor.c ****             obj->init_state_reg.bit.flow = true;
 122:Service/Srv_SensorMonitor.c ****             obj->statistic_flow = &obj->statistic_list[list_index];
 123:Service/Srv_SensorMonitor.c ****             obj->statistic_flow->set_period = SrvSensorMonitor_Get_FreqVal(obj->freq_reg.bit.flow);
 124:Service/Srv_SensorMonitor.c ****             list_index ++;
 125:Service/Srv_SensorMonitor.c ****         }
 126:Service/Srv_SensorMonitor.c ****         else
 127:Service/Srv_SensorMonitor.c ****         {
 128:Service/Srv_SensorMonitor.c ****             obj->init_state_reg.bit.flow = false;
 129:Service/Srv_SensorMonitor.c ****         }
 130:Service/Srv_SensorMonitor.c **** 
 131:Service/Srv_SensorMonitor.c ****         return true;
 132:Service/Srv_SensorMonitor.c ****     }
 133:Service/Srv_SensorMonitor.c **** 
 134:Service/Srv_SensorMonitor.c ****     return false;
 135:Service/Srv_SensorMonitor.c **** }
 136:Service/Srv_SensorMonitor.c **** 
 137:Service/Srv_SensorMonitor.c **** static uint32_t SrvSensorMonitor_Get_FreqVal(uint8_t freq_enum)
 138:Service/Srv_SensorMonitor.c **** {
  29              		.loc 1 138 1 view -0
  30              		.cfi_startproc
  31              		@ args = 0, pretend = 0, frame = 0
  32              		@ frame_needed = 0, uses_anonymous_args = 0
  33              		@ link register save eliminated.
 139:Service/Srv_SensorMonitor.c ****     switch(freq_enum)
ARM GAS  C:\Users\8bit\AppData\Local\Temp\ccoxdEfV.s 			page 4


  34              		.loc 1 139 5 view .LVU1
  35 0000 0928     		cmp	r0, #9
  36 0002 19D8     		bhi	.L2
  37 0004 DFE800F0 		tbb	[pc, r0]
  38              	.L4:
  39 0008 05       		.byte	(.L13-.L4)/2
  40 0009 1A       		.byte	(.L14-.L4)/2
  41 000a 08       		.byte	(.L11-.L4)/2
  42 000b 0A       		.byte	(.L10-.L4)/2
  43 000c 0C       		.byte	(.L9-.L4)/2
  44 000d 0E       		.byte	(.L8-.L4)/2
  45 000e 10       		.byte	(.L7-.L4)/2
  46 000f 12       		.byte	(.L6-.L4)/2
  47 0010 14       		.byte	(.L5-.L4)/2
  48 0011 16       		.byte	(.L3-.L4)/2
  49              		.p2align 1
  50              	.L13:
  51 0012 4FF47A70 		mov	r0, #1000
  52              	.LVL1:
  53              		.loc 1 139 5 is_stmt 0 view .LVU2
  54 0016 7047     		bx	lr
  55              	.LVL2:
  56              	.L11:
 140:Service/Srv_SensorMonitor.c ****     {
 141:Service/Srv_SensorMonitor.c ****         case SrvSensorMonitor_SampleFreq_1KHz:
 142:Service/Srv_SensorMonitor.c ****             return 1000;
 143:Service/Srv_SensorMonitor.c **** 
 144:Service/Srv_SensorMonitor.c ****         case SrvSensorMonitor_SampleFreq_500Hz:
 145:Service/Srv_SensorMonitor.c ****             return 500;
 146:Service/Srv_SensorMonitor.c ****         
 147:Service/Srv_SensorMonitor.c ****         case SrvSensorMonitor_SampleFreq_250Hz:
 148:Service/Srv_SensorMonitor.c ****             return 250;
  57              		.loc 1 148 13 is_stmt 1 view .LVU3
  58              		.loc 1 148 20 is_stmt 0 view .LVU4
  59 0018 FA20     		movs	r0, #250
  60              	.LVL3:
  61              		.loc 1 148 20 view .LVU5
  62 001a 7047     		bx	lr
  63              	.LVL4:
  64              	.L10:
 149:Service/Srv_SensorMonitor.c **** 
 150:Service/Srv_SensorMonitor.c ****         case SrvSensorMonitor_SampleFreq_200Hz:
 151:Service/Srv_SensorMonitor.c ****             return 200;
  65              		.loc 1 151 13 is_stmt 1 view .LVU6
  66              		.loc 1 151 20 is_stmt 0 view .LVU7
  67 001c C820     		movs	r0, #200
  68              	.LVL5:
  69              		.loc 1 151 20 view .LVU8
  70 001e 7047     		bx	lr
  71              	.LVL6:
  72              	.L9:
 152:Service/Srv_SensorMonitor.c **** 
 153:Service/Srv_SensorMonitor.c ****         case SrvSensorMonitor_SampleFreq_100Hz:
 154:Service/Srv_SensorMonitor.c ****             return 100;
  73              		.loc 1 154 13 is_stmt 1 view .LVU9
  74              		.loc 1 154 20 is_stmt 0 view .LVU10
  75 0020 6420     		movs	r0, #100
ARM GAS  C:\Users\8bit\AppData\Local\Temp\ccoxdEfV.s 			page 5


  76              	.LVL7:
  77              		.loc 1 154 20 view .LVU11
  78 0022 7047     		bx	lr
  79              	.LVL8:
  80              	.L8:
 155:Service/Srv_SensorMonitor.c **** 
 156:Service/Srv_SensorMonitor.c ****         case SrvSensorMonitor_SampleFreq_50Hz:
 157:Service/Srv_SensorMonitor.c ****             return 50;
  81              		.loc 1 157 13 is_stmt 1 view .LVU12
  82              		.loc 1 157 20 is_stmt 0 view .LVU13
  83 0024 3220     		movs	r0, #50
  84              	.LVL9:
  85              		.loc 1 157 20 view .LVU14
  86 0026 7047     		bx	lr
  87              	.LVL10:
  88              	.L7:
 158:Service/Srv_SensorMonitor.c **** 
 159:Service/Srv_SensorMonitor.c ****         case SrvSensorMonitor_SampleFreq_20Hz:
 160:Service/Srv_SensorMonitor.c ****             return 20;
  89              		.loc 1 160 13 is_stmt 1 view .LVU15
  90              		.loc 1 160 20 is_stmt 0 view .LVU16
  91 0028 1420     		movs	r0, #20
  92              	.LVL11:
  93              		.loc 1 160 20 view .LVU17
  94 002a 7047     		bx	lr
  95              	.LVL12:
  96              	.L6:
 161:Service/Srv_SensorMonitor.c ****         
 162:Service/Srv_SensorMonitor.c ****         case SrvSensorMonitor_SampleFreq_10Hz:
 163:Service/Srv_SensorMonitor.c ****             return 10;
  97              		.loc 1 163 13 is_stmt 1 view .LVU18
  98              		.loc 1 163 20 is_stmt 0 view .LVU19
  99 002c 0A20     		movs	r0, #10
 100              	.LVL13:
 101              		.loc 1 163 20 view .LVU20
 102 002e 7047     		bx	lr
 103              	.LVL14:
 104              	.L5:
 164:Service/Srv_SensorMonitor.c **** 
 165:Service/Srv_SensorMonitor.c ****         case SrvSensorMonitor_SampleFreq_5Hz:
 166:Service/Srv_SensorMonitor.c ****             return 5;
 105              		.loc 1 166 13 is_stmt 1 view .LVU21
 106              		.loc 1 166 20 is_stmt 0 view .LVU22
 107 0030 0520     		movs	r0, #5
 108              	.LVL15:
 109              		.loc 1 166 20 view .LVU23
 110 0032 7047     		bx	lr
 111              	.LVL16:
 112              	.L3:
 167:Service/Srv_SensorMonitor.c **** 
 168:Service/Srv_SensorMonitor.c ****         case SrvSensorMonitor_SampleFreq_1Hz:
 169:Service/Srv_SensorMonitor.c ****             return 1;
 113              		.loc 1 169 13 is_stmt 1 view .LVU24
 114              		.loc 1 169 20 is_stmt 0 view .LVU25
 115 0034 0120     		movs	r0, #1
 116              	.LVL17:
 117              		.loc 1 169 20 view .LVU26
ARM GAS  C:\Users\8bit\AppData\Local\Temp\ccoxdEfV.s 			page 6


 118 0036 7047     		bx	lr
 119              	.LVL18:
 120              	.L2:
 170:Service/Srv_SensorMonitor.c **** 
 171:Service/Srv_SensorMonitor.c ****         default:
 172:Service/Srv_SensorMonitor.c ****             return 0;
 121              		.loc 1 172 13 is_stmt 1 view .LVU27
 122              		.loc 1 172 20 is_stmt 0 view .LVU28
 123 0038 0020     		movs	r0, #0
 124              	.LVL19:
 125              		.loc 1 172 20 view .LVU29
 126 003a 7047     		bx	lr
 127              	.LVL20:
 128              	.L14:
 145:Service/Srv_SensorMonitor.c ****         
 129              		.loc 1 145 20 view .LVU30
 130 003c 4FF4FA70 		mov	r0, #500
 131              	.LVL21:
 173:Service/Srv_SensorMonitor.c ****     }
 174:Service/Srv_SensorMonitor.c **** 
 175:Service/Srv_SensorMonitor.c ****     return 0;
 176:Service/Srv_SensorMonitor.c **** }
 132              		.loc 1 176 1 view .LVU31
 133 0040 7047     		bx	lr
 134              		.cfi_endproc
 135              	.LFE146:
 137              		.section	.text.SrvSensorMonitor_IMU_Get_Num,"ax",%progbits
 138              		.align	1
 139              		.syntax unified
 140              		.thumb
 141              		.thumb_func
 143              	SrvSensorMonitor_IMU_Get_Num:
 144              	.LVL22:
 145              	.LFB150:
 177:Service/Srv_SensorMonitor.c **** 
 178:Service/Srv_SensorMonitor.c **** static uint32_t SrvSensorMonitor_Get_EnableState(SrvSensorMonitorObj_TypeDef *obj)
 179:Service/Srv_SensorMonitor.c **** {
 180:Service/Srv_SensorMonitor.c ****     if (obj)
 181:Service/Srv_SensorMonitor.c ****         return obj->enabled_reg.val;
 182:Service/Srv_SensorMonitor.c **** 
 183:Service/Srv_SensorMonitor.c ****     return 0;
 184:Service/Srv_SensorMonitor.c **** }
 185:Service/Srv_SensorMonitor.c **** 
 186:Service/Srv_SensorMonitor.c **** static uint32_t SrvSensorMonitor_Get_InitState(SrvSensorMonitorObj_TypeDef *obj)
 187:Service/Srv_SensorMonitor.c **** {
 188:Service/Srv_SensorMonitor.c ****     if (obj)
 189:Service/Srv_SensorMonitor.c ****         return obj->init_state_reg.val;
 190:Service/Srv_SensorMonitor.c **** 
 191:Service/Srv_SensorMonitor.c ****     return 0;
 192:Service/Srv_SensorMonitor.c **** }
 193:Service/Srv_SensorMonitor.c **** 
 194:Service/Srv_SensorMonitor.c **** /******************************************* IMU Section ******************************************
 195:Service/Srv_SensorMonitor.c **** static bool SrvSensorMonitor_IMU_Init(SrvSensorMonitorObj_TypeDef *obj)
 196:Service/Srv_SensorMonitor.c **** {
 197:Service/Srv_SensorMonitor.c ****     SrvIMU_ErrorCode_List init_state;
 198:Service/Srv_SensorMonitor.c **** 
 199:Service/Srv_SensorMonitor.c ****     if (SrvIMU.init && obj)
ARM GAS  C:\Users\8bit\AppData\Local\Temp\ccoxdEfV.s 			page 7


 200:Service/Srv_SensorMonitor.c ****     {
 201:Service/Srv_SensorMonitor.c ****         init_state = SrvIMU.init();
 202:Service/Srv_SensorMonitor.c ****         obj->imu_num = 0;
 203:Service/Srv_SensorMonitor.c **** 
 204:Service/Srv_SensorMonitor.c ****         switch(init_state)
 205:Service/Srv_SensorMonitor.c ****         {
 206:Service/Srv_SensorMonitor.c ****             case SrvIMU_PriDev_Init_Error:
 207:Service/Srv_SensorMonitor.c ****                 MONITOR_INFO("Pri IMU init error\r\n");
 208:Service/Srv_SensorMonitor.c ****                 memset(&obj->PriIMU_Range, 0, sizeof(obj->PriIMU_Range));
 209:Service/Srv_SensorMonitor.c ****                 obj->sec_range_get = SrvIMU.get_range(SrvIMU_SecModule, &obj->SecIMU_Range);
 210:Service/Srv_SensorMonitor.c ****                 if (!obj->sec_range_get)
 211:Service/Srv_SensorMonitor.c ****                 {
 212:Service/Srv_SensorMonitor.c ****                     MONITOR_INFO("IMU get range failed\r\n");
 213:Service/Srv_SensorMonitor.c ****                     memset(&obj->SecIMU_Range, 0, sizeof(obj->SecIMU_Range));
 214:Service/Srv_SensorMonitor.c ****                     return false;
 215:Service/Srv_SensorMonitor.c ****                 }
 216:Service/Srv_SensorMonitor.c **** 
 217:Service/Srv_SensorMonitor.c ****                 obj->imu_num = 1;
 218:Service/Srv_SensorMonitor.c ****                 /* set sample mode */
 219:Service/Srv_SensorMonitor.c ****                 obj->IMU_SampleMode = SrvIMU_Priori_Sec;
 220:Service/Srv_SensorMonitor.c **** 
 221:Service/Srv_SensorMonitor.c ****                 /* get secondary imu type */
 222:Service/Srv_SensorMonitor.c ****                 SrvIMU.get_type(SrvIMU_SecModule, &obj->sec_imu_type);
 223:Service/Srv_SensorMonitor.c ****                 obj->pri_imu_type = SrvIMU_Dev_None;
 224:Service/Srv_SensorMonitor.c ****                 break;
 225:Service/Srv_SensorMonitor.c **** 
 226:Service/Srv_SensorMonitor.c ****             case SrvIMU_SecDev_Init_Error:
 227:Service/Srv_SensorMonitor.c ****                 MONITOR_INFO("Sec IMU init error\r\n");
 228:Service/Srv_SensorMonitor.c ****                 memset(&obj->SecIMU_Range, 0, sizeof(obj->SecIMU_Range));
 229:Service/Srv_SensorMonitor.c ****                 obj->pri_range_get = SrvIMU.get_range(SrvIMU_PriModule, &obj->PriIMU_Range);
 230:Service/Srv_SensorMonitor.c ****                 if (!obj->pri_range_get)
 231:Service/Srv_SensorMonitor.c ****                 {
 232:Service/Srv_SensorMonitor.c ****                     MONITOR_INFO("IMU get range failed\r\n");
 233:Service/Srv_SensorMonitor.c ****                     memset(&obj->PriIMU_Range, 0, sizeof(obj->PriIMU_Range));
 234:Service/Srv_SensorMonitor.c ****                     return false;
 235:Service/Srv_SensorMonitor.c ****                 }
 236:Service/Srv_SensorMonitor.c **** 
 237:Service/Srv_SensorMonitor.c ****                 obj->imu_num = 1;
 238:Service/Srv_SensorMonitor.c ****                 /* ser sample mode */
 239:Service/Srv_SensorMonitor.c ****                 obj->IMU_SampleMode = SrvIMU_Priori_Pri;
 240:Service/Srv_SensorMonitor.c **** 
 241:Service/Srv_SensorMonitor.c ****                 /* get primary imu type */
 242:Service/Srv_SensorMonitor.c ****                 SrvIMU.get_type(SrvIMU_PriModule, &obj->pri_imu_type);
 243:Service/Srv_SensorMonitor.c ****                 obj->sec_imu_type = SrvIMU_Dev_None;
 244:Service/Srv_SensorMonitor.c ****                 break;
 245:Service/Srv_SensorMonitor.c **** 
 246:Service/Srv_SensorMonitor.c ****             case SrvIMU_No_Error:
 247:Service/Srv_SensorMonitor.c ****                 MONITOR_INFO("All IMU init successed\r\n");
 248:Service/Srv_SensorMonitor.c ****                 memset(&obj->PriIMU_Range, 0, sizeof(obj->PriIMU_Range));
 249:Service/Srv_SensorMonitor.c ****                 memset(&obj->SecIMU_Range, 0, sizeof(obj->SecIMU_Range));
 250:Service/Srv_SensorMonitor.c ****                 
 251:Service/Srv_SensorMonitor.c ****                 obj->pri_range_get = SrvIMU.get_range(SrvIMU_PriModule, &obj->PriIMU_Range);
 252:Service/Srv_SensorMonitor.c ****                 obj->sec_range_get = SrvIMU.get_range(SrvIMU_SecModule, &obj->SecIMU_Range);
 253:Service/Srv_SensorMonitor.c ****                 
 254:Service/Srv_SensorMonitor.c ****                 /* get both imu type */
 255:Service/Srv_SensorMonitor.c ****                 SrvIMU.get_type(SrvIMU_PriModule, &obj->pri_imu_type);
 256:Service/Srv_SensorMonitor.c ****                 SrvIMU.get_type(SrvIMU_SecModule, &obj->sec_imu_type);
ARM GAS  C:\Users\8bit\AppData\Local\Temp\ccoxdEfV.s 			page 8


 257:Service/Srv_SensorMonitor.c **** 
 258:Service/Srv_SensorMonitor.c ****                 /* set sample mode */
 259:Service/Srv_SensorMonitor.c ****                 if (!obj->pri_range_get && !obj->sec_range_get)
 260:Service/Srv_SensorMonitor.c ****                 {
 261:Service/Srv_SensorMonitor.c ****                     MONITOR_INFO("IMU get range failed\r\n");
 262:Service/Srv_SensorMonitor.c ****                     memset(&obj->PriIMU_Range, 0, sizeof(obj->PriIMU_Range));
 263:Service/Srv_SensorMonitor.c ****                     memset(&obj->SecIMU_Range, 0, sizeof(obj->SecIMU_Range));
 264:Service/Srv_SensorMonitor.c ****                     return false;
 265:Service/Srv_SensorMonitor.c ****                 }
 266:Service/Srv_SensorMonitor.c ****                 else
 267:Service/Srv_SensorMonitor.c ****                 {
 268:Service/Srv_SensorMonitor.c ****                     if (obj->pri_range_get & obj->sec_range_get)
 269:Service/Srv_SensorMonitor.c ****                     {
 270:Service/Srv_SensorMonitor.c ****                         obj->imu_num = 2;
 271:Service/Srv_SensorMonitor.c ****                         obj->IMU_SampleMode = SrvIMU_Both_Sample;
 272:Service/Srv_SensorMonitor.c ****                     }
 273:Service/Srv_SensorMonitor.c ****                     else
 274:Service/Srv_SensorMonitor.c ****                     {
 275:Service/Srv_SensorMonitor.c ****                         obj->imu_num = 1;
 276:Service/Srv_SensorMonitor.c ****                         if (obj->pri_range_get)
 277:Service/Srv_SensorMonitor.c ****                         {
 278:Service/Srv_SensorMonitor.c ****                             obj->IMU_SampleMode = SrvIMU_Priori_Pri;
 279:Service/Srv_SensorMonitor.c ****                         }
 280:Service/Srv_SensorMonitor.c ****                         else
 281:Service/Srv_SensorMonitor.c ****                             obj->IMU_SampleMode = SrvIMU_Priori_Sec;
 282:Service/Srv_SensorMonitor.c ****                     }
 283:Service/Srv_SensorMonitor.c ****                 }
 284:Service/Srv_SensorMonitor.c ****                 break;
 285:Service/Srv_SensorMonitor.c **** 
 286:Service/Srv_SensorMonitor.c ****             case SrvIMU_AllModule_Init_Error:
 287:Service/Srv_SensorMonitor.c ****             default:
 288:Service/Srv_SensorMonitor.c ****                 return false;
 289:Service/Srv_SensorMonitor.c ****         }
 290:Service/Srv_SensorMonitor.c **** 
 291:Service/Srv_SensorMonitor.c ****         return true;
 292:Service/Srv_SensorMonitor.c ****     }
 293:Service/Srv_SensorMonitor.c **** 
 294:Service/Srv_SensorMonitor.c ****     return false;
 295:Service/Srv_SensorMonitor.c **** }
 296:Service/Srv_SensorMonitor.c **** 
 297:Service/Srv_SensorMonitor.c **** static bool SrvSensorMonitor_IMU_Get_Num(SrvSensorMonitorObj_TypeDef *obj, uint8_t *num)
 298:Service/Srv_SensorMonitor.c **** {
 146              		.loc 1 298 1 is_stmt 1 view -0
 147              		.cfi_startproc
 148              		@ args = 0, pretend = 0, frame = 0
 149              		@ frame_needed = 0, uses_anonymous_args = 0
 150              		@ link register save eliminated.
 299:Service/Srv_SensorMonitor.c ****     if (obj)
 151              		.loc 1 299 5 view .LVU33
 152              		.loc 1 299 8 is_stmt 0 view .LVU34
 153 0000 60B1     		cbz	r0, .L18
 300:Service/Srv_SensorMonitor.c ****     {
 301:Service/Srv_SensorMonitor.c ****         if (num)
 154              		.loc 1 301 9 is_stmt 1 view .LVU35
 155              		.loc 1 301 12 is_stmt 0 view .LVU36
 156 0002 69B1     		cbz	r1, .L19
 302:Service/Srv_SensorMonitor.c ****         {
ARM GAS  C:\Users\8bit\AppData\Local\Temp\ccoxdEfV.s 			page 9


 303:Service/Srv_SensorMonitor.c ****             if (obj->init_state_reg.bit.imu)
 157              		.loc 1 303 13 is_stmt 1 view .LVU37
 158              		.loc 1 303 17 is_stmt 0 view .LVU38
 159 0004 0279     		ldrb	r2, [r0, #4]	@ zero_extendqisi2
 160              		.loc 1 303 16 view .LVU39
 161 0006 12F0010F 		tst	r2, #1
 162 000a 02D1     		bne	.L20
 304:Service/Srv_SensorMonitor.c ****             {
 305:Service/Srv_SensorMonitor.c ****                 (*num) = obj->imu_num;
 306:Service/Srv_SensorMonitor.c ****                 return true;
 307:Service/Srv_SensorMonitor.c ****             }
 308:Service/Srv_SensorMonitor.c ****             else
 309:Service/Srv_SensorMonitor.c ****                 (*num) = 0;
 163              		.loc 1 309 17 is_stmt 1 view .LVU40
 164              		.loc 1 309 24 is_stmt 0 view .LVU41
 165 000c 0020     		movs	r0, #0
 166              	.LVL23:
 167              		.loc 1 309 24 view .LVU42
 168 000e 0870     		strb	r0, [r1]
 169 0010 7047     		bx	lr
 170              	.LVL24:
 171              	.L20:
 305:Service/Srv_SensorMonitor.c ****                 return true;
 172              		.loc 1 305 17 is_stmt 1 view .LVU43
 305:Service/Srv_SensorMonitor.c ****                 return true;
 173              		.loc 1 305 29 is_stmt 0 view .LVU44
 174 0012 90F82030 		ldrb	r3, [r0, #32]	@ zero_extendqisi2
 305:Service/Srv_SensorMonitor.c ****                 return true;
 175              		.loc 1 305 24 view .LVU45
 176 0016 0B70     		strb	r3, [r1]
 306:Service/Srv_SensorMonitor.c ****             }
 177              		.loc 1 306 17 is_stmt 1 view .LVU46
 306:Service/Srv_SensorMonitor.c ****             }
 178              		.loc 1 306 24 is_stmt 0 view .LVU47
 179 0018 0120     		movs	r0, #1
 180              	.LVL25:
 306:Service/Srv_SensorMonitor.c ****             }
 181              		.loc 1 306 24 view .LVU48
 182 001a 7047     		bx	lr
 183              	.LVL26:
 184              	.L18:
 310:Service/Srv_SensorMonitor.c ****         }   
 311:Service/Srv_SensorMonitor.c ****     }
 312:Service/Srv_SensorMonitor.c **** 
 313:Service/Srv_SensorMonitor.c ****     return false;
 185              		.loc 1 313 12 view .LVU49
 186 001c 0020     		movs	r0, #0
 187              	.LVL27:
 188              		.loc 1 313 12 view .LVU50
 189 001e 7047     		bx	lr
 190              	.LVL28:
 191              	.L19:
 192              		.loc 1 313 12 view .LVU51
 193 0020 0020     		movs	r0, #0
 194              	.LVL29:
 314:Service/Srv_SensorMonitor.c **** }
 195              		.loc 1 314 1 view .LVU52
ARM GAS  C:\Users\8bit\AppData\Local\Temp\ccoxdEfV.s 			page 10


 196 0022 7047     		bx	lr
 197              		.cfi_endproc
 198              	.LFE150:
 200              		.section	.text.SrvSensorMonitor_Get_IMU_Range,"ax",%progbits
 201              		.align	1
 202              		.syntax unified
 203              		.thumb
 204              		.thumb_func
 206              	SrvSensorMonitor_Get_IMU_Range:
 207              	.LVL30:
 208              	.LFB151:
 315:Service/Srv_SensorMonitor.c **** 
 316:Service/Srv_SensorMonitor.c **** static bool SrvSensorMonitor_Get_IMU_Range(SrvSensorMonitorObj_TypeDef *obj, SrvIMU_Module_Type typ
 317:Service/Srv_SensorMonitor.c **** {
 209              		.loc 1 317 1 is_stmt 1 view -0
 210              		.cfi_startproc
 211              		@ args = 0, pretend = 0, frame = 0
 212              		@ frame_needed = 0, uses_anonymous_args = 0
 213              		@ link register save eliminated.
 318:Service/Srv_SensorMonitor.c ****     if (obj && range)
 214              		.loc 1 318 5 view .LVU54
 215              		.loc 1 318 8 is_stmt 0 view .LVU55
 216 0000 0346     		mov	r3, r0
 217 0002 00B3     		cbz	r0, .L27
 218              		.loc 1 318 13 discriminator 1 view .LVU56
 219 0004 0AB3     		cbz	r2, .L28
 319:Service/Srv_SensorMonitor.c ****     {
 320:Service/Srv_SensorMonitor.c ****         switch((uint8_t)type)
 220              		.loc 1 320 9 is_stmt 1 view .LVU57
 221 0006 0129     		cmp	r1, #1
 222 0008 03D0     		beq	.L23
 223 000a 0229     		cmp	r1, #2
 224 000c 0ED0     		beq	.L24
 225 000e 0020     		movs	r0, #0
 226              	.LVL31:
 227              		.loc 1 320 9 is_stmt 0 view .LVU58
 228 0010 7047     		bx	lr
 229              	.LVL32:
 230              	.L23:
 321:Service/Srv_SensorMonitor.c ****         {
 322:Service/Srv_SensorMonitor.c ****             case SrvIMU_PriModule:
 323:Service/Srv_SensorMonitor.c ****                 if (obj->pri_range_get)
 231              		.loc 1 323 17 is_stmt 1 view .LVU59
 232              		.loc 1 323 24 is_stmt 0 view .LVU60
 233 0012 90F82100 		ldrb	r0, [r0, #33]	@ zero_extendqisi2
 234              	.LVL33:
 235              		.loc 1 323 20 view .LVU61
 236 0016 28B1     		cbz	r0, .L25
 324:Service/Srv_SensorMonitor.c ****                 {
 325:Service/Srv_SensorMonitor.c ****                     range->Acc = obj->PriIMU_Range.Acc;
 237              		.loc 1 325 21 is_stmt 1 view .LVU62
 238              		.loc 1 325 51 is_stmt 0 view .LVU63
 239 0018 93F82410 		ldrb	r1, [r3, #36]	@ zero_extendqisi2
 240              	.LVL34:
 241              		.loc 1 325 32 view .LVU64
 242 001c 1170     		strb	r1, [r2]
 326:Service/Srv_SensorMonitor.c ****                     range->Gyr = obj->PriIMU_Range.Gyr;
ARM GAS  C:\Users\8bit\AppData\Local\Temp\ccoxdEfV.s 			page 11


 243              		.loc 1 326 21 is_stmt 1 view .LVU65
 244              		.loc 1 326 51 is_stmt 0 view .LVU66
 245 001e DB8C     		ldrh	r3, [r3, #38]
 246              	.LVL35:
 247              		.loc 1 326 32 view .LVU67
 248 0020 5380     		strh	r3, [r2, #2]	@ movhi
 327:Service/Srv_SensorMonitor.c ****                     return true;
 249              		.loc 1 327 21 is_stmt 1 view .LVU68
 250              		.loc 1 327 28 is_stmt 0 view .LVU69
 251 0022 7047     		bx	lr
 252              	.LVL36:
 253              	.L25:
 328:Service/Srv_SensorMonitor.c ****                 }
 329:Service/Srv_SensorMonitor.c **** 
 330:Service/Srv_SensorMonitor.c ****                 range->Acc = 0;
 254              		.loc 1 330 17 is_stmt 1 view .LVU70
 255              		.loc 1 330 28 is_stmt 0 view .LVU71
 256 0024 0023     		movs	r3, #0
 257              	.LVL37:
 258              		.loc 1 330 28 view .LVU72
 259 0026 1370     		strb	r3, [r2]
 331:Service/Srv_SensorMonitor.c ****                 range->Gyr = 0;
 260              		.loc 1 331 17 is_stmt 1 view .LVU73
 261              		.loc 1 331 28 is_stmt 0 view .LVU74
 262 0028 5380     		strh	r3, [r2, #2]	@ movhi
 332:Service/Srv_SensorMonitor.c ****                 return false;
 263              		.loc 1 332 17 is_stmt 1 view .LVU75
 264              		.loc 1 332 24 is_stmt 0 view .LVU76
 265 002a 7047     		bx	lr
 266              	.LVL38:
 267              	.L24:
 333:Service/Srv_SensorMonitor.c **** 
 334:Service/Srv_SensorMonitor.c ****             case SrvIMU_SecModule:
 335:Service/Srv_SensorMonitor.c ****                 if (obj->sec_range_get)
 268              		.loc 1 335 17 is_stmt 1 view .LVU77
 269              		.loc 1 335 24 is_stmt 0 view .LVU78
 270 002c 90F82200 		ldrb	r0, [r0, #34]	@ zero_extendqisi2
 271              	.LVL39:
 272              		.loc 1 335 20 view .LVU79
 273 0030 28B1     		cbz	r0, .L26
 336:Service/Srv_SensorMonitor.c ****                 {
 337:Service/Srv_SensorMonitor.c ****                     range->Acc = obj->SecIMU_Range.Acc;
 274              		.loc 1 337 21 is_stmt 1 view .LVU80
 275              		.loc 1 337 51 is_stmt 0 view .LVU81
 276 0032 93F82810 		ldrb	r1, [r3, #40]	@ zero_extendqisi2
 277              	.LVL40:
 278              		.loc 1 337 32 view .LVU82
 279 0036 1170     		strb	r1, [r2]
 338:Service/Srv_SensorMonitor.c ****                     range->Gyr = obj->SecIMU_Range.Gyr;
 280              		.loc 1 338 21 is_stmt 1 view .LVU83
 281              		.loc 1 338 51 is_stmt 0 view .LVU84
 282 0038 5B8D     		ldrh	r3, [r3, #42]
 283              	.LVL41:
 284              		.loc 1 338 32 view .LVU85
 285 003a 5380     		strh	r3, [r2, #2]	@ movhi
 339:Service/Srv_SensorMonitor.c ****                     return true;
 286              		.loc 1 339 21 is_stmt 1 view .LVU86
ARM GAS  C:\Users\8bit\AppData\Local\Temp\ccoxdEfV.s 			page 12


 287              		.loc 1 339 28 is_stmt 0 view .LVU87
 288 003c 7047     		bx	lr
 289              	.LVL42:
 290              	.L26:
 340:Service/Srv_SensorMonitor.c ****                 }
 341:Service/Srv_SensorMonitor.c **** 
 342:Service/Srv_SensorMonitor.c ****                 range->Acc = 0;
 291              		.loc 1 342 17 is_stmt 1 view .LVU88
 292              		.loc 1 342 28 is_stmt 0 view .LVU89
 293 003e 0023     		movs	r3, #0
 294              	.LVL43:
 295              		.loc 1 342 28 view .LVU90
 296 0040 1370     		strb	r3, [r2]
 343:Service/Srv_SensorMonitor.c ****                 range->Gyr = 0;
 297              		.loc 1 343 17 is_stmt 1 view .LVU91
 298              		.loc 1 343 28 is_stmt 0 view .LVU92
 299 0042 5380     		strh	r3, [r2, #2]	@ movhi
 344:Service/Srv_SensorMonitor.c ****                 return false;
 300              		.loc 1 344 17 is_stmt 1 view .LVU93
 301              		.loc 1 344 24 is_stmt 0 view .LVU94
 302 0044 7047     		bx	lr
 303              	.LVL44:
 304              	.L27:
 345:Service/Srv_SensorMonitor.c **** 
 346:Service/Srv_SensorMonitor.c ****             default:
 347:Service/Srv_SensorMonitor.c ****                 return false;
 348:Service/Srv_SensorMonitor.c ****         }
 349:Service/Srv_SensorMonitor.c ****     }
 350:Service/Srv_SensorMonitor.c **** 
 351:Service/Srv_SensorMonitor.c ****     return false;
 305              		.loc 1 351 12 view .LVU95
 306 0046 0020     		movs	r0, #0
 307              	.LVL45:
 308              		.loc 1 351 12 view .LVU96
 309 0048 7047     		bx	lr
 310              	.LVL46:
 311              	.L28:
 312              		.loc 1 351 12 view .LVU97
 313 004a 0020     		movs	r0, #0
 314              	.LVL47:
 352:Service/Srv_SensorMonitor.c **** }
 315              		.loc 1 352 1 view .LVU98
 316 004c 7047     		bx	lr
 317              		.cfi_endproc
 318              	.LFE151:
 320              		.section	.text.SrvSensorMonitor_IMU_SampleCTL,"ax",%progbits
 321              		.align	1
 322              		.syntax unified
 323              		.thumb
 324              		.thumb_func
 326              	SrvSensorMonitor_IMU_SampleCTL:
 327              	.LVL48:
 328              	.LFB152:
 353:Service/Srv_SensorMonitor.c **** 
 354:Service/Srv_SensorMonitor.c **** static bool SrvSensorMonitor_IMU_SampleCTL(SrvSensorMonitorObj_TypeDef *obj)
 355:Service/Srv_SensorMonitor.c **** {
 329              		.loc 1 355 1 is_stmt 1 view -0
ARM GAS  C:\Users\8bit\AppData\Local\Temp\ccoxdEfV.s 			page 13


 330              		.cfi_startproc
 331              		@ args = 0, pretend = 0, frame = 0
 332              		@ frame_needed = 0, uses_anonymous_args = 0
 333              		.loc 1 355 1 is_stmt 0 view .LVU100
 334 0000 2DE9F843 		push	{r3, r4, r5, r6, r7, r8, r9, lr}
 335              	.LCFI0:
 336              		.cfi_def_cfa_offset 32
 337              		.cfi_offset 3, -32
 338              		.cfi_offset 4, -28
 339              		.cfi_offset 5, -24
 340              		.cfi_offset 6, -20
 341              		.cfi_offset 7, -16
 342              		.cfi_offset 8, -12
 343              		.cfi_offset 9, -8
 344              		.cfi_offset 14, -4
 345 0004 0446     		mov	r4, r0
 356:Service/Srv_SensorMonitor.c ****     bool state = false;
 346              		.loc 1 356 5 is_stmt 1 view .LVU101
 347              	.LVL49:
 357:Service/Srv_SensorMonitor.c ****     uint32_t sample_interval_ms = 0;
 348              		.loc 1 357 5 view .LVU102
 358:Service/Srv_SensorMonitor.c ****     uint32_t cur_time = SrvOsCommon.get_os_ms();
 349              		.loc 1 358 5 view .LVU103
 350              		.loc 1 358 36 is_stmt 0 view .LVU104
 351 0006 424B     		ldr	r3, .L52
 352 0008 5B68     		ldr	r3, [r3, #4]
 353              		.loc 1 358 25 view .LVU105
 354 000a 9847     		blx	r3
 355              	.LVL50:
 359:Service/Srv_SensorMonitor.c ****     uint32_t start_tick = 0;
 356              		.loc 1 359 5 is_stmt 1 view .LVU106
 360:Service/Srv_SensorMonitor.c ****     uint32_t end_tick = 0;
 357              		.loc 1 360 5 view .LVU107
 361:Service/Srv_SensorMonitor.c ****     int32_t sample_tick = 0;
 358              		.loc 1 361 5 view .LVU108
 362:Service/Srv_SensorMonitor.c **** 
 363:Service/Srv_SensorMonitor.c ****     if (obj && obj->statistic_imu && obj->enabled_reg.bit.imu && obj->init_state_reg.bit.imu && obj
 359              		.loc 1 363 5 view .LVU109
 360              		.loc 1 363 8 is_stmt 0 view .LVU110
 361 000c 002C     		cmp	r4, #0
 362 000e 6AD0     		beq	.L40
 363 0010 0546     		mov	r5, r0
 364              		.loc 1 363 19 discriminator 1 view .LVU111
 365 0012 E368     		ldr	r3, [r4, #12]
 366              		.loc 1 363 13 discriminator 1 view .LVU112
 367 0014 002B     		cmp	r3, #0
 368 0016 6AD0     		beq	.L41
 369              		.loc 1 363 35 discriminator 2 view .LVU113
 370 0018 2278     		ldrb	r2, [r4]	@ zero_extendqisi2
 371 001a 12F0010F 		tst	r2, #1
 372 001e 68D0     		beq	.L42
 373              		.loc 1 363 63 discriminator 3 view .LVU114
 374 0020 2279     		ldrb	r2, [r4, #4]	@ zero_extendqisi2
 375 0022 12F0010F 		tst	r2, #1
 376 0026 66D0     		beq	.L43
 377              		.loc 1 363 115 discriminator 4 view .LVU115
 378 0028 9A6A     		ldr	r2, [r3, #40]
ARM GAS  C:\Users\8bit\AppData\Local\Temp\ccoxdEfV.s 			page 14


 379              		.loc 1 363 94 discriminator 4 view .LVU116
 380 002a 002A     		cmp	r2, #0
 381 002c 65D0     		beq	.L44
 364:Service/Srv_SensorMonitor.c ****     {
 365:Service/Srv_SensorMonitor.c ****         sample_interval_ms = SrvSensorMonitor_GetSampleInterval(obj->statistic_imu->set_period);
 382              		.loc 1 365 9 is_stmt 1 view .LVU117
 383              		.loc 1 365 28 is_stmt 0 view .LVU118
 384 002e 4FF47A71 		mov	r1, #1000
 385 0032 B1FBF2F7 		udiv	r7, r1, r2
 386              	.LVL51:
 366:Service/Srv_SensorMonitor.c ****         
 367:Service/Srv_SensorMonitor.c ****         if ( SrvIMU.sample && \
 387              		.loc 1 367 9 is_stmt 1 view .LVU119
 388              		.loc 1 367 20 is_stmt 0 view .LVU120
 389 0036 3749     		ldr	r1, .L52+4
 390 0038 4968     		ldr	r1, [r1, #4]
 391              		.loc 1 367 12 view .LVU121
 392 003a 0029     		cmp	r1, #0
 393 003c 5FD0     		beq	.L45
 368:Service/Srv_SensorMonitor.c ****             SrvIMU.error_proc && 
 394              		.loc 1 368 19 discriminator 1 view .LVU122
 395 003e 3549     		ldr	r1, .L52+4
 396 0040 8969     		ldr	r1, [r1, #24]
 367:Service/Srv_SensorMonitor.c ****             SrvIMU.error_proc && 
 397              		.loc 1 367 28 discriminator 1 view .LVU123
 398 0042 0029     		cmp	r1, #0
 399 0044 5DD0     		beq	.L46
 369:Service/Srv_SensorMonitor.c ****             ((obj->statistic_imu->start_time == 0) || \
 400              		.loc 1 369 33 view .LVU124
 401 0046 1968     		ldr	r1, [r3]
 368:Service/Srv_SensorMonitor.c ****             SrvIMU.error_proc && 
 402              		.loc 1 368 31 view .LVU125
 403 0048 29B1     		cbz	r1, .L31
 404              		.loc 1 369 52 view .LVU126
 405 004a B2F57A7F 		cmp	r2, #1000
 406 004e 5AD8     		bhi	.L47
 370:Service/Srv_SensorMonitor.c ****              (sample_interval_ms && \
 371:Service/Srv_SensorMonitor.c ****              (cur_time >= obj->statistic_imu->nxt_sample_time))))
 407              		.loc 1 371 45 view .LVU127
 408 0050 5B68     		ldr	r3, [r3, #4]
 370:Service/Srv_SensorMonitor.c ****              (sample_interval_ms && \
 409              		.loc 1 370 34 view .LVU128
 410 0052 8342     		cmp	r3, r0
 411 0054 59D8     		bhi	.L48
 412              	.L31:
 372:Service/Srv_SensorMonitor.c ****         {
 373:Service/Srv_SensorMonitor.c **** 
 374:Service/Srv_SensorMonitor.c ****             // DebugPin.ctl(Debug_PB5, true);
 375:Service/Srv_SensorMonitor.c ****             start_tick = SrvOsCommon.get_systimer_current_tick();
 413              		.loc 1 375 13 is_stmt 1 view .LVU129
 414              		.loc 1 375 37 is_stmt 0 view .LVU130
 415 0056 2E4B     		ldr	r3, .L52
 416 0058 1B69     		ldr	r3, [r3, #16]
 417              		.loc 1 375 26 view .LVU131
 418 005a 9847     		blx	r3
 419              	.LVL52:
 420              		.loc 1 375 26 view .LVU132
ARM GAS  C:\Users\8bit\AppData\Local\Temp\ccoxdEfV.s 			page 15


 421 005c 8046     		mov	r8, r0
 422              	.LVL53:
 376:Service/Srv_SensorMonitor.c **** 
 377:Service/Srv_SensorMonitor.c ****             if (SrvIMU.sample(obj->IMU_SampleMode))
 423              		.loc 1 377 13 is_stmt 1 view .LVU133
 424              		.loc 1 377 23 is_stmt 0 view .LVU134
 425 005e 2D4B     		ldr	r3, .L52+4
 426 0060 5B68     		ldr	r3, [r3, #4]
 427              		.loc 1 377 17 view .LVU135
 428 0062 94F82C00 		ldrb	r0, [r4, #44]	@ zero_extendqisi2
 429              	.LVL54:
 430              		.loc 1 377 17 view .LVU136
 431 0066 9847     		blx	r3
 432              	.LVL55:
 433              		.loc 1 377 16 view .LVU137
 434 0068 0646     		mov	r6, r0
 435 006a E0B1     		cbz	r0, .L32
 378:Service/Srv_SensorMonitor.c ****             { 
 379:Service/Srv_SensorMonitor.c ****                 end_tick = SrvOsCommon.get_systimer_current_tick();
 436              		.loc 1 379 17 is_stmt 1 view .LVU138
 437              		.loc 1 379 39 is_stmt 0 view .LVU139
 438 006c 284B     		ldr	r3, .L52
 439 006e 1B69     		ldr	r3, [r3, #16]
 440              		.loc 1 379 28 view .LVU140
 441 0070 9847     		blx	r3
 442              	.LVL56:
 443 0072 8146     		mov	r9, r0
 444              	.LVL57:
 380:Service/Srv_SensorMonitor.c ****                 SrvIMU.error_proc();
 445              		.loc 1 380 17 is_stmt 1 view .LVU141
 446              		.loc 1 380 23 is_stmt 0 view .LVU142
 447 0074 274B     		ldr	r3, .L52+4
 448 0076 9B69     		ldr	r3, [r3, #24]
 449              		.loc 1 380 17 view .LVU143
 450 0078 9847     		blx	r3
 451              	.LVL58:
 381:Service/Srv_SensorMonitor.c **** 
 382:Service/Srv_SensorMonitor.c ****                 obj->statistic_imu->sample_cnt ++;
 452              		.loc 1 382 17 is_stmt 1 view .LVU144
 453              		.loc 1 382 20 is_stmt 0 view .LVU145
 454 007a E268     		ldr	r2, [r4, #12]
 455              		.loc 1 382 35 view .LVU146
 456 007c D369     		ldr	r3, [r2, #28]
 457              		.loc 1 382 48 view .LVU147
 458 007e 0133     		adds	r3, r3, #1
 459 0080 D361     		str	r3, [r2, #28]
 383:Service/Srv_SensorMonitor.c ****                 obj->statistic_imu->nxt_sample_time = cur_time + sample_interval_ms;
 460              		.loc 1 383 17 is_stmt 1 view .LVU148
 461              		.loc 1 383 20 is_stmt 0 view .LVU149
 462 0082 E368     		ldr	r3, [r4, #12]
 463              		.loc 1 383 64 view .LVU150
 464 0084 2F44     		add	r7, r7, r5
 465              	.LVL59:
 466              		.loc 1 383 53 view .LVU151
 467 0086 5F60     		str	r7, [r3, #4]
 384:Service/Srv_SensorMonitor.c ****                 if (obj->statistic_imu->start_time == 0)
 468              		.loc 1 384 17 is_stmt 1 view .LVU152
ARM GAS  C:\Users\8bit\AppData\Local\Temp\ccoxdEfV.s 			page 16


 469              		.loc 1 384 24 is_stmt 0 view .LVU153
 470 0088 E368     		ldr	r3, [r4, #12]
 471              		.loc 1 384 39 view .LVU154
 472 008a 1A68     		ldr	r2, [r3]
 473              		.loc 1 384 20 view .LVU155
 474 008c 02B9     		cbnz	r2, .L33
 385:Service/Srv_SensorMonitor.c ****                     obj->statistic_imu->start_time = cur_time;
 475              		.loc 1 385 21 is_stmt 1 view .LVU156
 476              		.loc 1 385 52 is_stmt 0 view .LVU157
 477 008e 1D60     		str	r5, [r3]
 478              	.L33:
 386:Service/Srv_SensorMonitor.c **** 
 387:Service/Srv_SensorMonitor.c ****                 state = true;
 479              		.loc 1 387 17 is_stmt 1 view .LVU158
 480              	.LVL60:
 388:Service/Srv_SensorMonitor.c ****             }
 389:Service/Srv_SensorMonitor.c ****             else
 390:Service/Srv_SensorMonitor.c ****                 end_tick = SrvOsCommon.get_systimer_current_tick();
 391:Service/Srv_SensorMonitor.c ****             // DebugPin.ctl(Debug_PB5, false);
 392:Service/Srv_SensorMonitor.c **** 
 393:Service/Srv_SensorMonitor.c ****             if (state)
 481              		.loc 1 393 13 view .LVU159
 394:Service/Srv_SensorMonitor.c ****             {
 395:Service/Srv_SensorMonitor.c ****                 if (start_tick < end_tick)
 482              		.loc 1 395 17 view .LVU160
 483              		.loc 1 395 20 is_stmt 0 view .LVU161
 484 0090 C845     		cmp	r8, r9
 485 0092 0CD3     		bcc	.L34
 396:Service/Srv_SensorMonitor.c ****                 {
 397:Service/Srv_SensorMonitor.c ****                     sample_tick = end_tick - start_tick;
 398:Service/Srv_SensorMonitor.c ****                 }
 399:Service/Srv_SensorMonitor.c ****                 else if (start_tick > end_tick)
 486              		.loc 1 399 22 is_stmt 1 view .LVU162
 487              		.loc 1 399 25 is_stmt 0 view .LVU163
 488 0094 C845     		cmp	r8, r9
 489 0096 23D9     		bls	.L49
 400:Service/Srv_SensorMonitor.c ****                 {
 401:Service/Srv_SensorMonitor.c ****                     /* must after timer irq */
 402:Service/Srv_SensorMonitor.c ****                     sample_tick = SrvOsCommon.get_systimer_period() - start_tick + end_tick;
 490              		.loc 1 402 21 is_stmt 1 view .LVU164
 491              		.loc 1 402 46 is_stmt 0 view .LVU165
 492 0098 1D4B     		ldr	r3, .L52
 493 009a 5B69     		ldr	r3, [r3, #20]
 494              		.loc 1 402 35 view .LVU166
 495 009c 9847     		blx	r3
 496              	.LVL61:
 497              		.loc 1 402 69 view .LVU167
 498 009e A0EB0808 		sub	r8, r0, r8
 499              	.LVL62:
 500              		.loc 1 402 82 view .LVU168
 501 00a2 C144     		add	r9, r9, r8
 502              	.LVL63:
 503              		.loc 1 402 82 view .LVU169
 504 00a4 05E0     		b	.L36
 505              	.LVL64:
 506              	.L32:
 390:Service/Srv_SensorMonitor.c ****             // DebugPin.ctl(Debug_PB5, false);
ARM GAS  C:\Users\8bit\AppData\Local\Temp\ccoxdEfV.s 			page 17


 507              		.loc 1 390 17 is_stmt 1 view .LVU170
 390:Service/Srv_SensorMonitor.c ****             // DebugPin.ctl(Debug_PB5, false);
 508              		.loc 1 390 39 is_stmt 0 view .LVU171
 509 00a6 1A4B     		ldr	r3, .L52
 510 00a8 1B69     		ldr	r3, [r3, #16]
 390:Service/Srv_SensorMonitor.c ****             // DebugPin.ctl(Debug_PB5, false);
 511              		.loc 1 390 28 view .LVU172
 512 00aa 9847     		blx	r3
 513              	.LVL65:
 393:Service/Srv_SensorMonitor.c ****             {
 514              		.loc 1 393 13 is_stmt 1 view .LVU173
 515 00ac 1CE0     		b	.L30
 516              	.LVL66:
 517              	.L34:
 397:Service/Srv_SensorMonitor.c ****                 }
 518              		.loc 1 397 21 view .LVU174
 397:Service/Srv_SensorMonitor.c ****                 }
 519              		.loc 1 397 44 is_stmt 0 view .LVU175
 520 00ae A9EB0809 		sub	r9, r9, r8
 521              	.LVL67:
 522              	.L36:
 403:Service/Srv_SensorMonitor.c ****                 }
 404:Service/Srv_SensorMonitor.c **** 
 405:Service/Srv_SensorMonitor.c ****                 if ((sample_tick <= obj->statistic_imu->min_sampling_overhead) || \
 523              		.loc 1 405 17 is_stmt 1 view .LVU176
 524              		.loc 1 405 40 is_stmt 0 view .LVU177
 525 00b2 E268     		ldr	r2, [r4, #12]
 526              		.loc 1 405 55 view .LVU178
 527 00b4 1169     		ldr	r1, [r2, #16]
 528              		.loc 1 405 34 view .LVU179
 529 00b6 4B46     		mov	r3, r9
 530              		.loc 1 405 20 view .LVU180
 531 00b8 4945     		cmp	r1, r9
 532 00ba 00D2     		bcs	.L37
 533              		.loc 1 405 80 discriminator 1 view .LVU181
 534 00bc 01B9     		cbnz	r1, .L38
 535              	.L37:
 406:Service/Srv_SensorMonitor.c ****                    (obj->statistic_imu->min_sampling_overhead == 0))
 407:Service/Srv_SensorMonitor.c ****                     obj->statistic_imu->min_sampling_overhead = sample_tick;
 536              		.loc 1 407 21 is_stmt 1 view .LVU182
 537              		.loc 1 407 63 is_stmt 0 view .LVU183
 538 00be 1361     		str	r3, [r2, #16]
 539              	.LVL68:
 540              	.L38:
 408:Service/Srv_SensorMonitor.c **** 
 409:Service/Srv_SensorMonitor.c ****                 if (sample_tick >= obj->statistic_imu->max_sampling_overhead)
 541              		.loc 1 409 17 is_stmt 1 view .LVU184
 542              		.loc 1 409 39 is_stmt 0 view .LVU185
 543 00c0 E268     		ldr	r2, [r4, #12]
 544              		.loc 1 409 54 view .LVU186
 545 00c2 D168     		ldr	r1, [r2, #12]
 546              		.loc 1 409 20 view .LVU187
 547 00c4 8B42     		cmp	r3, r1
 548 00c6 00D3     		bcc	.L39
 410:Service/Srv_SensorMonitor.c ****                     obj->statistic_imu->max_sampling_overhead = sample_tick;
 549              		.loc 1 410 21 is_stmt 1 view .LVU188
 550              		.loc 1 410 63 is_stmt 0 view .LVU189
ARM GAS  C:\Users\8bit\AppData\Local\Temp\ccoxdEfV.s 			page 18


 551 00c8 D360     		str	r3, [r2, #12]
 552              	.L39:
 411:Service/Srv_SensorMonitor.c **** 
 412:Service/Srv_SensorMonitor.c ****                 obj->statistic_imu->avg_sampling_overhead += sample_tick;
 553              		.loc 1 412 17 is_stmt 1 view .LVU190
 554              		.loc 1 412 20 is_stmt 0 view .LVU191
 555 00ca E168     		ldr	r1, [r4, #12]
 556              		.loc 1 412 59 view .LVU192
 557 00cc 4A69     		ldr	r2, [r1, #20]
 558 00ce 1A44     		add	r2, r2, r3
 559 00d0 4A61     		str	r2, [r1, #20]
 413:Service/Srv_SensorMonitor.c ****                 obj->statistic_imu->avg_sampling_overhead /= 2;
 560              		.loc 1 413 17 is_stmt 1 view .LVU193
 561              		.loc 1 413 20 is_stmt 0 view .LVU194
 562 00d2 E168     		ldr	r1, [r4, #12]
 563              		.loc 1 413 59 view .LVU195
 564 00d4 4A69     		ldr	r2, [r1, #20]
 565 00d6 5208     		lsrs	r2, r2, #1
 566 00d8 4A61     		str	r2, [r1, #20]
 414:Service/Srv_SensorMonitor.c **** 
 415:Service/Srv_SensorMonitor.c ****                 obj->statistic_imu->cur_sampling_overhead = sample_tick;
 567              		.loc 1 415 17 is_stmt 1 view .LVU196
 568              		.loc 1 415 20 is_stmt 0 view .LVU197
 569 00da E268     		ldr	r2, [r4, #12]
 570              		.loc 1 415 59 view .LVU198
 571 00dc 9360     		str	r3, [r2, #8]
 572 00de 03E0     		b	.L30
 573              	.LVL69:
 574              	.L49:
 361:Service/Srv_SensorMonitor.c **** 
 575              		.loc 1 361 13 view .LVU199
 576 00e0 4FF00009 		mov	r9, #0
 577              	.LVL70:
 361:Service/Srv_SensorMonitor.c **** 
 578              		.loc 1 361 13 view .LVU200
 579 00e4 E5E7     		b	.L36
 580              	.LVL71:
 581              	.L40:
 356:Service/Srv_SensorMonitor.c ****     uint32_t sample_interval_ms = 0;
 582              		.loc 1 356 10 view .LVU201
 583 00e6 0026     		movs	r6, #0
 584              	.LVL72:
 585              	.L30:
 416:Service/Srv_SensorMonitor.c ****             }
 417:Service/Srv_SensorMonitor.c ****         }
 418:Service/Srv_SensorMonitor.c ****     }
 419:Service/Srv_SensorMonitor.c **** 
 420:Service/Srv_SensorMonitor.c ****     return state;
 586              		.loc 1 420 5 is_stmt 1 view .LVU202
 421:Service/Srv_SensorMonitor.c **** }
 587              		.loc 1 421 1 is_stmt 0 view .LVU203
 588 00e8 3046     		mov	r0, r6
 589 00ea BDE8F883 		pop	{r3, r4, r5, r6, r7, r8, r9, pc}
 590              	.LVL73:
 591              	.L41:
 356:Service/Srv_SensorMonitor.c ****     uint32_t sample_interval_ms = 0;
 592              		.loc 1 356 10 view .LVU204
ARM GAS  C:\Users\8bit\AppData\Local\Temp\ccoxdEfV.s 			page 19


 593 00ee 0026     		movs	r6, #0
 594 00f0 FAE7     		b	.L30
 595              	.L42:
 596 00f2 0026     		movs	r6, #0
 597 00f4 F8E7     		b	.L30
 598              	.L43:
 599 00f6 0026     		movs	r6, #0
 600 00f8 F6E7     		b	.L30
 601              	.L44:
 602 00fa 0026     		movs	r6, #0
 603 00fc F4E7     		b	.L30
 604              	.LVL74:
 605              	.L45:
 356:Service/Srv_SensorMonitor.c ****     uint32_t sample_interval_ms = 0;
 606              		.loc 1 356 10 view .LVU205
 607 00fe 0026     		movs	r6, #0
 608 0100 F2E7     		b	.L30
 609              	.L46:
 610 0102 0026     		movs	r6, #0
 611 0104 F0E7     		b	.L30
 612              	.L47:
 613 0106 0026     		movs	r6, #0
 614 0108 EEE7     		b	.L30
 615              	.L48:
 616 010a 0026     		movs	r6, #0
 617 010c ECE7     		b	.L30
 618              	.L53:
 619 010e 00BF     		.align	2
 620              	.L52:
 621 0110 00000000 		.word	SrvOsCommon
 622 0114 00000000 		.word	SrvIMU
 623              		.cfi_endproc
 624              	.LFE152:
 626              		.section	.text.SrvSensorMonitor_Mag_Init,"ax",%progbits
 627              		.align	1
 628              		.syntax unified
 629              		.thumb
 630              		.thumb_func
 632              	SrvSensorMonitor_Mag_Init:
 633              	.LFB154:
 422:Service/Srv_SensorMonitor.c **** 
 423:Service/Srv_SensorMonitor.c **** static SrvIMU_UnionData_TypeDef SrvSensorMonitor_Get_IMUData(SrvSensorMonitorObj_TypeDef *obj)
 424:Service/Srv_SensorMonitor.c **** {
 425:Service/Srv_SensorMonitor.c ****     SrvIMU_UnionData_TypeDef imu_data_tmp;
 426:Service/Srv_SensorMonitor.c **** 
 427:Service/Srv_SensorMonitor.c ****     memset(&imu_data_tmp, 0, sizeof(SrvIMU_UnionData_TypeDef));
 428:Service/Srv_SensorMonitor.c **** 
 429:Service/Srv_SensorMonitor.c ****     if (obj && obj->enabled_reg.bit.imu && obj->init_state_reg.bit.imu && SrvIMU.get_data)
 430:Service/Srv_SensorMonitor.c ****     {
 431:Service/Srv_SensorMonitor.c ****         if (SrvIMU.get_data(SrvIMU_FusModule, &imu_data_tmp.data))
 432:Service/Srv_SensorMonitor.c ****         {
 433:Service/Srv_SensorMonitor.c ****             /*
 434:Service/Srv_SensorMonitor.c ****             * adjust imu axis coordinate as 
 435:Service/Srv_SensorMonitor.c ****             * x -----> forward
 436:Service/Srv_SensorMonitor.c ****             * y -----> right
 437:Service/Srv_SensorMonitor.c ****             * z -----> down 
 438:Service/Srv_SensorMonitor.c ****             **/
ARM GAS  C:\Users\8bit\AppData\Local\Temp\ccoxdEfV.s 			page 20


 439:Service/Srv_SensorMonitor.c ****             for (uint8_t chk = 0; chk < sizeof(SrvIMU_UnionData_TypeDef) - sizeof(uint16_t); chk++)
 440:Service/Srv_SensorMonitor.c ****             {
 441:Service/Srv_SensorMonitor.c ****                 imu_data_tmp.data.chk_sum += imu_data_tmp.buff[chk];
 442:Service/Srv_SensorMonitor.c ****             }
 443:Service/Srv_SensorMonitor.c **** 
 444:Service/Srv_SensorMonitor.c ****             obj->lst_imu_data.data = imu_data_tmp.data;
 445:Service/Srv_SensorMonitor.c ****         }
 446:Service/Srv_SensorMonitor.c ****         else
 447:Service/Srv_SensorMonitor.c ****             imu_data_tmp.data = obj->lst_imu_data.data;
 448:Service/Srv_SensorMonitor.c ****     }
 449:Service/Srv_SensorMonitor.c ****     else
 450:Service/Srv_SensorMonitor.c ****         imu_data_tmp = obj->lst_imu_data;
 451:Service/Srv_SensorMonitor.c **** 
 452:Service/Srv_SensorMonitor.c ****     return imu_data_tmp;
 453:Service/Srv_SensorMonitor.c **** }
 454:Service/Srv_SensorMonitor.c **** 
 455:Service/Srv_SensorMonitor.c **** /******************************************* Mag Section ******************************************
 456:Service/Srv_SensorMonitor.c **** /* still in developing */
 457:Service/Srv_SensorMonitor.c **** static bool SrvSensorMonitor_Mag_Init(void)
 458:Service/Srv_SensorMonitor.c **** {
 634              		.loc 1 458 1 is_stmt 1 view -0
 635              		.cfi_startproc
 636              		@ args = 0, pretend = 0, frame = 0
 637              		@ frame_needed = 0, uses_anonymous_args = 0
 638              		@ link register save eliminated.
 459:Service/Srv_SensorMonitor.c ****     return false;
 639              		.loc 1 459 5 view .LVU207
 460:Service/Srv_SensorMonitor.c **** }
 640              		.loc 1 460 1 is_stmt 0 view .LVU208
 641 0000 0020     		movs	r0, #0
 642 0002 7047     		bx	lr
 643              		.cfi_endproc
 644              	.LFE154:
 646              		.section	.text.SrvSensorMonitor_Mag_SampleCTL,"ax",%progbits
 647              		.align	1
 648              		.syntax unified
 649              		.thumb
 650              		.thumb_func
 652              	SrvSensorMonitor_Mag_SampleCTL:
 653              	.LVL75:
 654              	.LFB155:
 461:Service/Srv_SensorMonitor.c **** 
 462:Service/Srv_SensorMonitor.c **** static bool SrvSensorMonitor_Mag_SampleCTL(SrvSensorMonitorObj_TypeDef *obj)
 463:Service/Srv_SensorMonitor.c **** {
 655              		.loc 1 463 1 is_stmt 1 view -0
 656              		.cfi_startproc
 657              		@ args = 0, pretend = 0, frame = 0
 658              		@ frame_needed = 0, uses_anonymous_args = 0
 659              		@ link register save eliminated.
 464:Service/Srv_SensorMonitor.c ****     if (obj && obj->enabled_reg.bit.mag && obj->init_state_reg.bit.mag)
 660              		.loc 1 464 5 view .LVU210
 465:Service/Srv_SensorMonitor.c ****     {
 466:Service/Srv_SensorMonitor.c ****         
 467:Service/Srv_SensorMonitor.c ****     }
 661              		.loc 1 467 5 view .LVU211
 468:Service/Srv_SensorMonitor.c **** 
 469:Service/Srv_SensorMonitor.c ****     return false;
ARM GAS  C:\Users\8bit\AppData\Local\Temp\ccoxdEfV.s 			page 21


 662              		.loc 1 469 5 view .LVU212
 470:Service/Srv_SensorMonitor.c **** }
 663              		.loc 1 470 1 is_stmt 0 view .LVU213
 664 0000 0020     		movs	r0, #0
 665              	.LVL76:
 666              		.loc 1 470 1 view .LVU214
 667 0002 7047     		bx	lr
 668              		.cfi_endproc
 669              	.LFE155:
 671              		.section	.text.SrvSensorMonitor_Baro_SampleCTL,"ax",%progbits
 672              		.align	1
 673              		.syntax unified
 674              		.thumb
 675              		.thumb_func
 677              	SrvSensorMonitor_Baro_SampleCTL:
 678              	.LVL77:
 679              	.LFB158:
 471:Service/Srv_SensorMonitor.c **** 
 472:Service/Srv_SensorMonitor.c **** static uint32_t SrvSensorMonitor_Get_MagData(SrvSensorMonitorObj_TypeDef *obj)
 473:Service/Srv_SensorMonitor.c **** {
 474:Service/Srv_SensorMonitor.c ****     return 0;
 475:Service/Srv_SensorMonitor.c **** }
 476:Service/Srv_SensorMonitor.c **** 
 477:Service/Srv_SensorMonitor.c **** /******************************************* Baro Section *****************************************
 478:Service/Srv_SensorMonitor.c **** static bool SrvSensorMonitor_Baro_Init(SrvSensorMonitorObj_TypeDef *obj)
 479:Service/Srv_SensorMonitor.c **** {
 480:Service/Srv_SensorMonitor.c ****     if (SrvBaro.init && obj)
 481:Service/Srv_SensorMonitor.c ****     {
 482:Service/Srv_SensorMonitor.c ****         obj->baro_type = BARO_TYPE;
 483:Service/Srv_SensorMonitor.c ****         obj->baro_bus_type = BARO_BUS_TYPE;
 484:Service/Srv_SensorMonitor.c ****         obj->baro_err = SrvBaro.init(BARO_TYPE, BARO_BUS_TYPE);
 485:Service/Srv_SensorMonitor.c **** 
 486:Service/Srv_SensorMonitor.c ****         if (obj->baro_err == SrvBaro_Error_None)
 487:Service/Srv_SensorMonitor.c ****         {
 488:Service/Srv_SensorMonitor.c ****             MONITOR_INFO("Baro init accomplished\r\n");
 489:Service/Srv_SensorMonitor.c ****             return true;
 490:Service/Srv_SensorMonitor.c ****         }
 491:Service/Srv_SensorMonitor.c ****         MONITOR_INFO("Baro init failed\r\n");
 492:Service/Srv_SensorMonitor.c ****     }
 493:Service/Srv_SensorMonitor.c **** 
 494:Service/Srv_SensorMonitor.c ****     return false;
 495:Service/Srv_SensorMonitor.c **** }
 496:Service/Srv_SensorMonitor.c **** 
 497:Service/Srv_SensorMonitor.c **** static bool SrvSensorMonitor_Baro_SampleCTL(SrvSensorMonitorObj_TypeDef *obj)
 498:Service/Srv_SensorMonitor.c **** {
 680              		.loc 1 498 1 is_stmt 1 view -0
 681              		.cfi_startproc
 682              		@ args = 0, pretend = 0, frame = 0
 683              		@ frame_needed = 0, uses_anonymous_args = 0
 684              		.loc 1 498 1 is_stmt 0 view .LVU216
 685 0000 2DE9F843 		push	{r3, r4, r5, r6, r7, r8, r9, lr}
 686              	.LCFI1:
 687              		.cfi_def_cfa_offset 32
 688              		.cfi_offset 3, -32
 689              		.cfi_offset 4, -28
 690              		.cfi_offset 5, -24
 691              		.cfi_offset 6, -20
ARM GAS  C:\Users\8bit\AppData\Local\Temp\ccoxdEfV.s 			page 22


 692              		.cfi_offset 7, -16
 693              		.cfi_offset 8, -12
 694              		.cfi_offset 9, -8
 695              		.cfi_offset 14, -4
 696 0004 0446     		mov	r4, r0
 499:Service/Srv_SensorMonitor.c ****     bool state = false;
 697              		.loc 1 499 5 is_stmt 1 view .LVU217
 698              	.LVL78:
 500:Service/Srv_SensorMonitor.c ****     uint32_t sample_interval_ms = 0;
 699              		.loc 1 500 5 view .LVU218
 501:Service/Srv_SensorMonitor.c ****     uint32_t cur_time = SrvOsCommon.get_os_ms();
 700              		.loc 1 501 5 view .LVU219
 701              		.loc 1 501 36 is_stmt 0 view .LVU220
 702 0006 3D4B     		ldr	r3, .L78
 703 0008 5B68     		ldr	r3, [r3, #4]
 704              		.loc 1 501 25 view .LVU221
 705 000a 9847     		blx	r3
 706              	.LVL79:
 502:Service/Srv_SensorMonitor.c ****     uint32_t start_tick = 0;
 707              		.loc 1 502 5 is_stmt 1 view .LVU222
 503:Service/Srv_SensorMonitor.c ****     uint32_t end_tick = 0;
 708              		.loc 1 503 5 view .LVU223
 504:Service/Srv_SensorMonitor.c ****     int32_t sample_tick = 0;
 709              		.loc 1 504 5 view .LVU224
 505:Service/Srv_SensorMonitor.c **** 
 506:Service/Srv_SensorMonitor.c ****     if (obj && obj->enabled_reg.bit.baro && obj->init_state_reg.bit.baro && obj->freq_reg.bit.baro 
 710              		.loc 1 506 5 view .LVU225
 711              		.loc 1 506 8 is_stmt 0 view .LVU226
 712 000c 002C     		cmp	r4, #0
 713 000e 63D0     		beq	.L67
 714 0010 0546     		mov	r5, r0
 715              		.loc 1 506 13 discriminator 1 view .LVU227
 716 0012 2378     		ldrb	r3, [r4]	@ zero_extendqisi2
 717 0014 13F0040F 		tst	r3, #4
 718 0018 60D0     		beq	.L68
 719              		.loc 1 506 42 discriminator 2 view .LVU228
 720 001a 2379     		ldrb	r3, [r4, #4]	@ zero_extendqisi2
 721 001c 13F0040F 		tst	r3, #4
 722 0020 60D0     		beq	.L69
 723              		.loc 1 506 74 discriminator 3 view .LVU229
 724 0022 637A     		ldrb	r3, [r4, #9]	@ zero_extendqisi2
 725 0024 13F00F0F 		tst	r3, #15
 726 0028 5ED0     		beq	.L70
 727              		.loc 1 506 106 discriminator 4 view .LVU230
 728 002a 6269     		ldr	r2, [r4, #20]
 729              		.loc 1 506 122 discriminator 4 view .LVU231
 730 002c 936A     		ldr	r3, [r2, #40]
 731              		.loc 1 506 100 discriminator 4 view .LVU232
 732 002e 002B     		cmp	r3, #0
 733 0030 5CD0     		beq	.L71
 507:Service/Srv_SensorMonitor.c ****     {
 508:Service/Srv_SensorMonitor.c ****         sample_interval_ms = SrvSensorMonitor_GetSampleInterval(obj->statistic_baro->set_period);
 734              		.loc 1 508 9 is_stmt 1 view .LVU233
 735              		.loc 1 508 28 is_stmt 0 view .LVU234
 736 0032 4FF47A71 		mov	r1, #1000
 737 0036 B1FBF3F7 		udiv	r7, r1, r3
 738              	.LVL80:
ARM GAS  C:\Users\8bit\AppData\Local\Temp\ccoxdEfV.s 			page 23


 509:Service/Srv_SensorMonitor.c ****     
 510:Service/Srv_SensorMonitor.c ****         if (SrvBaro.sample && \
 739              		.loc 1 510 9 is_stmt 1 view .LVU235
 740              		.loc 1 510 20 is_stmt 0 view .LVU236
 741 003a 3149     		ldr	r1, .L78+4
 742 003c 4968     		ldr	r1, [r1, #4]
 743              		.loc 1 510 12 view .LVU237
 744 003e 0029     		cmp	r1, #0
 745 0040 56D0     		beq	.L72
 511:Service/Srv_SensorMonitor.c ****             ((obj->statistic_baro->start_time == 0) || \
 746              		.loc 1 511 34 discriminator 1 view .LVU238
 747 0042 1168     		ldr	r1, [r2]
 510:Service/Srv_SensorMonitor.c ****             ((obj->statistic_baro->start_time == 0) || \
 748              		.loc 1 510 28 discriminator 1 view .LVU239
 749 0044 29B1     		cbz	r1, .L58
 750              		.loc 1 511 53 view .LVU240
 751 0046 B3F57A7F 		cmp	r3, #1000
 752 004a 53D8     		bhi	.L73
 512:Service/Srv_SensorMonitor.c ****              (sample_interval_ms && \
 513:Service/Srv_SensorMonitor.c ****              (cur_time >= obj->statistic_baro->nxt_sample_time))))
 753              		.loc 1 513 46 view .LVU241
 754 004c 5368     		ldr	r3, [r2, #4]
 512:Service/Srv_SensorMonitor.c ****              (sample_interval_ms && \
 755              		.loc 1 512 34 view .LVU242
 756 004e 8342     		cmp	r3, r0
 757 0050 52D8     		bhi	.L74
 758              	.L58:
 514:Service/Srv_SensorMonitor.c ****         {
 515:Service/Srv_SensorMonitor.c ****             start_tick = SrvOsCommon.get_systimer_current_tick();
 759              		.loc 1 515 13 is_stmt 1 view .LVU243
 760              		.loc 1 515 37 is_stmt 0 view .LVU244
 761 0052 2A4B     		ldr	r3, .L78
 762 0054 1B69     		ldr	r3, [r3, #16]
 763              		.loc 1 515 26 view .LVU245
 764 0056 9847     		blx	r3
 765              	.LVL81:
 766              		.loc 1 515 26 view .LVU246
 767 0058 8046     		mov	r8, r0
 768              	.LVL82:
 516:Service/Srv_SensorMonitor.c **** 
 517:Service/Srv_SensorMonitor.c ****             // DebugPin.ctl(Debug_PB5, true);
 518:Service/Srv_SensorMonitor.c ****             if (SrvBaro.sample())
 769              		.loc 1 518 13 is_stmt 1 view .LVU247
 770              		.loc 1 518 24 is_stmt 0 view .LVU248
 771 005a 294B     		ldr	r3, .L78+4
 772 005c 5B68     		ldr	r3, [r3, #4]
 773              		.loc 1 518 17 view .LVU249
 774 005e 9847     		blx	r3
 775              	.LVL83:
 776              		.loc 1 518 16 view .LVU250
 777 0060 0646     		mov	r6, r0
 778 0062 C8B1     		cbz	r0, .L59
 519:Service/Srv_SensorMonitor.c ****             {
 520:Service/Srv_SensorMonitor.c ****                 end_tick = SrvOsCommon.get_systimer_current_tick();
 779              		.loc 1 520 17 is_stmt 1 view .LVU251
 780              		.loc 1 520 39 is_stmt 0 view .LVU252
 781 0064 254B     		ldr	r3, .L78
ARM GAS  C:\Users\8bit\AppData\Local\Temp\ccoxdEfV.s 			page 24


 782 0066 1B69     		ldr	r3, [r3, #16]
 783              		.loc 1 520 28 view .LVU253
 784 0068 9847     		blx	r3
 785              	.LVL84:
 786 006a 8146     		mov	r9, r0
 787              	.LVL85:
 521:Service/Srv_SensorMonitor.c **** 
 522:Service/Srv_SensorMonitor.c ****                 obj->statistic_baro->sample_cnt ++;
 788              		.loc 1 522 17 is_stmt 1 view .LVU254
 789              		.loc 1 522 20 is_stmt 0 view .LVU255
 790 006c 6269     		ldr	r2, [r4, #20]
 791              		.loc 1 522 36 view .LVU256
 792 006e D369     		ldr	r3, [r2, #28]
 793              		.loc 1 522 49 view .LVU257
 794 0070 0133     		adds	r3, r3, #1
 795 0072 D361     		str	r3, [r2, #28]
 523:Service/Srv_SensorMonitor.c ****                 obj->statistic_baro->nxt_sample_time = cur_time + sample_interval_ms;
 796              		.loc 1 523 17 is_stmt 1 view .LVU258
 797              		.loc 1 523 20 is_stmt 0 view .LVU259
 798 0074 6369     		ldr	r3, [r4, #20]
 799              		.loc 1 523 65 view .LVU260
 800 0076 2F44     		add	r7, r7, r5
 801              	.LVL86:
 802              		.loc 1 523 54 view .LVU261
 803 0078 5F60     		str	r7, [r3, #4]
 524:Service/Srv_SensorMonitor.c ****                 if (obj->statistic_baro->start_time == 0)
 804              		.loc 1 524 17 is_stmt 1 view .LVU262
 805              		.loc 1 524 24 is_stmt 0 view .LVU263
 806 007a 6369     		ldr	r3, [r4, #20]
 807              		.loc 1 524 40 view .LVU264
 808 007c 1A68     		ldr	r2, [r3]
 809              		.loc 1 524 20 view .LVU265
 810 007e 02B9     		cbnz	r2, .L60
 525:Service/Srv_SensorMonitor.c ****                     obj->statistic_baro->start_time = cur_time;
 811              		.loc 1 525 21 is_stmt 1 view .LVU266
 812              		.loc 1 525 53 is_stmt 0 view .LVU267
 813 0080 1D60     		str	r5, [r3]
 814              	.L60:
 526:Service/Srv_SensorMonitor.c **** 
 527:Service/Srv_SensorMonitor.c ****                 state = true;
 815              		.loc 1 527 17 is_stmt 1 view .LVU268
 816              	.LVL87:
 528:Service/Srv_SensorMonitor.c ****             }
 529:Service/Srv_SensorMonitor.c ****             else
 530:Service/Srv_SensorMonitor.c ****                 end_tick = SrvOsCommon.get_systimer_current_tick();
 531:Service/Srv_SensorMonitor.c ****             // DebugPin.ctl(Debug_PB5, false);
 532:Service/Srv_SensorMonitor.c ****         
 533:Service/Srv_SensorMonitor.c ****             if (state)
 817              		.loc 1 533 13 view .LVU269
 534:Service/Srv_SensorMonitor.c ****             {
 535:Service/Srv_SensorMonitor.c ****                 if (start_tick < end_tick)
 818              		.loc 1 535 17 view .LVU270
 819              		.loc 1 535 20 is_stmt 0 view .LVU271
 820 0082 C845     		cmp	r8, r9
 821 0084 0CD3     		bcc	.L61
 536:Service/Srv_SensorMonitor.c ****                 {
 537:Service/Srv_SensorMonitor.c ****                     sample_tick = end_tick - start_tick;
ARM GAS  C:\Users\8bit\AppData\Local\Temp\ccoxdEfV.s 			page 25


 538:Service/Srv_SensorMonitor.c ****                 }
 539:Service/Srv_SensorMonitor.c ****                 else if (start_tick > end_tick)
 822              		.loc 1 539 22 is_stmt 1 view .LVU272
 823              		.loc 1 539 25 is_stmt 0 view .LVU273
 824 0086 C845     		cmp	r8, r9
 825 0088 23D9     		bls	.L75
 540:Service/Srv_SensorMonitor.c ****                 {
 541:Service/Srv_SensorMonitor.c ****                     /* must after timer irq */
 542:Service/Srv_SensorMonitor.c ****                     sample_tick = SrvOsCommon.get_systimer_period() - start_tick + end_tick;
 826              		.loc 1 542 21 is_stmt 1 view .LVU274
 827              		.loc 1 542 46 is_stmt 0 view .LVU275
 828 008a 1C4B     		ldr	r3, .L78
 829 008c 5B69     		ldr	r3, [r3, #20]
 830              		.loc 1 542 35 view .LVU276
 831 008e 9847     		blx	r3
 832              	.LVL88:
 833              		.loc 1 542 69 view .LVU277
 834 0090 A0EB0808 		sub	r8, r0, r8
 835              	.LVL89:
 836              		.loc 1 542 82 view .LVU278
 837 0094 C144     		add	r9, r9, r8
 838              	.LVL90:
 839              		.loc 1 542 82 view .LVU279
 840 0096 05E0     		b	.L63
 841              	.LVL91:
 842              	.L59:
 530:Service/Srv_SensorMonitor.c ****             // DebugPin.ctl(Debug_PB5, false);
 843              		.loc 1 530 17 is_stmt 1 view .LVU280
 530:Service/Srv_SensorMonitor.c ****             // DebugPin.ctl(Debug_PB5, false);
 844              		.loc 1 530 39 is_stmt 0 view .LVU281
 845 0098 184B     		ldr	r3, .L78
 846 009a 1B69     		ldr	r3, [r3, #16]
 530:Service/Srv_SensorMonitor.c ****             // DebugPin.ctl(Debug_PB5, false);
 847              		.loc 1 530 28 view .LVU282
 848 009c 9847     		blx	r3
 849              	.LVL92:
 533:Service/Srv_SensorMonitor.c ****             {
 850              		.loc 1 533 13 is_stmt 1 view .LVU283
 851 009e 1EE0     		b	.L57
 852              	.LVL93:
 853              	.L61:
 537:Service/Srv_SensorMonitor.c ****                 }
 854              		.loc 1 537 21 view .LVU284
 537:Service/Srv_SensorMonitor.c ****                 }
 855              		.loc 1 537 44 is_stmt 0 view .LVU285
 856 00a0 A9EB0809 		sub	r9, r9, r8
 857              	.LVL94:
 858              	.L63:
 543:Service/Srv_SensorMonitor.c ****                 }
 544:Service/Srv_SensorMonitor.c **** 
 545:Service/Srv_SensorMonitor.c ****                 if ((sample_tick <= obj->statistic_baro->min_sampling_overhead) || \
 859              		.loc 1 545 17 is_stmt 1 view .LVU286
 860              		.loc 1 545 40 is_stmt 0 view .LVU287
 861 00a4 6269     		ldr	r2, [r4, #20]
 862              		.loc 1 545 56 view .LVU288
 863 00a6 1169     		ldr	r1, [r2, #16]
 864              		.loc 1 545 34 view .LVU289
ARM GAS  C:\Users\8bit\AppData\Local\Temp\ccoxdEfV.s 			page 26


 865 00a8 4B46     		mov	r3, r9
 866              		.loc 1 545 20 view .LVU290
 867 00aa 4945     		cmp	r1, r9
 868 00ac 00D2     		bcs	.L64
 869              		.loc 1 545 81 discriminator 1 view .LVU291
 870 00ae 01B9     		cbnz	r1, .L65
 871              	.L64:
 546:Service/Srv_SensorMonitor.c ****                     (obj->statistic_baro->min_sampling_overhead == 0))
 547:Service/Srv_SensorMonitor.c ****                     obj->statistic_baro->min_sampling_overhead = sample_tick;
 872              		.loc 1 547 21 is_stmt 1 view .LVU292
 873              		.loc 1 547 64 is_stmt 0 view .LVU293
 874 00b0 1361     		str	r3, [r2, #16]
 875              	.LVL95:
 876              	.L65:
 548:Service/Srv_SensorMonitor.c **** 
 549:Service/Srv_SensorMonitor.c ****                 if (sample_tick >= obj->statistic_baro->max_sampling_overhead)
 877              		.loc 1 549 17 is_stmt 1 view .LVU294
 878              		.loc 1 549 39 is_stmt 0 view .LVU295
 879 00b2 6269     		ldr	r2, [r4, #20]
 880              		.loc 1 549 55 view .LVU296
 881 00b4 D168     		ldr	r1, [r2, #12]
 882              		.loc 1 549 20 view .LVU297
 883 00b6 8B42     		cmp	r3, r1
 884 00b8 00D3     		bcc	.L66
 550:Service/Srv_SensorMonitor.c ****                     obj->statistic_baro->max_sampling_overhead = sample_tick;
 885              		.loc 1 550 21 is_stmt 1 view .LVU298
 886              		.loc 1 550 64 is_stmt 0 view .LVU299
 887 00ba D360     		str	r3, [r2, #12]
 888              	.L66:
 551:Service/Srv_SensorMonitor.c **** 
 552:Service/Srv_SensorMonitor.c ****                 obj->statistic_baro->avg_sampling_overhead += sample_tick;
 889              		.loc 1 552 17 is_stmt 1 view .LVU300
 890              		.loc 1 552 20 is_stmt 0 view .LVU301
 891 00bc 6169     		ldr	r1, [r4, #20]
 892              		.loc 1 552 60 view .LVU302
 893 00be 4A69     		ldr	r2, [r1, #20]
 894 00c0 1A44     		add	r2, r2, r3
 895 00c2 4A61     		str	r2, [r1, #20]
 553:Service/Srv_SensorMonitor.c ****                 obj->statistic_baro->avg_sampling_overhead /= 2;
 896              		.loc 1 553 17 is_stmt 1 view .LVU303
 897              		.loc 1 553 20 is_stmt 0 view .LVU304
 898 00c4 6169     		ldr	r1, [r4, #20]
 899              		.loc 1 553 60 view .LVU305
 900 00c6 4A69     		ldr	r2, [r1, #20]
 901 00c8 5208     		lsrs	r2, r2, #1
 902 00ca 4A61     		str	r2, [r1, #20]
 554:Service/Srv_SensorMonitor.c **** 
 555:Service/Srv_SensorMonitor.c ****                 obj->statistic_baro->cur_sampling_overhead = sample_tick;
 903              		.loc 1 555 17 is_stmt 1 view .LVU306
 904              		.loc 1 555 20 is_stmt 0 view .LVU307
 905 00cc 6269     		ldr	r2, [r4, #20]
 906              		.loc 1 555 60 view .LVU308
 907 00ce 9360     		str	r3, [r2, #8]
 908 00d0 05E0     		b	.L57
 909              	.LVL96:
 910              	.L75:
 504:Service/Srv_SensorMonitor.c **** 
ARM GAS  C:\Users\8bit\AppData\Local\Temp\ccoxdEfV.s 			page 27


 911              		.loc 1 504 13 view .LVU309
 912 00d2 4FF00009 		mov	r9, #0
 913 00d6 E5E7     		b	.L63
 914              	.LVL97:
 915              	.L67:
 499:Service/Srv_SensorMonitor.c ****     uint32_t sample_interval_ms = 0;
 916              		.loc 1 499 10 view .LVU310
 917 00d8 0026     		movs	r6, #0
 918 00da 00E0     		b	.L57
 919              	.L68:
 499:Service/Srv_SensorMonitor.c ****     uint32_t sample_interval_ms = 0;
 920              		.loc 1 499 10 view .LVU311
 921 00dc 0026     		movs	r6, #0
 922              	.LVL98:
 923              	.L57:
 556:Service/Srv_SensorMonitor.c ****             }
 557:Service/Srv_SensorMonitor.c ****         }
 558:Service/Srv_SensorMonitor.c ****     }
 559:Service/Srv_SensorMonitor.c **** 
 560:Service/Srv_SensorMonitor.c ****     return state;
 924              		.loc 1 560 5 is_stmt 1 view .LVU312
 561:Service/Srv_SensorMonitor.c **** }
 925              		.loc 1 561 1 is_stmt 0 view .LVU313
 926 00de 3046     		mov	r0, r6
 927 00e0 BDE8F883 		pop	{r3, r4, r5, r6, r7, r8, r9, pc}
 928              	.LVL99:
 929              	.L69:
 499:Service/Srv_SensorMonitor.c ****     uint32_t sample_interval_ms = 0;
 930              		.loc 1 499 10 view .LVU314
 931 00e4 0026     		movs	r6, #0
 932 00e6 FAE7     		b	.L57
 933              	.L70:
 934 00e8 0026     		movs	r6, #0
 935 00ea F8E7     		b	.L57
 936              	.L71:
 937 00ec 0026     		movs	r6, #0
 938 00ee F6E7     		b	.L57
 939              	.LVL100:
 940              	.L72:
 499:Service/Srv_SensorMonitor.c ****     uint32_t sample_interval_ms = 0;
 941              		.loc 1 499 10 view .LVU315
 942 00f0 0026     		movs	r6, #0
 943 00f2 F4E7     		b	.L57
 944              	.L73:
 945 00f4 0026     		movs	r6, #0
 946 00f6 F2E7     		b	.L57
 947              	.L74:
 948 00f8 0026     		movs	r6, #0
 949 00fa F0E7     		b	.L57
 950              	.L79:
 951              		.align	2
 952              	.L78:
 953 00fc 00000000 		.word	SrvOsCommon
 954 0100 00000000 		.word	SrvBaro
 955              		.cfi_endproc
 956              	.LFE158:
 958              		.section	.text.SrvSensorMonitor_Flow_Init,"ax",%progbits
ARM GAS  C:\Users\8bit\AppData\Local\Temp\ccoxdEfV.s 			page 28


 959              		.align	1
 960              		.syntax unified
 961              		.thumb
 962              		.thumb_func
 964              	SrvSensorMonitor_Flow_Init:
 965              	.LFB160:
 562:Service/Srv_SensorMonitor.c **** 
 563:Service/Srv_SensorMonitor.c **** static SrvBaro_UnionData_TypeDef SrvSensorMonitor_Get_BaroData(SrvSensorMonitorObj_TypeDef *obj)
 564:Service/Srv_SensorMonitor.c **** {
 565:Service/Srv_SensorMonitor.c ****     SrvBaro_UnionData_TypeDef baro_data_tmp;
 566:Service/Srv_SensorMonitor.c **** 
 567:Service/Srv_SensorMonitor.c ****     memset(&baro_data_tmp, 0, sizeof(SrvBaro_UnionData_TypeDef));
 568:Service/Srv_SensorMonitor.c **** 
 569:Service/Srv_SensorMonitor.c ****     if (obj && obj->enabled_reg.bit.baro && obj->init_state_reg.bit.baro && SrvBaro.get_data)
 570:Service/Srv_SensorMonitor.c ****     {
 571:Service/Srv_SensorMonitor.c ****         if (SrvBaro.get_data(&baro_data_tmp))
 572:Service/Srv_SensorMonitor.c ****         {
 573:Service/Srv_SensorMonitor.c ****             obj->lst_baro_data.data = baro_data_tmp.data;
 574:Service/Srv_SensorMonitor.c ****         }
 575:Service/Srv_SensorMonitor.c ****         else
 576:Service/Srv_SensorMonitor.c ****             baro_data_tmp.data = obj->lst_baro_data.data;
 577:Service/Srv_SensorMonitor.c ****     }
 578:Service/Srv_SensorMonitor.c **** 
 579:Service/Srv_SensorMonitor.c ****     return baro_data_tmp;
 580:Service/Srv_SensorMonitor.c **** }
 581:Service/Srv_SensorMonitor.c **** 
 582:Service/Srv_SensorMonitor.c **** /******************************************* Flow Section *****************************************
 583:Service/Srv_SensorMonitor.c **** static bool SrvSensorMonitor_Flow_Init(void)
 584:Service/Srv_SensorMonitor.c **** {
 966              		.loc 1 584 1 is_stmt 1 view -0
 967              		.cfi_startproc
 968              		@ args = 0, pretend = 0, frame = 0
 969              		@ frame_needed = 0, uses_anonymous_args = 0
 970              		@ link register save eliminated.
 585:Service/Srv_SensorMonitor.c ****     // return SrvFlow.init(FLOW_TYPE);
 586:Service/Srv_SensorMonitor.c ****     return false;
 971              		.loc 1 586 5 view .LVU317
 587:Service/Srv_SensorMonitor.c **** }
 972              		.loc 1 587 1 is_stmt 0 view .LVU318
 973 0000 0020     		movs	r0, #0
 974 0002 7047     		bx	lr
 975              		.cfi_endproc
 976              	.LFE160:
 978              		.section	.text.SrvSensorMonitor_SampleCTL,"ax",%progbits
 979              		.align	1
 980              		.syntax unified
 981              		.thumb
 982              		.thumb_func
 984              	SrvSensorMonitor_SampleCTL:
 985              	.LVL101:
 986              	.LFB162:
 588:Service/Srv_SensorMonitor.c **** 
 589:Service/Srv_SensorMonitor.c **** static bool SrvSensorMonitor_Flow_SampleCTL(SrvSensorMonitorObj_TypeDef *obj)
 590:Service/Srv_SensorMonitor.c **** {
 591:Service/Srv_SensorMonitor.c ****     uint32_t sample_interval_ms = 0;
 592:Service/Srv_SensorMonitor.c ****     uint32_t cur_time = 0;
 593:Service/Srv_SensorMonitor.c ****     uint32_t start_tick = 0;
ARM GAS  C:\Users\8bit\AppData\Local\Temp\ccoxdEfV.s 			page 29


 594:Service/Srv_SensorMonitor.c ****     uint32_t end_tick = 0;
 595:Service/Srv_SensorMonitor.c ****     uint32_t sample_tick = 0;
 596:Service/Srv_SensorMonitor.c ****     bool state = false;
 597:Service/Srv_SensorMonitor.c **** 
 598:Service/Srv_SensorMonitor.c ****     if (obj && obj->enabled_reg.bit.flow && obj->init_state_reg.bit.flow && obj->freq_reg.bit.flow 
 599:Service/Srv_SensorMonitor.c ****     {
 600:Service/Srv_SensorMonitor.c ****         sample_interval_ms = SrvSensorMonitor_GetSampleInterval(obj->statistic_flow->set_period);
 601:Service/Srv_SensorMonitor.c **** 
 602:Service/Srv_SensorMonitor.c ****         if (SrvFlow.sample && \
 603:Service/Srv_SensorMonitor.c ****             ((obj->statistic_flow->start_time == 0) || \
 604:Service/Srv_SensorMonitor.c ****              (sample_interval_ms && \
 605:Service/Srv_SensorMonitor.c ****              (cur_time >= obj->statistic_baro->nxt_sample_time))))
 606:Service/Srv_SensorMonitor.c ****         {
 607:Service/Srv_SensorMonitor.c ****             start_tick = SrvOsCommon.get_systimer_current_tick();
 608:Service/Srv_SensorMonitor.c ****             if (SrvFlow.sample(FLOW_TYPE))
 609:Service/Srv_SensorMonitor.c ****             {
 610:Service/Srv_SensorMonitor.c ****                 end_tick = SrvOsCommon.get_systimer_current_tick();
 611:Service/Srv_SensorMonitor.c **** 
 612:Service/Srv_SensorMonitor.c ****                 obj->statistic_baro->sample_cnt ++;
 613:Service/Srv_SensorMonitor.c ****                 obj->statistic_baro->nxt_sample_time = cur_time + sample_interval_ms;
 614:Service/Srv_SensorMonitor.c ****                 if (obj->statistic_baro->start_time == 0)
 615:Service/Srv_SensorMonitor.c ****                     obj->statistic_baro->start_time = cur_time;
 616:Service/Srv_SensorMonitor.c **** 
 617:Service/Srv_SensorMonitor.c ****                 state = true;
 618:Service/Srv_SensorMonitor.c ****             }
 619:Service/Srv_SensorMonitor.c ****             else
 620:Service/Srv_SensorMonitor.c ****                 end_tick = SrvOsCommon.get_systimer_current_tick();
 621:Service/Srv_SensorMonitor.c **** 
 622:Service/Srv_SensorMonitor.c ****             /* get flow sensor sample over head */
 623:Service/Srv_SensorMonitor.c ****             if (state)
 624:Service/Srv_SensorMonitor.c ****             {
 625:Service/Srv_SensorMonitor.c ****                 if (start_tick < end_tick)
 626:Service/Srv_SensorMonitor.c ****                 {
 627:Service/Srv_SensorMonitor.c ****                     sample_tick = end_tick - start_tick;
 628:Service/Srv_SensorMonitor.c ****                 }
 629:Service/Srv_SensorMonitor.c ****                 else if (start_tick > end_tick)
 630:Service/Srv_SensorMonitor.c ****                 {
 631:Service/Srv_SensorMonitor.c ****                     /* must after timer irq */
 632:Service/Srv_SensorMonitor.c ****                     sample_tick = SrvOsCommon.get_systimer_period() - start_tick + end_tick;
 633:Service/Srv_SensorMonitor.c ****                 }
 634:Service/Srv_SensorMonitor.c **** 
 635:Service/Srv_SensorMonitor.c ****                 if ((sample_tick <= obj->statistic_flow->min_sampling_overhead) || \
 636:Service/Srv_SensorMonitor.c ****                    (obj->statistic_flow->min_sampling_overhead == 0))
 637:Service/Srv_SensorMonitor.c ****                     obj->statistic_flow->min_sampling_overhead = sample_tick;
 638:Service/Srv_SensorMonitor.c **** 
 639:Service/Srv_SensorMonitor.c ****                 if (sample_tick >= obj->statistic_flow->max_sampling_overhead)
 640:Service/Srv_SensorMonitor.c ****                     obj->statistic_flow->max_sampling_overhead = sample_tick;
 641:Service/Srv_SensorMonitor.c **** 
 642:Service/Srv_SensorMonitor.c ****                 obj->statistic_flow->avg_sampling_overhead += sample_tick;
 643:Service/Srv_SensorMonitor.c ****                 obj->statistic_flow->avg_sampling_overhead /= 2;
 644:Service/Srv_SensorMonitor.c **** 
 645:Service/Srv_SensorMonitor.c ****                 obj->statistic_flow->cur_sampling_overhead = sample_tick;
 646:Service/Srv_SensorMonitor.c ****             }
 647:Service/Srv_SensorMonitor.c ****         }
 648:Service/Srv_SensorMonitor.c ****     }
 649:Service/Srv_SensorMonitor.c **** 
 650:Service/Srv_SensorMonitor.c ****     return state;
ARM GAS  C:\Users\8bit\AppData\Local\Temp\ccoxdEfV.s 			page 30


 651:Service/Srv_SensorMonitor.c **** }
 652:Service/Srv_SensorMonitor.c **** 
 653:Service/Srv_SensorMonitor.c **** 
 654:Service/Srv_SensorMonitor.c **** 
 655:Service/Srv_SensorMonitor.c **** /* noticed all sensor sampling and processing must finished in 1ms maximum */
 656:Service/Srv_SensorMonitor.c **** /* maximum sampling rate is 1KHz currentlly */
 657:Service/Srv_SensorMonitor.c **** static bool SrvSensorMonitor_SampleCTL(SrvSensorMonitorObj_TypeDef *obj)
 658:Service/Srv_SensorMonitor.c **** {
 987              		.loc 1 658 1 is_stmt 1 view -0
 988              		.cfi_startproc
 989              		@ args = 0, pretend = 0, frame = 0
 990              		@ frame_needed = 0, uses_anonymous_args = 0
 991              		.loc 1 658 1 is_stmt 0 view .LVU320
 992 0000 70B5     		push	{r4, r5, r6, lr}
 993              	.LCFI2:
 994              		.cfi_def_cfa_offset 16
 995              		.cfi_offset 4, -16
 996              		.cfi_offset 5, -12
 997              		.cfi_offset 6, -8
 998              		.cfi_offset 14, -4
 999 0002 0546     		mov	r5, r0
 659:Service/Srv_SensorMonitor.c ****     bool state = false;
 1000              		.loc 1 659 5 is_stmt 1 view .LVU321
 1001              	.LVL102:
 660:Service/Srv_SensorMonitor.c ****     // DebugPin.ctl(Debug_PB5, true);
 661:Service/Srv_SensorMonitor.c ****     
 662:Service/Srv_SensorMonitor.c ****     /* imu single sampling overhead is about 60us */
 663:Service/Srv_SensorMonitor.c ****     state |= SrvSensorMonitor_IMU_SampleCTL(obj);
 1002              		.loc 1 663 5 view .LVU322
 1003              		.loc 1 663 14 is_stmt 0 view .LVU323
 1004 0004 FFF7FEFF 		bl	SrvSensorMonitor_IMU_SampleCTL
 1005              	.LVL103:
 1006              		.loc 1 663 14 view .LVU324
 1007 0008 0446     		mov	r4, r0
 1008              	.LVL104:
 664:Service/Srv_SensorMonitor.c ****     if (obj->statistic_imu->is_calid == Calib_Start)
 1009              		.loc 1 664 5 is_stmt 1 view .LVU325
 1010              		.loc 1 664 12 is_stmt 0 view .LVU326
 1011 000a EE68     		ldr	r6, [r5, #12]
 1012              		.loc 1 664 27 view .LVU327
 1013 000c 337E     		ldrb	r3, [r6, #24]	@ zero_extendqisi2
 1014              		.loc 1 664 8 view .LVU328
 1015 000e 012B     		cmp	r3, #1
 1016 0010 1BD0     		beq	.L89
 665:Service/Srv_SensorMonitor.c ****     {
 666:Service/Srv_SensorMonitor.c ****         if (SrvIMU.set_calib)
 667:Service/Srv_SensorMonitor.c ****         {
 668:Service/Srv_SensorMonitor.c ****             obj->statistic_imu->is_calid = SrvIMU.set_calib(GYRO_CALIB_CYCLE);
 669:Service/Srv_SensorMonitor.c ****         }
 670:Service/Srv_SensorMonitor.c ****         else
 671:Service/Srv_SensorMonitor.c ****             obj->statistic_imu->is_calid = Calib_Failed;
 672:Service/Srv_SensorMonitor.c ****     }
 673:Service/Srv_SensorMonitor.c ****     else if (obj->statistic_imu->is_calid != Calib_Failed)
 1017              		.loc 1 673 10 is_stmt 1 view .LVU329
 1018              		.loc 1 673 13 is_stmt 0 view .LVU330
 1019 0012 042B     		cmp	r3, #4
 1020 0014 03D0     		beq	.L84
ARM GAS  C:\Users\8bit\AppData\Local\Temp\ccoxdEfV.s 			page 31


 674:Service/Srv_SensorMonitor.c ****         obj->statistic_imu->is_calid = SrvIMU.get_calib();
 1021              		.loc 1 674 9 is_stmt 1 view .LVU331
 1022              		.loc 1 674 46 is_stmt 0 view .LVU332
 1023 0016 174B     		ldr	r3, .L91
 1024 0018 DB69     		ldr	r3, [r3, #28]
 1025              		.loc 1 674 40 view .LVU333
 1026 001a 9847     		blx	r3
 1027              	.LVL105:
 1028              		.loc 1 674 38 view .LVU334
 1029 001c 3076     		strb	r0, [r6, #24]
 1030              	.L84:
 675:Service/Srv_SensorMonitor.c ****     
 676:Service/Srv_SensorMonitor.c ****     state |= SrvSensorMonitor_Mag_SampleCTL(obj);
 1031              		.loc 1 676 5 is_stmt 1 view .LVU335
 1032              		.loc 1 676 14 is_stmt 0 view .LVU336
 1033 001e 2846     		mov	r0, r5
 1034 0020 FFF7FEFF 		bl	SrvSensorMonitor_Mag_SampleCTL
 1035              	.LVL106:
 1036              		.loc 1 676 11 view .LVU337
 1037 0024 0443     		orrs	r4, r4, r0
 1038              	.LVL107:
 1039              		.loc 1 676 11 view .LVU338
 1040 0026 E4B2     		uxtb	r4, r4
 1041              	.LVL108:
 677:Service/Srv_SensorMonitor.c **** 
 678:Service/Srv_SensorMonitor.c ****     /* baro single sampling overhead is about 230us */
 679:Service/Srv_SensorMonitor.c ****     state |= SrvSensorMonitor_Baro_SampleCTL(obj);
 1042              		.loc 1 679 5 is_stmt 1 view .LVU339
 1043              		.loc 1 679 14 is_stmt 0 view .LVU340
 1044 0028 2846     		mov	r0, r5
 1045 002a FFF7FEFF 		bl	SrvSensorMonitor_Baro_SampleCTL
 1046              	.LVL109:
 1047              		.loc 1 679 11 view .LVU341
 1048 002e 0443     		orrs	r4, r4, r0
 1049              	.LVL110:
 1050              		.loc 1 679 11 view .LVU342
 1051 0030 E4B2     		uxtb	r4, r4
 1052              	.LVL111:
 680:Service/Srv_SensorMonitor.c ****     if (obj->statistic_baro->is_calid == Calib_Start)
 1053              		.loc 1 680 5 is_stmt 1 view .LVU343
 1054              		.loc 1 680 12 is_stmt 0 view .LVU344
 1055 0032 6D69     		ldr	r5, [r5, #20]
 1056              	.LVL112:
 1057              		.loc 1 680 28 view .LVU345
 1058 0034 2B7E     		ldrb	r3, [r5, #24]	@ zero_extendqisi2
 1059              		.loc 1 680 8 view .LVU346
 1060 0036 012B     		cmp	r3, #1
 1061 0038 12D0     		beq	.L90
 681:Service/Srv_SensorMonitor.c ****     {
 682:Service/Srv_SensorMonitor.c ****         if (SrvBaro.set_calib)
 683:Service/Srv_SensorMonitor.c ****         {
 684:Service/Srv_SensorMonitor.c ****             obj->statistic_baro->is_calid = SrvBaro.set_calib(BARO_CALIB_CYCLE);
 685:Service/Srv_SensorMonitor.c ****         }
 686:Service/Srv_SensorMonitor.c ****         else
 687:Service/Srv_SensorMonitor.c ****             obj->statistic_baro->is_calid = Calib_Failed;
 688:Service/Srv_SensorMonitor.c ****     }
 689:Service/Srv_SensorMonitor.c ****     else if (obj->statistic_baro->is_calid != Calib_Failed)
ARM GAS  C:\Users\8bit\AppData\Local\Temp\ccoxdEfV.s 			page 32


 1062              		.loc 1 689 10 is_stmt 1 view .LVU347
 1063              		.loc 1 689 13 is_stmt 0 view .LVU348
 1064 003a 042B     		cmp	r3, #4
 1065 003c 03D0     		beq	.L87
 690:Service/Srv_SensorMonitor.c ****         obj->statistic_baro->is_calid = SrvBaro.get_calib();
 1066              		.loc 1 690 9 is_stmt 1 view .LVU349
 1067              		.loc 1 690 48 is_stmt 0 view .LVU350
 1068 003e 0E4B     		ldr	r3, .L91+4
 1069 0040 DB68     		ldr	r3, [r3, #12]
 1070              		.loc 1 690 41 view .LVU351
 1071 0042 9847     		blx	r3
 1072              	.LVL113:
 1073              		.loc 1 690 39 view .LVU352
 1074 0044 2876     		strb	r0, [r5, #24]
 1075              	.L87:
 691:Service/Srv_SensorMonitor.c **** 
 692:Service/Srv_SensorMonitor.c ****     // DebugPin.ctl(Debug_PB5, false);
 693:Service/Srv_SensorMonitor.c ****     
 694:Service/Srv_SensorMonitor.c ****     return state;
 1076              		.loc 1 694 5 is_stmt 1 view .LVU353
 695:Service/Srv_SensorMonitor.c **** }
 1077              		.loc 1 695 1 is_stmt 0 view .LVU354
 1078 0046 2046     		mov	r0, r4
 1079 0048 70BD     		pop	{r4, r5, r6, pc}
 1080              	.LVL114:
 1081              	.L89:
 666:Service/Srv_SensorMonitor.c ****         {
 1082              		.loc 1 666 9 is_stmt 1 view .LVU355
 666:Service/Srv_SensorMonitor.c ****         {
 1083              		.loc 1 666 19 is_stmt 0 view .LVU356
 1084 004a 0A4B     		ldr	r3, .L91
 1085 004c 1B6A     		ldr	r3, [r3, #32]
 666:Service/Srv_SensorMonitor.c ****         {
 1086              		.loc 1 666 12 view .LVU357
 1087 004e 23B1     		cbz	r3, .L83
 668:Service/Srv_SensorMonitor.c ****         }
 1088              		.loc 1 668 13 is_stmt 1 view .LVU358
 668:Service/Srv_SensorMonitor.c ****         }
 1089              		.loc 1 668 44 is_stmt 0 view .LVU359
 1090 0050 4FF47A70 		mov	r0, #1000
 1091 0054 9847     		blx	r3
 1092              	.LVL115:
 668:Service/Srv_SensorMonitor.c ****         }
 1093              		.loc 1 668 42 view .LVU360
 1094 0056 3076     		strb	r0, [r6, #24]
 1095 0058 E1E7     		b	.L84
 1096              	.L83:
 671:Service/Srv_SensorMonitor.c ****     }
 1097              		.loc 1 671 13 is_stmt 1 view .LVU361
 671:Service/Srv_SensorMonitor.c ****     }
 1098              		.loc 1 671 42 is_stmt 0 view .LVU362
 1099 005a 0423     		movs	r3, #4
 1100 005c 3376     		strb	r3, [r6, #24]
 1101 005e DEE7     		b	.L84
 1102              	.LVL116:
 1103              	.L90:
 682:Service/Srv_SensorMonitor.c ****         {
ARM GAS  C:\Users\8bit\AppData\Local\Temp\ccoxdEfV.s 			page 33


 1104              		.loc 1 682 9 is_stmt 1 view .LVU363
 682:Service/Srv_SensorMonitor.c ****         {
 1105              		.loc 1 682 20 is_stmt 0 view .LVU364
 1106 0060 054B     		ldr	r3, .L91+4
 1107 0062 9B68     		ldr	r3, [r3, #8]
 682:Service/Srv_SensorMonitor.c ****         {
 1108              		.loc 1 682 12 view .LVU365
 1109 0064 1BB1     		cbz	r3, .L86
 684:Service/Srv_SensorMonitor.c ****         }
 1110              		.loc 1 684 13 is_stmt 1 view .LVU366
 684:Service/Srv_SensorMonitor.c ****         }
 1111              		.loc 1 684 45 is_stmt 0 view .LVU367
 1112 0066 6420     		movs	r0, #100
 1113 0068 9847     		blx	r3
 1114              	.LVL117:
 684:Service/Srv_SensorMonitor.c ****         }
 1115              		.loc 1 684 43 view .LVU368
 1116 006a 2876     		strb	r0, [r5, #24]
 1117 006c EBE7     		b	.L87
 1118              	.L86:
 687:Service/Srv_SensorMonitor.c ****     }
 1119              		.loc 1 687 13 is_stmt 1 view .LVU369
 687:Service/Srv_SensorMonitor.c ****     }
 1120              		.loc 1 687 43 is_stmt 0 view .LVU370
 1121 006e 0423     		movs	r3, #4
 1122 0070 2B76     		strb	r3, [r5, #24]
 1123 0072 E8E7     		b	.L87
 1124              	.L92:
 1125              		.align	2
 1126              	.L91:
 1127 0074 00000000 		.word	SrvIMU
 1128 0078 00000000 		.word	SrvBaro
 1129              		.cfi_endproc
 1130              	.LFE162:
 1132              		.section	.text.SrvSensorMonitor_Set_Module_Calib,"ax",%progbits
 1133              		.align	1
 1134              		.syntax unified
 1135              		.thumb
 1136              		.thumb_func
 1138              	SrvSensorMonitor_Set_Module_Calib:
 1139              	.LVL118:
 1140              	.LFB163:
 696:Service/Srv_SensorMonitor.c **** 
 697:Service/Srv_SensorMonitor.c **** static GenCalib_State_TypeList SrvSensorMonitor_Set_Module_Calib(SrvSensorMonitorObj_TypeDef *obj, 
 698:Service/Srv_SensorMonitor.c **** {
 1141              		.loc 1 698 1 is_stmt 1 view -0
 1142              		.cfi_startproc
 1143              		@ args = 0, pretend = 0, frame = 0
 1144              		@ frame_needed = 0, uses_anonymous_args = 0
 1145              		@ link register save eliminated.
 699:Service/Srv_SensorMonitor.c ****     if (obj)
 1146              		.loc 1 699 5 view .LVU372
 1147              		.loc 1 699 8 is_stmt 0 view .LVU373
 1148 0000 20B1     		cbz	r0, .L94
 700:Service/Srv_SensorMonitor.c ****     {
 701:Service/Srv_SensorMonitor.c ****         switch((uint8_t) type)
 1149              		.loc 1 701 9 is_stmt 1 view .LVU374
ARM GAS  C:\Users\8bit\AppData\Local\Temp\ccoxdEfV.s 			page 34


 1150 0002 0129     		cmp	r1, #1
 1151 0004 0CD0     		beq	.L95
 1152 0006 0229     		cmp	r1, #2
 1153 0008 06D0     		beq	.L96
 1154 000a 09B1     		cbz	r1, .L97
 1155              	.L94:
 702:Service/Srv_SensorMonitor.c ****         {
 703:Service/Srv_SensorMonitor.c ****             case SrvSensorMonitor_Type_IMU:
 704:Service/Srv_SensorMonitor.c ****                 obj->statistic_imu->is_calid = Calib_Start;
 705:Service/Srv_SensorMonitor.c ****                 break;
 706:Service/Srv_SensorMonitor.c **** 
 707:Service/Srv_SensorMonitor.c ****             case SrvSensorMonitor_Type_BARO:
 708:Service/Srv_SensorMonitor.c ****                 obj->statistic_baro->is_calid = Calib_Start;
 709:Service/Srv_SensorMonitor.c ****                 break;
 710:Service/Srv_SensorMonitor.c **** 
 711:Service/Srv_SensorMonitor.c ****             case SrvSensorMonitor_Type_MAG:
 712:Service/Srv_SensorMonitor.c ****                 obj->statistic_mag->is_calid = Calib_Start;
 713:Service/Srv_SensorMonitor.c ****                 break;
 714:Service/Srv_SensorMonitor.c **** 
 715:Service/Srv_SensorMonitor.c ****             default:
 716:Service/Srv_SensorMonitor.c ****                 return Calib_Start;
 717:Service/Srv_SensorMonitor.c ****         }
 718:Service/Srv_SensorMonitor.c ****     }
 719:Service/Srv_SensorMonitor.c **** 
 720:Service/Srv_SensorMonitor.c ****     return Calib_Start;
 721:Service/Srv_SensorMonitor.c **** }
 1156              		.loc 1 721 1 is_stmt 0 view .LVU375
 1157 000c 0120     		movs	r0, #1
 1158              	.LVL119:
 1159              		.loc 1 721 1 view .LVU376
 1160 000e 7047     		bx	lr
 1161              	.LVL120:
 1162              	.L97:
 704:Service/Srv_SensorMonitor.c ****                 break;
 1163              		.loc 1 704 17 is_stmt 1 view .LVU377
 704:Service/Srv_SensorMonitor.c ****                 break;
 1164              		.loc 1 704 20 is_stmt 0 view .LVU378
 1165 0010 C368     		ldr	r3, [r0, #12]
 704:Service/Srv_SensorMonitor.c ****                 break;
 1166              		.loc 1 704 46 view .LVU379
 1167 0012 0122     		movs	r2, #1
 1168 0014 1A76     		strb	r2, [r3, #24]
 705:Service/Srv_SensorMonitor.c **** 
 1169              		.loc 1 705 17 is_stmt 1 view .LVU380
 1170 0016 F9E7     		b	.L94
 1171              	.L96:
 708:Service/Srv_SensorMonitor.c ****                 break;
 1172              		.loc 1 708 17 view .LVU381
 708:Service/Srv_SensorMonitor.c ****                 break;
 1173              		.loc 1 708 20 is_stmt 0 view .LVU382
 1174 0018 4369     		ldr	r3, [r0, #20]
 708:Service/Srv_SensorMonitor.c ****                 break;
 1175              		.loc 1 708 47 view .LVU383
 1176 001a 0122     		movs	r2, #1
 1177 001c 1A76     		strb	r2, [r3, #24]
 709:Service/Srv_SensorMonitor.c **** 
 1178              		.loc 1 709 17 is_stmt 1 view .LVU384
ARM GAS  C:\Users\8bit\AppData\Local\Temp\ccoxdEfV.s 			page 35


 1179 001e F5E7     		b	.L94
 1180              	.L95:
 712:Service/Srv_SensorMonitor.c ****                 break;
 1181              		.loc 1 712 17 view .LVU385
 712:Service/Srv_SensorMonitor.c ****                 break;
 1182              		.loc 1 712 20 is_stmt 0 view .LVU386
 1183 0020 0369     		ldr	r3, [r0, #16]
 712:Service/Srv_SensorMonitor.c ****                 break;
 1184              		.loc 1 712 46 view .LVU387
 1185 0022 0122     		movs	r2, #1
 1186 0024 1A76     		strb	r2, [r3, #24]
 713:Service/Srv_SensorMonitor.c **** 
 1187              		.loc 1 713 17 is_stmt 1 view .LVU388
 1188 0026 F1E7     		b	.L94
 1189              		.cfi_endproc
 1190              	.LFE163:
 1192              		.section	.text.SrvSensorMonitor_Get_Module_Calib,"ax",%progbits
 1193              		.align	1
 1194              		.syntax unified
 1195              		.thumb
 1196              		.thumb_func
 1198              	SrvSensorMonitor_Get_Module_Calib:
 1199              	.LVL121:
 1200              	.LFB164:
 722:Service/Srv_SensorMonitor.c **** 
 723:Service/Srv_SensorMonitor.c **** static GenCalib_State_TypeList SrvSensorMonitor_Get_Module_Calib(SrvSensorMonitorObj_TypeDef *obj, 
 724:Service/Srv_SensorMonitor.c **** {
 1201              		.loc 1 724 1 view -0
 1202              		.cfi_startproc
 1203              		@ args = 0, pretend = 0, frame = 0
 1204              		@ frame_needed = 0, uses_anonymous_args = 0
 1205              		@ link register save eliminated.
 725:Service/Srv_SensorMonitor.c ****     if (obj)
 1206              		.loc 1 725 5 view .LVU390
 1207              		.loc 1 725 8 is_stmt 0 view .LVU391
 1208 0000 D8B1     		cbz	r0, .L102
 726:Service/Srv_SensorMonitor.c ****     {
 727:Service/Srv_SensorMonitor.c ****         switch((uint8_t) type)
 1209              		.loc 1 727 9 is_stmt 1 view .LVU392
 1210 0002 0129     		cmp	r1, #1
 1211 0004 03D0     		beq	.L100
 1212 0006 0229     		cmp	r1, #2
 1213 0008 0CD0     		beq	.L101
 1214 000a 0420     		movs	r0, #4
 1215              	.LVL122:
 1216              		.loc 1 727 9 is_stmt 0 view .LVU393
 1217 000c 7047     		bx	lr
 1218              	.LVL123:
 1219              	.L100:
 728:Service/Srv_SensorMonitor.c ****         {
 729:Service/Srv_SensorMonitor.c ****             case SrvSensorMonitor_Type_IMU:
 730:Service/Srv_SensorMonitor.c ****                 break;
 731:Service/Srv_SensorMonitor.c **** 
 732:Service/Srv_SensorMonitor.c ****             case SrvSensorMonitor_Type_MAG:
 733:Service/Srv_SensorMonitor.c ****                 if (obj->enabled_reg.bit.mag && obj->init_state_reg.bit.mag)
 1220              		.loc 1 733 17 is_stmt 1 view .LVU394
 1221              		.loc 1 733 21 is_stmt 0 view .LVU395
ARM GAS  C:\Users\8bit\AppData\Local\Temp\ccoxdEfV.s 			page 36


 1222 000e 0278     		ldrb	r2, [r0]	@ zero_extendqisi2
 1223              		.loc 1 733 20 view .LVU396
 1224 0010 12F0020F 		tst	r2, #2
 1225 0014 13D0     		beq	.L103
 1226              		.loc 1 733 46 discriminator 1 view .LVU397
 1227 0016 0279     		ldrb	r2, [r0, #4]	@ zero_extendqisi2
 1228 0018 12F0020F 		tst	r2, #2
 1229 001c 11D0     		beq	.L104
 734:Service/Srv_SensorMonitor.c ****                 {
 735:Service/Srv_SensorMonitor.c ****                     return obj->statistic_mag->is_calid;
 1230              		.loc 1 735 21 is_stmt 1 view .LVU398
 1231              		.loc 1 735 31 is_stmt 0 view .LVU399
 1232 001e 0369     		ldr	r3, [r0, #16]
 1233              		.loc 1 735 46 view .LVU400
 1234 0020 187E     		ldrb	r0, [r3, #24]	@ zero_extendqisi2
 1235              	.LVL124:
 1236              		.loc 1 735 46 view .LVU401
 1237 0022 7047     		bx	lr
 1238              	.LVL125:
 1239              	.L101:
 736:Service/Srv_SensorMonitor.c ****                 }
 737:Service/Srv_SensorMonitor.c ****                 else
 738:Service/Srv_SensorMonitor.c ****                     return Calib_Failed; 
 739:Service/Srv_SensorMonitor.c **** 
 740:Service/Srv_SensorMonitor.c ****             case SrvSensorMonitor_Type_BARO:
 741:Service/Srv_SensorMonitor.c ****                 if (obj->enabled_reg.bit.baro && obj->init_state_reg.bit.baro)
 1240              		.loc 1 741 17 is_stmt 1 view .LVU402
 1241              		.loc 1 741 21 is_stmt 0 view .LVU403
 1242 0024 0278     		ldrb	r2, [r0]	@ zero_extendqisi2
 1243              		.loc 1 741 20 view .LVU404
 1244 0026 12F0040F 		tst	r2, #4
 1245 002a 0CD0     		beq	.L105
 1246              		.loc 1 741 47 discriminator 1 view .LVU405
 1247 002c 0279     		ldrb	r2, [r0, #4]	@ zero_extendqisi2
 1248 002e 12F0040F 		tst	r2, #4
 1249 0032 0AD0     		beq	.L106
 742:Service/Srv_SensorMonitor.c ****                 {
 743:Service/Srv_SensorMonitor.c ****                     return obj->statistic_baro->is_calid;
 1250              		.loc 1 743 21 is_stmt 1 view .LVU406
 1251              		.loc 1 743 31 is_stmt 0 view .LVU407
 1252 0034 4369     		ldr	r3, [r0, #20]
 1253              		.loc 1 743 47 view .LVU408
 1254 0036 187E     		ldrb	r0, [r3, #24]	@ zero_extendqisi2
 1255              	.LVL126:
 1256              		.loc 1 743 47 view .LVU409
 1257 0038 7047     		bx	lr
 1258              	.LVL127:
 1259              	.L102:
 744:Service/Srv_SensorMonitor.c ****                 }
 745:Service/Srv_SensorMonitor.c ****                 else
 746:Service/Srv_SensorMonitor.c ****                     return Calib_Failed;
 747:Service/Srv_SensorMonitor.c **** 
 748:Service/Srv_SensorMonitor.c ****             default:
 749:Service/Srv_SensorMonitor.c ****                 return Calib_Failed;
 750:Service/Srv_SensorMonitor.c ****         }
 751:Service/Srv_SensorMonitor.c ****     }
 752:Service/Srv_SensorMonitor.c **** 
ARM GAS  C:\Users\8bit\AppData\Local\Temp\ccoxdEfV.s 			page 37


 753:Service/Srv_SensorMonitor.c ****     return Calib_Failed;
 1260              		.loc 1 753 12 view .LVU410
 1261 003a 0420     		movs	r0, #4
 1262              	.LVL128:
 1263              		.loc 1 753 12 view .LVU411
 1264 003c 7047     		bx	lr
 1265              	.LVL129:
 1266              	.L103:
 738:Service/Srv_SensorMonitor.c **** 
 1267              		.loc 1 738 28 view .LVU412
 1268 003e 0420     		movs	r0, #4
 1269              	.LVL130:
 738:Service/Srv_SensorMonitor.c **** 
 1270              		.loc 1 738 28 view .LVU413
 1271 0040 7047     		bx	lr
 1272              	.LVL131:
 1273              	.L104:
 738:Service/Srv_SensorMonitor.c **** 
 1274              		.loc 1 738 28 view .LVU414
 1275 0042 0420     		movs	r0, #4
 1276              	.LVL132:
 738:Service/Srv_SensorMonitor.c **** 
 1277              		.loc 1 738 28 view .LVU415
 1278 0044 7047     		bx	lr
 1279              	.LVL133:
 1280              	.L105:
 746:Service/Srv_SensorMonitor.c **** 
 1281              		.loc 1 746 28 view .LVU416
 1282 0046 0420     		movs	r0, #4
 1283              	.LVL134:
 746:Service/Srv_SensorMonitor.c **** 
 1284              		.loc 1 746 28 view .LVU417
 1285 0048 7047     		bx	lr
 1286              	.LVL135:
 1287              	.L106:
 746:Service/Srv_SensorMonitor.c **** 
 1288              		.loc 1 746 28 view .LVU418
 1289 004a 0420     		movs	r0, #4
 1290              	.LVL136:
 754:Service/Srv_SensorMonitor.c **** }
 1291              		.loc 1 754 1 view .LVU419
 1292 004c 7047     		bx	lr
 1293              		.cfi_endproc
 1294              	.LFE164:
 1296              		.section	.text.SrvSensorMonitor_Get_BaroData,"ax",%progbits
 1297              		.align	1
 1298              		.syntax unified
 1299              		.thumb
 1300              		.thumb_func
 1302              	SrvSensorMonitor_Get_BaroData:
 1303              	.LVL137:
 1304              	.LFB159:
 564:Service/Srv_SensorMonitor.c ****     SrvBaro_UnionData_TypeDef baro_data_tmp;
 1305              		.loc 1 564 1 is_stmt 1 view -0
 1306              		.cfi_startproc
 1307              		@ args = 0, pretend = 0, frame = 32
 1308              		@ frame_needed = 0, uses_anonymous_args = 0
ARM GAS  C:\Users\8bit\AppData\Local\Temp\ccoxdEfV.s 			page 38


 564:Service/Srv_SensorMonitor.c ****     SrvBaro_UnionData_TypeDef baro_data_tmp;
 1309              		.loc 1 564 1 is_stmt 0 view .LVU421
 1310 0000 30B5     		push	{r4, r5, lr}
 1311              	.LCFI3:
 1312              		.cfi_def_cfa_offset 12
 1313              		.cfi_offset 4, -12
 1314              		.cfi_offset 5, -8
 1315              		.cfi_offset 14, -4
 1316 0002 89B0     		sub	sp, sp, #36
 1317              	.LCFI4:
 1318              		.cfi_def_cfa_offset 48
 1319 0004 0446     		mov	r4, r0
 565:Service/Srv_SensorMonitor.c **** 
 1320              		.loc 1 565 5 is_stmt 1 view .LVU422
 567:Service/Srv_SensorMonitor.c **** 
 1321              		.loc 1 567 5 view .LVU423
 1322 0006 0023     		movs	r3, #0
 1323 0008 0193     		str	r3, [sp, #4]
 1324 000a 0293     		str	r3, [sp, #8]
 1325 000c 0393     		str	r3, [sp, #12]
 1326 000e 0493     		str	r3, [sp, #16]
 1327 0010 0593     		str	r3, [sp, #20]
 1328 0012 0693     		str	r3, [sp, #24]
 1329 0014 0793     		str	r3, [sp, #28]
 569:Service/Srv_SensorMonitor.c ****     {
 1330              		.loc 1 569 5 view .LVU424
 569:Service/Srv_SensorMonitor.c ****     {
 1331              		.loc 1 569 8 is_stmt 0 view .LVU425
 1332 0016 C1B1     		cbz	r1, .L108
 1333 0018 0D46     		mov	r5, r1
 569:Service/Srv_SensorMonitor.c ****     {
 1334              		.loc 1 569 13 discriminator 1 view .LVU426
 1335 001a 0B78     		ldrb	r3, [r1]	@ zero_extendqisi2
 1336 001c 13F0040F 		tst	r3, #4
 1337 0020 13D0     		beq	.L108
 569:Service/Srv_SensorMonitor.c ****     {
 1338              		.loc 1 569 42 discriminator 2 view .LVU427
 1339 0022 0B79     		ldrb	r3, [r1, #4]	@ zero_extendqisi2
 1340 0024 13F0040F 		tst	r3, #4
 1341 0028 0FD0     		beq	.L108
 569:Service/Srv_SensorMonitor.c ****     {
 1342              		.loc 1 569 84 discriminator 3 view .LVU428
 1343 002a 144B     		ldr	r3, .L111
 1344 002c 1B69     		ldr	r3, [r3, #16]
 569:Service/Srv_SensorMonitor.c ****     {
 1345              		.loc 1 569 74 discriminator 3 view .LVU429
 1346 002e 63B1     		cbz	r3, .L108
 571:Service/Srv_SensorMonitor.c ****         {
 1347              		.loc 1 571 9 is_stmt 1 view .LVU430
 571:Service/Srv_SensorMonitor.c ****         {
 1348              		.loc 1 571 13 is_stmt 0 view .LVU431
 1349 0030 01A8     		add	r0, sp, #4
 1350              	.LVL138:
 571:Service/Srv_SensorMonitor.c ****         {
 1351              		.loc 1 571 13 view .LVU432
 1352 0032 9847     		blx	r3
 1353              	.LVL139:
ARM GAS  C:\Users\8bit\AppData\Local\Temp\ccoxdEfV.s 			page 39


 571:Service/Srv_SensorMonitor.c ****         {
 1354              		.loc 1 571 12 view .LVU433
 1355 0034 B8B1     		cbz	r0, .L109
 573:Service/Srv_SensorMonitor.c ****         }
 1356              		.loc 1 573 13 is_stmt 1 view .LVU434
 573:Service/Srv_SensorMonitor.c ****         }
 1357              		.loc 1 573 37 is_stmt 0 view .LVU435
 1358 0036 9035     		adds	r5, r5, #144
 1359              	.LVL140:
 573:Service/Srv_SensorMonitor.c ****         }
 1360              		.loc 1 573 37 view .LVU436
 1361 0038 0DF1040C 		add	ip, sp, #4
 1362 003c BCE80F00 		ldmia	ip!, {r0, r1, r2, r3}
 1363 0040 0FC5     		stmia	r5!, {r0, r1, r2, r3}
 1364              	.LVL141:
 573:Service/Srv_SensorMonitor.c ****         }
 1365              		.loc 1 573 37 view .LVU437
 1366 0042 9CE80700 		ldm	ip, {r0, r1, r2}
 1367 0046 85E80700 		stm	r5, {r0, r1, r2}
 1368              	.LVL142:
 1369              	.L108:
 579:Service/Srv_SensorMonitor.c **** }
 1370              		.loc 1 579 5 is_stmt 1 view .LVU438
 579:Service/Srv_SensorMonitor.c **** }
 1371              		.loc 1 579 12 is_stmt 0 view .LVU439
 1372 004a A446     		mov	ip, r4
 1373 004c 0DF1040E 		add	lr, sp, #4
 1374 0050 BEE80F00 		ldmia	lr!, {r0, r1, r2, r3}
 1375 0054 ACE80F00 		stmia	ip!, {r0, r1, r2, r3}
 1376 0058 9EE80700 		ldm	lr, {r0, r1, r2}
 1377 005c 8CE80700 		stm	ip, {r0, r1, r2}
 580:Service/Srv_SensorMonitor.c **** 
 1378              		.loc 1 580 1 view .LVU440
 1379 0060 2046     		mov	r0, r4
 1380 0062 09B0     		add	sp, sp, #36
 1381              	.LCFI5:
 1382              		.cfi_remember_state
 1383              		.cfi_def_cfa_offset 12
 1384              		@ sp needed
 1385 0064 30BD     		pop	{r4, r5, pc}
 1386              	.LVL143:
 1387              	.L109:
 1388              	.LCFI6:
 1389              		.cfi_restore_state
 576:Service/Srv_SensorMonitor.c ****     }
 1390              		.loc 1 576 13 is_stmt 1 view .LVU441
 576:Service/Srv_SensorMonitor.c ****     }
 1391              		.loc 1 576 32 is_stmt 0 view .LVU442
 1392 0066 0DF1040C 		add	ip, sp, #4
 1393 006a 9035     		adds	r5, r5, #144
 1394              	.LVL144:
 576:Service/Srv_SensorMonitor.c ****     }
 1395              		.loc 1 576 32 view .LVU443
 1396 006c 0FCD     		ldmia	r5!, {r0, r1, r2, r3}
 1397              	.LVL145:
 576:Service/Srv_SensorMonitor.c ****     }
 1398              		.loc 1 576 32 view .LVU444
ARM GAS  C:\Users\8bit\AppData\Local\Temp\ccoxdEfV.s 			page 40


 1399 006e ACE80F00 		stmia	ip!, {r0, r1, r2, r3}
 1400 0072 95E80700 		ldm	r5, {r0, r1, r2}
 1401 0076 8CE80700 		stm	ip, {r0, r1, r2}
 1402 007a E6E7     		b	.L108
 1403              	.L112:
 1404              		.align	2
 1405              	.L111:
 1406 007c 00000000 		.word	SrvBaro
 1407              		.cfi_endproc
 1408              	.LFE159:
 1410              		.section	.text.SrvSensorMonitor_Get_IMUData,"ax",%progbits
 1411              		.align	1
 1412              		.syntax unified
 1413              		.thumb
 1414              		.thumb_func
 1416              	SrvSensorMonitor_Get_IMUData:
 1417              	.LVL146:
 1418              	.LFB153:
 424:Service/Srv_SensorMonitor.c ****     SrvIMU_UnionData_TypeDef imu_data_tmp;
 1419              		.loc 1 424 1 is_stmt 1 view -0
 1420              		.cfi_startproc
 1421              		@ args = 0, pretend = 0, frame = 88
 1422              		@ frame_needed = 0, uses_anonymous_args = 0
 424:Service/Srv_SensorMonitor.c ****     SrvIMU_UnionData_TypeDef imu_data_tmp;
 1423              		.loc 1 424 1 is_stmt 0 view .LVU446
 1424 0000 30B5     		push	{r4, r5, lr}
 1425              	.LCFI7:
 1426              		.cfi_def_cfa_offset 12
 1427              		.cfi_offset 4, -12
 1428              		.cfi_offset 5, -8
 1429              		.cfi_offset 14, -4
 1430 0002 97B0     		sub	sp, sp, #92
 1431              	.LCFI8:
 1432              		.cfi_def_cfa_offset 104
 1433 0004 0546     		mov	r5, r0
 1434 0006 0C46     		mov	r4, r1
 425:Service/Srv_SensorMonitor.c **** 
 1435              		.loc 1 425 5 is_stmt 1 view .LVU447
 427:Service/Srv_SensorMonitor.c **** 
 1436              		.loc 1 427 5 view .LVU448
 1437 0008 5422     		movs	r2, #84
 1438 000a 0021     		movs	r1, #0
 1439              	.LVL147:
 427:Service/Srv_SensorMonitor.c **** 
 1440              		.loc 1 427 5 is_stmt 0 view .LVU449
 1441 000c 01A8     		add	r0, sp, #4
 1442              	.LVL148:
 427:Service/Srv_SensorMonitor.c **** 
 1443              		.loc 1 427 5 view .LVU450
 1444 000e FFF7FEFF 		bl	memset
 1445              	.LVL149:
 429:Service/Srv_SensorMonitor.c ****     {
 1446              		.loc 1 429 5 is_stmt 1 view .LVU451
 429:Service/Srv_SensorMonitor.c ****     {
 1447              		.loc 1 429 8 is_stmt 0 view .LVU452
 1448 0012 64B3     		cbz	r4, .L114
 429:Service/Srv_SensorMonitor.c ****     {
ARM GAS  C:\Users\8bit\AppData\Local\Temp\ccoxdEfV.s 			page 41


 1449              		.loc 1 429 13 discriminator 1 view .LVU453
 1450 0014 2378     		ldrb	r3, [r4]	@ zero_extendqisi2
 1451 0016 13F0010F 		tst	r3, #1
 1452 001a 28D0     		beq	.L114
 429:Service/Srv_SensorMonitor.c ****     {
 1453              		.loc 1 429 41 discriminator 2 view .LVU454
 1454 001c 2379     		ldrb	r3, [r4, #4]	@ zero_extendqisi2
 1455 001e 13F0010F 		tst	r3, #1
 1456 0022 24D0     		beq	.L114
 429:Service/Srv_SensorMonitor.c ****     {
 1457              		.loc 1 429 81 discriminator 3 view .LVU455
 1458 0024 194B     		ldr	r3, .L122
 1459 0026 9B68     		ldr	r3, [r3, #8]
 429:Service/Srv_SensorMonitor.c ****     {
 1460              		.loc 1 429 72 discriminator 3 view .LVU456
 1461 0028 0BB3     		cbz	r3, .L114
 431:Service/Srv_SensorMonitor.c ****         {
 1462              		.loc 1 431 9 is_stmt 1 view .LVU457
 431:Service/Srv_SensorMonitor.c ****         {
 1463              		.loc 1 431 13 is_stmt 0 view .LVU458
 1464 002a 01A9     		add	r1, sp, #4
 1465 002c 0320     		movs	r0, #3
 1466 002e 9847     		blx	r3
 1467              	.LVL150:
 431:Service/Srv_SensorMonitor.c ****         {
 1468              		.loc 1 431 12 view .LVU459
 1469 0030 D8B9     		cbnz	r0, .L119
 447:Service/Srv_SensorMonitor.c ****     }
 1470              		.loc 1 447 13 is_stmt 1 view .LVU460
 447:Service/Srv_SensorMonitor.c ****     }
 1471              		.loc 1 447 31 is_stmt 0 view .LVU461
 1472 0032 5422     		movs	r2, #84
 1473 0034 04F13C01 		add	r1, r4, #60
 1474 0038 01A8     		add	r0, sp, #4
 1475 003a FFF7FEFF 		bl	memcpy
 1476              	.LVL151:
 1477 003e 1CE0     		b	.L118
 1478              	.LVL152:
 1479              	.L117:
 1480              	.LBB2:
 441:Service/Srv_SensorMonitor.c ****             }
 1481              		.loc 1 441 17 is_stmt 1 discriminator 3 view .LVU462
 441:Service/Srv_SensorMonitor.c ****             }
 1482              		.loc 1 441 63 is_stmt 0 discriminator 3 view .LVU463
 1483 0040 03F15802 		add	r2, r3, #88
 1484 0044 6A44     		add	r2, sp, r2
 1485 0046 12F8542C 		ldrb	r2, [r2, #-84]	@ zero_extendqisi2
 441:Service/Srv_SensorMonitor.c ****             }
 1486              		.loc 1 441 43 discriminator 3 view .LVU464
 1487 004a BDF854C0 		ldrh	ip, [sp, #84]
 1488 004e 6244     		add	r2, r2, ip
 1489 0050 ADF85420 		strh	r2, [sp, #84]	@ movhi
 439:Service/Srv_SensorMonitor.c ****             {
 1490              		.loc 1 439 94 is_stmt 1 discriminator 3 view .LVU465
 439:Service/Srv_SensorMonitor.c ****             {
 1491              		.loc 1 439 97 is_stmt 0 discriminator 3 view .LVU466
 1492 0054 0133     		adds	r3, r3, #1
ARM GAS  C:\Users\8bit\AppData\Local\Temp\ccoxdEfV.s 			page 42


 1493              	.LVL153:
 439:Service/Srv_SensorMonitor.c ****             {
 1494              		.loc 1 439 97 discriminator 3 view .LVU467
 1495 0056 DBB2     		uxtb	r3, r3
 1496              	.LVL154:
 1497              	.L115:
 439:Service/Srv_SensorMonitor.c ****             {
 1498              		.loc 1 439 35 is_stmt 1 discriminator 1 view .LVU468
 439:Service/Srv_SensorMonitor.c ****             {
 1499              		.loc 1 439 13 is_stmt 0 discriminator 1 view .LVU469
 1500 0058 512B     		cmp	r3, #81
 1501 005a F1D9     		bls	.L117
 1502              	.LBE2:
 444:Service/Srv_SensorMonitor.c ****         }
 1503              		.loc 1 444 13 is_stmt 1 view .LVU470
 444:Service/Srv_SensorMonitor.c ****         }
 1504              		.loc 1 444 36 is_stmt 0 view .LVU471
 1505 005c 5422     		movs	r2, #84
 1506 005e 01A9     		add	r1, sp, #4
 1507 0060 04F13C00 		add	r0, r4, #60
 1508 0064 FFF7FEFF 		bl	memcpy
 1509              	.LVL155:
 444:Service/Srv_SensorMonitor.c ****         }
 1510              		.loc 1 444 36 view .LVU472
 1511 0068 07E0     		b	.L118
 1512              	.L119:
 1513              	.LBB3:
 439:Service/Srv_SensorMonitor.c ****             {
 1514              		.loc 1 439 26 view .LVU473
 1515 006a 0023     		movs	r3, #0
 1516 006c F4E7     		b	.L115
 1517              	.L114:
 1518              	.LBE3:
 450:Service/Srv_SensorMonitor.c **** 
 1519              		.loc 1 450 9 is_stmt 1 view .LVU474
 450:Service/Srv_SensorMonitor.c **** 
 1520              		.loc 1 450 22 is_stmt 0 view .LVU475
 1521 006e 5422     		movs	r2, #84
 1522 0070 04F13C01 		add	r1, r4, #60
 1523 0074 01A8     		add	r0, sp, #4
 1524 0076 FFF7FEFF 		bl	memcpy
 1525              	.LVL156:
 1526              	.L118:
 452:Service/Srv_SensorMonitor.c **** }
 1527              		.loc 1 452 5 is_stmt 1 view .LVU476
 452:Service/Srv_SensorMonitor.c **** }
 1528              		.loc 1 452 12 is_stmt 0 view .LVU477
 1529 007a 5422     		movs	r2, #84
 1530 007c 01A9     		add	r1, sp, #4
 1531 007e 2846     		mov	r0, r5
 1532 0080 FFF7FEFF 		bl	memcpy
 1533              	.LVL157:
 453:Service/Srv_SensorMonitor.c **** 
 1534              		.loc 1 453 1 view .LVU478
 1535 0084 2846     		mov	r0, r5
 1536 0086 17B0     		add	sp, sp, #92
 1537              	.LCFI9:
ARM GAS  C:\Users\8bit\AppData\Local\Temp\ccoxdEfV.s 			page 43


 1538              		.cfi_def_cfa_offset 12
 1539              		@ sp needed
 1540 0088 30BD     		pop	{r4, r5, pc}
 1541              	.LVL158:
 1542              	.L123:
 453:Service/Srv_SensorMonitor.c **** 
 1543              		.loc 1 453 1 view .LVU479
 1544 008a 00BF     		.align	2
 1545              	.L122:
 1546 008c 00000000 		.word	SrvIMU
 1547              		.cfi_endproc
 1548              	.LFE153:
 1550              		.section	.rodata.SrvSensorMonitor_IMU_Init.str1.4,"aMS",%progbits,1
 1551              		.align	2
 1552              	.LC0:
 1553 0000 50726920 		.ascii	"Pri IMU init error\015\012\000"
 1553      494D5520 
 1553      696E6974 
 1553      20657272 
 1553      6F720D0A 
 1554 0015 000000   		.align	2
 1555              	.LC1:
 1556 0018 5B205345 		.ascii	"[ SENSOR MONITOR INFO ] \000"
 1556      4E534F52 
 1556      204D4F4E 
 1556      49544F52 
 1556      20494E46 
 1557 0031 000000   		.align	2
 1558              	.LC2:
 1559 0034 494D5520 		.ascii	"IMU get range failed\015\012\000"
 1559      67657420 
 1559      72616E67 
 1559      65206661 
 1559      696C6564 
 1560 004b 00       		.align	2
 1561              	.LC3:
 1562 004c 53656320 		.ascii	"Sec IMU init error\015\012\000"
 1562      494D5520 
 1562      696E6974 
 1562      20657272 
 1562      6F720D0A 
 1563 0061 000000   		.align	2
 1564              	.LC4:
 1565 0064 416C6C20 		.ascii	"All IMU init successed\015\012\000"
 1565      494D5520 
 1565      696E6974 
 1565      20737563 
 1565      63657373 
 1566              		.section	.text.SrvSensorMonitor_IMU_Init,"ax",%progbits
 1567              		.align	1
 1568              		.syntax unified
 1569              		.thumb
 1570              		.thumb_func
 1572              	SrvSensorMonitor_IMU_Init:
 1573              	.LVL159:
 1574              	.LFB149:
 196:Service/Srv_SensorMonitor.c ****     SrvIMU_ErrorCode_List init_state;
ARM GAS  C:\Users\8bit\AppData\Local\Temp\ccoxdEfV.s 			page 44


 1575              		.loc 1 196 1 is_stmt 1 view -0
 1576              		.cfi_startproc
 1577              		@ args = 0, pretend = 0, frame = 0
 1578              		@ frame_needed = 0, uses_anonymous_args = 0
 196:Service/Srv_SensorMonitor.c ****     SrvIMU_ErrorCode_List init_state;
 1579              		.loc 1 196 1 is_stmt 0 view .LVU481
 1580 0000 70B5     		push	{r4, r5, r6, lr}
 1581              	.LCFI10:
 1582              		.cfi_def_cfa_offset 16
 1583              		.cfi_offset 4, -16
 1584              		.cfi_offset 5, -12
 1585              		.cfi_offset 6, -8
 1586              		.cfi_offset 14, -4
 197:Service/Srv_SensorMonitor.c **** 
 1587              		.loc 1 197 5 is_stmt 1 view .LVU482
 199:Service/Srv_SensorMonitor.c ****     {
 1588              		.loc 1 199 5 view .LVU483
 199:Service/Srv_SensorMonitor.c ****     {
 1589              		.loc 1 199 15 is_stmt 0 view .LVU484
 1590 0002 594B     		ldr	r3, .L142
 1591 0004 1B68     		ldr	r3, [r3]
 199:Service/Srv_SensorMonitor.c ****     {
 1592              		.loc 1 199 8 view .LVU485
 1593 0006 002B     		cmp	r3, #0
 1594 0008 00F0AA80 		beq	.L134
 1595 000c 0446     		mov	r4, r0
 199:Service/Srv_SensorMonitor.c ****     {
 1596              		.loc 1 199 21 discriminator 1 view .LVU486
 1597 000e 0028     		cmp	r0, #0
 1598 0010 00F0A880 		beq	.L135
 201:Service/Srv_SensorMonitor.c ****         obj->imu_num = 0;
 1599              		.loc 1 201 9 is_stmt 1 view .LVU487
 201:Service/Srv_SensorMonitor.c ****         obj->imu_num = 0;
 1600              		.loc 1 201 22 is_stmt 0 view .LVU488
 1601 0014 9847     		blx	r3
 1602              	.LVL160:
 202:Service/Srv_SensorMonitor.c **** 
 1603              		.loc 1 202 9 is_stmt 1 view .LVU489
 202:Service/Srv_SensorMonitor.c **** 
 1604              		.loc 1 202 22 is_stmt 0 view .LVU490
 1605 0016 0023     		movs	r3, #0
 1606 0018 84F82030 		strb	r3, [r4, #32]
 204:Service/Srv_SensorMonitor.c ****         {
 1607              		.loc 1 204 9 is_stmt 1 view .LVU491
 1608 001c B0F1FF3F 		cmp	r0, #-1
 1609 0020 30D0     		beq	.L126
 1610 0022 0028     		cmp	r0, #0
 1611 0024 55D0     		beq	.L127
 1612 0026 10F1050F 		cmn	r0, #5
 1613 002a 02D0     		beq	.L138
 1614 002c 0025     		movs	r5, #0
 1615              	.LVL161:
 1616              	.L125:
 295:Service/Srv_SensorMonitor.c **** 
 1617              		.loc 1 295 1 is_stmt 0 view .LVU492
 1618 002e 2846     		mov	r0, r5
 1619 0030 70BD     		pop	{r4, r5, r6, pc}
ARM GAS  C:\Users\8bit\AppData\Local\Temp\ccoxdEfV.s 			page 45


 1620              	.LVL162:
 1621              	.L138:
 207:Service/Srv_SensorMonitor.c ****                 memset(&obj->PriIMU_Range, 0, sizeof(obj->PriIMU_Range));
 1622              		.loc 1 207 17 is_stmt 1 view .LVU493
 1623 0032 4E4A     		ldr	r2, .L142+4
 1624 0034 4E49     		ldr	r1, .L142+8
 1625 0036 4F48     		ldr	r0, .L142+12
 1626              	.LVL163:
 207:Service/Srv_SensorMonitor.c ****                 memset(&obj->PriIMU_Range, 0, sizeof(obj->PriIMU_Range));
 1627              		.loc 1 207 17 is_stmt 0 view .LVU494
 1628 0038 FFF7FEFF 		bl	Debug_Print
 1629              	.LVL164:
 208:Service/Srv_SensorMonitor.c ****                 obj->sec_range_get = SrvIMU.get_range(SrvIMU_SecModule, &obj->SecIMU_Range);
 1630              		.loc 1 208 17 is_stmt 1 view .LVU495
 1631 003c 0023     		movs	r3, #0
 1632 003e 6362     		str	r3, [r4, #36]	@ unaligned
 209:Service/Srv_SensorMonitor.c ****                 if (!obj->sec_range_get)
 1633              		.loc 1 209 17 view .LVU496
 209:Service/Srv_SensorMonitor.c ****                 if (!obj->sec_range_get)
 1634              		.loc 1 209 44 is_stmt 0 view .LVU497
 1635 0040 494B     		ldr	r3, .L142
 1636 0042 DB68     		ldr	r3, [r3, #12]
 209:Service/Srv_SensorMonitor.c ****                 if (!obj->sec_range_get)
 1637              		.loc 1 209 38 view .LVU498
 1638 0044 04F12801 		add	r1, r4, #40
 1639 0048 0220     		movs	r0, #2
 1640 004a 9847     		blx	r3
 1641              	.LVL165:
 1642 004c 0546     		mov	r5, r0
 209:Service/Srv_SensorMonitor.c ****                 if (!obj->sec_range_get)
 1643              		.loc 1 209 36 view .LVU499
 1644 004e 84F82200 		strb	r0, [r4, #34]
 210:Service/Srv_SensorMonitor.c ****                 {
 1645              		.loc 1 210 17 is_stmt 1 view .LVU500
 210:Service/Srv_SensorMonitor.c ****                 {
 1646              		.loc 1 210 20 is_stmt 0 view .LVU501
 1647 0052 78B1     		cbz	r0, .L139
 217:Service/Srv_SensorMonitor.c ****                 /* set sample mode */
 1648              		.loc 1 217 17 is_stmt 1 view .LVU502
 217:Service/Srv_SensorMonitor.c ****                 /* set sample mode */
 1649              		.loc 1 217 30 is_stmt 0 view .LVU503
 1650 0054 0123     		movs	r3, #1
 1651 0056 84F82030 		strb	r3, [r4, #32]
 219:Service/Srv_SensorMonitor.c **** 
 1652              		.loc 1 219 17 is_stmt 1 view .LVU504
 219:Service/Srv_SensorMonitor.c **** 
 1653              		.loc 1 219 37 is_stmt 0 view .LVU505
 1654 005a 0220     		movs	r0, #2
 1655 005c 84F82C00 		strb	r0, [r4, #44]
 222:Service/Srv_SensorMonitor.c ****                 obj->pri_imu_type = SrvIMU_Dev_None;
 1656              		.loc 1 222 17 is_stmt 1 view .LVU506
 222:Service/Srv_SensorMonitor.c ****                 obj->pri_imu_type = SrvIMU_Dev_None;
 1657              		.loc 1 222 23 is_stmt 0 view .LVU507
 1658 0060 414B     		ldr	r3, .L142
 1659 0062 5B69     		ldr	r3, [r3, #20]
 222:Service/Srv_SensorMonitor.c ****                 obj->pri_imu_type = SrvIMU_Dev_None;
 1660              		.loc 1 222 17 view .LVU508
ARM GAS  C:\Users\8bit\AppData\Local\Temp\ccoxdEfV.s 			page 46


 1661 0064 04F13101 		add	r1, r4, #49
 1662 0068 9847     		blx	r3
 1663              	.LVL166:
 223:Service/Srv_SensorMonitor.c ****                 break;
 1664              		.loc 1 223 17 is_stmt 1 view .LVU509
 223:Service/Srv_SensorMonitor.c ****                 break;
 1665              		.loc 1 223 35 is_stmt 0 view .LVU510
 1666 006a 0423     		movs	r3, #4
 1667 006c 84F83030 		strb	r3, [r4, #48]
 224:Service/Srv_SensorMonitor.c **** 
 1668              		.loc 1 224 17 is_stmt 1 view .LVU511
 1669              	.L129:
 291:Service/Srv_SensorMonitor.c ****     }
 1670              		.loc 1 291 9 view .LVU512
 291:Service/Srv_SensorMonitor.c ****     }
 1671              		.loc 1 291 16 is_stmt 0 view .LVU513
 1672 0070 0125     		movs	r5, #1
 1673 0072 DCE7     		b	.L125
 1674              	.L139:
 212:Service/Srv_SensorMonitor.c ****                     memset(&obj->SecIMU_Range, 0, sizeof(obj->SecIMU_Range));
 1675              		.loc 1 212 21 is_stmt 1 view .LVU514
 1676 0074 404A     		ldr	r2, .L142+16
 1677 0076 3E49     		ldr	r1, .L142+8
 1678 0078 3E48     		ldr	r0, .L142+12
 1679 007a FFF7FEFF 		bl	Debug_Print
 1680              	.LVL167:
 213:Service/Srv_SensorMonitor.c ****                     return false;
 1681              		.loc 1 213 21 view .LVU515
 1682 007e 0023     		movs	r3, #0
 1683 0080 A362     		str	r3, [r4, #40]	@ unaligned
 214:Service/Srv_SensorMonitor.c ****                 }
 1684              		.loc 1 214 21 view .LVU516
 214:Service/Srv_SensorMonitor.c ****                 }
 1685              		.loc 1 214 28 is_stmt 0 view .LVU517
 1686 0082 D4E7     		b	.L125
 1687              	.LVL168:
 1688              	.L126:
 227:Service/Srv_SensorMonitor.c ****                 memset(&obj->SecIMU_Range, 0, sizeof(obj->SecIMU_Range));
 1689              		.loc 1 227 17 is_stmt 1 view .LVU518
 1690 0084 3D4A     		ldr	r2, .L142+20
 1691 0086 3A49     		ldr	r1, .L142+8
 1692 0088 3A48     		ldr	r0, .L142+12
 1693              	.LVL169:
 227:Service/Srv_SensorMonitor.c ****                 memset(&obj->SecIMU_Range, 0, sizeof(obj->SecIMU_Range));
 1694              		.loc 1 227 17 is_stmt 0 view .LVU519
 1695 008a FFF7FEFF 		bl	Debug_Print
 1696              	.LVL170:
 228:Service/Srv_SensorMonitor.c ****                 obj->pri_range_get = SrvIMU.get_range(SrvIMU_PriModule, &obj->PriIMU_Range);
 1697              		.loc 1 228 17 is_stmt 1 view .LVU520
 1698 008e 0023     		movs	r3, #0
 1699 0090 A362     		str	r3, [r4, #40]	@ unaligned
 229:Service/Srv_SensorMonitor.c ****                 if (!obj->pri_range_get)
 1700              		.loc 1 229 17 view .LVU521
 229:Service/Srv_SensorMonitor.c ****                 if (!obj->pri_range_get)
 1701              		.loc 1 229 44 is_stmt 0 view .LVU522
 1702 0092 354B     		ldr	r3, .L142
 1703 0094 DB68     		ldr	r3, [r3, #12]
ARM GAS  C:\Users\8bit\AppData\Local\Temp\ccoxdEfV.s 			page 47


 229:Service/Srv_SensorMonitor.c ****                 if (!obj->pri_range_get)
 1704              		.loc 1 229 38 view .LVU523
 1705 0096 04F12401 		add	r1, r4, #36
 1706 009a 0120     		movs	r0, #1
 1707 009c 9847     		blx	r3
 1708              	.LVL171:
 1709 009e 0546     		mov	r5, r0
 229:Service/Srv_SensorMonitor.c ****                 if (!obj->pri_range_get)
 1710              		.loc 1 229 36 view .LVU524
 1711 00a0 84F82100 		strb	r0, [r4, #33]
 230:Service/Srv_SensorMonitor.c ****                 {
 1712              		.loc 1 230 17 is_stmt 1 view .LVU525
 230:Service/Srv_SensorMonitor.c ****                 {
 1713              		.loc 1 230 20 is_stmt 0 view .LVU526
 1714 00a4 68B1     		cbz	r0, .L140
 237:Service/Srv_SensorMonitor.c ****                 /* ser sample mode */
 1715              		.loc 1 237 17 is_stmt 1 view .LVU527
 237:Service/Srv_SensorMonitor.c ****                 /* ser sample mode */
 1716              		.loc 1 237 30 is_stmt 0 view .LVU528
 1717 00a6 0120     		movs	r0, #1
 1718 00a8 84F82000 		strb	r0, [r4, #32]
 239:Service/Srv_SensorMonitor.c **** 
 1719              		.loc 1 239 17 is_stmt 1 view .LVU529
 239:Service/Srv_SensorMonitor.c **** 
 1720              		.loc 1 239 37 is_stmt 0 view .LVU530
 1721 00ac 84F82C00 		strb	r0, [r4, #44]
 242:Service/Srv_SensorMonitor.c ****                 obj->sec_imu_type = SrvIMU_Dev_None;
 1722              		.loc 1 242 17 is_stmt 1 view .LVU531
 242:Service/Srv_SensorMonitor.c ****                 obj->sec_imu_type = SrvIMU_Dev_None;
 1723              		.loc 1 242 23 is_stmt 0 view .LVU532
 1724 00b0 2D4B     		ldr	r3, .L142
 1725 00b2 5B69     		ldr	r3, [r3, #20]
 242:Service/Srv_SensorMonitor.c ****                 obj->sec_imu_type = SrvIMU_Dev_None;
 1726              		.loc 1 242 17 view .LVU533
 1727 00b4 04F13001 		add	r1, r4, #48
 1728 00b8 9847     		blx	r3
 1729              	.LVL172:
 243:Service/Srv_SensorMonitor.c ****                 break;
 1730              		.loc 1 243 17 is_stmt 1 view .LVU534
 243:Service/Srv_SensorMonitor.c ****                 break;
 1731              		.loc 1 243 35 is_stmt 0 view .LVU535
 1732 00ba 0423     		movs	r3, #4
 1733 00bc 84F83130 		strb	r3, [r4, #49]
 244:Service/Srv_SensorMonitor.c **** 
 1734              		.loc 1 244 17 is_stmt 1 view .LVU536
 1735 00c0 D6E7     		b	.L129
 1736              	.L140:
 232:Service/Srv_SensorMonitor.c ****                     memset(&obj->PriIMU_Range, 0, sizeof(obj->PriIMU_Range));
 1737              		.loc 1 232 21 view .LVU537
 1738 00c2 2D4A     		ldr	r2, .L142+16
 1739 00c4 2A49     		ldr	r1, .L142+8
 1740 00c6 2B48     		ldr	r0, .L142+12
 1741 00c8 FFF7FEFF 		bl	Debug_Print
 1742              	.LVL173:
 233:Service/Srv_SensorMonitor.c ****                     return false;
 1743              		.loc 1 233 21 view .LVU538
 1744 00cc 0023     		movs	r3, #0
ARM GAS  C:\Users\8bit\AppData\Local\Temp\ccoxdEfV.s 			page 48


 1745 00ce 6362     		str	r3, [r4, #36]	@ unaligned
 234:Service/Srv_SensorMonitor.c ****                 }
 1746              		.loc 1 234 21 view .LVU539
 234:Service/Srv_SensorMonitor.c ****                 }
 1747              		.loc 1 234 28 is_stmt 0 view .LVU540
 1748 00d0 ADE7     		b	.L125
 1749              	.LVL174:
 1750              	.L127:
 247:Service/Srv_SensorMonitor.c ****                 memset(&obj->PriIMU_Range, 0, sizeof(obj->PriIMU_Range));
 1751              		.loc 1 247 17 is_stmt 1 view .LVU541
 1752 00d2 2B4A     		ldr	r2, .L142+24
 1753 00d4 2649     		ldr	r1, .L142+8
 1754 00d6 2748     		ldr	r0, .L142+12
 1755              	.LVL175:
 247:Service/Srv_SensorMonitor.c ****                 memset(&obj->PriIMU_Range, 0, sizeof(obj->PriIMU_Range));
 1756              		.loc 1 247 17 is_stmt 0 view .LVU542
 1757 00d8 FFF7FEFF 		bl	Debug_Print
 1758              	.LVL176:
 248:Service/Srv_SensorMonitor.c ****                 memset(&obj->SecIMU_Range, 0, sizeof(obj->SecIMU_Range));
 1759              		.loc 1 248 17 is_stmt 1 view .LVU543
 1760 00dc 0023     		movs	r3, #0
 1761 00de 6362     		str	r3, [r4, #36]	@ unaligned
 249:Service/Srv_SensorMonitor.c ****                 
 1762              		.loc 1 249 17 view .LVU544
 249:Service/Srv_SensorMonitor.c ****                 
 1763              		.loc 1 249 24 is_stmt 0 view .LVU545
 1764 00e0 04F12806 		add	r6, r4, #40
 249:Service/Srv_SensorMonitor.c ****                 
 1765              		.loc 1 249 17 view .LVU546
 1766 00e4 A362     		str	r3, [r4, #40]	@ unaligned
 251:Service/Srv_SensorMonitor.c ****                 obj->sec_range_get = SrvIMU.get_range(SrvIMU_SecModule, &obj->SecIMU_Range);
 1767              		.loc 1 251 17 is_stmt 1 view .LVU547
 251:Service/Srv_SensorMonitor.c ****                 obj->sec_range_get = SrvIMU.get_range(SrvIMU_SecModule, &obj->SecIMU_Range);
 1768              		.loc 1 251 44 is_stmt 0 view .LVU548
 1769 00e6 204D     		ldr	r5, .L142
 1770 00e8 EB68     		ldr	r3, [r5, #12]
 251:Service/Srv_SensorMonitor.c ****                 obj->sec_range_get = SrvIMU.get_range(SrvIMU_SecModule, &obj->SecIMU_Range);
 1771              		.loc 1 251 38 view .LVU549
 1772 00ea 04F12401 		add	r1, r4, #36
 1773 00ee 0120     		movs	r0, #1
 1774 00f0 9847     		blx	r3
 1775              	.LVL177:
 251:Service/Srv_SensorMonitor.c ****                 obj->sec_range_get = SrvIMU.get_range(SrvIMU_SecModule, &obj->SecIMU_Range);
 1776              		.loc 1 251 36 view .LVU550
 1777 00f2 84F82100 		strb	r0, [r4, #33]
 252:Service/Srv_SensorMonitor.c ****                 
 1778              		.loc 1 252 17 is_stmt 1 view .LVU551
 252:Service/Srv_SensorMonitor.c ****                 
 1779              		.loc 1 252 44 is_stmt 0 view .LVU552
 1780 00f6 EB68     		ldr	r3, [r5, #12]
 252:Service/Srv_SensorMonitor.c ****                 
 1781              		.loc 1 252 38 view .LVU553
 1782 00f8 3146     		mov	r1, r6
 1783 00fa 0220     		movs	r0, #2
 1784 00fc 9847     		blx	r3
 1785              	.LVL178:
 252:Service/Srv_SensorMonitor.c ****                 
ARM GAS  C:\Users\8bit\AppData\Local\Temp\ccoxdEfV.s 			page 49


 1786              		.loc 1 252 36 view .LVU554
 1787 00fe 84F82200 		strb	r0, [r4, #34]
 255:Service/Srv_SensorMonitor.c ****                 SrvIMU.get_type(SrvIMU_SecModule, &obj->sec_imu_type);
 1788              		.loc 1 255 17 is_stmt 1 view .LVU555
 255:Service/Srv_SensorMonitor.c ****                 SrvIMU.get_type(SrvIMU_SecModule, &obj->sec_imu_type);
 1789              		.loc 1 255 23 is_stmt 0 view .LVU556
 1790 0102 6B69     		ldr	r3, [r5, #20]
 255:Service/Srv_SensorMonitor.c ****                 SrvIMU.get_type(SrvIMU_SecModule, &obj->sec_imu_type);
 1791              		.loc 1 255 17 view .LVU557
 1792 0104 04F13001 		add	r1, r4, #48
 1793 0108 0120     		movs	r0, #1
 1794 010a 9847     		blx	r3
 1795              	.LVL179:
 256:Service/Srv_SensorMonitor.c **** 
 1796              		.loc 1 256 17 is_stmt 1 view .LVU558
 256:Service/Srv_SensorMonitor.c **** 
 1797              		.loc 1 256 23 is_stmt 0 view .LVU559
 1798 010c 6B69     		ldr	r3, [r5, #20]
 256:Service/Srv_SensorMonitor.c **** 
 1799              		.loc 1 256 17 view .LVU560
 1800 010e 04F13101 		add	r1, r4, #49
 1801 0112 0220     		movs	r0, #2
 1802 0114 9847     		blx	r3
 1803              	.LVL180:
 259:Service/Srv_SensorMonitor.c ****                 {
 1804              		.loc 1 259 17 is_stmt 1 view .LVU561
 259:Service/Srv_SensorMonitor.c ****                 {
 1805              		.loc 1 259 25 is_stmt 0 view .LVU562
 1806 0116 94F82130 		ldrb	r3, [r4, #33]	@ zero_extendqisi2
 259:Service/Srv_SensorMonitor.c ****                 {
 1807              		.loc 1 259 20 view .LVU563
 1808 011a 13B9     		cbnz	r3, .L131
 259:Service/Srv_SensorMonitor.c ****                 {
 1809              		.loc 1 259 48 discriminator 1 view .LVU564
 1810 011c 94F82250 		ldrb	r5, [r4, #34]	@ zero_extendqisi2
 259:Service/Srv_SensorMonitor.c ****                 {
 1811              		.loc 1 259 41 discriminator 1 view .LVU565
 1812 0120 55B1     		cbz	r5, .L141
 1813              	.L131:
 268:Service/Srv_SensorMonitor.c ****                     {
 1814              		.loc 1 268 21 is_stmt 1 view .LVU566
 268:Service/Srv_SensorMonitor.c ****                     {
 1815              		.loc 1 268 49 is_stmt 0 view .LVU567
 1816 0122 94F82220 		ldrb	r2, [r4, #34]	@ zero_extendqisi2
 268:Service/Srv_SensorMonitor.c ****                     {
 1817              		.loc 1 268 24 view .LVU568
 1818 0126 83B1     		cbz	r3, .L132
 1819 0128 7AB1     		cbz	r2, .L132
 270:Service/Srv_SensorMonitor.c ****                         obj->IMU_SampleMode = SrvIMU_Both_Sample;
 1820              		.loc 1 270 25 is_stmt 1 view .LVU569
 270:Service/Srv_SensorMonitor.c ****                         obj->IMU_SampleMode = SrvIMU_Both_Sample;
 1821              		.loc 1 270 38 is_stmt 0 view .LVU570
 1822 012a 0223     		movs	r3, #2
 1823 012c 84F82030 		strb	r3, [r4, #32]
 271:Service/Srv_SensorMonitor.c ****                     }
 1824              		.loc 1 271 25 is_stmt 1 view .LVU571
 271:Service/Srv_SensorMonitor.c ****                     }
ARM GAS  C:\Users\8bit\AppData\Local\Temp\ccoxdEfV.s 			page 50


 1825              		.loc 1 271 45 is_stmt 0 view .LVU572
 1826 0130 0323     		movs	r3, #3
 1827 0132 84F82C30 		strb	r3, [r4, #44]
 1828 0136 9BE7     		b	.L129
 1829              	.L141:
 261:Service/Srv_SensorMonitor.c ****                     memset(&obj->PriIMU_Range, 0, sizeof(obj->PriIMU_Range));
 1830              		.loc 1 261 21 is_stmt 1 view .LVU573
 1831 0138 0F4A     		ldr	r2, .L142+16
 1832 013a 0D49     		ldr	r1, .L142+8
 1833 013c 0D48     		ldr	r0, .L142+12
 1834 013e FFF7FEFF 		bl	Debug_Print
 1835              	.LVL181:
 262:Service/Srv_SensorMonitor.c ****                     memset(&obj->SecIMU_Range, 0, sizeof(obj->SecIMU_Range));
 1836              		.loc 1 262 21 view .LVU574
 1837 0142 0023     		movs	r3, #0
 1838 0144 6362     		str	r3, [r4, #36]	@ unaligned
 263:Service/Srv_SensorMonitor.c ****                     return false;
 1839              		.loc 1 263 21 view .LVU575
 1840 0146 A362     		str	r3, [r4, #40]	@ unaligned
 264:Service/Srv_SensorMonitor.c ****                 }
 1841              		.loc 1 264 21 view .LVU576
 264:Service/Srv_SensorMonitor.c ****                 }
 1842              		.loc 1 264 28 is_stmt 0 view .LVU577
 1843 0148 71E7     		b	.L125
 1844              	.L132:
 275:Service/Srv_SensorMonitor.c ****                         if (obj->pri_range_get)
 1845              		.loc 1 275 25 is_stmt 1 view .LVU578
 275:Service/Srv_SensorMonitor.c ****                         if (obj->pri_range_get)
 1846              		.loc 1 275 38 is_stmt 0 view .LVU579
 1847 014a 0122     		movs	r2, #1
 1848 014c 84F82020 		strb	r2, [r4, #32]
 276:Service/Srv_SensorMonitor.c ****                         {
 1849              		.loc 1 276 25 is_stmt 1 view .LVU580
 276:Service/Srv_SensorMonitor.c ****                         {
 1850              		.loc 1 276 28 is_stmt 0 view .LVU581
 1851 0150 13B1     		cbz	r3, .L133
 278:Service/Srv_SensorMonitor.c ****                         }
 1852              		.loc 1 278 29 is_stmt 1 view .LVU582
 278:Service/Srv_SensorMonitor.c ****                         }
 1853              		.loc 1 278 49 is_stmt 0 view .LVU583
 1854 0152 84F82C20 		strb	r2, [r4, #44]
 1855 0156 8BE7     		b	.L129
 1856              	.L133:
 281:Service/Srv_SensorMonitor.c ****                     }
 1857              		.loc 1 281 29 is_stmt 1 view .LVU584
 281:Service/Srv_SensorMonitor.c ****                     }
 1858              		.loc 1 281 49 is_stmt 0 view .LVU585
 1859 0158 0223     		movs	r3, #2
 1860 015a 84F82C30 		strb	r3, [r4, #44]
 1861 015e 87E7     		b	.L129
 1862              	.LVL182:
 1863              	.L134:
 294:Service/Srv_SensorMonitor.c **** }
 1864              		.loc 1 294 12 view .LVU586
 1865 0160 0025     		movs	r5, #0
 1866 0162 64E7     		b	.L125
 1867              	.L135:
ARM GAS  C:\Users\8bit\AppData\Local\Temp\ccoxdEfV.s 			page 51


 294:Service/Srv_SensorMonitor.c **** }
 1868              		.loc 1 294 12 view .LVU587
 1869 0164 0025     		movs	r5, #0
 1870 0166 62E7     		b	.L125
 1871              	.L143:
 1872              		.align	2
 1873              	.L142:
 1874 0168 00000000 		.word	SrvIMU
 1875 016c 00000000 		.word	.LC0
 1876 0170 18000000 		.word	.LC1
 1877 0174 00000000 		.word	DebugPort
 1878 0178 34000000 		.word	.LC2
 1879 017c 4C000000 		.word	.LC3
 1880 0180 64000000 		.word	.LC4
 1881              		.cfi_endproc
 1882              	.LFE149:
 1884              		.section	.rodata.SrvSensorMonitor_Baro_Init.str1.4,"aMS",%progbits,1
 1885              		.align	2
 1886              	.LC5:
 1887 0000 4261726F 		.ascii	"Baro init accomplished\015\012\000"
 1887      20696E69 
 1887      74206163 
 1887      636F6D70 
 1887      6C697368 
 1888 0019 000000   		.align	2
 1889              	.LC6:
 1890 001c 4261726F 		.ascii	"Baro init failed\015\012\000"
 1890      20696E69 
 1890      74206661 
 1890      696C6564 
 1890      0D0A00
 1891              		.section	.text.SrvSensorMonitor_Baro_Init,"ax",%progbits
 1892              		.align	1
 1893              		.syntax unified
 1894              		.thumb
 1895              		.thumb_func
 1897              	SrvSensorMonitor_Baro_Init:
 1898              	.LVL183:
 1899              	.LFB157:
 479:Service/Srv_SensorMonitor.c ****     if (SrvBaro.init && obj)
 1900              		.loc 1 479 1 is_stmt 1 view -0
 1901              		.cfi_startproc
 1902              		@ args = 0, pretend = 0, frame = 0
 1903              		@ frame_needed = 0, uses_anonymous_args = 0
 480:Service/Srv_SensorMonitor.c ****     {
 1904              		.loc 1 480 5 view .LVU589
 480:Service/Srv_SensorMonitor.c ****     {
 1905              		.loc 1 480 16 is_stmt 0 view .LVU590
 1906 0000 114B     		ldr	r3, .L154
 1907 0002 1B68     		ldr	r3, [r3]
 480:Service/Srv_SensorMonitor.c ****     {
 1908              		.loc 1 480 8 view .LVU591
 1909 0004 DBB1     		cbz	r3, .L147
 479:Service/Srv_SensorMonitor.c ****     if (SrvBaro.init && obj)
 1910              		.loc 1 479 1 discriminator 1 view .LVU592
 1911 0006 10B5     		push	{r4, lr}
 1912              	.LCFI11:
ARM GAS  C:\Users\8bit\AppData\Local\Temp\ccoxdEfV.s 			page 52


 1913              		.cfi_def_cfa_offset 8
 1914              		.cfi_offset 4, -8
 1915              		.cfi_offset 14, -4
 1916 0008 0446     		mov	r4, r0
 480:Service/Srv_SensorMonitor.c ****     {
 1917              		.loc 1 480 22 discriminator 1 view .LVU593
 1918 000a D0B1     		cbz	r0, .L148
 482:Service/Srv_SensorMonitor.c ****         obj->baro_bus_type = BARO_BUS_TYPE;
 1919              		.loc 1 482 9 is_stmt 1 view .LVU594
 482:Service/Srv_SensorMonitor.c ****         obj->baro_bus_type = BARO_BUS_TYPE;
 1920              		.loc 1 482 24 is_stmt 0 view .LVU595
 1921 000c 0120     		movs	r0, #1
 1922              	.LVL184:
 482:Service/Srv_SensorMonitor.c ****         obj->baro_bus_type = BARO_BUS_TYPE;
 1923              		.loc 1 482 24 view .LVU596
 1924 000e 84F82D00 		strb	r0, [r4, #45]
 483:Service/Srv_SensorMonitor.c ****         obj->baro_err = SrvBaro.init(BARO_TYPE, BARO_BUS_TYPE);
 1925              		.loc 1 483 9 is_stmt 1 view .LVU597
 483:Service/Srv_SensorMonitor.c ****         obj->baro_err = SrvBaro.init(BARO_TYPE, BARO_BUS_TYPE);
 1926              		.loc 1 483 28 is_stmt 0 view .LVU598
 1927 0012 84F82E00 		strb	r0, [r4, #46]
 484:Service/Srv_SensorMonitor.c **** 
 1928              		.loc 1 484 9 is_stmt 1 view .LVU599
 484:Service/Srv_SensorMonitor.c **** 
 1929              		.loc 1 484 25 is_stmt 0 view .LVU600
 1930 0016 0146     		mov	r1, r0
 1931 0018 9847     		blx	r3
 1932              	.LVL185:
 1933 001a 40B2     		sxtb	r0, r0
 484:Service/Srv_SensorMonitor.c **** 
 1934              		.loc 1 484 23 view .LVU601
 1935 001c 84F82F00 		strb	r0, [r4, #47]
 486:Service/Srv_SensorMonitor.c ****         {
 1936              		.loc 1 486 9 is_stmt 1 view .LVU602
 486:Service/Srv_SensorMonitor.c ****         {
 1937              		.loc 1 486 12 is_stmt 0 view .LVU603
 1938 0020 30B1     		cbz	r0, .L153
 491:Service/Srv_SensorMonitor.c ****     }
 1939              		.loc 1 491 9 is_stmt 1 view .LVU604
 1940 0022 0A4A     		ldr	r2, .L154+4
 1941 0024 0A49     		ldr	r1, .L154+8
 1942 0026 0B48     		ldr	r0, .L154+12
 1943 0028 FFF7FEFF 		bl	Debug_Print
 1944              	.LVL186:
 494:Service/Srv_SensorMonitor.c **** }
 1945              		.loc 1 494 12 is_stmt 0 view .LVU605
 1946 002c 0020     		movs	r0, #0
 1947              	.L145:
 495:Service/Srv_SensorMonitor.c **** 
 1948              		.loc 1 495 1 view .LVU606
 1949 002e 10BD     		pop	{r4, pc}
 1950              	.LVL187:
 1951              	.L153:
 488:Service/Srv_SensorMonitor.c ****             return true;
 1952              		.loc 1 488 13 is_stmt 1 view .LVU607
 1953 0030 094A     		ldr	r2, .L154+16
 1954 0032 0749     		ldr	r1, .L154+8
ARM GAS  C:\Users\8bit\AppData\Local\Temp\ccoxdEfV.s 			page 53


 1955 0034 0748     		ldr	r0, .L154+12
 1956 0036 FFF7FEFF 		bl	Debug_Print
 1957              	.LVL188:
 489:Service/Srv_SensorMonitor.c ****         }
 1958              		.loc 1 489 13 view .LVU608
 489:Service/Srv_SensorMonitor.c ****         }
 1959              		.loc 1 489 20 is_stmt 0 view .LVU609
 1960 003a 0120     		movs	r0, #1
 1961 003c F7E7     		b	.L145
 1962              	.LVL189:
 1963              	.L147:
 1964              	.LCFI12:
 1965              		.cfi_def_cfa_offset 0
 1966              		.cfi_restore 4
 1967              		.cfi_restore 14
 494:Service/Srv_SensorMonitor.c **** }
 1968              		.loc 1 494 12 view .LVU610
 1969 003e 0020     		movs	r0, #0
 1970              	.LVL190:
 495:Service/Srv_SensorMonitor.c **** 
 1971              		.loc 1 495 1 view .LVU611
 1972 0040 7047     		bx	lr
 1973              	.LVL191:
 1974              	.L148:
 1975              	.LCFI13:
 1976              		.cfi_def_cfa_offset 8
 1977              		.cfi_offset 4, -8
 1978              		.cfi_offset 14, -4
 494:Service/Srv_SensorMonitor.c **** }
 1979              		.loc 1 494 12 view .LVU612
 1980 0042 0020     		movs	r0, #0
 1981              	.LVL192:
 494:Service/Srv_SensorMonitor.c **** }
 1982              		.loc 1 494 12 view .LVU613
 1983 0044 F3E7     		b	.L145
 1984              	.L155:
 1985 0046 00BF     		.align	2
 1986              	.L154:
 1987 0048 00000000 		.word	SrvBaro
 1988 004c 1C000000 		.word	.LC6
 1989 0050 18000000 		.word	.LC1
 1990 0054 00000000 		.word	DebugPort
 1991 0058 00000000 		.word	.LC5
 1992              		.cfi_endproc
 1993              	.LFE157:
 1995              		.section	.text.SrvSensorMonitor_Init,"ax",%progbits
 1996              		.align	1
 1997              		.syntax unified
 1998              		.thumb
 1999              		.thumb_func
 2001              	SrvSensorMonitor_Init:
 2002              	.LVL193:
 2003              	.LFB145:
  47:Service/Srv_SensorMonitor.c ****     uint8_t enable_sensor_num = 0;
 2004              		.loc 1 47 1 is_stmt 1 view -0
 2005              		.cfi_startproc
 2006              		@ args = 0, pretend = 0, frame = 0
ARM GAS  C:\Users\8bit\AppData\Local\Temp\ccoxdEfV.s 			page 54


 2007              		@ frame_needed = 0, uses_anonymous_args = 0
  47:Service/Srv_SensorMonitor.c ****     uint8_t enable_sensor_num = 0;
 2008              		.loc 1 47 1 is_stmt 0 view .LVU615
 2009 0000 2DE9F041 		push	{r4, r5, r6, r7, r8, lr}
 2010              	.LCFI14:
 2011              		.cfi_def_cfa_offset 24
 2012              		.cfi_offset 4, -24
 2013              		.cfi_offset 5, -20
 2014              		.cfi_offset 6, -16
 2015              		.cfi_offset 7, -12
 2016              		.cfi_offset 8, -8
 2017              		.cfi_offset 14, -4
  48:Service/Srv_SensorMonitor.c ****     uint16_t list_index = 0;
 2018              		.loc 1 48 5 is_stmt 1 view .LVU616
 2019              	.LVL194:
  49:Service/Srv_SensorMonitor.c **** 
 2020              		.loc 1 49 5 view .LVU617
  51:Service/Srv_SensorMonitor.c ****     {
 2021              		.loc 1 51 5 view .LVU618
  51:Service/Srv_SensorMonitor.c ****     {
 2022              		.loc 1 51 8 is_stmt 0 view .LVU619
 2023 0004 0028     		cmp	r0, #0
 2024 0006 00F09F80 		beq	.L168
 2025 000a 0446     		mov	r4, r0
  53:Service/Srv_SensorMonitor.c ****         
 2026              		.loc 1 53 9 is_stmt 1 view .LVU620
  53:Service/Srv_SensorMonitor.c ****         
 2027              		.loc 1 53 29 is_stmt 0 view .LVU621
 2028 000c 0068     		ldr	r0, [r0]
 2029              	.LVL195:
  53:Service/Srv_SensorMonitor.c ****         
 2030              		.loc 1 53 29 view .LVU622
 2031 000e FFF7FEFF 		bl	Get_OnSet_Bit_Num
 2032              	.LVL196:
 2033 0012 0546     		mov	r5, r0
 2034              	.LVL197:
  55:Service/Srv_SensorMonitor.c ****         if (obj->statistic_list == NULL)
 2035              		.loc 1 55 9 is_stmt 1 view .LVU623
  55:Service/Srv_SensorMonitor.c ****         if (obj->statistic_list == NULL)
 2036              		.loc 1 55 42 is_stmt 0 view .LVU624
 2037 0014 514B     		ldr	r3, .L176
 2038 0016 DB6A     		ldr	r3, [r3, #44]
  55:Service/Srv_SensorMonitor.c ****         if (obj->statistic_list == NULL)
 2039              		.loc 1 55 31 view .LVU625
 2040 0018 2C20     		movs	r0, #44
 2041 001a 05FB00F0 		mul	r0, r5, r0
 2042 001e 9847     		blx	r3
 2043              	.LVL198:
  55:Service/Srv_SensorMonitor.c ****         if (obj->statistic_list == NULL)
 2044              		.loc 1 55 29 view .LVU626
 2045 0020 E061     		str	r0, [r4, #28]
  56:Service/Srv_SensorMonitor.c ****         {
 2046              		.loc 1 56 9 is_stmt 1 view .LVU627
  56:Service/Srv_SensorMonitor.c ****         {
 2047              		.loc 1 56 12 is_stmt 0 view .LVU628
 2048 0022 68B1     		cbz	r0, .L173
  63:Service/Srv_SensorMonitor.c ****         {
ARM GAS  C:\Users\8bit\AppData\Local\Temp\ccoxdEfV.s 			page 55


 2049              		.loc 1 63 9 is_stmt 1 view .LVU629
  63:Service/Srv_SensorMonitor.c ****         {
 2050              		.loc 1 63 13 is_stmt 0 view .LVU630
 2051 0024 2378     		ldrb	r3, [r4]	@ zero_extendqisi2
  63:Service/Srv_SensorMonitor.c ****         {
 2052              		.loc 1 63 12 view .LVU631
 2053 0026 13F0010F 		tst	r3, #1
 2054 002a 0ED1     		bne	.L174
 2055              	.L159:
  76:Service/Srv_SensorMonitor.c ****                 obj->init_state_reg.bit.imu = false;
 2056              		.loc 1 76 13 is_stmt 1 view .LVU632
  76:Service/Srv_SensorMonitor.c ****                 obj->init_state_reg.bit.imu = false;
 2057              		.loc 1 76 17 is_stmt 0 view .LVU633
 2058 002c 2378     		ldrb	r3, [r4]	@ zero_extendqisi2
  76:Service/Srv_SensorMonitor.c ****                 obj->init_state_reg.bit.imu = false;
 2059              		.loc 1 76 16 view .LVU634
 2060 002e 13F0010F 		tst	r3, #1
 2061 0032 03D0     		beq	.L162
  77:Service/Srv_SensorMonitor.c **** 
 2062              		.loc 1 77 17 is_stmt 1 view .LVU635
  77:Service/Srv_SensorMonitor.c **** 
 2063              		.loc 1 77 45 is_stmt 0 view .LVU636
 2064 0034 2379     		ldrb	r3, [r4, #4]	@ zero_extendqisi2
 2065 0036 6FF30003 		bfc	r3, #0, #1
 2066 003a 2371     		strb	r3, [r4, #4]
 2067              	.L162:
  79:Service/Srv_SensorMonitor.c ****         }
 2068              		.loc 1 79 13 is_stmt 1 view .LVU637
  79:Service/Srv_SensorMonitor.c ****         }
 2069              		.loc 1 79 20 is_stmt 0 view .LVU638
 2070 003c 0026     		movs	r6, #0
 2071 003e 84E0     		b	.L157
 2072              	.L173:
  58:Service/Srv_SensorMonitor.c ****             return false;
 2073              		.loc 1 58 13 is_stmt 1 view .LVU639
  58:Service/Srv_SensorMonitor.c ****             return false;
 2074              		.loc 1 58 24 is_stmt 0 view .LVU640
 2075 0040 464B     		ldr	r3, .L176
 2076 0042 1B6B     		ldr	r3, [r3, #48]
  58:Service/Srv_SensorMonitor.c ****             return false;
 2077              		.loc 1 58 13 view .LVU641
 2078 0044 9847     		blx	r3
 2079              	.LVL199:
  59:Service/Srv_SensorMonitor.c ****         }
 2080              		.loc 1 59 13 is_stmt 1 view .LVU642
  59:Service/Srv_SensorMonitor.c ****         }
 2081              		.loc 1 59 20 is_stmt 0 view .LVU643
 2082 0046 0026     		movs	r6, #0
 2083 0048 7FE0     		b	.L157
 2084              	.L174:
  63:Service/Srv_SensorMonitor.c ****         {
 2085              		.loc 1 63 41 discriminator 1 view .LVU644
 2086 004a 2046     		mov	r0, r4
 2087 004c FFF7FEFF 		bl	SrvSensorMonitor_IMU_Init
 2088              	.LVL200:
  63:Service/Srv_SensorMonitor.c ****         {
 2089              		.loc 1 63 38 discriminator 1 view .LVU645
ARM GAS  C:\Users\8bit\AppData\Local\Temp\ccoxdEfV.s 			page 56


 2090 0050 0646     		mov	r6, r0
 2091 0052 0028     		cmp	r0, #0
 2092 0054 EAD0     		beq	.L159
  65:Service/Srv_SensorMonitor.c ****                 return false;
 2093              		.loc 1 65 13 is_stmt 1 view .LVU646
  65:Service/Srv_SensorMonitor.c ****                 return false;
 2094              		.loc 1 65 28 is_stmt 0 view .LVU647
 2095 0056 1FFA85F8 		uxth	r8, r5
  68:Service/Srv_SensorMonitor.c ****             obj->statistic_imu = &obj->statistic_list[list_index];
 2096              		.loc 1 68 13 is_stmt 1 view .LVU648
  68:Service/Srv_SensorMonitor.c ****             obj->statistic_imu = &obj->statistic_list[list_index];
 2097              		.loc 1 68 41 is_stmt 0 view .LVU649
 2098 005a 2379     		ldrb	r3, [r4, #4]	@ zero_extendqisi2
 2099 005c 43F00103 		orr	r3, r3, #1
 2100 0060 2371     		strb	r3, [r4, #4]
  69:Service/Srv_SensorMonitor.c ****             obj->statistic_imu->set_period = SrvSensorMonitor_Get_FreqVal(obj->freq_reg.bit.imu);
 2101              		.loc 1 69 13 is_stmt 1 view .LVU650
  69:Service/Srv_SensorMonitor.c ****             obj->statistic_imu->set_period = SrvSensorMonitor_Get_FreqVal(obj->freq_reg.bit.imu);
 2102              		.loc 1 69 38 is_stmt 0 view .LVU651
 2103 0062 E769     		ldr	r7, [r4, #28]
  69:Service/Srv_SensorMonitor.c ****             obj->statistic_imu->set_period = SrvSensorMonitor_Get_FreqVal(obj->freq_reg.bit.imu);
 2104              		.loc 1 69 32 view .LVU652
 2105 0064 E760     		str	r7, [r4, #12]
  70:Service/Srv_SensorMonitor.c ****             obj->statistic_imu->is_calid = Calib_None; 
 2106              		.loc 1 70 13 is_stmt 1 view .LVU653
  70:Service/Srv_SensorMonitor.c ****             obj->statistic_imu->is_calid = Calib_None; 
 2107              		.loc 1 70 92 is_stmt 0 view .LVU654
 2108 0066 207A     		ldrb	r0, [r4, #8]	@ zero_extendqisi2
  70:Service/Srv_SensorMonitor.c ****             obj->statistic_imu->is_calid = Calib_None; 
 2109              		.loc 1 70 46 view .LVU655
 2110 0068 00F00F00 		and	r0, r0, #15
 2111 006c FFF7FEFF 		bl	SrvSensorMonitor_Get_FreqVal
 2112              	.LVL201:
  70:Service/Srv_SensorMonitor.c ****             obj->statistic_imu->is_calid = Calib_None; 
 2113              		.loc 1 70 44 view .LVU656
 2114 0070 B862     		str	r0, [r7, #40]
  71:Service/Srv_SensorMonitor.c ****             list_index ++;
 2115              		.loc 1 71 13 is_stmt 1 view .LVU657
  71:Service/Srv_SensorMonitor.c ****             list_index ++;
 2116              		.loc 1 71 16 is_stmt 0 view .LVU658
 2117 0072 E368     		ldr	r3, [r4, #12]
  71:Service/Srv_SensorMonitor.c ****             list_index ++;
 2118              		.loc 1 71 42 view .LVU659
 2119 0074 0022     		movs	r2, #0
 2120 0076 1A76     		strb	r2, [r3, #24]
  72:Service/Srv_SensorMonitor.c ****         }
 2121              		.loc 1 72 13 is_stmt 1 view .LVU660
 2122              	.LVL202:
  82:Service/Srv_SensorMonitor.c ****         {
 2123              		.loc 1 82 9 view .LVU661
  82:Service/Srv_SensorMonitor.c ****         {
 2124              		.loc 1 82 13 is_stmt 0 view .LVU662
 2125 0078 2378     		ldrb	r3, [r4]	@ zero_extendqisi2
  82:Service/Srv_SensorMonitor.c ****         {
 2126              		.loc 1 82 12 view .LVU663
 2127 007a 13F0020F 		tst	r3, #2
 2128 007e 2BD1     		bne	.L160
ARM GAS  C:\Users\8bit\AppData\Local\Temp\ccoxdEfV.s 			page 57


 2129              	.L161:
  95:Service/Srv_SensorMonitor.c ****             obj->init_state_reg.bit.mag = false;
 2130              		.loc 1 95 13 is_stmt 1 view .LVU664
  95:Service/Srv_SensorMonitor.c ****             obj->init_state_reg.bit.mag = false;
 2131              		.loc 1 95 16 is_stmt 0 view .LVU665
 2132 0080 2369     		ldr	r3, [r4, #16]
  95:Service/Srv_SensorMonitor.c ****             obj->init_state_reg.bit.mag = false;
 2133              		.loc 1 95 42 view .LVU666
 2134 0082 0022     		movs	r2, #0
 2135 0084 1A76     		strb	r2, [r3, #24]
  96:Service/Srv_SensorMonitor.c ****         }
 2136              		.loc 1 96 13 is_stmt 1 view .LVU667
  96:Service/Srv_SensorMonitor.c ****         }
 2137              		.loc 1 96 41 is_stmt 0 view .LVU668
 2138 0086 2379     		ldrb	r3, [r4, #4]	@ zero_extendqisi2
 2139 0088 62F34103 		bfi	r3, r2, #1, #1
 2140 008c 2371     		strb	r3, [r4, #4]
  72:Service/Srv_SensorMonitor.c ****         }
 2141              		.loc 1 72 24 view .LVU669
 2142 008e 0125     		movs	r5, #1
 2143              	.LVL203:
 2144              	.L163:
  99:Service/Srv_SensorMonitor.c ****         {
 2145              		.loc 1 99 9 is_stmt 1 view .LVU670
  99:Service/Srv_SensorMonitor.c ****         {
 2146              		.loc 1 99 13 is_stmt 0 view .LVU671
 2147 0090 2378     		ldrb	r3, [r4]	@ zero_extendqisi2
  99:Service/Srv_SensorMonitor.c ****         {
 2148              		.loc 1 99 12 view .LVU672
 2149 0092 13F0040F 		tst	r3, #4
 2150 0096 36D1     		bne	.L175
 2151              	.L164:
 112:Service/Srv_SensorMonitor.c ****             obj->init_state_reg.bit.baro = false;
 2152              		.loc 1 112 13 is_stmt 1 view .LVU673
 112:Service/Srv_SensorMonitor.c ****             obj->init_state_reg.bit.baro = false;
 2153              		.loc 1 112 16 is_stmt 0 view .LVU674
 2154 0098 6369     		ldr	r3, [r4, #20]
 112:Service/Srv_SensorMonitor.c ****             obj->init_state_reg.bit.baro = false;
 2155              		.loc 1 112 43 view .LVU675
 2156 009a 0022     		movs	r2, #0
 2157 009c 1A76     		strb	r2, [r3, #24]
 113:Service/Srv_SensorMonitor.c ****         }
 2158              		.loc 1 113 13 is_stmt 1 view .LVU676
 113:Service/Srv_SensorMonitor.c ****         }
 2159              		.loc 1 113 42 is_stmt 0 view .LVU677
 2160 009e 2379     		ldrb	r3, [r4, #4]	@ zero_extendqisi2
 2161 00a0 62F38203 		bfi	r3, r2, #2, #1
 2162 00a4 2371     		strb	r3, [r4, #4]
 2163              	.L165:
 116:Service/Srv_SensorMonitor.c ****         {
 2164              		.loc 1 116 9 is_stmt 1 view .LVU678
 116:Service/Srv_SensorMonitor.c ****         {
 2165              		.loc 1 116 13 is_stmt 0 view .LVU679
 2166 00a6 2378     		ldrb	r3, [r4]	@ zero_extendqisi2
 116:Service/Srv_SensorMonitor.c ****         {
 2167              		.loc 1 116 12 view .LVU680
 2168 00a8 13F0080F 		tst	r3, #8
ARM GAS  C:\Users\8bit\AppData\Local\Temp\ccoxdEfV.s 			page 58


 2169 00ac 47D0     		beq	.L166
 116:Service/Srv_SensorMonitor.c ****         {
 2170              		.loc 1 116 42 discriminator 1 view .LVU681
 2171 00ae FFF7FEFF 		bl	SrvSensorMonitor_Flow_Init
 2172              	.LVL204:
 116:Service/Srv_SensorMonitor.c ****         {
 2173              		.loc 1 116 39 discriminator 1 view .LVU682
 2174 00b2 0028     		cmp	r0, #0
 2175 00b4 43D0     		beq	.L166
 118:Service/Srv_SensorMonitor.c ****                 return false;
 2176              		.loc 1 118 13 is_stmt 1 view .LVU683
 118:Service/Srv_SensorMonitor.c ****                 return false;
 2177              		.loc 1 118 16 is_stmt 0 view .LVU684
 2178 00b6 A845     		cmp	r8, r5
 2179 00b8 4ED3     		bcc	.L171
 121:Service/Srv_SensorMonitor.c ****             obj->statistic_flow = &obj->statistic_list[list_index];
 2180              		.loc 1 121 13 is_stmt 1 view .LVU685
 121:Service/Srv_SensorMonitor.c ****             obj->statistic_flow = &obj->statistic_list[list_index];
 2181              		.loc 1 121 42 is_stmt 0 view .LVU686
 2182 00ba 2379     		ldrb	r3, [r4, #4]	@ zero_extendqisi2
 2183 00bc 43F00803 		orr	r3, r3, #8
 2184 00c0 2371     		strb	r3, [r4, #4]
 122:Service/Srv_SensorMonitor.c ****             obj->statistic_flow->set_period = SrvSensorMonitor_Get_FreqVal(obj->freq_reg.bit.flow);
 2185              		.loc 1 122 13 is_stmt 1 view .LVU687
 122:Service/Srv_SensorMonitor.c ****             obj->statistic_flow->set_period = SrvSensorMonitor_Get_FreqVal(obj->freq_reg.bit.flow);
 2186              		.loc 1 122 39 is_stmt 0 view .LVU688
 2187 00c2 E369     		ldr	r3, [r4, #28]
 122:Service/Srv_SensorMonitor.c ****             obj->statistic_flow->set_period = SrvSensorMonitor_Get_FreqVal(obj->freq_reg.bit.flow);
 2188              		.loc 1 122 35 view .LVU689
 2189 00c4 2C22     		movs	r2, #44
 2190 00c6 02FB0535 		mla	r5, r2, r5, r3
 122:Service/Srv_SensorMonitor.c ****             obj->statistic_flow->set_period = SrvSensorMonitor_Get_FreqVal(obj->freq_reg.bit.flow);
 2191              		.loc 1 122 33 view .LVU690
 2192 00ca A561     		str	r5, [r4, #24]
 123:Service/Srv_SensorMonitor.c ****             list_index ++;
 2193              		.loc 1 123 13 is_stmt 1 view .LVU691
 123:Service/Srv_SensorMonitor.c ****             list_index ++;
 2194              		.loc 1 123 93 is_stmt 0 view .LVU692
 2195 00cc 607A     		ldrb	r0, [r4, #9]	@ zero_extendqisi2
 123:Service/Srv_SensorMonitor.c ****             list_index ++;
 2196              		.loc 1 123 47 view .LVU693
 2197 00ce 0009     		lsrs	r0, r0, #4
 2198 00d0 FFF7FEFF 		bl	SrvSensorMonitor_Get_FreqVal
 2199              	.LVL205:
 123:Service/Srv_SensorMonitor.c ****             list_index ++;
 2200              		.loc 1 123 45 view .LVU694
 2201 00d4 A862     		str	r0, [r5, #40]
 124:Service/Srv_SensorMonitor.c ****         }
 2202              		.loc 1 124 13 is_stmt 1 view .LVU695
 124:Service/Srv_SensorMonitor.c ****         }
 2203              		.loc 1 124 24 is_stmt 0 view .LVU696
 2204 00d6 38E0     		b	.L157
 2205              	.LVL206:
 2206              	.L160:
  82:Service/Srv_SensorMonitor.c ****         {
 2207              		.loc 1 82 41 discriminator 1 view .LVU697
 2208 00d8 FFF7FEFF 		bl	SrvSensorMonitor_Mag_Init
ARM GAS  C:\Users\8bit\AppData\Local\Temp\ccoxdEfV.s 			page 59


 2209              	.LVL207:
  82:Service/Srv_SensorMonitor.c ****         {
 2210              		.loc 1 82 38 discriminator 1 view .LVU698
 2211 00dc 0028     		cmp	r0, #0
 2212 00de CFD0     		beq	.L161
  84:Service/Srv_SensorMonitor.c ****                 return false;
 2213              		.loc 1 84 13 is_stmt 1 view .LVU699
  84:Service/Srv_SensorMonitor.c ****                 return false;
 2214              		.loc 1 84 16 is_stmt 0 view .LVU700
 2215 00e0 002D     		cmp	r5, #0
 2216 00e2 35D0     		beq	.L169
  87:Service/Srv_SensorMonitor.c ****             obj->statistic_mag = &obj->statistic_list[list_index];
 2217              		.loc 1 87 13 is_stmt 1 view .LVU701
  87:Service/Srv_SensorMonitor.c ****             obj->statistic_mag = &obj->statistic_list[list_index];
 2218              		.loc 1 87 41 is_stmt 0 view .LVU702
 2219 00e4 2379     		ldrb	r3, [r4, #4]	@ zero_extendqisi2
 2220 00e6 43F00203 		orr	r3, r3, #2
 2221 00ea 2371     		strb	r3, [r4, #4]
  88:Service/Srv_SensorMonitor.c ****             obj->statistic_mag->set_period = SrvSensorMonitor_Get_FreqVal(obj->freq_reg.bit.mag);
 2222              		.loc 1 88 13 is_stmt 1 view .LVU703
  88:Service/Srv_SensorMonitor.c ****             obj->statistic_mag->set_period = SrvSensorMonitor_Get_FreqVal(obj->freq_reg.bit.mag);
 2223              		.loc 1 88 38 is_stmt 0 view .LVU704
 2224 00ec E569     		ldr	r5, [r4, #28]
 2225              	.LVL208:
  88:Service/Srv_SensorMonitor.c ****             obj->statistic_mag->set_period = SrvSensorMonitor_Get_FreqVal(obj->freq_reg.bit.mag);
 2226              		.loc 1 88 34 view .LVU705
 2227 00ee 2C35     		adds	r5, r5, #44
  88:Service/Srv_SensorMonitor.c ****             obj->statistic_mag->set_period = SrvSensorMonitor_Get_FreqVal(obj->freq_reg.bit.mag);
 2228              		.loc 1 88 32 view .LVU706
 2229 00f0 2561     		str	r5, [r4, #16]
  89:Service/Srv_SensorMonitor.c ****             obj->statistic_mag->is_calid = Calib_None;
 2230              		.loc 1 89 13 is_stmt 1 view .LVU707
  89:Service/Srv_SensorMonitor.c ****             obj->statistic_mag->is_calid = Calib_None;
 2231              		.loc 1 89 92 is_stmt 0 view .LVU708
 2232 00f2 207A     		ldrb	r0, [r4, #8]	@ zero_extendqisi2
  89:Service/Srv_SensorMonitor.c ****             obj->statistic_mag->is_calid = Calib_None;
 2233              		.loc 1 89 46 view .LVU709
 2234 00f4 0009     		lsrs	r0, r0, #4
 2235 00f6 FFF7FEFF 		bl	SrvSensorMonitor_Get_FreqVal
 2236              	.LVL209:
  89:Service/Srv_SensorMonitor.c ****             obj->statistic_mag->is_calid = Calib_None;
 2237              		.loc 1 89 44 view .LVU710
 2238 00fa A862     		str	r0, [r5, #40]
  90:Service/Srv_SensorMonitor.c ****             list_index ++;
 2239              		.loc 1 90 13 is_stmt 1 view .LVU711
  90:Service/Srv_SensorMonitor.c ****             list_index ++;
 2240              		.loc 1 90 16 is_stmt 0 view .LVU712
 2241 00fc 2369     		ldr	r3, [r4, #16]
  90:Service/Srv_SensorMonitor.c ****             list_index ++;
 2242              		.loc 1 90 42 view .LVU713
 2243 00fe 0022     		movs	r2, #0
 2244 0100 1A76     		strb	r2, [r3, #24]
  91:Service/Srv_SensorMonitor.c ****         }
 2245              		.loc 1 91 13 is_stmt 1 view .LVU714
 2246              	.LVL210:
  91:Service/Srv_SensorMonitor.c ****         }
 2247              		.loc 1 91 24 is_stmt 0 view .LVU715
ARM GAS  C:\Users\8bit\AppData\Local\Temp\ccoxdEfV.s 			page 60


 2248 0102 0225     		movs	r5, #2
 2249 0104 C4E7     		b	.L163
 2250              	.LVL211:
 2251              	.L175:
  99:Service/Srv_SensorMonitor.c ****         {
 2252              		.loc 1 99 42 discriminator 1 view .LVU716
 2253 0106 2046     		mov	r0, r4
 2254 0108 FFF7FEFF 		bl	SrvSensorMonitor_Baro_Init
 2255              	.LVL212:
  99:Service/Srv_SensorMonitor.c ****         {
 2256              		.loc 1 99 39 discriminator 1 view .LVU717
 2257 010c 0028     		cmp	r0, #0
 2258 010e C3D0     		beq	.L164
 101:Service/Srv_SensorMonitor.c ****                 return false;
 2259              		.loc 1 101 13 is_stmt 1 view .LVU718
 101:Service/Srv_SensorMonitor.c ****                 return false;
 2260              		.loc 1 101 16 is_stmt 0 view .LVU719
 2261 0110 A845     		cmp	r8, r5
 2262 0112 1FD3     		bcc	.L170
 104:Service/Srv_SensorMonitor.c ****             obj->statistic_baro = &obj->statistic_list[list_index];
 2263              		.loc 1 104 13 is_stmt 1 view .LVU720
 104:Service/Srv_SensorMonitor.c ****             obj->statistic_baro = &obj->statistic_list[list_index];
 2264              		.loc 1 104 42 is_stmt 0 view .LVU721
 2265 0114 2379     		ldrb	r3, [r4, #4]	@ zero_extendqisi2
 2266 0116 43F00403 		orr	r3, r3, #4
 2267 011a 2371     		strb	r3, [r4, #4]
 105:Service/Srv_SensorMonitor.c ****             obj->statistic_baro->set_period = SrvSensorMonitor_Get_FreqVal(obj->freq_reg.bit.baro);
 2268              		.loc 1 105 13 is_stmt 1 view .LVU722
 105:Service/Srv_SensorMonitor.c ****             obj->statistic_baro->set_period = SrvSensorMonitor_Get_FreqVal(obj->freq_reg.bit.baro);
 2269              		.loc 1 105 39 is_stmt 0 view .LVU723
 2270 011c E769     		ldr	r7, [r4, #28]
 105:Service/Srv_SensorMonitor.c ****             obj->statistic_baro->set_period = SrvSensorMonitor_Get_FreqVal(obj->freq_reg.bit.baro);
 2271              		.loc 1 105 35 view .LVU724
 2272 011e 2C23     		movs	r3, #44
 2273 0120 03FB0577 		mla	r7, r3, r5, r7
 105:Service/Srv_SensorMonitor.c ****             obj->statistic_baro->set_period = SrvSensorMonitor_Get_FreqVal(obj->freq_reg.bit.baro);
 2274              		.loc 1 105 33 view .LVU725
 2275 0124 6761     		str	r7, [r4, #20]
 106:Service/Srv_SensorMonitor.c ****             obj->statistic_baro->is_calid = Calib_None;
 2276              		.loc 1 106 13 is_stmt 1 view .LVU726
 106:Service/Srv_SensorMonitor.c ****             obj->statistic_baro->is_calid = Calib_None;
 2277              		.loc 1 106 93 is_stmt 0 view .LVU727
 2278 0126 607A     		ldrb	r0, [r4, #9]	@ zero_extendqisi2
 106:Service/Srv_SensorMonitor.c ****             obj->statistic_baro->is_calid = Calib_None;
 2279              		.loc 1 106 47 view .LVU728
 2280 0128 00F00F00 		and	r0, r0, #15
 2281 012c FFF7FEFF 		bl	SrvSensorMonitor_Get_FreqVal
 2282              	.LVL213:
 106:Service/Srv_SensorMonitor.c ****             obj->statistic_baro->is_calid = Calib_None;
 2283              		.loc 1 106 45 view .LVU729
 2284 0130 B862     		str	r0, [r7, #40]
 107:Service/Srv_SensorMonitor.c ****             list_index ++;
 2285              		.loc 1 107 13 is_stmt 1 view .LVU730
 107:Service/Srv_SensorMonitor.c ****             list_index ++;
 2286              		.loc 1 107 16 is_stmt 0 view .LVU731
 2287 0132 6369     		ldr	r3, [r4, #20]
 107:Service/Srv_SensorMonitor.c ****             list_index ++;
ARM GAS  C:\Users\8bit\AppData\Local\Temp\ccoxdEfV.s 			page 61


 2288              		.loc 1 107 43 view .LVU732
 2289 0134 0022     		movs	r2, #0
 2290 0136 1A76     		strb	r2, [r3, #24]
 108:Service/Srv_SensorMonitor.c ****         }
 2291              		.loc 1 108 13 is_stmt 1 view .LVU733
 108:Service/Srv_SensorMonitor.c ****         }
 2292              		.loc 1 108 24 is_stmt 0 view .LVU734
 2293 0138 0135     		adds	r5, r5, #1
 2294              	.LVL214:
 108:Service/Srv_SensorMonitor.c ****         }
 2295              		.loc 1 108 24 view .LVU735
 2296 013a ADB2     		uxth	r5, r5
 108:Service/Srv_SensorMonitor.c ****         }
 2297              		.loc 1 108 24 view .LVU736
 2298 013c B3E7     		b	.L165
 2299              	.LVL215:
 2300              	.L166:
 128:Service/Srv_SensorMonitor.c ****         }
 2301              		.loc 1 128 13 is_stmt 1 view .LVU737
 128:Service/Srv_SensorMonitor.c ****         }
 2302              		.loc 1 128 42 is_stmt 0 view .LVU738
 2303 013e 2379     		ldrb	r3, [r4, #4]	@ zero_extendqisi2
 2304 0140 6FF3C303 		bfc	r3, #3, #1
 2305 0144 2371     		strb	r3, [r4, #4]
 131:Service/Srv_SensorMonitor.c ****     }
 2306              		.loc 1 131 9 is_stmt 1 view .LVU739
 131:Service/Srv_SensorMonitor.c ****     }
 2307              		.loc 1 131 16 is_stmt 0 view .LVU740
 2308 0146 00E0     		b	.L157
 2309              	.LVL216:
 2310              	.L168:
 134:Service/Srv_SensorMonitor.c **** }
 2311              		.loc 1 134 12 view .LVU741
 2312 0148 0026     		movs	r6, #0
 2313              	.LVL217:
 2314              	.L157:
 135:Service/Srv_SensorMonitor.c **** 
 2315              		.loc 1 135 1 view .LVU742
 2316 014a 3046     		mov	r0, r6
 2317 014c BDE8F081 		pop	{r4, r5, r6, r7, r8, pc}
 2318              	.LVL218:
 2319              	.L169:
  85:Service/Srv_SensorMonitor.c **** 
 2320              		.loc 1 85 24 view .LVU743
 2321 0150 0026     		movs	r6, #0
 2322 0152 FAE7     		b	.L157
 2323              	.LVL219:
 2324              	.L170:
 102:Service/Srv_SensorMonitor.c **** 
 2325              		.loc 1 102 24 view .LVU744
 2326 0154 0026     		movs	r6, #0
 2327 0156 F8E7     		b	.L157
 2328              	.L171:
 119:Service/Srv_SensorMonitor.c **** 
 2329              		.loc 1 119 24 view .LVU745
 2330 0158 0026     		movs	r6, #0
 2331 015a F6E7     		b	.L157
ARM GAS  C:\Users\8bit\AppData\Local\Temp\ccoxdEfV.s 			page 62


 2332              	.L177:
 2333              		.align	2
 2334              	.L176:
 2335 015c 00000000 		.word	SrvOsCommon
 2336              		.cfi_endproc
 2337              	.LFE145:
 2339              		.global	SrvSensorMonitor
 2340              		.section	.data.SrvSensorMonitor,"aw"
 2341              		.align	2
 2344              	SrvSensorMonitor:
 2345 0000 00000000 		.word	SrvSensorMonitor_Init
 2346 0004 00000000 		.word	SrvSensorMonitor_SampleCTL
 2347 0008 00000000 		.word	SrvSensorMonitor_IMU_Get_Num
 2348 000c 00000000 		.word	SrvSensorMonitor_Get_IMU_Range
 2349 0010 00000000 		.word	SrvSensorMonitor_Get_IMUData
 2350 0014 00000000 		.word	SrvSensorMonitor_Get_BaroData
 2351 0018 00000000 		.word	SrvSensorMonitor_Set_Module_Calib
 2352 001c 00000000 		.word	SrvSensorMonitor_Get_Module_Calib
 2353              		.text
 2354              	.Letext0:
 2355              		.file 2 "c:\\program files (x86)\\gnu arm embedded toolchain\\10 2021.10\\arm-none-eabi\\include\\
 2356              		.file 3 "c:\\program files (x86)\\gnu arm embedded toolchain\\10 2021.10\\arm-none-eabi\\include\\
 2357              		.file 4 "c:\\program files (x86)\\gnu arm embedded toolchain\\10 2021.10\\lib\\gcc\\arm-none-eabi\
 2358              		.file 5 "System/FreeRTOS/include/portable.h"
 2359              		.file 6 "Service/Srv_OsCommon.h"
 2360              		.file 7 "common/gen_physic_def/imu_data.h"
 2361              		.file 8 "common/gen_physic_def/gen_calib.h"
 2362              		.file 9 "Service/Srv_IMUSample.h"
 2363              		.file 10 "Service/Srv_Baro.h"
 2364              		.file 11 "Service/Srv_SensorMonitor.h"
 2365              		.file 12 "HW_Lib/AT32F435/drivers/inc/at32f435_437_tmr.h"
 2366              		.file 13 "debug/debug_util.h"
 2367              		.file 14 "HW_Lib/AT32F435/PinPort_Def/CCRC_AT32_20/HW_Def.h"
 2368              		.file 15 "<built-in>"
 2369              		.file 16 "common/util.h"
ARM GAS  C:\Users\8bit\AppData\Local\Temp\ccoxdEfV.s 			page 63

